ARM GAS  /var/folders/0z/tsy30v1j4xl4_7kw94k978ww0000gn/T//cc7lPTAE.s 			page 1


   1              		.cpu cortex-m4
   2              		.arch armv7e-m
   3              		.fpu fpv4-sp-d16
   4              		.eabi_attribute 27, 1
   5              		.eabi_attribute 28, 1
   6              		.eabi_attribute 20, 1
   7              		.eabi_attribute 21, 1
   8              		.eabi_attribute 23, 3
   9              		.eabi_attribute 24, 1
  10              		.eabi_attribute 25, 1
  11              		.eabi_attribute 26, 1
  12              		.eabi_attribute 30, 2
  13              		.eabi_attribute 34, 1
  14              		.eabi_attribute 18, 4
  15              		.file	"lv_color.c"
  16              		.text
  17              	.Ltext0:
  18              		.cfi_sections	.debug_frame
  19              		.section	.text.lv_color_fill,"ax",%progbits
  20              		.align	1
  21              		.p2align 2,,3
  22              		.global	lv_color_fill
  23              		.syntax unified
  24              		.thumb
  25              		.thumb_func
  27              	lv_color_fill:
  28              	.LVL0:
  29              	.LFB18:
  30              		.file 1 "Drivers/lvgl/src/misc/lv_color.c"
   1:Drivers/lvgl/src/misc/lv_color.c **** /**
   2:Drivers/lvgl/src/misc/lv_color.c ****  * @file lv_color.c
   3:Drivers/lvgl/src/misc/lv_color.c ****  *
   4:Drivers/lvgl/src/misc/lv_color.c ****  */
   5:Drivers/lvgl/src/misc/lv_color.c **** 
   6:Drivers/lvgl/src/misc/lv_color.c **** /*********************
   7:Drivers/lvgl/src/misc/lv_color.c ****  *      INCLUDES
   8:Drivers/lvgl/src/misc/lv_color.c ****  *********************/
   9:Drivers/lvgl/src/misc/lv_color.c **** #include "lv_color.h"
  10:Drivers/lvgl/src/misc/lv_color.c **** #include "lv_log.h"
  11:Drivers/lvgl/src/misc/lv_color.c **** 
  12:Drivers/lvgl/src/misc/lv_color.c **** /*********************
  13:Drivers/lvgl/src/misc/lv_color.c ****  *      DEFINES
  14:Drivers/lvgl/src/misc/lv_color.c ****  *********************/
  15:Drivers/lvgl/src/misc/lv_color.c **** 
  16:Drivers/lvgl/src/misc/lv_color.c **** /**********************
  17:Drivers/lvgl/src/misc/lv_color.c ****  *      TYPEDEFS
  18:Drivers/lvgl/src/misc/lv_color.c ****  **********************/
  19:Drivers/lvgl/src/misc/lv_color.c **** 
  20:Drivers/lvgl/src/misc/lv_color.c **** /**********************
  21:Drivers/lvgl/src/misc/lv_color.c ****  *  STATIC PROTOTYPES
  22:Drivers/lvgl/src/misc/lv_color.c ****  **********************/
  23:Drivers/lvgl/src/misc/lv_color.c **** 
  24:Drivers/lvgl/src/misc/lv_color.c **** /**********************
  25:Drivers/lvgl/src/misc/lv_color.c ****  *  STATIC VARIABLES
  26:Drivers/lvgl/src/misc/lv_color.c ****  **********************/
  27:Drivers/lvgl/src/misc/lv_color.c **** 
  28:Drivers/lvgl/src/misc/lv_color.c **** /**********************
ARM GAS  /var/folders/0z/tsy30v1j4xl4_7kw94k978ww0000gn/T//cc7lPTAE.s 			page 2


  29:Drivers/lvgl/src/misc/lv_color.c ****  *      MACROS
  30:Drivers/lvgl/src/misc/lv_color.c ****  **********************/
  31:Drivers/lvgl/src/misc/lv_color.c **** 
  32:Drivers/lvgl/src/misc/lv_color.c **** /**********************
  33:Drivers/lvgl/src/misc/lv_color.c ****  *   GLOBAL FUNCTIONS
  34:Drivers/lvgl/src/misc/lv_color.c ****  **********************/
  35:Drivers/lvgl/src/misc/lv_color.c **** 
  36:Drivers/lvgl/src/misc/lv_color.c **** void LV_ATTRIBUTE_FAST_MEM lv_color_fill(lv_color_t * buf, lv_color_t color, uint32_t px_num)
  37:Drivers/lvgl/src/misc/lv_color.c **** {
  31              		.loc 1 37 1 view -0
  32              		.cfi_startproc
  33              		@ args = 0, pretend = 0, frame = 0
  34              		@ frame_needed = 0, uses_anonymous_args = 0
  38:Drivers/lvgl/src/misc/lv_color.c **** #if LV_COLOR_DEPTH == 16
  39:Drivers/lvgl/src/misc/lv_color.c ****     uintptr_t buf_int = (uintptr_t)buf;
  40:Drivers/lvgl/src/misc/lv_color.c ****     if(buf_int & 0x3) {
  35              		.loc 1 40 7 is_stmt 0 view .LVU1
  36 0000 8307     		lsls	r3, r0, #30
  41:Drivers/lvgl/src/misc/lv_color.c ****         *buf = color;
  42:Drivers/lvgl/src/misc/lv_color.c ****         buf++;
  43:Drivers/lvgl/src/misc/lv_color.c ****         px_num--;
  37              		.loc 1 43 15 view .LVU2
  38 0002 1CBF     		itt	ne
  39 0004 02F1FF32 		addne	r2, r2, #-1
  40              	.LVL1:
  41:Drivers/lvgl/src/misc/lv_color.c ****         *buf = color;
  41              		.loc 1 41 14 view .LVU3
  42 0008 20F8021B 		strhne	r1, [r0], #2	@ movhi
  43              	.LVL2:
  37:Drivers/lvgl/src/misc/lv_color.c **** #if LV_COLOR_DEPTH == 16
  44              		.loc 1 37 1 view .LVU4
  45 000c 00B5     		push	{lr}
  46              		.cfi_def_cfa_offset 4
  47              		.cfi_offset 14, -4
  44:Drivers/lvgl/src/misc/lv_color.c ****     }
  45:Drivers/lvgl/src/misc/lv_color.c **** 
  46:Drivers/lvgl/src/misc/lv_color.c ****     uint32_t c32 = (uint32_t)color.full + ((uint32_t)color.full << 16);
  47:Drivers/lvgl/src/misc/lv_color.c ****     uint32_t * buf32 = (uint32_t *)buf;
  48:Drivers/lvgl/src/misc/lv_color.c **** 
  49:Drivers/lvgl/src/misc/lv_color.c ****     while(px_num > 16) {
  48              		.loc 1 49 18 view .LVU5
  49 000e 102A     		cmp	r2, #16
  50 0010 1FFA81FE 		uxth	lr, r1
  51              	.LVL3:
  39:Drivers/lvgl/src/misc/lv_color.c ****     if(buf_int & 0x3) {
  52              		.loc 1 39 5 is_stmt 1 view .LVU6
  40:Drivers/lvgl/src/misc/lv_color.c ****         *buf = color;
  53              		.loc 1 40 5 view .LVU7
  41:Drivers/lvgl/src/misc/lv_color.c ****         buf++;
  54              		.loc 1 41 9 view .LVU8
  42:Drivers/lvgl/src/misc/lv_color.c ****         px_num--;
  55              		.loc 1 42 9 view .LVU9
  43:Drivers/lvgl/src/misc/lv_color.c ****     }
  56              		.loc 1 43 9 view .LVU10
  46:Drivers/lvgl/src/misc/lv_color.c ****     uint32_t * buf32 = (uint32_t *)buf;
  57              		.loc 1 46 5 view .LVU11
  58 0014 0EEB0E41 		add	r1, lr, lr, lsl #16
ARM GAS  /var/folders/0z/tsy30v1j4xl4_7kw94k978ww0000gn/T//cc7lPTAE.s 			page 3


  59              	.LVL4:
  47:Drivers/lvgl/src/misc/lv_color.c **** 
  60              		.loc 1 47 5 view .LVU12
  61              		.loc 1 49 5 view .LVU13
  62              		.loc 1 49 18 view .LVU14
  63 0018 24D9     		bls	.L3
  64 001a 00F12003 		add	r3, r0, #32
  65 001e 9446     		mov	ip, r2
  66              	.LVL5:
  67              	.L4:
  50:Drivers/lvgl/src/misc/lv_color.c ****         *buf32 = c32;
  68              		.loc 1 50 9 view .LVU15
  51:Drivers/lvgl/src/misc/lv_color.c ****         buf32++;
  52:Drivers/lvgl/src/misc/lv_color.c ****         *buf32 = c32;
  53:Drivers/lvgl/src/misc/lv_color.c ****         buf32++;
  54:Drivers/lvgl/src/misc/lv_color.c ****         *buf32 = c32;
  55:Drivers/lvgl/src/misc/lv_color.c ****         buf32++;
  56:Drivers/lvgl/src/misc/lv_color.c ****         *buf32 = c32;
  57:Drivers/lvgl/src/misc/lv_color.c ****         buf32++;
  58:Drivers/lvgl/src/misc/lv_color.c **** 
  59:Drivers/lvgl/src/misc/lv_color.c ****         *buf32 = c32;
  60:Drivers/lvgl/src/misc/lv_color.c ****         buf32++;
  61:Drivers/lvgl/src/misc/lv_color.c ****         *buf32 = c32;
  62:Drivers/lvgl/src/misc/lv_color.c ****         buf32++;
  63:Drivers/lvgl/src/misc/lv_color.c ****         *buf32 = c32;
  64:Drivers/lvgl/src/misc/lv_color.c ****         buf32++;
  65:Drivers/lvgl/src/misc/lv_color.c ****         *buf32 = c32;
  66:Drivers/lvgl/src/misc/lv_color.c ****         buf32++;
  67:Drivers/lvgl/src/misc/lv_color.c **** 
  68:Drivers/lvgl/src/misc/lv_color.c ****         px_num -= 16;
  69              		.loc 1 68 16 is_stmt 0 view .LVU16
  70 0020 ACF1100C 		sub	ip, ip, #16
  71              	.LVL6:
  49:Drivers/lvgl/src/misc/lv_color.c ****         *buf32 = c32;
  72              		.loc 1 49 18 view .LVU17
  73 0024 BCF1100F 		cmp	ip, #16
  52:Drivers/lvgl/src/misc/lv_color.c ****         buf32++;
  74              		.loc 1 52 16 view .LVU18
  75 0028 43E90811 		strd	r1, r1, [r3, #-32]
  53:Drivers/lvgl/src/misc/lv_color.c ****         *buf32 = c32;
  76              		.loc 1 53 9 is_stmt 1 view .LVU19
  77              	.LVL7:
  54:Drivers/lvgl/src/misc/lv_color.c ****         buf32++;
  78              		.loc 1 54 9 view .LVU20
  56:Drivers/lvgl/src/misc/lv_color.c ****         buf32++;
  79              		.loc 1 56 16 is_stmt 0 view .LVU21
  80 002c 43E90611 		strd	r1, r1, [r3, #-24]
  57:Drivers/lvgl/src/misc/lv_color.c **** 
  81              		.loc 1 57 9 is_stmt 1 view .LVU22
  82              	.LVL8:
  59:Drivers/lvgl/src/misc/lv_color.c ****         buf32++;
  83              		.loc 1 59 9 view .LVU23
  61:Drivers/lvgl/src/misc/lv_color.c ****         buf32++;
  84              		.loc 1 61 16 is_stmt 0 view .LVU24
  85 0030 43E90411 		strd	r1, r1, [r3, #-16]
  62:Drivers/lvgl/src/misc/lv_color.c ****         *buf32 = c32;
  86              		.loc 1 62 9 is_stmt 1 view .LVU25
ARM GAS  /var/folders/0z/tsy30v1j4xl4_7kw94k978ww0000gn/T//cc7lPTAE.s 			page 4


  87              	.LVL9:
  63:Drivers/lvgl/src/misc/lv_color.c ****         buf32++;
  88              		.loc 1 63 9 view .LVU26
  65:Drivers/lvgl/src/misc/lv_color.c ****         buf32++;
  89              		.loc 1 65 16 is_stmt 0 view .LVU27
  90 0034 43E90211 		strd	r1, r1, [r3, #-8]
  66:Drivers/lvgl/src/misc/lv_color.c **** 
  91              		.loc 1 66 9 is_stmt 1 view .LVU28
  92              	.LVL10:
  93              		.loc 1 68 9 view .LVU29
  49:Drivers/lvgl/src/misc/lv_color.c ****         *buf32 = c32;
  94              		.loc 1 49 18 view .LVU30
  95 0038 03F12003 		add	r3, r3, #32
  96              	.LVL11:
  49:Drivers/lvgl/src/misc/lv_color.c ****         *buf32 = c32;
  97              		.loc 1 49 18 is_stmt 0 view .LVU31
  98 003c F0D8     		bhi	.L4
  49:Drivers/lvgl/src/misc/lv_color.c ****         *buf32 = c32;
  99              		.loc 1 49 18 view .LVU32
 100 003e A2F11103 		sub	r3, r2, #17
 101              	.LVL12:
  49:Drivers/lvgl/src/misc/lv_color.c ****         *buf32 = c32;
 102              		.loc 1 49 18 view .LVU33
 103 0042 1B09     		lsrs	r3, r3, #4
  66:Drivers/lvgl/src/misc/lv_color.c **** 
 104              		.loc 1 66 14 view .LVU34
 105 0044 591C     		adds	r1, r3, #1
 106              	.LVL13:
  66:Drivers/lvgl/src/misc/lv_color.c **** 
 107              		.loc 1 66 14 view .LVU35
 108 0046 103A     		subs	r2, r2, #16
 109              		.loc 1 68 16 view .LVU36
 110 0048 C3EB0373 		rsb	r3, r3, r3, lsl #28
 111 004c 02EB0312 		add	r2, r2, r3, lsl #4
  66:Drivers/lvgl/src/misc/lv_color.c **** 
 112              		.loc 1 66 14 view .LVU37
 113 0050 00EB4110 		add	r0, r0, r1, lsl #5
 114              	.LVL14:
 115              	.L5:
  66:Drivers/lvgl/src/misc/lv_color.c **** 
 116              		.loc 1 66 14 view .LVU38
 117 0054 00EB4202 		add	r2, r0, r2, lsl #1
 118              	.L7:
 119              	.LVL15:
  69:Drivers/lvgl/src/misc/lv_color.c ****     }
  70:Drivers/lvgl/src/misc/lv_color.c **** 
  71:Drivers/lvgl/src/misc/lv_color.c ****     buf = (lv_color_t *)buf32;
  72:Drivers/lvgl/src/misc/lv_color.c **** 
  73:Drivers/lvgl/src/misc/lv_color.c ****     while(px_num) {
  74:Drivers/lvgl/src/misc/lv_color.c ****         *buf = color;
 120              		.loc 1 74 9 is_stmt 1 view .LVU39
 121              		.loc 1 74 14 is_stmt 0 view .LVU40
 122 0058 20F802EB 		strh	lr, [r0], #2	@ movhi
 123              	.LVL16:
  75:Drivers/lvgl/src/misc/lv_color.c ****         buf++;
 124              		.loc 1 75 9 is_stmt 1 view .LVU41
  76:Drivers/lvgl/src/misc/lv_color.c ****         px_num--;
ARM GAS  /var/folders/0z/tsy30v1j4xl4_7kw94k978ww0000gn/T//cc7lPTAE.s 			page 5


 125              		.loc 1 76 9 view .LVU42
  73:Drivers/lvgl/src/misc/lv_color.c ****         *buf = color;
 126              		.loc 1 73 11 view .LVU43
 127 005c 9042     		cmp	r0, r2
 128 005e FBD1     		bne	.L7
  77:Drivers/lvgl/src/misc/lv_color.c ****     }
  78:Drivers/lvgl/src/misc/lv_color.c **** #else
  79:Drivers/lvgl/src/misc/lv_color.c ****     while(px_num > 16) {
  80:Drivers/lvgl/src/misc/lv_color.c ****         *buf = color;
  81:Drivers/lvgl/src/misc/lv_color.c ****         buf++;
  82:Drivers/lvgl/src/misc/lv_color.c ****         *buf = color;
  83:Drivers/lvgl/src/misc/lv_color.c ****         buf++;
  84:Drivers/lvgl/src/misc/lv_color.c ****         *buf = color;
  85:Drivers/lvgl/src/misc/lv_color.c ****         buf++;
  86:Drivers/lvgl/src/misc/lv_color.c ****         *buf = color;
  87:Drivers/lvgl/src/misc/lv_color.c ****         buf++;
  88:Drivers/lvgl/src/misc/lv_color.c **** 
  89:Drivers/lvgl/src/misc/lv_color.c ****         *buf = color;
  90:Drivers/lvgl/src/misc/lv_color.c ****         buf++;
  91:Drivers/lvgl/src/misc/lv_color.c ****         *buf = color;
  92:Drivers/lvgl/src/misc/lv_color.c ****         buf++;
  93:Drivers/lvgl/src/misc/lv_color.c ****         *buf = color;
  94:Drivers/lvgl/src/misc/lv_color.c ****         buf++;
  95:Drivers/lvgl/src/misc/lv_color.c ****         *buf = color;
  96:Drivers/lvgl/src/misc/lv_color.c ****         buf++;
  97:Drivers/lvgl/src/misc/lv_color.c **** 
  98:Drivers/lvgl/src/misc/lv_color.c ****         *buf = color;
  99:Drivers/lvgl/src/misc/lv_color.c ****         buf++;
 100:Drivers/lvgl/src/misc/lv_color.c ****         *buf = color;
 101:Drivers/lvgl/src/misc/lv_color.c ****         buf++;
 102:Drivers/lvgl/src/misc/lv_color.c ****         *buf = color;
 103:Drivers/lvgl/src/misc/lv_color.c ****         buf++;
 104:Drivers/lvgl/src/misc/lv_color.c ****         *buf = color;
 105:Drivers/lvgl/src/misc/lv_color.c ****         buf++;
 106:Drivers/lvgl/src/misc/lv_color.c **** 
 107:Drivers/lvgl/src/misc/lv_color.c ****         *buf = color;
 108:Drivers/lvgl/src/misc/lv_color.c ****         buf++;
 109:Drivers/lvgl/src/misc/lv_color.c ****         *buf = color;
 110:Drivers/lvgl/src/misc/lv_color.c ****         buf++;
 111:Drivers/lvgl/src/misc/lv_color.c ****         *buf = color;
 112:Drivers/lvgl/src/misc/lv_color.c ****         buf++;
 113:Drivers/lvgl/src/misc/lv_color.c ****         *buf = color;
 114:Drivers/lvgl/src/misc/lv_color.c ****         buf++;
 115:Drivers/lvgl/src/misc/lv_color.c **** 
 116:Drivers/lvgl/src/misc/lv_color.c ****         px_num -= 16;
 117:Drivers/lvgl/src/misc/lv_color.c ****     }
 118:Drivers/lvgl/src/misc/lv_color.c ****     while(px_num) {
 119:Drivers/lvgl/src/misc/lv_color.c ****         *buf = color;
 120:Drivers/lvgl/src/misc/lv_color.c ****         buf++;
 121:Drivers/lvgl/src/misc/lv_color.c ****         px_num--;
 122:Drivers/lvgl/src/misc/lv_color.c ****     }
 123:Drivers/lvgl/src/misc/lv_color.c **** #endif
 124:Drivers/lvgl/src/misc/lv_color.c **** }
 129              		.loc 1 124 1 is_stmt 0 view .LVU44
 130 0060 5DF804FB 		ldr	pc, [sp], #4
 131              	.LVL17:
 132              	.L3:
ARM GAS  /var/folders/0z/tsy30v1j4xl4_7kw94k978ww0000gn/T//cc7lPTAE.s 			page 6


  73:Drivers/lvgl/src/misc/lv_color.c ****         *buf = color;
 133              		.loc 1 73 11 is_stmt 1 view .LVU45
 134 0064 002A     		cmp	r2, #0
 135 0066 F5D1     		bne	.L5
 136              		.loc 1 124 1 is_stmt 0 view .LVU46
 137 0068 5DF804FB 		ldr	pc, [sp], #4
 138              		.cfi_endproc
 139              	.LFE18:
 141              		.section	.text.lv_color_lighten,"ax",%progbits
 142              		.align	1
 143              		.p2align 2,,3
 144              		.global	lv_color_lighten
 145              		.syntax unified
 146              		.thumb
 147              		.thumb_func
 149              	lv_color_lighten:
 150              	.LVL18:
 151              	.LFB19:
 125:Drivers/lvgl/src/misc/lv_color.c **** 
 126:Drivers/lvgl/src/misc/lv_color.c **** lv_color_t lv_color_lighten(lv_color_t c, lv_opa_t lvl)
 127:Drivers/lvgl/src/misc/lv_color.c **** {
 152              		.loc 1 127 1 is_stmt 1 view -0
 153              		.cfi_startproc
 154              		@ args = 0, pretend = 0, frame = 0
 155              		@ frame_needed = 0, uses_anonymous_args = 0
 156              		@ link register save eliminated.
 128:Drivers/lvgl/src/misc/lv_color.c ****     return lv_color_mix(lv_color_white(), c, lvl);
 157              		.loc 1 128 5 view .LVU48
 158              	.LBB26:
 159              	.LBB27:
 160              		.file 2 "Drivers/lvgl/src/misc/lv_color.h"
   1:Drivers/lvgl/src/misc/lv_color.h **** /**
   2:Drivers/lvgl/src/misc/lv_color.h ****  * @file lv_color.h
   3:Drivers/lvgl/src/misc/lv_color.h ****  *
   4:Drivers/lvgl/src/misc/lv_color.h ****  */
   5:Drivers/lvgl/src/misc/lv_color.h **** 
   6:Drivers/lvgl/src/misc/lv_color.h **** #ifndef LV_COLOR_H
   7:Drivers/lvgl/src/misc/lv_color.h **** #define LV_COLOR_H
   8:Drivers/lvgl/src/misc/lv_color.h **** 
   9:Drivers/lvgl/src/misc/lv_color.h **** #ifdef __cplusplus
  10:Drivers/lvgl/src/misc/lv_color.h **** extern "C" {
  11:Drivers/lvgl/src/misc/lv_color.h **** #endif
  12:Drivers/lvgl/src/misc/lv_color.h **** 
  13:Drivers/lvgl/src/misc/lv_color.h **** /*********************
  14:Drivers/lvgl/src/misc/lv_color.h ****  *      INCLUDES
  15:Drivers/lvgl/src/misc/lv_color.h ****  *********************/
  16:Drivers/lvgl/src/misc/lv_color.h **** #include "../lv_conf_internal.h"
  17:Drivers/lvgl/src/misc/lv_color.h **** #include "lv_assert.h"
  18:Drivers/lvgl/src/misc/lv_color.h **** #include "lv_math.h"
  19:Drivers/lvgl/src/misc/lv_color.h **** #include "lv_types.h"
  20:Drivers/lvgl/src/misc/lv_color.h **** 
  21:Drivers/lvgl/src/misc/lv_color.h **** /*Error checking*/
  22:Drivers/lvgl/src/misc/lv_color.h **** #if LV_COLOR_DEPTH == 24
  23:Drivers/lvgl/src/misc/lv_color.h **** #error "LV_COLOR_DEPTH 24 is deprecated. Use LV_COLOR_DEPTH 32 instead (lv_conf.h)"
  24:Drivers/lvgl/src/misc/lv_color.h **** #endif
  25:Drivers/lvgl/src/misc/lv_color.h **** 
  26:Drivers/lvgl/src/misc/lv_color.h **** #if LV_COLOR_DEPTH != 16 && LV_COLOR_16_SWAP != 0
ARM GAS  /var/folders/0z/tsy30v1j4xl4_7kw94k978ww0000gn/T//cc7lPTAE.s 			page 7


  27:Drivers/lvgl/src/misc/lv_color.h **** #error "LV_COLOR_16_SWAP requires LV_COLOR_DEPTH == 16. Set it in lv_conf.h"
  28:Drivers/lvgl/src/misc/lv_color.h **** #endif
  29:Drivers/lvgl/src/misc/lv_color.h **** 
  30:Drivers/lvgl/src/misc/lv_color.h **** #include <stdint.h>
  31:Drivers/lvgl/src/misc/lv_color.h **** 
  32:Drivers/lvgl/src/misc/lv_color.h **** /*********************
  33:Drivers/lvgl/src/misc/lv_color.h ****  *      DEFINES
  34:Drivers/lvgl/src/misc/lv_color.h ****  *********************/
  35:Drivers/lvgl/src/misc/lv_color.h **** LV_EXPORT_CONST_INT(LV_COLOR_DEPTH);
  36:Drivers/lvgl/src/misc/lv_color.h **** LV_EXPORT_CONST_INT(LV_COLOR_16_SWAP);
  37:Drivers/lvgl/src/misc/lv_color.h **** 
  38:Drivers/lvgl/src/misc/lv_color.h **** /**
  39:Drivers/lvgl/src/misc/lv_color.h ****  * Opacity percentages.
  40:Drivers/lvgl/src/misc/lv_color.h ****  */
  41:Drivers/lvgl/src/misc/lv_color.h **** enum {
  42:Drivers/lvgl/src/misc/lv_color.h ****     LV_OPA_TRANSP = 0,
  43:Drivers/lvgl/src/misc/lv_color.h ****     LV_OPA_0      = 0,
  44:Drivers/lvgl/src/misc/lv_color.h ****     LV_OPA_10     = 25,
  45:Drivers/lvgl/src/misc/lv_color.h ****     LV_OPA_20     = 51,
  46:Drivers/lvgl/src/misc/lv_color.h ****     LV_OPA_30     = 76,
  47:Drivers/lvgl/src/misc/lv_color.h ****     LV_OPA_40     = 102,
  48:Drivers/lvgl/src/misc/lv_color.h ****     LV_OPA_50     = 127,
  49:Drivers/lvgl/src/misc/lv_color.h ****     LV_OPA_60     = 153,
  50:Drivers/lvgl/src/misc/lv_color.h ****     LV_OPA_70     = 178,
  51:Drivers/lvgl/src/misc/lv_color.h ****     LV_OPA_80     = 204,
  52:Drivers/lvgl/src/misc/lv_color.h ****     LV_OPA_90     = 229,
  53:Drivers/lvgl/src/misc/lv_color.h ****     LV_OPA_100    = 255,
  54:Drivers/lvgl/src/misc/lv_color.h ****     LV_OPA_COVER  = 255,
  55:Drivers/lvgl/src/misc/lv_color.h **** };
  56:Drivers/lvgl/src/misc/lv_color.h **** 
  57:Drivers/lvgl/src/misc/lv_color.h **** #define LV_OPA_MIN 2    /*Opacities below this will be transparent*/
  58:Drivers/lvgl/src/misc/lv_color.h **** #define LV_OPA_MAX 253  /*Opacities above this will fully cover*/
  59:Drivers/lvgl/src/misc/lv_color.h **** 
  60:Drivers/lvgl/src/misc/lv_color.h **** #if LV_COLOR_DEPTH == 1
  61:Drivers/lvgl/src/misc/lv_color.h **** #define LV_COLOR_SIZE 8
  62:Drivers/lvgl/src/misc/lv_color.h **** #elif LV_COLOR_DEPTH == 8
  63:Drivers/lvgl/src/misc/lv_color.h **** #define LV_COLOR_SIZE 8
  64:Drivers/lvgl/src/misc/lv_color.h **** #elif LV_COLOR_DEPTH == 16
  65:Drivers/lvgl/src/misc/lv_color.h **** #define LV_COLOR_SIZE 16
  66:Drivers/lvgl/src/misc/lv_color.h **** #elif LV_COLOR_DEPTH == 32
  67:Drivers/lvgl/src/misc/lv_color.h **** #define LV_COLOR_SIZE 32
  68:Drivers/lvgl/src/misc/lv_color.h **** #else
  69:Drivers/lvgl/src/misc/lv_color.h **** #error "Invalid LV_COLOR_DEPTH in lv_conf.h! Set it to 1, 8, 16 or 32!"
  70:Drivers/lvgl/src/misc/lv_color.h **** #endif
  71:Drivers/lvgl/src/misc/lv_color.h **** 
  72:Drivers/lvgl/src/misc/lv_color.h **** #if defined(__cplusplus) && !defined(_LV_COLOR_HAS_MODERN_CPP)
  73:Drivers/lvgl/src/misc/lv_color.h **** /**
  74:Drivers/lvgl/src/misc/lv_color.h **** * MSVC compiler's definition of the __cplusplus indicating 199711L regardless to C++ standard versi
  75:Drivers/lvgl/src/misc/lv_color.h **** * see https://devblogs.microsoft.com/cppblog/msvc-now-correctly-reports-cplusplus
  76:Drivers/lvgl/src/misc/lv_color.h **** * so we use _MSC_VER macro instead of __cplusplus
  77:Drivers/lvgl/src/misc/lv_color.h **** */
  78:Drivers/lvgl/src/misc/lv_color.h **** #ifdef _MSC_VER
  79:Drivers/lvgl/src/misc/lv_color.h **** #if _MSC_VER >= 1900 /*Visual Studio 2015*/
  80:Drivers/lvgl/src/misc/lv_color.h **** #define _LV_COLOR_HAS_MODERN_CPP 1
  81:Drivers/lvgl/src/misc/lv_color.h **** #endif
  82:Drivers/lvgl/src/misc/lv_color.h **** #else
  83:Drivers/lvgl/src/misc/lv_color.h **** #if __cplusplus >= 201103L
ARM GAS  /var/folders/0z/tsy30v1j4xl4_7kw94k978ww0000gn/T//cc7lPTAE.s 			page 8


  84:Drivers/lvgl/src/misc/lv_color.h **** #define _LV_COLOR_HAS_MODERN_CPP 1
  85:Drivers/lvgl/src/misc/lv_color.h **** #endif
  86:Drivers/lvgl/src/misc/lv_color.h **** #endif
  87:Drivers/lvgl/src/misc/lv_color.h **** #endif /*__cplusplus*/
  88:Drivers/lvgl/src/misc/lv_color.h **** 
  89:Drivers/lvgl/src/misc/lv_color.h **** #ifndef _LV_COLOR_HAS_MODERN_CPP
  90:Drivers/lvgl/src/misc/lv_color.h **** #define _LV_COLOR_HAS_MODERN_CPP 0
  91:Drivers/lvgl/src/misc/lv_color.h **** #endif
  92:Drivers/lvgl/src/misc/lv_color.h **** 
  93:Drivers/lvgl/src/misc/lv_color.h **** #if _LV_COLOR_HAS_MODERN_CPP
  94:Drivers/lvgl/src/misc/lv_color.h **** /*Fix msvc compiler error C4576 inside C++ code*/
  95:Drivers/lvgl/src/misc/lv_color.h **** #define _LV_COLOR_MAKE_TYPE_HELPER lv_color_t
  96:Drivers/lvgl/src/misc/lv_color.h **** #else
  97:Drivers/lvgl/src/misc/lv_color.h **** #define _LV_COLOR_MAKE_TYPE_HELPER (lv_color_t)
  98:Drivers/lvgl/src/misc/lv_color.h **** #endif
  99:Drivers/lvgl/src/misc/lv_color.h **** 
 100:Drivers/lvgl/src/misc/lv_color.h **** /*---------------------------------------
 101:Drivers/lvgl/src/misc/lv_color.h ****  * Macros for all existing color depths
 102:Drivers/lvgl/src/misc/lv_color.h ****  * to set/get values of the color channels
 103:Drivers/lvgl/src/misc/lv_color.h ****  *------------------------------------------*/
 104:Drivers/lvgl/src/misc/lv_color.h **** # define LV_COLOR_SET_R1(c, v) (c).ch.red = (uint8_t)((v) & 0x1)
 105:Drivers/lvgl/src/misc/lv_color.h **** # define LV_COLOR_SET_G1(c, v) (c).ch.green = (uint8_t)((v) & 0x1)
 106:Drivers/lvgl/src/misc/lv_color.h **** # define LV_COLOR_SET_B1(c, v) (c).ch.blue = (uint8_t)((v) & 0x1)
 107:Drivers/lvgl/src/misc/lv_color.h **** # define LV_COLOR_SET_A1(c, v) do {} while(0)
 108:Drivers/lvgl/src/misc/lv_color.h **** 
 109:Drivers/lvgl/src/misc/lv_color.h **** # define LV_COLOR_GET_R1(c) (c).ch.red
 110:Drivers/lvgl/src/misc/lv_color.h **** # define LV_COLOR_GET_G1(c) (c).ch.green
 111:Drivers/lvgl/src/misc/lv_color.h **** # define LV_COLOR_GET_B1(c) (c).ch.blue
 112:Drivers/lvgl/src/misc/lv_color.h **** # define LV_COLOR_GET_A1(c) 0xFF
 113:Drivers/lvgl/src/misc/lv_color.h **** 
 114:Drivers/lvgl/src/misc/lv_color.h **** # define _LV_COLOR_ZERO_INITIALIZER1 {0x00}
 115:Drivers/lvgl/src/misc/lv_color.h **** # define LV_COLOR_MAKE1(r8, g8, b8)  {(uint8_t)((b8 >> 7) | (g8 >> 7) | (r8 >> 7))}
 116:Drivers/lvgl/src/misc/lv_color.h **** 
 117:Drivers/lvgl/src/misc/lv_color.h **** # define LV_COLOR_SET_R8(c, v) (c).ch.red = (uint8_t)((v) & 0x7U)
 118:Drivers/lvgl/src/misc/lv_color.h **** # define LV_COLOR_SET_G8(c, v) (c).ch.green = (uint8_t)((v) & 0x7U)
 119:Drivers/lvgl/src/misc/lv_color.h **** # define LV_COLOR_SET_B8(c, v) (c).ch.blue = (uint8_t)((v) & 0x3U)
 120:Drivers/lvgl/src/misc/lv_color.h **** # define LV_COLOR_SET_A8(c, v) do {} while(0)
 121:Drivers/lvgl/src/misc/lv_color.h **** 
 122:Drivers/lvgl/src/misc/lv_color.h **** # define LV_COLOR_GET_R8(c) (c).ch.red
 123:Drivers/lvgl/src/misc/lv_color.h **** # define LV_COLOR_GET_G8(c) (c).ch.green
 124:Drivers/lvgl/src/misc/lv_color.h **** # define LV_COLOR_GET_B8(c) (c).ch.blue
 125:Drivers/lvgl/src/misc/lv_color.h **** # define LV_COLOR_GET_A8(c) 0xFF
 126:Drivers/lvgl/src/misc/lv_color.h **** 
 127:Drivers/lvgl/src/misc/lv_color.h **** # define _LV_COLOR_ZERO_INITIALIZER8 {{0x00, 0x00, 0x00}}
 128:Drivers/lvgl/src/misc/lv_color.h **** # define LV_COLOR_MAKE8(r8, g8, b8) {{(uint8_t)((b8 >> 6) & 0x3U), (uint8_t)((g8 >> 5) & 0x7U), (ui
 129:Drivers/lvgl/src/misc/lv_color.h **** 
 130:Drivers/lvgl/src/misc/lv_color.h **** # define LV_COLOR_SET_R16(c, v) (c).ch.red = (uint8_t)((v) & 0x1FU)
 131:Drivers/lvgl/src/misc/lv_color.h **** #if LV_COLOR_16_SWAP == 0
 132:Drivers/lvgl/src/misc/lv_color.h **** # define LV_COLOR_SET_G16(c, v) (c).ch.green = (uint8_t)((v) & 0x3FU)
 133:Drivers/lvgl/src/misc/lv_color.h **** #else
 134:Drivers/lvgl/src/misc/lv_color.h **** # define LV_COLOR_SET_G16(c, v) {(c).ch.green_h = (uint8_t)(((v) >> 3) & 0x7); (c).ch.green_l = (ui
 135:Drivers/lvgl/src/misc/lv_color.h **** #endif
 136:Drivers/lvgl/src/misc/lv_color.h **** # define LV_COLOR_SET_B16(c, v) (c).ch.blue = (uint8_t)((v) & 0x1FU)
 137:Drivers/lvgl/src/misc/lv_color.h **** # define LV_COLOR_SET_A16(c, v) do {} while(0)
 138:Drivers/lvgl/src/misc/lv_color.h **** 
 139:Drivers/lvgl/src/misc/lv_color.h **** # define LV_COLOR_GET_R16(c) (c).ch.red
 140:Drivers/lvgl/src/misc/lv_color.h **** #if LV_COLOR_16_SWAP == 0
ARM GAS  /var/folders/0z/tsy30v1j4xl4_7kw94k978ww0000gn/T//cc7lPTAE.s 			page 9


 141:Drivers/lvgl/src/misc/lv_color.h **** # define LV_COLOR_GET_G16(c) (c).ch.green
 142:Drivers/lvgl/src/misc/lv_color.h **** #else
 143:Drivers/lvgl/src/misc/lv_color.h **** # define LV_COLOR_GET_G16(c) (((c).ch.green_h << 3) + (c).ch.green_l)
 144:Drivers/lvgl/src/misc/lv_color.h **** #endif
 145:Drivers/lvgl/src/misc/lv_color.h **** # define LV_COLOR_GET_B16(c) (c).ch.blue
 146:Drivers/lvgl/src/misc/lv_color.h **** # define LV_COLOR_GET_A16(c) 0xFF
 147:Drivers/lvgl/src/misc/lv_color.h **** 
 148:Drivers/lvgl/src/misc/lv_color.h **** #if LV_COLOR_16_SWAP == 0
 149:Drivers/lvgl/src/misc/lv_color.h **** # define _LV_COLOR_ZERO_INITIALIZER16  {{0x00, 0x00, 0x00}}
 150:Drivers/lvgl/src/misc/lv_color.h **** # define LV_COLOR_MAKE16(r8, g8, b8) {{(uint8_t)((b8 >> 3) & 0x1FU), (uint8_t)((g8 >> 2) & 0x3FU), 
 151:Drivers/lvgl/src/misc/lv_color.h **** #else
 152:Drivers/lvgl/src/misc/lv_color.h **** # define _LV_COLOR_ZERO_INITIALIZER16 {{0x00, 0x00, 0x00, 0x00}}
 153:Drivers/lvgl/src/misc/lv_color.h **** # define LV_COLOR_MAKE16(r8, g8, b8) {{(uint8_t)((g8 >> 5) & 0x7U), (uint8_t)((r8 >> 3) & 0x1FU), (
 154:Drivers/lvgl/src/misc/lv_color.h **** #endif
 155:Drivers/lvgl/src/misc/lv_color.h **** 
 156:Drivers/lvgl/src/misc/lv_color.h **** # define LV_COLOR_SET_R32(c, v) (c).ch.red = (uint8_t)((v) & 0xFF)
 157:Drivers/lvgl/src/misc/lv_color.h **** # define LV_COLOR_SET_G32(c, v) (c).ch.green = (uint8_t)((v) & 0xFF)
 158:Drivers/lvgl/src/misc/lv_color.h **** # define LV_COLOR_SET_B32(c, v) (c).ch.blue = (uint8_t)((v) & 0xFF)
 159:Drivers/lvgl/src/misc/lv_color.h **** # define LV_COLOR_SET_A32(c, v) (c).ch.alpha = (uint8_t)((v) & 0xFF)
 160:Drivers/lvgl/src/misc/lv_color.h **** 
 161:Drivers/lvgl/src/misc/lv_color.h **** # define LV_COLOR_GET_R32(c) (c).ch.red
 162:Drivers/lvgl/src/misc/lv_color.h **** # define LV_COLOR_GET_G32(c) (c).ch.green
 163:Drivers/lvgl/src/misc/lv_color.h **** # define LV_COLOR_GET_B32(c) (c).ch.blue
 164:Drivers/lvgl/src/misc/lv_color.h **** # define LV_COLOR_GET_A32(c) (c).ch.alpha
 165:Drivers/lvgl/src/misc/lv_color.h **** 
 166:Drivers/lvgl/src/misc/lv_color.h **** # define _LV_COLOR_ZERO_INITIALIZER32  {{0x00, 0x00, 0x00, 0x00}}
 167:Drivers/lvgl/src/misc/lv_color.h **** # define LV_COLOR_MAKE32(r8, g8, b8) {{b8, g8, r8, 0xff}} /*Fix 0xff alpha*/
 168:Drivers/lvgl/src/misc/lv_color.h **** 
 169:Drivers/lvgl/src/misc/lv_color.h **** /*---------------------------------------
 170:Drivers/lvgl/src/misc/lv_color.h ****  * Macros for the current color depth
 171:Drivers/lvgl/src/misc/lv_color.h ****  * to set/get values of the color channels
 172:Drivers/lvgl/src/misc/lv_color.h ****  *------------------------------------------*/
 173:Drivers/lvgl/src/misc/lv_color.h **** #define LV_COLOR_SET_R(c, v) LV_CONCAT(LV_COLOR_SET_R, LV_COLOR_DEPTH)(c, v)
 174:Drivers/lvgl/src/misc/lv_color.h **** #define LV_COLOR_SET_G(c, v) LV_CONCAT(LV_COLOR_SET_G, LV_COLOR_DEPTH)(c, v)
 175:Drivers/lvgl/src/misc/lv_color.h **** #define LV_COLOR_SET_B(c, v) LV_CONCAT(LV_COLOR_SET_B, LV_COLOR_DEPTH)(c, v)
 176:Drivers/lvgl/src/misc/lv_color.h **** #define LV_COLOR_SET_A(c, v) LV_CONCAT(LV_COLOR_SET_A, LV_COLOR_DEPTH)(c, v)
 177:Drivers/lvgl/src/misc/lv_color.h **** 
 178:Drivers/lvgl/src/misc/lv_color.h **** #define LV_COLOR_GET_R(c) LV_CONCAT(LV_COLOR_GET_R, LV_COLOR_DEPTH)(c)
 179:Drivers/lvgl/src/misc/lv_color.h **** #define LV_COLOR_GET_G(c) LV_CONCAT(LV_COLOR_GET_G, LV_COLOR_DEPTH)(c)
 180:Drivers/lvgl/src/misc/lv_color.h **** #define LV_COLOR_GET_B(c) LV_CONCAT(LV_COLOR_GET_B, LV_COLOR_DEPTH)(c)
 181:Drivers/lvgl/src/misc/lv_color.h **** #define LV_COLOR_GET_A(c) LV_CONCAT(LV_COLOR_GET_A, LV_COLOR_DEPTH)(c)
 182:Drivers/lvgl/src/misc/lv_color.h **** 
 183:Drivers/lvgl/src/misc/lv_color.h **** #define _LV_COLOR_ZERO_INITIALIZER LV_CONCAT(_LV_COLOR_ZERO_INITIALIZER, LV_COLOR_DEPTH)
 184:Drivers/lvgl/src/misc/lv_color.h **** #define LV_COLOR_MAKE(r8, g8, b8) LV_CONCAT(LV_COLOR_MAKE, LV_COLOR_DEPTH)(r8, g8, b8)
 185:Drivers/lvgl/src/misc/lv_color.h **** 
 186:Drivers/lvgl/src/misc/lv_color.h **** /**********************
 187:Drivers/lvgl/src/misc/lv_color.h ****  *      TYPEDEFS
 188:Drivers/lvgl/src/misc/lv_color.h ****  **********************/
 189:Drivers/lvgl/src/misc/lv_color.h **** 
 190:Drivers/lvgl/src/misc/lv_color.h **** typedef union {
 191:Drivers/lvgl/src/misc/lv_color.h ****     uint8_t full; /*must be declared first to set all bits of byte via initializer list*/
 192:Drivers/lvgl/src/misc/lv_color.h ****     union {
 193:Drivers/lvgl/src/misc/lv_color.h ****         uint8_t blue : 1;
 194:Drivers/lvgl/src/misc/lv_color.h ****         uint8_t green : 1;
 195:Drivers/lvgl/src/misc/lv_color.h ****         uint8_t red : 1;
 196:Drivers/lvgl/src/misc/lv_color.h ****     } ch;
 197:Drivers/lvgl/src/misc/lv_color.h **** } lv_color1_t;
ARM GAS  /var/folders/0z/tsy30v1j4xl4_7kw94k978ww0000gn/T//cc7lPTAE.s 			page 10


 198:Drivers/lvgl/src/misc/lv_color.h **** 
 199:Drivers/lvgl/src/misc/lv_color.h **** typedef union {
 200:Drivers/lvgl/src/misc/lv_color.h ****     struct {
 201:Drivers/lvgl/src/misc/lv_color.h ****         uint8_t blue : 2;
 202:Drivers/lvgl/src/misc/lv_color.h ****         uint8_t green : 3;
 203:Drivers/lvgl/src/misc/lv_color.h ****         uint8_t red : 3;
 204:Drivers/lvgl/src/misc/lv_color.h ****     } ch;
 205:Drivers/lvgl/src/misc/lv_color.h ****     uint8_t full;
 206:Drivers/lvgl/src/misc/lv_color.h **** } lv_color8_t;
 207:Drivers/lvgl/src/misc/lv_color.h **** 
 208:Drivers/lvgl/src/misc/lv_color.h **** typedef union {
 209:Drivers/lvgl/src/misc/lv_color.h ****     struct {
 210:Drivers/lvgl/src/misc/lv_color.h **** #if LV_COLOR_16_SWAP == 0
 211:Drivers/lvgl/src/misc/lv_color.h ****         uint16_t blue : 5;
 212:Drivers/lvgl/src/misc/lv_color.h ****         uint16_t green : 6;
 213:Drivers/lvgl/src/misc/lv_color.h ****         uint16_t red : 5;
 214:Drivers/lvgl/src/misc/lv_color.h **** #else
 215:Drivers/lvgl/src/misc/lv_color.h ****         uint16_t green_h : 3;
 216:Drivers/lvgl/src/misc/lv_color.h ****         uint16_t red : 5;
 217:Drivers/lvgl/src/misc/lv_color.h ****         uint16_t blue : 5;
 218:Drivers/lvgl/src/misc/lv_color.h ****         uint16_t green_l : 3;
 219:Drivers/lvgl/src/misc/lv_color.h **** #endif
 220:Drivers/lvgl/src/misc/lv_color.h ****     } ch;
 221:Drivers/lvgl/src/misc/lv_color.h ****     uint16_t full;
 222:Drivers/lvgl/src/misc/lv_color.h **** } lv_color16_t;
 223:Drivers/lvgl/src/misc/lv_color.h **** 
 224:Drivers/lvgl/src/misc/lv_color.h **** typedef union {
 225:Drivers/lvgl/src/misc/lv_color.h ****     struct {
 226:Drivers/lvgl/src/misc/lv_color.h ****         uint8_t blue;
 227:Drivers/lvgl/src/misc/lv_color.h ****         uint8_t green;
 228:Drivers/lvgl/src/misc/lv_color.h ****         uint8_t red;
 229:Drivers/lvgl/src/misc/lv_color.h ****         uint8_t alpha;
 230:Drivers/lvgl/src/misc/lv_color.h ****     } ch;
 231:Drivers/lvgl/src/misc/lv_color.h ****     uint32_t full;
 232:Drivers/lvgl/src/misc/lv_color.h **** } lv_color32_t;
 233:Drivers/lvgl/src/misc/lv_color.h **** 
 234:Drivers/lvgl/src/misc/lv_color.h **** typedef LV_CONCAT3(uint, LV_COLOR_SIZE, _t) lv_color_int_t;
 235:Drivers/lvgl/src/misc/lv_color.h **** typedef LV_CONCAT3(lv_color, LV_COLOR_DEPTH, _t) lv_color_t;
 236:Drivers/lvgl/src/misc/lv_color.h **** 
 237:Drivers/lvgl/src/misc/lv_color.h **** typedef struct {
 238:Drivers/lvgl/src/misc/lv_color.h ****     uint16_t h;
 239:Drivers/lvgl/src/misc/lv_color.h ****     uint8_t s;
 240:Drivers/lvgl/src/misc/lv_color.h ****     uint8_t v;
 241:Drivers/lvgl/src/misc/lv_color.h **** } lv_color_hsv_t;
 242:Drivers/lvgl/src/misc/lv_color.h **** 
 243:Drivers/lvgl/src/misc/lv_color.h **** //! @cond Doxygen_Suppress
 244:Drivers/lvgl/src/misc/lv_color.h **** /*No idea where the guard is required but else throws warnings in the docs*/
 245:Drivers/lvgl/src/misc/lv_color.h **** typedef uint8_t lv_opa_t;
 246:Drivers/lvgl/src/misc/lv_color.h **** //! @endcond
 247:Drivers/lvgl/src/misc/lv_color.h **** 
 248:Drivers/lvgl/src/misc/lv_color.h **** struct _lv_color_filter_dsc_t;
 249:Drivers/lvgl/src/misc/lv_color.h **** 
 250:Drivers/lvgl/src/misc/lv_color.h **** typedef lv_color_t (*lv_color_filter_cb_t)(const struct _lv_color_filter_dsc_t *, lv_color_t, lv_op
 251:Drivers/lvgl/src/misc/lv_color.h **** 
 252:Drivers/lvgl/src/misc/lv_color.h **** typedef struct _lv_color_filter_dsc_t {
 253:Drivers/lvgl/src/misc/lv_color.h ****     lv_color_filter_cb_t filter_cb;
 254:Drivers/lvgl/src/misc/lv_color.h ****     void * user_data;
ARM GAS  /var/folders/0z/tsy30v1j4xl4_7kw94k978ww0000gn/T//cc7lPTAE.s 			page 11


 255:Drivers/lvgl/src/misc/lv_color.h **** } lv_color_filter_dsc_t;
 256:Drivers/lvgl/src/misc/lv_color.h **** 
 257:Drivers/lvgl/src/misc/lv_color.h **** 
 258:Drivers/lvgl/src/misc/lv_color.h **** typedef enum {
 259:Drivers/lvgl/src/misc/lv_color.h ****     LV_PALETTE_RED,
 260:Drivers/lvgl/src/misc/lv_color.h ****     LV_PALETTE_PINK,
 261:Drivers/lvgl/src/misc/lv_color.h ****     LV_PALETTE_PURPLE,
 262:Drivers/lvgl/src/misc/lv_color.h ****     LV_PALETTE_DEEP_PURPLE,
 263:Drivers/lvgl/src/misc/lv_color.h ****     LV_PALETTE_INDIGO,
 264:Drivers/lvgl/src/misc/lv_color.h ****     LV_PALETTE_BLUE,
 265:Drivers/lvgl/src/misc/lv_color.h ****     LV_PALETTE_LIGHT_BLUE,
 266:Drivers/lvgl/src/misc/lv_color.h ****     LV_PALETTE_CYAN,
 267:Drivers/lvgl/src/misc/lv_color.h ****     LV_PALETTE_TEAL,
 268:Drivers/lvgl/src/misc/lv_color.h ****     LV_PALETTE_GREEN,
 269:Drivers/lvgl/src/misc/lv_color.h ****     LV_PALETTE_LIGHT_GREEN,
 270:Drivers/lvgl/src/misc/lv_color.h ****     LV_PALETTE_LIME,
 271:Drivers/lvgl/src/misc/lv_color.h ****     LV_PALETTE_YELLOW,
 272:Drivers/lvgl/src/misc/lv_color.h ****     LV_PALETTE_AMBER,
 273:Drivers/lvgl/src/misc/lv_color.h ****     LV_PALETTE_ORANGE,
 274:Drivers/lvgl/src/misc/lv_color.h ****     LV_PALETTE_DEEP_ORANGE,
 275:Drivers/lvgl/src/misc/lv_color.h ****     LV_PALETTE_BROWN,
 276:Drivers/lvgl/src/misc/lv_color.h ****     LV_PALETTE_BLUE_GREY,
 277:Drivers/lvgl/src/misc/lv_color.h ****     LV_PALETTE_GREY,
 278:Drivers/lvgl/src/misc/lv_color.h ****     _LV_PALETTE_LAST,
 279:Drivers/lvgl/src/misc/lv_color.h ****     LV_PALETTE_NONE = 0xff,
 280:Drivers/lvgl/src/misc/lv_color.h **** } lv_palette_t;
 281:Drivers/lvgl/src/misc/lv_color.h **** 
 282:Drivers/lvgl/src/misc/lv_color.h **** /**********************
 283:Drivers/lvgl/src/misc/lv_color.h ****  * GLOBAL PROTOTYPES
 284:Drivers/lvgl/src/misc/lv_color.h ****  **********************/
 285:Drivers/lvgl/src/misc/lv_color.h **** 
 286:Drivers/lvgl/src/misc/lv_color.h **** /*In color conversations:
 287:Drivers/lvgl/src/misc/lv_color.h ****  * - When converting to bigger color type the LSB weight of 1 LSB is calculated
 288:Drivers/lvgl/src/misc/lv_color.h ****  *   E.g. 16 bit Red has 5 bits
 289:Drivers/lvgl/src/misc/lv_color.h ****  *         8 bit Red has 3 bits
 290:Drivers/lvgl/src/misc/lv_color.h ****  *        ----------------------
 291:Drivers/lvgl/src/misc/lv_color.h ****  *        8 bit red LSB = (2^5 - 1) / (2^3 - 1) = 31 / 7 = 4
 292:Drivers/lvgl/src/misc/lv_color.h ****  *
 293:Drivers/lvgl/src/misc/lv_color.h ****  * - When calculating to smaller color type simply shift out the LSBs
 294:Drivers/lvgl/src/misc/lv_color.h ****  *   E.g.  8 bit Red has 3 bits
 295:Drivers/lvgl/src/misc/lv_color.h ****  *        16 bit Red has 5 bits
 296:Drivers/lvgl/src/misc/lv_color.h ****  *        ----------------------
 297:Drivers/lvgl/src/misc/lv_color.h ****  *         Shift right with 5 - 3 = 2
 298:Drivers/lvgl/src/misc/lv_color.h ****  */
 299:Drivers/lvgl/src/misc/lv_color.h **** static inline uint8_t lv_color_to1(lv_color_t color)
 300:Drivers/lvgl/src/misc/lv_color.h **** {
 301:Drivers/lvgl/src/misc/lv_color.h **** #if LV_COLOR_DEPTH == 1
 302:Drivers/lvgl/src/misc/lv_color.h ****     return color.full;
 303:Drivers/lvgl/src/misc/lv_color.h **** #elif LV_COLOR_DEPTH == 8
 304:Drivers/lvgl/src/misc/lv_color.h ****     if((LV_COLOR_GET_R(color) & 0x4) || (LV_COLOR_GET_G(color) & 0x4) || (LV_COLOR_GET_B(color) & 0
 305:Drivers/lvgl/src/misc/lv_color.h ****         return 1;
 306:Drivers/lvgl/src/misc/lv_color.h ****     }
 307:Drivers/lvgl/src/misc/lv_color.h ****     else {
 308:Drivers/lvgl/src/misc/lv_color.h ****         return 0;
 309:Drivers/lvgl/src/misc/lv_color.h ****     }
 310:Drivers/lvgl/src/misc/lv_color.h **** #elif LV_COLOR_DEPTH == 16
 311:Drivers/lvgl/src/misc/lv_color.h ****     if((LV_COLOR_GET_R(color) & 0x10) || (LV_COLOR_GET_G(color) & 0x20) || (LV_COLOR_GET_B(color) &
ARM GAS  /var/folders/0z/tsy30v1j4xl4_7kw94k978ww0000gn/T//cc7lPTAE.s 			page 12


 312:Drivers/lvgl/src/misc/lv_color.h ****         return 1;
 313:Drivers/lvgl/src/misc/lv_color.h ****     }
 314:Drivers/lvgl/src/misc/lv_color.h ****     else {
 315:Drivers/lvgl/src/misc/lv_color.h ****         return 0;
 316:Drivers/lvgl/src/misc/lv_color.h ****     }
 317:Drivers/lvgl/src/misc/lv_color.h **** #elif LV_COLOR_DEPTH == 32
 318:Drivers/lvgl/src/misc/lv_color.h ****     if((LV_COLOR_GET_R(color) & 0x80) || (LV_COLOR_GET_G(color) & 0x80) || (LV_COLOR_GET_B(color) &
 319:Drivers/lvgl/src/misc/lv_color.h ****         return 1;
 320:Drivers/lvgl/src/misc/lv_color.h ****     }
 321:Drivers/lvgl/src/misc/lv_color.h ****     else {
 322:Drivers/lvgl/src/misc/lv_color.h ****         return 0;
 323:Drivers/lvgl/src/misc/lv_color.h ****     }
 324:Drivers/lvgl/src/misc/lv_color.h **** #endif
 325:Drivers/lvgl/src/misc/lv_color.h **** }
 326:Drivers/lvgl/src/misc/lv_color.h **** 
 327:Drivers/lvgl/src/misc/lv_color.h **** static inline uint8_t lv_color_to8(lv_color_t color)
 328:Drivers/lvgl/src/misc/lv_color.h **** {
 329:Drivers/lvgl/src/misc/lv_color.h **** #if LV_COLOR_DEPTH == 1
 330:Drivers/lvgl/src/misc/lv_color.h ****     if(color.full == 0)
 331:Drivers/lvgl/src/misc/lv_color.h ****         return 0;
 332:Drivers/lvgl/src/misc/lv_color.h ****     else
 333:Drivers/lvgl/src/misc/lv_color.h ****         return 0xFF;
 334:Drivers/lvgl/src/misc/lv_color.h **** #elif LV_COLOR_DEPTH == 8
 335:Drivers/lvgl/src/misc/lv_color.h ****     return color.full;
 336:Drivers/lvgl/src/misc/lv_color.h **** #elif LV_COLOR_DEPTH == 16
 337:Drivers/lvgl/src/misc/lv_color.h ****     lv_color8_t ret;
 338:Drivers/lvgl/src/misc/lv_color.h ****     LV_COLOR_SET_R8(ret, LV_COLOR_GET_R(color) >> 2); /*5 - 3  = 2*/
 339:Drivers/lvgl/src/misc/lv_color.h ****     LV_COLOR_SET_G8(ret, LV_COLOR_GET_G(color) >> 3); /*6 - 3  = 3*/
 340:Drivers/lvgl/src/misc/lv_color.h ****     LV_COLOR_SET_B8(ret, LV_COLOR_GET_B(color) >> 3); /*5 - 2  = 3*/
 341:Drivers/lvgl/src/misc/lv_color.h ****     return ret.full;
 342:Drivers/lvgl/src/misc/lv_color.h **** #elif LV_COLOR_DEPTH == 32
 343:Drivers/lvgl/src/misc/lv_color.h ****     lv_color8_t ret;
 344:Drivers/lvgl/src/misc/lv_color.h ****     LV_COLOR_SET_R8(ret, LV_COLOR_GET_R(color) >> 5); /*8 - 3  = 5*/
 345:Drivers/lvgl/src/misc/lv_color.h ****     LV_COLOR_SET_G8(ret, LV_COLOR_GET_G(color) >> 5); /*8 - 3  = 5*/
 346:Drivers/lvgl/src/misc/lv_color.h ****     LV_COLOR_SET_B8(ret, LV_COLOR_GET_B(color) >> 6); /*8 - 2  = 6*/
 347:Drivers/lvgl/src/misc/lv_color.h ****     return ret.full;
 348:Drivers/lvgl/src/misc/lv_color.h **** #endif
 349:Drivers/lvgl/src/misc/lv_color.h **** }
 350:Drivers/lvgl/src/misc/lv_color.h **** 
 351:Drivers/lvgl/src/misc/lv_color.h **** static inline uint16_t lv_color_to16(lv_color_t color)
 352:Drivers/lvgl/src/misc/lv_color.h **** {
 353:Drivers/lvgl/src/misc/lv_color.h **** #if LV_COLOR_DEPTH == 1
 354:Drivers/lvgl/src/misc/lv_color.h ****     if(color.full == 0)
 355:Drivers/lvgl/src/misc/lv_color.h ****         return 0;
 356:Drivers/lvgl/src/misc/lv_color.h ****     else
 357:Drivers/lvgl/src/misc/lv_color.h ****         return 0xFFFF;
 358:Drivers/lvgl/src/misc/lv_color.h **** #elif LV_COLOR_DEPTH == 8
 359:Drivers/lvgl/src/misc/lv_color.h ****     lv_color16_t ret;
 360:Drivers/lvgl/src/misc/lv_color.h ****     LV_COLOR_SET_R16(ret, LV_COLOR_GET_R(color) * 4);  /*(2^5 - 1)/(2^3 - 1) = 31/7 = 4*/
 361:Drivers/lvgl/src/misc/lv_color.h ****     LV_COLOR_SET_G16(ret, LV_COLOR_GET_G(color) * 9);  /*(2^6 - 1)/(2^3 - 1) = 63/7 = 9*/
 362:Drivers/lvgl/src/misc/lv_color.h ****     LV_COLOR_SET_B16(ret, LV_COLOR_GET_B(color) * 10); /*(2^5 - 1)/(2^2 - 1) = 31/3 = 10*/
 363:Drivers/lvgl/src/misc/lv_color.h ****     return ret.full;
 364:Drivers/lvgl/src/misc/lv_color.h **** #elif LV_COLOR_DEPTH == 16
 365:Drivers/lvgl/src/misc/lv_color.h ****     return color.full;
 366:Drivers/lvgl/src/misc/lv_color.h **** #elif LV_COLOR_DEPTH == 32
 367:Drivers/lvgl/src/misc/lv_color.h ****     lv_color16_t ret;
 368:Drivers/lvgl/src/misc/lv_color.h ****     LV_COLOR_SET_R16(ret, LV_COLOR_GET_R(color) >> 3); /*8 - 5  = 3*/
ARM GAS  /var/folders/0z/tsy30v1j4xl4_7kw94k978ww0000gn/T//cc7lPTAE.s 			page 13


 369:Drivers/lvgl/src/misc/lv_color.h ****     LV_COLOR_SET_G16(ret, LV_COLOR_GET_G(color) >> 2); /*8 - 6  = 2*/
 370:Drivers/lvgl/src/misc/lv_color.h ****     LV_COLOR_SET_B16(ret, LV_COLOR_GET_B(color) >> 3); /*8 - 5  = 3*/
 371:Drivers/lvgl/src/misc/lv_color.h ****     return ret.full;
 372:Drivers/lvgl/src/misc/lv_color.h **** #endif
 373:Drivers/lvgl/src/misc/lv_color.h **** }
 374:Drivers/lvgl/src/misc/lv_color.h **** 
 375:Drivers/lvgl/src/misc/lv_color.h **** static inline uint32_t lv_color_to32(lv_color_t color)
 376:Drivers/lvgl/src/misc/lv_color.h **** {
 377:Drivers/lvgl/src/misc/lv_color.h **** #if LV_COLOR_DEPTH == 1
 378:Drivers/lvgl/src/misc/lv_color.h ****     if(color.full == 0)
 379:Drivers/lvgl/src/misc/lv_color.h ****         return 0xFF000000;
 380:Drivers/lvgl/src/misc/lv_color.h ****     else
 381:Drivers/lvgl/src/misc/lv_color.h ****         return 0xFFFFFFFF;
 382:Drivers/lvgl/src/misc/lv_color.h **** #elif LV_COLOR_DEPTH == 8
 383:Drivers/lvgl/src/misc/lv_color.h ****     lv_color32_t ret;
 384:Drivers/lvgl/src/misc/lv_color.h ****     LV_COLOR_SET_R32(ret, LV_COLOR_GET_R(color) * 36); /*(2^8 - 1)/(2^3 - 1) = 255/7 = 36*/
 385:Drivers/lvgl/src/misc/lv_color.h ****     LV_COLOR_SET_G32(ret, LV_COLOR_GET_G(color) * 36); /*(2^8 - 1)/(2^3 - 1) = 255/7 = 36*/
 386:Drivers/lvgl/src/misc/lv_color.h ****     LV_COLOR_SET_B32(ret, LV_COLOR_GET_B(color) * 85); /*(2^8 - 1)/(2^2 - 1) = 255/3 = 85*/
 387:Drivers/lvgl/src/misc/lv_color.h ****     LV_COLOR_SET_A32(ret, 0xFF);
 388:Drivers/lvgl/src/misc/lv_color.h ****     return ret.full;
 389:Drivers/lvgl/src/misc/lv_color.h **** #elif LV_COLOR_DEPTH == 16
 390:Drivers/lvgl/src/misc/lv_color.h ****     /**
 391:Drivers/lvgl/src/misc/lv_color.h ****      * The floating point math for conversion is:
 392:Drivers/lvgl/src/misc/lv_color.h ****      *  valueto = valuefrom * ( (2^bitsto - 1) / (float)(2^bitsfrom - 1) )
 393:Drivers/lvgl/src/misc/lv_color.h ****      * The faster integer math for conversion is:
 394:Drivers/lvgl/src/misc/lv_color.h ****      *  valueto = ( valuefrom * multiplier + adder ) >> divisor
 395:Drivers/lvgl/src/misc/lv_color.h ****      *   multiplier = FLOOR( ( (2^bitsto - 1) << divisor ) / (float)(2^bitsfrom - 1) )
 396:Drivers/lvgl/src/misc/lv_color.h ****      *
 397:Drivers/lvgl/src/misc/lv_color.h ****      * Find the first divisor where ( adder >> divisor ) <= 0
 398:Drivers/lvgl/src/misc/lv_color.h ****      *
 399:Drivers/lvgl/src/misc/lv_color.h ****      * 5-bit to 8-bit: ( 31 * multiplier + adder ) >> divisor = 255
 400:Drivers/lvgl/src/misc/lv_color.h ****      * divisor  multiplier  adder  min (0)  max (31)
 401:Drivers/lvgl/src/misc/lv_color.h ****      *       0           8      7        7       255
 402:Drivers/lvgl/src/misc/lv_color.h ****      *       1          16     14        7       255
 403:Drivers/lvgl/src/misc/lv_color.h ****      *       2          32     28        7       255
 404:Drivers/lvgl/src/misc/lv_color.h ****      *       3          65     25        3       255
 405:Drivers/lvgl/src/misc/lv_color.h ****      *       4         131     19        1       255
 406:Drivers/lvgl/src/misc/lv_color.h ****      *       5         263      7        0       255
 407:Drivers/lvgl/src/misc/lv_color.h ****      *
 408:Drivers/lvgl/src/misc/lv_color.h ****      * 6-bit to 8-bit: 255 = ( 63 * multiplier + adder ) >> divisor
 409:Drivers/lvgl/src/misc/lv_color.h ****      * divisor  multiplier  adder  min (0)  max (63)
 410:Drivers/lvgl/src/misc/lv_color.h ****      *       0           4      3        3       255
 411:Drivers/lvgl/src/misc/lv_color.h ****      *       1           8      6        3       255
 412:Drivers/lvgl/src/misc/lv_color.h ****      *       2          16     12        3       255
 413:Drivers/lvgl/src/misc/lv_color.h ****      *       3          32     24        3       255
 414:Drivers/lvgl/src/misc/lv_color.h ****      *       4          64     48        3       255
 415:Drivers/lvgl/src/misc/lv_color.h ****      *       5         129     33        1       255
 416:Drivers/lvgl/src/misc/lv_color.h ****      *       6         259      3        0       255
 417:Drivers/lvgl/src/misc/lv_color.h ****      */
 418:Drivers/lvgl/src/misc/lv_color.h **** 
 419:Drivers/lvgl/src/misc/lv_color.h ****     lv_color32_t ret;
 420:Drivers/lvgl/src/misc/lv_color.h ****     LV_COLOR_SET_R32(ret, (LV_COLOR_GET_R(color) * 263 + 7) >> 5);
 421:Drivers/lvgl/src/misc/lv_color.h ****     LV_COLOR_SET_G32(ret, (LV_COLOR_GET_G(color) * 259 + 3) >> 6);
 422:Drivers/lvgl/src/misc/lv_color.h ****     LV_COLOR_SET_B32(ret, (LV_COLOR_GET_B(color) * 263 + 7) >> 5);
 423:Drivers/lvgl/src/misc/lv_color.h ****     LV_COLOR_SET_A32(ret, 0xFF);
 424:Drivers/lvgl/src/misc/lv_color.h ****     return ret.full;
 425:Drivers/lvgl/src/misc/lv_color.h **** #elif LV_COLOR_DEPTH == 32
ARM GAS  /var/folders/0z/tsy30v1j4xl4_7kw94k978ww0000gn/T//cc7lPTAE.s 			page 14


 426:Drivers/lvgl/src/misc/lv_color.h ****     return color.full;
 427:Drivers/lvgl/src/misc/lv_color.h **** #endif
 428:Drivers/lvgl/src/misc/lv_color.h **** }
 429:Drivers/lvgl/src/misc/lv_color.h **** 
 430:Drivers/lvgl/src/misc/lv_color.h **** //! @cond Doxygen_Suppress
 431:Drivers/lvgl/src/misc/lv_color.h **** 
 432:Drivers/lvgl/src/misc/lv_color.h **** /**
 433:Drivers/lvgl/src/misc/lv_color.h ****  * Mix two colors with a given ratio.
 434:Drivers/lvgl/src/misc/lv_color.h ****  * @param c1 the first color to mix (usually the foreground)
 435:Drivers/lvgl/src/misc/lv_color.h ****  * @param c2 the second color to mix (usually the background)
 436:Drivers/lvgl/src/misc/lv_color.h ****  * @param mix The ratio of the colors. 0: full `c2`, 255: full `c1`, 127: half `c1` and half`c2`
 437:Drivers/lvgl/src/misc/lv_color.h ****  * @return the mixed color
 438:Drivers/lvgl/src/misc/lv_color.h ****  */
 439:Drivers/lvgl/src/misc/lv_color.h **** static inline lv_color_t LV_ATTRIBUTE_FAST_MEM lv_color_mix(lv_color_t c1, lv_color_t c2, uint8_t m
 440:Drivers/lvgl/src/misc/lv_color.h **** {
 441:Drivers/lvgl/src/misc/lv_color.h ****     lv_color_t ret;
 442:Drivers/lvgl/src/misc/lv_color.h **** 
 443:Drivers/lvgl/src/misc/lv_color.h **** #if LV_COLOR_DEPTH == 16 && LV_COLOR_MIX_ROUND_OFS == 0
 444:Drivers/lvgl/src/misc/lv_color.h **** #if LV_COLOR_16_SWAP == 1
 445:Drivers/lvgl/src/misc/lv_color.h ****     c1.full = c1.full << 8 | c1.full >> 8;
 446:Drivers/lvgl/src/misc/lv_color.h ****     c2.full = c2.full << 8 | c2.full >> 8;
 447:Drivers/lvgl/src/misc/lv_color.h **** #endif
 448:Drivers/lvgl/src/misc/lv_color.h ****     /*Source: https://stackoverflow.com/a/50012418/1999969*/
 449:Drivers/lvgl/src/misc/lv_color.h ****     mix = (uint32_t)((uint32_t)mix + 4) >> 3;
 450:Drivers/lvgl/src/misc/lv_color.h ****     uint32_t bg = (uint32_t)((uint32_t)c2.full | ((uint32_t)c2.full << 16)) &
 161              		.loc 2 450 30 is_stmt 0 view .LVU49
 162 0000 40BA     		rev16	r0, r0
 163              	.LVL19:
 164              		.loc 2 450 14 view .LVU50
 165 0002 094A     		ldr	r2, .L20
 166              	.LVL20:
 167              		.loc 2 450 14 view .LVU51
 168              	.LBE27:
 169              	.LBI26:
 439:Drivers/lvgl/src/misc/lv_color.h **** {
 170              		.loc 2 439 48 is_stmt 1 view .LVU52
 171              	.LBB28:
 441:Drivers/lvgl/src/misc/lv_color.h **** 
 172              		.loc 2 441 5 view .LVU53
 445:Drivers/lvgl/src/misc/lv_color.h ****     c2.full = c2.full << 8 | c2.full >> 8;
 173              		.loc 2 445 5 view .LVU54
 446:Drivers/lvgl/src/misc/lv_color.h **** #endif
 174              		.loc 2 446 5 view .LVU55
 449:Drivers/lvgl/src/misc/lv_color.h ****     uint32_t bg = (uint32_t)((uint32_t)c2.full | ((uint32_t)c2.full << 16)) &
 175              		.loc 2 449 5 view .LVU56
 176              		.loc 2 450 5 view .LVU57
 177              		.loc 2 450 30 is_stmt 0 view .LVU58
 178 0004 83B2     		uxth	r3, r0
 179              		.loc 2 450 19 view .LVU59
 180 0006 43EA0043 		orr	r3, r3, r0, lsl #16
 449:Drivers/lvgl/src/misc/lv_color.h ****     uint32_t bg = (uint32_t)((uint32_t)c2.full | ((uint32_t)c2.full << 16)) &
 181              		.loc 2 449 11 view .LVU60
 182 000a 0431     		adds	r1, r1, #4
 183              	.LVL21:
 451:Drivers/lvgl/src/misc/lv_color.h ****                   0x7E0F81F; /*0b00000111111000001111100000011111*/
 452:Drivers/lvgl/src/misc/lv_color.h ****     uint32_t fg = (uint32_t)((uint32_t)c1.full | ((uint32_t)c1.full << 16)) & 0x7E0F81F;
 453:Drivers/lvgl/src/misc/lv_color.h ****     uint32_t result = ((((fg - bg) * mix) >> 5) + bg) & 0x7E0F81F;
ARM GAS  /var/folders/0z/tsy30v1j4xl4_7kw94k978ww0000gn/T//cc7lPTAE.s 			page 15


 184              		.loc 2 453 30 view .LVU61
 185 000c 22EA030C 		bic	ip, r2, r3
 449:Drivers/lvgl/src/misc/lv_color.h ****     uint32_t bg = (uint32_t)((uint32_t)c2.full | ((uint32_t)c2.full << 16)) &
 186              		.loc 2 449 41 view .LVU62
 187 0010 C908     		lsrs	r1, r1, #3
 450:Drivers/lvgl/src/misc/lv_color.h ****                   0x7E0F81F; /*0b00000111111000001111100000011111*/
 188              		.loc 2 450 14 view .LVU63
 189 0012 03EA0200 		and	r0, r3, r2
 190              	.LVL22:
 452:Drivers/lvgl/src/misc/lv_color.h ****     uint32_t result = ((((fg - bg) * mix) >> 5) + bg) & 0x7E0F81F;
 191              		.loc 2 452 5 is_stmt 1 view .LVU64
 192              		.loc 2 453 5 view .LVU65
 193              		.loc 2 453 36 is_stmt 0 view .LVU66
 194 0016 0CFB01F1 		mul	r1, ip, r1
 195              		.loc 2 453 49 view .LVU67
 196 001a 00EB5110 		add	r0, r0, r1, lsr #5
 197              	.LVL23:
 198              		.loc 2 453 14 view .LVU68
 199 001e 1040     		ands	r0, r0, r2
 200              	.LVL24:
 454:Drivers/lvgl/src/misc/lv_color.h ****     ret.full = (uint16_t)((result >> 16) | result);
 201              		.loc 2 454 5 is_stmt 1 view .LVU69
 455:Drivers/lvgl/src/misc/lv_color.h **** #if LV_COLOR_16_SWAP == 1
 456:Drivers/lvgl/src/misc/lv_color.h ****     ret.full = ret.full << 8 | ret.full >> 8;
 202              		.loc 2 456 5 view .LVU70
 457:Drivers/lvgl/src/misc/lv_color.h **** #endif
 458:Drivers/lvgl/src/misc/lv_color.h **** #elif LV_COLOR_DEPTH != 1
 459:Drivers/lvgl/src/misc/lv_color.h ****     /*LV_COLOR_DEPTH == 8, 16 or 32*/
 460:Drivers/lvgl/src/misc/lv_color.h ****     LV_COLOR_SET_R(ret, LV_UDIV255((uint16_t)LV_COLOR_GET_R(c1) * mix + LV_COLOR_GET_R(c2) *
 461:Drivers/lvgl/src/misc/lv_color.h ****                                    (255 - mix) + LV_COLOR_MIX_ROUND_OFS));
 462:Drivers/lvgl/src/misc/lv_color.h ****     LV_COLOR_SET_G(ret, LV_UDIV255((uint16_t)LV_COLOR_GET_G(c1) * mix + LV_COLOR_GET_G(c2) *
 463:Drivers/lvgl/src/misc/lv_color.h ****                                    (255 - mix) + LV_COLOR_MIX_ROUND_OFS));
 464:Drivers/lvgl/src/misc/lv_color.h ****     LV_COLOR_SET_B(ret, LV_UDIV255((uint16_t)LV_COLOR_GET_B(c1) * mix + LV_COLOR_GET_B(c2) *
 465:Drivers/lvgl/src/misc/lv_color.h ****                                    (255 - mix) + LV_COLOR_MIX_ROUND_OFS));
 466:Drivers/lvgl/src/misc/lv_color.h ****     LV_COLOR_SET_A(ret, 0xFF);
 467:Drivers/lvgl/src/misc/lv_color.h **** #else
 468:Drivers/lvgl/src/misc/lv_color.h ****     /*LV_COLOR_DEPTH == 1*/
 469:Drivers/lvgl/src/misc/lv_color.h ****     ret.full = mix > LV_OPA_50 ? c1.full : c2.full;
 470:Drivers/lvgl/src/misc/lv_color.h **** #endif
 471:Drivers/lvgl/src/misc/lv_color.h **** 
 472:Drivers/lvgl/src/misc/lv_color.h ****     return ret;
 203              		.loc 2 472 5 view .LVU71
 454:Drivers/lvgl/src/misc/lv_color.h **** #if LV_COLOR_16_SWAP == 1
 204              		.loc 2 454 16 is_stmt 0 view .LVU72
 205 0020 40EA1040 		orr	r0, r0, r0, lsr #16
 206              	.LBE28:
 207              	.LBE26:
 129:Drivers/lvgl/src/misc/lv_color.c **** }
 208              		.loc 1 129 1 view .LVU73
 209 0024 40BA     		rev16	r0, r0
 210 0026 7047     		bx	lr
 211              	.L21:
 212              		.align	2
 213              	.L20:
 214 0028 1FF8E007 		.word	132184095
 215              		.cfi_endproc
 216              	.LFE19:
ARM GAS  /var/folders/0z/tsy30v1j4xl4_7kw94k978ww0000gn/T//cc7lPTAE.s 			page 16


 218              		.section	.text.lv_color_darken,"ax",%progbits
 219              		.align	1
 220              		.p2align 2,,3
 221              		.global	lv_color_darken
 222              		.syntax unified
 223              		.thumb
 224              		.thumb_func
 226              	lv_color_darken:
 227              	.LVL25:
 228              	.LFB20:
 130:Drivers/lvgl/src/misc/lv_color.c **** 
 131:Drivers/lvgl/src/misc/lv_color.c **** lv_color_t lv_color_darken(lv_color_t c, lv_opa_t lvl)
 132:Drivers/lvgl/src/misc/lv_color.c **** {
 229              		.loc 1 132 1 is_stmt 1 view -0
 230              		.cfi_startproc
 231              		@ args = 0, pretend = 0, frame = 0
 232              		@ frame_needed = 0, uses_anonymous_args = 0
 233              		@ link register save eliminated.
 133:Drivers/lvgl/src/misc/lv_color.c ****     return lv_color_mix(lv_color_black(), c, lvl);
 234              		.loc 1 133 5 view .LVU75
 235              	.LBB31:
 236              	.LBB32:
 450:Drivers/lvgl/src/misc/lv_color.h ****                   0x7E0F81F; /*0b00000111111000001111100000011111*/
 237              		.loc 2 450 30 is_stmt 0 view .LVU76
 238 0000 43BA     		rev16	r3, r0
 239              	.LVL26:
 450:Drivers/lvgl/src/misc/lv_color.h ****                   0x7E0F81F; /*0b00000111111000001111100000011111*/
 240              		.loc 2 450 14 view .LVU77
 241 0002 084A     		ldr	r2, .L23
 242              	.LVL27:
 450:Drivers/lvgl/src/misc/lv_color.h ****                   0x7E0F81F; /*0b00000111111000001111100000011111*/
 243              		.loc 2 450 14 view .LVU78
 244              	.LBE32:
 245              	.LBI31:
 439:Drivers/lvgl/src/misc/lv_color.h **** {
 246              		.loc 2 439 48 is_stmt 1 view .LVU79
 247              	.LBB33:
 441:Drivers/lvgl/src/misc/lv_color.h **** 
 248              		.loc 2 441 5 view .LVU80
 445:Drivers/lvgl/src/misc/lv_color.h ****     c2.full = c2.full << 8 | c2.full >> 8;
 249              		.loc 2 445 5 view .LVU81
 446:Drivers/lvgl/src/misc/lv_color.h **** #endif
 250              		.loc 2 446 5 view .LVU82
 449:Drivers/lvgl/src/misc/lv_color.h ****     uint32_t bg = (uint32_t)((uint32_t)c2.full | ((uint32_t)c2.full << 16)) &
 251              		.loc 2 449 5 view .LVU83
 450:Drivers/lvgl/src/misc/lv_color.h ****                   0x7E0F81F; /*0b00000111111000001111100000011111*/
 252              		.loc 2 450 5 view .LVU84
 450:Drivers/lvgl/src/misc/lv_color.h ****                   0x7E0F81F; /*0b00000111111000001111100000011111*/
 253              		.loc 2 450 30 is_stmt 0 view .LVU85
 254 0004 98B2     		uxth	r0, r3
 255              	.LVL28:
 450:Drivers/lvgl/src/misc/lv_color.h ****                   0x7E0F81F; /*0b00000111111000001111100000011111*/
 256              		.loc 2 450 19 view .LVU86
 257 0006 40EA0340 		orr	r0, r0, r3, lsl #16
 449:Drivers/lvgl/src/misc/lv_color.h ****     uint32_t bg = (uint32_t)((uint32_t)c2.full | ((uint32_t)c2.full << 16)) &
 258              		.loc 2 449 11 view .LVU87
 259 000a 0B1D     		adds	r3, r1, #4
ARM GAS  /var/folders/0z/tsy30v1j4xl4_7kw94k978ww0000gn/T//cc7lPTAE.s 			page 17


 450:Drivers/lvgl/src/misc/lv_color.h ****                   0x7E0F81F; /*0b00000111111000001111100000011111*/
 260              		.loc 2 450 14 view .LVU88
 261 000c 1040     		ands	r0, r0, r2
 262              	.LVL29:
 452:Drivers/lvgl/src/misc/lv_color.h ****     uint32_t result = ((((fg - bg) * mix) >> 5) + bg) & 0x7E0F81F;
 263              		.loc 2 452 5 is_stmt 1 view .LVU89
 453:Drivers/lvgl/src/misc/lv_color.h ****     ret.full = (uint16_t)((result >> 16) | result);
 264              		.loc 2 453 5 view .LVU90
 449:Drivers/lvgl/src/misc/lv_color.h ****     uint32_t bg = (uint32_t)((uint32_t)c2.full | ((uint32_t)c2.full << 16)) &
 265              		.loc 2 449 41 is_stmt 0 view .LVU91
 266 000e DB08     		lsrs	r3, r3, #3
 453:Drivers/lvgl/src/misc/lv_color.h ****     ret.full = (uint16_t)((result >> 16) | result);
 267              		.loc 2 453 43 view .LVU92
 268 0010 00FB03F3 		mul	r3, r0, r3
 269 0014 5B42     		rsbs	r3, r3, #0
 453:Drivers/lvgl/src/misc/lv_color.h ****     ret.full = (uint16_t)((result >> 16) | result);
 270              		.loc 2 453 49 view .LVU93
 271 0016 00EB5310 		add	r0, r0, r3, lsr #5
 272              	.LVL30:
 453:Drivers/lvgl/src/misc/lv_color.h ****     ret.full = (uint16_t)((result >> 16) | result);
 273              		.loc 2 453 14 view .LVU94
 274 001a 1040     		ands	r0, r0, r2
 275              	.LVL31:
 454:Drivers/lvgl/src/misc/lv_color.h **** #if LV_COLOR_16_SWAP == 1
 276              		.loc 2 454 5 is_stmt 1 view .LVU95
 456:Drivers/lvgl/src/misc/lv_color.h **** #endif
 277              		.loc 2 456 5 view .LVU96
 278              		.loc 2 472 5 view .LVU97
 454:Drivers/lvgl/src/misc/lv_color.h **** #if LV_COLOR_16_SWAP == 1
 279              		.loc 2 454 16 is_stmt 0 view .LVU98
 280 001c 40EA1040 		orr	r0, r0, r0, lsr #16
 281              	.LBE33:
 282              	.LBE31:
 134:Drivers/lvgl/src/misc/lv_color.c **** }
 283              		.loc 1 134 1 view .LVU99
 284 0020 40BA     		rev16	r0, r0
 285 0022 7047     		bx	lr
 286              	.L24:
 287              		.align	2
 288              	.L23:
 289 0024 1FF8E007 		.word	132184095
 290              		.cfi_endproc
 291              	.LFE20:
 293              		.section	.text.lv_color_change_lightness,"ax",%progbits
 294              		.align	1
 295              		.p2align 2,,3
 296              		.global	lv_color_change_lightness
 297              		.syntax unified
 298              		.thumb
 299              		.thumb_func
 301              	lv_color_change_lightness:
 302              	.LVL32:
 303              	.LFB21:
 135:Drivers/lvgl/src/misc/lv_color.c **** 
 136:Drivers/lvgl/src/misc/lv_color.c **** lv_color_t lv_color_change_lightness(lv_color_t c, lv_opa_t lvl)
 137:Drivers/lvgl/src/misc/lv_color.c **** {
 304              		.loc 1 137 1 is_stmt 1 view -0
ARM GAS  /var/folders/0z/tsy30v1j4xl4_7kw94k978ww0000gn/T//cc7lPTAE.s 			page 18


 305              		.cfi_startproc
 306              		@ args = 0, pretend = 0, frame = 0
 307              		@ frame_needed = 0, uses_anonymous_args = 0
 308              		@ link register save eliminated.
 138:Drivers/lvgl/src/misc/lv_color.c ****     /*It'd be better to convert the color to HSL, change L and convert back to RGB.*/
 139:Drivers/lvgl/src/misc/lv_color.c ****     if(lvl == LV_OPA_50) return c;
 309              		.loc 1 139 5 view .LVU101
 310              		.loc 1 139 7 is_stmt 0 view .LVU102
 311 0000 7F29     		cmp	r1, #127
 312 0002 0ED0     		beq	.L29
 140:Drivers/lvgl/src/misc/lv_color.c ****     else if(lvl < LV_OPA_50) return lv_color_darken(c, (LV_OPA_50 - lvl) * 2);
 313              		.loc 1 140 10 is_stmt 1 view .LVU103
 314              		.loc 1 140 12 is_stmt 0 view .LVU104
 315 0004 7E29     		cmp	r1, #126
 316 0006 06D8     		bhi	.L28
 317              		.loc 1 140 30 is_stmt 1 discriminator 1 view .LVU105
 318              		.loc 1 140 67 is_stmt 0 discriminator 1 view .LVU106
 319 0008 C1F17F01 		rsb	r1, r1, #127
 320              	.LVL33:
 321              		.loc 1 140 37 discriminator 1 view .LVU107
 322 000c 4900     		lsls	r1, r1, #1
 323 000e 01F0FE01 		and	r1, r1, #254
 324 0012 FFF7FEBF 		b	lv_color_darken
 325              	.LVL34:
 326              	.L28:
 141:Drivers/lvgl/src/misc/lv_color.c ****     else return lv_color_lighten(c, (lvl - LV_OPA_50) * 2);
 327              		.loc 1 141 10 is_stmt 1 view .LVU108
 328              		.loc 1 141 17 is_stmt 0 view .LVU109
 329 0016 7F39     		subs	r1, r1, #127
 330              	.LVL35:
 331              		.loc 1 141 17 view .LVU110
 332 0018 4900     		lsls	r1, r1, #1
 333 001a 01F0FE01 		and	r1, r1, #254
 334 001e FFF7FEBF 		b	lv_color_lighten
 335              	.LVL36:
 336              	.L29:
 337              	.LVL37:
 142:Drivers/lvgl/src/misc/lv_color.c **** }
 338              		.loc 1 142 1 view .LVU111
 339 0022 7047     		bx	lr
 340              		.cfi_endproc
 341              	.LFE21:
 343              		.section	.text.lv_color_hsv_to_rgb,"ax",%progbits
 344              		.align	1
 345              		.p2align 2,,3
 346              		.global	lv_color_hsv_to_rgb
 347              		.syntax unified
 348              		.thumb
 349              		.thumb_func
 351              	lv_color_hsv_to_rgb:
 352              	.LVL38:
 353              	.LFB22:
 143:Drivers/lvgl/src/misc/lv_color.c **** 
 144:Drivers/lvgl/src/misc/lv_color.c **** /**
 145:Drivers/lvgl/src/misc/lv_color.c ****  * Convert a HSV color to RGB
 146:Drivers/lvgl/src/misc/lv_color.c ****  * @param h hue [0..359]
 147:Drivers/lvgl/src/misc/lv_color.c ****  * @param s saturation [0..100]
ARM GAS  /var/folders/0z/tsy30v1j4xl4_7kw94k978ww0000gn/T//cc7lPTAE.s 			page 19


 148:Drivers/lvgl/src/misc/lv_color.c ****  * @param v value [0..100]
 149:Drivers/lvgl/src/misc/lv_color.c ****  * @return the given RGB color in RGB (with LV_COLOR_DEPTH depth)
 150:Drivers/lvgl/src/misc/lv_color.c ****  */
 151:Drivers/lvgl/src/misc/lv_color.c **** lv_color_t lv_color_hsv_to_rgb(uint16_t h, uint8_t s, uint8_t v)
 152:Drivers/lvgl/src/misc/lv_color.c **** {
 354              		.loc 1 152 1 is_stmt 1 view -0
 355              		.cfi_startproc
 356              		@ args = 0, pretend = 0, frame = 0
 357              		@ frame_needed = 0, uses_anonymous_args = 0
 153:Drivers/lvgl/src/misc/lv_color.c ****     h = (uint32_t)((uint32_t)h * 255) / 360;
 358              		.loc 1 153 5 view .LVU113
 154:Drivers/lvgl/src/misc/lv_color.c ****     s = (uint16_t)((uint16_t)s * 255) / 100;
 359              		.loc 1 154 7 is_stmt 0 view .LVU114
 360 0000 3D4B     		ldr	r3, .L43
 361              		.loc 1 154 9 view .LVU115
 362 0002 C1EB0121 		rsb	r1, r1, r1, lsl #8
 363              	.LVL39:
 364              		.loc 1 154 7 view .LVU116
 365 0006 89B2     		uxth	r1, r1
 155:Drivers/lvgl/src/misc/lv_color.c ****     v = (uint16_t)((uint16_t)v * 255) / 100;
 366              		.loc 1 155 9 view .LVU117
 367 0008 C2EB0222 		rsb	r2, r2, r2, lsl #8
 368              	.LVL40:
 154:Drivers/lvgl/src/misc/lv_color.c ****     s = (uint16_t)((uint16_t)s * 255) / 100;
 369              		.loc 1 154 7 view .LVU118
 370 000c A3FB01C1 		umull	ip, r1, r3, r1
 371              		.loc 1 155 7 view .LVU119
 372 0010 92B2     		uxth	r2, r2
 373 0012 A3FB0232 		umull	r3, r2, r3, r2
 154:Drivers/lvgl/src/misc/lv_color.c ****     s = (uint16_t)((uint16_t)s * 255) / 100;
 374              		.loc 1 154 7 view .LVU120
 375 0016 C1F34711 		ubfx	r1, r1, #5, #8
 376              	.LVL41:
 154:Drivers/lvgl/src/misc/lv_color.c ****     s = (uint16_t)((uint16_t)s * 255) / 100;
 377              		.loc 1 154 5 is_stmt 1 view .LVU121
 378              		.loc 1 155 5 view .LVU122
 152:Drivers/lvgl/src/misc/lv_color.c ****     h = (uint32_t)((uint32_t)h * 255) / 360;
 379              		.loc 1 152 1 is_stmt 0 view .LVU123
 380 001a 00B5     		push	{lr}
 381              		.cfi_def_cfa_offset 4
 382              		.cfi_offset 14, -4
 383              		.loc 1 155 7 view .LVU124
 384 001c C2F34713 		ubfx	r3, r2, #5, #8
 385              	.LVL42:
 156:Drivers/lvgl/src/misc/lv_color.c **** 
 157:Drivers/lvgl/src/misc/lv_color.c ****     uint8_t r, g, b;
 386              		.loc 1 157 5 is_stmt 1 view .LVU125
 158:Drivers/lvgl/src/misc/lv_color.c **** 
 159:Drivers/lvgl/src/misc/lv_color.c ****     uint8_t region, remainder, p, q, t;
 387              		.loc 1 159 5 view .LVU126
 160:Drivers/lvgl/src/misc/lv_color.c **** 
 161:Drivers/lvgl/src/misc/lv_color.c ****     if(s == 0) {
 388              		.loc 1 161 5 view .LVU127
 389              		.loc 1 161 7 is_stmt 0 view .LVU128
 390 0020 0029     		cmp	r1, #0
 391 0022 4AD0     		beq	.L42
 162:Drivers/lvgl/src/misc/lv_color.c ****         return lv_color_make(v, v, v);
ARM GAS  /var/folders/0z/tsy30v1j4xl4_7kw94k978ww0000gn/T//cc7lPTAE.s 			page 20


 163:Drivers/lvgl/src/misc/lv_color.c ****     }
 164:Drivers/lvgl/src/misc/lv_color.c **** 
 165:Drivers/lvgl/src/misc/lv_color.c ****     region    = h / 43;
 392              		.loc 1 165 5 is_stmt 1 view .LVU129
 153:Drivers/lvgl/src/misc/lv_color.c ****     s = (uint16_t)((uint16_t)s * 255) / 100;
 393              		.loc 1 153 39 is_stmt 0 view .LVU130
 394 0024 354A     		ldr	r2, .L43+4
 153:Drivers/lvgl/src/misc/lv_color.c ****     s = (uint16_t)((uint16_t)s * 255) / 100;
 395              		.loc 1 153 9 view .LVU131
 396 0026 C0EB0020 		rsb	r0, r0, r0, lsl #8
 397              	.LVL43:
 153:Drivers/lvgl/src/misc/lv_color.c ****     s = (uint16_t)((uint16_t)s * 255) / 100;
 398              		.loc 1 153 39 view .LVU132
 399 002a C008     		lsrs	r0, r0, #3
 400 002c A2FB0020 		umull	r2, r0, r2, r0
 401              		.loc 1 165 15 view .LVU133
 402 0030 334A     		ldr	r2, .L43+8
 403 0032 C0F38F0C 		ubfx	ip, r0, #2, #16
 404 0036 A2FB0C2C 		umull	r2, ip, r2, ip
 405 003a CCF3C70C 		ubfx	ip, ip, #3, #8
 406              	.LVL44:
 166:Drivers/lvgl/src/misc/lv_color.c ****     remainder = (h - (region * 43)) * 6;
 407              		.loc 1 166 5 is_stmt 1 view .LVU134
 408              		.loc 1 166 30 is_stmt 0 view .LVU135
 409 003e 6FF02A02 		mvn	r2, #42
 410 0042 02FB0CF2 		mul	r2, r2, ip
 411              		.loc 1 166 20 view .LVU136
 412 0046 02EB9002 		add	r2, r2, r0, lsr #2
 413              		.loc 1 166 15 view .LVU137
 414 004a 02EB4202 		add	r2, r2, r2, lsl #1
 415 004e 5200     		lsls	r2, r2, #1
 416 0050 D2B2     		uxtb	r2, r2
 417              	.LVL45:
 167:Drivers/lvgl/src/misc/lv_color.c **** 
 168:Drivers/lvgl/src/misc/lv_color.c ****     p = (v * (255 - s)) >> 8;
 418              		.loc 1 168 5 is_stmt 1 view .LVU138
 169:Drivers/lvgl/src/misc/lv_color.c ****     q = (v * (255 - ((s * remainder) >> 8))) >> 8;
 170:Drivers/lvgl/src/misc/lv_color.c ****     t = (v * (255 - ((s * (255 - remainder)) >> 8))) >> 8;
 419              		.loc 1 170 32 is_stmt 0 view .LVU139
 420 0052 C2F1FF00 		rsb	r0, r2, #255
 421              		.loc 1 170 25 view .LVU140
 422 0056 01FB00F0 		mul	r0, r1, r0
 169:Drivers/lvgl/src/misc/lv_color.c ****     q = (v * (255 - ((s * remainder) >> 8))) >> 8;
 423              		.loc 1 169 25 view .LVU141
 424 005a 11FB02F2 		smulbb	r2, r1, r2
 425              	.LVL46:
 169:Drivers/lvgl/src/misc/lv_color.c ****     q = (v * (255 - ((s * remainder) >> 8))) >> 8;
 426              		.loc 1 169 38 view .LVU142
 427 005e 1212     		asrs	r2, r2, #8
 428              		.loc 1 170 46 view .LVU143
 429 0060 0012     		asrs	r0, r0, #8
 168:Drivers/lvgl/src/misc/lv_color.c ****     q = (v * (255 - ((s * remainder) >> 8))) >> 8;
 430              		.loc 1 168 19 view .LVU144
 431 0062 C1F1FF0E 		rsb	lr, r1, #255
 169:Drivers/lvgl/src/misc/lv_color.c ****     q = (v * (255 - ((s * remainder) >> 8))) >> 8;
 432              		.loc 1 169 19 view .LVU145
 433 0066 C2F1FF02 		rsb	r2, r2, #255
ARM GAS  /var/folders/0z/tsy30v1j4xl4_7kw94k978ww0000gn/T//cc7lPTAE.s 			page 21


 434              		.loc 1 170 19 view .LVU146
 435 006a C0F1FF00 		rsb	r0, r0, #255
 168:Drivers/lvgl/src/misc/lv_color.c ****     q = (v * (255 - ((s * remainder) >> 8))) >> 8;
 436              		.loc 1 168 12 view .LVU147
 437 006e 03FB0EFE 		mul	lr, r3, lr
 169:Drivers/lvgl/src/misc/lv_color.c ****     q = (v * (255 - ((s * remainder) >> 8))) >> 8;
 438              		.loc 1 169 12 view .LVU148
 439 0072 03FB02F2 		mul	r2, r3, r2
 440              		.loc 1 170 12 view .LVU149
 441 0076 03FB00F0 		mul	r0, r3, r0
 168:Drivers/lvgl/src/misc/lv_color.c ****     q = (v * (255 - ((s * remainder) >> 8))) >> 8;
 442              		.loc 1 168 7 view .LVU150
 443 007a CEF3072E 		ubfx	lr, lr, #8, #8
 444              	.LVL47:
 169:Drivers/lvgl/src/misc/lv_color.c ****     q = (v * (255 - ((s * remainder) >> 8))) >> 8;
 445              		.loc 1 169 5 is_stmt 1 view .LVU151
 169:Drivers/lvgl/src/misc/lv_color.c ****     q = (v * (255 - ((s * remainder) >> 8))) >> 8;
 446              		.loc 1 169 7 is_stmt 0 view .LVU152
 447 007e C2F30722 		ubfx	r2, r2, #8, #8
 448              	.LVL48:
 449              		.loc 1 170 5 is_stmt 1 view .LVU153
 450              		.loc 1 170 7 is_stmt 0 view .LVU154
 451 0082 C0F30720 		ubfx	r0, r0, #8, #8
 452              	.LVL49:
 171:Drivers/lvgl/src/misc/lv_color.c **** 
 172:Drivers/lvgl/src/misc/lv_color.c ****     switch(region) {
 453              		.loc 1 172 5 is_stmt 1 view .LVU155
 454 0086 BCF1040F 		cmp	ip, #4
 455 008a 32D8     		bhi	.L33
 456 008c DFE80CF0 		tbb	[pc, ip]
 457              	.LVL50:
 458              	.L35:
 459 0090 05       		.byte	(.L39-.L35)/2
 460 0091 03       		.byte	(.L38-.L35)/2
 461 0092 22       		.byte	(.L37-.L35)/2
 462 0093 27       		.byte	(.L36-.L35)/2
 463 0094 2C       		.byte	(.L34-.L35)/2
 464 0095 00       		.p2align 1
 465              	.L38:
 466              		.loc 1 172 5 is_stmt 0 view .LVU156
 467 0096 1846     		mov	r0, r3
 468              	.LVL51:
 469              		.loc 1 172 5 view .LVU157
 470 0098 1346     		mov	r3, r2
 471              	.LVL52:
 472              	.L39:
 173:Drivers/lvgl/src/misc/lv_color.c ****         case 0:
 174:Drivers/lvgl/src/misc/lv_color.c ****             r = v;
 175:Drivers/lvgl/src/misc/lv_color.c ****             g = t;
 176:Drivers/lvgl/src/misc/lv_color.c ****             b = p;
 177:Drivers/lvgl/src/misc/lv_color.c ****             break;
 178:Drivers/lvgl/src/misc/lv_color.c ****         case 1:
 179:Drivers/lvgl/src/misc/lv_color.c ****             r = q;
 180:Drivers/lvgl/src/misc/lv_color.c ****             g = v;
 181:Drivers/lvgl/src/misc/lv_color.c ****             b = p;
 182:Drivers/lvgl/src/misc/lv_color.c ****             break;
 183:Drivers/lvgl/src/misc/lv_color.c ****         case 2:
ARM GAS  /var/folders/0z/tsy30v1j4xl4_7kw94k978ww0000gn/T//cc7lPTAE.s 			page 22


 184:Drivers/lvgl/src/misc/lv_color.c ****             r = p;
 185:Drivers/lvgl/src/misc/lv_color.c ****             g = v;
 186:Drivers/lvgl/src/misc/lv_color.c ****             b = t;
 187:Drivers/lvgl/src/misc/lv_color.c ****             break;
 188:Drivers/lvgl/src/misc/lv_color.c ****         case 3:
 189:Drivers/lvgl/src/misc/lv_color.c ****             r = p;
 190:Drivers/lvgl/src/misc/lv_color.c ****             g = q;
 191:Drivers/lvgl/src/misc/lv_color.c ****             b = v;
 192:Drivers/lvgl/src/misc/lv_color.c ****             break;
 193:Drivers/lvgl/src/misc/lv_color.c ****         case 4:
 194:Drivers/lvgl/src/misc/lv_color.c ****             r = t;
 195:Drivers/lvgl/src/misc/lv_color.c ****             g = p;
 196:Drivers/lvgl/src/misc/lv_color.c ****             b = v;
 197:Drivers/lvgl/src/misc/lv_color.c ****             break;
 198:Drivers/lvgl/src/misc/lv_color.c ****         default:
 199:Drivers/lvgl/src/misc/lv_color.c ****             r = v;
 200:Drivers/lvgl/src/misc/lv_color.c ****             g = p;
 201:Drivers/lvgl/src/misc/lv_color.c ****             b = q;
 202:Drivers/lvgl/src/misc/lv_color.c ****             break;
 203:Drivers/lvgl/src/misc/lv_color.c ****     }
 204:Drivers/lvgl/src/misc/lv_color.c **** 
 205:Drivers/lvgl/src/misc/lv_color.c ****     lv_color_t result = lv_color_make(r, g, b);
 473              		.loc 1 205 5 is_stmt 1 view .LVU158
 474              	.LBB34:
 475              	.LBI34:
 473:Drivers/lvgl/src/misc/lv_color.h **** }
 474:Drivers/lvgl/src/misc/lv_color.h **** 
 475:Drivers/lvgl/src/misc/lv_color.h **** static inline void LV_ATTRIBUTE_FAST_MEM lv_color_premult(lv_color_t c, uint8_t mix, uint16_t * out
 476:Drivers/lvgl/src/misc/lv_color.h **** {
 477:Drivers/lvgl/src/misc/lv_color.h **** #if LV_COLOR_DEPTH != 1
 478:Drivers/lvgl/src/misc/lv_color.h ****     out[0] = (uint16_t)LV_COLOR_GET_R(c) * mix;
 479:Drivers/lvgl/src/misc/lv_color.h ****     out[1] = (uint16_t)LV_COLOR_GET_G(c) * mix;
 480:Drivers/lvgl/src/misc/lv_color.h ****     out[2] = (uint16_t)LV_COLOR_GET_B(c) * mix;
 481:Drivers/lvgl/src/misc/lv_color.h **** #else
 482:Drivers/lvgl/src/misc/lv_color.h ****     (void) mix;
 483:Drivers/lvgl/src/misc/lv_color.h ****     /*Pre-multiplication can't be used with 1 bpp*/
 484:Drivers/lvgl/src/misc/lv_color.h ****     out[0] = LV_COLOR_GET_R(c);
 485:Drivers/lvgl/src/misc/lv_color.h ****     out[1] = LV_COLOR_GET_G(c);
 486:Drivers/lvgl/src/misc/lv_color.h ****     out[2] = LV_COLOR_GET_B(c);
 487:Drivers/lvgl/src/misc/lv_color.h **** #endif
 488:Drivers/lvgl/src/misc/lv_color.h **** 
 489:Drivers/lvgl/src/misc/lv_color.h **** }
 490:Drivers/lvgl/src/misc/lv_color.h **** 
 491:Drivers/lvgl/src/misc/lv_color.h **** /**
 492:Drivers/lvgl/src/misc/lv_color.h ****  * Mix two colors with a given ratio. It runs faster then `lv_color_mix` but requires some pre comp
 493:Drivers/lvgl/src/misc/lv_color.h ****  * @param premult_c1 The first color. Should be preprocessed with `lv_color_premult(c1)`
 494:Drivers/lvgl/src/misc/lv_color.h ****  * @param c2 The second color. As it is no pre computation required on it
 495:Drivers/lvgl/src/misc/lv_color.h ****  * @param mix The ratio of the colors. 0: full `c1`, 255: full `c2`, 127: half `c1` and half `c2`.
 496:Drivers/lvgl/src/misc/lv_color.h ****  *            Should be modified like mix = `255 - mix`
 497:Drivers/lvgl/src/misc/lv_color.h ****  * @return the mixed color
 498:Drivers/lvgl/src/misc/lv_color.h ****  * @note 255 won't give clearly `c1`.
 499:Drivers/lvgl/src/misc/lv_color.h ****  */
 500:Drivers/lvgl/src/misc/lv_color.h **** static inline lv_color_t LV_ATTRIBUTE_FAST_MEM lv_color_mix_premult(uint16_t * premult_c1, lv_color
 501:Drivers/lvgl/src/misc/lv_color.h **** {
 502:Drivers/lvgl/src/misc/lv_color.h ****     lv_color_t ret;
 503:Drivers/lvgl/src/misc/lv_color.h **** #if LV_COLOR_DEPTH != 1
 504:Drivers/lvgl/src/misc/lv_color.h ****     /*LV_COLOR_DEPTH == 8 or 32*/
ARM GAS  /var/folders/0z/tsy30v1j4xl4_7kw94k978ww0000gn/T//cc7lPTAE.s 			page 23


 505:Drivers/lvgl/src/misc/lv_color.h ****     LV_COLOR_SET_R(ret, LV_UDIV255(premult_c1[0] + LV_COLOR_GET_R(c2) * mix + LV_COLOR_MIX_ROUND_OF
 506:Drivers/lvgl/src/misc/lv_color.h ****     LV_COLOR_SET_G(ret, LV_UDIV255(premult_c1[1] + LV_COLOR_GET_G(c2) * mix + LV_COLOR_MIX_ROUND_OF
 507:Drivers/lvgl/src/misc/lv_color.h ****     LV_COLOR_SET_B(ret, LV_UDIV255(premult_c1[2] + LV_COLOR_GET_B(c2) * mix + LV_COLOR_MIX_ROUND_OF
 508:Drivers/lvgl/src/misc/lv_color.h ****     LV_COLOR_SET_A(ret, 0xFF);
 509:Drivers/lvgl/src/misc/lv_color.h **** #else
 510:Drivers/lvgl/src/misc/lv_color.h ****     /*LV_COLOR_DEPTH == 1*/
 511:Drivers/lvgl/src/misc/lv_color.h ****     /*Restore color1*/
 512:Drivers/lvgl/src/misc/lv_color.h ****     lv_color_t c1;
 513:Drivers/lvgl/src/misc/lv_color.h ****     LV_COLOR_SET_R(c1, premult_c1[0]);
 514:Drivers/lvgl/src/misc/lv_color.h ****     LV_COLOR_SET_G(c1, premult_c1[1]);
 515:Drivers/lvgl/src/misc/lv_color.h ****     LV_COLOR_SET_B(c1, premult_c1[2]);
 516:Drivers/lvgl/src/misc/lv_color.h ****     ret.full = mix > LV_OPA_50 ? c2.full : c1.full;
 517:Drivers/lvgl/src/misc/lv_color.h **** #endif
 518:Drivers/lvgl/src/misc/lv_color.h **** 
 519:Drivers/lvgl/src/misc/lv_color.h ****     return ret;
 520:Drivers/lvgl/src/misc/lv_color.h **** }
 521:Drivers/lvgl/src/misc/lv_color.h **** 
 522:Drivers/lvgl/src/misc/lv_color.h **** /**
 523:Drivers/lvgl/src/misc/lv_color.h ****  * Mix two colors. Both color can have alpha value.
 524:Drivers/lvgl/src/misc/lv_color.h ****  * @param bg_color background color
 525:Drivers/lvgl/src/misc/lv_color.h ****  * @param bg_opa alpha of the background color
 526:Drivers/lvgl/src/misc/lv_color.h ****  * @param fg_color foreground color
 527:Drivers/lvgl/src/misc/lv_color.h ****  * @param fg_opa alpha of the foreground color
 528:Drivers/lvgl/src/misc/lv_color.h ****  * @param res_color the result color
 529:Drivers/lvgl/src/misc/lv_color.h ****  * @param res_opa the result opacity
 530:Drivers/lvgl/src/misc/lv_color.h ****  */
 531:Drivers/lvgl/src/misc/lv_color.h **** static inline void LV_ATTRIBUTE_FAST_MEM lv_color_mix_with_alpha(lv_color_t bg_color, lv_opa_t bg_o
 532:Drivers/lvgl/src/misc/lv_color.h ****                                                                  lv_color_t fg_color, lv_opa_t fg_o
 533:Drivers/lvgl/src/misc/lv_color.h ****                                                                  lv_color_t * res_color, lv_opa_t *
 534:Drivers/lvgl/src/misc/lv_color.h **** {
 535:Drivers/lvgl/src/misc/lv_color.h ****     /*Pick the foreground if it's fully opaque or the Background is fully transparent*/
 536:Drivers/lvgl/src/misc/lv_color.h ****     if(fg_opa >= LV_OPA_MAX || bg_opa <= LV_OPA_MIN) {
 537:Drivers/lvgl/src/misc/lv_color.h ****         res_color->full = fg_color.full;
 538:Drivers/lvgl/src/misc/lv_color.h ****         *res_opa = fg_opa;
 539:Drivers/lvgl/src/misc/lv_color.h ****     }
 540:Drivers/lvgl/src/misc/lv_color.h ****     /*Transparent foreground: use the Background*/
 541:Drivers/lvgl/src/misc/lv_color.h ****     else if(fg_opa <= LV_OPA_MIN) {
 542:Drivers/lvgl/src/misc/lv_color.h ****         res_color->full = bg_color.full;
 543:Drivers/lvgl/src/misc/lv_color.h ****         *res_opa = bg_opa;
 544:Drivers/lvgl/src/misc/lv_color.h ****     }
 545:Drivers/lvgl/src/misc/lv_color.h ****     /*Opaque background: use simple mix*/
 546:Drivers/lvgl/src/misc/lv_color.h ****     else if(bg_opa >= LV_OPA_MAX) {
 547:Drivers/lvgl/src/misc/lv_color.h ****         *res_color = lv_color_mix(fg_color, bg_color, fg_opa);
 548:Drivers/lvgl/src/misc/lv_color.h ****         *res_opa = LV_OPA_COVER;
 549:Drivers/lvgl/src/misc/lv_color.h ****     }
 550:Drivers/lvgl/src/misc/lv_color.h ****     /*Both colors have alpha. Expensive calculation need to be applied*/
 551:Drivers/lvgl/src/misc/lv_color.h ****     else {
 552:Drivers/lvgl/src/misc/lv_color.h ****         /*Save the parameters and the result. If they will be asked again don't compute again*/
 553:Drivers/lvgl/src/misc/lv_color.h ****         static lv_opa_t fg_opa_save     = 0;
 554:Drivers/lvgl/src/misc/lv_color.h ****         static lv_opa_t bg_opa_save     = 0;
 555:Drivers/lvgl/src/misc/lv_color.h ****         static lv_color_t fg_color_save = _LV_COLOR_ZERO_INITIALIZER;
 556:Drivers/lvgl/src/misc/lv_color.h ****         static lv_color_t bg_color_save = _LV_COLOR_ZERO_INITIALIZER;
 557:Drivers/lvgl/src/misc/lv_color.h ****         static lv_color_t res_color_saved = _LV_COLOR_ZERO_INITIALIZER;
 558:Drivers/lvgl/src/misc/lv_color.h ****         static lv_opa_t res_opa_saved = 0;
 559:Drivers/lvgl/src/misc/lv_color.h **** 
 560:Drivers/lvgl/src/misc/lv_color.h ****         if(fg_opa != fg_opa_save || bg_opa != bg_opa_save || fg_color.full != fg_color_save.full ||
 561:Drivers/lvgl/src/misc/lv_color.h ****            bg_color.full != bg_color_save.full) {
ARM GAS  /var/folders/0z/tsy30v1j4xl4_7kw94k978ww0000gn/T//cc7lPTAE.s 			page 24


 562:Drivers/lvgl/src/misc/lv_color.h ****             fg_opa_save        = fg_opa;
 563:Drivers/lvgl/src/misc/lv_color.h ****             bg_opa_save        = bg_opa;
 564:Drivers/lvgl/src/misc/lv_color.h ****             fg_color_save.full = fg_color.full;
 565:Drivers/lvgl/src/misc/lv_color.h ****             bg_color_save.full = bg_color.full;
 566:Drivers/lvgl/src/misc/lv_color.h ****             /*Info:
 567:Drivers/lvgl/src/misc/lv_color.h ****              * https://en.wikipedia.org/wiki/Alpha_compositing#Analytical_derivation_of_the_over_op
 568:Drivers/lvgl/src/misc/lv_color.h ****             res_opa_saved = 255 - ((uint16_t)((uint16_t)(255 - fg_opa) * (255 - bg_opa)) >> 8);
 569:Drivers/lvgl/src/misc/lv_color.h ****             LV_ASSERT(res_opa_saved != 0);
 570:Drivers/lvgl/src/misc/lv_color.h ****             lv_opa_t ratio = (uint16_t)((uint16_t)fg_opa * 255) / res_opa_saved;
 571:Drivers/lvgl/src/misc/lv_color.h ****             res_color_saved = lv_color_mix(fg_color, bg_color, ratio);
 572:Drivers/lvgl/src/misc/lv_color.h **** 
 573:Drivers/lvgl/src/misc/lv_color.h ****         }
 574:Drivers/lvgl/src/misc/lv_color.h **** 
 575:Drivers/lvgl/src/misc/lv_color.h ****         res_color->full = res_color_saved.full;
 576:Drivers/lvgl/src/misc/lv_color.h ****         *res_opa = res_opa_saved;
 577:Drivers/lvgl/src/misc/lv_color.h ****     }
 578:Drivers/lvgl/src/misc/lv_color.h **** }
 579:Drivers/lvgl/src/misc/lv_color.h **** 
 580:Drivers/lvgl/src/misc/lv_color.h **** //! @endcond
 581:Drivers/lvgl/src/misc/lv_color.h **** 
 582:Drivers/lvgl/src/misc/lv_color.h **** /**
 583:Drivers/lvgl/src/misc/lv_color.h ****  * Get the brightness of a color
 584:Drivers/lvgl/src/misc/lv_color.h ****  * @param color a color
 585:Drivers/lvgl/src/misc/lv_color.h ****  * @return the brightness [0..255]
 586:Drivers/lvgl/src/misc/lv_color.h ****  */
 587:Drivers/lvgl/src/misc/lv_color.h **** static inline uint8_t lv_color_brightness(lv_color_t color)
 588:Drivers/lvgl/src/misc/lv_color.h **** {
 589:Drivers/lvgl/src/misc/lv_color.h ****     lv_color32_t c32;
 590:Drivers/lvgl/src/misc/lv_color.h ****     c32.full        = lv_color_to32(color);
 591:Drivers/lvgl/src/misc/lv_color.h ****     uint16_t bright = (uint16_t)(3u * LV_COLOR_GET_R32(c32) + LV_COLOR_GET_B32(c32) + 4u * LV_COLOR
 592:Drivers/lvgl/src/misc/lv_color.h ****     return (uint8_t)(bright >> 3);
 593:Drivers/lvgl/src/misc/lv_color.h **** }
 594:Drivers/lvgl/src/misc/lv_color.h **** 
 595:Drivers/lvgl/src/misc/lv_color.h **** static inline lv_color_t lv_color_make(uint8_t r, uint8_t g, uint8_t b)
 476              		.loc 2 595 26 view .LVU159
 477              	.LBB35:
 596:Drivers/lvgl/src/misc/lv_color.h **** {
 597:Drivers/lvgl/src/misc/lv_color.h ****     return _LV_COLOR_MAKE_TYPE_HELPER LV_COLOR_MAKE(r, g, b);
 478              		.loc 2 597 5 view .LVU160
 479              		.loc 2 597 39 is_stmt 0 view .LVU161
 480 009a C0F34212 		ubfx	r2, r0, #5, #3
 481 009e C3F3C403 		ubfx	r3, r3, #3, #5
 482              	.LVL53:
 483              		.loc 2 597 39 view .LVU162
 484 00a2 CEF3C401 		ubfx	r1, lr, #3, #5
 485 00a6 42EAC30E 		orr	lr, r2, r3, lsl #3
 486              	.LVL54:
 487              		.loc 2 597 39 view .LVU163
 488 00aa 4EEA012E 		orr	lr, lr, r1, lsl #8
 489 00ae C0F38200 		ubfx	r0, r0, #2, #3
 490              	.LVL55:
 491              		.loc 2 597 39 view .LVU164
 492              	.LBE35:
 493              	.LBE34:
 206:Drivers/lvgl/src/misc/lv_color.c ****     return result;
 494              		.loc 1 206 5 is_stmt 1 view .LVU165
 207:Drivers/lvgl/src/misc/lv_color.c **** }
ARM GAS  /var/folders/0z/tsy30v1j4xl4_7kw94k978ww0000gn/T//cc7lPTAE.s 			page 25


 495              		.loc 1 207 1 is_stmt 0 view .LVU166
 496 00b2 4EEA4030 		orr	r0, lr, r0, lsl #13
 497 00b6 5DF804FB 		ldr	pc, [sp], #4
 498              	.LVL56:
 499              	.L42:
 162:Drivers/lvgl/src/misc/lv_color.c ****     }
 500              		.loc 1 162 9 is_stmt 1 view .LVU167
 501              	.LBB36:
 502              	.LBI36:
 595:Drivers/lvgl/src/misc/lv_color.h **** {
 503              		.loc 2 595 26 view .LVU168
 504              	.LBB37:
 505              		.loc 2 597 5 view .LVU169
 506              		.loc 2 597 39 is_stmt 0 view .LVU170
 507 00ba D908     		lsrs	r1, r3, #3
 508              	.LVL57:
 509              		.loc 2 597 39 view .LVU171
 510 00bc 5A09     		lsrs	r2, r3, #5
 511 00be C3F38200 		ubfx	r0, r3, #2, #3
 512              	.LVL58:
 513              		.loc 2 597 39 view .LVU172
 514              	.LBE37:
 515              	.LBE36:
 162:Drivers/lvgl/src/misc/lv_color.c ****     }
 516              		.loc 1 162 16 view .LVU173
 517 00c2 0B46     		mov	r3, r1
 518              	.LVL59:
 162:Drivers/lvgl/src/misc/lv_color.c ****     }
 519              		.loc 1 162 16 view .LVU174
 520 00c4 42EAC30E 		orr	lr, r2, r3, lsl #3
 521 00c8 4EEA012E 		orr	lr, lr, r1, lsl #8
 522              		.loc 1 207 1 view .LVU175
 523 00cc 4EEA4030 		orr	r0, lr, r0, lsl #13
 524 00d0 5DF804FB 		ldr	pc, [sp], #4
 525              	.LVL60:
 526              	.L37:
 184:Drivers/lvgl/src/misc/lv_color.c ****             g = v;
 527              		.loc 1 184 13 is_stmt 1 view .LVU176
 185:Drivers/lvgl/src/misc/lv_color.c ****             b = t;
 528              		.loc 1 185 13 view .LVU177
 186:Drivers/lvgl/src/misc/lv_color.c ****             break;
 529              		.loc 1 186 13 view .LVU178
 187:Drivers/lvgl/src/misc/lv_color.c ****         case 3:
 530              		.loc 1 187 13 view .LVU179
 531 00d4 1A46     		mov	r2, r3
 532              	.LVL61:
 184:Drivers/lvgl/src/misc/lv_color.c ****             g = v;
 533              		.loc 1 184 15 is_stmt 0 view .LVU180
 534 00d6 7346     		mov	r3, lr
 535              	.LVL62:
 186:Drivers/lvgl/src/misc/lv_color.c ****             break;
 536              		.loc 1 186 15 view .LVU181
 537 00d8 8646     		mov	lr, r0
 538              	.LVL63:
 185:Drivers/lvgl/src/misc/lv_color.c ****             b = t;
 539              		.loc 1 185 15 view .LVU182
 540 00da 1046     		mov	r0, r2
ARM GAS  /var/folders/0z/tsy30v1j4xl4_7kw94k978ww0000gn/T//cc7lPTAE.s 			page 26


 541              	.LVL64:
 187:Drivers/lvgl/src/misc/lv_color.c ****         case 3:
 542              		.loc 1 187 13 view .LVU183
 543 00dc DDE7     		b	.L39
 544              	.LVL65:
 545              	.L36:
 189:Drivers/lvgl/src/misc/lv_color.c ****             g = q;
 546              		.loc 1 189 13 is_stmt 1 view .LVU184
 190:Drivers/lvgl/src/misc/lv_color.c ****             b = v;
 547              		.loc 1 190 13 view .LVU185
 191:Drivers/lvgl/src/misc/lv_color.c ****             break;
 548              		.loc 1 191 13 view .LVU186
 192:Drivers/lvgl/src/misc/lv_color.c ****         case 4:
 549              		.loc 1 192 13 view .LVU187
 550 00de 1946     		mov	r1, r3
 190:Drivers/lvgl/src/misc/lv_color.c ****             b = v;
 551              		.loc 1 190 15 is_stmt 0 view .LVU188
 552 00e0 1046     		mov	r0, r2
 553              	.LVL66:
 189:Drivers/lvgl/src/misc/lv_color.c ****             g = q;
 554              		.loc 1 189 15 view .LVU189
 555 00e2 7346     		mov	r3, lr
 556              	.LVL67:
 191:Drivers/lvgl/src/misc/lv_color.c ****             break;
 557              		.loc 1 191 15 view .LVU190
 558 00e4 8E46     		mov	lr, r1
 559              	.LVL68:
 192:Drivers/lvgl/src/misc/lv_color.c ****         case 4:
 560              		.loc 1 192 13 view .LVU191
 561 00e6 D8E7     		b	.L39
 562              	.LVL69:
 563              	.L34:
 194:Drivers/lvgl/src/misc/lv_color.c ****             g = p;
 564              		.loc 1 194 13 is_stmt 1 view .LVU192
 195:Drivers/lvgl/src/misc/lv_color.c ****             b = v;
 565              		.loc 1 195 13 view .LVU193
 196:Drivers/lvgl/src/misc/lv_color.c ****             break;
 566              		.loc 1 196 13 view .LVU194
 197:Drivers/lvgl/src/misc/lv_color.c ****         default:
 567              		.loc 1 197 13 view .LVU195
 568 00e8 1A46     		mov	r2, r3
 569              	.LVL70:
 194:Drivers/lvgl/src/misc/lv_color.c ****             g = p;
 570              		.loc 1 194 15 is_stmt 0 view .LVU196
 571 00ea 0346     		mov	r3, r0
 572              	.LVL71:
 195:Drivers/lvgl/src/misc/lv_color.c ****             b = v;
 573              		.loc 1 195 15 view .LVU197
 574 00ec 7046     		mov	r0, lr
 575              	.LVL72:
 196:Drivers/lvgl/src/misc/lv_color.c ****             break;
 576              		.loc 1 196 15 view .LVU198
 577 00ee 9646     		mov	lr, r2
 578              	.LVL73:
 197:Drivers/lvgl/src/misc/lv_color.c ****         default:
 579              		.loc 1 197 13 view .LVU199
 580 00f0 D3E7     		b	.L39
ARM GAS  /var/folders/0z/tsy30v1j4xl4_7kw94k978ww0000gn/T//cc7lPTAE.s 			page 27


 581              	.LVL74:
 582              	.L33:
 199:Drivers/lvgl/src/misc/lv_color.c ****             g = p;
 583              		.loc 1 199 13 is_stmt 1 view .LVU200
 200:Drivers/lvgl/src/misc/lv_color.c ****             b = q;
 584              		.loc 1 200 13 view .LVU201
 201:Drivers/lvgl/src/misc/lv_color.c ****             break;
 585              		.loc 1 201 13 view .LVU202
 202:Drivers/lvgl/src/misc/lv_color.c ****     }
 586              		.loc 1 202 13 view .LVU203
 200:Drivers/lvgl/src/misc/lv_color.c ****             b = q;
 587              		.loc 1 200 15 is_stmt 0 view .LVU204
 588 00f2 7046     		mov	r0, lr
 589              	.LVL75:
 201:Drivers/lvgl/src/misc/lv_color.c ****             break;
 590              		.loc 1 201 15 view .LVU205
 591 00f4 9646     		mov	lr, r2
 592              	.LVL76:
 202:Drivers/lvgl/src/misc/lv_color.c ****     }
 593              		.loc 1 202 13 view .LVU206
 594 00f6 D0E7     		b	.L39
 595              	.L44:
 596              		.align	2
 597              	.L43:
 598 00f8 1F85EB51 		.word	1374389535
 599 00fc 176CC116 		.word	381774871
 600 0100 83BEA02F 		.word	799063683
 601              		.cfi_endproc
 602              	.LFE22:
 604              		.section	.text.lv_color_rgb_to_hsv,"ax",%progbits
 605              		.align	1
 606              		.p2align 2,,3
 607              		.global	lv_color_rgb_to_hsv
 608              		.syntax unified
 609              		.thumb
 610              		.thumb_func
 612              	lv_color_rgb_to_hsv:
 613              	.LVL77:
 614              	.LFB23:
 208:Drivers/lvgl/src/misc/lv_color.c **** 
 209:Drivers/lvgl/src/misc/lv_color.c **** /**
 210:Drivers/lvgl/src/misc/lv_color.c ****  * Convert a 32-bit RGB color to HSV
 211:Drivers/lvgl/src/misc/lv_color.c ****  * @param r8 8-bit red
 212:Drivers/lvgl/src/misc/lv_color.c ****  * @param g8 8-bit green
 213:Drivers/lvgl/src/misc/lv_color.c ****  * @param b8 8-bit blue
 214:Drivers/lvgl/src/misc/lv_color.c ****  * @return the given RGB color in HSV
 215:Drivers/lvgl/src/misc/lv_color.c ****  */
 216:Drivers/lvgl/src/misc/lv_color.c **** lv_color_hsv_t lv_color_rgb_to_hsv(uint8_t r8, uint8_t g8, uint8_t b8)
 217:Drivers/lvgl/src/misc/lv_color.c **** {
 615              		.loc 1 217 1 is_stmt 1 view -0
 616              		.cfi_startproc
 617              		@ args = 0, pretend = 0, frame = 8
 618              		@ frame_needed = 0, uses_anonymous_args = 0
 218:Drivers/lvgl/src/misc/lv_color.c ****     uint16_t r = ((uint32_t)r8 << 10) / 255;
 619              		.loc 1 218 5 view .LVU208
 217:Drivers/lvgl/src/misc/lv_color.c ****     uint16_t r = ((uint32_t)r8 << 10) / 255;
 620              		.loc 1 217 1 is_stmt 0 view .LVU209
ARM GAS  /var/folders/0z/tsy30v1j4xl4_7kw94k978ww0000gn/T//cc7lPTAE.s 			page 28


 621 0000 F0B5     		push	{r4, r5, r6, r7, lr}
 622              		.cfi_def_cfa_offset 20
 623              		.cfi_offset 4, -20
 624              		.cfi_offset 5, -16
 625              		.cfi_offset 6, -12
 626              		.cfi_offset 7, -8
 627              		.cfi_offset 14, -4
 628              		.loc 1 218 39 view .LVU210
 629 0002 354C     		ldr	r4, .L64
 219:Drivers/lvgl/src/misc/lv_color.c ****     uint16_t g = ((uint32_t)g8 << 10) / 255;
 630              		.loc 1 219 32 view .LVU211
 631 0004 8902     		lsls	r1, r1, #10
 632              	.LVL78:
 633              		.loc 1 219 39 view .LVU212
 634 0006 A4FB011C 		umull	r1, ip, r4, r1
 220:Drivers/lvgl/src/misc/lv_color.c ****     uint16_t b = ((uint32_t)b8 << 10) / 255;
 635              		.loc 1 220 32 view .LVU213
 636 000a 9302     		lsls	r3, r2, #10
 218:Drivers/lvgl/src/misc/lv_color.c ****     uint16_t g = ((uint32_t)g8 << 10) / 255;
 637              		.loc 1 218 32 view .LVU214
 638 000c 8002     		lsls	r0, r0, #10
 639              	.LVL79:
 218:Drivers/lvgl/src/misc/lv_color.c ****     uint16_t g = ((uint32_t)g8 << 10) / 255;
 640              		.loc 1 218 39 view .LVU215
 641 000e A4FB0020 		umull	r2, r0, r4, r0
 642              	.LVL80:
 643              		.loc 1 220 39 view .LVU216
 644 0012 A4FB0343 		umull	r4, r3, r4, r3
 219:Drivers/lvgl/src/misc/lv_color.c ****     uint16_t g = ((uint32_t)g8 << 10) / 255;
 645              		.loc 1 219 14 view .LVU217
 646 0016 4FEADC14 		lsr	r4, ip, #7
 218:Drivers/lvgl/src/misc/lv_color.c ****     uint16_t g = ((uint32_t)g8 << 10) / 255;
 647              		.loc 1 218 39 view .LVU218
 648 001a C609     		lsrs	r6, r0, #7
 649              	.LVL81:
 219:Drivers/lvgl/src/misc/lv_color.c ****     uint16_t g = ((uint32_t)g8 << 10) / 255;
 650              		.loc 1 219 5 is_stmt 1 view .LVU219
 651              		.loc 1 220 5 view .LVU220
 221:Drivers/lvgl/src/misc/lv_color.c **** 
 222:Drivers/lvgl/src/misc/lv_color.c ****     uint16_t rgbMin = r < g ? (r < b ? r : b) : (g < b ? g : b);
 652              		.loc 1 222 14 is_stmt 0 view .LVU221
 653 001c B4EBD01F 		cmp	r4, r0, lsr #7
 220:Drivers/lvgl/src/misc/lv_color.c **** 
 654              		.loc 1 220 39 view .LVU222
 655 0020 4FEAD311 		lsr	r1, r3, #7
 656              	.LVL82:
 657              		.loc 1 222 5 is_stmt 1 view .LVU223
 658              		.loc 1 222 14 is_stmt 0 view .LVU224
 659 0024 8CBF     		ite	hi
 660 0026 B446     		movhi	ip, r6
 661 0028 A446     		movls	ip, r4
 662 002a 8C45     		cmp	ip, r1
 663 002c 28BF     		it	cs
 664 002e 8C46     		movcs	ip, r1
 223:Drivers/lvgl/src/misc/lv_color.c ****     uint16_t rgbMax = r > g ? (r > b ? r : b) : (g > b ? g : b);
 665              		.loc 1 223 14 view .LVU225
 666 0030 A642     		cmp	r6, r4
ARM GAS  /var/folders/0z/tsy30v1j4xl4_7kw94k978ww0000gn/T//cc7lPTAE.s 			page 29


 667 0032 8CBF     		ite	hi
 668 0034 B646     		movhi	lr, r6
 669 0036 A646     		movls	lr, r4
 670 0038 8E45     		cmp	lr, r1
 671 003a 38BF     		it	cc
 672 003c 8E46     		movcc	lr, r1
 673 003e 1FFA8EFE 		uxth	lr, lr
 222:Drivers/lvgl/src/misc/lv_color.c ****     uint16_t rgbMax = r > g ? (r > b ? r : b) : (g > b ? g : b);
 674              		.loc 1 222 14 view .LVU226
 675 0042 1FFA8CFC 		uxth	ip, ip
 676              	.LVL83:
 677              		.loc 1 223 5 is_stmt 1 view .LVU227
 224:Drivers/lvgl/src/misc/lv_color.c **** 
 225:Drivers/lvgl/src/misc/lv_color.c ****     lv_color_hsv_t hsv;
 678              		.loc 1 225 5 view .LVU228
 226:Drivers/lvgl/src/misc/lv_color.c **** 
 227:Drivers/lvgl/src/misc/lv_color.c ****     // https://en.wikipedia.org/wiki/HSL_and_HSV#Lightness
 228:Drivers/lvgl/src/misc/lv_color.c ****     hsv.v = (100 * rgbMax) >> 10;
 679              		.loc 1 228 5 view .LVU229
 229:Drivers/lvgl/src/misc/lv_color.c **** 
 230:Drivers/lvgl/src/misc/lv_color.c ****     int32_t delta = rgbMax - rgbMin;
 680              		.loc 1 230 13 is_stmt 0 view .LVU230
 681 0046 AEEB0C0C 		sub	ip, lr, ip
 682              	.LVL84:
 228:Drivers/lvgl/src/misc/lv_color.c **** 
 683              		.loc 1 228 18 view .LVU231
 684 004a 6422     		movs	r2, #100
 685 004c 02FB0EF0 		mul	r0, r2, lr
 231:Drivers/lvgl/src/misc/lv_color.c ****     if(delta < 3) {
 686              		.loc 1 231 7 view .LVU232
 687 0050 BCF1020F 		cmp	ip, #2
 217:Drivers/lvgl/src/misc/lv_color.c ****     uint16_t r = ((uint32_t)r8 << 10) / 255;
 688              		.loc 1 217 1 view .LVU233
 689 0054 83B0     		sub	sp, sp, #12
 690              		.cfi_def_cfa_offset 32
 220:Drivers/lvgl/src/misc/lv_color.c **** 
 691              		.loc 1 220 14 view .LVU234
 692 0056 0B46     		mov	r3, r1
 228:Drivers/lvgl/src/misc/lv_color.c **** 
 693              		.loc 1 228 11 view .LVU235
 694 0058 C0F38720 		ubfx	r0, r0, #10, #8
 695              	.LVL85:
 230:Drivers/lvgl/src/misc/lv_color.c ****     if(delta < 3) {
 696              		.loc 1 230 5 is_stmt 1 view .LVU236
 697              		.loc 1 231 5 view .LVU237
 698              		.loc 1 231 7 is_stmt 0 view .LVU238
 699 005c 28DD     		ble	.L57
 232:Drivers/lvgl/src/misc/lv_color.c ****         hsv.h = 0;
 233:Drivers/lvgl/src/misc/lv_color.c ****         hsv.s = 0;
 234:Drivers/lvgl/src/misc/lv_color.c ****         return hsv;
 235:Drivers/lvgl/src/misc/lv_color.c ****     }
 236:Drivers/lvgl/src/misc/lv_color.c **** 
 237:Drivers/lvgl/src/misc/lv_color.c ****     // https://en.wikipedia.org/wiki/HSL_and_HSV#Saturation
 238:Drivers/lvgl/src/misc/lv_color.c ****     hsv.s = 100 * delta / rgbMax;
 700              		.loc 1 238 5 is_stmt 1 view .LVU239
 701              		.loc 1 238 17 is_stmt 0 view .LVU240
 702 005e 02FB0CF2 		mul	r2, r2, ip
ARM GAS  /var/folders/0z/tsy30v1j4xl4_7kw94k978ww0000gn/T//cc7lPTAE.s 			page 30


 703              		.loc 1 238 25 view .LVU241
 704 0062 B2FBFEF2 		udiv	r2, r2, lr
 705              		.loc 1 238 11 view .LVU242
 706 0066 D2B2     		uxtb	r2, r2
 707              	.LVL86:
 239:Drivers/lvgl/src/misc/lv_color.c ****     if(hsv.s < 3) {
 708              		.loc 1 239 5 is_stmt 1 view .LVU243
 709              		.loc 1 239 7 is_stmt 0 view .LVU244
 710 0068 022A     		cmp	r2, #2
 711 006a 13D9     		bls	.L58
 240:Drivers/lvgl/src/misc/lv_color.c ****         hsv.h = 0;
 241:Drivers/lvgl/src/misc/lv_color.c ****         return hsv;
 242:Drivers/lvgl/src/misc/lv_color.c ****     }
 243:Drivers/lvgl/src/misc/lv_color.c **** 
 244:Drivers/lvgl/src/misc/lv_color.c ****     // https://en.wikipedia.org/wiki/HSL_and_HSV#Hue_and_chroma
 245:Drivers/lvgl/src/misc/lv_color.c ****     int32_t h;
 712              		.loc 1 245 5 is_stmt 1 view .LVU245
 246:Drivers/lvgl/src/misc/lv_color.c ****     if(rgbMax == r)
 713              		.loc 1 246 5 view .LVU246
 714              		.loc 1 246 7 is_stmt 0 view .LVU247
 715 006c B645     		cmp	lr, r6
 716 006e 29D0     		beq	.L62
 247:Drivers/lvgl/src/misc/lv_color.c ****         h = (((g - b) << 10) / delta) + (g < b ? (6 << 10) : 0); // between yellow & magenta
 248:Drivers/lvgl/src/misc/lv_color.c ****     else if(rgbMax == g)
 717              		.loc 1 248 10 is_stmt 1 view .LVU248
 718              		.loc 1 248 12 is_stmt 0 view .LVU249
 719 0070 A645     		cmp	lr, r4
 720 0072 20D0     		beq	.L63
 249:Drivers/lvgl/src/misc/lv_color.c ****         h = (((b - r) << 10) / delta) + (2 << 10); // between cyan & yellow
 250:Drivers/lvgl/src/misc/lv_color.c ****     else if(rgbMax == b)
 721              		.loc 1 250 10 is_stmt 1 view .LVU250
 722              		.loc 1 250 12 is_stmt 0 view .LVU251
 723 0074 8E45     		cmp	lr, r1
 724 0076 0DD1     		bne	.L58
 251:Drivers/lvgl/src/misc/lv_color.c ****         h = (((r - g) << 10) / delta) + (4 << 10); // between magenta & cyan
 725              		.loc 1 251 9 is_stmt 1 view .LVU252
 726              		.loc 1 251 18 is_stmt 0 view .LVU253
 727 0078 361B     		subs	r6, r6, r4
 728              	.LVL87:
 729              		.loc 1 251 23 view .LVU254
 730 007a B602     		lsls	r6, r6, #10
 731              		.loc 1 251 30 view .LVU255
 732 007c 96FBFCF6 		sdiv	r6, r6, ip
 733              		.loc 1 251 11 view .LVU256
 734 0080 06F58051 		add	r1, r6, #4096
 735              	.LVL88:
 736              	.L53:
 252:Drivers/lvgl/src/misc/lv_color.c ****     else
 253:Drivers/lvgl/src/misc/lv_color.c ****         h = 0;
 254:Drivers/lvgl/src/misc/lv_color.c ****     h *= 60;
 737              		.loc 1 254 5 is_stmt 1 view .LVU257
 738              		.loc 1 254 7 is_stmt 0 view .LVU258
 739 0084 C1EB0111 		rsb	r1, r1, r1, lsl #4
 740              	.LVL89:
 255:Drivers/lvgl/src/misc/lv_color.c ****     h >>= 10;
 741              		.loc 1 255 5 is_stmt 1 view .LVU259
 256:Drivers/lvgl/src/misc/lv_color.c ****     if(h < 0) h += 360;
ARM GAS  /var/folders/0z/tsy30v1j4xl4_7kw94k978ww0000gn/T//cc7lPTAE.s 			page 31


 742              		.loc 1 256 5 view .LVU260
 743              		.loc 1 256 7 is_stmt 0 view .LVU261
 744 0088 0912     		asrs	r1, r1, #8
 745              	.LVL90:
 746              		.loc 1 256 15 is_stmt 1 view .LVU262
 747              		.loc 1 256 17 is_stmt 0 view .LVU263
 748 008a 48BF     		it	mi
 749 008c 01F5B471 		addmi	r1, r1, #360
 750              	.LVL91:
 257:Drivers/lvgl/src/misc/lv_color.c **** 
 258:Drivers/lvgl/src/misc/lv_color.c ****     hsv.h = h;
 751              		.loc 1 258 11 view .LVU264
 752 0090 8BB2     		uxth	r3, r1
 753              	.LVL92:
 754              		.loc 1 258 11 view .LVU265
 755 0092 00E0     		b	.L50
 756              	.LVL93:
 757              	.L58:
 758              		.loc 1 258 11 view .LVU266
 759 0094 0023     		movs	r3, #0
 760              	.LVL94:
 761              	.L50:
 234:Drivers/lvgl/src/misc/lv_color.c ****     }
 762              		.loc 1 234 16 view .LVU267
 763 0096 8DF80700 		strb	r0, [sp, #7]
 764              	.LVL95:
 234:Drivers/lvgl/src/misc/lv_color.c ****     }
 765              		.loc 1 234 16 view .LVU268
 766 009a 8DF80620 		strb	r2, [sp, #6]
 259:Drivers/lvgl/src/misc/lv_color.c ****     return hsv;
 260:Drivers/lvgl/src/misc/lv_color.c **** }
 767              		.loc 1 260 1 view .LVU269
 768 009e BDF80620 		ldrh	r2, [sp, #6]
 769 00a2 0020     		movs	r0, #0
 770 00a4 63F30F00 		bfi	r0, r3, #0, #16
 771 00a8 62F31F40 		bfi	r0, r2, #16, #16
 772 00ac 03B0     		add	sp, sp, #12
 773              		.cfi_remember_state
 774              		.cfi_def_cfa_offset 20
 775              		@ sp needed
 776 00ae F0BD     		pop	{r4, r5, r6, r7, pc}
 777              	.LVL96:
 778              	.L57:
 779              		.cfi_restore_state
 780              		.loc 1 260 1 view .LVU270
 781 00b0 0023     		movs	r3, #0
 782 00b2 1A46     		mov	r2, r3
 783 00b4 EFE7     		b	.L50
 784              	.LVL97:
 785              	.L63:
 249:Drivers/lvgl/src/misc/lv_color.c ****     else if(rgbMax == b)
 786              		.loc 1 249 9 is_stmt 1 view .LVU271
 249:Drivers/lvgl/src/misc/lv_color.c ****     else if(rgbMax == b)
 787              		.loc 1 249 18 is_stmt 0 view .LVU272
 788 00b6 891B     		subs	r1, r1, r6
 789              	.LVL98:
 249:Drivers/lvgl/src/misc/lv_color.c ****     else if(rgbMax == b)
ARM GAS  /var/folders/0z/tsy30v1j4xl4_7kw94k978ww0000gn/T//cc7lPTAE.s 			page 32


 790              		.loc 1 249 23 view .LVU273
 791 00b8 8902     		lsls	r1, r1, #10
 249:Drivers/lvgl/src/misc/lv_color.c ****     else if(rgbMax == b)
 792              		.loc 1 249 30 view .LVU274
 793 00ba 91FBFCF1 		sdiv	r1, r1, ip
 249:Drivers/lvgl/src/misc/lv_color.c ****     else if(rgbMax == b)
 794              		.loc 1 249 11 view .LVU275
 795 00be 01F50061 		add	r1, r1, #2048
 796              	.LVL99:
 249:Drivers/lvgl/src/misc/lv_color.c ****     else if(rgbMax == b)
 797              		.loc 1 249 11 view .LVU276
 798 00c2 DFE7     		b	.L53
 799              	.LVL100:
 800              	.L62:
 247:Drivers/lvgl/src/misc/lv_color.c ****     else if(rgbMax == g)
 801              		.loc 1 247 9 is_stmt 1 view .LVU277
 247:Drivers/lvgl/src/misc/lv_color.c ****     else if(rgbMax == g)
 802              		.loc 1 247 18 is_stmt 0 view .LVU278
 803 00c4 611A     		subs	r1, r4, r1
 804              	.LVL101:
 247:Drivers/lvgl/src/misc/lv_color.c ****     else if(rgbMax == g)
 805              		.loc 1 247 60 view .LVU279
 806 00c6 9C42     		cmp	r4, r3
 247:Drivers/lvgl/src/misc/lv_color.c ****     else if(rgbMax == g)
 807              		.loc 1 247 23 view .LVU280
 808 00c8 4FEA8121 		lsl	r1, r1, #10
 247:Drivers/lvgl/src/misc/lv_color.c ****     else if(rgbMax == g)
 809              		.loc 1 247 30 view .LVU281
 810 00cc 91FBFCF1 		sdiv	r1, r1, ip
 247:Drivers/lvgl/src/misc/lv_color.c ****     else if(rgbMax == g)
 811              		.loc 1 247 60 view .LVU282
 812 00d0 D8D2     		bcs	.L53
 247:Drivers/lvgl/src/misc/lv_color.c ****     else if(rgbMax == g)
 813              		.loc 1 247 11 view .LVU283
 814 00d2 01F5C051 		add	r1, r1, #6144
 815 00d6 D5E7     		b	.L53
 816              	.L65:
 817              		.align	2
 818              	.L64:
 819 00d8 81808080 		.word	-2139062143
 820              		.cfi_endproc
 821              	.LFE23:
 823              		.section	.text.lv_color_to_hsv,"ax",%progbits
 824              		.align	1
 825              		.p2align 2,,3
 826              		.global	lv_color_to_hsv
 827              		.syntax unified
 828              		.thumb
 829              		.thumb_func
 831              	lv_color_to_hsv:
 832              	.LVL102:
 833              	.LFB24:
 261:Drivers/lvgl/src/misc/lv_color.c **** 
 262:Drivers/lvgl/src/misc/lv_color.c **** /**
 263:Drivers/lvgl/src/misc/lv_color.c ****  * Convert a color to HSV
 264:Drivers/lvgl/src/misc/lv_color.c ****  * @param color color
 265:Drivers/lvgl/src/misc/lv_color.c ****  * @return the given color in HSV
ARM GAS  /var/folders/0z/tsy30v1j4xl4_7kw94k978ww0000gn/T//cc7lPTAE.s 			page 33


 266:Drivers/lvgl/src/misc/lv_color.c ****  */
 267:Drivers/lvgl/src/misc/lv_color.c **** lv_color_hsv_t lv_color_to_hsv(lv_color_t color)
 268:Drivers/lvgl/src/misc/lv_color.c **** {
 834              		.loc 1 268 1 is_stmt 1 view -0
 835              		.cfi_startproc
 836              		@ args = 0, pretend = 0, frame = 8
 837              		@ frame_needed = 0, uses_anonymous_args = 0
 838              		@ link register save eliminated.
 269:Drivers/lvgl/src/misc/lv_color.c ****     lv_color32_t color32;
 839              		.loc 1 269 5 view .LVU285
 270:Drivers/lvgl/src/misc/lv_color.c ****     color32.full = lv_color_to32(color);
 840              		.loc 1 270 5 view .LVU286
 841              	.LBB40:
 842              	.LBB41:
 420:Drivers/lvgl/src/misc/lv_color.h ****     LV_COLOR_SET_G32(ret, (LV_COLOR_GET_G(color) * 259 + 3) >> 6);
 843              		.loc 2 420 5 is_stmt 0 view .LVU287
 844 0000 C0F3C402 		ubfx	r2, r0, #3, #5
 845 0004 00F00701 		and	r1, r0, #7
 846              	.LVL103:
 420:Drivers/lvgl/src/misc/lv_color.h ****     LV_COLOR_SET_G32(ret, (LV_COLOR_GET_G(color) * 259 + 3) >> 6);
 847              		.loc 2 420 5 view .LVU288
 848 0008 C0F34233 		ubfx	r3, r0, #13, #3
 421:Drivers/lvgl/src/misc/lv_color.h ****     LV_COLOR_SET_B32(ret, (LV_COLOR_GET_B(color) * 263 + 7) >> 5);
 849              		.loc 2 421 5 view .LVU289
 850 000c 03EBC103 		add	r3, r3, r1, lsl #3
 420:Drivers/lvgl/src/misc/lv_color.h ****     LV_COLOR_SET_G32(ret, (LV_COLOR_GET_G(color) * 259 + 3) >> 6);
 851              		.loc 2 420 5 view .LVU290
 852 0010 02EB4211 		add	r1, r2, r2, lsl #5
 853 0014 C0F30420 		ubfx	r0, r0, #8, #5
 854              	.LVL104:
 420:Drivers/lvgl/src/misc/lv_color.h ****     LV_COLOR_SET_G32(ret, (LV_COLOR_GET_G(color) * 259 + 3) >> 6);
 855              		.loc 2 420 5 view .LVU291
 856              	.LBE41:
 857              	.LBI40:
 375:Drivers/lvgl/src/misc/lv_color.h **** {
 858              		.loc 2 375 24 is_stmt 1 view .LVU292
 859              	.LBB42:
 419:Drivers/lvgl/src/misc/lv_color.h ****     LV_COLOR_SET_R32(ret, (LV_COLOR_GET_R(color) * 263 + 7) >> 5);
 860              		.loc 2 419 5 view .LVU293
 420:Drivers/lvgl/src/misc/lv_color.h ****     LV_COLOR_SET_G32(ret, (LV_COLOR_GET_G(color) * 259 + 3) >> 6);
 861              		.loc 2 420 5 view .LVU294
 862 0018 C2EBC101 		rsb	r1, r2, r1, lsl #3
 421:Drivers/lvgl/src/misc/lv_color.h ****     LV_COLOR_SET_B32(ret, (LV_COLOR_GET_B(color) * 263 + 7) >> 5);
 863              		.loc 2 421 5 is_stmt 0 view .LVU295
 864 001c 03EBC312 		add	r2, r3, r3, lsl #7
 865 0020 03EB4202 		add	r2, r3, r2, lsl #1
 420:Drivers/lvgl/src/misc/lv_color.h ****     LV_COLOR_SET_G32(ret, (LV_COLOR_GET_G(color) * 259 + 3) >> 6);
 866              		.loc 2 420 5 view .LVU296
 867 0024 0731     		adds	r1, r1, #7
 422:Drivers/lvgl/src/misc/lv_color.h ****     LV_COLOR_SET_A32(ret, 0xFF);
 868              		.loc 2 422 5 view .LVU297
 869 0026 00EB4013 		add	r3, r0, r0, lsl #5
 420:Drivers/lvgl/src/misc/lv_color.h ****     LV_COLOR_SET_G32(ret, (LV_COLOR_GET_G(color) * 259 + 3) >> 6);
 870              		.loc 2 420 5 view .LVU298
 871 002a 4911     		asrs	r1, r1, #5
 422:Drivers/lvgl/src/misc/lv_color.h ****     LV_COLOR_SET_A32(ret, 0xFF);
 872              		.loc 2 422 5 view .LVU299
ARM GAS  /var/folders/0z/tsy30v1j4xl4_7kw94k978ww0000gn/T//cc7lPTAE.s 			page 34


 873 002c C0EBC303 		rsb	r3, r0, r3, lsl #3
 420:Drivers/lvgl/src/misc/lv_color.h ****     LV_COLOR_SET_G32(ret, (LV_COLOR_GET_G(color) * 259 + 3) >> 6);
 874              		.loc 2 420 5 view .LVU300
 875 0030 4FF0000C 		mov	ip, #0
 876              	.LVL105:
 421:Drivers/lvgl/src/misc/lv_color.h ****     LV_COLOR_SET_B32(ret, (LV_COLOR_GET_B(color) * 263 + 7) >> 5);
 877              		.loc 2 421 5 view .LVU301
 878 0034 0332     		adds	r2, r2, #3
 420:Drivers/lvgl/src/misc/lv_color.h ****     LV_COLOR_SET_G32(ret, (LV_COLOR_GET_G(color) * 259 + 3) >> 6);
 879              		.loc 2 420 5 view .LVU302
 880 0036 61F3174C 		bfi	ip, r1, #16, #8
 881              	.LVL106:
 421:Drivers/lvgl/src/misc/lv_color.h ****     LV_COLOR_SET_B32(ret, (LV_COLOR_GET_B(color) * 263 + 7) >> 5);
 882              		.loc 2 421 5 is_stmt 1 view .LVU303
 883 003a 9211     		asrs	r2, r2, #6
 422:Drivers/lvgl/src/misc/lv_color.h ****     LV_COLOR_SET_A32(ret, 0xFF);
 884              		.loc 2 422 5 is_stmt 0 view .LVU304
 885 003c 0733     		adds	r3, r3, #7
 421:Drivers/lvgl/src/misc/lv_color.h ****     LV_COLOR_SET_B32(ret, (LV_COLOR_GET_B(color) * 263 + 7) >> 5);
 886              		.loc 2 421 5 view .LVU305
 887 003e 62F30F2C 		bfi	ip, r2, #8, #8
 422:Drivers/lvgl/src/misc/lv_color.h ****     LV_COLOR_SET_A32(ret, 0xFF);
 888              		.loc 2 422 5 is_stmt 1 view .LVU306
 889 0042 5B11     		asrs	r3, r3, #5
 890 0044 63F3070C 		bfi	ip, r3, #0, #8
 423:Drivers/lvgl/src/misc/lv_color.h ****     return ret.full;
 891              		.loc 2 423 5 view .LVU307
 892 0048 4CF07F4C 		orr	ip, ip, #-16777216
 893              	.LVL107:
 424:Drivers/lvgl/src/misc/lv_color.h **** #elif LV_COLOR_DEPTH == 32
 894              		.loc 2 424 5 view .LVU308
 424:Drivers/lvgl/src/misc/lv_color.h **** #elif LV_COLOR_DEPTH == 32
 895              		.loc 2 424 5 is_stmt 0 view .LVU309
 896              	.LBE42:
 897              	.LBE40:
 271:Drivers/lvgl/src/misc/lv_color.c ****     return lv_color_rgb_to_hsv(color32.ch.red, color32.ch.green, color32.ch.blue);
 898              		.loc 1 271 5 is_stmt 1 view .LVU310
 268:Drivers/lvgl/src/misc/lv_color.c ****     lv_color32_t color32;
 899              		.loc 1 268 1 is_stmt 0 view .LVU311
 900 004c 82B0     		sub	sp, sp, #8
 901              		.cfi_def_cfa_offset 8
 902              		.loc 1 271 12 view .LVU312
 903 004e 5FFA8CF2 		uxtb	r2, ip
 904 0052 CCF30721 		ubfx	r1, ip, #8, #8
 905 0056 CCF30740 		ubfx	r0, ip, #16, #8
 272:Drivers/lvgl/src/misc/lv_color.c **** }
 906              		.loc 1 272 1 view .LVU313
 907 005a 02B0     		add	sp, sp, #8
 908              		.cfi_def_cfa_offset 0
 909              		@ sp needed
 271:Drivers/lvgl/src/misc/lv_color.c ****     return lv_color_rgb_to_hsv(color32.ch.red, color32.ch.green, color32.ch.blue);
 910              		.loc 1 271 12 view .LVU314
 911 005c FFF7FEBF 		b	lv_color_rgb_to_hsv
 912              	.LVL108:
 271:Drivers/lvgl/src/misc/lv_color.c ****     return lv_color_rgb_to_hsv(color32.ch.red, color32.ch.green, color32.ch.blue);
 913              		.loc 1 271 12 view .LVU315
 914              		.cfi_endproc
ARM GAS  /var/folders/0z/tsy30v1j4xl4_7kw94k978ww0000gn/T//cc7lPTAE.s 			page 35


 915              	.LFE24:
 917              		.section	.text.lv_palette_main,"ax",%progbits
 918              		.align	1
 919              		.p2align 2,,3
 920              		.global	lv_palette_main
 921              		.syntax unified
 922              		.thumb
 923              		.thumb_func
 925              	lv_palette_main:
 926              	.LVL109:
 927              	.LFB25:
 273:Drivers/lvgl/src/misc/lv_color.c **** 
 274:Drivers/lvgl/src/misc/lv_color.c **** lv_color_t lv_palette_main(lv_palette_t p)
 275:Drivers/lvgl/src/misc/lv_color.c **** {
 928              		.loc 1 275 1 is_stmt 1 view -0
 929              		.cfi_startproc
 930              		@ args = 0, pretend = 0, frame = 0
 931              		@ frame_needed = 0, uses_anonymous_args = 0
 932              		@ link register save eliminated.
 276:Drivers/lvgl/src/misc/lv_color.c ****     static const lv_color_t colors[] = {
 933              		.loc 1 276 5 view .LVU317
 277:Drivers/lvgl/src/misc/lv_color.c ****         LV_COLOR_MAKE(0xF4, 0x43, 0x36), LV_COLOR_MAKE(0xE9, 0x1E, 0x63), LV_COLOR_MAKE(0x9C, 0x27,
 278:Drivers/lvgl/src/misc/lv_color.c ****         LV_COLOR_MAKE(0x3F, 0x51, 0xB5), LV_COLOR_MAKE(0x21, 0x96, 0xF3), LV_COLOR_MAKE(0x03, 0xA9,
 279:Drivers/lvgl/src/misc/lv_color.c ****         LV_COLOR_MAKE(0x00, 0x96, 0x88), LV_COLOR_MAKE(0x4C, 0xAF, 0x50), LV_COLOR_MAKE(0x8B, 0xC3,
 280:Drivers/lvgl/src/misc/lv_color.c ****         LV_COLOR_MAKE(0xFF, 0xEB, 0x3B), LV_COLOR_MAKE(0xFF, 0xC1, 0x07), LV_COLOR_MAKE(0xFF, 0x98,
 281:Drivers/lvgl/src/misc/lv_color.c ****         LV_COLOR_MAKE(0x79, 0x55, 0x48), LV_COLOR_MAKE(0x60, 0x7D, 0x8B), LV_COLOR_MAKE(0x9E, 0x9E,
 282:Drivers/lvgl/src/misc/lv_color.c ****     };
 283:Drivers/lvgl/src/misc/lv_color.c **** 
 284:Drivers/lvgl/src/misc/lv_color.c ****     if(p >= _LV_PALETTE_LAST) {
 934              		.loc 1 284 5 view .LVU318
 935              		.loc 1 284 7 is_stmt 0 view .LVU319
 936 0000 1228     		cmp	r0, #18
 285:Drivers/lvgl/src/misc/lv_color.c ****         LV_LOG_WARN("Invalid palette: %d", p);
 937              		.loc 1 285 9 is_stmt 1 view .LVU320
 938              		.loc 1 285 9 view .LVU321
 939              		.loc 1 285 9 view .LVU322
 286:Drivers/lvgl/src/misc/lv_color.c ****         return lv_color_black();
 940              		.loc 1 286 9 view .LVU323
 287:Drivers/lvgl/src/misc/lv_color.c ****     }
 288:Drivers/lvgl/src/misc/lv_color.c **** 
 289:Drivers/lvgl/src/misc/lv_color.c ****     return colors[p];
 941              		.loc 1 289 18 is_stmt 0 view .LVU324
 942 0002 96BF     		itet	ls
 943 0004 024B     		ldrls	r3, .L71
 944 0006 0020     		movhi	r0, #0	@ movhi
 945              	.LVL110:
 946              		.loc 1 289 5 is_stmt 1 view .LVU325
 947              		.loc 1 289 18 is_stmt 0 view .LVU326
 948 0008 33F81000 		ldrhls	r0, [r3, r0, lsl #1]
 290:Drivers/lvgl/src/misc/lv_color.c **** 
 291:Drivers/lvgl/src/misc/lv_color.c **** }
 949              		.loc 1 291 1 view .LVU327
 950 000c 7047     		bx	lr
 951              	.L72:
 952 000e 00BF     		.align	2
 953              	.L71:
 954 0010 00000000 		.word	.LANCHOR0
ARM GAS  /var/folders/0z/tsy30v1j4xl4_7kw94k978ww0000gn/T//cc7lPTAE.s 			page 36


 955              		.cfi_endproc
 956              	.LFE25:
 958              		.section	.text.lv_palette_lighten,"ax",%progbits
 959              		.align	1
 960              		.p2align 2,,3
 961              		.global	lv_palette_lighten
 962              		.syntax unified
 963              		.thumb
 964              		.thumb_func
 966              	lv_palette_lighten:
 967              	.LVL111:
 968              	.LFB26:
 292:Drivers/lvgl/src/misc/lv_color.c **** 
 293:Drivers/lvgl/src/misc/lv_color.c **** lv_color_t lv_palette_lighten(lv_palette_t p, uint8_t lvl)
 294:Drivers/lvgl/src/misc/lv_color.c **** {
 969              		.loc 1 294 1 is_stmt 1 view -0
 970              		.cfi_startproc
 971              		@ args = 0, pretend = 0, frame = 0
 972              		@ frame_needed = 0, uses_anonymous_args = 0
 973              		@ link register save eliminated.
 295:Drivers/lvgl/src/misc/lv_color.c ****     static const lv_color_t colors[][5] = {
 974              		.loc 1 295 5 view .LVU329
 296:Drivers/lvgl/src/misc/lv_color.c ****         {LV_COLOR_MAKE(0xEF, 0x53, 0x50), LV_COLOR_MAKE(0xE5, 0x73, 0x73), LV_COLOR_MAKE(0xEF, 0x9A
 297:Drivers/lvgl/src/misc/lv_color.c ****         {LV_COLOR_MAKE(0xEC, 0x40, 0x7A), LV_COLOR_MAKE(0xF0, 0x62, 0x92), LV_COLOR_MAKE(0xF4, 0x8F
 298:Drivers/lvgl/src/misc/lv_color.c ****         {LV_COLOR_MAKE(0xAB, 0x47, 0xBC), LV_COLOR_MAKE(0xBA, 0x68, 0xC8), LV_COLOR_MAKE(0xCE, 0x93
 299:Drivers/lvgl/src/misc/lv_color.c ****         {LV_COLOR_MAKE(0x7E, 0x57, 0xC2), LV_COLOR_MAKE(0x95, 0x75, 0xCD), LV_COLOR_MAKE(0xB3, 0x9D
 300:Drivers/lvgl/src/misc/lv_color.c ****         {LV_COLOR_MAKE(0x5C, 0x6B, 0xC0), LV_COLOR_MAKE(0x79, 0x86, 0xCB), LV_COLOR_MAKE(0x9F, 0xA8
 301:Drivers/lvgl/src/misc/lv_color.c ****         {LV_COLOR_MAKE(0x42, 0xA5, 0xF5), LV_COLOR_MAKE(0x64, 0xB5, 0xF6), LV_COLOR_MAKE(0x90, 0xCA
 302:Drivers/lvgl/src/misc/lv_color.c ****         {LV_COLOR_MAKE(0x29, 0xB6, 0xF6), LV_COLOR_MAKE(0x4F, 0xC3, 0xF7), LV_COLOR_MAKE(0x81, 0xD4
 303:Drivers/lvgl/src/misc/lv_color.c ****         {LV_COLOR_MAKE(0x26, 0xC6, 0xDA), LV_COLOR_MAKE(0x4D, 0xD0, 0xE1), LV_COLOR_MAKE(0x80, 0xDE
 304:Drivers/lvgl/src/misc/lv_color.c ****         {LV_COLOR_MAKE(0x26, 0xA6, 0x9A), LV_COLOR_MAKE(0x4D, 0xB6, 0xAC), LV_COLOR_MAKE(0x80, 0xCB
 305:Drivers/lvgl/src/misc/lv_color.c ****         {LV_COLOR_MAKE(0x66, 0xBB, 0x6A), LV_COLOR_MAKE(0x81, 0xC7, 0x84), LV_COLOR_MAKE(0xA5, 0xD6
 306:Drivers/lvgl/src/misc/lv_color.c ****         {LV_COLOR_MAKE(0x9C, 0xCC, 0x65), LV_COLOR_MAKE(0xAE, 0xD5, 0x81), LV_COLOR_MAKE(0xC5, 0xE1
 307:Drivers/lvgl/src/misc/lv_color.c ****         {LV_COLOR_MAKE(0xD4, 0xE1, 0x57), LV_COLOR_MAKE(0xDC, 0xE7, 0x75), LV_COLOR_MAKE(0xE6, 0xEE
 308:Drivers/lvgl/src/misc/lv_color.c ****         {LV_COLOR_MAKE(0xFF, 0xEE, 0x58), LV_COLOR_MAKE(0xFF, 0xF1, 0x76), LV_COLOR_MAKE(0xFF, 0xF5
 309:Drivers/lvgl/src/misc/lv_color.c ****         {LV_COLOR_MAKE(0xFF, 0xCA, 0x28), LV_COLOR_MAKE(0xFF, 0xD5, 0x4F), LV_COLOR_MAKE(0xFF, 0xE0
 310:Drivers/lvgl/src/misc/lv_color.c ****         {LV_COLOR_MAKE(0xFF, 0xA7, 0x26), LV_COLOR_MAKE(0xFF, 0xB7, 0x4D), LV_COLOR_MAKE(0xFF, 0xCC
 311:Drivers/lvgl/src/misc/lv_color.c ****         {LV_COLOR_MAKE(0xFF, 0x70, 0x43), LV_COLOR_MAKE(0xFF, 0x8A, 0x65), LV_COLOR_MAKE(0xFF, 0xAB
 312:Drivers/lvgl/src/misc/lv_color.c ****         {LV_COLOR_MAKE(0x8D, 0x6E, 0x63), LV_COLOR_MAKE(0xA1, 0x88, 0x7F), LV_COLOR_MAKE(0xBC, 0xAA
 313:Drivers/lvgl/src/misc/lv_color.c ****         {LV_COLOR_MAKE(0x78, 0x90, 0x9C), LV_COLOR_MAKE(0x90, 0xA4, 0xAE), LV_COLOR_MAKE(0xB0, 0xBE
 314:Drivers/lvgl/src/misc/lv_color.c ****         {LV_COLOR_MAKE(0xBD, 0xBD, 0xBD), LV_COLOR_MAKE(0xE0, 0xE0, 0xE0), LV_COLOR_MAKE(0xEE, 0xEE
 315:Drivers/lvgl/src/misc/lv_color.c ****     };
 316:Drivers/lvgl/src/misc/lv_color.c **** 
 317:Drivers/lvgl/src/misc/lv_color.c ****     if(p >= _LV_PALETTE_LAST) {
 975              		.loc 1 317 5 view .LVU330
 976              		.loc 1 317 7 is_stmt 0 view .LVU331
 977 0000 1228     		cmp	r0, #18
 978 0002 0AD8     		bhi	.L76
 318:Drivers/lvgl/src/misc/lv_color.c ****         LV_LOG_WARN("Invalid palette: %d", p);
 319:Drivers/lvgl/src/misc/lv_color.c ****         return lv_color_black();
 320:Drivers/lvgl/src/misc/lv_color.c ****     }
 321:Drivers/lvgl/src/misc/lv_color.c **** 
 322:Drivers/lvgl/src/misc/lv_color.c ****     if(lvl == 0 || lvl > 5) {
 979              		.loc 1 322 5 is_stmt 1 view .LVU332
 980              		.loc 1 322 17 is_stmt 0 view .LVU333
 981 0004 0139     		subs	r1, r1, #1
 982              	.LVL112:
ARM GAS  /var/folders/0z/tsy30v1j4xl4_7kw94k978ww0000gn/T//cc7lPTAE.s 			page 37


 983              		.loc 1 322 17 view .LVU334
 984 0006 C9B2     		uxtb	r1, r1
 985              		.loc 1 322 7 view .LVU335
 986 0008 0429     		cmp	r1, #4
 987 000a 06D8     		bhi	.L76
 323:Drivers/lvgl/src/misc/lv_color.c ****         LV_LOG_WARN("Invalid level: %d. Must be 1..5", lvl);
 324:Drivers/lvgl/src/misc/lv_color.c ****         return lv_color_black();
 325:Drivers/lvgl/src/misc/lv_color.c ****     }
 326:Drivers/lvgl/src/misc/lv_color.c **** 
 327:Drivers/lvgl/src/misc/lv_color.c ****     lvl--;
 988              		.loc 1 327 5 is_stmt 1 view .LVU336
 989              	.LVL113:
 328:Drivers/lvgl/src/misc/lv_color.c **** 
 329:Drivers/lvgl/src/misc/lv_color.c ****     return colors[p][lvl];
 990              		.loc 1 329 5 view .LVU337
 991              		.loc 1 329 21 is_stmt 0 view .LVU338
 992 000c 00EB8000 		add	r0, r0, r0, lsl #2
 993              	.LVL114:
 994              		.loc 1 329 21 view .LVU339
 995 0010 034B     		ldr	r3, .L77
 996 0012 0844     		add	r0, r0, r1
 997 0014 33F81000 		ldrh	r0, [r3, r0, lsl #1]
 330:Drivers/lvgl/src/misc/lv_color.c **** }
 998              		.loc 1 330 1 view .LVU340
 999 0018 7047     		bx	lr
 1000              	.LVL115:
 1001              	.L76:
 318:Drivers/lvgl/src/misc/lv_color.c ****         return lv_color_black();
 1002              		.loc 1 318 9 is_stmt 1 view .LVU341
 318:Drivers/lvgl/src/misc/lv_color.c ****         return lv_color_black();
 1003              		.loc 1 318 9 view .LVU342
 318:Drivers/lvgl/src/misc/lv_color.c ****         return lv_color_black();
 1004              		.loc 1 318 9 view .LVU343
 319:Drivers/lvgl/src/misc/lv_color.c ****     }
 1005              		.loc 1 319 9 view .LVU344
 1006 001a 4FF00000 		mov	r0, #0	@ movhi
 1007              	.LVL116:
 319:Drivers/lvgl/src/misc/lv_color.c ****     }
 1008              		.loc 1 319 16 is_stmt 0 view .LVU345
 1009 001e 7047     		bx	lr
 1010              	.L78:
 1011              		.align	2
 1012              	.L77:
 1013 0020 00000000 		.word	.LANCHOR1
 1014              		.cfi_endproc
 1015              	.LFE26:
 1017              		.section	.text.lv_palette_darken,"ax",%progbits
 1018              		.align	1
 1019              		.p2align 2,,3
 1020              		.global	lv_palette_darken
 1021              		.syntax unified
 1022              		.thumb
 1023              		.thumb_func
 1025              	lv_palette_darken:
 1026              	.LVL117:
 1027              	.LFB27:
 331:Drivers/lvgl/src/misc/lv_color.c **** 
ARM GAS  /var/folders/0z/tsy30v1j4xl4_7kw94k978ww0000gn/T//cc7lPTAE.s 			page 38


 332:Drivers/lvgl/src/misc/lv_color.c **** lv_color_t lv_palette_darken(lv_palette_t p, uint8_t lvl)
 333:Drivers/lvgl/src/misc/lv_color.c **** {
 1028              		.loc 1 333 1 is_stmt 1 view -0
 1029              		.cfi_startproc
 1030              		@ args = 0, pretend = 0, frame = 0
 1031              		@ frame_needed = 0, uses_anonymous_args = 0
 1032              		@ link register save eliminated.
 334:Drivers/lvgl/src/misc/lv_color.c ****     static const lv_color_t colors[][4] = {
 1033              		.loc 1 334 5 view .LVU347
 335:Drivers/lvgl/src/misc/lv_color.c ****         {LV_COLOR_MAKE(0xE5, 0x39, 0x35), LV_COLOR_MAKE(0xD3, 0x2F, 0x2F), LV_COLOR_MAKE(0xC6, 0x28
 336:Drivers/lvgl/src/misc/lv_color.c ****         {LV_COLOR_MAKE(0xD8, 0x1B, 0x60), LV_COLOR_MAKE(0xC2, 0x18, 0x5B), LV_COLOR_MAKE(0xAD, 0x14
 337:Drivers/lvgl/src/misc/lv_color.c ****         {LV_COLOR_MAKE(0x8E, 0x24, 0xAA), LV_COLOR_MAKE(0x7B, 0x1F, 0xA2), LV_COLOR_MAKE(0x6A, 0x1B
 338:Drivers/lvgl/src/misc/lv_color.c ****         {LV_COLOR_MAKE(0x5E, 0x35, 0xB1), LV_COLOR_MAKE(0x51, 0x2D, 0xA8), LV_COLOR_MAKE(0x45, 0x27
 339:Drivers/lvgl/src/misc/lv_color.c ****         {LV_COLOR_MAKE(0x39, 0x49, 0xAB), LV_COLOR_MAKE(0x30, 0x3F, 0x9F), LV_COLOR_MAKE(0x28, 0x35
 340:Drivers/lvgl/src/misc/lv_color.c ****         {LV_COLOR_MAKE(0x1E, 0x88, 0xE5), LV_COLOR_MAKE(0x19, 0x76, 0xD2), LV_COLOR_MAKE(0x15, 0x65
 341:Drivers/lvgl/src/misc/lv_color.c ****         {LV_COLOR_MAKE(0x03, 0x9B, 0xE5), LV_COLOR_MAKE(0x02, 0x88, 0xD1), LV_COLOR_MAKE(0x02, 0x77
 342:Drivers/lvgl/src/misc/lv_color.c ****         {LV_COLOR_MAKE(0x00, 0xAC, 0xC1), LV_COLOR_MAKE(0x00, 0x97, 0xA7), LV_COLOR_MAKE(0x00, 0x83
 343:Drivers/lvgl/src/misc/lv_color.c ****         {LV_COLOR_MAKE(0x00, 0x89, 0x7B), LV_COLOR_MAKE(0x00, 0x79, 0x6B), LV_COLOR_MAKE(0x00, 0x69
 344:Drivers/lvgl/src/misc/lv_color.c ****         {LV_COLOR_MAKE(0x43, 0xA0, 0x47), LV_COLOR_MAKE(0x38, 0x8E, 0x3C), LV_COLOR_MAKE(0x2E, 0x7D
 345:Drivers/lvgl/src/misc/lv_color.c ****         {LV_COLOR_MAKE(0x7C, 0xB3, 0x42), LV_COLOR_MAKE(0x68, 0x9F, 0x38), LV_COLOR_MAKE(0x55, 0x8B
 346:Drivers/lvgl/src/misc/lv_color.c ****         {LV_COLOR_MAKE(0xC0, 0xCA, 0x33), LV_COLOR_MAKE(0xAF, 0xB4, 0x2B), LV_COLOR_MAKE(0x9E, 0x9D
 347:Drivers/lvgl/src/misc/lv_color.c ****         {LV_COLOR_MAKE(0xFD, 0xD8, 0x35), LV_COLOR_MAKE(0xFB, 0xC0, 0x2D), LV_COLOR_MAKE(0xF9, 0xA8
 348:Drivers/lvgl/src/misc/lv_color.c ****         {LV_COLOR_MAKE(0xFF, 0xB3, 0x00), LV_COLOR_MAKE(0xFF, 0xA0, 0x00), LV_COLOR_MAKE(0xFF, 0x8F
 349:Drivers/lvgl/src/misc/lv_color.c ****         {LV_COLOR_MAKE(0xFB, 0x8C, 0x00), LV_COLOR_MAKE(0xF5, 0x7C, 0x00), LV_COLOR_MAKE(0xEF, 0x6C
 350:Drivers/lvgl/src/misc/lv_color.c ****         {LV_COLOR_MAKE(0xF4, 0x51, 0x1E), LV_COLOR_MAKE(0xE6, 0x4A, 0x19), LV_COLOR_MAKE(0xD8, 0x43
 351:Drivers/lvgl/src/misc/lv_color.c ****         {LV_COLOR_MAKE(0x6D, 0x4C, 0x41), LV_COLOR_MAKE(0x5D, 0x40, 0x37), LV_COLOR_MAKE(0x4E, 0x34
 352:Drivers/lvgl/src/misc/lv_color.c ****         {LV_COLOR_MAKE(0x54, 0x6E, 0x7A), LV_COLOR_MAKE(0x45, 0x5A, 0x64), LV_COLOR_MAKE(0x37, 0x47
 353:Drivers/lvgl/src/misc/lv_color.c ****         {LV_COLOR_MAKE(0x75, 0x75, 0x75), LV_COLOR_MAKE(0x61, 0x61, 0x61), LV_COLOR_MAKE(0x42, 0x42
 354:Drivers/lvgl/src/misc/lv_color.c ****     };
 355:Drivers/lvgl/src/misc/lv_color.c **** 
 356:Drivers/lvgl/src/misc/lv_color.c ****     if(p >= _LV_PALETTE_LAST) {
 1034              		.loc 1 356 5 view .LVU348
 1035              		.loc 1 356 7 is_stmt 0 view .LVU349
 1036 0000 1228     		cmp	r0, #18
 1037 0002 09D8     		bhi	.L82
 357:Drivers/lvgl/src/misc/lv_color.c ****         LV_LOG_WARN("Invalid palette: %d", p);
 358:Drivers/lvgl/src/misc/lv_color.c ****         return lv_color_black();
 359:Drivers/lvgl/src/misc/lv_color.c ****     }
 360:Drivers/lvgl/src/misc/lv_color.c **** 
 361:Drivers/lvgl/src/misc/lv_color.c ****     if(lvl == 0 || lvl > 4) {
 1038              		.loc 1 361 5 is_stmt 1 view .LVU350
 1039              		.loc 1 361 17 is_stmt 0 view .LVU351
 1040 0004 0139     		subs	r1, r1, #1
 1041              	.LVL118:
 1042              		.loc 1 361 17 view .LVU352
 1043 0006 C9B2     		uxtb	r1, r1
 1044              		.loc 1 361 7 view .LVU353
 1045 0008 0329     		cmp	r1, #3
 1046 000a 05D8     		bhi	.L82
 362:Drivers/lvgl/src/misc/lv_color.c ****         LV_LOG_WARN("Invalid level: %d. Must be 1..4", lvl);
 363:Drivers/lvgl/src/misc/lv_color.c ****         return lv_color_black();
 364:Drivers/lvgl/src/misc/lv_color.c ****     }
 365:Drivers/lvgl/src/misc/lv_color.c **** 
 366:Drivers/lvgl/src/misc/lv_color.c ****     lvl--;
 1047              		.loc 1 366 5 is_stmt 1 view .LVU354
 1048              	.LVL119:
 367:Drivers/lvgl/src/misc/lv_color.c **** 
ARM GAS  /var/folders/0z/tsy30v1j4xl4_7kw94k978ww0000gn/T//cc7lPTAE.s 			page 39


 368:Drivers/lvgl/src/misc/lv_color.c ****     return colors[p][lvl];
 1049              		.loc 1 368 5 view .LVU355
 1050              		.loc 1 368 21 is_stmt 0 view .LVU356
 1051 000c 044B     		ldr	r3, .L83
 1052 000e 01EB8000 		add	r0, r1, r0, lsl #2
 1053              	.LVL120:
 1054              		.loc 1 368 21 view .LVU357
 1055 0012 33F81000 		ldrh	r0, [r3, r0, lsl #1]
 369:Drivers/lvgl/src/misc/lv_color.c **** }
 1056              		.loc 1 369 1 view .LVU358
 1057 0016 7047     		bx	lr
 1058              	.LVL121:
 1059              	.L82:
 357:Drivers/lvgl/src/misc/lv_color.c ****         return lv_color_black();
 1060              		.loc 1 357 9 is_stmt 1 view .LVU359
 357:Drivers/lvgl/src/misc/lv_color.c ****         return lv_color_black();
 1061              		.loc 1 357 9 view .LVU360
 357:Drivers/lvgl/src/misc/lv_color.c ****         return lv_color_black();
 1062              		.loc 1 357 9 view .LVU361
 358:Drivers/lvgl/src/misc/lv_color.c ****     }
 1063              		.loc 1 358 9 view .LVU362
 1064 0018 4FF00000 		mov	r0, #0	@ movhi
 1065              	.LVL122:
 358:Drivers/lvgl/src/misc/lv_color.c ****     }
 1066              		.loc 1 358 16 is_stmt 0 view .LVU363
 1067 001c 7047     		bx	lr
 1068              	.L84:
 1069 001e 00BF     		.align	2
 1070              	.L83:
 1071 0020 00000000 		.word	.LANCHOR2
 1072              		.cfi_endproc
 1073              	.LFE27:
 1075              		.section	.rodata.colors.0,"a"
 1076              		.align	2
 1077              		.set	.LANCHOR2,. + 0
 1080              	colors.0:
 1081 0000 E1       		.byte	225
 1082 0001 C6       		.byte	198
 1083 0002 D1       		.byte	209
 1084 0003 65       		.byte	101
 1085 0004 C1       		.byte	193
 1086 0005 45       		.byte	69
 1087 0006 B0       		.byte	176
 1088 0007 E3       		.byte	227
 1089 0008 D8       		.byte	216
 1090 0009 CC       		.byte	204
 1091 000a C0       		.byte	192
 1092 000b CB       		.byte	203
 1093 000c A8       		.byte	168
 1094 000d AA       		.byte	170
 1095 000e 88       		.byte	136
 1096 000f 69       		.byte	105
 1097 0010 89       		.byte	137
 1098 0011 35       		.byte	53
 1099 0012 78       		.byte	120
 1100 0013 F4       		.byte	244
 1101 0014 68       		.byte	104
ARM GAS  /var/folders/0z/tsy30v1j4xl4_7kw94k978ww0000gn/T//cc7lPTAE.s 			page 40


 1102 0015 D3       		.byte	211
 1103 0016 48       		.byte	72
 1104 0017 B1       		.byte	177
 1105 0018 59       		.byte	89
 1106 0019 B6       		.byte	182
 1107 001a 51       		.byte	81
 1108 001b 75       		.byte	117
 1109 001c 41       		.byte	65
 1110 001d 34       		.byte	52
 1111 001e 30       		.byte	48
 1112 001f D2       		.byte	210
 1113 0020 3A       		.byte	58
 1114 0021 55       		.byte	85
 1115 0022 31       		.byte	49
 1116 0023 F3       		.byte	243
 1117 0024 29       		.byte	41
 1118 0025 B2       		.byte	178
 1119 0026 19       		.byte	25
 1120 0027 0F       		.byte	15
 1121 0028 1C       		.byte	28
 1122 0029 5C       		.byte	92
 1123 002a 1B       		.byte	27
 1124 002b BA       		.byte	186
 1125 002c 13       		.byte	19
 1126 002d 38       		.byte	56
 1127 002e 0A       		.byte	10
 1128 002f 34       		.byte	52
 1129 0030 04       		.byte	4
 1130 0031 DC       		.byte	220
 1131 0032 04       		.byte	4
 1132 0033 5A       		.byte	90
 1133 0034 03       		.byte	3
 1134 0035 B7       		.byte	183
 1135 0036 02       		.byte	2
 1136 0037 B3       		.byte	179
 1137 0038 05       		.byte	5
 1138 0039 78       		.byte	120
 1139 003a 04       		.byte	4
 1140 003b B4       		.byte	180
 1141 003c 04       		.byte	4
 1142 003d 11       		.byte	17
 1143 003e 03       		.byte	3
 1144 003f 0C       		.byte	12
 1145 0040 04       		.byte	4
 1146 0041 4F       		.byte	79
 1147 0042 03       		.byte	3
 1148 0043 CD       		.byte	205
 1149 0044 03       		.byte	3
 1150 0045 4B       		.byte	75
 1151 0046 02       		.byte	2
 1152 0047 68       		.byte	104
 1153 0048 45       		.byte	69
 1154 0049 08       		.byte	8
 1155 004a 3C       		.byte	60
 1156 004b 67       		.byte	103
 1157 004c 2B       		.byte	43
 1158 004d E6       		.byte	230
ARM GAS  /var/folders/0z/tsy30v1j4xl4_7kw94k978ww0000gn/T//cc7lPTAE.s 			page 41


 1159 004e 1A       		.byte	26
 1160 004f E4       		.byte	228
 1161 0050 7D       		.byte	125
 1162 0051 88       		.byte	136
 1163 0052 6C       		.byte	108
 1164 0053 E7       		.byte	231
 1165 0054 54       		.byte	84
 1166 0055 45       		.byte	69
 1167 0056 33       		.byte	51
 1168 0057 43       		.byte	67
 1169 0058 C6       		.byte	198
 1170 0059 46       		.byte	70
 1171 005a AD       		.byte	173
 1172 005b A5       		.byte	165
 1173 005c 9C       		.byte	156
 1174 005d E4       		.byte	228
 1175 005e 83       		.byte	131
 1176 005f A2       		.byte	162
 1177 0060 FE       		.byte	254
 1178 0061 C6       		.byte	198
 1179 0062 FE       		.byte	254
 1180 0063 05       		.byte	5
 1181 0064 FD       		.byte	253
 1182 0065 44       		.byte	68
 1183 0066 F3       		.byte	243
 1184 0067 E2       		.byte	226
 1185 0068 FD       		.byte	253
 1186 0069 80       		.byte	128
 1187 006a FD       		.byte	253
 1188 006b 00       		.byte	0
 1189 006c FC       		.byte	252
 1190 006d 60       		.byte	96
 1191 006e FB       		.byte	251
 1192 006f 60       		.byte	96
 1193 0070 FC       		.byte	252
 1194 0071 60       		.byte	96
 1195 0072 F3       		.byte	243
 1196 0073 E0       		.byte	224
 1197 0074 EB       		.byte	235
 1198 0075 60       		.byte	96
 1199 0076 E2       		.byte	226
 1200 0077 80       		.byte	128
 1201 0078 F2       		.byte	242
 1202 0079 83       		.byte	131
 1203 007a E2       		.byte	226
 1204 007b 43       		.byte	67
 1205 007c DA       		.byte	218
 1206 007d 02       		.byte	2
 1207 007e B9       		.byte	185
 1208 007f A1       		.byte	161
 1209 0080 6A       		.byte	106
 1210 0081 68       		.byte	104
 1211 0082 5A       		.byte	90
 1212 0083 06       		.byte	6
 1213 0084 49       		.byte	73
 1214 0085 A5       		.byte	165
 1215 0086 39       		.byte	57
ARM GAS  /var/folders/0z/tsy30v1j4xl4_7kw94k978ww0000gn/T//cc7lPTAE.s 			page 42


 1216 0087 24       		.byte	36
 1217 0088 53       		.byte	83
 1218 0089 6F       		.byte	111
 1219 008a 42       		.byte	66
 1220 008b CC       		.byte	204
 1221 008c 32       		.byte	50
 1222 008d 29       		.byte	41
 1223 008e 21       		.byte	33
 1224 008f 87       		.byte	135
 1225 0090 73       		.byte	115
 1226 0091 AE       		.byte	174
 1227 0092 63       		.byte	99
 1228 0093 0C       		.byte	12
 1229 0094 42       		.byte	66
 1230 0095 08       		.byte	8
 1231 0096 21       		.byte	33
 1232 0097 04       		.byte	4
 1233              		.section	.rodata.colors.1,"a"
 1234              		.align	2
 1235              		.set	.LANCHOR1,. + 0
 1238              	colors.1:
 1239 0000 EA       		.byte	234
 1240 0001 8A       		.byte	138
 1241 0002 E3       		.byte	227
 1242 0003 8E       		.byte	142
 1243 0004 EC       		.byte	236
 1244 0005 D3       		.byte	211
 1245 0006 FE       		.byte	254
 1246 0007 7A       		.byte	122
 1247 0008 FF       		.byte	255
 1248 0009 5D       		.byte	93
 1249 000a EA       		.byte	234
 1250 000b 0F       		.byte	15
 1251 000c F3       		.byte	243
 1252 000d 12       		.byte	18
 1253 000e F4       		.byte	244
 1254 000f 76       		.byte	118
 1255 0010 FD       		.byte	253
 1256 0011 DA       		.byte	218
 1257 0012 FF       		.byte	255
 1258 0013 3D       		.byte	61
 1259 0014 AA       		.byte	170
 1260 0015 37       		.byte	55
 1261 0016 BB       		.byte	187
 1262 0017 59       		.byte	89
 1263 0018 CC       		.byte	204
 1264 0019 9B       		.byte	155
 1265 001a E5       		.byte	229
 1266 001b FC       		.byte	252
 1267 001c F7       		.byte	247
 1268 001d 3E       		.byte	62
 1269 001e 7A       		.byte	122
 1270 001f B8       		.byte	184
 1271 0020 93       		.byte	147
 1272 0021 B9       		.byte	185
 1273 0022 B4       		.byte	180
 1274 0023 FB       		.byte	251
ARM GAS  /var/folders/0z/tsy30v1j4xl4_7kw94k978ww0000gn/T//cc7lPTAE.s 			page 43


 1275 0024 D6       		.byte	214
 1276 0025 3D       		.byte	61
 1277 0026 EF       		.byte	239
 1278 0027 3E       		.byte	62
 1279 0028 5B       		.byte	91
 1280 0029 58       		.byte	88
 1281 002a 7C       		.byte	124
 1282 002b 39       		.byte	57
 1283 002c 9D       		.byte	157
 1284 002d 5B       		.byte	91
 1285 002e C6       		.byte	198
 1286 002f 5D       		.byte	93
 1287 0030 EF       		.byte	239
 1288 0031 5E       		.byte	94
 1289 0032 45       		.byte	69
 1290 0033 3E       		.byte	62
 1291 0034 65       		.byte	101
 1292 0035 BE       		.byte	190
 1293 0036 96       		.byte	150
 1294 0037 5F       		.byte	95
 1295 0038 BE       		.byte	190
 1296 0039 FF       		.byte	255
 1297 003a E7       		.byte	231
 1298 003b 9F       		.byte	159
 1299 003c 2D       		.byte	45
 1300 003d BE       		.byte	190
 1301 003e 4E       		.byte	78
 1302 003f 1E       		.byte	30
 1303 0040 86       		.byte	134
 1304 0041 BF       		.byte	191
 1305 0042 B7       		.byte	183
 1306 0043 3F       		.byte	63
 1307 0044 E7       		.byte	231
 1308 0045 BF       		.byte	191
 1309 0046 26       		.byte	38
 1310 0047 3B       		.byte	59
 1311 0048 4E       		.byte	78
 1312 0049 9C       		.byte	156
 1313 004a 86       		.byte	134
 1314 004b FD       		.byte	253
 1315 004c B7       		.byte	183
 1316 004d 5E       		.byte	94
 1317 004e E7       		.byte	231
 1318 004f BF       		.byte	191
 1319 0050 25       		.byte	37
 1320 0051 33       		.byte	51
 1321 0052 4D       		.byte	77
 1322 0053 B5       		.byte	181
 1323 0054 86       		.byte	134
 1324 0055 58       		.byte	88
 1325 0056 B6       		.byte	182
 1326 0057 FB       		.byte	251
 1327 0058 E7       		.byte	231
 1328 0059 9E       		.byte	158
 1329 005a 65       		.byte	101
 1330 005b CD       		.byte	205
 1331 005c 86       		.byte	134
ARM GAS  /var/folders/0z/tsy30v1j4xl4_7kw94k978ww0000gn/T//cc7lPTAE.s 			page 44


 1332 005d 30       		.byte	48
 1333 005e A6       		.byte	166
 1334 005f B4       		.byte	180
 1335 0060 CF       		.byte	207
 1336 0061 39       		.byte	57
 1337 0062 EF       		.byte	239
 1338 0063 BD       		.byte	189
 1339 0064 9E       		.byte	158
 1340 0065 6C       		.byte	108
 1341 0066 AE       		.byte	174
 1342 0067 B0       		.byte	176
 1343 0068 C7       		.byte	199
 1344 0069 14       		.byte	20
 1345 006a DF       		.byte	223
 1346 006b 79       		.byte	121
 1347 006c F7       		.byte	247
 1348 006d DD       		.byte	221
 1349 006e D7       		.byte	215
 1350 006f 0A       		.byte	10
 1351 0070 DF       		.byte	223
 1352 0071 2E       		.byte	46
 1353 0072 E7       		.byte	231
 1354 0073 73       		.byte	115
 1355 0074 F7       		.byte	247
 1356 0075 B8       		.byte	184
 1357 0076 FF       		.byte	255
 1358 0077 DC       		.byte	220
 1359 0078 FF       		.byte	255
 1360 0079 6B       		.byte	107
 1361 007a FF       		.byte	255
 1362 007b 8E       		.byte	142
 1363 007c FF       		.byte	255
 1364 007d B3       		.byte	179
 1365 007e FF       		.byte	255
 1366 007f D8       		.byte	216
 1367 0080 FF       		.byte	255
 1368 0081 FC       		.byte	252
 1369 0082 FE       		.byte	254
 1370 0083 45       		.byte	69
 1371 0084 FE       		.byte	254
 1372 0085 A9       		.byte	169
 1373 0086 FF       		.byte	255
 1374 0087 10       		.byte	16
 1375 0088 FF       		.byte	255
 1376 0089 76       		.byte	118
 1377 008a FF       		.byte	255
 1378 008b DC       		.byte	220
 1379 008c FD       		.byte	253
 1380 008d 24       		.byte	36
 1381 008e FD       		.byte	253
 1382 008f A9       		.byte	169
 1383 0090 FE       		.byte	254
 1384 0091 70       		.byte	112
 1385 0092 FF       		.byte	255
 1386 0093 16       		.byte	22
 1387 0094 FF       		.byte	255
 1388 0095 9C       		.byte	156
ARM GAS  /var/folders/0z/tsy30v1j4xl4_7kw94k978ww0000gn/T//cc7lPTAE.s 			page 45


 1389 0096 FB       		.byte	251
 1390 0097 88       		.byte	136
 1391 0098 FC       		.byte	252
 1392 0099 4C       		.byte	76
 1393 009a FD       		.byte	253
 1394 009b 52       		.byte	82
 1395 009c FE       		.byte	254
 1396 009d 77       		.byte	119
 1397 009e FF       		.byte	255
 1398 009f 5C       		.byte	92
 1399 00a0 8B       		.byte	139
 1400 00a1 6C       		.byte	108
 1401 00a2 A4       		.byte	164
 1402 00a3 4F       		.byte	79
 1403 00a4 BD       		.byte	189
 1404 00a5 54       		.byte	84
 1405 00a6 D6       		.byte	214
 1406 00a7 79       		.byte	121
 1407 00a8 EF       		.byte	239
 1408 00a9 5D       		.byte	93
 1409 00aa 7C       		.byte	124
 1410 00ab 93       		.byte	147
 1411 00ac 95       		.byte	149
 1412 00ad 35       		.byte	53
 1413 00ae B5       		.byte	181
 1414 00af F8       		.byte	248
 1415 00b0 CE       		.byte	206
 1416 00b1 DB       		.byte	219
 1417 00b2 EF       		.byte	239
 1418 00b3 7E       		.byte	126
 1419 00b4 BD       		.byte	189
 1420 00b5 F7       		.byte	247
 1421 00b6 E7       		.byte	231
 1422 00b7 1C       		.byte	28
 1423 00b8 EF       		.byte	239
 1424 00b9 7D       		.byte	125
 1425 00ba F7       		.byte	247
 1426 00bb BE       		.byte	190
 1427 00bc FF       		.byte	255
 1428 00bd DF       		.byte	223
 1429              		.section	.rodata.colors.2,"a"
 1430              		.align	2
 1431              		.set	.LANCHOR0,. + 0
 1434              	colors.2:
 1435 0000 F2       		.byte	242
 1436 0001 06       		.byte	6
 1437 0002 E8       		.byte	232
 1438 0003 EC       		.byte	236
 1439 0004 99       		.byte	153
 1440 0005 36       		.byte	54
 1441 0006 61       		.byte	97
 1442 0007 D6       		.byte	214
 1443 0008 3A       		.byte	58
 1444 0009 96       		.byte	150
 1445 000a 24       		.byte	36
 1446 000b BE       		.byte	190
 1447 000c 05       		.byte	5
ARM GAS  /var/folders/0z/tsy30v1j4xl4_7kw94k978ww0000gn/T//cc7lPTAE.s 			page 46


 1448 000d 5E       		.byte	94
 1449 000e 05       		.byte	5
 1450 000f FA       		.byte	250
 1451 0010 04       		.byte	4
 1452 0011 B1       		.byte	177
 1453 0012 4D       		.byte	77
 1454 0013 6A       		.byte	106
 1455 0014 8E       		.byte	142
 1456 0015 09       		.byte	9
 1457 0016 CE       		.byte	206
 1458 0017 E7       		.byte	231
 1459 0018 FF       		.byte	255
 1460 0019 47       		.byte	71
 1461 001a FE       		.byte	254
 1462 001b 00       		.byte	0
 1463 001c FC       		.byte	252
 1464 001d C0       		.byte	192
 1465 001e FA       		.byte	250
 1466 001f A4       		.byte	164
 1467 0020 7A       		.byte	122
 1468 0021 A9       		.byte	169
 1469 0022 63       		.byte	99
 1470 0023 F1       		.byte	241
 1471 0024 9C       		.byte	156
 1472 0025 F3       		.byte	243
 1473              		.text
 1474              	.Letext0:
 1475              		.file 3 "/Users/johannes/Library/Application Support/Code/User/globalStorage/bmd.stm32-for-vscode/
 1476              		.file 4 "/Users/johannes/Library/Application Support/Code/User/globalStorage/bmd.stm32-for-vscode/
ARM GAS  /var/folders/0z/tsy30v1j4xl4_7kw94k978ww0000gn/T//cc7lPTAE.s 			page 47


DEFINED SYMBOLS
                            *ABS*:0000000000000000 lv_color.c
/var/folders/0z/tsy30v1j4xl4_7kw94k978ww0000gn/T//cc7lPTAE.s:20     .text.lv_color_fill:0000000000000000 $t
/var/folders/0z/tsy30v1j4xl4_7kw94k978ww0000gn/T//cc7lPTAE.s:27     .text.lv_color_fill:0000000000000000 lv_color_fill
/var/folders/0z/tsy30v1j4xl4_7kw94k978ww0000gn/T//cc7lPTAE.s:142    .text.lv_color_lighten:0000000000000000 $t
/var/folders/0z/tsy30v1j4xl4_7kw94k978ww0000gn/T//cc7lPTAE.s:149    .text.lv_color_lighten:0000000000000000 lv_color_lighten
/var/folders/0z/tsy30v1j4xl4_7kw94k978ww0000gn/T//cc7lPTAE.s:214    .text.lv_color_lighten:0000000000000028 $d
/var/folders/0z/tsy30v1j4xl4_7kw94k978ww0000gn/T//cc7lPTAE.s:219    .text.lv_color_darken:0000000000000000 $t
/var/folders/0z/tsy30v1j4xl4_7kw94k978ww0000gn/T//cc7lPTAE.s:226    .text.lv_color_darken:0000000000000000 lv_color_darken
/var/folders/0z/tsy30v1j4xl4_7kw94k978ww0000gn/T//cc7lPTAE.s:289    .text.lv_color_darken:0000000000000024 $d
/var/folders/0z/tsy30v1j4xl4_7kw94k978ww0000gn/T//cc7lPTAE.s:294    .text.lv_color_change_lightness:0000000000000000 $t
/var/folders/0z/tsy30v1j4xl4_7kw94k978ww0000gn/T//cc7lPTAE.s:301    .text.lv_color_change_lightness:0000000000000000 lv_color_change_lightness
/var/folders/0z/tsy30v1j4xl4_7kw94k978ww0000gn/T//cc7lPTAE.s:344    .text.lv_color_hsv_to_rgb:0000000000000000 $t
/var/folders/0z/tsy30v1j4xl4_7kw94k978ww0000gn/T//cc7lPTAE.s:351    .text.lv_color_hsv_to_rgb:0000000000000000 lv_color_hsv_to_rgb
/var/folders/0z/tsy30v1j4xl4_7kw94k978ww0000gn/T//cc7lPTAE.s:459    .text.lv_color_hsv_to_rgb:0000000000000090 $d
/var/folders/0z/tsy30v1j4xl4_7kw94k978ww0000gn/T//cc7lPTAE.s:598    .text.lv_color_hsv_to_rgb:00000000000000f8 $d
/var/folders/0z/tsy30v1j4xl4_7kw94k978ww0000gn/T//cc7lPTAE.s:605    .text.lv_color_rgb_to_hsv:0000000000000000 $t
/var/folders/0z/tsy30v1j4xl4_7kw94k978ww0000gn/T//cc7lPTAE.s:612    .text.lv_color_rgb_to_hsv:0000000000000000 lv_color_rgb_to_hsv
/var/folders/0z/tsy30v1j4xl4_7kw94k978ww0000gn/T//cc7lPTAE.s:819    .text.lv_color_rgb_to_hsv:00000000000000d8 $d
/var/folders/0z/tsy30v1j4xl4_7kw94k978ww0000gn/T//cc7lPTAE.s:824    .text.lv_color_to_hsv:0000000000000000 $t
/var/folders/0z/tsy30v1j4xl4_7kw94k978ww0000gn/T//cc7lPTAE.s:831    .text.lv_color_to_hsv:0000000000000000 lv_color_to_hsv
/var/folders/0z/tsy30v1j4xl4_7kw94k978ww0000gn/T//cc7lPTAE.s:918    .text.lv_palette_main:0000000000000000 $t
/var/folders/0z/tsy30v1j4xl4_7kw94k978ww0000gn/T//cc7lPTAE.s:925    .text.lv_palette_main:0000000000000000 lv_palette_main
/var/folders/0z/tsy30v1j4xl4_7kw94k978ww0000gn/T//cc7lPTAE.s:954    .text.lv_palette_main:0000000000000010 $d
/var/folders/0z/tsy30v1j4xl4_7kw94k978ww0000gn/T//cc7lPTAE.s:959    .text.lv_palette_lighten:0000000000000000 $t
/var/folders/0z/tsy30v1j4xl4_7kw94k978ww0000gn/T//cc7lPTAE.s:966    .text.lv_palette_lighten:0000000000000000 lv_palette_lighten
/var/folders/0z/tsy30v1j4xl4_7kw94k978ww0000gn/T//cc7lPTAE.s:1013   .text.lv_palette_lighten:0000000000000020 $d
/var/folders/0z/tsy30v1j4xl4_7kw94k978ww0000gn/T//cc7lPTAE.s:1018   .text.lv_palette_darken:0000000000000000 $t
/var/folders/0z/tsy30v1j4xl4_7kw94k978ww0000gn/T//cc7lPTAE.s:1025   .text.lv_palette_darken:0000000000000000 lv_palette_darken
/var/folders/0z/tsy30v1j4xl4_7kw94k978ww0000gn/T//cc7lPTAE.s:1071   .text.lv_palette_darken:0000000000000020 $d
/var/folders/0z/tsy30v1j4xl4_7kw94k978ww0000gn/T//cc7lPTAE.s:1076   .rodata.colors.0:0000000000000000 $d
/var/folders/0z/tsy30v1j4xl4_7kw94k978ww0000gn/T//cc7lPTAE.s:1080   .rodata.colors.0:0000000000000000 colors.0
/var/folders/0z/tsy30v1j4xl4_7kw94k978ww0000gn/T//cc7lPTAE.s:1234   .rodata.colors.1:0000000000000000 $d
/var/folders/0z/tsy30v1j4xl4_7kw94k978ww0000gn/T//cc7lPTAE.s:1238   .rodata.colors.1:0000000000000000 colors.1
/var/folders/0z/tsy30v1j4xl4_7kw94k978ww0000gn/T//cc7lPTAE.s:1430   .rodata.colors.2:0000000000000000 $d
/var/folders/0z/tsy30v1j4xl4_7kw94k978ww0000gn/T//cc7lPTAE.s:1434   .rodata.colors.2:0000000000000000 colors.2
/var/folders/0z/tsy30v1j4xl4_7kw94k978ww0000gn/T//cc7lPTAE.s:464    .text.lv_color_hsv_to_rgb:0000000000000095 $d
/var/folders/0z/tsy30v1j4xl4_7kw94k978ww0000gn/T//cc7lPTAE.s:464    .text.lv_color_hsv_to_rgb:0000000000000096 $t

NO UNDEFINED SYMBOLS
