ARM GAS  /var/folders/lp/x54gwt890xv47sdkqj1k04q40000gn/T//ccqoIkMQ.s 			page 1


   1              		.cpu cortex-m4
   2              		.arch armv7e-m
   3              		.fpu fpv4-sp-d16
   4              		.eabi_attribute 27, 1
   5              		.eabi_attribute 28, 1
   6              		.eabi_attribute 20, 1
   7              		.eabi_attribute 21, 1
   8              		.eabi_attribute 23, 3
   9              		.eabi_attribute 24, 1
  10              		.eabi_attribute 25, 1
  11              		.eabi_attribute 26, 1
  12              		.eabi_attribute 30, 2
  13              		.eabi_attribute 34, 1
  14              		.eabi_attribute 18, 4
  15              		.file	"lv_calendar.c"
  16              		.text
  17              	.Ltext0:
  18              		.cfi_sections	.debug_frame
  19              		.file 1 "Drivers/lvgl/src/extra/widgets/calendar/lv_calendar.c"
  20              		.section	.text.get_month_length,"ax",%progbits
  21              		.align	1
  22              		.p2align 2,,3
  23              		.syntax unified
  24              		.thumb
  25              		.thumb_func
  27              	get_month_length:
  28              	.LVL0:
  29              	.LFB217:
   1:Drivers/lvgl/src/extra/widgets/calendar/lv_calendar.c **** /**
   2:Drivers/lvgl/src/extra/widgets/calendar/lv_calendar.c ****  * @file lv_calendar.c
   3:Drivers/lvgl/src/extra/widgets/calendar/lv_calendar.c ****  *
   4:Drivers/lvgl/src/extra/widgets/calendar/lv_calendar.c ****  */
   5:Drivers/lvgl/src/extra/widgets/calendar/lv_calendar.c **** 
   6:Drivers/lvgl/src/extra/widgets/calendar/lv_calendar.c **** /*********************
   7:Drivers/lvgl/src/extra/widgets/calendar/lv_calendar.c ****  *      INCLUDES
   8:Drivers/lvgl/src/extra/widgets/calendar/lv_calendar.c ****  *********************/
   9:Drivers/lvgl/src/extra/widgets/calendar/lv_calendar.c **** #include "lv_calendar.h"
  10:Drivers/lvgl/src/extra/widgets/calendar/lv_calendar.c **** #include "../../../lvgl.h"
  11:Drivers/lvgl/src/extra/widgets/calendar/lv_calendar.c **** #if LV_USE_CALENDAR
  12:Drivers/lvgl/src/extra/widgets/calendar/lv_calendar.c **** 
  13:Drivers/lvgl/src/extra/widgets/calendar/lv_calendar.c **** #include "../../../misc/lv_assert.h"
  14:Drivers/lvgl/src/extra/widgets/calendar/lv_calendar.c **** 
  15:Drivers/lvgl/src/extra/widgets/calendar/lv_calendar.c **** /*********************
  16:Drivers/lvgl/src/extra/widgets/calendar/lv_calendar.c ****  *      DEFINES
  17:Drivers/lvgl/src/extra/widgets/calendar/lv_calendar.c ****  *********************/
  18:Drivers/lvgl/src/extra/widgets/calendar/lv_calendar.c **** #define LV_CALENDAR_CTRL_TODAY      LV_BTNMATRIX_CTRL_CUSTOM_1
  19:Drivers/lvgl/src/extra/widgets/calendar/lv_calendar.c **** #define LV_CALENDAR_CTRL_HIGHLIGHT  LV_BTNMATRIX_CTRL_CUSTOM_2
  20:Drivers/lvgl/src/extra/widgets/calendar/lv_calendar.c **** 
  21:Drivers/lvgl/src/extra/widgets/calendar/lv_calendar.c **** #define MY_CLASS &lv_calendar_class
  22:Drivers/lvgl/src/extra/widgets/calendar/lv_calendar.c **** 
  23:Drivers/lvgl/src/extra/widgets/calendar/lv_calendar.c **** /**********************
  24:Drivers/lvgl/src/extra/widgets/calendar/lv_calendar.c ****  *      TYPEDEFS
  25:Drivers/lvgl/src/extra/widgets/calendar/lv_calendar.c ****  **********************/
  26:Drivers/lvgl/src/extra/widgets/calendar/lv_calendar.c **** 
  27:Drivers/lvgl/src/extra/widgets/calendar/lv_calendar.c **** /**********************
  28:Drivers/lvgl/src/extra/widgets/calendar/lv_calendar.c ****  *  STATIC PROTOTYPES
  29:Drivers/lvgl/src/extra/widgets/calendar/lv_calendar.c ****  **********************/
ARM GAS  /var/folders/lp/x54gwt890xv47sdkqj1k04q40000gn/T//ccqoIkMQ.s 			page 2


  30:Drivers/lvgl/src/extra/widgets/calendar/lv_calendar.c **** static void lv_calendar_constructor(const lv_obj_class_t * class_p, lv_obj_t * obj);
  31:Drivers/lvgl/src/extra/widgets/calendar/lv_calendar.c **** static void draw_part_begin_event_cb(lv_event_t * e);
  32:Drivers/lvgl/src/extra/widgets/calendar/lv_calendar.c **** 
  33:Drivers/lvgl/src/extra/widgets/calendar/lv_calendar.c **** static uint8_t get_day_of_week(uint32_t year, uint32_t month, uint32_t day);
  34:Drivers/lvgl/src/extra/widgets/calendar/lv_calendar.c **** static uint8_t get_month_length(int32_t year, int32_t month);
  35:Drivers/lvgl/src/extra/widgets/calendar/lv_calendar.c **** static uint8_t is_leap_year(uint32_t year);
  36:Drivers/lvgl/src/extra/widgets/calendar/lv_calendar.c **** static void highlight_update(lv_obj_t * calendar);
  37:Drivers/lvgl/src/extra/widgets/calendar/lv_calendar.c **** 
  38:Drivers/lvgl/src/extra/widgets/calendar/lv_calendar.c **** /**********************
  39:Drivers/lvgl/src/extra/widgets/calendar/lv_calendar.c ****  *  STATIC VARIABLES
  40:Drivers/lvgl/src/extra/widgets/calendar/lv_calendar.c ****  **********************/
  41:Drivers/lvgl/src/extra/widgets/calendar/lv_calendar.c **** const lv_obj_class_t lv_calendar_class = {
  42:Drivers/lvgl/src/extra/widgets/calendar/lv_calendar.c ****     .constructor_cb = lv_calendar_constructor,
  43:Drivers/lvgl/src/extra/widgets/calendar/lv_calendar.c ****     .width_def = (LV_DPI_DEF * 3) / 2,
  44:Drivers/lvgl/src/extra/widgets/calendar/lv_calendar.c ****     .height_def = (LV_DPI_DEF * 3) / 2,
  45:Drivers/lvgl/src/extra/widgets/calendar/lv_calendar.c ****     .group_def = LV_OBJ_CLASS_GROUP_DEF_TRUE,
  46:Drivers/lvgl/src/extra/widgets/calendar/lv_calendar.c ****     .instance_size = sizeof(lv_calendar_t),
  47:Drivers/lvgl/src/extra/widgets/calendar/lv_calendar.c ****     .base_class = &lv_obj_class
  48:Drivers/lvgl/src/extra/widgets/calendar/lv_calendar.c **** };
  49:Drivers/lvgl/src/extra/widgets/calendar/lv_calendar.c **** 
  50:Drivers/lvgl/src/extra/widgets/calendar/lv_calendar.c **** static const char * day_names_def[7] = LV_CALENDAR_DEFAULT_DAY_NAMES;
  51:Drivers/lvgl/src/extra/widgets/calendar/lv_calendar.c **** 
  52:Drivers/lvgl/src/extra/widgets/calendar/lv_calendar.c **** /**********************
  53:Drivers/lvgl/src/extra/widgets/calendar/lv_calendar.c ****  *      MACROS
  54:Drivers/lvgl/src/extra/widgets/calendar/lv_calendar.c ****  **********************/
  55:Drivers/lvgl/src/extra/widgets/calendar/lv_calendar.c **** 
  56:Drivers/lvgl/src/extra/widgets/calendar/lv_calendar.c **** /**********************
  57:Drivers/lvgl/src/extra/widgets/calendar/lv_calendar.c ****  *   GLOBAL FUNCTIONS
  58:Drivers/lvgl/src/extra/widgets/calendar/lv_calendar.c ****  **********************/
  59:Drivers/lvgl/src/extra/widgets/calendar/lv_calendar.c **** 
  60:Drivers/lvgl/src/extra/widgets/calendar/lv_calendar.c **** lv_obj_t * lv_calendar_create(lv_obj_t * parent)
  61:Drivers/lvgl/src/extra/widgets/calendar/lv_calendar.c **** {
  62:Drivers/lvgl/src/extra/widgets/calendar/lv_calendar.c ****     LV_LOG_INFO("begin");
  63:Drivers/lvgl/src/extra/widgets/calendar/lv_calendar.c ****     lv_obj_t * obj = lv_obj_class_create_obj(&lv_calendar_class, parent);
  64:Drivers/lvgl/src/extra/widgets/calendar/lv_calendar.c ****     lv_obj_class_init_obj(obj);
  65:Drivers/lvgl/src/extra/widgets/calendar/lv_calendar.c ****     return obj;
  66:Drivers/lvgl/src/extra/widgets/calendar/lv_calendar.c **** }
  67:Drivers/lvgl/src/extra/widgets/calendar/lv_calendar.c **** 
  68:Drivers/lvgl/src/extra/widgets/calendar/lv_calendar.c **** /*=====================
  69:Drivers/lvgl/src/extra/widgets/calendar/lv_calendar.c ****  * Setter functions
  70:Drivers/lvgl/src/extra/widgets/calendar/lv_calendar.c ****  *====================*/
  71:Drivers/lvgl/src/extra/widgets/calendar/lv_calendar.c **** 
  72:Drivers/lvgl/src/extra/widgets/calendar/lv_calendar.c **** void lv_calendar_set_day_names(lv_obj_t * obj, const char * day_names[])
  73:Drivers/lvgl/src/extra/widgets/calendar/lv_calendar.c **** {
  74:Drivers/lvgl/src/extra/widgets/calendar/lv_calendar.c ****     LV_ASSERT_OBJ(obj, MY_CLASS);
  75:Drivers/lvgl/src/extra/widgets/calendar/lv_calendar.c ****     lv_calendar_t * calendar = (lv_calendar_t *)obj;
  76:Drivers/lvgl/src/extra/widgets/calendar/lv_calendar.c **** 
  77:Drivers/lvgl/src/extra/widgets/calendar/lv_calendar.c ****     uint32_t i;
  78:Drivers/lvgl/src/extra/widgets/calendar/lv_calendar.c ****     for(i = 0; i < 7; i++) {
  79:Drivers/lvgl/src/extra/widgets/calendar/lv_calendar.c ****         calendar->map[i] = day_names[i];
  80:Drivers/lvgl/src/extra/widgets/calendar/lv_calendar.c ****     }
  81:Drivers/lvgl/src/extra/widgets/calendar/lv_calendar.c ****     lv_obj_invalidate(obj);
  82:Drivers/lvgl/src/extra/widgets/calendar/lv_calendar.c **** }
  83:Drivers/lvgl/src/extra/widgets/calendar/lv_calendar.c **** 
  84:Drivers/lvgl/src/extra/widgets/calendar/lv_calendar.c **** void lv_calendar_set_today_date(lv_obj_t * obj, uint32_t year, uint32_t month, uint32_t day)
  85:Drivers/lvgl/src/extra/widgets/calendar/lv_calendar.c **** {
  86:Drivers/lvgl/src/extra/widgets/calendar/lv_calendar.c ****     LV_ASSERT_OBJ(obj, MY_CLASS);
ARM GAS  /var/folders/lp/x54gwt890xv47sdkqj1k04q40000gn/T//ccqoIkMQ.s 			page 3


  87:Drivers/lvgl/src/extra/widgets/calendar/lv_calendar.c ****     lv_calendar_t * calendar = (lv_calendar_t *)obj;
  88:Drivers/lvgl/src/extra/widgets/calendar/lv_calendar.c **** 
  89:Drivers/lvgl/src/extra/widgets/calendar/lv_calendar.c ****     calendar->today.year         = year;
  90:Drivers/lvgl/src/extra/widgets/calendar/lv_calendar.c ****     calendar->today.month        = month;
  91:Drivers/lvgl/src/extra/widgets/calendar/lv_calendar.c ****     calendar->today.day          = day;
  92:Drivers/lvgl/src/extra/widgets/calendar/lv_calendar.c **** 
  93:Drivers/lvgl/src/extra/widgets/calendar/lv_calendar.c ****     highlight_update(obj);
  94:Drivers/lvgl/src/extra/widgets/calendar/lv_calendar.c **** }
  95:Drivers/lvgl/src/extra/widgets/calendar/lv_calendar.c **** 
  96:Drivers/lvgl/src/extra/widgets/calendar/lv_calendar.c **** void lv_calendar_set_highlighted_dates(lv_obj_t * obj, lv_calendar_date_t highlighted[], uint16_t d
  97:Drivers/lvgl/src/extra/widgets/calendar/lv_calendar.c **** {
  98:Drivers/lvgl/src/extra/widgets/calendar/lv_calendar.c ****     LV_ASSERT_NULL(highlighted);
  99:Drivers/lvgl/src/extra/widgets/calendar/lv_calendar.c **** 
 100:Drivers/lvgl/src/extra/widgets/calendar/lv_calendar.c ****     LV_ASSERT_OBJ(obj, MY_CLASS);
 101:Drivers/lvgl/src/extra/widgets/calendar/lv_calendar.c ****     lv_calendar_t * calendar = (lv_calendar_t *)obj;
 102:Drivers/lvgl/src/extra/widgets/calendar/lv_calendar.c **** 
 103:Drivers/lvgl/src/extra/widgets/calendar/lv_calendar.c ****     calendar->highlighted_dates     = highlighted;
 104:Drivers/lvgl/src/extra/widgets/calendar/lv_calendar.c ****     calendar->highlighted_dates_num = date_num;
 105:Drivers/lvgl/src/extra/widgets/calendar/lv_calendar.c **** 
 106:Drivers/lvgl/src/extra/widgets/calendar/lv_calendar.c ****     highlight_update(obj);
 107:Drivers/lvgl/src/extra/widgets/calendar/lv_calendar.c **** }
 108:Drivers/lvgl/src/extra/widgets/calendar/lv_calendar.c **** 
 109:Drivers/lvgl/src/extra/widgets/calendar/lv_calendar.c **** void lv_calendar_set_showed_date(lv_obj_t * obj, uint32_t year, uint32_t month)
 110:Drivers/lvgl/src/extra/widgets/calendar/lv_calendar.c **** {
 111:Drivers/lvgl/src/extra/widgets/calendar/lv_calendar.c ****     LV_ASSERT_OBJ(obj, MY_CLASS);
 112:Drivers/lvgl/src/extra/widgets/calendar/lv_calendar.c ****     lv_calendar_t * calendar = (lv_calendar_t *)obj;
 113:Drivers/lvgl/src/extra/widgets/calendar/lv_calendar.c **** 
 114:Drivers/lvgl/src/extra/widgets/calendar/lv_calendar.c ****     calendar->showed_date.year   = year;
 115:Drivers/lvgl/src/extra/widgets/calendar/lv_calendar.c ****     calendar->showed_date.month  = month;
 116:Drivers/lvgl/src/extra/widgets/calendar/lv_calendar.c ****     calendar->showed_date.day    = 1;
 117:Drivers/lvgl/src/extra/widgets/calendar/lv_calendar.c **** 
 118:Drivers/lvgl/src/extra/widgets/calendar/lv_calendar.c ****     lv_calendar_date_t d;
 119:Drivers/lvgl/src/extra/widgets/calendar/lv_calendar.c ****     d.year = calendar->showed_date.year;
 120:Drivers/lvgl/src/extra/widgets/calendar/lv_calendar.c ****     d.month = calendar->showed_date.month;
 121:Drivers/lvgl/src/extra/widgets/calendar/lv_calendar.c ****     d.day = calendar->showed_date.day;
 122:Drivers/lvgl/src/extra/widgets/calendar/lv_calendar.c **** 
 123:Drivers/lvgl/src/extra/widgets/calendar/lv_calendar.c ****     uint32_t i;
 124:Drivers/lvgl/src/extra/widgets/calendar/lv_calendar.c **** 
 125:Drivers/lvgl/src/extra/widgets/calendar/lv_calendar.c ****     /*Remove the disabled state but revert it for day names*/
 126:Drivers/lvgl/src/extra/widgets/calendar/lv_calendar.c ****     lv_btnmatrix_clear_btn_ctrl_all(calendar->btnm, LV_BTNMATRIX_CTRL_DISABLED);
 127:Drivers/lvgl/src/extra/widgets/calendar/lv_calendar.c ****     for(i = 0; i < 7; i++) {
 128:Drivers/lvgl/src/extra/widgets/calendar/lv_calendar.c ****         lv_btnmatrix_set_btn_ctrl(calendar->btnm, i, LV_BTNMATRIX_CTRL_DISABLED);
 129:Drivers/lvgl/src/extra/widgets/calendar/lv_calendar.c ****     }
 130:Drivers/lvgl/src/extra/widgets/calendar/lv_calendar.c **** 
 131:Drivers/lvgl/src/extra/widgets/calendar/lv_calendar.c ****     uint8_t act_mo_len = get_month_length(d.year, d.month);
 132:Drivers/lvgl/src/extra/widgets/calendar/lv_calendar.c ****     uint8_t day_first = get_day_of_week(d.year, d.month, 1);
 133:Drivers/lvgl/src/extra/widgets/calendar/lv_calendar.c ****     uint8_t c;
 134:Drivers/lvgl/src/extra/widgets/calendar/lv_calendar.c ****     for(i = day_first, c = 1; i < act_mo_len + day_first; i++, c++) {
 135:Drivers/lvgl/src/extra/widgets/calendar/lv_calendar.c ****         lv_snprintf(calendar->nums[i], sizeof(calendar->nums[0]), "%d", c);
 136:Drivers/lvgl/src/extra/widgets/calendar/lv_calendar.c ****     }
 137:Drivers/lvgl/src/extra/widgets/calendar/lv_calendar.c **** 
 138:Drivers/lvgl/src/extra/widgets/calendar/lv_calendar.c ****     uint8_t prev_mo_len = get_month_length(d.year, d.month - 1);
 139:Drivers/lvgl/src/extra/widgets/calendar/lv_calendar.c ****     for(i = 0, c = prev_mo_len - day_first + 1; i < day_first; i++, c++) {
 140:Drivers/lvgl/src/extra/widgets/calendar/lv_calendar.c ****         lv_snprintf(calendar->nums[i], sizeof(calendar->nums[0]), "%d", c);
 141:Drivers/lvgl/src/extra/widgets/calendar/lv_calendar.c ****         lv_btnmatrix_set_btn_ctrl(calendar->btnm, i + 7, LV_BTNMATRIX_CTRL_DISABLED);
 142:Drivers/lvgl/src/extra/widgets/calendar/lv_calendar.c ****     }
 143:Drivers/lvgl/src/extra/widgets/calendar/lv_calendar.c **** 
ARM GAS  /var/folders/lp/x54gwt890xv47sdkqj1k04q40000gn/T//ccqoIkMQ.s 			page 4


 144:Drivers/lvgl/src/extra/widgets/calendar/lv_calendar.c ****     for(i = day_first + act_mo_len, c = 1; i < 6 * 7; i++, c++) {
 145:Drivers/lvgl/src/extra/widgets/calendar/lv_calendar.c ****         lv_snprintf(calendar->nums[i], sizeof(calendar->nums[0]), "%d", c);
 146:Drivers/lvgl/src/extra/widgets/calendar/lv_calendar.c ****         lv_btnmatrix_set_btn_ctrl(calendar->btnm, i + 7, LV_BTNMATRIX_CTRL_DISABLED);
 147:Drivers/lvgl/src/extra/widgets/calendar/lv_calendar.c ****     }
 148:Drivers/lvgl/src/extra/widgets/calendar/lv_calendar.c **** 
 149:Drivers/lvgl/src/extra/widgets/calendar/lv_calendar.c ****     highlight_update(obj);
 150:Drivers/lvgl/src/extra/widgets/calendar/lv_calendar.c **** 
 151:Drivers/lvgl/src/extra/widgets/calendar/lv_calendar.c ****     /*Reset the focused button if the days changes*/
 152:Drivers/lvgl/src/extra/widgets/calendar/lv_calendar.c ****     if(lv_btnmatrix_get_selected_btn(calendar->btnm) != LV_BTNMATRIX_BTN_NONE) {
 153:Drivers/lvgl/src/extra/widgets/calendar/lv_calendar.c ****         lv_btnmatrix_set_selected_btn(calendar->btnm, day_first + 7);
 154:Drivers/lvgl/src/extra/widgets/calendar/lv_calendar.c ****     }
 155:Drivers/lvgl/src/extra/widgets/calendar/lv_calendar.c **** 
 156:Drivers/lvgl/src/extra/widgets/calendar/lv_calendar.c ****     lv_obj_invalidate(obj);
 157:Drivers/lvgl/src/extra/widgets/calendar/lv_calendar.c **** 
 158:Drivers/lvgl/src/extra/widgets/calendar/lv_calendar.c ****     /* The children of the calendar are probably headers.
 159:Drivers/lvgl/src/extra/widgets/calendar/lv_calendar.c ****      * Notify them to let the headers updated to the new date*/
 160:Drivers/lvgl/src/extra/widgets/calendar/lv_calendar.c ****     uint32_t child_cnt = lv_obj_get_child_cnt(obj);
 161:Drivers/lvgl/src/extra/widgets/calendar/lv_calendar.c ****     for(i = 0; i < child_cnt; i++) {
 162:Drivers/lvgl/src/extra/widgets/calendar/lv_calendar.c ****         lv_obj_t * child = lv_obj_get_child(obj, i);
 163:Drivers/lvgl/src/extra/widgets/calendar/lv_calendar.c ****         if(child == calendar->btnm) continue;
 164:Drivers/lvgl/src/extra/widgets/calendar/lv_calendar.c ****         lv_event_send(child, LV_EVENT_VALUE_CHANGED, obj);
 165:Drivers/lvgl/src/extra/widgets/calendar/lv_calendar.c ****     }
 166:Drivers/lvgl/src/extra/widgets/calendar/lv_calendar.c **** }
 167:Drivers/lvgl/src/extra/widgets/calendar/lv_calendar.c **** 
 168:Drivers/lvgl/src/extra/widgets/calendar/lv_calendar.c **** /*=====================
 169:Drivers/lvgl/src/extra/widgets/calendar/lv_calendar.c ****  * Getter functions
 170:Drivers/lvgl/src/extra/widgets/calendar/lv_calendar.c ****  *====================*/
 171:Drivers/lvgl/src/extra/widgets/calendar/lv_calendar.c **** 
 172:Drivers/lvgl/src/extra/widgets/calendar/lv_calendar.c **** lv_obj_t * lv_calendar_get_btnmatrix(const lv_obj_t * obj)
 173:Drivers/lvgl/src/extra/widgets/calendar/lv_calendar.c **** {
 174:Drivers/lvgl/src/extra/widgets/calendar/lv_calendar.c ****     LV_ASSERT_OBJ(obj, MY_CLASS);
 175:Drivers/lvgl/src/extra/widgets/calendar/lv_calendar.c ****     const lv_calendar_t * calendar = (lv_calendar_t *)obj;
 176:Drivers/lvgl/src/extra/widgets/calendar/lv_calendar.c ****     return calendar->btnm;
 177:Drivers/lvgl/src/extra/widgets/calendar/lv_calendar.c **** }
 178:Drivers/lvgl/src/extra/widgets/calendar/lv_calendar.c **** 
 179:Drivers/lvgl/src/extra/widgets/calendar/lv_calendar.c **** const lv_calendar_date_t * lv_calendar_get_today_date(const lv_obj_t * obj)
 180:Drivers/lvgl/src/extra/widgets/calendar/lv_calendar.c **** {
 181:Drivers/lvgl/src/extra/widgets/calendar/lv_calendar.c ****     LV_ASSERT_OBJ(obj, MY_CLASS);
 182:Drivers/lvgl/src/extra/widgets/calendar/lv_calendar.c ****     const lv_calendar_t * calendar = (lv_calendar_t *)obj;
 183:Drivers/lvgl/src/extra/widgets/calendar/lv_calendar.c **** 
 184:Drivers/lvgl/src/extra/widgets/calendar/lv_calendar.c ****     return &calendar->today;
 185:Drivers/lvgl/src/extra/widgets/calendar/lv_calendar.c **** }
 186:Drivers/lvgl/src/extra/widgets/calendar/lv_calendar.c **** 
 187:Drivers/lvgl/src/extra/widgets/calendar/lv_calendar.c **** const lv_calendar_date_t * lv_calendar_get_showed_date(const lv_obj_t * obj)
 188:Drivers/lvgl/src/extra/widgets/calendar/lv_calendar.c **** {
 189:Drivers/lvgl/src/extra/widgets/calendar/lv_calendar.c ****     LV_ASSERT_OBJ(obj, MY_CLASS);
 190:Drivers/lvgl/src/extra/widgets/calendar/lv_calendar.c ****     const lv_calendar_t * calendar = (lv_calendar_t *)obj;
 191:Drivers/lvgl/src/extra/widgets/calendar/lv_calendar.c **** 
 192:Drivers/lvgl/src/extra/widgets/calendar/lv_calendar.c ****     return &calendar->showed_date;
 193:Drivers/lvgl/src/extra/widgets/calendar/lv_calendar.c **** }
 194:Drivers/lvgl/src/extra/widgets/calendar/lv_calendar.c **** 
 195:Drivers/lvgl/src/extra/widgets/calendar/lv_calendar.c **** lv_calendar_date_t * lv_calendar_get_highlighted_dates(const lv_obj_t * obj)
 196:Drivers/lvgl/src/extra/widgets/calendar/lv_calendar.c **** {
 197:Drivers/lvgl/src/extra/widgets/calendar/lv_calendar.c ****     LV_ASSERT_OBJ(obj, MY_CLASS);
 198:Drivers/lvgl/src/extra/widgets/calendar/lv_calendar.c ****     lv_calendar_t * calendar = (lv_calendar_t *)obj;
 199:Drivers/lvgl/src/extra/widgets/calendar/lv_calendar.c **** 
 200:Drivers/lvgl/src/extra/widgets/calendar/lv_calendar.c ****     return calendar->highlighted_dates;
ARM GAS  /var/folders/lp/x54gwt890xv47sdkqj1k04q40000gn/T//ccqoIkMQ.s 			page 5


 201:Drivers/lvgl/src/extra/widgets/calendar/lv_calendar.c **** }
 202:Drivers/lvgl/src/extra/widgets/calendar/lv_calendar.c **** 
 203:Drivers/lvgl/src/extra/widgets/calendar/lv_calendar.c **** uint16_t lv_calendar_get_highlighted_dates_num(const lv_obj_t * obj)
 204:Drivers/lvgl/src/extra/widgets/calendar/lv_calendar.c **** {
 205:Drivers/lvgl/src/extra/widgets/calendar/lv_calendar.c ****     LV_ASSERT_OBJ(obj, MY_CLASS);
 206:Drivers/lvgl/src/extra/widgets/calendar/lv_calendar.c ****     lv_calendar_t * calendar = (lv_calendar_t *)obj;
 207:Drivers/lvgl/src/extra/widgets/calendar/lv_calendar.c **** 
 208:Drivers/lvgl/src/extra/widgets/calendar/lv_calendar.c ****     return calendar->highlighted_dates_num;
 209:Drivers/lvgl/src/extra/widgets/calendar/lv_calendar.c **** }
 210:Drivers/lvgl/src/extra/widgets/calendar/lv_calendar.c **** 
 211:Drivers/lvgl/src/extra/widgets/calendar/lv_calendar.c **** lv_res_t lv_calendar_get_pressed_date(const lv_obj_t * obj, lv_calendar_date_t * date)
 212:Drivers/lvgl/src/extra/widgets/calendar/lv_calendar.c **** {
 213:Drivers/lvgl/src/extra/widgets/calendar/lv_calendar.c ****     LV_ASSERT_OBJ(obj, MY_CLASS);
 214:Drivers/lvgl/src/extra/widgets/calendar/lv_calendar.c ****     lv_calendar_t * calendar = (lv_calendar_t *)obj;
 215:Drivers/lvgl/src/extra/widgets/calendar/lv_calendar.c **** 
 216:Drivers/lvgl/src/extra/widgets/calendar/lv_calendar.c ****     uint16_t d = lv_btnmatrix_get_selected_btn(calendar->btnm);
 217:Drivers/lvgl/src/extra/widgets/calendar/lv_calendar.c ****     if(d == LV_BTNMATRIX_BTN_NONE) {
 218:Drivers/lvgl/src/extra/widgets/calendar/lv_calendar.c ****         date->year = 0;
 219:Drivers/lvgl/src/extra/widgets/calendar/lv_calendar.c ****         date->month = 0;
 220:Drivers/lvgl/src/extra/widgets/calendar/lv_calendar.c ****         date->day = 0;
 221:Drivers/lvgl/src/extra/widgets/calendar/lv_calendar.c ****         return LV_RES_INV;
 222:Drivers/lvgl/src/extra/widgets/calendar/lv_calendar.c ****     }
 223:Drivers/lvgl/src/extra/widgets/calendar/lv_calendar.c **** 
 224:Drivers/lvgl/src/extra/widgets/calendar/lv_calendar.c ****     const char * txt = lv_btnmatrix_get_btn_text(calendar->btnm, lv_btnmatrix_get_selected_btn(cale
 225:Drivers/lvgl/src/extra/widgets/calendar/lv_calendar.c **** 
 226:Drivers/lvgl/src/extra/widgets/calendar/lv_calendar.c ****     if(txt[1] == 0) date->day = txt[0] - '0';
 227:Drivers/lvgl/src/extra/widgets/calendar/lv_calendar.c ****     else date->day = (txt[0] - '0') * 10 + (txt[1] - '0');
 228:Drivers/lvgl/src/extra/widgets/calendar/lv_calendar.c **** 
 229:Drivers/lvgl/src/extra/widgets/calendar/lv_calendar.c ****     date->year = calendar->showed_date.year;
 230:Drivers/lvgl/src/extra/widgets/calendar/lv_calendar.c ****     date->month = calendar->showed_date.month;
 231:Drivers/lvgl/src/extra/widgets/calendar/lv_calendar.c **** 
 232:Drivers/lvgl/src/extra/widgets/calendar/lv_calendar.c ****     return LV_RES_OK;
 233:Drivers/lvgl/src/extra/widgets/calendar/lv_calendar.c **** }
 234:Drivers/lvgl/src/extra/widgets/calendar/lv_calendar.c **** 
 235:Drivers/lvgl/src/extra/widgets/calendar/lv_calendar.c **** 
 236:Drivers/lvgl/src/extra/widgets/calendar/lv_calendar.c **** /**********************
 237:Drivers/lvgl/src/extra/widgets/calendar/lv_calendar.c ****  *  STATIC FUNCTIONS
 238:Drivers/lvgl/src/extra/widgets/calendar/lv_calendar.c ****  **********************/
 239:Drivers/lvgl/src/extra/widgets/calendar/lv_calendar.c **** 
 240:Drivers/lvgl/src/extra/widgets/calendar/lv_calendar.c **** static void lv_calendar_constructor(const lv_obj_class_t * class_p, lv_obj_t * obj)
 241:Drivers/lvgl/src/extra/widgets/calendar/lv_calendar.c **** {
 242:Drivers/lvgl/src/extra/widgets/calendar/lv_calendar.c ****     LV_UNUSED(class_p);
 243:Drivers/lvgl/src/extra/widgets/calendar/lv_calendar.c ****     lv_calendar_t * calendar = (lv_calendar_t *)obj;
 244:Drivers/lvgl/src/extra/widgets/calendar/lv_calendar.c **** 
 245:Drivers/lvgl/src/extra/widgets/calendar/lv_calendar.c ****     /*Initialize the allocated 'ext'*/
 246:Drivers/lvgl/src/extra/widgets/calendar/lv_calendar.c ****     calendar->today.year  = 2020;
 247:Drivers/lvgl/src/extra/widgets/calendar/lv_calendar.c ****     calendar->today.month = 1;
 248:Drivers/lvgl/src/extra/widgets/calendar/lv_calendar.c ****     calendar->today.day   = 1;
 249:Drivers/lvgl/src/extra/widgets/calendar/lv_calendar.c **** 
 250:Drivers/lvgl/src/extra/widgets/calendar/lv_calendar.c ****     calendar->showed_date.year  = 2020;
 251:Drivers/lvgl/src/extra/widgets/calendar/lv_calendar.c ****     calendar->showed_date.month = 1;
 252:Drivers/lvgl/src/extra/widgets/calendar/lv_calendar.c ****     calendar->showed_date.day   = 1;
 253:Drivers/lvgl/src/extra/widgets/calendar/lv_calendar.c **** 
 254:Drivers/lvgl/src/extra/widgets/calendar/lv_calendar.c ****     calendar->highlighted_dates      = NULL;
 255:Drivers/lvgl/src/extra/widgets/calendar/lv_calendar.c ****     calendar->highlighted_dates_num  = 0;
 256:Drivers/lvgl/src/extra/widgets/calendar/lv_calendar.c **** 
 257:Drivers/lvgl/src/extra/widgets/calendar/lv_calendar.c ****     lv_memset_00(calendar->nums, sizeof(calendar->nums));
ARM GAS  /var/folders/lp/x54gwt890xv47sdkqj1k04q40000gn/T//ccqoIkMQ.s 			page 6


 258:Drivers/lvgl/src/extra/widgets/calendar/lv_calendar.c ****     uint8_t i;
 259:Drivers/lvgl/src/extra/widgets/calendar/lv_calendar.c ****     uint8_t j = 0;
 260:Drivers/lvgl/src/extra/widgets/calendar/lv_calendar.c ****     for(i = 0; i < 8 * 7; i++) {
 261:Drivers/lvgl/src/extra/widgets/calendar/lv_calendar.c ****         /*Every 8th string is "\n"*/
 262:Drivers/lvgl/src/extra/widgets/calendar/lv_calendar.c ****         if(i != 0 && (i + 1) % 8 == 0) {
 263:Drivers/lvgl/src/extra/widgets/calendar/lv_calendar.c ****             calendar->map[i] = "\n";
 264:Drivers/lvgl/src/extra/widgets/calendar/lv_calendar.c ****         }
 265:Drivers/lvgl/src/extra/widgets/calendar/lv_calendar.c ****         else if(i < 7) {
 266:Drivers/lvgl/src/extra/widgets/calendar/lv_calendar.c ****             calendar->map[i] = day_names_def[i];
 267:Drivers/lvgl/src/extra/widgets/calendar/lv_calendar.c ****         }
 268:Drivers/lvgl/src/extra/widgets/calendar/lv_calendar.c ****         else {
 269:Drivers/lvgl/src/extra/widgets/calendar/lv_calendar.c ****             calendar->nums[j][0] = 'x';
 270:Drivers/lvgl/src/extra/widgets/calendar/lv_calendar.c ****             calendar->map[i] = calendar->nums[j];
 271:Drivers/lvgl/src/extra/widgets/calendar/lv_calendar.c ****             j++;
 272:Drivers/lvgl/src/extra/widgets/calendar/lv_calendar.c ****         }
 273:Drivers/lvgl/src/extra/widgets/calendar/lv_calendar.c ****     }
 274:Drivers/lvgl/src/extra/widgets/calendar/lv_calendar.c ****     calendar->map[8 * 7 - 1] = "";
 275:Drivers/lvgl/src/extra/widgets/calendar/lv_calendar.c **** 
 276:Drivers/lvgl/src/extra/widgets/calendar/lv_calendar.c ****     calendar->btnm = lv_btnmatrix_create(obj);
 277:Drivers/lvgl/src/extra/widgets/calendar/lv_calendar.c ****     lv_btnmatrix_set_map(calendar->btnm, calendar->map);
 278:Drivers/lvgl/src/extra/widgets/calendar/lv_calendar.c ****     lv_btnmatrix_set_btn_ctrl_all(calendar->btnm, LV_BTNMATRIX_CTRL_CLICK_TRIG | LV_BTNMATRIX_CTRL_
 279:Drivers/lvgl/src/extra/widgets/calendar/lv_calendar.c ****     lv_obj_add_event_cb(calendar->btnm, draw_part_begin_event_cb, LV_EVENT_DRAW_PART_BEGIN, NULL);
 280:Drivers/lvgl/src/extra/widgets/calendar/lv_calendar.c ****     lv_obj_set_width(calendar->btnm, lv_pct(100));
 281:Drivers/lvgl/src/extra/widgets/calendar/lv_calendar.c **** 
 282:Drivers/lvgl/src/extra/widgets/calendar/lv_calendar.c ****     lv_obj_set_flex_flow(obj, LV_FLEX_FLOW_COLUMN);
 283:Drivers/lvgl/src/extra/widgets/calendar/lv_calendar.c ****     lv_obj_set_flex_grow(calendar->btnm, 1);
 284:Drivers/lvgl/src/extra/widgets/calendar/lv_calendar.c **** 
 285:Drivers/lvgl/src/extra/widgets/calendar/lv_calendar.c ****     lv_calendar_set_showed_date(obj, calendar->showed_date.year, calendar->showed_date.month);
 286:Drivers/lvgl/src/extra/widgets/calendar/lv_calendar.c ****     lv_calendar_set_today_date(obj, calendar->today.year, calendar->today.month, calendar->today.da
 287:Drivers/lvgl/src/extra/widgets/calendar/lv_calendar.c **** 
 288:Drivers/lvgl/src/extra/widgets/calendar/lv_calendar.c ****     lv_obj_add_flag(calendar->btnm, LV_OBJ_FLAG_EVENT_BUBBLE);
 289:Drivers/lvgl/src/extra/widgets/calendar/lv_calendar.c **** }
 290:Drivers/lvgl/src/extra/widgets/calendar/lv_calendar.c **** 
 291:Drivers/lvgl/src/extra/widgets/calendar/lv_calendar.c **** static void draw_part_begin_event_cb(lv_event_t * e)
 292:Drivers/lvgl/src/extra/widgets/calendar/lv_calendar.c **** {
 293:Drivers/lvgl/src/extra/widgets/calendar/lv_calendar.c ****     lv_obj_t * obj = lv_event_get_target(e);
 294:Drivers/lvgl/src/extra/widgets/calendar/lv_calendar.c ****     lv_obj_draw_part_dsc_t * dsc = lv_event_get_param(e);
 295:Drivers/lvgl/src/extra/widgets/calendar/lv_calendar.c ****     if(dsc->part == LV_PART_ITEMS) {
 296:Drivers/lvgl/src/extra/widgets/calendar/lv_calendar.c ****         /*Day name styles*/
 297:Drivers/lvgl/src/extra/widgets/calendar/lv_calendar.c ****         if(dsc->id < 7) {
 298:Drivers/lvgl/src/extra/widgets/calendar/lv_calendar.c ****             dsc->rect_dsc->bg_opa = LV_OPA_TRANSP;
 299:Drivers/lvgl/src/extra/widgets/calendar/lv_calendar.c ****             dsc->rect_dsc->border_opa = LV_OPA_TRANSP;
 300:Drivers/lvgl/src/extra/widgets/calendar/lv_calendar.c ****         }
 301:Drivers/lvgl/src/extra/widgets/calendar/lv_calendar.c ****         else if(lv_btnmatrix_has_btn_ctrl(obj, dsc->id, LV_BTNMATRIX_CTRL_DISABLED)) {
 302:Drivers/lvgl/src/extra/widgets/calendar/lv_calendar.c ****             dsc->rect_dsc->bg_opa = LV_OPA_TRANSP;
 303:Drivers/lvgl/src/extra/widgets/calendar/lv_calendar.c ****             dsc->rect_dsc->border_opa = LV_OPA_TRANSP;
 304:Drivers/lvgl/src/extra/widgets/calendar/lv_calendar.c ****             dsc->label_dsc->color = lv_palette_main(LV_PALETTE_GREY);
 305:Drivers/lvgl/src/extra/widgets/calendar/lv_calendar.c ****         }
 306:Drivers/lvgl/src/extra/widgets/calendar/lv_calendar.c **** 
 307:Drivers/lvgl/src/extra/widgets/calendar/lv_calendar.c ****         if(lv_btnmatrix_has_btn_ctrl(obj, dsc->id, LV_CALENDAR_CTRL_HIGHLIGHT)) {
 308:Drivers/lvgl/src/extra/widgets/calendar/lv_calendar.c ****             dsc->rect_dsc->bg_opa = LV_OPA_40;
 309:Drivers/lvgl/src/extra/widgets/calendar/lv_calendar.c ****             dsc->rect_dsc->bg_color = lv_theme_get_color_primary(obj);
 310:Drivers/lvgl/src/extra/widgets/calendar/lv_calendar.c ****             if(lv_btnmatrix_get_selected_btn(obj) == dsc->id) {
 311:Drivers/lvgl/src/extra/widgets/calendar/lv_calendar.c ****                 dsc->rect_dsc->bg_opa = LV_OPA_70;
 312:Drivers/lvgl/src/extra/widgets/calendar/lv_calendar.c ****             }
 313:Drivers/lvgl/src/extra/widgets/calendar/lv_calendar.c ****         }
 314:Drivers/lvgl/src/extra/widgets/calendar/lv_calendar.c **** 
ARM GAS  /var/folders/lp/x54gwt890xv47sdkqj1k04q40000gn/T//ccqoIkMQ.s 			page 7


 315:Drivers/lvgl/src/extra/widgets/calendar/lv_calendar.c ****         if(lv_btnmatrix_has_btn_ctrl(obj, dsc->id, LV_CALENDAR_CTRL_TODAY)) {
 316:Drivers/lvgl/src/extra/widgets/calendar/lv_calendar.c ****             dsc->rect_dsc->border_opa = LV_OPA_COVER;
 317:Drivers/lvgl/src/extra/widgets/calendar/lv_calendar.c ****             dsc->rect_dsc->border_color = lv_theme_get_color_primary(obj);
 318:Drivers/lvgl/src/extra/widgets/calendar/lv_calendar.c ****             dsc->rect_dsc->border_width += 1;
 319:Drivers/lvgl/src/extra/widgets/calendar/lv_calendar.c ****         }
 320:Drivers/lvgl/src/extra/widgets/calendar/lv_calendar.c **** 
 321:Drivers/lvgl/src/extra/widgets/calendar/lv_calendar.c ****     }
 322:Drivers/lvgl/src/extra/widgets/calendar/lv_calendar.c **** }
 323:Drivers/lvgl/src/extra/widgets/calendar/lv_calendar.c **** 
 324:Drivers/lvgl/src/extra/widgets/calendar/lv_calendar.c **** /**
 325:Drivers/lvgl/src/extra/widgets/calendar/lv_calendar.c ****  * Get the number of days in a month
 326:Drivers/lvgl/src/extra/widgets/calendar/lv_calendar.c ****  * @param year a year
 327:Drivers/lvgl/src/extra/widgets/calendar/lv_calendar.c ****  * @param month a month. The range is basically [1..12] but [-11..0] or [13..24] is also
 328:Drivers/lvgl/src/extra/widgets/calendar/lv_calendar.c ****  *              supported to handle next/prev. year
 329:Drivers/lvgl/src/extra/widgets/calendar/lv_calendar.c ****  * @return [28..31]
 330:Drivers/lvgl/src/extra/widgets/calendar/lv_calendar.c ****  */
 331:Drivers/lvgl/src/extra/widgets/calendar/lv_calendar.c **** static uint8_t get_month_length(int32_t year, int32_t month)
 332:Drivers/lvgl/src/extra/widgets/calendar/lv_calendar.c **** {
  30              		.loc 1 332 1 view -0
  31              		.cfi_startproc
  32              		@ args = 0, pretend = 0, frame = 0
  33              		@ frame_needed = 0, uses_anonymous_args = 0
  34              		@ link register save eliminated.
 333:Drivers/lvgl/src/extra/widgets/calendar/lv_calendar.c ****     month--;
  35              		.loc 1 333 5 view .LVU1
 334:Drivers/lvgl/src/extra/widgets/calendar/lv_calendar.c ****     if(month < 0) {
  36              		.loc 1 334 5 view .LVU2
  37              		.loc 1 334 7 is_stmt 0 view .LVU3
  38 0000 4B1E     		subs	r3, r1, #1
  39              	.LVL1:
  40              		.loc 1 334 7 view .LVU4
  41 0002 18D4     		bmi	.L10
 335:Drivers/lvgl/src/extra/widgets/calendar/lv_calendar.c ****         year--;             /*Already in the previous year (won't be less then -12 to skip a whole 
 336:Drivers/lvgl/src/extra/widgets/calendar/lv_calendar.c ****         month = 12 + month; /*`month` is negative, the result will be < 12*/
 337:Drivers/lvgl/src/extra/widgets/calendar/lv_calendar.c ****     }
 338:Drivers/lvgl/src/extra/widgets/calendar/lv_calendar.c ****     if(month >= 12) {
  42              		.loc 1 338 5 is_stmt 1 view .LVU5
  43              		.loc 1 338 7 is_stmt 0 view .LVU6
  44 0004 0B2B     		cmp	r3, #11
 339:Drivers/lvgl/src/extra/widgets/calendar/lv_calendar.c ****         year++;
  45              		.loc 1 339 9 is_stmt 1 view .LVU7
 340:Drivers/lvgl/src/extra/widgets/calendar/lv_calendar.c ****         month -= 12;
  46              		.loc 1 340 15 is_stmt 0 view .LVU8
  47 0006 C4BF     		itt	gt
  48 0008 A1F10D03 		subgt	r3, r1, #13
  49              	.LVL2:
 339:Drivers/lvgl/src/extra/widgets/calendar/lv_calendar.c ****         year++;
  50              		.loc 1 339 13 view .LVU9
  51 000c 0130     		addgt	r0, r0, #1
  52              	.LVL3:
  53              		.loc 1 340 9 is_stmt 1 view .LVU10
 341:Drivers/lvgl/src/extra/widgets/calendar/lv_calendar.c ****     }
 342:Drivers/lvgl/src/extra/widgets/calendar/lv_calendar.c **** 
 343:Drivers/lvgl/src/extra/widgets/calendar/lv_calendar.c ****     /*month == 1 is february*/
 344:Drivers/lvgl/src/extra/widgets/calendar/lv_calendar.c ****     return (month == 1) ? (28 + is_leap_year(year)) : 31 - month % 7 % 2;
  54              		.loc 1 344 5 view .LVU11
  55              		.loc 1 344 53 is_stmt 0 view .LVU12
ARM GAS  /var/folders/lp/x54gwt890xv47sdkqj1k04q40000gn/T//ccqoIkMQ.s 			page 8


  56 000e 012B     		cmp	r3, #1
  57 0010 17D0     		beq	.L11
  58              	.L4:
  59              		.loc 1 344 66 discriminator 2 view .LVU13
  60 0012 1649     		ldr	r1, .L12
  61 0014 81FB0301 		smull	r0, r1, r1, r3
  62              	.LVL4:
  63              		.loc 1 344 66 discriminator 2 view .LVU14
  64 0018 1944     		add	r1, r1, r3
  65 001a DA17     		asrs	r2, r3, #31
  66 001c C2EBA102 		rsb	r2, r2, r1, asr #2
  67 0020 C2EBC202 		rsb	r2, r2, r2, lsl #3
  68              		.loc 1 344 70 discriminator 2 view .LVU15
  69 0024 9B1A     		subs	r3, r3, r2
  70              	.LVL5:
  71              		.loc 1 344 70 discriminator 2 view .LVU16
  72 0026 03F00100 		and	r0, r3, #1
  73 002a 48BF     		it	mi
  74 002c 4042     		rsbmi	r0, r0, #0
  75              		.loc 1 344 53 discriminator 2 view .LVU17
  76 002e C0F11F00 		rsb	r0, r0, #31
  77 0032 C0B2     		uxtb	r0, r0
 345:Drivers/lvgl/src/extra/widgets/calendar/lv_calendar.c **** }
  78              		.loc 1 345 1 view .LVU18
  79 0034 7047     		bx	lr
  80              	.LVL6:
  81              	.L10:
 335:Drivers/lvgl/src/extra/widgets/calendar/lv_calendar.c ****         month = 12 + month; /*`month` is negative, the result will be < 12*/
  82              		.loc 1 335 9 is_stmt 1 view .LVU19
 336:Drivers/lvgl/src/extra/widgets/calendar/lv_calendar.c ****     }
  83              		.loc 1 336 15 is_stmt 0 view .LVU20
  84 0036 01F10B03 		add	r3, r1, #11
  85              	.LVL7:
 344:Drivers/lvgl/src/extra/widgets/calendar/lv_calendar.c **** }
  86              		.loc 1 344 53 view .LVU21
  87 003a 012B     		cmp	r3, #1
 335:Drivers/lvgl/src/extra/widgets/calendar/lv_calendar.c ****         month = 12 + month; /*`month` is negative, the result will be < 12*/
  88              		.loc 1 335 13 view .LVU22
  89 003c 00F1FF30 		add	r0, r0, #-1
  90              	.LVL8:
 336:Drivers/lvgl/src/extra/widgets/calendar/lv_calendar.c ****     }
  91              		.loc 1 336 9 is_stmt 1 view .LVU23
 338:Drivers/lvgl/src/extra/widgets/calendar/lv_calendar.c ****         year++;
  92              		.loc 1 338 5 view .LVU24
 344:Drivers/lvgl/src/extra/widgets/calendar/lv_calendar.c **** }
  93              		.loc 1 344 5 view .LVU25
 344:Drivers/lvgl/src/extra/widgets/calendar/lv_calendar.c **** }
  94              		.loc 1 344 53 is_stmt 0 view .LVU26
  95 0040 E7D1     		bne	.L4
  96              	.L11:
  97              	.LVL9:
  98              	.LBB8:
  99              	.LBI8:
 346:Drivers/lvgl/src/extra/widgets/calendar/lv_calendar.c **** 
 347:Drivers/lvgl/src/extra/widgets/calendar/lv_calendar.c **** /**
 348:Drivers/lvgl/src/extra/widgets/calendar/lv_calendar.c ****  * Tells whether a year is leap year or not
 349:Drivers/lvgl/src/extra/widgets/calendar/lv_calendar.c ****  * @param year a year
ARM GAS  /var/folders/lp/x54gwt890xv47sdkqj1k04q40000gn/T//ccqoIkMQ.s 			page 9


 350:Drivers/lvgl/src/extra/widgets/calendar/lv_calendar.c ****  * @return 0: not leap year; 1: leap year
 351:Drivers/lvgl/src/extra/widgets/calendar/lv_calendar.c ****  */
 352:Drivers/lvgl/src/extra/widgets/calendar/lv_calendar.c **** static uint8_t is_leap_year(uint32_t year)
 100              		.loc 1 352 16 is_stmt 1 view .LVU27
 101              	.LBB9:
 353:Drivers/lvgl/src/extra/widgets/calendar/lv_calendar.c **** {
 354:Drivers/lvgl/src/extra/widgets/calendar/lv_calendar.c ****     return (year % 4) || ((year % 100 == 0) && (year % 400)) ? 0 : 1;
 102              		.loc 1 354 5 view .LVU28
 103              		.loc 1 354 66 is_stmt 0 view .LVU29
 104 0042 8307     		lsls	r3, r0, #30
 105              	.LVL10:
 106              		.loc 1 354 66 view .LVU30
 107 0044 0ED1     		bne	.L7
 108              		.loc 1 354 66 view .LVU31
 109              	.LBE9:
 110              	.LBE8:
 344:Drivers/lvgl/src/extra/widgets/calendar/lv_calendar.c **** }
 111              		.loc 1 344 33 discriminator 1 view .LVU32
 112 0046 0A4A     		ldr	r2, .L12+4
 113              	.LBB13:
 114              	.LBB10:
 115              		.loc 1 354 66 discriminator 1 view .LVU33
 116 0048 0A4B     		ldr	r3, .L12+8
 117              	.LBE10:
 118              	.LBE13:
 344:Drivers/lvgl/src/extra/widgets/calendar/lv_calendar.c **** }
 119              		.loc 1 344 33 discriminator 1 view .LVU34
 120 004a 02FB00F0 		mul	r0, r2, r0
 121              	.LVL11:
 122              	.LBB14:
 123              	.LBB11:
 124              		.loc 1 354 66 discriminator 1 view .LVU35
 125 004e B3EBB00F 		cmp	r3, r0, ror #2
 126 0052 09D3     		bcc	.L8
 127              		.loc 1 354 45 discriminator 4 view .LVU36
 128 0054 084B     		ldr	r3, .L12+12
 129 0056 B3EB301F 		cmp	r3, r0, ror #4
 130 005a 2CBF     		ite	cs
 131 005c 0120     		movcs	r0, #1
 132 005e 0020     		movcc	r0, #0
 133              	.LBE11:
 134              	.LBE14:
 344:Drivers/lvgl/src/extra/widgets/calendar/lv_calendar.c **** }
 135              		.loc 1 344 53 discriminator 1 view .LVU37
 136 0060 1C30     		adds	r0, r0, #28
 137              	.LBB15:
 138              	.LBB12:
 139 0062 7047     		bx	lr
 140              	.LVL12:
 141              	.L7:
 344:Drivers/lvgl/src/extra/widgets/calendar/lv_calendar.c **** }
 142              		.loc 1 344 53 discriminator 1 view .LVU38
 143 0064 1C20     		movs	r0, #28
 144              	.LVL13:
 344:Drivers/lvgl/src/extra/widgets/calendar/lv_calendar.c **** }
 145              		.loc 1 344 53 discriminator 1 view .LVU39
 146 0066 7047     		bx	lr
ARM GAS  /var/folders/lp/x54gwt890xv47sdkqj1k04q40000gn/T//ccqoIkMQ.s 			page 10


 147              	.L8:
 148 0068 1D20     		movs	r0, #29
 149              	.LVL14:
 344:Drivers/lvgl/src/extra/widgets/calendar/lv_calendar.c **** }
 150              		.loc 1 344 53 discriminator 1 view .LVU40
 151 006a 7047     		bx	lr
 152              	.L13:
 153              		.align	2
 154              	.L12:
 155 006c 93244992 		.word	-1840700269
 156 0070 295C8FC2 		.word	-1030792151
 157 0074 285C8F02 		.word	42949672
 158 0078 0AD7A300 		.word	10737418
 159              	.LBE12:
 160              	.LBE15:
 161              		.cfi_endproc
 162              	.LFE217:
 164              		.section	.text.draw_part_begin_event_cb,"ax",%progbits
 165              		.align	1
 166              		.p2align 2,,3
 167              		.syntax unified
 168              		.thumb
 169              		.thumb_func
 171              	draw_part_begin_event_cb:
 172              	.LVL15:
 173              	.LFB216:
 292:Drivers/lvgl/src/extra/widgets/calendar/lv_calendar.c ****     lv_obj_t * obj = lv_event_get_target(e);
 174              		.loc 1 292 1 is_stmt 1 view -0
 175              		.cfi_startproc
 176              		@ args = 0, pretend = 0, frame = 0
 177              		@ frame_needed = 0, uses_anonymous_args = 0
 293:Drivers/lvgl/src/extra/widgets/calendar/lv_calendar.c ****     lv_obj_draw_part_dsc_t * dsc = lv_event_get_param(e);
 178              		.loc 1 293 5 view .LVU42
 292:Drivers/lvgl/src/extra/widgets/calendar/lv_calendar.c ****     lv_obj_t * obj = lv_event_get_target(e);
 179              		.loc 1 292 1 is_stmt 0 view .LVU43
 180 0000 70B5     		push	{r4, r5, r6, lr}
 181              		.cfi_def_cfa_offset 16
 182              		.cfi_offset 4, -16
 183              		.cfi_offset 5, -12
 184              		.cfi_offset 6, -8
 185              		.cfi_offset 14, -4
 292:Drivers/lvgl/src/extra/widgets/calendar/lv_calendar.c ****     lv_obj_t * obj = lv_event_get_target(e);
 186              		.loc 1 292 1 view .LVU44
 187 0002 0446     		mov	r4, r0
 293:Drivers/lvgl/src/extra/widgets/calendar/lv_calendar.c ****     lv_obj_draw_part_dsc_t * dsc = lv_event_get_param(e);
 188              		.loc 1 293 22 view .LVU45
 189 0004 FFF7FEFF 		bl	lv_event_get_target
 190              	.LVL16:
 293:Drivers/lvgl/src/extra/widgets/calendar/lv_calendar.c ****     lv_obj_draw_part_dsc_t * dsc = lv_event_get_param(e);
 191              		.loc 1 293 22 view .LVU46
 192 0008 0546     		mov	r5, r0
 193              	.LVL17:
 294:Drivers/lvgl/src/extra/widgets/calendar/lv_calendar.c ****     if(dsc->part == LV_PART_ITEMS) {
 194              		.loc 1 294 5 is_stmt 1 view .LVU47
 294:Drivers/lvgl/src/extra/widgets/calendar/lv_calendar.c ****     if(dsc->part == LV_PART_ITEMS) {
 195              		.loc 1 294 36 is_stmt 0 view .LVU48
 196 000a 2046     		mov	r0, r4
ARM GAS  /var/folders/lp/x54gwt890xv47sdkqj1k04q40000gn/T//ccqoIkMQ.s 			page 11


 197              	.LVL18:
 294:Drivers/lvgl/src/extra/widgets/calendar/lv_calendar.c ****     if(dsc->part == LV_PART_ITEMS) {
 198              		.loc 1 294 36 view .LVU49
 199 000c FFF7FEFF 		bl	lv_event_get_param
 200              	.LVL19:
 295:Drivers/lvgl/src/extra/widgets/calendar/lv_calendar.c ****         /*Day name styles*/
 201              		.loc 1 295 5 is_stmt 1 view .LVU50
 295:Drivers/lvgl/src/extra/widgets/calendar/lv_calendar.c ****         /*Day name styles*/
 202              		.loc 1 295 7 is_stmt 0 view .LVU51
 203 0010 436B     		ldr	r3, [r0, #52]
 204 0012 B3F5A02F 		cmp	r3, #327680
 205 0016 00D0     		beq	.L29
 206              	.LVL20:
 207              	.L14:
 322:Drivers/lvgl/src/extra/widgets/calendar/lv_calendar.c **** 
 208              		.loc 1 322 1 view .LVU52
 209 0018 70BD     		pop	{r4, r5, r6, pc}
 210              	.LVL21:
 211              	.L29:
 297:Drivers/lvgl/src/extra/widgets/calendar/lv_calendar.c ****             dsc->rect_dsc->bg_opa = LV_OPA_TRANSP;
 212              		.loc 1 297 15 view .LVU53
 213 001a 816B     		ldr	r1, [r0, #56]
 297:Drivers/lvgl/src/extra/widgets/calendar/lv_calendar.c ****             dsc->rect_dsc->bg_opa = LV_OPA_TRANSP;
 214              		.loc 1 297 11 view .LVU54
 215 001c 0629     		cmp	r1, #6
 216 001e 0446     		mov	r4, r0
 217              	.LVL22:
 297:Drivers/lvgl/src/extra/widgets/calendar/lv_calendar.c ****             dsc->rect_dsc->bg_opa = LV_OPA_TRANSP;
 218              		.loc 1 297 9 is_stmt 1 view .LVU55
 297:Drivers/lvgl/src/extra/widgets/calendar/lv_calendar.c ****             dsc->rect_dsc->bg_opa = LV_OPA_TRANSP;
 219              		.loc 1 297 11 is_stmt 0 view .LVU56
 220 0020 32D8     		bhi	.L17
 298:Drivers/lvgl/src/extra/widgets/calendar/lv_calendar.c ****             dsc->rect_dsc->border_opa = LV_OPA_TRANSP;
 221              		.loc 1 298 13 is_stmt 1 view .LVU57
 298:Drivers/lvgl/src/extra/widgets/calendar/lv_calendar.c ****             dsc->rect_dsc->border_opa = LV_OPA_TRANSP;
 222              		.loc 1 298 16 is_stmt 0 view .LVU58
 223 0022 0369     		ldr	r3, [r0, #16]
 298:Drivers/lvgl/src/extra/widgets/calendar/lv_calendar.c ****             dsc->rect_dsc->border_opa = LV_OPA_TRANSP;
 224              		.loc 1 298 35 view .LVU59
 225 0024 0022     		movs	r2, #0
 226 0026 DA70     		strb	r2, [r3, #3]
 299:Drivers/lvgl/src/extra/widgets/calendar/lv_calendar.c ****         }
 227              		.loc 1 299 13 is_stmt 1 view .LVU60
 299:Drivers/lvgl/src/extra/widgets/calendar/lv_calendar.c ****         }
 228              		.loc 1 299 39 is_stmt 0 view .LVU61
 229 0028 83F82220 		strb	r2, [r3, #34]
 230              	.LVL23:
 231              	.L18:
 307:Drivers/lvgl/src/extra/widgets/calendar/lv_calendar.c ****             dsc->rect_dsc->bg_opa = LV_OPA_40;
 232              		.loc 1 307 9 is_stmt 1 view .LVU62
 307:Drivers/lvgl/src/extra/widgets/calendar/lv_calendar.c ****             dsc->rect_dsc->bg_opa = LV_OPA_40;
 233              		.loc 1 307 12 is_stmt 0 view .LVU63
 234 002c 4FF40042 		mov	r2, #32768
 235 0030 89B2     		uxth	r1, r1
 236 0032 2846     		mov	r0, r5
 237 0034 FFF7FEFF 		bl	lv_btnmatrix_has_btn_ctrl
 238              	.LVL24:
ARM GAS  /var/folders/lp/x54gwt890xv47sdkqj1k04q40000gn/T//ccqoIkMQ.s 			page 12


 307:Drivers/lvgl/src/extra/widgets/calendar/lv_calendar.c ****             dsc->rect_dsc->bg_opa = LV_OPA_40;
 239              		.loc 1 307 11 discriminator 1 view .LVU64
 240 0038 A8B9     		cbnz	r0, .L20
 315:Drivers/lvgl/src/extra/widgets/calendar/lv_calendar.c ****             dsc->rect_dsc->border_opa = LV_OPA_COVER;
 241              		.loc 1 315 46 view .LVU65
 242 003a A16B     		ldr	r1, [r4, #56]
 243              	.L21:
 315:Drivers/lvgl/src/extra/widgets/calendar/lv_calendar.c ****             dsc->rect_dsc->border_opa = LV_OPA_COVER;
 244              		.loc 1 315 9 is_stmt 1 view .LVU66
 315:Drivers/lvgl/src/extra/widgets/calendar/lv_calendar.c ****             dsc->rect_dsc->border_opa = LV_OPA_COVER;
 245              		.loc 1 315 12 is_stmt 0 view .LVU67
 246 003c 4FF48042 		mov	r2, #16384
 247 0040 89B2     		uxth	r1, r1
 248 0042 2846     		mov	r0, r5
 249 0044 FFF7FEFF 		bl	lv_btnmatrix_has_btn_ctrl
 250              	.LVL25:
 315:Drivers/lvgl/src/extra/widgets/calendar/lv_calendar.c ****             dsc->rect_dsc->border_opa = LV_OPA_COVER;
 251              		.loc 1 315 11 discriminator 1 view .LVU68
 252 0048 0028     		cmp	r0, #0
 253 004a E5D0     		beq	.L14
 316:Drivers/lvgl/src/extra/widgets/calendar/lv_calendar.c ****             dsc->rect_dsc->border_color = lv_theme_get_color_primary(obj);
 254              		.loc 1 316 13 is_stmt 1 view .LVU69
 316:Drivers/lvgl/src/extra/widgets/calendar/lv_calendar.c ****             dsc->rect_dsc->border_color = lv_theme_get_color_primary(obj);
 255              		.loc 1 316 16 is_stmt 0 view .LVU70
 256 004c 2669     		ldr	r6, [r4, #16]
 316:Drivers/lvgl/src/extra/widgets/calendar/lv_calendar.c ****             dsc->rect_dsc->border_color = lv_theme_get_color_primary(obj);
 257              		.loc 1 316 39 view .LVU71
 258 004e FF23     		movs	r3, #255
 259 0050 86F82230 		strb	r3, [r6, #34]
 317:Drivers/lvgl/src/extra/widgets/calendar/lv_calendar.c ****             dsc->rect_dsc->border_width += 1;
 260              		.loc 1 317 13 is_stmt 1 view .LVU72
 317:Drivers/lvgl/src/extra/widgets/calendar/lv_calendar.c ****             dsc->rect_dsc->border_width += 1;
 261              		.loc 1 317 43 is_stmt 0 view .LVU73
 262 0054 2846     		mov	r0, r5
 263 0056 FFF7FEFF 		bl	lv_theme_get_color_primary
 264              	.LVL26:
 318:Drivers/lvgl/src/extra/widgets/calendar/lv_calendar.c ****         }
 265              		.loc 1 318 16 view .LVU74
 266 005a 2269     		ldr	r2, [r4, #16]
 317:Drivers/lvgl/src/extra/widgets/calendar/lv_calendar.c ****             dsc->rect_dsc->border_width += 1;
 267              		.loc 1 317 43 view .LVU75
 268 005c F083     		strh	r0, [r6, #30]	@ movhi
 318:Drivers/lvgl/src/extra/widgets/calendar/lv_calendar.c ****         }
 269              		.loc 1 318 13 is_stmt 1 view .LVU76
 318:Drivers/lvgl/src/extra/widgets/calendar/lv_calendar.c ****         }
 270              		.loc 1 318 41 is_stmt 0 view .LVU77
 271 005e 138C     		ldrh	r3, [r2, #32]
 272 0060 0133     		adds	r3, r3, #1
 273 0062 1384     		strh	r3, [r2, #32]	@ movhi
 322:Drivers/lvgl/src/extra/widgets/calendar/lv_calendar.c **** 
 274              		.loc 1 322 1 view .LVU78
 275 0064 70BD     		pop	{r4, r5, r6, pc}
 276              	.LVL27:
 277              	.L20:
 308:Drivers/lvgl/src/extra/widgets/calendar/lv_calendar.c ****             dsc->rect_dsc->bg_color = lv_theme_get_color_primary(obj);
 278              		.loc 1 308 13 is_stmt 1 view .LVU79
 308:Drivers/lvgl/src/extra/widgets/calendar/lv_calendar.c ****             dsc->rect_dsc->bg_color = lv_theme_get_color_primary(obj);
ARM GAS  /var/folders/lp/x54gwt890xv47sdkqj1k04q40000gn/T//ccqoIkMQ.s 			page 13


 279              		.loc 1 308 16 is_stmt 0 view .LVU80
 280 0066 2669     		ldr	r6, [r4, #16]
 308:Drivers/lvgl/src/extra/widgets/calendar/lv_calendar.c ****             dsc->rect_dsc->bg_color = lv_theme_get_color_primary(obj);
 281              		.loc 1 308 35 view .LVU81
 282 0068 6623     		movs	r3, #102
 283 006a F370     		strb	r3, [r6, #3]
 309:Drivers/lvgl/src/extra/widgets/calendar/lv_calendar.c ****             if(lv_btnmatrix_get_selected_btn(obj) == dsc->id) {
 284              		.loc 1 309 13 is_stmt 1 view .LVU82
 309:Drivers/lvgl/src/extra/widgets/calendar/lv_calendar.c ****             if(lv_btnmatrix_get_selected_btn(obj) == dsc->id) {
 285              		.loc 1 309 39 is_stmt 0 view .LVU83
 286 006c 2846     		mov	r0, r5
 287 006e FFF7FEFF 		bl	lv_theme_get_color_primary
 288              	.LVL28:
 289 0072 B080     		strh	r0, [r6, #4]	@ movhi
 310:Drivers/lvgl/src/extra/widgets/calendar/lv_calendar.c ****                 dsc->rect_dsc->bg_opa = LV_OPA_70;
 290              		.loc 1 310 13 is_stmt 1 view .LVU84
 310:Drivers/lvgl/src/extra/widgets/calendar/lv_calendar.c ****                 dsc->rect_dsc->bg_opa = LV_OPA_70;
 291              		.loc 1 310 16 is_stmt 0 view .LVU85
 292 0074 2846     		mov	r0, r5
 293 0076 FFF7FEFF 		bl	lv_btnmatrix_get_selected_btn
 294              	.LVL29:
 310:Drivers/lvgl/src/extra/widgets/calendar/lv_calendar.c ****                 dsc->rect_dsc->bg_opa = LV_OPA_70;
 295              		.loc 1 310 57 discriminator 1 view .LVU86
 296 007a A16B     		ldr	r1, [r4, #56]
 310:Drivers/lvgl/src/extra/widgets/calendar/lv_calendar.c ****                 dsc->rect_dsc->bg_opa = LV_OPA_70;
 297              		.loc 1 310 15 discriminator 1 view .LVU87
 298 007c 8842     		cmp	r0, r1
 299 007e DDD1     		bne	.L21
 311:Drivers/lvgl/src/extra/widgets/calendar/lv_calendar.c ****             }
 300              		.loc 1 311 17 is_stmt 1 view .LVU88
 311:Drivers/lvgl/src/extra/widgets/calendar/lv_calendar.c ****             }
 301              		.loc 1 311 39 is_stmt 0 view .LVU89
 302 0080 2369     		ldr	r3, [r4, #16]
 303 0082 B222     		movs	r2, #178
 304 0084 DA70     		strb	r2, [r3, #3]
 305 0086 D9E7     		b	.L21
 306              	.LVL30:
 307              	.L17:
 301:Drivers/lvgl/src/extra/widgets/calendar/lv_calendar.c ****             dsc->rect_dsc->bg_opa = LV_OPA_TRANSP;
 308              		.loc 1 301 14 is_stmt 1 view .LVU90
 301:Drivers/lvgl/src/extra/widgets/calendar/lv_calendar.c ****             dsc->rect_dsc->bg_opa = LV_OPA_TRANSP;
 309              		.loc 1 301 17 is_stmt 0 view .LVU91
 310 0088 4022     		movs	r2, #64
 311 008a 89B2     		uxth	r1, r1
 312 008c 2846     		mov	r0, r5
 313              	.LVL31:
 301:Drivers/lvgl/src/extra/widgets/calendar/lv_calendar.c ****             dsc->rect_dsc->bg_opa = LV_OPA_TRANSP;
 314              		.loc 1 301 17 view .LVU92
 315 008e FFF7FEFF 		bl	lv_btnmatrix_has_btn_ctrl
 316              	.LVL32:
 301:Drivers/lvgl/src/extra/widgets/calendar/lv_calendar.c ****             dsc->rect_dsc->bg_opa = LV_OPA_TRANSP;
 317              		.loc 1 301 16 discriminator 1 view .LVU93
 318 0092 08B9     		cbnz	r0, .L19
 307:Drivers/lvgl/src/extra/widgets/calendar/lv_calendar.c ****             dsc->rect_dsc->bg_opa = LV_OPA_40;
 319              		.loc 1 307 46 view .LVU94
 320 0094 A16B     		ldr	r1, [r4, #56]
 321 0096 C9E7     		b	.L18
ARM GAS  /var/folders/lp/x54gwt890xv47sdkqj1k04q40000gn/T//ccqoIkMQ.s 			page 14


 322              	.L19:
 302:Drivers/lvgl/src/extra/widgets/calendar/lv_calendar.c ****             dsc->rect_dsc->border_opa = LV_OPA_TRANSP;
 323              		.loc 1 302 13 is_stmt 1 view .LVU95
 302:Drivers/lvgl/src/extra/widgets/calendar/lv_calendar.c ****             dsc->rect_dsc->border_opa = LV_OPA_TRANSP;
 324              		.loc 1 302 16 is_stmt 0 view .LVU96
 325 0098 2369     		ldr	r3, [r4, #16]
 302:Drivers/lvgl/src/extra/widgets/calendar/lv_calendar.c ****             dsc->rect_dsc->border_opa = LV_OPA_TRANSP;
 326              		.loc 1 302 35 view .LVU97
 327 009a 0022     		movs	r2, #0
 328 009c DA70     		strb	r2, [r3, #3]
 303:Drivers/lvgl/src/extra/widgets/calendar/lv_calendar.c ****             dsc->label_dsc->color = lv_palette_main(LV_PALETTE_GREY);
 329              		.loc 1 303 13 is_stmt 1 view .LVU98
 303:Drivers/lvgl/src/extra/widgets/calendar/lv_calendar.c ****             dsc->label_dsc->color = lv_palette_main(LV_PALETTE_GREY);
 330              		.loc 1 303 39 is_stmt 0 view .LVU99
 331 009e 83F82220 		strb	r2, [r3, #34]
 304:Drivers/lvgl/src/extra/widgets/calendar/lv_calendar.c ****         }
 332              		.loc 1 304 13 is_stmt 1 view .LVU100
 304:Drivers/lvgl/src/extra/widgets/calendar/lv_calendar.c ****         }
 333              		.loc 1 304 37 is_stmt 0 view .LVU101
 334 00a2 1220     		movs	r0, #18
 304:Drivers/lvgl/src/extra/widgets/calendar/lv_calendar.c ****         }
 335              		.loc 1 304 16 view .LVU102
 336 00a4 6669     		ldr	r6, [r4, #20]
 304:Drivers/lvgl/src/extra/widgets/calendar/lv_calendar.c ****         }
 337              		.loc 1 304 37 view .LVU103
 338 00a6 FFF7FEFF 		bl	lv_palette_main
 339              	.LVL33:
 307:Drivers/lvgl/src/extra/widgets/calendar/lv_calendar.c ****             dsc->rect_dsc->bg_opa = LV_OPA_40;
 340              		.loc 1 307 46 view .LVU104
 341 00aa A16B     		ldr	r1, [r4, #56]
 304:Drivers/lvgl/src/extra/widgets/calendar/lv_calendar.c ****         }
 342              		.loc 1 304 37 view .LVU105
 343 00ac B081     		strh	r0, [r6, #12]	@ movhi
 344 00ae BDE7     		b	.L18
 345              		.cfi_endproc
 346              	.LFE216:
 348              		.section	.text.highlight_update,"ax",%progbits
 349              		.align	1
 350              		.p2align 2,,3
 351              		.syntax unified
 352              		.thumb
 353              		.thumb_func
 355              	highlight_update:
 356              	.LVL34:
 357              	.LFB220:
 355:Drivers/lvgl/src/extra/widgets/calendar/lv_calendar.c **** }
 356:Drivers/lvgl/src/extra/widgets/calendar/lv_calendar.c **** 
 357:Drivers/lvgl/src/extra/widgets/calendar/lv_calendar.c **** /**
 358:Drivers/lvgl/src/extra/widgets/calendar/lv_calendar.c ****  * Get the day of the week
 359:Drivers/lvgl/src/extra/widgets/calendar/lv_calendar.c ****  * @param year a year
 360:Drivers/lvgl/src/extra/widgets/calendar/lv_calendar.c ****  * @param month a  month [1..12]
 361:Drivers/lvgl/src/extra/widgets/calendar/lv_calendar.c ****  * @param day a day [1..32]
 362:Drivers/lvgl/src/extra/widgets/calendar/lv_calendar.c ****  * @return [0..6] which means [Sun..Sat] or [Mon..Sun] depending on LV_CALENDAR_WEEK_STARTS_MONDAY
 363:Drivers/lvgl/src/extra/widgets/calendar/lv_calendar.c ****  */
 364:Drivers/lvgl/src/extra/widgets/calendar/lv_calendar.c **** static uint8_t get_day_of_week(uint32_t year, uint32_t month, uint32_t day)
 365:Drivers/lvgl/src/extra/widgets/calendar/lv_calendar.c **** {
 366:Drivers/lvgl/src/extra/widgets/calendar/lv_calendar.c ****     uint32_t a = month < 3 ? 1 : 0;
ARM GAS  /var/folders/lp/x54gwt890xv47sdkqj1k04q40000gn/T//ccqoIkMQ.s 			page 15


 367:Drivers/lvgl/src/extra/widgets/calendar/lv_calendar.c ****     uint32_t b = year - a;
 368:Drivers/lvgl/src/extra/widgets/calendar/lv_calendar.c **** 
 369:Drivers/lvgl/src/extra/widgets/calendar/lv_calendar.c **** #if LV_CALENDAR_WEEK_STARTS_MONDAY
 370:Drivers/lvgl/src/extra/widgets/calendar/lv_calendar.c ****     uint32_t day_of_week = (day + (31 * (month - 2 + 12 * a) / 12) + b + (b / 4) - (b / 100) + (b /
 371:Drivers/lvgl/src/extra/widgets/calendar/lv_calendar.c **** #else
 372:Drivers/lvgl/src/extra/widgets/calendar/lv_calendar.c ****     uint32_t day_of_week = (day + (31 * (month - 2 + 12 * a) / 12) + b + (b / 4) - (b / 100) + (b /
 373:Drivers/lvgl/src/extra/widgets/calendar/lv_calendar.c **** #endif
 374:Drivers/lvgl/src/extra/widgets/calendar/lv_calendar.c **** 
 375:Drivers/lvgl/src/extra/widgets/calendar/lv_calendar.c ****     return day_of_week  ;
 376:Drivers/lvgl/src/extra/widgets/calendar/lv_calendar.c **** }
 377:Drivers/lvgl/src/extra/widgets/calendar/lv_calendar.c **** 
 378:Drivers/lvgl/src/extra/widgets/calendar/lv_calendar.c **** static void highlight_update(lv_obj_t * obj)
 379:Drivers/lvgl/src/extra/widgets/calendar/lv_calendar.c **** {
 358              		.loc 1 379 1 is_stmt 1 view -0
 359              		.cfi_startproc
 360              		@ args = 0, pretend = 0, frame = 0
 361              		@ frame_needed = 0, uses_anonymous_args = 0
 380:Drivers/lvgl/src/extra/widgets/calendar/lv_calendar.c ****     lv_calendar_t * calendar = (lv_calendar_t *)obj;
 362              		.loc 1 380 5 view .LVU107
 379:Drivers/lvgl/src/extra/widgets/calendar/lv_calendar.c ****     lv_calendar_t * calendar = (lv_calendar_t *)obj;
 363              		.loc 1 379 1 is_stmt 0 view .LVU108
 364 0000 70B5     		push	{r4, r5, r6, lr}
 365              		.cfi_def_cfa_offset 16
 366              		.cfi_offset 4, -16
 367              		.cfi_offset 5, -12
 368              		.cfi_offset 6, -8
 369              		.cfi_offset 14, -4
 379:Drivers/lvgl/src/extra/widgets/calendar/lv_calendar.c ****     lv_calendar_t * calendar = (lv_calendar_t *)obj;
 370              		.loc 1 379 1 view .LVU109
 371 0002 0546     		mov	r5, r0
 372              	.LVL35:
 381:Drivers/lvgl/src/extra/widgets/calendar/lv_calendar.c ****     uint16_t i;
 373              		.loc 1 381 5 is_stmt 1 view .LVU110
 382:Drivers/lvgl/src/extra/widgets/calendar/lv_calendar.c **** 
 383:Drivers/lvgl/src/extra/widgets/calendar/lv_calendar.c ****     /*Clear all kind of selection*/
 384:Drivers/lvgl/src/extra/widgets/calendar/lv_calendar.c ****     lv_btnmatrix_clear_btn_ctrl_all(calendar->btnm, LV_CALENDAR_CTRL_TODAY | LV_CALENDAR_CTRL_HIGHL
 374              		.loc 1 384 5 view .LVU111
 375 0004 4FF44041 		mov	r1, #49152
 376 0008 406A     		ldr	r0, [r0, #36]
 377              	.LVL36:
 378              	.LBB18:
 379              	.LBB19:
 372:Drivers/lvgl/src/extra/widgets/calendar/lv_calendar.c **** #endif
 380              		.loc 1 372 99 is_stmt 0 view .LVU112
 381 000a 334C     		ldr	r4, .L44
 372:Drivers/lvgl/src/extra/widgets/calendar/lv_calendar.c **** #endif
 382              		.loc 1 372 14 view .LVU113
 383 000c 334E     		ldr	r6, .L44+4
 384              	.LBE19:
 385              	.LBE18:
 386              		.loc 1 384 5 view .LVU114
 387 000e FFF7FEFF 		bl	lv_btnmatrix_clear_btn_ctrl_all
 388              	.LVL37:
 385:Drivers/lvgl/src/extra/widgets/calendar/lv_calendar.c **** 
 386:Drivers/lvgl/src/extra/widgets/calendar/lv_calendar.c ****     uint8_t day_first = get_day_of_week(calendar->showed_date.year, calendar->showed_date.month, 1)
 389              		.loc 1 386 5 is_stmt 1 view .LVU115
 390              		.loc 1 386 25 is_stmt 0 view .LVU116
ARM GAS  /var/folders/lp/x54gwt890xv47sdkqj1k04q40000gn/T//ccqoIkMQ.s 			page 16


 391 0012 95F92E10 		ldrsb	r1, [r5, #46]
 392              		.loc 1 386 62 view .LVU117
 393 0016 AA8D     		ldrh	r2, [r5, #44]
 394              	.LVL38:
 395              	.LBB22:
 396              	.LBI18:
 364:Drivers/lvgl/src/extra/widgets/calendar/lv_calendar.c **** {
 397              		.loc 1 364 16 is_stmt 1 view .LVU118
 398              	.LBB20:
 366:Drivers/lvgl/src/extra/widgets/calendar/lv_calendar.c ****     uint32_t b = year - a;
 399              		.loc 1 366 5 view .LVU119
 366:Drivers/lvgl/src/extra/widgets/calendar/lv_calendar.c ****     uint32_t b = year - a;
 400              		.loc 1 366 32 is_stmt 0 view .LVU120
 401 0018 0229     		cmp	r1, #2
 402 001a 8CBF     		ite	hi
 403 001c 0020     		movhi	r0, #0
 404 001e 0120     		movls	r0, #1
 405              	.LVL39:
 367:Drivers/lvgl/src/extra/widgets/calendar/lv_calendar.c **** 
 406              		.loc 1 367 5 is_stmt 1 view .LVU121
 372:Drivers/lvgl/src/extra/widgets/calendar/lv_calendar.c **** #endif
 407              		.loc 1 372 57 is_stmt 0 view .LVU122
 408 0020 0028     		cmp	r0, #0
 367:Drivers/lvgl/src/extra/widgets/calendar/lv_calendar.c **** 
 409              		.loc 1 367 14 view .LVU123
 410 0022 A2EB0000 		sub	r0, r2, r0
 411              	.LVL40:
 372:Drivers/lvgl/src/extra/widgets/calendar/lv_calendar.c **** #endif
 412              		.loc 1 372 5 is_stmt 1 view .LVU124
 372:Drivers/lvgl/src/extra/widgets/calendar/lv_calendar.c **** #endif
 413              		.loc 1 372 99 is_stmt 0 view .LVU125
 414 0026 A4FB0034 		umull	r3, r4, r4, r0
 372:Drivers/lvgl/src/extra/widgets/calendar/lv_calendar.c **** #endif
 415              		.loc 1 372 57 view .LVU126
 416 002a 14BF     		ite	ne
 417 002c 0C23     		movne	r3, #12
 418 002e 0023     		moveq	r3, #0
 372:Drivers/lvgl/src/extra/widgets/calendar/lv_calendar.c **** #endif
 419              		.loc 1 372 52 view .LVU127
 420 0030 0B44     		add	r3, r3, r1
 372:Drivers/lvgl/src/extra/widgets/calendar/lv_calendar.c **** #endif
 421              		.loc 1 372 94 view .LVU128
 422 0032 411C     		adds	r1, r0, #1
 423              	.LVL41:
 372:Drivers/lvgl/src/extra/widgets/calendar/lv_calendar.c **** #endif
 424              		.loc 1 372 94 view .LVU129
 425 0034 01EB9001 		add	r1, r1, r0, lsr #2
 372:Drivers/lvgl/src/extra/widgets/calendar/lv_calendar.c **** #endif
 426              		.loc 1 372 39 view .LVU130
 427 0038 C3EB4313 		rsb	r3, r3, r3, lsl #5
 372:Drivers/lvgl/src/extra/widgets/calendar/lv_calendar.c **** #endif
 428              		.loc 1 372 62 view .LVU131
 429 003c 2848     		ldr	r0, .L44+8
 430              	.LVL42:
 372:Drivers/lvgl/src/extra/widgets/calendar/lv_calendar.c **** #endif
 431              		.loc 1 372 39 view .LVU132
 432 003e 3E3B     		subs	r3, r3, #62
ARM GAS  /var/folders/lp/x54gwt890xv47sdkqj1k04q40000gn/T//ccqoIkMQ.s 			page 17


 372:Drivers/lvgl/src/extra/widgets/calendar/lv_calendar.c **** #endif
 433              		.loc 1 372 94 view .LVU133
 434 0040 01EBD411 		add	r1, r1, r4, lsr #7
 372:Drivers/lvgl/src/extra/widgets/calendar/lv_calendar.c **** #endif
 435              		.loc 1 372 62 view .LVU134
 436 0044 A0FB0303 		umull	r0, r3, r0, r3
 372:Drivers/lvgl/src/extra/widgets/calendar/lv_calendar.c **** #endif
 437              		.loc 1 372 94 view .LVU135
 438 0048 A1EB5411 		sub	r1, r1, r4, lsr #5
 439 004c 01EBD301 		add	r1, r1, r3, lsr #3
 372:Drivers/lvgl/src/extra/widgets/calendar/lv_calendar.c **** #endif
 440              		.loc 1 372 14 view .LVU136
 441 0050 A6FB0136 		umull	r3, r6, r6, r1
 442 0054 8B1B     		subs	r3, r1, r6
 443 0056 06EB5306 		add	r6, r6, r3, lsr #1
 444 005a B608     		lsrs	r6, r6, #2
 445              	.LBE20:
 446              	.LBE22:
 387:Drivers/lvgl/src/extra/widgets/calendar/lv_calendar.c ****     if(calendar->highlighted_dates) {
 447              		.loc 1 387 16 view .LVU137
 448 005c 2B6B     		ldr	r3, [r5, #48]
 449              	.LBB23:
 450              	.LBB21:
 372:Drivers/lvgl/src/extra/widgets/calendar/lv_calendar.c **** #endif
 451              		.loc 1 372 14 view .LVU138
 452 005e C6EBC606 		rsb	r6, r6, r6, lsl #3
 453 0062 8E1B     		subs	r6, r1, r6
 454              	.LVL43:
 375:Drivers/lvgl/src/extra/widgets/calendar/lv_calendar.c **** }
 455              		.loc 1 375 5 is_stmt 1 view .LVU139
 375:Drivers/lvgl/src/extra/widgets/calendar/lv_calendar.c **** }
 456              		.loc 1 375 5 is_stmt 0 view .LVU140
 457              	.LBE21:
 458              	.LBE23:
 459              		.loc 1 387 5 is_stmt 1 view .LVU141
 460              		.loc 1 387 7 is_stmt 0 view .LVU142
 461 0064 23B3     		cbz	r3, .L31
 462              	.LVL44:
 388:Drivers/lvgl/src/extra/widgets/calendar/lv_calendar.c ****         for(i = 0; i < calendar->highlighted_dates_num; i++) {
 463              		.loc 1 388 22 is_stmt 1 discriminator 1 view .LVU143
 464 0066 A88E     		ldrh	r0, [r5, #52]
 465 0068 10B3     		cbz	r0, .L31
 466 006a 0024     		movs	r4, #0
 467 006c 05E0     		b	.L33
 468              	.LVL45:
 469              	.L32:
 470              		.loc 1 388 58 discriminator 2 view .LVU144
 471              		.loc 1 388 22 discriminator 1 view .LVU145
 472 006e 0134     		adds	r4, r4, #1
 473              	.LVL46:
 474              		.loc 1 388 22 is_stmt 0 discriminator 1 view .LVU146
 475 0070 A3B2     		uxth	r3, r4
 476 0072 9842     		cmp	r0, r3
 477 0074 1CD9     		bls	.L31
 478              	.LVL47:
 479              	.L42:
 389:Drivers/lvgl/src/extra/widgets/calendar/lv_calendar.c ****             if(calendar->highlighted_dates[i].year == calendar->showed_date.year &&
ARM GAS  /var/folders/lp/x54gwt890xv47sdkqj1k04q40000gn/T//ccqoIkMQ.s 			page 18


 480              		.loc 1 389 24 view .LVU147
 481 0076 2B6B     		ldr	r3, [r5, #48]
 482              		.loc 1 389 76 view .LVU148
 483 0078 AA8D     		ldrh	r2, [r5, #44]
 484              	.L33:
 485              	.LVL48:
 486              		.loc 1 389 13 is_stmt 1 view .LVU149
 487              		.loc 1 389 15 is_stmt 0 view .LVU150
 488 007a 33F82410 		ldrh	r1, [r3, r4, lsl #2]
 489 007e 9142     		cmp	r1, r2
 490              		.loc 1 389 43 view .LVU151
 491 0080 03EB8403 		add	r3, r3, r4, lsl #2
 492              		.loc 1 389 15 view .LVU152
 493 0084 F3D1     		bne	.L32
 494              		.loc 1 389 82 discriminator 1 view .LVU153
 495 0086 93F90210 		ldrsb	r1, [r3, #2]
 496 008a 95F92E20 		ldrsb	r2, [r5, #46]
 497 008e 9142     		cmp	r1, r2
 498 0090 EDD1     		bne	.L32
 390:Drivers/lvgl/src/extra/widgets/calendar/lv_calendar.c ****                calendar->highlighted_dates[i].month == calendar->showed_date.month) {
 391:Drivers/lvgl/src/extra/widgets/calendar/lv_calendar.c ****                 lv_btnmatrix_set_btn_ctrl(calendar->btnm, calendar->highlighted_dates[i].day - 1 + 
 499              		.loc 1 391 17 is_stmt 1 view .LVU154
 500              		.loc 1 391 89 is_stmt 0 view .LVU155
 501 0092 93F90310 		ldrsb	r1, [r3, #3]
 502              		.loc 1 391 17 view .LVU156
 503 0096 686A     		ldr	r0, [r5, #36]
 504 0098 B31D     		adds	r3, r6, #6
 505 009a 1944     		add	r1, r1, r3
 506 009c 4FF40042 		mov	r2, #32768
 507 00a0 89B2     		uxth	r1, r1
 508 00a2 FFF7FEFF 		bl	lv_btnmatrix_set_btn_ctrl
 509              	.LVL49:
 388:Drivers/lvgl/src/extra/widgets/calendar/lv_calendar.c ****             if(calendar->highlighted_dates[i].year == calendar->showed_date.year &&
 510              		.loc 1 388 22 discriminator 1 view .LVU157
 511 00a6 0134     		adds	r4, r4, #1
 512              	.LVL50:
 388:Drivers/lvgl/src/extra/widgets/calendar/lv_calendar.c ****             if(calendar->highlighted_dates[i].year == calendar->showed_date.year &&
 513              		.loc 1 388 22 discriminator 1 view .LVU158
 514 00a8 A88E     		ldrh	r0, [r5, #52]
 388:Drivers/lvgl/src/extra/widgets/calendar/lv_calendar.c ****             if(calendar->highlighted_dates[i].year == calendar->showed_date.year &&
 515              		.loc 1 388 58 is_stmt 1 discriminator 2 view .LVU159
 516              	.LVL51:
 388:Drivers/lvgl/src/extra/widgets/calendar/lv_calendar.c ****             if(calendar->highlighted_dates[i].year == calendar->showed_date.year &&
 517              		.loc 1 388 22 discriminator 1 view .LVU160
 518 00aa A3B2     		uxth	r3, r4
 519 00ac 9842     		cmp	r0, r3
 520 00ae E2D8     		bhi	.L42
 521              	.L31:
 392:Drivers/lvgl/src/extra/widgets/calendar/lv_calendar.c ****                                           LV_CALENDAR_CTRL_HIGHLIGHT);
 393:Drivers/lvgl/src/extra/widgets/calendar/lv_calendar.c ****             }
 394:Drivers/lvgl/src/extra/widgets/calendar/lv_calendar.c ****         }
 395:Drivers/lvgl/src/extra/widgets/calendar/lv_calendar.c ****     }
 396:Drivers/lvgl/src/extra/widgets/calendar/lv_calendar.c **** 
 397:Drivers/lvgl/src/extra/widgets/calendar/lv_calendar.c ****     if(calendar->showed_date.year == calendar->today.year && calendar->showed_date.month == calenda
 522              		.loc 1 397 5 view .LVU161
 523              		.loc 1 397 7 is_stmt 0 view .LVU162
 524 00b0 D5E90A23 		ldrd	r2, r3, [r5, #40]
ARM GAS  /var/folders/lp/x54gwt890xv47sdkqj1k04q40000gn/T//ccqoIkMQ.s 			page 19


 525 00b4 5340     		eors	r3, r3, r2
 526 00b6 33F07F43 		bics	r3, r3, #-16777216
 527 00ba 00D0     		beq	.L43
 398:Drivers/lvgl/src/extra/widgets/calendar/lv_calendar.c ****         lv_btnmatrix_set_btn_ctrl(calendar->btnm, calendar->today.day - 1 + day_first + 7, LV_CALEN
 399:Drivers/lvgl/src/extra/widgets/calendar/lv_calendar.c ****     }
 400:Drivers/lvgl/src/extra/widgets/calendar/lv_calendar.c **** }
 528              		.loc 1 400 1 view .LVU163
 529 00bc 70BD     		pop	{r4, r5, r6, pc}
 530              	.LVL52:
 531              	.L43:
 398:Drivers/lvgl/src/extra/widgets/calendar/lv_calendar.c ****         lv_btnmatrix_set_btn_ctrl(calendar->btnm, calendar->today.day - 1 + day_first + 7, LV_CALEN
 532              		.loc 1 398 9 is_stmt 1 view .LVU164
 398:Drivers/lvgl/src/extra/widgets/calendar/lv_calendar.c ****         lv_btnmatrix_set_btn_ctrl(calendar->btnm, calendar->today.day - 1 + day_first + 7, LV_CALEN
 533              		.loc 1 398 66 is_stmt 0 view .LVU165
 534 00be 95F92B10 		ldrsb	r1, [r5, #43]
 398:Drivers/lvgl/src/extra/widgets/calendar/lv_calendar.c ****         lv_btnmatrix_set_btn_ctrl(calendar->btnm, calendar->today.day - 1 + day_first + 7, LV_CALEN
 535              		.loc 1 398 9 view .LVU166
 536 00c2 686A     		ldr	r0, [r5, #36]
 537 00c4 0631     		adds	r1, r1, #6
 538 00c6 3144     		add	r1, r1, r6
 539 00c8 4FF48042 		mov	r2, #16384
 540              		.loc 1 400 1 view .LVU167
 541 00cc BDE87040 		pop	{r4, r5, r6, lr}
 542              		.cfi_restore 14
 543              		.cfi_restore 6
 544              		.cfi_restore 5
 545              		.cfi_restore 4
 546              		.cfi_def_cfa_offset 0
 547              	.LVL53:
 398:Drivers/lvgl/src/extra/widgets/calendar/lv_calendar.c ****         lv_btnmatrix_set_btn_ctrl(calendar->btnm, calendar->today.day - 1 + day_first + 7, LV_CALEN
 548              		.loc 1 398 9 view .LVU168
 549 00d0 89B2     		uxth	r1, r1
 550 00d2 FFF7FEBF 		b	lv_btnmatrix_set_btn_ctrl
 551              	.LVL54:
 552              	.L45:
 553 00d6 00BF     		.align	2
 554              	.L44:
 555 00d8 1F85EB51 		.word	1374389535
 556 00dc 25499224 		.word	613566757
 557 00e0 ABAAAAAA 		.word	-1431655765
 558              		.cfi_endproc
 559              	.LFE220:
 561              		.section	.text.lv_calendar_create,"ax",%progbits
 562              		.align	1
 563              		.p2align 2,,3
 564              		.global	lv_calendar_create
 565              		.syntax unified
 566              		.thumb
 567              		.thumb_func
 569              	lv_calendar_create:
 570              	.LVL55:
 571              	.LFB204:
  61:Drivers/lvgl/src/extra/widgets/calendar/lv_calendar.c ****     LV_LOG_INFO("begin");
 572              		.loc 1 61 1 is_stmt 1 view -0
 573              		.cfi_startproc
 574              		@ args = 0, pretend = 0, frame = 0
 575              		@ frame_needed = 0, uses_anonymous_args = 0
ARM GAS  /var/folders/lp/x54gwt890xv47sdkqj1k04q40000gn/T//ccqoIkMQ.s 			page 20


  62:Drivers/lvgl/src/extra/widgets/calendar/lv_calendar.c ****     lv_obj_t * obj = lv_obj_class_create_obj(&lv_calendar_class, parent);
 576              		.loc 1 62 5 view .LVU170
  62:Drivers/lvgl/src/extra/widgets/calendar/lv_calendar.c ****     lv_obj_t * obj = lv_obj_class_create_obj(&lv_calendar_class, parent);
 577              		.loc 1 62 5 view .LVU171
  62:Drivers/lvgl/src/extra/widgets/calendar/lv_calendar.c ****     lv_obj_t * obj = lv_obj_class_create_obj(&lv_calendar_class, parent);
 578              		.loc 1 62 5 view .LVU172
  63:Drivers/lvgl/src/extra/widgets/calendar/lv_calendar.c ****     lv_obj_class_init_obj(obj);
 579              		.loc 1 63 5 view .LVU173
  61:Drivers/lvgl/src/extra/widgets/calendar/lv_calendar.c ****     LV_LOG_INFO("begin");
 580              		.loc 1 61 1 is_stmt 0 view .LVU174
 581 0000 10B5     		push	{r4, lr}
 582              		.cfi_def_cfa_offset 8
 583              		.cfi_offset 4, -8
 584              		.cfi_offset 14, -4
  61:Drivers/lvgl/src/extra/widgets/calendar/lv_calendar.c ****     LV_LOG_INFO("begin");
 585              		.loc 1 61 1 view .LVU175
 586 0002 0146     		mov	r1, r0
  63:Drivers/lvgl/src/extra/widgets/calendar/lv_calendar.c ****     lv_obj_class_init_obj(obj);
 587              		.loc 1 63 22 view .LVU176
 588 0004 0348     		ldr	r0, .L48
 589              	.LVL56:
  63:Drivers/lvgl/src/extra/widgets/calendar/lv_calendar.c ****     lv_obj_class_init_obj(obj);
 590              		.loc 1 63 22 view .LVU177
 591 0006 FFF7FEFF 		bl	lv_obj_class_create_obj
 592              	.LVL57:
  63:Drivers/lvgl/src/extra/widgets/calendar/lv_calendar.c ****     lv_obj_class_init_obj(obj);
 593              		.loc 1 63 22 view .LVU178
 594 000a 0446     		mov	r4, r0
 595              	.LVL58:
  64:Drivers/lvgl/src/extra/widgets/calendar/lv_calendar.c ****     return obj;
 596              		.loc 1 64 5 is_stmt 1 view .LVU179
 597 000c FFF7FEFF 		bl	lv_obj_class_init_obj
 598              	.LVL59:
  65:Drivers/lvgl/src/extra/widgets/calendar/lv_calendar.c **** }
 599              		.loc 1 65 5 view .LVU180
  66:Drivers/lvgl/src/extra/widgets/calendar/lv_calendar.c **** 
 600              		.loc 1 66 1 is_stmt 0 view .LVU181
 601 0010 2046     		mov	r0, r4
 602 0012 10BD     		pop	{r4, pc}
 603              	.LVL60:
 604              	.L49:
  66:Drivers/lvgl/src/extra/widgets/calendar/lv_calendar.c **** 
 605              		.loc 1 66 1 view .LVU182
 606              		.align	2
 607              	.L48:
 608 0014 00000000 		.word	lv_calendar_class
 609              		.cfi_endproc
 610              	.LFE204:
 612              		.section	.text.lv_calendar_set_day_names,"ax",%progbits
 613              		.align	1
 614              		.p2align 2,,3
 615              		.global	lv_calendar_set_day_names
 616              		.syntax unified
 617              		.thumb
 618              		.thumb_func
 620              	lv_calendar_set_day_names:
 621              	.LVL61:
ARM GAS  /var/folders/lp/x54gwt890xv47sdkqj1k04q40000gn/T//ccqoIkMQ.s 			page 21


 622              	.LFB205:
  73:Drivers/lvgl/src/extra/widgets/calendar/lv_calendar.c ****     LV_ASSERT_OBJ(obj, MY_CLASS);
 623              		.loc 1 73 1 is_stmt 1 view -0
 624              		.cfi_startproc
 625              		@ args = 0, pretend = 0, frame = 0
 626              		@ frame_needed = 0, uses_anonymous_args = 0
 627              		@ link register save eliminated.
  74:Drivers/lvgl/src/extra/widgets/calendar/lv_calendar.c ****     lv_calendar_t * calendar = (lv_calendar_t *)obj;
 628              		.loc 1 74 5 view .LVU184
  74:Drivers/lvgl/src/extra/widgets/calendar/lv_calendar.c ****     lv_calendar_t * calendar = (lv_calendar_t *)obj;
 629              		.loc 1 74 5 view .LVU185
  74:Drivers/lvgl/src/extra/widgets/calendar/lv_calendar.c ****     lv_calendar_t * calendar = (lv_calendar_t *)obj;
 630              		.loc 1 74 5 view .LVU186
  75:Drivers/lvgl/src/extra/widgets/calendar/lv_calendar.c **** 
 631              		.loc 1 75 5 view .LVU187
  77:Drivers/lvgl/src/extra/widgets/calendar/lv_calendar.c ****     for(i = 0; i < 7; i++) {
 632              		.loc 1 77 5 view .LVU188
  78:Drivers/lvgl/src/extra/widgets/calendar/lv_calendar.c ****         calendar->map[i] = day_names[i];
 633              		.loc 1 78 5 view .LVU189
  78:Drivers/lvgl/src/extra/widgets/calendar/lv_calendar.c ****         calendar->map[i] = day_names[i];
 634              		.loc 1 78 18 discriminator 1 view .LVU190
 635 0000 0B1F     		subs	r3, r1, #4
 636 0002 00F13402 		add	r2, r0, #52
 637 0006 01F1180C 		add	ip, r1, #24
 638              	.LVL62:
 639              	.L51:
  79:Drivers/lvgl/src/extra/widgets/calendar/lv_calendar.c ****     }
 640              		.loc 1 79 9 view .LVU191
  79:Drivers/lvgl/src/extra/widgets/calendar/lv_calendar.c ****     }
 641              		.loc 1 79 37 is_stmt 0 view .LVU192
 642 000a 53F8041F 		ldr	r1, [r3, #4]!
  79:Drivers/lvgl/src/extra/widgets/calendar/lv_calendar.c ****     }
 643              		.loc 1 79 26 view .LVU193
 644 000e 42F8041F 		str	r1, [r2, #4]!
  78:Drivers/lvgl/src/extra/widgets/calendar/lv_calendar.c ****         calendar->map[i] = day_names[i];
 645              		.loc 1 78 24 is_stmt 1 discriminator 3 view .LVU194
  78:Drivers/lvgl/src/extra/widgets/calendar/lv_calendar.c ****         calendar->map[i] = day_names[i];
 646              		.loc 1 78 18 discriminator 1 view .LVU195
 647 0012 6345     		cmp	r3, ip
 648 0014 F9D1     		bne	.L51
  81:Drivers/lvgl/src/extra/widgets/calendar/lv_calendar.c **** }
 649              		.loc 1 81 5 view .LVU196
 650 0016 FFF7FEBF 		b	lv_obj_invalidate
 651              	.LVL63:
  81:Drivers/lvgl/src/extra/widgets/calendar/lv_calendar.c **** }
 652              		.loc 1 81 5 is_stmt 0 view .LVU197
 653              		.cfi_endproc
 654              	.LFE205:
 656 001a 00BF     		.section	.text.lv_calendar_set_today_date,"ax",%progbits
 657              		.align	1
 658              		.p2align 2,,3
 659              		.global	lv_calendar_set_today_date
 660              		.syntax unified
 661              		.thumb
 662              		.thumb_func
 664              	lv_calendar_set_today_date:
 665              	.LVL64:
ARM GAS  /var/folders/lp/x54gwt890xv47sdkqj1k04q40000gn/T//ccqoIkMQ.s 			page 22


 666              	.LFB206:
  85:Drivers/lvgl/src/extra/widgets/calendar/lv_calendar.c ****     LV_ASSERT_OBJ(obj, MY_CLASS);
 667              		.loc 1 85 1 is_stmt 1 view -0
 668              		.cfi_startproc
 669              		@ args = 0, pretend = 0, frame = 0
 670              		@ frame_needed = 0, uses_anonymous_args = 0
 671              		@ link register save eliminated.
  86:Drivers/lvgl/src/extra/widgets/calendar/lv_calendar.c ****     lv_calendar_t * calendar = (lv_calendar_t *)obj;
 672              		.loc 1 86 5 view .LVU199
  86:Drivers/lvgl/src/extra/widgets/calendar/lv_calendar.c ****     lv_calendar_t * calendar = (lv_calendar_t *)obj;
 673              		.loc 1 86 5 view .LVU200
  86:Drivers/lvgl/src/extra/widgets/calendar/lv_calendar.c ****     lv_calendar_t * calendar = (lv_calendar_t *)obj;
 674              		.loc 1 86 5 view .LVU201
  87:Drivers/lvgl/src/extra/widgets/calendar/lv_calendar.c **** 
 675              		.loc 1 87 5 view .LVU202
  89:Drivers/lvgl/src/extra/widgets/calendar/lv_calendar.c ****     calendar->today.month        = month;
 676              		.loc 1 89 5 view .LVU203
  89:Drivers/lvgl/src/extra/widgets/calendar/lv_calendar.c ****     calendar->today.month        = month;
 677              		.loc 1 89 34 is_stmt 0 view .LVU204
 678 0000 0185     		strh	r1, [r0, #40]	@ movhi
  90:Drivers/lvgl/src/extra/widgets/calendar/lv_calendar.c ****     calendar->today.day          = day;
 679              		.loc 1 90 5 is_stmt 1 view .LVU205
  90:Drivers/lvgl/src/extra/widgets/calendar/lv_calendar.c ****     calendar->today.day          = day;
 680              		.loc 1 90 34 is_stmt 0 view .LVU206
 681 0002 80F82A20 		strb	r2, [r0, #42]
  91:Drivers/lvgl/src/extra/widgets/calendar/lv_calendar.c **** 
 682              		.loc 1 91 5 is_stmt 1 view .LVU207
  91:Drivers/lvgl/src/extra/widgets/calendar/lv_calendar.c **** 
 683              		.loc 1 91 34 is_stmt 0 view .LVU208
 684 0006 80F82B30 		strb	r3, [r0, #43]
  93:Drivers/lvgl/src/extra/widgets/calendar/lv_calendar.c **** }
 685              		.loc 1 93 5 is_stmt 1 view .LVU209
 686 000a FFF7FEBF 		b	highlight_update
 687              	.LVL65:
  93:Drivers/lvgl/src/extra/widgets/calendar/lv_calendar.c **** }
 688              		.loc 1 93 5 is_stmt 0 view .LVU210
 689              		.cfi_endproc
 690              	.LFE206:
 692 000e 00BF     		.section	.text.lv_calendar_set_highlighted_dates,"ax",%progbits
 693              		.align	1
 694              		.p2align 2,,3
 695              		.global	lv_calendar_set_highlighted_dates
 696              		.syntax unified
 697              		.thumb
 698              		.thumb_func
 700              	lv_calendar_set_highlighted_dates:
 701              	.LVL66:
 702              	.LFB207:
  97:Drivers/lvgl/src/extra/widgets/calendar/lv_calendar.c ****     LV_ASSERT_NULL(highlighted);
 703              		.loc 1 97 1 is_stmt 1 view -0
 704              		.cfi_startproc
 705              		@ args = 0, pretend = 0, frame = 0
 706              		@ frame_needed = 0, uses_anonymous_args = 0
 707              		@ link register save eliminated.
  98:Drivers/lvgl/src/extra/widgets/calendar/lv_calendar.c **** 
 708              		.loc 1 98 5 view .LVU212
  98:Drivers/lvgl/src/extra/widgets/calendar/lv_calendar.c **** 
ARM GAS  /var/folders/lp/x54gwt890xv47sdkqj1k04q40000gn/T//ccqoIkMQ.s 			page 23


 709              		.loc 1 98 5 view .LVU213
 710 0000 19B1     		cbz	r1, .L56
  98:Drivers/lvgl/src/extra/widgets/calendar/lv_calendar.c **** 
 711              		.loc 1 98 5 discriminator 2 view .LVU214
  98:Drivers/lvgl/src/extra/widgets/calendar/lv_calendar.c **** 
 712              		.loc 1 98 32 discriminator 2 view .LVU215
 100:Drivers/lvgl/src/extra/widgets/calendar/lv_calendar.c ****     lv_calendar_t * calendar = (lv_calendar_t *)obj;
 713              		.loc 1 100 5 view .LVU216
 100:Drivers/lvgl/src/extra/widgets/calendar/lv_calendar.c ****     lv_calendar_t * calendar = (lv_calendar_t *)obj;
 714              		.loc 1 100 5 view .LVU217
 100:Drivers/lvgl/src/extra/widgets/calendar/lv_calendar.c ****     lv_calendar_t * calendar = (lv_calendar_t *)obj;
 715              		.loc 1 100 5 view .LVU218
 101:Drivers/lvgl/src/extra/widgets/calendar/lv_calendar.c **** 
 716              		.loc 1 101 5 view .LVU219
 717              	.LVL67:
 103:Drivers/lvgl/src/extra/widgets/calendar/lv_calendar.c ****     calendar->highlighted_dates_num = date_num;
 718              		.loc 1 103 5 view .LVU220
 103:Drivers/lvgl/src/extra/widgets/calendar/lv_calendar.c ****     calendar->highlighted_dates_num = date_num;
 719              		.loc 1 103 37 is_stmt 0 view .LVU221
 720 0002 0163     		str	r1, [r0, #48]
 104:Drivers/lvgl/src/extra/widgets/calendar/lv_calendar.c **** 
 721              		.loc 1 104 5 is_stmt 1 view .LVU222
 104:Drivers/lvgl/src/extra/widgets/calendar/lv_calendar.c **** 
 722              		.loc 1 104 37 is_stmt 0 view .LVU223
 723 0004 8286     		strh	r2, [r0, #52]	@ movhi
 106:Drivers/lvgl/src/extra/widgets/calendar/lv_calendar.c **** }
 724              		.loc 1 106 5 is_stmt 1 view .LVU224
 725 0006 FFF7FEBF 		b	highlight_update
 726              	.LVL68:
 727              	.L56:
  98:Drivers/lvgl/src/extra/widgets/calendar/lv_calendar.c **** 
 728              		.loc 1 98 5 discriminator 1 view .LVU225
  98:Drivers/lvgl/src/extra/widgets/calendar/lv_calendar.c **** 
 729              		.loc 1 98 5 discriminator 1 view .LVU226
  98:Drivers/lvgl/src/extra/widgets/calendar/lv_calendar.c **** 
 730              		.loc 1 98 5 discriminator 1 view .LVU227
  98:Drivers/lvgl/src/extra/widgets/calendar/lv_calendar.c **** 
 731              		.loc 1 98 5 discriminator 1 view .LVU228
  98:Drivers/lvgl/src/extra/widgets/calendar/lv_calendar.c **** 
 732              		.loc 1 98 5 discriminator 1 view .LVU229
  98:Drivers/lvgl/src/extra/widgets/calendar/lv_calendar.c **** 
 733              		.loc 1 98 5 discriminator 1 view .LVU230
  98:Drivers/lvgl/src/extra/widgets/calendar/lv_calendar.c **** 
 734              		.loc 1 98 5 discriminator 1 view .LVU231
  98:Drivers/lvgl/src/extra/widgets/calendar/lv_calendar.c **** 
 735              		.loc 1 98 5 discriminator 1 view .LVU232
  98:Drivers/lvgl/src/extra/widgets/calendar/lv_calendar.c **** 
 736              		.loc 1 98 5 discriminator 1 view .LVU233
  98:Drivers/lvgl/src/extra/widgets/calendar/lv_calendar.c **** 
 737              		.loc 1 98 5 discriminator 1 view .LVU234
 738 000a FEE7     		b	.L56
 739              		.cfi_endproc
 740              	.LFE207:
 742              		.section	.rodata.lv_calendar_set_showed_date.str1.4,"aMS",%progbits,1
 743              		.align	2
 744              	.LC0:
 745 0000 256400   		.ascii	"%d\000"
ARM GAS  /var/folders/lp/x54gwt890xv47sdkqj1k04q40000gn/T//ccqoIkMQ.s 			page 24


 746              		.section	.text.lv_calendar_set_showed_date,"ax",%progbits
 747              		.align	1
 748              		.p2align 2,,3
 749              		.global	lv_calendar_set_showed_date
 750              		.syntax unified
 751              		.thumb
 752              		.thumb_func
 754              	lv_calendar_set_showed_date:
 755              	.LVL69:
 756              	.LFB208:
 110:Drivers/lvgl/src/extra/widgets/calendar/lv_calendar.c ****     LV_ASSERT_OBJ(obj, MY_CLASS);
 757              		.loc 1 110 1 view -0
 758              		.cfi_startproc
 759              		@ args = 0, pretend = 0, frame = 16
 760              		@ frame_needed = 0, uses_anonymous_args = 0
 111:Drivers/lvgl/src/extra/widgets/calendar/lv_calendar.c ****     lv_calendar_t * calendar = (lv_calendar_t *)obj;
 761              		.loc 1 111 5 view .LVU236
 111:Drivers/lvgl/src/extra/widgets/calendar/lv_calendar.c ****     lv_calendar_t * calendar = (lv_calendar_t *)obj;
 762              		.loc 1 111 5 view .LVU237
 111:Drivers/lvgl/src/extra/widgets/calendar/lv_calendar.c ****     lv_calendar_t * calendar = (lv_calendar_t *)obj;
 763              		.loc 1 111 5 view .LVU238
 112:Drivers/lvgl/src/extra/widgets/calendar/lv_calendar.c **** 
 764              		.loc 1 112 5 view .LVU239
 110:Drivers/lvgl/src/extra/widgets/calendar/lv_calendar.c ****     LV_ASSERT_OBJ(obj, MY_CLASS);
 765              		.loc 1 110 1 is_stmt 0 view .LVU240
 766 0000 2DE9F04F 		push	{r4, r5, r6, r7, r8, r9, r10, fp, lr}
 767              		.cfi_def_cfa_offset 36
 768              		.cfi_offset 4, -36
 769              		.cfi_offset 5, -32
 770              		.cfi_offset 6, -28
 771              		.cfi_offset 7, -24
 772              		.cfi_offset 8, -20
 773              		.cfi_offset 9, -16
 774              		.cfi_offset 10, -12
 775              		.cfi_offset 11, -8
 776              		.cfi_offset 14, -4
 777 0004 0446     		mov	r4, r0
 778              	.LVL70:
 114:Drivers/lvgl/src/extra/widgets/calendar/lv_calendar.c ****     calendar->showed_date.month  = month;
 779              		.loc 1 114 5 is_stmt 1 view .LVU241
 115:Drivers/lvgl/src/extra/widgets/calendar/lv_calendar.c ****     calendar->showed_date.day    = 1;
 780              		.loc 1 115 34 is_stmt 0 view .LVU242
 781 0006 4FFA82FB 		sxtb	fp, r2
 116:Drivers/lvgl/src/extra/widgets/calendar/lv_calendar.c **** 
 782              		.loc 1 116 34 view .LVU243
 783 000a 0123     		movs	r3, #1
 126:Drivers/lvgl/src/extra/widgets/calendar/lv_calendar.c ****     for(i = 0; i < 7; i++) {
 784              		.loc 1 126 5 view .LVU244
 785 000c 406A     		ldr	r0, [r0, #36]
 786              	.LVL71:
 110:Drivers/lvgl/src/extra/widgets/calendar/lv_calendar.c ****     LV_ASSERT_OBJ(obj, MY_CLASS);
 787              		.loc 1 110 1 view .LVU245
 788 000e 85B0     		sub	sp, sp, #20
 789              		.cfi_def_cfa_offset 56
 110:Drivers/lvgl/src/extra/widgets/calendar/lv_calendar.c ****     LV_ASSERT_OBJ(obj, MY_CLASS);
 790              		.loc 1 110 1 view .LVU246
 791 0010 8946     		mov	r9, r1
ARM GAS  /var/folders/lp/x54gwt890xv47sdkqj1k04q40000gn/T//ccqoIkMQ.s 			page 25


 114:Drivers/lvgl/src/extra/widgets/calendar/lv_calendar.c ****     calendar->showed_date.month  = month;
 792              		.loc 1 114 34 view .LVU247
 793 0012 A185     		strh	r1, [r4, #44]	@ movhi
 115:Drivers/lvgl/src/extra/widgets/calendar/lv_calendar.c ****     calendar->showed_date.day    = 1;
 794              		.loc 1 115 5 is_stmt 1 view .LVU248
 115:Drivers/lvgl/src/extra/widgets/calendar/lv_calendar.c ****     calendar->showed_date.day    = 1;
 795              		.loc 1 115 34 is_stmt 0 view .LVU249
 796 0014 84F82EB0 		strb	fp, [r4, #46]
 116:Drivers/lvgl/src/extra/widgets/calendar/lv_calendar.c **** 
 797              		.loc 1 116 5 is_stmt 1 view .LVU250
 116:Drivers/lvgl/src/extra/widgets/calendar/lv_calendar.c **** 
 798              		.loc 1 116 34 is_stmt 0 view .LVU251
 799 0018 84F82F30 		strb	r3, [r4, #47]
 118:Drivers/lvgl/src/extra/widgets/calendar/lv_calendar.c ****     d.year = calendar->showed_date.year;
 800              		.loc 1 118 5 is_stmt 1 view .LVU252
 119:Drivers/lvgl/src/extra/widgets/calendar/lv_calendar.c ****     d.month = calendar->showed_date.month;
 801              		.loc 1 119 5 view .LVU253
 802              	.LVL72:
 120:Drivers/lvgl/src/extra/widgets/calendar/lv_calendar.c ****     d.day = calendar->showed_date.day;
 803              		.loc 1 120 5 view .LVU254
 121:Drivers/lvgl/src/extra/widgets/calendar/lv_calendar.c **** 
 804              		.loc 1 121 5 view .LVU255
 123:Drivers/lvgl/src/extra/widgets/calendar/lv_calendar.c **** 
 805              		.loc 1 123 5 view .LVU256
 126:Drivers/lvgl/src/extra/widgets/calendar/lv_calendar.c ****     for(i = 0; i < 7; i++) {
 806              		.loc 1 126 5 view .LVU257
 807 001c 4021     		movs	r1, #64
 808              	.LVL73:
 126:Drivers/lvgl/src/extra/widgets/calendar/lv_calendar.c ****     for(i = 0; i < 7; i++) {
 809              		.loc 1 126 5 is_stmt 0 view .LVU258
 810 001e FFF7FEFF 		bl	lv_btnmatrix_clear_btn_ctrl_all
 811              	.LVL74:
 127:Drivers/lvgl/src/extra/widgets/calendar/lv_calendar.c ****         lv_btnmatrix_set_btn_ctrl(calendar->btnm, i, LV_BTNMATRIX_CTRL_DISABLED);
 812              		.loc 1 127 5 is_stmt 1 view .LVU259
 127:Drivers/lvgl/src/extra/widgets/calendar/lv_calendar.c ****         lv_btnmatrix_set_btn_ctrl(calendar->btnm, i, LV_BTNMATRIX_CTRL_DISABLED);
 813              		.loc 1 127 18 discriminator 1 view .LVU260
 127:Drivers/lvgl/src/extra/widgets/calendar/lv_calendar.c ****         lv_btnmatrix_set_btn_ctrl(calendar->btnm, i, LV_BTNMATRIX_CTRL_DISABLED);
 814              		.loc 1 127 11 is_stmt 0 view .LVU261
 815 0022 0025     		movs	r5, #0
 816              	.LVL75:
 817              	.L58:
 128:Drivers/lvgl/src/extra/widgets/calendar/lv_calendar.c ****     }
 818              		.loc 1 128 9 is_stmt 1 view .LVU262
 819 0024 A9B2     		uxth	r1, r5
 820 0026 606A     		ldr	r0, [r4, #36]
 821 0028 4022     		movs	r2, #64
 127:Drivers/lvgl/src/extra/widgets/calendar/lv_calendar.c ****         lv_btnmatrix_set_btn_ctrl(calendar->btnm, i, LV_BTNMATRIX_CTRL_DISABLED);
 822              		.loc 1 127 24 is_stmt 0 discriminator 3 view .LVU263
 823 002a 0135     		adds	r5, r5, #1
 824              	.LVL76:
 128:Drivers/lvgl/src/extra/widgets/calendar/lv_calendar.c ****     }
 825              		.loc 1 128 9 view .LVU264
 826 002c FFF7FEFF 		bl	lv_btnmatrix_set_btn_ctrl
 827              	.LVL77:
 127:Drivers/lvgl/src/extra/widgets/calendar/lv_calendar.c ****         lv_btnmatrix_set_btn_ctrl(calendar->btnm, i, LV_BTNMATRIX_CTRL_DISABLED);
 828              		.loc 1 127 24 is_stmt 1 discriminator 3 view .LVU265
 127:Drivers/lvgl/src/extra/widgets/calendar/lv_calendar.c ****         lv_btnmatrix_set_btn_ctrl(calendar->btnm, i, LV_BTNMATRIX_CTRL_DISABLED);
ARM GAS  /var/folders/lp/x54gwt890xv47sdkqj1k04q40000gn/T//ccqoIkMQ.s 			page 26


 829              		.loc 1 127 18 discriminator 1 view .LVU266
 830 0030 072D     		cmp	r5, #7
 831 0032 F7D1     		bne	.L58
 131:Drivers/lvgl/src/extra/widgets/calendar/lv_calendar.c ****     uint8_t day_first = get_day_of_week(d.year, d.month, 1);
 832              		.loc 1 131 5 view .LVU267
 833 0034 1FFA89F9 		uxth	r9, r9
 834              	.LVL78:
 131:Drivers/lvgl/src/extra/widgets/calendar/lv_calendar.c ****     uint8_t day_first = get_day_of_week(d.year, d.month, 1);
 835              		.loc 1 131 26 is_stmt 0 view .LVU268
 836 0038 5946     		mov	r1, fp
 837 003a 4846     		mov	r0, r9
 838 003c FFF7FEFF 		bl	get_month_length
 839              	.LVL79:
 132:Drivers/lvgl/src/extra/widgets/calendar/lv_calendar.c ****     uint8_t c;
 840              		.loc 1 132 5 is_stmt 1 view .LVU269
 841              	.LBB27:
 842              	.LBI27:
 364:Drivers/lvgl/src/extra/widgets/calendar/lv_calendar.c **** {
 843              		.loc 1 364 16 view .LVU270
 844              	.LBB28:
 366:Drivers/lvgl/src/extra/widgets/calendar/lv_calendar.c ****     uint32_t b = year - a;
 845              		.loc 1 366 5 view .LVU271
 366:Drivers/lvgl/src/extra/widgets/calendar/lv_calendar.c ****     uint32_t b = year - a;
 846              		.loc 1 366 32 is_stmt 0 view .LVU272
 847 0040 BBF1020F 		cmp	fp, #2
 848 0044 8CBF     		ite	hi
 849 0046 0021     		movhi	r1, #0
 850 0048 0121     		movls	r1, #1
 851              	.LVL80:
 367:Drivers/lvgl/src/extra/widgets/calendar/lv_calendar.c **** 
 852              		.loc 1 367 5 is_stmt 1 view .LVU273
 372:Drivers/lvgl/src/extra/widgets/calendar/lv_calendar.c **** #endif
 853              		.loc 1 372 99 is_stmt 0 view .LVU274
 854 004a 654D     		ldr	r5, .L83
 855              	.LVL81:
 372:Drivers/lvgl/src/extra/widgets/calendar/lv_calendar.c **** #endif
 856              		.loc 1 372 57 view .LVU275
 857 004c 0029     		cmp	r1, #0
 367:Drivers/lvgl/src/extra/widgets/calendar/lv_calendar.c **** 
 858              		.loc 1 367 14 view .LVU276
 859 004e A9EB0101 		sub	r1, r9, r1
 860              	.LVL82:
 372:Drivers/lvgl/src/extra/widgets/calendar/lv_calendar.c **** #endif
 861              		.loc 1 372 5 is_stmt 1 view .LVU277
 372:Drivers/lvgl/src/extra/widgets/calendar/lv_calendar.c **** #endif
 862              		.loc 1 372 99 is_stmt 0 view .LVU278
 863 0052 A5FB0135 		umull	r3, r5, r5, r1
 372:Drivers/lvgl/src/extra/widgets/calendar/lv_calendar.c **** #endif
 864              		.loc 1 372 57 view .LVU279
 865 0056 14BF     		ite	ne
 866 0058 0C23     		movne	r3, #12
 867 005a 0023     		moveq	r3, #0
 372:Drivers/lvgl/src/extra/widgets/calendar/lv_calendar.c **** #endif
 868              		.loc 1 372 52 view .LVU280
 869 005c 5B44     		add	r3, r3, fp
 372:Drivers/lvgl/src/extra/widgets/calendar/lv_calendar.c **** #endif
 870              		.loc 1 372 39 view .LVU281
ARM GAS  /var/folders/lp/x54gwt890xv47sdkqj1k04q40000gn/T//ccqoIkMQ.s 			page 27


 871 005e C3EB4313 		rsb	r3, r3, r3, lsl #5
 872 0062 A3F13E02 		sub	r2, r3, #62
 372:Drivers/lvgl/src/extra/widgets/calendar/lv_calendar.c **** #endif
 873              		.loc 1 372 94 view .LVU282
 874 0066 4B1C     		adds	r3, r1, #1
 875 0068 03EB9103 		add	r3, r3, r1, lsr #2
 372:Drivers/lvgl/src/extra/widgets/calendar/lv_calendar.c **** #endif
 876              		.loc 1 372 62 view .LVU283
 877 006c 5D49     		ldr	r1, .L83+4
 878              	.LVL83:
 372:Drivers/lvgl/src/extra/widgets/calendar/lv_calendar.c **** #endif
 879              		.loc 1 372 94 view .LVU284
 880 006e 03EBD513 		add	r3, r3, r5, lsr #7
 372:Drivers/lvgl/src/extra/widgets/calendar/lv_calendar.c **** #endif
 881              		.loc 1 372 62 view .LVU285
 882 0072 A1FB0212 		umull	r1, r2, r1, r2
 372:Drivers/lvgl/src/extra/widgets/calendar/lv_calendar.c **** #endif
 883              		.loc 1 372 94 view .LVU286
 884 0076 A3EB5513 		sub	r3, r3, r5, lsr #5
 885 007a 03EBD203 		add	r3, r3, r2, lsr #3
 372:Drivers/lvgl/src/extra/widgets/calendar/lv_calendar.c **** #endif
 886              		.loc 1 372 14 view .LVU287
 887 007e 5A4A     		ldr	r2, .L83+8
 888 0080 A2FB0312 		umull	r1, r2, r2, r3
 889 0084 991A     		subs	r1, r3, r2
 890 0086 02EB5102 		add	r2, r2, r1, lsr #1
 891 008a 9208     		lsrs	r2, r2, #2
 892 008c C2EBC202 		rsb	r2, r2, r2, lsl #3
 893 0090 9A1A     		subs	r2, r3, r2
 894              	.LVL84:
 375:Drivers/lvgl/src/extra/widgets/calendar/lv_calendar.c **** }
 895              		.loc 1 375 5 is_stmt 1 view .LVU288
 896              	.LBE28:
 897              	.LBE27:
 134:Drivers/lvgl/src/extra/widgets/calendar/lv_calendar.c ****         lv_snprintf(calendar->nums[i], sizeof(calendar->nums[0]), "%d", c);
 898              		.loc 1 134 46 is_stmt 0 discriminator 1 view .LVU289
 899 0092 8718     		adds	r7, r0, r2
 900              	.LBB31:
 901              	.LBB29:
 375:Drivers/lvgl/src/extra/widgets/calendar/lv_calendar.c **** }
 902              		.loc 1 375 12 view .LVU290
 903 0094 D3B2     		uxtb	r3, r2
 904              	.LBE29:
 905              	.LBE31:
 134:Drivers/lvgl/src/extra/widgets/calendar/lv_calendar.c ****         lv_snprintf(calendar->nums[i], sizeof(calendar->nums[0]), "%d", c);
 906              		.loc 1 134 33 discriminator 1 view .LVU291
 907 0096 BA42     		cmp	r2, r7
 908              	.LBB32:
 909              	.LBB30:
 375:Drivers/lvgl/src/extra/widgets/calendar/lv_calendar.c **** }
 910              		.loc 1 375 12 view .LVU292
 911 0098 0393     		str	r3, [sp, #12]
 912              	.LVL85:
 375:Drivers/lvgl/src/extra/widgets/calendar/lv_calendar.c **** }
 913              		.loc 1 375 12 view .LVU293
 914              	.LBE30:
 915              	.LBE32:
ARM GAS  /var/folders/lp/x54gwt890xv47sdkqj1k04q40000gn/T//ccqoIkMQ.s 			page 28


 133:Drivers/lvgl/src/extra/widgets/calendar/lv_calendar.c ****     for(i = day_first, c = 1; i < act_mo_len + day_first; i++, c++) {
 916              		.loc 1 133 5 is_stmt 1 view .LVU294
 134:Drivers/lvgl/src/extra/widgets/calendar/lv_calendar.c ****         lv_snprintf(calendar->nums[i], sizeof(calendar->nums[0]), "%d", c);
 917              		.loc 1 134 5 view .LVU295
 134:Drivers/lvgl/src/extra/widgets/calendar/lv_calendar.c ****         lv_snprintf(calendar->nums[i], sizeof(calendar->nums[0]), "%d", c);
 918              		.loc 1 134 33 discriminator 1 view .LVU296
 919 009a 80F09080 		bcs	.L59
 920 009e 02F14606 		add	r6, r2, #70
 135:Drivers/lvgl/src/extra/widgets/calendar/lv_calendar.c ****     }
 921              		.loc 1 135 9 is_stmt 0 view .LVU297
 922 00a2 DFF848A1 		ldr	r10, .L83+12
 923 00a6 CDF804B0 		str	fp, [sp, #4]
 924 00aa 04EB8606 		add	r6, r4, r6, lsl #2
 134:Drivers/lvgl/src/extra/widgets/calendar/lv_calendar.c ****         lv_snprintf(calendar->nums[i], sizeof(calendar->nums[0]), "%d", c);
 925              		.loc 1 134 11 view .LVU298
 926 00ae 1546     		mov	r5, r2
 927 00b0 C3F10108 		rsb	r8, r3, #1
 928 00b4 9346     		mov	fp, r2
 929              	.LVL86:
 930              	.L60:
 135:Drivers/lvgl/src/extra/widgets/calendar/lv_calendar.c ****     }
 931              		.loc 1 135 9 is_stmt 1 view .LVU299
 932 00b6 08EB0503 		add	r3, r8, r5
 933 00ba 3046     		mov	r0, r6
 934 00bc DBB2     		uxtb	r3, r3
 935 00be 5246     		mov	r2, r10
 936 00c0 0421     		movs	r1, #4
 134:Drivers/lvgl/src/extra/widgets/calendar/lv_calendar.c ****         lv_snprintf(calendar->nums[i], sizeof(calendar->nums[0]), "%d", c);
 937              		.loc 1 134 60 is_stmt 0 discriminator 3 view .LVU300
 938 00c2 0135     		adds	r5, r5, #1
 939              	.LVL87:
 135:Drivers/lvgl/src/extra/widgets/calendar/lv_calendar.c ****     }
 940              		.loc 1 135 9 view .LVU301
 941 00c4 FFF7FEFF 		bl	lv_snprintf
 942              	.LVL88:
 134:Drivers/lvgl/src/extra/widgets/calendar/lv_calendar.c ****         lv_snprintf(calendar->nums[i], sizeof(calendar->nums[0]), "%d", c);
 943              		.loc 1 134 62 is_stmt 1 discriminator 3 view .LVU302
 134:Drivers/lvgl/src/extra/widgets/calendar/lv_calendar.c ****         lv_snprintf(calendar->nums[i], sizeof(calendar->nums[0]), "%d", c);
 944              		.loc 1 134 33 discriminator 1 view .LVU303
 945 00c8 BD42     		cmp	r5, r7
 946 00ca 06F10406 		add	r6, r6, #4
 947 00ce F2D1     		bne	.L60
 138:Drivers/lvgl/src/extra/widgets/calendar/lv_calendar.c ****     for(i = 0, c = prev_mo_len - day_first + 1; i < day_first; i++, c++) {
 948              		.loc 1 138 5 view .LVU304
 138:Drivers/lvgl/src/extra/widgets/calendar/lv_calendar.c ****     for(i = 0, c = prev_mo_len - day_first + 1; i < day_first; i++, c++) {
 949              		.loc 1 138 27 is_stmt 0 view .LVU305
 950 00d0 CDF808B0 		str	fp, [sp, #8]
 951 00d4 DDF804B0 		ldr	fp, [sp, #4]
 952 00d8 4846     		mov	r0, r9
 953 00da 0BF1FF31 		add	r1, fp, #-1
 954 00de FFF7FEFF 		bl	get_month_length
 955              	.LVL89:
 139:Drivers/lvgl/src/extra/widgets/calendar/lv_calendar.c ****         lv_snprintf(calendar->nums[i], sizeof(calendar->nums[0]), "%d", c);
 956              		.loc 1 139 5 is_stmt 1 view .LVU306
 139:Drivers/lvgl/src/extra/widgets/calendar/lv_calendar.c ****         lv_snprintf(calendar->nums[i], sizeof(calendar->nums[0]), "%d", c);
 957              		.loc 1 139 51 is_stmt 0 discriminator 1 view .LVU307
 958 00e2 029A     		ldr	r2, [sp, #8]
ARM GAS  /var/folders/lp/x54gwt890xv47sdkqj1k04q40000gn/T//ccqoIkMQ.s 			page 29


 139:Drivers/lvgl/src/extra/widgets/calendar/lv_calendar.c ****         lv_snprintf(calendar->nums[i], sizeof(calendar->nums[0]), "%d", c);
 959              		.loc 1 139 18 view .LVU308
 960 00e4 00EB0809 		add	r9, r0, r8
 961 00e8 5FFA89F9 		uxtb	r9, r9
 962              	.LVL90:
 139:Drivers/lvgl/src/extra/widgets/calendar/lv_calendar.c ****         lv_snprintf(calendar->nums[i], sizeof(calendar->nums[0]), "%d", c);
 963              		.loc 1 139 51 is_stmt 1 discriminator 1 view .LVU309
 964 00ec F2B1     		cbz	r2, .L61
 965              	.LVL91:
 966              	.L69:
 139:Drivers/lvgl/src/extra/widgets/calendar/lv_calendar.c ****         lv_snprintf(calendar->nums[i], sizeof(calendar->nums[0]), "%d", c);
 967              		.loc 1 139 51 is_stmt 0 discriminator 1 view .LVU310
 968 00ee 0732     		adds	r2, r2, #7
 969 00f0 A9F10709 		sub	r9, r9, #7
 140:Drivers/lvgl/src/extra/widgets/calendar/lv_calendar.c ****         lv_btnmatrix_set_btn_ctrl(calendar->btnm, i + 7, LV_BTNMATRIX_CTRL_DISABLED);
 970              		.loc 1 140 9 view .LVU311
 971 00f4 DFF8F4A0 		ldr	r10, .L83+12
 972 00f8 1FFA82F8 		uxth	r8, r2
 973 00fc 5FFA89F9 		uxtb	r9, r9
 974 0100 04F58C76 		add	r6, r4, #280
 134:Drivers/lvgl/src/extra/widgets/calendar/lv_calendar.c ****         lv_snprintf(calendar->nums[i], sizeof(calendar->nums[0]), "%d", c);
 975              		.loc 1 134 11 view .LVU312
 976 0104 0725     		movs	r5, #7
 977              	.LVL92:
 978              	.L62:
 140:Drivers/lvgl/src/extra/widgets/calendar/lv_calendar.c ****         lv_btnmatrix_set_btn_ctrl(calendar->btnm, i + 7, LV_BTNMATRIX_CTRL_DISABLED);
 979              		.loc 1 140 9 is_stmt 1 view .LVU313
 980 0106 09EB0503 		add	r3, r9, r5
 981 010a DBB2     		uxtb	r3, r3
 982 010c 5246     		mov	r2, r10
 983 010e 0421     		movs	r1, #4
 984 0110 3046     		mov	r0, r6
 985 0112 FFF7FEFF 		bl	lv_snprintf
 986              	.LVL93:
 141:Drivers/lvgl/src/extra/widgets/calendar/lv_calendar.c ****     }
 987              		.loc 1 141 9 view .LVU314
 988 0116 2946     		mov	r1, r5
 139:Drivers/lvgl/src/extra/widgets/calendar/lv_calendar.c ****         lv_snprintf(calendar->nums[i], sizeof(calendar->nums[0]), "%d", c);
 989              		.loc 1 139 51 is_stmt 0 discriminator 1 view .LVU315
 990 0118 0135     		adds	r5, r5, #1
 991              	.LVL94:
 141:Drivers/lvgl/src/extra/widgets/calendar/lv_calendar.c ****     }
 992              		.loc 1 141 9 view .LVU316
 993 011a 606A     		ldr	r0, [r4, #36]
 994 011c 4022     		movs	r2, #64
 139:Drivers/lvgl/src/extra/widgets/calendar/lv_calendar.c ****         lv_snprintf(calendar->nums[i], sizeof(calendar->nums[0]), "%d", c);
 995              		.loc 1 139 51 discriminator 1 view .LVU317
 996 011e ADB2     		uxth	r5, r5
 141:Drivers/lvgl/src/extra/widgets/calendar/lv_calendar.c ****     }
 997              		.loc 1 141 9 view .LVU318
 998 0120 FFF7FEFF 		bl	lv_btnmatrix_set_btn_ctrl
 999              	.LVL95:
 139:Drivers/lvgl/src/extra/widgets/calendar/lv_calendar.c ****         lv_snprintf(calendar->nums[i], sizeof(calendar->nums[0]), "%d", c);
 1000              		.loc 1 139 67 is_stmt 1 discriminator 3 view .LVU319
 139:Drivers/lvgl/src/extra/widgets/calendar/lv_calendar.c ****         lv_snprintf(calendar->nums[i], sizeof(calendar->nums[0]), "%d", c);
 1001              		.loc 1 139 51 discriminator 1 view .LVU320
 1002 0124 4545     		cmp	r5, r8
ARM GAS  /var/folders/lp/x54gwt890xv47sdkqj1k04q40000gn/T//ccqoIkMQ.s 			page 30


 1003 0126 06F10406 		add	r6, r6, #4
 1004 012a ECD1     		bne	.L62
 1005              	.LVL96:
 1006              	.L61:
 144:Drivers/lvgl/src/extra/widgets/calendar/lv_calendar.c ****         lv_snprintf(calendar->nums[i], sizeof(calendar->nums[0]), "%d", c);
 1007              		.loc 1 144 46 discriminator 1 view .LVU321
 1008 012c 292F     		cmp	r7, #41
 1009 012e 1BDC     		bgt	.L63
 1010              	.LVL97:
 1011              	.L70:
 144:Drivers/lvgl/src/extra/widgets/calendar/lv_calendar.c ****         lv_snprintf(calendar->nums[i], sizeof(calendar->nums[0]), "%d", c);
 1012              		.loc 1 144 46 is_stmt 0 discriminator 1 view .LVU322
 1013 0130 07F14605 		add	r5, r7, #70
 1014 0134 07F10609 		add	r9, r7, #6
 145:Drivers/lvgl/src/extra/widgets/calendar/lv_calendar.c ****         lv_btnmatrix_set_btn_ctrl(calendar->btnm, i + 7, LV_BTNMATRIX_CTRL_DISABLED);
 1015              		.loc 1 145 9 view .LVU323
 1016 0138 2C4F     		ldr	r7, .L83+12
 1017 013a 04EB8505 		add	r5, r4, r5, lsl #2
 1018 013e 04F5E078 		add	r8, r4, #448
 134:Drivers/lvgl/src/extra/widgets/calendar/lv_calendar.c ****         lv_snprintf(calendar->nums[i], sizeof(calendar->nums[0]), "%d", c);
 1019              		.loc 1 134 11 view .LVU324
 1020 0142 0126     		movs	r6, #1
 1021              	.LVL98:
 1022              	.L64:
 145:Drivers/lvgl/src/extra/widgets/calendar/lv_calendar.c ****         lv_btnmatrix_set_btn_ctrl(calendar->btnm, i + 7, LV_BTNMATRIX_CTRL_DISABLED);
 1023              		.loc 1 145 9 is_stmt 1 view .LVU325
 1024 0144 3346     		mov	r3, r6
 1025 0146 3A46     		mov	r2, r7
 1026 0148 0421     		movs	r1, #4
 1027 014a 2846     		mov	r0, r5
 1028 014c FFF7FEFF 		bl	lv_snprintf
 1029              	.LVL99:
 146:Drivers/lvgl/src/extra/widgets/calendar/lv_calendar.c ****     }
 1030              		.loc 1 146 9 view .LVU326
 1031 0150 09EB0601 		add	r1, r9, r6
 1032 0154 606A     		ldr	r0, [r4, #36]
 1033 0156 4022     		movs	r2, #64
 1034 0158 89B2     		uxth	r1, r1
 144:Drivers/lvgl/src/extra/widgets/calendar/lv_calendar.c ****         lv_snprintf(calendar->nums[i], sizeof(calendar->nums[0]), "%d", c);
 1035              		.loc 1 144 46 is_stmt 0 discriminator 1 view .LVU327
 1036 015a 0435     		adds	r5, r5, #4
 146:Drivers/lvgl/src/extra/widgets/calendar/lv_calendar.c ****     }
 1037              		.loc 1 146 9 view .LVU328
 1038 015c FFF7FEFF 		bl	lv_btnmatrix_set_btn_ctrl
 1039              	.LVL100:
 144:Drivers/lvgl/src/extra/widgets/calendar/lv_calendar.c ****         lv_snprintf(calendar->nums[i], sizeof(calendar->nums[0]), "%d", c);
 1040              		.loc 1 144 58 is_stmt 1 discriminator 3 view .LVU329
 144:Drivers/lvgl/src/extra/widgets/calendar/lv_calendar.c ****         lv_snprintf(calendar->nums[i], sizeof(calendar->nums[0]), "%d", c);
 1041              		.loc 1 144 46 discriminator 1 view .LVU330
 1042 0160 A845     		cmp	r8, r5
 1043 0162 06F10106 		add	r6, r6, #1
 1044              	.LVL101:
 144:Drivers/lvgl/src/extra/widgets/calendar/lv_calendar.c ****         lv_snprintf(calendar->nums[i], sizeof(calendar->nums[0]), "%d", c);
 1045              		.loc 1 144 46 is_stmt 0 discriminator 1 view .LVU331
 1046 0166 EDD1     		bne	.L64
 1047              	.LVL102:
 1048              	.L63:
ARM GAS  /var/folders/lp/x54gwt890xv47sdkqj1k04q40000gn/T//ccqoIkMQ.s 			page 31


 149:Drivers/lvgl/src/extra/widgets/calendar/lv_calendar.c **** 
 1049              		.loc 1 149 5 is_stmt 1 view .LVU332
 1050 0168 2046     		mov	r0, r4
 1051 016a FFF7FEFF 		bl	highlight_update
 1052              	.LVL103:
 152:Drivers/lvgl/src/extra/widgets/calendar/lv_calendar.c ****         lv_btnmatrix_set_selected_btn(calendar->btnm, day_first + 7);
 1053              		.loc 1 152 5 view .LVU333
 152:Drivers/lvgl/src/extra/widgets/calendar/lv_calendar.c ****         lv_btnmatrix_set_selected_btn(calendar->btnm, day_first + 7);
 1054              		.loc 1 152 8 is_stmt 0 view .LVU334
 1055 016e 606A     		ldr	r0, [r4, #36]
 1056 0170 FFF7FEFF 		bl	lv_btnmatrix_get_selected_btn
 1057              	.LVL104:
 152:Drivers/lvgl/src/extra/widgets/calendar/lv_calendar.c ****         lv_btnmatrix_set_selected_btn(calendar->btnm, day_first + 7);
 1058              		.loc 1 152 7 discriminator 1 view .LVU335
 1059 0174 4FF6FF73 		movw	r3, #65535
 1060 0178 9842     		cmp	r0, r3
 1061 017a 05D0     		beq	.L65
 153:Drivers/lvgl/src/extra/widgets/calendar/lv_calendar.c ****     }
 1062              		.loc 1 153 9 is_stmt 1 view .LVU336
 1063 017c 0399     		ldr	r1, [sp, #12]
 1064 017e 606A     		ldr	r0, [r4, #36]
 1065 0180 0731     		adds	r1, r1, #7
 1066 0182 C9B2     		uxtb	r1, r1
 1067 0184 FFF7FEFF 		bl	lv_btnmatrix_set_selected_btn
 1068              	.LVL105:
 1069              	.L65:
 156:Drivers/lvgl/src/extra/widgets/calendar/lv_calendar.c **** 
 1070              		.loc 1 156 5 view .LVU337
 1071 0188 2046     		mov	r0, r4
 1072 018a FFF7FEFF 		bl	lv_obj_invalidate
 1073              	.LVL106:
 160:Drivers/lvgl/src/extra/widgets/calendar/lv_calendar.c ****     for(i = 0; i < child_cnt; i++) {
 1074              		.loc 1 160 5 view .LVU338
 160:Drivers/lvgl/src/extra/widgets/calendar/lv_calendar.c ****     for(i = 0; i < child_cnt; i++) {
 1075              		.loc 1 160 26 is_stmt 0 view .LVU339
 1076 018e 2046     		mov	r0, r4
 1077 0190 FFF7FEFF 		bl	lv_obj_get_child_cnt
 1078              	.LVL107:
 161:Drivers/lvgl/src/extra/widgets/calendar/lv_calendar.c ****         lv_obj_t * child = lv_obj_get_child(obj, i);
 1079              		.loc 1 161 5 is_stmt 1 view .LVU340
 161:Drivers/lvgl/src/extra/widgets/calendar/lv_calendar.c ****         lv_obj_t * child = lv_obj_get_child(obj, i);
 1080              		.loc 1 161 18 discriminator 1 view .LVU341
 1081 0194 0646     		mov	r6, r0
 1082 0196 78B1     		cbz	r0, .L57
 161:Drivers/lvgl/src/extra/widgets/calendar/lv_calendar.c ****         lv_obj_t * child = lv_obj_get_child(obj, i);
 1083              		.loc 1 161 11 is_stmt 0 view .LVU342
 1084 0198 0025     		movs	r5, #0
 1085              	.LVL108:
 1086              	.L68:
 1087              	.LBB33:
 162:Drivers/lvgl/src/extra/widgets/calendar/lv_calendar.c ****         if(child == calendar->btnm) continue;
 1088              		.loc 1 162 9 is_stmt 1 view .LVU343
 162:Drivers/lvgl/src/extra/widgets/calendar/lv_calendar.c ****         if(child == calendar->btnm) continue;
 1089              		.loc 1 162 28 is_stmt 0 view .LVU344
 1090 019a 2946     		mov	r1, r5
 1091 019c 2046     		mov	r0, r4
 1092 019e FFF7FEFF 		bl	lv_obj_get_child
ARM GAS  /var/folders/lp/x54gwt890xv47sdkqj1k04q40000gn/T//ccqoIkMQ.s 			page 32


 1093              	.LVL109:
 164:Drivers/lvgl/src/extra/widgets/calendar/lv_calendar.c ****     }
 1094              		.loc 1 164 9 is_stmt 1 view .LVU345
 163:Drivers/lvgl/src/extra/widgets/calendar/lv_calendar.c ****         lv_event_send(child, LV_EVENT_VALUE_CHANGED, obj);
 1095              		.loc 1 163 9 view .LVU346
 163:Drivers/lvgl/src/extra/widgets/calendar/lv_calendar.c ****         lv_event_send(child, LV_EVENT_VALUE_CHANGED, obj);
 1096              		.loc 1 163 11 is_stmt 0 view .LVU347
 1097 01a2 636A     		ldr	r3, [r4, #36]
 1098 01a4 8342     		cmp	r3, r0
 164:Drivers/lvgl/src/extra/widgets/calendar/lv_calendar.c ****     }
 1099              		.loc 1 164 9 view .LVU348
 1100 01a6 4FF01C01 		mov	r1, #28
 1101 01aa 2246     		mov	r2, r4
 163:Drivers/lvgl/src/extra/widgets/calendar/lv_calendar.c ****         lv_event_send(child, LV_EVENT_VALUE_CHANGED, obj);
 1102              		.loc 1 163 11 view .LVU349
 1103 01ac 01D0     		beq	.L67
 1104              	.LVL110:
 164:Drivers/lvgl/src/extra/widgets/calendar/lv_calendar.c ****     }
 1105              		.loc 1 164 9 view .LVU350
 1106 01ae FFF7FEFF 		bl	lv_event_send
 1107              	.LVL111:
 1108              	.L67:
 164:Drivers/lvgl/src/extra/widgets/calendar/lv_calendar.c ****     }
 1109              		.loc 1 164 9 view .LVU351
 1110              	.LBE33:
 161:Drivers/lvgl/src/extra/widgets/calendar/lv_calendar.c ****         lv_obj_t * child = lv_obj_get_child(obj, i);
 1111              		.loc 1 161 32 is_stmt 1 discriminator 2 view .LVU352
 1112 01b2 0135     		adds	r5, r5, #1
 1113              	.LVL112:
 161:Drivers/lvgl/src/extra/widgets/calendar/lv_calendar.c ****         lv_obj_t * child = lv_obj_get_child(obj, i);
 1114              		.loc 1 161 18 discriminator 1 view .LVU353
 1115 01b4 AE42     		cmp	r6, r5
 1116 01b6 F0D1     		bne	.L68
 1117              	.LVL113:
 1118              	.L57:
 166:Drivers/lvgl/src/extra/widgets/calendar/lv_calendar.c **** 
 1119              		.loc 1 166 1 is_stmt 0 view .LVU354
 1120 01b8 05B0     		add	sp, sp, #20
 1121              		.cfi_remember_state
 1122              		.cfi_def_cfa_offset 36
 1123              		@ sp needed
 1124 01ba BDE8F08F 		pop	{r4, r5, r6, r7, r8, r9, r10, fp, pc}
 1125              	.LVL114:
 1126              	.L59:
 1127              		.cfi_restore_state
 138:Drivers/lvgl/src/extra/widgets/calendar/lv_calendar.c ****     for(i = 0, c = prev_mo_len - day_first + 1; i < day_first; i++, c++) {
 1128              		.loc 1 138 5 is_stmt 1 view .LVU355
 138:Drivers/lvgl/src/extra/widgets/calendar/lv_calendar.c ****     for(i = 0, c = prev_mo_len - day_first + 1; i < day_first; i++, c++) {
 1129              		.loc 1 138 27 is_stmt 0 view .LVU356
 1130 01be 4846     		mov	r0, r9
 1131              	.LVL115:
 138:Drivers/lvgl/src/extra/widgets/calendar/lv_calendar.c ****     for(i = 0, c = prev_mo_len - day_first + 1; i < day_first; i++, c++) {
 1132              		.loc 1 138 27 view .LVU357
 1133 01c0 0BF1FF31 		add	r1, fp, #-1
 1134 01c4 0192     		str	r2, [sp, #4]
 1135 01c6 FFF7FEFF 		bl	get_month_length
 1136              	.LVL116:
ARM GAS  /var/folders/lp/x54gwt890xv47sdkqj1k04q40000gn/T//ccqoIkMQ.s 			page 33


 139:Drivers/lvgl/src/extra/widgets/calendar/lv_calendar.c ****         lv_snprintf(calendar->nums[i], sizeof(calendar->nums[0]), "%d", c);
 1137              		.loc 1 139 5 is_stmt 1 view .LVU358
 139:Drivers/lvgl/src/extra/widgets/calendar/lv_calendar.c ****         lv_snprintf(calendar->nums[i], sizeof(calendar->nums[0]), "%d", c);
 1138              		.loc 1 139 18 is_stmt 0 view .LVU359
 1139 01ca 039B     		ldr	r3, [sp, #12]
 139:Drivers/lvgl/src/extra/widgets/calendar/lv_calendar.c ****         lv_snprintf(calendar->nums[i], sizeof(calendar->nums[0]), "%d", c);
 1140              		.loc 1 139 51 discriminator 1 view .LVU360
 1141 01cc 019A     		ldr	r2, [sp, #4]
 139:Drivers/lvgl/src/extra/widgets/calendar/lv_calendar.c ****         lv_snprintf(calendar->nums[i], sizeof(calendar->nums[0]), "%d", c);
 1142              		.loc 1 139 18 view .LVU361
 1143 01ce C3F10103 		rsb	r3, r3, #1
 1144 01d2 00EB0309 		add	r9, r0, r3
 1145 01d6 5FFA89F9 		uxtb	r9, r9
 1146              	.LVL117:
 139:Drivers/lvgl/src/extra/widgets/calendar/lv_calendar.c ****         lv_snprintf(calendar->nums[i], sizeof(calendar->nums[0]), "%d", c);
 1147              		.loc 1 139 51 is_stmt 1 discriminator 1 view .LVU362
 1148 01da 002A     		cmp	r2, #0
 1149 01dc 87D1     		bne	.L69
 1150 01de A7E7     		b	.L70
 1151              	.L84:
 1152              		.align	2
 1153              	.L83:
 1154 01e0 1F85EB51 		.word	1374389535
 1155 01e4 ABAAAAAA 		.word	-1431655765
 1156 01e8 25499224 		.word	613566757
 1157 01ec 00000000 		.word	.LC0
 1158              		.cfi_endproc
 1159              	.LFE208:
 1161              		.section	.rodata.lv_calendar_constructor.str1.4,"aMS",%progbits,1
 1162              		.align	2
 1163              	.LC1:
 1164 0000 0A00     		.ascii	"\012\000"
 1165 0002 0000     		.align	2
 1166              	.LC2:
 1167 0004 537500   		.ascii	"Su\000"
 1168 0007 00       		.align	2
 1169              	.LC3:
 1170 0008 00       		.ascii	"\000"
 1171              		.section	.text.lv_calendar_constructor,"ax",%progbits
 1172              		.align	1
 1173              		.p2align 2,,3
 1174              		.syntax unified
 1175              		.thumb
 1176              		.thumb_func
 1178              	lv_calendar_constructor:
 1179              	.LVL118:
 1180              	.LFB215:
 241:Drivers/lvgl/src/extra/widgets/calendar/lv_calendar.c ****     LV_UNUSED(class_p);
 1181              		.loc 1 241 1 view -0
 1182              		.cfi_startproc
 1183              		@ args = 0, pretend = 0, frame = 0
 1184              		@ frame_needed = 0, uses_anonymous_args = 0
 242:Drivers/lvgl/src/extra/widgets/calendar/lv_calendar.c ****     lv_calendar_t * calendar = (lv_calendar_t *)obj;
 1185              		.loc 1 242 5 view .LVU364
 243:Drivers/lvgl/src/extra/widgets/calendar/lv_calendar.c **** 
 1186              		.loc 1 243 5 view .LVU365
 246:Drivers/lvgl/src/extra/widgets/calendar/lv_calendar.c ****     calendar->today.month = 1;
ARM GAS  /var/folders/lp/x54gwt890xv47sdkqj1k04q40000gn/T//ccqoIkMQ.s 			page 34


 1187              		.loc 1 246 27 is_stmt 0 view .LVU366
 1188 0000 384B     		ldr	r3, .L97
 241:Drivers/lvgl/src/extra/widgets/calendar/lv_calendar.c ****     LV_UNUSED(class_p);
 1189              		.loc 1 241 1 view .LVU367
 1190 0002 2DE9F041 		push	{r4, r5, r6, r7, r8, lr}
 1191              		.cfi_def_cfa_offset 24
 1192              		.cfi_offset 4, -24
 1193              		.cfi_offset 5, -20
 1194              		.cfi_offset 6, -16
 1195              		.cfi_offset 7, -12
 1196              		.cfi_offset 8, -8
 1197              		.cfi_offset 14, -4
 254:Drivers/lvgl/src/extra/widgets/calendar/lv_calendar.c ****     calendar->highlighted_dates_num  = 0;
 1198              		.loc 1 254 38 view .LVU368
 1199 0006 0024     		movs	r4, #0
 241:Drivers/lvgl/src/extra/widgets/calendar/lv_calendar.c ****     LV_UNUSED(class_p);
 1200              		.loc 1 241 1 view .LVU369
 1201 0008 0D46     		mov	r5, r1
 1202              	.LVL119:
 246:Drivers/lvgl/src/extra/widgets/calendar/lv_calendar.c ****     calendar->today.month = 1;
 1203              		.loc 1 246 5 is_stmt 1 view .LVU370
 247:Drivers/lvgl/src/extra/widgets/calendar/lv_calendar.c ****     calendar->today.day   = 1;
 1204              		.loc 1 247 5 view .LVU371
 248:Drivers/lvgl/src/extra/widgets/calendar/lv_calendar.c **** 
 1205              		.loc 1 248 5 view .LVU372
 250:Drivers/lvgl/src/extra/widgets/calendar/lv_calendar.c ****     calendar->showed_date.month = 1;
 1206              		.loc 1 250 5 view .LVU373
 251:Drivers/lvgl/src/extra/widgets/calendar/lv_calendar.c ****     calendar->showed_date.day   = 1;
 1207              		.loc 1 251 5 view .LVU374
 252:Drivers/lvgl/src/extra/widgets/calendar/lv_calendar.c **** 
 1208              		.loc 1 252 5 view .LVU375
 254:Drivers/lvgl/src/extra/widgets/calendar/lv_calendar.c ****     calendar->highlighted_dates_num  = 0;
 1209              		.loc 1 254 5 view .LVU376
 255:Drivers/lvgl/src/extra/widgets/calendar/lv_calendar.c **** 
 1210              		.loc 1 255 5 view .LVU377
 250:Drivers/lvgl/src/extra/widgets/calendar/lv_calendar.c ****     calendar->showed_date.month = 1;
 1211              		.loc 1 250 33 is_stmt 0 view .LVU378
 1212 000a C1E90A33 		strd	r3, r3, [r1, #40]
 254:Drivers/lvgl/src/extra/widgets/calendar/lv_calendar.c ****     calendar->highlighted_dates_num  = 0;
 1213              		.loc 1 254 38 view .LVU379
 1214 000e 0C63     		str	r4, [r1, #48]
 255:Drivers/lvgl/src/extra/widgets/calendar/lv_calendar.c **** 
 1215              		.loc 1 255 38 view .LVU380
 1216 0010 8C86     		strh	r4, [r1, #52]	@ movhi
 257:Drivers/lvgl/src/extra/widgets/calendar/lv_calendar.c ****     uint8_t i;
 1217              		.loc 1 257 5 is_stmt 1 view .LVU381
 1218 0012 05F58C70 		add	r0, r5, #280
 1219              	.LVL120:
 257:Drivers/lvgl/src/extra/widgets/calendar/lv_calendar.c ****     uint8_t i;
 1220              		.loc 1 257 5 is_stmt 0 view .LVU382
 1221 0016 A821     		movs	r1, #168
 1222              	.LVL121:
 257:Drivers/lvgl/src/extra/widgets/calendar/lv_calendar.c ****     uint8_t i;
 1223              		.loc 1 257 5 view .LVU383
 1224 0018 FFF7FEFF 		bl	lv_memset_00
 1225              	.LVL122:
 258:Drivers/lvgl/src/extra/widgets/calendar/lv_calendar.c ****     uint8_t j = 0;
ARM GAS  /var/folders/lp/x54gwt890xv47sdkqj1k04q40000gn/T//ccqoIkMQ.s 			page 35


 1226              		.loc 1 258 5 is_stmt 1 view .LVU384
 259:Drivers/lvgl/src/extra/widgets/calendar/lv_calendar.c ****     for(i = 0; i < 8 * 7; i++) {
 1227              		.loc 1 259 5 view .LVU385
 260:Drivers/lvgl/src/extra/widgets/calendar/lv_calendar.c ****         /*Every 8th string is "\n"*/
 1228              		.loc 1 260 5 view .LVU386
 260:Drivers/lvgl/src/extra/widgets/calendar/lv_calendar.c ****         /*Every 8th string is "\n"*/
 1229              		.loc 1 260 18 discriminator 1 view .LVU387
 257:Drivers/lvgl/src/extra/widgets/calendar/lv_calendar.c ****     uint8_t i;
 1230              		.loc 1 257 5 is_stmt 0 view .LVU388
 1231 001c 2246     		mov	r2, r4
 266:Drivers/lvgl/src/extra/widgets/calendar/lv_calendar.c ****         }
 1232              		.loc 1 266 30 view .LVU389
 1233 001e 324E     		ldr	r6, .L97+4
 1234 0020 324F     		ldr	r7, .L97+8
 266:Drivers/lvgl/src/extra/widgets/calendar/lv_calendar.c ****         }
 1235              		.loc 1 266 45 view .LVU390
 1236 0022 DFF8D480 		ldr	r8, .L97+20
 1237 0026 05F13404 		add	r4, r5, #52
 259:Drivers/lvgl/src/extra/widgets/calendar/lv_calendar.c ****     for(i = 0; i < 8 * 7; i++) {
 1238              		.loc 1 259 13 view .LVU391
 1239 002a 9446     		mov	ip, r2
 1240              	.LVL123:
 262:Drivers/lvgl/src/extra/widgets/calendar/lv_calendar.c ****             calendar->map[i] = "\n";
 1241              		.loc 1 262 9 is_stmt 1 view .LVU392
 269:Drivers/lvgl/src/extra/widgets/calendar/lv_calendar.c ****             calendar->map[i] = calendar->nums[j];
 1242              		.loc 1 269 34 is_stmt 0 view .LVU393
 1243 002c 4FF0780E 		mov	lr, #120
 1244 0030 531C     		adds	r3, r2, #1
 262:Drivers/lvgl/src/extra/widgets/calendar/lv_calendar.c ****             calendar->map[i] = "\n";
 1245              		.loc 1 262 11 view .LVU394
 1246 0032 B2B1     		cbz	r2, .L86
 1247              	.LVL124:
 1248              	.L95:
 265:Drivers/lvgl/src/extra/widgets/calendar/lv_calendar.c ****             calendar->map[i] = day_names_def[i];
 1249              		.loc 1 265 14 is_stmt 1 view .LVU395
 269:Drivers/lvgl/src/extra/widgets/calendar/lv_calendar.c ****             calendar->map[i] = calendar->nums[j];
 1250              		.loc 1 269 13 view .LVU396
 262:Drivers/lvgl/src/extra/widgets/calendar/lv_calendar.c ****             calendar->map[i] = "\n";
 1251              		.loc 1 262 19 is_stmt 0 discriminator 1 view .LVU397
 1252 0034 13F0070F 		tst	r3, #7
 269:Drivers/lvgl/src/extra/widgets/calendar/lv_calendar.c ****             calendar->map[i] = calendar->nums[j];
 1253              		.loc 1 269 34 view .LVU398
 1254 0038 0CF14600 		add	r0, ip, #70
 271:Drivers/lvgl/src/extra/widgets/calendar/lv_calendar.c ****         }
 1255              		.loc 1 271 14 view .LVU399
 1256 003c 0CF10101 		add	r1, ip, #1
 262:Drivers/lvgl/src/extra/widgets/calendar/lv_calendar.c ****             calendar->map[i] = "\n";
 1257              		.loc 1 262 19 discriminator 1 view .LVU400
 1258 0040 47D0     		beq	.L92
 265:Drivers/lvgl/src/extra/widgets/calendar/lv_calendar.c ****             calendar->map[i] = day_names_def[i];
 1259              		.loc 1 265 16 view .LVU401
 1260 0042 062A     		cmp	r2, #6
 1261 0044 47D9     		bls	.L94
 269:Drivers/lvgl/src/extra/widgets/calendar/lv_calendar.c ****             calendar->map[i] = calendar->nums[j];
 1262              		.loc 1 269 34 view .LVU402
 1263 0046 05F820E0 		strb	lr, [r5, r0, lsl #2]
 270:Drivers/lvgl/src/extra/widgets/calendar/lv_calendar.c ****             j++;
ARM GAS  /var/folders/lp/x54gwt890xv47sdkqj1k04q40000gn/T//ccqoIkMQ.s 			page 36


 1264              		.loc 1 270 13 is_stmt 1 view .LVU403
 271:Drivers/lvgl/src/extra/widgets/calendar/lv_calendar.c ****         }
 1265              		.loc 1 271 14 is_stmt 0 view .LVU404
 1266 004a 5FFA81FC 		uxtb	ip, r1
 1267              	.LVL125:
 270:Drivers/lvgl/src/extra/widgets/calendar/lv_calendar.c ****             j++;
 1268              		.loc 1 270 32 view .LVU405
 1269 004e 05EB8000 		add	r0, r5, r0, lsl #2
 271:Drivers/lvgl/src/extra/widgets/calendar/lv_calendar.c ****         }
 1270              		.loc 1 271 13 is_stmt 1 view .LVU406
 1271              	.LVL126:
 1272              	.L87:
 260:Drivers/lvgl/src/extra/widgets/calendar/lv_calendar.c ****         /*Every 8th string is "\n"*/
 1273              		.loc 1 260 18 is_stmt 0 discriminator 1 view .LVU407
 1274 0052 382B     		cmp	r3, #56
 266:Drivers/lvgl/src/extra/widgets/calendar/lv_calendar.c ****         }
 1275              		.loc 1 266 30 view .LVU408
 1276 0054 44F8040F 		str	r0, [r4, #4]!
 260:Drivers/lvgl/src/extra/widgets/calendar/lv_calendar.c ****         /*Every 8th string is "\n"*/
 1277              		.loc 1 260 28 is_stmt 1 discriminator 2 view .LVU409
 1278              	.LVL127:
 260:Drivers/lvgl/src/extra/widgets/calendar/lv_calendar.c ****         /*Every 8th string is "\n"*/
 1279              		.loc 1 260 18 discriminator 1 view .LVU410
 1280 0058 08D0     		beq	.L90
 1281              	.LVL128:
 241:Drivers/lvgl/src/extra/widgets/calendar/lv_calendar.c ****     LV_UNUSED(class_p);
 1282              		.loc 1 241 1 is_stmt 0 view .LVU411
 1283 005a 1A46     		mov	r2, r3
 1284              	.LVL129:
 1285              	.L96:
 262:Drivers/lvgl/src/extra/widgets/calendar/lv_calendar.c ****             calendar->map[i] = "\n";
 1286              		.loc 1 262 9 is_stmt 1 view .LVU412
 1287 005c 531C     		adds	r3, r2, #1
 262:Drivers/lvgl/src/extra/widgets/calendar/lv_calendar.c ****             calendar->map[i] = "\n";
 1288              		.loc 1 262 11 is_stmt 0 view .LVU413
 1289 005e 002A     		cmp	r2, #0
 1290 0060 E8D1     		bne	.L95
 1291              	.LVL130:
 1292              	.L86:
 266:Drivers/lvgl/src/extra/widgets/calendar/lv_calendar.c ****         }
 1293              		.loc 1 266 13 is_stmt 1 view .LVU414
 260:Drivers/lvgl/src/extra/widgets/calendar/lv_calendar.c ****         /*Every 8th string is "\n"*/
 1294              		.loc 1 260 18 is_stmt 0 discriminator 1 view .LVU415
 1295 0062 0123     		movs	r3, #1
 266:Drivers/lvgl/src/extra/widgets/calendar/lv_calendar.c ****         }
 1296              		.loc 1 266 30 view .LVU416
 1297 0064 44F8046F 		str	r6, [r4, #4]!
 260:Drivers/lvgl/src/extra/widgets/calendar/lv_calendar.c ****         /*Every 8th string is "\n"*/
 1298              		.loc 1 260 28 is_stmt 1 discriminator 2 view .LVU417
 1299              	.LVL131:
 260:Drivers/lvgl/src/extra/widgets/calendar/lv_calendar.c ****         /*Every 8th string is "\n"*/
 1300              		.loc 1 260 18 discriminator 1 view .LVU418
 241:Drivers/lvgl/src/extra/widgets/calendar/lv_calendar.c ****     LV_UNUSED(class_p);
 1301              		.loc 1 241 1 is_stmt 0 view .LVU419
 1302 0068 1A46     		mov	r2, r3
 1303 006a F7E7     		b	.L96
 1304              	.LVL132:
ARM GAS  /var/folders/lp/x54gwt890xv47sdkqj1k04q40000gn/T//ccqoIkMQ.s 			page 37


 1305              	.L90:
 274:Drivers/lvgl/src/extra/widgets/calendar/lv_calendar.c **** 
 1306              		.loc 1 274 5 is_stmt 1 view .LVU420
 274:Drivers/lvgl/src/extra/widgets/calendar/lv_calendar.c **** 
 1307              		.loc 1 274 30 is_stmt 0 view .LVU421
 1308 006c 204B     		ldr	r3, .L97+12
 1309 006e C5F81431 		str	r3, [r5, #276]
 276:Drivers/lvgl/src/extra/widgets/calendar/lv_calendar.c ****     lv_btnmatrix_set_map(calendar->btnm, calendar->map);
 1310              		.loc 1 276 5 is_stmt 1 view .LVU422
 276:Drivers/lvgl/src/extra/widgets/calendar/lv_calendar.c ****     lv_btnmatrix_set_map(calendar->btnm, calendar->map);
 1311              		.loc 1 276 22 is_stmt 0 view .LVU423
 1312 0072 2846     		mov	r0, r5
 1313 0074 FFF7FEFF 		bl	lv_btnmatrix_create
 1314              	.LVL133:
 277:Drivers/lvgl/src/extra/widgets/calendar/lv_calendar.c ****     lv_btnmatrix_set_btn_ctrl_all(calendar->btnm, LV_BTNMATRIX_CTRL_CLICK_TRIG | LV_BTNMATRIX_CTRL_
 1315              		.loc 1 277 5 view .LVU424
 1316 0078 05F13801 		add	r1, r5, #56
 276:Drivers/lvgl/src/extra/widgets/calendar/lv_calendar.c ****     lv_btnmatrix_set_map(calendar->btnm, calendar->map);
 1317              		.loc 1 276 20 discriminator 1 view .LVU425
 1318 007c 6862     		str	r0, [r5, #36]
 277:Drivers/lvgl/src/extra/widgets/calendar/lv_calendar.c ****     lv_btnmatrix_set_btn_ctrl_all(calendar->btnm, LV_BTNMATRIX_CTRL_CLICK_TRIG | LV_BTNMATRIX_CTRL_
 1319              		.loc 1 277 5 is_stmt 1 view .LVU426
 1320 007e FFF7FEFF 		bl	lv_btnmatrix_set_map
 1321              	.LVL134:
 278:Drivers/lvgl/src/extra/widgets/calendar/lv_calendar.c ****     lv_obj_add_event_cb(calendar->btnm, draw_part_begin_event_cb, LV_EVENT_DRAW_PART_BEGIN, NULL);
 1322              		.loc 1 278 5 view .LVU427
 1323 0082 686A     		ldr	r0, [r5, #36]
 1324 0084 4FF40871 		mov	r1, #544
 1325 0088 FFF7FEFF 		bl	lv_btnmatrix_set_btn_ctrl_all
 1326              	.LVL135:
 279:Drivers/lvgl/src/extra/widgets/calendar/lv_calendar.c ****     lv_obj_set_width(calendar->btnm, lv_pct(100));
 1327              		.loc 1 279 5 view .LVU428
 1328 008c 0023     		movs	r3, #0
 1329 008e 1A22     		movs	r2, #26
 1330 0090 1849     		ldr	r1, .L97+16
 1331 0092 686A     		ldr	r0, [r5, #36]
 1332 0094 FFF7FEFF 		bl	lv_obj_add_event_cb
 1333              	.LVL136:
 280:Drivers/lvgl/src/extra/widgets/calendar/lv_calendar.c **** 
 1334              		.loc 1 280 5 view .LVU429
 280:Drivers/lvgl/src/extra/widgets/calendar/lv_calendar.c **** 
 1335              		.loc 1 280 5 is_stmt 0 discriminator 1 view .LVU430
 1336 0098 686A     		ldr	r0, [r5, #36]
 1337 009a 42F26401 		movw	r1, #8292
 1338 009e FFF7FEFF 		bl	lv_obj_set_width
 1339              	.LVL137:
 282:Drivers/lvgl/src/extra/widgets/calendar/lv_calendar.c ****     lv_obj_set_flex_grow(calendar->btnm, 1);
 1340              		.loc 1 282 5 is_stmt 1 view .LVU431
 1341 00a2 2846     		mov	r0, r5
 1342 00a4 0121     		movs	r1, #1
 1343 00a6 FFF7FEFF 		bl	lv_obj_set_flex_flow
 1344              	.LVL138:
 283:Drivers/lvgl/src/extra/widgets/calendar/lv_calendar.c **** 
 1345              		.loc 1 283 5 view .LVU432
 1346 00aa 686A     		ldr	r0, [r5, #36]
 1347 00ac 0121     		movs	r1, #1
 1348 00ae FFF7FEFF 		bl	lv_obj_set_flex_grow
ARM GAS  /var/folders/lp/x54gwt890xv47sdkqj1k04q40000gn/T//ccqoIkMQ.s 			page 38


 1349              	.LVL139:
 285:Drivers/lvgl/src/extra/widgets/calendar/lv_calendar.c ****     lv_calendar_set_today_date(obj, calendar->today.year, calendar->today.month, calendar->today.da
 1350              		.loc 1 285 5 view .LVU433
 1351 00b2 A98D     		ldrh	r1, [r5, #44]
 1352 00b4 95F92E20 		ldrsb	r2, [r5, #46]
 1353 00b8 2846     		mov	r0, r5
 1354 00ba FFF7FEFF 		bl	lv_calendar_set_showed_date
 1355              	.LVL140:
 286:Drivers/lvgl/src/extra/widgets/calendar/lv_calendar.c **** 
 1356              		.loc 1 286 5 view .LVU434
 1357              	.LBB34:
 1358              	.LBI34:
  84:Drivers/lvgl/src/extra/widgets/calendar/lv_calendar.c **** {
 1359              		.loc 1 84 6 view .LVU435
 1360              	.LBB35:
  86:Drivers/lvgl/src/extra/widgets/calendar/lv_calendar.c ****     lv_calendar_t * calendar = (lv_calendar_t *)obj;
 1361              		.loc 1 86 5 view .LVU436
  86:Drivers/lvgl/src/extra/widgets/calendar/lv_calendar.c ****     lv_calendar_t * calendar = (lv_calendar_t *)obj;
 1362              		.loc 1 86 5 view .LVU437
  86:Drivers/lvgl/src/extra/widgets/calendar/lv_calendar.c ****     lv_calendar_t * calendar = (lv_calendar_t *)obj;
 1363              		.loc 1 86 5 view .LVU438
  87:Drivers/lvgl/src/extra/widgets/calendar/lv_calendar.c **** 
 1364              		.loc 1 87 5 view .LVU439
  89:Drivers/lvgl/src/extra/widgets/calendar/lv_calendar.c ****     calendar->today.month        = month;
 1365              		.loc 1 89 5 view .LVU440
  90:Drivers/lvgl/src/extra/widgets/calendar/lv_calendar.c ****     calendar->today.day          = day;
 1366              		.loc 1 90 5 view .LVU441
  91:Drivers/lvgl/src/extra/widgets/calendar/lv_calendar.c **** 
 1367              		.loc 1 91 5 view .LVU442
  93:Drivers/lvgl/src/extra/widgets/calendar/lv_calendar.c **** }
 1368              		.loc 1 93 5 view .LVU443
 1369 00be 2846     		mov	r0, r5
 1370 00c0 FFF7FEFF 		bl	highlight_update
 1371              	.LVL141:
  93:Drivers/lvgl/src/extra/widgets/calendar/lv_calendar.c **** }
 1372              		.loc 1 93 5 is_stmt 0 view .LVU444
 1373              	.LBE35:
 1374              	.LBE34:
 288:Drivers/lvgl/src/extra/widgets/calendar/lv_calendar.c **** }
 1375              		.loc 1 288 5 is_stmt 1 view .LVU445
 1376 00c4 686A     		ldr	r0, [r5, #36]
 1377 00c6 4FF48041 		mov	r1, #16384
 289:Drivers/lvgl/src/extra/widgets/calendar/lv_calendar.c **** 
 1378              		.loc 1 289 1 is_stmt 0 view .LVU446
 1379 00ca BDE8F041 		pop	{r4, r5, r6, r7, r8, lr}
 1380              		.cfi_remember_state
 1381              		.cfi_restore 14
 1382              		.cfi_restore 8
 1383              		.cfi_restore 7
 1384              		.cfi_restore 6
 1385              		.cfi_restore 5
 1386              		.cfi_restore 4
 1387              		.cfi_def_cfa_offset 0
 1388              	.LVL142:
 288:Drivers/lvgl/src/extra/widgets/calendar/lv_calendar.c **** }
 1389              		.loc 1 288 5 view .LVU447
 1390 00ce FFF7FEBF 		b	lv_obj_add_flag
ARM GAS  /var/folders/lp/x54gwt890xv47sdkqj1k04q40000gn/T//ccqoIkMQ.s 			page 39


 1391              	.LVL143:
 1392              	.L92:
 1393              		.cfi_restore_state
 288:Drivers/lvgl/src/extra/widgets/calendar/lv_calendar.c **** }
 1394              		.loc 1 288 5 view .LVU448
 1395 00d2 3846     		mov	r0, r7
 1396 00d4 BDE7     		b	.L87
 1397              	.L94:
 266:Drivers/lvgl/src/extra/widgets/calendar/lv_calendar.c ****         }
 1398              		.loc 1 266 13 is_stmt 1 view .LVU449
 266:Drivers/lvgl/src/extra/widgets/calendar/lv_calendar.c ****         }
 1399              		.loc 1 266 30 is_stmt 0 view .LVU450
 1400 00d6 58F82220 		ldr	r2, [r8, r2, lsl #2]
 1401 00da 44F8042F 		str	r2, [r4, #4]!
 260:Drivers/lvgl/src/extra/widgets/calendar/lv_calendar.c ****         /*Every 8th string is "\n"*/
 1402              		.loc 1 260 28 is_stmt 1 discriminator 2 view .LVU451
 1403              	.LVL144:
 260:Drivers/lvgl/src/extra/widgets/calendar/lv_calendar.c ****         /*Every 8th string is "\n"*/
 1404              		.loc 1 260 18 discriminator 1 view .LVU452
 241:Drivers/lvgl/src/extra/widgets/calendar/lv_calendar.c ****     LV_UNUSED(class_p);
 1405              		.loc 1 241 1 is_stmt 0 view .LVU453
 1406 00de 1A46     		mov	r2, r3
 1407 00e0 BCE7     		b	.L96
 1408              	.L98:
 1409 00e2 00BF     		.align	2
 1410              	.L97:
 1411 00e4 E4070101 		.word	16844772
 1412 00e8 04000000 		.word	.LC2
 1413 00ec 00000000 		.word	.LC1
 1414 00f0 08000000 		.word	.LC3
 1415 00f4 00000000 		.word	draw_part_begin_event_cb
 1416 00f8 00000000 		.word	day_names_def
 1417              		.cfi_endproc
 1418              	.LFE215:
 1420              		.section	.text.lv_calendar_get_btnmatrix,"ax",%progbits
 1421              		.align	1
 1422              		.p2align 2,,3
 1423              		.global	lv_calendar_get_btnmatrix
 1424              		.syntax unified
 1425              		.thumb
 1426              		.thumb_func
 1428              	lv_calendar_get_btnmatrix:
 1429              	.LVL145:
 1430              	.LFB209:
 173:Drivers/lvgl/src/extra/widgets/calendar/lv_calendar.c ****     LV_ASSERT_OBJ(obj, MY_CLASS);
 1431              		.loc 1 173 1 is_stmt 1 view -0
 1432              		.cfi_startproc
 1433              		@ args = 0, pretend = 0, frame = 0
 1434              		@ frame_needed = 0, uses_anonymous_args = 0
 1435              		@ link register save eliminated.
 174:Drivers/lvgl/src/extra/widgets/calendar/lv_calendar.c ****     const lv_calendar_t * calendar = (lv_calendar_t *)obj;
 1436              		.loc 1 174 5 view .LVU455
 174:Drivers/lvgl/src/extra/widgets/calendar/lv_calendar.c ****     const lv_calendar_t * calendar = (lv_calendar_t *)obj;
 1437              		.loc 1 174 5 view .LVU456
 174:Drivers/lvgl/src/extra/widgets/calendar/lv_calendar.c ****     const lv_calendar_t * calendar = (lv_calendar_t *)obj;
 1438              		.loc 1 174 5 view .LVU457
 175:Drivers/lvgl/src/extra/widgets/calendar/lv_calendar.c ****     return calendar->btnm;
ARM GAS  /var/folders/lp/x54gwt890xv47sdkqj1k04q40000gn/T//ccqoIkMQ.s 			page 40


 1439              		.loc 1 175 5 view .LVU458
 176:Drivers/lvgl/src/extra/widgets/calendar/lv_calendar.c **** }
 1440              		.loc 1 176 5 view .LVU459
 177:Drivers/lvgl/src/extra/widgets/calendar/lv_calendar.c **** 
 1441              		.loc 1 177 1 is_stmt 0 view .LVU460
 1442 0000 406A     		ldr	r0, [r0, #36]
 1443              	.LVL146:
 177:Drivers/lvgl/src/extra/widgets/calendar/lv_calendar.c **** 
 1444              		.loc 1 177 1 view .LVU461
 1445 0002 7047     		bx	lr
 1446              		.cfi_endproc
 1447              	.LFE209:
 1449              		.section	.text.lv_calendar_get_today_date,"ax",%progbits
 1450              		.align	1
 1451              		.p2align 2,,3
 1452              		.global	lv_calendar_get_today_date
 1453              		.syntax unified
 1454              		.thumb
 1455              		.thumb_func
 1457              	lv_calendar_get_today_date:
 1458              	.LVL147:
 1459              	.LFB210:
 180:Drivers/lvgl/src/extra/widgets/calendar/lv_calendar.c ****     LV_ASSERT_OBJ(obj, MY_CLASS);
 1460              		.loc 1 180 1 is_stmt 1 view -0
 1461              		.cfi_startproc
 1462              		@ args = 0, pretend = 0, frame = 0
 1463              		@ frame_needed = 0, uses_anonymous_args = 0
 1464              		@ link register save eliminated.
 181:Drivers/lvgl/src/extra/widgets/calendar/lv_calendar.c ****     const lv_calendar_t * calendar = (lv_calendar_t *)obj;
 1465              		.loc 1 181 5 view .LVU463
 181:Drivers/lvgl/src/extra/widgets/calendar/lv_calendar.c ****     const lv_calendar_t * calendar = (lv_calendar_t *)obj;
 1466              		.loc 1 181 5 view .LVU464
 181:Drivers/lvgl/src/extra/widgets/calendar/lv_calendar.c ****     const lv_calendar_t * calendar = (lv_calendar_t *)obj;
 1467              		.loc 1 181 5 view .LVU465
 182:Drivers/lvgl/src/extra/widgets/calendar/lv_calendar.c **** 
 1468              		.loc 1 182 5 view .LVU466
 184:Drivers/lvgl/src/extra/widgets/calendar/lv_calendar.c **** }
 1469              		.loc 1 184 5 view .LVU467
 185:Drivers/lvgl/src/extra/widgets/calendar/lv_calendar.c **** 
 1470              		.loc 1 185 1 is_stmt 0 view .LVU468
 1471 0000 2830     		adds	r0, r0, #40
 1472              	.LVL148:
 185:Drivers/lvgl/src/extra/widgets/calendar/lv_calendar.c **** 
 1473              		.loc 1 185 1 view .LVU469
 1474 0002 7047     		bx	lr
 1475              		.cfi_endproc
 1476              	.LFE210:
 1478              		.section	.text.lv_calendar_get_showed_date,"ax",%progbits
 1479              		.align	1
 1480              		.p2align 2,,3
 1481              		.global	lv_calendar_get_showed_date
 1482              		.syntax unified
 1483              		.thumb
 1484              		.thumb_func
 1486              	lv_calendar_get_showed_date:
 1487              	.LVL149:
 1488              	.LFB211:
ARM GAS  /var/folders/lp/x54gwt890xv47sdkqj1k04q40000gn/T//ccqoIkMQ.s 			page 41


 188:Drivers/lvgl/src/extra/widgets/calendar/lv_calendar.c ****     LV_ASSERT_OBJ(obj, MY_CLASS);
 1489              		.loc 1 188 1 is_stmt 1 view -0
 1490              		.cfi_startproc
 1491              		@ args = 0, pretend = 0, frame = 0
 1492              		@ frame_needed = 0, uses_anonymous_args = 0
 1493              		@ link register save eliminated.
 189:Drivers/lvgl/src/extra/widgets/calendar/lv_calendar.c ****     const lv_calendar_t * calendar = (lv_calendar_t *)obj;
 1494              		.loc 1 189 5 view .LVU471
 189:Drivers/lvgl/src/extra/widgets/calendar/lv_calendar.c ****     const lv_calendar_t * calendar = (lv_calendar_t *)obj;
 1495              		.loc 1 189 5 view .LVU472
 189:Drivers/lvgl/src/extra/widgets/calendar/lv_calendar.c ****     const lv_calendar_t * calendar = (lv_calendar_t *)obj;
 1496              		.loc 1 189 5 view .LVU473
 190:Drivers/lvgl/src/extra/widgets/calendar/lv_calendar.c **** 
 1497              		.loc 1 190 5 view .LVU474
 192:Drivers/lvgl/src/extra/widgets/calendar/lv_calendar.c **** }
 1498              		.loc 1 192 5 view .LVU475
 193:Drivers/lvgl/src/extra/widgets/calendar/lv_calendar.c **** 
 1499              		.loc 1 193 1 is_stmt 0 view .LVU476
 1500 0000 2C30     		adds	r0, r0, #44
 1501              	.LVL150:
 193:Drivers/lvgl/src/extra/widgets/calendar/lv_calendar.c **** 
 1502              		.loc 1 193 1 view .LVU477
 1503 0002 7047     		bx	lr
 1504              		.cfi_endproc
 1505              	.LFE211:
 1507              		.section	.text.lv_calendar_get_highlighted_dates,"ax",%progbits
 1508              		.align	1
 1509              		.p2align 2,,3
 1510              		.global	lv_calendar_get_highlighted_dates
 1511              		.syntax unified
 1512              		.thumb
 1513              		.thumb_func
 1515              	lv_calendar_get_highlighted_dates:
 1516              	.LVL151:
 1517              	.LFB212:
 196:Drivers/lvgl/src/extra/widgets/calendar/lv_calendar.c ****     LV_ASSERT_OBJ(obj, MY_CLASS);
 1518              		.loc 1 196 1 is_stmt 1 view -0
 1519              		.cfi_startproc
 1520              		@ args = 0, pretend = 0, frame = 0
 1521              		@ frame_needed = 0, uses_anonymous_args = 0
 1522              		@ link register save eliminated.
 197:Drivers/lvgl/src/extra/widgets/calendar/lv_calendar.c ****     lv_calendar_t * calendar = (lv_calendar_t *)obj;
 1523              		.loc 1 197 5 view .LVU479
 197:Drivers/lvgl/src/extra/widgets/calendar/lv_calendar.c ****     lv_calendar_t * calendar = (lv_calendar_t *)obj;
 1524              		.loc 1 197 5 view .LVU480
 197:Drivers/lvgl/src/extra/widgets/calendar/lv_calendar.c ****     lv_calendar_t * calendar = (lv_calendar_t *)obj;
 1525              		.loc 1 197 5 view .LVU481
 198:Drivers/lvgl/src/extra/widgets/calendar/lv_calendar.c **** 
 1526              		.loc 1 198 5 view .LVU482
 200:Drivers/lvgl/src/extra/widgets/calendar/lv_calendar.c **** }
 1527              		.loc 1 200 5 view .LVU483
 201:Drivers/lvgl/src/extra/widgets/calendar/lv_calendar.c **** 
 1528              		.loc 1 201 1 is_stmt 0 view .LVU484
 1529 0000 006B     		ldr	r0, [r0, #48]
 1530              	.LVL152:
 201:Drivers/lvgl/src/extra/widgets/calendar/lv_calendar.c **** 
 1531              		.loc 1 201 1 view .LVU485
ARM GAS  /var/folders/lp/x54gwt890xv47sdkqj1k04q40000gn/T//ccqoIkMQ.s 			page 42


 1532 0002 7047     		bx	lr
 1533              		.cfi_endproc
 1534              	.LFE212:
 1536              		.section	.text.lv_calendar_get_highlighted_dates_num,"ax",%progbits
 1537              		.align	1
 1538              		.p2align 2,,3
 1539              		.global	lv_calendar_get_highlighted_dates_num
 1540              		.syntax unified
 1541              		.thumb
 1542              		.thumb_func
 1544              	lv_calendar_get_highlighted_dates_num:
 1545              	.LVL153:
 1546              	.LFB213:
 204:Drivers/lvgl/src/extra/widgets/calendar/lv_calendar.c ****     LV_ASSERT_OBJ(obj, MY_CLASS);
 1547              		.loc 1 204 1 is_stmt 1 view -0
 1548              		.cfi_startproc
 1549              		@ args = 0, pretend = 0, frame = 0
 1550              		@ frame_needed = 0, uses_anonymous_args = 0
 1551              		@ link register save eliminated.
 205:Drivers/lvgl/src/extra/widgets/calendar/lv_calendar.c ****     lv_calendar_t * calendar = (lv_calendar_t *)obj;
 1552              		.loc 1 205 5 view .LVU487
 205:Drivers/lvgl/src/extra/widgets/calendar/lv_calendar.c ****     lv_calendar_t * calendar = (lv_calendar_t *)obj;
 1553              		.loc 1 205 5 view .LVU488
 205:Drivers/lvgl/src/extra/widgets/calendar/lv_calendar.c ****     lv_calendar_t * calendar = (lv_calendar_t *)obj;
 1554              		.loc 1 205 5 view .LVU489
 206:Drivers/lvgl/src/extra/widgets/calendar/lv_calendar.c **** 
 1555              		.loc 1 206 5 view .LVU490
 208:Drivers/lvgl/src/extra/widgets/calendar/lv_calendar.c **** }
 1556              		.loc 1 208 5 view .LVU491
 209:Drivers/lvgl/src/extra/widgets/calendar/lv_calendar.c **** 
 1557              		.loc 1 209 1 is_stmt 0 view .LVU492
 1558 0000 808E     		ldrh	r0, [r0, #52]
 1559              	.LVL154:
 209:Drivers/lvgl/src/extra/widgets/calendar/lv_calendar.c **** 
 1560              		.loc 1 209 1 view .LVU493
 1561 0002 7047     		bx	lr
 1562              		.cfi_endproc
 1563              	.LFE213:
 1565              		.section	.text.lv_calendar_get_pressed_date,"ax",%progbits
 1566              		.align	1
 1567              		.p2align 2,,3
 1568              		.global	lv_calendar_get_pressed_date
 1569              		.syntax unified
 1570              		.thumb
 1571              		.thumb_func
 1573              	lv_calendar_get_pressed_date:
 1574              	.LVL155:
 1575              	.LFB214:
 212:Drivers/lvgl/src/extra/widgets/calendar/lv_calendar.c ****     LV_ASSERT_OBJ(obj, MY_CLASS);
 1576              		.loc 1 212 1 is_stmt 1 view -0
 1577              		.cfi_startproc
 1578              		@ args = 0, pretend = 0, frame = 0
 1579              		@ frame_needed = 0, uses_anonymous_args = 0
 213:Drivers/lvgl/src/extra/widgets/calendar/lv_calendar.c ****     lv_calendar_t * calendar = (lv_calendar_t *)obj;
 1580              		.loc 1 213 5 view .LVU495
 213:Drivers/lvgl/src/extra/widgets/calendar/lv_calendar.c ****     lv_calendar_t * calendar = (lv_calendar_t *)obj;
 1581              		.loc 1 213 5 view .LVU496
ARM GAS  /var/folders/lp/x54gwt890xv47sdkqj1k04q40000gn/T//ccqoIkMQ.s 			page 43


 213:Drivers/lvgl/src/extra/widgets/calendar/lv_calendar.c ****     lv_calendar_t * calendar = (lv_calendar_t *)obj;
 1582              		.loc 1 213 5 view .LVU497
 214:Drivers/lvgl/src/extra/widgets/calendar/lv_calendar.c **** 
 1583              		.loc 1 214 5 view .LVU498
 212:Drivers/lvgl/src/extra/widgets/calendar/lv_calendar.c ****     LV_ASSERT_OBJ(obj, MY_CLASS);
 1584              		.loc 1 212 1 is_stmt 0 view .LVU499
 1585 0000 70B5     		push	{r4, r5, r6, lr}
 1586              		.cfi_def_cfa_offset 16
 1587              		.cfi_offset 4, -16
 1588              		.cfi_offset 5, -12
 1589              		.cfi_offset 6, -8
 1590              		.cfi_offset 14, -4
 212:Drivers/lvgl/src/extra/widgets/calendar/lv_calendar.c ****     LV_ASSERT_OBJ(obj, MY_CLASS);
 1591              		.loc 1 212 1 view .LVU500
 1592 0002 0446     		mov	r4, r0
 1593              	.LVL156:
 216:Drivers/lvgl/src/extra/widgets/calendar/lv_calendar.c ****     if(d == LV_BTNMATRIX_BTN_NONE) {
 1594              		.loc 1 216 5 is_stmt 1 view .LVU501
 216:Drivers/lvgl/src/extra/widgets/calendar/lv_calendar.c ****     if(d == LV_BTNMATRIX_BTN_NONE) {
 1595              		.loc 1 216 18 is_stmt 0 view .LVU502
 1596 0004 406A     		ldr	r0, [r0, #36]
 1597              	.LVL157:
 212:Drivers/lvgl/src/extra/widgets/calendar/lv_calendar.c ****     LV_ASSERT_OBJ(obj, MY_CLASS);
 1598              		.loc 1 212 1 view .LVU503
 1599 0006 0D46     		mov	r5, r1
 216:Drivers/lvgl/src/extra/widgets/calendar/lv_calendar.c ****     if(d == LV_BTNMATRIX_BTN_NONE) {
 1600              		.loc 1 216 18 view .LVU504
 1601 0008 FFF7FEFF 		bl	lv_btnmatrix_get_selected_btn
 1602              	.LVL158:
 217:Drivers/lvgl/src/extra/widgets/calendar/lv_calendar.c ****         date->year = 0;
 1603              		.loc 1 217 5 is_stmt 1 view .LVU505
 217:Drivers/lvgl/src/extra/widgets/calendar/lv_calendar.c ****         date->year = 0;
 1604              		.loc 1 217 7 is_stmt 0 view .LVU506
 1605 000c 4FF6FF73 		movw	r3, #65535
 1606 0010 9842     		cmp	r0, r3
 1607 0012 1DD0     		beq	.L110
 224:Drivers/lvgl/src/extra/widgets/calendar/lv_calendar.c **** 
 1608              		.loc 1 224 5 is_stmt 1 view .LVU507
 224:Drivers/lvgl/src/extra/widgets/calendar/lv_calendar.c **** 
 1609              		.loc 1 224 58 is_stmt 0 view .LVU508
 1610 0014 666A     		ldr	r6, [r4, #36]
 224:Drivers/lvgl/src/extra/widgets/calendar/lv_calendar.c **** 
 1611              		.loc 1 224 24 view .LVU509
 1612 0016 3046     		mov	r0, r6
 1613              	.LVL159:
 224:Drivers/lvgl/src/extra/widgets/calendar/lv_calendar.c **** 
 1614              		.loc 1 224 24 view .LVU510
 1615 0018 FFF7FEFF 		bl	lv_btnmatrix_get_selected_btn
 1616              	.LVL160:
 1617 001c 0146     		mov	r1, r0
 224:Drivers/lvgl/src/extra/widgets/calendar/lv_calendar.c **** 
 1618              		.loc 1 224 24 discriminator 1 view .LVU511
 1619 001e 3046     		mov	r0, r6
 1620 0020 FFF7FEFF 		bl	lv_btnmatrix_get_btn_text
 1621              	.LVL161:
 226:Drivers/lvgl/src/extra/widgets/calendar/lv_calendar.c ****     else date->day = (txt[0] - '0') * 10 + (txt[1] - '0');
 1622              		.loc 1 226 5 is_stmt 1 view .LVU512
ARM GAS  /var/folders/lp/x54gwt890xv47sdkqj1k04q40000gn/T//ccqoIkMQ.s 			page 44


 226:Drivers/lvgl/src/extra/widgets/calendar/lv_calendar.c ****     else date->day = (txt[0] - '0') * 10 + (txt[1] - '0');
 1623              		.loc 1 226 11 is_stmt 0 view .LVU513
 1624 0024 4378     		ldrb	r3, [r0, #1]	@ zero_extendqisi2
 226:Drivers/lvgl/src/extra/widgets/calendar/lv_calendar.c ****     else date->day = (txt[0] - '0') * 10 + (txt[1] - '0');
 1625              		.loc 1 226 7 view .LVU514
 1626 0026 7BB1     		cbz	r3, .L111
 227:Drivers/lvgl/src/extra/widgets/calendar/lv_calendar.c **** 
 1627              		.loc 1 227 10 is_stmt 1 view .LVU515
 227:Drivers/lvgl/src/extra/widgets/calendar/lv_calendar.c **** 
 1628              		.loc 1 227 42 is_stmt 0 view .LVU516
 1629 0028 0278     		ldrb	r2, [r0]	@ zero_extendqisi2
 1630 002a 303A     		subs	r2, r2, #48
 1631 002c 303B     		subs	r3, r3, #48
 1632 002e 02EB8202 		add	r2, r2, r2, lsl #2
 1633 0032 03EB4203 		add	r3, r3, r2, lsl #1
 1634 0036 5BB2     		sxtb	r3, r3
 1635              	.L108:
 1636 0038 EB70     		strb	r3, [r5, #3]
 229:Drivers/lvgl/src/extra/widgets/calendar/lv_calendar.c ****     date->month = calendar->showed_date.month;
 1637              		.loc 1 229 5 is_stmt 1 view .LVU517
 229:Drivers/lvgl/src/extra/widgets/calendar/lv_calendar.c ****     date->month = calendar->showed_date.month;
 1638              		.loc 1 229 39 is_stmt 0 view .LVU518
 1639 003a A38D     		ldrh	r3, [r4, #44]
 229:Drivers/lvgl/src/extra/widgets/calendar/lv_calendar.c ****     date->month = calendar->showed_date.month;
 1640              		.loc 1 229 16 view .LVU519
 1641 003c 2B80     		strh	r3, [r5]	@ movhi
 230:Drivers/lvgl/src/extra/widgets/calendar/lv_calendar.c **** 
 1642              		.loc 1 230 5 is_stmt 1 view .LVU520
 230:Drivers/lvgl/src/extra/widgets/calendar/lv_calendar.c **** 
 1643              		.loc 1 230 40 is_stmt 0 view .LVU521
 1644 003e 94F92E30 		ldrsb	r3, [r4, #46]
 230:Drivers/lvgl/src/extra/widgets/calendar/lv_calendar.c **** 
 1645              		.loc 1 230 17 view .LVU522
 1646 0042 AB70     		strb	r3, [r5, #2]
 232:Drivers/lvgl/src/extra/widgets/calendar/lv_calendar.c **** }
 1647              		.loc 1 232 5 is_stmt 1 view .LVU523
 232:Drivers/lvgl/src/extra/widgets/calendar/lv_calendar.c **** }
 1648              		.loc 1 232 12 is_stmt 0 view .LVU524
 1649 0044 0120     		movs	r0, #1
 1650              	.LVL162:
 233:Drivers/lvgl/src/extra/widgets/calendar/lv_calendar.c **** 
 1651              		.loc 1 233 1 view .LVU525
 1652 0046 70BD     		pop	{r4, r5, r6, pc}
 1653              	.LVL163:
 1654              	.L111:
 226:Drivers/lvgl/src/extra/widgets/calendar/lv_calendar.c ****     else date->day = (txt[0] - '0') * 10 + (txt[1] - '0');
 1655              		.loc 1 226 21 is_stmt 1 discriminator 1 view .LVU526
 226:Drivers/lvgl/src/extra/widgets/calendar/lv_calendar.c ****     else date->day = (txt[0] - '0') * 10 + (txt[1] - '0');
 1656              		.loc 1 226 40 is_stmt 0 discriminator 1 view .LVU527
 1657 0048 0378     		ldrb	r3, [r0]	@ zero_extendqisi2
 1658 004a 303B     		subs	r3, r3, #48
 1659 004c 5BB2     		sxtb	r3, r3
 1660 004e F3E7     		b	.L108
 1661              	.LVL164:
 1662              	.L110:
 218:Drivers/lvgl/src/extra/widgets/calendar/lv_calendar.c ****         date->month = 0;
 1663              		.loc 1 218 9 is_stmt 1 view .LVU528
ARM GAS  /var/folders/lp/x54gwt890xv47sdkqj1k04q40000gn/T//ccqoIkMQ.s 			page 45


 218:Drivers/lvgl/src/extra/widgets/calendar/lv_calendar.c ****         date->month = 0;
 1664              		.loc 1 218 20 is_stmt 0 view .LVU529
 1665 0050 0020     		movs	r0, #0
 1666              	.LVL165:
 219:Drivers/lvgl/src/extra/widgets/calendar/lv_calendar.c ****         date->day = 0;
 1667              		.loc 1 219 21 view .LVU530
 1668 0052 6880     		strh	r0, [r5, #2]	@ movhi
 218:Drivers/lvgl/src/extra/widgets/calendar/lv_calendar.c ****         date->month = 0;
 1669              		.loc 1 218 20 view .LVU531
 1670 0054 2880     		strh	r0, [r5]	@ movhi
 219:Drivers/lvgl/src/extra/widgets/calendar/lv_calendar.c ****         date->day = 0;
 1671              		.loc 1 219 9 is_stmt 1 view .LVU532
 220:Drivers/lvgl/src/extra/widgets/calendar/lv_calendar.c ****         return LV_RES_INV;
 1672              		.loc 1 220 9 view .LVU533
 221:Drivers/lvgl/src/extra/widgets/calendar/lv_calendar.c ****     }
 1673              		.loc 1 221 9 view .LVU534
 233:Drivers/lvgl/src/extra/widgets/calendar/lv_calendar.c **** 
 1674              		.loc 1 233 1 is_stmt 0 view .LVU535
 1675 0056 70BD     		pop	{r4, r5, r6, pc}
 233:Drivers/lvgl/src/extra/widgets/calendar/lv_calendar.c **** 
 1676              		.loc 1 233 1 view .LVU536
 1677              		.cfi_endproc
 1678              	.LFE214:
 1680              		.section	.rodata.str1.4,"aMS",%progbits,1
 1681              		.align	2
 1682              	.LC4:
 1683 0000 4D6F00   		.ascii	"Mo\000"
 1684 0003 00       		.align	2
 1685              	.LC5:
 1686 0004 547500   		.ascii	"Tu\000"
 1687 0007 00       		.align	2
 1688              	.LC6:
 1689 0008 576500   		.ascii	"We\000"
 1690 000b 00       		.align	2
 1691              	.LC7:
 1692 000c 546800   		.ascii	"Th\000"
 1693 000f 00       		.align	2
 1694              	.LC8:
 1695 0010 467200   		.ascii	"Fr\000"
 1696 0013 00       		.align	2
 1697              	.LC9:
 1698 0014 536100   		.ascii	"Sa\000"
 1699              		.section	.rodata.day_names_def,"a"
 1700              		.align	2
 1703              	day_names_def:
 1704 0000 04000000 		.word	.LC2
 1705 0004 00000000 		.word	.LC4
 1706 0008 04000000 		.word	.LC5
 1707 000c 08000000 		.word	.LC6
 1708 0010 0C000000 		.word	.LC7
 1709 0014 10000000 		.word	.LC8
 1710 0018 14000000 		.word	.LC9
 1711              		.global	lv_calendar_class
 1712              		.section	.rodata.lv_calendar_class,"a"
 1713              		.align	2
 1716              	lv_calendar_class:
 1717 0000 00000000 		.word	lv_obj_class
ARM GAS  /var/folders/lp/x54gwt890xv47sdkqj1k04q40000gn/T//ccqoIkMQ.s 			page 46


 1718 0004 00000000 		.word	lv_calendar_constructor
 1719 0008 00000000 		.space	12
 1719      00000000 
 1719      00000000 
 1720 0014 C300     		.short	195
 1721 0016 C300     		.short	195
 1722 0018 04       		.byte	4
 1723 0019 1C       		.byte	28
 1724 001a 00       		.byte	0
 1725 001b 00       		.space	1
 1726              		.text
 1727              	.Letext0:
 1728              		.file 2 "/Users/jr/Library/Application Support/Code/User/globalStorage/bmd.stm32-for-vscode/@xpack
 1729              		.file 3 "/Users/jr/Library/Application Support/Code/User/globalStorage/bmd.stm32-for-vscode/@xpack
 1730              		.file 4 "/Users/jr/Library/Application Support/Code/User/globalStorage/bmd.stm32-for-vscode/@xpack
 1731              		.file 5 "Drivers/lvgl/src/extra/widgets/calendar/../../../widgets/../core/../misc/../font/../misc/
 1732              		.file 6 "Drivers/lvgl/src/extra/widgets/calendar/../../../widgets/../core/../misc/../font/lv_font.
 1733              		.file 7 "Drivers/lvgl/src/extra/widgets/calendar/../../../widgets/../core/../misc/lv_types.h"
 1734              		.file 8 "Drivers/lvgl/src/extra/widgets/calendar/../../../widgets/../core/../misc/lv_color.h"
 1735              		.file 9 "Drivers/lvgl/src/extra/widgets/calendar/../../../widgets/../core/../misc/lv_txt.h"
 1736              		.file 10 "Drivers/lvgl/src/extra/widgets/calendar/../../../widgets/../core/../misc/lv_bidi.h"
 1737              		.file 11 "Drivers/lvgl/src/extra/widgets/calendar/../../../widgets/../core/../misc/lv_style.h"
 1738              		.file 12 "Drivers/lvgl/src/extra/widgets/calendar/../../../widgets/../core/../hal/../draw/lv_img_b
 1739              		.file 13 "Drivers/lvgl/src/extra/widgets/calendar/../../../widgets/../core/lv_obj.h"
 1740              		.file 14 "Drivers/lvgl/src/extra/widgets/calendar/../../../widgets/../core/../hal/../draw/lv_draw_
 1741              		.file 15 "Drivers/lvgl/src/extra/widgets/calendar/../../../widgets/../core/../hal/../draw/lv_draw_
 1742              		.file 16 "Drivers/lvgl/src/extra/widgets/calendar/../../../widgets/../core/../hal/../draw/lv_draw_
 1743              		.file 17 "Drivers/lvgl/src/extra/widgets/calendar/../../../widgets/../core/../hal/../draw/lv_draw_
 1744              		.file 18 "Drivers/lvgl/src/extra/widgets/calendar/../../../widgets/../core/../hal/../draw/lv_draw_
 1745              		.file 19 "Drivers/lvgl/src/extra/widgets/calendar/../../../widgets/../core/../hal/../draw/lv_draw_
 1746              		.file 20 "Drivers/lvgl/src/extra/widgets/calendar/../../../widgets/../core/../hal/../draw/lv_draw.
 1747              		.file 21 "Drivers/lvgl/src/extra/widgets/calendar/../../../widgets/../core/../hal/../misc/lv_ll.h"
 1748              		.file 22 "Drivers/lvgl/src/extra/widgets/calendar/../../../widgets/../core/lv_group.h"
 1749              		.file 23 "Drivers/lvgl/src/extra/widgets/calendar/../../../widgets/../core/lv_obj_scroll.h"
 1750              		.file 24 "Drivers/lvgl/src/extra/widgets/calendar/../../../widgets/../core/lv_obj_style.h"
 1751              		.file 25 "Drivers/lvgl/src/extra/widgets/calendar/../../../widgets/../core/lv_obj_draw.h"
 1752              		.file 26 "Drivers/lvgl/src/extra/widgets/calendar/../../../widgets/../core/lv_obj_class.h"
 1753              		.file 27 "Drivers/lvgl/src/extra/widgets/calendar/../../../widgets/../core/lv_event.h"
 1754              		.file 28 "Drivers/lvgl/src/extra/widgets/calendar/../../../widgets/lv_btnmatrix.h"
 1755              		.file 29 "Drivers/lvgl/src/extra/widgets/calendar/lv_calendar.h"
 1756              		.file 30 "Drivers/lvgl/src/extra/widgets/calendar/../../../../src/widgets/lv_bar.h"
 1757              		.file 31 "Drivers/lvgl/src/extra/widgets/calendar/../../../../src/extra/layouts/flex/lv_flex.h"
 1758              		.file 32 "Drivers/lvgl/src/extra/widgets/calendar/../../../../src/extra/widgets/imgbtn/lv_imgbtn.h
 1759              		.file 33 "Drivers/lvgl/src/extra/widgets/calendar/../../../widgets/../core/lv_obj_tree.h"
 1760              		.file 34 "Drivers/lvgl/src/extra/widgets/calendar/../../../widgets/../core/../misc/lv_printf.h"
 1761              		.file 35 "Drivers/lvgl/src/extra/widgets/calendar/../../../widgets/../core/../hal/../draw/sw/../..
 1762              		.file 36 "Drivers/lvgl/src/extra/widgets/calendar/../../../../src/core/lv_theme.h"
 1763              		.file 37 "Drivers/lvgl/src/extra/widgets/calendar/../../../widgets/../core/../misc/lv_mem.h"
ARM GAS  /var/folders/lp/x54gwt890xv47sdkqj1k04q40000gn/T//ccqoIkMQ.s 			page 47

