ARM GAS  /var/folders/lp/x54gwt890xv47sdkqj1k04q40000gn/T//ccfNKTR3.s 			page 1


   1              		.cpu cortex-m4
   2              		.arch armv7e-m
   3              		.fpu fpv4-sp-d16
   4              		.eabi_attribute 27, 1
   5              		.eabi_attribute 28, 1
   6              		.eabi_attribute 20, 1
   7              		.eabi_attribute 21, 1
   8              		.eabi_attribute 23, 3
   9              		.eabi_attribute 24, 1
  10              		.eabi_attribute 25, 1
  11              		.eabi_attribute 26, 1
  12              		.eabi_attribute 30, 2
  13              		.eabi_attribute 34, 1
  14              		.eabi_attribute 18, 4
  15              		.file	"lv_color.c"
  16              		.text
  17              	.Ltext0:
  18              		.cfi_sections	.debug_frame
  19              		.file 1 "Drivers/lvgl/src/misc/lv_color.c"
  20              		.section	.text.lv_color_fill,"ax",%progbits
  21              		.align	1
  22              		.p2align 2,,3
  23              		.global	lv_color_fill
  24              		.syntax unified
  25              		.thumb
  26              		.thumb_func
  28              	lv_color_fill:
  29              	.LVL0:
  30              	.LFB18:
   1:Drivers/lvgl/src/misc/lv_color.c **** /**
   2:Drivers/lvgl/src/misc/lv_color.c ****  * @file lv_color.c
   3:Drivers/lvgl/src/misc/lv_color.c ****  *
   4:Drivers/lvgl/src/misc/lv_color.c ****  */
   5:Drivers/lvgl/src/misc/lv_color.c **** 
   6:Drivers/lvgl/src/misc/lv_color.c **** /*********************
   7:Drivers/lvgl/src/misc/lv_color.c ****  *      INCLUDES
   8:Drivers/lvgl/src/misc/lv_color.c ****  *********************/
   9:Drivers/lvgl/src/misc/lv_color.c **** #include "lv_color.h"
  10:Drivers/lvgl/src/misc/lv_color.c **** #include "lv_log.h"
  11:Drivers/lvgl/src/misc/lv_color.c **** 
  12:Drivers/lvgl/src/misc/lv_color.c **** /*********************
  13:Drivers/lvgl/src/misc/lv_color.c ****  *      DEFINES
  14:Drivers/lvgl/src/misc/lv_color.c ****  *********************/
  15:Drivers/lvgl/src/misc/lv_color.c **** 
  16:Drivers/lvgl/src/misc/lv_color.c **** /**********************
  17:Drivers/lvgl/src/misc/lv_color.c ****  *      TYPEDEFS
  18:Drivers/lvgl/src/misc/lv_color.c ****  **********************/
  19:Drivers/lvgl/src/misc/lv_color.c **** 
  20:Drivers/lvgl/src/misc/lv_color.c **** /**********************
  21:Drivers/lvgl/src/misc/lv_color.c ****  *  STATIC PROTOTYPES
  22:Drivers/lvgl/src/misc/lv_color.c ****  **********************/
  23:Drivers/lvgl/src/misc/lv_color.c **** 
  24:Drivers/lvgl/src/misc/lv_color.c **** /**********************
  25:Drivers/lvgl/src/misc/lv_color.c ****  *  STATIC VARIABLES
  26:Drivers/lvgl/src/misc/lv_color.c ****  **********************/
  27:Drivers/lvgl/src/misc/lv_color.c **** 
  28:Drivers/lvgl/src/misc/lv_color.c **** /**********************
ARM GAS  /var/folders/lp/x54gwt890xv47sdkqj1k04q40000gn/T//ccfNKTR3.s 			page 2


  29:Drivers/lvgl/src/misc/lv_color.c ****  *      MACROS
  30:Drivers/lvgl/src/misc/lv_color.c ****  **********************/
  31:Drivers/lvgl/src/misc/lv_color.c **** 
  32:Drivers/lvgl/src/misc/lv_color.c **** /**********************
  33:Drivers/lvgl/src/misc/lv_color.c ****  *   GLOBAL FUNCTIONS
  34:Drivers/lvgl/src/misc/lv_color.c ****  **********************/
  35:Drivers/lvgl/src/misc/lv_color.c **** 
  36:Drivers/lvgl/src/misc/lv_color.c **** void LV_ATTRIBUTE_FAST_MEM lv_color_fill(lv_color_t * buf, lv_color_t color, uint32_t px_num)
  37:Drivers/lvgl/src/misc/lv_color.c **** {
  31              		.loc 1 37 1 view -0
  32              		.cfi_startproc
  33              		@ args = 0, pretend = 0, frame = 0
  34              		@ frame_needed = 0, uses_anonymous_args = 0
  38:Drivers/lvgl/src/misc/lv_color.c **** #if LV_COLOR_DEPTH == 16
  39:Drivers/lvgl/src/misc/lv_color.c ****     uintptr_t buf_int = (uintptr_t)buf;
  40:Drivers/lvgl/src/misc/lv_color.c ****     if(buf_int & 0x3) {
  35              		.loc 1 40 7 is_stmt 0 view .LVU1
  36 0000 8307     		lsls	r3, r0, #30
  41:Drivers/lvgl/src/misc/lv_color.c ****         *buf = color;
  42:Drivers/lvgl/src/misc/lv_color.c ****         buf++;
  43:Drivers/lvgl/src/misc/lv_color.c ****         px_num--;
  37              		.loc 1 43 15 view .LVU2
  38 0002 18BF     		it	ne
  39 0004 02F1FF32 		addne	r2, r2, #-1
  40              	.LVL1:
  37:Drivers/lvgl/src/misc/lv_color.c **** #if LV_COLOR_DEPTH == 16
  41              		.loc 1 37 1 view .LVU3
  42 0008 30B5     		push	{r4, r5, lr}
  43              		.cfi_def_cfa_offset 12
  44              		.cfi_offset 4, -12
  45              		.cfi_offset 5, -8
  46              		.cfi_offset 14, -4
  41:Drivers/lvgl/src/misc/lv_color.c ****         *buf = color;
  47              		.loc 1 41 14 view .LVU4
  48 000a 18BF     		it	ne
  49 000c 20F8021B 		strhne	r1, [r0], #2	@ movhi
  50              	.LVL2:
  41:Drivers/lvgl/src/misc/lv_color.c ****         *buf = color;
  51              		.loc 1 41 14 view .LVU5
  52 0010 1FFA81FE 		uxth	lr, r1
  53              	.LVL3:
  39:Drivers/lvgl/src/misc/lv_color.c ****     if(buf_int & 0x3) {
  54              		.loc 1 39 5 is_stmt 1 view .LVU6
  40:Drivers/lvgl/src/misc/lv_color.c ****         *buf = color;
  55              		.loc 1 40 5 view .LVU7
  41:Drivers/lvgl/src/misc/lv_color.c ****         buf++;
  56              		.loc 1 41 9 view .LVU8
  42:Drivers/lvgl/src/misc/lv_color.c ****         px_num--;
  57              		.loc 1 42 9 view .LVU9
  58              		.loc 1 43 9 view .LVU10
  44:Drivers/lvgl/src/misc/lv_color.c ****     }
  45:Drivers/lvgl/src/misc/lv_color.c **** 
  46:Drivers/lvgl/src/misc/lv_color.c ****     uint32_t c32 = (uint32_t)color.full + ((uint32_t)color.full << 16);
  59              		.loc 1 46 5 view .LVU11
  47:Drivers/lvgl/src/misc/lv_color.c ****     uint32_t * buf32 = (uint32_t *)buf;
  48:Drivers/lvgl/src/misc/lv_color.c **** 
  49:Drivers/lvgl/src/misc/lv_color.c ****     while(px_num > 16) {
ARM GAS  /var/folders/lp/x54gwt890xv47sdkqj1k04q40000gn/T//ccfNKTR3.s 			page 3


  60              		.loc 1 49 18 is_stmt 0 view .LVU12
  61 0014 102A     		cmp	r2, #16
  62 0016 0EEB0E41 		add	r1, lr, lr, lsl #16
  63              	.LVL4:
  47:Drivers/lvgl/src/misc/lv_color.c ****     uint32_t * buf32 = (uint32_t *)buf;
  64              		.loc 1 47 5 is_stmt 1 view .LVU13
  65              		.loc 1 49 5 view .LVU14
  66              		.loc 1 49 18 view .LVU15
  67 001a 1BD9     		bls	.L3
  68 001c A2F11105 		sub	r5, r2, #17
  69 0020 2D09     		lsrs	r5, r5, #4
  70 0022 6C1C     		adds	r4, r5, #1
  71 0024 0346     		mov	r3, r0
  72 0026 4FF0000C 		mov	ip, #0
  73              	.LVL5:
  74              	.L4:
  50:Drivers/lvgl/src/misc/lv_color.c ****         *buf32 = c32;
  75              		.loc 1 50 9 view .LVU16
  51:Drivers/lvgl/src/misc/lv_color.c ****         buf32++;
  76              		.loc 1 51 9 view .LVU17
  52:Drivers/lvgl/src/misc/lv_color.c ****         *buf32 = c32;
  77              		.loc 1 52 9 view .LVU18
  53:Drivers/lvgl/src/misc/lv_color.c ****         buf32++;
  78              		.loc 1 53 9 view .LVU19
  54:Drivers/lvgl/src/misc/lv_color.c ****         *buf32 = c32;
  79              		.loc 1 54 9 view .LVU20
  55:Drivers/lvgl/src/misc/lv_color.c ****         buf32++;
  80              		.loc 1 55 9 view .LVU21
  56:Drivers/lvgl/src/misc/lv_color.c ****         *buf32 = c32;
  81              		.loc 1 56 9 view .LVU22
  57:Drivers/lvgl/src/misc/lv_color.c ****         buf32++;
  82              		.loc 1 57 9 view .LVU23
  58:Drivers/lvgl/src/misc/lv_color.c **** 
  59:Drivers/lvgl/src/misc/lv_color.c ****         *buf32 = c32;
  83              		.loc 1 59 9 view .LVU24
  60:Drivers/lvgl/src/misc/lv_color.c ****         buf32++;
  84              		.loc 1 60 9 view .LVU25
  61:Drivers/lvgl/src/misc/lv_color.c ****         *buf32 = c32;
  85              		.loc 1 61 9 view .LVU26
  62:Drivers/lvgl/src/misc/lv_color.c ****         buf32++;
  86              		.loc 1 62 9 view .LVU27
  63:Drivers/lvgl/src/misc/lv_color.c ****         *buf32 = c32;
  87              		.loc 1 63 9 view .LVU28
  64:Drivers/lvgl/src/misc/lv_color.c ****         buf32++;
  88              		.loc 1 64 9 view .LVU29
  65:Drivers/lvgl/src/misc/lv_color.c ****         *buf32 = c32;
  89              		.loc 1 65 9 view .LVU30
  90 002a 0CF1010C 		add	ip, ip, #1
  91 002e A445     		cmp	ip, r4
  50:Drivers/lvgl/src/misc/lv_color.c ****         buf32++;
  92              		.loc 1 50 16 is_stmt 0 view .LVU31
  93 0030 C3E90011 		strd	r1, r1, [r3]
  94 0034 C3E90211 		strd	r1, r1, [r3, #8]
  95 0038 C3E90411 		strd	r1, r1, [r3, #16]
  96 003c C3E90611 		strd	r1, r1, [r3, #24]
  66:Drivers/lvgl/src/misc/lv_color.c ****         buf32++;
  97              		.loc 1 66 9 is_stmt 1 view .LVU32
ARM GAS  /var/folders/lp/x54gwt890xv47sdkqj1k04q40000gn/T//ccfNKTR3.s 			page 4


  98              	.LVL6:
  67:Drivers/lvgl/src/misc/lv_color.c **** 
  68:Drivers/lvgl/src/misc/lv_color.c ****         px_num -= 16;
  99              		.loc 1 68 9 view .LVU33
  49:Drivers/lvgl/src/misc/lv_color.c ****         *buf32 = c32;
 100              		.loc 1 49 18 view .LVU34
 101 0040 03F12003 		add	r3, r3, #32
 102 0044 F1D3     		bcc	.L4
  49:Drivers/lvgl/src/misc/lv_color.c ****         *buf32 = c32;
 103              		.loc 1 49 18 is_stmt 0 view .LVU35
 104 0046 103A     		subs	r2, r2, #16
 105 0048 C5EB0575 		rsb	r5, r5, r5, lsl #28
 106 004c 02EB0512 		add	r2, r2, r5, lsl #4
 107 0050 00EB4410 		add	r0, r0, r4, lsl #5
 108              	.LVL7:
 109              	.L3:
  69:Drivers/lvgl/src/misc/lv_color.c ****     }
  70:Drivers/lvgl/src/misc/lv_color.c **** 
  71:Drivers/lvgl/src/misc/lv_color.c ****     buf = (lv_color_t *)buf32;
  72:Drivers/lvgl/src/misc/lv_color.c **** 
  73:Drivers/lvgl/src/misc/lv_color.c ****     while(px_num) {
 110              		.loc 1 73 11 is_stmt 1 view .LVU36
 111 0054 2AB1     		cbz	r2, .L1
 112 0056 00EB4202 		add	r2, r0, r2, lsl #1
 113              	.LVL8:
 114              	.L6:
  74:Drivers/lvgl/src/misc/lv_color.c ****         *buf = color;
 115              		.loc 1 74 9 view .LVU37
 116              		.loc 1 74 14 is_stmt 0 view .LVU38
 117 005a 20F802EB 		strh	lr, [r0], #2	@ movhi
 118              	.LVL9:
  75:Drivers/lvgl/src/misc/lv_color.c ****         buf++;
 119              		.loc 1 75 9 is_stmt 1 view .LVU39
  76:Drivers/lvgl/src/misc/lv_color.c ****         px_num--;
 120              		.loc 1 76 9 view .LVU40
  73:Drivers/lvgl/src/misc/lv_color.c ****         *buf = color;
 121              		.loc 1 73 11 view .LVU41
 122 005e 9042     		cmp	r0, r2
 123 0060 FBD1     		bne	.L6
 124              	.L1:
  77:Drivers/lvgl/src/misc/lv_color.c ****     }
  78:Drivers/lvgl/src/misc/lv_color.c **** #else
  79:Drivers/lvgl/src/misc/lv_color.c ****     while(px_num > 16) {
  80:Drivers/lvgl/src/misc/lv_color.c ****         *buf = color;
  81:Drivers/lvgl/src/misc/lv_color.c ****         buf++;
  82:Drivers/lvgl/src/misc/lv_color.c ****         *buf = color;
  83:Drivers/lvgl/src/misc/lv_color.c ****         buf++;
  84:Drivers/lvgl/src/misc/lv_color.c ****         *buf = color;
  85:Drivers/lvgl/src/misc/lv_color.c ****         buf++;
  86:Drivers/lvgl/src/misc/lv_color.c ****         *buf = color;
  87:Drivers/lvgl/src/misc/lv_color.c ****         buf++;
  88:Drivers/lvgl/src/misc/lv_color.c **** 
  89:Drivers/lvgl/src/misc/lv_color.c ****         *buf = color;
  90:Drivers/lvgl/src/misc/lv_color.c ****         buf++;
  91:Drivers/lvgl/src/misc/lv_color.c ****         *buf = color;
  92:Drivers/lvgl/src/misc/lv_color.c ****         buf++;
  93:Drivers/lvgl/src/misc/lv_color.c ****         *buf = color;
ARM GAS  /var/folders/lp/x54gwt890xv47sdkqj1k04q40000gn/T//ccfNKTR3.s 			page 5


  94:Drivers/lvgl/src/misc/lv_color.c ****         buf++;
  95:Drivers/lvgl/src/misc/lv_color.c ****         *buf = color;
  96:Drivers/lvgl/src/misc/lv_color.c ****         buf++;
  97:Drivers/lvgl/src/misc/lv_color.c **** 
  98:Drivers/lvgl/src/misc/lv_color.c ****         *buf = color;
  99:Drivers/lvgl/src/misc/lv_color.c ****         buf++;
 100:Drivers/lvgl/src/misc/lv_color.c ****         *buf = color;
 101:Drivers/lvgl/src/misc/lv_color.c ****         buf++;
 102:Drivers/lvgl/src/misc/lv_color.c ****         *buf = color;
 103:Drivers/lvgl/src/misc/lv_color.c ****         buf++;
 104:Drivers/lvgl/src/misc/lv_color.c ****         *buf = color;
 105:Drivers/lvgl/src/misc/lv_color.c ****         buf++;
 106:Drivers/lvgl/src/misc/lv_color.c **** 
 107:Drivers/lvgl/src/misc/lv_color.c ****         *buf = color;
 108:Drivers/lvgl/src/misc/lv_color.c ****         buf++;
 109:Drivers/lvgl/src/misc/lv_color.c ****         *buf = color;
 110:Drivers/lvgl/src/misc/lv_color.c ****         buf++;
 111:Drivers/lvgl/src/misc/lv_color.c ****         *buf = color;
 112:Drivers/lvgl/src/misc/lv_color.c ****         buf++;
 113:Drivers/lvgl/src/misc/lv_color.c ****         *buf = color;
 114:Drivers/lvgl/src/misc/lv_color.c ****         buf++;
 115:Drivers/lvgl/src/misc/lv_color.c **** 
 116:Drivers/lvgl/src/misc/lv_color.c ****         px_num -= 16;
 117:Drivers/lvgl/src/misc/lv_color.c ****     }
 118:Drivers/lvgl/src/misc/lv_color.c ****     while(px_num) {
 119:Drivers/lvgl/src/misc/lv_color.c ****         *buf = color;
 120:Drivers/lvgl/src/misc/lv_color.c ****         buf++;
 121:Drivers/lvgl/src/misc/lv_color.c ****         px_num--;
 122:Drivers/lvgl/src/misc/lv_color.c ****     }
 123:Drivers/lvgl/src/misc/lv_color.c **** #endif
 124:Drivers/lvgl/src/misc/lv_color.c **** }
 125              		.loc 1 124 1 is_stmt 0 view .LVU42
 126 0062 30BD     		pop	{r4, r5, pc}
 127              		.cfi_endproc
 128              	.LFE18:
 130              		.section	.text.lv_color_lighten,"ax",%progbits
 131              		.align	1
 132              		.p2align 2,,3
 133              		.global	lv_color_lighten
 134              		.syntax unified
 135              		.thumb
 136              		.thumb_func
 138              	lv_color_lighten:
 139              	.LVL10:
 140              	.LFB19:
 125:Drivers/lvgl/src/misc/lv_color.c **** 
 126:Drivers/lvgl/src/misc/lv_color.c **** lv_color_t lv_color_lighten(lv_color_t c, lv_opa_t lvl)
 127:Drivers/lvgl/src/misc/lv_color.c **** {
 141              		.loc 1 127 1 is_stmt 1 view -0
 142              		.cfi_startproc
 143              		@ args = 0, pretend = 0, frame = 0
 144              		@ frame_needed = 0, uses_anonymous_args = 0
 145              		@ link register save eliminated.
 128:Drivers/lvgl/src/misc/lv_color.c ****     return lv_color_mix(lv_color_white(), c, lvl);
 146              		.loc 1 128 5 view .LVU44
 147              	.LBB26:
 148              	.LBB27:
ARM GAS  /var/folders/lp/x54gwt890xv47sdkqj1k04q40000gn/T//ccfNKTR3.s 			page 6


 149              		.file 2 "Drivers/lvgl/src/misc/lv_color.h"
   1:Drivers/lvgl/src/misc/lv_color.h **** /**
   2:Drivers/lvgl/src/misc/lv_color.h ****  * @file lv_color.h
   3:Drivers/lvgl/src/misc/lv_color.h ****  *
   4:Drivers/lvgl/src/misc/lv_color.h ****  */
   5:Drivers/lvgl/src/misc/lv_color.h **** 
   6:Drivers/lvgl/src/misc/lv_color.h **** #ifndef LV_COLOR_H
   7:Drivers/lvgl/src/misc/lv_color.h **** #define LV_COLOR_H
   8:Drivers/lvgl/src/misc/lv_color.h **** 
   9:Drivers/lvgl/src/misc/lv_color.h **** #ifdef __cplusplus
  10:Drivers/lvgl/src/misc/lv_color.h **** extern "C" {
  11:Drivers/lvgl/src/misc/lv_color.h **** #endif
  12:Drivers/lvgl/src/misc/lv_color.h **** 
  13:Drivers/lvgl/src/misc/lv_color.h **** /*********************
  14:Drivers/lvgl/src/misc/lv_color.h ****  *      INCLUDES
  15:Drivers/lvgl/src/misc/lv_color.h ****  *********************/
  16:Drivers/lvgl/src/misc/lv_color.h **** #include "../lv_conf_internal.h"
  17:Drivers/lvgl/src/misc/lv_color.h **** #include "lv_assert.h"
  18:Drivers/lvgl/src/misc/lv_color.h **** #include "lv_math.h"
  19:Drivers/lvgl/src/misc/lv_color.h **** #include "lv_types.h"
  20:Drivers/lvgl/src/misc/lv_color.h **** 
  21:Drivers/lvgl/src/misc/lv_color.h **** /*Error checking*/
  22:Drivers/lvgl/src/misc/lv_color.h **** #if LV_COLOR_DEPTH == 24
  23:Drivers/lvgl/src/misc/lv_color.h **** #error "LV_COLOR_DEPTH 24 is deprecated. Use LV_COLOR_DEPTH 32 instead (lv_conf.h)"
  24:Drivers/lvgl/src/misc/lv_color.h **** #endif
  25:Drivers/lvgl/src/misc/lv_color.h **** 
  26:Drivers/lvgl/src/misc/lv_color.h **** #if LV_COLOR_DEPTH != 16 && LV_COLOR_16_SWAP != 0
  27:Drivers/lvgl/src/misc/lv_color.h **** #error "LV_COLOR_16_SWAP requires LV_COLOR_DEPTH == 16. Set it in lv_conf.h"
  28:Drivers/lvgl/src/misc/lv_color.h **** #endif
  29:Drivers/lvgl/src/misc/lv_color.h **** 
  30:Drivers/lvgl/src/misc/lv_color.h **** #include <stdint.h>
  31:Drivers/lvgl/src/misc/lv_color.h **** 
  32:Drivers/lvgl/src/misc/lv_color.h **** /*********************
  33:Drivers/lvgl/src/misc/lv_color.h ****  *      DEFINES
  34:Drivers/lvgl/src/misc/lv_color.h ****  *********************/
  35:Drivers/lvgl/src/misc/lv_color.h **** LV_EXPORT_CONST_INT(LV_COLOR_DEPTH);
  36:Drivers/lvgl/src/misc/lv_color.h **** LV_EXPORT_CONST_INT(LV_COLOR_16_SWAP);
  37:Drivers/lvgl/src/misc/lv_color.h **** 
  38:Drivers/lvgl/src/misc/lv_color.h **** /**
  39:Drivers/lvgl/src/misc/lv_color.h ****  * Opacity percentages.
  40:Drivers/lvgl/src/misc/lv_color.h ****  */
  41:Drivers/lvgl/src/misc/lv_color.h **** enum {
  42:Drivers/lvgl/src/misc/lv_color.h ****     LV_OPA_TRANSP = 0,
  43:Drivers/lvgl/src/misc/lv_color.h ****     LV_OPA_0      = 0,
  44:Drivers/lvgl/src/misc/lv_color.h ****     LV_OPA_10     = 25,
  45:Drivers/lvgl/src/misc/lv_color.h ****     LV_OPA_20     = 51,
  46:Drivers/lvgl/src/misc/lv_color.h ****     LV_OPA_30     = 76,
  47:Drivers/lvgl/src/misc/lv_color.h ****     LV_OPA_40     = 102,
  48:Drivers/lvgl/src/misc/lv_color.h ****     LV_OPA_50     = 127,
  49:Drivers/lvgl/src/misc/lv_color.h ****     LV_OPA_60     = 153,
  50:Drivers/lvgl/src/misc/lv_color.h ****     LV_OPA_70     = 178,
  51:Drivers/lvgl/src/misc/lv_color.h ****     LV_OPA_80     = 204,
  52:Drivers/lvgl/src/misc/lv_color.h ****     LV_OPA_90     = 229,
  53:Drivers/lvgl/src/misc/lv_color.h ****     LV_OPA_100    = 255,
  54:Drivers/lvgl/src/misc/lv_color.h ****     LV_OPA_COVER  = 255,
  55:Drivers/lvgl/src/misc/lv_color.h **** };
  56:Drivers/lvgl/src/misc/lv_color.h **** 
ARM GAS  /var/folders/lp/x54gwt890xv47sdkqj1k04q40000gn/T//ccfNKTR3.s 			page 7


  57:Drivers/lvgl/src/misc/lv_color.h **** #define LV_OPA_MIN 2    /*Opacities below this will be transparent*/
  58:Drivers/lvgl/src/misc/lv_color.h **** #define LV_OPA_MAX 253  /*Opacities above this will fully cover*/
  59:Drivers/lvgl/src/misc/lv_color.h **** 
  60:Drivers/lvgl/src/misc/lv_color.h **** #if LV_COLOR_DEPTH == 1
  61:Drivers/lvgl/src/misc/lv_color.h **** #define LV_COLOR_SIZE 8
  62:Drivers/lvgl/src/misc/lv_color.h **** #elif LV_COLOR_DEPTH == 8
  63:Drivers/lvgl/src/misc/lv_color.h **** #define LV_COLOR_SIZE 8
  64:Drivers/lvgl/src/misc/lv_color.h **** #elif LV_COLOR_DEPTH == 16
  65:Drivers/lvgl/src/misc/lv_color.h **** #define LV_COLOR_SIZE 16
  66:Drivers/lvgl/src/misc/lv_color.h **** #elif LV_COLOR_DEPTH == 32
  67:Drivers/lvgl/src/misc/lv_color.h **** #define LV_COLOR_SIZE 32
  68:Drivers/lvgl/src/misc/lv_color.h **** #else
  69:Drivers/lvgl/src/misc/lv_color.h **** #error "Invalid LV_COLOR_DEPTH in lv_conf.h! Set it to 1, 8, 16 or 32!"
  70:Drivers/lvgl/src/misc/lv_color.h **** #endif
  71:Drivers/lvgl/src/misc/lv_color.h **** 
  72:Drivers/lvgl/src/misc/lv_color.h **** #if defined(__cplusplus) && !defined(_LV_COLOR_HAS_MODERN_CPP)
  73:Drivers/lvgl/src/misc/lv_color.h **** /**
  74:Drivers/lvgl/src/misc/lv_color.h **** * MSVC compiler's definition of the __cplusplus indicating 199711L regardless to C++ standard versi
  75:Drivers/lvgl/src/misc/lv_color.h **** * see https://devblogs.microsoft.com/cppblog/msvc-now-correctly-reports-cplusplus
  76:Drivers/lvgl/src/misc/lv_color.h **** * so we use _MSC_VER macro instead of __cplusplus
  77:Drivers/lvgl/src/misc/lv_color.h **** */
  78:Drivers/lvgl/src/misc/lv_color.h **** #ifdef _MSC_VER
  79:Drivers/lvgl/src/misc/lv_color.h **** #if _MSC_VER >= 1900 /*Visual Studio 2015*/
  80:Drivers/lvgl/src/misc/lv_color.h **** #define _LV_COLOR_HAS_MODERN_CPP 1
  81:Drivers/lvgl/src/misc/lv_color.h **** #endif
  82:Drivers/lvgl/src/misc/lv_color.h **** #else
  83:Drivers/lvgl/src/misc/lv_color.h **** #if __cplusplus >= 201103L
  84:Drivers/lvgl/src/misc/lv_color.h **** #define _LV_COLOR_HAS_MODERN_CPP 1
  85:Drivers/lvgl/src/misc/lv_color.h **** #endif
  86:Drivers/lvgl/src/misc/lv_color.h **** #endif
  87:Drivers/lvgl/src/misc/lv_color.h **** #endif /*__cplusplus*/
  88:Drivers/lvgl/src/misc/lv_color.h **** 
  89:Drivers/lvgl/src/misc/lv_color.h **** #ifndef _LV_COLOR_HAS_MODERN_CPP
  90:Drivers/lvgl/src/misc/lv_color.h **** #define _LV_COLOR_HAS_MODERN_CPP 0
  91:Drivers/lvgl/src/misc/lv_color.h **** #endif
  92:Drivers/lvgl/src/misc/lv_color.h **** 
  93:Drivers/lvgl/src/misc/lv_color.h **** #if _LV_COLOR_HAS_MODERN_CPP
  94:Drivers/lvgl/src/misc/lv_color.h **** /*Fix msvc compiler error C4576 inside C++ code*/
  95:Drivers/lvgl/src/misc/lv_color.h **** #define _LV_COLOR_MAKE_TYPE_HELPER lv_color_t
  96:Drivers/lvgl/src/misc/lv_color.h **** #else
  97:Drivers/lvgl/src/misc/lv_color.h **** #define _LV_COLOR_MAKE_TYPE_HELPER (lv_color_t)
  98:Drivers/lvgl/src/misc/lv_color.h **** #endif
  99:Drivers/lvgl/src/misc/lv_color.h **** 
 100:Drivers/lvgl/src/misc/lv_color.h **** /*---------------------------------------
 101:Drivers/lvgl/src/misc/lv_color.h ****  * Macros for all existing color depths
 102:Drivers/lvgl/src/misc/lv_color.h ****  * to set/get values of the color channels
 103:Drivers/lvgl/src/misc/lv_color.h ****  *------------------------------------------*/
 104:Drivers/lvgl/src/misc/lv_color.h **** # define LV_COLOR_SET_R1(c, v) (c).ch.red = (uint8_t)((v) & 0x1)
 105:Drivers/lvgl/src/misc/lv_color.h **** # define LV_COLOR_SET_G1(c, v) (c).ch.green = (uint8_t)((v) & 0x1)
 106:Drivers/lvgl/src/misc/lv_color.h **** # define LV_COLOR_SET_B1(c, v) (c).ch.blue = (uint8_t)((v) & 0x1)
 107:Drivers/lvgl/src/misc/lv_color.h **** # define LV_COLOR_SET_A1(c, v) do {} while(0)
 108:Drivers/lvgl/src/misc/lv_color.h **** 
 109:Drivers/lvgl/src/misc/lv_color.h **** # define LV_COLOR_GET_R1(c) (c).ch.red
 110:Drivers/lvgl/src/misc/lv_color.h **** # define LV_COLOR_GET_G1(c) (c).ch.green
 111:Drivers/lvgl/src/misc/lv_color.h **** # define LV_COLOR_GET_B1(c) (c).ch.blue
 112:Drivers/lvgl/src/misc/lv_color.h **** # define LV_COLOR_GET_A1(c) 0xFF
 113:Drivers/lvgl/src/misc/lv_color.h **** 
ARM GAS  /var/folders/lp/x54gwt890xv47sdkqj1k04q40000gn/T//ccfNKTR3.s 			page 8


 114:Drivers/lvgl/src/misc/lv_color.h **** # define _LV_COLOR_ZERO_INITIALIZER1 {0x00}
 115:Drivers/lvgl/src/misc/lv_color.h **** # define LV_COLOR_MAKE1(r8, g8, b8)  {(uint8_t)((b8 >> 7) | (g8 >> 7) | (r8 >> 7))}
 116:Drivers/lvgl/src/misc/lv_color.h **** 
 117:Drivers/lvgl/src/misc/lv_color.h **** # define LV_COLOR_SET_R8(c, v) (c).ch.red = (uint8_t)((v) & 0x7U)
 118:Drivers/lvgl/src/misc/lv_color.h **** # define LV_COLOR_SET_G8(c, v) (c).ch.green = (uint8_t)((v) & 0x7U)
 119:Drivers/lvgl/src/misc/lv_color.h **** # define LV_COLOR_SET_B8(c, v) (c).ch.blue = (uint8_t)((v) & 0x3U)
 120:Drivers/lvgl/src/misc/lv_color.h **** # define LV_COLOR_SET_A8(c, v) do {} while(0)
 121:Drivers/lvgl/src/misc/lv_color.h **** 
 122:Drivers/lvgl/src/misc/lv_color.h **** # define LV_COLOR_GET_R8(c) (c).ch.red
 123:Drivers/lvgl/src/misc/lv_color.h **** # define LV_COLOR_GET_G8(c) (c).ch.green
 124:Drivers/lvgl/src/misc/lv_color.h **** # define LV_COLOR_GET_B8(c) (c).ch.blue
 125:Drivers/lvgl/src/misc/lv_color.h **** # define LV_COLOR_GET_A8(c) 0xFF
 126:Drivers/lvgl/src/misc/lv_color.h **** 
 127:Drivers/lvgl/src/misc/lv_color.h **** # define _LV_COLOR_ZERO_INITIALIZER8 {{0x00, 0x00, 0x00}}
 128:Drivers/lvgl/src/misc/lv_color.h **** # define LV_COLOR_MAKE8(r8, g8, b8) {{(uint8_t)((b8 >> 6) & 0x3U), (uint8_t)((g8 >> 5) & 0x7U), (ui
 129:Drivers/lvgl/src/misc/lv_color.h **** 
 130:Drivers/lvgl/src/misc/lv_color.h **** # define LV_COLOR_SET_R16(c, v) (c).ch.red = (uint8_t)((v) & 0x1FU)
 131:Drivers/lvgl/src/misc/lv_color.h **** #if LV_COLOR_16_SWAP == 0
 132:Drivers/lvgl/src/misc/lv_color.h **** # define LV_COLOR_SET_G16(c, v) (c).ch.green = (uint8_t)((v) & 0x3FU)
 133:Drivers/lvgl/src/misc/lv_color.h **** #else
 134:Drivers/lvgl/src/misc/lv_color.h **** # define LV_COLOR_SET_G16(c, v) {(c).ch.green_h = (uint8_t)(((v) >> 3) & 0x7); (c).ch.green_l = (ui
 135:Drivers/lvgl/src/misc/lv_color.h **** #endif
 136:Drivers/lvgl/src/misc/lv_color.h **** # define LV_COLOR_SET_B16(c, v) (c).ch.blue = (uint8_t)((v) & 0x1FU)
 137:Drivers/lvgl/src/misc/lv_color.h **** # define LV_COLOR_SET_A16(c, v) do {} while(0)
 138:Drivers/lvgl/src/misc/lv_color.h **** 
 139:Drivers/lvgl/src/misc/lv_color.h **** # define LV_COLOR_GET_R16(c) (c).ch.red
 140:Drivers/lvgl/src/misc/lv_color.h **** #if LV_COLOR_16_SWAP == 0
 141:Drivers/lvgl/src/misc/lv_color.h **** # define LV_COLOR_GET_G16(c) (c).ch.green
 142:Drivers/lvgl/src/misc/lv_color.h **** #else
 143:Drivers/lvgl/src/misc/lv_color.h **** # define LV_COLOR_GET_G16(c) (((c).ch.green_h << 3) + (c).ch.green_l)
 144:Drivers/lvgl/src/misc/lv_color.h **** #endif
 145:Drivers/lvgl/src/misc/lv_color.h **** # define LV_COLOR_GET_B16(c) (c).ch.blue
 146:Drivers/lvgl/src/misc/lv_color.h **** # define LV_COLOR_GET_A16(c) 0xFF
 147:Drivers/lvgl/src/misc/lv_color.h **** 
 148:Drivers/lvgl/src/misc/lv_color.h **** #if LV_COLOR_16_SWAP == 0
 149:Drivers/lvgl/src/misc/lv_color.h **** # define _LV_COLOR_ZERO_INITIALIZER16  {{0x00, 0x00, 0x00}}
 150:Drivers/lvgl/src/misc/lv_color.h **** # define LV_COLOR_MAKE16(r8, g8, b8) {{(uint8_t)((b8 >> 3) & 0x1FU), (uint8_t)((g8 >> 2) & 0x3FU), 
 151:Drivers/lvgl/src/misc/lv_color.h **** #else
 152:Drivers/lvgl/src/misc/lv_color.h **** # define _LV_COLOR_ZERO_INITIALIZER16 {{0x00, 0x00, 0x00, 0x00}}
 153:Drivers/lvgl/src/misc/lv_color.h **** # define LV_COLOR_MAKE16(r8, g8, b8) {{(uint8_t)((g8 >> 5) & 0x7U), (uint8_t)((r8 >> 3) & 0x1FU), (
 154:Drivers/lvgl/src/misc/lv_color.h **** #endif
 155:Drivers/lvgl/src/misc/lv_color.h **** 
 156:Drivers/lvgl/src/misc/lv_color.h **** # define LV_COLOR_SET_R32(c, v) (c).ch.red = (uint8_t)((v) & 0xFF)
 157:Drivers/lvgl/src/misc/lv_color.h **** # define LV_COLOR_SET_G32(c, v) (c).ch.green = (uint8_t)((v) & 0xFF)
 158:Drivers/lvgl/src/misc/lv_color.h **** # define LV_COLOR_SET_B32(c, v) (c).ch.blue = (uint8_t)((v) & 0xFF)
 159:Drivers/lvgl/src/misc/lv_color.h **** # define LV_COLOR_SET_A32(c, v) (c).ch.alpha = (uint8_t)((v) & 0xFF)
 160:Drivers/lvgl/src/misc/lv_color.h **** 
 161:Drivers/lvgl/src/misc/lv_color.h **** # define LV_COLOR_GET_R32(c) (c).ch.red
 162:Drivers/lvgl/src/misc/lv_color.h **** # define LV_COLOR_GET_G32(c) (c).ch.green
 163:Drivers/lvgl/src/misc/lv_color.h **** # define LV_COLOR_GET_B32(c) (c).ch.blue
 164:Drivers/lvgl/src/misc/lv_color.h **** # define LV_COLOR_GET_A32(c) (c).ch.alpha
 165:Drivers/lvgl/src/misc/lv_color.h **** 
 166:Drivers/lvgl/src/misc/lv_color.h **** # define _LV_COLOR_ZERO_INITIALIZER32  {{0x00, 0x00, 0x00, 0x00}}
 167:Drivers/lvgl/src/misc/lv_color.h **** # define LV_COLOR_MAKE32(r8, g8, b8) {{b8, g8, r8, 0xff}} /*Fix 0xff alpha*/
 168:Drivers/lvgl/src/misc/lv_color.h **** 
 169:Drivers/lvgl/src/misc/lv_color.h **** /*---------------------------------------
 170:Drivers/lvgl/src/misc/lv_color.h ****  * Macros for the current color depth
ARM GAS  /var/folders/lp/x54gwt890xv47sdkqj1k04q40000gn/T//ccfNKTR3.s 			page 9


 171:Drivers/lvgl/src/misc/lv_color.h ****  * to set/get values of the color channels
 172:Drivers/lvgl/src/misc/lv_color.h ****  *------------------------------------------*/
 173:Drivers/lvgl/src/misc/lv_color.h **** #define LV_COLOR_SET_R(c, v) LV_CONCAT(LV_COLOR_SET_R, LV_COLOR_DEPTH)(c, v)
 174:Drivers/lvgl/src/misc/lv_color.h **** #define LV_COLOR_SET_G(c, v) LV_CONCAT(LV_COLOR_SET_G, LV_COLOR_DEPTH)(c, v)
 175:Drivers/lvgl/src/misc/lv_color.h **** #define LV_COLOR_SET_B(c, v) LV_CONCAT(LV_COLOR_SET_B, LV_COLOR_DEPTH)(c, v)
 176:Drivers/lvgl/src/misc/lv_color.h **** #define LV_COLOR_SET_A(c, v) LV_CONCAT(LV_COLOR_SET_A, LV_COLOR_DEPTH)(c, v)
 177:Drivers/lvgl/src/misc/lv_color.h **** 
 178:Drivers/lvgl/src/misc/lv_color.h **** #define LV_COLOR_GET_R(c) LV_CONCAT(LV_COLOR_GET_R, LV_COLOR_DEPTH)(c)
 179:Drivers/lvgl/src/misc/lv_color.h **** #define LV_COLOR_GET_G(c) LV_CONCAT(LV_COLOR_GET_G, LV_COLOR_DEPTH)(c)
 180:Drivers/lvgl/src/misc/lv_color.h **** #define LV_COLOR_GET_B(c) LV_CONCAT(LV_COLOR_GET_B, LV_COLOR_DEPTH)(c)
 181:Drivers/lvgl/src/misc/lv_color.h **** #define LV_COLOR_GET_A(c) LV_CONCAT(LV_COLOR_GET_A, LV_COLOR_DEPTH)(c)
 182:Drivers/lvgl/src/misc/lv_color.h **** 
 183:Drivers/lvgl/src/misc/lv_color.h **** #define _LV_COLOR_ZERO_INITIALIZER LV_CONCAT(_LV_COLOR_ZERO_INITIALIZER, LV_COLOR_DEPTH)
 184:Drivers/lvgl/src/misc/lv_color.h **** #define LV_COLOR_MAKE(r8, g8, b8) LV_CONCAT(LV_COLOR_MAKE, LV_COLOR_DEPTH)(r8, g8, b8)
 185:Drivers/lvgl/src/misc/lv_color.h **** 
 186:Drivers/lvgl/src/misc/lv_color.h **** /**********************
 187:Drivers/lvgl/src/misc/lv_color.h ****  *      TYPEDEFS
 188:Drivers/lvgl/src/misc/lv_color.h ****  **********************/
 189:Drivers/lvgl/src/misc/lv_color.h **** 
 190:Drivers/lvgl/src/misc/lv_color.h **** typedef union {
 191:Drivers/lvgl/src/misc/lv_color.h ****     uint8_t full; /*must be declared first to set all bits of byte via initializer list*/
 192:Drivers/lvgl/src/misc/lv_color.h ****     union {
 193:Drivers/lvgl/src/misc/lv_color.h ****         uint8_t blue : 1;
 194:Drivers/lvgl/src/misc/lv_color.h ****         uint8_t green : 1;
 195:Drivers/lvgl/src/misc/lv_color.h ****         uint8_t red : 1;
 196:Drivers/lvgl/src/misc/lv_color.h ****     } ch;
 197:Drivers/lvgl/src/misc/lv_color.h **** } lv_color1_t;
 198:Drivers/lvgl/src/misc/lv_color.h **** 
 199:Drivers/lvgl/src/misc/lv_color.h **** typedef union {
 200:Drivers/lvgl/src/misc/lv_color.h ****     struct {
 201:Drivers/lvgl/src/misc/lv_color.h ****         uint8_t blue : 2;
 202:Drivers/lvgl/src/misc/lv_color.h ****         uint8_t green : 3;
 203:Drivers/lvgl/src/misc/lv_color.h ****         uint8_t red : 3;
 204:Drivers/lvgl/src/misc/lv_color.h ****     } ch;
 205:Drivers/lvgl/src/misc/lv_color.h ****     uint8_t full;
 206:Drivers/lvgl/src/misc/lv_color.h **** } lv_color8_t;
 207:Drivers/lvgl/src/misc/lv_color.h **** 
 208:Drivers/lvgl/src/misc/lv_color.h **** typedef union {
 209:Drivers/lvgl/src/misc/lv_color.h ****     struct {
 210:Drivers/lvgl/src/misc/lv_color.h **** #if LV_COLOR_16_SWAP == 0
 211:Drivers/lvgl/src/misc/lv_color.h ****         uint16_t blue : 5;
 212:Drivers/lvgl/src/misc/lv_color.h ****         uint16_t green : 6;
 213:Drivers/lvgl/src/misc/lv_color.h ****         uint16_t red : 5;
 214:Drivers/lvgl/src/misc/lv_color.h **** #else
 215:Drivers/lvgl/src/misc/lv_color.h ****         uint16_t green_h : 3;
 216:Drivers/lvgl/src/misc/lv_color.h ****         uint16_t red : 5;
 217:Drivers/lvgl/src/misc/lv_color.h ****         uint16_t blue : 5;
 218:Drivers/lvgl/src/misc/lv_color.h ****         uint16_t green_l : 3;
 219:Drivers/lvgl/src/misc/lv_color.h **** #endif
 220:Drivers/lvgl/src/misc/lv_color.h ****     } ch;
 221:Drivers/lvgl/src/misc/lv_color.h ****     uint16_t full;
 222:Drivers/lvgl/src/misc/lv_color.h **** } lv_color16_t;
 223:Drivers/lvgl/src/misc/lv_color.h **** 
 224:Drivers/lvgl/src/misc/lv_color.h **** typedef union {
 225:Drivers/lvgl/src/misc/lv_color.h ****     struct {
 226:Drivers/lvgl/src/misc/lv_color.h ****         uint8_t blue;
 227:Drivers/lvgl/src/misc/lv_color.h ****         uint8_t green;
ARM GAS  /var/folders/lp/x54gwt890xv47sdkqj1k04q40000gn/T//ccfNKTR3.s 			page 10


 228:Drivers/lvgl/src/misc/lv_color.h ****         uint8_t red;
 229:Drivers/lvgl/src/misc/lv_color.h ****         uint8_t alpha;
 230:Drivers/lvgl/src/misc/lv_color.h ****     } ch;
 231:Drivers/lvgl/src/misc/lv_color.h ****     uint32_t full;
 232:Drivers/lvgl/src/misc/lv_color.h **** } lv_color32_t;
 233:Drivers/lvgl/src/misc/lv_color.h **** 
 234:Drivers/lvgl/src/misc/lv_color.h **** typedef LV_CONCAT3(uint, LV_COLOR_SIZE, _t) lv_color_int_t;
 235:Drivers/lvgl/src/misc/lv_color.h **** typedef LV_CONCAT3(lv_color, LV_COLOR_DEPTH, _t) lv_color_t;
 236:Drivers/lvgl/src/misc/lv_color.h **** 
 237:Drivers/lvgl/src/misc/lv_color.h **** typedef struct {
 238:Drivers/lvgl/src/misc/lv_color.h ****     uint16_t h;
 239:Drivers/lvgl/src/misc/lv_color.h ****     uint8_t s;
 240:Drivers/lvgl/src/misc/lv_color.h ****     uint8_t v;
 241:Drivers/lvgl/src/misc/lv_color.h **** } lv_color_hsv_t;
 242:Drivers/lvgl/src/misc/lv_color.h **** 
 243:Drivers/lvgl/src/misc/lv_color.h **** //! @cond Doxygen_Suppress
 244:Drivers/lvgl/src/misc/lv_color.h **** /*No idea where the guard is required but else throws warnings in the docs*/
 245:Drivers/lvgl/src/misc/lv_color.h **** typedef uint8_t lv_opa_t;
 246:Drivers/lvgl/src/misc/lv_color.h **** //! @endcond
 247:Drivers/lvgl/src/misc/lv_color.h **** 
 248:Drivers/lvgl/src/misc/lv_color.h **** struct _lv_color_filter_dsc_t;
 249:Drivers/lvgl/src/misc/lv_color.h **** 
 250:Drivers/lvgl/src/misc/lv_color.h **** typedef lv_color_t (*lv_color_filter_cb_t)(const struct _lv_color_filter_dsc_t *, lv_color_t, lv_op
 251:Drivers/lvgl/src/misc/lv_color.h **** 
 252:Drivers/lvgl/src/misc/lv_color.h **** typedef struct _lv_color_filter_dsc_t {
 253:Drivers/lvgl/src/misc/lv_color.h ****     lv_color_filter_cb_t filter_cb;
 254:Drivers/lvgl/src/misc/lv_color.h ****     void * user_data;
 255:Drivers/lvgl/src/misc/lv_color.h **** } lv_color_filter_dsc_t;
 256:Drivers/lvgl/src/misc/lv_color.h **** 
 257:Drivers/lvgl/src/misc/lv_color.h **** 
 258:Drivers/lvgl/src/misc/lv_color.h **** typedef enum {
 259:Drivers/lvgl/src/misc/lv_color.h ****     LV_PALETTE_RED,
 260:Drivers/lvgl/src/misc/lv_color.h ****     LV_PALETTE_PINK,
 261:Drivers/lvgl/src/misc/lv_color.h ****     LV_PALETTE_PURPLE,
 262:Drivers/lvgl/src/misc/lv_color.h ****     LV_PALETTE_DEEP_PURPLE,
 263:Drivers/lvgl/src/misc/lv_color.h ****     LV_PALETTE_INDIGO,
 264:Drivers/lvgl/src/misc/lv_color.h ****     LV_PALETTE_BLUE,
 265:Drivers/lvgl/src/misc/lv_color.h ****     LV_PALETTE_LIGHT_BLUE,
 266:Drivers/lvgl/src/misc/lv_color.h ****     LV_PALETTE_CYAN,
 267:Drivers/lvgl/src/misc/lv_color.h ****     LV_PALETTE_TEAL,
 268:Drivers/lvgl/src/misc/lv_color.h ****     LV_PALETTE_GREEN,
 269:Drivers/lvgl/src/misc/lv_color.h ****     LV_PALETTE_LIGHT_GREEN,
 270:Drivers/lvgl/src/misc/lv_color.h ****     LV_PALETTE_LIME,
 271:Drivers/lvgl/src/misc/lv_color.h ****     LV_PALETTE_YELLOW,
 272:Drivers/lvgl/src/misc/lv_color.h ****     LV_PALETTE_AMBER,
 273:Drivers/lvgl/src/misc/lv_color.h ****     LV_PALETTE_ORANGE,
 274:Drivers/lvgl/src/misc/lv_color.h ****     LV_PALETTE_DEEP_ORANGE,
 275:Drivers/lvgl/src/misc/lv_color.h ****     LV_PALETTE_BROWN,
 276:Drivers/lvgl/src/misc/lv_color.h ****     LV_PALETTE_BLUE_GREY,
 277:Drivers/lvgl/src/misc/lv_color.h ****     LV_PALETTE_GREY,
 278:Drivers/lvgl/src/misc/lv_color.h ****     _LV_PALETTE_LAST,
 279:Drivers/lvgl/src/misc/lv_color.h ****     LV_PALETTE_NONE = 0xff,
 280:Drivers/lvgl/src/misc/lv_color.h **** } lv_palette_t;
 281:Drivers/lvgl/src/misc/lv_color.h **** 
 282:Drivers/lvgl/src/misc/lv_color.h **** /**********************
 283:Drivers/lvgl/src/misc/lv_color.h ****  * GLOBAL PROTOTYPES
 284:Drivers/lvgl/src/misc/lv_color.h ****  **********************/
ARM GAS  /var/folders/lp/x54gwt890xv47sdkqj1k04q40000gn/T//ccfNKTR3.s 			page 11


 285:Drivers/lvgl/src/misc/lv_color.h **** 
 286:Drivers/lvgl/src/misc/lv_color.h **** /*In color conversations:
 287:Drivers/lvgl/src/misc/lv_color.h ****  * - When converting to bigger color type the LSB weight of 1 LSB is calculated
 288:Drivers/lvgl/src/misc/lv_color.h ****  *   E.g. 16 bit Red has 5 bits
 289:Drivers/lvgl/src/misc/lv_color.h ****  *         8 bit Red has 3 bits
 290:Drivers/lvgl/src/misc/lv_color.h ****  *        ----------------------
 291:Drivers/lvgl/src/misc/lv_color.h ****  *        8 bit red LSB = (2^5 - 1) / (2^3 - 1) = 31 / 7 = 4
 292:Drivers/lvgl/src/misc/lv_color.h ****  *
 293:Drivers/lvgl/src/misc/lv_color.h ****  * - When calculating to smaller color type simply shift out the LSBs
 294:Drivers/lvgl/src/misc/lv_color.h ****  *   E.g.  8 bit Red has 3 bits
 295:Drivers/lvgl/src/misc/lv_color.h ****  *        16 bit Red has 5 bits
 296:Drivers/lvgl/src/misc/lv_color.h ****  *        ----------------------
 297:Drivers/lvgl/src/misc/lv_color.h ****  *         Shift right with 5 - 3 = 2
 298:Drivers/lvgl/src/misc/lv_color.h ****  */
 299:Drivers/lvgl/src/misc/lv_color.h **** static inline uint8_t lv_color_to1(lv_color_t color)
 300:Drivers/lvgl/src/misc/lv_color.h **** {
 301:Drivers/lvgl/src/misc/lv_color.h **** #if LV_COLOR_DEPTH == 1
 302:Drivers/lvgl/src/misc/lv_color.h ****     return color.full;
 303:Drivers/lvgl/src/misc/lv_color.h **** #elif LV_COLOR_DEPTH == 8
 304:Drivers/lvgl/src/misc/lv_color.h ****     if((LV_COLOR_GET_R(color) & 0x4) || (LV_COLOR_GET_G(color) & 0x4) || (LV_COLOR_GET_B(color) & 0
 305:Drivers/lvgl/src/misc/lv_color.h ****         return 1;
 306:Drivers/lvgl/src/misc/lv_color.h ****     }
 307:Drivers/lvgl/src/misc/lv_color.h ****     else {
 308:Drivers/lvgl/src/misc/lv_color.h ****         return 0;
 309:Drivers/lvgl/src/misc/lv_color.h ****     }
 310:Drivers/lvgl/src/misc/lv_color.h **** #elif LV_COLOR_DEPTH == 16
 311:Drivers/lvgl/src/misc/lv_color.h ****     if((LV_COLOR_GET_R(color) & 0x10) || (LV_COLOR_GET_G(color) & 0x20) || (LV_COLOR_GET_B(color) &
 312:Drivers/lvgl/src/misc/lv_color.h ****         return 1;
 313:Drivers/lvgl/src/misc/lv_color.h ****     }
 314:Drivers/lvgl/src/misc/lv_color.h ****     else {
 315:Drivers/lvgl/src/misc/lv_color.h ****         return 0;
 316:Drivers/lvgl/src/misc/lv_color.h ****     }
 317:Drivers/lvgl/src/misc/lv_color.h **** #elif LV_COLOR_DEPTH == 32
 318:Drivers/lvgl/src/misc/lv_color.h ****     if((LV_COLOR_GET_R(color) & 0x80) || (LV_COLOR_GET_G(color) & 0x80) || (LV_COLOR_GET_B(color) &
 319:Drivers/lvgl/src/misc/lv_color.h ****         return 1;
 320:Drivers/lvgl/src/misc/lv_color.h ****     }
 321:Drivers/lvgl/src/misc/lv_color.h ****     else {
 322:Drivers/lvgl/src/misc/lv_color.h ****         return 0;
 323:Drivers/lvgl/src/misc/lv_color.h ****     }
 324:Drivers/lvgl/src/misc/lv_color.h **** #endif
 325:Drivers/lvgl/src/misc/lv_color.h **** }
 326:Drivers/lvgl/src/misc/lv_color.h **** 
 327:Drivers/lvgl/src/misc/lv_color.h **** static inline uint8_t lv_color_to8(lv_color_t color)
 328:Drivers/lvgl/src/misc/lv_color.h **** {
 329:Drivers/lvgl/src/misc/lv_color.h **** #if LV_COLOR_DEPTH == 1
 330:Drivers/lvgl/src/misc/lv_color.h ****     if(color.full == 0)
 331:Drivers/lvgl/src/misc/lv_color.h ****         return 0;
 332:Drivers/lvgl/src/misc/lv_color.h ****     else
 333:Drivers/lvgl/src/misc/lv_color.h ****         return 0xFF;
 334:Drivers/lvgl/src/misc/lv_color.h **** #elif LV_COLOR_DEPTH == 8
 335:Drivers/lvgl/src/misc/lv_color.h ****     return color.full;
 336:Drivers/lvgl/src/misc/lv_color.h **** #elif LV_COLOR_DEPTH == 16
 337:Drivers/lvgl/src/misc/lv_color.h ****     lv_color8_t ret;
 338:Drivers/lvgl/src/misc/lv_color.h ****     LV_COLOR_SET_R8(ret, LV_COLOR_GET_R(color) >> 2); /*5 - 3  = 2*/
 339:Drivers/lvgl/src/misc/lv_color.h ****     LV_COLOR_SET_G8(ret, LV_COLOR_GET_G(color) >> 3); /*6 - 3  = 3*/
 340:Drivers/lvgl/src/misc/lv_color.h ****     LV_COLOR_SET_B8(ret, LV_COLOR_GET_B(color) >> 3); /*5 - 2  = 3*/
 341:Drivers/lvgl/src/misc/lv_color.h ****     return ret.full;
ARM GAS  /var/folders/lp/x54gwt890xv47sdkqj1k04q40000gn/T//ccfNKTR3.s 			page 12


 342:Drivers/lvgl/src/misc/lv_color.h **** #elif LV_COLOR_DEPTH == 32
 343:Drivers/lvgl/src/misc/lv_color.h ****     lv_color8_t ret;
 344:Drivers/lvgl/src/misc/lv_color.h ****     LV_COLOR_SET_R8(ret, LV_COLOR_GET_R(color) >> 5); /*8 - 3  = 5*/
 345:Drivers/lvgl/src/misc/lv_color.h ****     LV_COLOR_SET_G8(ret, LV_COLOR_GET_G(color) >> 5); /*8 - 3  = 5*/
 346:Drivers/lvgl/src/misc/lv_color.h ****     LV_COLOR_SET_B8(ret, LV_COLOR_GET_B(color) >> 6); /*8 - 2  = 6*/
 347:Drivers/lvgl/src/misc/lv_color.h ****     return ret.full;
 348:Drivers/lvgl/src/misc/lv_color.h **** #endif
 349:Drivers/lvgl/src/misc/lv_color.h **** }
 350:Drivers/lvgl/src/misc/lv_color.h **** 
 351:Drivers/lvgl/src/misc/lv_color.h **** static inline uint16_t lv_color_to16(lv_color_t color)
 352:Drivers/lvgl/src/misc/lv_color.h **** {
 353:Drivers/lvgl/src/misc/lv_color.h **** #if LV_COLOR_DEPTH == 1
 354:Drivers/lvgl/src/misc/lv_color.h ****     if(color.full == 0)
 355:Drivers/lvgl/src/misc/lv_color.h ****         return 0;
 356:Drivers/lvgl/src/misc/lv_color.h ****     else
 357:Drivers/lvgl/src/misc/lv_color.h ****         return 0xFFFF;
 358:Drivers/lvgl/src/misc/lv_color.h **** #elif LV_COLOR_DEPTH == 8
 359:Drivers/lvgl/src/misc/lv_color.h ****     lv_color16_t ret;
 360:Drivers/lvgl/src/misc/lv_color.h ****     LV_COLOR_SET_R16(ret, LV_COLOR_GET_R(color) * 4);  /*(2^5 - 1)/(2^3 - 1) = 31/7 = 4*/
 361:Drivers/lvgl/src/misc/lv_color.h ****     LV_COLOR_SET_G16(ret, LV_COLOR_GET_G(color) * 9);  /*(2^6 - 1)/(2^3 - 1) = 63/7 = 9*/
 362:Drivers/lvgl/src/misc/lv_color.h ****     LV_COLOR_SET_B16(ret, LV_COLOR_GET_B(color) * 10); /*(2^5 - 1)/(2^2 - 1) = 31/3 = 10*/
 363:Drivers/lvgl/src/misc/lv_color.h ****     return ret.full;
 364:Drivers/lvgl/src/misc/lv_color.h **** #elif LV_COLOR_DEPTH == 16
 365:Drivers/lvgl/src/misc/lv_color.h ****     return color.full;
 366:Drivers/lvgl/src/misc/lv_color.h **** #elif LV_COLOR_DEPTH == 32
 367:Drivers/lvgl/src/misc/lv_color.h ****     lv_color16_t ret;
 368:Drivers/lvgl/src/misc/lv_color.h ****     LV_COLOR_SET_R16(ret, LV_COLOR_GET_R(color) >> 3); /*8 - 5  = 3*/
 369:Drivers/lvgl/src/misc/lv_color.h ****     LV_COLOR_SET_G16(ret, LV_COLOR_GET_G(color) >> 2); /*8 - 6  = 2*/
 370:Drivers/lvgl/src/misc/lv_color.h ****     LV_COLOR_SET_B16(ret, LV_COLOR_GET_B(color) >> 3); /*8 - 5  = 3*/
 371:Drivers/lvgl/src/misc/lv_color.h ****     return ret.full;
 372:Drivers/lvgl/src/misc/lv_color.h **** #endif
 373:Drivers/lvgl/src/misc/lv_color.h **** }
 374:Drivers/lvgl/src/misc/lv_color.h **** 
 375:Drivers/lvgl/src/misc/lv_color.h **** static inline uint32_t lv_color_to32(lv_color_t color)
 376:Drivers/lvgl/src/misc/lv_color.h **** {
 377:Drivers/lvgl/src/misc/lv_color.h **** #if LV_COLOR_DEPTH == 1
 378:Drivers/lvgl/src/misc/lv_color.h ****     if(color.full == 0)
 379:Drivers/lvgl/src/misc/lv_color.h ****         return 0xFF000000;
 380:Drivers/lvgl/src/misc/lv_color.h ****     else
 381:Drivers/lvgl/src/misc/lv_color.h ****         return 0xFFFFFFFF;
 382:Drivers/lvgl/src/misc/lv_color.h **** #elif LV_COLOR_DEPTH == 8
 383:Drivers/lvgl/src/misc/lv_color.h ****     lv_color32_t ret;
 384:Drivers/lvgl/src/misc/lv_color.h ****     LV_COLOR_SET_R32(ret, LV_COLOR_GET_R(color) * 36); /*(2^8 - 1)/(2^3 - 1) = 255/7 = 36*/
 385:Drivers/lvgl/src/misc/lv_color.h ****     LV_COLOR_SET_G32(ret, LV_COLOR_GET_G(color) * 36); /*(2^8 - 1)/(2^3 - 1) = 255/7 = 36*/
 386:Drivers/lvgl/src/misc/lv_color.h ****     LV_COLOR_SET_B32(ret, LV_COLOR_GET_B(color) * 85); /*(2^8 - 1)/(2^2 - 1) = 255/3 = 85*/
 387:Drivers/lvgl/src/misc/lv_color.h ****     LV_COLOR_SET_A32(ret, 0xFF);
 388:Drivers/lvgl/src/misc/lv_color.h ****     return ret.full;
 389:Drivers/lvgl/src/misc/lv_color.h **** #elif LV_COLOR_DEPTH == 16
 390:Drivers/lvgl/src/misc/lv_color.h ****     /**
 391:Drivers/lvgl/src/misc/lv_color.h ****      * The floating point math for conversion is:
 392:Drivers/lvgl/src/misc/lv_color.h ****      *  valueto = valuefrom * ( (2^bitsto - 1) / (float)(2^bitsfrom - 1) )
 393:Drivers/lvgl/src/misc/lv_color.h ****      * The faster integer math for conversion is:
 394:Drivers/lvgl/src/misc/lv_color.h ****      *  valueto = ( valuefrom * multiplier + adder ) >> divisor
 395:Drivers/lvgl/src/misc/lv_color.h ****      *   multiplier = FLOOR( ( (2^bitsto - 1) << divisor ) / (float)(2^bitsfrom - 1) )
 396:Drivers/lvgl/src/misc/lv_color.h ****      *
 397:Drivers/lvgl/src/misc/lv_color.h ****      * Find the first divisor where ( adder >> divisor ) <= 0
 398:Drivers/lvgl/src/misc/lv_color.h ****      *
ARM GAS  /var/folders/lp/x54gwt890xv47sdkqj1k04q40000gn/T//ccfNKTR3.s 			page 13


 399:Drivers/lvgl/src/misc/lv_color.h ****      * 5-bit to 8-bit: ( 31 * multiplier + adder ) >> divisor = 255
 400:Drivers/lvgl/src/misc/lv_color.h ****      * divisor  multiplier  adder  min (0)  max (31)
 401:Drivers/lvgl/src/misc/lv_color.h ****      *       0           8      7        7       255
 402:Drivers/lvgl/src/misc/lv_color.h ****      *       1          16     14        7       255
 403:Drivers/lvgl/src/misc/lv_color.h ****      *       2          32     28        7       255
 404:Drivers/lvgl/src/misc/lv_color.h ****      *       3          65     25        3       255
 405:Drivers/lvgl/src/misc/lv_color.h ****      *       4         131     19        1       255
 406:Drivers/lvgl/src/misc/lv_color.h ****      *       5         263      7        0       255
 407:Drivers/lvgl/src/misc/lv_color.h ****      *
 408:Drivers/lvgl/src/misc/lv_color.h ****      * 6-bit to 8-bit: 255 = ( 63 * multiplier + adder ) >> divisor
 409:Drivers/lvgl/src/misc/lv_color.h ****      * divisor  multiplier  adder  min (0)  max (63)
 410:Drivers/lvgl/src/misc/lv_color.h ****      *       0           4      3        3       255
 411:Drivers/lvgl/src/misc/lv_color.h ****      *       1           8      6        3       255
 412:Drivers/lvgl/src/misc/lv_color.h ****      *       2          16     12        3       255
 413:Drivers/lvgl/src/misc/lv_color.h ****      *       3          32     24        3       255
 414:Drivers/lvgl/src/misc/lv_color.h ****      *       4          64     48        3       255
 415:Drivers/lvgl/src/misc/lv_color.h ****      *       5         129     33        1       255
 416:Drivers/lvgl/src/misc/lv_color.h ****      *       6         259      3        0       255
 417:Drivers/lvgl/src/misc/lv_color.h ****      */
 418:Drivers/lvgl/src/misc/lv_color.h **** 
 419:Drivers/lvgl/src/misc/lv_color.h ****     lv_color32_t ret;
 420:Drivers/lvgl/src/misc/lv_color.h ****     LV_COLOR_SET_R32(ret, (LV_COLOR_GET_R(color) * 263 + 7) >> 5);
 421:Drivers/lvgl/src/misc/lv_color.h ****     LV_COLOR_SET_G32(ret, (LV_COLOR_GET_G(color) * 259 + 3) >> 6);
 422:Drivers/lvgl/src/misc/lv_color.h ****     LV_COLOR_SET_B32(ret, (LV_COLOR_GET_B(color) * 263 + 7) >> 5);
 423:Drivers/lvgl/src/misc/lv_color.h ****     LV_COLOR_SET_A32(ret, 0xFF);
 424:Drivers/lvgl/src/misc/lv_color.h ****     return ret.full;
 425:Drivers/lvgl/src/misc/lv_color.h **** #elif LV_COLOR_DEPTH == 32
 426:Drivers/lvgl/src/misc/lv_color.h ****     return color.full;
 427:Drivers/lvgl/src/misc/lv_color.h **** #endif
 428:Drivers/lvgl/src/misc/lv_color.h **** }
 429:Drivers/lvgl/src/misc/lv_color.h **** 
 430:Drivers/lvgl/src/misc/lv_color.h **** //! @cond Doxygen_Suppress
 431:Drivers/lvgl/src/misc/lv_color.h **** 
 432:Drivers/lvgl/src/misc/lv_color.h **** /**
 433:Drivers/lvgl/src/misc/lv_color.h ****  * Mix two colors with a given ratio.
 434:Drivers/lvgl/src/misc/lv_color.h ****  * @param c1 the first color to mix (usually the foreground)
 435:Drivers/lvgl/src/misc/lv_color.h ****  * @param c2 the second color to mix (usually the background)
 436:Drivers/lvgl/src/misc/lv_color.h ****  * @param mix The ratio of the colors. 0: full `c2`, 255: full `c1`, 127: half `c1` and half`c2`
 437:Drivers/lvgl/src/misc/lv_color.h ****  * @return the mixed color
 438:Drivers/lvgl/src/misc/lv_color.h ****  */
 439:Drivers/lvgl/src/misc/lv_color.h **** static inline lv_color_t LV_ATTRIBUTE_FAST_MEM lv_color_mix(lv_color_t c1, lv_color_t c2, uint8_t m
 440:Drivers/lvgl/src/misc/lv_color.h **** {
 441:Drivers/lvgl/src/misc/lv_color.h ****     lv_color_t ret;
 442:Drivers/lvgl/src/misc/lv_color.h **** 
 443:Drivers/lvgl/src/misc/lv_color.h **** #if LV_COLOR_DEPTH == 16 && LV_COLOR_MIX_ROUND_OFS == 0
 444:Drivers/lvgl/src/misc/lv_color.h **** #if LV_COLOR_16_SWAP == 1
 445:Drivers/lvgl/src/misc/lv_color.h ****     c1.full = c1.full << 8 | c1.full >> 8;
 446:Drivers/lvgl/src/misc/lv_color.h ****     c2.full = c2.full << 8 | c2.full >> 8;
 150              		.loc 2 446 28 is_stmt 0 view .LVU45
 151 0000 40BA     		rev16	r0, r0
 152              	.LVL11:
 447:Drivers/lvgl/src/misc/lv_color.h **** #endif
 448:Drivers/lvgl/src/misc/lv_color.h ****     /*Source: https://stackoverflow.com/a/50012418/1999969*/
 449:Drivers/lvgl/src/misc/lv_color.h ****     mix = (uint32_t)((uint32_t)mix + 4) >> 3;
 450:Drivers/lvgl/src/misc/lv_color.h ****     uint32_t bg = (uint32_t)((uint32_t)c2.full | ((uint32_t)c2.full << 16)) &
 153              		.loc 2 450 14 view .LVU46
 154 0002 094B     		ldr	r3, .L18
ARM GAS  /var/folders/lp/x54gwt890xv47sdkqj1k04q40000gn/T//ccfNKTR3.s 			page 14


 155              	.LVL12:
 156              		.loc 2 450 14 view .LVU47
 157              	.LBE27:
 158              	.LBI26:
 439:Drivers/lvgl/src/misc/lv_color.h **** {
 159              		.loc 2 439 48 is_stmt 1 view .LVU48
 160              	.LBB28:
 441:Drivers/lvgl/src/misc/lv_color.h **** 
 161              		.loc 2 441 5 view .LVU49
 445:Drivers/lvgl/src/misc/lv_color.h ****     c2.full = c2.full << 8 | c2.full >> 8;
 162              		.loc 2 445 5 view .LVU50
 446:Drivers/lvgl/src/misc/lv_color.h **** #endif
 163              		.loc 2 446 5 view .LVU51
 449:Drivers/lvgl/src/misc/lv_color.h ****     uint32_t bg = (uint32_t)((uint32_t)c2.full | ((uint32_t)c2.full << 16)) &
 164              		.loc 2 449 5 view .LVU52
 165              		.loc 2 450 5 view .LVU53
 166              		.loc 2 450 19 is_stmt 0 view .LVU54
 167 0004 0204     		lsls	r2, r0, #16
 168 0006 12FA80F0 		uxtah	r0, r2, r0
 449:Drivers/lvgl/src/misc/lv_color.h ****     uint32_t bg = (uint32_t)((uint32_t)c2.full | ((uint32_t)c2.full << 16)) &
 169              		.loc 2 449 11 view .LVU55
 170 000a 0431     		adds	r1, r1, #4
 171              	.LVL13:
 451:Drivers/lvgl/src/misc/lv_color.h ****                   0x7E0F81F; /*0b00000111111000001111100000011111*/
 452:Drivers/lvgl/src/misc/lv_color.h ****     uint32_t fg = (uint32_t)((uint32_t)c1.full | ((uint32_t)c1.full << 16)) & 0x7E0F81F;
 453:Drivers/lvgl/src/misc/lv_color.h ****     uint32_t result = ((((fg - bg) * mix) >> 5) + bg) & 0x7E0F81F;
 172              		.loc 2 453 30 view .LVU56
 173 000c 23EA0002 		bic	r2, r3, r0
 449:Drivers/lvgl/src/misc/lv_color.h ****     uint32_t bg = (uint32_t)((uint32_t)c2.full | ((uint32_t)c2.full << 16)) &
 174              		.loc 2 449 41 view .LVU57
 175 0010 C908     		lsrs	r1, r1, #3
 176              	.LVL14:
 450:Drivers/lvgl/src/misc/lv_color.h ****                   0x7E0F81F; /*0b00000111111000001111100000011111*/
 177              		.loc 2 450 14 view .LVU58
 178 0012 1840     		ands	r0, r0, r3
 179              	.LVL15:
 452:Drivers/lvgl/src/misc/lv_color.h ****     uint32_t result = ((((fg - bg) * mix) >> 5) + bg) & 0x7E0F81F;
 180              		.loc 2 452 5 is_stmt 1 view .LVU59
 181              		.loc 2 453 5 view .LVU60
 182              		.loc 2 453 36 is_stmt 0 view .LVU61
 183 0014 02FB01F1 		mul	r1, r2, r1
 184              		.loc 2 453 49 view .LVU62
 185 0018 00EB5110 		add	r0, r0, r1, lsr #5
 186              	.LVL16:
 187              		.loc 2 453 14 view .LVU63
 188 001c 1840     		ands	r0, r0, r3
 189              	.LVL17:
 454:Drivers/lvgl/src/misc/lv_color.h ****     ret.full = (uint16_t)((result >> 16) | result);
 190              		.loc 2 454 5 is_stmt 1 view .LVU64
 455:Drivers/lvgl/src/misc/lv_color.h **** #if LV_COLOR_16_SWAP == 1
 456:Drivers/lvgl/src/misc/lv_color.h ****     ret.full = ret.full << 8 | ret.full >> 8;
 191              		.loc 2 456 5 view .LVU65
 457:Drivers/lvgl/src/misc/lv_color.h **** #endif
 458:Drivers/lvgl/src/misc/lv_color.h **** #elif LV_COLOR_DEPTH != 1
 459:Drivers/lvgl/src/misc/lv_color.h ****     /*LV_COLOR_DEPTH == 8, 16 or 32*/
 460:Drivers/lvgl/src/misc/lv_color.h ****     LV_COLOR_SET_R(ret, LV_UDIV255((uint16_t)LV_COLOR_GET_R(c1) * mix + LV_COLOR_GET_R(c2) *
 461:Drivers/lvgl/src/misc/lv_color.h ****                                    (255 - mix) + LV_COLOR_MIX_ROUND_OFS));
ARM GAS  /var/folders/lp/x54gwt890xv47sdkqj1k04q40000gn/T//ccfNKTR3.s 			page 15


 462:Drivers/lvgl/src/misc/lv_color.h ****     LV_COLOR_SET_G(ret, LV_UDIV255((uint16_t)LV_COLOR_GET_G(c1) * mix + LV_COLOR_GET_G(c2) *
 463:Drivers/lvgl/src/misc/lv_color.h ****                                    (255 - mix) + LV_COLOR_MIX_ROUND_OFS));
 464:Drivers/lvgl/src/misc/lv_color.h ****     LV_COLOR_SET_B(ret, LV_UDIV255((uint16_t)LV_COLOR_GET_B(c1) * mix + LV_COLOR_GET_B(c2) *
 465:Drivers/lvgl/src/misc/lv_color.h ****                                    (255 - mix) + LV_COLOR_MIX_ROUND_OFS));
 466:Drivers/lvgl/src/misc/lv_color.h ****     LV_COLOR_SET_A(ret, 0xFF);
 467:Drivers/lvgl/src/misc/lv_color.h **** #else
 468:Drivers/lvgl/src/misc/lv_color.h ****     /*LV_COLOR_DEPTH == 1*/
 469:Drivers/lvgl/src/misc/lv_color.h ****     ret.full = mix > LV_OPA_50 ? c1.full : c2.full;
 470:Drivers/lvgl/src/misc/lv_color.h **** #endif
 471:Drivers/lvgl/src/misc/lv_color.h **** 
 472:Drivers/lvgl/src/misc/lv_color.h ****     return ret;
 192              		.loc 2 472 5 view .LVU66
 454:Drivers/lvgl/src/misc/lv_color.h **** #if LV_COLOR_16_SWAP == 1
 193              		.loc 2 454 16 is_stmt 0 view .LVU67
 194 001e 40EA1040 		orr	r0, r0, r0, lsr #16
 195              	.LBE28:
 196              	.LBE26:
 129:Drivers/lvgl/src/misc/lv_color.c **** }
 197              		.loc 1 129 1 view .LVU68
 198 0022 40BA     		rev16	r0, r0
 199 0024 7047     		bx	lr
 200              	.L19:
 201 0026 00BF     		.align	2
 202              	.L18:
 203 0028 1FF8E007 		.word	132184095
 204              		.cfi_endproc
 205              	.LFE19:
 207              		.section	.text.lv_color_darken,"ax",%progbits
 208              		.align	1
 209              		.p2align 2,,3
 210              		.global	lv_color_darken
 211              		.syntax unified
 212              		.thumb
 213              		.thumb_func
 215              	lv_color_darken:
 216              	.LVL18:
 217              	.LFB20:
 130:Drivers/lvgl/src/misc/lv_color.c **** 
 131:Drivers/lvgl/src/misc/lv_color.c **** lv_color_t lv_color_darken(lv_color_t c, lv_opa_t lvl)
 132:Drivers/lvgl/src/misc/lv_color.c **** {
 218              		.loc 1 132 1 is_stmt 1 view -0
 219              		.cfi_startproc
 220              		@ args = 0, pretend = 0, frame = 0
 221              		@ frame_needed = 0, uses_anonymous_args = 0
 222              		@ link register save eliminated.
 133:Drivers/lvgl/src/misc/lv_color.c ****     return lv_color_mix(lv_color_black(), c, lvl);
 223              		.loc 1 133 5 view .LVU70
 224              	.LBB31:
 225              	.LBB32:
 446:Drivers/lvgl/src/misc/lv_color.h **** #endif
 226              		.loc 2 446 28 is_stmt 0 view .LVU71
 227 0000 40BA     		rev16	r0, r0
 228              	.LVL19:
 450:Drivers/lvgl/src/misc/lv_color.h ****                   0x7E0F81F; /*0b00000111111000001111100000011111*/
 229              		.loc 2 450 14 view .LVU72
 230 0002 084A     		ldr	r2, .L21
 231              	.LVL20:
ARM GAS  /var/folders/lp/x54gwt890xv47sdkqj1k04q40000gn/T//ccfNKTR3.s 			page 16


 450:Drivers/lvgl/src/misc/lv_color.h ****                   0x7E0F81F; /*0b00000111111000001111100000011111*/
 232              		.loc 2 450 14 view .LVU73
 233              	.LBE32:
 234              	.LBI31:
 439:Drivers/lvgl/src/misc/lv_color.h **** {
 235              		.loc 2 439 48 is_stmt 1 view .LVU74
 236              	.LBB33:
 441:Drivers/lvgl/src/misc/lv_color.h **** 
 237              		.loc 2 441 5 view .LVU75
 445:Drivers/lvgl/src/misc/lv_color.h ****     c2.full = c2.full << 8 | c2.full >> 8;
 238              		.loc 2 445 5 view .LVU76
 446:Drivers/lvgl/src/misc/lv_color.h **** #endif
 239              		.loc 2 446 5 view .LVU77
 449:Drivers/lvgl/src/misc/lv_color.h ****     uint32_t bg = (uint32_t)((uint32_t)c2.full | ((uint32_t)c2.full << 16)) &
 240              		.loc 2 449 5 view .LVU78
 450:Drivers/lvgl/src/misc/lv_color.h ****                   0x7E0F81F; /*0b00000111111000001111100000011111*/
 241              		.loc 2 450 5 view .LVU79
 450:Drivers/lvgl/src/misc/lv_color.h ****                   0x7E0F81F; /*0b00000111111000001111100000011111*/
 242              		.loc 2 450 19 is_stmt 0 view .LVU80
 243 0004 0304     		lsls	r3, r0, #16
 244 0006 13FA80F0 		uxtah	r0, r3, r0
 449:Drivers/lvgl/src/misc/lv_color.h ****     uint32_t bg = (uint32_t)((uint32_t)c2.full | ((uint32_t)c2.full << 16)) &
 245              		.loc 2 449 11 view .LVU81
 246 000a 0B1D     		adds	r3, r1, #4
 450:Drivers/lvgl/src/misc/lv_color.h ****                   0x7E0F81F; /*0b00000111111000001111100000011111*/
 247              		.loc 2 450 14 view .LVU82
 248 000c 1040     		ands	r0, r0, r2
 249              	.LVL21:
 452:Drivers/lvgl/src/misc/lv_color.h ****     uint32_t result = ((((fg - bg) * mix) >> 5) + bg) & 0x7E0F81F;
 250              		.loc 2 452 5 is_stmt 1 view .LVU83
 453:Drivers/lvgl/src/misc/lv_color.h ****     ret.full = (uint16_t)((result >> 16) | result);
 251              		.loc 2 453 5 view .LVU84
 449:Drivers/lvgl/src/misc/lv_color.h ****     uint32_t bg = (uint32_t)((uint32_t)c2.full | ((uint32_t)c2.full << 16)) &
 252              		.loc 2 449 41 is_stmt 0 view .LVU85
 253 000e DB08     		lsrs	r3, r3, #3
 453:Drivers/lvgl/src/misc/lv_color.h ****     ret.full = (uint16_t)((result >> 16) | result);
 254              		.loc 2 453 43 view .LVU86
 255 0010 00FB03F3 		mul	r3, r0, r3
 256 0014 5B42     		rsbs	r3, r3, #0
 453:Drivers/lvgl/src/misc/lv_color.h ****     ret.full = (uint16_t)((result >> 16) | result);
 257              		.loc 2 453 49 view .LVU87
 258 0016 00EB5310 		add	r0, r0, r3, lsr #5
 259              	.LVL22:
 453:Drivers/lvgl/src/misc/lv_color.h ****     ret.full = (uint16_t)((result >> 16) | result);
 260              		.loc 2 453 14 view .LVU88
 261 001a 1040     		ands	r0, r0, r2
 262              	.LVL23:
 454:Drivers/lvgl/src/misc/lv_color.h **** #if LV_COLOR_16_SWAP == 1
 263              		.loc 2 454 5 is_stmt 1 view .LVU89
 456:Drivers/lvgl/src/misc/lv_color.h **** #endif
 264              		.loc 2 456 5 view .LVU90
 265              		.loc 2 472 5 view .LVU91
 454:Drivers/lvgl/src/misc/lv_color.h **** #if LV_COLOR_16_SWAP == 1
 266              		.loc 2 454 16 is_stmt 0 view .LVU92
 267 001c 40EA1040 		orr	r0, r0, r0, lsr #16
 268              	.LBE33:
 269              	.LBE31:
ARM GAS  /var/folders/lp/x54gwt890xv47sdkqj1k04q40000gn/T//ccfNKTR3.s 			page 17


 134:Drivers/lvgl/src/misc/lv_color.c **** }
 270              		.loc 1 134 1 view .LVU93
 271 0020 40BA     		rev16	r0, r0
 272 0022 7047     		bx	lr
 273              	.L22:
 274              		.align	2
 275              	.L21:
 276 0024 1FF8E007 		.word	132184095
 277              		.cfi_endproc
 278              	.LFE20:
 280              		.section	.text.lv_color_change_lightness,"ax",%progbits
 281              		.align	1
 282              		.p2align 2,,3
 283              		.global	lv_color_change_lightness
 284              		.syntax unified
 285              		.thumb
 286              		.thumb_func
 288              	lv_color_change_lightness:
 289              	.LVL24:
 290              	.LFB21:
 135:Drivers/lvgl/src/misc/lv_color.c **** 
 136:Drivers/lvgl/src/misc/lv_color.c **** lv_color_t lv_color_change_lightness(lv_color_t c, lv_opa_t lvl)
 137:Drivers/lvgl/src/misc/lv_color.c **** {
 291              		.loc 1 137 1 is_stmt 1 view -0
 292              		.cfi_startproc
 293              		@ args = 0, pretend = 0, frame = 0
 294              		@ frame_needed = 0, uses_anonymous_args = 0
 295              		@ link register save eliminated.
 138:Drivers/lvgl/src/misc/lv_color.c ****     /*It'd be better to convert the color to HSL, change L and convert back to RGB.*/
 139:Drivers/lvgl/src/misc/lv_color.c ****     if(lvl == LV_OPA_50) return c;
 296              		.loc 1 139 5 view .LVU95
 297              		.loc 1 139 7 is_stmt 0 view .LVU96
 298 0000 7F29     		cmp	r1, #127
 299 0002 0ED0     		beq	.L27
 140:Drivers/lvgl/src/misc/lv_color.c ****     else if(lvl < LV_OPA_50) return lv_color_darken(c, (LV_OPA_50 - lvl) * 2);
 300              		.loc 1 140 10 is_stmt 1 view .LVU97
 301              		.loc 1 140 12 is_stmt 0 view .LVU98
 302 0004 7E29     		cmp	r1, #126
 303 0006 06D8     		bhi	.L26
 304              		.loc 1 140 30 is_stmt 1 discriminator 1 view .LVU99
 305              		.loc 1 140 67 is_stmt 0 discriminator 1 view .LVU100
 306 0008 C1F17F01 		rsb	r1, r1, #127
 307              	.LVL25:
 308              		.loc 1 140 37 discriminator 1 view .LVU101
 309 000c 4900     		lsls	r1, r1, #1
 310 000e 01F0FE01 		and	r1, r1, #254
 311 0012 FFF7FEBF 		b	lv_color_darken
 312              	.LVL26:
 313              	.L26:
 141:Drivers/lvgl/src/misc/lv_color.c ****     else return lv_color_lighten(c, (lvl - LV_OPA_50) * 2);
 314              		.loc 1 141 10 is_stmt 1 view .LVU102
 315              		.loc 1 141 17 is_stmt 0 view .LVU103
 316 0016 7F39     		subs	r1, r1, #127
 317              	.LVL27:
 318              		.loc 1 141 17 view .LVU104
 319 0018 4900     		lsls	r1, r1, #1
 320 001a 01F0FE01 		and	r1, r1, #254
ARM GAS  /var/folders/lp/x54gwt890xv47sdkqj1k04q40000gn/T//ccfNKTR3.s 			page 18


 321 001e FFF7FEBF 		b	lv_color_lighten
 322              	.LVL28:
 323              	.L27:
 324              	.LVL29:
 142:Drivers/lvgl/src/misc/lv_color.c **** }
 325              		.loc 1 142 1 view .LVU105
 326 0022 7047     		bx	lr
 327              		.cfi_endproc
 328              	.LFE21:
 330              		.section	.text.lv_color_hsv_to_rgb,"ax",%progbits
 331              		.align	1
 332              		.p2align 2,,3
 333              		.global	lv_color_hsv_to_rgb
 334              		.syntax unified
 335              		.thumb
 336              		.thumb_func
 338              	lv_color_hsv_to_rgb:
 339              	.LVL30:
 340              	.LFB22:
 143:Drivers/lvgl/src/misc/lv_color.c **** 
 144:Drivers/lvgl/src/misc/lv_color.c **** /**
 145:Drivers/lvgl/src/misc/lv_color.c ****  * Convert a HSV color to RGB
 146:Drivers/lvgl/src/misc/lv_color.c ****  * @param h hue [0..359]
 147:Drivers/lvgl/src/misc/lv_color.c ****  * @param s saturation [0..100]
 148:Drivers/lvgl/src/misc/lv_color.c ****  * @param v value [0..100]
 149:Drivers/lvgl/src/misc/lv_color.c ****  * @return the given RGB color in RGB (with LV_COLOR_DEPTH depth)
 150:Drivers/lvgl/src/misc/lv_color.c ****  */
 151:Drivers/lvgl/src/misc/lv_color.c **** lv_color_t lv_color_hsv_to_rgb(uint16_t h, uint8_t s, uint8_t v)
 152:Drivers/lvgl/src/misc/lv_color.c **** {
 341              		.loc 1 152 1 is_stmt 1 view -0
 342              		.cfi_startproc
 343              		@ args = 0, pretend = 0, frame = 0
 344              		@ frame_needed = 0, uses_anonymous_args = 0
 153:Drivers/lvgl/src/misc/lv_color.c ****     h = (uint32_t)((uint32_t)h * 255) / 360;
 345              		.loc 1 153 5 view .LVU107
 154:Drivers/lvgl/src/misc/lv_color.c ****     s = (uint16_t)((uint16_t)s * 255) / 100;
 346              		.loc 1 154 7 is_stmt 0 view .LVU108
 347 0000 3E4B     		ldr	r3, .L41
 348              		.loc 1 154 9 view .LVU109
 349 0002 C1EB0121 		rsb	r1, r1, r1, lsl #8
 350              	.LVL31:
 351              		.loc 1 154 7 view .LVU110
 352 0006 89B2     		uxth	r1, r1
 155:Drivers/lvgl/src/misc/lv_color.c ****     v = (uint16_t)((uint16_t)v * 255) / 100;
 353              		.loc 1 155 9 view .LVU111
 354 0008 C2EB0222 		rsb	r2, r2, r2, lsl #8
 355              	.LVL32:
 154:Drivers/lvgl/src/misc/lv_color.c ****     s = (uint16_t)((uint16_t)s * 255) / 100;
 356              		.loc 1 154 7 view .LVU112
 357 000c A3FB01C1 		umull	ip, r1, r3, r1
 358              		.loc 1 155 7 view .LVU113
 359 0010 92B2     		uxth	r2, r2
 360 0012 A3FB0232 		umull	r3, r2, r3, r2
 154:Drivers/lvgl/src/misc/lv_color.c ****     s = (uint16_t)((uint16_t)s * 255) / 100;
 361              		.loc 1 154 7 view .LVU114
 362 0016 C1F34711 		ubfx	r1, r1, #5, #8
 363              	.LVL33:
ARM GAS  /var/folders/lp/x54gwt890xv47sdkqj1k04q40000gn/T//ccfNKTR3.s 			page 19


 154:Drivers/lvgl/src/misc/lv_color.c ****     s = (uint16_t)((uint16_t)s * 255) / 100;
 364              		.loc 1 154 5 is_stmt 1 view .LVU115
 365              		.loc 1 155 5 view .LVU116
 152:Drivers/lvgl/src/misc/lv_color.c ****     h = (uint32_t)((uint32_t)h * 255) / 360;
 366              		.loc 1 152 1 is_stmt 0 view .LVU117
 367 001a 00B5     		push	{lr}
 368              		.cfi_def_cfa_offset 4
 369              		.cfi_offset 14, -4
 370              		.loc 1 155 7 view .LVU118
 371 001c C2F34712 		ubfx	r2, r2, #5, #8
 372              	.LVL34:
 156:Drivers/lvgl/src/misc/lv_color.c **** 
 157:Drivers/lvgl/src/misc/lv_color.c ****     uint8_t r, g, b;
 373              		.loc 1 157 5 is_stmt 1 view .LVU119
 158:Drivers/lvgl/src/misc/lv_color.c **** 
 159:Drivers/lvgl/src/misc/lv_color.c ****     uint8_t region, remainder, p, q, t;
 374              		.loc 1 159 5 view .LVU120
 160:Drivers/lvgl/src/misc/lv_color.c **** 
 161:Drivers/lvgl/src/misc/lv_color.c ****     if(s == 0) {
 375              		.loc 1 161 5 view .LVU121
 376              		.loc 1 161 7 is_stmt 0 view .LVU122
 377 0020 0029     		cmp	r1, #0
 378 0022 4AD0     		beq	.L40
 162:Drivers/lvgl/src/misc/lv_color.c ****         return lv_color_make(v, v, v);
 163:Drivers/lvgl/src/misc/lv_color.c ****     }
 164:Drivers/lvgl/src/misc/lv_color.c **** 
 165:Drivers/lvgl/src/misc/lv_color.c ****     region    = h / 43;
 379              		.loc 1 165 5 is_stmt 1 view .LVU123
 153:Drivers/lvgl/src/misc/lv_color.c ****     s = (uint16_t)((uint16_t)s * 255) / 100;
 380              		.loc 1 153 39 is_stmt 0 view .LVU124
 381 0024 364B     		ldr	r3, .L41+4
 153:Drivers/lvgl/src/misc/lv_color.c ****     s = (uint16_t)((uint16_t)s * 255) / 100;
 382              		.loc 1 153 9 view .LVU125
 383 0026 C0EB0020 		rsb	r0, r0, r0, lsl #8
 384              	.LVL35:
 153:Drivers/lvgl/src/misc/lv_color.c ****     s = (uint16_t)((uint16_t)s * 255) / 100;
 385              		.loc 1 153 39 view .LVU126
 386 002a C008     		lsrs	r0, r0, #3
 387 002c A3FB0030 		umull	r3, r0, r3, r0
 388              		.loc 1 165 15 view .LVU127
 389 0030 344B     		ldr	r3, .L41+8
 390 0032 C0F38F0C 		ubfx	ip, r0, #2, #16
 391 0036 A3FB0C3C 		umull	r3, ip, r3, ip
 392 003a CCF3C70C 		ubfx	ip, ip, #3, #8
 393              	.LVL36:
 166:Drivers/lvgl/src/misc/lv_color.c ****     remainder = (h - (region * 43)) * 6;
 394              		.loc 1 166 5 is_stmt 1 view .LVU128
 395              		.loc 1 166 30 is_stmt 0 view .LVU129
 396 003e 6FF02A03 		mvn	r3, #42
 397 0042 03FB0CF3 		mul	r3, r3, ip
 398              		.loc 1 166 20 view .LVU130
 399 0046 03EB9003 		add	r3, r3, r0, lsr #2
 400              		.loc 1 166 15 view .LVU131
 401 004a 03EB4303 		add	r3, r3, r3, lsl #1
 402 004e 5B00     		lsls	r3, r3, #1
 403 0050 DBB2     		uxtb	r3, r3
 404              	.LVL37:
ARM GAS  /var/folders/lp/x54gwt890xv47sdkqj1k04q40000gn/T//ccfNKTR3.s 			page 20


 167:Drivers/lvgl/src/misc/lv_color.c **** 
 168:Drivers/lvgl/src/misc/lv_color.c ****     p = (v * (255 - s)) >> 8;
 405              		.loc 1 168 5 is_stmt 1 view .LVU132
 169:Drivers/lvgl/src/misc/lv_color.c ****     q = (v * (255 - ((s * remainder) >> 8))) >> 8;
 170:Drivers/lvgl/src/misc/lv_color.c ****     t = (v * (255 - ((s * (255 - remainder)) >> 8))) >> 8;
 406              		.loc 1 170 32 is_stmt 0 view .LVU133
 407 0052 C3F1FF00 		rsb	r0, r3, #255
 168:Drivers/lvgl/src/misc/lv_color.c ****     q = (v * (255 - ((s * remainder) >> 8))) >> 8;
 408              		.loc 1 168 19 view .LVU134
 409 0056 C1F1FF0E 		rsb	lr, r1, #255
 169:Drivers/lvgl/src/misc/lv_color.c ****     q = (v * (255 - ((s * remainder) >> 8))) >> 8;
 410              		.loc 1 169 25 view .LVU135
 411 005a 11FB03F3 		smulbb	r3, r1, r3
 412              	.LVL38:
 413              		.loc 1 170 25 view .LVU136
 414 005e 00FB01F1 		mul	r1, r0, r1
 415              	.LVL39:
 169:Drivers/lvgl/src/misc/lv_color.c ****     q = (v * (255 - ((s * remainder) >> 8))) >> 8;
 416              		.loc 1 169 38 view .LVU137
 417 0062 1B12     		asrs	r3, r3, #8
 418              		.loc 1 170 46 view .LVU138
 419 0064 0912     		asrs	r1, r1, #8
 169:Drivers/lvgl/src/misc/lv_color.c ****     q = (v * (255 - ((s * remainder) >> 8))) >> 8;
 420              		.loc 1 169 19 view .LVU139
 421 0066 C3F1FF03 		rsb	r3, r3, #255
 422              		.loc 1 170 19 view .LVU140
 423 006a C1F1FF01 		rsb	r1, r1, #255
 168:Drivers/lvgl/src/misc/lv_color.c ****     q = (v * (255 - ((s * remainder) >> 8))) >> 8;
 424              		.loc 1 168 12 view .LVU141
 425 006e 02FB0EFE 		mul	lr, r2, lr
 169:Drivers/lvgl/src/misc/lv_color.c ****     q = (v * (255 - ((s * remainder) >> 8))) >> 8;
 426              		.loc 1 169 12 view .LVU142
 427 0072 02FB03F3 		mul	r3, r2, r3
 428              		.loc 1 170 12 view .LVU143
 429 0076 02FB01F1 		mul	r1, r2, r1
 168:Drivers/lvgl/src/misc/lv_color.c ****     q = (v * (255 - ((s * remainder) >> 8))) >> 8;
 430              		.loc 1 168 7 view .LVU144
 431 007a CEF3072E 		ubfx	lr, lr, #8, #8
 432              	.LVL40:
 169:Drivers/lvgl/src/misc/lv_color.c ****     q = (v * (255 - ((s * remainder) >> 8))) >> 8;
 433              		.loc 1 169 5 is_stmt 1 view .LVU145
 169:Drivers/lvgl/src/misc/lv_color.c ****     q = (v * (255 - ((s * remainder) >> 8))) >> 8;
 434              		.loc 1 169 7 is_stmt 0 view .LVU146
 435 007e C3F30723 		ubfx	r3, r3, #8, #8
 436              	.LVL41:
 437              		.loc 1 170 5 is_stmt 1 view .LVU147
 438              		.loc 1 170 7 is_stmt 0 view .LVU148
 439 0082 C1F30721 		ubfx	r1, r1, #8, #8
 440              	.LVL42:
 171:Drivers/lvgl/src/misc/lv_color.c **** 
 172:Drivers/lvgl/src/misc/lv_color.c ****     switch(region) {
 441              		.loc 1 172 5 is_stmt 1 view .LVU149
 442 0086 BCF1040F 		cmp	ip, #4
 443 008a 31D8     		bhi	.L31
 444 008c DFE80CF0 		tbb	[pc, ip]
 445              	.L33:
 446 0090 03       		.byte	(.L37-.L33)/2
ARM GAS  /var/folders/lp/x54gwt890xv47sdkqj1k04q40000gn/T//ccfNKTR3.s 			page 21


 447 0091 05       		.byte	(.L36-.L33)/2
 448 0092 23       		.byte	(.L35-.L33)/2
 449 0093 26       		.byte	(.L34-.L33)/2
 450 0094 2B       		.byte	(.L32-.L33)/2
 451 0095 00       		.p2align 1
 452              	.L37:
 173:Drivers/lvgl/src/misc/lv_color.c ****         case 0:
 174:Drivers/lvgl/src/misc/lv_color.c ****             r = v;
 453              		.loc 1 174 15 is_stmt 0 view .LVU150
 454 0096 1346     		mov	r3, r2
 455              	.LVL43:
 175:Drivers/lvgl/src/misc/lv_color.c ****             g = t;
 456              		.loc 1 175 15 view .LVU151
 457 0098 0A46     		mov	r2, r1
 458              	.LVL44:
 459              	.L36:
 176:Drivers/lvgl/src/misc/lv_color.c ****             b = p;
 177:Drivers/lvgl/src/misc/lv_color.c ****             break;
 178:Drivers/lvgl/src/misc/lv_color.c ****         case 1:
 179:Drivers/lvgl/src/misc/lv_color.c ****             r = q;
 180:Drivers/lvgl/src/misc/lv_color.c ****             g = v;
 181:Drivers/lvgl/src/misc/lv_color.c ****             b = p;
 182:Drivers/lvgl/src/misc/lv_color.c ****             break;
 183:Drivers/lvgl/src/misc/lv_color.c ****         case 2:
 184:Drivers/lvgl/src/misc/lv_color.c ****             r = p;
 185:Drivers/lvgl/src/misc/lv_color.c ****             g = v;
 186:Drivers/lvgl/src/misc/lv_color.c ****             b = t;
 187:Drivers/lvgl/src/misc/lv_color.c ****             break;
 188:Drivers/lvgl/src/misc/lv_color.c ****         case 3:
 189:Drivers/lvgl/src/misc/lv_color.c ****             r = p;
 190:Drivers/lvgl/src/misc/lv_color.c ****             g = q;
 191:Drivers/lvgl/src/misc/lv_color.c ****             b = v;
 192:Drivers/lvgl/src/misc/lv_color.c ****             break;
 193:Drivers/lvgl/src/misc/lv_color.c ****         case 4:
 194:Drivers/lvgl/src/misc/lv_color.c ****             r = t;
 195:Drivers/lvgl/src/misc/lv_color.c ****             g = p;
 196:Drivers/lvgl/src/misc/lv_color.c ****             b = v;
 197:Drivers/lvgl/src/misc/lv_color.c ****             break;
 198:Drivers/lvgl/src/misc/lv_color.c ****         default:
 199:Drivers/lvgl/src/misc/lv_color.c ****             r = v;
 200:Drivers/lvgl/src/misc/lv_color.c ****             g = p;
 201:Drivers/lvgl/src/misc/lv_color.c ****             b = q;
 202:Drivers/lvgl/src/misc/lv_color.c ****             break;
 203:Drivers/lvgl/src/misc/lv_color.c ****     }
 204:Drivers/lvgl/src/misc/lv_color.c **** 
 205:Drivers/lvgl/src/misc/lv_color.c ****     lv_color_t result = lv_color_make(r, g, b);
 460              		.loc 1 205 5 is_stmt 1 view .LVU152
 461              	.LBB34:
 462              	.LBI34:
 473:Drivers/lvgl/src/misc/lv_color.h **** }
 474:Drivers/lvgl/src/misc/lv_color.h **** 
 475:Drivers/lvgl/src/misc/lv_color.h **** static inline void LV_ATTRIBUTE_FAST_MEM lv_color_premult(lv_color_t c, uint8_t mix, uint16_t * out
 476:Drivers/lvgl/src/misc/lv_color.h **** {
 477:Drivers/lvgl/src/misc/lv_color.h **** #if LV_COLOR_DEPTH != 1
 478:Drivers/lvgl/src/misc/lv_color.h ****     out[0] = (uint16_t)LV_COLOR_GET_R(c) * mix;
 479:Drivers/lvgl/src/misc/lv_color.h ****     out[1] = (uint16_t)LV_COLOR_GET_G(c) * mix;
 480:Drivers/lvgl/src/misc/lv_color.h ****     out[2] = (uint16_t)LV_COLOR_GET_B(c) * mix;
ARM GAS  /var/folders/lp/x54gwt890xv47sdkqj1k04q40000gn/T//ccfNKTR3.s 			page 22


 481:Drivers/lvgl/src/misc/lv_color.h **** #else
 482:Drivers/lvgl/src/misc/lv_color.h ****     (void) mix;
 483:Drivers/lvgl/src/misc/lv_color.h ****     /*Pre-multiplication can't be used with 1 bpp*/
 484:Drivers/lvgl/src/misc/lv_color.h ****     out[0] = LV_COLOR_GET_R(c);
 485:Drivers/lvgl/src/misc/lv_color.h ****     out[1] = LV_COLOR_GET_G(c);
 486:Drivers/lvgl/src/misc/lv_color.h ****     out[2] = LV_COLOR_GET_B(c);
 487:Drivers/lvgl/src/misc/lv_color.h **** #endif
 488:Drivers/lvgl/src/misc/lv_color.h **** 
 489:Drivers/lvgl/src/misc/lv_color.h **** }
 490:Drivers/lvgl/src/misc/lv_color.h **** 
 491:Drivers/lvgl/src/misc/lv_color.h **** /**
 492:Drivers/lvgl/src/misc/lv_color.h ****  * Mix two colors with a given ratio. It runs faster then `lv_color_mix` but requires some pre comp
 493:Drivers/lvgl/src/misc/lv_color.h ****  * @param premult_c1 The first color. Should be preprocessed with `lv_color_premult(c1)`
 494:Drivers/lvgl/src/misc/lv_color.h ****  * @param c2 The second color. As it is no pre computation required on it
 495:Drivers/lvgl/src/misc/lv_color.h ****  * @param mix The ratio of the colors. 0: full `c1`, 255: full `c2`, 127: half `c1` and half `c2`.
 496:Drivers/lvgl/src/misc/lv_color.h ****  *            Should be modified like mix = `255 - mix`
 497:Drivers/lvgl/src/misc/lv_color.h ****  * @return the mixed color
 498:Drivers/lvgl/src/misc/lv_color.h ****  * @note 255 won't give clearly `c1`.
 499:Drivers/lvgl/src/misc/lv_color.h ****  */
 500:Drivers/lvgl/src/misc/lv_color.h **** static inline lv_color_t LV_ATTRIBUTE_FAST_MEM lv_color_mix_premult(uint16_t * premult_c1, lv_color
 501:Drivers/lvgl/src/misc/lv_color.h **** {
 502:Drivers/lvgl/src/misc/lv_color.h ****     lv_color_t ret;
 503:Drivers/lvgl/src/misc/lv_color.h **** #if LV_COLOR_DEPTH != 1
 504:Drivers/lvgl/src/misc/lv_color.h ****     /*LV_COLOR_DEPTH == 8 or 32*/
 505:Drivers/lvgl/src/misc/lv_color.h ****     LV_COLOR_SET_R(ret, LV_UDIV255(premult_c1[0] + LV_COLOR_GET_R(c2) * mix + LV_COLOR_MIX_ROUND_OF
 506:Drivers/lvgl/src/misc/lv_color.h ****     LV_COLOR_SET_G(ret, LV_UDIV255(premult_c1[1] + LV_COLOR_GET_G(c2) * mix + LV_COLOR_MIX_ROUND_OF
 507:Drivers/lvgl/src/misc/lv_color.h ****     LV_COLOR_SET_B(ret, LV_UDIV255(premult_c1[2] + LV_COLOR_GET_B(c2) * mix + LV_COLOR_MIX_ROUND_OF
 508:Drivers/lvgl/src/misc/lv_color.h ****     LV_COLOR_SET_A(ret, 0xFF);
 509:Drivers/lvgl/src/misc/lv_color.h **** #else
 510:Drivers/lvgl/src/misc/lv_color.h ****     /*LV_COLOR_DEPTH == 1*/
 511:Drivers/lvgl/src/misc/lv_color.h ****     /*Restore color1*/
 512:Drivers/lvgl/src/misc/lv_color.h ****     lv_color_t c1;
 513:Drivers/lvgl/src/misc/lv_color.h ****     LV_COLOR_SET_R(c1, premult_c1[0]);
 514:Drivers/lvgl/src/misc/lv_color.h ****     LV_COLOR_SET_G(c1, premult_c1[1]);
 515:Drivers/lvgl/src/misc/lv_color.h ****     LV_COLOR_SET_B(c1, premult_c1[2]);
 516:Drivers/lvgl/src/misc/lv_color.h ****     ret.full = mix > LV_OPA_50 ? c2.full : c1.full;
 517:Drivers/lvgl/src/misc/lv_color.h **** #endif
 518:Drivers/lvgl/src/misc/lv_color.h **** 
 519:Drivers/lvgl/src/misc/lv_color.h ****     return ret;
 520:Drivers/lvgl/src/misc/lv_color.h **** }
 521:Drivers/lvgl/src/misc/lv_color.h **** 
 522:Drivers/lvgl/src/misc/lv_color.h **** /**
 523:Drivers/lvgl/src/misc/lv_color.h ****  * Mix two colors. Both color can have alpha value.
 524:Drivers/lvgl/src/misc/lv_color.h ****  * @param bg_color background color
 525:Drivers/lvgl/src/misc/lv_color.h ****  * @param bg_opa alpha of the background color
 526:Drivers/lvgl/src/misc/lv_color.h ****  * @param fg_color foreground color
 527:Drivers/lvgl/src/misc/lv_color.h ****  * @param fg_opa alpha of the foreground color
 528:Drivers/lvgl/src/misc/lv_color.h ****  * @param res_color the result color
 529:Drivers/lvgl/src/misc/lv_color.h ****  * @param res_opa the result opacity
 530:Drivers/lvgl/src/misc/lv_color.h ****  */
 531:Drivers/lvgl/src/misc/lv_color.h **** static inline void LV_ATTRIBUTE_FAST_MEM lv_color_mix_with_alpha(lv_color_t bg_color, lv_opa_t bg_o
 532:Drivers/lvgl/src/misc/lv_color.h ****                                                                  lv_color_t fg_color, lv_opa_t fg_o
 533:Drivers/lvgl/src/misc/lv_color.h ****                                                                  lv_color_t * res_color, lv_opa_t *
 534:Drivers/lvgl/src/misc/lv_color.h **** {
 535:Drivers/lvgl/src/misc/lv_color.h ****     /*Pick the foreground if it's fully opaque or the Background is fully transparent*/
 536:Drivers/lvgl/src/misc/lv_color.h ****     if(fg_opa >= LV_OPA_MAX || bg_opa <= LV_OPA_MIN) {
 537:Drivers/lvgl/src/misc/lv_color.h ****         res_color->full = fg_color.full;
ARM GAS  /var/folders/lp/x54gwt890xv47sdkqj1k04q40000gn/T//ccfNKTR3.s 			page 23


 538:Drivers/lvgl/src/misc/lv_color.h ****         *res_opa = fg_opa;
 539:Drivers/lvgl/src/misc/lv_color.h ****     }
 540:Drivers/lvgl/src/misc/lv_color.h ****     /*Transparent foreground: use the Background*/
 541:Drivers/lvgl/src/misc/lv_color.h ****     else if(fg_opa <= LV_OPA_MIN) {
 542:Drivers/lvgl/src/misc/lv_color.h ****         res_color->full = bg_color.full;
 543:Drivers/lvgl/src/misc/lv_color.h ****         *res_opa = bg_opa;
 544:Drivers/lvgl/src/misc/lv_color.h ****     }
 545:Drivers/lvgl/src/misc/lv_color.h ****     /*Opaque background: use simple mix*/
 546:Drivers/lvgl/src/misc/lv_color.h ****     else if(bg_opa >= LV_OPA_MAX) {
 547:Drivers/lvgl/src/misc/lv_color.h ****         *res_color = lv_color_mix(fg_color, bg_color, fg_opa);
 548:Drivers/lvgl/src/misc/lv_color.h ****         *res_opa = LV_OPA_COVER;
 549:Drivers/lvgl/src/misc/lv_color.h ****     }
 550:Drivers/lvgl/src/misc/lv_color.h ****     /*Both colors have alpha. Expensive calculation need to be applied*/
 551:Drivers/lvgl/src/misc/lv_color.h ****     else {
 552:Drivers/lvgl/src/misc/lv_color.h ****         /*Save the parameters and the result. If they will be asked again don't compute again*/
 553:Drivers/lvgl/src/misc/lv_color.h ****         static lv_opa_t fg_opa_save     = 0;
 554:Drivers/lvgl/src/misc/lv_color.h ****         static lv_opa_t bg_opa_save     = 0;
 555:Drivers/lvgl/src/misc/lv_color.h ****         static lv_color_t fg_color_save = _LV_COLOR_ZERO_INITIALIZER;
 556:Drivers/lvgl/src/misc/lv_color.h ****         static lv_color_t bg_color_save = _LV_COLOR_ZERO_INITIALIZER;
 557:Drivers/lvgl/src/misc/lv_color.h ****         static lv_color_t res_color_saved = _LV_COLOR_ZERO_INITIALIZER;
 558:Drivers/lvgl/src/misc/lv_color.h ****         static lv_opa_t res_opa_saved = 0;
 559:Drivers/lvgl/src/misc/lv_color.h **** 
 560:Drivers/lvgl/src/misc/lv_color.h ****         if(fg_opa != fg_opa_save || bg_opa != bg_opa_save || fg_color.full != fg_color_save.full ||
 561:Drivers/lvgl/src/misc/lv_color.h ****            bg_color.full != bg_color_save.full) {
 562:Drivers/lvgl/src/misc/lv_color.h ****             fg_opa_save        = fg_opa;
 563:Drivers/lvgl/src/misc/lv_color.h ****             bg_opa_save        = bg_opa;
 564:Drivers/lvgl/src/misc/lv_color.h ****             fg_color_save.full = fg_color.full;
 565:Drivers/lvgl/src/misc/lv_color.h ****             bg_color_save.full = bg_color.full;
 566:Drivers/lvgl/src/misc/lv_color.h ****             /*Info:
 567:Drivers/lvgl/src/misc/lv_color.h ****              * https://en.wikipedia.org/wiki/Alpha_compositing#Analytical_derivation_of_the_over_op
 568:Drivers/lvgl/src/misc/lv_color.h ****             res_opa_saved = 255 - ((uint16_t)((uint16_t)(255 - fg_opa) * (255 - bg_opa)) >> 8);
 569:Drivers/lvgl/src/misc/lv_color.h ****             LV_ASSERT(res_opa_saved != 0);
 570:Drivers/lvgl/src/misc/lv_color.h ****             lv_opa_t ratio = (uint16_t)((uint16_t)fg_opa * 255) / res_opa_saved;
 571:Drivers/lvgl/src/misc/lv_color.h ****             res_color_saved = lv_color_mix(fg_color, bg_color, ratio);
 572:Drivers/lvgl/src/misc/lv_color.h **** 
 573:Drivers/lvgl/src/misc/lv_color.h ****         }
 574:Drivers/lvgl/src/misc/lv_color.h **** 
 575:Drivers/lvgl/src/misc/lv_color.h ****         res_color->full = res_color_saved.full;
 576:Drivers/lvgl/src/misc/lv_color.h ****         *res_opa = res_opa_saved;
 577:Drivers/lvgl/src/misc/lv_color.h ****     }
 578:Drivers/lvgl/src/misc/lv_color.h **** }
 579:Drivers/lvgl/src/misc/lv_color.h **** 
 580:Drivers/lvgl/src/misc/lv_color.h **** //! @endcond
 581:Drivers/lvgl/src/misc/lv_color.h **** 
 582:Drivers/lvgl/src/misc/lv_color.h **** /**
 583:Drivers/lvgl/src/misc/lv_color.h ****  * Get the brightness of a color
 584:Drivers/lvgl/src/misc/lv_color.h ****  * @param color a color
 585:Drivers/lvgl/src/misc/lv_color.h ****  * @return the brightness [0..255]
 586:Drivers/lvgl/src/misc/lv_color.h ****  */
 587:Drivers/lvgl/src/misc/lv_color.h **** static inline uint8_t lv_color_brightness(lv_color_t color)
 588:Drivers/lvgl/src/misc/lv_color.h **** {
 589:Drivers/lvgl/src/misc/lv_color.h ****     lv_color32_t c32;
 590:Drivers/lvgl/src/misc/lv_color.h ****     c32.full        = lv_color_to32(color);
 591:Drivers/lvgl/src/misc/lv_color.h ****     uint16_t bright = (uint16_t)(3u * LV_COLOR_GET_R32(c32) + LV_COLOR_GET_B32(c32) + 4u * LV_COLOR
 592:Drivers/lvgl/src/misc/lv_color.h ****     return (uint8_t)(bright >> 3);
 593:Drivers/lvgl/src/misc/lv_color.h **** }
 594:Drivers/lvgl/src/misc/lv_color.h **** 
ARM GAS  /var/folders/lp/x54gwt890xv47sdkqj1k04q40000gn/T//ccfNKTR3.s 			page 24


 595:Drivers/lvgl/src/misc/lv_color.h **** static inline lv_color_t lv_color_make(uint8_t r, uint8_t g, uint8_t b)
 463              		.loc 2 595 26 view .LVU153
 464              	.LBB35:
 596:Drivers/lvgl/src/misc/lv_color.h **** {
 597:Drivers/lvgl/src/misc/lv_color.h ****     return _LV_COLOR_MAKE_TYPE_HELPER LV_COLOR_MAKE(r, g, b);
 465              		.loc 2 597 5 view .LVU154
 466              		.loc 2 597 39 is_stmt 0 view .LVU155
 467 009a C2F34210 		ubfx	r0, r2, #5, #3
 468 009e C3F3C403 		ubfx	r3, r3, #3, #5
 469              	.LVL45:
 470              		.loc 2 597 39 view .LVU156
 471 00a2 CEF3C40E 		ubfx	lr, lr, #3, #5
 472              	.LVL46:
 473              		.loc 2 597 39 view .LVU157
 474 00a6 40EAC300 		orr	r0, r0, r3, lsl #3
 475 00aa C2F38202 		ubfx	r2, r2, #2, #3
 476              	.LVL47:
 477              		.loc 2 597 39 view .LVU158
 478              	.LBE35:
 479              	.LBE34:
 206:Drivers/lvgl/src/misc/lv_color.c ****     return result;
 480              		.loc 1 206 5 is_stmt 1 view .LVU159
 481              		.loc 1 206 5 is_stmt 0 view .LVU160
 482 00ae 40EA0E20 		orr	r0, r0, lr, lsl #8
 207:Drivers/lvgl/src/misc/lv_color.c **** }
 483              		.loc 1 207 1 view .LVU161
 484 00b2 40EA4230 		orr	r0, r0, r2, lsl #13
 485 00b6 5DF804FB 		ldr	pc, [sp], #4
 486              	.LVL48:
 487              	.L40:
 162:Drivers/lvgl/src/misc/lv_color.c ****     }
 488              		.loc 1 162 9 is_stmt 1 view .LVU162
 489              	.LBB36:
 490              	.LBI36:
 595:Drivers/lvgl/src/misc/lv_color.h **** {
 491              		.loc 2 595 26 view .LVU163
 492              	.LBB37:
 493              		.loc 2 597 5 view .LVU164
 494              		.loc 2 597 39 is_stmt 0 view .LVU165
 495 00ba 4FEAD20E 		lsr	lr, r2, #3
 496 00be 5009     		lsrs	r0, r2, #5
 497              	.LVL49:
 498              		.loc 2 597 39 view .LVU166
 499              	.LBE37:
 500              	.LBE36:
 162:Drivers/lvgl/src/misc/lv_color.c ****     }
 501              		.loc 1 162 16 view .LVU167
 502 00c0 7346     		mov	r3, lr
 503 00c2 40EAC300 		orr	r0, r0, r3, lsl #3
 504              	.LBB39:
 505              	.LBB38:
 506              		.loc 2 597 39 view .LVU168
 507 00c6 C2F38202 		ubfx	r2, r2, #2, #3
 508              	.LVL50:
 509              		.loc 2 597 39 view .LVU169
 510 00ca 40EA0E20 		orr	r0, r0, lr, lsl #8
 511              	.LBE38:
ARM GAS  /var/folders/lp/x54gwt890xv47sdkqj1k04q40000gn/T//ccfNKTR3.s 			page 25


 512              	.LBE39:
 513              		.loc 1 207 1 view .LVU170
 514 00ce 40EA4230 		orr	r0, r0, r2, lsl #13
 515 00d2 5DF804FB 		ldr	pc, [sp], #4
 516              	.LVL51:
 517              	.L35:
 184:Drivers/lvgl/src/misc/lv_color.c ****             g = v;
 518              		.loc 1 184 13 is_stmt 1 view .LVU171
 185:Drivers/lvgl/src/misc/lv_color.c ****             b = t;
 519              		.loc 1 185 13 view .LVU172
 186:Drivers/lvgl/src/misc/lv_color.c ****             break;
 520              		.loc 1 186 13 view .LVU173
 187:Drivers/lvgl/src/misc/lv_color.c ****         case 3:
 521              		.loc 1 187 13 view .LVU174
 184:Drivers/lvgl/src/misc/lv_color.c ****             g = v;
 522              		.loc 1 184 15 is_stmt 0 view .LVU175
 523 00d6 7346     		mov	r3, lr
 524              	.LVL52:
 186:Drivers/lvgl/src/misc/lv_color.c ****             break;
 525              		.loc 1 186 15 view .LVU176
 526 00d8 8E46     		mov	lr, r1
 527              	.LVL53:
 187:Drivers/lvgl/src/misc/lv_color.c ****         case 3:
 528              		.loc 1 187 13 view .LVU177
 529 00da DEE7     		b	.L36
 530              	.LVL54:
 531              	.L34:
 189:Drivers/lvgl/src/misc/lv_color.c ****             g = q;
 532              		.loc 1 189 13 is_stmt 1 view .LVU178
 190:Drivers/lvgl/src/misc/lv_color.c ****             b = v;
 533              		.loc 1 190 13 view .LVU179
 191:Drivers/lvgl/src/misc/lv_color.c ****             break;
 534              		.loc 1 191 13 view .LVU180
 192:Drivers/lvgl/src/misc/lv_color.c ****         case 4:
 535              		.loc 1 192 13 view .LVU181
 536 00dc 1946     		mov	r1, r3
 537              	.LVL55:
 189:Drivers/lvgl/src/misc/lv_color.c ****             g = q;
 538              		.loc 1 189 15 is_stmt 0 view .LVU182
 539 00de 7346     		mov	r3, lr
 540              	.LVL56:
 191:Drivers/lvgl/src/misc/lv_color.c ****             break;
 541              		.loc 1 191 15 view .LVU183
 542 00e0 9646     		mov	lr, r2
 543              	.LVL57:
 190:Drivers/lvgl/src/misc/lv_color.c ****             b = v;
 544              		.loc 1 190 15 view .LVU184
 545 00e2 0A46     		mov	r2, r1
 546              	.LVL58:
 192:Drivers/lvgl/src/misc/lv_color.c ****         case 4:
 547              		.loc 1 192 13 view .LVU185
 548 00e4 D9E7     		b	.L36
 549              	.LVL59:
 550              	.L32:
 194:Drivers/lvgl/src/misc/lv_color.c ****             g = p;
 551              		.loc 1 194 13 is_stmt 1 view .LVU186
 195:Drivers/lvgl/src/misc/lv_color.c ****             b = v;
ARM GAS  /var/folders/lp/x54gwt890xv47sdkqj1k04q40000gn/T//ccfNKTR3.s 			page 26


 552              		.loc 1 195 13 view .LVU187
 196:Drivers/lvgl/src/misc/lv_color.c ****             break;
 553              		.loc 1 196 13 view .LVU188
 197:Drivers/lvgl/src/misc/lv_color.c ****         default:
 554              		.loc 1 197 13 view .LVU189
 555 00e6 1046     		mov	r0, r2
 194:Drivers/lvgl/src/misc/lv_color.c ****             g = p;
 556              		.loc 1 194 15 is_stmt 0 view .LVU190
 557 00e8 0B46     		mov	r3, r1
 558              	.LVL60:
 195:Drivers/lvgl/src/misc/lv_color.c ****             b = v;
 559              		.loc 1 195 15 view .LVU191
 560 00ea 7246     		mov	r2, lr
 561              	.LVL61:
 196:Drivers/lvgl/src/misc/lv_color.c ****             break;
 562              		.loc 1 196 15 view .LVU192
 563 00ec 8646     		mov	lr, r0
 564              	.LVL62:
 197:Drivers/lvgl/src/misc/lv_color.c ****         default:
 565              		.loc 1 197 13 view .LVU193
 566 00ee D4E7     		b	.L36
 567              	.LVL63:
 568              	.L31:
 199:Drivers/lvgl/src/misc/lv_color.c ****             g = p;
 569              		.loc 1 199 13 is_stmt 1 view .LVU194
 200:Drivers/lvgl/src/misc/lv_color.c ****             b = q;
 570              		.loc 1 200 13 view .LVU195
 201:Drivers/lvgl/src/misc/lv_color.c ****             break;
 571              		.loc 1 201 13 view .LVU196
 202:Drivers/lvgl/src/misc/lv_color.c ****     }
 572              		.loc 1 202 13 view .LVU197
 573 00f0 1946     		mov	r1, r3
 574              	.LVL64:
 199:Drivers/lvgl/src/misc/lv_color.c ****             g = p;
 575              		.loc 1 199 15 is_stmt 0 view .LVU198
 576 00f2 1346     		mov	r3, r2
 577              	.LVL65:
 200:Drivers/lvgl/src/misc/lv_color.c ****             b = q;
 578              		.loc 1 200 15 view .LVU199
 579 00f4 7246     		mov	r2, lr
 580              	.LVL66:
 201:Drivers/lvgl/src/misc/lv_color.c ****             break;
 581              		.loc 1 201 15 view .LVU200
 582 00f6 8E46     		mov	lr, r1
 583              	.LVL67:
 202:Drivers/lvgl/src/misc/lv_color.c ****     }
 584              		.loc 1 202 13 view .LVU201
 585 00f8 CFE7     		b	.L36
 586              	.L42:
 587 00fa 00BF     		.align	2
 588              	.L41:
 589 00fc 1F85EB51 		.word	1374389535
 590 0100 176CC116 		.word	381774871
 591 0104 83BEA02F 		.word	799063683
 592              		.cfi_endproc
 593              	.LFE22:
 595              		.section	.text.lv_color_rgb_to_hsv,"ax",%progbits
ARM GAS  /var/folders/lp/x54gwt890xv47sdkqj1k04q40000gn/T//ccfNKTR3.s 			page 27


 596              		.align	1
 597              		.p2align 2,,3
 598              		.global	lv_color_rgb_to_hsv
 599              		.syntax unified
 600              		.thumb
 601              		.thumb_func
 603              	lv_color_rgb_to_hsv:
 604              	.LVL68:
 605              	.LFB23:
 208:Drivers/lvgl/src/misc/lv_color.c **** 
 209:Drivers/lvgl/src/misc/lv_color.c **** /**
 210:Drivers/lvgl/src/misc/lv_color.c ****  * Convert a 32-bit RGB color to HSV
 211:Drivers/lvgl/src/misc/lv_color.c ****  * @param r8 8-bit red
 212:Drivers/lvgl/src/misc/lv_color.c ****  * @param g8 8-bit green
 213:Drivers/lvgl/src/misc/lv_color.c ****  * @param b8 8-bit blue
 214:Drivers/lvgl/src/misc/lv_color.c ****  * @return the given RGB color in HSV
 215:Drivers/lvgl/src/misc/lv_color.c ****  */
 216:Drivers/lvgl/src/misc/lv_color.c **** lv_color_hsv_t lv_color_rgb_to_hsv(uint8_t r8, uint8_t g8, uint8_t b8)
 217:Drivers/lvgl/src/misc/lv_color.c **** {
 606              		.loc 1 217 1 is_stmt 1 view -0
 607              		.cfi_startproc
 608              		@ args = 0, pretend = 0, frame = 8
 609              		@ frame_needed = 0, uses_anonymous_args = 0
 218:Drivers/lvgl/src/misc/lv_color.c ****     uint16_t r = ((uint32_t)r8 << 10) / 255;
 610              		.loc 1 218 5 view .LVU203
 217:Drivers/lvgl/src/misc/lv_color.c ****     uint16_t r = ((uint32_t)r8 << 10) / 255;
 611              		.loc 1 217 1 is_stmt 0 view .LVU204
 612 0000 2DE9F041 		push	{r4, r5, r6, r7, r8, lr}
 613              		.cfi_def_cfa_offset 24
 614              		.cfi_offset 4, -24
 615              		.cfi_offset 5, -20
 616              		.cfi_offset 6, -16
 617              		.cfi_offset 7, -12
 618              		.cfi_offset 8, -8
 619              		.cfi_offset 14, -4
 620              		.loc 1 218 39 view .LVU205
 621 0004 344C     		ldr	r4, .L58
 622              		.loc 1 218 32 view .LVU206
 623 0006 4FEA802C 		lsl	ip, r0, #10
 219:Drivers/lvgl/src/misc/lv_color.c ****     uint16_t g = ((uint32_t)g8 << 10) / 255;
 624              		.loc 1 219 32 view .LVU207
 625 000a 8902     		lsls	r1, r1, #10
 626              	.LVL69:
 218:Drivers/lvgl/src/misc/lv_color.c ****     uint16_t r = ((uint32_t)r8 << 10) / 255;
 627              		.loc 1 218 39 view .LVU208
 628 000c A4FB0C3C 		umull	r3, ip, r4, ip
 629              		.loc 1 219 39 view .LVU209
 630 0010 A4FB0131 		umull	r3, r1, r4, r1
 220:Drivers/lvgl/src/misc/lv_color.c ****     uint16_t b = ((uint32_t)b8 << 10) / 255;
 631              		.loc 1 220 32 view .LVU210
 632 0014 9302     		lsls	r3, r2, #10
 218:Drivers/lvgl/src/misc/lv_color.c ****     uint16_t g = ((uint32_t)g8 << 10) / 255;
 633              		.loc 1 218 39 view .LVU211
 634 0016 4FEADC16 		lsr	r6, ip, #7
 635              	.LVL70:
 219:Drivers/lvgl/src/misc/lv_color.c ****     uint16_t g = ((uint32_t)g8 << 10) / 255;
 636              		.loc 1 219 5 is_stmt 1 view .LVU212
ARM GAS  /var/folders/lp/x54gwt890xv47sdkqj1k04q40000gn/T//ccfNKTR3.s 			page 28


 637              		.loc 1 220 39 is_stmt 0 view .LVU213
 638 001a A4FB0343 		umull	r4, r3, r4, r3
 219:Drivers/lvgl/src/misc/lv_color.c ****     uint16_t g = ((uint32_t)g8 << 10) / 255;
 639              		.loc 1 219 14 view .LVU214
 640 001e CC09     		lsrs	r4, r1, #7
 641              	.LVL71:
 642              		.loc 1 220 5 is_stmt 1 view .LVU215
 221:Drivers/lvgl/src/misc/lv_color.c **** 
 222:Drivers/lvgl/src/misc/lv_color.c ****     uint16_t rgbMin = r < g ? (r < b ? r : b) : (g < b ? g : b);
 223:Drivers/lvgl/src/misc/lv_color.c ****     uint16_t rgbMax = r > g ? (r > b ? r : b) : (g > b ? g : b);
 643              		.loc 1 223 14 is_stmt 0 view .LVU216
 644 0020 A642     		cmp	r6, r4
 220:Drivers/lvgl/src/misc/lv_color.c **** 
 645              		.loc 1 220 14 view .LVU217
 646 0022 4FEAD31E 		lsr	lr, r3, #7
 647              	.LVL72:
 222:Drivers/lvgl/src/misc/lv_color.c ****     uint16_t rgbMax = r > g ? (r > b ? r : b) : (g > b ? g : b);
 648              		.loc 1 222 5 is_stmt 1 view .LVU218
 649              		.loc 1 223 5 view .LVU219
 650              		.loc 1 223 14 is_stmt 0 view .LVU220
 651 0026 B046     		mov	r8, r6
 652 0028 38BF     		it	cc
 653 002a A046     		movcc	r8, r4
 654 002c C645     		cmp	lr, r8
 655 002e 7746     		mov	r7, lr
 656 0030 38BF     		it	cc
 657 0032 4746     		movcc	r7, r8
 658              	.LVL73:
 224:Drivers/lvgl/src/misc/lv_color.c **** 
 225:Drivers/lvgl/src/misc/lv_color.c ****     lv_color_hsv_t hsv;
 659              		.loc 1 225 5 is_stmt 1 view .LVU221
 226:Drivers/lvgl/src/misc/lv_color.c **** 
 227:Drivers/lvgl/src/misc/lv_color.c ****     // https://en.wikipedia.org/wiki/HSL_and_HSV#Lightness
 228:Drivers/lvgl/src/misc/lv_color.c ****     hsv.v = (100 * rgbMax) >> 10;
 660              		.loc 1 228 5 view .LVU222
 222:Drivers/lvgl/src/misc/lv_color.c ****     uint16_t rgbMax = r > g ? (r > b ? r : b) : (g > b ? g : b);
 661              		.loc 1 222 14 is_stmt 0 view .LVU223
 662 0034 7445     		cmp	r4, lr
 663 0036 2046     		mov	r0, r4
 664              	.LVL74:
 222:Drivers/lvgl/src/misc/lv_color.c ****     uint16_t rgbMax = r > g ? (r > b ? r : b) : (g > b ? g : b);
 665              		.loc 1 222 14 view .LVU224
 666 0038 28BF     		it	cs
 667 003a 7046     		movcs	r0, lr
 229:Drivers/lvgl/src/misc/lv_color.c **** 
 230:Drivers/lvgl/src/misc/lv_color.c ****     int32_t delta = rgbMax - rgbMin;
 668              		.loc 1 230 13 view .LVU225
 669 003c B042     		cmp	r0, r6
 670 003e 98BF     		it	ls
 671 0040 3D1A     		subls	r5, r7, r0
 228:Drivers/lvgl/src/misc/lv_color.c **** 
 672              		.loc 1 228 18 view .LVU226
 673 0042 4FF06402 		mov	r2, #100
 674              	.LVL75:
 675              		.loc 1 230 13 view .LVU227
 676 0046 88BF     		it	hi
 677 0048 BD1B     		subhi	r5, r7, r6
ARM GAS  /var/folders/lp/x54gwt890xv47sdkqj1k04q40000gn/T//ccfNKTR3.s 			page 29


 228:Drivers/lvgl/src/misc/lv_color.c **** 
 678              		.loc 1 228 18 view .LVU228
 679 004a 02FB07F0 		mul	r0, r2, r7
 231:Drivers/lvgl/src/misc/lv_color.c ****     if(delta < 3) {
 680              		.loc 1 231 7 view .LVU229
 681 004e 022D     		cmp	r5, #2
 217:Drivers/lvgl/src/misc/lv_color.c ****     uint16_t r = ((uint32_t)r8 << 10) / 255;
 682              		.loc 1 217 1 view .LVU230
 683 0050 82B0     		sub	sp, sp, #8
 684              		.cfi_def_cfa_offset 32
 228:Drivers/lvgl/src/misc/lv_color.c **** 
 685              		.loc 1 228 11 view .LVU231
 686 0052 4FEA9020 		lsr	r0, r0, #10
 687              	.LVL76:
 230:Drivers/lvgl/src/misc/lv_color.c ****     if(delta < 3) {
 688              		.loc 1 230 5 is_stmt 1 view .LVU232
 689              		.loc 1 231 5 view .LVU233
 690              		.loc 1 231 7 is_stmt 0 view .LVU234
 691 0056 2ADD     		ble	.L51
 232:Drivers/lvgl/src/misc/lv_color.c ****         hsv.h = 0;
 233:Drivers/lvgl/src/misc/lv_color.c ****         hsv.s = 0;
 234:Drivers/lvgl/src/misc/lv_color.c ****         return hsv;
 235:Drivers/lvgl/src/misc/lv_color.c ****     }
 236:Drivers/lvgl/src/misc/lv_color.c **** 
 237:Drivers/lvgl/src/misc/lv_color.c ****     // https://en.wikipedia.org/wiki/HSL_and_HSV#Saturation
 238:Drivers/lvgl/src/misc/lv_color.c ****     hsv.s = 100 * delta / rgbMax;
 692              		.loc 1 238 5 is_stmt 1 view .LVU235
 693              		.loc 1 238 17 is_stmt 0 view .LVU236
 694 0058 05FB02F2 		mul	r2, r5, r2
 695              		.loc 1 238 25 view .LVU237
 696 005c B2FBF7F2 		udiv	r2, r2, r7
 697              		.loc 1 238 11 view .LVU238
 698 0060 D2B2     		uxtb	r2, r2
 699              	.LVL77:
 239:Drivers/lvgl/src/misc/lv_color.c ****     if(hsv.s < 3) {
 700              		.loc 1 239 5 is_stmt 1 view .LVU239
 701              		.loc 1 239 7 is_stmt 0 view .LVU240
 702 0062 022A     		cmp	r2, #2
 703 0064 14D9     		bls	.L52
 240:Drivers/lvgl/src/misc/lv_color.c ****         hsv.h = 0;
 241:Drivers/lvgl/src/misc/lv_color.c ****         return hsv;
 242:Drivers/lvgl/src/misc/lv_color.c ****     }
 243:Drivers/lvgl/src/misc/lv_color.c **** 
 244:Drivers/lvgl/src/misc/lv_color.c ****     // https://en.wikipedia.org/wiki/HSL_and_HSV#Hue_and_chroma
 245:Drivers/lvgl/src/misc/lv_color.c ****     int32_t h;
 246:Drivers/lvgl/src/misc/lv_color.c ****     if(rgbMax == r)
 704              		.loc 1 246 7 view .LVU241
 705 0066 BE42     		cmp	r6, r7
 706 0068 7346     		mov	r3, lr
 245:Drivers/lvgl/src/misc/lv_color.c ****     if(rgbMax == r)
 707              		.loc 1 245 5 is_stmt 1 view .LVU242
 708              		.loc 1 246 5 view .LVU243
 709              		.loc 1 246 7 is_stmt 0 view .LVU244
 710 006a 2AD0     		beq	.L56
 247:Drivers/lvgl/src/misc/lv_color.c ****         h = (((g - b) << 10) / delta) + (g < b ? (6 << 10) : 0); // between yellow & magenta
 248:Drivers/lvgl/src/misc/lv_color.c ****     else if(rgbMax == g)
 711              		.loc 1 248 10 is_stmt 1 view .LVU245
ARM GAS  /var/folders/lp/x54gwt890xv47sdkqj1k04q40000gn/T//ccfNKTR3.s 			page 30


 712              		.loc 1 248 12 is_stmt 0 view .LVU246
 713 006c BC42     		cmp	r4, r7
 714 006e 21D0     		beq	.L57
 249:Drivers/lvgl/src/misc/lv_color.c ****         h = (((b - r) << 10) / delta) + (2 << 10); // between cyan & yellow
 250:Drivers/lvgl/src/misc/lv_color.c ****     else if(rgbMax == b)
 715              		.loc 1 250 10 is_stmt 1 view .LVU247
 716              		.loc 1 250 12 is_stmt 0 view .LVU248
 717 0070 C645     		cmp	lr, r8
 718 0072 0DD3     		bcc	.L52
 251:Drivers/lvgl/src/misc/lv_color.c ****         h = (((r - g) << 10) / delta) + (4 << 10); // between magenta & cyan
 719              		.loc 1 251 9 is_stmt 1 view .LVU249
 720              		.loc 1 251 18 is_stmt 0 view .LVU250
 721 0074 361B     		subs	r6, r6, r4
 722              	.LVL78:
 723              		.loc 1 251 23 view .LVU251
 724 0076 B602     		lsls	r6, r6, #10
 725              		.loc 1 251 30 view .LVU252
 726 0078 96FBF5F6 		sdiv	r6, r6, r5
 727              		.loc 1 251 11 view .LVU253
 728 007c 06F58053 		add	r3, r6, #4096
 729              	.LVL79:
 730              	.L47:
 252:Drivers/lvgl/src/misc/lv_color.c ****     else
 253:Drivers/lvgl/src/misc/lv_color.c ****         h = 0;
 254:Drivers/lvgl/src/misc/lv_color.c ****     h *= 60;
 731              		.loc 1 254 5 is_stmt 1 view .LVU254
 732              		.loc 1 254 7 is_stmt 0 view .LVU255
 733 0080 C3EB0313 		rsb	r3, r3, r3, lsl #4
 734              	.LVL80:
 255:Drivers/lvgl/src/misc/lv_color.c ****     h >>= 10;
 735              		.loc 1 255 5 is_stmt 1 view .LVU256
 256:Drivers/lvgl/src/misc/lv_color.c ****     if(h < 0) h += 360;
 736              		.loc 1 256 5 view .LVU257
 737              		.loc 1 256 7 is_stmt 0 view .LVU258
 738 0084 1B12     		asrs	r3, r3, #8
 739              	.LVL81:
 740              		.loc 1 256 15 is_stmt 1 discriminator 1 view .LVU259
 741              		.loc 1 256 17 is_stmt 0 discriminator 1 view .LVU260
 742 0086 48BF     		it	mi
 743 0088 03F5B473 		addmi	r3, r3, #360
 744              	.LVL82:
 257:Drivers/lvgl/src/misc/lv_color.c **** 
 258:Drivers/lvgl/src/misc/lv_color.c ****     hsv.h = h;
 745              		.loc 1 258 11 view .LVU261
 746 008c 9BB2     		uxth	r3, r3
 747 008e 00E0     		b	.L44
 748              	.LVL83:
 749              	.L52:
 750              		.loc 1 258 11 view .LVU262
 751 0090 0023     		movs	r3, #0
 752              	.LVL84:
 753              	.L44:
 234:Drivers/lvgl/src/misc/lv_color.c ****     }
 754              		.loc 1 234 16 view .LVU263
 755 0092 8DF80700 		strb	r0, [sp, #7]
 756              	.LVL85:
 234:Drivers/lvgl/src/misc/lv_color.c ****     }
ARM GAS  /var/folders/lp/x54gwt890xv47sdkqj1k04q40000gn/T//ccfNKTR3.s 			page 31


 757              		.loc 1 234 16 view .LVU264
 758 0096 8DF80620 		strb	r2, [sp, #6]
 259:Drivers/lvgl/src/misc/lv_color.c ****     return hsv;
 260:Drivers/lvgl/src/misc/lv_color.c **** }
 759              		.loc 1 260 1 view .LVU265
 760 009a BDF80620 		ldrh	r2, [sp, #6]
 761 009e 0020     		movs	r0, #0
 762 00a0 63F30F00 		bfi	r0, r3, #0, #16
 763 00a4 62F31F40 		bfi	r0, r2, #16, #16
 764 00a8 02B0     		add	sp, sp, #8
 765              		.cfi_remember_state
 766              		.cfi_def_cfa_offset 24
 767              		@ sp needed
 768 00aa BDE8F081 		pop	{r4, r5, r6, r7, r8, pc}
 769              	.LVL86:
 770              	.L51:
 771              		.cfi_restore_state
 772              		.loc 1 260 1 view .LVU266
 773 00ae 0023     		movs	r3, #0
 774 00b0 1A46     		mov	r2, r3
 775 00b2 EEE7     		b	.L44
 776              	.LVL87:
 777              	.L57:
 249:Drivers/lvgl/src/misc/lv_color.c ****     else if(rgbMax == b)
 778              		.loc 1 249 9 is_stmt 1 view .LVU267
 249:Drivers/lvgl/src/misc/lv_color.c ****     else if(rgbMax == b)
 779              		.loc 1 249 18 is_stmt 0 view .LVU268
 780 00b4 9B1B     		subs	r3, r3, r6
 249:Drivers/lvgl/src/misc/lv_color.c ****     else if(rgbMax == b)
 781              		.loc 1 249 23 view .LVU269
 782 00b6 9B02     		lsls	r3, r3, #10
 249:Drivers/lvgl/src/misc/lv_color.c ****     else if(rgbMax == b)
 783              		.loc 1 249 30 view .LVU270
 784 00b8 93FBF5F3 		sdiv	r3, r3, r5
 249:Drivers/lvgl/src/misc/lv_color.c ****     else if(rgbMax == b)
 785              		.loc 1 249 11 view .LVU271
 786 00bc 03F50063 		add	r3, r3, #2048
 787              	.LVL88:
 249:Drivers/lvgl/src/misc/lv_color.c ****     else if(rgbMax == b)
 788              		.loc 1 249 11 view .LVU272
 789 00c0 DEE7     		b	.L47
 790              	.LVL89:
 791              	.L56:
 247:Drivers/lvgl/src/misc/lv_color.c ****     else if(rgbMax == g)
 792              		.loc 1 247 9 is_stmt 1 view .LVU273
 247:Drivers/lvgl/src/misc/lv_color.c ****     else if(rgbMax == g)
 793              		.loc 1 247 18 is_stmt 0 view .LVU274
 794 00c2 E31A     		subs	r3, r4, r3
 247:Drivers/lvgl/src/misc/lv_color.c ****     else if(rgbMax == g)
 795              		.loc 1 247 60 view .LVU275
 796 00c4 7445     		cmp	r4, lr
 247:Drivers/lvgl/src/misc/lv_color.c ****     else if(rgbMax == g)
 797              		.loc 1 247 23 view .LVU276
 798 00c6 4FEA8323 		lsl	r3, r3, #10
 247:Drivers/lvgl/src/misc/lv_color.c ****     else if(rgbMax == g)
 799              		.loc 1 247 30 view .LVU277
 800 00ca 93FBF5F3 		sdiv	r3, r3, r5
ARM GAS  /var/folders/lp/x54gwt890xv47sdkqj1k04q40000gn/T//ccfNKTR3.s 			page 32


 247:Drivers/lvgl/src/misc/lv_color.c ****     else if(rgbMax == g)
 801              		.loc 1 247 60 view .LVU278
 802 00ce D7D2     		bcs	.L47
 247:Drivers/lvgl/src/misc/lv_color.c ****     else if(rgbMax == g)
 803              		.loc 1 247 11 discriminator 4 view .LVU279
 804 00d0 03F5C053 		add	r3, r3, #6144
 805 00d4 D4E7     		b	.L47
 806              	.L59:
 807 00d6 00BF     		.align	2
 808              	.L58:
 809 00d8 81808080 		.word	-2139062143
 810              		.cfi_endproc
 811              	.LFE23:
 813              		.section	.text.lv_color_to_hsv,"ax",%progbits
 814              		.align	1
 815              		.p2align 2,,3
 816              		.global	lv_color_to_hsv
 817              		.syntax unified
 818              		.thumb
 819              		.thumb_func
 821              	lv_color_to_hsv:
 822              	.LVL90:
 823              	.LFB24:
 261:Drivers/lvgl/src/misc/lv_color.c **** 
 262:Drivers/lvgl/src/misc/lv_color.c **** /**
 263:Drivers/lvgl/src/misc/lv_color.c ****  * Convert a color to HSV
 264:Drivers/lvgl/src/misc/lv_color.c ****  * @param color color
 265:Drivers/lvgl/src/misc/lv_color.c ****  * @return the given color in HSV
 266:Drivers/lvgl/src/misc/lv_color.c ****  */
 267:Drivers/lvgl/src/misc/lv_color.c **** lv_color_hsv_t lv_color_to_hsv(lv_color_t color)
 268:Drivers/lvgl/src/misc/lv_color.c **** {
 824              		.loc 1 268 1 is_stmt 1 view -0
 825              		.cfi_startproc
 826              		@ args = 0, pretend = 0, frame = 8
 827              		@ frame_needed = 0, uses_anonymous_args = 0
 828              		@ link register save eliminated.
 269:Drivers/lvgl/src/misc/lv_color.c ****     lv_color32_t color32;
 829              		.loc 1 269 5 view .LVU281
 270:Drivers/lvgl/src/misc/lv_color.c ****     color32.full = lv_color_to32(color);
 830              		.loc 1 270 5 view .LVU282
 831              	.LBB42:
 832              	.LBB43:
 420:Drivers/lvgl/src/misc/lv_color.h ****     LV_COLOR_SET_G32(ret, (LV_COLOR_GET_G(color) * 259 + 3) >> 6);
 833              		.loc 2 420 5 is_stmt 0 view .LVU283
 834 0000 C0F3C402 		ubfx	r2, r0, #3, #5
 835 0004 00F00701 		and	r1, r0, #7
 836              	.LVL91:
 420:Drivers/lvgl/src/misc/lv_color.h ****     LV_COLOR_SET_G32(ret, (LV_COLOR_GET_G(color) * 259 + 3) >> 6);
 837              		.loc 2 420 5 view .LVU284
 838 0008 C0F34233 		ubfx	r3, r0, #13, #3
 421:Drivers/lvgl/src/misc/lv_color.h ****     LV_COLOR_SET_B32(ret, (LV_COLOR_GET_B(color) * 263 + 7) >> 5);
 839              		.loc 2 421 5 view .LVU285
 840 000c 03EBC103 		add	r3, r3, r1, lsl #3
 420:Drivers/lvgl/src/misc/lv_color.h ****     LV_COLOR_SET_G32(ret, (LV_COLOR_GET_G(color) * 259 + 3) >> 6);
 841              		.loc 2 420 5 view .LVU286
 842 0010 02EB4211 		add	r1, r2, r2, lsl #5
 843 0014 C0F30420 		ubfx	r0, r0, #8, #5
ARM GAS  /var/folders/lp/x54gwt890xv47sdkqj1k04q40000gn/T//ccfNKTR3.s 			page 33


 844              	.LVL92:
 420:Drivers/lvgl/src/misc/lv_color.h ****     LV_COLOR_SET_G32(ret, (LV_COLOR_GET_G(color) * 259 + 3) >> 6);
 845              		.loc 2 420 5 view .LVU287
 846              	.LBE43:
 847              	.LBI42:
 375:Drivers/lvgl/src/misc/lv_color.h **** {
 848              		.loc 2 375 24 is_stmt 1 view .LVU288
 849              	.LBB44:
 419:Drivers/lvgl/src/misc/lv_color.h ****     LV_COLOR_SET_R32(ret, (LV_COLOR_GET_R(color) * 263 + 7) >> 5);
 850              		.loc 2 419 5 view .LVU289
 420:Drivers/lvgl/src/misc/lv_color.h ****     LV_COLOR_SET_G32(ret, (LV_COLOR_GET_G(color) * 259 + 3) >> 6);
 851              		.loc 2 420 5 view .LVU290
 852 0018 C2EBC101 		rsb	r1, r2, r1, lsl #3
 421:Drivers/lvgl/src/misc/lv_color.h ****     LV_COLOR_SET_B32(ret, (LV_COLOR_GET_B(color) * 263 + 7) >> 5);
 853              		.loc 2 421 5 is_stmt 0 view .LVU291
 854 001c 03EBC312 		add	r2, r3, r3, lsl #7
 855 0020 03EB4202 		add	r2, r3, r2, lsl #1
 420:Drivers/lvgl/src/misc/lv_color.h ****     LV_COLOR_SET_G32(ret, (LV_COLOR_GET_G(color) * 259 + 3) >> 6);
 856              		.loc 2 420 5 view .LVU292
 857 0024 0731     		adds	r1, r1, #7
 422:Drivers/lvgl/src/misc/lv_color.h ****     LV_COLOR_SET_A32(ret, 0xFF);
 858              		.loc 2 422 5 view .LVU293
 859 0026 00EB4013 		add	r3, r0, r0, lsl #5
 420:Drivers/lvgl/src/misc/lv_color.h ****     LV_COLOR_SET_G32(ret, (LV_COLOR_GET_G(color) * 259 + 3) >> 6);
 860              		.loc 2 420 5 view .LVU294
 861 002a 4911     		asrs	r1, r1, #5
 422:Drivers/lvgl/src/misc/lv_color.h ****     LV_COLOR_SET_A32(ret, 0xFF);
 862              		.loc 2 422 5 view .LVU295
 863 002c C0EBC303 		rsb	r3, r0, r3, lsl #3
 420:Drivers/lvgl/src/misc/lv_color.h ****     LV_COLOR_SET_G32(ret, (LV_COLOR_GET_G(color) * 259 + 3) >> 6);
 864              		.loc 2 420 5 view .LVU296
 865 0030 4FF0000C 		mov	ip, #0
 866              	.LVL93:
 421:Drivers/lvgl/src/misc/lv_color.h ****     LV_COLOR_SET_B32(ret, (LV_COLOR_GET_B(color) * 263 + 7) >> 5);
 867              		.loc 2 421 5 view .LVU297
 868 0034 0332     		adds	r2, r2, #3
 420:Drivers/lvgl/src/misc/lv_color.h ****     LV_COLOR_SET_G32(ret, (LV_COLOR_GET_G(color) * 259 + 3) >> 6);
 869              		.loc 2 420 5 view .LVU298
 870 0036 61F3174C 		bfi	ip, r1, #16, #8
 871              	.LVL94:
 421:Drivers/lvgl/src/misc/lv_color.h ****     LV_COLOR_SET_B32(ret, (LV_COLOR_GET_B(color) * 263 + 7) >> 5);
 872              		.loc 2 421 5 is_stmt 1 view .LVU299
 873 003a 9211     		asrs	r2, r2, #6
 422:Drivers/lvgl/src/misc/lv_color.h ****     LV_COLOR_SET_A32(ret, 0xFF);
 874              		.loc 2 422 5 is_stmt 0 view .LVU300
 875 003c 0733     		adds	r3, r3, #7
 421:Drivers/lvgl/src/misc/lv_color.h ****     LV_COLOR_SET_B32(ret, (LV_COLOR_GET_B(color) * 263 + 7) >> 5);
 876              		.loc 2 421 5 view .LVU301
 877 003e 62F30F2C 		bfi	ip, r2, #8, #8
 422:Drivers/lvgl/src/misc/lv_color.h ****     LV_COLOR_SET_A32(ret, 0xFF);
 878              		.loc 2 422 5 is_stmt 1 view .LVU302
 879 0042 5B11     		asrs	r3, r3, #5
 880 0044 63F3070C 		bfi	ip, r3, #0, #8
 423:Drivers/lvgl/src/misc/lv_color.h ****     return ret.full;
 881              		.loc 2 423 5 view .LVU303
 882 0048 4CF07F4C 		orr	ip, ip, #-16777216
 883              	.LVL95:
ARM GAS  /var/folders/lp/x54gwt890xv47sdkqj1k04q40000gn/T//ccfNKTR3.s 			page 34


 424:Drivers/lvgl/src/misc/lv_color.h **** #elif LV_COLOR_DEPTH == 32
 884              		.loc 2 424 5 view .LVU304
 424:Drivers/lvgl/src/misc/lv_color.h **** #elif LV_COLOR_DEPTH == 32
 885              		.loc 2 424 5 is_stmt 0 view .LVU305
 886              	.LBE44:
 887              	.LBE42:
 271:Drivers/lvgl/src/misc/lv_color.c ****     return lv_color_rgb_to_hsv(color32.ch.red, color32.ch.green, color32.ch.blue);
 888              		.loc 1 271 5 is_stmt 1 view .LVU306
 268:Drivers/lvgl/src/misc/lv_color.c ****     lv_color32_t color32;
 889              		.loc 1 268 1 is_stmt 0 view .LVU307
 890 004c 82B0     		sub	sp, sp, #8
 891              		.cfi_def_cfa_offset 8
 892              		.loc 1 271 12 view .LVU308
 893 004e 5FFA8CF2 		uxtb	r2, ip
 894 0052 CCF30721 		ubfx	r1, ip, #8, #8
 895 0056 CCF30740 		ubfx	r0, ip, #16, #8
 272:Drivers/lvgl/src/misc/lv_color.c **** }
 896              		.loc 1 272 1 view .LVU309
 897 005a 02B0     		add	sp, sp, #8
 898              		.cfi_def_cfa_offset 0
 899              		@ sp needed
 271:Drivers/lvgl/src/misc/lv_color.c ****     return lv_color_rgb_to_hsv(color32.ch.red, color32.ch.green, color32.ch.blue);
 900              		.loc 1 271 12 view .LVU310
 901 005c FFF7FEBF 		b	lv_color_rgb_to_hsv
 902              	.LVL96:
 271:Drivers/lvgl/src/misc/lv_color.c ****     return lv_color_rgb_to_hsv(color32.ch.red, color32.ch.green, color32.ch.blue);
 903              		.loc 1 271 12 view .LVU311
 904              		.cfi_endproc
 905              	.LFE24:
 907              		.section	.text.lv_palette_main,"ax",%progbits
 908              		.align	1
 909              		.p2align 2,,3
 910              		.global	lv_palette_main
 911              		.syntax unified
 912              		.thumb
 913              		.thumb_func
 915              	lv_palette_main:
 916              	.LVL97:
 917              	.LFB25:
 273:Drivers/lvgl/src/misc/lv_color.c **** 
 274:Drivers/lvgl/src/misc/lv_color.c **** lv_color_t lv_palette_main(lv_palette_t p)
 275:Drivers/lvgl/src/misc/lv_color.c **** {
 918              		.loc 1 275 1 is_stmt 1 view -0
 919              		.cfi_startproc
 920              		@ args = 0, pretend = 0, frame = 0
 921              		@ frame_needed = 0, uses_anonymous_args = 0
 922              		@ link register save eliminated.
 276:Drivers/lvgl/src/misc/lv_color.c ****     static const lv_color_t colors[] = {
 923              		.loc 1 276 5 view .LVU313
 277:Drivers/lvgl/src/misc/lv_color.c ****         LV_COLOR_MAKE(0xF4, 0x43, 0x36), LV_COLOR_MAKE(0xE9, 0x1E, 0x63), LV_COLOR_MAKE(0x9C, 0x27,
 278:Drivers/lvgl/src/misc/lv_color.c ****         LV_COLOR_MAKE(0x3F, 0x51, 0xB5), LV_COLOR_MAKE(0x21, 0x96, 0xF3), LV_COLOR_MAKE(0x03, 0xA9,
 279:Drivers/lvgl/src/misc/lv_color.c ****         LV_COLOR_MAKE(0x00, 0x96, 0x88), LV_COLOR_MAKE(0x4C, 0xAF, 0x50), LV_COLOR_MAKE(0x8B, 0xC3,
 280:Drivers/lvgl/src/misc/lv_color.c ****         LV_COLOR_MAKE(0xFF, 0xEB, 0x3B), LV_COLOR_MAKE(0xFF, 0xC1, 0x07), LV_COLOR_MAKE(0xFF, 0x98,
 281:Drivers/lvgl/src/misc/lv_color.c ****         LV_COLOR_MAKE(0x79, 0x55, 0x48), LV_COLOR_MAKE(0x60, 0x7D, 0x8B), LV_COLOR_MAKE(0x9E, 0x9E,
 282:Drivers/lvgl/src/misc/lv_color.c ****     };
 283:Drivers/lvgl/src/misc/lv_color.c **** 
 284:Drivers/lvgl/src/misc/lv_color.c ****     if(p >= _LV_PALETTE_LAST) {
ARM GAS  /var/folders/lp/x54gwt890xv47sdkqj1k04q40000gn/T//ccfNKTR3.s 			page 35


 924              		.loc 1 284 5 view .LVU314
 925              		.loc 1 284 7 is_stmt 0 view .LVU315
 926 0000 1228     		cmp	r0, #18
 285:Drivers/lvgl/src/misc/lv_color.c ****         LV_LOG_WARN("Invalid palette: %d", p);
 927              		.loc 1 285 9 is_stmt 1 view .LVU316
 928              		.loc 1 285 9 view .LVU317
 929              		.loc 1 285 9 view .LVU318
 286:Drivers/lvgl/src/misc/lv_color.c ****         return lv_color_black();
 930              		.loc 1 286 9 view .LVU319
 287:Drivers/lvgl/src/misc/lv_color.c ****     }
 288:Drivers/lvgl/src/misc/lv_color.c **** 
 289:Drivers/lvgl/src/misc/lv_color.c ****     return colors[p];
 931              		.loc 1 289 18 is_stmt 0 view .LVU320
 932 0002 96BF     		itet	ls
 933 0004 024B     		ldrls	r3, .L65
 934 0006 0020     		movhi	r0, #0	@ movhi
 935              	.LVL98:
 936              		.loc 1 289 5 is_stmt 1 view .LVU321
 937              		.loc 1 289 18 is_stmt 0 view .LVU322
 938 0008 33F81000 		ldrhls	r0, [r3, r0, lsl #1]
 290:Drivers/lvgl/src/misc/lv_color.c **** 
 291:Drivers/lvgl/src/misc/lv_color.c **** }
 939              		.loc 1 291 1 view .LVU323
 940 000c 7047     		bx	lr
 941              	.L66:
 942 000e 00BF     		.align	2
 943              	.L65:
 944 0010 00000000 		.word	colors.2
 945              		.cfi_endproc
 946              	.LFE25:
 948              		.section	.text.lv_palette_lighten,"ax",%progbits
 949              		.align	1
 950              		.p2align 2,,3
 951              		.global	lv_palette_lighten
 952              		.syntax unified
 953              		.thumb
 954              		.thumb_func
 956              	lv_palette_lighten:
 957              	.LVL99:
 958              	.LFB26:
 292:Drivers/lvgl/src/misc/lv_color.c **** 
 293:Drivers/lvgl/src/misc/lv_color.c **** lv_color_t lv_palette_lighten(lv_palette_t p, uint8_t lvl)
 294:Drivers/lvgl/src/misc/lv_color.c **** {
 959              		.loc 1 294 1 is_stmt 1 view -0
 960              		.cfi_startproc
 961              		@ args = 0, pretend = 0, frame = 0
 962              		@ frame_needed = 0, uses_anonymous_args = 0
 963              		@ link register save eliminated.
 295:Drivers/lvgl/src/misc/lv_color.c ****     static const lv_color_t colors[][5] = {
 964              		.loc 1 295 5 view .LVU325
 296:Drivers/lvgl/src/misc/lv_color.c ****         {LV_COLOR_MAKE(0xEF, 0x53, 0x50), LV_COLOR_MAKE(0xE5, 0x73, 0x73), LV_COLOR_MAKE(0xEF, 0x9A
 297:Drivers/lvgl/src/misc/lv_color.c ****         {LV_COLOR_MAKE(0xEC, 0x40, 0x7A), LV_COLOR_MAKE(0xF0, 0x62, 0x92), LV_COLOR_MAKE(0xF4, 0x8F
 298:Drivers/lvgl/src/misc/lv_color.c ****         {LV_COLOR_MAKE(0xAB, 0x47, 0xBC), LV_COLOR_MAKE(0xBA, 0x68, 0xC8), LV_COLOR_MAKE(0xCE, 0x93
 299:Drivers/lvgl/src/misc/lv_color.c ****         {LV_COLOR_MAKE(0x7E, 0x57, 0xC2), LV_COLOR_MAKE(0x95, 0x75, 0xCD), LV_COLOR_MAKE(0xB3, 0x9D
 300:Drivers/lvgl/src/misc/lv_color.c ****         {LV_COLOR_MAKE(0x5C, 0x6B, 0xC0), LV_COLOR_MAKE(0x79, 0x86, 0xCB), LV_COLOR_MAKE(0x9F, 0xA8
 301:Drivers/lvgl/src/misc/lv_color.c ****         {LV_COLOR_MAKE(0x42, 0xA5, 0xF5), LV_COLOR_MAKE(0x64, 0xB5, 0xF6), LV_COLOR_MAKE(0x90, 0xCA
 302:Drivers/lvgl/src/misc/lv_color.c ****         {LV_COLOR_MAKE(0x29, 0xB6, 0xF6), LV_COLOR_MAKE(0x4F, 0xC3, 0xF7), LV_COLOR_MAKE(0x81, 0xD4
ARM GAS  /var/folders/lp/x54gwt890xv47sdkqj1k04q40000gn/T//ccfNKTR3.s 			page 36


 303:Drivers/lvgl/src/misc/lv_color.c ****         {LV_COLOR_MAKE(0x26, 0xC6, 0xDA), LV_COLOR_MAKE(0x4D, 0xD0, 0xE1), LV_COLOR_MAKE(0x80, 0xDE
 304:Drivers/lvgl/src/misc/lv_color.c ****         {LV_COLOR_MAKE(0x26, 0xA6, 0x9A), LV_COLOR_MAKE(0x4D, 0xB6, 0xAC), LV_COLOR_MAKE(0x80, 0xCB
 305:Drivers/lvgl/src/misc/lv_color.c ****         {LV_COLOR_MAKE(0x66, 0xBB, 0x6A), LV_COLOR_MAKE(0x81, 0xC7, 0x84), LV_COLOR_MAKE(0xA5, 0xD6
 306:Drivers/lvgl/src/misc/lv_color.c ****         {LV_COLOR_MAKE(0x9C, 0xCC, 0x65), LV_COLOR_MAKE(0xAE, 0xD5, 0x81), LV_COLOR_MAKE(0xC5, 0xE1
 307:Drivers/lvgl/src/misc/lv_color.c ****         {LV_COLOR_MAKE(0xD4, 0xE1, 0x57), LV_COLOR_MAKE(0xDC, 0xE7, 0x75), LV_COLOR_MAKE(0xE6, 0xEE
 308:Drivers/lvgl/src/misc/lv_color.c ****         {LV_COLOR_MAKE(0xFF, 0xEE, 0x58), LV_COLOR_MAKE(0xFF, 0xF1, 0x76), LV_COLOR_MAKE(0xFF, 0xF5
 309:Drivers/lvgl/src/misc/lv_color.c ****         {LV_COLOR_MAKE(0xFF, 0xCA, 0x28), LV_COLOR_MAKE(0xFF, 0xD5, 0x4F), LV_COLOR_MAKE(0xFF, 0xE0
 310:Drivers/lvgl/src/misc/lv_color.c ****         {LV_COLOR_MAKE(0xFF, 0xA7, 0x26), LV_COLOR_MAKE(0xFF, 0xB7, 0x4D), LV_COLOR_MAKE(0xFF, 0xCC
 311:Drivers/lvgl/src/misc/lv_color.c ****         {LV_COLOR_MAKE(0xFF, 0x70, 0x43), LV_COLOR_MAKE(0xFF, 0x8A, 0x65), LV_COLOR_MAKE(0xFF, 0xAB
 312:Drivers/lvgl/src/misc/lv_color.c ****         {LV_COLOR_MAKE(0x8D, 0x6E, 0x63), LV_COLOR_MAKE(0xA1, 0x88, 0x7F), LV_COLOR_MAKE(0xBC, 0xAA
 313:Drivers/lvgl/src/misc/lv_color.c ****         {LV_COLOR_MAKE(0x78, 0x90, 0x9C), LV_COLOR_MAKE(0x90, 0xA4, 0xAE), LV_COLOR_MAKE(0xB0, 0xBE
 314:Drivers/lvgl/src/misc/lv_color.c ****         {LV_COLOR_MAKE(0xBD, 0xBD, 0xBD), LV_COLOR_MAKE(0xE0, 0xE0, 0xE0), LV_COLOR_MAKE(0xEE, 0xEE
 315:Drivers/lvgl/src/misc/lv_color.c ****     };
 316:Drivers/lvgl/src/misc/lv_color.c **** 
 317:Drivers/lvgl/src/misc/lv_color.c ****     if(p >= _LV_PALETTE_LAST) {
 965              		.loc 1 317 5 view .LVU326
 966              		.loc 1 317 7 is_stmt 0 view .LVU327
 967 0000 1228     		cmp	r0, #18
 968 0002 0AD8     		bhi	.L70
 318:Drivers/lvgl/src/misc/lv_color.c ****         LV_LOG_WARN("Invalid palette: %d", p);
 319:Drivers/lvgl/src/misc/lv_color.c ****         return lv_color_black();
 320:Drivers/lvgl/src/misc/lv_color.c ****     }
 321:Drivers/lvgl/src/misc/lv_color.c **** 
 322:Drivers/lvgl/src/misc/lv_color.c ****     if(lvl == 0 || lvl > 5) {
 969              		.loc 1 322 5 is_stmt 1 view .LVU328
 970              		.loc 1 322 17 is_stmt 0 view .LVU329
 971 0004 0139     		subs	r1, r1, #1
 972              	.LVL100:
 973              		.loc 1 322 17 view .LVU330
 974 0006 C9B2     		uxtb	r1, r1
 975              	.LVL101:
 976              		.loc 1 322 7 view .LVU331
 977 0008 0429     		cmp	r1, #4
 978 000a 06D8     		bhi	.L70
 323:Drivers/lvgl/src/misc/lv_color.c ****         LV_LOG_WARN("Invalid level: %d. Must be 1..5", lvl);
 324:Drivers/lvgl/src/misc/lv_color.c ****         return lv_color_black();
 325:Drivers/lvgl/src/misc/lv_color.c ****     }
 326:Drivers/lvgl/src/misc/lv_color.c **** 
 327:Drivers/lvgl/src/misc/lv_color.c ****     lvl--;
 979              		.loc 1 327 5 is_stmt 1 view .LVU332
 980              	.LVL102:
 328:Drivers/lvgl/src/misc/lv_color.c **** 
 329:Drivers/lvgl/src/misc/lv_color.c ****     return colors[p][lvl];
 981              		.loc 1 329 5 view .LVU333
 982              		.loc 1 329 21 is_stmt 0 view .LVU334
 983 000c 00EB8000 		add	r0, r0, r0, lsl #2
 984              	.LVL103:
 985              		.loc 1 329 21 view .LVU335
 986 0010 034B     		ldr	r3, .L71
 987 0012 0844     		add	r0, r0, r1
 988 0014 33F81000 		ldrh	r0, [r3, r0, lsl #1]
 330:Drivers/lvgl/src/misc/lv_color.c **** }
 989              		.loc 1 330 1 view .LVU336
 990 0018 7047     		bx	lr
 991              	.LVL104:
 992              	.L70:
 318:Drivers/lvgl/src/misc/lv_color.c ****         return lv_color_black();
ARM GAS  /var/folders/lp/x54gwt890xv47sdkqj1k04q40000gn/T//ccfNKTR3.s 			page 37


 993              		.loc 1 318 9 is_stmt 1 view .LVU337
 318:Drivers/lvgl/src/misc/lv_color.c ****         return lv_color_black();
 994              		.loc 1 318 9 view .LVU338
 318:Drivers/lvgl/src/misc/lv_color.c ****         return lv_color_black();
 995              		.loc 1 318 9 view .LVU339
 319:Drivers/lvgl/src/misc/lv_color.c ****     }
 996              		.loc 1 319 9 view .LVU340
 997 001a 4FF00000 		mov	r0, #0	@ movhi
 998              	.LVL105:
 319:Drivers/lvgl/src/misc/lv_color.c ****     }
 999              		.loc 1 319 16 is_stmt 0 view .LVU341
 1000 001e 7047     		bx	lr
 1001              	.L72:
 1002              		.align	2
 1003              	.L71:
 1004 0020 00000000 		.word	colors.1
 1005              		.cfi_endproc
 1006              	.LFE26:
 1008              		.section	.text.lv_palette_darken,"ax",%progbits
 1009              		.align	1
 1010              		.p2align 2,,3
 1011              		.global	lv_palette_darken
 1012              		.syntax unified
 1013              		.thumb
 1014              		.thumb_func
 1016              	lv_palette_darken:
 1017              	.LVL106:
 1018              	.LFB27:
 331:Drivers/lvgl/src/misc/lv_color.c **** 
 332:Drivers/lvgl/src/misc/lv_color.c **** lv_color_t lv_palette_darken(lv_palette_t p, uint8_t lvl)
 333:Drivers/lvgl/src/misc/lv_color.c **** {
 1019              		.loc 1 333 1 is_stmt 1 view -0
 1020              		.cfi_startproc
 1021              		@ args = 0, pretend = 0, frame = 0
 1022              		@ frame_needed = 0, uses_anonymous_args = 0
 1023              		@ link register save eliminated.
 334:Drivers/lvgl/src/misc/lv_color.c ****     static const lv_color_t colors[][4] = {
 1024              		.loc 1 334 5 view .LVU343
 335:Drivers/lvgl/src/misc/lv_color.c ****         {LV_COLOR_MAKE(0xE5, 0x39, 0x35), LV_COLOR_MAKE(0xD3, 0x2F, 0x2F), LV_COLOR_MAKE(0xC6, 0x28
 336:Drivers/lvgl/src/misc/lv_color.c ****         {LV_COLOR_MAKE(0xD8, 0x1B, 0x60), LV_COLOR_MAKE(0xC2, 0x18, 0x5B), LV_COLOR_MAKE(0xAD, 0x14
 337:Drivers/lvgl/src/misc/lv_color.c ****         {LV_COLOR_MAKE(0x8E, 0x24, 0xAA), LV_COLOR_MAKE(0x7B, 0x1F, 0xA2), LV_COLOR_MAKE(0x6A, 0x1B
 338:Drivers/lvgl/src/misc/lv_color.c ****         {LV_COLOR_MAKE(0x5E, 0x35, 0xB1), LV_COLOR_MAKE(0x51, 0x2D, 0xA8), LV_COLOR_MAKE(0x45, 0x27
 339:Drivers/lvgl/src/misc/lv_color.c ****         {LV_COLOR_MAKE(0x39, 0x49, 0xAB), LV_COLOR_MAKE(0x30, 0x3F, 0x9F), LV_COLOR_MAKE(0x28, 0x35
 340:Drivers/lvgl/src/misc/lv_color.c ****         {LV_COLOR_MAKE(0x1E, 0x88, 0xE5), LV_COLOR_MAKE(0x19, 0x76, 0xD2), LV_COLOR_MAKE(0x15, 0x65
 341:Drivers/lvgl/src/misc/lv_color.c ****         {LV_COLOR_MAKE(0x03, 0x9B, 0xE5), LV_COLOR_MAKE(0x02, 0x88, 0xD1), LV_COLOR_MAKE(0x02, 0x77
 342:Drivers/lvgl/src/misc/lv_color.c ****         {LV_COLOR_MAKE(0x00, 0xAC, 0xC1), LV_COLOR_MAKE(0x00, 0x97, 0xA7), LV_COLOR_MAKE(0x00, 0x83
 343:Drivers/lvgl/src/misc/lv_color.c ****         {LV_COLOR_MAKE(0x00, 0x89, 0x7B), LV_COLOR_MAKE(0x00, 0x79, 0x6B), LV_COLOR_MAKE(0x00, 0x69
 344:Drivers/lvgl/src/misc/lv_color.c ****         {LV_COLOR_MAKE(0x43, 0xA0, 0x47), LV_COLOR_MAKE(0x38, 0x8E, 0x3C), LV_COLOR_MAKE(0x2E, 0x7D
 345:Drivers/lvgl/src/misc/lv_color.c ****         {LV_COLOR_MAKE(0x7C, 0xB3, 0x42), LV_COLOR_MAKE(0x68, 0x9F, 0x38), LV_COLOR_MAKE(0x55, 0x8B
 346:Drivers/lvgl/src/misc/lv_color.c ****         {LV_COLOR_MAKE(0xC0, 0xCA, 0x33), LV_COLOR_MAKE(0xAF, 0xB4, 0x2B), LV_COLOR_MAKE(0x9E, 0x9D
 347:Drivers/lvgl/src/misc/lv_color.c ****         {LV_COLOR_MAKE(0xFD, 0xD8, 0x35), LV_COLOR_MAKE(0xFB, 0xC0, 0x2D), LV_COLOR_MAKE(0xF9, 0xA8
 348:Drivers/lvgl/src/misc/lv_color.c ****         {LV_COLOR_MAKE(0xFF, 0xB3, 0x00), LV_COLOR_MAKE(0xFF, 0xA0, 0x00), LV_COLOR_MAKE(0xFF, 0x8F
 349:Drivers/lvgl/src/misc/lv_color.c ****         {LV_COLOR_MAKE(0xFB, 0x8C, 0x00), LV_COLOR_MAKE(0xF5, 0x7C, 0x00), LV_COLOR_MAKE(0xEF, 0x6C
 350:Drivers/lvgl/src/misc/lv_color.c ****         {LV_COLOR_MAKE(0xF4, 0x51, 0x1E), LV_COLOR_MAKE(0xE6, 0x4A, 0x19), LV_COLOR_MAKE(0xD8, 0x43
 351:Drivers/lvgl/src/misc/lv_color.c ****         {LV_COLOR_MAKE(0x6D, 0x4C, 0x41), LV_COLOR_MAKE(0x5D, 0x40, 0x37), LV_COLOR_MAKE(0x4E, 0x34
 352:Drivers/lvgl/src/misc/lv_color.c ****         {LV_COLOR_MAKE(0x54, 0x6E, 0x7A), LV_COLOR_MAKE(0x45, 0x5A, 0x64), LV_COLOR_MAKE(0x37, 0x47
 353:Drivers/lvgl/src/misc/lv_color.c ****         {LV_COLOR_MAKE(0x75, 0x75, 0x75), LV_COLOR_MAKE(0x61, 0x61, 0x61), LV_COLOR_MAKE(0x42, 0x42
ARM GAS  /var/folders/lp/x54gwt890xv47sdkqj1k04q40000gn/T//ccfNKTR3.s 			page 38


 354:Drivers/lvgl/src/misc/lv_color.c ****     };
 355:Drivers/lvgl/src/misc/lv_color.c **** 
 356:Drivers/lvgl/src/misc/lv_color.c ****     if(p >= _LV_PALETTE_LAST) {
 1025              		.loc 1 356 5 view .LVU344
 1026              		.loc 1 356 7 is_stmt 0 view .LVU345
 1027 0000 1228     		cmp	r0, #18
 1028 0002 09D8     		bhi	.L76
 357:Drivers/lvgl/src/misc/lv_color.c ****         LV_LOG_WARN("Invalid palette: %d", p);
 358:Drivers/lvgl/src/misc/lv_color.c ****         return lv_color_black();
 359:Drivers/lvgl/src/misc/lv_color.c ****     }
 360:Drivers/lvgl/src/misc/lv_color.c **** 
 361:Drivers/lvgl/src/misc/lv_color.c ****     if(lvl == 0 || lvl > 4) {
 1029              		.loc 1 361 5 is_stmt 1 view .LVU346
 1030              		.loc 1 361 17 is_stmt 0 view .LVU347
 1031 0004 0139     		subs	r1, r1, #1
 1032              	.LVL107:
 1033              		.loc 1 361 17 view .LVU348
 1034 0006 C9B2     		uxtb	r1, r1
 1035              	.LVL108:
 1036              		.loc 1 361 7 view .LVU349
 1037 0008 0329     		cmp	r1, #3
 1038 000a 05D8     		bhi	.L76
 362:Drivers/lvgl/src/misc/lv_color.c ****         LV_LOG_WARN("Invalid level: %d. Must be 1..4", lvl);
 363:Drivers/lvgl/src/misc/lv_color.c ****         return lv_color_black();
 364:Drivers/lvgl/src/misc/lv_color.c ****     }
 365:Drivers/lvgl/src/misc/lv_color.c **** 
 366:Drivers/lvgl/src/misc/lv_color.c ****     lvl--;
 1039              		.loc 1 366 5 is_stmt 1 view .LVU350
 1040              	.LVL109:
 367:Drivers/lvgl/src/misc/lv_color.c **** 
 368:Drivers/lvgl/src/misc/lv_color.c ****     return colors[p][lvl];
 1041              		.loc 1 368 5 view .LVU351
 1042              		.loc 1 368 21 is_stmt 0 view .LVU352
 1043 000c 044B     		ldr	r3, .L77
 1044 000e 01EB8000 		add	r0, r1, r0, lsl #2
 1045              	.LVL110:
 1046              		.loc 1 368 21 view .LVU353
 1047 0012 33F81000 		ldrh	r0, [r3, r0, lsl #1]
 369:Drivers/lvgl/src/misc/lv_color.c **** }
 1048              		.loc 1 369 1 view .LVU354
 1049 0016 7047     		bx	lr
 1050              	.LVL111:
 1051              	.L76:
 357:Drivers/lvgl/src/misc/lv_color.c ****         return lv_color_black();
 1052              		.loc 1 357 9 is_stmt 1 view .LVU355
 357:Drivers/lvgl/src/misc/lv_color.c ****         return lv_color_black();
 1053              		.loc 1 357 9 view .LVU356
 357:Drivers/lvgl/src/misc/lv_color.c ****         return lv_color_black();
 1054              		.loc 1 357 9 view .LVU357
 358:Drivers/lvgl/src/misc/lv_color.c ****     }
 1055              		.loc 1 358 9 view .LVU358
 1056 0018 4FF00000 		mov	r0, #0	@ movhi
 1057              	.LVL112:
 358:Drivers/lvgl/src/misc/lv_color.c ****     }
 1058              		.loc 1 358 16 is_stmt 0 view .LVU359
 1059 001c 7047     		bx	lr
 1060              	.L78:
ARM GAS  /var/folders/lp/x54gwt890xv47sdkqj1k04q40000gn/T//ccfNKTR3.s 			page 39


 1061 001e 00BF     		.align	2
 1062              	.L77:
 1063 0020 00000000 		.word	colors.0
 1064              		.cfi_endproc
 1065              	.LFE27:
 1067              		.section	.rodata.colors.0,"a"
 1068              		.align	2
 1071              	colors.0:
 1072 0000 E1       		.byte	225
 1073 0001 C6       		.byte	198
 1074 0002 D1       		.byte	209
 1075 0003 65       		.byte	101
 1076 0004 C1       		.byte	193
 1077 0005 45       		.byte	69
 1078 0006 B0       		.byte	176
 1079 0007 E3       		.byte	227
 1080 0008 D8       		.byte	216
 1081 0009 CC       		.byte	204
 1082 000a C0       		.byte	192
 1083 000b CB       		.byte	203
 1084 000c A8       		.byte	168
 1085 000d AA       		.byte	170
 1086 000e 88       		.byte	136
 1087 000f 69       		.byte	105
 1088 0010 89       		.byte	137
 1089 0011 35       		.byte	53
 1090 0012 78       		.byte	120
 1091 0013 F4       		.byte	244
 1092 0014 68       		.byte	104
 1093 0015 D3       		.byte	211
 1094 0016 48       		.byte	72
 1095 0017 B1       		.byte	177
 1096 0018 59       		.byte	89
 1097 0019 B6       		.byte	182
 1098 001a 51       		.byte	81
 1099 001b 75       		.byte	117
 1100 001c 41       		.byte	65
 1101 001d 34       		.byte	52
 1102 001e 30       		.byte	48
 1103 001f D2       		.byte	210
 1104 0020 3A       		.byte	58
 1105 0021 55       		.byte	85
 1106 0022 31       		.byte	49
 1107 0023 F3       		.byte	243
 1108 0024 29       		.byte	41
 1109 0025 B2       		.byte	178
 1110 0026 19       		.byte	25
 1111 0027 0F       		.byte	15
 1112 0028 1C       		.byte	28
 1113 0029 5C       		.byte	92
 1114 002a 1B       		.byte	27
 1115 002b BA       		.byte	186
 1116 002c 13       		.byte	19
 1117 002d 38       		.byte	56
 1118 002e 0A       		.byte	10
 1119 002f 34       		.byte	52
 1120 0030 04       		.byte	4
ARM GAS  /var/folders/lp/x54gwt890xv47sdkqj1k04q40000gn/T//ccfNKTR3.s 			page 40


 1121 0031 DC       		.byte	220
 1122 0032 04       		.byte	4
 1123 0033 5A       		.byte	90
 1124 0034 03       		.byte	3
 1125 0035 B7       		.byte	183
 1126 0036 02       		.byte	2
 1127 0037 B3       		.byte	179
 1128 0038 05       		.byte	5
 1129 0039 78       		.byte	120
 1130 003a 04       		.byte	4
 1131 003b B4       		.byte	180
 1132 003c 04       		.byte	4
 1133 003d 11       		.byte	17
 1134 003e 03       		.byte	3
 1135 003f 0C       		.byte	12
 1136 0040 04       		.byte	4
 1137 0041 4F       		.byte	79
 1138 0042 03       		.byte	3
 1139 0043 CD       		.byte	205
 1140 0044 03       		.byte	3
 1141 0045 4B       		.byte	75
 1142 0046 02       		.byte	2
 1143 0047 68       		.byte	104
 1144 0048 45       		.byte	69
 1145 0049 08       		.byte	8
 1146 004a 3C       		.byte	60
 1147 004b 67       		.byte	103
 1148 004c 2B       		.byte	43
 1149 004d E6       		.byte	230
 1150 004e 1A       		.byte	26
 1151 004f E4       		.byte	228
 1152 0050 7D       		.byte	125
 1153 0051 88       		.byte	136
 1154 0052 6C       		.byte	108
 1155 0053 E7       		.byte	231
 1156 0054 54       		.byte	84
 1157 0055 45       		.byte	69
 1158 0056 33       		.byte	51
 1159 0057 43       		.byte	67
 1160 0058 C6       		.byte	198
 1161 0059 46       		.byte	70
 1162 005a AD       		.byte	173
 1163 005b A5       		.byte	165
 1164 005c 9C       		.byte	156
 1165 005d E4       		.byte	228
 1166 005e 83       		.byte	131
 1167 005f A2       		.byte	162
 1168 0060 FE       		.byte	254
 1169 0061 C6       		.byte	198
 1170 0062 FE       		.byte	254
 1171 0063 05       		.byte	5
 1172 0064 FD       		.byte	253
 1173 0065 44       		.byte	68
 1174 0066 F3       		.byte	243
 1175 0067 E2       		.byte	226
 1176 0068 FD       		.byte	253
 1177 0069 80       		.byte	128
ARM GAS  /var/folders/lp/x54gwt890xv47sdkqj1k04q40000gn/T//ccfNKTR3.s 			page 41


 1178 006a FD       		.byte	253
 1179 006b 00       		.byte	0
 1180 006c FC       		.byte	252
 1181 006d 60       		.byte	96
 1182 006e FB       		.byte	251
 1183 006f 60       		.byte	96
 1184 0070 FC       		.byte	252
 1185 0071 60       		.byte	96
 1186 0072 F3       		.byte	243
 1187 0073 E0       		.byte	224
 1188 0074 EB       		.byte	235
 1189 0075 60       		.byte	96
 1190 0076 E2       		.byte	226
 1191 0077 80       		.byte	128
 1192 0078 F2       		.byte	242
 1193 0079 83       		.byte	131
 1194 007a E2       		.byte	226
 1195 007b 43       		.byte	67
 1196 007c DA       		.byte	218
 1197 007d 02       		.byte	2
 1198 007e B9       		.byte	185
 1199 007f A1       		.byte	161
 1200 0080 6A       		.byte	106
 1201 0081 68       		.byte	104
 1202 0082 5A       		.byte	90
 1203 0083 06       		.byte	6
 1204 0084 49       		.byte	73
 1205 0085 A5       		.byte	165
 1206 0086 39       		.byte	57
 1207 0087 24       		.byte	36
 1208 0088 53       		.byte	83
 1209 0089 6F       		.byte	111
 1210 008a 42       		.byte	66
 1211 008b CC       		.byte	204
 1212 008c 32       		.byte	50
 1213 008d 29       		.byte	41
 1214 008e 21       		.byte	33
 1215 008f 87       		.byte	135
 1216 0090 73       		.byte	115
 1217 0091 AE       		.byte	174
 1218 0092 63       		.byte	99
 1219 0093 0C       		.byte	12
 1220 0094 42       		.byte	66
 1221 0095 08       		.byte	8
 1222 0096 21       		.byte	33
 1223 0097 04       		.byte	4
 1224              		.section	.rodata.colors.1,"a"
 1225              		.align	2
 1228              	colors.1:
 1229 0000 EA       		.byte	234
 1230 0001 8A       		.byte	138
 1231 0002 E3       		.byte	227
 1232 0003 8E       		.byte	142
 1233 0004 EC       		.byte	236
 1234 0005 D3       		.byte	211
 1235 0006 FE       		.byte	254
 1236 0007 7A       		.byte	122
ARM GAS  /var/folders/lp/x54gwt890xv47sdkqj1k04q40000gn/T//ccfNKTR3.s 			page 42


 1237 0008 FF       		.byte	255
 1238 0009 5D       		.byte	93
 1239 000a EA       		.byte	234
 1240 000b 0F       		.byte	15
 1241 000c F3       		.byte	243
 1242 000d 12       		.byte	18
 1243 000e F4       		.byte	244
 1244 000f 76       		.byte	118
 1245 0010 FD       		.byte	253
 1246 0011 DA       		.byte	218
 1247 0012 FF       		.byte	255
 1248 0013 3D       		.byte	61
 1249 0014 AA       		.byte	170
 1250 0015 37       		.byte	55
 1251 0016 BB       		.byte	187
 1252 0017 59       		.byte	89
 1253 0018 CC       		.byte	204
 1254 0019 9B       		.byte	155
 1255 001a E5       		.byte	229
 1256 001b FC       		.byte	252
 1257 001c F7       		.byte	247
 1258 001d 3E       		.byte	62
 1259 001e 7A       		.byte	122
 1260 001f B8       		.byte	184
 1261 0020 93       		.byte	147
 1262 0021 B9       		.byte	185
 1263 0022 B4       		.byte	180
 1264 0023 FB       		.byte	251
 1265 0024 D6       		.byte	214
 1266 0025 3D       		.byte	61
 1267 0026 EF       		.byte	239
 1268 0027 3E       		.byte	62
 1269 0028 5B       		.byte	91
 1270 0029 58       		.byte	88
 1271 002a 7C       		.byte	124
 1272 002b 39       		.byte	57
 1273 002c 9D       		.byte	157
 1274 002d 5B       		.byte	91
 1275 002e C6       		.byte	198
 1276 002f 5D       		.byte	93
 1277 0030 EF       		.byte	239
 1278 0031 5E       		.byte	94
 1279 0032 45       		.byte	69
 1280 0033 3E       		.byte	62
 1281 0034 65       		.byte	101
 1282 0035 BE       		.byte	190
 1283 0036 96       		.byte	150
 1284 0037 5F       		.byte	95
 1285 0038 BE       		.byte	190
 1286 0039 FF       		.byte	255
 1287 003a E7       		.byte	231
 1288 003b 9F       		.byte	159
 1289 003c 2D       		.byte	45
 1290 003d BE       		.byte	190
 1291 003e 4E       		.byte	78
 1292 003f 1E       		.byte	30
 1293 0040 86       		.byte	134
ARM GAS  /var/folders/lp/x54gwt890xv47sdkqj1k04q40000gn/T//ccfNKTR3.s 			page 43


 1294 0041 BF       		.byte	191
 1295 0042 B7       		.byte	183
 1296 0043 3F       		.byte	63
 1297 0044 E7       		.byte	231
 1298 0045 BF       		.byte	191
 1299 0046 26       		.byte	38
 1300 0047 3B       		.byte	59
 1301 0048 4E       		.byte	78
 1302 0049 9C       		.byte	156
 1303 004a 86       		.byte	134
 1304 004b FD       		.byte	253
 1305 004c B7       		.byte	183
 1306 004d 5E       		.byte	94
 1307 004e E7       		.byte	231
 1308 004f BF       		.byte	191
 1309 0050 25       		.byte	37
 1310 0051 33       		.byte	51
 1311 0052 4D       		.byte	77
 1312 0053 B5       		.byte	181
 1313 0054 86       		.byte	134
 1314 0055 58       		.byte	88
 1315 0056 B6       		.byte	182
 1316 0057 FB       		.byte	251
 1317 0058 E7       		.byte	231
 1318 0059 9E       		.byte	158
 1319 005a 65       		.byte	101
 1320 005b CD       		.byte	205
 1321 005c 86       		.byte	134
 1322 005d 30       		.byte	48
 1323 005e A6       		.byte	166
 1324 005f B4       		.byte	180
 1325 0060 CF       		.byte	207
 1326 0061 39       		.byte	57
 1327 0062 EF       		.byte	239
 1328 0063 BD       		.byte	189
 1329 0064 9E       		.byte	158
 1330 0065 6C       		.byte	108
 1331 0066 AE       		.byte	174
 1332 0067 B0       		.byte	176
 1333 0068 C7       		.byte	199
 1334 0069 14       		.byte	20
 1335 006a DF       		.byte	223
 1336 006b 79       		.byte	121
 1337 006c F7       		.byte	247
 1338 006d DD       		.byte	221
 1339 006e D7       		.byte	215
 1340 006f 0A       		.byte	10
 1341 0070 DF       		.byte	223
 1342 0071 2E       		.byte	46
 1343 0072 E7       		.byte	231
 1344 0073 73       		.byte	115
 1345 0074 F7       		.byte	247
 1346 0075 B8       		.byte	184
 1347 0076 FF       		.byte	255
 1348 0077 DC       		.byte	220
 1349 0078 FF       		.byte	255
 1350 0079 6B       		.byte	107
ARM GAS  /var/folders/lp/x54gwt890xv47sdkqj1k04q40000gn/T//ccfNKTR3.s 			page 44


 1351 007a FF       		.byte	255
 1352 007b 8E       		.byte	142
 1353 007c FF       		.byte	255
 1354 007d B3       		.byte	179
 1355 007e FF       		.byte	255
 1356 007f D8       		.byte	216
 1357 0080 FF       		.byte	255
 1358 0081 FC       		.byte	252
 1359 0082 FE       		.byte	254
 1360 0083 45       		.byte	69
 1361 0084 FE       		.byte	254
 1362 0085 A9       		.byte	169
 1363 0086 FF       		.byte	255
 1364 0087 10       		.byte	16
 1365 0088 FF       		.byte	255
 1366 0089 76       		.byte	118
 1367 008a FF       		.byte	255
 1368 008b DC       		.byte	220
 1369 008c FD       		.byte	253
 1370 008d 24       		.byte	36
 1371 008e FD       		.byte	253
 1372 008f A9       		.byte	169
 1373 0090 FE       		.byte	254
 1374 0091 70       		.byte	112
 1375 0092 FF       		.byte	255
 1376 0093 16       		.byte	22
 1377 0094 FF       		.byte	255
 1378 0095 9C       		.byte	156
 1379 0096 FB       		.byte	251
 1380 0097 88       		.byte	136
 1381 0098 FC       		.byte	252
 1382 0099 4C       		.byte	76
 1383 009a FD       		.byte	253
 1384 009b 52       		.byte	82
 1385 009c FE       		.byte	254
 1386 009d 77       		.byte	119
 1387 009e FF       		.byte	255
 1388 009f 5C       		.byte	92
 1389 00a0 8B       		.byte	139
 1390 00a1 6C       		.byte	108
 1391 00a2 A4       		.byte	164
 1392 00a3 4F       		.byte	79
 1393 00a4 BD       		.byte	189
 1394 00a5 54       		.byte	84
 1395 00a6 D6       		.byte	214
 1396 00a7 79       		.byte	121
 1397 00a8 EF       		.byte	239
 1398 00a9 5D       		.byte	93
 1399 00aa 7C       		.byte	124
 1400 00ab 93       		.byte	147
 1401 00ac 95       		.byte	149
 1402 00ad 35       		.byte	53
 1403 00ae B5       		.byte	181
 1404 00af F8       		.byte	248
 1405 00b0 CE       		.byte	206
 1406 00b1 DB       		.byte	219
 1407 00b2 EF       		.byte	239
ARM GAS  /var/folders/lp/x54gwt890xv47sdkqj1k04q40000gn/T//ccfNKTR3.s 			page 45


 1408 00b3 7E       		.byte	126
 1409 00b4 BD       		.byte	189
 1410 00b5 F7       		.byte	247
 1411 00b6 E7       		.byte	231
 1412 00b7 1C       		.byte	28
 1413 00b8 EF       		.byte	239
 1414 00b9 7D       		.byte	125
 1415 00ba F7       		.byte	247
 1416 00bb BE       		.byte	190
 1417 00bc FF       		.byte	255
 1418 00bd DF       		.byte	223
 1419              		.section	.rodata.colors.2,"a"
 1420              		.align	2
 1423              	colors.2:
 1424 0000 F2       		.byte	242
 1425 0001 06       		.byte	6
 1426 0002 E8       		.byte	232
 1427 0003 EC       		.byte	236
 1428 0004 99       		.byte	153
 1429 0005 36       		.byte	54
 1430 0006 61       		.byte	97
 1431 0007 D6       		.byte	214
 1432 0008 3A       		.byte	58
 1433 0009 96       		.byte	150
 1434 000a 24       		.byte	36
 1435 000b BE       		.byte	190
 1436 000c 05       		.byte	5
 1437 000d 5E       		.byte	94
 1438 000e 05       		.byte	5
 1439 000f FA       		.byte	250
 1440 0010 04       		.byte	4
 1441 0011 B1       		.byte	177
 1442 0012 4D       		.byte	77
 1443 0013 6A       		.byte	106
 1444 0014 8E       		.byte	142
 1445 0015 09       		.byte	9
 1446 0016 CE       		.byte	206
 1447 0017 E7       		.byte	231
 1448 0018 FF       		.byte	255
 1449 0019 47       		.byte	71
 1450 001a FE       		.byte	254
 1451 001b 00       		.byte	0
 1452 001c FC       		.byte	252
 1453 001d C0       		.byte	192
 1454 001e FA       		.byte	250
 1455 001f A4       		.byte	164
 1456 0020 7A       		.byte	122
 1457 0021 A9       		.byte	169
 1458 0022 63       		.byte	99
 1459 0023 F1       		.byte	241
 1460 0024 9C       		.byte	156
 1461 0025 F3       		.byte	243
 1462              		.text
 1463              	.Letext0:
 1464              		.file 3 "/Users/jr/Library/Application Support/Code/User/globalStorage/bmd.stm32-for-vscode/@xpack
 1465              		.file 4 "/Users/jr/Library/Application Support/Code/User/globalStorage/bmd.stm32-for-vscode/@xpack
ARM GAS  /var/folders/lp/x54gwt890xv47sdkqj1k04q40000gn/T//ccfNKTR3.s 			page 46

