ARM GAS  /var/folders/0z/tsy30v1j4xl4_7kw94k978ww0000gn/T//ccG6UdQ4.s 			page 1


   1              		.cpu cortex-m4
   2              		.arch armv7e-m
   3              		.fpu fpv4-sp-d16
   4              		.eabi_attribute 27, 1
   5              		.eabi_attribute 28, 1
   6              		.eabi_attribute 20, 1
   7              		.eabi_attribute 21, 1
   8              		.eabi_attribute 23, 3
   9              		.eabi_attribute 24, 1
  10              		.eabi_attribute 25, 1
  11              		.eabi_attribute 26, 1
  12              		.eabi_attribute 30, 2
  13              		.eabi_attribute 34, 1
  14              		.eabi_attribute 18, 4
  15              		.file	"lv_draw_triangle.c"
  16              		.text
  17              	.Ltext0:
  18              		.cfi_sections	.debug_frame
  19              		.section	.text.lv_draw_polygon,"ax",%progbits
  20              		.align	1
  21              		.p2align 2,,3
  22              		.global	lv_draw_polygon
  23              		.syntax unified
  24              		.thumb
  25              		.thumb_func
  27              	lv_draw_polygon:
  28              	.LVL0:
  29              	.LFB55:
  30              		.file 1 "Drivers/lvgl/src/draw/lv_draw_triangle.c"
   1:Drivers/lvgl/src/draw/lv_draw_triangle.c **** /**
   2:Drivers/lvgl/src/draw/lv_draw_triangle.c ****  * @file lv_draw_triangle.c
   3:Drivers/lvgl/src/draw/lv_draw_triangle.c ****  *
   4:Drivers/lvgl/src/draw/lv_draw_triangle.c ****  */
   5:Drivers/lvgl/src/draw/lv_draw_triangle.c **** 
   6:Drivers/lvgl/src/draw/lv_draw_triangle.c **** /*********************
   7:Drivers/lvgl/src/draw/lv_draw_triangle.c ****  *      INCLUDES
   8:Drivers/lvgl/src/draw/lv_draw_triangle.c ****  *********************/
   9:Drivers/lvgl/src/draw/lv_draw_triangle.c **** #include "lv_draw.h"
  10:Drivers/lvgl/src/draw/lv_draw_triangle.c **** #include "lv_draw_triangle.h"
  11:Drivers/lvgl/src/draw/lv_draw_triangle.c **** #include "../misc/lv_math.h"
  12:Drivers/lvgl/src/draw/lv_draw_triangle.c **** #include "../misc/lv_mem.h"
  13:Drivers/lvgl/src/draw/lv_draw_triangle.c **** 
  14:Drivers/lvgl/src/draw/lv_draw_triangle.c **** /*********************
  15:Drivers/lvgl/src/draw/lv_draw_triangle.c ****  *      DEFINES
  16:Drivers/lvgl/src/draw/lv_draw_triangle.c ****  *********************/
  17:Drivers/lvgl/src/draw/lv_draw_triangle.c **** 
  18:Drivers/lvgl/src/draw/lv_draw_triangle.c **** /**********************
  19:Drivers/lvgl/src/draw/lv_draw_triangle.c ****  *      TYPEDEFS
  20:Drivers/lvgl/src/draw/lv_draw_triangle.c ****  **********************/
  21:Drivers/lvgl/src/draw/lv_draw_triangle.c **** 
  22:Drivers/lvgl/src/draw/lv_draw_triangle.c **** /**********************
  23:Drivers/lvgl/src/draw/lv_draw_triangle.c ****  *  STATIC PROTOTYPES
  24:Drivers/lvgl/src/draw/lv_draw_triangle.c ****  **********************/
  25:Drivers/lvgl/src/draw/lv_draw_triangle.c **** 
  26:Drivers/lvgl/src/draw/lv_draw_triangle.c **** /**********************
  27:Drivers/lvgl/src/draw/lv_draw_triangle.c ****  *  STATIC VARIABLES
  28:Drivers/lvgl/src/draw/lv_draw_triangle.c ****  **********************/
ARM GAS  /var/folders/0z/tsy30v1j4xl4_7kw94k978ww0000gn/T//ccG6UdQ4.s 			page 2


  29:Drivers/lvgl/src/draw/lv_draw_triangle.c **** 
  30:Drivers/lvgl/src/draw/lv_draw_triangle.c **** /**********************
  31:Drivers/lvgl/src/draw/lv_draw_triangle.c ****  *      MACROS
  32:Drivers/lvgl/src/draw/lv_draw_triangle.c ****  **********************/
  33:Drivers/lvgl/src/draw/lv_draw_triangle.c **** 
  34:Drivers/lvgl/src/draw/lv_draw_triangle.c **** /**********************
  35:Drivers/lvgl/src/draw/lv_draw_triangle.c ****  *   GLOBAL FUNCTIONS
  36:Drivers/lvgl/src/draw/lv_draw_triangle.c ****  **********************/
  37:Drivers/lvgl/src/draw/lv_draw_triangle.c **** 
  38:Drivers/lvgl/src/draw/lv_draw_triangle.c **** void lv_draw_polygon(struct _lv_draw_ctx_t * draw_ctx, const lv_draw_rect_dsc_t * draw_dsc, const l
  39:Drivers/lvgl/src/draw/lv_draw_triangle.c ****                      uint16_t point_cnt)
  40:Drivers/lvgl/src/draw/lv_draw_triangle.c **** {
  31              		.loc 1 40 1 view -0
  32              		.cfi_startproc
  33              		@ args = 0, pretend = 0, frame = 0
  34              		@ frame_needed = 0, uses_anonymous_args = 0
  35              		@ link register save eliminated.
  41:Drivers/lvgl/src/draw/lv_draw_triangle.c ****     draw_ctx->draw_polygon(draw_ctx, draw_dsc, points, point_cnt);
  36              		.loc 1 41 5 view .LVU1
  40:Drivers/lvgl/src/draw/lv_draw_triangle.c ****     draw_ctx->draw_polygon(draw_ctx, draw_dsc, points, point_cnt);
  37              		.loc 1 40 1 is_stmt 0 view .LVU2
  38 0000 10B4     		push	{r4}
  39              		.cfi_def_cfa_offset 4
  40              		.cfi_offset 4, -4
  41              		.loc 1 41 5 view .LVU3
  42 0002 846A     		ldr	r4, [r0, #40]
  43 0004 A446     		mov	ip, r4
  42:Drivers/lvgl/src/draw/lv_draw_triangle.c **** }
  44              		.loc 1 42 1 view .LVU4
  45 0006 5DF8044B 		ldr	r4, [sp], #4
  46              		.cfi_restore 4
  47              		.cfi_def_cfa_offset 0
  41:Drivers/lvgl/src/draw/lv_draw_triangle.c ****     draw_ctx->draw_polygon(draw_ctx, draw_dsc, points, point_cnt);
  48              		.loc 1 41 5 view .LVU5
  49 000a 6047     		bx	ip	@ indirect register sibling call
  50              	.LVL1:
  41:Drivers/lvgl/src/draw/lv_draw_triangle.c ****     draw_ctx->draw_polygon(draw_ctx, draw_dsc, points, point_cnt);
  51              		.loc 1 41 5 view .LVU6
  52              		.cfi_endproc
  53              	.LFE55:
  55              		.section	.text.lv_draw_triangle,"ax",%progbits
  56              		.align	1
  57              		.p2align 2,,3
  58              		.global	lv_draw_triangle
  59              		.syntax unified
  60              		.thumb
  61              		.thumb_func
  63              	lv_draw_triangle:
  64              	.LVL2:
  65              	.LFB56:
  43:Drivers/lvgl/src/draw/lv_draw_triangle.c **** 
  44:Drivers/lvgl/src/draw/lv_draw_triangle.c **** void lv_draw_triangle(struct _lv_draw_ctx_t * draw_ctx, const lv_draw_rect_dsc_t * draw_dsc, const 
  45:Drivers/lvgl/src/draw/lv_draw_triangle.c **** {
  66              		.loc 1 45 1 is_stmt 1 view -0
  67              		.cfi_startproc
  68              		@ args = 0, pretend = 0, frame = 0
  69              		@ frame_needed = 0, uses_anonymous_args = 0
ARM GAS  /var/folders/0z/tsy30v1j4xl4_7kw94k978ww0000gn/T//ccG6UdQ4.s 			page 3


  70              		@ link register save eliminated.
  46:Drivers/lvgl/src/draw/lv_draw_triangle.c **** 
  47:Drivers/lvgl/src/draw/lv_draw_triangle.c ****     draw_ctx->draw_polygon(draw_ctx, draw_dsc, points, 3);
  71              		.loc 1 47 5 view .LVU8
  45:Drivers/lvgl/src/draw/lv_draw_triangle.c **** 
  72              		.loc 1 45 1 is_stmt 0 view .LVU9
  73 0000 10B4     		push	{r4}
  74              		.cfi_def_cfa_offset 4
  75              		.cfi_offset 4, -4
  76              		.loc 1 47 5 view .LVU10
  77 0002 846A     		ldr	r4, [r0, #40]
  78 0004 0323     		movs	r3, #3
  79 0006 A446     		mov	ip, r4
  48:Drivers/lvgl/src/draw/lv_draw_triangle.c **** }
  80              		.loc 1 48 1 view .LVU11
  81 0008 5DF8044B 		ldr	r4, [sp], #4
  82              		.cfi_restore 4
  83              		.cfi_def_cfa_offset 0
  47:Drivers/lvgl/src/draw/lv_draw_triangle.c **** }
  84              		.loc 1 47 5 view .LVU12
  85 000c 6047     		bx	ip	@ indirect register sibling call
  86              	.LVL3:
  47:Drivers/lvgl/src/draw/lv_draw_triangle.c **** }
  87              		.loc 1 47 5 view .LVU13
  88              		.cfi_endproc
  89              	.LFE56:
  91 000e 00BF     		.text
  92              	.Letext0:
  93              		.file 2 "/Users/johannes/Library/Application Support/Code/User/globalStorage/bmd.stm32-for-vscode/
  94              		.file 3 "/Users/johannes/Library/Application Support/Code/User/globalStorage/bmd.stm32-for-vscode/
  95              		.file 4 "/Users/johannes/Library/Application Support/Code/User/globalStorage/bmd.stm32-for-vscode/
  96              		.file 5 "Drivers/lvgl/src/draw/../misc/../font/../misc/lv_area.h"
  97              		.file 6 "Drivers/lvgl/src/draw/../misc/../font/lv_font.h"
  98              		.file 7 "Drivers/lvgl/src/draw/../misc/lv_types.h"
  99              		.file 8 "Drivers/lvgl/src/draw/../misc/lv_color.h"
 100              		.file 9 "Drivers/lvgl/src/draw/../misc/lv_txt.h"
 101              		.file 10 "Drivers/lvgl/src/draw/../misc/lv_bidi.h"
 102              		.file 11 "Drivers/lvgl/src/draw/../misc/lv_style.h"
 103              		.file 12 "Drivers/lvgl/src/draw/lv_img_buf.h"
 104              		.file 13 "Drivers/lvgl/src/draw/lv_draw_rect.h"
 105              		.file 14 "Drivers/lvgl/src/draw/lv_draw_label.h"
 106              		.file 15 "Drivers/lvgl/src/draw/lv_draw_img.h"
 107              		.file 16 "Drivers/lvgl/src/draw/lv_draw_line.h"
 108              		.file 17 "Drivers/lvgl/src/draw/lv_draw_arc.h"
 109              		.file 18 "Drivers/lvgl/src/draw/lv_draw_layer.h"
 110              		.file 19 "Drivers/lvgl/src/draw/lv_draw.h"
ARM GAS  /var/folders/0z/tsy30v1j4xl4_7kw94k978ww0000gn/T//ccG6UdQ4.s 			page 4

