ARM GAS  /var/folders/lp/x54gwt890xv47sdkqj1k04q40000gn/T//ccGMRBug.s 			page 1


   1              		.cpu cortex-m4
   2              		.arch armv7e-m
   3              		.fpu fpv4-sp-d16
   4              		.eabi_attribute 27, 1
   5              		.eabi_attribute 28, 1
   6              		.eabi_attribute 20, 1
   7              		.eabi_attribute 21, 1
   8              		.eabi_attribute 23, 3
   9              		.eabi_attribute 24, 1
  10              		.eabi_attribute 25, 1
  11              		.eabi_attribute 26, 1
  12              		.eabi_attribute 30, 2
  13              		.eabi_attribute 34, 1
  14              		.eabi_attribute 18, 4
  15              		.file	"lv_draw_sw_gradient.c"
  16              		.text
  17              	.Ltext0:
  18              		.cfi_sections	.debug_frame
  19              		.file 1 "Drivers/lvgl/src/draw/sw/lv_draw_sw_gradient.c"
  20              		.section	.text.lv_gradient_free_cache,"ax",%progbits
  21              		.align	1
  22              		.p2align 2,,3
  23              		.global	lv_gradient_free_cache
  24              		.syntax unified
  25              		.thumb
  26              		.thumb_func
  28              	lv_gradient_free_cache:
  29              	.LFB65:
   1:Drivers/lvgl/src/draw/sw/lv_draw_sw_gradient.c **** /**
   2:Drivers/lvgl/src/draw/sw/lv_draw_sw_gradient.c ****  * @file lv_draw_sw_gradient.c
   3:Drivers/lvgl/src/draw/sw/lv_draw_sw_gradient.c ****  *
   4:Drivers/lvgl/src/draw/sw/lv_draw_sw_gradient.c ****  */
   5:Drivers/lvgl/src/draw/sw/lv_draw_sw_gradient.c **** 
   6:Drivers/lvgl/src/draw/sw/lv_draw_sw_gradient.c **** /*********************
   7:Drivers/lvgl/src/draw/sw/lv_draw_sw_gradient.c ****  *      INCLUDES
   8:Drivers/lvgl/src/draw/sw/lv_draw_sw_gradient.c ****  *********************/
   9:Drivers/lvgl/src/draw/sw/lv_draw_sw_gradient.c **** #include "lv_draw_sw_gradient.h"
  10:Drivers/lvgl/src/draw/sw/lv_draw_sw_gradient.c **** #include "../../misc/lv_gc.h"
  11:Drivers/lvgl/src/draw/sw/lv_draw_sw_gradient.c **** #include "../../misc/lv_types.h"
  12:Drivers/lvgl/src/draw/sw/lv_draw_sw_gradient.c **** 
  13:Drivers/lvgl/src/draw/sw/lv_draw_sw_gradient.c **** /*********************
  14:Drivers/lvgl/src/draw/sw/lv_draw_sw_gradient.c ****  *      DEFINES
  15:Drivers/lvgl/src/draw/sw/lv_draw_sw_gradient.c ****  *********************/
  16:Drivers/lvgl/src/draw/sw/lv_draw_sw_gradient.c **** #if _DITHER_GRADIENT
  17:Drivers/lvgl/src/draw/sw/lv_draw_sw_gradient.c ****     #define GRAD_CM(r,g,b) LV_COLOR_MAKE32(r,g,b)
  18:Drivers/lvgl/src/draw/sw/lv_draw_sw_gradient.c ****     #define GRAD_CONV(t, x) t.full = lv_color_to32(x)
  19:Drivers/lvgl/src/draw/sw/lv_draw_sw_gradient.c **** #else
  20:Drivers/lvgl/src/draw/sw/lv_draw_sw_gradient.c ****     #define GRAD_CM(r,g,b) LV_COLOR_MAKE(r,g,b)
  21:Drivers/lvgl/src/draw/sw/lv_draw_sw_gradient.c ****     #define GRAD_CONV(t, x) t = x
  22:Drivers/lvgl/src/draw/sw/lv_draw_sw_gradient.c **** #endif
  23:Drivers/lvgl/src/draw/sw/lv_draw_sw_gradient.c **** 
  24:Drivers/lvgl/src/draw/sw/lv_draw_sw_gradient.c **** #undef ALIGN
  25:Drivers/lvgl/src/draw/sw/lv_draw_sw_gradient.c **** #if defined(LV_ARCH_64)
  26:Drivers/lvgl/src/draw/sw/lv_draw_sw_gradient.c ****     #define ALIGN(X)    (((X) + 7) & ~7)
  27:Drivers/lvgl/src/draw/sw/lv_draw_sw_gradient.c **** #else
  28:Drivers/lvgl/src/draw/sw/lv_draw_sw_gradient.c ****     #define ALIGN(X)    (((X) + 3) & ~3)
  29:Drivers/lvgl/src/draw/sw/lv_draw_sw_gradient.c **** #endif
ARM GAS  /var/folders/lp/x54gwt890xv47sdkqj1k04q40000gn/T//ccGMRBug.s 			page 2


  30:Drivers/lvgl/src/draw/sw/lv_draw_sw_gradient.c **** 
  31:Drivers/lvgl/src/draw/sw/lv_draw_sw_gradient.c **** #if LV_GRAD_CACHE_DEF_SIZE != 0 && LV_GRAD_CACHE_DEF_SIZE < 256
  32:Drivers/lvgl/src/draw/sw/lv_draw_sw_gradient.c ****     #error "LV_GRAD_CACHE_DEF_SIZE is too small"
  33:Drivers/lvgl/src/draw/sw/lv_draw_sw_gradient.c **** #endif
  34:Drivers/lvgl/src/draw/sw/lv_draw_sw_gradient.c **** 
  35:Drivers/lvgl/src/draw/sw/lv_draw_sw_gradient.c **** /**********************
  36:Drivers/lvgl/src/draw/sw/lv_draw_sw_gradient.c ****  *  STATIC PROTOTYPES
  37:Drivers/lvgl/src/draw/sw/lv_draw_sw_gradient.c ****  **********************/
  38:Drivers/lvgl/src/draw/sw/lv_draw_sw_gradient.c **** static lv_grad_t * next_in_cache(lv_grad_t * item);
  39:Drivers/lvgl/src/draw/sw/lv_draw_sw_gradient.c **** 
  40:Drivers/lvgl/src/draw/sw/lv_draw_sw_gradient.c **** typedef lv_res_t (*op_cache_t)(lv_grad_t * c, void * ctx);
  41:Drivers/lvgl/src/draw/sw/lv_draw_sw_gradient.c **** static lv_res_t iterate_cache(op_cache_t func, void * ctx, lv_grad_t ** out);
  42:Drivers/lvgl/src/draw/sw/lv_draw_sw_gradient.c **** static size_t get_cache_item_size(lv_grad_t * c);
  43:Drivers/lvgl/src/draw/sw/lv_draw_sw_gradient.c **** static lv_grad_t * allocate_item(const lv_grad_dsc_t * g, lv_coord_t w, lv_coord_t h);
  44:Drivers/lvgl/src/draw/sw/lv_draw_sw_gradient.c **** static lv_res_t find_oldest_item_life(lv_grad_t * c, void * ctx);
  45:Drivers/lvgl/src/draw/sw/lv_draw_sw_gradient.c **** static lv_res_t kill_oldest_item(lv_grad_t * c, void * ctx);
  46:Drivers/lvgl/src/draw/sw/lv_draw_sw_gradient.c **** static lv_res_t find_item(lv_grad_t * c, void * ctx);
  47:Drivers/lvgl/src/draw/sw/lv_draw_sw_gradient.c **** static void free_item(lv_grad_t * c);
  48:Drivers/lvgl/src/draw/sw/lv_draw_sw_gradient.c **** static  uint32_t compute_key(const lv_grad_dsc_t * g, lv_coord_t w, lv_coord_t h);
  49:Drivers/lvgl/src/draw/sw/lv_draw_sw_gradient.c **** 
  50:Drivers/lvgl/src/draw/sw/lv_draw_sw_gradient.c **** 
  51:Drivers/lvgl/src/draw/sw/lv_draw_sw_gradient.c **** /**********************
  52:Drivers/lvgl/src/draw/sw/lv_draw_sw_gradient.c ****  *   STATIC VARIABLE
  53:Drivers/lvgl/src/draw/sw/lv_draw_sw_gradient.c ****  **********************/
  54:Drivers/lvgl/src/draw/sw/lv_draw_sw_gradient.c **** static size_t    grad_cache_size = 0;
  55:Drivers/lvgl/src/draw/sw/lv_draw_sw_gradient.c **** static uint8_t * grad_cache_end = 0;
  56:Drivers/lvgl/src/draw/sw/lv_draw_sw_gradient.c **** 
  57:Drivers/lvgl/src/draw/sw/lv_draw_sw_gradient.c **** /**********************
  58:Drivers/lvgl/src/draw/sw/lv_draw_sw_gradient.c ****  *   STATIC FUNCTIONS
  59:Drivers/lvgl/src/draw/sw/lv_draw_sw_gradient.c ****  **********************/
  60:Drivers/lvgl/src/draw/sw/lv_draw_sw_gradient.c **** union void_cast {
  61:Drivers/lvgl/src/draw/sw/lv_draw_sw_gradient.c ****     const void * ptr;
  62:Drivers/lvgl/src/draw/sw/lv_draw_sw_gradient.c ****     const uint32_t value;
  63:Drivers/lvgl/src/draw/sw/lv_draw_sw_gradient.c **** };
  64:Drivers/lvgl/src/draw/sw/lv_draw_sw_gradient.c **** 
  65:Drivers/lvgl/src/draw/sw/lv_draw_sw_gradient.c **** static uint32_t compute_key(const lv_grad_dsc_t * g, lv_coord_t size, lv_coord_t w)
  66:Drivers/lvgl/src/draw/sw/lv_draw_sw_gradient.c **** {
  67:Drivers/lvgl/src/draw/sw/lv_draw_sw_gradient.c ****     union void_cast v;
  68:Drivers/lvgl/src/draw/sw/lv_draw_sw_gradient.c ****     v.ptr = g;
  69:Drivers/lvgl/src/draw/sw/lv_draw_sw_gradient.c ****     return (v.value ^ size ^ (w >> 1)); /*Yes, this is correct, it's like a hash that changes if th
  70:Drivers/lvgl/src/draw/sw/lv_draw_sw_gradient.c **** }
  71:Drivers/lvgl/src/draw/sw/lv_draw_sw_gradient.c **** 
  72:Drivers/lvgl/src/draw/sw/lv_draw_sw_gradient.c **** static size_t get_cache_item_size(lv_grad_t * c)
  73:Drivers/lvgl/src/draw/sw/lv_draw_sw_gradient.c **** {
  74:Drivers/lvgl/src/draw/sw/lv_draw_sw_gradient.c ****     size_t s = ALIGN(sizeof(*c)) + ALIGN(c->alloc_size * sizeof(lv_color_t));
  75:Drivers/lvgl/src/draw/sw/lv_draw_sw_gradient.c **** #if _DITHER_GRADIENT
  76:Drivers/lvgl/src/draw/sw/lv_draw_sw_gradient.c ****     s += ALIGN(c->size * sizeof(lv_color32_t));
  77:Drivers/lvgl/src/draw/sw/lv_draw_sw_gradient.c **** #if LV_DITHER_ERROR_DIFFUSION == 1
  78:Drivers/lvgl/src/draw/sw/lv_draw_sw_gradient.c ****     s += ALIGN(c->w * sizeof(lv_scolor24_t));
  79:Drivers/lvgl/src/draw/sw/lv_draw_sw_gradient.c **** #endif
  80:Drivers/lvgl/src/draw/sw/lv_draw_sw_gradient.c **** #endif
  81:Drivers/lvgl/src/draw/sw/lv_draw_sw_gradient.c ****     return s;
  82:Drivers/lvgl/src/draw/sw/lv_draw_sw_gradient.c **** }
  83:Drivers/lvgl/src/draw/sw/lv_draw_sw_gradient.c **** 
  84:Drivers/lvgl/src/draw/sw/lv_draw_sw_gradient.c **** static lv_grad_t * next_in_cache(lv_grad_t * item)
  85:Drivers/lvgl/src/draw/sw/lv_draw_sw_gradient.c **** {
  86:Drivers/lvgl/src/draw/sw/lv_draw_sw_gradient.c ****     if(grad_cache_size == 0) return NULL;
ARM GAS  /var/folders/lp/x54gwt890xv47sdkqj1k04q40000gn/T//ccGMRBug.s 			page 3


  87:Drivers/lvgl/src/draw/sw/lv_draw_sw_gradient.c **** 
  88:Drivers/lvgl/src/draw/sw/lv_draw_sw_gradient.c ****     if(item == NULL)
  89:Drivers/lvgl/src/draw/sw/lv_draw_sw_gradient.c ****         return (lv_grad_t *)LV_GC_ROOT(_lv_grad_cache_mem);
  90:Drivers/lvgl/src/draw/sw/lv_draw_sw_gradient.c **** 
  91:Drivers/lvgl/src/draw/sw/lv_draw_sw_gradient.c ****     size_t s = get_cache_item_size(item);
  92:Drivers/lvgl/src/draw/sw/lv_draw_sw_gradient.c ****     /*Compute the size for this cache item*/
  93:Drivers/lvgl/src/draw/sw/lv_draw_sw_gradient.c ****     if((uint8_t *)item + s >= grad_cache_end) return NULL;
  94:Drivers/lvgl/src/draw/sw/lv_draw_sw_gradient.c ****     else return (lv_grad_t *)((uint8_t *)item + s);
  95:Drivers/lvgl/src/draw/sw/lv_draw_sw_gradient.c **** }
  96:Drivers/lvgl/src/draw/sw/lv_draw_sw_gradient.c **** 
  97:Drivers/lvgl/src/draw/sw/lv_draw_sw_gradient.c **** static lv_res_t iterate_cache(op_cache_t func, void * ctx, lv_grad_t ** out)
  98:Drivers/lvgl/src/draw/sw/lv_draw_sw_gradient.c **** {
  99:Drivers/lvgl/src/draw/sw/lv_draw_sw_gradient.c ****     lv_grad_t * first = next_in_cache(NULL);
 100:Drivers/lvgl/src/draw/sw/lv_draw_sw_gradient.c ****     while(first != NULL && first->life) {
 101:Drivers/lvgl/src/draw/sw/lv_draw_sw_gradient.c ****         if((*func)(first, ctx) == LV_RES_OK) {
 102:Drivers/lvgl/src/draw/sw/lv_draw_sw_gradient.c ****             if(out != NULL) *out = first;
 103:Drivers/lvgl/src/draw/sw/lv_draw_sw_gradient.c ****             return LV_RES_OK;
 104:Drivers/lvgl/src/draw/sw/lv_draw_sw_gradient.c ****         }
 105:Drivers/lvgl/src/draw/sw/lv_draw_sw_gradient.c ****         first = next_in_cache(first);
 106:Drivers/lvgl/src/draw/sw/lv_draw_sw_gradient.c ****     }
 107:Drivers/lvgl/src/draw/sw/lv_draw_sw_gradient.c ****     return LV_RES_INV;
 108:Drivers/lvgl/src/draw/sw/lv_draw_sw_gradient.c **** }
 109:Drivers/lvgl/src/draw/sw/lv_draw_sw_gradient.c **** 
 110:Drivers/lvgl/src/draw/sw/lv_draw_sw_gradient.c **** static lv_res_t find_oldest_item_life(lv_grad_t * c, void * ctx)
 111:Drivers/lvgl/src/draw/sw/lv_draw_sw_gradient.c **** {
 112:Drivers/lvgl/src/draw/sw/lv_draw_sw_gradient.c ****     uint32_t * min_life = (uint32_t *)ctx;
 113:Drivers/lvgl/src/draw/sw/lv_draw_sw_gradient.c ****     if(c->life < *min_life) *min_life = c->life;
 114:Drivers/lvgl/src/draw/sw/lv_draw_sw_gradient.c ****     return LV_RES_INV;
 115:Drivers/lvgl/src/draw/sw/lv_draw_sw_gradient.c **** }
 116:Drivers/lvgl/src/draw/sw/lv_draw_sw_gradient.c **** 
 117:Drivers/lvgl/src/draw/sw/lv_draw_sw_gradient.c **** static void free_item(lv_grad_t * c)
 118:Drivers/lvgl/src/draw/sw/lv_draw_sw_gradient.c **** {
 119:Drivers/lvgl/src/draw/sw/lv_draw_sw_gradient.c ****     size_t size = get_cache_item_size(c);
 120:Drivers/lvgl/src/draw/sw/lv_draw_sw_gradient.c ****     size_t next_items_size = (size_t)(grad_cache_end - (uint8_t *)c) - size;
 121:Drivers/lvgl/src/draw/sw/lv_draw_sw_gradient.c ****     grad_cache_end -= size;
 122:Drivers/lvgl/src/draw/sw/lv_draw_sw_gradient.c ****     if(next_items_size) {
 123:Drivers/lvgl/src/draw/sw/lv_draw_sw_gradient.c ****         uint8_t * old = (uint8_t *)c;
 124:Drivers/lvgl/src/draw/sw/lv_draw_sw_gradient.c ****         lv_memcpy(c, ((uint8_t *)c) + size, next_items_size);
 125:Drivers/lvgl/src/draw/sw/lv_draw_sw_gradient.c ****         /* Then need to fix all internal pointers too */
 126:Drivers/lvgl/src/draw/sw/lv_draw_sw_gradient.c ****         while((uint8_t *)c != grad_cache_end) {
 127:Drivers/lvgl/src/draw/sw/lv_draw_sw_gradient.c ****             c->map = (lv_color_t *)(((uint8_t *)c->map) - size);
 128:Drivers/lvgl/src/draw/sw/lv_draw_sw_gradient.c **** #if _DITHER_GRADIENT
 129:Drivers/lvgl/src/draw/sw/lv_draw_sw_gradient.c ****             c->hmap = (lv_color32_t *)(((uint8_t *)c->hmap) - size);
 130:Drivers/lvgl/src/draw/sw/lv_draw_sw_gradient.c **** #if LV_DITHER_ERROR_DIFFUSION == 1
 131:Drivers/lvgl/src/draw/sw/lv_draw_sw_gradient.c ****             c->error_acc = (lv_scolor24_t *)(((uint8_t *)c->error_acc) - size);
 132:Drivers/lvgl/src/draw/sw/lv_draw_sw_gradient.c **** #endif
 133:Drivers/lvgl/src/draw/sw/lv_draw_sw_gradient.c **** #endif
 134:Drivers/lvgl/src/draw/sw/lv_draw_sw_gradient.c ****             c = (lv_grad_t *)(((uint8_t *)c) + get_cache_item_size(c));
 135:Drivers/lvgl/src/draw/sw/lv_draw_sw_gradient.c ****         }
 136:Drivers/lvgl/src/draw/sw/lv_draw_sw_gradient.c ****         lv_memset_00(old + next_items_size, size);
 137:Drivers/lvgl/src/draw/sw/lv_draw_sw_gradient.c ****     }
 138:Drivers/lvgl/src/draw/sw/lv_draw_sw_gradient.c **** }
 139:Drivers/lvgl/src/draw/sw/lv_draw_sw_gradient.c **** 
 140:Drivers/lvgl/src/draw/sw/lv_draw_sw_gradient.c **** static lv_res_t kill_oldest_item(lv_grad_t * c, void * ctx)
 141:Drivers/lvgl/src/draw/sw/lv_draw_sw_gradient.c **** {
 142:Drivers/lvgl/src/draw/sw/lv_draw_sw_gradient.c ****     uint32_t * min_life = (uint32_t *)ctx;
 143:Drivers/lvgl/src/draw/sw/lv_draw_sw_gradient.c ****     if(c->life == *min_life) {
ARM GAS  /var/folders/lp/x54gwt890xv47sdkqj1k04q40000gn/T//ccGMRBug.s 			page 4


 144:Drivers/lvgl/src/draw/sw/lv_draw_sw_gradient.c ****         /*Found, let's kill it*/
 145:Drivers/lvgl/src/draw/sw/lv_draw_sw_gradient.c ****         free_item(c);
 146:Drivers/lvgl/src/draw/sw/lv_draw_sw_gradient.c ****         return LV_RES_OK;
 147:Drivers/lvgl/src/draw/sw/lv_draw_sw_gradient.c ****     }
 148:Drivers/lvgl/src/draw/sw/lv_draw_sw_gradient.c ****     return LV_RES_INV;
 149:Drivers/lvgl/src/draw/sw/lv_draw_sw_gradient.c **** }
 150:Drivers/lvgl/src/draw/sw/lv_draw_sw_gradient.c **** 
 151:Drivers/lvgl/src/draw/sw/lv_draw_sw_gradient.c **** static lv_res_t find_item(lv_grad_t * c, void * ctx)
 152:Drivers/lvgl/src/draw/sw/lv_draw_sw_gradient.c **** {
 153:Drivers/lvgl/src/draw/sw/lv_draw_sw_gradient.c ****     uint32_t * k = (uint32_t *)ctx;
 154:Drivers/lvgl/src/draw/sw/lv_draw_sw_gradient.c ****     if(c->key == *k) return LV_RES_OK;
 155:Drivers/lvgl/src/draw/sw/lv_draw_sw_gradient.c ****     return LV_RES_INV;
 156:Drivers/lvgl/src/draw/sw/lv_draw_sw_gradient.c **** }
 157:Drivers/lvgl/src/draw/sw/lv_draw_sw_gradient.c **** 
 158:Drivers/lvgl/src/draw/sw/lv_draw_sw_gradient.c **** static lv_grad_t * allocate_item(const lv_grad_dsc_t * g, lv_coord_t w, lv_coord_t h)
 159:Drivers/lvgl/src/draw/sw/lv_draw_sw_gradient.c **** {
 160:Drivers/lvgl/src/draw/sw/lv_draw_sw_gradient.c ****     lv_coord_t size = g->dir == LV_GRAD_DIR_HOR ? w : h;
 161:Drivers/lvgl/src/draw/sw/lv_draw_sw_gradient.c ****     lv_coord_t map_size = LV_MAX(w, h); /* The map is being used horizontally (width) unless
 162:Drivers/lvgl/src/draw/sw/lv_draw_sw_gradient.c ****                                            no dithering is selected where it's used vertically */
 163:Drivers/lvgl/src/draw/sw/lv_draw_sw_gradient.c **** 
 164:Drivers/lvgl/src/draw/sw/lv_draw_sw_gradient.c ****     size_t req_size = ALIGN(sizeof(lv_grad_t)) + ALIGN(map_size * sizeof(lv_color_t));
 165:Drivers/lvgl/src/draw/sw/lv_draw_sw_gradient.c **** #if _DITHER_GRADIENT
 166:Drivers/lvgl/src/draw/sw/lv_draw_sw_gradient.c ****     req_size += ALIGN(size * sizeof(lv_color32_t));
 167:Drivers/lvgl/src/draw/sw/lv_draw_sw_gradient.c **** #if LV_DITHER_ERROR_DIFFUSION == 1
 168:Drivers/lvgl/src/draw/sw/lv_draw_sw_gradient.c ****     req_size += ALIGN(w * sizeof(lv_scolor24_t));
 169:Drivers/lvgl/src/draw/sw/lv_draw_sw_gradient.c **** #endif
 170:Drivers/lvgl/src/draw/sw/lv_draw_sw_gradient.c **** #endif
 171:Drivers/lvgl/src/draw/sw/lv_draw_sw_gradient.c **** 
 172:Drivers/lvgl/src/draw/sw/lv_draw_sw_gradient.c ****     size_t act_size = (size_t)(grad_cache_end - LV_GC_ROOT(_lv_grad_cache_mem));
 173:Drivers/lvgl/src/draw/sw/lv_draw_sw_gradient.c ****     lv_grad_t * item = NULL;
 174:Drivers/lvgl/src/draw/sw/lv_draw_sw_gradient.c ****     if(req_size + act_size < grad_cache_size) {
 175:Drivers/lvgl/src/draw/sw/lv_draw_sw_gradient.c ****         item = (lv_grad_t *)grad_cache_end;
 176:Drivers/lvgl/src/draw/sw/lv_draw_sw_gradient.c ****         item->not_cached = 0;
 177:Drivers/lvgl/src/draw/sw/lv_draw_sw_gradient.c ****     }
 178:Drivers/lvgl/src/draw/sw/lv_draw_sw_gradient.c ****     else {
 179:Drivers/lvgl/src/draw/sw/lv_draw_sw_gradient.c ****         /*Need to evict items from cache until we find enough space to allocate this one */
 180:Drivers/lvgl/src/draw/sw/lv_draw_sw_gradient.c ****         if(req_size <= grad_cache_size) {
 181:Drivers/lvgl/src/draw/sw/lv_draw_sw_gradient.c ****             while(act_size + req_size > grad_cache_size) {
 182:Drivers/lvgl/src/draw/sw/lv_draw_sw_gradient.c ****                 uint32_t oldest_life = UINT32_MAX;
 183:Drivers/lvgl/src/draw/sw/lv_draw_sw_gradient.c ****                 iterate_cache(&find_oldest_item_life, &oldest_life, NULL);
 184:Drivers/lvgl/src/draw/sw/lv_draw_sw_gradient.c ****                 iterate_cache(&kill_oldest_item, &oldest_life, NULL);
 185:Drivers/lvgl/src/draw/sw/lv_draw_sw_gradient.c ****                 act_size = (size_t)(grad_cache_end - LV_GC_ROOT(_lv_grad_cache_mem));
 186:Drivers/lvgl/src/draw/sw/lv_draw_sw_gradient.c ****             }
 187:Drivers/lvgl/src/draw/sw/lv_draw_sw_gradient.c ****             item = (lv_grad_t *)grad_cache_end;
 188:Drivers/lvgl/src/draw/sw/lv_draw_sw_gradient.c ****             item->not_cached = 0;
 189:Drivers/lvgl/src/draw/sw/lv_draw_sw_gradient.c ****         }
 190:Drivers/lvgl/src/draw/sw/lv_draw_sw_gradient.c ****         else {
 191:Drivers/lvgl/src/draw/sw/lv_draw_sw_gradient.c ****             /*The cache is too small. Allocate the item manually and free it later.*/
 192:Drivers/lvgl/src/draw/sw/lv_draw_sw_gradient.c ****             item = lv_mem_alloc(req_size);
 193:Drivers/lvgl/src/draw/sw/lv_draw_sw_gradient.c ****             LV_ASSERT_MALLOC(item);
 194:Drivers/lvgl/src/draw/sw/lv_draw_sw_gradient.c ****             if(item == NULL) return NULL;
 195:Drivers/lvgl/src/draw/sw/lv_draw_sw_gradient.c ****             item->not_cached = 1;
 196:Drivers/lvgl/src/draw/sw/lv_draw_sw_gradient.c ****         }
 197:Drivers/lvgl/src/draw/sw/lv_draw_sw_gradient.c ****     }
 198:Drivers/lvgl/src/draw/sw/lv_draw_sw_gradient.c **** 
 199:Drivers/lvgl/src/draw/sw/lv_draw_sw_gradient.c ****     item->key = compute_key(g, size, w);
 200:Drivers/lvgl/src/draw/sw/lv_draw_sw_gradient.c ****     item->life = 1;
ARM GAS  /var/folders/lp/x54gwt890xv47sdkqj1k04q40000gn/T//ccGMRBug.s 			page 5


 201:Drivers/lvgl/src/draw/sw/lv_draw_sw_gradient.c ****     item->filled = 0;
 202:Drivers/lvgl/src/draw/sw/lv_draw_sw_gradient.c ****     item->alloc_size = map_size;
 203:Drivers/lvgl/src/draw/sw/lv_draw_sw_gradient.c ****     item->size = size;
 204:Drivers/lvgl/src/draw/sw/lv_draw_sw_gradient.c ****     if(item->not_cached) {
 205:Drivers/lvgl/src/draw/sw/lv_draw_sw_gradient.c ****         uint8_t * p = (uint8_t *)item;
 206:Drivers/lvgl/src/draw/sw/lv_draw_sw_gradient.c ****         item->map = (lv_color_t *)(p + ALIGN(sizeof(*item)));
 207:Drivers/lvgl/src/draw/sw/lv_draw_sw_gradient.c **** #if _DITHER_GRADIENT
 208:Drivers/lvgl/src/draw/sw/lv_draw_sw_gradient.c ****         item->hmap = (lv_color32_t *)(p + ALIGN(sizeof(*item)) + ALIGN(map_size * sizeof(lv_color_t
 209:Drivers/lvgl/src/draw/sw/lv_draw_sw_gradient.c **** #if LV_DITHER_ERROR_DIFFUSION == 1
 210:Drivers/lvgl/src/draw/sw/lv_draw_sw_gradient.c ****         item->error_acc = (lv_scolor24_t *)(p + ALIGN(sizeof(*item)) + ALIGN(size * sizeof(lv_grad_
 211:Drivers/lvgl/src/draw/sw/lv_draw_sw_gradient.c ****                                             ALIGN(map_size * sizeof(lv_color_t)));
 212:Drivers/lvgl/src/draw/sw/lv_draw_sw_gradient.c ****         item->w = w;
 213:Drivers/lvgl/src/draw/sw/lv_draw_sw_gradient.c **** #endif
 214:Drivers/lvgl/src/draw/sw/lv_draw_sw_gradient.c **** #endif
 215:Drivers/lvgl/src/draw/sw/lv_draw_sw_gradient.c ****     }
 216:Drivers/lvgl/src/draw/sw/lv_draw_sw_gradient.c ****     else {
 217:Drivers/lvgl/src/draw/sw/lv_draw_sw_gradient.c ****         item->map = (lv_color_t *)(grad_cache_end + ALIGN(sizeof(*item)));
 218:Drivers/lvgl/src/draw/sw/lv_draw_sw_gradient.c **** #if _DITHER_GRADIENT
 219:Drivers/lvgl/src/draw/sw/lv_draw_sw_gradient.c ****         item->hmap = (lv_color32_t *)(grad_cache_end + ALIGN(sizeof(*item)) + ALIGN(map_size * size
 220:Drivers/lvgl/src/draw/sw/lv_draw_sw_gradient.c **** #if LV_DITHER_ERROR_DIFFUSION == 1
 221:Drivers/lvgl/src/draw/sw/lv_draw_sw_gradient.c ****         item->error_acc = (lv_scolor24_t *)(grad_cache_end + ALIGN(sizeof(*item)) + ALIGN(size * si
 222:Drivers/lvgl/src/draw/sw/lv_draw_sw_gradient.c ****                                             ALIGN(map_size * sizeof(lv_color_t)));
 223:Drivers/lvgl/src/draw/sw/lv_draw_sw_gradient.c ****         item->w = w;
 224:Drivers/lvgl/src/draw/sw/lv_draw_sw_gradient.c **** #endif
 225:Drivers/lvgl/src/draw/sw/lv_draw_sw_gradient.c **** #endif
 226:Drivers/lvgl/src/draw/sw/lv_draw_sw_gradient.c ****         grad_cache_end += req_size;
 227:Drivers/lvgl/src/draw/sw/lv_draw_sw_gradient.c ****     }
 228:Drivers/lvgl/src/draw/sw/lv_draw_sw_gradient.c ****     return item;
 229:Drivers/lvgl/src/draw/sw/lv_draw_sw_gradient.c **** }
 230:Drivers/lvgl/src/draw/sw/lv_draw_sw_gradient.c **** 
 231:Drivers/lvgl/src/draw/sw/lv_draw_sw_gradient.c **** 
 232:Drivers/lvgl/src/draw/sw/lv_draw_sw_gradient.c **** /**********************
 233:Drivers/lvgl/src/draw/sw/lv_draw_sw_gradient.c ****  *     FUNCTIONS
 234:Drivers/lvgl/src/draw/sw/lv_draw_sw_gradient.c ****  **********************/
 235:Drivers/lvgl/src/draw/sw/lv_draw_sw_gradient.c **** void lv_gradient_free_cache(void)
 236:Drivers/lvgl/src/draw/sw/lv_draw_sw_gradient.c **** {
  30              		.loc 1 236 1 view -0
  31              		.cfi_startproc
  32              		@ args = 0, pretend = 0, frame = 0
  33              		@ frame_needed = 0, uses_anonymous_args = 0
 237:Drivers/lvgl/src/draw/sw/lv_draw_sw_gradient.c ****     lv_mem_free(LV_GC_ROOT(_lv_grad_cache_mem));
  34              		.loc 1 237 5 view .LVU1
 236:Drivers/lvgl/src/draw/sw/lv_draw_sw_gradient.c ****     lv_mem_free(LV_GC_ROOT(_lv_grad_cache_mem));
  35              		.loc 1 236 1 is_stmt 0 view .LVU2
  36 0000 10B5     		push	{r4, lr}
  37              		.cfi_def_cfa_offset 8
  38              		.cfi_offset 4, -8
  39              		.cfi_offset 14, -4
  40              		.loc 1 237 5 view .LVU3
  41 0002 054C     		ldr	r4, .L4
  42 0004 2068     		ldr	r0, [r4]
  43 0006 FFF7FEFF 		bl	lv_mem_free
  44              	.LVL0:
 238:Drivers/lvgl/src/draw/sw/lv_draw_sw_gradient.c ****     LV_GC_ROOT(_lv_grad_cache_mem) = grad_cache_end = NULL;
  45              		.loc 1 238 5 is_stmt 1 view .LVU4
  46              		.loc 1 238 53 is_stmt 0 view .LVU5
  47 000a 0449     		ldr	r1, .L4+4
ARM GAS  /var/folders/lp/x54gwt890xv47sdkqj1k04q40000gn/T//ccGMRBug.s 			page 6


 239:Drivers/lvgl/src/draw/sw/lv_draw_sw_gradient.c ****     grad_cache_size = 0;
  48              		.loc 1 239 21 view .LVU6
  49 000c 044A     		ldr	r2, .L4+8
 238:Drivers/lvgl/src/draw/sw/lv_draw_sw_gradient.c ****     LV_GC_ROOT(_lv_grad_cache_mem) = grad_cache_end = NULL;
  50              		.loc 1 238 53 view .LVU7
  51 000e 0023     		movs	r3, #0
  52 0010 0B60     		str	r3, [r1]
 238:Drivers/lvgl/src/draw/sw/lv_draw_sw_gradient.c ****     LV_GC_ROOT(_lv_grad_cache_mem) = grad_cache_end = NULL;
  53              		.loc 1 238 36 view .LVU8
  54 0012 2360     		str	r3, [r4]
  55              		.loc 1 239 5 is_stmt 1 view .LVU9
  56              		.loc 1 239 21 is_stmt 0 view .LVU10
  57 0014 1360     		str	r3, [r2]
 240:Drivers/lvgl/src/draw/sw/lv_draw_sw_gradient.c **** }
  58              		.loc 1 240 1 view .LVU11
  59 0016 10BD     		pop	{r4, pc}
  60              	.L5:
  61              		.align	2
  62              	.L4:
  63 0018 00000000 		.word	_lv_grad_cache_mem
  64 001c 00000000 		.word	grad_cache_end
  65 0020 00000000 		.word	grad_cache_size
  66              		.cfi_endproc
  67              	.LFE65:
  69              		.section	.text.lv_gradient_set_cache_size,"ax",%progbits
  70              		.align	1
  71              		.p2align 2,,3
  72              		.global	lv_gradient_set_cache_size
  73              		.syntax unified
  74              		.thumb
  75              		.thumb_func
  77              	lv_gradient_set_cache_size:
  78              	.LVL1:
  79              	.LFB66:
 241:Drivers/lvgl/src/draw/sw/lv_draw_sw_gradient.c **** 
 242:Drivers/lvgl/src/draw/sw/lv_draw_sw_gradient.c **** void lv_gradient_set_cache_size(size_t max_bytes)
 243:Drivers/lvgl/src/draw/sw/lv_draw_sw_gradient.c **** {
  80              		.loc 1 243 1 is_stmt 1 view -0
  81              		.cfi_startproc
  82              		@ args = 0, pretend = 0, frame = 0
  83              		@ frame_needed = 0, uses_anonymous_args = 0
 244:Drivers/lvgl/src/draw/sw/lv_draw_sw_gradient.c ****     lv_mem_free(LV_GC_ROOT(_lv_grad_cache_mem));
  84              		.loc 1 244 5 view .LVU13
 243:Drivers/lvgl/src/draw/sw/lv_draw_sw_gradient.c ****     lv_mem_free(LV_GC_ROOT(_lv_grad_cache_mem));
  85              		.loc 1 243 1 is_stmt 0 view .LVU14
  86 0000 38B5     		push	{r3, r4, r5, lr}
  87              		.cfi_def_cfa_offset 16
  88              		.cfi_offset 3, -16
  89              		.cfi_offset 4, -12
  90              		.cfi_offset 5, -8
  91              		.cfi_offset 14, -4
  92              		.loc 1 244 5 view .LVU15
  93 0002 094D     		ldr	r5, .L10
 243:Drivers/lvgl/src/draw/sw/lv_draw_sw_gradient.c ****     lv_mem_free(LV_GC_ROOT(_lv_grad_cache_mem));
  94              		.loc 1 243 1 view .LVU16
  95 0004 0446     		mov	r4, r0
  96              		.loc 1 244 5 view .LVU17
ARM GAS  /var/folders/lp/x54gwt890xv47sdkqj1k04q40000gn/T//ccGMRBug.s 			page 7


  97 0006 2868     		ldr	r0, [r5]
  98              	.LVL2:
  99              		.loc 1 244 5 view .LVU18
 100 0008 FFF7FEFF 		bl	lv_mem_free
 101              	.LVL3:
 245:Drivers/lvgl/src/draw/sw/lv_draw_sw_gradient.c ****     grad_cache_end = LV_GC_ROOT(_lv_grad_cache_mem) = lv_mem_alloc(max_bytes);
 102              		.loc 1 245 5 is_stmt 1 view .LVU19
 103              		.loc 1 245 55 is_stmt 0 view .LVU20
 104 000c 2046     		mov	r0, r4
 105 000e FFF7FEFF 		bl	lv_mem_alloc
 106              	.LVL4:
 107              		.loc 1 245 20 discriminator 1 view .LVU21
 108 0012 064A     		ldr	r2, .L10+4
 109              		.loc 1 245 53 discriminator 1 view .LVU22
 110 0014 2860     		str	r0, [r5]
 111              		.loc 1 245 20 discriminator 1 view .LVU23
 112 0016 1060     		str	r0, [r2]
 246:Drivers/lvgl/src/draw/sw/lv_draw_sw_gradient.c ****     LV_ASSERT_MALLOC(LV_GC_ROOT(_lv_grad_cache_mem));
 113              		.loc 1 246 5 is_stmt 1 view .LVU24
 114              		.loc 1 246 5 view .LVU25
 115 0018 28B1     		cbz	r0, .L8
 116              		.loc 1 246 5 discriminator 2 view .LVU26
 117              		.loc 1 246 53 discriminator 2 view .LVU27
 247:Drivers/lvgl/src/draw/sw/lv_draw_sw_gradient.c ****     lv_memset_00(LV_GC_ROOT(_lv_grad_cache_mem), max_bytes);
 118              		.loc 1 247 5 view .LVU28
 119 001a 2146     		mov	r1, r4
 120 001c FFF7FEFF 		bl	lv_memset_00
 121              	.LVL5:
 248:Drivers/lvgl/src/draw/sw/lv_draw_sw_gradient.c ****     grad_cache_size = max_bytes;
 122              		.loc 1 248 5 view .LVU29
 123              		.loc 1 248 21 is_stmt 0 view .LVU30
 124 0020 034B     		ldr	r3, .L10+8
 125 0022 1C60     		str	r4, [r3]
 249:Drivers/lvgl/src/draw/sw/lv_draw_sw_gradient.c **** }
 126              		.loc 1 249 1 view .LVU31
 127 0024 38BD     		pop	{r3, r4, r5, pc}
 128              	.LVL6:
 129              	.L8:
 246:Drivers/lvgl/src/draw/sw/lv_draw_sw_gradient.c ****     lv_memset_00(LV_GC_ROOT(_lv_grad_cache_mem), max_bytes);
 130              		.loc 1 246 5 is_stmt 1 discriminator 1 view .LVU32
 246:Drivers/lvgl/src/draw/sw/lv_draw_sw_gradient.c ****     lv_memset_00(LV_GC_ROOT(_lv_grad_cache_mem), max_bytes);
 131              		.loc 1 246 5 discriminator 1 view .LVU33
 246:Drivers/lvgl/src/draw/sw/lv_draw_sw_gradient.c ****     lv_memset_00(LV_GC_ROOT(_lv_grad_cache_mem), max_bytes);
 132              		.loc 1 246 5 discriminator 1 view .LVU34
 246:Drivers/lvgl/src/draw/sw/lv_draw_sw_gradient.c ****     lv_memset_00(LV_GC_ROOT(_lv_grad_cache_mem), max_bytes);
 133              		.loc 1 246 5 discriminator 1 view .LVU35
 246:Drivers/lvgl/src/draw/sw/lv_draw_sw_gradient.c ****     lv_memset_00(LV_GC_ROOT(_lv_grad_cache_mem), max_bytes);
 134              		.loc 1 246 5 discriminator 1 view .LVU36
 246:Drivers/lvgl/src/draw/sw/lv_draw_sw_gradient.c ****     lv_memset_00(LV_GC_ROOT(_lv_grad_cache_mem), max_bytes);
 135              		.loc 1 246 5 discriminator 1 view .LVU37
 246:Drivers/lvgl/src/draw/sw/lv_draw_sw_gradient.c ****     lv_memset_00(LV_GC_ROOT(_lv_grad_cache_mem), max_bytes);
 136              		.loc 1 246 5 discriminator 1 view .LVU38
 246:Drivers/lvgl/src/draw/sw/lv_draw_sw_gradient.c ****     lv_memset_00(LV_GC_ROOT(_lv_grad_cache_mem), max_bytes);
 137              		.loc 1 246 5 discriminator 1 view .LVU39
 246:Drivers/lvgl/src/draw/sw/lv_draw_sw_gradient.c ****     lv_memset_00(LV_GC_ROOT(_lv_grad_cache_mem), max_bytes);
 138              		.loc 1 246 5 discriminator 1 view .LVU40
 246:Drivers/lvgl/src/draw/sw/lv_draw_sw_gradient.c ****     lv_memset_00(LV_GC_ROOT(_lv_grad_cache_mem), max_bytes);
ARM GAS  /var/folders/lp/x54gwt890xv47sdkqj1k04q40000gn/T//ccGMRBug.s 			page 8


 139              		.loc 1 246 5 discriminator 1 view .LVU41
 140 0026 FEE7     		b	.L8
 141              	.L11:
 142              		.align	2
 143              	.L10:
 144 0028 00000000 		.word	_lv_grad_cache_mem
 145 002c 00000000 		.word	grad_cache_end
 146 0030 00000000 		.word	grad_cache_size
 147              		.cfi_endproc
 148              	.LFE66:
 150              		.section	.text.lv_gradient_calculate,"ax",%progbits
 151              		.align	1
 152              		.p2align 2,,3
 153              		.global	lv_gradient_calculate
 154              		.syntax unified
 155              		.thumb
 156              		.thumb_func
 158              	lv_gradient_calculate:
 159              	.LVL7:
 160              	.LFB68:
 250:Drivers/lvgl/src/draw/sw/lv_draw_sw_gradient.c **** 
 251:Drivers/lvgl/src/draw/sw/lv_draw_sw_gradient.c **** lv_grad_t * lv_gradient_get(const lv_grad_dsc_t * g, lv_coord_t w, lv_coord_t h)
 252:Drivers/lvgl/src/draw/sw/lv_draw_sw_gradient.c **** {
 253:Drivers/lvgl/src/draw/sw/lv_draw_sw_gradient.c ****     /* No gradient, no cache */
 254:Drivers/lvgl/src/draw/sw/lv_draw_sw_gradient.c ****     if(g->dir == LV_GRAD_DIR_NONE) return NULL;
 255:Drivers/lvgl/src/draw/sw/lv_draw_sw_gradient.c **** 
 256:Drivers/lvgl/src/draw/sw/lv_draw_sw_gradient.c ****     /* Step 0: Check if the cache exist (else create it) */
 257:Drivers/lvgl/src/draw/sw/lv_draw_sw_gradient.c ****     static bool inited = false;
 258:Drivers/lvgl/src/draw/sw/lv_draw_sw_gradient.c ****     if(!inited) {
 259:Drivers/lvgl/src/draw/sw/lv_draw_sw_gradient.c ****         lv_gradient_set_cache_size(LV_GRAD_CACHE_DEF_SIZE);
 260:Drivers/lvgl/src/draw/sw/lv_draw_sw_gradient.c ****         inited = true;
 261:Drivers/lvgl/src/draw/sw/lv_draw_sw_gradient.c ****     }
 262:Drivers/lvgl/src/draw/sw/lv_draw_sw_gradient.c **** 
 263:Drivers/lvgl/src/draw/sw/lv_draw_sw_gradient.c ****     /* Step 1: Search cache for the given key */
 264:Drivers/lvgl/src/draw/sw/lv_draw_sw_gradient.c ****     lv_coord_t size = g->dir == LV_GRAD_DIR_HOR ? w : h;
 265:Drivers/lvgl/src/draw/sw/lv_draw_sw_gradient.c ****     uint32_t key = compute_key(g, size, w);
 266:Drivers/lvgl/src/draw/sw/lv_draw_sw_gradient.c ****     lv_grad_t * item = NULL;
 267:Drivers/lvgl/src/draw/sw/lv_draw_sw_gradient.c ****     if(iterate_cache(&find_item, &key, &item) == LV_RES_OK) {
 268:Drivers/lvgl/src/draw/sw/lv_draw_sw_gradient.c ****         item->life++; /* Don't forget to bump the counter */
 269:Drivers/lvgl/src/draw/sw/lv_draw_sw_gradient.c ****         return item;
 270:Drivers/lvgl/src/draw/sw/lv_draw_sw_gradient.c ****     }
 271:Drivers/lvgl/src/draw/sw/lv_draw_sw_gradient.c **** 
 272:Drivers/lvgl/src/draw/sw/lv_draw_sw_gradient.c ****     /* Step 2: Need to allocate an item for it */
 273:Drivers/lvgl/src/draw/sw/lv_draw_sw_gradient.c ****     item = allocate_item(g, w, h);
 274:Drivers/lvgl/src/draw/sw/lv_draw_sw_gradient.c ****     if(item == NULL) {
 275:Drivers/lvgl/src/draw/sw/lv_draw_sw_gradient.c ****         LV_LOG_WARN("Faild to allcoate item for teh gradient");
 276:Drivers/lvgl/src/draw/sw/lv_draw_sw_gradient.c ****         return item;
 277:Drivers/lvgl/src/draw/sw/lv_draw_sw_gradient.c ****     }
 278:Drivers/lvgl/src/draw/sw/lv_draw_sw_gradient.c **** 
 279:Drivers/lvgl/src/draw/sw/lv_draw_sw_gradient.c ****     /* Step 3: Fill it with the gradient, as expected */
 280:Drivers/lvgl/src/draw/sw/lv_draw_sw_gradient.c **** #if _DITHER_GRADIENT
 281:Drivers/lvgl/src/draw/sw/lv_draw_sw_gradient.c ****     for(lv_coord_t i = 0; i < item->size; i++) {
 282:Drivers/lvgl/src/draw/sw/lv_draw_sw_gradient.c ****         item->hmap[i] = lv_gradient_calculate(g, item->size, i);
 283:Drivers/lvgl/src/draw/sw/lv_draw_sw_gradient.c ****     }
 284:Drivers/lvgl/src/draw/sw/lv_draw_sw_gradient.c **** #if LV_DITHER_ERROR_DIFFUSION == 1
 285:Drivers/lvgl/src/draw/sw/lv_draw_sw_gradient.c ****     lv_memset_00(item->error_acc, w * sizeof(lv_scolor24_t));
 286:Drivers/lvgl/src/draw/sw/lv_draw_sw_gradient.c **** #endif
ARM GAS  /var/folders/lp/x54gwt890xv47sdkqj1k04q40000gn/T//ccGMRBug.s 			page 9


 287:Drivers/lvgl/src/draw/sw/lv_draw_sw_gradient.c **** #else
 288:Drivers/lvgl/src/draw/sw/lv_draw_sw_gradient.c ****     for(lv_coord_t i = 0; i < item->size; i++) {
 289:Drivers/lvgl/src/draw/sw/lv_draw_sw_gradient.c ****         item->map[i] = lv_gradient_calculate(g, item->size, i);
 290:Drivers/lvgl/src/draw/sw/lv_draw_sw_gradient.c ****     }
 291:Drivers/lvgl/src/draw/sw/lv_draw_sw_gradient.c **** #endif
 292:Drivers/lvgl/src/draw/sw/lv_draw_sw_gradient.c **** 
 293:Drivers/lvgl/src/draw/sw/lv_draw_sw_gradient.c ****     return item;
 294:Drivers/lvgl/src/draw/sw/lv_draw_sw_gradient.c **** }
 295:Drivers/lvgl/src/draw/sw/lv_draw_sw_gradient.c **** 
 296:Drivers/lvgl/src/draw/sw/lv_draw_sw_gradient.c **** lv_grad_color_t LV_ATTRIBUTE_FAST_MEM lv_gradient_calculate(const lv_grad_dsc_t * dsc, lv_coord_t r
 297:Drivers/lvgl/src/draw/sw/lv_draw_sw_gradient.c ****                                                             lv_coord_t frac)
 298:Drivers/lvgl/src/draw/sw/lv_draw_sw_gradient.c **** {
 161              		.loc 1 298 1 view -0
 162              		.cfi_startproc
 163              		@ args = 0, pretend = 0, frame = 0
 164              		@ frame_needed = 0, uses_anonymous_args = 0
 299:Drivers/lvgl/src/draw/sw/lv_draw_sw_gradient.c ****     lv_grad_color_t tmp;
 165              		.loc 1 299 5 view .LVU43
 300:Drivers/lvgl/src/draw/sw/lv_draw_sw_gradient.c ****     lv_color32_t one, two;
 166              		.loc 1 300 5 view .LVU44
 301:Drivers/lvgl/src/draw/sw/lv_draw_sw_gradient.c ****     /*Clip out-of-bounds first*/
 302:Drivers/lvgl/src/draw/sw/lv_draw_sw_gradient.c ****     int32_t min = (dsc->stops[0].frac * range) >> 8;
 167              		.loc 1 302 5 view .LVU45
 168              		.loc 1 302 39 is_stmt 0 view .LVU46
 169 0000 8378     		ldrb	r3, [r0, #2]	@ zero_extendqisi2
 170 0002 13FB01F3 		smulbb	r3, r3, r1
 171              	.LVL8:
 303:Drivers/lvgl/src/draw/sw/lv_draw_sw_gradient.c ****     if(frac <= min) {
 172              		.loc 1 303 5 is_stmt 1 view .LVU47
 173              		.loc 1 303 7 is_stmt 0 view .LVU48
 174 0006 B2EB232F 		cmp	r2, r3, asr #8
 175 000a 40F3A780 		ble	.L22
 304:Drivers/lvgl/src/draw/sw/lv_draw_sw_gradient.c ****         GRAD_CONV(tmp, dsc->stops[0].color);
 305:Drivers/lvgl/src/draw/sw/lv_draw_sw_gradient.c ****         return tmp;
 306:Drivers/lvgl/src/draw/sw/lv_draw_sw_gradient.c ****     }
 307:Drivers/lvgl/src/draw/sw/lv_draw_sw_gradient.c **** 
 308:Drivers/lvgl/src/draw/sw/lv_draw_sw_gradient.c ****     int32_t max = (dsc->stops[dsc->stops_count - 1].frac * range) >> 8;
 176              		.loc 1 308 5 is_stmt 1 view .LVU49
 298:Drivers/lvgl/src/draw/sw/lv_draw_sw_gradient.c ****     lv_grad_color_t tmp;
 177              		.loc 1 298 1 is_stmt 0 view .LVU50
 178 000e 70B5     		push	{r4, r5, r6, lr}
 179              		.cfi_def_cfa_offset 16
 180              		.cfi_offset 4, -16
 181              		.cfi_offset 5, -12
 182              		.cfi_offset 6, -8
 183              		.cfi_offset 14, -4
 184              		.loc 1 308 34 view .LVU51
 185 0010 047A     		ldrb	r4, [r0, #8]	@ zero_extendqisi2
 186              		.loc 1 308 48 view .LVU52
 187 0012 651E     		subs	r5, r4, #1
 188              	.LVL9:
 309:Drivers/lvgl/src/draw/sw/lv_draw_sw_gradient.c ****     if(frac >= max) {
 189              		.loc 1 309 5 is_stmt 1 view .LVU53
 190 0014 4FEA232C 		asr	ip, r3, #8
 191              	.LVL10:
 308:Drivers/lvgl/src/draw/sw/lv_draw_sw_gradient.c ****     if(frac >= max) {
 192              		.loc 1 308 52 is_stmt 0 view .LVU54
ARM GAS  /var/folders/lp/x54gwt890xv47sdkqj1k04q40000gn/T//ccGMRBug.s 			page 10


 193 0018 00EB8503 		add	r3, r0, r5, lsl #2
 308:Drivers/lvgl/src/draw/sw/lv_draw_sw_gradient.c ****     if(frac >= max) {
 194              		.loc 1 308 58 view .LVU55
 195 001c 9B78     		ldrb	r3, [r3, #2]	@ zero_extendqisi2
 196 001e 13FB01F3 		smulbb	r3, r3, r1
 197              		.loc 1 309 7 view .LVU56
 198 0022 B2EB232F 		cmp	r2, r3, asr #8
 199 0026 0ADA     		bge	.L15
 200              	.LVL11:
 201              	.LBB26:
 310:Drivers/lvgl/src/draw/sw/lv_draw_sw_gradient.c ****         GRAD_CONV(tmp, dsc->stops[dsc->stops_count - 1].color);
 311:Drivers/lvgl/src/draw/sw/lv_draw_sw_gradient.c ****         return tmp;
 312:Drivers/lvgl/src/draw/sw/lv_draw_sw_gradient.c ****     }
 313:Drivers/lvgl/src/draw/sw/lv_draw_sw_gradient.c **** 
 314:Drivers/lvgl/src/draw/sw/lv_draw_sw_gradient.c ****     /*Find the 2 closest stop now*/
 315:Drivers/lvgl/src/draw/sw/lv_draw_sw_gradient.c ****     int32_t d = 0;
 316:Drivers/lvgl/src/draw/sw/lv_draw_sw_gradient.c ****     for(uint8_t i = 1; i < dsc->stops_count; i++) {
 202              		.loc 1 316 26 is_stmt 1 discriminator 1 view .LVU57
 203 0028 012C     		cmp	r4, #1
 204 002a 07D9     		bls	.L16
 205              	.LBB27:
 317:Drivers/lvgl/src/draw/sw/lv_draw_sw_gradient.c ****         int32_t cur = (dsc->stops[i].frac * range) >> 8;
 206              		.loc 1 317 9 view .LVU58
 207              		.loc 1 317 43 is_stmt 0 view .LVU59
 208 002c 8379     		ldrb	r3, [r0, #6]	@ zero_extendqisi2
 209 002e 13FB01F3 		smulbb	r3, r3, r1
 318:Drivers/lvgl/src/draw/sw/lv_draw_sw_gradient.c ****         if(frac <= cur) {
 210              		.loc 1 318 11 view .LVU60
 211 0032 B2EB232F 		cmp	r2, r3, asr #8
 317:Drivers/lvgl/src/draw/sw/lv_draw_sw_gradient.c ****         int32_t cur = (dsc->stops[i].frac * range) >> 8;
 212              		.loc 1 317 17 view .LVU61
 213 0036 4FEA2321 		asr	r1, r3, #8
 214              	.LVL12:
 215              		.loc 1 318 9 is_stmt 1 view .LVU62
 216              		.loc 1 318 11 is_stmt 0 view .LVU63
 217 003a 03DD     		ble	.L17
 218              	.LVL13:
 219              	.L16:
 220              	.L18:
 221              		.loc 1 318 11 view .LVU64
 222              	.LBE27:
 223              	.LBE26:
 319:Drivers/lvgl/src/draw/sw/lv_draw_sw_gradient.c ****             one.full = lv_color_to32(dsc->stops[i - 1].color);
 320:Drivers/lvgl/src/draw/sw/lv_draw_sw_gradient.c ****             two.full = lv_color_to32(dsc->stops[i].color);
 321:Drivers/lvgl/src/draw/sw/lv_draw_sw_gradient.c ****             min = (dsc->stops[i - 1].frac * range) >> 8;
 322:Drivers/lvgl/src/draw/sw/lv_draw_sw_gradient.c ****             max = (dsc->stops[i].frac * range) >> 8;
 323:Drivers/lvgl/src/draw/sw/lv_draw_sw_gradient.c ****             d = max - min;
 324:Drivers/lvgl/src/draw/sw/lv_draw_sw_gradient.c ****             break;
 325:Drivers/lvgl/src/draw/sw/lv_draw_sw_gradient.c ****         }
 326:Drivers/lvgl/src/draw/sw/lv_draw_sw_gradient.c ****     }
 327:Drivers/lvgl/src/draw/sw/lv_draw_sw_gradient.c **** 
 328:Drivers/lvgl/src/draw/sw/lv_draw_sw_gradient.c ****     LV_ASSERT(d != 0);
 224              		.loc 1 328 5 is_stmt 1 discriminator 1 view .LVU65
 225              		.loc 1 328 5 discriminator 1 view .LVU66
 226              		.loc 1 328 5 discriminator 1 view .LVU67
 227              		.loc 1 328 5 discriminator 1 view .LVU68
 228              		.loc 1 328 5 discriminator 1 view .LVU69
ARM GAS  /var/folders/lp/x54gwt890xv47sdkqj1k04q40000gn/T//ccGMRBug.s 			page 11


 229              		.loc 1 328 5 discriminator 1 view .LVU70
 230              		.loc 1 328 5 discriminator 1 view .LVU71
 231              		.loc 1 328 5 discriminator 1 view .LVU72
 232              		.loc 1 328 5 discriminator 1 view .LVU73
 233              		.loc 1 328 5 discriminator 1 view .LVU74
 234 003c FEE7     		b	.L18
 235              	.LVL14:
 236              	.L15:
 310:Drivers/lvgl/src/draw/sw/lv_draw_sw_gradient.c ****         return tmp;
 237              		.loc 1 310 9 view .LVU75
 238 003e 30F82500 		ldrh	r0, [r0, r5, lsl #2]
 239              	.LVL15:
 311:Drivers/lvgl/src/draw/sw/lv_draw_sw_gradient.c ****     }
 240              		.loc 1 311 9 view .LVU76
 329:Drivers/lvgl/src/draw/sw/lv_draw_sw_gradient.c **** 
 330:Drivers/lvgl/src/draw/sw/lv_draw_sw_gradient.c ****     /*Then interpolate*/
 331:Drivers/lvgl/src/draw/sw/lv_draw_sw_gradient.c ****     frac -= min;
 332:Drivers/lvgl/src/draw/sw/lv_draw_sw_gradient.c ****     lv_opa_t mix = (frac * 255) / d;
 333:Drivers/lvgl/src/draw/sw/lv_draw_sw_gradient.c ****     lv_opa_t imix = 255 - mix;
 334:Drivers/lvgl/src/draw/sw/lv_draw_sw_gradient.c **** 
 335:Drivers/lvgl/src/draw/sw/lv_draw_sw_gradient.c ****     lv_grad_color_t r = GRAD_CM(LV_UDIV255(two.ch.red * mix   + one.ch.red * imix),
 336:Drivers/lvgl/src/draw/sw/lv_draw_sw_gradient.c ****                                 LV_UDIV255(two.ch.green * mix + one.ch.green * imix),
 337:Drivers/lvgl/src/draw/sw/lv_draw_sw_gradient.c ****                                 LV_UDIV255(two.ch.blue * mix  + one.ch.blue * imix));
 338:Drivers/lvgl/src/draw/sw/lv_draw_sw_gradient.c ****     return r;
 339:Drivers/lvgl/src/draw/sw/lv_draw_sw_gradient.c **** }
 241              		.loc 1 339 1 is_stmt 0 view .LVU77
 242 0042 70BD     		pop	{r4, r5, r6, pc}
 243              	.LVL16:
 244              	.L17:
 245              	.LBB61:
 246              	.LBB56:
 319:Drivers/lvgl/src/draw/sw/lv_draw_sw_gradient.c ****             two.full = lv_color_to32(dsc->stops[i].color);
 247              		.loc 1 319 13 is_stmt 1 view .LVU78
 248 0044 0678     		ldrb	r6, [r0]	@ zero_extendqisi2
 249 0046 0479     		ldrb	r4, [r0, #4]	@ zero_extendqisi2
 250 0048 4579     		ldrb	r5, [r0, #5]	@ zero_extendqisi2
 251              	.LVL17:
 319:Drivers/lvgl/src/draw/sw/lv_draw_sw_gradient.c ****             two.full = lv_color_to32(dsc->stops[i].color);
 252              		.loc 1 319 13 is_stmt 0 view .LVU79
 253              	.LBE56:
 254              	.LBE61:
 331:Drivers/lvgl/src/draw/sw/lv_draw_sw_gradient.c ****     lv_opa_t mix = (frac * 255) / d;
 255              		.loc 1 331 10 view .LVU80
 256 004a A2EB0C02 		sub	r2, r2, ip
 257              	.LVL18:
 332:Drivers/lvgl/src/draw/sw/lv_draw_sw_gradient.c ****     lv_opa_t imix = 255 - mix;
 258              		.loc 1 332 26 view .LVU81
 259 004e 13B2     		sxth	r3, r2
 260              	.LBB62:
 261              	.LBB57:
 323:Drivers/lvgl/src/draw/sw/lv_draw_sw_gradient.c ****             break;
 262              		.loc 1 323 15 view .LVU82
 263 0050 A1EB0C01 		sub	r1, r1, ip
 264              	.LVL19:
 323:Drivers/lvgl/src/draw/sw/lv_draw_sw_gradient.c ****             break;
 265              		.loc 1 323 15 view .LVU83
 266              	.LBE57:
ARM GAS  /var/folders/lp/x54gwt890xv47sdkqj1k04q40000gn/T//ccGMRBug.s 			page 12


 267              	.LBE62:
 332:Drivers/lvgl/src/draw/sw/lv_draw_sw_gradient.c ****     lv_opa_t imix = 255 - mix;
 268              		.loc 1 332 26 view .LVU84
 269 0054 C3EB0323 		rsb	r3, r3, r3, lsl #8
 332:Drivers/lvgl/src/draw/sw/lv_draw_sw_gradient.c ****     lv_opa_t imix = 255 - mix;
 270              		.loc 1 332 33 view .LVU85
 271 0058 93FBF1F3 		sdiv	r3, r3, r1
 272 005c 4178     		ldrb	r1, [r0, #1]	@ zero_extendqisi2
 273 005e 06F00700 		and	r0, r6, #7
 274              	.LVL20:
 275              	.LBB63:
 276              	.LBB58:
 277              	.LBB28:
 278              	.LBB29:
 279              		.file 2 "Drivers/lvgl/src/draw/sw/../../misc/lv_color.h"
   1:Drivers/lvgl/src/draw/sw/../../misc/lv_color.h **** /**
   2:Drivers/lvgl/src/draw/sw/../../misc/lv_color.h ****  * @file lv_color.h
   3:Drivers/lvgl/src/draw/sw/../../misc/lv_color.h ****  *
   4:Drivers/lvgl/src/draw/sw/../../misc/lv_color.h ****  */
   5:Drivers/lvgl/src/draw/sw/../../misc/lv_color.h **** 
   6:Drivers/lvgl/src/draw/sw/../../misc/lv_color.h **** #ifndef LV_COLOR_H
   7:Drivers/lvgl/src/draw/sw/../../misc/lv_color.h **** #define LV_COLOR_H
   8:Drivers/lvgl/src/draw/sw/../../misc/lv_color.h **** 
   9:Drivers/lvgl/src/draw/sw/../../misc/lv_color.h **** #ifdef __cplusplus
  10:Drivers/lvgl/src/draw/sw/../../misc/lv_color.h **** extern "C" {
  11:Drivers/lvgl/src/draw/sw/../../misc/lv_color.h **** #endif
  12:Drivers/lvgl/src/draw/sw/../../misc/lv_color.h **** 
  13:Drivers/lvgl/src/draw/sw/../../misc/lv_color.h **** /*********************
  14:Drivers/lvgl/src/draw/sw/../../misc/lv_color.h ****  *      INCLUDES
  15:Drivers/lvgl/src/draw/sw/../../misc/lv_color.h ****  *********************/
  16:Drivers/lvgl/src/draw/sw/../../misc/lv_color.h **** #include "../lv_conf_internal.h"
  17:Drivers/lvgl/src/draw/sw/../../misc/lv_color.h **** #include "lv_assert.h"
  18:Drivers/lvgl/src/draw/sw/../../misc/lv_color.h **** #include "lv_math.h"
  19:Drivers/lvgl/src/draw/sw/../../misc/lv_color.h **** #include "lv_types.h"
  20:Drivers/lvgl/src/draw/sw/../../misc/lv_color.h **** 
  21:Drivers/lvgl/src/draw/sw/../../misc/lv_color.h **** /*Error checking*/
  22:Drivers/lvgl/src/draw/sw/../../misc/lv_color.h **** #if LV_COLOR_DEPTH == 24
  23:Drivers/lvgl/src/draw/sw/../../misc/lv_color.h **** #error "LV_COLOR_DEPTH 24 is deprecated. Use LV_COLOR_DEPTH 32 instead (lv_conf.h)"
  24:Drivers/lvgl/src/draw/sw/../../misc/lv_color.h **** #endif
  25:Drivers/lvgl/src/draw/sw/../../misc/lv_color.h **** 
  26:Drivers/lvgl/src/draw/sw/../../misc/lv_color.h **** #if LV_COLOR_DEPTH != 16 && LV_COLOR_16_SWAP != 0
  27:Drivers/lvgl/src/draw/sw/../../misc/lv_color.h **** #error "LV_COLOR_16_SWAP requires LV_COLOR_DEPTH == 16. Set it in lv_conf.h"
  28:Drivers/lvgl/src/draw/sw/../../misc/lv_color.h **** #endif
  29:Drivers/lvgl/src/draw/sw/../../misc/lv_color.h **** 
  30:Drivers/lvgl/src/draw/sw/../../misc/lv_color.h **** #include <stdint.h>
  31:Drivers/lvgl/src/draw/sw/../../misc/lv_color.h **** 
  32:Drivers/lvgl/src/draw/sw/../../misc/lv_color.h **** /*********************
  33:Drivers/lvgl/src/draw/sw/../../misc/lv_color.h ****  *      DEFINES
  34:Drivers/lvgl/src/draw/sw/../../misc/lv_color.h ****  *********************/
  35:Drivers/lvgl/src/draw/sw/../../misc/lv_color.h **** LV_EXPORT_CONST_INT(LV_COLOR_DEPTH);
  36:Drivers/lvgl/src/draw/sw/../../misc/lv_color.h **** LV_EXPORT_CONST_INT(LV_COLOR_16_SWAP);
  37:Drivers/lvgl/src/draw/sw/../../misc/lv_color.h **** 
  38:Drivers/lvgl/src/draw/sw/../../misc/lv_color.h **** /**
  39:Drivers/lvgl/src/draw/sw/../../misc/lv_color.h ****  * Opacity percentages.
  40:Drivers/lvgl/src/draw/sw/../../misc/lv_color.h ****  */
  41:Drivers/lvgl/src/draw/sw/../../misc/lv_color.h **** enum {
  42:Drivers/lvgl/src/draw/sw/../../misc/lv_color.h ****     LV_OPA_TRANSP = 0,
ARM GAS  /var/folders/lp/x54gwt890xv47sdkqj1k04q40000gn/T//ccGMRBug.s 			page 13


  43:Drivers/lvgl/src/draw/sw/../../misc/lv_color.h ****     LV_OPA_0      = 0,
  44:Drivers/lvgl/src/draw/sw/../../misc/lv_color.h ****     LV_OPA_10     = 25,
  45:Drivers/lvgl/src/draw/sw/../../misc/lv_color.h ****     LV_OPA_20     = 51,
  46:Drivers/lvgl/src/draw/sw/../../misc/lv_color.h ****     LV_OPA_30     = 76,
  47:Drivers/lvgl/src/draw/sw/../../misc/lv_color.h ****     LV_OPA_40     = 102,
  48:Drivers/lvgl/src/draw/sw/../../misc/lv_color.h ****     LV_OPA_50     = 127,
  49:Drivers/lvgl/src/draw/sw/../../misc/lv_color.h ****     LV_OPA_60     = 153,
  50:Drivers/lvgl/src/draw/sw/../../misc/lv_color.h ****     LV_OPA_70     = 178,
  51:Drivers/lvgl/src/draw/sw/../../misc/lv_color.h ****     LV_OPA_80     = 204,
  52:Drivers/lvgl/src/draw/sw/../../misc/lv_color.h ****     LV_OPA_90     = 229,
  53:Drivers/lvgl/src/draw/sw/../../misc/lv_color.h ****     LV_OPA_100    = 255,
  54:Drivers/lvgl/src/draw/sw/../../misc/lv_color.h ****     LV_OPA_COVER  = 255,
  55:Drivers/lvgl/src/draw/sw/../../misc/lv_color.h **** };
  56:Drivers/lvgl/src/draw/sw/../../misc/lv_color.h **** 
  57:Drivers/lvgl/src/draw/sw/../../misc/lv_color.h **** #define LV_OPA_MIN 2    /*Opacities below this will be transparent*/
  58:Drivers/lvgl/src/draw/sw/../../misc/lv_color.h **** #define LV_OPA_MAX 253  /*Opacities above this will fully cover*/
  59:Drivers/lvgl/src/draw/sw/../../misc/lv_color.h **** 
  60:Drivers/lvgl/src/draw/sw/../../misc/lv_color.h **** #if LV_COLOR_DEPTH == 1
  61:Drivers/lvgl/src/draw/sw/../../misc/lv_color.h **** #define LV_COLOR_SIZE 8
  62:Drivers/lvgl/src/draw/sw/../../misc/lv_color.h **** #elif LV_COLOR_DEPTH == 8
  63:Drivers/lvgl/src/draw/sw/../../misc/lv_color.h **** #define LV_COLOR_SIZE 8
  64:Drivers/lvgl/src/draw/sw/../../misc/lv_color.h **** #elif LV_COLOR_DEPTH == 16
  65:Drivers/lvgl/src/draw/sw/../../misc/lv_color.h **** #define LV_COLOR_SIZE 16
  66:Drivers/lvgl/src/draw/sw/../../misc/lv_color.h **** #elif LV_COLOR_DEPTH == 32
  67:Drivers/lvgl/src/draw/sw/../../misc/lv_color.h **** #define LV_COLOR_SIZE 32
  68:Drivers/lvgl/src/draw/sw/../../misc/lv_color.h **** #else
  69:Drivers/lvgl/src/draw/sw/../../misc/lv_color.h **** #error "Invalid LV_COLOR_DEPTH in lv_conf.h! Set it to 1, 8, 16 or 32!"
  70:Drivers/lvgl/src/draw/sw/../../misc/lv_color.h **** #endif
  71:Drivers/lvgl/src/draw/sw/../../misc/lv_color.h **** 
  72:Drivers/lvgl/src/draw/sw/../../misc/lv_color.h **** #if defined(__cplusplus) && !defined(_LV_COLOR_HAS_MODERN_CPP)
  73:Drivers/lvgl/src/draw/sw/../../misc/lv_color.h **** /**
  74:Drivers/lvgl/src/draw/sw/../../misc/lv_color.h **** * MSVC compiler's definition of the __cplusplus indicating 199711L regardless to C++ standard versi
  75:Drivers/lvgl/src/draw/sw/../../misc/lv_color.h **** * see https://devblogs.microsoft.com/cppblog/msvc-now-correctly-reports-cplusplus
  76:Drivers/lvgl/src/draw/sw/../../misc/lv_color.h **** * so we use _MSC_VER macro instead of __cplusplus
  77:Drivers/lvgl/src/draw/sw/../../misc/lv_color.h **** */
  78:Drivers/lvgl/src/draw/sw/../../misc/lv_color.h **** #ifdef _MSC_VER
  79:Drivers/lvgl/src/draw/sw/../../misc/lv_color.h **** #if _MSC_VER >= 1900 /*Visual Studio 2015*/
  80:Drivers/lvgl/src/draw/sw/../../misc/lv_color.h **** #define _LV_COLOR_HAS_MODERN_CPP 1
  81:Drivers/lvgl/src/draw/sw/../../misc/lv_color.h **** #endif
  82:Drivers/lvgl/src/draw/sw/../../misc/lv_color.h **** #else
  83:Drivers/lvgl/src/draw/sw/../../misc/lv_color.h **** #if __cplusplus >= 201103L
  84:Drivers/lvgl/src/draw/sw/../../misc/lv_color.h **** #define _LV_COLOR_HAS_MODERN_CPP 1
  85:Drivers/lvgl/src/draw/sw/../../misc/lv_color.h **** #endif
  86:Drivers/lvgl/src/draw/sw/../../misc/lv_color.h **** #endif
  87:Drivers/lvgl/src/draw/sw/../../misc/lv_color.h **** #endif /*__cplusplus*/
  88:Drivers/lvgl/src/draw/sw/../../misc/lv_color.h **** 
  89:Drivers/lvgl/src/draw/sw/../../misc/lv_color.h **** #ifndef _LV_COLOR_HAS_MODERN_CPP
  90:Drivers/lvgl/src/draw/sw/../../misc/lv_color.h **** #define _LV_COLOR_HAS_MODERN_CPP 0
  91:Drivers/lvgl/src/draw/sw/../../misc/lv_color.h **** #endif
  92:Drivers/lvgl/src/draw/sw/../../misc/lv_color.h **** 
  93:Drivers/lvgl/src/draw/sw/../../misc/lv_color.h **** #if _LV_COLOR_HAS_MODERN_CPP
  94:Drivers/lvgl/src/draw/sw/../../misc/lv_color.h **** /*Fix msvc compiler error C4576 inside C++ code*/
  95:Drivers/lvgl/src/draw/sw/../../misc/lv_color.h **** #define _LV_COLOR_MAKE_TYPE_HELPER lv_color_t
  96:Drivers/lvgl/src/draw/sw/../../misc/lv_color.h **** #else
  97:Drivers/lvgl/src/draw/sw/../../misc/lv_color.h **** #define _LV_COLOR_MAKE_TYPE_HELPER (lv_color_t)
  98:Drivers/lvgl/src/draw/sw/../../misc/lv_color.h **** #endif
  99:Drivers/lvgl/src/draw/sw/../../misc/lv_color.h **** 
ARM GAS  /var/folders/lp/x54gwt890xv47sdkqj1k04q40000gn/T//ccGMRBug.s 			page 14


 100:Drivers/lvgl/src/draw/sw/../../misc/lv_color.h **** /*---------------------------------------
 101:Drivers/lvgl/src/draw/sw/../../misc/lv_color.h ****  * Macros for all existing color depths
 102:Drivers/lvgl/src/draw/sw/../../misc/lv_color.h ****  * to set/get values of the color channels
 103:Drivers/lvgl/src/draw/sw/../../misc/lv_color.h ****  *------------------------------------------*/
 104:Drivers/lvgl/src/draw/sw/../../misc/lv_color.h **** # define LV_COLOR_SET_R1(c, v) (c).ch.red = (uint8_t)((v) & 0x1)
 105:Drivers/lvgl/src/draw/sw/../../misc/lv_color.h **** # define LV_COLOR_SET_G1(c, v) (c).ch.green = (uint8_t)((v) & 0x1)
 106:Drivers/lvgl/src/draw/sw/../../misc/lv_color.h **** # define LV_COLOR_SET_B1(c, v) (c).ch.blue = (uint8_t)((v) & 0x1)
 107:Drivers/lvgl/src/draw/sw/../../misc/lv_color.h **** # define LV_COLOR_SET_A1(c, v) do {} while(0)
 108:Drivers/lvgl/src/draw/sw/../../misc/lv_color.h **** 
 109:Drivers/lvgl/src/draw/sw/../../misc/lv_color.h **** # define LV_COLOR_GET_R1(c) (c).ch.red
 110:Drivers/lvgl/src/draw/sw/../../misc/lv_color.h **** # define LV_COLOR_GET_G1(c) (c).ch.green
 111:Drivers/lvgl/src/draw/sw/../../misc/lv_color.h **** # define LV_COLOR_GET_B1(c) (c).ch.blue
 112:Drivers/lvgl/src/draw/sw/../../misc/lv_color.h **** # define LV_COLOR_GET_A1(c) 0xFF
 113:Drivers/lvgl/src/draw/sw/../../misc/lv_color.h **** 
 114:Drivers/lvgl/src/draw/sw/../../misc/lv_color.h **** # define _LV_COLOR_ZERO_INITIALIZER1 {0x00}
 115:Drivers/lvgl/src/draw/sw/../../misc/lv_color.h **** # define LV_COLOR_MAKE1(r8, g8, b8)  {(uint8_t)((b8 >> 7) | (g8 >> 7) | (r8 >> 7))}
 116:Drivers/lvgl/src/draw/sw/../../misc/lv_color.h **** 
 117:Drivers/lvgl/src/draw/sw/../../misc/lv_color.h **** # define LV_COLOR_SET_R8(c, v) (c).ch.red = (uint8_t)((v) & 0x7U)
 118:Drivers/lvgl/src/draw/sw/../../misc/lv_color.h **** # define LV_COLOR_SET_G8(c, v) (c).ch.green = (uint8_t)((v) & 0x7U)
 119:Drivers/lvgl/src/draw/sw/../../misc/lv_color.h **** # define LV_COLOR_SET_B8(c, v) (c).ch.blue = (uint8_t)((v) & 0x3U)
 120:Drivers/lvgl/src/draw/sw/../../misc/lv_color.h **** # define LV_COLOR_SET_A8(c, v) do {} while(0)
 121:Drivers/lvgl/src/draw/sw/../../misc/lv_color.h **** 
 122:Drivers/lvgl/src/draw/sw/../../misc/lv_color.h **** # define LV_COLOR_GET_R8(c) (c).ch.red
 123:Drivers/lvgl/src/draw/sw/../../misc/lv_color.h **** # define LV_COLOR_GET_G8(c) (c).ch.green
 124:Drivers/lvgl/src/draw/sw/../../misc/lv_color.h **** # define LV_COLOR_GET_B8(c) (c).ch.blue
 125:Drivers/lvgl/src/draw/sw/../../misc/lv_color.h **** # define LV_COLOR_GET_A8(c) 0xFF
 126:Drivers/lvgl/src/draw/sw/../../misc/lv_color.h **** 
 127:Drivers/lvgl/src/draw/sw/../../misc/lv_color.h **** # define _LV_COLOR_ZERO_INITIALIZER8 {{0x00, 0x00, 0x00}}
 128:Drivers/lvgl/src/draw/sw/../../misc/lv_color.h **** # define LV_COLOR_MAKE8(r8, g8, b8) {{(uint8_t)((b8 >> 6) & 0x3U), (uint8_t)((g8 >> 5) & 0x7U), (ui
 129:Drivers/lvgl/src/draw/sw/../../misc/lv_color.h **** 
 130:Drivers/lvgl/src/draw/sw/../../misc/lv_color.h **** # define LV_COLOR_SET_R16(c, v) (c).ch.red = (uint8_t)((v) & 0x1FU)
 131:Drivers/lvgl/src/draw/sw/../../misc/lv_color.h **** #if LV_COLOR_16_SWAP == 0
 132:Drivers/lvgl/src/draw/sw/../../misc/lv_color.h **** # define LV_COLOR_SET_G16(c, v) (c).ch.green = (uint8_t)((v) & 0x3FU)
 133:Drivers/lvgl/src/draw/sw/../../misc/lv_color.h **** #else
 134:Drivers/lvgl/src/draw/sw/../../misc/lv_color.h **** # define LV_COLOR_SET_G16(c, v) {(c).ch.green_h = (uint8_t)(((v) >> 3) & 0x7); (c).ch.green_l = (ui
 135:Drivers/lvgl/src/draw/sw/../../misc/lv_color.h **** #endif
 136:Drivers/lvgl/src/draw/sw/../../misc/lv_color.h **** # define LV_COLOR_SET_B16(c, v) (c).ch.blue = (uint8_t)((v) & 0x1FU)
 137:Drivers/lvgl/src/draw/sw/../../misc/lv_color.h **** # define LV_COLOR_SET_A16(c, v) do {} while(0)
 138:Drivers/lvgl/src/draw/sw/../../misc/lv_color.h **** 
 139:Drivers/lvgl/src/draw/sw/../../misc/lv_color.h **** # define LV_COLOR_GET_R16(c) (c).ch.red
 140:Drivers/lvgl/src/draw/sw/../../misc/lv_color.h **** #if LV_COLOR_16_SWAP == 0
 141:Drivers/lvgl/src/draw/sw/../../misc/lv_color.h **** # define LV_COLOR_GET_G16(c) (c).ch.green
 142:Drivers/lvgl/src/draw/sw/../../misc/lv_color.h **** #else
 143:Drivers/lvgl/src/draw/sw/../../misc/lv_color.h **** # define LV_COLOR_GET_G16(c) (((c).ch.green_h << 3) + (c).ch.green_l)
 144:Drivers/lvgl/src/draw/sw/../../misc/lv_color.h **** #endif
 145:Drivers/lvgl/src/draw/sw/../../misc/lv_color.h **** # define LV_COLOR_GET_B16(c) (c).ch.blue
 146:Drivers/lvgl/src/draw/sw/../../misc/lv_color.h **** # define LV_COLOR_GET_A16(c) 0xFF
 147:Drivers/lvgl/src/draw/sw/../../misc/lv_color.h **** 
 148:Drivers/lvgl/src/draw/sw/../../misc/lv_color.h **** #if LV_COLOR_16_SWAP == 0
 149:Drivers/lvgl/src/draw/sw/../../misc/lv_color.h **** # define _LV_COLOR_ZERO_INITIALIZER16  {{0x00, 0x00, 0x00}}
 150:Drivers/lvgl/src/draw/sw/../../misc/lv_color.h **** # define LV_COLOR_MAKE16(r8, g8, b8) {{(uint8_t)((b8 >> 3) & 0x1FU), (uint8_t)((g8 >> 2) & 0x3FU), 
 151:Drivers/lvgl/src/draw/sw/../../misc/lv_color.h **** #else
 152:Drivers/lvgl/src/draw/sw/../../misc/lv_color.h **** # define _LV_COLOR_ZERO_INITIALIZER16 {{0x00, 0x00, 0x00, 0x00}}
 153:Drivers/lvgl/src/draw/sw/../../misc/lv_color.h **** # define LV_COLOR_MAKE16(r8, g8, b8) {{(uint8_t)((g8 >> 5) & 0x7U), (uint8_t)((r8 >> 3) & 0x1FU), (
 154:Drivers/lvgl/src/draw/sw/../../misc/lv_color.h **** #endif
 155:Drivers/lvgl/src/draw/sw/../../misc/lv_color.h **** 
 156:Drivers/lvgl/src/draw/sw/../../misc/lv_color.h **** # define LV_COLOR_SET_R32(c, v) (c).ch.red = (uint8_t)((v) & 0xFF)
ARM GAS  /var/folders/lp/x54gwt890xv47sdkqj1k04q40000gn/T//ccGMRBug.s 			page 15


 157:Drivers/lvgl/src/draw/sw/../../misc/lv_color.h **** # define LV_COLOR_SET_G32(c, v) (c).ch.green = (uint8_t)((v) & 0xFF)
 158:Drivers/lvgl/src/draw/sw/../../misc/lv_color.h **** # define LV_COLOR_SET_B32(c, v) (c).ch.blue = (uint8_t)((v) & 0xFF)
 159:Drivers/lvgl/src/draw/sw/../../misc/lv_color.h **** # define LV_COLOR_SET_A32(c, v) (c).ch.alpha = (uint8_t)((v) & 0xFF)
 160:Drivers/lvgl/src/draw/sw/../../misc/lv_color.h **** 
 161:Drivers/lvgl/src/draw/sw/../../misc/lv_color.h **** # define LV_COLOR_GET_R32(c) (c).ch.red
 162:Drivers/lvgl/src/draw/sw/../../misc/lv_color.h **** # define LV_COLOR_GET_G32(c) (c).ch.green
 163:Drivers/lvgl/src/draw/sw/../../misc/lv_color.h **** # define LV_COLOR_GET_B32(c) (c).ch.blue
 164:Drivers/lvgl/src/draw/sw/../../misc/lv_color.h **** # define LV_COLOR_GET_A32(c) (c).ch.alpha
 165:Drivers/lvgl/src/draw/sw/../../misc/lv_color.h **** 
 166:Drivers/lvgl/src/draw/sw/../../misc/lv_color.h **** # define _LV_COLOR_ZERO_INITIALIZER32  {{0x00, 0x00, 0x00, 0x00}}
 167:Drivers/lvgl/src/draw/sw/../../misc/lv_color.h **** # define LV_COLOR_MAKE32(r8, g8, b8) {{b8, g8, r8, 0xff}} /*Fix 0xff alpha*/
 168:Drivers/lvgl/src/draw/sw/../../misc/lv_color.h **** 
 169:Drivers/lvgl/src/draw/sw/../../misc/lv_color.h **** /*---------------------------------------
 170:Drivers/lvgl/src/draw/sw/../../misc/lv_color.h ****  * Macros for the current color depth
 171:Drivers/lvgl/src/draw/sw/../../misc/lv_color.h ****  * to set/get values of the color channels
 172:Drivers/lvgl/src/draw/sw/../../misc/lv_color.h ****  *------------------------------------------*/
 173:Drivers/lvgl/src/draw/sw/../../misc/lv_color.h **** #define LV_COLOR_SET_R(c, v) LV_CONCAT(LV_COLOR_SET_R, LV_COLOR_DEPTH)(c, v)
 174:Drivers/lvgl/src/draw/sw/../../misc/lv_color.h **** #define LV_COLOR_SET_G(c, v) LV_CONCAT(LV_COLOR_SET_G, LV_COLOR_DEPTH)(c, v)
 175:Drivers/lvgl/src/draw/sw/../../misc/lv_color.h **** #define LV_COLOR_SET_B(c, v) LV_CONCAT(LV_COLOR_SET_B, LV_COLOR_DEPTH)(c, v)
 176:Drivers/lvgl/src/draw/sw/../../misc/lv_color.h **** #define LV_COLOR_SET_A(c, v) LV_CONCAT(LV_COLOR_SET_A, LV_COLOR_DEPTH)(c, v)
 177:Drivers/lvgl/src/draw/sw/../../misc/lv_color.h **** 
 178:Drivers/lvgl/src/draw/sw/../../misc/lv_color.h **** #define LV_COLOR_GET_R(c) LV_CONCAT(LV_COLOR_GET_R, LV_COLOR_DEPTH)(c)
 179:Drivers/lvgl/src/draw/sw/../../misc/lv_color.h **** #define LV_COLOR_GET_G(c) LV_CONCAT(LV_COLOR_GET_G, LV_COLOR_DEPTH)(c)
 180:Drivers/lvgl/src/draw/sw/../../misc/lv_color.h **** #define LV_COLOR_GET_B(c) LV_CONCAT(LV_COLOR_GET_B, LV_COLOR_DEPTH)(c)
 181:Drivers/lvgl/src/draw/sw/../../misc/lv_color.h **** #define LV_COLOR_GET_A(c) LV_CONCAT(LV_COLOR_GET_A, LV_COLOR_DEPTH)(c)
 182:Drivers/lvgl/src/draw/sw/../../misc/lv_color.h **** 
 183:Drivers/lvgl/src/draw/sw/../../misc/lv_color.h **** #define _LV_COLOR_ZERO_INITIALIZER LV_CONCAT(_LV_COLOR_ZERO_INITIALIZER, LV_COLOR_DEPTH)
 184:Drivers/lvgl/src/draw/sw/../../misc/lv_color.h **** #define LV_COLOR_MAKE(r8, g8, b8) LV_CONCAT(LV_COLOR_MAKE, LV_COLOR_DEPTH)(r8, g8, b8)
 185:Drivers/lvgl/src/draw/sw/../../misc/lv_color.h **** 
 186:Drivers/lvgl/src/draw/sw/../../misc/lv_color.h **** /**********************
 187:Drivers/lvgl/src/draw/sw/../../misc/lv_color.h ****  *      TYPEDEFS
 188:Drivers/lvgl/src/draw/sw/../../misc/lv_color.h ****  **********************/
 189:Drivers/lvgl/src/draw/sw/../../misc/lv_color.h **** 
 190:Drivers/lvgl/src/draw/sw/../../misc/lv_color.h **** typedef union {
 191:Drivers/lvgl/src/draw/sw/../../misc/lv_color.h ****     uint8_t full; /*must be declared first to set all bits of byte via initializer list*/
 192:Drivers/lvgl/src/draw/sw/../../misc/lv_color.h ****     union {
 193:Drivers/lvgl/src/draw/sw/../../misc/lv_color.h ****         uint8_t blue : 1;
 194:Drivers/lvgl/src/draw/sw/../../misc/lv_color.h ****         uint8_t green : 1;
 195:Drivers/lvgl/src/draw/sw/../../misc/lv_color.h ****         uint8_t red : 1;
 196:Drivers/lvgl/src/draw/sw/../../misc/lv_color.h ****     } ch;
 197:Drivers/lvgl/src/draw/sw/../../misc/lv_color.h **** } lv_color1_t;
 198:Drivers/lvgl/src/draw/sw/../../misc/lv_color.h **** 
 199:Drivers/lvgl/src/draw/sw/../../misc/lv_color.h **** typedef union {
 200:Drivers/lvgl/src/draw/sw/../../misc/lv_color.h ****     struct {
 201:Drivers/lvgl/src/draw/sw/../../misc/lv_color.h ****         uint8_t blue : 2;
 202:Drivers/lvgl/src/draw/sw/../../misc/lv_color.h ****         uint8_t green : 3;
 203:Drivers/lvgl/src/draw/sw/../../misc/lv_color.h ****         uint8_t red : 3;
 204:Drivers/lvgl/src/draw/sw/../../misc/lv_color.h ****     } ch;
 205:Drivers/lvgl/src/draw/sw/../../misc/lv_color.h ****     uint8_t full;
 206:Drivers/lvgl/src/draw/sw/../../misc/lv_color.h **** } lv_color8_t;
 207:Drivers/lvgl/src/draw/sw/../../misc/lv_color.h **** 
 208:Drivers/lvgl/src/draw/sw/../../misc/lv_color.h **** typedef union {
 209:Drivers/lvgl/src/draw/sw/../../misc/lv_color.h ****     struct {
 210:Drivers/lvgl/src/draw/sw/../../misc/lv_color.h **** #if LV_COLOR_16_SWAP == 0
 211:Drivers/lvgl/src/draw/sw/../../misc/lv_color.h ****         uint16_t blue : 5;
 212:Drivers/lvgl/src/draw/sw/../../misc/lv_color.h ****         uint16_t green : 6;
 213:Drivers/lvgl/src/draw/sw/../../misc/lv_color.h ****         uint16_t red : 5;
ARM GAS  /var/folders/lp/x54gwt890xv47sdkqj1k04q40000gn/T//ccGMRBug.s 			page 16


 214:Drivers/lvgl/src/draw/sw/../../misc/lv_color.h **** #else
 215:Drivers/lvgl/src/draw/sw/../../misc/lv_color.h ****         uint16_t green_h : 3;
 216:Drivers/lvgl/src/draw/sw/../../misc/lv_color.h ****         uint16_t red : 5;
 217:Drivers/lvgl/src/draw/sw/../../misc/lv_color.h ****         uint16_t blue : 5;
 218:Drivers/lvgl/src/draw/sw/../../misc/lv_color.h ****         uint16_t green_l : 3;
 219:Drivers/lvgl/src/draw/sw/../../misc/lv_color.h **** #endif
 220:Drivers/lvgl/src/draw/sw/../../misc/lv_color.h ****     } ch;
 221:Drivers/lvgl/src/draw/sw/../../misc/lv_color.h ****     uint16_t full;
 222:Drivers/lvgl/src/draw/sw/../../misc/lv_color.h **** } lv_color16_t;
 223:Drivers/lvgl/src/draw/sw/../../misc/lv_color.h **** 
 224:Drivers/lvgl/src/draw/sw/../../misc/lv_color.h **** typedef union {
 225:Drivers/lvgl/src/draw/sw/../../misc/lv_color.h ****     struct {
 226:Drivers/lvgl/src/draw/sw/../../misc/lv_color.h ****         uint8_t blue;
 227:Drivers/lvgl/src/draw/sw/../../misc/lv_color.h ****         uint8_t green;
 228:Drivers/lvgl/src/draw/sw/../../misc/lv_color.h ****         uint8_t red;
 229:Drivers/lvgl/src/draw/sw/../../misc/lv_color.h ****         uint8_t alpha;
 230:Drivers/lvgl/src/draw/sw/../../misc/lv_color.h ****     } ch;
 231:Drivers/lvgl/src/draw/sw/../../misc/lv_color.h ****     uint32_t full;
 232:Drivers/lvgl/src/draw/sw/../../misc/lv_color.h **** } lv_color32_t;
 233:Drivers/lvgl/src/draw/sw/../../misc/lv_color.h **** 
 234:Drivers/lvgl/src/draw/sw/../../misc/lv_color.h **** typedef LV_CONCAT3(uint, LV_COLOR_SIZE, _t) lv_color_int_t;
 235:Drivers/lvgl/src/draw/sw/../../misc/lv_color.h **** typedef LV_CONCAT3(lv_color, LV_COLOR_DEPTH, _t) lv_color_t;
 236:Drivers/lvgl/src/draw/sw/../../misc/lv_color.h **** 
 237:Drivers/lvgl/src/draw/sw/../../misc/lv_color.h **** typedef struct {
 238:Drivers/lvgl/src/draw/sw/../../misc/lv_color.h ****     uint16_t h;
 239:Drivers/lvgl/src/draw/sw/../../misc/lv_color.h ****     uint8_t s;
 240:Drivers/lvgl/src/draw/sw/../../misc/lv_color.h ****     uint8_t v;
 241:Drivers/lvgl/src/draw/sw/../../misc/lv_color.h **** } lv_color_hsv_t;
 242:Drivers/lvgl/src/draw/sw/../../misc/lv_color.h **** 
 243:Drivers/lvgl/src/draw/sw/../../misc/lv_color.h **** //! @cond Doxygen_Suppress
 244:Drivers/lvgl/src/draw/sw/../../misc/lv_color.h **** /*No idea where the guard is required but else throws warnings in the docs*/
 245:Drivers/lvgl/src/draw/sw/../../misc/lv_color.h **** typedef uint8_t lv_opa_t;
 246:Drivers/lvgl/src/draw/sw/../../misc/lv_color.h **** //! @endcond
 247:Drivers/lvgl/src/draw/sw/../../misc/lv_color.h **** 
 248:Drivers/lvgl/src/draw/sw/../../misc/lv_color.h **** struct _lv_color_filter_dsc_t;
 249:Drivers/lvgl/src/draw/sw/../../misc/lv_color.h **** 
 250:Drivers/lvgl/src/draw/sw/../../misc/lv_color.h **** typedef lv_color_t (*lv_color_filter_cb_t)(const struct _lv_color_filter_dsc_t *, lv_color_t, lv_op
 251:Drivers/lvgl/src/draw/sw/../../misc/lv_color.h **** 
 252:Drivers/lvgl/src/draw/sw/../../misc/lv_color.h **** typedef struct _lv_color_filter_dsc_t {
 253:Drivers/lvgl/src/draw/sw/../../misc/lv_color.h ****     lv_color_filter_cb_t filter_cb;
 254:Drivers/lvgl/src/draw/sw/../../misc/lv_color.h ****     void * user_data;
 255:Drivers/lvgl/src/draw/sw/../../misc/lv_color.h **** } lv_color_filter_dsc_t;
 256:Drivers/lvgl/src/draw/sw/../../misc/lv_color.h **** 
 257:Drivers/lvgl/src/draw/sw/../../misc/lv_color.h **** 
 258:Drivers/lvgl/src/draw/sw/../../misc/lv_color.h **** typedef enum {
 259:Drivers/lvgl/src/draw/sw/../../misc/lv_color.h ****     LV_PALETTE_RED,
 260:Drivers/lvgl/src/draw/sw/../../misc/lv_color.h ****     LV_PALETTE_PINK,
 261:Drivers/lvgl/src/draw/sw/../../misc/lv_color.h ****     LV_PALETTE_PURPLE,
 262:Drivers/lvgl/src/draw/sw/../../misc/lv_color.h ****     LV_PALETTE_DEEP_PURPLE,
 263:Drivers/lvgl/src/draw/sw/../../misc/lv_color.h ****     LV_PALETTE_INDIGO,
 264:Drivers/lvgl/src/draw/sw/../../misc/lv_color.h ****     LV_PALETTE_BLUE,
 265:Drivers/lvgl/src/draw/sw/../../misc/lv_color.h ****     LV_PALETTE_LIGHT_BLUE,
 266:Drivers/lvgl/src/draw/sw/../../misc/lv_color.h ****     LV_PALETTE_CYAN,
 267:Drivers/lvgl/src/draw/sw/../../misc/lv_color.h ****     LV_PALETTE_TEAL,
 268:Drivers/lvgl/src/draw/sw/../../misc/lv_color.h ****     LV_PALETTE_GREEN,
 269:Drivers/lvgl/src/draw/sw/../../misc/lv_color.h ****     LV_PALETTE_LIGHT_GREEN,
 270:Drivers/lvgl/src/draw/sw/../../misc/lv_color.h ****     LV_PALETTE_LIME,
ARM GAS  /var/folders/lp/x54gwt890xv47sdkqj1k04q40000gn/T//ccGMRBug.s 			page 17


 271:Drivers/lvgl/src/draw/sw/../../misc/lv_color.h ****     LV_PALETTE_YELLOW,
 272:Drivers/lvgl/src/draw/sw/../../misc/lv_color.h ****     LV_PALETTE_AMBER,
 273:Drivers/lvgl/src/draw/sw/../../misc/lv_color.h ****     LV_PALETTE_ORANGE,
 274:Drivers/lvgl/src/draw/sw/../../misc/lv_color.h ****     LV_PALETTE_DEEP_ORANGE,
 275:Drivers/lvgl/src/draw/sw/../../misc/lv_color.h ****     LV_PALETTE_BROWN,
 276:Drivers/lvgl/src/draw/sw/../../misc/lv_color.h ****     LV_PALETTE_BLUE_GREY,
 277:Drivers/lvgl/src/draw/sw/../../misc/lv_color.h ****     LV_PALETTE_GREY,
 278:Drivers/lvgl/src/draw/sw/../../misc/lv_color.h ****     _LV_PALETTE_LAST,
 279:Drivers/lvgl/src/draw/sw/../../misc/lv_color.h ****     LV_PALETTE_NONE = 0xff,
 280:Drivers/lvgl/src/draw/sw/../../misc/lv_color.h **** } lv_palette_t;
 281:Drivers/lvgl/src/draw/sw/../../misc/lv_color.h **** 
 282:Drivers/lvgl/src/draw/sw/../../misc/lv_color.h **** /**********************
 283:Drivers/lvgl/src/draw/sw/../../misc/lv_color.h ****  * GLOBAL PROTOTYPES
 284:Drivers/lvgl/src/draw/sw/../../misc/lv_color.h ****  **********************/
 285:Drivers/lvgl/src/draw/sw/../../misc/lv_color.h **** 
 286:Drivers/lvgl/src/draw/sw/../../misc/lv_color.h **** /*In color conversations:
 287:Drivers/lvgl/src/draw/sw/../../misc/lv_color.h ****  * - When converting to bigger color type the LSB weight of 1 LSB is calculated
 288:Drivers/lvgl/src/draw/sw/../../misc/lv_color.h ****  *   E.g. 16 bit Red has 5 bits
 289:Drivers/lvgl/src/draw/sw/../../misc/lv_color.h ****  *         8 bit Red has 3 bits
 290:Drivers/lvgl/src/draw/sw/../../misc/lv_color.h ****  *        ----------------------
 291:Drivers/lvgl/src/draw/sw/../../misc/lv_color.h ****  *        8 bit red LSB = (2^5 - 1) / (2^3 - 1) = 31 / 7 = 4
 292:Drivers/lvgl/src/draw/sw/../../misc/lv_color.h ****  *
 293:Drivers/lvgl/src/draw/sw/../../misc/lv_color.h ****  * - When calculating to smaller color type simply shift out the LSBs
 294:Drivers/lvgl/src/draw/sw/../../misc/lv_color.h ****  *   E.g.  8 bit Red has 3 bits
 295:Drivers/lvgl/src/draw/sw/../../misc/lv_color.h ****  *        16 bit Red has 5 bits
 296:Drivers/lvgl/src/draw/sw/../../misc/lv_color.h ****  *        ----------------------
 297:Drivers/lvgl/src/draw/sw/../../misc/lv_color.h ****  *         Shift right with 5 - 3 = 2
 298:Drivers/lvgl/src/draw/sw/../../misc/lv_color.h ****  */
 299:Drivers/lvgl/src/draw/sw/../../misc/lv_color.h **** static inline uint8_t lv_color_to1(lv_color_t color)
 300:Drivers/lvgl/src/draw/sw/../../misc/lv_color.h **** {
 301:Drivers/lvgl/src/draw/sw/../../misc/lv_color.h **** #if LV_COLOR_DEPTH == 1
 302:Drivers/lvgl/src/draw/sw/../../misc/lv_color.h ****     return color.full;
 303:Drivers/lvgl/src/draw/sw/../../misc/lv_color.h **** #elif LV_COLOR_DEPTH == 8
 304:Drivers/lvgl/src/draw/sw/../../misc/lv_color.h ****     if((LV_COLOR_GET_R(color) & 0x4) || (LV_COLOR_GET_G(color) & 0x4) || (LV_COLOR_GET_B(color) & 0
 305:Drivers/lvgl/src/draw/sw/../../misc/lv_color.h ****         return 1;
 306:Drivers/lvgl/src/draw/sw/../../misc/lv_color.h ****     }
 307:Drivers/lvgl/src/draw/sw/../../misc/lv_color.h ****     else {
 308:Drivers/lvgl/src/draw/sw/../../misc/lv_color.h ****         return 0;
 309:Drivers/lvgl/src/draw/sw/../../misc/lv_color.h ****     }
 310:Drivers/lvgl/src/draw/sw/../../misc/lv_color.h **** #elif LV_COLOR_DEPTH == 16
 311:Drivers/lvgl/src/draw/sw/../../misc/lv_color.h ****     if((LV_COLOR_GET_R(color) & 0x10) || (LV_COLOR_GET_G(color) & 0x20) || (LV_COLOR_GET_B(color) &
 312:Drivers/lvgl/src/draw/sw/../../misc/lv_color.h ****         return 1;
 313:Drivers/lvgl/src/draw/sw/../../misc/lv_color.h ****     }
 314:Drivers/lvgl/src/draw/sw/../../misc/lv_color.h ****     else {
 315:Drivers/lvgl/src/draw/sw/../../misc/lv_color.h ****         return 0;
 316:Drivers/lvgl/src/draw/sw/../../misc/lv_color.h ****     }
 317:Drivers/lvgl/src/draw/sw/../../misc/lv_color.h **** #elif LV_COLOR_DEPTH == 32
 318:Drivers/lvgl/src/draw/sw/../../misc/lv_color.h ****     if((LV_COLOR_GET_R(color) & 0x80) || (LV_COLOR_GET_G(color) & 0x80) || (LV_COLOR_GET_B(color) &
 319:Drivers/lvgl/src/draw/sw/../../misc/lv_color.h ****         return 1;
 320:Drivers/lvgl/src/draw/sw/../../misc/lv_color.h ****     }
 321:Drivers/lvgl/src/draw/sw/../../misc/lv_color.h ****     else {
 322:Drivers/lvgl/src/draw/sw/../../misc/lv_color.h ****         return 0;
 323:Drivers/lvgl/src/draw/sw/../../misc/lv_color.h ****     }
 324:Drivers/lvgl/src/draw/sw/../../misc/lv_color.h **** #endif
 325:Drivers/lvgl/src/draw/sw/../../misc/lv_color.h **** }
 326:Drivers/lvgl/src/draw/sw/../../misc/lv_color.h **** 
 327:Drivers/lvgl/src/draw/sw/../../misc/lv_color.h **** static inline uint8_t lv_color_to8(lv_color_t color)
ARM GAS  /var/folders/lp/x54gwt890xv47sdkqj1k04q40000gn/T//ccGMRBug.s 			page 18


 328:Drivers/lvgl/src/draw/sw/../../misc/lv_color.h **** {
 329:Drivers/lvgl/src/draw/sw/../../misc/lv_color.h **** #if LV_COLOR_DEPTH == 1
 330:Drivers/lvgl/src/draw/sw/../../misc/lv_color.h ****     if(color.full == 0)
 331:Drivers/lvgl/src/draw/sw/../../misc/lv_color.h ****         return 0;
 332:Drivers/lvgl/src/draw/sw/../../misc/lv_color.h ****     else
 333:Drivers/lvgl/src/draw/sw/../../misc/lv_color.h ****         return 0xFF;
 334:Drivers/lvgl/src/draw/sw/../../misc/lv_color.h **** #elif LV_COLOR_DEPTH == 8
 335:Drivers/lvgl/src/draw/sw/../../misc/lv_color.h ****     return color.full;
 336:Drivers/lvgl/src/draw/sw/../../misc/lv_color.h **** #elif LV_COLOR_DEPTH == 16
 337:Drivers/lvgl/src/draw/sw/../../misc/lv_color.h ****     lv_color8_t ret;
 338:Drivers/lvgl/src/draw/sw/../../misc/lv_color.h ****     LV_COLOR_SET_R8(ret, LV_COLOR_GET_R(color) >> 2); /*5 - 3  = 2*/
 339:Drivers/lvgl/src/draw/sw/../../misc/lv_color.h ****     LV_COLOR_SET_G8(ret, LV_COLOR_GET_G(color) >> 3); /*6 - 3  = 3*/
 340:Drivers/lvgl/src/draw/sw/../../misc/lv_color.h ****     LV_COLOR_SET_B8(ret, LV_COLOR_GET_B(color) >> 3); /*5 - 2  = 3*/
 341:Drivers/lvgl/src/draw/sw/../../misc/lv_color.h ****     return ret.full;
 342:Drivers/lvgl/src/draw/sw/../../misc/lv_color.h **** #elif LV_COLOR_DEPTH == 32
 343:Drivers/lvgl/src/draw/sw/../../misc/lv_color.h ****     lv_color8_t ret;
 344:Drivers/lvgl/src/draw/sw/../../misc/lv_color.h ****     LV_COLOR_SET_R8(ret, LV_COLOR_GET_R(color) >> 5); /*8 - 3  = 5*/
 345:Drivers/lvgl/src/draw/sw/../../misc/lv_color.h ****     LV_COLOR_SET_G8(ret, LV_COLOR_GET_G(color) >> 5); /*8 - 3  = 5*/
 346:Drivers/lvgl/src/draw/sw/../../misc/lv_color.h ****     LV_COLOR_SET_B8(ret, LV_COLOR_GET_B(color) >> 6); /*8 - 2  = 6*/
 347:Drivers/lvgl/src/draw/sw/../../misc/lv_color.h ****     return ret.full;
 348:Drivers/lvgl/src/draw/sw/../../misc/lv_color.h **** #endif
 349:Drivers/lvgl/src/draw/sw/../../misc/lv_color.h **** }
 350:Drivers/lvgl/src/draw/sw/../../misc/lv_color.h **** 
 351:Drivers/lvgl/src/draw/sw/../../misc/lv_color.h **** static inline uint16_t lv_color_to16(lv_color_t color)
 352:Drivers/lvgl/src/draw/sw/../../misc/lv_color.h **** {
 353:Drivers/lvgl/src/draw/sw/../../misc/lv_color.h **** #if LV_COLOR_DEPTH == 1
 354:Drivers/lvgl/src/draw/sw/../../misc/lv_color.h ****     if(color.full == 0)
 355:Drivers/lvgl/src/draw/sw/../../misc/lv_color.h ****         return 0;
 356:Drivers/lvgl/src/draw/sw/../../misc/lv_color.h ****     else
 357:Drivers/lvgl/src/draw/sw/../../misc/lv_color.h ****         return 0xFFFF;
 358:Drivers/lvgl/src/draw/sw/../../misc/lv_color.h **** #elif LV_COLOR_DEPTH == 8
 359:Drivers/lvgl/src/draw/sw/../../misc/lv_color.h ****     lv_color16_t ret;
 360:Drivers/lvgl/src/draw/sw/../../misc/lv_color.h ****     LV_COLOR_SET_R16(ret, LV_COLOR_GET_R(color) * 4);  /*(2^5 - 1)/(2^3 - 1) = 31/7 = 4*/
 361:Drivers/lvgl/src/draw/sw/../../misc/lv_color.h ****     LV_COLOR_SET_G16(ret, LV_COLOR_GET_G(color) * 9);  /*(2^6 - 1)/(2^3 - 1) = 63/7 = 9*/
 362:Drivers/lvgl/src/draw/sw/../../misc/lv_color.h ****     LV_COLOR_SET_B16(ret, LV_COLOR_GET_B(color) * 10); /*(2^5 - 1)/(2^2 - 1) = 31/3 = 10*/
 363:Drivers/lvgl/src/draw/sw/../../misc/lv_color.h ****     return ret.full;
 364:Drivers/lvgl/src/draw/sw/../../misc/lv_color.h **** #elif LV_COLOR_DEPTH == 16
 365:Drivers/lvgl/src/draw/sw/../../misc/lv_color.h ****     return color.full;
 366:Drivers/lvgl/src/draw/sw/../../misc/lv_color.h **** #elif LV_COLOR_DEPTH == 32
 367:Drivers/lvgl/src/draw/sw/../../misc/lv_color.h ****     lv_color16_t ret;
 368:Drivers/lvgl/src/draw/sw/../../misc/lv_color.h ****     LV_COLOR_SET_R16(ret, LV_COLOR_GET_R(color) >> 3); /*8 - 5  = 3*/
 369:Drivers/lvgl/src/draw/sw/../../misc/lv_color.h ****     LV_COLOR_SET_G16(ret, LV_COLOR_GET_G(color) >> 2); /*8 - 6  = 2*/
 370:Drivers/lvgl/src/draw/sw/../../misc/lv_color.h ****     LV_COLOR_SET_B16(ret, LV_COLOR_GET_B(color) >> 3); /*8 - 5  = 3*/
 371:Drivers/lvgl/src/draw/sw/../../misc/lv_color.h ****     return ret.full;
 372:Drivers/lvgl/src/draw/sw/../../misc/lv_color.h **** #endif
 373:Drivers/lvgl/src/draw/sw/../../misc/lv_color.h **** }
 374:Drivers/lvgl/src/draw/sw/../../misc/lv_color.h **** 
 375:Drivers/lvgl/src/draw/sw/../../misc/lv_color.h **** static inline uint32_t lv_color_to32(lv_color_t color)
 376:Drivers/lvgl/src/draw/sw/../../misc/lv_color.h **** {
 377:Drivers/lvgl/src/draw/sw/../../misc/lv_color.h **** #if LV_COLOR_DEPTH == 1
 378:Drivers/lvgl/src/draw/sw/../../misc/lv_color.h ****     if(color.full == 0)
 379:Drivers/lvgl/src/draw/sw/../../misc/lv_color.h ****         return 0xFF000000;
 380:Drivers/lvgl/src/draw/sw/../../misc/lv_color.h ****     else
 381:Drivers/lvgl/src/draw/sw/../../misc/lv_color.h ****         return 0xFFFFFFFF;
 382:Drivers/lvgl/src/draw/sw/../../misc/lv_color.h **** #elif LV_COLOR_DEPTH == 8
 383:Drivers/lvgl/src/draw/sw/../../misc/lv_color.h ****     lv_color32_t ret;
 384:Drivers/lvgl/src/draw/sw/../../misc/lv_color.h ****     LV_COLOR_SET_R32(ret, LV_COLOR_GET_R(color) * 36); /*(2^8 - 1)/(2^3 - 1) = 255/7 = 36*/
ARM GAS  /var/folders/lp/x54gwt890xv47sdkqj1k04q40000gn/T//ccGMRBug.s 			page 19


 385:Drivers/lvgl/src/draw/sw/../../misc/lv_color.h ****     LV_COLOR_SET_G32(ret, LV_COLOR_GET_G(color) * 36); /*(2^8 - 1)/(2^3 - 1) = 255/7 = 36*/
 386:Drivers/lvgl/src/draw/sw/../../misc/lv_color.h ****     LV_COLOR_SET_B32(ret, LV_COLOR_GET_B(color) * 85); /*(2^8 - 1)/(2^2 - 1) = 255/3 = 85*/
 387:Drivers/lvgl/src/draw/sw/../../misc/lv_color.h ****     LV_COLOR_SET_A32(ret, 0xFF);
 388:Drivers/lvgl/src/draw/sw/../../misc/lv_color.h ****     return ret.full;
 389:Drivers/lvgl/src/draw/sw/../../misc/lv_color.h **** #elif LV_COLOR_DEPTH == 16
 390:Drivers/lvgl/src/draw/sw/../../misc/lv_color.h ****     /**
 391:Drivers/lvgl/src/draw/sw/../../misc/lv_color.h ****      * The floating point math for conversion is:
 392:Drivers/lvgl/src/draw/sw/../../misc/lv_color.h ****      *  valueto = valuefrom * ( (2^bitsto - 1) / (float)(2^bitsfrom - 1) )
 393:Drivers/lvgl/src/draw/sw/../../misc/lv_color.h ****      * The faster integer math for conversion is:
 394:Drivers/lvgl/src/draw/sw/../../misc/lv_color.h ****      *  valueto = ( valuefrom * multiplier + adder ) >> divisor
 395:Drivers/lvgl/src/draw/sw/../../misc/lv_color.h ****      *   multiplier = FLOOR( ( (2^bitsto - 1) << divisor ) / (float)(2^bitsfrom - 1) )
 396:Drivers/lvgl/src/draw/sw/../../misc/lv_color.h ****      *
 397:Drivers/lvgl/src/draw/sw/../../misc/lv_color.h ****      * Find the first divisor where ( adder >> divisor ) <= 0
 398:Drivers/lvgl/src/draw/sw/../../misc/lv_color.h ****      *
 399:Drivers/lvgl/src/draw/sw/../../misc/lv_color.h ****      * 5-bit to 8-bit: ( 31 * multiplier + adder ) >> divisor = 255
 400:Drivers/lvgl/src/draw/sw/../../misc/lv_color.h ****      * divisor  multiplier  adder  min (0)  max (31)
 401:Drivers/lvgl/src/draw/sw/../../misc/lv_color.h ****      *       0           8      7        7       255
 402:Drivers/lvgl/src/draw/sw/../../misc/lv_color.h ****      *       1          16     14        7       255
 403:Drivers/lvgl/src/draw/sw/../../misc/lv_color.h ****      *       2          32     28        7       255
 404:Drivers/lvgl/src/draw/sw/../../misc/lv_color.h ****      *       3          65     25        3       255
 405:Drivers/lvgl/src/draw/sw/../../misc/lv_color.h ****      *       4         131     19        1       255
 406:Drivers/lvgl/src/draw/sw/../../misc/lv_color.h ****      *       5         263      7        0       255
 407:Drivers/lvgl/src/draw/sw/../../misc/lv_color.h ****      *
 408:Drivers/lvgl/src/draw/sw/../../misc/lv_color.h ****      * 6-bit to 8-bit: 255 = ( 63 * multiplier + adder ) >> divisor
 409:Drivers/lvgl/src/draw/sw/../../misc/lv_color.h ****      * divisor  multiplier  adder  min (0)  max (63)
 410:Drivers/lvgl/src/draw/sw/../../misc/lv_color.h ****      *       0           4      3        3       255
 411:Drivers/lvgl/src/draw/sw/../../misc/lv_color.h ****      *       1           8      6        3       255
 412:Drivers/lvgl/src/draw/sw/../../misc/lv_color.h ****      *       2          16     12        3       255
 413:Drivers/lvgl/src/draw/sw/../../misc/lv_color.h ****      *       3          32     24        3       255
 414:Drivers/lvgl/src/draw/sw/../../misc/lv_color.h ****      *       4          64     48        3       255
 415:Drivers/lvgl/src/draw/sw/../../misc/lv_color.h ****      *       5         129     33        1       255
 416:Drivers/lvgl/src/draw/sw/../../misc/lv_color.h ****      *       6         259      3        0       255
 417:Drivers/lvgl/src/draw/sw/../../misc/lv_color.h ****      */
 418:Drivers/lvgl/src/draw/sw/../../misc/lv_color.h **** 
 419:Drivers/lvgl/src/draw/sw/../../misc/lv_color.h ****     lv_color32_t ret;
 420:Drivers/lvgl/src/draw/sw/../../misc/lv_color.h ****     LV_COLOR_SET_R32(ret, (LV_COLOR_GET_R(color) * 263 + 7) >> 5);
 421:Drivers/lvgl/src/draw/sw/../../misc/lv_color.h ****     LV_COLOR_SET_G32(ret, (LV_COLOR_GET_G(color) * 259 + 3) >> 6);
 280              		.loc 2 421 5 view .LVU86
 281 0062 C000     		lsls	r0, r0, #3
 420:Drivers/lvgl/src/draw/sw/../../misc/lv_color.h ****     LV_COLOR_SET_G32(ret, (LV_COLOR_GET_G(color) * 259 + 3) >> 6);
 282              		.loc 2 420 5 view .LVU87
 283 0064 F608     		lsrs	r6, r6, #3
 284              		.loc 2 421 5 view .LVU88
 285 0066 00EB5110 		add	r0, r0, r1, lsr #5
 420:Drivers/lvgl/src/draw/sw/../../misc/lv_color.h ****     LV_COLOR_SET_G32(ret, (LV_COLOR_GET_G(color) * 259 + 3) >> 6);
 286              		.loc 2 420 5 view .LVU89
 287 006a 06EB461C 		add	ip, r6, r6, lsl #5
 288              	.LVL21:
 420:Drivers/lvgl/src/draw/sw/../../misc/lv_color.h ****     LV_COLOR_SET_G32(ret, (LV_COLOR_GET_G(color) * 259 + 3) >> 6);
 289              		.loc 2 420 5 view .LVU90
 290 006e 04F00702 		and	r2, r4, #7
 291 0072 C6EBCC06 		rsb	r6, r6, ip, lsl #3
 292              	.LBE29:
 293              	.LBE28:
 294              	.LBB36:
 295              	.LBB37:
 296 0076 E408     		lsrs	r4, r4, #3
ARM GAS  /var/folders/lp/x54gwt890xv47sdkqj1k04q40000gn/T//ccGMRBug.s 			page 20


 297              	.LBE37:
 298              	.LBE36:
 299              	.LBB44:
 300              	.LBB30:
 301              		.loc 2 421 5 view .LVU91
 302 0078 00EBC01C 		add	ip, r0, r0, lsl #7
 303 007c 01F01F01 		and	r1, r1, #31
 304 0080 00EB4C0C 		add	ip, r0, ip, lsl #1
 305              	.LBE30:
 306              	.LBE44:
 307              	.LBB45:
 308              	.LBB38:
 309 0084 D200     		lsls	r2, r2, #3
 420:Drivers/lvgl/src/draw/sw/../../misc/lv_color.h ****     LV_COLOR_SET_G32(ret, (LV_COLOR_GET_G(color) * 259 + 3) >> 6);
 310              		.loc 2 420 5 view .LVU92
 311 0086 04EB4410 		add	r0, r4, r4, lsl #5
 312              		.loc 2 421 5 view .LVU93
 313 008a 02EB5512 		add	r2, r2, r5, lsr #5
 420:Drivers/lvgl/src/draw/sw/../../misc/lv_color.h ****     LV_COLOR_SET_G32(ret, (LV_COLOR_GET_G(color) * 259 + 3) >> 6);
 314              		.loc 2 420 5 view .LVU94
 315 008e C4EBC004 		rsb	r4, r4, r0, lsl #3
 316              	.LBE38:
 317              	.LBE45:
 318              	.LBB46:
 319              	.LBB31:
 422:Drivers/lvgl/src/draw/sw/../../misc/lv_color.h ****     LV_COLOR_SET_B32(ret, (LV_COLOR_GET_B(color) * 263 + 7) >> 5);
 320              		.loc 2 422 5 view .LVU95
 321 0092 01EB4110 		add	r0, r1, r1, lsl #5
 322 0096 C1EBC001 		rsb	r1, r1, r0, lsl #3
 420:Drivers/lvgl/src/draw/sw/../../misc/lv_color.h ****     LV_COLOR_SET_G32(ret, (LV_COLOR_GET_G(color) * 259 + 3) >> 6);
 323              		.loc 2 420 5 view .LVU96
 324 009a 0736     		adds	r6, r6, #7
 325              	.LBE31:
 326              	.LBE46:
 327              	.LBB47:
 328              	.LBB39:
 421:Drivers/lvgl/src/draw/sw/../../misc/lv_color.h ****     LV_COLOR_SET_B32(ret, (LV_COLOR_GET_B(color) * 263 + 7) >> 5);
 329              		.loc 2 421 5 view .LVU97
 330 009c 02EBC210 		add	r0, r2, r2, lsl #7
 331              	.LBE39:
 332              	.LBE47:
 333              	.LBB48:
 334              	.LBB32:
 420:Drivers/lvgl/src/draw/sw/../../misc/lv_color.h ****     LV_COLOR_SET_G32(ret, (LV_COLOR_GET_G(color) * 259 + 3) >> 6);
 335              		.loc 2 420 5 view .LVU98
 336 00a0 7611     		asrs	r6, r6, #5
 337              	.LBE32:
 338              	.LBE48:
 339              	.LBB49:
 340              	.LBB40:
 421:Drivers/lvgl/src/draw/sw/../../misc/lv_color.h ****     LV_COLOR_SET_B32(ret, (LV_COLOR_GET_B(color) * 263 + 7) >> 5);
 341              		.loc 2 421 5 view .LVU99
 342 00a2 02EB4000 		add	r0, r2, r0, lsl #1
 343              	.LBE40:
 344              	.LBE49:
 345              	.LBB50:
 346              	.LBB33:
ARM GAS  /var/folders/lp/x54gwt890xv47sdkqj1k04q40000gn/T//ccGMRBug.s 			page 21


 347 00a6 0CF1030C 		add	ip, ip, #3
 420:Drivers/lvgl/src/draw/sw/../../misc/lv_color.h ****     LV_COLOR_SET_G32(ret, (LV_COLOR_GET_G(color) * 259 + 3) >> 6);
 348              		.loc 2 420 5 view .LVU100
 349 00aa 0022     		movs	r2, #0
 350              	.LVL22:
 421:Drivers/lvgl/src/draw/sw/../../misc/lv_color.h ****     LV_COLOR_SET_B32(ret, (LV_COLOR_GET_B(color) * 263 + 7) >> 5);
 351              		.loc 2 421 5 view .LVU101
 352 00ac 4FEAAC1C 		asr	ip, ip, #6
 420:Drivers/lvgl/src/draw/sw/../../misc/lv_color.h ****     LV_COLOR_SET_G32(ret, (LV_COLOR_GET_G(color) * 259 + 3) >> 6);
 353              		.loc 2 420 5 view .LVU102
 354 00b0 66F31742 		bfi	r2, r6, #16, #8
 355              	.LVL23:
 356              		.loc 2 422 5 view .LVU103
 357 00b4 0731     		adds	r1, r1, #7
 358 00b6 05F01F05 		and	r5, r5, #31
 359 00ba 4911     		asrs	r1, r1, #5
 421:Drivers/lvgl/src/draw/sw/../../misc/lv_color.h ****     LV_COLOR_SET_B32(ret, (LV_COLOR_GET_B(color) * 263 + 7) >> 5);
 360              		.loc 2 421 5 view .LVU104
 361 00bc 6CF30F22 		bfi	r2, ip, #8, #8
 362              		.loc 2 422 5 view .LVU105
 363 00c0 61F30702 		bfi	r2, r1, #0, #8
 364              	.LBE33:
 365              	.LBE50:
 366              	.LBB51:
 367              	.LBB41:
 420:Drivers/lvgl/src/draw/sw/../../misc/lv_color.h ****     LV_COLOR_SET_G32(ret, (LV_COLOR_GET_G(color) * 259 + 3) >> 6);
 368              		.loc 2 420 5 view .LVU106
 369 00c4 0734     		adds	r4, r4, #7
 370              		.loc 2 422 5 view .LVU107
 371 00c6 05EB4511 		add	r1, r5, r5, lsl #5
 420:Drivers/lvgl/src/draw/sw/../../misc/lv_color.h ****     LV_COLOR_SET_G32(ret, (LV_COLOR_GET_G(color) * 259 + 3) >> 6);
 372              		.loc 2 420 5 view .LVU108
 373 00ca 6411     		asrs	r4, r4, #5
 374              		.loc 2 422 5 view .LVU109
 375 00cc C5EBC101 		rsb	r1, r5, r1, lsl #3
 421:Drivers/lvgl/src/draw/sw/../../misc/lv_color.h ****     LV_COLOR_SET_B32(ret, (LV_COLOR_GET_B(color) * 263 + 7) >> 5);
 376              		.loc 2 421 5 view .LVU110
 377 00d0 0330     		adds	r0, r0, #3
 420:Drivers/lvgl/src/draw/sw/../../misc/lv_color.h ****     LV_COLOR_SET_G32(ret, (LV_COLOR_GET_G(color) * 259 + 3) >> 6);
 378              		.loc 2 420 5 view .LVU111
 379 00d2 4FF0000C 		mov	ip, #0
 380              	.LVL24:
 421:Drivers/lvgl/src/draw/sw/../../misc/lv_color.h ****     LV_COLOR_SET_B32(ret, (LV_COLOR_GET_B(color) * 263 + 7) >> 5);
 381              		.loc 2 421 5 view .LVU112
 382 00d6 8011     		asrs	r0, r0, #6
 420:Drivers/lvgl/src/draw/sw/../../misc/lv_color.h ****     LV_COLOR_SET_G32(ret, (LV_COLOR_GET_G(color) * 259 + 3) >> 6);
 383              		.loc 2 420 5 view .LVU113
 384 00d8 64F3174C 		bfi	ip, r4, #16, #8
 385              	.LVL25:
 386              		.loc 2 422 5 view .LVU114
 387 00dc 0731     		adds	r1, r1, #7
 388 00de 4911     		asrs	r1, r1, #5
 421:Drivers/lvgl/src/draw/sw/../../misc/lv_color.h ****     LV_COLOR_SET_B32(ret, (LV_COLOR_GET_B(color) * 263 + 7) >> 5);
 389              		.loc 2 421 5 view .LVU115
 390 00e0 60F30F2C 		bfi	ip, r0, #8, #8
 391              	.LBE41:
 392              	.LBE51:
ARM GAS  /var/folders/lp/x54gwt890xv47sdkqj1k04q40000gn/T//ccGMRBug.s 			page 22


 393              	.LBB52:
 394              	.LBB34:
 423:Drivers/lvgl/src/draw/sw/../../misc/lv_color.h ****     LV_COLOR_SET_A32(ret, 0xFF);
 395              		.loc 2 423 5 view .LVU116
 396 00e4 42F07F42 		orr	r2, r2, #-16777216
 397              	.LVL26:
 398              		.loc 2 423 5 view .LVU117
 399              	.LBE34:
 400              	.LBE52:
 401              	.LBE58:
 402              	.LBE63:
 333:Drivers/lvgl/src/draw/sw/lv_draw_sw_gradient.c **** 
 403              		.loc 1 333 14 view .LVU118
 404 00e8 6FEA030E 		mvn	lr, r3
 405              	.LBB64:
 406              	.LBB59:
 407              	.LBB53:
 408              	.LBB42:
 422:Drivers/lvgl/src/draw/sw/../../misc/lv_color.h ****     LV_COLOR_SET_A32(ret, 0xFF);
 409              		.loc 2 422 5 view .LVU119
 410 00ec 61F3070C 		bfi	ip, r1, #0, #8
 411              	.LBE42:
 412              	.LBE53:
 413              	.LBE59:
 414              	.LBE64:
 333:Drivers/lvgl/src/draw/sw/lv_draw_sw_gradient.c **** 
 415              		.loc 1 333 14 view .LVU120
 416 00f0 5FFA8EFE 		uxtb	lr, lr
 417              	.LVL27:
 418              	.LBB65:
 419              	.LBB60:
 420              	.LBB54:
 421              	.LBI28:
 375:Drivers/lvgl/src/draw/sw/../../misc/lv_color.h **** {
 422              		.loc 2 375 24 is_stmt 1 view .LVU121
 423              	.LBB35:
 419:Drivers/lvgl/src/draw/sw/../../misc/lv_color.h ****     LV_COLOR_SET_R32(ret, (LV_COLOR_GET_R(color) * 263 + 7) >> 5);
 424              		.loc 2 419 5 view .LVU122
 420:Drivers/lvgl/src/draw/sw/../../misc/lv_color.h ****     LV_COLOR_SET_G32(ret, (LV_COLOR_GET_G(color) * 259 + 3) >> 6);
 425              		.loc 2 420 5 view .LVU123
 421:Drivers/lvgl/src/draw/sw/../../misc/lv_color.h ****     LV_COLOR_SET_B32(ret, (LV_COLOR_GET_B(color) * 263 + 7) >> 5);
 426              		.loc 2 421 5 view .LVU124
 422:Drivers/lvgl/src/draw/sw/../../misc/lv_color.h ****     LV_COLOR_SET_A32(ret, 0xFF);
 427              		.loc 2 422 5 view .LVU125
 428              		.loc 2 423 5 view .LVU126
 424:Drivers/lvgl/src/draw/sw/../../misc/lv_color.h ****     return ret.full;
 429              		.loc 2 424 5 view .LVU127
 430              		.loc 2 424 5 is_stmt 0 view .LVU128
 431              	.LBE35:
 432              	.LBE54:
 320:Drivers/lvgl/src/draw/sw/lv_draw_sw_gradient.c ****             min = (dsc->stops[i - 1].frac * range) >> 8;
 433              		.loc 1 320 13 is_stmt 1 view .LVU129
 434              	.LBB55:
 435              	.LBI36:
 375:Drivers/lvgl/src/draw/sw/../../misc/lv_color.h **** {
 436              		.loc 2 375 24 view .LVU130
 437              	.LBB43:
ARM GAS  /var/folders/lp/x54gwt890xv47sdkqj1k04q40000gn/T//ccGMRBug.s 			page 23


 419:Drivers/lvgl/src/draw/sw/../../misc/lv_color.h ****     LV_COLOR_SET_R32(ret, (LV_COLOR_GET_R(color) * 263 + 7) >> 5);
 438              		.loc 2 419 5 view .LVU131
 420:Drivers/lvgl/src/draw/sw/../../misc/lv_color.h ****     LV_COLOR_SET_G32(ret, (LV_COLOR_GET_G(color) * 259 + 3) >> 6);
 439              		.loc 2 420 5 view .LVU132
 421:Drivers/lvgl/src/draw/sw/../../misc/lv_color.h ****     LV_COLOR_SET_B32(ret, (LV_COLOR_GET_B(color) * 263 + 7) >> 5);
 440              		.loc 2 421 5 view .LVU133
 422:Drivers/lvgl/src/draw/sw/../../misc/lv_color.h ****     LV_COLOR_SET_A32(ret, 0xFF);
 441              		.loc 2 422 5 view .LVU134
 423:Drivers/lvgl/src/draw/sw/../../misc/lv_color.h ****     return ret.full;
 442              		.loc 2 423 5 view .LVU135
 443 00f4 4CF07F4C 		orr	ip, ip, #-16777216
 444              	.LVL28:
 445              		.loc 2 424 5 view .LVU136
 446              		.loc 2 424 5 is_stmt 0 view .LVU137
 447              	.LBE43:
 448              	.LBE55:
 321:Drivers/lvgl/src/draw/sw/lv_draw_sw_gradient.c ****             max = (dsc->stops[i].frac * range) >> 8;
 449              		.loc 1 321 13 is_stmt 1 view .LVU138
 322:Drivers/lvgl/src/draw/sw/lv_draw_sw_gradient.c ****             d = max - min;
 450              		.loc 1 322 13 view .LVU139
 323:Drivers/lvgl/src/draw/sw/lv_draw_sw_gradient.c ****             break;
 451              		.loc 1 323 13 view .LVU140
 324:Drivers/lvgl/src/draw/sw/lv_draw_sw_gradient.c ****         }
 452              		.loc 1 324 13 view .LVU141
 324:Drivers/lvgl/src/draw/sw/lv_draw_sw_gradient.c ****         }
 453              		.loc 1 324 13 is_stmt 0 view .LVU142
 454              	.LBE60:
 455              	.LBE65:
 328:Drivers/lvgl/src/draw/sw/lv_draw_sw_gradient.c **** 
 456              		.loc 1 328 5 is_stmt 1 view .LVU143
 328:Drivers/lvgl/src/draw/sw/lv_draw_sw_gradient.c **** 
 457              		.loc 1 328 5 view .LVU144
 328:Drivers/lvgl/src/draw/sw/lv_draw_sw_gradient.c **** 
 458              		.loc 1 328 5 discriminator 2 view .LVU145
 331:Drivers/lvgl/src/draw/sw/lv_draw_sw_gradient.c ****     lv_opa_t mix = (frac * 255) / d;
 459              		.loc 1 331 5 view .LVU146
 332:Drivers/lvgl/src/draw/sw/lv_draw_sw_gradient.c ****     lv_opa_t imix = 255 - mix;
 460              		.loc 1 332 5 view .LVU147
 333:Drivers/lvgl/src/draw/sw/lv_draw_sw_gradient.c **** 
 461              		.loc 1 333 5 view .LVU148
 335:Drivers/lvgl/src/draw/sw/lv_draw_sw_gradient.c ****                                 LV_UDIV255(two.ch.green * mix + one.ch.green * imix),
 462              		.loc 1 335 5 view .LVU149
 335:Drivers/lvgl/src/draw/sw/lv_draw_sw_gradient.c ****                                 LV_UDIV255(two.ch.green * mix + one.ch.green * imix),
 463              		.loc 1 335 25 is_stmt 0 view .LVU150
 464 00f8 C2F30721 		ubfx	r1, r2, #8, #8
 465 00fc DBB2     		uxtb	r3, r3
 466              	.LVL29:
 335:Drivers/lvgl/src/draw/sw/lv_draw_sw_gradient.c ****                                 LV_UDIV255(two.ch.green * mix + one.ch.green * imix),
 467              		.loc 1 335 25 view .LVU151
 468 00fe CCF30724 		ubfx	r4, ip, #8, #8
 469 0102 11FB0EF1 		smulbb	r1, r1, lr
 470 0106 C2F30740 		ubfx	r0, r2, #16, #8
 471 010a D2B2     		uxtb	r2, r2
 472              	.LVL30:
 335:Drivers/lvgl/src/draw/sw/lv_draw_sw_gradient.c ****                                 LV_UDIV255(two.ch.green * mix + one.ch.green * imix),
 473              		.loc 1 335 25 view .LVU152
 474 010c 03FB0411 		mla	r1, r3, r4, r1
ARM GAS  /var/folders/lp/x54gwt890xv47sdkqj1k04q40000gn/T//ccGMRBug.s 			page 24


 475 0110 0EFB02F2 		mul	r2, lr, r2
 476 0114 CCF30744 		ubfx	r4, ip, #16, #8
 477 0118 10FB0EF0 		smulbb	r0, r0, lr
 478 011c 5FFA8CFC 		uxtb	ip, ip
 479              	.LVL31:
 335:Drivers/lvgl/src/draw/sw/lv_draw_sw_gradient.c ****                                 LV_UDIV255(two.ch.green * mix + one.ch.green * imix),
 480              		.loc 1 335 25 view .LVU153
 481 0120 03FB0400 		mla	r0, r3, r4, r0
 482 0124 03FB0C23 		mla	r3, r3, ip, r2
 483 0128 03EB0322 		add	r2, r3, r3, lsl #8
 484 012c 03EBC213 		add	r3, r3, r2, lsl #7
 485 0130 01EB0122 		add	r2, r1, r1, lsl #8
 486 0134 01EBC211 		add	r1, r1, r2, lsl #7
 487              	.LVL32:
 338:Drivers/lvgl/src/draw/sw/lv_draw_sw_gradient.c **** }
 488              		.loc 1 338 5 is_stmt 1 view .LVU154
 335:Drivers/lvgl/src/draw/sw/lv_draw_sw_gradient.c ****                                 LV_UDIV255(two.ch.green * mix + one.ch.green * imix),
 489              		.loc 1 335 25 is_stmt 0 view .LVU155
 490 0138 00EB0022 		add	r2, r0, r0, lsl #8
 491 013c 00EBC210 		add	r0, r0, r2, lsl #7
 338:Drivers/lvgl/src/draw/sw/lv_draw_sw_gradient.c **** }
 492              		.loc 1 338 12 view .LVU156
 493 0140 C0F38460 		ubfx	r0, r0, #26, #5
 494 0144 C1F30272 		ubfx	r2, r1, #28, #3
 495 0148 C3F38463 		ubfx	r3, r3, #26, #5
 496 014c 42EAC000 		orr	r0, r2, r0, lsl #3
 497 0150 40EA0320 		orr	r0, r0, r3, lsl #8
 335:Drivers/lvgl/src/draw/sw/lv_draw_sw_gradient.c ****                                 LV_UDIV255(two.ch.green * mix + one.ch.green * imix),
 498              		.loc 1 335 25 view .LVU157
 499 0154 490E     		lsrs	r1, r1, #25
 500              	.LVL33:
 338:Drivers/lvgl/src/draw/sw/lv_draw_sw_gradient.c **** }
 501              		.loc 1 338 12 view .LVU158
 502 0156 40EA4130 		orr	r0, r0, r1, lsl #13
 503              	.LVL34:
 504              		.loc 1 339 1 view .LVU159
 505 015a 70BD     		pop	{r4, r5, r6, pc}
 506              	.LVL35:
 507              	.L22:
 508              		.cfi_def_cfa_offset 0
 509              		.cfi_restore 4
 510              		.cfi_restore 5
 511              		.cfi_restore 6
 512              		.cfi_restore 14
 304:Drivers/lvgl/src/draw/sw/lv_draw_sw_gradient.c ****         return tmp;
 513              		.loc 1 304 9 is_stmt 1 view .LVU160
 514 015c 0088     		ldrh	r0, [r0]
 515              	.LVL36:
 305:Drivers/lvgl/src/draw/sw/lv_draw_sw_gradient.c ****     }
 516              		.loc 1 305 9 view .LVU161
 517              		.loc 1 339 1 is_stmt 0 view .LVU162
 518 015e 7047     		bx	lr
 519              		.cfi_endproc
 520              	.LFE68:
 522              		.section	.text.lv_gradient_get,"ax",%progbits
 523              		.align	1
 524              		.p2align 2,,3
ARM GAS  /var/folders/lp/x54gwt890xv47sdkqj1k04q40000gn/T//ccGMRBug.s 			page 25


 525              		.global	lv_gradient_get
 526              		.syntax unified
 527              		.thumb
 528              		.thumb_func
 530              	lv_gradient_get:
 531              	.LVL37:
 532              	.LFB67:
 252:Drivers/lvgl/src/draw/sw/lv_draw_sw_gradient.c ****     /* No gradient, no cache */
 533              		.loc 1 252 1 is_stmt 1 view -0
 534              		.cfi_startproc
 535              		@ args = 0, pretend = 0, frame = 32
 536              		@ frame_needed = 0, uses_anonymous_args = 0
 254:Drivers/lvgl/src/draw/sw/lv_draw_sw_gradient.c **** 
 537              		.loc 1 254 5 view .LVU164
 254:Drivers/lvgl/src/draw/sw/lv_draw_sw_gradient.c **** 
 538              		.loc 1 254 15 is_stmt 0 view .LVU165
 539 0000 437A     		ldrb	r3, [r0, #9]	@ zero_extendqisi2
 254:Drivers/lvgl/src/draw/sw/lv_draw_sw_gradient.c **** 
 540              		.loc 1 254 7 view .LVU166
 541 0002 13F00703 		ands	r3, r3, #7
 542 0006 00F03A81 		beq	.L56
 257:Drivers/lvgl/src/draw/sw/lv_draw_sw_gradient.c ****     if(!inited) {
 543              		.loc 1 257 5 is_stmt 1 view .LVU167
 258:Drivers/lvgl/src/draw/sw/lv_draw_sw_gradient.c ****         lv_gradient_set_cache_size(LV_GRAD_CACHE_DEF_SIZE);
 544              		.loc 1 258 5 view .LVU168
 252:Drivers/lvgl/src/draw/sw/lv_draw_sw_gradient.c ****     /* No gradient, no cache */
 545              		.loc 1 252 1 is_stmt 0 view .LVU169
 546 000a 2DE9F04F 		push	{r4, r5, r6, r7, r8, r9, r10, fp, lr}
 547              		.cfi_def_cfa_offset 36
 548              		.cfi_offset 4, -36
 549              		.cfi_offset 5, -32
 550              		.cfi_offset 6, -28
 551              		.cfi_offset 7, -24
 552              		.cfi_offset 8, -20
 553              		.cfi_offset 9, -16
 554              		.cfi_offset 10, -12
 555              		.cfi_offset 11, -8
 556              		.cfi_offset 14, -4
 258:Drivers/lvgl/src/draw/sw/lv_draw_sw_gradient.c ****         lv_gradient_set_cache_size(LV_GRAD_CACHE_DEF_SIZE);
 557              		.loc 1 258 8 view .LVU170
 558 000e A24C     		ldr	r4, .L94
 258:Drivers/lvgl/src/draw/sw/lv_draw_sw_gradient.c ****         lv_gradient_set_cache_size(LV_GRAD_CACHE_DEF_SIZE);
 559              		.loc 1 258 7 view .LVU171
 560 0010 2778     		ldrb	r7, [r4]	@ zero_extendqisi2
 252:Drivers/lvgl/src/draw/sw/lv_draw_sw_gradient.c ****     /* No gradient, no cache */
 561              		.loc 1 252 1 view .LVU172
 562 0012 89B0     		sub	sp, sp, #36
 563              		.cfi_def_cfa_offset 72
 564 0014 8146     		mov	r9, r0
 565 0016 0D46     		mov	r5, r1
 566 0018 9246     		mov	r10, r2
 258:Drivers/lvgl/src/draw/sw/lv_draw_sw_gradient.c ****         lv_gradient_set_cache_size(LV_GRAD_CACHE_DEF_SIZE);
 567              		.loc 1 258 7 view .LVU173
 568 001a 002F     		cmp	r7, #0
 569 001c 67D0     		beq	.L89
 264:Drivers/lvgl/src/draw/sw/lv_draw_sw_gradient.c ****     uint32_t key = compute_key(g, size, w);
 570              		.loc 1 264 5 is_stmt 1 view .LVU174
ARM GAS  /var/folders/lp/x54gwt890xv47sdkqj1k04q40000gn/T//ccGMRBug.s 			page 26


 571              	.LBB120:
 572              	.LBB121:
 573              	.LBB122:
 574              	.LBB123:
  86:Drivers/lvgl/src/draw/sw/lv_draw_sw_gradient.c **** 
 575              		.loc 1 86 24 is_stmt 0 view .LVU175
 576 001e DFF884E2 		ldr	lr, .L94+12
 577 0022 DEF80070 		ldr	r7, [lr]
 578              	.LBE123:
 579              	.LBE122:
 580              	.LBE121:
 581              	.LBE120:
 264:Drivers/lvgl/src/draw/sw/lv_draw_sw_gradient.c ****     uint32_t key = compute_key(g, size, w);
 582              		.loc 1 264 16 discriminator 2 view .LVU176
 583 0026 022B     		cmp	r3, #2
 584 0028 0CBF     		ite	eq
 585 002a 0C46     		moveq	r4, r1
 586 002c 1446     		movne	r4, r2
 587              	.LVL38:
 265:Drivers/lvgl/src/draw/sw/lv_draw_sw_gradient.c ****     lv_grad_t * item = NULL;
 588              		.loc 1 265 5 is_stmt 1 view .LVU177
 589              	.LBB161:
 590              	.LBI161:
  65:Drivers/lvgl/src/draw/sw/lv_draw_sw_gradient.c **** {
 591              		.loc 1 65 17 view .LVU178
 592              	.LBB162:
  67:Drivers/lvgl/src/draw/sw/lv_draw_sw_gradient.c ****     v.ptr = g;
 593              		.loc 1 67 5 view .LVU179
  68:Drivers/lvgl/src/draw/sw/lv_draw_sw_gradient.c ****     return (v.value ^ size ^ (w >> 1)); /*Yes, this is correct, it's like a hash that changes if th
 594              		.loc 1 68 5 view .LVU180
  69:Drivers/lvgl/src/draw/sw/lv_draw_sw_gradient.c **** }
 595              		.loc 1 69 5 view .LVU181
  69:Drivers/lvgl/src/draw/sw/lv_draw_sw_gradient.c **** }
 596              		.loc 1 69 28 is_stmt 0 view .LVU182
 597 002e 80EA6108 		eor	r8, r0, r1, asr #1
 598 0032 88EA0408 		eor	r8, r8, r4
 599              	.LVL39:
  69:Drivers/lvgl/src/draw/sw/lv_draw_sw_gradient.c **** }
 600              		.loc 1 69 28 view .LVU183
 601              	.LBE162:
 602              	.LBE161:
 266:Drivers/lvgl/src/draw/sw/lv_draw_sw_gradient.c ****     if(iterate_cache(&find_item, &key, &item) == LV_RES_OK) {
 603              		.loc 1 266 5 is_stmt 1 view .LVU184
 267:Drivers/lvgl/src/draw/sw/lv_draw_sw_gradient.c ****         item->life++; /* Don't forget to bump the counter */
 604              		.loc 1 267 5 view .LVU185
 605              	.LBB165:
 606              	.LBI120:
  97:Drivers/lvgl/src/draw/sw/lv_draw_sw_gradient.c **** {
 607              		.loc 1 97 17 view .LVU186
 608              	.LBB156:
  99:Drivers/lvgl/src/draw/sw/lv_draw_sw_gradient.c ****     while(first != NULL && first->life) {
 609              		.loc 1 99 5 view .LVU187
 610              	.LBB129:
 611              	.LBI122:
  84:Drivers/lvgl/src/draw/sw/lv_draw_sw_gradient.c **** {
 612              		.loc 1 84 20 view .LVU188
 613              	.LBB124:
ARM GAS  /var/folders/lp/x54gwt890xv47sdkqj1k04q40000gn/T//ccGMRBug.s 			page 27


  86:Drivers/lvgl/src/draw/sw/lv_draw_sw_gradient.c **** 
 614              		.loc 1 86 5 view .LVU189
  86:Drivers/lvgl/src/draw/sw/lv_draw_sw_gradient.c **** 
 615              		.loc 1 86 7 is_stmt 0 view .LVU190
 616 0036 002F     		cmp	r7, #0
 617 0038 00F02A81 		beq	.L58
  88:Drivers/lvgl/src/draw/sw/lv_draw_sw_gradient.c ****         return (lv_grad_t *)LV_GC_ROOT(_lv_grad_cache_mem);
 618              		.loc 1 88 5 is_stmt 1 view .LVU191
  89:Drivers/lvgl/src/draw/sw/lv_draw_sw_gradient.c **** 
 619              		.loc 1 89 9 view .LVU192
  89:Drivers/lvgl/src/draw/sw/lv_draw_sw_gradient.c **** 
 620              		.loc 1 89 16 is_stmt 0 view .LVU193
 621 003c 974B     		ldr	r3, .L94+4
 622 003e 1968     		ldr	r1, [r3]
 623              	.LVL40:
  89:Drivers/lvgl/src/draw/sw/lv_draw_sw_gradient.c **** 
 624              		.loc 1 89 16 view .LVU194
 625 0040 974B     		ldr	r3, .L94+8
 626              	.LVL41:
 627              	.L29:
  89:Drivers/lvgl/src/draw/sw/lv_draw_sw_gradient.c **** 
 628              		.loc 1 89 16 view .LVU195
 629              	.LBE124:
 630              	.LBE129:
 631              	.LBB130:
 632              	.LBB131:
 633              	.LBB132:
 634              	.LBB133:
  93:Drivers/lvgl/src/draw/sw/lv_draw_sw_gradient.c ****     else return (lv_grad_t *)((uint8_t *)item + s);
 635              		.loc 1 93 28 view .LVU196
 636 0042 1E68     		ldr	r6, [r3]
 637              	.LBB134:
 638              	.LBB135:
  74:Drivers/lvgl/src/draw/sw/lv_draw_sw_gradient.c **** #if _DITHER_GRADIENT
 639              		.loc 1 74 36 view .LVU197
 640 0044 4FF0020B 		mov	fp, #2
 641 0048 4FF0030C 		mov	ip, #3
 642              	.LVL42:
 643              	.L33:
  74:Drivers/lvgl/src/draw/sw/lv_draw_sw_gradient.c **** #if _DITHER_GRADIENT
 644              		.loc 1 74 36 view .LVU198
 645              	.LBE135:
 646              	.LBE134:
 647              	.LBE133:
 648              	.LBE132:
 649              	.LBE131:
 650              	.LBE130:
 101:Drivers/lvgl/src/draw/sw/lv_draw_sw_gradient.c ****             if(out != NULL) *out = first;
 651              		.loc 1 101 9 is_stmt 1 view .LVU199
 652              	.LBB146:
 653              	.LBI146:
 151:Drivers/lvgl/src/draw/sw/lv_draw_sw_gradient.c **** {
 654              		.loc 1 151 17 view .LVU200
 655              	.LBB147:
 153:Drivers/lvgl/src/draw/sw/lv_draw_sw_gradient.c ****     if(c->key == *k) return LV_RES_OK;
 656              		.loc 1 153 5 view .LVU201
 154:Drivers/lvgl/src/draw/sw/lv_draw_sw_gradient.c ****     return LV_RES_INV;
ARM GAS  /var/folders/lp/x54gwt890xv47sdkqj1k04q40000gn/T//ccGMRBug.s 			page 28


 657              		.loc 1 154 5 view .LVU202
 154:Drivers/lvgl/src/draw/sw/lv_draw_sw_gradient.c ****     return LV_RES_INV;
 658              		.loc 1 154 5 is_stmt 0 view .LVU203
 659              	.LBE147:
 660              	.LBE146:
 105:Drivers/lvgl/src/draw/sw/lv_draw_sw_gradient.c ****     }
 661              		.loc 1 105 9 is_stmt 1 view .LVU204
 662              	.LBB149:
 663              	.LBI130:
  84:Drivers/lvgl/src/draw/sw/lv_draw_sw_gradient.c **** {
 664              		.loc 1 84 20 view .LVU205
 665              	.LBB144:
  86:Drivers/lvgl/src/draw/sw/lv_draw_sw_gradient.c **** 
 666              		.loc 1 86 5 view .LVU206
  88:Drivers/lvgl/src/draw/sw/lv_draw_sw_gradient.c ****         return (lv_grad_t *)LV_GC_ROOT(_lv_grad_cache_mem);
 667              		.loc 1 88 5 view .LVU207
 668              	.LBB142:
 669              	.LBI132:
  84:Drivers/lvgl/src/draw/sw/lv_draw_sw_gradient.c **** {
 670              		.loc 1 84 20 view .LVU208
 671              	.LBB140:
  91:Drivers/lvgl/src/draw/sw/lv_draw_sw_gradient.c ****     /*Compute the size for this cache item*/
 672              		.loc 1 91 5 view .LVU209
 673              	.LBB138:
 674              	.LBI134:
  72:Drivers/lvgl/src/draw/sw/lv_draw_sw_gradient.c **** {
 675              		.loc 1 72 15 view .LVU210
 676              	.LBB136:
  74:Drivers/lvgl/src/draw/sw/lv_draw_sw_gradient.c **** #if _DITHER_GRADIENT
 677              		.loc 1 74 5 view .LVU211
  81:Drivers/lvgl/src/draw/sw/lv_draw_sw_gradient.c **** }
 678              		.loc 1 81 5 view .LVU212
  81:Drivers/lvgl/src/draw/sw/lv_draw_sw_gradient.c **** }
 679              		.loc 1 81 5 is_stmt 0 view .LVU213
 680              	.LBE136:
 681              	.LBE138:
  93:Drivers/lvgl/src/draw/sw/lv_draw_sw_gradient.c ****     else return (lv_grad_t *)((uint8_t *)item + s);
 682              		.loc 1 93 5 is_stmt 1 view .LVU214
  93:Drivers/lvgl/src/draw/sw/lv_draw_sw_gradient.c ****     else return (lv_grad_t *)((uint8_t *)item + s);
 683              		.loc 1 93 5 is_stmt 0 view .LVU215
 684              	.LBE140:
 685              	.LBE142:
 686              	.LBE144:
 687              	.LBE149:
 100:Drivers/lvgl/src/draw/sw/lv_draw_sw_gradient.c ****         if((*func)(first, ctx) == LV_RES_OK) {
 688              		.loc 1 100 25 is_stmt 1 view .LVU216
 689 004c 81B1     		cbz	r1, .L32
 100:Drivers/lvgl/src/draw/sw/lv_draw_sw_gradient.c ****         if((*func)(first, ctx) == LV_RES_OK) {
 690              		.loc 1 100 25 is_stmt 0 discriminator 1 view .LVU217
 691 004e 4A68     		ldr	r2, [r1, #4]
 692 0050 32F04040 		bics	r0, r2, #-1073741824
 693 0054 0CD0     		beq	.L32
 694              	.LBB150:
 695              	.LBB148:
 154:Drivers/lvgl/src/draw/sw/lv_draw_sw_gradient.c ****     return LV_RES_INV;
 696              		.loc 1 154 7 view .LVU218
 697 0056 0868     		ldr	r0, [r1]
ARM GAS  /var/folders/lp/x54gwt890xv47sdkqj1k04q40000gn/T//ccGMRBug.s 			page 29


 698 0058 4045     		cmp	r0, r8
 699 005a 6DD0     		beq	.L31
 154:Drivers/lvgl/src/draw/sw/lv_draw_sw_gradient.c ****     return LV_RES_INV;
 700              		.loc 1 154 7 view .LVU219
 701              	.LBE148:
 702              	.LBE150:
 703              	.LBB151:
 704              	.LBB145:
  86:Drivers/lvgl/src/draw/sw/lv_draw_sw_gradient.c **** 
 705              		.loc 1 86 7 view .LVU220
 706 005c 47B1     		cbz	r7, .L32
 707              	.LBB143:
 708              	.LBB141:
 709              	.LBB139:
 710              	.LBB137:
  74:Drivers/lvgl/src/draw/sw/lv_draw_sw_gradient.c **** #if _DITHER_GRADIENT
 711              		.loc 1 74 36 view .LVU221
 712 005e 8A89     		ldrh	r2, [r1, #12]
 713 0060 12FB0BC2 		smlabb	r2, r2, fp, ip
 714 0064 22F00302 		bic	r2, r2, #3
  74:Drivers/lvgl/src/draw/sw/lv_draw_sw_gradient.c **** #if _DITHER_GRADIENT
 715              		.loc 1 74 12 view .LVU222
 716 0068 1032     		adds	r2, r2, #16
 717              	.LBE137:
 718              	.LBE139:
  93:Drivers/lvgl/src/draw/sw/lv_draw_sw_gradient.c ****     else return (lv_grad_t *)((uint8_t *)item + s);
 719              		.loc 1 93 24 view .LVU223
 720 006a 1144     		add	r1, r1, r2
 721              	.LVL43:
  93:Drivers/lvgl/src/draw/sw/lv_draw_sw_gradient.c ****     else return (lv_grad_t *)((uint8_t *)item + s);
 722              		.loc 1 93 7 view .LVU224
 723 006c B142     		cmp	r1, r6
 724 006e EDD3     		bcc	.L33
 725              	.L32:
 726              	.LVL44:
  93:Drivers/lvgl/src/draw/sw/lv_draw_sw_gradient.c ****     else return (lv_grad_t *)((uint8_t *)item + s);
 727              		.loc 1 93 7 view .LVU225
 728              	.LBE141:
 729              	.LBE143:
 730              	.LBE145:
 731              	.LBE151:
 732              	.LBE156:
 733              	.LBE165:
 273:Drivers/lvgl/src/draw/sw/lv_draw_sw_gradient.c ****     if(item == NULL) {
 734              		.loc 1 273 5 is_stmt 1 view .LVU226
 735              	.LBB166:
 736              	.LBI166:
 158:Drivers/lvgl/src/draw/sw/lv_draw_sw_gradient.c **** {
 737              		.loc 1 158 20 view .LVU227
 738              	.LBB167:
 160:Drivers/lvgl/src/draw/sw/lv_draw_sw_gradient.c ****     lv_coord_t map_size = LV_MAX(w, h); /* The map is being used horizontally (width) unless
 739              		.loc 1 160 5 view .LVU228
 161:Drivers/lvgl/src/draw/sw/lv_draw_sw_gradient.c ****                                            no dithering is selected where it's used vertically */
 740              		.loc 1 161 5 view .LVU229
 161:Drivers/lvgl/src/draw/sw/lv_draw_sw_gradient.c ****                                            no dithering is selected where it's used vertically */
 741              		.loc 1 161 16 is_stmt 0 view .LVU230
 742 0070 AA45     		cmp	r10, r5
ARM GAS  /var/folders/lp/x54gwt890xv47sdkqj1k04q40000gn/T//ccGMRBug.s 			page 30


 743 0072 B8BF     		it	lt
 744 0074 AA46     		movlt	r10, r5
 745              	.LVL45:
 161:Drivers/lvgl/src/draw/sw/lv_draw_sw_gradient.c ****                                            no dithering is selected where it's used vertically */
 746              		.loc 1 161 16 view .LVU231
 747 0076 D346     		mov	fp, r10
 748              	.LVL46:
 164:Drivers/lvgl/src/draw/sw/lv_draw_sw_gradient.c **** #if _DITHER_GRADIENT
 749              		.loc 1 164 5 is_stmt 1 view .LVU232
 172:Drivers/lvgl/src/draw/sw/lv_draw_sw_gradient.c ****     lv_grad_t * item = NULL;
 750              		.loc 1 172 47 is_stmt 0 view .LVU233
 751 0078 DFF820A2 		ldr	r10, .L94+4
 164:Drivers/lvgl/src/draw/sw/lv_draw_sw_gradient.c **** #if _DITHER_GRADIENT
 752              		.loc 1 164 50 view .LVU234
 753 007c 0325     		movs	r5, #3
 754              	.LVL47:
 172:Drivers/lvgl/src/draw/sw/lv_draw_sw_gradient.c ****     lv_grad_t * item = NULL;
 755              		.loc 1 172 47 view .LVU235
 756 007e DAF80020 		ldr	r2, [r10]
 164:Drivers/lvgl/src/draw/sw/lv_draw_sw_gradient.c **** #if _DITHER_GRADIENT
 757              		.loc 1 164 50 view .LVU236
 758 0082 05EB4B01 		add	r1, r5, fp, lsl #1
 759 0086 21F00301 		bic	r1, r1, #3
 164:Drivers/lvgl/src/draw/sw/lv_draw_sw_gradient.c **** #if _DITHER_GRADIENT
 760              		.loc 1 164 12 view .LVU237
 761 008a 1031     		adds	r1, r1, #16
 172:Drivers/lvgl/src/draw/sw/lv_draw_sw_gradient.c ****     lv_grad_t * item = NULL;
 762              		.loc 1 172 47 view .LVU238
 763 008c B21A     		subs	r2, r6, r2
 174:Drivers/lvgl/src/draw/sw/lv_draw_sw_gradient.c ****         item = (lv_grad_t *)grad_cache_end;
 764              		.loc 1 174 17 view .LVU239
 765 008e 0A44     		add	r2, r2, r1
 174:Drivers/lvgl/src/draw/sw/lv_draw_sw_gradient.c ****         item = (lv_grad_t *)grad_cache_end;
 766              		.loc 1 174 7 view .LVU240
 767 0090 BA42     		cmp	r2, r7
 164:Drivers/lvgl/src/draw/sw/lv_draw_sw_gradient.c **** #if _DITHER_GRADIENT
 768              		.loc 1 164 12 view .LVU241
 769 0092 0191     		str	r1, [sp, #4]
 770              	.LVL48:
 172:Drivers/lvgl/src/draw/sw/lv_draw_sw_gradient.c ****     lv_grad_t * item = NULL;
 771              		.loc 1 172 5 is_stmt 1 view .LVU242
 173:Drivers/lvgl/src/draw/sw/lv_draw_sw_gradient.c ****     if(req_size + act_size < grad_cache_size) {
 772              		.loc 1 173 5 view .LVU243
 174:Drivers/lvgl/src/draw/sw/lv_draw_sw_gradient.c ****         item = (lv_grad_t *)grad_cache_end;
 773              		.loc 1 174 5 view .LVU244
 174:Drivers/lvgl/src/draw/sw/lv_draw_sw_gradient.c ****         item = (lv_grad_t *)grad_cache_end;
 774              		.loc 1 174 7 is_stmt 0 view .LVU245
 775 0094 58D2     		bcs	.L90
 175:Drivers/lvgl/src/draw/sw/lv_draw_sw_gradient.c ****         item->not_cached = 0;
 776              		.loc 1 175 9 is_stmt 1 view .LVU246
 777              	.LVL49:
 176:Drivers/lvgl/src/draw/sw/lv_draw_sw_gradient.c ****     }
 778              		.loc 1 176 9 view .LVU247
 176:Drivers/lvgl/src/draw/sw/lv_draw_sw_gradient.c ****     }
 779              		.loc 1 176 26 is_stmt 0 view .LVU248
 780 0096 F279     		ldrb	r2, [r6, #7]	@ zero_extendqisi2
 781 0098 22F08002 		bic	r2, r2, #128
ARM GAS  /var/folders/lp/x54gwt890xv47sdkqj1k04q40000gn/T//ccGMRBug.s 			page 31


 782 009c F271     		strb	r2, [r6, #7]
 783              	.LVL50:
 175:Drivers/lvgl/src/draw/sw/lv_draw_sw_gradient.c ****         item->not_cached = 0;
 784              		.loc 1 175 14 view .LVU249
 785 009e 3146     		mov	r1, r6
 786              	.LVL51:
 787              	.L35:
 199:Drivers/lvgl/src/draw/sw/lv_draw_sw_gradient.c ****     item->life = 1;
 788              		.loc 1 199 5 is_stmt 1 view .LVU250
 200:Drivers/lvgl/src/draw/sw/lv_draw_sw_gradient.c ****     item->filled = 0;
 789              		.loc 1 200 16 is_stmt 0 view .LVU251
 790 00a0 4A68     		ldr	r2, [r1, #4]
 199:Drivers/lvgl/src/draw/sw/lv_draw_sw_gradient.c ****     item->life = 1;
 791              		.loc 1 199 15 discriminator 1 view .LVU252
 792 00a2 C1F80080 		str	r8, [r1]
 200:Drivers/lvgl/src/draw/sw/lv_draw_sw_gradient.c ****     item->filled = 0;
 793              		.loc 1 200 5 is_stmt 1 view .LVU253
 201:Drivers/lvgl/src/draw/sw/lv_draw_sw_gradient.c ****     item->alloc_size = map_size;
 794              		.loc 1 201 5 view .LVU254
 200:Drivers/lvgl/src/draw/sw/lv_draw_sw_gradient.c ****     item->filled = 0;
 795              		.loc 1 200 16 is_stmt 0 view .LVU255
 796 00a6 02F00042 		and	r2, r2, #-2147483648
 797 00aa 42F00100 		orr	r0, r2, #1
 204:Drivers/lvgl/src/draw/sw/lv_draw_sw_gradient.c ****         uint8_t * p = (uint8_t *)item;
 798              		.loc 1 204 7 view .LVU256
 799 00ae 002A     		cmp	r2, #0
 202:Drivers/lvgl/src/draw/sw/lv_draw_sw_gradient.c ****     item->size = size;
 800              		.loc 1 202 22 view .LVU257
 801 00b0 A1F80CB0 		strh	fp, [r1, #12]	@ movhi
 203:Drivers/lvgl/src/draw/sw/lv_draw_sw_gradient.c ****     if(item->not_cached) {
 802              		.loc 1 203 16 view .LVU258
 803 00b4 CC81     		strh	r4, [r1, #14]	@ movhi
 200:Drivers/lvgl/src/draw/sw/lv_draw_sw_gradient.c ****     item->filled = 0;
 804              		.loc 1 200 16 view .LVU259
 805 00b6 4860     		str	r0, [r1, #4]
 202:Drivers/lvgl/src/draw/sw/lv_draw_sw_gradient.c ****     item->size = size;
 806              		.loc 1 202 5 is_stmt 1 view .LVU260
 203:Drivers/lvgl/src/draw/sw/lv_draw_sw_gradient.c ****     if(item->not_cached) {
 807              		.loc 1 203 5 view .LVU261
 204:Drivers/lvgl/src/draw/sw/lv_draw_sw_gradient.c ****         uint8_t * p = (uint8_t *)item;
 808              		.loc 1 204 5 view .LVU262
 204:Drivers/lvgl/src/draw/sw/lv_draw_sw_gradient.c ****         uint8_t * p = (uint8_t *)item;
 809              		.loc 1 204 7 is_stmt 0 view .LVU263
 810 00b8 C0F2DE80 		blt	.L91
 217:Drivers/lvgl/src/draw/sw/lv_draw_sw_gradient.c **** #if _DITHER_GRADIENT
 811              		.loc 1 217 9 is_stmt 1 view .LVU264
 217:Drivers/lvgl/src/draw/sw/lv_draw_sw_gradient.c **** #if _DITHER_GRADIENT
 812              		.loc 1 217 51 is_stmt 0 view .LVU265
 813 00bc 1E68     		ldr	r6, [r3]
 226:Drivers/lvgl/src/draw/sw/lv_draw_sw_gradient.c ****     }
 814              		.loc 1 226 24 view .LVU266
 815 00be 019A     		ldr	r2, [sp, #4]
 816 00c0 3244     		add	r2, r2, r6
 817 00c2 1A60     		str	r2, [r3]
 217:Drivers/lvgl/src/draw/sw/lv_draw_sw_gradient.c **** #if _DITHER_GRADIENT
 818              		.loc 1 217 51 view .LVU267
 819 00c4 1036     		adds	r6, r6, #16
ARM GAS  /var/folders/lp/x54gwt890xv47sdkqj1k04q40000gn/T//ccGMRBug.s 			page 32


 226:Drivers/lvgl/src/draw/sw/lv_draw_sw_gradient.c ****     }
 820              		.loc 1 226 9 is_stmt 1 view .LVU268
 228:Drivers/lvgl/src/draw/sw/lv_draw_sw_gradient.c **** }
 821              		.loc 1 228 5 view .LVU269
 822              	.LVL52:
 228:Drivers/lvgl/src/draw/sw/lv_draw_sw_gradient.c **** }
 823              		.loc 1 228 5 is_stmt 0 view .LVU270
 824              	.LBE167:
 825              	.LBE166:
 274:Drivers/lvgl/src/draw/sw/lv_draw_sw_gradient.c ****         LV_LOG_WARN("Faild to allcoate item for teh gradient");
 826              		.loc 1 274 5 is_stmt 1 view .LVU271
 827              	.L51:
 828              	.LBB260:
 288:Drivers/lvgl/src/draw/sw/lv_draw_sw_gradient.c ****         item->map[i] = lv_gradient_calculate(g, item->size, i);
 829              		.loc 1 288 29 is_stmt 0 discriminator 1 view .LVU272
 830 00c6 002C     		cmp	r4, #0
 831 00c8 8E60     		str	r6, [r1, #8]
 832              	.LVL53:
 288:Drivers/lvgl/src/draw/sw/lv_draw_sw_gradient.c ****         item->map[i] = lv_gradient_calculate(g, item->size, i);
 833              		.loc 1 288 29 is_stmt 1 discriminator 1 view .LVU273
 834 00ca 0CDD     		ble	.L23
 835 00cc 0025     		movs	r5, #0
 836 00ce 0F46     		mov	r7, r1
 837              	.LVL54:
 838              	.L53:
 289:Drivers/lvgl/src/draw/sw/lv_draw_sw_gradient.c ****     }
 839              		.loc 1 289 9 view .LVU274
 289:Drivers/lvgl/src/draw/sw/lv_draw_sw_gradient.c ****     }
 840              		.loc 1 289 24 is_stmt 0 view .LVU275
 841 00d0 2AB2     		sxth	r2, r5
 842 00d2 2146     		mov	r1, r4
 843 00d4 4846     		mov	r0, r9
 844 00d6 FFF7FEFF 		bl	lv_gradient_calculate
 845              	.LVL55:
 288:Drivers/lvgl/src/draw/sw/lv_draw_sw_gradient.c ****         item->map[i] = lv_gradient_calculate(g, item->size, i);
 846              		.loc 1 288 29 discriminator 1 view .LVU276
 847 00da 0135     		adds	r5, r5, #1
 848              	.LVL56:
 288:Drivers/lvgl/src/draw/sw/lv_draw_sw_gradient.c ****         item->map[i] = lv_gradient_calculate(g, item->size, i);
 849              		.loc 1 288 29 discriminator 1 view .LVU277
 850 00dc A542     		cmp	r5, r4
 289:Drivers/lvgl/src/draw/sw/lv_draw_sw_gradient.c ****     }
 851              		.loc 1 289 24 view .LVU278
 852 00de 26F8020B 		strh	r0, [r6], #2	@ movhi
 288:Drivers/lvgl/src/draw/sw/lv_draw_sw_gradient.c ****         item->map[i] = lv_gradient_calculate(g, item->size, i);
 853              		.loc 1 288 44 is_stmt 1 discriminator 3 view .LVU279
 854              	.LVL57:
 288:Drivers/lvgl/src/draw/sw/lv_draw_sw_gradient.c ****         item->map[i] = lv_gradient_calculate(g, item->size, i);
 855              		.loc 1 288 29 discriminator 1 view .LVU280
 856 00e2 F5D1     		bne	.L53
 857 00e4 3946     		mov	r1, r7
 858              	.L23:
 859              	.LBE260:
 294:Drivers/lvgl/src/draw/sw/lv_draw_sw_gradient.c **** 
 860              		.loc 1 294 1 is_stmt 0 view .LVU281
 861 00e6 0846     		mov	r0, r1
 862 00e8 09B0     		add	sp, sp, #36
ARM GAS  /var/folders/lp/x54gwt890xv47sdkqj1k04q40000gn/T//ccGMRBug.s 			page 33


 863              		.cfi_remember_state
 864              		.cfi_def_cfa_offset 36
 865              		@ sp needed
 866 00ea BDE8F08F 		pop	{r4, r5, r6, r7, r8, r9, r10, fp, pc}
 867              	.LVL58:
 868              	.L89:
 869              		.cfi_restore_state
 259:Drivers/lvgl/src/draw/sw/lv_draw_sw_gradient.c ****         inited = true;
 870              		.loc 1 259 9 is_stmt 1 view .LVU282
 871              	.LBB261:
 872              	.LBI261:
 242:Drivers/lvgl/src/draw/sw/lv_draw_sw_gradient.c **** {
 873              		.loc 1 242 6 view .LVU283
 874              	.LBB262:
 244:Drivers/lvgl/src/draw/sw/lv_draw_sw_gradient.c ****     grad_cache_end = LV_GC_ROOT(_lv_grad_cache_mem) = lv_mem_alloc(max_bytes);
 875              		.loc 1 244 5 view .LVU284
 876 00ee 6B4E     		ldr	r6, .L94+4
 877 00f0 3068     		ldr	r0, [r6]
 878              	.LVL59:
 244:Drivers/lvgl/src/draw/sw/lv_draw_sw_gradient.c ****     grad_cache_end = LV_GC_ROOT(_lv_grad_cache_mem) = lv_mem_alloc(max_bytes);
 879              		.loc 1 244 5 is_stmt 0 view .LVU285
 880 00f2 FFF7FEFF 		bl	lv_mem_free
 881              	.LVL60:
 245:Drivers/lvgl/src/draw/sw/lv_draw_sw_gradient.c ****     LV_ASSERT_MALLOC(LV_GC_ROOT(_lv_grad_cache_mem));
 882              		.loc 1 245 5 is_stmt 1 view .LVU286
 245:Drivers/lvgl/src/draw/sw/lv_draw_sw_gradient.c ****     LV_ASSERT_MALLOC(LV_GC_ROOT(_lv_grad_cache_mem));
 883              		.loc 1 245 55 is_stmt 0 view .LVU287
 884 00f6 3846     		mov	r0, r7
 885 00f8 FFF7FEFF 		bl	lv_mem_alloc
 886              	.LVL61:
 245:Drivers/lvgl/src/draw/sw/lv_draw_sw_gradient.c ****     LV_ASSERT_MALLOC(LV_GC_ROOT(_lv_grad_cache_mem));
 887              		.loc 1 245 20 discriminator 1 view .LVU288
 888 00fc 684B     		ldr	r3, .L94+8
 245:Drivers/lvgl/src/draw/sw/lv_draw_sw_gradient.c ****     LV_ASSERT_MALLOC(LV_GC_ROOT(_lv_grad_cache_mem));
 889              		.loc 1 245 53 discriminator 1 view .LVU289
 890 00fe 3060     		str	r0, [r6]
 245:Drivers/lvgl/src/draw/sw/lv_draw_sw_gradient.c ****     LV_ASSERT_MALLOC(LV_GC_ROOT(_lv_grad_cache_mem));
 891              		.loc 1 245 20 discriminator 1 view .LVU290
 892 0100 1860     		str	r0, [r3]
 246:Drivers/lvgl/src/draw/sw/lv_draw_sw_gradient.c ****     lv_memset_00(LV_GC_ROOT(_lv_grad_cache_mem), max_bytes);
 893              		.loc 1 246 5 is_stmt 1 view .LVU291
 246:Drivers/lvgl/src/draw/sw/lv_draw_sw_gradient.c ****     lv_memset_00(LV_GC_ROOT(_lv_grad_cache_mem), max_bytes);
 894              		.loc 1 246 5 view .LVU292
 895 0102 C0B1     		cbz	r0, .L27
 246:Drivers/lvgl/src/draw/sw/lv_draw_sw_gradient.c ****     lv_memset_00(LV_GC_ROOT(_lv_grad_cache_mem), max_bytes);
 896              		.loc 1 246 5 discriminator 2 view .LVU293
 246:Drivers/lvgl/src/draw/sw/lv_draw_sw_gradient.c ****     lv_memset_00(LV_GC_ROOT(_lv_grad_cache_mem), max_bytes);
 897              		.loc 1 246 53 discriminator 2 view .LVU294
 247:Drivers/lvgl/src/draw/sw/lv_draw_sw_gradient.c ****     grad_cache_size = max_bytes;
 898              		.loc 1 247 5 view .LVU295
 899 0104 3946     		mov	r1, r7
 900 0106 0193     		str	r3, [sp, #4]
 901 0108 FFF7FEFF 		bl	lv_memset_00
 902              	.LVL62:
 248:Drivers/lvgl/src/draw/sw/lv_draw_sw_gradient.c **** }
 903              		.loc 1 248 5 view .LVU296
 904              	.LBE262:
ARM GAS  /var/folders/lp/x54gwt890xv47sdkqj1k04q40000gn/T//ccGMRBug.s 			page 34


 905              	.LBE261:
 264:Drivers/lvgl/src/draw/sw/lv_draw_sw_gradient.c ****     uint32_t key = compute_key(g, size, w);
 906              		.loc 1 264 30 is_stmt 0 view .LVU297
 907 010c 99F80920 		ldrb	r2, [r9, #9]	@ zero_extendqisi2
 908              	.LBB266:
 909              	.LBB263:
 248:Drivers/lvgl/src/draw/sw/lv_draw_sw_gradient.c **** }
 910              		.loc 1 248 21 view .LVU298
 911 0110 DFF890E1 		ldr	lr, .L94+12
 912              	.LBE263:
 913              	.LBE266:
 264:Drivers/lvgl/src/draw/sw/lv_draw_sw_gradient.c ****     uint32_t key = compute_key(g, size, w);
 914              		.loc 1 264 16 view .LVU299
 915 0114 019B     		ldr	r3, [sp, #4]
 916              	.LBB267:
 917              	.LBB264:
 248:Drivers/lvgl/src/draw/sw/lv_draw_sw_gradient.c **** }
 918              		.loc 1 248 21 view .LVU300
 919 0116 CEF80070 		str	r7, [lr]
 920              	.LVL63:
 248:Drivers/lvgl/src/draw/sw/lv_draw_sw_gradient.c **** }
 921              		.loc 1 248 21 view .LVU301
 922              	.LBE264:
 923              	.LBE267:
 260:Drivers/lvgl/src/draw/sw/lv_draw_sw_gradient.c ****     }
 924              		.loc 1 260 9 is_stmt 1 view .LVU302
 264:Drivers/lvgl/src/draw/sw/lv_draw_sw_gradient.c ****     uint32_t key = compute_key(g, size, w);
 925              		.loc 1 264 16 is_stmt 0 view .LVU303
 926 011a 02F00702 		and	r2, r2, #7
 260:Drivers/lvgl/src/draw/sw/lv_draw_sw_gradient.c ****     }
 927              		.loc 1 260 16 view .LVU304
 928 011e 0121     		movs	r1, #1
 264:Drivers/lvgl/src/draw/sw/lv_draw_sw_gradient.c ****     uint32_t key = compute_key(g, size, w);
 929              		.loc 1 264 16 view .LVU305
 930 0120 022A     		cmp	r2, #2
 260:Drivers/lvgl/src/draw/sw/lv_draw_sw_gradient.c ****     }
 931              		.loc 1 260 16 view .LVU306
 932 0122 2170     		strb	r1, [r4]
 264:Drivers/lvgl/src/draw/sw/lv_draw_sw_gradient.c ****     uint32_t key = compute_key(g, size, w);
 933              		.loc 1 264 5 is_stmt 1 view .LVU307
 264:Drivers/lvgl/src/draw/sw/lv_draw_sw_gradient.c ****     uint32_t key = compute_key(g, size, w);
 934              		.loc 1 264 16 is_stmt 0 view .LVU308
 935 0124 00F0AD80 		beq	.L28
 936              	.LVL64:
 265:Drivers/lvgl/src/draw/sw/lv_draw_sw_gradient.c ****     lv_grad_t * item = NULL;
 937              		.loc 1 265 5 is_stmt 1 view .LVU309
 938              	.LBB268:
  65:Drivers/lvgl/src/draw/sw/lv_draw_sw_gradient.c **** {
 939              		.loc 1 65 17 view .LVU310
 940              	.LBB163:
  67:Drivers/lvgl/src/draw/sw/lv_draw_sw_gradient.c ****     v.ptr = g;
 941              		.loc 1 67 5 view .LVU311
  68:Drivers/lvgl/src/draw/sw/lv_draw_sw_gradient.c ****     return (v.value ^ size ^ (w >> 1)); /*Yes, this is correct, it's like a hash that changes if th
 942              		.loc 1 68 5 view .LVU312
  69:Drivers/lvgl/src/draw/sw/lv_draw_sw_gradient.c **** }
 943              		.loc 1 69 5 view .LVU313
  69:Drivers/lvgl/src/draw/sw/lv_draw_sw_gradient.c **** }
ARM GAS  /var/folders/lp/x54gwt890xv47sdkqj1k04q40000gn/T//ccGMRBug.s 			page 35


 944              		.loc 1 69 28 is_stmt 0 view .LVU314
 945 0128 89EA6508 		eor	r8, r9, r5, asr #1
 946 012c 88EA0A08 		eor	r8, r8, r10
 947              	.LVL65:
  69:Drivers/lvgl/src/draw/sw/lv_draw_sw_gradient.c **** }
 948              		.loc 1 69 28 view .LVU315
 949              	.LBE163:
 950              	.LBE268:
 266:Drivers/lvgl/src/draw/sw/lv_draw_sw_gradient.c ****     if(iterate_cache(&find_item, &key, &item) == LV_RES_OK) {
 951              		.loc 1 266 5 is_stmt 1 view .LVU316
 267:Drivers/lvgl/src/draw/sw/lv_draw_sw_gradient.c ****         item->life++; /* Don't forget to bump the counter */
 952              		.loc 1 267 5 view .LVU317
 953              	.LBB269:
  97:Drivers/lvgl/src/draw/sw/lv_draw_sw_gradient.c **** {
 954              		.loc 1 97 17 view .LVU318
 955              	.LBB157:
  99:Drivers/lvgl/src/draw/sw/lv_draw_sw_gradient.c ****     while(first != NULL && first->life) {
 956              		.loc 1 99 5 view .LVU319
 957              	.LBB152:
  84:Drivers/lvgl/src/draw/sw/lv_draw_sw_gradient.c **** {
 958              		.loc 1 84 20 view .LVU320
 959              	.LBB125:
  86:Drivers/lvgl/src/draw/sw/lv_draw_sw_gradient.c **** 
 960              		.loc 1 86 5 view .LVU321
 961              	.LBE125:
 962              	.LBE152:
 963              	.LBE157:
 964              	.LBE269:
 264:Drivers/lvgl/src/draw/sw/lv_draw_sw_gradient.c ****     uint32_t key = compute_key(g, size, w);
 965              		.loc 1 264 16 is_stmt 0 discriminator 2 view .LVU322
 966 0130 5446     		mov	r4, r10
 967              	.LBB270:
 968              	.LBB158:
 969              	.LBB153:
 970              	.LBB126:
  86:Drivers/lvgl/src/draw/sw/lv_draw_sw_gradient.c **** 
 971              		.loc 1 86 37 discriminator 1 view .LVU323
 972 0132 3946     		mov	r1, r7
 973 0134 85E7     		b	.L29
 974              	.LVL66:
 975              	.L27:
  86:Drivers/lvgl/src/draw/sw/lv_draw_sw_gradient.c **** 
 976              		.loc 1 86 37 discriminator 1 view .LVU324
 977              	.LBE126:
 978              	.LBE153:
 979              	.LBE158:
 980              	.LBE270:
 981              	.LBB271:
 982              	.LBB265:
 246:Drivers/lvgl/src/draw/sw/lv_draw_sw_gradient.c ****     lv_memset_00(LV_GC_ROOT(_lv_grad_cache_mem), max_bytes);
 983              		.loc 1 246 5 is_stmt 1 discriminator 1 view .LVU325
 246:Drivers/lvgl/src/draw/sw/lv_draw_sw_gradient.c ****     lv_memset_00(LV_GC_ROOT(_lv_grad_cache_mem), max_bytes);
 984              		.loc 1 246 5 discriminator 1 view .LVU326
 246:Drivers/lvgl/src/draw/sw/lv_draw_sw_gradient.c ****     lv_memset_00(LV_GC_ROOT(_lv_grad_cache_mem), max_bytes);
 985              		.loc 1 246 5 discriminator 1 view .LVU327
 246:Drivers/lvgl/src/draw/sw/lv_draw_sw_gradient.c ****     lv_memset_00(LV_GC_ROOT(_lv_grad_cache_mem), max_bytes);
 986              		.loc 1 246 5 discriminator 1 view .LVU328
ARM GAS  /var/folders/lp/x54gwt890xv47sdkqj1k04q40000gn/T//ccGMRBug.s 			page 36


 246:Drivers/lvgl/src/draw/sw/lv_draw_sw_gradient.c ****     lv_memset_00(LV_GC_ROOT(_lv_grad_cache_mem), max_bytes);
 987              		.loc 1 246 5 discriminator 1 view .LVU329
 246:Drivers/lvgl/src/draw/sw/lv_draw_sw_gradient.c ****     lv_memset_00(LV_GC_ROOT(_lv_grad_cache_mem), max_bytes);
 988              		.loc 1 246 5 discriminator 1 view .LVU330
 246:Drivers/lvgl/src/draw/sw/lv_draw_sw_gradient.c ****     lv_memset_00(LV_GC_ROOT(_lv_grad_cache_mem), max_bytes);
 989              		.loc 1 246 5 discriminator 1 view .LVU331
 246:Drivers/lvgl/src/draw/sw/lv_draw_sw_gradient.c ****     lv_memset_00(LV_GC_ROOT(_lv_grad_cache_mem), max_bytes);
 990              		.loc 1 246 5 discriminator 1 view .LVU332
 246:Drivers/lvgl/src/draw/sw/lv_draw_sw_gradient.c ****     lv_memset_00(LV_GC_ROOT(_lv_grad_cache_mem), max_bytes);
 991              		.loc 1 246 5 discriminator 1 view .LVU333
 246:Drivers/lvgl/src/draw/sw/lv_draw_sw_gradient.c ****     lv_memset_00(LV_GC_ROOT(_lv_grad_cache_mem), max_bytes);
 992              		.loc 1 246 5 discriminator 1 view .LVU334
 993 0136 FEE7     		b	.L27
 994              	.LVL67:
 995              	.L31:
 246:Drivers/lvgl/src/draw/sw/lv_draw_sw_gradient.c ****     lv_memset_00(LV_GC_ROOT(_lv_grad_cache_mem), max_bytes);
 996              		.loc 1 246 5 is_stmt 0 discriminator 1 view .LVU335
 997              	.LBE265:
 998              	.LBE271:
 268:Drivers/lvgl/src/draw/sw/lv_draw_sw_gradient.c ****         return item;
 999              		.loc 1 268 9 is_stmt 1 view .LVU336
 268:Drivers/lvgl/src/draw/sw/lv_draw_sw_gradient.c ****         return item;
 1000              		.loc 1 268 19 is_stmt 0 view .LVU337
 1001 0138 531C     		adds	r3, r2, #1
 1002 013a 63F31D02 		bfi	r2, r3, #0, #30
 294:Drivers/lvgl/src/draw/sw/lv_draw_sw_gradient.c **** 
 1003              		.loc 1 294 1 view .LVU338
 1004 013e 0846     		mov	r0, r1
 268:Drivers/lvgl/src/draw/sw/lv_draw_sw_gradient.c ****         return item;
 1005              		.loc 1 268 19 view .LVU339
 1006 0140 4A60     		str	r2, [r1, #4]
 269:Drivers/lvgl/src/draw/sw/lv_draw_sw_gradient.c ****     }
 1007              		.loc 1 269 9 is_stmt 1 view .LVU340
 294:Drivers/lvgl/src/draw/sw/lv_draw_sw_gradient.c **** 
 1008              		.loc 1 294 1 is_stmt 0 view .LVU341
 1009 0142 09B0     		add	sp, sp, #36
 1010              		.cfi_remember_state
 1011              		.cfi_def_cfa_offset 36
 1012              		@ sp needed
 1013 0144 BDE8F08F 		pop	{r4, r5, r6, r7, r8, r9, r10, fp, pc}
 1014              	.LVL68:
 1015              	.L90:
 1016              		.cfi_restore_state
 1017              	.LBB272:
 1018              	.LBB259:
 180:Drivers/lvgl/src/draw/sw/lv_draw_sw_gradient.c ****             while(act_size + req_size > grad_cache_size) {
 1019              		.loc 1 180 9 is_stmt 1 view .LVU342
 180:Drivers/lvgl/src/draw/sw/lv_draw_sw_gradient.c ****             while(act_size + req_size > grad_cache_size) {
 1020              		.loc 1 180 11 is_stmt 0 view .LVU343
 1021 0148 0199     		ldr	r1, [sp, #4]
 1022              	.LVL69:
 180:Drivers/lvgl/src/draw/sw/lv_draw_sw_gradient.c ****             while(act_size + req_size > grad_cache_size) {
 1023              		.loc 1 180 11 view .LVU344
 1024 014a B942     		cmp	r1, r7
 1025 014c 42D8     		bhi	.L36
 181:Drivers/lvgl/src/draw/sw/lv_draw_sw_gradient.c ****                 uint32_t oldest_life = UINT32_MAX;
 1026              		.loc 1 181 39 is_stmt 1 view .LVU345
ARM GAS  /var/folders/lp/x54gwt890xv47sdkqj1k04q40000gn/T//ccGMRBug.s 			page 37


 1027 014e BA42     		cmp	r2, r7
 1028              	.LBB168:
 1029              	.LBB169:
 1030              	.LBB170:
 1031              	.LBB171:
 1032              	.LBB172:
  86:Drivers/lvgl/src/draw/sw/lv_draw_sw_gradient.c **** 
 1033              		.loc 1 86 24 is_stmt 0 view .LVU346
 1034 0150 3146     		mov	r1, r6
 1035              	.LBE172:
 1036              	.LBE171:
 1037              	.LBE170:
 1038              	.LBE169:
 1039              	.LBE168:
 181:Drivers/lvgl/src/draw/sw/lv_draw_sw_gradient.c ****                 uint32_t oldest_life = UINT32_MAX;
 1040              		.loc 1 181 39 view .LVU347
 1041 0152 40F28C80 		bls	.L37
 1042              	.LVL70:
 181:Drivers/lvgl/src/draw/sw/lv_draw_sw_gradient.c ****                 uint32_t oldest_life = UINT32_MAX;
 1043              		.loc 1 181 39 view .LVU348
 1044 0156 CDE90448 		strd	r4, r8, [sp, #16]
 1045 015a CDE906B9 		strd	fp, r9, [sp, #24]
 1046              	.LBB252:
 1047              	.LBB211:
 1048              	.LBB208:
 1049              	.LBB184:
 1050              	.LBB181:
  86:Drivers/lvgl/src/draw/sw/lv_draw_sw_gradient.c **** 
 1051              		.loc 1 86 24 view .LVU349
 1052 015e DEF80000 		ldr	r0, [lr]
 1053 0162 DDF80490 		ldr	r9, [sp, #4]
 1054              	.LVL71:
  86:Drivers/lvgl/src/draw/sw/lv_draw_sw_gradient.c **** 
 1055              		.loc 1 86 24 view .LVU350
 1056 0166 CDF80CE0 		str	lr, [sp, #12]
 1057              	.LBE181:
 1058              	.LBE184:
 1059              	.LBE208:
 1060              	.LBE211:
 1061              	.LBB212:
 1062              	.LBB213:
 1063              	.LBB214:
 1064              	.LBB215:
 1065              	.LBB216:
 1066              	.LBB217:
 1067              	.LBB218:
 1068              	.LBB219:
  74:Drivers/lvgl/src/draw/sw/lv_draw_sw_gradient.c **** #if _DITHER_GRADIENT
 1069              		.loc 1 74 36 view .LVU351
 1070 016a 0226     		movs	r6, #2
 1071 016c 9B46     		mov	fp, r3
 1072              	.LVL72:
 1073              	.L47:
  74:Drivers/lvgl/src/draw/sw/lv_draw_sw_gradient.c **** #if _DITHER_GRADIENT
 1074              		.loc 1 74 36 view .LVU352
 1075              	.LBE219:
 1076              	.LBE218:
ARM GAS  /var/folders/lp/x54gwt890xv47sdkqj1k04q40000gn/T//ccGMRBug.s 			page 38


 1077              	.LBE217:
 1078              	.LBE216:
 1079              	.LBE215:
 1080              	.LBE214:
 1081              	.LBE213:
 1082              	.LBE212:
 182:Drivers/lvgl/src/draw/sw/lv_draw_sw_gradient.c ****                 iterate_cache(&find_oldest_item_life, &oldest_life, NULL);
 1083              		.loc 1 182 17 is_stmt 1 view .LVU353
 183:Drivers/lvgl/src/draw/sw/lv_draw_sw_gradient.c ****                 iterate_cache(&kill_oldest_item, &oldest_life, NULL);
 1084              		.loc 1 183 17 view .LVU354
 1085              	.LBB248:
 1086              	.LBI212:
  97:Drivers/lvgl/src/draw/sw/lv_draw_sw_gradient.c **** {
 1087              		.loc 1 97 17 view .LVU355
 1088              	.LBB246:
  99:Drivers/lvgl/src/draw/sw/lv_draw_sw_gradient.c ****     while(first != NULL && first->life) {
 1089              		.loc 1 99 5 view .LVU356
 1090              	.LBB233:
 1091              	.LBI233:
  84:Drivers/lvgl/src/draw/sw/lv_draw_sw_gradient.c **** {
 1092              		.loc 1 84 20 view .LVU357
 1093              	.LBB234:
  86:Drivers/lvgl/src/draw/sw/lv_draw_sw_gradient.c **** 
 1094              		.loc 1 86 5 view .LVU358
  86:Drivers/lvgl/src/draw/sw/lv_draw_sw_gradient.c **** 
 1095              		.loc 1 86 7 is_stmt 0 view .LVU359
 1096 016e 4FB3     		cbz	r7, .L38
  88:Drivers/lvgl/src/draw/sw/lv_draw_sw_gradient.c ****         return (lv_grad_t *)LV_GC_ROOT(_lv_grad_cache_mem);
 1097              		.loc 1 88 5 is_stmt 1 view .LVU360
  89:Drivers/lvgl/src/draw/sw/lv_draw_sw_gradient.c **** 
 1098              		.loc 1 89 9 view .LVU361
  89:Drivers/lvgl/src/draw/sw/lv_draw_sw_gradient.c **** 
 1099              		.loc 1 89 16 is_stmt 0 view .LVU362
 1100 0170 DAF80040 		ldr	r4, [r10]
 1101              	.LVL73:
  89:Drivers/lvgl/src/draw/sw/lv_draw_sw_gradient.c **** 
 1102              		.loc 1 89 16 view .LVU363
 1103              	.LBE234:
 1104              	.LBE233:
 100:Drivers/lvgl/src/draw/sw/lv_draw_sw_gradient.c ****         if((*func)(first, ctx) == LV_RES_OK) {
 1105              		.loc 1 100 25 is_stmt 1 view .LVU364
 1106 0174 34B3     		cbz	r4, .L38
 1107 0176 2746     		mov	r7, r4
 1108              	.LBE246:
 1109              	.LBE248:
 182:Drivers/lvgl/src/draw/sw/lv_draw_sw_gradient.c ****                 iterate_cache(&find_oldest_item_life, &oldest_life, NULL);
 1110              		.loc 1 182 26 is_stmt 0 view .LVU365
 1111 0178 4FF0FF3C 		mov	ip, #-1
 1112              	.LVL74:
 1113              	.L39:
 1114              	.LBB249:
 1115              	.LBB247:
 101:Drivers/lvgl/src/draw/sw/lv_draw_sw_gradient.c ****             if(out != NULL) *out = first;
 1116              		.loc 1 101 9 is_stmt 1 view .LVU366
 1117              	.LBB235:
 1118              	.LBI235:
 110:Drivers/lvgl/src/draw/sw/lv_draw_sw_gradient.c **** {
ARM GAS  /var/folders/lp/x54gwt890xv47sdkqj1k04q40000gn/T//ccGMRBug.s 			page 39


 1119              		.loc 1 110 17 view .LVU367
 1120              	.LBB236:
 112:Drivers/lvgl/src/draw/sw/lv_draw_sw_gradient.c ****     if(c->life < *min_life) *min_life = c->life;
 1121              		.loc 1 112 5 view .LVU368
 113:Drivers/lvgl/src/draw/sw/lv_draw_sw_gradient.c ****     return LV_RES_INV;
 1122              		.loc 1 113 5 view .LVU369
 113:Drivers/lvgl/src/draw/sw/lv_draw_sw_gradient.c ****     return LV_RES_INV;
 1123              		.loc 1 113 5 is_stmt 0 view .LVU370
 1124              	.LBE236:
 1125              	.LBE235:
 100:Drivers/lvgl/src/draw/sw/lv_draw_sw_gradient.c ****         if((*func)(first, ctx) == LV_RES_OK) {
 1126              		.loc 1 100 25 discriminator 1 view .LVU371
 1127 017c 7B68     		ldr	r3, [r7, #4]
 1128              	.LBB240:
 1129              	.LBB237:
 113:Drivers/lvgl/src/draw/sw/lv_draw_sw_gradient.c ****     return LV_RES_INV;
 1130              		.loc 1 113 9 view .LVU372
 1131 017e C3F31D02 		ubfx	r2, r3, #0, #30
 1132              	.LBE237:
 1133              	.LBE240:
 100:Drivers/lvgl/src/draw/sw/lv_draw_sw_gradient.c ****         if((*func)(first, ctx) == LV_RES_OK) {
 1134              		.loc 1 100 25 discriminator 1 view .LVU373
 1135 0182 33F04043 		bics	r3, r3, #-1073741824
 1136 0186 0BD0     		beq	.L45
 1137              	.LBB241:
 1138              	.LBB230:
 1139              	.LBB227:
 1140              	.LBB224:
 1141              	.LBB222:
 1142              	.LBB220:
  74:Drivers/lvgl/src/draw/sw/lv_draw_sw_gradient.c **** #if _DITHER_GRADIENT
 1143              		.loc 1 74 36 view .LVU374
 1144 0188 BB89     		ldrh	r3, [r7, #12]
 1145 018a 13FB0653 		smlabb	r3, r3, r6, r5
 1146 018e 23F00303 		bic	r3, r3, #3
  74:Drivers/lvgl/src/draw/sw/lv_draw_sw_gradient.c **** #if _DITHER_GRADIENT
 1147              		.loc 1 74 12 view .LVU375
 1148 0192 1033     		adds	r3, r3, #16
 1149              	.LBE220:
 1150              	.LBE222:
 1151              	.LBE224:
 1152              	.LBE227:
 1153              	.LBE230:
 1154              	.LBE241:
 1155              	.LBB242:
 1156              	.LBB238:
 113:Drivers/lvgl/src/draw/sw/lv_draw_sw_gradient.c ****     return LV_RES_INV;
 1157              		.loc 1 113 7 view .LVU376
 1158 0194 9445     		cmp	ip, r2
 1159              	.LBE238:
 1160              	.LBE242:
 1161              	.LBB243:
 1162              	.LBB231:
 1163              	.LBB228:
 1164              	.LBB225:
  93:Drivers/lvgl/src/draw/sw/lv_draw_sw_gradient.c ****     else return (lv_grad_t *)((uint8_t *)item + s);
 1165              		.loc 1 93 24 view .LVU377
ARM GAS  /var/folders/lp/x54gwt890xv47sdkqj1k04q40000gn/T//ccGMRBug.s 			page 40


 1166 0196 1F44     		add	r7, r7, r3
 1167              	.LVL75:
  93:Drivers/lvgl/src/draw/sw/lv_draw_sw_gradient.c ****     else return (lv_grad_t *)((uint8_t *)item + s);
 1168              		.loc 1 93 24 view .LVU378
 1169              	.LBE225:
 1170              	.LBE228:
 1171              	.LBE231:
 1172              	.LBE243:
 1173              	.LBB244:
 1174              	.LBB239:
 113:Drivers/lvgl/src/draw/sw/lv_draw_sw_gradient.c ****     return LV_RES_INV;
 1175              		.loc 1 113 7 view .LVU379
 1176 0198 28BF     		it	cs
 1177 019a 9446     		movcs	ip, r2
 1178              	.LVL76:
 114:Drivers/lvgl/src/draw/sw/lv_draw_sw_gradient.c **** }
 1179              		.loc 1 114 5 is_stmt 1 view .LVU380
 114:Drivers/lvgl/src/draw/sw/lv_draw_sw_gradient.c **** }
 1180              		.loc 1 114 5 is_stmt 0 view .LVU381
 1181              	.LBE239:
 1182              	.LBE244:
 105:Drivers/lvgl/src/draw/sw/lv_draw_sw_gradient.c ****     }
 1183              		.loc 1 105 9 is_stmt 1 view .LVU382
 1184              	.LBB245:
 1185              	.LBI214:
  84:Drivers/lvgl/src/draw/sw/lv_draw_sw_gradient.c **** {
 1186              		.loc 1 84 20 view .LVU383
 1187              	.LBB232:
  86:Drivers/lvgl/src/draw/sw/lv_draw_sw_gradient.c **** 
 1188              		.loc 1 86 5 view .LVU384
  88:Drivers/lvgl/src/draw/sw/lv_draw_sw_gradient.c ****         return (lv_grad_t *)LV_GC_ROOT(_lv_grad_cache_mem);
 1189              		.loc 1 88 5 view .LVU385
 1190              	.LBB229:
 1191              	.LBI216:
  84:Drivers/lvgl/src/draw/sw/lv_draw_sw_gradient.c **** {
 1192              		.loc 1 84 20 view .LVU386
 1193              	.LBB226:
  91:Drivers/lvgl/src/draw/sw/lv_draw_sw_gradient.c ****     /*Compute the size for this cache item*/
 1194              		.loc 1 91 5 view .LVU387
 1195              	.LBB223:
 1196              	.LBI218:
  72:Drivers/lvgl/src/draw/sw/lv_draw_sw_gradient.c **** {
 1197              		.loc 1 72 15 view .LVU388
 1198              	.LBB221:
  74:Drivers/lvgl/src/draw/sw/lv_draw_sw_gradient.c **** #if _DITHER_GRADIENT
 1199              		.loc 1 74 5 view .LVU389
  81:Drivers/lvgl/src/draw/sw/lv_draw_sw_gradient.c **** }
 1200              		.loc 1 81 5 view .LVU390
  81:Drivers/lvgl/src/draw/sw/lv_draw_sw_gradient.c **** }
 1201              		.loc 1 81 5 is_stmt 0 view .LVU391
 1202              	.LBE221:
 1203              	.LBE223:
  93:Drivers/lvgl/src/draw/sw/lv_draw_sw_gradient.c ****     else return (lv_grad_t *)((uint8_t *)item + s);
 1204              		.loc 1 93 5 is_stmt 1 view .LVU392
  93:Drivers/lvgl/src/draw/sw/lv_draw_sw_gradient.c ****     else return (lv_grad_t *)((uint8_t *)item + s);
 1205              		.loc 1 93 7 is_stmt 0 view .LVU393
 1206 019c 8F42     		cmp	r7, r1
ARM GAS  /var/folders/lp/x54gwt890xv47sdkqj1k04q40000gn/T//ccGMRBug.s 			page 41


 1207 019e EDD3     		bcc	.L39
 1208              	.LVL77:
 1209              	.L45:
  93:Drivers/lvgl/src/draw/sw/lv_draw_sw_gradient.c ****     else return (lv_grad_t *)((uint8_t *)item + s);
 1210              		.loc 1 93 7 view .LVU394
 1211              	.LBE226:
 1212              	.LBE229:
 1213              	.LBE232:
 1214              	.LBE245:
 1215              	.LBE247:
 1216              	.LBE249:
 1217              	.LBB250:
 1218              	.LBB209:
 101:Drivers/lvgl/src/draw/sw/lv_draw_sw_gradient.c ****             if(out != NULL) *out = first;
 1219              		.loc 1 101 9 is_stmt 1 view .LVU395
 1220              	.LBB185:
 1221              	.LBI185:
 140:Drivers/lvgl/src/draw/sw/lv_draw_sw_gradient.c **** {
 1222              		.loc 1 140 17 view .LVU396
 1223              	.LBB186:
 142:Drivers/lvgl/src/draw/sw/lv_draw_sw_gradient.c ****     if(c->life == *min_life) {
 1224              		.loc 1 142 5 view .LVU397
 143:Drivers/lvgl/src/draw/sw/lv_draw_sw_gradient.c ****         /*Found, let's kill it*/
 1225              		.loc 1 143 5 view .LVU398
 143:Drivers/lvgl/src/draw/sw/lv_draw_sw_gradient.c ****         /*Found, let's kill it*/
 1226              		.loc 1 143 5 is_stmt 0 view .LVU399
 1227              	.LBE186:
 1228              	.LBE185:
 105:Drivers/lvgl/src/draw/sw/lv_draw_sw_gradient.c ****     }
 1229              		.loc 1 105 9 is_stmt 1 view .LVU400
 1230              	.LBB203:
 1231              	.LBI171:
  84:Drivers/lvgl/src/draw/sw/lv_draw_sw_gradient.c **** {
 1232              		.loc 1 84 20 view .LVU401
 1233              	.LBB182:
  86:Drivers/lvgl/src/draw/sw/lv_draw_sw_gradient.c **** 
 1234              		.loc 1 86 5 view .LVU402
  88:Drivers/lvgl/src/draw/sw/lv_draw_sw_gradient.c ****         return (lv_grad_t *)LV_GC_ROOT(_lv_grad_cache_mem);
 1235              		.loc 1 88 5 view .LVU403
 1236              	.LBB173:
 1237              	.LBI173:
  84:Drivers/lvgl/src/draw/sw/lv_draw_sw_gradient.c **** {
 1238              		.loc 1 84 20 view .LVU404
 1239              	.LBB174:
  91:Drivers/lvgl/src/draw/sw/lv_draw_sw_gradient.c ****     /*Compute the size for this cache item*/
 1240              		.loc 1 91 5 view .LVU405
 1241              	.LBB175:
 1242              	.LBI175:
  72:Drivers/lvgl/src/draw/sw/lv_draw_sw_gradient.c **** {
 1243              		.loc 1 72 15 view .LVU406
 1244              	.LBB176:
  74:Drivers/lvgl/src/draw/sw/lv_draw_sw_gradient.c **** #if _DITHER_GRADIENT
 1245              		.loc 1 74 5 view .LVU407
  81:Drivers/lvgl/src/draw/sw/lv_draw_sw_gradient.c **** }
 1246              		.loc 1 81 5 view .LVU408
  81:Drivers/lvgl/src/draw/sw/lv_draw_sw_gradient.c **** }
 1247              		.loc 1 81 5 is_stmt 0 view .LVU409
ARM GAS  /var/folders/lp/x54gwt890xv47sdkqj1k04q40000gn/T//ccGMRBug.s 			page 42


 1248              	.LBE176:
 1249              	.LBE175:
  93:Drivers/lvgl/src/draw/sw/lv_draw_sw_gradient.c ****     else return (lv_grad_t *)((uint8_t *)item + s);
 1250              		.loc 1 93 5 is_stmt 1 view .LVU410
  93:Drivers/lvgl/src/draw/sw/lv_draw_sw_gradient.c ****     else return (lv_grad_t *)((uint8_t *)item + s);
 1251              		.loc 1 93 5 is_stmt 0 view .LVU411
 1252              	.LBE174:
 1253              	.LBE173:
 1254              	.LBE182:
 1255              	.LBE203:
 100:Drivers/lvgl/src/draw/sw/lv_draw_sw_gradient.c ****         if((*func)(first, ctx) == LV_RES_OK) {
 1256              		.loc 1 100 25 is_stmt 1 view .LVU412
 100:Drivers/lvgl/src/draw/sw/lv_draw_sw_gradient.c ****         if((*func)(first, ctx) == LV_RES_OK) {
 1257              		.loc 1 100 25 is_stmt 0 discriminator 1 view .LVU413
 1258 01a0 6368     		ldr	r3, [r4, #4]
 1259              	.LBB204:
 1260              	.LBB200:
 143:Drivers/lvgl/src/draw/sw/lv_draw_sw_gradient.c ****         /*Found, let's kill it*/
 1261              		.loc 1 143 9 view .LVU414
 1262 01a2 C3F31D02 		ubfx	r2, r3, #0, #30
 1263              	.LBE200:
 1264              	.LBE204:
 100:Drivers/lvgl/src/draw/sw/lv_draw_sw_gradient.c ****         if((*func)(first, ctx) == LV_RES_OK) {
 1265              		.loc 1 100 25 discriminator 1 view .LVU415
 1266 01a6 33F04043 		bics	r3, r3, #-1073741824
 1267 01aa 0BD0     		beq	.L38
 1268              	.LBB205:
 1269              	.LBB201:
 143:Drivers/lvgl/src/draw/sw/lv_draw_sw_gradient.c ****         /*Found, let's kill it*/
 1270              		.loc 1 143 7 view .LVU416
 1271 01ac 9445     		cmp	ip, r2
 1272 01ae 1ED0     		beq	.L92
 1273              	.LBE201:
 1274              	.LBE205:
 1275              	.LBB206:
 1276              	.LBB183:
  86:Drivers/lvgl/src/draw/sw/lv_draw_sw_gradient.c **** 
 1277              		.loc 1 86 7 view .LVU417
 1278 01b0 40B1     		cbz	r0, .L38
 1279              	.LBB180:
 1280              	.LBB179:
 1281              	.LBB178:
 1282              	.LBB177:
  74:Drivers/lvgl/src/draw/sw/lv_draw_sw_gradient.c **** #if _DITHER_GRADIENT
 1283              		.loc 1 74 36 view .LVU418
 1284 01b2 A389     		ldrh	r3, [r4, #12]
 1285 01b4 13FB0653 		smlabb	r3, r3, r6, r5
 1286 01b8 23F00303 		bic	r3, r3, #3
  74:Drivers/lvgl/src/draw/sw/lv_draw_sw_gradient.c **** #if _DITHER_GRADIENT
 1287              		.loc 1 74 12 view .LVU419
 1288 01bc 1033     		adds	r3, r3, #16
 1289              	.LBE177:
 1290              	.LBE178:
  93:Drivers/lvgl/src/draw/sw/lv_draw_sw_gradient.c ****     else return (lv_grad_t *)((uint8_t *)item + s);
 1291              		.loc 1 93 24 view .LVU420
 1292 01be 1C44     		add	r4, r4, r3
 1293              	.LVL78:
ARM GAS  /var/folders/lp/x54gwt890xv47sdkqj1k04q40000gn/T//ccGMRBug.s 			page 43


  93:Drivers/lvgl/src/draw/sw/lv_draw_sw_gradient.c ****     else return (lv_grad_t *)((uint8_t *)item + s);
 1294              		.loc 1 93 7 view .LVU421
 1295 01c0 8C42     		cmp	r4, r1
 1296 01c2 EDD3     		bcc	.L45
 1297              	.LVL79:
 1298              	.L38:
  93:Drivers/lvgl/src/draw/sw/lv_draw_sw_gradient.c ****     else return (lv_grad_t *)((uint8_t *)item + s);
 1299              		.loc 1 93 7 view .LVU422
 1300              	.LBE179:
 1301              	.LBE180:
 1302              	.LBE183:
 1303              	.LBE206:
 1304              	.LBE209:
 1305              	.LBE250:
 185:Drivers/lvgl/src/draw/sw/lv_draw_sw_gradient.c ****             }
 1306              		.loc 1 185 17 is_stmt 1 view .LVU423
 185:Drivers/lvgl/src/draw/sw/lv_draw_sw_gradient.c ****             }
 1307              		.loc 1 185 17 is_stmt 0 view .LVU424
 1308              	.LBE252:
 181:Drivers/lvgl/src/draw/sw/lv_draw_sw_gradient.c ****                 uint32_t oldest_life = UINT32_MAX;
 1309              		.loc 1 181 39 is_stmt 1 view .LVU425
 1310              	.LBB253:
 185:Drivers/lvgl/src/draw/sw/lv_draw_sw_gradient.c ****             }
 1311              		.loc 1 185 52 is_stmt 0 view .LVU426
 1312 01c4 DAF80020 		ldr	r2, [r10]
 1313 01c8 8A1A     		subs	r2, r1, r2
 1314              	.LBE253:
 181:Drivers/lvgl/src/draw/sw/lv_draw_sw_gradient.c ****                 uint32_t oldest_life = UINT32_MAX;
 1315              		.loc 1 181 28 view .LVU427
 1316 01ca 4A44     		add	r2, r2, r9
 181:Drivers/lvgl/src/draw/sw/lv_draw_sw_gradient.c ****                 uint32_t oldest_life = UINT32_MAX;
 1317              		.loc 1 181 39 view .LVU428
 1318 01cc 8242     		cmp	r2, r0
 1319 01ce 47D9     		bls	.L93
 1320              	.LVL80:
 1321              	.L62:
 181:Drivers/lvgl/src/draw/sw/lv_draw_sw_gradient.c ****                 uint32_t oldest_life = UINT32_MAX;
 1322              		.loc 1 181 39 view .LVU429
 1323 01d0 0746     		mov	r7, r0
 1324 01d2 CCE7     		b	.L47
 1325              	.LVL81:
 1326              	.L36:
 192:Drivers/lvgl/src/draw/sw/lv_draw_sw_gradient.c ****             LV_ASSERT_MALLOC(item);
 1327              		.loc 1 192 13 is_stmt 1 view .LVU430
 192:Drivers/lvgl/src/draw/sw/lv_draw_sw_gradient.c ****             LV_ASSERT_MALLOC(item);
 1328              		.loc 1 192 20 is_stmt 0 view .LVU431
 1329 01d4 0198     		ldr	r0, [sp, #4]
 1330 01d6 0293     		str	r3, [sp, #8]
 1331 01d8 FFF7FEFF 		bl	lv_mem_alloc
 1332              	.LVL82:
 193:Drivers/lvgl/src/draw/sw/lv_draw_sw_gradient.c ****             if(item == NULL) return NULL;
 1333              		.loc 1 193 13 is_stmt 1 view .LVU432
 193:Drivers/lvgl/src/draw/sw/lv_draw_sw_gradient.c ****             if(item == NULL) return NULL;
 1334              		.loc 1 193 13 view .LVU433
 1335 01dc 029B     		ldr	r3, [sp, #8]
 1336 01de 0146     		mov	r1, r0
 1337 01e0 20B1     		cbz	r0, .L49
ARM GAS  /var/folders/lp/x54gwt890xv47sdkqj1k04q40000gn/T//ccGMRBug.s 			page 44


 193:Drivers/lvgl/src/draw/sw/lv_draw_sw_gradient.c ****             if(item == NULL) return NULL;
 1338              		.loc 1 193 13 discriminator 2 view .LVU434
 193:Drivers/lvgl/src/draw/sw/lv_draw_sw_gradient.c ****             if(item == NULL) return NULL;
 1339              		.loc 1 193 35 discriminator 2 view .LVU435
 194:Drivers/lvgl/src/draw/sw/lv_draw_sw_gradient.c ****             item->not_cached = 1;
 1340              		.loc 1 194 13 view .LVU436
 195:Drivers/lvgl/src/draw/sw/lv_draw_sw_gradient.c ****         }
 1341              		.loc 1 195 13 view .LVU437
 195:Drivers/lvgl/src/draw/sw/lv_draw_sw_gradient.c ****         }
 1342              		.loc 1 195 30 is_stmt 0 view .LVU438
 1343 01e2 C279     		ldrb	r2, [r0, #7]	@ zero_extendqisi2
 1344 01e4 42F08002 		orr	r2, r2, #128
 1345 01e8 C271     		strb	r2, [r0, #7]
 1346              	.LVL83:
 195:Drivers/lvgl/src/draw/sw/lv_draw_sw_gradient.c ****         }
 1347              		.loc 1 195 30 view .LVU439
 1348 01ea 59E7     		b	.L35
 1349              	.LVL84:
 1350              	.L49:
 193:Drivers/lvgl/src/draw/sw/lv_draw_sw_gradient.c ****             if(item == NULL) return NULL;
 1351              		.loc 1 193 13 is_stmt 1 discriminator 1 view .LVU440
 193:Drivers/lvgl/src/draw/sw/lv_draw_sw_gradient.c ****             if(item == NULL) return NULL;
 1352              		.loc 1 193 13 discriminator 1 view .LVU441
 193:Drivers/lvgl/src/draw/sw/lv_draw_sw_gradient.c ****             if(item == NULL) return NULL;
 1353              		.loc 1 193 13 discriminator 1 view .LVU442
 193:Drivers/lvgl/src/draw/sw/lv_draw_sw_gradient.c ****             if(item == NULL) return NULL;
 1354              		.loc 1 193 13 discriminator 1 view .LVU443
 193:Drivers/lvgl/src/draw/sw/lv_draw_sw_gradient.c ****             if(item == NULL) return NULL;
 1355              		.loc 1 193 13 discriminator 1 view .LVU444
 193:Drivers/lvgl/src/draw/sw/lv_draw_sw_gradient.c ****             if(item == NULL) return NULL;
 1356              		.loc 1 193 13 discriminator 1 view .LVU445
 193:Drivers/lvgl/src/draw/sw/lv_draw_sw_gradient.c ****             if(item == NULL) return NULL;
 1357              		.loc 1 193 13 discriminator 1 view .LVU446
 193:Drivers/lvgl/src/draw/sw/lv_draw_sw_gradient.c ****             if(item == NULL) return NULL;
 1358              		.loc 1 193 13 discriminator 1 view .LVU447
 193:Drivers/lvgl/src/draw/sw/lv_draw_sw_gradient.c ****             if(item == NULL) return NULL;
 1359              		.loc 1 193 13 discriminator 1 view .LVU448
 193:Drivers/lvgl/src/draw/sw/lv_draw_sw_gradient.c ****             if(item == NULL) return NULL;
 1360              		.loc 1 193 13 discriminator 1 view .LVU449
 1361 01ec FEE7     		b	.L49
 1362              	.LVL85:
 1363              	.L92:
 1364              	.LBB254:
 1365              	.LBB251:
 1366              	.LBB210:
 1367              	.LBB207:
 1368              	.LBB202:
 145:Drivers/lvgl/src/draw/sw/lv_draw_sw_gradient.c ****         return LV_RES_OK;
 1369              		.loc 1 145 9 view .LVU450
 1370              	.LBB187:
 1371              	.LBI187:
 117:Drivers/lvgl/src/draw/sw/lv_draw_sw_gradient.c **** {
 1372              		.loc 1 117 13 view .LVU451
 1373              	.LBB188:
 119:Drivers/lvgl/src/draw/sw/lv_draw_sw_gradient.c ****     size_t next_items_size = (size_t)(grad_cache_end - (uint8_t *)c) - size;
 1374              		.loc 1 119 5 view .LVU452
 1375              	.LBB189:
ARM GAS  /var/folders/lp/x54gwt890xv47sdkqj1k04q40000gn/T//ccGMRBug.s 			page 45


 1376              	.LBI189:
  72:Drivers/lvgl/src/draw/sw/lv_draw_sw_gradient.c **** {
 1377              		.loc 1 72 15 view .LVU453
 1378              	.LBB190:
  74:Drivers/lvgl/src/draw/sw/lv_draw_sw_gradient.c **** #if _DITHER_GRADIENT
 1379              		.loc 1 74 5 view .LVU454
  74:Drivers/lvgl/src/draw/sw/lv_draw_sw_gradient.c **** #if _DITHER_GRADIENT
 1380              		.loc 1 74 36 is_stmt 0 view .LVU455
 1381 01ee A789     		ldrh	r7, [r4, #12]
 1382 01f0 17FB0657 		smlabb	r7, r7, r6, r5
 1383 01f4 27F00307 		bic	r7, r7, #3
 1384              	.LBE190:
 1385              	.LBE189:
 121:Drivers/lvgl/src/draw/sw/lv_draw_sw_gradient.c ****     if(next_items_size) {
 1386              		.loc 1 121 20 view .LVU456
 1387 01f8 6FF00F08 		mvn	r8, #15
 1388 01fc A8EB0708 		sub	r8, r8, r7
 120:Drivers/lvgl/src/draw/sw/lv_draw_sw_gradient.c ****     grad_cache_end -= size;
 1389              		.loc 1 120 54 view .LVU457
 1390 0200 0A1B     		subs	r2, r1, r4
 1391              	.LBB192:
 1392              	.LBB191:
  74:Drivers/lvgl/src/draw/sw/lv_draw_sw_gradient.c **** #if _DITHER_GRADIENT
 1393              		.loc 1 74 12 view .LVU458
 1394 0202 1037     		adds	r7, r7, #16
 1395              	.LVL86:
  81:Drivers/lvgl/src/draw/sw/lv_draw_sw_gradient.c **** }
 1396              		.loc 1 81 5 is_stmt 1 view .LVU459
  81:Drivers/lvgl/src/draw/sw/lv_draw_sw_gradient.c **** }
 1397              		.loc 1 81 5 is_stmt 0 view .LVU460
 1398              	.LBE191:
 1399              	.LBE192:
 120:Drivers/lvgl/src/draw/sw/lv_draw_sw_gradient.c ****     grad_cache_end -= size;
 1400              		.loc 1 120 5 is_stmt 1 view .LVU461
 121:Drivers/lvgl/src/draw/sw/lv_draw_sw_gradient.c ****     if(next_items_size) {
 1401              		.loc 1 121 5 view .LVU462
 121:Drivers/lvgl/src/draw/sw/lv_draw_sw_gradient.c ****     if(next_items_size) {
 1402              		.loc 1 121 20 is_stmt 0 view .LVU463
 1403 0204 4144     		add	r1, r1, r8
 122:Drivers/lvgl/src/draw/sw/lv_draw_sw_gradient.c ****         uint8_t * old = (uint8_t *)c;
 1404              		.loc 1 122 7 view .LVU464
 1405 0206 D21B     		subs	r2, r2, r7
 1406              	.LVL87:
 121:Drivers/lvgl/src/draw/sw/lv_draw_sw_gradient.c ****     if(next_items_size) {
 1407              		.loc 1 121 20 view .LVU465
 1408 0208 CBF80010 		str	r1, [fp]
 122:Drivers/lvgl/src/draw/sw/lv_draw_sw_gradient.c ****         uint8_t * old = (uint8_t *)c;
 1409              		.loc 1 122 5 is_stmt 1 view .LVU466
 122:Drivers/lvgl/src/draw/sw/lv_draw_sw_gradient.c ****         uint8_t * old = (uint8_t *)c;
 1410              		.loc 1 122 7 is_stmt 0 view .LVU467
 1411 020c DAD0     		beq	.L38
 1412              	.LBB193:
 123:Drivers/lvgl/src/draw/sw/lv_draw_sw_gradient.c ****         lv_memcpy(c, ((uint8_t *)c) + size, next_items_size);
 1413              		.loc 1 123 9 is_stmt 1 view .LVU468
 1414              	.LVL88:
 124:Drivers/lvgl/src/draw/sw/lv_draw_sw_gradient.c ****         /* Then need to fix all internal pointers too */
 1415              		.loc 1 124 9 view .LVU469
ARM GAS  /var/folders/lp/x54gwt890xv47sdkqj1k04q40000gn/T//ccGMRBug.s 			page 46


 1416 020e E119     		adds	r1, r4, r7
 1417 0210 2046     		mov	r0, r4
 1418 0212 0292     		str	r2, [sp, #8]
 1419 0214 FFF7FEFF 		bl	lv_memcpy
 1420              	.LVL89:
 126:Drivers/lvgl/src/draw/sw/lv_draw_sw_gradient.c ****             c->map = (lv_color_t *)(((uint8_t *)c->map) - size);
 1421              		.loc 1 126 9 view .LVU470
 126:Drivers/lvgl/src/draw/sw/lv_draw_sw_gradient.c ****             c->map = (lv_color_t *)(((uint8_t *)c->map) - size);
 1422              		.loc 1 126 28 view .LVU471
 1423 0218 DBF80030 		ldr	r3, [fp]
 1424 021c 029A     		ldr	r2, [sp, #8]
 1425 021e A342     		cmp	r3, r4
 1426 0220 18BF     		it	ne
 1427 0222 A446     		movne	ip, r4
 1428 0224 0ED0     		beq	.L44
 1429              	.LVL90:
 1430              	.L43:
 127:Drivers/lvgl/src/draw/sw/lv_draw_sw_gradient.c **** #if _DITHER_GRADIENT
 1431              		.loc 1 127 13 view .LVU472
 1432              	.LBB194:
 1433              	.LBB195:
  74:Drivers/lvgl/src/draw/sw/lv_draw_sw_gradient.c **** #if _DITHER_GRADIENT
 1434              		.loc 1 74 36 is_stmt 0 view .LVU473
 1435 0226 BCF80C10 		ldrh	r1, [ip, #12]
 1436              	.LBE195:
 1437              	.LBE194:
 127:Drivers/lvgl/src/draw/sw/lv_draw_sw_gradient.c **** #if _DITHER_GRADIENT
 1438              		.loc 1 127 22 view .LVU474
 1439 022a DCF80800 		ldr	r0, [ip, #8]
 1440              	.LBB198:
 1441              	.LBB196:
  74:Drivers/lvgl/src/draw/sw/lv_draw_sw_gradient.c **** #if _DITHER_GRADIENT
 1442              		.loc 1 74 36 view .LVU475
 1443 022e 11FB0651 		smlabb	r1, r1, r6, r5
 1444 0232 21F00301 		bic	r1, r1, #3
  74:Drivers/lvgl/src/draw/sw/lv_draw_sw_gradient.c **** #if _DITHER_GRADIENT
 1445              		.loc 1 74 12 view .LVU476
 1446 0236 1031     		adds	r1, r1, #16
 1447              	.LBE196:
 1448              	.LBE198:
 127:Drivers/lvgl/src/draw/sw/lv_draw_sw_gradient.c **** #if _DITHER_GRADIENT
 1449              		.loc 1 127 22 view .LVU477
 1450 0238 4044     		add	r0, r0, r8
 127:Drivers/lvgl/src/draw/sw/lv_draw_sw_gradient.c **** #if _DITHER_GRADIENT
 1451              		.loc 1 127 20 view .LVU478
 1452 023a CCF80800 		str	r0, [ip, #8]
 134:Drivers/lvgl/src/draw/sw/lv_draw_sw_gradient.c ****         }
 1453              		.loc 1 134 13 is_stmt 1 view .LVU479
 1454              	.LVL91:
 1455              	.LBB199:
 1456              	.LBI194:
  72:Drivers/lvgl/src/draw/sw/lv_draw_sw_gradient.c **** {
 1457              		.loc 1 72 15 view .LVU480
 1458              	.LBB197:
  74:Drivers/lvgl/src/draw/sw/lv_draw_sw_gradient.c **** #if _DITHER_GRADIENT
 1459              		.loc 1 74 5 view .LVU481
  81:Drivers/lvgl/src/draw/sw/lv_draw_sw_gradient.c **** }
ARM GAS  /var/folders/lp/x54gwt890xv47sdkqj1k04q40000gn/T//ccGMRBug.s 			page 47


 1460              		.loc 1 81 5 view .LVU482
  81:Drivers/lvgl/src/draw/sw/lv_draw_sw_gradient.c **** }
 1461              		.loc 1 81 5 is_stmt 0 view .LVU483
 1462              	.LBE197:
 1463              	.LBE199:
 134:Drivers/lvgl/src/draw/sw/lv_draw_sw_gradient.c ****         }
 1464              		.loc 1 134 15 discriminator 1 view .LVU484
 1465 023e 8C44     		add	ip, ip, r1
 1466              	.LVL92:
 126:Drivers/lvgl/src/draw/sw/lv_draw_sw_gradient.c ****             c->map = (lv_color_t *)(((uint8_t *)c->map) - size);
 1467              		.loc 1 126 28 is_stmt 1 view .LVU485
 1468 0240 6345     		cmp	r3, ip
 1469 0242 F0D1     		bne	.L43
 1470              	.LVL93:
 1471              	.L44:
 136:Drivers/lvgl/src/draw/sw/lv_draw_sw_gradient.c ****     }
 1472              		.loc 1 136 9 view .LVU486
 1473 0244 A018     		adds	r0, r4, r2
 1474 0246 3946     		mov	r1, r7
 1475 0248 FFF7FEFF 		bl	lv_memset_00
 1476              	.LVL94:
 136:Drivers/lvgl/src/draw/sw/lv_draw_sw_gradient.c ****     }
 1477              		.loc 1 136 9 is_stmt 0 view .LVU487
 1478              	.LBE193:
 1479              	.LBE188:
 1480              	.LBE187:
 1481              	.LBE202:
 1482              	.LBE207:
 1483              	.LBE210:
 1484              	.LBE251:
 185:Drivers/lvgl/src/draw/sw/lv_draw_sw_gradient.c ****             }
 1485              		.loc 1 185 52 view .LVU488
 1486 024c DBF80010 		ldr	r1, [fp]
 1487              	.LBE254:
 181:Drivers/lvgl/src/draw/sw/lv_draw_sw_gradient.c ****                 uint32_t oldest_life = UINT32_MAX;
 1488              		.loc 1 181 39 view .LVU489
 1489 0250 039B     		ldr	r3, [sp, #12]
 1490              	.LBB255:
 185:Drivers/lvgl/src/draw/sw/lv_draw_sw_gradient.c ****             }
 1491              		.loc 1 185 52 view .LVU490
 1492 0252 DAF80020 		ldr	r2, [r10]
 1493              	.LBE255:
 181:Drivers/lvgl/src/draw/sw/lv_draw_sw_gradient.c ****                 uint32_t oldest_life = UINT32_MAX;
 1494              		.loc 1 181 39 view .LVU491
 1495 0256 1868     		ldr	r0, [r3]
 1496              	.LVL95:
 1497              	.LBB256:
 185:Drivers/lvgl/src/draw/sw/lv_draw_sw_gradient.c ****             }
 1498              		.loc 1 185 17 is_stmt 1 view .LVU492
 185:Drivers/lvgl/src/draw/sw/lv_draw_sw_gradient.c ****             }
 1499              		.loc 1 185 17 is_stmt 0 view .LVU493
 1500              	.LBE256:
 181:Drivers/lvgl/src/draw/sw/lv_draw_sw_gradient.c ****                 uint32_t oldest_life = UINT32_MAX;
 1501              		.loc 1 181 39 is_stmt 1 view .LVU494
 1502              	.LBB257:
 185:Drivers/lvgl/src/draw/sw/lv_draw_sw_gradient.c ****             }
 1503              		.loc 1 185 52 is_stmt 0 view .LVU495
ARM GAS  /var/folders/lp/x54gwt890xv47sdkqj1k04q40000gn/T//ccGMRBug.s 			page 48


 1504 0258 8A1A     		subs	r2, r1, r2
 1505              	.LBE257:
 181:Drivers/lvgl/src/draw/sw/lv_draw_sw_gradient.c ****                 uint32_t oldest_life = UINT32_MAX;
 1506              		.loc 1 181 28 view .LVU496
 1507 025a 4A44     		add	r2, r2, r9
 181:Drivers/lvgl/src/draw/sw/lv_draw_sw_gradient.c ****                 uint32_t oldest_life = UINT32_MAX;
 1508              		.loc 1 181 39 view .LVU497
 1509 025c 8242     		cmp	r2, r0
 1510 025e B7D8     		bhi	.L62
 1511              	.LVL96:
 1512              	.L93:
 181:Drivers/lvgl/src/draw/sw/lv_draw_sw_gradient.c ****                 uint32_t oldest_life = UINT32_MAX;
 1513              		.loc 1 181 39 view .LVU498
 1514 0260 DDE90448 		ldrd	r4, r8, [sp, #16]
 1515 0264 5B46     		mov	r3, fp
 1516 0266 DDF81C90 		ldr	r9, [sp, #28]
 1517 026a DDF818B0 		ldr	fp, [sp, #24]
 1518              	.LVL97:
 1519              	.L37:
 187:Drivers/lvgl/src/draw/sw/lv_draw_sw_gradient.c ****             item->not_cached = 0;
 1520              		.loc 1 187 13 is_stmt 1 view .LVU499
 188:Drivers/lvgl/src/draw/sw/lv_draw_sw_gradient.c ****         }
 1521              		.loc 1 188 13 view .LVU500
 188:Drivers/lvgl/src/draw/sw/lv_draw_sw_gradient.c ****         }
 1522              		.loc 1 188 30 is_stmt 0 view .LVU501
 1523 026e CA79     		ldrb	r2, [r1, #7]	@ zero_extendqisi2
 1524 0270 22F08002 		bic	r2, r2, #128
 1525 0274 CA71     		strb	r2, [r1, #7]
 1526              	.LVL98:
 188:Drivers/lvgl/src/draw/sw/lv_draw_sw_gradient.c ****         }
 1527              		.loc 1 188 30 view .LVU502
 1528 0276 13E7     		b	.L35
 1529              	.LVL99:
 1530              	.L91:
 1531              	.LBB258:
 205:Drivers/lvgl/src/draw/sw/lv_draw_sw_gradient.c ****         item->map = (lv_color_t *)(p + ALIGN(sizeof(*item)));
 1532              		.loc 1 205 9 is_stmt 1 view .LVU503
 206:Drivers/lvgl/src/draw/sw/lv_draw_sw_gradient.c **** #if _DITHER_GRADIENT
 1533              		.loc 1 206 9 view .LVU504
 206:Drivers/lvgl/src/draw/sw/lv_draw_sw_gradient.c **** #if _DITHER_GRADIENT
 1534              		.loc 1 206 38 is_stmt 0 view .LVU505
 1535 0278 01F11006 		add	r6, r1, #16
 1536              	.LBE258:
 228:Drivers/lvgl/src/draw/sw/lv_draw_sw_gradient.c **** }
 1537              		.loc 1 228 5 is_stmt 1 view .LVU506
 1538              	.LVL100:
 228:Drivers/lvgl/src/draw/sw/lv_draw_sw_gradient.c **** }
 1539              		.loc 1 228 5 is_stmt 0 view .LVU507
 1540              	.LBE259:
 1541              	.LBE272:
 274:Drivers/lvgl/src/draw/sw/lv_draw_sw_gradient.c ****         LV_LOG_WARN("Faild to allcoate item for teh gradient");
 1542              		.loc 1 274 5 is_stmt 1 view .LVU508
 1543 027c 23E7     		b	.L51
 1544              	.LVL101:
 1545              	.L56:
 1546              		.cfi_def_cfa_offset 0
 1547              		.cfi_restore 4
ARM GAS  /var/folders/lp/x54gwt890xv47sdkqj1k04q40000gn/T//ccGMRBug.s 			page 49


 1548              		.cfi_restore 5
 1549              		.cfi_restore 6
 1550              		.cfi_restore 7
 1551              		.cfi_restore 8
 1552              		.cfi_restore 9
 1553              		.cfi_restore 10
 1554              		.cfi_restore 11
 1555              		.cfi_restore 14
 294:Drivers/lvgl/src/draw/sw/lv_draw_sw_gradient.c **** 
 1556              		.loc 1 294 1 is_stmt 0 view .LVU509
 1557 027e 1846     		mov	r0, r3
 1558              	.LVL102:
 294:Drivers/lvgl/src/draw/sw/lv_draw_sw_gradient.c **** 
 1559              		.loc 1 294 1 view .LVU510
 1560 0280 7047     		bx	lr
 1561              	.LVL103:
 1562              	.L28:
 1563              		.cfi_def_cfa_offset 72
 1564              		.cfi_offset 4, -36
 1565              		.cfi_offset 5, -32
 1566              		.cfi_offset 6, -28
 1567              		.cfi_offset 7, -24
 1568              		.cfi_offset 8, -20
 1569              		.cfi_offset 9, -16
 1570              		.cfi_offset 10, -12
 1571              		.cfi_offset 11, -8
 1572              		.cfi_offset 14, -4
 265:Drivers/lvgl/src/draw/sw/lv_draw_sw_gradient.c ****     lv_grad_t * item = NULL;
 1573              		.loc 1 265 5 is_stmt 1 view .LVU511
 1574              	.LBB273:
  65:Drivers/lvgl/src/draw/sw/lv_draw_sw_gradient.c **** {
 1575              		.loc 1 65 17 view .LVU512
 1576              	.LBB164:
  67:Drivers/lvgl/src/draw/sw/lv_draw_sw_gradient.c ****     v.ptr = g;
 1577              		.loc 1 67 5 view .LVU513
  68:Drivers/lvgl/src/draw/sw/lv_draw_sw_gradient.c ****     return (v.value ^ size ^ (w >> 1)); /*Yes, this is correct, it's like a hash that changes if th
 1578              		.loc 1 68 5 view .LVU514
  69:Drivers/lvgl/src/draw/sw/lv_draw_sw_gradient.c **** }
 1579              		.loc 1 69 5 view .LVU515
  69:Drivers/lvgl/src/draw/sw/lv_draw_sw_gradient.c **** }
 1580              		.loc 1 69 28 is_stmt 0 view .LVU516
 1581 0282 85EA6508 		eor	r8, r5, r5, asr #1
 1582 0286 89EA0808 		eor	r8, r9, r8
 1583              	.LVL104:
  69:Drivers/lvgl/src/draw/sw/lv_draw_sw_gradient.c **** }
 1584              		.loc 1 69 28 view .LVU517
 1585              	.LBE164:
 1586              	.LBE273:
 266:Drivers/lvgl/src/draw/sw/lv_draw_sw_gradient.c ****     if(iterate_cache(&find_item, &key, &item) == LV_RES_OK) {
 1587              		.loc 1 266 5 is_stmt 1 view .LVU518
 267:Drivers/lvgl/src/draw/sw/lv_draw_sw_gradient.c ****         item->life++; /* Don't forget to bump the counter */
 1588              		.loc 1 267 5 view .LVU519
 1589              	.LBB274:
  97:Drivers/lvgl/src/draw/sw/lv_draw_sw_gradient.c **** {
 1590              		.loc 1 97 17 view .LVU520
 1591              	.LBB159:
  99:Drivers/lvgl/src/draw/sw/lv_draw_sw_gradient.c ****     while(first != NULL && first->life) {
ARM GAS  /var/folders/lp/x54gwt890xv47sdkqj1k04q40000gn/T//ccGMRBug.s 			page 50


 1592              		.loc 1 99 5 view .LVU521
 1593              	.LBB154:
  84:Drivers/lvgl/src/draw/sw/lv_draw_sw_gradient.c **** {
 1594              		.loc 1 84 20 view .LVU522
 1595              	.LBB127:
  86:Drivers/lvgl/src/draw/sw/lv_draw_sw_gradient.c **** 
 1596              		.loc 1 86 5 view .LVU523
 1597              	.LBE127:
 1598              	.LBE154:
 1599              	.LBE159:
 1600              	.LBE274:
 264:Drivers/lvgl/src/draw/sw/lv_draw_sw_gradient.c ****     uint32_t key = compute_key(g, size, w);
 1601              		.loc 1 264 16 is_stmt 0 discriminator 1 view .LVU524
 1602 028a 2C46     		mov	r4, r5
 1603              	.LBB275:
 1604              	.LBB160:
 1605              	.LBB155:
 1606              	.LBB128:
  86:Drivers/lvgl/src/draw/sw/lv_draw_sw_gradient.c **** 
 1607              		.loc 1 86 37 discriminator 1 view .LVU525
 1608 028c 3946     		mov	r1, r7
 1609 028e D8E6     		b	.L29
 1610              	.LVL105:
 1611              	.L58:
  86:Drivers/lvgl/src/draw/sw/lv_draw_sw_gradient.c **** 
 1612              		.loc 1 86 37 discriminator 1 view .LVU526
 1613 0290 034B     		ldr	r3, .L94+8
 1614 0292 3946     		mov	r1, r7
 1615              	.LVL106:
  86:Drivers/lvgl/src/draw/sw/lv_draw_sw_gradient.c **** 
 1616              		.loc 1 86 37 discriminator 1 view .LVU527
 1617 0294 D5E6     		b	.L29
 1618              	.L95:
 1619 0296 00BF     		.align	2
 1620              	.L94:
 1621 0298 00000000 		.word	inited.0
 1622 029c 00000000 		.word	_lv_grad_cache_mem
 1623 02a0 00000000 		.word	grad_cache_end
 1624 02a4 00000000 		.word	grad_cache_size
 1625              	.LBE128:
 1626              	.LBE155:
 1627              	.LBE160:
 1628              	.LBE275:
 1629              		.cfi_endproc
 1630              	.LFE67:
 1632              		.section	.text.lv_gradient_cleanup,"ax",%progbits
 1633              		.align	1
 1634              		.p2align 2,,3
 1635              		.global	lv_gradient_cleanup
 1636              		.syntax unified
 1637              		.thumb
 1638              		.thumb_func
 1640              	lv_gradient_cleanup:
 1641              	.LVL107:
 1642              	.LFB69:
 340:Drivers/lvgl/src/draw/sw/lv_draw_sw_gradient.c **** 
 341:Drivers/lvgl/src/draw/sw/lv_draw_sw_gradient.c **** void lv_gradient_cleanup(lv_grad_t * grad)
ARM GAS  /var/folders/lp/x54gwt890xv47sdkqj1k04q40000gn/T//ccGMRBug.s 			page 51


 342:Drivers/lvgl/src/draw/sw/lv_draw_sw_gradient.c **** {
 1643              		.loc 1 342 1 is_stmt 1 view -0
 1644              		.cfi_startproc
 1645              		@ args = 0, pretend = 0, frame = 0
 1646              		@ frame_needed = 0, uses_anonymous_args = 0
 1647              		@ link register save eliminated.
 343:Drivers/lvgl/src/draw/sw/lv_draw_sw_gradient.c ****     if(grad->not_cached) {
 1648              		.loc 1 343 5 view .LVU529
 1649              		.loc 1 343 7 is_stmt 0 view .LVU530
 1650 0000 90F90730 		ldrsb	r3, [r0, #7]
 1651 0004 002B     		cmp	r3, #0
 1652 0006 00DB     		blt	.L98
 344:Drivers/lvgl/src/draw/sw/lv_draw_sw_gradient.c ****         lv_mem_free(grad);
 345:Drivers/lvgl/src/draw/sw/lv_draw_sw_gradient.c ****     }
 346:Drivers/lvgl/src/draw/sw/lv_draw_sw_gradient.c **** }
 1653              		.loc 1 346 1 view .LVU531
 1654 0008 7047     		bx	lr
 1655              	.L98:
 344:Drivers/lvgl/src/draw/sw/lv_draw_sw_gradient.c ****         lv_mem_free(grad);
 1656              		.loc 1 344 9 is_stmt 1 view .LVU532
 1657 000a FFF7FEBF 		b	lv_mem_free
 1658              	.LVL108:
 344:Drivers/lvgl/src/draw/sw/lv_draw_sw_gradient.c ****         lv_mem_free(grad);
 1659              		.loc 1 344 9 is_stmt 0 view .LVU533
 1660              		.cfi_endproc
 1661              	.LFE69:
 1663 000e 00BF     		.section	.bss.inited.0,"aw",%nobits
 1666              	inited.0:
 1667 0000 00       		.space	1
 1668              		.section	.bss.grad_cache_end,"aw",%nobits
 1669              		.align	2
 1672              	grad_cache_end:
 1673 0000 00000000 		.space	4
 1674              		.section	.bss.grad_cache_size,"aw",%nobits
 1675              		.align	2
 1678              	grad_cache_size:
 1679 0000 00000000 		.space	4
 1680              		.text
 1681              	.Letext0:
 1682              		.file 3 "/Users/jr/Library/Application Support/Code/User/globalStorage/bmd.stm32-for-vscode/@xpack
 1683              		.file 4 "/Users/jr/Library/Application Support/Code/User/globalStorage/bmd.stm32-for-vscode/@xpack
 1684              		.file 5 "Drivers/lvgl/src/draw/sw/../../misc/lv_types.h"
 1685              		.file 6 "/Users/jr/Library/Application Support/Code/User/globalStorage/bmd.stm32-for-vscode/@xpack
 1686              		.file 7 "Drivers/lvgl/src/draw/sw/../../misc/../font/../misc/lv_area.h"
 1687              		.file 8 "Drivers/lvgl/src/draw/sw/../../misc/lv_style.h"
 1688              		.file 9 "Drivers/lvgl/src/draw/sw/lv_draw_sw_gradient.h"
 1689              		.file 10 "Drivers/lvgl/src/draw/sw/../../misc/lv_mem.h"
 1690              		.file 11 "Drivers/lvgl/src/draw/sw/../../misc/lv_gc.h"
ARM GAS  /var/folders/lp/x54gwt890xv47sdkqj1k04q40000gn/T//ccGMRBug.s 			page 52

