ARM GAS  /var/folders/lp/x54gwt890xv47sdkqj1k04q40000gn/T//ccVvkCgt.s 			page 1


   1              		.cpu cortex-m4
   2              		.arch armv7e-m
   3              		.fpu fpv4-sp-d16
   4              		.eabi_attribute 27, 1
   5              		.eabi_attribute 28, 1
   6              		.eabi_attribute 20, 1
   7              		.eabi_attribute 21, 1
   8              		.eabi_attribute 23, 3
   9              		.eabi_attribute 24, 1
  10              		.eabi_attribute 25, 1
  11              		.eabi_attribute 26, 1
  12              		.eabi_attribute 30, 2
  13              		.eabi_attribute 34, 1
  14              		.eabi_attribute 18, 4
  15              		.file	"lv_draw_sw_polygon.c"
  16              		.text
  17              	.Ltext0:
  18              		.cfi_sections	.debug_frame
  19              		.file 1 "Drivers/lvgl/src/draw/sw/lv_draw_sw_polygon.c"
  20              		.section	.text.lv_draw_sw_polygon,"ax",%progbits
  21              		.align	1
  22              		.p2align 2,,3
  23              		.global	lv_draw_sw_polygon
  24              		.syntax unified
  25              		.thumb
  26              		.thumb_func
  28              	lv_draw_sw_polygon:
  29              	.LVL0:
  30              	.LFB56:
   1:Drivers/lvgl/src/draw/sw/lv_draw_sw_polygon.c **** /**
   2:Drivers/lvgl/src/draw/sw/lv_draw_sw_polygon.c ****  * @file lv_draw_sw_polygon.c
   3:Drivers/lvgl/src/draw/sw/lv_draw_sw_polygon.c ****  *
   4:Drivers/lvgl/src/draw/sw/lv_draw_sw_polygon.c ****  */
   5:Drivers/lvgl/src/draw/sw/lv_draw_sw_polygon.c **** 
   6:Drivers/lvgl/src/draw/sw/lv_draw_sw_polygon.c **** /*********************
   7:Drivers/lvgl/src/draw/sw/lv_draw_sw_polygon.c ****  *      INCLUDES
   8:Drivers/lvgl/src/draw/sw/lv_draw_sw_polygon.c ****  *********************/
   9:Drivers/lvgl/src/draw/sw/lv_draw_sw_polygon.c **** #include "lv_draw_sw.h"
  10:Drivers/lvgl/src/draw/sw/lv_draw_sw_polygon.c **** #include "../../misc/lv_math.h"
  11:Drivers/lvgl/src/draw/sw/lv_draw_sw_polygon.c **** #include "../../misc/lv_mem.h"
  12:Drivers/lvgl/src/draw/sw/lv_draw_sw_polygon.c **** #include "../../misc/lv_area.h"
  13:Drivers/lvgl/src/draw/sw/lv_draw_sw_polygon.c **** #include "../../misc/lv_color.h"
  14:Drivers/lvgl/src/draw/sw/lv_draw_sw_polygon.c **** #include "../lv_draw_rect.h"
  15:Drivers/lvgl/src/draw/sw/lv_draw_sw_polygon.c **** 
  16:Drivers/lvgl/src/draw/sw/lv_draw_sw_polygon.c **** /*********************
  17:Drivers/lvgl/src/draw/sw/lv_draw_sw_polygon.c ****  *      DEFINES
  18:Drivers/lvgl/src/draw/sw/lv_draw_sw_polygon.c ****  *********************/
  19:Drivers/lvgl/src/draw/sw/lv_draw_sw_polygon.c **** 
  20:Drivers/lvgl/src/draw/sw/lv_draw_sw_polygon.c **** /**********************
  21:Drivers/lvgl/src/draw/sw/lv_draw_sw_polygon.c ****  *      TYPEDEFS
  22:Drivers/lvgl/src/draw/sw/lv_draw_sw_polygon.c ****  **********************/
  23:Drivers/lvgl/src/draw/sw/lv_draw_sw_polygon.c **** 
  24:Drivers/lvgl/src/draw/sw/lv_draw_sw_polygon.c **** /**********************
  25:Drivers/lvgl/src/draw/sw/lv_draw_sw_polygon.c ****  *  STATIC PROTOTYPES
  26:Drivers/lvgl/src/draw/sw/lv_draw_sw_polygon.c ****  **********************/
  27:Drivers/lvgl/src/draw/sw/lv_draw_sw_polygon.c **** 
  28:Drivers/lvgl/src/draw/sw/lv_draw_sw_polygon.c **** /**********************
ARM GAS  /var/folders/lp/x54gwt890xv47sdkqj1k04q40000gn/T//ccVvkCgt.s 			page 2


  29:Drivers/lvgl/src/draw/sw/lv_draw_sw_polygon.c ****  *  STATIC VARIABLES
  30:Drivers/lvgl/src/draw/sw/lv_draw_sw_polygon.c ****  **********************/
  31:Drivers/lvgl/src/draw/sw/lv_draw_sw_polygon.c **** 
  32:Drivers/lvgl/src/draw/sw/lv_draw_sw_polygon.c **** /**********************
  33:Drivers/lvgl/src/draw/sw/lv_draw_sw_polygon.c ****  *      MACROS
  34:Drivers/lvgl/src/draw/sw/lv_draw_sw_polygon.c ****  **********************/
  35:Drivers/lvgl/src/draw/sw/lv_draw_sw_polygon.c **** 
  36:Drivers/lvgl/src/draw/sw/lv_draw_sw_polygon.c **** /**********************
  37:Drivers/lvgl/src/draw/sw/lv_draw_sw_polygon.c ****  *   GLOBAL FUNCTIONS
  38:Drivers/lvgl/src/draw/sw/lv_draw_sw_polygon.c ****  **********************/
  39:Drivers/lvgl/src/draw/sw/lv_draw_sw_polygon.c **** 
  40:Drivers/lvgl/src/draw/sw/lv_draw_sw_polygon.c **** /**
  41:Drivers/lvgl/src/draw/sw/lv_draw_sw_polygon.c ****  * Draw a polygon. Only convex polygons are supported
  42:Drivers/lvgl/src/draw/sw/lv_draw_sw_polygon.c ****  * @param points an array of points
  43:Drivers/lvgl/src/draw/sw/lv_draw_sw_polygon.c ****  * @param point_cnt number of points
  44:Drivers/lvgl/src/draw/sw/lv_draw_sw_polygon.c ****  * @param clip_area polygon will be drawn only in this area
  45:Drivers/lvgl/src/draw/sw/lv_draw_sw_polygon.c ****  * @param draw_dsc pointer to an initialized `lv_draw_rect_dsc_t` variable
  46:Drivers/lvgl/src/draw/sw/lv_draw_sw_polygon.c ****  */
  47:Drivers/lvgl/src/draw/sw/lv_draw_sw_polygon.c **** void lv_draw_sw_polygon(lv_draw_ctx_t * draw_ctx, const lv_draw_rect_dsc_t * draw_dsc, const lv_poi
  48:Drivers/lvgl/src/draw/sw/lv_draw_sw_polygon.c ****                         uint16_t point_cnt)
  49:Drivers/lvgl/src/draw/sw/lv_draw_sw_polygon.c **** {
  31              		.loc 1 49 1 view -0
  32              		.cfi_startproc
  33              		@ args = 0, pretend = 0, frame = 40
  34              		@ frame_needed = 0, uses_anonymous_args = 0
  50:Drivers/lvgl/src/draw/sw/lv_draw_sw_polygon.c **** #if LV_DRAW_COMPLEX
  51:Drivers/lvgl/src/draw/sw/lv_draw_sw_polygon.c ****     if(point_cnt < 3) return;
  35              		.loc 1 51 5 view .LVU1
  36              		.loc 1 51 7 is_stmt 0 view .LVU2
  37 0000 022B     		cmp	r3, #2
  38 0002 40F23A81 		bls	.L40
  52:Drivers/lvgl/src/draw/sw/lv_draw_sw_polygon.c ****     if(points == NULL) return;
  39              		.loc 1 52 5 is_stmt 1 view .LVU3
  49:Drivers/lvgl/src/draw/sw/lv_draw_sw_polygon.c **** #if LV_DRAW_COMPLEX
  40              		.loc 1 49 1 is_stmt 0 view .LVU4
  41 0006 2DE9F04F 		push	{r4, r5, r6, r7, r8, r9, r10, fp, lr}
  42              		.cfi_def_cfa_offset 36
  43              		.cfi_offset 4, -36
  44              		.cfi_offset 5, -32
  45              		.cfi_offset 6, -28
  46              		.cfi_offset 7, -24
  47              		.cfi_offset 8, -20
  48              		.cfi_offset 9, -16
  49              		.cfi_offset 10, -12
  50              		.cfi_offset 11, -8
  51              		.cfi_offset 14, -4
  52 000a 1646     		mov	r6, r2
  53 000c 8DB0     		sub	sp, sp, #52
  54              		.cfi_def_cfa_offset 88
  55              		.loc 1 52 7 view .LVU5
  56 000e 002A     		cmp	r2, #0
  57 0010 00F03081 		beq	.L1
  53:Drivers/lvgl/src/draw/sw/lv_draw_sw_polygon.c **** 
  54:Drivers/lvgl/src/draw/sw/lv_draw_sw_polygon.c ****     /*Join adjacent points if they are on the same coordinate*/
  55:Drivers/lvgl/src/draw/sw/lv_draw_sw_polygon.c ****     lv_point_t * p = lv_mem_buf_get(point_cnt * sizeof(lv_point_t));
  58              		.loc 1 55 5 is_stmt 1 view .LVU6
  59              		.loc 1 55 47 is_stmt 0 view .LVU7
ARM GAS  /var/folders/lp/x54gwt890xv47sdkqj1k04q40000gn/T//ccVvkCgt.s 			page 3


  60 0014 9F00     		lsls	r7, r3, #2
  61 0016 8046     		mov	r8, r0
  62              		.loc 1 55 22 view .LVU8
  63 0018 3846     		mov	r0, r7
  64              	.LVL1:
  65              		.loc 1 55 22 view .LVU9
  66 001a 0D46     		mov	r5, r1
  67 001c FFF7FEFF 		bl	lv_mem_buf_get
  68              	.LVL2:
  56:Drivers/lvgl/src/draw/sw/lv_draw_sw_polygon.c ****     if(p == NULL) return;
  69              		.loc 1 56 5 is_stmt 1 view .LVU10
  70              		.loc 1 56 7 is_stmt 0 view .LVU11
  71 0020 8346     		mov	fp, r0
  72 0022 0028     		cmp	r0, #0
  73 0024 00F02681 		beq	.L1
  57:Drivers/lvgl/src/draw/sw/lv_draw_sw_polygon.c ****     uint16_t i;
  74              		.loc 1 57 5 is_stmt 1 view .LVU12
  58:Drivers/lvgl/src/draw/sw/lv_draw_sw_polygon.c ****     uint16_t pcnt = 0;
  75              		.loc 1 58 5 view .LVU13
  76              	.LVL3:
  59:Drivers/lvgl/src/draw/sw/lv_draw_sw_polygon.c ****     p[0] = points[0];
  77              		.loc 1 59 5 view .LVU14
  78              		.loc 1 59 10 is_stmt 0 view .LVU15
  79 0028 3268     		ldr	r2, [r6]	@ unaligned
  80 002a 0260     		str	r2, [r0]	@ unaligned
  60:Drivers/lvgl/src/draw/sw/lv_draw_sw_polygon.c ****     for(i = 0; i < point_cnt - 1; i++) {
  81              		.loc 1 60 5 is_stmt 1 view .LVU16
  82              	.LVL4:
  83              		.loc 1 60 18 discriminator 1 view .LVU17
  84 002c 321F     		subs	r2, r6, #4
  85 002e 3A44     		add	r2, r2, r7
  86 0030 3146     		mov	r1, r6
  58:Drivers/lvgl/src/draw/sw/lv_draw_sw_polygon.c ****     uint16_t pcnt = 0;
  87              		.loc 1 58 14 is_stmt 0 view .LVU18
  88 0032 0024     		movs	r4, #0
  89 0034 07E0     		b	.L5
  90              	.LVL5:
  91              	.L3:
  61:Drivers/lvgl/src/draw/sw/lv_draw_sw_polygon.c ****         if(points[i].x != points[i + 1].x || points[i].y != points[i + 1].y) {
  62:Drivers/lvgl/src/draw/sw/lv_draw_sw_polygon.c ****             p[pcnt] = points[i];
  92              		.loc 1 62 21 view .LVU19
  93 0036 0B68     		ldr	r3, [r1]	@ unaligned
  94 0038 4BF82430 		str	r3, [fp, r4, lsl #2]	@ unaligned
  63:Drivers/lvgl/src/draw/sw/lv_draw_sw_polygon.c ****             pcnt++;
  95              		.loc 1 63 13 is_stmt 1 view .LVU20
  60:Drivers/lvgl/src/draw/sw/lv_draw_sw_polygon.c ****     for(i = 0; i < point_cnt - 1; i++) {
  96              		.loc 1 60 18 is_stmt 0 discriminator 1 view .LVU21
  97 003c 0431     		adds	r1, r1, #4
  98 003e 8A42     		cmp	r2, r1
  99              		.loc 1 63 17 view .LVU22
 100 0040 1FFA8CF4 		uxth	r4, ip
 101              	.LVL6:
  60:Drivers/lvgl/src/draw/sw/lv_draw_sw_polygon.c ****     for(i = 0; i < point_cnt - 1; i++) {
 102              		.loc 1 60 36 is_stmt 1 discriminator 2 view .LVU23
  60:Drivers/lvgl/src/draw/sw/lv_draw_sw_polygon.c ****     for(i = 0; i < point_cnt - 1; i++) {
 103              		.loc 1 60 18 discriminator 1 view .LVU24
 104 0044 10D0     		beq	.L45
ARM GAS  /var/folders/lp/x54gwt890xv47sdkqj1k04q40000gn/T//ccVvkCgt.s 			page 4


 105              	.LVL7:
 106              	.L5:
  61:Drivers/lvgl/src/draw/sw/lv_draw_sw_polygon.c ****         if(points[i].x != points[i + 1].x || points[i].y != points[i + 1].y) {
 107              		.loc 1 61 9 view .LVU25
  62:Drivers/lvgl/src/draw/sw/lv_draw_sw_polygon.c ****             pcnt++;
 108              		.loc 1 62 13 view .LVU26
  61:Drivers/lvgl/src/draw/sw/lv_draw_sw_polygon.c ****         if(points[i].x != points[i + 1].x || points[i].y != points[i + 1].y) {
 109              		.loc 1 61 11 is_stmt 0 view .LVU27
 110 0046 B1F90000 		ldrsh	r0, [r1]
 111 004a B1F90430 		ldrsh	r3, [r1, #4]
 112 004e 9842     		cmp	r0, r3
 113              		.loc 1 63 17 view .LVU28
 114 0050 04F1010C 		add	ip, r4, #1
  61:Drivers/lvgl/src/draw/sw/lv_draw_sw_polygon.c ****         if(points[i].x != points[i + 1].x || points[i].y != points[i + 1].y) {
 115              		.loc 1 61 11 view .LVU29
 116 0054 EFD1     		bne	.L3
  61:Drivers/lvgl/src/draw/sw/lv_draw_sw_polygon.c ****         if(points[i].x != points[i + 1].x || points[i].y != points[i + 1].y) {
 117              		.loc 1 61 43 discriminator 1 view .LVU30
 118 0056 B1F90200 		ldrsh	r0, [r1, #2]
 119 005a B1F90630 		ldrsh	r3, [r1, #6]
 120 005e 9842     		cmp	r0, r3
 121 0060 E9D1     		bne	.L3
  60:Drivers/lvgl/src/draw/sw/lv_draw_sw_polygon.c ****         if(points[i].x != points[i + 1].x || points[i].y != points[i + 1].y) {
 122              		.loc 1 60 36 is_stmt 1 discriminator 2 view .LVU31
  60:Drivers/lvgl/src/draw/sw/lv_draw_sw_polygon.c ****         if(points[i].x != points[i + 1].x || points[i].y != points[i + 1].y) {
 123              		.loc 1 60 18 discriminator 1 view .LVU32
 124 0062 0431     		adds	r1, r1, #4
 125 0064 8A42     		cmp	r2, r1
 126 0066 EED1     		bne	.L5
 127              	.L45:
  64:Drivers/lvgl/src/draw/sw/lv_draw_sw_polygon.c ****         }
  65:Drivers/lvgl/src/draw/sw/lv_draw_sw_polygon.c ****     }
  66:Drivers/lvgl/src/draw/sw/lv_draw_sw_polygon.c ****     /*The first and the last points are also adjacent*/
  67:Drivers/lvgl/src/draw/sw/lv_draw_sw_polygon.c ****     if(points[0].x != points[point_cnt - 1].x || points[0].y != points[point_cnt - 1].y) {
 128              		.loc 1 67 5 view .LVU33
 129              		.loc 1 67 29 is_stmt 0 view .LVU34
 130 0068 043F     		subs	r7, r7, #4
 131              		.loc 1 67 7 view .LVU35
 132 006a B6F90010 		ldrsh	r1, [r6]
 133 006e F25F     		ldrsh	r2, [r6, r7]
 134 0070 9142     		cmp	r1, r2
 135              		.loc 1 67 29 view .LVU36
 136 0072 06EB0700 		add	r0, r6, r7
 137              		.loc 1 67 7 view .LVU37
 138 0076 00F00581 		beq	.L46
 139              	.L6:
  68:Drivers/lvgl/src/draw/sw/lv_draw_sw_polygon.c ****         p[pcnt] = points[point_cnt - 1];
 140              		.loc 1 68 9 is_stmt 1 view .LVU38
 141              		.loc 1 68 17 is_stmt 0 view .LVU39
 142 007a F259     		ldr	r2, [r6, r7]	@ unaligned
 143 007c 4BF82420 		str	r2, [fp, r4, lsl #2]	@ unaligned
  69:Drivers/lvgl/src/draw/sw/lv_draw_sw_polygon.c ****         pcnt++;
 144              		.loc 1 69 9 is_stmt 1 view .LVU40
 145              		.loc 1 69 13 is_stmt 0 view .LVU41
 146 0080 0134     		adds	r4, r4, #1
 147              	.LVL8:
 148              		.loc 1 69 13 view .LVU42
ARM GAS  /var/folders/lp/x54gwt890xv47sdkqj1k04q40000gn/T//ccVvkCgt.s 			page 5


 149 0082 A4B2     		uxth	r4, r4
 150              	.LVL9:
 151              	.L7:
  70:Drivers/lvgl/src/draw/sw/lv_draw_sw_polygon.c ****     }
  71:Drivers/lvgl/src/draw/sw/lv_draw_sw_polygon.c **** 
  72:Drivers/lvgl/src/draw/sw/lv_draw_sw_polygon.c ****     point_cnt = pcnt;
 152              		.loc 1 72 5 is_stmt 1 view .LVU43
  73:Drivers/lvgl/src/draw/sw/lv_draw_sw_polygon.c ****     if(point_cnt < 3) {
 153              		.loc 1 73 5 view .LVU44
 154              		.loc 1 73 7 is_stmt 0 view .LVU45
 155 0084 022C     		cmp	r4, #2
 156 0086 40F20581 		bls	.L47
  74:Drivers/lvgl/src/draw/sw/lv_draw_sw_polygon.c ****         lv_mem_buf_release(p);
  75:Drivers/lvgl/src/draw/sw/lv_draw_sw_polygon.c ****         return;
  76:Drivers/lvgl/src/draw/sw/lv_draw_sw_polygon.c ****     }
  77:Drivers/lvgl/src/draw/sw/lv_draw_sw_polygon.c **** 
  78:Drivers/lvgl/src/draw/sw/lv_draw_sw_polygon.c ****     lv_area_t poly_coords = {.x1 = LV_COORD_MAX, .y1 = LV_COORD_MAX, .x2 = LV_COORD_MIN, .y2 = LV_C
 157              		.loc 1 78 5 is_stmt 1 view .LVU46
 158              		.loc 1 78 15 is_stmt 0 view .LVU47
 159 008a 874A     		ldr	r2, .L51
 160 008c 92E80300 		ldm	r2, {r0, r1}
 161 0090 08AB     		add	r3, sp, #32
 162 0092 83E80300 		stm	r3, {r0, r1}
  79:Drivers/lvgl/src/draw/sw/lv_draw_sw_polygon.c **** 
  80:Drivers/lvgl/src/draw/sw/lv_draw_sw_polygon.c ****     for(i = 0; i < point_cnt; i++) {
 163              		.loc 1 80 5 is_stmt 1 view .LVU48
 164              	.LVL10:
 165              		.loc 1 80 18 discriminator 1 view .LVU49
  78:Drivers/lvgl/src/draw/sw/lv_draw_sw_polygon.c **** 
 166              		.loc 1 78 15 is_stmt 0 view .LVU50
 167 0096 8548     		ldr	r0, .L51+4
 168 0098 41F6FF76 		movw	r6, #8191
 169              	.LVL11:
  78:Drivers/lvgl/src/draw/sw/lv_draw_sw_polygon.c **** 
 170              		.loc 1 78 15 view .LVU51
 171 009c 5A46     		mov	r2, fp
 172 009e 0BEB840E 		add	lr, fp, r4, lsl #2
 173 00a2 8446     		mov	ip, r0
 174 00a4 3746     		mov	r7, r6
 175              	.LVL12:
 176              	.L9:
  81:Drivers/lvgl/src/draw/sw/lv_draw_sw_polygon.c ****         poly_coords.x1 = LV_MIN(poly_coords.x1, p[i].x);
 177              		.loc 1 81 9 is_stmt 1 view .LVU52
 178              		.loc 1 81 26 is_stmt 0 view .LVU53
 179 00a6 B2F90030 		ldrsh	r3, [r2]
 180 00aa 9F42     		cmp	r7, r3
 181 00ac A8BF     		it	ge
 182 00ae 1F46     		movge	r7, r3
  82:Drivers/lvgl/src/draw/sw/lv_draw_sw_polygon.c ****         poly_coords.y1 = LV_MIN(poly_coords.y1, p[i].y);
 183              		.loc 1 82 9 is_stmt 1 view .LVU54
  83:Drivers/lvgl/src/draw/sw/lv_draw_sw_polygon.c ****         poly_coords.x2 = LV_MAX(poly_coords.x2, p[i].x);
 184              		.loc 1 83 26 is_stmt 0 view .LVU55
 185 00b0 9C45     		cmp	ip, r3
 186 00b2 B8BF     		it	lt
 187 00b4 9C46     		movlt	ip, r3
  82:Drivers/lvgl/src/draw/sw/lv_draw_sw_polygon.c ****         poly_coords.y1 = LV_MIN(poly_coords.y1, p[i].y);
 188              		.loc 1 82 26 view .LVU56
ARM GAS  /var/folders/lp/x54gwt890xv47sdkqj1k04q40000gn/T//ccVvkCgt.s 			page 6


 189 00b6 B2F90230 		ldrsh	r3, [r2, #2]
 190 00ba 9E42     		cmp	r6, r3
  80:Drivers/lvgl/src/draw/sw/lv_draw_sw_polygon.c ****         poly_coords.x1 = LV_MIN(poly_coords.x1, p[i].x);
 191              		.loc 1 80 18 discriminator 1 view .LVU57
 192 00bc 02F10402 		add	r2, r2, #4
  82:Drivers/lvgl/src/draw/sw/lv_draw_sw_polygon.c ****         poly_coords.y1 = LV_MIN(poly_coords.y1, p[i].y);
 193              		.loc 1 82 26 view .LVU58
 194 00c0 A8BF     		it	ge
 195 00c2 1E46     		movge	r6, r3
 196              		.loc 1 83 9 is_stmt 1 view .LVU59
  84:Drivers/lvgl/src/draw/sw/lv_draw_sw_polygon.c ****         poly_coords.y2 = LV_MAX(poly_coords.y2, p[i].y);
 197              		.loc 1 84 9 view .LVU60
 198              		.loc 1 84 26 is_stmt 0 view .LVU61
 199 00c4 9842     		cmp	r0, r3
 200 00c6 B8BF     		it	lt
 201 00c8 1846     		movlt	r0, r3
  80:Drivers/lvgl/src/draw/sw/lv_draw_sw_polygon.c ****         poly_coords.x1 = LV_MIN(poly_coords.x1, p[i].x);
 202              		.loc 1 80 32 is_stmt 1 discriminator 3 view .LVU62
  80:Drivers/lvgl/src/draw/sw/lv_draw_sw_polygon.c ****         poly_coords.x1 = LV_MIN(poly_coords.x1, p[i].x);
 203              		.loc 1 80 18 discriminator 1 view .LVU63
 204 00ca 7245     		cmp	r2, lr
 205 00cc EBD1     		bne	.L9
 206 00ce 0022     		movs	r2, #0
 207 00d0 1146     		mov	r1, r2
 208 00d2 6CF30F01 		bfi	r1, ip, #0, #16
 209 00d6 67F30F02 		bfi	r2, r7, #0, #16
 210 00da 60F31F41 		bfi	r1, r0, #16, #16
 211 00de 66F31F42 		bfi	r2, r6, #16, #16
 212 00e2 CDE90821 		strd	r2, r1, [sp, #32]
  85:Drivers/lvgl/src/draw/sw/lv_draw_sw_polygon.c ****     }
  86:Drivers/lvgl/src/draw/sw/lv_draw_sw_polygon.c **** 
  87:Drivers/lvgl/src/draw/sw/lv_draw_sw_polygon.c ****     bool is_common;
 213              		.loc 1 87 5 view .LVU64
  88:Drivers/lvgl/src/draw/sw/lv_draw_sw_polygon.c ****     lv_area_t clip_area;
 214              		.loc 1 88 5 view .LVU65
  89:Drivers/lvgl/src/draw/sw/lv_draw_sw_polygon.c ****     is_common = _lv_area_intersect(&clip_area, &poly_coords, draw_ctx->clip_area);
 215              		.loc 1 89 5 view .LVU66
 216              		.loc 1 89 17 is_stmt 0 view .LVU67
 217 00e6 0AA8     		add	r0, sp, #40
 218 00e8 D8F80820 		ldr	r2, [r8, #8]
 219 00ec 08A9     		add	r1, sp, #32
 220 00ee FFF7FEFF 		bl	_lv_area_intersect
 221              	.LVL13:
  90:Drivers/lvgl/src/draw/sw/lv_draw_sw_polygon.c ****     if(!is_common) {
 222              		.loc 1 90 5 is_stmt 1 view .LVU68
 223              		.loc 1 90 7 is_stmt 0 view .LVU69
 224 00f2 0028     		cmp	r0, #0
 225 00f4 00F0D480 		beq	.L48
  91:Drivers/lvgl/src/draw/sw/lv_draw_sw_polygon.c ****         lv_mem_buf_release(p);
  92:Drivers/lvgl/src/draw/sw/lv_draw_sw_polygon.c ****         return;
  93:Drivers/lvgl/src/draw/sw/lv_draw_sw_polygon.c ****     }
  94:Drivers/lvgl/src/draw/sw/lv_draw_sw_polygon.c **** 
  95:Drivers/lvgl/src/draw/sw/lv_draw_sw_polygon.c ****     const lv_area_t * clip_area_ori = draw_ctx->clip_area;
 226              		.loc 1 95 5 is_stmt 1 view .LVU70
  96:Drivers/lvgl/src/draw/sw/lv_draw_sw_polygon.c ****     draw_ctx->clip_area = &clip_area;
  97:Drivers/lvgl/src/draw/sw/lv_draw_sw_polygon.c **** 
  98:Drivers/lvgl/src/draw/sw/lv_draw_sw_polygon.c ****     /*Find the lowest point*/
ARM GAS  /var/folders/lp/x54gwt890xv47sdkqj1k04q40000gn/T//ccVvkCgt.s 			page 7


  99:Drivers/lvgl/src/draw/sw/lv_draw_sw_polygon.c ****     lv_coord_t y_min = p[0].y;
 227              		.loc 1 99 16 is_stmt 0 view .LVU71
 228 00f8 5F46     		mov	r7, fp
  95:Drivers/lvgl/src/draw/sw/lv_draw_sw_polygon.c ****     draw_ctx->clip_area = &clip_area;
 229              		.loc 1 95 23 view .LVU72
 230 00fa D8F80830 		ldr	r3, [r8, #8]
 231 00fe 0593     		str	r3, [sp, #20]
 232              	.LVL14:
  96:Drivers/lvgl/src/draw/sw/lv_draw_sw_polygon.c ****     draw_ctx->clip_area = &clip_area;
 233              		.loc 1 96 5 is_stmt 1 view .LVU73
 234              		.loc 1 99 16 is_stmt 0 view .LVU74
 235 0100 37F9020F 		ldrsh	r0, [r7, #2]!
 236              	.LVL15:
  96:Drivers/lvgl/src/draw/sw/lv_draw_sw_polygon.c ****     draw_ctx->clip_area = &clip_area;
 237              		.loc 1 96 25 view .LVU75
 238 0104 0AAB     		add	r3, sp, #40
 239              	.LVL16:
  96:Drivers/lvgl/src/draw/sw/lv_draw_sw_polygon.c ****     draw_ctx->clip_area = &clip_area;
 240              		.loc 1 96 25 view .LVU76
 241 0106 C8F80830 		str	r3, [r8, #8]
 242              	.LVL17:
 243              		.loc 1 99 5 is_stmt 1 view .LVU77
 100:Drivers/lvgl/src/draw/sw/lv_draw_sw_polygon.c ****     int16_t y_min_i = 0;
 244              		.loc 1 100 5 view .LVU78
 101:Drivers/lvgl/src/draw/sw/lv_draw_sw_polygon.c **** 
 102:Drivers/lvgl/src/draw/sw/lv_draw_sw_polygon.c ****     for(i = 1; i < point_cnt; i++) {
 245              		.loc 1 102 5 view .LVU79
 246              		.loc 1 102 18 discriminator 1 view .LVU80
  99:Drivers/lvgl/src/draw/sw/lv_draw_sw_polygon.c ****     int16_t y_min_i = 0;
 247              		.loc 1 99 16 is_stmt 0 view .LVU81
 248 010a 0122     		movs	r2, #1
 100:Drivers/lvgl/src/draw/sw/lv_draw_sw_polygon.c ****     int16_t y_min_i = 0;
 249              		.loc 1 100 13 view .LVU82
 250 010c 0026     		movs	r6, #0
 251              	.LVL18:
 252              	.L13:
 103:Drivers/lvgl/src/draw/sw/lv_draw_sw_polygon.c ****         if(p[i].y < y_min) {
 253              		.loc 1 103 9 is_stmt 1 view .LVU83
 104:Drivers/lvgl/src/draw/sw/lv_draw_sw_polygon.c ****             y_min = p[i].y;
 254              		.loc 1 104 13 view .LVU84
 103:Drivers/lvgl/src/draw/sw/lv_draw_sw_polygon.c ****         if(p[i].y < y_min) {
 255              		.loc 1 103 16 is_stmt 0 view .LVU85
 256 010e 37F92230 		ldrsh	r3, [r7, r2, lsl #2]
 257              	.LVL19:
 105:Drivers/lvgl/src/draw/sw/lv_draw_sw_polygon.c ****             y_min_i = i;
 258              		.loc 1 105 13 is_stmt 1 view .LVU86
 103:Drivers/lvgl/src/draw/sw/lv_draw_sw_polygon.c ****         if(p[i].y < y_min) {
 259              		.loc 1 103 11 is_stmt 0 view .LVU87
 260 0112 8342     		cmp	r3, r0
 261              		.loc 1 105 21 view .LVU88
 262 0114 B8BF     		it	lt
 263 0116 16B2     		sxthlt	r6, r2
 264              	.LVL20:
 102:Drivers/lvgl/src/draw/sw/lv_draw_sw_polygon.c ****         if(p[i].y < y_min) {
 265              		.loc 1 102 18 discriminator 1 view .LVU89
 266 0118 02F10102 		add	r2, r2, #1
 267              	.LVL21:
ARM GAS  /var/folders/lp/x54gwt890xv47sdkqj1k04q40000gn/T//ccVvkCgt.s 			page 8


 104:Drivers/lvgl/src/draw/sw/lv_draw_sw_polygon.c ****             y_min = p[i].y;
 268              		.loc 1 104 19 view .LVU90
 269 011c B8BF     		it	lt
 270 011e 1846     		movlt	r0, r3
 271              	.LVL22:
 102:Drivers/lvgl/src/draw/sw/lv_draw_sw_polygon.c ****         if(p[i].y < y_min) {
 272              		.loc 1 102 32 is_stmt 1 discriminator 2 view .LVU91
 102:Drivers/lvgl/src/draw/sw/lv_draw_sw_polygon.c ****         if(p[i].y < y_min) {
 273              		.loc 1 102 18 discriminator 1 view .LVU92
 274 0120 93B2     		uxth	r3, r2
 275 0122 9C42     		cmp	r4, r3
 276 0124 F3D8     		bhi	.L13
 106:Drivers/lvgl/src/draw/sw/lv_draw_sw_polygon.c ****         }
 107:Drivers/lvgl/src/draw/sw/lv_draw_sw_polygon.c ****     }
 108:Drivers/lvgl/src/draw/sw/lv_draw_sw_polygon.c **** 
 109:Drivers/lvgl/src/draw/sw/lv_draw_sw_polygon.c ****     lv_draw_mask_line_param_t * mp = lv_mem_buf_get(sizeof(lv_draw_mask_line_param_t) * point_cnt);
 277              		.loc 1 109 5 view .LVU93
 278              		.loc 1 109 87 is_stmt 0 view .LVU94
 279 0126 2C20     		movs	r0, #44
 280              	.LVL23:
 281              		.loc 1 109 38 view .LVU95
 282 0128 04FB00F0 		mul	r0, r4, r0
 283 012c FFF7FEFF 		bl	lv_mem_buf_get
 284              	.LVL24:
 285              		.loc 1 109 38 view .LVU96
 286 0130 0490     		str	r0, [sp, #16]
 287              	.LVL25:
 110:Drivers/lvgl/src/draw/sw/lv_draw_sw_polygon.c ****     lv_draw_mask_line_param_t * mp_next = mp;
 288              		.loc 1 110 5 is_stmt 1 view .LVU97
 111:Drivers/lvgl/src/draw/sw/lv_draw_sw_polygon.c **** 
 112:Drivers/lvgl/src/draw/sw/lv_draw_sw_polygon.c ****     int32_t i_prev_left = y_min_i;
 289              		.loc 1 112 5 view .LVU98
 113:Drivers/lvgl/src/draw/sw/lv_draw_sw_polygon.c ****     int32_t i_prev_right = y_min_i;
 114:Drivers/lvgl/src/draw/sw/lv_draw_sw_polygon.c ****     int32_t i_next_left;
 115:Drivers/lvgl/src/draw/sw/lv_draw_sw_polygon.c ****     int32_t i_next_right;
 116:Drivers/lvgl/src/draw/sw/lv_draw_sw_polygon.c ****     uint32_t mask_cnt = 0;
 117:Drivers/lvgl/src/draw/sw/lv_draw_sw_polygon.c **** 
 118:Drivers/lvgl/src/draw/sw/lv_draw_sw_polygon.c ****     /*Get the index of the left and right points*/
 119:Drivers/lvgl/src/draw/sw/lv_draw_sw_polygon.c ****     i_next_left = y_min_i - 1;
 120:Drivers/lvgl/src/draw/sw/lv_draw_sw_polygon.c ****     if(i_next_left < 0) i_next_left = point_cnt + i_next_left;
 290              		.loc 1 120 7 is_stmt 0 view .LVU99
 291 0132 701E     		subs	r0, r6, #1
 292              	.LVL26:
 112:Drivers/lvgl/src/draw/sw/lv_draw_sw_polygon.c ****     int32_t i_prev_right = y_min_i;
 293              		.loc 1 112 13 view .LVU100
 294 0134 B146     		mov	r9, r6
 295              	.LVL27:
 113:Drivers/lvgl/src/draw/sw/lv_draw_sw_polygon.c ****     int32_t i_prev_right = y_min_i;
 296              		.loc 1 113 5 is_stmt 1 view .LVU101
 114:Drivers/lvgl/src/draw/sw/lv_draw_sw_polygon.c ****     int32_t i_next_right;
 297              		.loc 1 114 5 view .LVU102
 115:Drivers/lvgl/src/draw/sw/lv_draw_sw_polygon.c ****     uint32_t mask_cnt = 0;
 298              		.loc 1 115 5 view .LVU103
 116:Drivers/lvgl/src/draw/sw/lv_draw_sw_polygon.c **** 
 299              		.loc 1 116 5 view .LVU104
 119:Drivers/lvgl/src/draw/sw/lv_draw_sw_polygon.c ****     if(i_next_left < 0) i_next_left = point_cnt + i_next_left;
 300              		.loc 1 119 5 view .LVU105
ARM GAS  /var/folders/lp/x54gwt890xv47sdkqj1k04q40000gn/T//ccVvkCgt.s 			page 9


 301              		.loc 1 120 5 view .LVU106
 121:Drivers/lvgl/src/draw/sw/lv_draw_sw_polygon.c **** 
 122:Drivers/lvgl/src/draw/sw/lv_draw_sw_polygon.c ****     i_next_right = y_min_i + 1;
 302              		.loc 1 122 18 is_stmt 0 view .LVU107
 303 0136 06F10101 		add	r1, r6, #1
 120:Drivers/lvgl/src/draw/sw/lv_draw_sw_polygon.c **** 
 304              		.loc 1 120 7 view .LVU108
 305 013a 00F19F80 		bmi	.L49
 306              		.loc 1 122 5 is_stmt 1 view .LVU109
 307              	.LVL28:
 123:Drivers/lvgl/src/draw/sw/lv_draw_sw_polygon.c ****     if(i_next_right > point_cnt - 1) i_next_right = 0;
 308              		.loc 1 123 5 view .LVU110
 309              		.loc 1 123 7 is_stmt 0 view .LVU111
 310 013e 8C42     		cmp	r4, r1
 124:Drivers/lvgl/src/draw/sw/lv_draw_sw_polygon.c **** 
 125:Drivers/lvgl/src/draw/sw/lv_draw_sw_polygon.c ****     /**
 126:Drivers/lvgl/src/draw/sw/lv_draw_sw_polygon.c ****      * Check if the order of points is inverted or not.
 127:Drivers/lvgl/src/draw/sw/lv_draw_sw_polygon.c ****      * The normal case is when the left point is on `y_min_i - 1`
 128:Drivers/lvgl/src/draw/sw/lv_draw_sw_polygon.c ****      * Explanation:
 129:Drivers/lvgl/src/draw/sw/lv_draw_sw_polygon.c ****      *   if angle(p_left) < angle(p_right) -> inverted
 130:Drivers/lvgl/src/draw/sw/lv_draw_sw_polygon.c ****      *   dy_left/dx_left < dy_right/dx_right
 131:Drivers/lvgl/src/draw/sw/lv_draw_sw_polygon.c ****      *   dy_left * dx_right < dy_right * dx_left
 132:Drivers/lvgl/src/draw/sw/lv_draw_sw_polygon.c ****      */
 133:Drivers/lvgl/src/draw/sw/lv_draw_sw_polygon.c ****     lv_coord_t dxl = p[i_next_left].x - p[y_min_i].x;
 134:Drivers/lvgl/src/draw/sw/lv_draw_sw_polygon.c ****     lv_coord_t dxr = p[i_next_right].x - p[y_min_i].x;
 311              		.loc 1 134 23 view .LVU112
 312 0140 CCBF     		ite	gt
 313 0142 0BEB8101 		addgt	r1, fp, r1, lsl #2
 314              	.LVL29:
 315              		.loc 1 134 23 view .LVU113
 316 0146 5946     		movle	r1, fp
 317              	.LVL30:
 318              	.L15:
 133:Drivers/lvgl/src/draw/sw/lv_draw_sw_polygon.c ****     lv_coord_t dxr = p[i_next_right].x - p[y_min_i].x;
 319              		.loc 1 133 5 is_stmt 1 view .LVU114
 133:Drivers/lvgl/src/draw/sw/lv_draw_sw_polygon.c ****     lv_coord_t dxr = p[i_next_right].x - p[y_min_i].x;
 320              		.loc 1 133 23 is_stmt 0 view .LVU115
 321 0148 0BEB8007 		add	r7, fp, r0, lsl #2
 133:Drivers/lvgl/src/draw/sw/lv_draw_sw_polygon.c ****     lv_coord_t dxr = p[i_next_right].x - p[y_min_i].x;
 322              		.loc 1 133 42 view .LVU116
 323 014c 0BEB8602 		add	r2, fp, r6, lsl #2
 133:Drivers/lvgl/src/draw/sw/lv_draw_sw_polygon.c ****     lv_coord_t dxr = p[i_next_right].x - p[y_min_i].x;
 324              		.loc 1 133 51 view .LVU117
 325 0150 3BF826C0 		ldrh	ip, [fp, r6, lsl #2]
 135:Drivers/lvgl/src/draw/sw/lv_draw_sw_polygon.c ****     lv_coord_t dyl = p[i_next_left].y - p[y_min_i].y;
 326              		.loc 1 135 39 view .LVU118
 327 0154 B7F802A0 		ldrh	r10, [r7, #2]
 328              		.loc 1 135 51 view .LVU119
 329 0158 B2F90220 		ldrsh	r2, [r2, #2]
 134:Drivers/lvgl/src/draw/sw/lv_draw_sw_polygon.c ****     lv_coord_t dyl = p[i_next_left].y - p[y_min_i].y;
 330              		.loc 1 134 40 view .LVU120
 331 015c 0F88     		ldrh	r7, [r1]
 133:Drivers/lvgl/src/draw/sw/lv_draw_sw_polygon.c ****     lv_coord_t dxr = p[i_next_right].x - p[y_min_i].x;
 332              		.loc 1 133 39 view .LVU121
 333 015e 3BF82000 		ldrh	r0, [fp, r0, lsl #2]
 334              	.LVL31:
 134:Drivers/lvgl/src/draw/sw/lv_draw_sw_polygon.c ****     lv_coord_t dyl = p[i_next_left].y - p[y_min_i].y;
ARM GAS  /var/folders/lp/x54gwt890xv47sdkqj1k04q40000gn/T//ccVvkCgt.s 			page 10


 335              		.loc 1 134 5 is_stmt 1 view .LVU122
 336              		.loc 1 135 5 view .LVU123
 136:Drivers/lvgl/src/draw/sw/lv_draw_sw_polygon.c ****     lv_coord_t dyr = p[i_next_right].y - p[y_min_i].y;
 337              		.loc 1 136 40 is_stmt 0 view .LVU124
 338 0162 4988     		ldrh	r1, [r1, #2]
 339              	.LVL32:
 134:Drivers/lvgl/src/draw/sw/lv_draw_sw_polygon.c ****     lv_coord_t dyl = p[i_next_left].y - p[y_min_i].y;
 340              		.loc 1 134 40 view .LVU125
 341 0164 A7EB0C07 		sub	r7, r7, ip
 342              	.LVL33:
 133:Drivers/lvgl/src/draw/sw/lv_draw_sw_polygon.c ****     lv_coord_t dxr = p[i_next_right].x - p[y_min_i].x;
 343              		.loc 1 133 39 view .LVU126
 344 0168 A0EB0C00 		sub	r0, r0, ip
 135:Drivers/lvgl/src/draw/sw/lv_draw_sw_polygon.c ****     lv_coord_t dyr = p[i_next_right].y - p[y_min_i].y;
 345              		.loc 1 135 51 view .LVU127
 346 016c 1FFA82FC 		uxth	ip, r2
 347              	.LVL34:
 348              		.loc 1 136 5 is_stmt 1 view .LVU128
 137:Drivers/lvgl/src/draw/sw/lv_draw_sw_polygon.c **** 
 138:Drivers/lvgl/src/draw/sw/lv_draw_sw_polygon.c ****     bool inv = false;
 349              		.loc 1 138 5 view .LVU129
 139:Drivers/lvgl/src/draw/sw/lv_draw_sw_polygon.c ****     if(dyl * dxr < dyr * dxl) inv = true;
 350              		.loc 1 139 5 view .LVU130
 135:Drivers/lvgl/src/draw/sw/lv_draw_sw_polygon.c ****     lv_coord_t dyr = p[i_next_right].y - p[y_min_i].y;
 351              		.loc 1 135 39 is_stmt 0 view .LVU131
 352 0170 AAEB0C0A 		sub	r10, r10, ip
 353              		.loc 1 139 12 view .LVU132
 354 0174 1AFB07F3 		smulbb	r3, r10, r7
 136:Drivers/lvgl/src/draw/sw/lv_draw_sw_polygon.c **** 
 355              		.loc 1 136 40 view .LVU133
 356 0178 A1EB0C01 		sub	r1, r1, ip
 357              		.loc 1 139 12 view .LVU134
 358 017c 0293     		str	r3, [sp, #8]
 359              		.loc 1 139 24 view .LVU135
 360 017e 11FB00F3 		smulbb	r3, r1, r0
 140:Drivers/lvgl/src/draw/sw/lv_draw_sw_polygon.c **** 
 141:Drivers/lvgl/src/draw/sw/lv_draw_sw_polygon.c ****     do {
 142:Drivers/lvgl/src/draw/sw/lv_draw_sw_polygon.c ****         if(!inv) {
 143:Drivers/lvgl/src/draw/sw/lv_draw_sw_polygon.c ****             i_next_left = i_prev_left - 1;
 144:Drivers/lvgl/src/draw/sw/lv_draw_sw_polygon.c ****             if(i_next_left < 0) i_next_left = point_cnt + i_next_left;
 145:Drivers/lvgl/src/draw/sw/lv_draw_sw_polygon.c **** 
 146:Drivers/lvgl/src/draw/sw/lv_draw_sw_polygon.c ****             i_next_right = i_prev_right + 1;
 147:Drivers/lvgl/src/draw/sw/lv_draw_sw_polygon.c ****             if(i_next_right > point_cnt - 1) i_next_right = 0;
 148:Drivers/lvgl/src/draw/sw/lv_draw_sw_polygon.c ****         }
 149:Drivers/lvgl/src/draw/sw/lv_draw_sw_polygon.c ****         else {
 150:Drivers/lvgl/src/draw/sw/lv_draw_sw_polygon.c ****             i_next_left = i_prev_left + 1;
 151:Drivers/lvgl/src/draw/sw/lv_draw_sw_polygon.c ****             if(i_next_left > point_cnt - 1) i_next_left = 0;
 152:Drivers/lvgl/src/draw/sw/lv_draw_sw_polygon.c **** 
 153:Drivers/lvgl/src/draw/sw/lv_draw_sw_polygon.c ****             i_next_right = i_prev_right - 1;
 154:Drivers/lvgl/src/draw/sw/lv_draw_sw_polygon.c ****             if(i_next_right < 0) i_next_right = point_cnt + i_next_right;
 155:Drivers/lvgl/src/draw/sw/lv_draw_sw_polygon.c ****         }
 156:Drivers/lvgl/src/draw/sw/lv_draw_sw_polygon.c **** 
 157:Drivers/lvgl/src/draw/sw/lv_draw_sw_polygon.c ****         if(p[i_next_left].y >= p[i_prev_left].y) {
 158:Drivers/lvgl/src/draw/sw/lv_draw_sw_polygon.c ****             if(p[i_next_left].y != p[i_prev_left].y &&
 159:Drivers/lvgl/src/draw/sw/lv_draw_sw_polygon.c ****                p[i_next_left].x != p[i_prev_left].x) {
 160:Drivers/lvgl/src/draw/sw/lv_draw_sw_polygon.c ****                 lv_draw_mask_line_points_init(mp_next, p[i_prev_left].x, p[i_prev_left].y,
 161:Drivers/lvgl/src/draw/sw/lv_draw_sw_polygon.c ****                                               p[i_next_left].x, p[i_next_left].y,
ARM GAS  /var/folders/lp/x54gwt890xv47sdkqj1k04q40000gn/T//ccVvkCgt.s 			page 11


 162:Drivers/lvgl/src/draw/sw/lv_draw_sw_polygon.c ****                                               LV_DRAW_MASK_LINE_SIDE_RIGHT);
 163:Drivers/lvgl/src/draw/sw/lv_draw_sw_polygon.c ****                 lv_draw_mask_add(mp_next, mp);
 164:Drivers/lvgl/src/draw/sw/lv_draw_sw_polygon.c ****                 mp_next++;
 165:Drivers/lvgl/src/draw/sw/lv_draw_sw_polygon.c ****             }
 166:Drivers/lvgl/src/draw/sw/lv_draw_sw_polygon.c ****             mask_cnt++;
 167:Drivers/lvgl/src/draw/sw/lv_draw_sw_polygon.c ****             i_prev_left = i_next_left;
 168:Drivers/lvgl/src/draw/sw/lv_draw_sw_polygon.c ****         }
 169:Drivers/lvgl/src/draw/sw/lv_draw_sw_polygon.c **** 
 170:Drivers/lvgl/src/draw/sw/lv_draw_sw_polygon.c ****         if(mask_cnt == point_cnt) break;
 171:Drivers/lvgl/src/draw/sw/lv_draw_sw_polygon.c **** 
 172:Drivers/lvgl/src/draw/sw/lv_draw_sw_polygon.c ****         if(p[i_next_right].y >= p[i_prev_right].y) {
 173:Drivers/lvgl/src/draw/sw/lv_draw_sw_polygon.c ****             if(p[i_next_right].y != p[i_prev_right].y &&
 174:Drivers/lvgl/src/draw/sw/lv_draw_sw_polygon.c ****                p[i_next_right].x != p[i_prev_right].x) {
 175:Drivers/lvgl/src/draw/sw/lv_draw_sw_polygon.c **** 
 176:Drivers/lvgl/src/draw/sw/lv_draw_sw_polygon.c ****                 lv_draw_mask_line_points_init(mp_next, p[i_prev_right].x, p[i_prev_right].y,
 361              		.loc 1 176 17 view .LVU136
 362 0182 CDE90685 		strd	r8, r5, [sp, #24]
 139:Drivers/lvgl/src/draw/sw/lv_draw_sw_polygon.c **** 
 363              		.loc 1 139 24 view .LVU137
 364 0186 DDF810A0 		ldr	r10, [sp, #16]
 365 018a 0393     		str	r3, [sp, #12]
 366 018c 0027     		movs	r7, #0
 367 018e 4CE0     		b	.L25
 368              	.LVL35:
 369              	.L50:
 143:Drivers/lvgl/src/draw/sw/lv_draw_sw_polygon.c ****             if(i_next_left < 0) i_next_left = point_cnt + i_next_left;
 370              		.loc 1 143 13 is_stmt 1 view .LVU138
 144:Drivers/lvgl/src/draw/sw/lv_draw_sw_polygon.c **** 
 371              		.loc 1 144 13 view .LVU139
 144:Drivers/lvgl/src/draw/sw/lv_draw_sw_polygon.c **** 
 372              		.loc 1 144 15 is_stmt 0 view .LVU140
 373 0190 B9F10108 		subs	r8, r9, #1
 374              	.LVL36:
 144:Drivers/lvgl/src/draw/sw/lv_draw_sw_polygon.c **** 
 375              		.loc 1 144 33 is_stmt 1 discriminator 1 view .LVU141
 144:Drivers/lvgl/src/draw/sw/lv_draw_sw_polygon.c **** 
 376              		.loc 1 144 45 is_stmt 0 discriminator 1 view .LVU142
 377 0194 48BF     		it	mi
 378 0196 A044     		addmi	r8, r8, r4
 379              	.LVL37:
 146:Drivers/lvgl/src/draw/sw/lv_draw_sw_polygon.c ****             if(i_next_right > point_cnt - 1) i_next_right = 0;
 380              		.loc 1 146 13 is_stmt 1 view .LVU143
 146:Drivers/lvgl/src/draw/sw/lv_draw_sw_polygon.c ****             if(i_next_right > point_cnt - 1) i_next_right = 0;
 381              		.loc 1 146 26 is_stmt 0 view .LVU144
 382 0198 751C     		adds	r5, r6, #1
 383              	.LVL38:
 147:Drivers/lvgl/src/draw/sw/lv_draw_sw_polygon.c ****         }
 384              		.loc 1 147 13 is_stmt 1 view .LVU145
 147:Drivers/lvgl/src/draw/sw/lv_draw_sw_polygon.c ****         }
 385              		.loc 1 147 59 is_stmt 0 discriminator 1 view .LVU146
 386 019a A542     		cmp	r5, r4
 387 019c A8BF     		it	ge
 388 019e 0025     		movge	r5, #0
 389              	.LVL39:
 157:Drivers/lvgl/src/draw/sw/lv_draw_sw_polygon.c ****             if(p[i_next_left].y != p[i_prev_left].y &&
 390              		.loc 1 157 13 view .LVU147
 391 01a0 0BEB8803 		add	r3, fp, r8, lsl #2
ARM GAS  /var/folders/lp/x54gwt890xv47sdkqj1k04q40000gn/T//ccVvkCgt.s 			page 12


 392              	.LVL40:
 393              	.L18:
 157:Drivers/lvgl/src/draw/sw/lv_draw_sw_polygon.c ****             if(p[i_next_left].y != p[i_prev_left].y &&
 394              		.loc 1 157 9 is_stmt 1 view .LVU148
 157:Drivers/lvgl/src/draw/sw/lv_draw_sw_polygon.c ****             if(p[i_next_left].y != p[i_prev_left].y &&
 395              		.loc 1 157 26 is_stmt 0 view .LVU149
 396 01a4 B3F90200 		ldrsh	r0, [r3, #2]
 157:Drivers/lvgl/src/draw/sw/lv_draw_sw_polygon.c ****             if(p[i_next_left].y != p[i_prev_left].y &&
 397              		.loc 1 157 11 view .LVU150
 398 01a8 9042     		cmp	r0, r2
 399 01aa 14DB     		blt	.L20
 158:Drivers/lvgl/src/draw/sw/lv_draw_sw_polygon.c ****                p[i_next_left].x != p[i_prev_left].x) {
 400              		.loc 1 158 13 is_stmt 1 view .LVU151
 158:Drivers/lvgl/src/draw/sw/lv_draw_sw_polygon.c ****                p[i_next_left].x != p[i_prev_left].x) {
 401              		.loc 1 158 15 is_stmt 0 view .LVU152
 402 01ac 11D0     		beq	.L21
 159:Drivers/lvgl/src/draw/sw/lv_draw_sw_polygon.c ****                 lv_draw_mask_line_points_init(mp_next, p[i_prev_left].x, p[i_prev_left].y,
 403              		.loc 1 159 30 view .LVU153
 404 01ae B3F90030 		ldrsh	r3, [r3]
 159:Drivers/lvgl/src/draw/sw/lv_draw_sw_polygon.c ****                 lv_draw_mask_line_points_init(mp_next, p[i_prev_left].x, p[i_prev_left].y,
 405              		.loc 1 159 50 view .LVU154
 406 01b2 3BF92910 		ldrsh	r1, [fp, r9, lsl #2]
 407              	.LVL41:
 158:Drivers/lvgl/src/draw/sw/lv_draw_sw_polygon.c ****                p[i_next_left].x != p[i_prev_left].x) {
 408              		.loc 1 158 53 discriminator 1 view .LVU155
 409 01b6 8B42     		cmp	r3, r1
 410 01b8 0BD0     		beq	.L21
 160:Drivers/lvgl/src/draw/sw/lv_draw_sw_polygon.c ****                                               p[i_next_left].x, p[i_next_left].y,
 411              		.loc 1 160 17 is_stmt 1 view .LVU156
 412 01ba 0090     		str	r0, [sp]
 413 01bc 0120     		movs	r0, #1
 414 01be 0190     		str	r0, [sp, #4]
 415 01c0 5046     		mov	r0, r10
 416 01c2 FFF7FEFF 		bl	lv_draw_mask_line_points_init
 417              	.LVL42:
 163:Drivers/lvgl/src/draw/sw/lv_draw_sw_polygon.c ****                 mp_next++;
 418              		.loc 1 163 17 view .LVU157
 419 01c6 5046     		mov	r0, r10
 420 01c8 0499     		ldr	r1, [sp, #16]
 421 01ca FFF7FEFF 		bl	lv_draw_mask_add
 422              	.LVL43:
 164:Drivers/lvgl/src/draw/sw/lv_draw_sw_polygon.c ****             }
 423              		.loc 1 164 17 view .LVU158
 164:Drivers/lvgl/src/draw/sw/lv_draw_sw_polygon.c ****             }
 424              		.loc 1 164 24 is_stmt 0 view .LVU159
 425 01ce 0AF12C0A 		add	r10, r10, #44
 426              	.LVL44:
 427              	.L21:
 166:Drivers/lvgl/src/draw/sw/lv_draw_sw_polygon.c ****             i_prev_left = i_next_left;
 428              		.loc 1 166 13 is_stmt 1 view .LVU160
 166:Drivers/lvgl/src/draw/sw/lv_draw_sw_polygon.c ****             i_prev_left = i_next_left;
 429              		.loc 1 166 21 is_stmt 0 view .LVU161
 430 01d2 0137     		adds	r7, r7, #1
 431              	.LVL45:
 167:Drivers/lvgl/src/draw/sw/lv_draw_sw_polygon.c ****         }
 432              		.loc 1 167 13 is_stmt 1 view .LVU162
 167:Drivers/lvgl/src/draw/sw/lv_draw_sw_polygon.c ****         }
ARM GAS  /var/folders/lp/x54gwt890xv47sdkqj1k04q40000gn/T//ccVvkCgt.s 			page 13


 433              		.loc 1 167 25 is_stmt 0 view .LVU163
 434 01d4 C146     		mov	r9, r8
 435              	.LVL46:
 436              	.L20:
 170:Drivers/lvgl/src/draw/sw/lv_draw_sw_polygon.c **** 
 437              		.loc 1 170 9 is_stmt 1 view .LVU164
 170:Drivers/lvgl/src/draw/sw/lv_draw_sw_polygon.c **** 
 438              		.loc 1 170 11 is_stmt 0 view .LVU165
 439 01d6 BC42     		cmp	r4, r7
 440 01d8 38D0     		beq	.L22
 172:Drivers/lvgl/src/draw/sw/lv_draw_sw_polygon.c ****             if(p[i_next_right].y != p[i_prev_right].y &&
 441              		.loc 1 172 9 is_stmt 1 view .LVU166
 172:Drivers/lvgl/src/draw/sw/lv_draw_sw_polygon.c ****             if(p[i_next_right].y != p[i_prev_right].y &&
 442              		.loc 1 172 13 is_stmt 0 view .LVU167
 443 01da 0BEB8503 		add	r3, fp, r5, lsl #2
 172:Drivers/lvgl/src/draw/sw/lv_draw_sw_polygon.c ****             if(p[i_next_right].y != p[i_prev_right].y &&
 444              		.loc 1 172 34 view .LVU168
 445 01de B100     		lsls	r1, r6, #2
 172:Drivers/lvgl/src/draw/sw/lv_draw_sw_polygon.c ****             if(p[i_next_right].y != p[i_prev_right].y &&
 446              		.loc 1 172 27 view .LVU169
 447 01e0 B3F90200 		ldrsh	r0, [r3, #2]
 172:Drivers/lvgl/src/draw/sw/lv_draw_sw_polygon.c ****             if(p[i_next_right].y != p[i_prev_right].y &&
 448              		.loc 1 172 34 view .LVU170
 449 01e4 0BEB8603 		add	r3, fp, r6, lsl #2
 172:Drivers/lvgl/src/draw/sw/lv_draw_sw_polygon.c ****             if(p[i_next_right].y != p[i_prev_right].y &&
 450              		.loc 1 172 48 view .LVU171
 451 01e8 B3F90220 		ldrsh	r2, [r3, #2]
 172:Drivers/lvgl/src/draw/sw/lv_draw_sw_polygon.c ****             if(p[i_next_right].y != p[i_prev_right].y &&
 452              		.loc 1 172 11 view .LVU172
 453 01ec 9042     		cmp	r0, r2
 172:Drivers/lvgl/src/draw/sw/lv_draw_sw_polygon.c ****             if(p[i_next_right].y != p[i_prev_right].y &&
 454              		.loc 1 172 13 view .LVU173
 455 01ee 4FEA8503 		lsl	r3, r5, #2
 172:Drivers/lvgl/src/draw/sw/lv_draw_sw_polygon.c ****             if(p[i_next_right].y != p[i_prev_right].y &&
 456              		.loc 1 172 11 view .LVU174
 457 01f2 14DB     		blt	.L23
 173:Drivers/lvgl/src/draw/sw/lv_draw_sw_polygon.c ****                p[i_next_right].x != p[i_prev_right].x) {
 458              		.loc 1 173 13 is_stmt 1 view .LVU175
 173:Drivers/lvgl/src/draw/sw/lv_draw_sw_polygon.c ****                p[i_next_right].x != p[i_prev_right].x) {
 459              		.loc 1 173 15 is_stmt 0 view .LVU176
 460 01f4 11D0     		beq	.L24
 174:Drivers/lvgl/src/draw/sw/lv_draw_sw_polygon.c **** 
 461              		.loc 1 174 31 view .LVU177
 462 01f6 3BF90330 		ldrsh	r3, [fp, r3]
 174:Drivers/lvgl/src/draw/sw/lv_draw_sw_polygon.c **** 
 463              		.loc 1 174 52 view .LVU178
 464 01fa 3BF90110 		ldrsh	r1, [fp, r1]
 173:Drivers/lvgl/src/draw/sw/lv_draw_sw_polygon.c ****                p[i_next_right].x != p[i_prev_right].x) {
 465              		.loc 1 173 55 discriminator 1 view .LVU179
 466 01fe 8B42     		cmp	r3, r1
 467 0200 0BD0     		beq	.L24
 468              		.loc 1 176 17 is_stmt 1 view .LVU180
 469 0202 0090     		str	r0, [sp]
 470 0204 0020     		movs	r0, #0
 471 0206 0190     		str	r0, [sp, #4]
 472 0208 5046     		mov	r0, r10
 473 020a FFF7FEFF 		bl	lv_draw_mask_line_points_init
ARM GAS  /var/folders/lp/x54gwt890xv47sdkqj1k04q40000gn/T//ccVvkCgt.s 			page 14


 474              	.LVL47:
 177:Drivers/lvgl/src/draw/sw/lv_draw_sw_polygon.c ****                                               p[i_next_right].x, p[i_next_right].y,
 178:Drivers/lvgl/src/draw/sw/lv_draw_sw_polygon.c ****                                               LV_DRAW_MASK_LINE_SIDE_LEFT);
 179:Drivers/lvgl/src/draw/sw/lv_draw_sw_polygon.c ****                 lv_draw_mask_add(mp_next, mp);
 475              		.loc 1 179 17 view .LVU181
 476 020e 5046     		mov	r0, r10
 477 0210 0499     		ldr	r1, [sp, #16]
 478 0212 FFF7FEFF 		bl	lv_draw_mask_add
 479              	.LVL48:
 180:Drivers/lvgl/src/draw/sw/lv_draw_sw_polygon.c ****                 mp_next++;
 480              		.loc 1 180 17 view .LVU182
 481              		.loc 1 180 24 is_stmt 0 view .LVU183
 482 0216 0AF12C0A 		add	r10, r10, #44
 483              	.LVL49:
 484              	.L24:
 181:Drivers/lvgl/src/draw/sw/lv_draw_sw_polygon.c ****             }
 182:Drivers/lvgl/src/draw/sw/lv_draw_sw_polygon.c ****             mask_cnt++;
 485              		.loc 1 182 13 is_stmt 1 view .LVU184
 486              		.loc 1 182 21 is_stmt 0 view .LVU185
 487 021a 0137     		adds	r7, r7, #1
 488              	.LVL50:
 183:Drivers/lvgl/src/draw/sw/lv_draw_sw_polygon.c ****             i_prev_right = i_next_right;
 489              		.loc 1 183 13 is_stmt 1 view .LVU186
 490              		.loc 1 183 26 is_stmt 0 view .LVU187
 491 021c 2E46     		mov	r6, r5
 492              	.LVL51:
 493              	.L23:
 184:Drivers/lvgl/src/draw/sw/lv_draw_sw_polygon.c ****         }
 185:Drivers/lvgl/src/draw/sw/lv_draw_sw_polygon.c **** 
 186:Drivers/lvgl/src/draw/sw/lv_draw_sw_polygon.c ****     } while(mask_cnt < point_cnt);
 494              		.loc 1 186 22 is_stmt 1 view .LVU188
 495 021e BC42     		cmp	r4, r7
 496 0220 14D9     		bls	.L22
 157:Drivers/lvgl/src/draw/sw/lv_draw_sw_polygon.c ****             if(p[i_next_left].y != p[i_prev_left].y &&
 497              		.loc 1 157 46 is_stmt 0 view .LVU189
 498 0222 0BEB8903 		add	r3, fp, r9, lsl #2
 499 0226 B3F90220 		ldrsh	r2, [r3, #2]
 500              	.LVL52:
 501              	.L25:
 141:Drivers/lvgl/src/draw/sw/lv_draw_sw_polygon.c ****         if(!inv) {
 502              		.loc 1 141 5 is_stmt 1 view .LVU190
 142:Drivers/lvgl/src/draw/sw/lv_draw_sw_polygon.c ****             i_next_left = i_prev_left - 1;
 503              		.loc 1 142 9 view .LVU191
 142:Drivers/lvgl/src/draw/sw/lv_draw_sw_polygon.c ****             i_next_left = i_prev_left - 1;
 504              		.loc 1 142 11 is_stmt 0 view .LVU192
 505 022a DDE90231 		ldrd	r3, r1, [sp, #8]
 506 022e 8B42     		cmp	r3, r1
 507 0230 AEDA     		bge	.L50
 150:Drivers/lvgl/src/draw/sw/lv_draw_sw_polygon.c ****             if(i_next_left > point_cnt - 1) i_next_left = 0;
 508              		.loc 1 150 13 is_stmt 1 view .LVU193
 150:Drivers/lvgl/src/draw/sw/lv_draw_sw_polygon.c ****             if(i_next_left > point_cnt - 1) i_next_left = 0;
 509              		.loc 1 150 25 is_stmt 0 view .LVU194
 510 0232 09F10108 		add	r8, r9, #1
 511              	.LVL53:
 151:Drivers/lvgl/src/draw/sw/lv_draw_sw_polygon.c **** 
 512              		.loc 1 151 13 is_stmt 1 view .LVU195
 151:Drivers/lvgl/src/draw/sw/lv_draw_sw_polygon.c **** 
ARM GAS  /var/folders/lp/x54gwt890xv47sdkqj1k04q40000gn/T//ccVvkCgt.s 			page 15


 513              		.loc 1 151 15 is_stmt 0 view .LVU196
 514 0236 A045     		cmp	r8, r4
 157:Drivers/lvgl/src/draw/sw/lv_draw_sw_polygon.c ****             if(p[i_next_left].y != p[i_prev_left].y &&
 515              		.loc 1 157 13 view .LVU197
 516 0238 B2BF     		itee	lt
 517 023a 0BEB8803 		addlt	r3, fp, r8, lsl #2
 518 023e 5B46     		movge	r3, fp
 151:Drivers/lvgl/src/draw/sw/lv_draw_sw_polygon.c **** 
 519              		.loc 1 151 57 discriminator 1 view .LVU198
 520 0240 4FF00008 		movge	r8, #0
 521              	.LVL54:
 153:Drivers/lvgl/src/draw/sw/lv_draw_sw_polygon.c ****             if(i_next_right < 0) i_next_right = point_cnt + i_next_right;
 522              		.loc 1 153 13 is_stmt 1 view .LVU199
 154:Drivers/lvgl/src/draw/sw/lv_draw_sw_polygon.c ****         }
 523              		.loc 1 154 13 view .LVU200
 154:Drivers/lvgl/src/draw/sw/lv_draw_sw_polygon.c ****         }
 524              		.loc 1 154 15 is_stmt 0 view .LVU201
 525 0244 751E     		subs	r5, r6, #1
 526              	.LVL55:
 154:Drivers/lvgl/src/draw/sw/lv_draw_sw_polygon.c ****         }
 527              		.loc 1 154 34 is_stmt 1 discriminator 1 view .LVU202
 154:Drivers/lvgl/src/draw/sw/lv_draw_sw_polygon.c ****         }
 528              		.loc 1 154 47 is_stmt 0 discriminator 1 view .LVU203
 529 0246 48BF     		it	mi
 530 0248 2D19     		addmi	r5, r5, r4
 531              	.LVL56:
 154:Drivers/lvgl/src/draw/sw/lv_draw_sw_polygon.c ****         }
 532              		.loc 1 154 47 discriminator 1 view .LVU204
 533 024a ABE7     		b	.L18
 534              	.L22:
 187:Drivers/lvgl/src/draw/sw/lv_draw_sw_polygon.c **** 
 188:Drivers/lvgl/src/draw/sw/lv_draw_sw_polygon.c ****     lv_draw_rect(draw_ctx, draw_dsc, &poly_coords);
 535              		.loc 1 188 5 view .LVU205
 536 024c DDE90685 		ldrd	r8, r5, [sp, #24]
 537              	.LVL57:
 538              		.loc 1 188 5 is_stmt 1 view .LVU206
 539 0250 08AA     		add	r2, sp, #32
 540 0252 2946     		mov	r1, r5
 541 0254 4046     		mov	r0, r8
 542 0256 FFF7FEFF 		bl	lv_draw_rect
 543              	.LVL58:
 189:Drivers/lvgl/src/draw/sw/lv_draw_sw_polygon.c **** 
 190:Drivers/lvgl/src/draw/sw/lv_draw_sw_polygon.c ****     lv_draw_mask_remove_custom(mp);
 544              		.loc 1 190 5 view .LVU207
 545 025a 049C     		ldr	r4, [sp, #16]
 546              	.LVL59:
 547              		.loc 1 190 5 is_stmt 0 view .LVU208
 548 025c 2046     		mov	r0, r4
 549 025e FFF7FEFF 		bl	lv_draw_mask_remove_custom
 550              	.LVL60:
 191:Drivers/lvgl/src/draw/sw/lv_draw_sw_polygon.c **** 
 192:Drivers/lvgl/src/draw/sw/lv_draw_sw_polygon.c ****     lv_mem_buf_release(mp);
 551              		.loc 1 192 5 is_stmt 1 view .LVU209
 552 0262 2046     		mov	r0, r4
 553 0264 FFF7FEFF 		bl	lv_mem_buf_release
 554              	.LVL61:
 193:Drivers/lvgl/src/draw/sw/lv_draw_sw_polygon.c ****     lv_mem_buf_release(p);
ARM GAS  /var/folders/lp/x54gwt890xv47sdkqj1k04q40000gn/T//ccVvkCgt.s 			page 16


 555              		.loc 1 193 5 view .LVU210
 556 0268 5846     		mov	r0, fp
 557 026a FFF7FEFF 		bl	lv_mem_buf_release
 558              	.LVL62:
 194:Drivers/lvgl/src/draw/sw/lv_draw_sw_polygon.c **** 
 195:Drivers/lvgl/src/draw/sw/lv_draw_sw_polygon.c ****     draw_ctx->clip_area = clip_area_ori;
 559              		.loc 1 195 5 view .LVU211
 560              		.loc 1 195 25 is_stmt 0 view .LVU212
 561 026e 059B     		ldr	r3, [sp, #20]
 562 0270 C8F80830 		str	r3, [r8, #8]
 563              	.LVL63:
 564              	.L1:
 196:Drivers/lvgl/src/draw/sw/lv_draw_sw_polygon.c **** #else
 197:Drivers/lvgl/src/draw/sw/lv_draw_sw_polygon.c ****     LV_UNUSED(points);
 198:Drivers/lvgl/src/draw/sw/lv_draw_sw_polygon.c ****     LV_UNUSED(point_cnt);
 199:Drivers/lvgl/src/draw/sw/lv_draw_sw_polygon.c ****     LV_UNUSED(draw_ctx);
 200:Drivers/lvgl/src/draw/sw/lv_draw_sw_polygon.c ****     LV_UNUSED(draw_dsc);
 201:Drivers/lvgl/src/draw/sw/lv_draw_sw_polygon.c ****     LV_LOG_WARN("Can't draw polygon with LV_DRAW_COMPLEX == 0");
 202:Drivers/lvgl/src/draw/sw/lv_draw_sw_polygon.c **** #endif /*LV_DRAW_COMPLEX*/
 203:Drivers/lvgl/src/draw/sw/lv_draw_sw_polygon.c **** }
 565              		.loc 1 203 1 view .LVU213
 566 0274 0DB0     		add	sp, sp, #52
 567              		.cfi_def_cfa_offset 36
 568              		@ sp needed
 569 0276 BDE8F08F 		pop	{r4, r5, r6, r7, r8, r9, r10, fp, pc}
 570              	.LVL64:
 571              	.L40:
 572              		.cfi_def_cfa_offset 0
 573              		.cfi_restore 4
 574              		.cfi_restore 5
 575              		.cfi_restore 6
 576              		.cfi_restore 7
 577              		.cfi_restore 8
 578              		.cfi_restore 9
 579              		.cfi_restore 10
 580              		.cfi_restore 11
 581              		.cfi_restore 14
 582              		.loc 1 203 1 view .LVU214
 583 027a 7047     		bx	lr
 584              	.LVL65:
 585              	.L49:
 586              		.cfi_def_cfa_offset 88
 587              		.cfi_offset 4, -36
 588              		.cfi_offset 5, -32
 589              		.cfi_offset 6, -28
 590              		.cfi_offset 7, -24
 591              		.cfi_offset 8, -20
 592              		.cfi_offset 9, -16
 593              		.cfi_offset 10, -12
 594              		.cfi_offset 11, -8
 595              		.cfi_offset 14, -4
 120:Drivers/lvgl/src/draw/sw/lv_draw_sw_polygon.c **** 
 596              		.loc 1 120 25 is_stmt 1 discriminator 1 view .LVU215
 120:Drivers/lvgl/src/draw/sw/lv_draw_sw_polygon.c **** 
 597              		.loc 1 120 37 is_stmt 0 discriminator 1 view .LVU216
 598 027c 2044     		add	r0, r0, r4
 599              	.LVL66:
ARM GAS  /var/folders/lp/x54gwt890xv47sdkqj1k04q40000gn/T//ccVvkCgt.s 			page 17


 122:Drivers/lvgl/src/draw/sw/lv_draw_sw_polygon.c ****     if(i_next_right > point_cnt - 1) i_next_right = 0;
 600              		.loc 1 122 5 is_stmt 1 view .LVU217
 123:Drivers/lvgl/src/draw/sw/lv_draw_sw_polygon.c **** 
 601              		.loc 1 123 5 view .LVU218
 134:Drivers/lvgl/src/draw/sw/lv_draw_sw_polygon.c ****     lv_coord_t dyl = p[i_next_left].y - p[y_min_i].y;
 602              		.loc 1 134 23 is_stmt 0 view .LVU219
 603 027e 0BEB8101 		add	r1, fp, r1, lsl #2
 604 0282 61E7     		b	.L15
 605              	.LVL67:
 606              	.L46:
  67:Drivers/lvgl/src/draw/sw/lv_draw_sw_polygon.c ****         p[pcnt] = points[point_cnt - 1];
 607              		.loc 1 67 47 discriminator 1 view .LVU220
 608 0284 B0F90220 		ldrsh	r2, [r0, #2]
 609 0288 B6F90210 		ldrsh	r1, [r6, #2]
 610 028c 9142     		cmp	r1, r2
 611 028e 7FF4F4AE 		bne	.L6
 612 0292 F7E6     		b	.L7
 613              	.LVL68:
 614              	.L47:
  74:Drivers/lvgl/src/draw/sw/lv_draw_sw_polygon.c ****         return;
 615              		.loc 1 74 9 is_stmt 1 view .LVU221
 616 0294 5846     		mov	r0, fp
 617              		.loc 1 203 1 is_stmt 0 view .LVU222
 618 0296 0DB0     		add	sp, sp, #52
 619              		.cfi_remember_state
 620              		.cfi_def_cfa_offset 36
 621              		@ sp needed
 622 0298 BDE8F04F 		pop	{r4, r5, r6, r7, r8, r9, r10, fp, lr}
 623              		.cfi_restore 14
 624              		.cfi_restore 11
 625              		.cfi_restore 10
 626              		.cfi_restore 9
 627              		.cfi_restore 8
 628              		.cfi_restore 7
 629              		.cfi_restore 6
 630              		.cfi_restore 5
 631              		.cfi_restore 4
 632              		.cfi_def_cfa_offset 0
 633              	.LVL69:
  74:Drivers/lvgl/src/draw/sw/lv_draw_sw_polygon.c ****         return;
 634              		.loc 1 74 9 view .LVU223
 635 029c FFF7FEBF 		b	lv_mem_buf_release
 636              	.LVL70:
 637              	.L48:
 638              		.cfi_restore_state
  91:Drivers/lvgl/src/draw/sw/lv_draw_sw_polygon.c ****         return;
 639              		.loc 1 91 9 is_stmt 1 view .LVU224
 640 02a0 5846     		mov	r0, fp
 641              	.LVL71:
  91:Drivers/lvgl/src/draw/sw/lv_draw_sw_polygon.c ****         return;
 642              		.loc 1 91 9 is_stmt 0 view .LVU225
 643 02a2 FFF7FEFF 		bl	lv_mem_buf_release
 644              	.LVL72:
  92:Drivers/lvgl/src/draw/sw/lv_draw_sw_polygon.c ****     }
 645              		.loc 1 92 9 is_stmt 1 view .LVU226
 646 02a6 E5E7     		b	.L1
 647              	.L52:
ARM GAS  /var/folders/lp/x54gwt890xv47sdkqj1k04q40000gn/T//ccVvkCgt.s 			page 18


 648              		.align	2
 649              	.L51:
 650 02a8 00000000 		.word	.LANCHOR0
 651 02ac 01E0FFFF 		.word	-8191
 652              		.cfi_endproc
 653              	.LFE56:
 655              		.section	.rodata
 656              		.align	2
 657              		.set	.LANCHOR0,. + 0
 658              	.LC0:
 659 0000 FF1F     		.short	8191
 660 0002 FF1F     		.short	8191
 661 0004 01E0     		.short	-8191
 662 0006 01E0     		.short	-8191
 663              		.text
 664              	.Letext0:
 665              		.file 2 "/Users/jr/Library/Application Support/Code/User/globalStorage/bmd.stm32-for-vscode/@xpack
 666              		.file 3 "/Users/jr/Library/Application Support/Code/User/globalStorage/bmd.stm32-for-vscode/@xpack
 667              		.file 4 "Drivers/lvgl/src/draw/sw/../../misc/lv_types.h"
 668              		.file 5 "/Users/jr/Library/Application Support/Code/User/globalStorage/bmd.stm32-for-vscode/@xpack
 669              		.file 6 "Drivers/lvgl/src/draw/sw/../../misc/lv_color.h"
 670              		.file 7 "Drivers/lvgl/src/draw/sw/../../misc/lv_area.h"
 671              		.file 8 "Drivers/lvgl/src/draw/sw/../../misc/../font/lv_font.h"
 672              		.file 9 "Drivers/lvgl/src/draw/sw/../../misc/lv_txt.h"
 673              		.file 10 "Drivers/lvgl/src/draw/sw/../../misc/lv_bidi.h"
 674              		.file 11 "Drivers/lvgl/src/draw/sw/../../misc/lv_style.h"
 675              		.file 12 "Drivers/lvgl/src/draw/sw/../lv_draw_mask.h"
 676              		.file 13 "Drivers/lvgl/src/draw/sw/../lv_img_buf.h"
 677              		.file 14 "Drivers/lvgl/src/draw/sw/../lv_draw_rect.h"
 678              		.file 15 "Drivers/lvgl/src/draw/sw/../lv_draw_label.h"
 679              		.file 16 "Drivers/lvgl/src/draw/sw/../lv_draw_img.h"
 680              		.file 17 "Drivers/lvgl/src/draw/sw/../lv_draw_line.h"
 681              		.file 18 "Drivers/lvgl/src/draw/sw/../lv_draw_arc.h"
 682              		.file 19 "Drivers/lvgl/src/draw/sw/../lv_draw_layer.h"
 683              		.file 20 "Drivers/lvgl/src/draw/sw/../lv_draw.h"
 684              		.file 21 "Drivers/lvgl/src/draw/sw/../../misc/lv_mem.h"
ARM GAS  /var/folders/lp/x54gwt890xv47sdkqj1k04q40000gn/T//ccVvkCgt.s 			page 19

