ARM GAS  /var/folders/0z/tsy30v1j4xl4_7kw94k978ww0000gn/T//cclLgmxf.s 			page 1


   1              		.cpu cortex-m4
   2              		.arch armv7e-m
   3              		.fpu fpv4-sp-d16
   4              		.eabi_attribute 27, 1
   5              		.eabi_attribute 28, 1
   6              		.eabi_attribute 20, 1
   7              		.eabi_attribute 21, 1
   8              		.eabi_attribute 23, 3
   9              		.eabi_attribute 24, 1
  10              		.eabi_attribute 25, 1
  11              		.eabi_attribute 26, 1
  12              		.eabi_attribute 30, 2
  13              		.eabi_attribute 34, 1
  14              		.eabi_attribute 18, 4
  15              		.file	"lv_draw_arc.c"
  16              		.text
  17              	.Ltext0:
  18              		.cfi_sections	.debug_frame
  19              		.section	.text.lv_draw_arc_dsc_init,"ax",%progbits
  20              		.align	1
  21              		.p2align 2,,3
  22              		.global	lv_draw_arc_dsc_init
  23              		.syntax unified
  24              		.thumb
  25              		.thumb_func
  27              	lv_draw_arc_dsc_init:
  28              	.LVL0:
  29              	.LFB55:
  30              		.file 1 "Drivers/lvgl/src/draw/lv_draw_arc.c"
   1:Drivers/lvgl/src/draw/lv_draw_arc.c **** /**
   2:Drivers/lvgl/src/draw/lv_draw_arc.c ****  * @file lv_draw_arc.c
   3:Drivers/lvgl/src/draw/lv_draw_arc.c ****  *
   4:Drivers/lvgl/src/draw/lv_draw_arc.c ****  */
   5:Drivers/lvgl/src/draw/lv_draw_arc.c **** 
   6:Drivers/lvgl/src/draw/lv_draw_arc.c **** /*********************
   7:Drivers/lvgl/src/draw/lv_draw_arc.c ****  *      INCLUDES
   8:Drivers/lvgl/src/draw/lv_draw_arc.c ****  *********************/
   9:Drivers/lvgl/src/draw/lv_draw_arc.c **** #include "lv_draw.h"
  10:Drivers/lvgl/src/draw/lv_draw_arc.c **** #include "lv_draw_arc.h"
  11:Drivers/lvgl/src/draw/lv_draw_arc.c **** 
  12:Drivers/lvgl/src/draw/lv_draw_arc.c **** /*********************
  13:Drivers/lvgl/src/draw/lv_draw_arc.c ****  *      DEFINES
  14:Drivers/lvgl/src/draw/lv_draw_arc.c ****  *********************/
  15:Drivers/lvgl/src/draw/lv_draw_arc.c **** 
  16:Drivers/lvgl/src/draw/lv_draw_arc.c **** /**********************
  17:Drivers/lvgl/src/draw/lv_draw_arc.c ****  *      TYPEDEFS
  18:Drivers/lvgl/src/draw/lv_draw_arc.c ****  **********************/
  19:Drivers/lvgl/src/draw/lv_draw_arc.c **** 
  20:Drivers/lvgl/src/draw/lv_draw_arc.c **** /**********************
  21:Drivers/lvgl/src/draw/lv_draw_arc.c ****  *  STATIC PROTOTYPES
  22:Drivers/lvgl/src/draw/lv_draw_arc.c ****  **********************/
  23:Drivers/lvgl/src/draw/lv_draw_arc.c **** 
  24:Drivers/lvgl/src/draw/lv_draw_arc.c **** /**********************
  25:Drivers/lvgl/src/draw/lv_draw_arc.c ****  *  STATIC VARIABLES
  26:Drivers/lvgl/src/draw/lv_draw_arc.c ****  **********************/
  27:Drivers/lvgl/src/draw/lv_draw_arc.c **** 
  28:Drivers/lvgl/src/draw/lv_draw_arc.c **** /**********************
ARM GAS  /var/folders/0z/tsy30v1j4xl4_7kw94k978ww0000gn/T//cclLgmxf.s 			page 2


  29:Drivers/lvgl/src/draw/lv_draw_arc.c ****  *      MACROS
  30:Drivers/lvgl/src/draw/lv_draw_arc.c ****  **********************/
  31:Drivers/lvgl/src/draw/lv_draw_arc.c **** 
  32:Drivers/lvgl/src/draw/lv_draw_arc.c **** /**********************
  33:Drivers/lvgl/src/draw/lv_draw_arc.c ****  *   GLOBAL FUNCTIONS
  34:Drivers/lvgl/src/draw/lv_draw_arc.c ****  **********************/
  35:Drivers/lvgl/src/draw/lv_draw_arc.c **** 
  36:Drivers/lvgl/src/draw/lv_draw_arc.c **** void lv_draw_arc_dsc_init(lv_draw_arc_dsc_t * dsc)
  37:Drivers/lvgl/src/draw/lv_draw_arc.c **** {
  31              		.loc 1 37 1 view -0
  32              		.cfi_startproc
  33              		@ args = 0, pretend = 0, frame = 0
  34              		@ frame_needed = 0, uses_anonymous_args = 0
  38:Drivers/lvgl/src/draw/lv_draw_arc.c ****     lv_memset_00(dsc, sizeof(lv_draw_arc_dsc_t));
  35              		.loc 1 38 5 view .LVU1
  37:Drivers/lvgl/src/draw/lv_draw_arc.c ****     lv_memset_00(dsc, sizeof(lv_draw_arc_dsc_t));
  36              		.loc 1 37 1 is_stmt 0 view .LVU2
  37 0000 10B5     		push	{r4, lr}
  38              		.cfi_def_cfa_offset 8
  39              		.cfi_offset 4, -8
  40              		.cfi_offset 14, -4
  41              		.loc 1 38 5 view .LVU3
  42 0002 1021     		movs	r1, #16
  37:Drivers/lvgl/src/draw/lv_draw_arc.c ****     lv_memset_00(dsc, sizeof(lv_draw_arc_dsc_t));
  43              		.loc 1 37 1 view .LVU4
  44 0004 0446     		mov	r4, r0
  45              		.loc 1 38 5 view .LVU5
  46 0006 FFF7FEFF 		bl	lv_memset_00
  47              	.LVL1:
  39:Drivers/lvgl/src/draw/lv_draw_arc.c ****     dsc->width = 1;
  48              		.loc 1 39 5 is_stmt 1 view .LVU6
  40:Drivers/lvgl/src/draw/lv_draw_arc.c ****     dsc->opa = LV_OPA_COVER;
  49              		.loc 1 40 5 view .LVU7
  50              		.loc 1 40 14 is_stmt 0 view .LVU8
  51 000a FF22     		movs	r2, #255
  41:Drivers/lvgl/src/draw/lv_draw_arc.c ****     dsc->color = lv_color_black();
  52              		.loc 1 41 18 view .LVU9
  53 000c 4FF48033 		mov	r3, #65536
  40:Drivers/lvgl/src/draw/lv_draw_arc.c ****     dsc->opa = LV_OPA_COVER;
  54              		.loc 1 40 14 view .LVU10
  55 0010 2273     		strb	r2, [r4, #12]
  56              		.loc 1 41 5 is_stmt 1 view .LVU11
  57              		.loc 1 41 18 is_stmt 0 view .LVU12
  58 0012 2360     		str	r3, [r4]
  42:Drivers/lvgl/src/draw/lv_draw_arc.c **** }
  59              		.loc 1 42 1 view .LVU13
  60 0014 10BD     		pop	{r4, pc}
  61              		.loc 1 42 1 view .LVU14
  62              		.cfi_endproc
  63              	.LFE55:
  65 0016 00BF     		.section	.text.lv_draw_arc,"ax",%progbits
  66              		.align	1
  67              		.p2align 2,,3
  68              		.global	lv_draw_arc
  69              		.syntax unified
  70              		.thumb
  71              		.thumb_func
ARM GAS  /var/folders/0z/tsy30v1j4xl4_7kw94k978ww0000gn/T//cclLgmxf.s 			page 3


  73              	lv_draw_arc:
  74              	.LVL2:
  75              	.LFB56:
  43:Drivers/lvgl/src/draw/lv_draw_arc.c **** 
  44:Drivers/lvgl/src/draw/lv_draw_arc.c **** void lv_draw_arc(lv_draw_ctx_t * draw_ctx, const lv_draw_arc_dsc_t * dsc, const lv_point_t * center
  45:Drivers/lvgl/src/draw/lv_draw_arc.c ****                  uint16_t start_angle, uint16_t end_angle)
  46:Drivers/lvgl/src/draw/lv_draw_arc.c **** {
  76              		.loc 1 46 1 is_stmt 1 view -0
  77              		.cfi_startproc
  78              		@ args = 8, pretend = 0, frame = 0
  79              		@ frame_needed = 0, uses_anonymous_args = 0
  47:Drivers/lvgl/src/draw/lv_draw_arc.c ****     if(dsc->opa <= LV_OPA_MIN) return;
  80              		.loc 1 47 5 view .LVU16
  46:Drivers/lvgl/src/draw/lv_draw_arc.c ****     if(dsc->opa <= LV_OPA_MIN) return;
  81              		.loc 1 46 1 is_stmt 0 view .LVU17
  82 0000 70B5     		push	{r4, r5, r6, lr}
  83              		.cfi_def_cfa_offset 16
  84              		.cfi_offset 4, -16
  85              		.cfi_offset 5, -12
  86              		.cfi_offset 6, -8
  87              		.cfi_offset 14, -4
  88              		.loc 1 47 7 view .LVU18
  89 0002 0C7B     		ldrb	r4, [r1, #12]	@ zero_extendqisi2
  46:Drivers/lvgl/src/draw/lv_draw_arc.c ****     if(dsc->opa <= LV_OPA_MIN) return;
  90              		.loc 1 46 1 view .LVU19
  91 0004 BDF81050 		ldrh	r5, [sp, #16]
  92 0008 BDF81460 		ldrh	r6, [sp, #20]
  93              		.loc 1 47 7 view .LVU20
  94 000c 022C     		cmp	r4, #2
  95 000e 0BD9     		bls	.L4
  48:Drivers/lvgl/src/draw/lv_draw_arc.c ****     if(dsc->width == 0) return;
  96              		.loc 1 48 5 is_stmt 1 view .LVU21
  97              		.loc 1 48 7 is_stmt 0 view .LVU22
  98 0010 B1F90240 		ldrsh	r4, [r1, #2]
  99 0014 44B1     		cbz	r4, .L4
  49:Drivers/lvgl/src/draw/lv_draw_arc.c ****     if(start_angle == end_angle) return;
 100              		.loc 1 49 5 is_stmt 1 view .LVU23
 101              		.loc 1 49 7 is_stmt 0 view .LVU24
 102 0016 B542     		cmp	r5, r6
 103 0018 06D0     		beq	.L4
  50:Drivers/lvgl/src/draw/lv_draw_arc.c **** 
  51:Drivers/lvgl/src/draw/lv_draw_arc.c ****     draw_ctx->draw_arc(draw_ctx, dsc, center, radius, start_angle, end_angle);
 104              		.loc 1 51 5 is_stmt 1 view .LVU25
 105 001a 4469     		ldr	r4, [r0, #20]
 106 001c CDE90456 		strd	r5, r6, [sp, #16]
 107              	.LVL3:
 108              		.loc 1 51 5 is_stmt 0 view .LVU26
 109 0020 A446     		mov	ip, r4
  52:Drivers/lvgl/src/draw/lv_draw_arc.c **** 
  53:Drivers/lvgl/src/draw/lv_draw_arc.c ****     //    const lv_draw_backend_t * backend = lv_draw_backend_get();
  54:Drivers/lvgl/src/draw/lv_draw_arc.c ****     //    backend->draw_arc(center_x, center_y, radius, start_angle, end_angle, clip_area, dsc);
  55:Drivers/lvgl/src/draw/lv_draw_arc.c **** }
 110              		.loc 1 55 1 view .LVU27
 111 0022 BDE87040 		pop	{r4, r5, r6, lr}
 112              		.cfi_remember_state
 113              		.cfi_restore 14
 114              		.cfi_restore 6
ARM GAS  /var/folders/0z/tsy30v1j4xl4_7kw94k978ww0000gn/T//cclLgmxf.s 			page 4


 115              		.cfi_restore 5
 116              		.cfi_restore 4
 117              		.cfi_def_cfa_offset 0
  51:Drivers/lvgl/src/draw/lv_draw_arc.c **** 
 118              		.loc 1 51 5 view .LVU28
 119 0026 6047     		bx	ip	@ indirect register sibling call
 120              	.LVL4:
 121              	.L4:
 122              		.cfi_restore_state
 123              		.loc 1 55 1 view .LVU29
 124 0028 70BD     		pop	{r4, r5, r6, pc}
 125              		.loc 1 55 1 view .LVU30
 126              		.cfi_endproc
 127              	.LFE56:
 129 002a 00BF     		.section	.text.lv_draw_arc_get_area,"ax",%progbits
 130              		.align	1
 131              		.p2align 2,,3
 132              		.global	lv_draw_arc_get_area
 133              		.syntax unified
 134              		.thumb
 135              		.thumb_func
 137              	lv_draw_arc_get_area:
 138              	.LVL5:
 139              	.LFB57:
  56:Drivers/lvgl/src/draw/lv_draw_arc.c **** 
  57:Drivers/lvgl/src/draw/lv_draw_arc.c **** void lv_draw_arc_get_area(lv_coord_t x, lv_coord_t y, uint16_t radius,  uint16_t start_angle, uint1
  58:Drivers/lvgl/src/draw/lv_draw_arc.c ****                           lv_coord_t w, bool rounded, lv_area_t * area)
  59:Drivers/lvgl/src/draw/lv_draw_arc.c **** {
 140              		.loc 1 59 1 is_stmt 1 view -0
 141              		.cfi_startproc
 142              		@ args = 16, pretend = 0, frame = 16
 143              		@ frame_needed = 0, uses_anonymous_args = 0
  60:Drivers/lvgl/src/draw/lv_draw_arc.c ****     lv_coord_t rout = radius;
 144              		.loc 1 60 5 view .LVU32
  59:Drivers/lvgl/src/draw/lv_draw_arc.c ****     lv_coord_t rout = radius;
 145              		.loc 1 59 1 is_stmt 0 view .LVU33
 146 0000 2DE9F04F 		push	{r4, r5, r6, r7, r8, r9, r10, fp, lr}
 147              		.cfi_def_cfa_offset 36
 148              		.cfi_offset 4, -36
 149              		.cfi_offset 5, -32
 150              		.cfi_offset 6, -28
 151              		.cfi_offset 7, -24
 152              		.cfi_offset 8, -20
 153              		.cfi_offset 9, -16
 154              		.cfi_offset 10, -12
 155              		.cfi_offset 11, -8
 156              		.cfi_offset 14, -4
 157 0004 85B0     		sub	sp, sp, #20
 158              		.cfi_def_cfa_offset 56
  59:Drivers/lvgl/src/draw/lv_draw_arc.c ****     lv_coord_t rout = radius;
 159              		.loc 1 59 1 view .LVU34
 160 0006 1746     		mov	r7, r2
 161 0008 BDF83880 		ldrh	r8, [sp, #56]
 162 000c BDF93C20 		ldrsh	r2, [sp, #60]
 163              	.LVL6:
  59:Drivers/lvgl/src/draw/lv_draw_arc.c ****     lv_coord_t rout = radius;
 164              		.loc 1 59 1 view .LVU35
ARM GAS  /var/folders/0z/tsy30v1j4xl4_7kw94k978ww0000gn/T//cclLgmxf.s 			page 5


 165 0010 DDF844A0 		ldr	r10, [sp, #68]
 166 0014 0C46     		mov	r4, r1
  61:Drivers/lvgl/src/draw/lv_draw_arc.c **** 
  62:Drivers/lvgl/src/draw/lv_draw_arc.c ****     /*Special case: full arc invalidation */
  63:Drivers/lvgl/src/draw/lv_draw_arc.c ****     if(end_angle == start_angle + 360) {
 167              		.loc 1 63 33 view .LVU36
 168 0016 03F5B471 		add	r1, r3, #360
 169              	.LVL7:
  59:Drivers/lvgl/src/draw/lv_draw_arc.c ****     lv_coord_t rout = radius;
 170              		.loc 1 59 1 view .LVU37
 171 001a 0546     		mov	r5, r0
 172              		.loc 1 63 7 view .LVU38
 173 001c 8845     		cmp	r8, r1
  60:Drivers/lvgl/src/draw/lv_draw_arc.c **** 
 174              		.loc 1 60 16 view .LVU39
 175 001e 38B2     		sxth	r0, r7
 176              	.LVL8:
  59:Drivers/lvgl/src/draw/lv_draw_arc.c ****     lv_coord_t rout = radius;
 177              		.loc 1 59 1 view .LVU40
 178 0020 1E46     		mov	r6, r3
  60:Drivers/lvgl/src/draw/lv_draw_arc.c **** 
 179              		.loc 1 60 16 view .LVU41
 180 0022 0090     		str	r0, [sp]
 181              	.LVL9:
 182              		.loc 1 63 5 is_stmt 1 view .LVU42
  59:Drivers/lvgl/src/draw/lv_draw_arc.c ****     lv_coord_t rout = radius;
 183              		.loc 1 59 1 is_stmt 0 view .LVU43
 184 0024 9DF84030 		ldrb	r3, [sp, #64]	@ zero_extendqisi2
 185              	.LVL10:
 186              		.loc 1 63 7 view .LVU44
 187 0028 2CD0     		beq	.L19
  64:Drivers/lvgl/src/draw/lv_draw_arc.c ****         area->x1 = x - rout;
  65:Drivers/lvgl/src/draw/lv_draw_arc.c ****         area->y1 = y - rout;
  66:Drivers/lvgl/src/draw/lv_draw_arc.c ****         area->x2 = x + rout;
  67:Drivers/lvgl/src/draw/lv_draw_arc.c ****         area->y2 = y + rout;
  68:Drivers/lvgl/src/draw/lv_draw_arc.c ****         return;
  69:Drivers/lvgl/src/draw/lv_draw_arc.c ****     }
  70:Drivers/lvgl/src/draw/lv_draw_arc.c **** 
  71:Drivers/lvgl/src/draw/lv_draw_arc.c ****     if(start_angle > 360) start_angle -= 360;
 188              		.loc 1 71 5 is_stmt 1 view .LVU45
 189              		.loc 1 71 7 is_stmt 0 view .LVU46
 190 002a B6F5B47F 		cmp	r6, #360
 191              		.loc 1 71 27 is_stmt 1 view .LVU47
 192              		.loc 1 71 39 is_stmt 0 view .LVU48
 193 002e 84BF     		itt	hi
 194 0030 A6F5B476 		subhi	r6, r6, #360
 195 0034 B6B2     		uxthhi	r6, r6
 196              	.LVL11:
  72:Drivers/lvgl/src/draw/lv_draw_arc.c ****     if(end_angle > 360) end_angle -= 360;
 197              		.loc 1 72 5 is_stmt 1 view .LVU49
 198              		.loc 1 72 7 is_stmt 0 view .LVU50
 199 0036 B8F5B47F 		cmp	r8, #360
 200              		.loc 1 72 25 is_stmt 1 view .LVU51
 201              		.loc 1 72 35 is_stmt 0 view .LVU52
 202 003a 88BF     		it	hi
 203 003c A8F5B478 		subhi	r8, r8, #360
  73:Drivers/lvgl/src/draw/lv_draw_arc.c **** 
ARM GAS  /var/folders/0z/tsy30v1j4xl4_7kw94k978ww0000gn/T//cclLgmxf.s 			page 6


  74:Drivers/lvgl/src/draw/lv_draw_arc.c ****     lv_coord_t rin = radius - w;
 204              		.loc 1 74 29 view .LVU53
 205 0040 A7EB0209 		sub	r9, r7, r2
  72:Drivers/lvgl/src/draw/lv_draw_arc.c ****     if(end_angle > 360) end_angle -= 360;
 206              		.loc 1 72 35 view .LVU54
 207 0044 88BF     		it	hi
 208 0046 1FFA88F8 		uxthhi	r8, r8
 209              	.LVL12:
 210              		.loc 1 74 5 is_stmt 1 view .LVU55
 211              		.loc 1 74 16 is_stmt 0 view .LVU56
 212 004a 0FFA89F9 		sxth	r9, r9
 213              	.LVL13:
  75:Drivers/lvgl/src/draw/lv_draw_arc.c ****     lv_coord_t extra_area = rounded ? w / 2 + 1 : 0;
 214              		.loc 1 75 5 is_stmt 1 view .LVU57
 215              		.loc 1 75 16 is_stmt 0 view .LVU58
 216 004e 53BB     		cbnz	r3, .L49
 217 0050 9B46     		mov	fp, r3
 218              	.L15:
 219              	.LVL14:
  76:Drivers/lvgl/src/draw/lv_draw_arc.c ****     uint8_t start_quarter = start_angle / 90;
 220              		.loc 1 76 5 is_stmt 1 discriminator 4 view .LVU59
 221              		.loc 1 76 13 is_stmt 0 discriminator 4 view .LVU60
 222 0052 C348     		ldr	r0, .L56
 223 0054 7208     		lsrs	r2, r6, #1
 224 0056 A0FB0212 		umull	r1, r2, r0, r2
 225 005a C2F34712 		ubfx	r2, r2, #5, #8
 226              	.LVL15:
  77:Drivers/lvgl/src/draw/lv_draw_arc.c ****     uint8_t end_quarter = end_angle / 90;
 227              		.loc 1 77 5 is_stmt 1 discriminator 4 view .LVU61
 228              		.loc 1 77 13 is_stmt 0 discriminator 4 view .LVU62
 229 005e 4FEA5801 		lsr	r1, r8, #1
 230 0062 A0FB0101 		umull	r0, r1, r0, r1
  78:Drivers/lvgl/src/draw/lv_draw_arc.c **** 
  79:Drivers/lvgl/src/draw/lv_draw_arc.c ****     /*360 deg still counts as quarter 3 (360 / 90 would be 4)*/
  80:Drivers/lvgl/src/draw/lv_draw_arc.c ****     if(start_quarter == 4) start_quarter = 3;
 231              		.loc 1 80 7 discriminator 4 view .LVU63
 232 0066 042A     		cmp	r2, #4
  77:Drivers/lvgl/src/draw/lv_draw_arc.c ****     uint8_t end_quarter = end_angle / 90;
 233              		.loc 1 77 13 discriminator 4 view .LVU64
 234 0068 C1F34711 		ubfx	r1, r1, #5, #8
 235              	.LVL16:
 236              		.loc 1 80 5 is_stmt 1 discriminator 4 view .LVU65
 237              		.loc 1 80 7 is_stmt 0 discriminator 4 view .LVU66
 238 006c 22D0     		beq	.L50
  81:Drivers/lvgl/src/draw/lv_draw_arc.c ****     if(end_quarter == 4) end_quarter = 3;
 239              		.loc 1 81 5 is_stmt 1 view .LVU67
 240              		.loc 1 81 7 is_stmt 0 view .LVU68
 241 006e 0429     		cmp	r1, #4
 242 0070 00F0E680 		beq	.L51
  82:Drivers/lvgl/src/draw/lv_draw_arc.c **** 
  83:Drivers/lvgl/src/draw/lv_draw_arc.c ****     if(start_quarter == end_quarter && start_angle <= end_angle) {
 243              		.loc 1 83 5 is_stmt 1 view .LVU69
 244              		.loc 1 83 7 is_stmt 0 view .LVU70
 245 0074 8A42     		cmp	r2, r1
 246 0076 63D0     		beq	.L52
 247              	.L23:
  84:Drivers/lvgl/src/draw/lv_draw_arc.c ****         if(start_quarter == 0) {
ARM GAS  /var/folders/0z/tsy30v1j4xl4_7kw94k978ww0000gn/T//cclLgmxf.s 			page 7


  85:Drivers/lvgl/src/draw/lv_draw_arc.c ****             area->y1 = y + ((lv_trigo_sin(start_angle) * rin) >> LV_TRIGO_SHIFT) - extra_area;
  86:Drivers/lvgl/src/draw/lv_draw_arc.c ****             area->x2 = x + ((lv_trigo_sin(start_angle + 90) * rout) >> LV_TRIGO_SHIFT) + extra_area
  87:Drivers/lvgl/src/draw/lv_draw_arc.c **** 
  88:Drivers/lvgl/src/draw/lv_draw_arc.c ****             area->y2 = y + ((lv_trigo_sin(end_angle) * rout) >> LV_TRIGO_SHIFT) + extra_area;
  89:Drivers/lvgl/src/draw/lv_draw_arc.c ****             area->x1 = x + ((lv_trigo_sin(end_angle + 90) * rin) >> LV_TRIGO_SHIFT) - extra_area;
  90:Drivers/lvgl/src/draw/lv_draw_arc.c ****         }
  91:Drivers/lvgl/src/draw/lv_draw_arc.c ****         else if(start_quarter == 1) {
  92:Drivers/lvgl/src/draw/lv_draw_arc.c ****             area->y2 = y + ((lv_trigo_sin(start_angle) * rout) >> LV_TRIGO_SHIFT) + extra_area;
  93:Drivers/lvgl/src/draw/lv_draw_arc.c ****             area->x2 = x + ((lv_trigo_sin(start_angle + 90) * rin) >> LV_TRIGO_SHIFT) + extra_area;
  94:Drivers/lvgl/src/draw/lv_draw_arc.c **** 
  95:Drivers/lvgl/src/draw/lv_draw_arc.c ****             area->y1 = y + ((lv_trigo_sin(end_angle) * rin) >> LV_TRIGO_SHIFT) - extra_area;
  96:Drivers/lvgl/src/draw/lv_draw_arc.c ****             area->x1 = x + ((lv_trigo_sin(end_angle + 90) * rout) >> LV_TRIGO_SHIFT) - extra_area;
  97:Drivers/lvgl/src/draw/lv_draw_arc.c ****         }
  98:Drivers/lvgl/src/draw/lv_draw_arc.c ****         else if(start_quarter == 2) {
  99:Drivers/lvgl/src/draw/lv_draw_arc.c ****             area->x1 = x + ((lv_trigo_sin(start_angle + 90) * rout) >> LV_TRIGO_SHIFT) - extra_area
 100:Drivers/lvgl/src/draw/lv_draw_arc.c ****             area->y2 = y + ((lv_trigo_sin(start_angle) * rin) >> LV_TRIGO_SHIFT) + extra_area;
 101:Drivers/lvgl/src/draw/lv_draw_arc.c **** 
 102:Drivers/lvgl/src/draw/lv_draw_arc.c ****             area->y1 = y + ((lv_trigo_sin(end_angle) * rout) >> LV_TRIGO_SHIFT) - extra_area;
 103:Drivers/lvgl/src/draw/lv_draw_arc.c ****             area->x2 = x + ((lv_trigo_sin(end_angle + 90) * rin) >> LV_TRIGO_SHIFT) + extra_area;
 104:Drivers/lvgl/src/draw/lv_draw_arc.c ****         }
 105:Drivers/lvgl/src/draw/lv_draw_arc.c ****         else if(start_quarter == 3) {
 106:Drivers/lvgl/src/draw/lv_draw_arc.c ****             area->x1 = x + ((lv_trigo_sin(start_angle + 90) * rin) >> LV_TRIGO_SHIFT) - extra_area;
 107:Drivers/lvgl/src/draw/lv_draw_arc.c ****             area->y1 = y + ((lv_trigo_sin(start_angle) * rout) >> LV_TRIGO_SHIFT) - extra_area;
 108:Drivers/lvgl/src/draw/lv_draw_arc.c **** 
 109:Drivers/lvgl/src/draw/lv_draw_arc.c ****             area->x2 = x + ((lv_trigo_sin(end_angle + 90) * rout) >> LV_TRIGO_SHIFT) + extra_area;
 110:Drivers/lvgl/src/draw/lv_draw_arc.c ****             area->y2 = y + ((lv_trigo_sin(end_angle) * rin) >> LV_TRIGO_SHIFT) + extra_area;
 111:Drivers/lvgl/src/draw/lv_draw_arc.c ****         }
 112:Drivers/lvgl/src/draw/lv_draw_arc.c ****     }
 113:Drivers/lvgl/src/draw/lv_draw_arc.c ****     else if(start_quarter == 0 && end_quarter == 1) {
 248              		.loc 1 113 10 is_stmt 1 view .LVU71
 249              		.loc 1 113 12 is_stmt 0 view .LVU72
 250 0078 002A     		cmp	r2, #0
 251 007a 40F02681 		bne	.L53
 252              		.loc 1 113 32 discriminator 1 view .LVU73
 253 007e 0129     		cmp	r1, #1
 254 0080 00F09F80 		beq	.L54
 255              	.LVL17:
 256              	.L19:
  64:Drivers/lvgl/src/draw/lv_draw_arc.c ****         area->y1 = y - rout;
 257              		.loc 1 64 9 is_stmt 1 view .LVU74
  64:Drivers/lvgl/src/draw/lv_draw_arc.c ****         area->y1 = y - rout;
 258              		.loc 1 64 22 is_stmt 0 view .LVU75
 259 0084 ADB2     		uxth	r5, r5
 260 0086 EA1B     		subs	r2, r5, r7
  65:Drivers/lvgl/src/draw/lv_draw_arc.c ****         area->x2 = x + rout;
 261              		.loc 1 65 22 view .LVU76
 262 0088 A4B2     		uxth	r4, r4
  66:Drivers/lvgl/src/draw/lv_draw_arc.c ****         area->y2 = y + rout;
 263              		.loc 1 66 22 view .LVU77
 264 008a 3D44     		add	r5, r5, r7
  64:Drivers/lvgl/src/draw/lv_draw_arc.c ****         area->y1 = y - rout;
 265              		.loc 1 64 18 view .LVU78
 266 008c AAF80020 		strh	r2, [r10]	@ movhi
  65:Drivers/lvgl/src/draw/lv_draw_arc.c ****         area->x2 = x + rout;
 267              		.loc 1 65 9 is_stmt 1 view .LVU79
  65:Drivers/lvgl/src/draw/lv_draw_arc.c ****         area->x2 = x + rout;
 268              		.loc 1 65 22 is_stmt 0 view .LVU80
ARM GAS  /var/folders/0z/tsy30v1j4xl4_7kw94k978ww0000gn/T//cclLgmxf.s 			page 8


 269 0090 E21B     		subs	r2, r4, r7
  67:Drivers/lvgl/src/draw/lv_draw_arc.c ****         return;
 270              		.loc 1 67 22 view .LVU81
 271 0092 3C44     		add	r4, r4, r7
  65:Drivers/lvgl/src/draw/lv_draw_arc.c ****         area->x2 = x + rout;
 272              		.loc 1 65 18 view .LVU82
 273 0094 AAF80220 		strh	r2, [r10, #2]	@ movhi
  66:Drivers/lvgl/src/draw/lv_draw_arc.c ****         area->y2 = y + rout;
 274              		.loc 1 66 9 is_stmt 1 view .LVU83
  66:Drivers/lvgl/src/draw/lv_draw_arc.c ****         area->y2 = y + rout;
 275              		.loc 1 66 18 is_stmt 0 view .LVU84
 276 0098 AAF80450 		strh	r5, [r10, #4]	@ movhi
  67:Drivers/lvgl/src/draw/lv_draw_arc.c ****         return;
 277              		.loc 1 67 9 is_stmt 1 view .LVU85
  67:Drivers/lvgl/src/draw/lv_draw_arc.c ****         return;
 278              		.loc 1 67 18 is_stmt 0 view .LVU86
 279 009c AAF80640 		strh	r4, [r10, #6]	@ movhi
  68:Drivers/lvgl/src/draw/lv_draw_arc.c ****     }
 280              		.loc 1 68 9 is_stmt 1 view .LVU87
 281              	.L10:
 114:Drivers/lvgl/src/draw/lv_draw_arc.c ****         area->x1 = x + ((lv_trigo_sin(end_angle + 90) * rout) >> LV_TRIGO_SHIFT) - extra_area;
 115:Drivers/lvgl/src/draw/lv_draw_arc.c ****         area->y1 = y + ((LV_MIN(lv_trigo_sin(end_angle),
 116:Drivers/lvgl/src/draw/lv_draw_arc.c ****                                 lv_trigo_sin(start_angle))  * rin) >> LV_TRIGO_SHIFT) - extra_area;
 117:Drivers/lvgl/src/draw/lv_draw_arc.c ****         area->x2 = x + ((lv_trigo_sin(start_angle + 90) * rout) >> LV_TRIGO_SHIFT) + extra_area;
 118:Drivers/lvgl/src/draw/lv_draw_arc.c ****         area->y2 = y + rout + extra_area;
 119:Drivers/lvgl/src/draw/lv_draw_arc.c ****     }
 120:Drivers/lvgl/src/draw/lv_draw_arc.c ****     else if(start_quarter == 1 && end_quarter == 2) {
 121:Drivers/lvgl/src/draw/lv_draw_arc.c ****         area->x1 = x - rout - extra_area;
 122:Drivers/lvgl/src/draw/lv_draw_arc.c ****         area->y1 = y + ((lv_trigo_sin(end_angle) * rout) >> LV_TRIGO_SHIFT) - extra_area;
 123:Drivers/lvgl/src/draw/lv_draw_arc.c ****         area->x2 = x + ((LV_MAX(lv_trigo_sin(start_angle + 90),
 124:Drivers/lvgl/src/draw/lv_draw_arc.c ****                                 lv_trigo_sin(end_angle + 90)) * rin) >> LV_TRIGO_SHIFT) + extra_are
 125:Drivers/lvgl/src/draw/lv_draw_arc.c ****         area->y2 = y + ((lv_trigo_sin(start_angle) * rout) >> LV_TRIGO_SHIFT) + extra_area;
 126:Drivers/lvgl/src/draw/lv_draw_arc.c ****     }
 127:Drivers/lvgl/src/draw/lv_draw_arc.c ****     else if(start_quarter == 2 && end_quarter == 3) {
 128:Drivers/lvgl/src/draw/lv_draw_arc.c ****         area->x1 = x + ((lv_trigo_sin(start_angle + 90) * rout) >> LV_TRIGO_SHIFT) - extra_area;
 129:Drivers/lvgl/src/draw/lv_draw_arc.c ****         area->y1 = y - rout - extra_area;
 130:Drivers/lvgl/src/draw/lv_draw_arc.c ****         area->x2 = x + ((lv_trigo_sin(end_angle + 90) * rout) >> LV_TRIGO_SHIFT) + extra_area;
 131:Drivers/lvgl/src/draw/lv_draw_arc.c ****         area->y2 = y + (LV_MAX(lv_trigo_sin(end_angle) * rin,
 132:Drivers/lvgl/src/draw/lv_draw_arc.c ****                                lv_trigo_sin(start_angle) * rin) >> LV_TRIGO_SHIFT) + extra_area;
 133:Drivers/lvgl/src/draw/lv_draw_arc.c ****     }
 134:Drivers/lvgl/src/draw/lv_draw_arc.c ****     else if(start_quarter == 3 && end_quarter == 0) {
 135:Drivers/lvgl/src/draw/lv_draw_arc.c ****         area->x1 = x + ((LV_MIN(lv_trigo_sin(end_angle + 90),
 136:Drivers/lvgl/src/draw/lv_draw_arc.c ****                                 lv_trigo_sin(start_angle + 90)) * rin) >> LV_TRIGO_SHIFT) - extra_a
 137:Drivers/lvgl/src/draw/lv_draw_arc.c ****         area->y1 = y + ((lv_trigo_sin(start_angle) * rout) >> LV_TRIGO_SHIFT) - extra_area;
 138:Drivers/lvgl/src/draw/lv_draw_arc.c ****         area->x2 = x + rout + extra_area;
 139:Drivers/lvgl/src/draw/lv_draw_arc.c ****         area->y2 = y + ((lv_trigo_sin(end_angle) * rout) >> LV_TRIGO_SHIFT) + extra_area;
 140:Drivers/lvgl/src/draw/lv_draw_arc.c **** 
 141:Drivers/lvgl/src/draw/lv_draw_arc.c ****     }
 142:Drivers/lvgl/src/draw/lv_draw_arc.c ****     else {
 143:Drivers/lvgl/src/draw/lv_draw_arc.c ****         area->x1 = x - rout;
 144:Drivers/lvgl/src/draw/lv_draw_arc.c ****         area->y1 = y - rout;
 145:Drivers/lvgl/src/draw/lv_draw_arc.c ****         area->x2 = x + rout;
 146:Drivers/lvgl/src/draw/lv_draw_arc.c ****         area->y2 = y + rout;
 147:Drivers/lvgl/src/draw/lv_draw_arc.c ****     }
 148:Drivers/lvgl/src/draw/lv_draw_arc.c **** }
 282              		.loc 1 148 1 is_stmt 0 view .LVU88
 283 00a0 05B0     		add	sp, sp, #20
ARM GAS  /var/folders/0z/tsy30v1j4xl4_7kw94k978ww0000gn/T//cclLgmxf.s 			page 9


 284              		.cfi_remember_state
 285              		.cfi_def_cfa_offset 36
 286              	.LVL18:
 287              		.loc 1 148 1 view .LVU89
 288              		@ sp needed
 289 00a2 BDE8F08F 		pop	{r4, r5, r6, r7, r8, r9, r10, fp, pc}
 290              	.LVL19:
 291              	.L49:
 292              		.cfi_restore_state
  75:Drivers/lvgl/src/draw/lv_draw_arc.c ****     uint8_t start_quarter = start_angle / 90;
 293              		.loc 1 75 45 discriminator 1 view .LVU90
 294 00a6 02EBD272 		add	r2, r2, r2, lsr #31
 295 00aa 5210     		asrs	r2, r2, #1
 296 00ac 0132     		adds	r2, r2, #1
  75:Drivers/lvgl/src/draw/lv_draw_arc.c ****     uint8_t start_quarter = start_angle / 90;
 297              		.loc 1 75 16 discriminator 1 view .LVU91
 298 00ae 0FFA82FB 		sxth	fp, r2
 299 00b2 CEE7     		b	.L15
 300              	.LVL20:
 301              	.L50:
  80:Drivers/lvgl/src/draw/lv_draw_arc.c ****     if(end_quarter == 4) end_quarter = 3;
 302              		.loc 1 80 28 is_stmt 1 view .LVU92
  81:Drivers/lvgl/src/draw/lv_draw_arc.c **** 
 303              		.loc 1 81 5 view .LVU93
  81:Drivers/lvgl/src/draw/lv_draw_arc.c **** 
 304              		.loc 1 81 7 is_stmt 0 view .LVU94
 305 00b4 0429     		cmp	r1, #4
 306 00b6 4DD0     		beq	.L47
  83:Drivers/lvgl/src/draw/lv_draw_arc.c ****         if(start_quarter == 0) {
 307              		.loc 1 83 5 is_stmt 1 view .LVU95
  83:Drivers/lvgl/src/draw/lv_draw_arc.c ****         if(start_quarter == 0) {
 308              		.loc 1 83 7 is_stmt 0 view .LVU96
 309 00b8 0329     		cmp	r1, #3
 310 00ba 4BD0     		beq	.L47
 311              	.LVL21:
 312              	.L22:
 134:Drivers/lvgl/src/draw/lv_draw_arc.c ****         area->x1 = x + ((LV_MIN(lv_trigo_sin(end_angle + 90),
 313              		.loc 1 134 32 discriminator 1 view .LVU97
 314 00bc 0029     		cmp	r1, #0
 315 00be E1D1     		bne	.L19
 135:Drivers/lvgl/src/draw/lv_draw_arc.c ****                                 lv_trigo_sin(start_angle + 90)) * rin) >> LV_TRIGO_SHIFT) - extra_a
 316              		.loc 1 135 9 is_stmt 1 view .LVU98
 135:Drivers/lvgl/src/draw/lv_draw_arc.c ****                                 lv_trigo_sin(start_angle + 90)) * rin) >> LV_TRIGO_SHIFT) - extra_a
 317              		.loc 1 135 26 is_stmt 0 view .LVU99
 318 00c0 08F15A02 		add	r2, r8, #90
 319 00c4 13B2     		sxth	r3, r2
 320 00c6 1846     		mov	r0, r3
 321 00c8 0393     		str	r3, [sp, #12]
 322 00ca FFF7FEFF 		bl	lv_trigo_sin
 323              	.LVL22:
 135:Drivers/lvgl/src/draw/lv_draw_arc.c ****                                 lv_trigo_sin(start_angle + 90)) * rin) >> LV_TRIGO_SHIFT) - extra_a
 324              		.loc 1 135 26 view .LVU100
 325 00ce 06F15A02 		add	r2, r6, #90
 326 00d2 12B2     		sxth	r2, r2
 327 00d4 0290     		str	r0, [sp, #8]
 328 00d6 1046     		mov	r0, r2
 329 00d8 0192     		str	r2, [sp, #4]
ARM GAS  /var/folders/0z/tsy30v1j4xl4_7kw94k978ww0000gn/T//cclLgmxf.s 			page 10


 330 00da FFF7FEFF 		bl	lv_trigo_sin
 331              	.LVL23:
 332 00de 0299     		ldr	r1, [sp, #8]
 333 00e0 019A     		ldr	r2, [sp, #4]
 334 00e2 8142     		cmp	r1, r0
 335 00e4 B6BF     		itet	lt
 336 00e6 039B     		ldrlt	r3, [sp, #12]
 337 00e8 1046     		movge	r0, r2
 338 00ea 1846     		movlt	r0, r3
 339 00ec FFF7FEFF 		bl	lv_trigo_sin
 340              	.LVL24:
 136:Drivers/lvgl/src/draw/lv_draw_arc.c ****         area->y1 = y + ((lv_trigo_sin(start_angle) * rout) >> LV_TRIGO_SHIFT) - extra_area;
 341              		.loc 1 136 91 view .LVU101
 342 00f0 1FFA8BFB 		uxth	fp, fp
 135:Drivers/lvgl/src/draw/lv_draw_arc.c ****                                 lv_trigo_sin(start_angle + 90)) * rin) >> LV_TRIGO_SHIFT) - extra_a
 343              		.loc 1 135 22 view .LVU102
 344 00f4 ADB2     		uxth	r5, r5
 136:Drivers/lvgl/src/draw/lv_draw_arc.c ****         area->y1 = y + ((lv_trigo_sin(start_angle) * rout) >> LV_TRIGO_SHIFT) - extra_area;
 345              		.loc 1 136 91 view .LVU103
 346 00f6 A5EB0B01 		sub	r1, r5, fp
 136:Drivers/lvgl/src/draw/lv_draw_arc.c ****         area->y1 = y + ((lv_trigo_sin(start_angle) * rout) >> LV_TRIGO_SHIFT) - extra_area;
 347              		.loc 1 136 65 view .LVU104
 348 00fa 00FB09F2 		mul	r2, r0, r9
 136:Drivers/lvgl/src/draw/lv_draw_arc.c ****         area->y1 = y + ((lv_trigo_sin(start_angle) * rout) >> LV_TRIGO_SHIFT) - extra_area;
 349              		.loc 1 136 91 view .LVU105
 350 00fe 01EBE232 		add	r2, r1, r2, asr #15
 137:Drivers/lvgl/src/draw/lv_draw_arc.c ****         area->x2 = x + rout + extra_area;
 351              		.loc 1 137 26 view .LVU106
 352 0102 30B2     		sxth	r0, r6
 135:Drivers/lvgl/src/draw/lv_draw_arc.c ****                                 lv_trigo_sin(start_angle + 90)) * rin) >> LV_TRIGO_SHIFT) - extra_a
 353              		.loc 1 135 18 view .LVU107
 354 0104 AAF80020 		strh	r2, [r10]	@ movhi
 137:Drivers/lvgl/src/draw/lv_draw_arc.c ****         area->x2 = x + rout + extra_area;
 355              		.loc 1 137 9 is_stmt 1 view .LVU108
 137:Drivers/lvgl/src/draw/lv_draw_arc.c ****         area->x2 = x + rout + extra_area;
 356              		.loc 1 137 26 is_stmt 0 view .LVU109
 357 0108 FFF7FEFF 		bl	lv_trigo_sin
 358              	.LVL25:
 137:Drivers/lvgl/src/draw/lv_draw_arc.c ****         area->x2 = x + rout + extra_area;
 359              		.loc 1 137 52 view .LVU110
 360 010c 009E     		ldr	r6, [sp]
 361              	.LVL26:
 137:Drivers/lvgl/src/draw/lv_draw_arc.c ****         area->x2 = x + rout + extra_area;
 362              		.loc 1 137 22 view .LVU111
 363 010e A4B2     		uxth	r4, r4
 137:Drivers/lvgl/src/draw/lv_draw_arc.c ****         area->x2 = x + rout + extra_area;
 364              		.loc 1 137 52 view .LVU112
 365 0110 00FB06F1 		mul	r1, r0, r6
 137:Drivers/lvgl/src/draw/lv_draw_arc.c ****         area->x2 = x + rout + extra_area;
 366              		.loc 1 137 79 view .LVU113
 367 0114 A4EB0B02 		sub	r2, r4, fp
 138:Drivers/lvgl/src/draw/lv_draw_arc.c ****         area->y2 = y + ((lv_trigo_sin(end_angle) * rout) >> LV_TRIGO_SHIFT) + extra_area;
 368              		.loc 1 138 22 view .LVU114
 369 0118 3D44     		add	r5, r5, r7
 138:Drivers/lvgl/src/draw/lv_draw_arc.c ****         area->y2 = y + ((lv_trigo_sin(end_angle) * rout) >> LV_TRIGO_SHIFT) + extra_area;
 370              		.loc 1 138 29 view .LVU115
 371 011a 5D44     		add	r5, r5, fp
ARM GAS  /var/folders/0z/tsy30v1j4xl4_7kw94k978ww0000gn/T//cclLgmxf.s 			page 11


 137:Drivers/lvgl/src/draw/lv_draw_arc.c ****         area->x2 = x + rout + extra_area;
 372              		.loc 1 137 79 view .LVU116
 373 011c 02EBE132 		add	r2, r2, r1, asr #15
 138:Drivers/lvgl/src/draw/lv_draw_arc.c ****         area->y2 = y + ((lv_trigo_sin(end_angle) * rout) >> LV_TRIGO_SHIFT) + extra_area;
 374              		.loc 1 138 18 view .LVU117
 375 0120 AAF80450 		strh	r5, [r10, #4]	@ movhi
 139:Drivers/lvgl/src/draw/lv_draw_arc.c **** 
 376              		.loc 1 139 26 view .LVU118
 377 0124 0FFA88F0 		sxth	r0, r8
 137:Drivers/lvgl/src/draw/lv_draw_arc.c ****         area->x2 = x + rout + extra_area;
 378              		.loc 1 137 18 view .LVU119
 379 0128 AAF80220 		strh	r2, [r10, #2]	@ movhi
 138:Drivers/lvgl/src/draw/lv_draw_arc.c ****         area->y2 = y + ((lv_trigo_sin(end_angle) * rout) >> LV_TRIGO_SHIFT) + extra_area;
 380              		.loc 1 138 9 is_stmt 1 view .LVU120
 139:Drivers/lvgl/src/draw/lv_draw_arc.c **** 
 381              		.loc 1 139 9 view .LVU121
 139:Drivers/lvgl/src/draw/lv_draw_arc.c **** 
 382              		.loc 1 139 26 is_stmt 0 view .LVU122
 383 012c FFF7FEFF 		bl	lv_trigo_sin
 384              	.LVL27:
 139:Drivers/lvgl/src/draw/lv_draw_arc.c **** 
 385              		.loc 1 139 77 view .LVU123
 386 0130 A344     		add	fp, fp, r4
 387              	.LVL28:
 139:Drivers/lvgl/src/draw/lv_draw_arc.c **** 
 388              		.loc 1 139 50 view .LVU124
 389 0132 06FB00F0 		mul	r0, r6, r0
 139:Drivers/lvgl/src/draw/lv_draw_arc.c **** 
 390              		.loc 1 139 77 view .LVU125
 391 0136 0BEBE03B 		add	fp, fp, r0, asr #15
 139:Drivers/lvgl/src/draw/lv_draw_arc.c **** 
 392              		.loc 1 139 18 view .LVU126
 393 013a AAF806B0 		strh	fp, [r10, #6]	@ movhi
 394 013e AFE7     		b	.L10
 395              	.LVL29:
 396              	.L52:
  83:Drivers/lvgl/src/draw/lv_draw_arc.c ****         if(start_quarter == 0) {
 397              		.loc 1 83 37 discriminator 1 view .LVU127
 398 0140 4645     		cmp	r6, r8
 399 0142 99D8     		bhi	.L23
  84:Drivers/lvgl/src/draw/lv_draw_arc.c ****             area->y1 = y + ((lv_trigo_sin(start_angle) * rin) >> LV_TRIGO_SHIFT) - extra_area;
 400              		.loc 1 84 9 is_stmt 1 view .LVU128
 401 0144 032A     		cmp	r2, #3
 402 0146 ABD8     		bhi	.L10
 403 0148 DFE812F0 		tbh	[pc, r2, lsl #1]
 404              	.LVL30:
 405              	.L24:
 406 014c 4301     		.2byte	(.L27-.L24)/2
 407 014e 0C01     		.2byte	(.L26-.L24)/2
 408 0150 7901     		.2byte	(.L25-.L24)/2
 409 0152 0600     		.2byte	(.L18-.L24)/2
 410              		.p2align 1
 411              	.L47:
  83:Drivers/lvgl/src/draw/lv_draw_arc.c ****         if(start_quarter == 0) {
 412              		.loc 1 83 37 is_stmt 0 view .LVU129
 413 0154 4645     		cmp	r6, r8
 414 0156 95D8     		bhi	.L19
ARM GAS  /var/folders/0z/tsy30v1j4xl4_7kw94k978ww0000gn/T//cclLgmxf.s 			page 12


 415              	.L18:
 106:Drivers/lvgl/src/draw/lv_draw_arc.c ****             area->y1 = y + ((lv_trigo_sin(start_angle) * rout) >> LV_TRIGO_SHIFT) - extra_area;
 416              		.loc 1 106 13 is_stmt 1 view .LVU130
 106:Drivers/lvgl/src/draw/lv_draw_arc.c ****             area->y1 = y + ((lv_trigo_sin(start_angle) * rout) >> LV_TRIGO_SHIFT) - extra_area;
 417              		.loc 1 106 55 is_stmt 0 view .LVU131
 418 0158 06F15A00 		add	r0, r6, #90
 106:Drivers/lvgl/src/draw/lv_draw_arc.c ****             area->y1 = y + ((lv_trigo_sin(start_angle) * rout) >> LV_TRIGO_SHIFT) - extra_area;
 419              		.loc 1 106 30 view .LVU132
 420 015c 00B2     		sxth	r0, r0
 421 015e FFF7FEFF 		bl	lv_trigo_sin
 422              	.LVL31:
 106:Drivers/lvgl/src/draw/lv_draw_arc.c ****             area->y1 = y + ((lv_trigo_sin(start_angle) * rout) >> LV_TRIGO_SHIFT) - extra_area;
 423              		.loc 1 106 87 view .LVU133
 424 0162 1FFA8BFB 		uxth	fp, fp
 106:Drivers/lvgl/src/draw/lv_draw_arc.c ****             area->y1 = y + ((lv_trigo_sin(start_angle) * rout) >> LV_TRIGO_SHIFT) - extra_area;
 425              		.loc 1 106 26 view .LVU134
 426 0166 ADB2     		uxth	r5, r5
 106:Drivers/lvgl/src/draw/lv_draw_arc.c ****             area->y1 = y + ((lv_trigo_sin(start_angle) * rout) >> LV_TRIGO_SHIFT) - extra_area;
 427              		.loc 1 106 61 view .LVU135
 428 0168 00FB09F1 		mul	r1, r0, r9
 106:Drivers/lvgl/src/draw/lv_draw_arc.c ****             area->y1 = y + ((lv_trigo_sin(start_angle) * rout) >> LV_TRIGO_SHIFT) - extra_area;
 429              		.loc 1 106 87 view .LVU136
 430 016c A5EB0B02 		sub	r2, r5, fp
 431 0170 02EBE132 		add	r2, r2, r1, asr #15
 107:Drivers/lvgl/src/draw/lv_draw_arc.c **** 
 432              		.loc 1 107 30 view .LVU137
 433 0174 30B2     		sxth	r0, r6
 106:Drivers/lvgl/src/draw/lv_draw_arc.c ****             area->y1 = y + ((lv_trigo_sin(start_angle) * rout) >> LV_TRIGO_SHIFT) - extra_area;
 434              		.loc 1 106 22 view .LVU138
 435 0176 AAF80020 		strh	r2, [r10]	@ movhi
 107:Drivers/lvgl/src/draw/lv_draw_arc.c **** 
 436              		.loc 1 107 13 is_stmt 1 view .LVU139
 107:Drivers/lvgl/src/draw/lv_draw_arc.c **** 
 437              		.loc 1 107 30 is_stmt 0 view .LVU140
 438 017a FFF7FEFF 		bl	lv_trigo_sin
 439              	.LVL32:
 107:Drivers/lvgl/src/draw/lv_draw_arc.c **** 
 440              		.loc 1 107 56 view .LVU141
 441 017e 009E     		ldr	r6, [sp]
 442              	.LVL33:
 107:Drivers/lvgl/src/draw/lv_draw_arc.c **** 
 443              		.loc 1 107 26 view .LVU142
 444 0180 A4B2     		uxth	r4, r4
 107:Drivers/lvgl/src/draw/lv_draw_arc.c **** 
 445              		.loc 1 107 56 view .LVU143
 446 0182 06FB00F0 		mul	r0, r6, r0
 107:Drivers/lvgl/src/draw/lv_draw_arc.c **** 
 447              		.loc 1 107 83 view .LVU144
 448 0186 A4EB0B02 		sub	r2, r4, fp
 449 018a 02EBE032 		add	r2, r2, r0, asr #15
 109:Drivers/lvgl/src/draw/lv_draw_arc.c ****             area->y2 = y + ((lv_trigo_sin(end_angle) * rin) >> LV_TRIGO_SHIFT) + extra_area;
 450              		.loc 1 109 53 view .LVU145
 451 018e 08F15A00 		add	r0, r8, #90
 107:Drivers/lvgl/src/draw/lv_draw_arc.c **** 
 452              		.loc 1 107 22 view .LVU146
 453 0192 AAF80220 		strh	r2, [r10, #2]	@ movhi
 109:Drivers/lvgl/src/draw/lv_draw_arc.c ****             area->y2 = y + ((lv_trigo_sin(end_angle) * rin) >> LV_TRIGO_SHIFT) + extra_area;
ARM GAS  /var/folders/0z/tsy30v1j4xl4_7kw94k978ww0000gn/T//cclLgmxf.s 			page 13


 454              		.loc 1 109 13 is_stmt 1 view .LVU147
 109:Drivers/lvgl/src/draw/lv_draw_arc.c ****             area->y2 = y + ((lv_trigo_sin(end_angle) * rin) >> LV_TRIGO_SHIFT) + extra_area;
 455              		.loc 1 109 30 is_stmt 0 view .LVU148
 456 0196 00B2     		sxth	r0, r0
 457 0198 FFF7FEFF 		bl	lv_trigo_sin
 458              	.LVL34:
 109:Drivers/lvgl/src/draw/lv_draw_arc.c ****             area->y2 = y + ((lv_trigo_sin(end_angle) * rin) >> LV_TRIGO_SHIFT) + extra_area;
 459              		.loc 1 109 86 view .LVU149
 460 019c 5D44     		add	r5, r5, fp
 109:Drivers/lvgl/src/draw/lv_draw_arc.c ****             area->y2 = y + ((lv_trigo_sin(end_angle) * rin) >> LV_TRIGO_SHIFT) + extra_area;
 461              		.loc 1 109 59 view .LVU150
 462 019e 06FB00F0 		mul	r0, r6, r0
 109:Drivers/lvgl/src/draw/lv_draw_arc.c ****             area->y2 = y + ((lv_trigo_sin(end_angle) * rin) >> LV_TRIGO_SHIFT) + extra_area;
 463              		.loc 1 109 86 view .LVU151
 464 01a2 05EBE035 		add	r5, r5, r0, asr #15
 109:Drivers/lvgl/src/draw/lv_draw_arc.c ****             area->y2 = y + ((lv_trigo_sin(end_angle) * rin) >> LV_TRIGO_SHIFT) + extra_area;
 465              		.loc 1 109 22 view .LVU152
 466 01a6 AAF80450 		strh	r5, [r10, #4]	@ movhi
 110:Drivers/lvgl/src/draw/lv_draw_arc.c ****         }
 467              		.loc 1 110 13 is_stmt 1 view .LVU153
 110:Drivers/lvgl/src/draw/lv_draw_arc.c ****         }
 468              		.loc 1 110 30 is_stmt 0 view .LVU154
 469 01aa 0FFA88F0 		sxth	r0, r8
 470 01ae FFF7FEFF 		bl	lv_trigo_sin
 471              	.LVL35:
 110:Drivers/lvgl/src/draw/lv_draw_arc.c ****         }
 472              		.loc 1 110 80 view .LVU155
 473 01b2 A344     		add	fp, fp, r4
 474              	.LVL36:
 110:Drivers/lvgl/src/draw/lv_draw_arc.c ****         }
 475              		.loc 1 110 54 view .LVU156
 476 01b4 09FB00F0 		mul	r0, r9, r0
 110:Drivers/lvgl/src/draw/lv_draw_arc.c ****         }
 477              		.loc 1 110 80 view .LVU157
 478 01b8 0BEBE03B 		add	fp, fp, r0, asr #15
 110:Drivers/lvgl/src/draw/lv_draw_arc.c ****         }
 479              		.loc 1 110 22 view .LVU158
 480 01bc AAF806B0 		strh	fp, [r10, #6]	@ movhi
 481 01c0 6EE7     		b	.L10
 482              	.LVL37:
 483              	.L54:
 114:Drivers/lvgl/src/draw/lv_draw_arc.c ****         area->y1 = y + ((LV_MIN(lv_trigo_sin(end_angle),
 484              		.loc 1 114 9 is_stmt 1 view .LVU159
 114:Drivers/lvgl/src/draw/lv_draw_arc.c ****         area->y1 = y + ((LV_MIN(lv_trigo_sin(end_angle),
 485              		.loc 1 114 49 is_stmt 0 view .LVU160
 486 01c2 08F15A00 		add	r0, r8, #90
 114:Drivers/lvgl/src/draw/lv_draw_arc.c ****         area->y1 = y + ((LV_MIN(lv_trigo_sin(end_angle),
 487              		.loc 1 114 26 view .LVU161
 488 01c6 00B2     		sxth	r0, r0
 489 01c8 FFF7FEFF 		bl	lv_trigo_sin
 490              	.LVL38:
 114:Drivers/lvgl/src/draw/lv_draw_arc.c ****         area->y1 = y + ((LV_MIN(lv_trigo_sin(end_angle),
 491              		.loc 1 114 55 view .LVU162
 492 01cc 009B     		ldr	r3, [sp]
 114:Drivers/lvgl/src/draw/lv_draw_arc.c ****         area->y1 = y + ((LV_MIN(lv_trigo_sin(end_angle),
 493              		.loc 1 114 82 view .LVU163
 494 01ce 1FFA8BFB 		uxth	fp, fp
ARM GAS  /var/folders/0z/tsy30v1j4xl4_7kw94k978ww0000gn/T//cclLgmxf.s 			page 14


 114:Drivers/lvgl/src/draw/lv_draw_arc.c ****         area->y1 = y + ((LV_MIN(lv_trigo_sin(end_angle),
 495              		.loc 1 114 22 view .LVU164
 496 01d2 ADB2     		uxth	r5, r5
 114:Drivers/lvgl/src/draw/lv_draw_arc.c ****         area->y1 = y + ((LV_MIN(lv_trigo_sin(end_angle),
 497              		.loc 1 114 55 view .LVU165
 498 01d4 03FB00F0 		mul	r0, r3, r0
 114:Drivers/lvgl/src/draw/lv_draw_arc.c ****         area->y1 = y + ((LV_MIN(lv_trigo_sin(end_angle),
 499              		.loc 1 114 82 view .LVU166
 500 01d8 A5EB0B02 		sub	r2, r5, fp
 501 01dc 02EBE032 		add	r2, r2, r0, asr #15
 115:Drivers/lvgl/src/draw/lv_draw_arc.c ****                                 lv_trigo_sin(start_angle))  * rin) >> LV_TRIGO_SHIFT) - extra_area;
 502              		.loc 1 115 26 view .LVU167
 503 01e0 0FFA88F8 		sxth	r8, r8
 504              	.LVL39:
 114:Drivers/lvgl/src/draw/lv_draw_arc.c ****         area->y1 = y + ((LV_MIN(lv_trigo_sin(end_angle),
 505              		.loc 1 114 18 view .LVU168
 506 01e4 AAF80020 		strh	r2, [r10]	@ movhi
 115:Drivers/lvgl/src/draw/lv_draw_arc.c ****                                 lv_trigo_sin(start_angle))  * rin) >> LV_TRIGO_SHIFT) - extra_area;
 507              		.loc 1 115 9 is_stmt 1 view .LVU169
 115:Drivers/lvgl/src/draw/lv_draw_arc.c ****                                 lv_trigo_sin(start_angle))  * rin) >> LV_TRIGO_SHIFT) - extra_area;
 508              		.loc 1 115 26 is_stmt 0 view .LVU170
 509 01e8 4046     		mov	r0, r8
 510 01ea FFF7FEFF 		bl	lv_trigo_sin
 511              	.LVL40:
 512 01ee 32B2     		sxth	r2, r6
 513 01f0 0290     		str	r0, [sp, #8]
 514 01f2 1046     		mov	r0, r2
 515 01f4 0192     		str	r2, [sp, #4]
 516 01f6 FFF7FEFF 		bl	lv_trigo_sin
 517              	.LVL41:
 518 01fa 029B     		ldr	r3, [sp, #8]
 519 01fc 019A     		ldr	r2, [sp, #4]
 520 01fe 8342     		cmp	r3, r0
 521 0200 ACBF     		ite	ge
 522 0202 1046     		movge	r0, r2
 523 0204 4046     		movlt	r0, r8
 524 0206 FFF7FEFF 		bl	lv_trigo_sin
 525              	.LVL42:
 115:Drivers/lvgl/src/draw/lv_draw_arc.c ****                                 lv_trigo_sin(start_angle))  * rin) >> LV_TRIGO_SHIFT) - extra_area;
 526              		.loc 1 115 22 view .LVU171
 527 020a A4B2     		uxth	r4, r4
 116:Drivers/lvgl/src/draw/lv_draw_arc.c ****         area->x2 = x + ((lv_trigo_sin(start_angle + 90) * rout) >> LV_TRIGO_SHIFT) + extra_area;
 528              		.loc 1 116 87 view .LVU172
 529 020c A4EB0B01 		sub	r1, r4, fp
 116:Drivers/lvgl/src/draw/lv_draw_arc.c ****         area->x2 = x + ((lv_trigo_sin(start_angle + 90) * rout) >> LV_TRIGO_SHIFT) + extra_area;
 530              		.loc 1 116 61 view .LVU173
 531 0210 00FB09F2 		mul	r2, r0, r9
 116:Drivers/lvgl/src/draw/lv_draw_arc.c ****         area->x2 = x + ((lv_trigo_sin(start_angle + 90) * rout) >> LV_TRIGO_SHIFT) + extra_area;
 532              		.loc 1 116 87 view .LVU174
 533 0214 01EBE232 		add	r2, r1, r2, asr #15
 117:Drivers/lvgl/src/draw/lv_draw_arc.c ****         area->y2 = y + rout + extra_area;
 534              		.loc 1 117 51 view .LVU175
 535 0218 06F15A00 		add	r0, r6, #90
 117:Drivers/lvgl/src/draw/lv_draw_arc.c ****         area->y2 = y + rout + extra_area;
 536              		.loc 1 117 26 view .LVU176
 537 021c 00B2     		sxth	r0, r0
 115:Drivers/lvgl/src/draw/lv_draw_arc.c ****                                 lv_trigo_sin(start_angle))  * rin) >> LV_TRIGO_SHIFT) - extra_area;
ARM GAS  /var/folders/0z/tsy30v1j4xl4_7kw94k978ww0000gn/T//cclLgmxf.s 			page 15


 538              		.loc 1 115 18 view .LVU177
 539 021e AAF80220 		strh	r2, [r10, #2]	@ movhi
 117:Drivers/lvgl/src/draw/lv_draw_arc.c ****         area->y2 = y + rout + extra_area;
 540              		.loc 1 117 9 is_stmt 1 view .LVU178
 117:Drivers/lvgl/src/draw/lv_draw_arc.c ****         area->y2 = y + rout + extra_area;
 541              		.loc 1 117 26 is_stmt 0 view .LVU179
 542 0222 FFF7FEFF 		bl	lv_trigo_sin
 543              	.LVL43:
 117:Drivers/lvgl/src/draw/lv_draw_arc.c ****         area->y2 = y + rout + extra_area;
 544              		.loc 1 117 57 view .LVU180
 545 0226 009B     		ldr	r3, [sp]
 117:Drivers/lvgl/src/draw/lv_draw_arc.c ****         area->y2 = y + rout + extra_area;
 546              		.loc 1 117 84 view .LVU181
 547 0228 5D44     		add	r5, r5, fp
 117:Drivers/lvgl/src/draw/lv_draw_arc.c ****         area->y2 = y + rout + extra_area;
 548              		.loc 1 117 57 view .LVU182
 549 022a 03FB00F0 		mul	r0, r3, r0
 118:Drivers/lvgl/src/draw/lv_draw_arc.c ****     }
 550              		.loc 1 118 22 view .LVU183
 551 022e 3C44     		add	r4, r4, r7
 117:Drivers/lvgl/src/draw/lv_draw_arc.c ****         area->y2 = y + rout + extra_area;
 552              		.loc 1 117 84 view .LVU184
 553 0230 05EBE035 		add	r5, r5, r0, asr #15
 118:Drivers/lvgl/src/draw/lv_draw_arc.c ****     }
 554              		.loc 1 118 29 view .LVU185
 555 0234 A344     		add	fp, fp, r4
 556              	.LVL44:
 117:Drivers/lvgl/src/draw/lv_draw_arc.c ****         area->y2 = y + rout + extra_area;
 557              		.loc 1 117 18 view .LVU186
 558 0236 AAF80450 		strh	r5, [r10, #4]	@ movhi
 118:Drivers/lvgl/src/draw/lv_draw_arc.c ****     }
 559              		.loc 1 118 9 is_stmt 1 view .LVU187
 118:Drivers/lvgl/src/draw/lv_draw_arc.c ****     }
 560              		.loc 1 118 18 is_stmt 0 view .LVU188
 561 023a AAF806B0 		strh	fp, [r10, #6]	@ movhi
 562 023e 2FE7     		b	.L10
 563              	.LVL45:
 564              	.L51:
  81:Drivers/lvgl/src/draw/lv_draw_arc.c **** 
 565              		.loc 1 81 26 is_stmt 1 view .LVU189
  83:Drivers/lvgl/src/draw/lv_draw_arc.c ****         if(start_quarter == 0) {
 566              		.loc 1 83 5 view .LVU190
  83:Drivers/lvgl/src/draw/lv_draw_arc.c ****         if(start_quarter == 0) {
 567              		.loc 1 83 7 is_stmt 0 view .LVU191
 568 0240 032A     		cmp	r2, #3
 569 0242 87D0     		beq	.L47
 113:Drivers/lvgl/src/draw/lv_draw_arc.c ****         area->x1 = x + ((lv_trigo_sin(end_angle + 90) * rout) >> LV_TRIGO_SHIFT) - extra_area;
 570              		.loc 1 113 10 is_stmt 1 view .LVU192
 113:Drivers/lvgl/src/draw/lv_draw_arc.c ****         area->x1 = x + ((lv_trigo_sin(end_angle + 90) * rout) >> LV_TRIGO_SHIFT) - extra_area;
 571              		.loc 1 113 12 is_stmt 0 view .LVU193
 572 0244 022A     		cmp	r2, #2
 573 0246 7FF41DAF 		bne	.L19
 574              	.LVL46:
 575              	.L40:
 128:Drivers/lvgl/src/draw/lv_draw_arc.c ****         area->y1 = y - rout - extra_area;
 576              		.loc 1 128 9 is_stmt 1 view .LVU194
 128:Drivers/lvgl/src/draw/lv_draw_arc.c ****         area->y1 = y - rout - extra_area;
ARM GAS  /var/folders/0z/tsy30v1j4xl4_7kw94k978ww0000gn/T//cclLgmxf.s 			page 16


 577              		.loc 1 128 51 is_stmt 0 view .LVU195
 578 024a 06F15A00 		add	r0, r6, #90
 128:Drivers/lvgl/src/draw/lv_draw_arc.c ****         area->y1 = y - rout - extra_area;
 579              		.loc 1 128 26 view .LVU196
 580 024e 00B2     		sxth	r0, r0
 581 0250 FFF7FEFF 		bl	lv_trigo_sin
 582              	.LVL47:
 128:Drivers/lvgl/src/draw/lv_draw_arc.c ****         area->y1 = y - rout - extra_area;
 583              		.loc 1 128 57 view .LVU197
 584 0254 009B     		ldr	r3, [sp]
 128:Drivers/lvgl/src/draw/lv_draw_arc.c ****         area->y1 = y - rout - extra_area;
 585              		.loc 1 128 84 view .LVU198
 586 0256 1FFA8BFB 		uxth	fp, fp
 128:Drivers/lvgl/src/draw/lv_draw_arc.c ****         area->y1 = y - rout - extra_area;
 587              		.loc 1 128 22 view .LVU199
 588 025a ADB2     		uxth	r5, r5
 129:Drivers/lvgl/src/draw/lv_draw_arc.c ****         area->x2 = x + ((lv_trigo_sin(end_angle + 90) * rout) >> LV_TRIGO_SHIFT) + extra_area;
 589              		.loc 1 129 22 view .LVU200
 590 025c A4B2     		uxth	r4, r4
 128:Drivers/lvgl/src/draw/lv_draw_arc.c ****         area->y1 = y - rout - extra_area;
 591              		.loc 1 128 57 view .LVU201
 592 025e 03FB00F0 		mul	r0, r3, r0
 128:Drivers/lvgl/src/draw/lv_draw_arc.c ****         area->y1 = y - rout - extra_area;
 593              		.loc 1 128 84 view .LVU202
 594 0262 A5EB0B02 		sub	r2, r5, fp
 129:Drivers/lvgl/src/draw/lv_draw_arc.c ****         area->x2 = x + ((lv_trigo_sin(end_angle + 90) * rout) >> LV_TRIGO_SHIFT) + extra_area;
 595              		.loc 1 129 22 view .LVU203
 596 0266 E71B     		subs	r7, r4, r7
 128:Drivers/lvgl/src/draw/lv_draw_arc.c ****         area->y1 = y - rout - extra_area;
 597              		.loc 1 128 84 view .LVU204
 598 0268 02EBE032 		add	r2, r2, r0, asr #15
 129:Drivers/lvgl/src/draw/lv_draw_arc.c ****         area->x2 = x + ((lv_trigo_sin(end_angle + 90) * rout) >> LV_TRIGO_SHIFT) + extra_area;
 599              		.loc 1 129 29 view .LVU205
 600 026c A7EB0B07 		sub	r7, r7, fp
 130:Drivers/lvgl/src/draw/lv_draw_arc.c ****         area->y2 = y + (LV_MAX(lv_trigo_sin(end_angle) * rin,
 601              		.loc 1 130 49 view .LVU206
 602 0270 08F15A00 		add	r0, r8, #90
 128:Drivers/lvgl/src/draw/lv_draw_arc.c ****         area->y1 = y - rout - extra_area;
 603              		.loc 1 128 18 view .LVU207
 604 0274 AAF80020 		strh	r2, [r10]	@ movhi
 129:Drivers/lvgl/src/draw/lv_draw_arc.c ****         area->x2 = x + ((lv_trigo_sin(end_angle + 90) * rout) >> LV_TRIGO_SHIFT) + extra_area;
 605              		.loc 1 129 9 is_stmt 1 view .LVU208
 130:Drivers/lvgl/src/draw/lv_draw_arc.c ****         area->y2 = y + (LV_MAX(lv_trigo_sin(end_angle) * rin,
 606              		.loc 1 130 9 view .LVU209
 129:Drivers/lvgl/src/draw/lv_draw_arc.c ****         area->x2 = x + ((lv_trigo_sin(end_angle + 90) * rout) >> LV_TRIGO_SHIFT) + extra_area;
 607              		.loc 1 129 18 is_stmt 0 view .LVU210
 608 0278 AAF80270 		strh	r7, [r10, #2]	@ movhi
 130:Drivers/lvgl/src/draw/lv_draw_arc.c ****         area->y2 = y + (LV_MAX(lv_trigo_sin(end_angle) * rin,
 609              		.loc 1 130 26 view .LVU211
 610 027c 00B2     		sxth	r0, r0
 611 027e FFF7FEFF 		bl	lv_trigo_sin
 612              	.LVL48:
 130:Drivers/lvgl/src/draw/lv_draw_arc.c ****         area->y2 = y + (LV_MAX(lv_trigo_sin(end_angle) * rin,
 613              		.loc 1 130 55 view .LVU212
 614 0282 009B     		ldr	r3, [sp]
 130:Drivers/lvgl/src/draw/lv_draw_arc.c ****         area->y2 = y + (LV_MAX(lv_trigo_sin(end_angle) * rin,
 615              		.loc 1 130 82 view .LVU213
ARM GAS  /var/folders/0z/tsy30v1j4xl4_7kw94k978ww0000gn/T//cclLgmxf.s 			page 17


 616 0284 5D44     		add	r5, r5, fp
 130:Drivers/lvgl/src/draw/lv_draw_arc.c ****         area->y2 = y + (LV_MAX(lv_trigo_sin(end_angle) * rin,
 617              		.loc 1 130 55 view .LVU214
 618 0286 03FB00F0 		mul	r0, r3, r0
 130:Drivers/lvgl/src/draw/lv_draw_arc.c ****         area->y2 = y + (LV_MAX(lv_trigo_sin(end_angle) * rin,
 619              		.loc 1 130 82 view .LVU215
 620 028a 05EBE035 		add	r5, r5, r0, asr #15
 131:Drivers/lvgl/src/draw/lv_draw_arc.c ****                                lv_trigo_sin(start_angle) * rin) >> LV_TRIGO_SHIFT) + extra_area;
 621              		.loc 1 131 25 view .LVU216
 622 028e 0FFA88F8 		sxth	r8, r8
 130:Drivers/lvgl/src/draw/lv_draw_arc.c ****         area->y2 = y + (LV_MAX(lv_trigo_sin(end_angle) * rin,
 623              		.loc 1 130 18 view .LVU217
 624 0292 AAF80450 		strh	r5, [r10, #4]	@ movhi
 131:Drivers/lvgl/src/draw/lv_draw_arc.c ****                                lv_trigo_sin(start_angle) * rin) >> LV_TRIGO_SHIFT) + extra_area;
 625              		.loc 1 131 9 is_stmt 1 view .LVU218
 131:Drivers/lvgl/src/draw/lv_draw_arc.c ****                                lv_trigo_sin(start_angle) * rin) >> LV_TRIGO_SHIFT) + extra_area;
 626              		.loc 1 131 25 is_stmt 0 view .LVU219
 627 0296 4046     		mov	r0, r8
 628 0298 FFF7FEFF 		bl	lv_trigo_sin
 629              	.LVL49:
 630 029c 36B2     		sxth	r6, r6
 631              	.LVL50:
 131:Drivers/lvgl/src/draw/lv_draw_arc.c ****                                lv_trigo_sin(start_angle) * rin) >> LV_TRIGO_SHIFT) + extra_area;
 632              		.loc 1 131 25 view .LVU220
 633 029e 00FB09F5 		mul	r5, r0, r9
 634 02a2 3046     		mov	r0, r6
 635 02a4 FFF7FEFF 		bl	lv_trigo_sin
 636              	.LVL51:
 637 02a8 09FB00F0 		mul	r0, r9, r0
 131:Drivers/lvgl/src/draw/lv_draw_arc.c ****                                lv_trigo_sin(start_angle) * rin) >> LV_TRIGO_SHIFT) + extra_area;
 638              		.loc 1 131 22 view .LVU221
 639 02ac 8542     		cmp	r5, r0
 131:Drivers/lvgl/src/draw/lv_draw_arc.c ****                                lv_trigo_sin(start_angle) * rin) >> LV_TRIGO_SHIFT) + extra_area;
 640              		.loc 1 131 25 view .LVU222
 641 02ae CCBF     		ite	gt
 642 02b0 4046     		movgt	r0, r8
 643 02b2 3046     		movle	r0, r6
 644 02b4 FFF7FEFF 		bl	lv_trigo_sin
 645              	.LVL52:
 646 02b8 09FB00F2 		mul	r2, r9, r0
 131:Drivers/lvgl/src/draw/lv_draw_arc.c ****                                lv_trigo_sin(start_angle) * rin) >> LV_TRIGO_SHIFT) + extra_area;
 647              		.loc 1 131 22 view .LVU223
 648 02bc C2F3CF32 		ubfx	r2, r2, #15, #16
 132:Drivers/lvgl/src/draw/lv_draw_arc.c ****     }
 649              		.loc 1 132 84 view .LVU224
 650 02c0 A344     		add	fp, fp, r4
 651              	.LVL53:
 132:Drivers/lvgl/src/draw/lv_draw_arc.c ****     }
 652              		.loc 1 132 84 view .LVU225
 653 02c2 5A44     		add	r2, r2, fp
 131:Drivers/lvgl/src/draw/lv_draw_arc.c ****                                lv_trigo_sin(start_angle) * rin) >> LV_TRIGO_SHIFT) + extra_area;
 654              		.loc 1 131 18 view .LVU226
 655 02c4 AAF80620 		strh	r2, [r10, #6]	@ movhi
 656 02c8 EAE6     		b	.L10
 657              	.LVL54:
 658              	.L53:
 120:Drivers/lvgl/src/draw/lv_draw_arc.c ****         area->x1 = x - rout - extra_area;
ARM GAS  /var/folders/0z/tsy30v1j4xl4_7kw94k978ww0000gn/T//cclLgmxf.s 			page 18


 659              		.loc 1 120 10 is_stmt 1 view .LVU227
 120:Drivers/lvgl/src/draw/lv_draw_arc.c ****         area->x1 = x - rout - extra_area;
 660              		.loc 1 120 12 is_stmt 0 view .LVU228
 661 02ca 012A     		cmp	r2, #1
 662 02cc 40D1     		bne	.L55
 120:Drivers/lvgl/src/draw/lv_draw_arc.c ****         area->x1 = x - rout - extra_area;
 663              		.loc 1 120 32 discriminator 1 view .LVU229
 664 02ce 0229     		cmp	r1, #2
 665 02d0 7FF4D8AE 		bne	.L19
 121:Drivers/lvgl/src/draw/lv_draw_arc.c ****         area->y1 = y + ((lv_trigo_sin(end_angle) * rout) >> LV_TRIGO_SHIFT) - extra_area;
 666              		.loc 1 121 9 is_stmt 1 view .LVU230
 121:Drivers/lvgl/src/draw/lv_draw_arc.c ****         area->y1 = y + ((lv_trigo_sin(end_angle) * rout) >> LV_TRIGO_SHIFT) - extra_area;
 667              		.loc 1 121 22 is_stmt 0 view .LVU231
 668 02d4 ADB2     		uxth	r5, r5
 121:Drivers/lvgl/src/draw/lv_draw_arc.c ****         area->y1 = y + ((lv_trigo_sin(end_angle) * rout) >> LV_TRIGO_SHIFT) - extra_area;
 669              		.loc 1 121 29 view .LVU232
 670 02d6 1FFA8BFB 		uxth	fp, fp
 121:Drivers/lvgl/src/draw/lv_draw_arc.c ****         area->y1 = y + ((lv_trigo_sin(end_angle) * rout) >> LV_TRIGO_SHIFT) - extra_area;
 671              		.loc 1 121 22 view .LVU233
 672 02da EF1B     		subs	r7, r5, r7
 121:Drivers/lvgl/src/draw/lv_draw_arc.c ****         area->y1 = y + ((lv_trigo_sin(end_angle) * rout) >> LV_TRIGO_SHIFT) - extra_area;
 673              		.loc 1 121 29 view .LVU234
 674 02dc A7EB0B07 		sub	r7, r7, fp
 121:Drivers/lvgl/src/draw/lv_draw_arc.c ****         area->y1 = y + ((lv_trigo_sin(end_angle) * rout) >> LV_TRIGO_SHIFT) - extra_area;
 675              		.loc 1 121 18 view .LVU235
 676 02e0 AAF80070 		strh	r7, [r10]	@ movhi
 122:Drivers/lvgl/src/draw/lv_draw_arc.c ****         area->x2 = x + ((LV_MAX(lv_trigo_sin(start_angle + 90),
 677              		.loc 1 122 9 is_stmt 1 view .LVU236
 122:Drivers/lvgl/src/draw/lv_draw_arc.c ****         area->x2 = x + ((LV_MAX(lv_trigo_sin(start_angle + 90),
 678              		.loc 1 122 26 is_stmt 0 view .LVU237
 679 02e4 0FFA88F0 		sxth	r0, r8
 680 02e8 FFF7FEFF 		bl	lv_trigo_sin
 681              	.LVL55:
 122:Drivers/lvgl/src/draw/lv_draw_arc.c ****         area->x2 = x + ((LV_MAX(lv_trigo_sin(start_angle + 90),
 682              		.loc 1 122 50 view .LVU238
 683 02ec 009B     		ldr	r3, [sp]
 122:Drivers/lvgl/src/draw/lv_draw_arc.c ****         area->x2 = x + ((LV_MAX(lv_trigo_sin(start_angle + 90),
 684              		.loc 1 122 22 view .LVU239
 685 02ee A4B2     		uxth	r4, r4
 122:Drivers/lvgl/src/draw/lv_draw_arc.c ****         area->x2 = x + ((LV_MAX(lv_trigo_sin(start_angle + 90),
 686              		.loc 1 122 50 view .LVU240
 687 02f0 03FB00F0 		mul	r0, r3, r0
 122:Drivers/lvgl/src/draw/lv_draw_arc.c ****         area->x2 = x + ((LV_MAX(lv_trigo_sin(start_angle + 90),
 688              		.loc 1 122 77 view .LVU241
 689 02f4 A4EB0B02 		sub	r2, r4, fp
 123:Drivers/lvgl/src/draw/lv_draw_arc.c ****                                 lv_trigo_sin(end_angle + 90)) * rin) >> LV_TRIGO_SHIFT) + extra_are
 690              		.loc 1 123 26 view .LVU242
 691 02f8 06F15A07 		add	r7, r6, #90
 122:Drivers/lvgl/src/draw/lv_draw_arc.c ****         area->x2 = x + ((LV_MAX(lv_trigo_sin(start_angle + 90),
 692              		.loc 1 122 77 view .LVU243
 693 02fc 02EBE032 		add	r2, r2, r0, asr #15
 123:Drivers/lvgl/src/draw/lv_draw_arc.c ****                                 lv_trigo_sin(end_angle + 90)) * rin) >> LV_TRIGO_SHIFT) + extra_are
 694              		.loc 1 123 26 view .LVU244
 695 0300 3FB2     		sxth	r7, r7
 122:Drivers/lvgl/src/draw/lv_draw_arc.c ****         area->x2 = x + ((LV_MAX(lv_trigo_sin(start_angle + 90),
 696              		.loc 1 122 18 view .LVU245
 697 0302 AAF80220 		strh	r2, [r10, #2]	@ movhi
ARM GAS  /var/folders/0z/tsy30v1j4xl4_7kw94k978ww0000gn/T//cclLgmxf.s 			page 19


 123:Drivers/lvgl/src/draw/lv_draw_arc.c ****                                 lv_trigo_sin(end_angle + 90)) * rin) >> LV_TRIGO_SHIFT) + extra_are
 698              		.loc 1 123 9 is_stmt 1 view .LVU246
 123:Drivers/lvgl/src/draw/lv_draw_arc.c ****                                 lv_trigo_sin(end_angle + 90)) * rin) >> LV_TRIGO_SHIFT) + extra_are
 699              		.loc 1 123 26 is_stmt 0 view .LVU247
 700 0306 3846     		mov	r0, r7
 701 0308 FFF7FEFF 		bl	lv_trigo_sin
 702              	.LVL56:
 703 030c 08F15A08 		add	r8, r8, #90
 704              	.LVL57:
 123:Drivers/lvgl/src/draw/lv_draw_arc.c ****                                 lv_trigo_sin(end_angle + 90)) * rin) >> LV_TRIGO_SHIFT) + extra_are
 705              		.loc 1 123 26 view .LVU248
 706 0310 0FFA88F8 		sxth	r8, r8
 707              	.LVL58:
 123:Drivers/lvgl/src/draw/lv_draw_arc.c ****                                 lv_trigo_sin(end_angle + 90)) * rin) >> LV_TRIGO_SHIFT) + extra_are
 708              		.loc 1 123 26 view .LVU249
 709 0314 0190     		str	r0, [sp, #4]
 710 0316 4046     		mov	r0, r8
 711 0318 FFF7FEFF 		bl	lv_trigo_sin
 712              	.LVL59:
 713 031c 019A     		ldr	r2, [sp, #4]
 714 031e 8242     		cmp	r2, r0
 715 0320 CCBF     		ite	gt
 716 0322 3846     		movgt	r0, r7
 717 0324 4046     		movle	r0, r8
 718 0326 FFF7FEFF 		bl	lv_trigo_sin
 719              	.LVL60:
 124:Drivers/lvgl/src/draw/lv_draw_arc.c ****         area->y2 = y + ((lv_trigo_sin(start_angle) * rout) >> LV_TRIGO_SHIFT) + extra_area;
 720              		.loc 1 124 89 view .LVU250
 721 032a 5D44     		add	r5, r5, fp
 124:Drivers/lvgl/src/draw/lv_draw_arc.c ****         area->y2 = y + ((lv_trigo_sin(start_angle) * rout) >> LV_TRIGO_SHIFT) + extra_area;
 722              		.loc 1 124 63 view .LVU251
 723 032c 00FB09F2 		mul	r2, r0, r9
 124:Drivers/lvgl/src/draw/lv_draw_arc.c ****         area->y2 = y + ((lv_trigo_sin(start_angle) * rout) >> LV_TRIGO_SHIFT) + extra_area;
 724              		.loc 1 124 89 view .LVU252
 725 0330 05EBE235 		add	r5, r5, r2, asr #15
 123:Drivers/lvgl/src/draw/lv_draw_arc.c ****                                 lv_trigo_sin(end_angle + 90)) * rin) >> LV_TRIGO_SHIFT) + extra_are
 726              		.loc 1 123 18 view .LVU253
 727 0334 AAF80450 		strh	r5, [r10, #4]	@ movhi
 125:Drivers/lvgl/src/draw/lv_draw_arc.c ****     }
 728              		.loc 1 125 9 is_stmt 1 view .LVU254
 125:Drivers/lvgl/src/draw/lv_draw_arc.c ****     }
 729              		.loc 1 125 26 is_stmt 0 view .LVU255
 730 0338 30B2     		sxth	r0, r6
 731 033a FFF7FEFF 		bl	lv_trigo_sin
 732              	.LVL61:
 125:Drivers/lvgl/src/draw/lv_draw_arc.c ****     }
 733              		.loc 1 125 52 view .LVU256
 734 033e 009B     		ldr	r3, [sp]
 125:Drivers/lvgl/src/draw/lv_draw_arc.c ****     }
 735              		.loc 1 125 79 view .LVU257
 736 0340 A344     		add	fp, fp, r4
 737              	.LVL62:
 125:Drivers/lvgl/src/draw/lv_draw_arc.c ****     }
 738              		.loc 1 125 52 view .LVU258
 739 0342 03FB00F0 		mul	r0, r3, r0
 125:Drivers/lvgl/src/draw/lv_draw_arc.c ****     }
 740              		.loc 1 125 79 view .LVU259
ARM GAS  /var/folders/0z/tsy30v1j4xl4_7kw94k978ww0000gn/T//cclLgmxf.s 			page 20


 741 0346 0BEBE03B 		add	fp, fp, r0, asr #15
 125:Drivers/lvgl/src/draw/lv_draw_arc.c ****     }
 742              		.loc 1 125 18 view .LVU260
 743 034a AAF806B0 		strh	fp, [r10, #6]	@ movhi
 744 034e A7E6     		b	.L10
 745              	.LVL63:
 746              	.L55:
 127:Drivers/lvgl/src/draw/lv_draw_arc.c ****         area->x1 = x + ((lv_trigo_sin(start_angle + 90) * rout) >> LV_TRIGO_SHIFT) - extra_area;
 747              		.loc 1 127 10 is_stmt 1 view .LVU261
 127:Drivers/lvgl/src/draw/lv_draw_arc.c ****         area->x1 = x + ((lv_trigo_sin(start_angle + 90) * rout) >> LV_TRIGO_SHIFT) - extra_area;
 748              		.loc 1 127 12 is_stmt 0 view .LVU262
 749 0350 022A     		cmp	r2, #2
 750 0352 40F0AA80 		bne	.L35
 127:Drivers/lvgl/src/draw/lv_draw_arc.c ****         area->x1 = x + ((lv_trigo_sin(start_angle + 90) * rout) >> LV_TRIGO_SHIFT) - extra_area;
 751              		.loc 1 127 32 discriminator 1 view .LVU263
 752 0356 0329     		cmp	r1, #3
 753 0358 7FF494AE 		bne	.L19
 754 035c 75E7     		b	.L40
 755              	.L57:
 756 035e 00BF     		.align	2
 757              	.L56:
 758 0360 B7600BB6 		.word	-1240768329
 759              	.LVL64:
 760              	.L26:
  92:Drivers/lvgl/src/draw/lv_draw_arc.c ****             area->x2 = x + ((lv_trigo_sin(start_angle + 90) * rin) >> LV_TRIGO_SHIFT) + extra_area;
 761              		.loc 1 92 13 is_stmt 1 view .LVU264
  92:Drivers/lvgl/src/draw/lv_draw_arc.c ****             area->x2 = x + ((lv_trigo_sin(start_angle + 90) * rin) >> LV_TRIGO_SHIFT) + extra_area;
 762              		.loc 1 92 30 is_stmt 0 view .LVU265
 763 0364 30B2     		sxth	r0, r6
 764 0366 FFF7FEFF 		bl	lv_trigo_sin
 765              	.LVL65:
  92:Drivers/lvgl/src/draw/lv_draw_arc.c ****             area->x2 = x + ((lv_trigo_sin(start_angle + 90) * rin) >> LV_TRIGO_SHIFT) + extra_area;
 766              		.loc 1 92 56 view .LVU266
 767 036a 009F     		ldr	r7, [sp]
  92:Drivers/lvgl/src/draw/lv_draw_arc.c ****             area->x2 = x + ((lv_trigo_sin(start_angle + 90) * rin) >> LV_TRIGO_SHIFT) + extra_area;
 768              		.loc 1 92 83 view .LVU267
 769 036c 1FFA8BFB 		uxth	fp, fp
  92:Drivers/lvgl/src/draw/lv_draw_arc.c ****             area->x2 = x + ((lv_trigo_sin(start_angle + 90) * rin) >> LV_TRIGO_SHIFT) + extra_area;
 770              		.loc 1 92 26 view .LVU268
 771 0370 A4B2     		uxth	r4, r4
  92:Drivers/lvgl/src/draw/lv_draw_arc.c ****             area->x2 = x + ((lv_trigo_sin(start_angle + 90) * rin) >> LV_TRIGO_SHIFT) + extra_area;
 772              		.loc 1 92 56 view .LVU269
 773 0372 00FB07F1 		mul	r1, r0, r7
  92:Drivers/lvgl/src/draw/lv_draw_arc.c ****             area->x2 = x + ((lv_trigo_sin(start_angle + 90) * rin) >> LV_TRIGO_SHIFT) + extra_area;
 774              		.loc 1 92 83 view .LVU270
 775 0376 04EB0B02 		add	r2, r4, fp
 776 037a 02EBE132 		add	r2, r2, r1, asr #15
  93:Drivers/lvgl/src/draw/lv_draw_arc.c **** 
 777              		.loc 1 93 55 view .LVU271
 778 037e 06F15A00 		add	r0, r6, #90
  92:Drivers/lvgl/src/draw/lv_draw_arc.c ****             area->x2 = x + ((lv_trigo_sin(start_angle + 90) * rin) >> LV_TRIGO_SHIFT) + extra_area;
 779              		.loc 1 92 22 view .LVU272
 780 0382 AAF80620 		strh	r2, [r10, #6]	@ movhi
  93:Drivers/lvgl/src/draw/lv_draw_arc.c **** 
 781              		.loc 1 93 13 is_stmt 1 view .LVU273
  93:Drivers/lvgl/src/draw/lv_draw_arc.c **** 
 782              		.loc 1 93 30 is_stmt 0 view .LVU274
ARM GAS  /var/folders/0z/tsy30v1j4xl4_7kw94k978ww0000gn/T//cclLgmxf.s 			page 21


 783 0386 00B2     		sxth	r0, r0
 784 0388 FFF7FEFF 		bl	lv_trigo_sin
 785              	.LVL66:
  93:Drivers/lvgl/src/draw/lv_draw_arc.c **** 
 786              		.loc 1 93 26 view .LVU275
 787 038c ADB2     		uxth	r5, r5
  93:Drivers/lvgl/src/draw/lv_draw_arc.c **** 
 788              		.loc 1 93 61 view .LVU276
 789 038e 00FB09F0 		mul	r0, r0, r9
  93:Drivers/lvgl/src/draw/lv_draw_arc.c **** 
 790              		.loc 1 93 87 view .LVU277
 791 0392 0BEB0502 		add	r2, fp, r5
 792 0396 02EBE032 		add	r2, r2, r0, asr #15
  93:Drivers/lvgl/src/draw/lv_draw_arc.c **** 
 793              		.loc 1 93 22 view .LVU278
 794 039a AAF80420 		strh	r2, [r10, #4]	@ movhi
  95:Drivers/lvgl/src/draw/lv_draw_arc.c ****             area->x1 = x + ((lv_trigo_sin(end_angle + 90) * rout) >> LV_TRIGO_SHIFT) - extra_area;
 795              		.loc 1 95 13 is_stmt 1 view .LVU279
  95:Drivers/lvgl/src/draw/lv_draw_arc.c ****             area->x1 = x + ((lv_trigo_sin(end_angle + 90) * rout) >> LV_TRIGO_SHIFT) - extra_area;
 796              		.loc 1 95 30 is_stmt 0 view .LVU280
 797 039e 0FFA88F0 		sxth	r0, r8
 798 03a2 FFF7FEFF 		bl	lv_trigo_sin
 799              	.LVL67:
  95:Drivers/lvgl/src/draw/lv_draw_arc.c ****             area->x1 = x + ((lv_trigo_sin(end_angle + 90) * rout) >> LV_TRIGO_SHIFT) - extra_area;
 800              		.loc 1 95 80 view .LVU281
 801 03a6 A4EB0B04 		sub	r4, r4, fp
  95:Drivers/lvgl/src/draw/lv_draw_arc.c ****             area->x1 = x + ((lv_trigo_sin(end_angle + 90) * rout) >> LV_TRIGO_SHIFT) - extra_area;
 802              		.loc 1 95 54 view .LVU282
 803 03aa 09FB00F0 		mul	r0, r9, r0
  95:Drivers/lvgl/src/draw/lv_draw_arc.c ****             area->x1 = x + ((lv_trigo_sin(end_angle + 90) * rout) >> LV_TRIGO_SHIFT) - extra_area;
 804              		.loc 1 95 80 view .LVU283
 805 03ae 04EBE034 		add	r4, r4, r0, asr #15
  96:Drivers/lvgl/src/draw/lv_draw_arc.c ****         }
 806              		.loc 1 96 53 view .LVU284
 807 03b2 08F15A00 		add	r0, r8, #90
  95:Drivers/lvgl/src/draw/lv_draw_arc.c ****             area->x1 = x + ((lv_trigo_sin(end_angle + 90) * rout) >> LV_TRIGO_SHIFT) - extra_area;
 808              		.loc 1 95 22 view .LVU285
 809 03b6 AAF80240 		strh	r4, [r10, #2]	@ movhi
  96:Drivers/lvgl/src/draw/lv_draw_arc.c ****         }
 810              		.loc 1 96 13 is_stmt 1 view .LVU286
  96:Drivers/lvgl/src/draw/lv_draw_arc.c ****         }
 811              		.loc 1 96 30 is_stmt 0 view .LVU287
 812 03ba 00B2     		sxth	r0, r0
 813 03bc FFF7FEFF 		bl	lv_trigo_sin
 814              	.LVL68:
  96:Drivers/lvgl/src/draw/lv_draw_arc.c ****         }
 815              		.loc 1 96 86 view .LVU288
 816 03c0 A5EB0B05 		sub	r5, r5, fp
  96:Drivers/lvgl/src/draw/lv_draw_arc.c ****         }
 817              		.loc 1 96 59 view .LVU289
 818 03c4 07FB00F0 		mul	r0, r7, r0
  96:Drivers/lvgl/src/draw/lv_draw_arc.c ****         }
 819              		.loc 1 96 86 view .LVU290
 820 03c8 05EBE035 		add	r5, r5, r0, asr #15
  96:Drivers/lvgl/src/draw/lv_draw_arc.c ****         }
 821              		.loc 1 96 22 view .LVU291
 822 03cc AAF80050 		strh	r5, [r10]	@ movhi
ARM GAS  /var/folders/0z/tsy30v1j4xl4_7kw94k978ww0000gn/T//cclLgmxf.s 			page 22


 823 03d0 66E6     		b	.L10
 824              	.LVL69:
 825              	.L27:
  85:Drivers/lvgl/src/draw/lv_draw_arc.c ****             area->x2 = x + ((lv_trigo_sin(start_angle + 90) * rout) >> LV_TRIGO_SHIFT) + extra_area
 826              		.loc 1 85 13 is_stmt 1 view .LVU292
  85:Drivers/lvgl/src/draw/lv_draw_arc.c ****             area->x2 = x + ((lv_trigo_sin(start_angle + 90) * rout) >> LV_TRIGO_SHIFT) + extra_area
 827              		.loc 1 85 30 is_stmt 0 view .LVU293
 828 03d2 30B2     		sxth	r0, r6
 829 03d4 FFF7FEFF 		bl	lv_trigo_sin
 830              	.LVL70:
  85:Drivers/lvgl/src/draw/lv_draw_arc.c ****             area->x2 = x + ((lv_trigo_sin(start_angle + 90) * rout) >> LV_TRIGO_SHIFT) + extra_area
 831              		.loc 1 85 82 view .LVU294
 832 03d8 1FFA8BFB 		uxth	fp, fp
  85:Drivers/lvgl/src/draw/lv_draw_arc.c ****             area->x2 = x + ((lv_trigo_sin(start_angle + 90) * rout) >> LV_TRIGO_SHIFT) + extra_area
 833              		.loc 1 85 26 view .LVU295
 834 03dc A4B2     		uxth	r4, r4
  85:Drivers/lvgl/src/draw/lv_draw_arc.c ****             area->x2 = x + ((lv_trigo_sin(start_angle + 90) * rout) >> LV_TRIGO_SHIFT) + extra_area
 835              		.loc 1 85 56 view .LVU296
 836 03de 00FB09F1 		mul	r1, r0, r9
  85:Drivers/lvgl/src/draw/lv_draw_arc.c ****             area->x2 = x + ((lv_trigo_sin(start_angle + 90) * rout) >> LV_TRIGO_SHIFT) + extra_area
 837              		.loc 1 85 82 view .LVU297
 838 03e2 A4EB0B02 		sub	r2, r4, fp
 839 03e6 02EBE132 		add	r2, r2, r1, asr #15
  86:Drivers/lvgl/src/draw/lv_draw_arc.c **** 
 840              		.loc 1 86 55 view .LVU298
 841 03ea 06F15A00 		add	r0, r6, #90
  85:Drivers/lvgl/src/draw/lv_draw_arc.c ****             area->x2 = x + ((lv_trigo_sin(start_angle + 90) * rout) >> LV_TRIGO_SHIFT) + extra_area
 842              		.loc 1 85 22 view .LVU299
 843 03ee AAF80220 		strh	r2, [r10, #2]	@ movhi
  86:Drivers/lvgl/src/draw/lv_draw_arc.c **** 
 844              		.loc 1 86 13 is_stmt 1 view .LVU300
  86:Drivers/lvgl/src/draw/lv_draw_arc.c **** 
 845              		.loc 1 86 30 is_stmt 0 view .LVU301
 846 03f2 00B2     		sxth	r0, r0
 847 03f4 FFF7FEFF 		bl	lv_trigo_sin
 848              	.LVL71:
  86:Drivers/lvgl/src/draw/lv_draw_arc.c **** 
 849              		.loc 1 86 61 view .LVU302
 850 03f8 009E     		ldr	r6, [sp]
 851              	.LVL72:
  86:Drivers/lvgl/src/draw/lv_draw_arc.c **** 
 852              		.loc 1 86 26 view .LVU303
 853 03fa ADB2     		uxth	r5, r5
  86:Drivers/lvgl/src/draw/lv_draw_arc.c **** 
 854              		.loc 1 86 61 view .LVU304
 855 03fc 06FB00F0 		mul	r0, r6, r0
  86:Drivers/lvgl/src/draw/lv_draw_arc.c **** 
 856              		.loc 1 86 88 view .LVU305
 857 0400 0BEB0502 		add	r2, fp, r5
 858 0404 02EBE032 		add	r2, r2, r0, asr #15
  86:Drivers/lvgl/src/draw/lv_draw_arc.c **** 
 859              		.loc 1 86 22 view .LVU306
 860 0408 AAF80420 		strh	r2, [r10, #4]	@ movhi
  88:Drivers/lvgl/src/draw/lv_draw_arc.c ****             area->x1 = x + ((lv_trigo_sin(end_angle + 90) * rin) >> LV_TRIGO_SHIFT) - extra_area;
 861              		.loc 1 88 13 is_stmt 1 view .LVU307
  88:Drivers/lvgl/src/draw/lv_draw_arc.c ****             area->x1 = x + ((lv_trigo_sin(end_angle + 90) * rin) >> LV_TRIGO_SHIFT) - extra_area;
 862              		.loc 1 88 30 is_stmt 0 view .LVU308
ARM GAS  /var/folders/0z/tsy30v1j4xl4_7kw94k978ww0000gn/T//cclLgmxf.s 			page 23


 863 040c 0FFA88F0 		sxth	r0, r8
 864 0410 FFF7FEFF 		bl	lv_trigo_sin
 865              	.LVL73:
  88:Drivers/lvgl/src/draw/lv_draw_arc.c ****             area->x1 = x + ((lv_trigo_sin(end_angle + 90) * rin) >> LV_TRIGO_SHIFT) - extra_area;
 866              		.loc 1 88 81 view .LVU309
 867 0414 5C44     		add	r4, r4, fp
  88:Drivers/lvgl/src/draw/lv_draw_arc.c ****             area->x1 = x + ((lv_trigo_sin(end_angle + 90) * rin) >> LV_TRIGO_SHIFT) - extra_area;
 868              		.loc 1 88 54 view .LVU310
 869 0416 06FB00F0 		mul	r0, r6, r0
  88:Drivers/lvgl/src/draw/lv_draw_arc.c ****             area->x1 = x + ((lv_trigo_sin(end_angle + 90) * rin) >> LV_TRIGO_SHIFT) - extra_area;
 870              		.loc 1 88 81 view .LVU311
 871 041a 04EBE034 		add	r4, r4, r0, asr #15
  89:Drivers/lvgl/src/draw/lv_draw_arc.c ****         }
 872              		.loc 1 89 53 view .LVU312
 873 041e 08F15A00 		add	r0, r8, #90
  88:Drivers/lvgl/src/draw/lv_draw_arc.c ****             area->x1 = x + ((lv_trigo_sin(end_angle + 90) * rin) >> LV_TRIGO_SHIFT) - extra_area;
 874              		.loc 1 88 22 view .LVU313
 875 0422 AAF80640 		strh	r4, [r10, #6]	@ movhi
  89:Drivers/lvgl/src/draw/lv_draw_arc.c ****         }
 876              		.loc 1 89 13 is_stmt 1 view .LVU314
  89:Drivers/lvgl/src/draw/lv_draw_arc.c ****         }
 877              		.loc 1 89 30 is_stmt 0 view .LVU315
 878 0426 00B2     		sxth	r0, r0
 879 0428 FFF7FEFF 		bl	lv_trigo_sin
 880              	.LVL74:
  89:Drivers/lvgl/src/draw/lv_draw_arc.c ****         }
 881              		.loc 1 89 85 view .LVU316
 882 042c A5EB0B05 		sub	r5, r5, fp
  89:Drivers/lvgl/src/draw/lv_draw_arc.c ****         }
 883              		.loc 1 89 59 view .LVU317
 884 0430 09FB00F0 		mul	r0, r9, r0
  89:Drivers/lvgl/src/draw/lv_draw_arc.c ****         }
 885              		.loc 1 89 85 view .LVU318
 886 0434 05EBE035 		add	r5, r5, r0, asr #15
  89:Drivers/lvgl/src/draw/lv_draw_arc.c ****         }
 887              		.loc 1 89 22 view .LVU319
 888 0438 AAF80050 		strh	r5, [r10]	@ movhi
 889 043c 30E6     		b	.L10
 890              	.LVL75:
 891              	.L25:
  99:Drivers/lvgl/src/draw/lv_draw_arc.c ****             area->y2 = y + ((lv_trigo_sin(start_angle) * rin) >> LV_TRIGO_SHIFT) + extra_area;
 892              		.loc 1 99 13 is_stmt 1 view .LVU320
  99:Drivers/lvgl/src/draw/lv_draw_arc.c ****             area->y2 = y + ((lv_trigo_sin(start_angle) * rin) >> LV_TRIGO_SHIFT) + extra_area;
 893              		.loc 1 99 55 is_stmt 0 view .LVU321
 894 043e 06F15A00 		add	r0, r6, #90
  99:Drivers/lvgl/src/draw/lv_draw_arc.c ****             area->y2 = y + ((lv_trigo_sin(start_angle) * rin) >> LV_TRIGO_SHIFT) + extra_area;
 895              		.loc 1 99 30 view .LVU322
 896 0442 00B2     		sxth	r0, r0
 897 0444 FFF7FEFF 		bl	lv_trigo_sin
 898              	.LVL76:
  99:Drivers/lvgl/src/draw/lv_draw_arc.c ****             area->y2 = y + ((lv_trigo_sin(start_angle) * rin) >> LV_TRIGO_SHIFT) + extra_area;
 899              		.loc 1 99 61 view .LVU323
 900 0448 009F     		ldr	r7, [sp]
  99:Drivers/lvgl/src/draw/lv_draw_arc.c ****             area->y2 = y + ((lv_trigo_sin(start_angle) * rin) >> LV_TRIGO_SHIFT) + extra_area;
 901              		.loc 1 99 88 view .LVU324
 902 044a 1FFA8BFB 		uxth	fp, fp
  99:Drivers/lvgl/src/draw/lv_draw_arc.c ****             area->y2 = y + ((lv_trigo_sin(start_angle) * rin) >> LV_TRIGO_SHIFT) + extra_area;
ARM GAS  /var/folders/0z/tsy30v1j4xl4_7kw94k978ww0000gn/T//cclLgmxf.s 			page 24


 903              		.loc 1 99 26 view .LVU325
 904 044e ADB2     		uxth	r5, r5
  99:Drivers/lvgl/src/draw/lv_draw_arc.c ****             area->y2 = y + ((lv_trigo_sin(start_angle) * rin) >> LV_TRIGO_SHIFT) + extra_area;
 905              		.loc 1 99 61 view .LVU326
 906 0450 00FB07F1 		mul	r1, r0, r7
  99:Drivers/lvgl/src/draw/lv_draw_arc.c ****             area->y2 = y + ((lv_trigo_sin(start_angle) * rin) >> LV_TRIGO_SHIFT) + extra_area;
 907              		.loc 1 99 88 view .LVU327
 908 0454 A5EB0B02 		sub	r2, r5, fp
 909 0458 02EBE132 		add	r2, r2, r1, asr #15
  99:Drivers/lvgl/src/draw/lv_draw_arc.c ****             area->y2 = y + ((lv_trigo_sin(start_angle) * rin) >> LV_TRIGO_SHIFT) + extra_area;
 910              		.loc 1 99 22 view .LVU328
 911 045c AAF80020 		strh	r2, [r10]	@ movhi
 100:Drivers/lvgl/src/draw/lv_draw_arc.c **** 
 912              		.loc 1 100 13 is_stmt 1 view .LVU329
 100:Drivers/lvgl/src/draw/lv_draw_arc.c **** 
 913              		.loc 1 100 30 is_stmt 0 view .LVU330
 914 0460 30B2     		sxth	r0, r6
 915 0462 FFF7FEFF 		bl	lv_trigo_sin
 916              	.LVL77:
 100:Drivers/lvgl/src/draw/lv_draw_arc.c **** 
 917              		.loc 1 100 26 view .LVU331
 918 0466 A4B2     		uxth	r4, r4
 100:Drivers/lvgl/src/draw/lv_draw_arc.c **** 
 919              		.loc 1 100 56 view .LVU332
 920 0468 00FB09F0 		mul	r0, r0, r9
 100:Drivers/lvgl/src/draw/lv_draw_arc.c **** 
 921              		.loc 1 100 82 view .LVU333
 922 046c 0BEB0402 		add	r2, fp, r4
 923 0470 02EBE032 		add	r2, r2, r0, asr #15
 100:Drivers/lvgl/src/draw/lv_draw_arc.c **** 
 924              		.loc 1 100 22 view .LVU334
 925 0474 AAF80620 		strh	r2, [r10, #6]	@ movhi
 102:Drivers/lvgl/src/draw/lv_draw_arc.c ****             area->x2 = x + ((lv_trigo_sin(end_angle + 90) * rin) >> LV_TRIGO_SHIFT) + extra_area;
 926              		.loc 1 102 13 is_stmt 1 view .LVU335
 102:Drivers/lvgl/src/draw/lv_draw_arc.c ****             area->x2 = x + ((lv_trigo_sin(end_angle + 90) * rin) >> LV_TRIGO_SHIFT) + extra_area;
 927              		.loc 1 102 30 is_stmt 0 view .LVU336
 928 0478 0FFA88F0 		sxth	r0, r8
 929 047c FFF7FEFF 		bl	lv_trigo_sin
 930              	.LVL78:
 102:Drivers/lvgl/src/draw/lv_draw_arc.c ****             area->x2 = x + ((lv_trigo_sin(end_angle + 90) * rin) >> LV_TRIGO_SHIFT) + extra_area;
 931              		.loc 1 102 81 view .LVU337
 932 0480 A4EB0B04 		sub	r4, r4, fp
 102:Drivers/lvgl/src/draw/lv_draw_arc.c ****             area->x2 = x + ((lv_trigo_sin(end_angle + 90) * rin) >> LV_TRIGO_SHIFT) + extra_area;
 933              		.loc 1 102 54 view .LVU338
 934 0484 07FB00F0 		mul	r0, r7, r0
 102:Drivers/lvgl/src/draw/lv_draw_arc.c ****             area->x2 = x + ((lv_trigo_sin(end_angle + 90) * rin) >> LV_TRIGO_SHIFT) + extra_area;
 935              		.loc 1 102 81 view .LVU339
 936 0488 04EBE034 		add	r4, r4, r0, asr #15
 103:Drivers/lvgl/src/draw/lv_draw_arc.c ****         }
 937              		.loc 1 103 53 view .LVU340
 938 048c 08F15A00 		add	r0, r8, #90
 102:Drivers/lvgl/src/draw/lv_draw_arc.c ****             area->x2 = x + ((lv_trigo_sin(end_angle + 90) * rin) >> LV_TRIGO_SHIFT) + extra_area;
 939              		.loc 1 102 22 view .LVU341
 940 0490 AAF80240 		strh	r4, [r10, #2]	@ movhi
 103:Drivers/lvgl/src/draw/lv_draw_arc.c ****         }
 941              		.loc 1 103 13 is_stmt 1 view .LVU342
 103:Drivers/lvgl/src/draw/lv_draw_arc.c ****         }
ARM GAS  /var/folders/0z/tsy30v1j4xl4_7kw94k978ww0000gn/T//cclLgmxf.s 			page 25


 942              		.loc 1 103 30 is_stmt 0 view .LVU343
 943 0494 00B2     		sxth	r0, r0
 944 0496 FFF7FEFF 		bl	lv_trigo_sin
 945              	.LVL79:
 103:Drivers/lvgl/src/draw/lv_draw_arc.c ****         }
 946              		.loc 1 103 85 view .LVU344
 947 049a 5D44     		add	r5, r5, fp
 103:Drivers/lvgl/src/draw/lv_draw_arc.c ****         }
 948              		.loc 1 103 59 view .LVU345
 949 049c 09FB00F0 		mul	r0, r9, r0
 103:Drivers/lvgl/src/draw/lv_draw_arc.c ****         }
 950              		.loc 1 103 85 view .LVU346
 951 04a0 05EBE035 		add	r5, r5, r0, asr #15
 103:Drivers/lvgl/src/draw/lv_draw_arc.c ****         }
 952              		.loc 1 103 22 view .LVU347
 953 04a4 AAF80450 		strh	r5, [r10, #4]	@ movhi
 954 04a8 FAE5     		b	.L10
 955              	.LVL80:
 956              	.L35:
 134:Drivers/lvgl/src/draw/lv_draw_arc.c ****         area->x1 = x + ((LV_MIN(lv_trigo_sin(end_angle + 90),
 957              		.loc 1 134 10 is_stmt 1 view .LVU348
 134:Drivers/lvgl/src/draw/lv_draw_arc.c ****         area->x1 = x + ((LV_MIN(lv_trigo_sin(end_angle + 90),
 958              		.loc 1 134 12 is_stmt 0 view .LVU349
 959 04aa 032A     		cmp	r2, #3
 960 04ac 3FF406AE 		beq	.L22
 961 04b0 E8E5     		b	.L19
 962              		.cfi_endproc
 963              	.LFE57:
 965 04b2 00BF     		.text
 966              	.Letext0:
 967              		.file 2 "/Users/johannes/Library/Application Support/Code/User/globalStorage/bmd.stm32-for-vscode/
 968              		.file 3 "/Users/johannes/Library/Application Support/Code/User/globalStorage/bmd.stm32-for-vscode/
 969              		.file 4 "/Users/johannes/Library/Application Support/Code/User/globalStorage/bmd.stm32-for-vscode/
 970              		.file 5 "Drivers/lvgl/src/draw/../misc/../font/../misc/lv_area.h"
 971              		.file 6 "Drivers/lvgl/src/draw/../misc/../font/lv_font.h"
 972              		.file 7 "Drivers/lvgl/src/draw/../misc/lv_types.h"
 973              		.file 8 "Drivers/lvgl/src/draw/../misc/lv_color.h"
 974              		.file 9 "Drivers/lvgl/src/draw/../misc/lv_txt.h"
 975              		.file 10 "Drivers/lvgl/src/draw/../misc/lv_bidi.h"
 976              		.file 11 "Drivers/lvgl/src/draw/../misc/lv_style.h"
 977              		.file 12 "Drivers/lvgl/src/draw/lv_img_buf.h"
 978              		.file 13 "Drivers/lvgl/src/draw/lv_draw_rect.h"
 979              		.file 14 "Drivers/lvgl/src/draw/lv_draw_label.h"
 980              		.file 15 "Drivers/lvgl/src/draw/lv_draw_img.h"
 981              		.file 16 "Drivers/lvgl/src/draw/lv_draw_line.h"
 982              		.file 17 "Drivers/lvgl/src/draw/lv_draw_arc.h"
 983              		.file 18 "Drivers/lvgl/src/draw/lv_draw_layer.h"
 984              		.file 19 "Drivers/lvgl/src/draw/lv_draw.h"
 985              		.file 20 "Drivers/lvgl/src/draw/../misc/lv_math.h"
 986              		.file 21 "Drivers/lvgl/src/draw/../misc/lv_mem.h"
ARM GAS  /var/folders/0z/tsy30v1j4xl4_7kw94k978ww0000gn/T//cclLgmxf.s 			page 26


DEFINED SYMBOLS
                            *ABS*:0000000000000000 lv_draw_arc.c
/var/folders/0z/tsy30v1j4xl4_7kw94k978ww0000gn/T//cclLgmxf.s:20     .text.lv_draw_arc_dsc_init:0000000000000000 $t
/var/folders/0z/tsy30v1j4xl4_7kw94k978ww0000gn/T//cclLgmxf.s:27     .text.lv_draw_arc_dsc_init:0000000000000000 lv_draw_arc_dsc_init
/var/folders/0z/tsy30v1j4xl4_7kw94k978ww0000gn/T//cclLgmxf.s:66     .text.lv_draw_arc:0000000000000000 $t
/var/folders/0z/tsy30v1j4xl4_7kw94k978ww0000gn/T//cclLgmxf.s:73     .text.lv_draw_arc:0000000000000000 lv_draw_arc
/var/folders/0z/tsy30v1j4xl4_7kw94k978ww0000gn/T//cclLgmxf.s:130    .text.lv_draw_arc_get_area:0000000000000000 $t
/var/folders/0z/tsy30v1j4xl4_7kw94k978ww0000gn/T//cclLgmxf.s:137    .text.lv_draw_arc_get_area:0000000000000000 lv_draw_arc_get_area
/var/folders/0z/tsy30v1j4xl4_7kw94k978ww0000gn/T//cclLgmxf.s:406    .text.lv_draw_arc_get_area:000000000000014c $d
/var/folders/0z/tsy30v1j4xl4_7kw94k978ww0000gn/T//cclLgmxf.s:410    .text.lv_draw_arc_get_area:0000000000000154 $t
/var/folders/0z/tsy30v1j4xl4_7kw94k978ww0000gn/T//cclLgmxf.s:758    .text.lv_draw_arc_get_area:0000000000000360 $d
/var/folders/0z/tsy30v1j4xl4_7kw94k978ww0000gn/T//cclLgmxf.s:763    .text.lv_draw_arc_get_area:0000000000000364 $t

UNDEFINED SYMBOLS
lv_memset_00
lv_trigo_sin
