ARM GAS  /var/folders/0z/tsy30v1j4xl4_7kw94k978ww0000gn/T//cc6AX49L.s 			page 1


   1              		.cpu cortex-m4
   2              		.arch armv7e-m
   3              		.fpu fpv4-sp-d16
   4              		.eabi_attribute 27, 1
   5              		.eabi_attribute 28, 1
   6              		.eabi_attribute 20, 1
   7              		.eabi_attribute 21, 1
   8              		.eabi_attribute 23, 3
   9              		.eabi_attribute 24, 1
  10              		.eabi_attribute 25, 1
  11              		.eabi_attribute 26, 1
  12              		.eabi_attribute 30, 2
  13              		.eabi_attribute 34, 1
  14              		.eabi_attribute 18, 4
  15              		.file	"lv_draw_sw_img.c"
  16              		.text
  17              	.Ltext0:
  18              		.cfi_sections	.debug_frame
  19              		.section	.text.lv_draw_sw_img_decoded,"ax",%progbits
  20              		.align	1
  21              		.p2align 2,,3
  22              		.global	lv_draw_sw_img_decoded
  23              		.syntax unified
  24              		.thumb
  25              		.thumb_func
  27              	lv_draw_sw_img_decoded:
  28              	.LVL0:
  29              	.LFB161:
  30              		.file 1 "Drivers/lvgl/src/draw/sw/lv_draw_sw_img.c"
   1:Drivers/lvgl/src/draw/sw/lv_draw_sw_img.c **** /**
   2:Drivers/lvgl/src/draw/sw/lv_draw_sw_img.c ****  * @file lv_draw_img.c
   3:Drivers/lvgl/src/draw/sw/lv_draw_sw_img.c ****  *
   4:Drivers/lvgl/src/draw/sw/lv_draw_sw_img.c ****  */
   5:Drivers/lvgl/src/draw/sw/lv_draw_sw_img.c **** 
   6:Drivers/lvgl/src/draw/sw/lv_draw_sw_img.c **** /*********************
   7:Drivers/lvgl/src/draw/sw/lv_draw_sw_img.c ****  *      INCLUDES
   8:Drivers/lvgl/src/draw/sw/lv_draw_sw_img.c ****  *********************/
   9:Drivers/lvgl/src/draw/sw/lv_draw_sw_img.c **** #include "lv_draw_sw.h"
  10:Drivers/lvgl/src/draw/sw/lv_draw_sw_img.c **** #include "../lv_img_cache.h"
  11:Drivers/lvgl/src/draw/sw/lv_draw_sw_img.c **** #include "../../hal/lv_hal_disp.h"
  12:Drivers/lvgl/src/draw/sw/lv_draw_sw_img.c **** #include "../../misc/lv_log.h"
  13:Drivers/lvgl/src/draw/sw/lv_draw_sw_img.c **** #include "../../core/lv_refr.h"
  14:Drivers/lvgl/src/draw/sw/lv_draw_sw_img.c **** #include "../../misc/lv_mem.h"
  15:Drivers/lvgl/src/draw/sw/lv_draw_sw_img.c **** #include "../../misc/lv_math.h"
  16:Drivers/lvgl/src/draw/sw/lv_draw_sw_img.c **** 
  17:Drivers/lvgl/src/draw/sw/lv_draw_sw_img.c **** /*********************
  18:Drivers/lvgl/src/draw/sw/lv_draw_sw_img.c ****  *      DEFINES
  19:Drivers/lvgl/src/draw/sw/lv_draw_sw_img.c ****  *********************/
  20:Drivers/lvgl/src/draw/sw/lv_draw_sw_img.c **** #define MAX_BUF_SIZE (uint32_t) lv_disp_get_hor_res(_lv_refr_get_disp_refreshing())
  21:Drivers/lvgl/src/draw/sw/lv_draw_sw_img.c **** 
  22:Drivers/lvgl/src/draw/sw/lv_draw_sw_img.c **** /**********************
  23:Drivers/lvgl/src/draw/sw/lv_draw_sw_img.c ****  *      TYPEDEFS
  24:Drivers/lvgl/src/draw/sw/lv_draw_sw_img.c ****  **********************/
  25:Drivers/lvgl/src/draw/sw/lv_draw_sw_img.c **** 
  26:Drivers/lvgl/src/draw/sw/lv_draw_sw_img.c **** /**********************
  27:Drivers/lvgl/src/draw/sw/lv_draw_sw_img.c ****  *  STATIC PROTOTYPES
  28:Drivers/lvgl/src/draw/sw/lv_draw_sw_img.c ****  **********************/
ARM GAS  /var/folders/0z/tsy30v1j4xl4_7kw94k978ww0000gn/T//cc6AX49L.s 			page 2


  29:Drivers/lvgl/src/draw/sw/lv_draw_sw_img.c **** static void convert_cb(const lv_area_t * dest_area, const void * src_buf, lv_coord_t src_w, lv_coor
  30:Drivers/lvgl/src/draw/sw/lv_draw_sw_img.c ****                        lv_coord_t src_stride, const lv_draw_img_dsc_t * draw_dsc, lv_img_cf_t cf, l
  31:Drivers/lvgl/src/draw/sw/lv_draw_sw_img.c **** 
  32:Drivers/lvgl/src/draw/sw/lv_draw_sw_img.c **** /**********************
  33:Drivers/lvgl/src/draw/sw/lv_draw_sw_img.c ****  *  STATIC VARIABLES
  34:Drivers/lvgl/src/draw/sw/lv_draw_sw_img.c ****  **********************/
  35:Drivers/lvgl/src/draw/sw/lv_draw_sw_img.c **** 
  36:Drivers/lvgl/src/draw/sw/lv_draw_sw_img.c **** /**********************
  37:Drivers/lvgl/src/draw/sw/lv_draw_sw_img.c ****  *      MACROS
  38:Drivers/lvgl/src/draw/sw/lv_draw_sw_img.c ****  **********************/
  39:Drivers/lvgl/src/draw/sw/lv_draw_sw_img.c **** 
  40:Drivers/lvgl/src/draw/sw/lv_draw_sw_img.c **** /**********************
  41:Drivers/lvgl/src/draw/sw/lv_draw_sw_img.c ****  *   GLOBAL FUNCTIONS
  42:Drivers/lvgl/src/draw/sw/lv_draw_sw_img.c ****  **********************/
  43:Drivers/lvgl/src/draw/sw/lv_draw_sw_img.c **** 
  44:Drivers/lvgl/src/draw/sw/lv_draw_sw_img.c **** 
  45:Drivers/lvgl/src/draw/sw/lv_draw_sw_img.c **** void LV_ATTRIBUTE_FAST_MEM lv_draw_sw_img_decoded(struct _lv_draw_ctx_t * draw_ctx,
  46:Drivers/lvgl/src/draw/sw/lv_draw_sw_img.c ****                                                   const lv_draw_img_dsc_t * draw_dsc,
  47:Drivers/lvgl/src/draw/sw/lv_draw_sw_img.c ****                                                   const lv_area_t * coords, const uint8_t * src_buf
  48:Drivers/lvgl/src/draw/sw/lv_draw_sw_img.c ****                                                   lv_img_cf_t cf)
  49:Drivers/lvgl/src/draw/sw/lv_draw_sw_img.c **** {
  31              		.loc 1 49 1 view -0
  32              		.cfi_startproc
  33              		@ args = 4, pretend = 0, frame = 128
  34              		@ frame_needed = 0, uses_anonymous_args = 0
  50:Drivers/lvgl/src/draw/sw/lv_draw_sw_img.c ****     /*Use the clip area as draw area*/
  51:Drivers/lvgl/src/draw/sw/lv_draw_sw_img.c ****     lv_area_t draw_area;
  35              		.loc 1 51 5 view .LVU1
  52:Drivers/lvgl/src/draw/sw/lv_draw_sw_img.c ****     lv_area_copy(&draw_area, draw_ctx->clip_area);
  36              		.loc 1 52 5 view .LVU2
  49:Drivers/lvgl/src/draw/sw/lv_draw_sw_img.c ****     /*Use the clip area as draw area*/
  37              		.loc 1 49 1 is_stmt 0 view .LVU3
  38 0000 2DE9F04F 		push	{r4, r5, r6, r7, r8, r9, r10, fp, lr}
  39              		.cfi_def_cfa_offset 36
  40              		.cfi_offset 4, -36
  41              		.cfi_offset 5, -32
  42              		.cfi_offset 6, -28
  43              		.cfi_offset 7, -24
  44              		.cfi_offset 8, -20
  45              		.cfi_offset 9, -16
  46              		.cfi_offset 10, -12
  47              		.cfi_offset 11, -8
  48              		.cfi_offset 14, -4
  49 0004 2DED028B 		vpush.64	{d8}
  50              		.cfi_def_cfa_offset 44
  51              		.cfi_offset 80, -44
  52              		.cfi_offset 81, -40
  53 0008 8146     		mov	r9, r0
  54 000a A7B0     		sub	sp, sp, #156
  55              		.cfi_def_cfa_offset 200
  49:Drivers/lvgl/src/draw/sw/lv_draw_sw_img.c ****     /*Use the clip area as draw area*/
  56              		.loc 1 49 1 view .LVU4
  57 000c 08EE103A 		vmov	s16, r3	@ int
  58 0010 9DF8C800 		ldrb	r0, [sp, #200]	@ zero_extendqisi2
  59              	.LVL1:
  60              		.loc 1 52 5 view .LVU5
  61 0014 D9F80830 		ldr	r3, [r9, #8]
ARM GAS  /var/folders/0z/tsy30v1j4xl4_7kw94k978ww0000gn/T//cc6AX49L.s 			page 3


  62              	.LVL2:
  63              	.LBB102:
  64              	.LBI102:
  65              		.file 2 "Drivers/lvgl/src/draw/sw/../../misc/lv_area.h"
   1:Drivers/lvgl/src/draw/sw/../../misc/lv_area.h **** /**
   2:Drivers/lvgl/src/draw/sw/../../misc/lv_area.h ****  * @file lv_area.h
   3:Drivers/lvgl/src/draw/sw/../../misc/lv_area.h ****  *
   4:Drivers/lvgl/src/draw/sw/../../misc/lv_area.h ****  */
   5:Drivers/lvgl/src/draw/sw/../../misc/lv_area.h **** 
   6:Drivers/lvgl/src/draw/sw/../../misc/lv_area.h **** #ifndef LV_AREA_H
   7:Drivers/lvgl/src/draw/sw/../../misc/lv_area.h **** #define LV_AREA_H
   8:Drivers/lvgl/src/draw/sw/../../misc/lv_area.h **** 
   9:Drivers/lvgl/src/draw/sw/../../misc/lv_area.h **** #ifdef __cplusplus
  10:Drivers/lvgl/src/draw/sw/../../misc/lv_area.h **** extern "C" {
  11:Drivers/lvgl/src/draw/sw/../../misc/lv_area.h **** #endif
  12:Drivers/lvgl/src/draw/sw/../../misc/lv_area.h **** 
  13:Drivers/lvgl/src/draw/sw/../../misc/lv_area.h **** /*********************
  14:Drivers/lvgl/src/draw/sw/../../misc/lv_area.h ****  *      INCLUDES
  15:Drivers/lvgl/src/draw/sw/../../misc/lv_area.h ****  *********************/
  16:Drivers/lvgl/src/draw/sw/../../misc/lv_area.h **** #include "../lv_conf_internal.h"
  17:Drivers/lvgl/src/draw/sw/../../misc/lv_area.h **** #include <stdbool.h>
  18:Drivers/lvgl/src/draw/sw/../../misc/lv_area.h **** #include <stdint.h>
  19:Drivers/lvgl/src/draw/sw/../../misc/lv_area.h **** 
  20:Drivers/lvgl/src/draw/sw/../../misc/lv_area.h **** /*********************
  21:Drivers/lvgl/src/draw/sw/../../misc/lv_area.h ****  *      DEFINES
  22:Drivers/lvgl/src/draw/sw/../../misc/lv_area.h ****  *********************/
  23:Drivers/lvgl/src/draw/sw/../../misc/lv_area.h **** 
  24:Drivers/lvgl/src/draw/sw/../../misc/lv_area.h **** #if LV_USE_LARGE_COORD
  25:Drivers/lvgl/src/draw/sw/../../misc/lv_area.h **** typedef int32_t lv_coord_t;
  26:Drivers/lvgl/src/draw/sw/../../misc/lv_area.h **** #else
  27:Drivers/lvgl/src/draw/sw/../../misc/lv_area.h **** typedef int16_t lv_coord_t;
  28:Drivers/lvgl/src/draw/sw/../../misc/lv_area.h **** #endif
  29:Drivers/lvgl/src/draw/sw/../../misc/lv_area.h **** 
  30:Drivers/lvgl/src/draw/sw/../../misc/lv_area.h **** /**********************
  31:Drivers/lvgl/src/draw/sw/../../misc/lv_area.h ****  *      TYPEDEFS
  32:Drivers/lvgl/src/draw/sw/../../misc/lv_area.h ****  **********************/
  33:Drivers/lvgl/src/draw/sw/../../misc/lv_area.h **** 
  34:Drivers/lvgl/src/draw/sw/../../misc/lv_area.h **** /**
  35:Drivers/lvgl/src/draw/sw/../../misc/lv_area.h ****  * Represents a point on the screen.
  36:Drivers/lvgl/src/draw/sw/../../misc/lv_area.h ****  */
  37:Drivers/lvgl/src/draw/sw/../../misc/lv_area.h **** typedef struct {
  38:Drivers/lvgl/src/draw/sw/../../misc/lv_area.h ****     lv_coord_t x;
  39:Drivers/lvgl/src/draw/sw/../../misc/lv_area.h ****     lv_coord_t y;
  40:Drivers/lvgl/src/draw/sw/../../misc/lv_area.h **** } lv_point_t;
  41:Drivers/lvgl/src/draw/sw/../../misc/lv_area.h **** 
  42:Drivers/lvgl/src/draw/sw/../../misc/lv_area.h **** /** Represents an area of the screen.*/
  43:Drivers/lvgl/src/draw/sw/../../misc/lv_area.h **** typedef struct {
  44:Drivers/lvgl/src/draw/sw/../../misc/lv_area.h ****     lv_coord_t x1;
  45:Drivers/lvgl/src/draw/sw/../../misc/lv_area.h ****     lv_coord_t y1;
  46:Drivers/lvgl/src/draw/sw/../../misc/lv_area.h ****     lv_coord_t x2;
  47:Drivers/lvgl/src/draw/sw/../../misc/lv_area.h ****     lv_coord_t y2;
  48:Drivers/lvgl/src/draw/sw/../../misc/lv_area.h **** } lv_area_t;
  49:Drivers/lvgl/src/draw/sw/../../misc/lv_area.h **** 
  50:Drivers/lvgl/src/draw/sw/../../misc/lv_area.h **** /** Alignments*/
  51:Drivers/lvgl/src/draw/sw/../../misc/lv_area.h **** enum {
  52:Drivers/lvgl/src/draw/sw/../../misc/lv_area.h ****     LV_ALIGN_DEFAULT = 0,
  53:Drivers/lvgl/src/draw/sw/../../misc/lv_area.h ****     LV_ALIGN_TOP_LEFT,
ARM GAS  /var/folders/0z/tsy30v1j4xl4_7kw94k978ww0000gn/T//cc6AX49L.s 			page 4


  54:Drivers/lvgl/src/draw/sw/../../misc/lv_area.h ****     LV_ALIGN_TOP_MID,
  55:Drivers/lvgl/src/draw/sw/../../misc/lv_area.h ****     LV_ALIGN_TOP_RIGHT,
  56:Drivers/lvgl/src/draw/sw/../../misc/lv_area.h ****     LV_ALIGN_BOTTOM_LEFT,
  57:Drivers/lvgl/src/draw/sw/../../misc/lv_area.h ****     LV_ALIGN_BOTTOM_MID,
  58:Drivers/lvgl/src/draw/sw/../../misc/lv_area.h ****     LV_ALIGN_BOTTOM_RIGHT,
  59:Drivers/lvgl/src/draw/sw/../../misc/lv_area.h ****     LV_ALIGN_LEFT_MID,
  60:Drivers/lvgl/src/draw/sw/../../misc/lv_area.h ****     LV_ALIGN_RIGHT_MID,
  61:Drivers/lvgl/src/draw/sw/../../misc/lv_area.h ****     LV_ALIGN_CENTER,
  62:Drivers/lvgl/src/draw/sw/../../misc/lv_area.h **** 
  63:Drivers/lvgl/src/draw/sw/../../misc/lv_area.h ****     LV_ALIGN_OUT_TOP_LEFT,
  64:Drivers/lvgl/src/draw/sw/../../misc/lv_area.h ****     LV_ALIGN_OUT_TOP_MID,
  65:Drivers/lvgl/src/draw/sw/../../misc/lv_area.h ****     LV_ALIGN_OUT_TOP_RIGHT,
  66:Drivers/lvgl/src/draw/sw/../../misc/lv_area.h ****     LV_ALIGN_OUT_BOTTOM_LEFT,
  67:Drivers/lvgl/src/draw/sw/../../misc/lv_area.h ****     LV_ALIGN_OUT_BOTTOM_MID,
  68:Drivers/lvgl/src/draw/sw/../../misc/lv_area.h ****     LV_ALIGN_OUT_BOTTOM_RIGHT,
  69:Drivers/lvgl/src/draw/sw/../../misc/lv_area.h ****     LV_ALIGN_OUT_LEFT_TOP,
  70:Drivers/lvgl/src/draw/sw/../../misc/lv_area.h ****     LV_ALIGN_OUT_LEFT_MID,
  71:Drivers/lvgl/src/draw/sw/../../misc/lv_area.h ****     LV_ALIGN_OUT_LEFT_BOTTOM,
  72:Drivers/lvgl/src/draw/sw/../../misc/lv_area.h ****     LV_ALIGN_OUT_RIGHT_TOP,
  73:Drivers/lvgl/src/draw/sw/../../misc/lv_area.h ****     LV_ALIGN_OUT_RIGHT_MID,
  74:Drivers/lvgl/src/draw/sw/../../misc/lv_area.h ****     LV_ALIGN_OUT_RIGHT_BOTTOM,
  75:Drivers/lvgl/src/draw/sw/../../misc/lv_area.h **** };
  76:Drivers/lvgl/src/draw/sw/../../misc/lv_area.h **** typedef uint8_t lv_align_t;
  77:Drivers/lvgl/src/draw/sw/../../misc/lv_area.h **** 
  78:Drivers/lvgl/src/draw/sw/../../misc/lv_area.h **** enum {
  79:Drivers/lvgl/src/draw/sw/../../misc/lv_area.h ****     LV_DIR_NONE     = 0x00,
  80:Drivers/lvgl/src/draw/sw/../../misc/lv_area.h ****     LV_DIR_LEFT     = (1 << 0),
  81:Drivers/lvgl/src/draw/sw/../../misc/lv_area.h ****     LV_DIR_RIGHT    = (1 << 1),
  82:Drivers/lvgl/src/draw/sw/../../misc/lv_area.h ****     LV_DIR_TOP      = (1 << 2),
  83:Drivers/lvgl/src/draw/sw/../../misc/lv_area.h ****     LV_DIR_BOTTOM   = (1 << 3),
  84:Drivers/lvgl/src/draw/sw/../../misc/lv_area.h ****     LV_DIR_HOR      = LV_DIR_LEFT | LV_DIR_RIGHT,
  85:Drivers/lvgl/src/draw/sw/../../misc/lv_area.h ****     LV_DIR_VER      = LV_DIR_TOP | LV_DIR_BOTTOM,
  86:Drivers/lvgl/src/draw/sw/../../misc/lv_area.h ****     LV_DIR_ALL      = LV_DIR_HOR | LV_DIR_VER,
  87:Drivers/lvgl/src/draw/sw/../../misc/lv_area.h **** };
  88:Drivers/lvgl/src/draw/sw/../../misc/lv_area.h **** 
  89:Drivers/lvgl/src/draw/sw/../../misc/lv_area.h **** typedef uint8_t lv_dir_t;
  90:Drivers/lvgl/src/draw/sw/../../misc/lv_area.h **** 
  91:Drivers/lvgl/src/draw/sw/../../misc/lv_area.h **** /**********************
  92:Drivers/lvgl/src/draw/sw/../../misc/lv_area.h ****  * GLOBAL PROTOTYPES
  93:Drivers/lvgl/src/draw/sw/../../misc/lv_area.h ****  **********************/
  94:Drivers/lvgl/src/draw/sw/../../misc/lv_area.h **** 
  95:Drivers/lvgl/src/draw/sw/../../misc/lv_area.h **** /**
  96:Drivers/lvgl/src/draw/sw/../../misc/lv_area.h ****  * Initialize an area
  97:Drivers/lvgl/src/draw/sw/../../misc/lv_area.h ****  * @param area_p pointer to an area
  98:Drivers/lvgl/src/draw/sw/../../misc/lv_area.h ****  * @param x1 left coordinate of the area
  99:Drivers/lvgl/src/draw/sw/../../misc/lv_area.h ****  * @param y1 top coordinate of the area
 100:Drivers/lvgl/src/draw/sw/../../misc/lv_area.h ****  * @param x2 right coordinate of the area
 101:Drivers/lvgl/src/draw/sw/../../misc/lv_area.h ****  * @param y2 bottom coordinate of the area
 102:Drivers/lvgl/src/draw/sw/../../misc/lv_area.h ****  */
 103:Drivers/lvgl/src/draw/sw/../../misc/lv_area.h **** void lv_area_set(lv_area_t * area_p, lv_coord_t x1, lv_coord_t y1, lv_coord_t x2, lv_coord_t y2);
 104:Drivers/lvgl/src/draw/sw/../../misc/lv_area.h **** 
 105:Drivers/lvgl/src/draw/sw/../../misc/lv_area.h **** /**
 106:Drivers/lvgl/src/draw/sw/../../misc/lv_area.h ****  * Copy an area
 107:Drivers/lvgl/src/draw/sw/../../misc/lv_area.h ****  * @param dest pointer to the destination area
 108:Drivers/lvgl/src/draw/sw/../../misc/lv_area.h ****  * @param src pointer to the source area
 109:Drivers/lvgl/src/draw/sw/../../misc/lv_area.h ****  */
 110:Drivers/lvgl/src/draw/sw/../../misc/lv_area.h **** inline static void lv_area_copy(lv_area_t * dest, const lv_area_t * src)
ARM GAS  /var/folders/0z/tsy30v1j4xl4_7kw94k978ww0000gn/T//cc6AX49L.s 			page 5


  66              		.loc 2 110 20 is_stmt 1 view .LVU6
  67              	.LBB103:
 111:Drivers/lvgl/src/draw/sw/../../misc/lv_area.h **** {
 112:Drivers/lvgl/src/draw/sw/../../misc/lv_area.h ****     dest->x1 = src->x1;
  68              		.loc 2 112 5 view .LVU7
  69              	.LBE103:
  70              	.LBE102:
  49:Drivers/lvgl/src/draw/sw/lv_draw_sw_img.c ****     /*Use the clip area as draw area*/
  71              		.loc 1 49 1 is_stmt 0 view .LVU8
  72 0018 0791     		str	r1, [sp, #28]
  73 001a CDE90A02 		strd	r0, r2, [sp, #40]
  74              	.LBB106:
  75              	.LBB104:
  76              		.loc 2 112 19 view .LVU9
  77 001e 1A68     		ldr	r2, [r3]	@ unaligned
  78              	.LVL3:
  79              		.loc 2 112 19 view .LVU10
  80 0020 5B68     		ldr	r3, [r3, #4]	@ unaligned
  81              	.LVL4:
 113:Drivers/lvgl/src/draw/sw/../../misc/lv_area.h ****     dest->y1 = src->y1;
  82              		.loc 2 113 5 is_stmt 1 view .LVU11
 114:Drivers/lvgl/src/draw/sw/../../misc/lv_area.h ****     dest->x2 = src->x2;
  83              		.loc 2 114 5 view .LVU12
 115:Drivers/lvgl/src/draw/sw/../../misc/lv_area.h ****     dest->y2 = src->y2;
  84              		.loc 2 115 5 view .LVU13
 112:Drivers/lvgl/src/draw/sw/../../misc/lv_area.h ****     dest->y1 = src->y1;
  85              		.loc 2 112 14 is_stmt 0 view .LVU14
  86 0022 1A93     		str	r3, [sp, #104]
  87              	.LVL5:
 112:Drivers/lvgl/src/draw/sw/../../misc/lv_area.h ****     dest->y1 = src->y1;
  88              		.loc 2 112 14 view .LVU15
  89              	.LBE104:
  90              	.LBE106:
  53:Drivers/lvgl/src/draw/sw/lv_draw_sw_img.c **** 
  54:Drivers/lvgl/src/draw/sw/lv_draw_sw_img.c ****     bool mask_any = lv_draw_mask_is_any(&draw_area);
  91              		.loc 1 54 5 is_stmt 1 view .LVU16
  92              		.loc 1 54 21 is_stmt 0 view .LVU17
  93 0024 19A8     		add	r0, sp, #100
  49:Drivers/lvgl/src/draw/sw/lv_draw_sw_img.c ****     /*Use the clip area as draw area*/
  94              		.loc 1 49 1 view .LVU18
  95 0026 0C46     		mov	r4, r1
  96              	.LBB107:
  97              	.LBB105:
 112:Drivers/lvgl/src/draw/sw/../../misc/lv_area.h ****     dest->y1 = src->y1;
  98              		.loc 2 112 14 view .LVU19
  99 0028 1992     		str	r2, [sp, #100]
 100              	.LBE105:
 101              	.LBE107:
 102              		.loc 1 54 21 view .LVU20
 103 002a FFF7FEFF 		bl	lv_draw_mask_is_any
 104              	.LVL6:
  55:Drivers/lvgl/src/draw/sw/lv_draw_sw_img.c ****     bool transform = draw_dsc->angle != 0 || draw_dsc->zoom != LV_IMG_ZOOM_NONE ? true : false;
 105              		.loc 1 55 43 view .LVU21
 106 002e 2568     		ldr	r5, [r4]
  54:Drivers/lvgl/src/draw/sw/lv_draw_sw_img.c ****     bool transform = draw_dsc->angle != 0 || draw_dsc->zoom != LV_IMG_ZOOM_NONE ? true : false;
 107              		.loc 1 54 21 view .LVU22
 108 0030 0E90     		str	r0, [sp, #56]
ARM GAS  /var/folders/0z/tsy30v1j4xl4_7kw94k978ww0000gn/T//cc6AX49L.s 			page 6


 109 0032 0646     		mov	r6, r0
 110              	.LVL7:
 111              		.loc 1 55 5 is_stmt 1 view .LVU23
  56:Drivers/lvgl/src/draw/sw/lv_draw_sw_img.c **** 
  57:Drivers/lvgl/src/draw/sw/lv_draw_sw_img.c ****     lv_area_t blend_area;
  58:Drivers/lvgl/src/draw/sw/lv_draw_sw_img.c ****     lv_draw_sw_blend_dsc_t blend_dsc;
  59:Drivers/lvgl/src/draw/sw/lv_draw_sw_img.c **** 
  60:Drivers/lvgl/src/draw/sw/lv_draw_sw_img.c ****     lv_memset_00(&blend_dsc, sizeof(lv_draw_sw_blend_dsc_t));
 112              		.loc 1 60 5 is_stmt 0 view .LVU24
 113 0034 1C21     		movs	r1, #28
 114 0036 1FA8     		add	r0, sp, #124
  55:Drivers/lvgl/src/draw/sw/lv_draw_sw_img.c **** 
 115              		.loc 1 55 43 view .LVU25
 116 0038 0F95     		str	r5, [sp, #60]
 117              	.LVL8:
  57:Drivers/lvgl/src/draw/sw/lv_draw_sw_img.c ****     lv_draw_sw_blend_dsc_t blend_dsc;
 118              		.loc 1 57 5 is_stmt 1 view .LVU26
  58:Drivers/lvgl/src/draw/sw/lv_draw_sw_img.c **** 
 119              		.loc 1 58 5 view .LVU27
 120              		.loc 1 60 5 view .LVU28
 121 003a FFF7FEFF 		bl	lv_memset_00
 122              	.LVL9:
  61:Drivers/lvgl/src/draw/sw/lv_draw_sw_img.c ****     blend_dsc.opa = draw_dsc->opa;
 123              		.loc 1 61 5 view .LVU29
  62:Drivers/lvgl/src/draw/sw/lv_draw_sw_img.c ****     blend_dsc.blend_mode = draw_dsc->blend_mode;
 124              		.loc 1 62 36 is_stmt 0 view .LVU30
 125 003e 237B     		ldrb	r3, [r4, #12]	@ zero_extendqisi2
 126 0040 C3F30303 		ubfx	r3, r3, #0, #4
 127              		.loc 1 62 26 view .LVU31
 128 0044 8DF89530 		strb	r3, [sp, #149]
  61:Drivers/lvgl/src/draw/sw/lv_draw_sw_img.c ****     blend_dsc.opa = draw_dsc->opa;
 129              		.loc 1 61 19 view .LVU32
 130 0048 E37A     		ldrb	r3, [r4, #11]	@ zero_extendqisi2
 131 004a 8DF89430 		strb	r3, [sp, #148]
 132              		.loc 1 62 5 is_stmt 1 view .LVU33
  63:Drivers/lvgl/src/draw/sw/lv_draw_sw_img.c ****     blend_dsc.blend_area = &blend_area;
 133              		.loc 1 63 5 view .LVU34
 134              		.loc 1 63 26 is_stmt 0 view .LVU35
 135 004e 1BAB     		add	r3, sp, #108
 136 0050 1F93     		str	r3, [sp, #124]
  64:Drivers/lvgl/src/draw/sw/lv_draw_sw_img.c **** 
  65:Drivers/lvgl/src/draw/sw/lv_draw_sw_img.c ****     /*The simplest case just copy the pixels into the draw_buf*/
  66:Drivers/lvgl/src/draw/sw/lv_draw_sw_img.c ****     if(!mask_any && !transform && cf == LV_IMG_CF_TRUE_COLOR && draw_dsc->recolor_opa == LV_OPA_TRA
 137              		.loc 1 66 5 is_stmt 1 view .LVU36
 138              		.loc 1 66 7 is_stmt 0 view .LVU37
 139 0052 1EB9     		cbnz	r6, .L2
 140              		.loc 1 66 18 discriminator 1 view .LVU38
 141 0054 B5F1807F 		cmp	r5, #16777216
 142 0058 00F07082 		beq	.L63
 143              	.L2:
 144              	.LBB108:
  67:Drivers/lvgl/src/draw/sw/lv_draw_sw_img.c ****         blend_dsc.src_buf = (const lv_color_t *)src_buf;
  68:Drivers/lvgl/src/draw/sw/lv_draw_sw_img.c **** 
  69:Drivers/lvgl/src/draw/sw/lv_draw_sw_img.c ****         blend_dsc.blend_area = coords;
  70:Drivers/lvgl/src/draw/sw/lv_draw_sw_img.c ****         lv_draw_sw_blend(draw_ctx, &blend_dsc);
  71:Drivers/lvgl/src/draw/sw/lv_draw_sw_img.c ****     }
  72:Drivers/lvgl/src/draw/sw/lv_draw_sw_img.c ****     else if(!mask_any && !transform && cf == LV_IMG_CF_ALPHA_8BIT) {
ARM GAS  /var/folders/0z/tsy30v1j4xl4_7kw94k978ww0000gn/T//cc6AX49L.s 			page 7


  73:Drivers/lvgl/src/draw/sw/lv_draw_sw_img.c ****         lv_area_t clipped_coords;
  74:Drivers/lvgl/src/draw/sw/lv_draw_sw_img.c ****         if(!_lv_area_intersect(&clipped_coords, coords, draw_ctx->clip_area)) return;
  75:Drivers/lvgl/src/draw/sw/lv_draw_sw_img.c **** 
  76:Drivers/lvgl/src/draw/sw/lv_draw_sw_img.c ****         blend_dsc.mask_buf = (lv_opa_t *)src_buf;
  77:Drivers/lvgl/src/draw/sw/lv_draw_sw_img.c ****         blend_dsc.mask_area = coords;
  78:Drivers/lvgl/src/draw/sw/lv_draw_sw_img.c ****         blend_dsc.src_buf = NULL;
  79:Drivers/lvgl/src/draw/sw/lv_draw_sw_img.c ****         blend_dsc.color = draw_dsc->recolor;
  80:Drivers/lvgl/src/draw/sw/lv_draw_sw_img.c ****         blend_dsc.mask_res = LV_DRAW_MASK_RES_CHANGED;
  81:Drivers/lvgl/src/draw/sw/lv_draw_sw_img.c **** 
  82:Drivers/lvgl/src/draw/sw/lv_draw_sw_img.c ****         blend_dsc.blend_area = coords;
  83:Drivers/lvgl/src/draw/sw/lv_draw_sw_img.c ****         lv_draw_sw_blend(draw_ctx, &blend_dsc);
  84:Drivers/lvgl/src/draw/sw/lv_draw_sw_img.c ****     }
  85:Drivers/lvgl/src/draw/sw/lv_draw_sw_img.c **** #if LV_COLOR_DEPTH == 16
  86:Drivers/lvgl/src/draw/sw/lv_draw_sw_img.c ****     else if(!mask_any && !transform && cf == LV_IMG_CF_RGB565A8 && draw_dsc->recolor_opa == LV_OPA_
  87:Drivers/lvgl/src/draw/sw/lv_draw_sw_img.c ****         lv_coord_t src_w = lv_area_get_width(coords);
  88:Drivers/lvgl/src/draw/sw/lv_draw_sw_img.c ****         lv_coord_t src_h = lv_area_get_height(coords);
  89:Drivers/lvgl/src/draw/sw/lv_draw_sw_img.c ****         blend_dsc.src_buf = (const lv_color_t *)src_buf;
  90:Drivers/lvgl/src/draw/sw/lv_draw_sw_img.c ****         blend_dsc.mask_buf = (lv_opa_t *)src_buf;
  91:Drivers/lvgl/src/draw/sw/lv_draw_sw_img.c ****         blend_dsc.mask_buf += sizeof(lv_color_t) * src_w * src_h;
  92:Drivers/lvgl/src/draw/sw/lv_draw_sw_img.c ****         blend_dsc.blend_area = coords;
  93:Drivers/lvgl/src/draw/sw/lv_draw_sw_img.c ****         blend_dsc.mask_area = coords;
  94:Drivers/lvgl/src/draw/sw/lv_draw_sw_img.c ****         blend_dsc.mask_res = LV_DRAW_MASK_RES_CHANGED;
  95:Drivers/lvgl/src/draw/sw/lv_draw_sw_img.c ****         lv_draw_sw_blend(draw_ctx, &blend_dsc);
  96:Drivers/lvgl/src/draw/sw/lv_draw_sw_img.c ****     }
  97:Drivers/lvgl/src/draw/sw/lv_draw_sw_img.c **** #endif
  98:Drivers/lvgl/src/draw/sw/lv_draw_sw_img.c ****     /*In the other cases every pixel need to be checked one-by-one*/
  99:Drivers/lvgl/src/draw/sw/lv_draw_sw_img.c ****     else {
 100:Drivers/lvgl/src/draw/sw/lv_draw_sw_img.c ****         blend_area.x1 = draw_ctx->clip_area->x1;
 145              		.loc 1 100 9 is_stmt 1 view .LVU39
 146              	.LBB109:
 147              	.LBB110:
 116:Drivers/lvgl/src/draw/sw/../../misc/lv_area.h **** }
 117:Drivers/lvgl/src/draw/sw/../../misc/lv_area.h **** 
 118:Drivers/lvgl/src/draw/sw/../../misc/lv_area.h **** /**
 119:Drivers/lvgl/src/draw/sw/../../misc/lv_area.h ****  * Get the width of an area
 120:Drivers/lvgl/src/draw/sw/../../misc/lv_area.h ****  * @param area_p pointer to an area
 121:Drivers/lvgl/src/draw/sw/../../misc/lv_area.h ****  * @return the width of the area (if x1 == x2 -> width = 1)
 122:Drivers/lvgl/src/draw/sw/../../misc/lv_area.h ****  */
 123:Drivers/lvgl/src/draw/sw/../../misc/lv_area.h **** static inline lv_coord_t lv_area_get_width(const lv_area_t * area_p)
 124:Drivers/lvgl/src/draw/sw/../../misc/lv_area.h **** {
 125:Drivers/lvgl/src/draw/sw/../../misc/lv_area.h ****     return (lv_coord_t)(area_p->x2 - area_p->x1 + 1);
 148              		.loc 2 125 36 is_stmt 0 view .LVU40
 149 005c 0B98     		ldr	r0, [sp, #44]
 150              	.LBE110:
 151              	.LBE109:
 152              		.loc 1 100 33 view .LVU41
 153 005e D9F80820 		ldr	r2, [r9, #8]
 154              	.LBB116:
 155              	.LBB111:
 156              		.loc 2 125 36 view .LVU42
 157 0062 0188     		ldrh	r1, [r0]
 158 0064 8388     		ldrh	r3, [r0, #4]
 159              	.LBE111:
 160              	.LBE116:
 161              		.loc 1 100 44 view .LVU43
 162 0066 1568     		ldr	r5, [r2]	@ unaligned
 163              	.LVL10:
ARM GAS  /var/folders/0z/tsy30v1j4xl4_7kw94k978ww0000gn/T//cc6AX49L.s 			page 8


 164              		.loc 1 100 44 view .LVU44
 165 0068 5468     		ldr	r4, [r2, #4]	@ unaligned
 166              	.LVL11:
 167              	.LBB117:
 168              	.LBB118:
 126:Drivers/lvgl/src/draw/sw/../../misc/lv_area.h **** }
 127:Drivers/lvgl/src/draw/sw/../../misc/lv_area.h **** 
 128:Drivers/lvgl/src/draw/sw/../../misc/lv_area.h **** /**
 129:Drivers/lvgl/src/draw/sw/../../misc/lv_area.h ****  * Get the height of an area
 130:Drivers/lvgl/src/draw/sw/../../misc/lv_area.h ****  * @param area_p pointer to an area
 131:Drivers/lvgl/src/draw/sw/../../misc/lv_area.h ****  * @return the height of the area (if y1 == y2 -> height = 1)
 132:Drivers/lvgl/src/draw/sw/../../misc/lv_area.h ****  */
 133:Drivers/lvgl/src/draw/sw/../../misc/lv_area.h **** static inline lv_coord_t lv_area_get_height(const lv_area_t * area_p)
 134:Drivers/lvgl/src/draw/sw/../../misc/lv_area.h **** {
 135:Drivers/lvgl/src/draw/sw/../../misc/lv_area.h ****     return (lv_coord_t)(area_p->y2 - area_p->y1 + 1);
 169              		.loc 2 135 49 view .LVU45
 170 006a 4288     		ldrh	r2, [r0, #2]
 171              	.LBE118:
 172              	.LBE117:
 173              	.LBB122:
 174              	.LBB112:
 125:Drivers/lvgl/src/draw/sw/../../misc/lv_area.h **** }
 175              		.loc 2 125 36 view .LVU46
 176 006c 5B1A     		subs	r3, r3, r1
 177 006e 99B2     		uxth	r1, r3
 178              	.LBE112:
 179              	.LBE122:
 180              	.LBB123:
 181              	.LBB119:
 182              		.loc 2 135 49 view .LVU47
 183 0070 C388     		ldrh	r3, [r0, #6]
 184              	.LBE119:
 185              	.LBE123:
 186              	.LBB124:
 187              	.LBB113:
 125:Drivers/lvgl/src/draw/sw/../../misc/lv_area.h **** }
 188              		.loc 2 125 36 view .LVU48
 189 0072 1491     		str	r1, [sp, #80]
 190              	.LBE113:
 191              	.LBE124:
 192              	.LBB125:
 193              	.LBB120:
 194              		.loc 2 135 49 view .LVU49
 195 0074 0133     		adds	r3, r3, #1
 196 0076 9B1A     		subs	r3, r3, r2
 197              		.loc 2 135 12 view .LVU50
 198 0078 1BB2     		sxth	r3, r3
 199 007a 1193     		str	r3, [sp, #68]
 200              	.LBE120:
 201              	.LBE125:
 202              	.LBB126:
 203              	.LBB127:
 125:Drivers/lvgl/src/draw/sw/../../misc/lv_area.h **** }
 204              		.loc 2 125 49 view .LVU51
 205 007c 631B     		subs	r3, r4, r5
 206 007e 0133     		adds	r3, r3, #1
 125:Drivers/lvgl/src/draw/sw/../../misc/lv_area.h **** }
ARM GAS  /var/folders/0z/tsy30v1j4xl4_7kw94k978ww0000gn/T//cc6AX49L.s 			page 9


 207              		.loc 2 125 12 view .LVU52
 208 0080 0FFA83FA 		sxth	r10, r3
 209              	.LBE127:
 210              	.LBE126:
 211              	.LBB129:
 212              	.LBB114:
 125:Drivers/lvgl/src/draw/sw/../../misc/lv_area.h **** }
 213              		.loc 2 125 49 view .LVU53
 214 0084 4B1C     		adds	r3, r1, #1
 125:Drivers/lvgl/src/draw/sw/../../misc/lv_area.h **** }
 215              		.loc 2 125 12 view .LVU54
 216 0086 1BB2     		sxth	r3, r3
 217 0088 0D93     		str	r3, [sp, #52]
 218              	.LBE114:
 219              	.LBE129:
 220              		.loc 1 100 23 view .LVU55
 221 008a CDE91B54 		strd	r5, r4, [sp, #108]
 101:Drivers/lvgl/src/draw/sw/lv_draw_sw_img.c ****         blend_area.x2 = draw_ctx->clip_area->x2;
 102:Drivers/lvgl/src/draw/sw/lv_draw_sw_img.c ****         blend_area.y1 = draw_ctx->clip_area->y1;
 103:Drivers/lvgl/src/draw/sw/lv_draw_sw_img.c ****         blend_area.y2 = draw_ctx->clip_area->y2;
 104:Drivers/lvgl/src/draw/sw/lv_draw_sw_img.c **** 
 105:Drivers/lvgl/src/draw/sw/lv_draw_sw_img.c ****         lv_coord_t src_w = lv_area_get_width(coords);
 106:Drivers/lvgl/src/draw/sw/lv_draw_sw_img.c ****         lv_coord_t src_h = lv_area_get_height(coords);
 107:Drivers/lvgl/src/draw/sw/lv_draw_sw_img.c ****         lv_coord_t blend_h = lv_area_get_height(&blend_area);
 108:Drivers/lvgl/src/draw/sw/lv_draw_sw_img.c ****         lv_coord_t blend_w = lv_area_get_width(&blend_area);
 109:Drivers/lvgl/src/draw/sw/lv_draw_sw_img.c **** 
 110:Drivers/lvgl/src/draw/sw/lv_draw_sw_img.c ****         uint32_t max_buf_size = MAX_BUF_SIZE;
 222              		.loc 1 110 33 view .LVU56
 223 008e FFF7FEFF 		bl	_lv_refr_get_disp_refreshing
 224              	.LVL12:
 225 0092 FFF7FEFF 		bl	lv_disp_get_hor_res
 226              	.LVL13:
 227 0096 0646     		mov	r6, r0
 228              	.LVL14:
 111:Drivers/lvgl/src/draw/sw/lv_draw_sw_img.c ****         uint32_t blend_size = lv_area_get_size(&blend_area);
 229              		.loc 1 111 31 view .LVU57
 230 0098 1BA8     		add	r0, sp, #108
 231 009a FFF7FEFF 		bl	lv_area_get_size
 232              	.LVL15:
 233 009e 45F30F45 		sbfx	r5, r5, #16, #16
 112:Drivers/lvgl/src/draw/sw/lv_draw_sw_img.c ****         uint32_t buf_h;
 113:Drivers/lvgl/src/draw/sw/lv_draw_sw_img.c ****         uint32_t buf_w = blend_w;
 114:Drivers/lvgl/src/draw/sw/lv_draw_sw_img.c ****         if(blend_size <= max_buf_size) {
 234              		.loc 1 114 11 view .LVU58
 235 00a2 8642     		cmp	r6, r0
 236 00a4 44F30F44 		sbfx	r4, r4, #16, #16
 101:Drivers/lvgl/src/draw/sw/lv_draw_sw_img.c ****         blend_area.y1 = draw_ctx->clip_area->y1;
 237              		.loc 1 101 9 is_stmt 1 view .LVU59
 102:Drivers/lvgl/src/draw/sw/lv_draw_sw_img.c ****         blend_area.y2 = draw_ctx->clip_area->y2;
 238              		.loc 1 102 9 view .LVU60
 103:Drivers/lvgl/src/draw/sw/lv_draw_sw_img.c **** 
 239              		.loc 1 103 9 view .LVU61
 105:Drivers/lvgl/src/draw/sw/lv_draw_sw_img.c ****         lv_coord_t src_h = lv_area_get_height(coords);
 240              		.loc 1 105 9 view .LVU62
 241              	.LBB130:
 242              	.LBI109:
 123:Drivers/lvgl/src/draw/sw/../../misc/lv_area.h **** {
ARM GAS  /var/folders/0z/tsy30v1j4xl4_7kw94k978ww0000gn/T//cc6AX49L.s 			page 10


 243              		.loc 2 123 26 view .LVU63
 244              	.LBB115:
 125:Drivers/lvgl/src/draw/sw/../../misc/lv_area.h **** }
 245              		.loc 2 125 5 view .LVU64
 246              	.LBE115:
 247              	.LBE130:
 106:Drivers/lvgl/src/draw/sw/lv_draw_sw_img.c ****         lv_coord_t blend_h = lv_area_get_height(&blend_area);
 248              		.loc 1 106 9 view .LVU65
 249              	.LBB131:
 250              	.LBI117:
 133:Drivers/lvgl/src/draw/sw/../../misc/lv_area.h **** {
 251              		.loc 2 133 26 view .LVU66
 252              	.LBB121:
 253              		.loc 2 135 5 view .LVU67
 254              	.LBE121:
 255              	.LBE131:
 107:Drivers/lvgl/src/draw/sw/lv_draw_sw_img.c ****         lv_coord_t blend_w = lv_area_get_width(&blend_area);
 256              		.loc 1 107 9 view .LVU68
 257              	.LVL16:
 258              	.LBB132:
 259              	.LBI132:
 133:Drivers/lvgl/src/draw/sw/../../misc/lv_area.h **** {
 260              		.loc 2 133 26 view .LVU69
 261              	.LBB133:
 262              		.loc 2 135 5 view .LVU70
 263              		.loc 2 135 5 is_stmt 0 view .LVU71
 264              	.LBE133:
 265              	.LBE132:
 108:Drivers/lvgl/src/draw/sw/lv_draw_sw_img.c **** 
 266              		.loc 1 108 9 is_stmt 1 view .LVU72
 267              	.LBB135:
 268              	.LBI126:
 123:Drivers/lvgl/src/draw/sw/../../misc/lv_area.h **** {
 269              		.loc 2 123 26 view .LVU73
 270              	.LBB128:
 125:Drivers/lvgl/src/draw/sw/../../misc/lv_area.h **** }
 271              		.loc 2 125 5 view .LVU74
 125:Drivers/lvgl/src/draw/sw/../../misc/lv_area.h **** }
 272              		.loc 2 125 5 is_stmt 0 view .LVU75
 273              	.LBE128:
 274              	.LBE135:
 110:Drivers/lvgl/src/draw/sw/lv_draw_sw_img.c ****         uint32_t blend_size = lv_area_get_size(&blend_area);
 275              		.loc 1 110 9 is_stmt 1 view .LVU76
 111:Drivers/lvgl/src/draw/sw/lv_draw_sw_img.c ****         uint32_t buf_h;
 276              		.loc 1 111 9 view .LVU77
 112:Drivers/lvgl/src/draw/sw/lv_draw_sw_img.c ****         uint32_t buf_w = blend_w;
 277              		.loc 1 112 9 view .LVU78
 113:Drivers/lvgl/src/draw/sw/lv_draw_sw_img.c ****         if(blend_size <= max_buf_size) {
 278              		.loc 1 113 9 view .LVU79
 279              		.loc 1 114 9 view .LVU80
 115:Drivers/lvgl/src/draw/sw/lv_draw_sw_img.c ****             buf_h = blend_h;
 280              		.loc 1 115 13 view .LVU81
 281              	.LBB136:
 282              	.LBB134:
 283              		.loc 2 135 49 is_stmt 0 view .LVU82
 284 00a8 23BF     		ittte	cs
 285 00aa 631B     		subcs	r3, r4, r5
ARM GAS  /var/folders/0z/tsy30v1j4xl4_7kw94k978ww0000gn/T//cc6AX49L.s 			page 11


 286 00ac 0133     		addcs	r3, r3, #1
 287              	.LBE134:
 288              	.LBE136:
 289              		.loc 1 115 19 view .LVU83
 290 00ae 1BB2     		sxthcs	r3, r3
 291              	.LVL17:
 116:Drivers/lvgl/src/draw/sw/lv_draw_sw_img.c ****         }
 117:Drivers/lvgl/src/draw/sw/lv_draw_sw_img.c ****         else {
 118:Drivers/lvgl/src/draw/sw/lv_draw_sw_img.c ****             /*Round to full lines*/
 119:Drivers/lvgl/src/draw/sw/lv_draw_sw_img.c ****             buf_h = max_buf_size / blend_w;
 292              		.loc 1 119 13 is_stmt 1 view .LVU84
 293              		.loc 1 119 19 is_stmt 0 view .LVU85
 294 00b0 B6FBFAF3 		udivcc	r3, r6, r10
 295              	.LVL18:
 120:Drivers/lvgl/src/draw/sw/lv_draw_sw_img.c ****         }
 121:Drivers/lvgl/src/draw/sw/lv_draw_sw_img.c **** 
 122:Drivers/lvgl/src/draw/sw/lv_draw_sw_img.c ****         /*Create buffers and masks*/
 123:Drivers/lvgl/src/draw/sw/lv_draw_sw_img.c ****         uint32_t buf_size = buf_w * buf_h;
 296              		.loc 1 123 9 is_stmt 1 view .LVU86
 297              		.loc 1 123 18 is_stmt 0 view .LVU87
 298 00b4 0AFB03F2 		mul	r2, r10, r3
 124:Drivers/lvgl/src/draw/sw/lv_draw_sw_img.c **** 
 125:Drivers/lvgl/src/draw/sw/lv_draw_sw_img.c ****         lv_color_t * rgb_buf = lv_mem_buf_get(buf_size * sizeof(lv_color_t));
 299              		.loc 1 125 32 view .LVU88
 300 00b8 4FEA420B 		lsl	fp, r2, #1
 126:Drivers/lvgl/src/draw/sw/lv_draw_sw_img.c ****         lv_opa_t * mask_buf = lv_mem_buf_get(buf_size);
 127:Drivers/lvgl/src/draw/sw/lv_draw_sw_img.c ****         blend_dsc.mask_buf = mask_buf;
 128:Drivers/lvgl/src/draw/sw/lv_draw_sw_img.c ****         blend_dsc.mask_area = &blend_area;
 129:Drivers/lvgl/src/draw/sw/lv_draw_sw_img.c ****         blend_dsc.mask_res = LV_DRAW_MASK_RES_CHANGED;
 130:Drivers/lvgl/src/draw/sw/lv_draw_sw_img.c ****         blend_dsc.src_buf = rgb_buf;
 131:Drivers/lvgl/src/draw/sw/lv_draw_sw_img.c ****         lv_coord_t y_last = blend_area.y2;
 132:Drivers/lvgl/src/draw/sw/lv_draw_sw_img.c ****         blend_area.y2 = blend_area.y1 + buf_h - 1;
 301              		.loc 1 132 39 view .LVU89
 302 00bc 9DB2     		uxth	r5, r3
 125:Drivers/lvgl/src/draw/sw/lv_draw_sw_img.c ****         lv_opa_t * mask_buf = lv_mem_buf_get(buf_size);
 303              		.loc 1 125 32 view .LVU90
 304 00be 5846     		mov	r0, fp
 305              	.LVL19:
 123:Drivers/lvgl/src/draw/sw/lv_draw_sw_img.c **** 
 306              		.loc 1 123 18 view .LVU91
 307 00c0 1446     		mov	r4, r2
 308 00c2 1292     		str	r2, [sp, #72]
 309              	.LVL20:
 125:Drivers/lvgl/src/draw/sw/lv_draw_sw_img.c ****         lv_opa_t * mask_buf = lv_mem_buf_get(buf_size);
 310              		.loc 1 125 9 is_stmt 1 view .LVU92
 311              		.loc 1 132 39 is_stmt 0 view .LVU93
 312 00c4 1095     		str	r5, [sp, #64]
 125:Drivers/lvgl/src/draw/sw/lv_draw_sw_img.c ****         lv_opa_t * mask_buf = lv_mem_buf_get(buf_size);
 313              		.loc 1 125 32 view .LVU94
 314 00c6 FFF7FEFF 		bl	lv_mem_buf_get
 315              	.LVL21:
 125:Drivers/lvgl/src/draw/sw/lv_draw_sw_img.c ****         lv_opa_t * mask_buf = lv_mem_buf_get(buf_size);
 316              		.loc 1 125 32 view .LVU95
 317 00ca 0646     		mov	r6, r0
 318              	.LVL22:
 125:Drivers/lvgl/src/draw/sw/lv_draw_sw_img.c ****         lv_opa_t * mask_buf = lv_mem_buf_get(buf_size);
 319              		.loc 1 125 32 view .LVU96
ARM GAS  /var/folders/0z/tsy30v1j4xl4_7kw94k978ww0000gn/T//cc6AX49L.s 			page 12


 320 00cc 0890     		str	r0, [sp, #32]
 321              	.LVL23:
 126:Drivers/lvgl/src/draw/sw/lv_draw_sw_img.c ****         lv_opa_t * mask_buf = lv_mem_buf_get(buf_size);
 322              		.loc 1 126 9 is_stmt 1 view .LVU97
 126:Drivers/lvgl/src/draw/sw/lv_draw_sw_img.c ****         lv_opa_t * mask_buf = lv_mem_buf_get(buf_size);
 323              		.loc 1 126 31 is_stmt 0 view .LVU98
 324 00ce 2046     		mov	r0, r4
 325              	.LVL24:
 126:Drivers/lvgl/src/draw/sw/lv_draw_sw_img.c ****         lv_opa_t * mask_buf = lv_mem_buf_get(buf_size);
 326              		.loc 1 126 31 view .LVU99
 327 00d0 FFF7FEFF 		bl	lv_mem_buf_get
 328              	.LVL25:
 128:Drivers/lvgl/src/draw/sw/lv_draw_sw_img.c ****         blend_dsc.mask_res = LV_DRAW_MASK_RES_CHANGED;
 329              		.loc 1 128 29 view .LVU100
 330 00d4 1BAB     		add	r3, sp, #108
 331 00d6 2493     		str	r3, [sp, #144]
 332              		.loc 1 132 35 view .LVU101
 333 00d8 BDF96E30 		ldrsh	r3, [sp, #110]
 131:Drivers/lvgl/src/draw/sw/lv_draw_sw_img.c ****         blend_area.y2 = blend_area.y1 + buf_h - 1;
 334              		.loc 1 131 20 view .LVU102
 335 00dc BDF97220 		ldrsh	r2, [sp, #114]
 133:Drivers/lvgl/src/draw/sw/lv_draw_sw_img.c **** 
 134:Drivers/lvgl/src/draw/sw/lv_draw_sw_img.c ****         lv_draw_mask_res_t mask_res_def = (cf != LV_IMG_CF_TRUE_COLOR || draw_dsc->angle ||
 336              		.loc 1 134 28 view .LVU103
 337 00e0 0A99     		ldr	r1, [sp, #40]
 131:Drivers/lvgl/src/draw/sw/lv_draw_sw_img.c ****         blend_area.y2 = blend_area.y1 + buf_h - 1;
 338              		.loc 1 131 20 view .LVU104
 339 00e2 0C92     		str	r2, [sp, #48]
 132:Drivers/lvgl/src/draw/sw/lv_draw_sw_img.c **** 
 340              		.loc 1 132 47 view .LVU105
 341 00e4 5A1E     		subs	r2, r3, #1
 342 00e6 2A44     		add	r2, r2, r5
 343 00e8 12B2     		sxth	r2, r2
 344              		.loc 1 134 28 view .LVU106
 345 00ea 0429     		cmp	r1, #4
 126:Drivers/lvgl/src/draw/sw/lv_draw_sw_img.c ****         blend_dsc.mask_buf = mask_buf;
 346              		.loc 1 126 31 view .LVU107
 347 00ec 0990     		str	r0, [sp, #36]
 348              	.LVL26:
 127:Drivers/lvgl/src/draw/sw/lv_draw_sw_img.c ****         blend_dsc.mask_area = &blend_area;
 349              		.loc 1 127 9 is_stmt 1 view .LVU108
 127:Drivers/lvgl/src/draw/sw/lv_draw_sw_img.c ****         blend_dsc.mask_area = &blend_area;
 350              		.loc 1 127 28 is_stmt 0 view .LVU109
 351 00ee 2290     		str	r0, [sp, #136]
 128:Drivers/lvgl/src/draw/sw/lv_draw_sw_img.c ****         blend_dsc.mask_res = LV_DRAW_MASK_RES_CHANGED;
 352              		.loc 1 128 9 is_stmt 1 view .LVU110
 129:Drivers/lvgl/src/draw/sw/lv_draw_sw_img.c ****         blend_dsc.src_buf = rgb_buf;
 353              		.loc 1 129 9 view .LVU111
 130:Drivers/lvgl/src/draw/sw/lv_draw_sw_img.c ****         lv_coord_t y_last = blend_area.y2;
 354              		.loc 1 130 9 view .LVU112
 130:Drivers/lvgl/src/draw/sw/lv_draw_sw_img.c ****         lv_coord_t y_last = blend_area.y2;
 355              		.loc 1 130 27 is_stmt 0 view .LVU113
 356 00f0 2096     		str	r6, [sp, #128]
 131:Drivers/lvgl/src/draw/sw/lv_draw_sw_img.c ****         blend_area.y2 = blend_area.y1 + buf_h - 1;
 357              		.loc 1 131 9 is_stmt 1 view .LVU114
 358              	.LVL27:
 132:Drivers/lvgl/src/draw/sw/lv_draw_sw_img.c **** 
ARM GAS  /var/folders/0z/tsy30v1j4xl4_7kw94k978ww0000gn/T//cc6AX49L.s 			page 13


 359              		.loc 1 132 9 view .LVU115
 132:Drivers/lvgl/src/draw/sw/lv_draw_sw_img.c **** 
 360              		.loc 1 132 23 is_stmt 0 view .LVU116
 361 00f2 ADF87220 		strh	r2, [sp, #114]	@ movhi
 362              		.loc 1 134 9 is_stmt 1 view .LVU117
 363              		.loc 1 134 28 is_stmt 0 view .LVU118
 364 00f6 00F01982 		beq	.L64
 365 00fa 0221     		movs	r1, #2
 366              	.L10:
 367              	.LVL28:
 135:Drivers/lvgl/src/draw/sw/lv_draw_sw_img.c ****                                            draw_dsc->zoom != LV_IMG_ZOOM_NONE) ?
 136:Drivers/lvgl/src/draw/sw/lv_draw_sw_img.c ****                                           LV_DRAW_MASK_RES_CHANGED : LV_DRAW_MASK_RES_FULL_COVER;
 137:Drivers/lvgl/src/draw/sw/lv_draw_sw_img.c ****         blend_dsc.mask_res = mask_res_def;
 368              		.loc 1 137 9 is_stmt 1 discriminator 6 view .LVU119
 369              		.loc 1 137 28 is_stmt 0 discriminator 6 view .LVU120
 370 00fc 8DF88C10 		strb	r1, [sp, #140]
 138:Drivers/lvgl/src/draw/sw/lv_draw_sw_img.c **** 
 139:Drivers/lvgl/src/draw/sw/lv_draw_sw_img.c ****         while(blend_area.y1 <= y_last) {
 371              		.loc 1 139 9 is_stmt 1 discriminator 6 view .LVU121
 372              		.loc 1 139 29 discriminator 6 view .LVU122
 373 0100 0C99     		ldr	r1, [sp, #48]
 374              	.LVL29:
 375              		.loc 1 139 29 is_stmt 0 discriminator 6 view .LVU123
 376 0102 8B42     		cmp	r3, r1
 377 0104 00F30782 		bgt	.L38
 378 0108 0899     		ldr	r1, [sp, #32]
 379              	.LBB137:
 380              	.LBB138:
 381              	.LBB139:
 382              	.LBB140:
 140:Drivers/lvgl/src/draw/sw/lv_draw_sw_img.c ****             /*Apply transformations if any or separate the channels*/
 141:Drivers/lvgl/src/draw/sw/lv_draw_sw_img.c ****             lv_area_t transform_area;
 142:Drivers/lvgl/src/draw/sw/lv_draw_sw_img.c ****             lv_area_copy(&transform_area, &blend_area);
 143:Drivers/lvgl/src/draw/sw/lv_draw_sw_img.c ****             lv_area_move(&transform_area, -coords->x1, -coords->y1);
 144:Drivers/lvgl/src/draw/sw/lv_draw_sw_img.c ****             if(transform) {
 145:Drivers/lvgl/src/draw/sw/lv_draw_sw_img.c ****                 lv_draw_transform(draw_ctx, &transform_area, src_buf, src_w, src_h, src_w,
 146:Drivers/lvgl/src/draw/sw/lv_draw_sw_img.c ****                                   draw_dsc, cf, rgb_buf, mask_buf);
 147:Drivers/lvgl/src/draw/sw/lv_draw_sw_img.c ****             }
 148:Drivers/lvgl/src/draw/sw/lv_draw_sw_img.c ****             else {
 149:Drivers/lvgl/src/draw/sw/lv_draw_sw_img.c ****                 convert_cb(&transform_area, src_buf, src_w, src_h, src_w, draw_dsc, cf, rgb_buf, ma
 150:Drivers/lvgl/src/draw/sw/lv_draw_sw_img.c ****             }
 151:Drivers/lvgl/src/draw/sw/lv_draw_sw_img.c **** 
 152:Drivers/lvgl/src/draw/sw/lv_draw_sw_img.c ****             /*Apply recolor*/
 153:Drivers/lvgl/src/draw/sw/lv_draw_sw_img.c ****             if(draw_dsc->recolor_opa > LV_OPA_MIN) {
 154:Drivers/lvgl/src/draw/sw/lv_draw_sw_img.c ****                 uint16_t premult_v[3];
 155:Drivers/lvgl/src/draw/sw/lv_draw_sw_img.c ****                 lv_opa_t recolor_opa = draw_dsc->recolor_opa;
 156:Drivers/lvgl/src/draw/sw/lv_draw_sw_img.c ****                 lv_color_t recolor = draw_dsc->recolor;
 157:Drivers/lvgl/src/draw/sw/lv_draw_sw_img.c ****                 lv_color_premult(recolor, recolor_opa, premult_v);
 158:Drivers/lvgl/src/draw/sw/lv_draw_sw_img.c ****                 recolor_opa = 255 - recolor_opa;
 159:Drivers/lvgl/src/draw/sw/lv_draw_sw_img.c ****                 uint32_t i;
 160:Drivers/lvgl/src/draw/sw/lv_draw_sw_img.c ****                 for(i = 0; i < buf_size; i++) {
 161:Drivers/lvgl/src/draw/sw/lv_draw_sw_img.c ****                     rgb_buf[i] = lv_color_mix_premult(premult_v, rgb_buf[i], recolor_opa);
 162:Drivers/lvgl/src/draw/sw/lv_draw_sw_img.c ****                 }
 163:Drivers/lvgl/src/draw/sw/lv_draw_sw_img.c ****             }
 164:Drivers/lvgl/src/draw/sw/lv_draw_sw_img.c **** #if LV_DRAW_COMPLEX
 165:Drivers/lvgl/src/draw/sw/lv_draw_sw_img.c ****             /*Apply the masks if any*/
 166:Drivers/lvgl/src/draw/sw/lv_draw_sw_img.c ****             if(mask_any) {
ARM GAS  /var/folders/0z/tsy30v1j4xl4_7kw94k978ww0000gn/T//cc6AX49L.s 			page 14


 167:Drivers/lvgl/src/draw/sw/lv_draw_sw_img.c ****                 lv_coord_t y;
 168:Drivers/lvgl/src/draw/sw/lv_draw_sw_img.c ****                 lv_opa_t * mask_buf_tmp = mask_buf;
 169:Drivers/lvgl/src/draw/sw/lv_draw_sw_img.c ****                 for(y = blend_area.y1; y <= blend_area.y2; y++) {
 170:Drivers/lvgl/src/draw/sw/lv_draw_sw_img.c ****                     lv_draw_mask_res_t mask_res_line;
 171:Drivers/lvgl/src/draw/sw/lv_draw_sw_img.c ****                     mask_res_line = lv_draw_mask_apply(mask_buf_tmp, blend_area.x1, y, blend_w);
 172:Drivers/lvgl/src/draw/sw/lv_draw_sw_img.c **** 
 173:Drivers/lvgl/src/draw/sw/lv_draw_sw_img.c ****                     if(mask_res_line == LV_DRAW_MASK_RES_TRANSP) {
 174:Drivers/lvgl/src/draw/sw/lv_draw_sw_img.c ****                         lv_memset_00(mask_buf_tmp, blend_w);
 175:Drivers/lvgl/src/draw/sw/lv_draw_sw_img.c ****                         blend_dsc.mask_res = LV_DRAW_MASK_RES_CHANGED;
 176:Drivers/lvgl/src/draw/sw/lv_draw_sw_img.c ****                     }
 177:Drivers/lvgl/src/draw/sw/lv_draw_sw_img.c ****                     else if(mask_res_line == LV_DRAW_MASK_RES_CHANGED) {
 178:Drivers/lvgl/src/draw/sw/lv_draw_sw_img.c ****                         blend_dsc.mask_res = LV_DRAW_MASK_RES_CHANGED;
 179:Drivers/lvgl/src/draw/sw/lv_draw_sw_img.c ****                     }
 180:Drivers/lvgl/src/draw/sw/lv_draw_sw_img.c ****                     mask_buf_tmp += blend_w;
 181:Drivers/lvgl/src/draw/sw/lv_draw_sw_img.c ****                 }
 182:Drivers/lvgl/src/draw/sw/lv_draw_sw_img.c ****             }
 183:Drivers/lvgl/src/draw/sw/lv_draw_sw_img.c **** #endif
 184:Drivers/lvgl/src/draw/sw/lv_draw_sw_img.c **** 
 185:Drivers/lvgl/src/draw/sw/lv_draw_sw_img.c ****             /*Blend*/
 186:Drivers/lvgl/src/draw/sw/lv_draw_sw_img.c ****             lv_draw_sw_blend(draw_ctx, &blend_dsc);
 187:Drivers/lvgl/src/draw/sw/lv_draw_sw_img.c **** 
 188:Drivers/lvgl/src/draw/sw/lv_draw_sw_img.c ****             /*Go the the next lines*/
 189:Drivers/lvgl/src/draw/sw/lv_draw_sw_img.c ****             blend_area.y1 = blend_area.y2 + 1;
 190:Drivers/lvgl/src/draw/sw/lv_draw_sw_img.c ****             blend_area.y2 = blend_area.y1 + buf_h - 1;
 191:Drivers/lvgl/src/draw/sw/lv_draw_sw_img.c ****             if(blend_area.y2 > y_last) blend_area.y2 = y_last;
 192:Drivers/lvgl/src/draw/sw/lv_draw_sw_img.c ****         }
 193:Drivers/lvgl/src/draw/sw/lv_draw_sw_img.c **** 
 194:Drivers/lvgl/src/draw/sw/lv_draw_sw_img.c ****         lv_mem_buf_release(mask_buf);
 195:Drivers/lvgl/src/draw/sw/lv_draw_sw_img.c ****         lv_mem_buf_release(rgb_buf);
 196:Drivers/lvgl/src/draw/sw/lv_draw_sw_img.c ****     }
 197:Drivers/lvgl/src/draw/sw/lv_draw_sw_img.c **** }
 198:Drivers/lvgl/src/draw/sw/lv_draw_sw_img.c **** 
 199:Drivers/lvgl/src/draw/sw/lv_draw_sw_img.c **** /**********************
 200:Drivers/lvgl/src/draw/sw/lv_draw_sw_img.c ****  *   STATIC FUNCTIONS
 201:Drivers/lvgl/src/draw/sw/lv_draw_sw_img.c ****  **********************/
 202:Drivers/lvgl/src/draw/sw/lv_draw_sw_img.c **** 
 203:Drivers/lvgl/src/draw/sw/lv_draw_sw_img.c **** /* Separate the image channels to RGB and Alpha to match LV_COLOR_DEPTH settings*/
 204:Drivers/lvgl/src/draw/sw/lv_draw_sw_img.c **** static void convert_cb(const lv_area_t * dest_area, const void * src_buf, lv_coord_t src_w, lv_coor
 205:Drivers/lvgl/src/draw/sw/lv_draw_sw_img.c ****                        lv_coord_t src_stride, const lv_draw_img_dsc_t * draw_dsc, lv_img_cf_t cf, l
 206:Drivers/lvgl/src/draw/sw/lv_draw_sw_img.c **** {
 207:Drivers/lvgl/src/draw/sw/lv_draw_sw_img.c ****     LV_UNUSED(draw_dsc);
 208:Drivers/lvgl/src/draw/sw/lv_draw_sw_img.c ****     LV_UNUSED(src_h);
 209:Drivers/lvgl/src/draw/sw/lv_draw_sw_img.c ****     LV_UNUSED(src_w);
 210:Drivers/lvgl/src/draw/sw/lv_draw_sw_img.c **** 
 211:Drivers/lvgl/src/draw/sw/lv_draw_sw_img.c ****     const uint8_t * src_tmp8 = (const uint8_t *)src_buf;
 212:Drivers/lvgl/src/draw/sw/lv_draw_sw_img.c ****     lv_coord_t y;
 213:Drivers/lvgl/src/draw/sw/lv_draw_sw_img.c ****     lv_coord_t x;
 214:Drivers/lvgl/src/draw/sw/lv_draw_sw_img.c **** 
 215:Drivers/lvgl/src/draw/sw/lv_draw_sw_img.c ****     if(cf == LV_IMG_CF_TRUE_COLOR || cf == LV_IMG_CF_TRUE_COLOR_CHROMA_KEYED) {
 216:Drivers/lvgl/src/draw/sw/lv_draw_sw_img.c ****         uint32_t px_cnt = lv_area_get_size(dest_area);
 217:Drivers/lvgl/src/draw/sw/lv_draw_sw_img.c ****         lv_memset_ff(abuf, px_cnt);
 218:Drivers/lvgl/src/draw/sw/lv_draw_sw_img.c **** 
 219:Drivers/lvgl/src/draw/sw/lv_draw_sw_img.c ****         src_tmp8 += (src_stride * dest_area->y1 * sizeof(lv_color_t)) + dest_area->x1 * sizeof(lv_c
 220:Drivers/lvgl/src/draw/sw/lv_draw_sw_img.c ****         uint32_t dest_w = lv_area_get_width(dest_area);
 221:Drivers/lvgl/src/draw/sw/lv_draw_sw_img.c ****         uint32_t dest_w_byte = dest_w * sizeof(lv_color_t);
 222:Drivers/lvgl/src/draw/sw/lv_draw_sw_img.c **** 
 223:Drivers/lvgl/src/draw/sw/lv_draw_sw_img.c ****         lv_coord_t src_stride_byte = src_stride * sizeof(lv_color_t);
ARM GAS  /var/folders/0z/tsy30v1j4xl4_7kw94k978ww0000gn/T//cc6AX49L.s 			page 15


 224:Drivers/lvgl/src/draw/sw/lv_draw_sw_img.c ****         lv_color_t * cbuf_tmp = cbuf;
 225:Drivers/lvgl/src/draw/sw/lv_draw_sw_img.c ****         for(y = dest_area->y1; y <= dest_area->y2; y++) {
 226:Drivers/lvgl/src/draw/sw/lv_draw_sw_img.c ****             lv_memcpy(cbuf_tmp, src_tmp8, dest_w_byte);
 227:Drivers/lvgl/src/draw/sw/lv_draw_sw_img.c ****             src_tmp8 += src_stride_byte;
 228:Drivers/lvgl/src/draw/sw/lv_draw_sw_img.c ****             cbuf_tmp += dest_w;
 229:Drivers/lvgl/src/draw/sw/lv_draw_sw_img.c ****         }
 230:Drivers/lvgl/src/draw/sw/lv_draw_sw_img.c **** 
 231:Drivers/lvgl/src/draw/sw/lv_draw_sw_img.c ****         /*Make "holes" for with Chroma keying*/
 232:Drivers/lvgl/src/draw/sw/lv_draw_sw_img.c ****         if(cf == LV_IMG_CF_TRUE_COLOR_CHROMA_KEYED) {
 233:Drivers/lvgl/src/draw/sw/lv_draw_sw_img.c ****             uint32_t i;
 234:Drivers/lvgl/src/draw/sw/lv_draw_sw_img.c ****             lv_color_t chk = LV_COLOR_CHROMA_KEY;
 235:Drivers/lvgl/src/draw/sw/lv_draw_sw_img.c **** #if LV_COLOR_DEPTH == 8 || LV_COLOR_DEPTH == 1
 236:Drivers/lvgl/src/draw/sw/lv_draw_sw_img.c ****             uint8_t * cbuf_uint = (uint8_t *)cbuf;
 237:Drivers/lvgl/src/draw/sw/lv_draw_sw_img.c ****             uint8_t chk_v = chk.full;
 238:Drivers/lvgl/src/draw/sw/lv_draw_sw_img.c **** #elif LV_COLOR_DEPTH == 16
 239:Drivers/lvgl/src/draw/sw/lv_draw_sw_img.c ****             uint16_t * cbuf_uint = (uint16_t *)cbuf;
 240:Drivers/lvgl/src/draw/sw/lv_draw_sw_img.c ****             uint16_t chk_v = chk.full;
 241:Drivers/lvgl/src/draw/sw/lv_draw_sw_img.c **** #elif LV_COLOR_DEPTH == 32
 242:Drivers/lvgl/src/draw/sw/lv_draw_sw_img.c ****             uint32_t * cbuf_uint = (uint32_t *)cbuf;
 243:Drivers/lvgl/src/draw/sw/lv_draw_sw_img.c ****             uint32_t chk_v = chk.full;
 244:Drivers/lvgl/src/draw/sw/lv_draw_sw_img.c **** #endif
 245:Drivers/lvgl/src/draw/sw/lv_draw_sw_img.c ****             for(i = 0; i < px_cnt; i++) {
 246:Drivers/lvgl/src/draw/sw/lv_draw_sw_img.c ****                 if(chk_v == cbuf_uint[i]) abuf[i] = 0x00;
 247:Drivers/lvgl/src/draw/sw/lv_draw_sw_img.c ****             }
 248:Drivers/lvgl/src/draw/sw/lv_draw_sw_img.c ****         }
 249:Drivers/lvgl/src/draw/sw/lv_draw_sw_img.c ****     }
 250:Drivers/lvgl/src/draw/sw/lv_draw_sw_img.c ****     else if(cf == LV_IMG_CF_TRUE_COLOR_ALPHA) {
 251:Drivers/lvgl/src/draw/sw/lv_draw_sw_img.c ****         src_tmp8 += (src_stride * dest_area->y1 * LV_IMG_PX_SIZE_ALPHA_BYTE) + dest_area->x1 * LV_I
 252:Drivers/lvgl/src/draw/sw/lv_draw_sw_img.c **** 
 253:Drivers/lvgl/src/draw/sw/lv_draw_sw_img.c ****         lv_coord_t src_new_line_step_px = (src_stride - lv_area_get_width(dest_area));
 254:Drivers/lvgl/src/draw/sw/lv_draw_sw_img.c ****         lv_coord_t src_new_line_step_byte = src_new_line_step_px * LV_IMG_PX_SIZE_ALPHA_BYTE;
 255:Drivers/lvgl/src/draw/sw/lv_draw_sw_img.c **** 
 256:Drivers/lvgl/src/draw/sw/lv_draw_sw_img.c ****         lv_coord_t dest_h = lv_area_get_height(dest_area);
 257:Drivers/lvgl/src/draw/sw/lv_draw_sw_img.c ****         lv_coord_t dest_w = lv_area_get_width(dest_area);
 258:Drivers/lvgl/src/draw/sw/lv_draw_sw_img.c ****         for(y = 0; y < dest_h; y++) {
 259:Drivers/lvgl/src/draw/sw/lv_draw_sw_img.c ****             for(x = 0; x < dest_w; x++) {
 260:Drivers/lvgl/src/draw/sw/lv_draw_sw_img.c ****                 abuf[x] = src_tmp8[LV_IMG_PX_SIZE_ALPHA_BYTE - 1];
 261:Drivers/lvgl/src/draw/sw/lv_draw_sw_img.c **** #if LV_COLOR_DEPTH == 8 || LV_COLOR_DEPTH == 1
 262:Drivers/lvgl/src/draw/sw/lv_draw_sw_img.c ****                 cbuf[x].full = *src_tmp8;
 263:Drivers/lvgl/src/draw/sw/lv_draw_sw_img.c **** #elif LV_COLOR_DEPTH == 16
 264:Drivers/lvgl/src/draw/sw/lv_draw_sw_img.c ****                 cbuf[x].full = *src_tmp8 + ((*(src_tmp8 + 1)) << 8);
 265:Drivers/lvgl/src/draw/sw/lv_draw_sw_img.c **** #elif LV_COLOR_DEPTH == 32
 266:Drivers/lvgl/src/draw/sw/lv_draw_sw_img.c ****                 cbuf[x] = *((lv_color_t *) src_tmp8);
 267:Drivers/lvgl/src/draw/sw/lv_draw_sw_img.c ****                 cbuf[x].ch.alpha = 0xff;
 268:Drivers/lvgl/src/draw/sw/lv_draw_sw_img.c **** #endif
 269:Drivers/lvgl/src/draw/sw/lv_draw_sw_img.c ****                 src_tmp8 += LV_IMG_PX_SIZE_ALPHA_BYTE;
 270:Drivers/lvgl/src/draw/sw/lv_draw_sw_img.c **** 
 271:Drivers/lvgl/src/draw/sw/lv_draw_sw_img.c ****             }
 272:Drivers/lvgl/src/draw/sw/lv_draw_sw_img.c ****             cbuf += dest_w;
 273:Drivers/lvgl/src/draw/sw/lv_draw_sw_img.c ****             abuf += dest_w;
 274:Drivers/lvgl/src/draw/sw/lv_draw_sw_img.c ****             src_tmp8 += src_new_line_step_byte;
 275:Drivers/lvgl/src/draw/sw/lv_draw_sw_img.c ****         }
 276:Drivers/lvgl/src/draw/sw/lv_draw_sw_img.c ****     }
 277:Drivers/lvgl/src/draw/sw/lv_draw_sw_img.c ****     else if(cf == LV_IMG_CF_RGB565A8) {
 278:Drivers/lvgl/src/draw/sw/lv_draw_sw_img.c ****         src_tmp8 += (src_stride * dest_area->y1 * sizeof(lv_color_t)) + dest_area->x1 * sizeof(lv_c
 279:Drivers/lvgl/src/draw/sw/lv_draw_sw_img.c **** 
 280:Drivers/lvgl/src/draw/sw/lv_draw_sw_img.c ****         lv_coord_t src_stride_byte = src_stride * sizeof(lv_color_t);
ARM GAS  /var/folders/0z/tsy30v1j4xl4_7kw94k978ww0000gn/T//cc6AX49L.s 			page 16


 383              		.loc 1 280 20 view .LVU124
 384 010a 0D98     		ldr	r0, [sp, #52]
 385              	.LVL30:
 386              		.loc 1 280 20 view .LVU125
 387 010c 8B44     		add	fp, fp, r1
 388 010e 4100     		lsls	r1, r0, #1
 389 0110 09B2     		sxth	r1, r1
 390 0112 1391     		str	r1, [sp, #76]
 281:Drivers/lvgl/src/draw/sw/lv_draw_sw_img.c **** 
 282:Drivers/lvgl/src/draw/sw/lv_draw_sw_img.c ****         lv_coord_t dest_h = lv_area_get_height(dest_area);
 283:Drivers/lvgl/src/draw/sw/lv_draw_sw_img.c ****         lv_coord_t dest_w = lv_area_get_width(dest_area);
 284:Drivers/lvgl/src/draw/sw/lv_draw_sw_img.c ****         for(y = 0; y < dest_h; y++) {
 285:Drivers/lvgl/src/draw/sw/lv_draw_sw_img.c ****             lv_memcpy(cbuf, src_tmp8, dest_w * sizeof(lv_color_t));
 286:Drivers/lvgl/src/draw/sw/lv_draw_sw_img.c ****             cbuf += dest_w;
 287:Drivers/lvgl/src/draw/sw/lv_draw_sw_img.c ****             src_tmp8 += src_stride_byte;
 288:Drivers/lvgl/src/draw/sw/lv_draw_sw_img.c ****         }
 289:Drivers/lvgl/src/draw/sw/lv_draw_sw_img.c **** 
 290:Drivers/lvgl/src/draw/sw/lv_draw_sw_img.c ****         src_tmp8 = (const uint8_t *)src_buf;
 291:Drivers/lvgl/src/draw/sw/lv_draw_sw_img.c ****         src_tmp8 += sizeof(lv_color_t) * src_w * src_h;
 391              		.loc 1 291 48 view .LVU126
 392 0114 1199     		ldr	r1, [sp, #68]
 393 0116 00FB01F1 		mul	r1, r0, r1
 394 011a 4900     		lsls	r1, r1, #1
 395 011c 1591     		str	r1, [sp, #84]
 396 011e 30E0     		b	.L37
 397              	.LVL31:
 398              	.L66:
 399              		.loc 1 291 48 view .LVU127
 400              	.LBE140:
 401              	.LBE139:
 402              	.LBE138:
 145:Drivers/lvgl/src/draw/sw/lv_draw_sw_img.c ****                                   draw_dsc, cf, rgb_buf, mask_buf);
 403              		.loc 1 145 17 is_stmt 1 view .LVU128
 404 0120 099B     		ldr	r3, [sp, #36]
 405 0122 0593     		str	r3, [sp, #20]
 406 0124 089B     		ldr	r3, [sp, #32]
 407 0126 0493     		str	r3, [sp, #16]
 408 0128 0A9B     		ldr	r3, [sp, #40]
 409 012a 0393     		str	r3, [sp, #12]
 410 012c 079B     		ldr	r3, [sp, #28]
 411 012e 119A     		ldr	r2, [sp, #68]
 412 0130 0293     		str	r3, [sp, #8]
 413 0132 0D9B     		ldr	r3, [sp, #52]
 414 0134 0092     		str	r2, [sp]
 415 0136 0193     		str	r3, [sp, #4]
 416 0138 18EE102A 		vmov	r2, s16	@ int
 417 013c 1DA9     		add	r1, sp, #116
 418 013e 4846     		mov	r0, r9
 419 0140 FFF7FEFF 		bl	lv_draw_transform
 420              	.LVL32:
 421              	.L13:
 153:Drivers/lvgl/src/draw/sw/lv_draw_sw_img.c ****                 uint16_t premult_v[3];
 422              		.loc 1 153 13 view .LVU129
 153:Drivers/lvgl/src/draw/sw/lv_draw_sw_img.c ****                 uint16_t premult_v[3];
 423              		.loc 1 153 24 is_stmt 0 view .LVU130
 424 0144 079B     		ldr	r3, [sp, #28]
 425 0146 997A     		ldrb	r1, [r3, #10]	@ zero_extendqisi2
ARM GAS  /var/folders/0z/tsy30v1j4xl4_7kw94k978ww0000gn/T//cc6AX49L.s 			page 17


 153:Drivers/lvgl/src/draw/sw/lv_draw_sw_img.c ****                 uint16_t premult_v[3];
 426              		.loc 1 153 15 view .LVU131
 427 0148 0229     		cmp	r1, #2
 428 014a 00F2B080 		bhi	.L65
 429              	.L30:
 166:Drivers/lvgl/src/draw/sw/lv_draw_sw_img.c ****                 lv_coord_t y;
 430              		.loc 1 166 13 is_stmt 1 view .LVU132
 166:Drivers/lvgl/src/draw/sw/lv_draw_sw_img.c ****                 lv_coord_t y;
 431              		.loc 1 166 15 is_stmt 0 view .LVU133
 432 014e 0E9B     		ldr	r3, [sp, #56]
 433 0150 002B     		cmp	r3, #0
 434 0152 40F00681 		bne	.L36
 435              	.L39:
 186:Drivers/lvgl/src/draw/sw/lv_draw_sw_img.c **** 
 436              		.loc 1 186 13 is_stmt 1 view .LVU134
 437 0156 1FA9     		add	r1, sp, #124
 438 0158 4846     		mov	r0, r9
 439 015a FFF7FEFF 		bl	lv_draw_sw_blend
 440              	.LVL33:
 189:Drivers/lvgl/src/draw/sw/lv_draw_sw_img.c ****             blend_area.y2 = blend_area.y1 + buf_h - 1;
 441              		.loc 1 189 13 view .LVU135
 189:Drivers/lvgl/src/draw/sw/lv_draw_sw_img.c ****             blend_area.y2 = blend_area.y1 + buf_h - 1;
 442              		.loc 1 189 39 is_stmt 0 view .LVU136
 443 015e BDF87230 		ldrh	r3, [sp, #114]
 190:Drivers/lvgl/src/draw/sw/lv_draw_sw_img.c ****             if(blend_area.y2 > y_last) blend_area.y2 = y_last;
 444              		.loc 1 190 51 view .LVU137
 445 0162 109A     		ldr	r2, [sp, #64]
 446 0164 0C99     		ldr	r1, [sp, #48]
 447 0166 1A44     		add	r2, r2, r3
 448 0168 12B2     		sxth	r2, r2
 189:Drivers/lvgl/src/draw/sw/lv_draw_sw_img.c ****             blend_area.y2 = blend_area.y1 + buf_h - 1;
 449              		.loc 1 189 43 view .LVU138
 450 016a 0133     		adds	r3, r3, #1
 451 016c 1BB2     		sxth	r3, r3
 452 016e 8A42     		cmp	r2, r1
 453 0170 A8BF     		it	ge
 454 0172 0A46     		movge	r2, r1
 455              	.LBE137:
 139:Drivers/lvgl/src/draw/sw/lv_draw_sw_img.c ****             /*Apply transformations if any or separate the channels*/
 456              		.loc 1 139 29 view .LVU139
 457 0174 8B42     		cmp	r3, r1
 458              	.LBB228:
 189:Drivers/lvgl/src/draw/sw/lv_draw_sw_img.c ****             blend_area.y2 = blend_area.y1 + buf_h - 1;
 459              		.loc 1 189 27 view .LVU140
 460 0176 ADF86E30 		strh	r3, [sp, #110]	@ movhi
 190:Drivers/lvgl/src/draw/sw/lv_draw_sw_img.c ****             if(blend_area.y2 > y_last) blend_area.y2 = y_last;
 461              		.loc 1 190 13 is_stmt 1 view .LVU141
 191:Drivers/lvgl/src/draw/sw/lv_draw_sw_img.c ****         }
 462              		.loc 1 191 13 view .LVU142
 463 017a ADF87220 		strh	r2, [sp, #114]	@ movhi
 464              	.LBE228:
 139:Drivers/lvgl/src/draw/sw/lv_draw_sw_img.c ****             /*Apply transformations if any or separate the channels*/
 465              		.loc 1 139 29 view .LVU143
 466 017e 00F3CA81 		bgt	.L38
 467              	.L37:
 468              	.LBB229:
 141:Drivers/lvgl/src/draw/sw/lv_draw_sw_img.c ****             lv_area_copy(&transform_area, &blend_area);
ARM GAS  /var/folders/0z/tsy30v1j4xl4_7kw94k978ww0000gn/T//cc6AX49L.s 			page 18


 469              		.loc 1 141 13 view .LVU144
 142:Drivers/lvgl/src/draw/sw/lv_draw_sw_img.c ****             lv_area_move(&transform_area, -coords->x1, -coords->y1);
 470              		.loc 1 142 13 view .LVU145
 471              	.LVL34:
 472              	.LBB193:
 473              	.LBI193:
 110:Drivers/lvgl/src/draw/sw/../../misc/lv_area.h **** {
 474              		.loc 2 110 20 view .LVU146
 475              	.LBB194:
 112:Drivers/lvgl/src/draw/sw/../../misc/lv_area.h ****     dest->y1 = src->y1;
 476              		.loc 2 112 5 view .LVU147
 113:Drivers/lvgl/src/draw/sw/../../misc/lv_area.h ****     dest->x2 = src->x2;
 477              		.loc 2 113 14 is_stmt 0 view .LVU148
 478 0182 ADF87630 		strh	r3, [sp, #118]	@ movhi
 479              	.LBE194:
 480              	.LBE193:
 143:Drivers/lvgl/src/draw/sw/lv_draw_sw_img.c ****             if(transform) {
 481              		.loc 1 143 13 view .LVU149
 482 0186 0B9B     		ldr	r3, [sp, #44]
 483              	.LBB198:
 484              	.LBB195:
 115:Drivers/lvgl/src/draw/sw/../../misc/lv_area.h **** }
 485              		.loc 2 115 14 view .LVU150
 486 0188 ADF87A20 		strh	r2, [sp, #122]	@ movhi
 487              	.LBE195:
 488              	.LBE198:
 143:Drivers/lvgl/src/draw/sw/lv_draw_sw_img.c ****             if(transform) {
 489              		.loc 1 143 13 view .LVU151
 490 018c 1988     		ldrh	r1, [r3]
 491 018e 5A88     		ldrh	r2, [r3, #2]
 492              	.LBB199:
 493              	.LBB196:
 112:Drivers/lvgl/src/draw/sw/../../misc/lv_area.h ****     dest->y1 = src->y1;
 494              		.loc 2 112 14 view .LVU152
 495 0190 BDF86C30 		ldrh	r3, [sp, #108]
 496 0194 ADF87430 		strh	r3, [sp, #116]	@ movhi
 113:Drivers/lvgl/src/draw/sw/../../misc/lv_area.h ****     dest->x2 = src->x2;
 497              		.loc 2 113 5 is_stmt 1 view .LVU153
 114:Drivers/lvgl/src/draw/sw/../../misc/lv_area.h ****     dest->y2 = src->y2;
 498              		.loc 2 114 5 view .LVU154
 499              	.LBE196:
 500              	.LBE199:
 143:Drivers/lvgl/src/draw/sw/lv_draw_sw_img.c ****             if(transform) {
 501              		.loc 1 143 13 is_stmt 0 view .LVU155
 502 0198 5242     		rsbs	r2, r2, #0
 503 019a 4942     		rsbs	r1, r1, #0
 504              	.LBB200:
 505              	.LBB197:
 114:Drivers/lvgl/src/draw/sw/../../misc/lv_area.h ****     dest->y2 = src->y2;
 506              		.loc 2 114 14 view .LVU156
 507 019c BDF87030 		ldrh	r3, [sp, #112]
 508 01a0 ADF87830 		strh	r3, [sp, #120]	@ movhi
 115:Drivers/lvgl/src/draw/sw/../../misc/lv_area.h **** }
 509              		.loc 2 115 5 is_stmt 1 view .LVU157
 510              	.LVL35:
 115:Drivers/lvgl/src/draw/sw/../../misc/lv_area.h **** }
 511              		.loc 2 115 5 is_stmt 0 view .LVU158
ARM GAS  /var/folders/0z/tsy30v1j4xl4_7kw94k978ww0000gn/T//cc6AX49L.s 			page 19


 512              	.LBE197:
 513              	.LBE200:
 143:Drivers/lvgl/src/draw/sw/lv_draw_sw_img.c ****             if(transform) {
 514              		.loc 1 143 13 is_stmt 1 view .LVU159
 515 01a4 12B2     		sxth	r2, r2
 516 01a6 09B2     		sxth	r1, r1
 517 01a8 1DA8     		add	r0, sp, #116
 518 01aa FFF7FEFF 		bl	lv_area_move
 519              	.LVL36:
 144:Drivers/lvgl/src/draw/sw/lv_draw_sw_img.c ****                 lv_draw_transform(draw_ctx, &transform_area, src_buf, src_w, src_h, src_w,
 520              		.loc 1 144 13 view .LVU160
 144:Drivers/lvgl/src/draw/sw/lv_draw_sw_img.c ****                 lv_draw_transform(draw_ctx, &transform_area, src_buf, src_w, src_h, src_w,
 521              		.loc 1 144 15 is_stmt 0 view .LVU161
 522 01ae 0F9B     		ldr	r3, [sp, #60]
 523 01b0 B3F1807F 		cmp	r3, #16777216
 524 01b4 B4D1     		bne	.L66
 149:Drivers/lvgl/src/draw/sw/lv_draw_sw_img.c ****             }
 525              		.loc 1 149 17 is_stmt 1 view .LVU162
 526              	.LVL37:
 527              	.LBB201:
 528              	.LBI138:
 204:Drivers/lvgl/src/draw/sw/lv_draw_sw_img.c ****                        lv_coord_t src_stride, const lv_draw_img_dsc_t * draw_dsc, lv_img_cf_t cf, l
 529              		.loc 1 204 13 view .LVU163
 530              	.LBB191:
 207:Drivers/lvgl/src/draw/sw/lv_draw_sw_img.c ****     LV_UNUSED(src_h);
 531              		.loc 1 207 5 view .LVU164
 208:Drivers/lvgl/src/draw/sw/lv_draw_sw_img.c ****     LV_UNUSED(src_w);
 532              		.loc 1 208 5 view .LVU165
 209:Drivers/lvgl/src/draw/sw/lv_draw_sw_img.c **** 
 533              		.loc 1 209 5 view .LVU166
 211:Drivers/lvgl/src/draw/sw/lv_draw_sw_img.c ****     lv_coord_t y;
 534              		.loc 1 211 5 view .LVU167
 212:Drivers/lvgl/src/draw/sw/lv_draw_sw_img.c ****     lv_coord_t x;
 535              		.loc 1 212 5 view .LVU168
 213:Drivers/lvgl/src/draw/sw/lv_draw_sw_img.c **** 
 536              		.loc 1 213 5 view .LVU169
 215:Drivers/lvgl/src/draw/sw/lv_draw_sw_img.c ****         uint32_t px_cnt = lv_area_get_size(dest_area);
 537              		.loc 1 215 5 view .LVU170
 538 01b6 0A9B     		ldr	r3, [sp, #40]
 539 01b8 043B     		subs	r3, r3, #4
 540 01ba 102B     		cmp	r3, #16
 541 01bc C2D8     		bhi	.L13
 542 01be 01A2     		adr	r2, .L15
 543 01c0 52F823F0 		ldr	pc, [r2, r3, lsl #2]
 544              		.p2align 2
 545              	.L15:
 546 01c4 09020000 		.word	.L16+1
 547 01c8 51040000 		.word	.L17+1
 548 01cc 09020000 		.word	.L16+1
 549 01d0 45010000 		.word	.L13+1
 550 01d4 45010000 		.word	.L13+1
 551 01d8 45010000 		.word	.L13+1
 552 01dc 45010000 		.word	.L13+1
 553 01e0 45010000 		.word	.L13+1
 554 01e4 45010000 		.word	.L13+1
 555 01e8 45010000 		.word	.L13+1
 556 01ec 45010000 		.word	.L13+1
ARM GAS  /var/folders/0z/tsy30v1j4xl4_7kw94k978ww0000gn/T//cc6AX49L.s 			page 20


 557 01f0 45010000 		.word	.L13+1
 558 01f4 45010000 		.word	.L13+1
 559 01f8 45010000 		.word	.L13+1
 560 01fc 45010000 		.word	.L13+1
 561 0200 45010000 		.word	.L13+1
 562 0204 AF030000 		.word	.L14+1
 563              		.p2align 1
 564              	.L16:
 565              	.LBB157:
 216:Drivers/lvgl/src/draw/sw/lv_draw_sw_img.c ****         lv_memset_ff(abuf, px_cnt);
 566              		.loc 1 216 9 view .LVU171
 216:Drivers/lvgl/src/draw/sw/lv_draw_sw_img.c ****         lv_memset_ff(abuf, px_cnt);
 567              		.loc 1 216 27 is_stmt 0 view .LVU172
 568 0208 1DA8     		add	r0, sp, #116
 569              	.LVL38:
 216:Drivers/lvgl/src/draw/sw/lv_draw_sw_img.c ****         lv_memset_ff(abuf, px_cnt);
 570              		.loc 1 216 27 view .LVU173
 571 020a FFF7FEFF 		bl	lv_area_get_size
 572              	.LVL39:
 217:Drivers/lvgl/src/draw/sw/lv_draw_sw_img.c **** 
 573              		.loc 1 217 9 view .LVU174
 574 020e 0146     		mov	r1, r0
 216:Drivers/lvgl/src/draw/sw/lv_draw_sw_img.c ****         lv_memset_ff(abuf, px_cnt);
 575              		.loc 1 216 27 view .LVU175
 576 0210 0646     		mov	r6, r0
 577              	.LVL40:
 217:Drivers/lvgl/src/draw/sw/lv_draw_sw_img.c **** 
 578              		.loc 1 217 9 is_stmt 1 view .LVU176
 579 0212 0998     		ldr	r0, [sp, #36]
 580              	.LVL41:
 217:Drivers/lvgl/src/draw/sw/lv_draw_sw_img.c **** 
 581              		.loc 1 217 9 is_stmt 0 view .LVU177
 582 0214 FFF7FEFF 		bl	lv_memset_ff
 583              	.LVL42:
 219:Drivers/lvgl/src/draw/sw/lv_draw_sw_img.c ****         uint32_t dest_w = lv_area_get_width(dest_area);
 584              		.loc 1 219 9 is_stmt 1 view .LVU178
 585              	.LBB158:
 586              	.LBB159:
 125:Drivers/lvgl/src/draw/sw/../../misc/lv_area.h **** }
 587              		.loc 2 125 49 is_stmt 0 view .LVU179
 588 0218 BDF87880 		ldrh	r8, [sp, #120]
 589              	.LBE159:
 590              	.LBE158:
 219:Drivers/lvgl/src/draw/sw/lv_draw_sw_img.c ****         uint32_t dest_w = lv_area_get_width(dest_area);
 591              		.loc 1 219 82 view .LVU180
 592 021c BDF97430 		ldrsh	r3, [sp, #116]
 219:Drivers/lvgl/src/draw/sw/lv_draw_sw_img.c ****         uint32_t dest_w = lv_area_get_width(dest_area);
 593              		.loc 1 219 44 view .LVU181
 594 0220 BDF97640 		ldrsh	r4, [sp, #118]
 219:Drivers/lvgl/src/draw/sw/lv_draw_sw_img.c ****         uint32_t dest_w = lv_area_get_width(dest_area);
 595              		.loc 1 219 71 view .LVU182
 596 0224 0D9A     		ldr	r2, [sp, #52]
 597              	.LBB162:
 598              	.LBB160:
 125:Drivers/lvgl/src/draw/sw/../../misc/lv_area.h **** }
 599              		.loc 2 125 49 view .LVU183
 600 0226 08F10108 		add	r8, r8, #1
ARM GAS  /var/folders/0z/tsy30v1j4xl4_7kw94k978ww0000gn/T//cc6AX49L.s 			page 21


 601 022a A8EB0308 		sub	r8, r8, r3
 602              	.LBE160:
 603              	.LBE162:
 219:Drivers/lvgl/src/draw/sw/lv_draw_sw_img.c ****         uint32_t dest_w = lv_area_get_width(dest_area);
 604              		.loc 1 219 71 view .LVU184
 605 022e 02FB0433 		mla	r3, r2, r4, r3
 219:Drivers/lvgl/src/draw/sw/lv_draw_sw_img.c ****         uint32_t dest_w = lv_area_get_width(dest_area);
 606              		.loc 1 219 18 view .LVU185
 607 0232 18EE102A 		vmov	r2, s16	@ int
 608 0236 02EB4305 		add	r5, r2, r3, lsl #1
 609              	.LVL43:
 220:Drivers/lvgl/src/draw/sw/lv_draw_sw_img.c ****         uint32_t dest_w_byte = dest_w * sizeof(lv_color_t);
 610              		.loc 1 220 9 is_stmt 1 view .LVU186
 611              	.LBB163:
 612              	.LBI158:
 123:Drivers/lvgl/src/draw/sw/../../misc/lv_area.h **** {
 613              		.loc 2 123 26 view .LVU187
 614              	.LBB161:
 125:Drivers/lvgl/src/draw/sw/../../misc/lv_area.h **** }
 615              		.loc 2 125 5 view .LVU188
 125:Drivers/lvgl/src/draw/sw/../../misc/lv_area.h **** }
 616              		.loc 2 125 5 is_stmt 0 view .LVU189
 617              	.LBE161:
 618              	.LBE163:
 221:Drivers/lvgl/src/draw/sw/lv_draw_sw_img.c **** 
 619              		.loc 1 221 9 is_stmt 1 view .LVU190
 225:Drivers/lvgl/src/draw/sw/lv_draw_sw_img.c ****             lv_memcpy(cbuf_tmp, src_tmp8, dest_w_byte);
 620              		.loc 1 225 34 is_stmt 0 view .LVU191
 621 023a BDF97A30 		ldrsh	r3, [sp, #122]
 221:Drivers/lvgl/src/draw/sw/lv_draw_sw_img.c **** 
 622              		.loc 1 221 18 view .LVU192
 623 023e 0FFA88F8 		sxth	r8, r8
 225:Drivers/lvgl/src/draw/sw/lv_draw_sw_img.c ****             lv_memcpy(cbuf_tmp, src_tmp8, dest_w_byte);
 624              		.loc 1 225 34 view .LVU193
 625 0242 A342     		cmp	r3, r4
 221:Drivers/lvgl/src/draw/sw/lv_draw_sw_img.c **** 
 626              		.loc 1 221 18 view .LVU194
 627 0244 4FEA4808 		lsl	r8, r8, #1
 628              	.LVL44:
 223:Drivers/lvgl/src/draw/sw/lv_draw_sw_img.c ****         lv_color_t * cbuf_tmp = cbuf;
 629              		.loc 1 223 9 is_stmt 1 view .LVU195
 224:Drivers/lvgl/src/draw/sw/lv_draw_sw_img.c ****         for(y = dest_area->y1; y <= dest_area->y2; y++) {
 630              		.loc 1 224 9 view .LVU196
 225:Drivers/lvgl/src/draw/sw/lv_draw_sw_img.c ****             lv_memcpy(cbuf_tmp, src_tmp8, dest_w_byte);
 631              		.loc 1 225 9 view .LVU197
 225:Drivers/lvgl/src/draw/sw/lv_draw_sw_img.c ****             lv_memcpy(cbuf_tmp, src_tmp8, dest_w_byte);
 632              		.loc 1 225 34 view .LVU198
 633 0248 14DB     		blt	.L22
 634              	.LVL45:
 224:Drivers/lvgl/src/draw/sw/lv_draw_sw_img.c ****         for(y = dest_area->y1; y <= dest_area->y2; y++) {
 635              		.loc 1 224 22 is_stmt 0 view .LVU199
 636 024a 08EE909A 		vmov	s17, r9	@ int
 637 024e 089F     		ldr	r7, [sp, #32]
 638 0250 C146     		mov	r9, r8
 639              	.LVL46:
 224:Drivers/lvgl/src/draw/sw/lv_draw_sw_img.c ****         for(y = dest_area->y1; y <= dest_area->y2; y++) {
 640              		.loc 1 224 22 view .LVU200
ARM GAS  /var/folders/0z/tsy30v1j4xl4_7kw94k978ww0000gn/T//cc6AX49L.s 			page 22


 641 0252 DDF84C80 		ldr	r8, [sp, #76]
 642              	.LVL47:
 643              	.L21:
 226:Drivers/lvgl/src/draw/sw/lv_draw_sw_img.c ****             src_tmp8 += src_stride_byte;
 644              		.loc 1 226 13 is_stmt 1 view .LVU201
 645 0256 2946     		mov	r1, r5
 646 0258 3846     		mov	r0, r7
 647 025a 4A46     		mov	r2, r9
 648 025c FFF7FEFF 		bl	lv_memcpy
 649              	.LVL48:
 227:Drivers/lvgl/src/draw/sw/lv_draw_sw_img.c ****             cbuf_tmp += dest_w;
 650              		.loc 1 227 13 view .LVU202
 651 0260 0134     		adds	r4, r4, #1
 652              	.LVL49:
 225:Drivers/lvgl/src/draw/sw/lv_draw_sw_img.c ****             lv_memcpy(cbuf_tmp, src_tmp8, dest_w_byte);
 653              		.loc 1 225 34 is_stmt 0 view .LVU203
 654 0262 BDF97A30 		ldrsh	r3, [sp, #122]
 655 0266 24B2     		sxth	r4, r4
 656 0268 A342     		cmp	r3, r4
 227:Drivers/lvgl/src/draw/sw/lv_draw_sw_img.c ****             cbuf_tmp += dest_w;
 657              		.loc 1 227 22 view .LVU204
 658 026a 4544     		add	r5, r5, r8
 659              	.LVL50:
 228:Drivers/lvgl/src/draw/sw/lv_draw_sw_img.c ****         }
 660              		.loc 1 228 13 is_stmt 1 view .LVU205
 228:Drivers/lvgl/src/draw/sw/lv_draw_sw_img.c ****         }
 661              		.loc 1 228 22 is_stmt 0 view .LVU206
 662 026c 4F44     		add	r7, r7, r9
 663              	.LVL51:
 225:Drivers/lvgl/src/draw/sw/lv_draw_sw_img.c ****             lv_memcpy(cbuf_tmp, src_tmp8, dest_w_byte);
 664              		.loc 1 225 53 is_stmt 1 view .LVU207
 225:Drivers/lvgl/src/draw/sw/lv_draw_sw_img.c ****             lv_memcpy(cbuf_tmp, src_tmp8, dest_w_byte);
 665              		.loc 1 225 34 view .LVU208
 666 026e F2DA     		bge	.L21
 667 0270 18EE909A 		vmov	r9, s17	@ int
 668              	.LVL52:
 669              	.L22:
 232:Drivers/lvgl/src/draw/sw/lv_draw_sw_img.c ****             uint32_t i;
 670              		.loc 1 232 9 view .LVU209
 232:Drivers/lvgl/src/draw/sw/lv_draw_sw_img.c ****             uint32_t i;
 671              		.loc 1 232 11 is_stmt 0 view .LVU210
 672 0274 0A9B     		ldr	r3, [sp, #40]
 673 0276 062B     		cmp	r3, #6
 674 0278 7FF464AF 		bne	.L13
 675              	.LVL53:
 676              	.LBB164:
 245:Drivers/lvgl/src/draw/sw/lv_draw_sw_img.c ****                 if(chk_v == cbuf_uint[i]) abuf[i] = 0x00;
 677              		.loc 1 245 26 is_stmt 1 view .LVU211
 678 027c 002E     		cmp	r6, #0
 679 027e 3FF461AF 		beq	.L13
 680 0282 089B     		ldr	r3, [sp, #32]
 681 0284 099A     		ldr	r2, [sp, #36]
 682 0286 023B     		subs	r3, r3, #2
 683 0288 03EB4606 		add	r6, r3, r6, lsl #1
 684              	.LVL54:
 246:Drivers/lvgl/src/draw/sw/lv_draw_sw_img.c ****             }
 685              		.loc 1 246 19 is_stmt 0 view .LVU212
ARM GAS  /var/folders/0z/tsy30v1j4xl4_7kw94k978ww0000gn/T//cc6AX49L.s 			page 23


 686 028c 4EF20700 		movw	r0, #57351
 687              	.LVL55:
 688              	.L24:
 246:Drivers/lvgl/src/draw/sw/lv_draw_sw_img.c ****             }
 689              		.loc 1 246 17 is_stmt 1 view .LVU213
 245:Drivers/lvgl/src/draw/sw/lv_draw_sw_img.c ****                 if(chk_v == cbuf_uint[i]) abuf[i] = 0x00;
 690              		.loc 1 245 37 view .LVU214
 245:Drivers/lvgl/src/draw/sw/lv_draw_sw_img.c ****                 if(chk_v == cbuf_uint[i]) abuf[i] = 0x00;
 691              		.loc 1 245 26 view .LVU215
 246:Drivers/lvgl/src/draw/sw/lv_draw_sw_img.c ****             }
 692              		.loc 1 246 19 is_stmt 0 view .LVU216
 693 0290 33F8021F 		ldrh	r1, [r3, #2]!
 694 0294 8142     		cmp	r1, r0
 246:Drivers/lvgl/src/draw/sw/lv_draw_sw_img.c ****             }
 695              		.loc 1 246 43 is_stmt 1 view .LVU217
 246:Drivers/lvgl/src/draw/sw/lv_draw_sw_img.c ****             }
 696              		.loc 1 246 51 is_stmt 0 view .LVU218
 697 0296 04BF     		itt	eq
 698 0298 0021     		moveq	r1, #0
 699 029a 1170     		strbeq	r1, [r2]
 245:Drivers/lvgl/src/draw/sw/lv_draw_sw_img.c ****                 if(chk_v == cbuf_uint[i]) abuf[i] = 0x00;
 700              		.loc 1 245 26 view .LVU219
 701 029c B342     		cmp	r3, r6
 702 029e 02F10102 		add	r2, r2, #1
 703 02a2 F5D1     		bne	.L24
 704              	.LVL56:
 245:Drivers/lvgl/src/draw/sw/lv_draw_sw_img.c ****                 if(chk_v == cbuf_uint[i]) abuf[i] = 0x00;
 705              		.loc 1 245 26 view .LVU220
 706              	.LBE164:
 707              	.LBE157:
 708              	.LBE191:
 709              	.LBE201:
 153:Drivers/lvgl/src/draw/sw/lv_draw_sw_img.c ****                 uint16_t premult_v[3];
 710              		.loc 1 153 13 is_stmt 1 view .LVU221
 153:Drivers/lvgl/src/draw/sw/lv_draw_sw_img.c ****                 uint16_t premult_v[3];
 711              		.loc 1 153 24 is_stmt 0 view .LVU222
 712 02a4 079B     		ldr	r3, [sp, #28]
 713 02a6 997A     		ldrb	r1, [r3, #10]	@ zero_extendqisi2
 153:Drivers/lvgl/src/draw/sw/lv_draw_sw_img.c ****                 uint16_t premult_v[3];
 714              		.loc 1 153 15 view .LVU223
 715 02a8 0229     		cmp	r1, #2
 716 02aa 7FF650AF 		bls	.L30
 717              	.L65:
 718              	.LBB202:
 154:Drivers/lvgl/src/draw/sw/lv_draw_sw_img.c ****                 lv_opa_t recolor_opa = draw_dsc->recolor_opa;
 719              		.loc 1 154 17 is_stmt 1 view .LVU224
 155:Drivers/lvgl/src/draw/sw/lv_draw_sw_img.c ****                 lv_color_t recolor = draw_dsc->recolor;
 720              		.loc 1 155 17 view .LVU225
 721              	.LVL57:
 156:Drivers/lvgl/src/draw/sw/lv_draw_sw_img.c ****                 lv_color_premult(recolor, recolor_opa, premult_v);
 722              		.loc 1 156 17 view .LVU226
 157:Drivers/lvgl/src/draw/sw/lv_draw_sw_img.c ****                 recolor_opa = 255 - recolor_opa;
 723              		.loc 1 157 17 view .LVU227
 724              	.LBB203:
 725              	.LBI203:
 726              		.file 3 "Drivers/lvgl/src/draw/sw/../../misc/lv_color.h"
   1:Drivers/lvgl/src/draw/sw/../../misc/lv_color.h **** /**
ARM GAS  /var/folders/0z/tsy30v1j4xl4_7kw94k978ww0000gn/T//cc6AX49L.s 			page 24


   2:Drivers/lvgl/src/draw/sw/../../misc/lv_color.h ****  * @file lv_color.h
   3:Drivers/lvgl/src/draw/sw/../../misc/lv_color.h ****  *
   4:Drivers/lvgl/src/draw/sw/../../misc/lv_color.h ****  */
   5:Drivers/lvgl/src/draw/sw/../../misc/lv_color.h **** 
   6:Drivers/lvgl/src/draw/sw/../../misc/lv_color.h **** #ifndef LV_COLOR_H
   7:Drivers/lvgl/src/draw/sw/../../misc/lv_color.h **** #define LV_COLOR_H
   8:Drivers/lvgl/src/draw/sw/../../misc/lv_color.h **** 
   9:Drivers/lvgl/src/draw/sw/../../misc/lv_color.h **** #ifdef __cplusplus
  10:Drivers/lvgl/src/draw/sw/../../misc/lv_color.h **** extern "C" {
  11:Drivers/lvgl/src/draw/sw/../../misc/lv_color.h **** #endif
  12:Drivers/lvgl/src/draw/sw/../../misc/lv_color.h **** 
  13:Drivers/lvgl/src/draw/sw/../../misc/lv_color.h **** /*********************
  14:Drivers/lvgl/src/draw/sw/../../misc/lv_color.h ****  *      INCLUDES
  15:Drivers/lvgl/src/draw/sw/../../misc/lv_color.h ****  *********************/
  16:Drivers/lvgl/src/draw/sw/../../misc/lv_color.h **** #include "../lv_conf_internal.h"
  17:Drivers/lvgl/src/draw/sw/../../misc/lv_color.h **** #include "lv_assert.h"
  18:Drivers/lvgl/src/draw/sw/../../misc/lv_color.h **** #include "lv_math.h"
  19:Drivers/lvgl/src/draw/sw/../../misc/lv_color.h **** #include "lv_types.h"
  20:Drivers/lvgl/src/draw/sw/../../misc/lv_color.h **** 
  21:Drivers/lvgl/src/draw/sw/../../misc/lv_color.h **** /*Error checking*/
  22:Drivers/lvgl/src/draw/sw/../../misc/lv_color.h **** #if LV_COLOR_DEPTH == 24
  23:Drivers/lvgl/src/draw/sw/../../misc/lv_color.h **** #error "LV_COLOR_DEPTH 24 is deprecated. Use LV_COLOR_DEPTH 32 instead (lv_conf.h)"
  24:Drivers/lvgl/src/draw/sw/../../misc/lv_color.h **** #endif
  25:Drivers/lvgl/src/draw/sw/../../misc/lv_color.h **** 
  26:Drivers/lvgl/src/draw/sw/../../misc/lv_color.h **** #if LV_COLOR_DEPTH != 16 && LV_COLOR_16_SWAP != 0
  27:Drivers/lvgl/src/draw/sw/../../misc/lv_color.h **** #error "LV_COLOR_16_SWAP requires LV_COLOR_DEPTH == 16. Set it in lv_conf.h"
  28:Drivers/lvgl/src/draw/sw/../../misc/lv_color.h **** #endif
  29:Drivers/lvgl/src/draw/sw/../../misc/lv_color.h **** 
  30:Drivers/lvgl/src/draw/sw/../../misc/lv_color.h **** #include <stdint.h>
  31:Drivers/lvgl/src/draw/sw/../../misc/lv_color.h **** 
  32:Drivers/lvgl/src/draw/sw/../../misc/lv_color.h **** /*********************
  33:Drivers/lvgl/src/draw/sw/../../misc/lv_color.h ****  *      DEFINES
  34:Drivers/lvgl/src/draw/sw/../../misc/lv_color.h ****  *********************/
  35:Drivers/lvgl/src/draw/sw/../../misc/lv_color.h **** LV_EXPORT_CONST_INT(LV_COLOR_DEPTH);
  36:Drivers/lvgl/src/draw/sw/../../misc/lv_color.h **** LV_EXPORT_CONST_INT(LV_COLOR_16_SWAP);
  37:Drivers/lvgl/src/draw/sw/../../misc/lv_color.h **** 
  38:Drivers/lvgl/src/draw/sw/../../misc/lv_color.h **** /**
  39:Drivers/lvgl/src/draw/sw/../../misc/lv_color.h ****  * Opacity percentages.
  40:Drivers/lvgl/src/draw/sw/../../misc/lv_color.h ****  */
  41:Drivers/lvgl/src/draw/sw/../../misc/lv_color.h **** enum {
  42:Drivers/lvgl/src/draw/sw/../../misc/lv_color.h ****     LV_OPA_TRANSP = 0,
  43:Drivers/lvgl/src/draw/sw/../../misc/lv_color.h ****     LV_OPA_0      = 0,
  44:Drivers/lvgl/src/draw/sw/../../misc/lv_color.h ****     LV_OPA_10     = 25,
  45:Drivers/lvgl/src/draw/sw/../../misc/lv_color.h ****     LV_OPA_20     = 51,
  46:Drivers/lvgl/src/draw/sw/../../misc/lv_color.h ****     LV_OPA_30     = 76,
  47:Drivers/lvgl/src/draw/sw/../../misc/lv_color.h ****     LV_OPA_40     = 102,
  48:Drivers/lvgl/src/draw/sw/../../misc/lv_color.h ****     LV_OPA_50     = 127,
  49:Drivers/lvgl/src/draw/sw/../../misc/lv_color.h ****     LV_OPA_60     = 153,
  50:Drivers/lvgl/src/draw/sw/../../misc/lv_color.h ****     LV_OPA_70     = 178,
  51:Drivers/lvgl/src/draw/sw/../../misc/lv_color.h ****     LV_OPA_80     = 204,
  52:Drivers/lvgl/src/draw/sw/../../misc/lv_color.h ****     LV_OPA_90     = 229,
  53:Drivers/lvgl/src/draw/sw/../../misc/lv_color.h ****     LV_OPA_100    = 255,
  54:Drivers/lvgl/src/draw/sw/../../misc/lv_color.h ****     LV_OPA_COVER  = 255,
  55:Drivers/lvgl/src/draw/sw/../../misc/lv_color.h **** };
  56:Drivers/lvgl/src/draw/sw/../../misc/lv_color.h **** 
  57:Drivers/lvgl/src/draw/sw/../../misc/lv_color.h **** #define LV_OPA_MIN 2    /*Opacities below this will be transparent*/
  58:Drivers/lvgl/src/draw/sw/../../misc/lv_color.h **** #define LV_OPA_MAX 253  /*Opacities above this will fully cover*/
ARM GAS  /var/folders/0z/tsy30v1j4xl4_7kw94k978ww0000gn/T//cc6AX49L.s 			page 25


  59:Drivers/lvgl/src/draw/sw/../../misc/lv_color.h **** 
  60:Drivers/lvgl/src/draw/sw/../../misc/lv_color.h **** #if LV_COLOR_DEPTH == 1
  61:Drivers/lvgl/src/draw/sw/../../misc/lv_color.h **** #define LV_COLOR_SIZE 8
  62:Drivers/lvgl/src/draw/sw/../../misc/lv_color.h **** #elif LV_COLOR_DEPTH == 8
  63:Drivers/lvgl/src/draw/sw/../../misc/lv_color.h **** #define LV_COLOR_SIZE 8
  64:Drivers/lvgl/src/draw/sw/../../misc/lv_color.h **** #elif LV_COLOR_DEPTH == 16
  65:Drivers/lvgl/src/draw/sw/../../misc/lv_color.h **** #define LV_COLOR_SIZE 16
  66:Drivers/lvgl/src/draw/sw/../../misc/lv_color.h **** #elif LV_COLOR_DEPTH == 32
  67:Drivers/lvgl/src/draw/sw/../../misc/lv_color.h **** #define LV_COLOR_SIZE 32
  68:Drivers/lvgl/src/draw/sw/../../misc/lv_color.h **** #else
  69:Drivers/lvgl/src/draw/sw/../../misc/lv_color.h **** #error "Invalid LV_COLOR_DEPTH in lv_conf.h! Set it to 1, 8, 16 or 32!"
  70:Drivers/lvgl/src/draw/sw/../../misc/lv_color.h **** #endif
  71:Drivers/lvgl/src/draw/sw/../../misc/lv_color.h **** 
  72:Drivers/lvgl/src/draw/sw/../../misc/lv_color.h **** #if defined(__cplusplus) && !defined(_LV_COLOR_HAS_MODERN_CPP)
  73:Drivers/lvgl/src/draw/sw/../../misc/lv_color.h **** /**
  74:Drivers/lvgl/src/draw/sw/../../misc/lv_color.h **** * MSVC compiler's definition of the __cplusplus indicating 199711L regardless to C++ standard versi
  75:Drivers/lvgl/src/draw/sw/../../misc/lv_color.h **** * see https://devblogs.microsoft.com/cppblog/msvc-now-correctly-reports-cplusplus
  76:Drivers/lvgl/src/draw/sw/../../misc/lv_color.h **** * so we use _MSC_VER macro instead of __cplusplus
  77:Drivers/lvgl/src/draw/sw/../../misc/lv_color.h **** */
  78:Drivers/lvgl/src/draw/sw/../../misc/lv_color.h **** #ifdef _MSC_VER
  79:Drivers/lvgl/src/draw/sw/../../misc/lv_color.h **** #if _MSC_VER >= 1900 /*Visual Studio 2015*/
  80:Drivers/lvgl/src/draw/sw/../../misc/lv_color.h **** #define _LV_COLOR_HAS_MODERN_CPP 1
  81:Drivers/lvgl/src/draw/sw/../../misc/lv_color.h **** #endif
  82:Drivers/lvgl/src/draw/sw/../../misc/lv_color.h **** #else
  83:Drivers/lvgl/src/draw/sw/../../misc/lv_color.h **** #if __cplusplus >= 201103L
  84:Drivers/lvgl/src/draw/sw/../../misc/lv_color.h **** #define _LV_COLOR_HAS_MODERN_CPP 1
  85:Drivers/lvgl/src/draw/sw/../../misc/lv_color.h **** #endif
  86:Drivers/lvgl/src/draw/sw/../../misc/lv_color.h **** #endif
  87:Drivers/lvgl/src/draw/sw/../../misc/lv_color.h **** #endif /*__cplusplus*/
  88:Drivers/lvgl/src/draw/sw/../../misc/lv_color.h **** 
  89:Drivers/lvgl/src/draw/sw/../../misc/lv_color.h **** #ifndef _LV_COLOR_HAS_MODERN_CPP
  90:Drivers/lvgl/src/draw/sw/../../misc/lv_color.h **** #define _LV_COLOR_HAS_MODERN_CPP 0
  91:Drivers/lvgl/src/draw/sw/../../misc/lv_color.h **** #endif
  92:Drivers/lvgl/src/draw/sw/../../misc/lv_color.h **** 
  93:Drivers/lvgl/src/draw/sw/../../misc/lv_color.h **** #if _LV_COLOR_HAS_MODERN_CPP
  94:Drivers/lvgl/src/draw/sw/../../misc/lv_color.h **** /*Fix msvc compiler error C4576 inside C++ code*/
  95:Drivers/lvgl/src/draw/sw/../../misc/lv_color.h **** #define _LV_COLOR_MAKE_TYPE_HELPER lv_color_t
  96:Drivers/lvgl/src/draw/sw/../../misc/lv_color.h **** #else
  97:Drivers/lvgl/src/draw/sw/../../misc/lv_color.h **** #define _LV_COLOR_MAKE_TYPE_HELPER (lv_color_t)
  98:Drivers/lvgl/src/draw/sw/../../misc/lv_color.h **** #endif
  99:Drivers/lvgl/src/draw/sw/../../misc/lv_color.h **** 
 100:Drivers/lvgl/src/draw/sw/../../misc/lv_color.h **** /*---------------------------------------
 101:Drivers/lvgl/src/draw/sw/../../misc/lv_color.h ****  * Macros for all existing color depths
 102:Drivers/lvgl/src/draw/sw/../../misc/lv_color.h ****  * to set/get values of the color channels
 103:Drivers/lvgl/src/draw/sw/../../misc/lv_color.h ****  *------------------------------------------*/
 104:Drivers/lvgl/src/draw/sw/../../misc/lv_color.h **** # define LV_COLOR_SET_R1(c, v) (c).ch.red = (uint8_t)((v) & 0x1)
 105:Drivers/lvgl/src/draw/sw/../../misc/lv_color.h **** # define LV_COLOR_SET_G1(c, v) (c).ch.green = (uint8_t)((v) & 0x1)
 106:Drivers/lvgl/src/draw/sw/../../misc/lv_color.h **** # define LV_COLOR_SET_B1(c, v) (c).ch.blue = (uint8_t)((v) & 0x1)
 107:Drivers/lvgl/src/draw/sw/../../misc/lv_color.h **** # define LV_COLOR_SET_A1(c, v) do {} while(0)
 108:Drivers/lvgl/src/draw/sw/../../misc/lv_color.h **** 
 109:Drivers/lvgl/src/draw/sw/../../misc/lv_color.h **** # define LV_COLOR_GET_R1(c) (c).ch.red
 110:Drivers/lvgl/src/draw/sw/../../misc/lv_color.h **** # define LV_COLOR_GET_G1(c) (c).ch.green
 111:Drivers/lvgl/src/draw/sw/../../misc/lv_color.h **** # define LV_COLOR_GET_B1(c) (c).ch.blue
 112:Drivers/lvgl/src/draw/sw/../../misc/lv_color.h **** # define LV_COLOR_GET_A1(c) 0xFF
 113:Drivers/lvgl/src/draw/sw/../../misc/lv_color.h **** 
 114:Drivers/lvgl/src/draw/sw/../../misc/lv_color.h **** # define _LV_COLOR_ZERO_INITIALIZER1 {0x00}
 115:Drivers/lvgl/src/draw/sw/../../misc/lv_color.h **** # define LV_COLOR_MAKE1(r8, g8, b8)  {(uint8_t)((b8 >> 7) | (g8 >> 7) | (r8 >> 7))}
ARM GAS  /var/folders/0z/tsy30v1j4xl4_7kw94k978ww0000gn/T//cc6AX49L.s 			page 26


 116:Drivers/lvgl/src/draw/sw/../../misc/lv_color.h **** 
 117:Drivers/lvgl/src/draw/sw/../../misc/lv_color.h **** # define LV_COLOR_SET_R8(c, v) (c).ch.red = (uint8_t)((v) & 0x7U)
 118:Drivers/lvgl/src/draw/sw/../../misc/lv_color.h **** # define LV_COLOR_SET_G8(c, v) (c).ch.green = (uint8_t)((v) & 0x7U)
 119:Drivers/lvgl/src/draw/sw/../../misc/lv_color.h **** # define LV_COLOR_SET_B8(c, v) (c).ch.blue = (uint8_t)((v) & 0x3U)
 120:Drivers/lvgl/src/draw/sw/../../misc/lv_color.h **** # define LV_COLOR_SET_A8(c, v) do {} while(0)
 121:Drivers/lvgl/src/draw/sw/../../misc/lv_color.h **** 
 122:Drivers/lvgl/src/draw/sw/../../misc/lv_color.h **** # define LV_COLOR_GET_R8(c) (c).ch.red
 123:Drivers/lvgl/src/draw/sw/../../misc/lv_color.h **** # define LV_COLOR_GET_G8(c) (c).ch.green
 124:Drivers/lvgl/src/draw/sw/../../misc/lv_color.h **** # define LV_COLOR_GET_B8(c) (c).ch.blue
 125:Drivers/lvgl/src/draw/sw/../../misc/lv_color.h **** # define LV_COLOR_GET_A8(c) 0xFF
 126:Drivers/lvgl/src/draw/sw/../../misc/lv_color.h **** 
 127:Drivers/lvgl/src/draw/sw/../../misc/lv_color.h **** # define _LV_COLOR_ZERO_INITIALIZER8 {{0x00, 0x00, 0x00}}
 128:Drivers/lvgl/src/draw/sw/../../misc/lv_color.h **** # define LV_COLOR_MAKE8(r8, g8, b8) {{(uint8_t)((b8 >> 6) & 0x3U), (uint8_t)((g8 >> 5) & 0x7U), (ui
 129:Drivers/lvgl/src/draw/sw/../../misc/lv_color.h **** 
 130:Drivers/lvgl/src/draw/sw/../../misc/lv_color.h **** # define LV_COLOR_SET_R16(c, v) (c).ch.red = (uint8_t)((v) & 0x1FU)
 131:Drivers/lvgl/src/draw/sw/../../misc/lv_color.h **** #if LV_COLOR_16_SWAP == 0
 132:Drivers/lvgl/src/draw/sw/../../misc/lv_color.h **** # define LV_COLOR_SET_G16(c, v) (c).ch.green = (uint8_t)((v) & 0x3FU)
 133:Drivers/lvgl/src/draw/sw/../../misc/lv_color.h **** #else
 134:Drivers/lvgl/src/draw/sw/../../misc/lv_color.h **** # define LV_COLOR_SET_G16(c, v) {(c).ch.green_h = (uint8_t)(((v) >> 3) & 0x7); (c).ch.green_l = (ui
 135:Drivers/lvgl/src/draw/sw/../../misc/lv_color.h **** #endif
 136:Drivers/lvgl/src/draw/sw/../../misc/lv_color.h **** # define LV_COLOR_SET_B16(c, v) (c).ch.blue = (uint8_t)((v) & 0x1FU)
 137:Drivers/lvgl/src/draw/sw/../../misc/lv_color.h **** # define LV_COLOR_SET_A16(c, v) do {} while(0)
 138:Drivers/lvgl/src/draw/sw/../../misc/lv_color.h **** 
 139:Drivers/lvgl/src/draw/sw/../../misc/lv_color.h **** # define LV_COLOR_GET_R16(c) (c).ch.red
 140:Drivers/lvgl/src/draw/sw/../../misc/lv_color.h **** #if LV_COLOR_16_SWAP == 0
 141:Drivers/lvgl/src/draw/sw/../../misc/lv_color.h **** # define LV_COLOR_GET_G16(c) (c).ch.green
 142:Drivers/lvgl/src/draw/sw/../../misc/lv_color.h **** #else
 143:Drivers/lvgl/src/draw/sw/../../misc/lv_color.h **** # define LV_COLOR_GET_G16(c) (((c).ch.green_h << 3) + (c).ch.green_l)
 144:Drivers/lvgl/src/draw/sw/../../misc/lv_color.h **** #endif
 145:Drivers/lvgl/src/draw/sw/../../misc/lv_color.h **** # define LV_COLOR_GET_B16(c) (c).ch.blue
 146:Drivers/lvgl/src/draw/sw/../../misc/lv_color.h **** # define LV_COLOR_GET_A16(c) 0xFF
 147:Drivers/lvgl/src/draw/sw/../../misc/lv_color.h **** 
 148:Drivers/lvgl/src/draw/sw/../../misc/lv_color.h **** #if LV_COLOR_16_SWAP == 0
 149:Drivers/lvgl/src/draw/sw/../../misc/lv_color.h **** # define _LV_COLOR_ZERO_INITIALIZER16  {{0x00, 0x00, 0x00}}
 150:Drivers/lvgl/src/draw/sw/../../misc/lv_color.h **** # define LV_COLOR_MAKE16(r8, g8, b8) {{(uint8_t)((b8 >> 3) & 0x1FU), (uint8_t)((g8 >> 2) & 0x3FU), 
 151:Drivers/lvgl/src/draw/sw/../../misc/lv_color.h **** #else
 152:Drivers/lvgl/src/draw/sw/../../misc/lv_color.h **** # define _LV_COLOR_ZERO_INITIALIZER16 {{0x00, 0x00, 0x00, 0x00}}
 153:Drivers/lvgl/src/draw/sw/../../misc/lv_color.h **** # define LV_COLOR_MAKE16(r8, g8, b8) {{(uint8_t)((g8 >> 5) & 0x7U), (uint8_t)((r8 >> 3) & 0x1FU), (
 154:Drivers/lvgl/src/draw/sw/../../misc/lv_color.h **** #endif
 155:Drivers/lvgl/src/draw/sw/../../misc/lv_color.h **** 
 156:Drivers/lvgl/src/draw/sw/../../misc/lv_color.h **** # define LV_COLOR_SET_R32(c, v) (c).ch.red = (uint8_t)((v) & 0xFF)
 157:Drivers/lvgl/src/draw/sw/../../misc/lv_color.h **** # define LV_COLOR_SET_G32(c, v) (c).ch.green = (uint8_t)((v) & 0xFF)
 158:Drivers/lvgl/src/draw/sw/../../misc/lv_color.h **** # define LV_COLOR_SET_B32(c, v) (c).ch.blue = (uint8_t)((v) & 0xFF)
 159:Drivers/lvgl/src/draw/sw/../../misc/lv_color.h **** # define LV_COLOR_SET_A32(c, v) (c).ch.alpha = (uint8_t)((v) & 0xFF)
 160:Drivers/lvgl/src/draw/sw/../../misc/lv_color.h **** 
 161:Drivers/lvgl/src/draw/sw/../../misc/lv_color.h **** # define LV_COLOR_GET_R32(c) (c).ch.red
 162:Drivers/lvgl/src/draw/sw/../../misc/lv_color.h **** # define LV_COLOR_GET_G32(c) (c).ch.green
 163:Drivers/lvgl/src/draw/sw/../../misc/lv_color.h **** # define LV_COLOR_GET_B32(c) (c).ch.blue
 164:Drivers/lvgl/src/draw/sw/../../misc/lv_color.h **** # define LV_COLOR_GET_A32(c) (c).ch.alpha
 165:Drivers/lvgl/src/draw/sw/../../misc/lv_color.h **** 
 166:Drivers/lvgl/src/draw/sw/../../misc/lv_color.h **** # define _LV_COLOR_ZERO_INITIALIZER32  {{0x00, 0x00, 0x00, 0x00}}
 167:Drivers/lvgl/src/draw/sw/../../misc/lv_color.h **** # define LV_COLOR_MAKE32(r8, g8, b8) {{b8, g8, r8, 0xff}} /*Fix 0xff alpha*/
 168:Drivers/lvgl/src/draw/sw/../../misc/lv_color.h **** 
 169:Drivers/lvgl/src/draw/sw/../../misc/lv_color.h **** /*---------------------------------------
 170:Drivers/lvgl/src/draw/sw/../../misc/lv_color.h ****  * Macros for the current color depth
 171:Drivers/lvgl/src/draw/sw/../../misc/lv_color.h ****  * to set/get values of the color channels
 172:Drivers/lvgl/src/draw/sw/../../misc/lv_color.h ****  *------------------------------------------*/
ARM GAS  /var/folders/0z/tsy30v1j4xl4_7kw94k978ww0000gn/T//cc6AX49L.s 			page 27


 173:Drivers/lvgl/src/draw/sw/../../misc/lv_color.h **** #define LV_COLOR_SET_R(c, v) LV_CONCAT(LV_COLOR_SET_R, LV_COLOR_DEPTH)(c, v)
 174:Drivers/lvgl/src/draw/sw/../../misc/lv_color.h **** #define LV_COLOR_SET_G(c, v) LV_CONCAT(LV_COLOR_SET_G, LV_COLOR_DEPTH)(c, v)
 175:Drivers/lvgl/src/draw/sw/../../misc/lv_color.h **** #define LV_COLOR_SET_B(c, v) LV_CONCAT(LV_COLOR_SET_B, LV_COLOR_DEPTH)(c, v)
 176:Drivers/lvgl/src/draw/sw/../../misc/lv_color.h **** #define LV_COLOR_SET_A(c, v) LV_CONCAT(LV_COLOR_SET_A, LV_COLOR_DEPTH)(c, v)
 177:Drivers/lvgl/src/draw/sw/../../misc/lv_color.h **** 
 178:Drivers/lvgl/src/draw/sw/../../misc/lv_color.h **** #define LV_COLOR_GET_R(c) LV_CONCAT(LV_COLOR_GET_R, LV_COLOR_DEPTH)(c)
 179:Drivers/lvgl/src/draw/sw/../../misc/lv_color.h **** #define LV_COLOR_GET_G(c) LV_CONCAT(LV_COLOR_GET_G, LV_COLOR_DEPTH)(c)
 180:Drivers/lvgl/src/draw/sw/../../misc/lv_color.h **** #define LV_COLOR_GET_B(c) LV_CONCAT(LV_COLOR_GET_B, LV_COLOR_DEPTH)(c)
 181:Drivers/lvgl/src/draw/sw/../../misc/lv_color.h **** #define LV_COLOR_GET_A(c) LV_CONCAT(LV_COLOR_GET_A, LV_COLOR_DEPTH)(c)
 182:Drivers/lvgl/src/draw/sw/../../misc/lv_color.h **** 
 183:Drivers/lvgl/src/draw/sw/../../misc/lv_color.h **** #define _LV_COLOR_ZERO_INITIALIZER LV_CONCAT(_LV_COLOR_ZERO_INITIALIZER, LV_COLOR_DEPTH)
 184:Drivers/lvgl/src/draw/sw/../../misc/lv_color.h **** #define LV_COLOR_MAKE(r8, g8, b8) LV_CONCAT(LV_COLOR_MAKE, LV_COLOR_DEPTH)(r8, g8, b8)
 185:Drivers/lvgl/src/draw/sw/../../misc/lv_color.h **** 
 186:Drivers/lvgl/src/draw/sw/../../misc/lv_color.h **** /**********************
 187:Drivers/lvgl/src/draw/sw/../../misc/lv_color.h ****  *      TYPEDEFS
 188:Drivers/lvgl/src/draw/sw/../../misc/lv_color.h ****  **********************/
 189:Drivers/lvgl/src/draw/sw/../../misc/lv_color.h **** 
 190:Drivers/lvgl/src/draw/sw/../../misc/lv_color.h **** typedef union {
 191:Drivers/lvgl/src/draw/sw/../../misc/lv_color.h ****     uint8_t full; /*must be declared first to set all bits of byte via initializer list*/
 192:Drivers/lvgl/src/draw/sw/../../misc/lv_color.h ****     union {
 193:Drivers/lvgl/src/draw/sw/../../misc/lv_color.h ****         uint8_t blue : 1;
 194:Drivers/lvgl/src/draw/sw/../../misc/lv_color.h ****         uint8_t green : 1;
 195:Drivers/lvgl/src/draw/sw/../../misc/lv_color.h ****         uint8_t red : 1;
 196:Drivers/lvgl/src/draw/sw/../../misc/lv_color.h ****     } ch;
 197:Drivers/lvgl/src/draw/sw/../../misc/lv_color.h **** } lv_color1_t;
 198:Drivers/lvgl/src/draw/sw/../../misc/lv_color.h **** 
 199:Drivers/lvgl/src/draw/sw/../../misc/lv_color.h **** typedef union {
 200:Drivers/lvgl/src/draw/sw/../../misc/lv_color.h ****     struct {
 201:Drivers/lvgl/src/draw/sw/../../misc/lv_color.h ****         uint8_t blue : 2;
 202:Drivers/lvgl/src/draw/sw/../../misc/lv_color.h ****         uint8_t green : 3;
 203:Drivers/lvgl/src/draw/sw/../../misc/lv_color.h ****         uint8_t red : 3;
 204:Drivers/lvgl/src/draw/sw/../../misc/lv_color.h ****     } ch;
 205:Drivers/lvgl/src/draw/sw/../../misc/lv_color.h ****     uint8_t full;
 206:Drivers/lvgl/src/draw/sw/../../misc/lv_color.h **** } lv_color8_t;
 207:Drivers/lvgl/src/draw/sw/../../misc/lv_color.h **** 
 208:Drivers/lvgl/src/draw/sw/../../misc/lv_color.h **** typedef union {
 209:Drivers/lvgl/src/draw/sw/../../misc/lv_color.h ****     struct {
 210:Drivers/lvgl/src/draw/sw/../../misc/lv_color.h **** #if LV_COLOR_16_SWAP == 0
 211:Drivers/lvgl/src/draw/sw/../../misc/lv_color.h ****         uint16_t blue : 5;
 212:Drivers/lvgl/src/draw/sw/../../misc/lv_color.h ****         uint16_t green : 6;
 213:Drivers/lvgl/src/draw/sw/../../misc/lv_color.h ****         uint16_t red : 5;
 214:Drivers/lvgl/src/draw/sw/../../misc/lv_color.h **** #else
 215:Drivers/lvgl/src/draw/sw/../../misc/lv_color.h ****         uint16_t green_h : 3;
 216:Drivers/lvgl/src/draw/sw/../../misc/lv_color.h ****         uint16_t red : 5;
 217:Drivers/lvgl/src/draw/sw/../../misc/lv_color.h ****         uint16_t blue : 5;
 218:Drivers/lvgl/src/draw/sw/../../misc/lv_color.h ****         uint16_t green_l : 3;
 219:Drivers/lvgl/src/draw/sw/../../misc/lv_color.h **** #endif
 220:Drivers/lvgl/src/draw/sw/../../misc/lv_color.h ****     } ch;
 221:Drivers/lvgl/src/draw/sw/../../misc/lv_color.h ****     uint16_t full;
 222:Drivers/lvgl/src/draw/sw/../../misc/lv_color.h **** } lv_color16_t;
 223:Drivers/lvgl/src/draw/sw/../../misc/lv_color.h **** 
 224:Drivers/lvgl/src/draw/sw/../../misc/lv_color.h **** typedef union {
 225:Drivers/lvgl/src/draw/sw/../../misc/lv_color.h ****     struct {
 226:Drivers/lvgl/src/draw/sw/../../misc/lv_color.h ****         uint8_t blue;
 227:Drivers/lvgl/src/draw/sw/../../misc/lv_color.h ****         uint8_t green;
 228:Drivers/lvgl/src/draw/sw/../../misc/lv_color.h ****         uint8_t red;
 229:Drivers/lvgl/src/draw/sw/../../misc/lv_color.h ****         uint8_t alpha;
ARM GAS  /var/folders/0z/tsy30v1j4xl4_7kw94k978ww0000gn/T//cc6AX49L.s 			page 28


 230:Drivers/lvgl/src/draw/sw/../../misc/lv_color.h ****     } ch;
 231:Drivers/lvgl/src/draw/sw/../../misc/lv_color.h ****     uint32_t full;
 232:Drivers/lvgl/src/draw/sw/../../misc/lv_color.h **** } lv_color32_t;
 233:Drivers/lvgl/src/draw/sw/../../misc/lv_color.h **** 
 234:Drivers/lvgl/src/draw/sw/../../misc/lv_color.h **** typedef LV_CONCAT3(uint, LV_COLOR_SIZE, _t) lv_color_int_t;
 235:Drivers/lvgl/src/draw/sw/../../misc/lv_color.h **** typedef LV_CONCAT3(lv_color, LV_COLOR_DEPTH, _t) lv_color_t;
 236:Drivers/lvgl/src/draw/sw/../../misc/lv_color.h **** 
 237:Drivers/lvgl/src/draw/sw/../../misc/lv_color.h **** typedef struct {
 238:Drivers/lvgl/src/draw/sw/../../misc/lv_color.h ****     uint16_t h;
 239:Drivers/lvgl/src/draw/sw/../../misc/lv_color.h ****     uint8_t s;
 240:Drivers/lvgl/src/draw/sw/../../misc/lv_color.h ****     uint8_t v;
 241:Drivers/lvgl/src/draw/sw/../../misc/lv_color.h **** } lv_color_hsv_t;
 242:Drivers/lvgl/src/draw/sw/../../misc/lv_color.h **** 
 243:Drivers/lvgl/src/draw/sw/../../misc/lv_color.h **** //! @cond Doxygen_Suppress
 244:Drivers/lvgl/src/draw/sw/../../misc/lv_color.h **** /*No idea where the guard is required but else throws warnings in the docs*/
 245:Drivers/lvgl/src/draw/sw/../../misc/lv_color.h **** typedef uint8_t lv_opa_t;
 246:Drivers/lvgl/src/draw/sw/../../misc/lv_color.h **** //! @endcond
 247:Drivers/lvgl/src/draw/sw/../../misc/lv_color.h **** 
 248:Drivers/lvgl/src/draw/sw/../../misc/lv_color.h **** struct _lv_color_filter_dsc_t;
 249:Drivers/lvgl/src/draw/sw/../../misc/lv_color.h **** 
 250:Drivers/lvgl/src/draw/sw/../../misc/lv_color.h **** typedef lv_color_t (*lv_color_filter_cb_t)(const struct _lv_color_filter_dsc_t *, lv_color_t, lv_op
 251:Drivers/lvgl/src/draw/sw/../../misc/lv_color.h **** 
 252:Drivers/lvgl/src/draw/sw/../../misc/lv_color.h **** typedef struct _lv_color_filter_dsc_t {
 253:Drivers/lvgl/src/draw/sw/../../misc/lv_color.h ****     lv_color_filter_cb_t filter_cb;
 254:Drivers/lvgl/src/draw/sw/../../misc/lv_color.h ****     void * user_data;
 255:Drivers/lvgl/src/draw/sw/../../misc/lv_color.h **** } lv_color_filter_dsc_t;
 256:Drivers/lvgl/src/draw/sw/../../misc/lv_color.h **** 
 257:Drivers/lvgl/src/draw/sw/../../misc/lv_color.h **** 
 258:Drivers/lvgl/src/draw/sw/../../misc/lv_color.h **** typedef enum {
 259:Drivers/lvgl/src/draw/sw/../../misc/lv_color.h ****     LV_PALETTE_RED,
 260:Drivers/lvgl/src/draw/sw/../../misc/lv_color.h ****     LV_PALETTE_PINK,
 261:Drivers/lvgl/src/draw/sw/../../misc/lv_color.h ****     LV_PALETTE_PURPLE,
 262:Drivers/lvgl/src/draw/sw/../../misc/lv_color.h ****     LV_PALETTE_DEEP_PURPLE,
 263:Drivers/lvgl/src/draw/sw/../../misc/lv_color.h ****     LV_PALETTE_INDIGO,
 264:Drivers/lvgl/src/draw/sw/../../misc/lv_color.h ****     LV_PALETTE_BLUE,
 265:Drivers/lvgl/src/draw/sw/../../misc/lv_color.h ****     LV_PALETTE_LIGHT_BLUE,
 266:Drivers/lvgl/src/draw/sw/../../misc/lv_color.h ****     LV_PALETTE_CYAN,
 267:Drivers/lvgl/src/draw/sw/../../misc/lv_color.h ****     LV_PALETTE_TEAL,
 268:Drivers/lvgl/src/draw/sw/../../misc/lv_color.h ****     LV_PALETTE_GREEN,
 269:Drivers/lvgl/src/draw/sw/../../misc/lv_color.h ****     LV_PALETTE_LIGHT_GREEN,
 270:Drivers/lvgl/src/draw/sw/../../misc/lv_color.h ****     LV_PALETTE_LIME,
 271:Drivers/lvgl/src/draw/sw/../../misc/lv_color.h ****     LV_PALETTE_YELLOW,
 272:Drivers/lvgl/src/draw/sw/../../misc/lv_color.h ****     LV_PALETTE_AMBER,
 273:Drivers/lvgl/src/draw/sw/../../misc/lv_color.h ****     LV_PALETTE_ORANGE,
 274:Drivers/lvgl/src/draw/sw/../../misc/lv_color.h ****     LV_PALETTE_DEEP_ORANGE,
 275:Drivers/lvgl/src/draw/sw/../../misc/lv_color.h ****     LV_PALETTE_BROWN,
 276:Drivers/lvgl/src/draw/sw/../../misc/lv_color.h ****     LV_PALETTE_BLUE_GREY,
 277:Drivers/lvgl/src/draw/sw/../../misc/lv_color.h ****     LV_PALETTE_GREY,
 278:Drivers/lvgl/src/draw/sw/../../misc/lv_color.h ****     _LV_PALETTE_LAST,
 279:Drivers/lvgl/src/draw/sw/../../misc/lv_color.h ****     LV_PALETTE_NONE = 0xff,
 280:Drivers/lvgl/src/draw/sw/../../misc/lv_color.h **** } lv_palette_t;
 281:Drivers/lvgl/src/draw/sw/../../misc/lv_color.h **** 
 282:Drivers/lvgl/src/draw/sw/../../misc/lv_color.h **** /**********************
 283:Drivers/lvgl/src/draw/sw/../../misc/lv_color.h ****  * GLOBAL PROTOTYPES
 284:Drivers/lvgl/src/draw/sw/../../misc/lv_color.h ****  **********************/
 285:Drivers/lvgl/src/draw/sw/../../misc/lv_color.h **** 
 286:Drivers/lvgl/src/draw/sw/../../misc/lv_color.h **** /*In color conversations:
ARM GAS  /var/folders/0z/tsy30v1j4xl4_7kw94k978ww0000gn/T//cc6AX49L.s 			page 29


 287:Drivers/lvgl/src/draw/sw/../../misc/lv_color.h ****  * - When converting to bigger color type the LSB weight of 1 LSB is calculated
 288:Drivers/lvgl/src/draw/sw/../../misc/lv_color.h ****  *   E.g. 16 bit Red has 5 bits
 289:Drivers/lvgl/src/draw/sw/../../misc/lv_color.h ****  *         8 bit Red has 3 bits
 290:Drivers/lvgl/src/draw/sw/../../misc/lv_color.h ****  *        ----------------------
 291:Drivers/lvgl/src/draw/sw/../../misc/lv_color.h ****  *        8 bit red LSB = (2^5 - 1) / (2^3 - 1) = 31 / 7 = 4
 292:Drivers/lvgl/src/draw/sw/../../misc/lv_color.h ****  *
 293:Drivers/lvgl/src/draw/sw/../../misc/lv_color.h ****  * - When calculating to smaller color type simply shift out the LSBs
 294:Drivers/lvgl/src/draw/sw/../../misc/lv_color.h ****  *   E.g.  8 bit Red has 3 bits
 295:Drivers/lvgl/src/draw/sw/../../misc/lv_color.h ****  *        16 bit Red has 5 bits
 296:Drivers/lvgl/src/draw/sw/../../misc/lv_color.h ****  *        ----------------------
 297:Drivers/lvgl/src/draw/sw/../../misc/lv_color.h ****  *         Shift right with 5 - 3 = 2
 298:Drivers/lvgl/src/draw/sw/../../misc/lv_color.h ****  */
 299:Drivers/lvgl/src/draw/sw/../../misc/lv_color.h **** static inline uint8_t lv_color_to1(lv_color_t color)
 300:Drivers/lvgl/src/draw/sw/../../misc/lv_color.h **** {
 301:Drivers/lvgl/src/draw/sw/../../misc/lv_color.h **** #if LV_COLOR_DEPTH == 1
 302:Drivers/lvgl/src/draw/sw/../../misc/lv_color.h ****     return color.full;
 303:Drivers/lvgl/src/draw/sw/../../misc/lv_color.h **** #elif LV_COLOR_DEPTH == 8
 304:Drivers/lvgl/src/draw/sw/../../misc/lv_color.h ****     if((LV_COLOR_GET_R(color) & 0x4) || (LV_COLOR_GET_G(color) & 0x4) || (LV_COLOR_GET_B(color) & 0
 305:Drivers/lvgl/src/draw/sw/../../misc/lv_color.h ****         return 1;
 306:Drivers/lvgl/src/draw/sw/../../misc/lv_color.h ****     }
 307:Drivers/lvgl/src/draw/sw/../../misc/lv_color.h ****     else {
 308:Drivers/lvgl/src/draw/sw/../../misc/lv_color.h ****         return 0;
 309:Drivers/lvgl/src/draw/sw/../../misc/lv_color.h ****     }
 310:Drivers/lvgl/src/draw/sw/../../misc/lv_color.h **** #elif LV_COLOR_DEPTH == 16
 311:Drivers/lvgl/src/draw/sw/../../misc/lv_color.h ****     if((LV_COLOR_GET_R(color) & 0x10) || (LV_COLOR_GET_G(color) & 0x20) || (LV_COLOR_GET_B(color) &
 312:Drivers/lvgl/src/draw/sw/../../misc/lv_color.h ****         return 1;
 313:Drivers/lvgl/src/draw/sw/../../misc/lv_color.h ****     }
 314:Drivers/lvgl/src/draw/sw/../../misc/lv_color.h ****     else {
 315:Drivers/lvgl/src/draw/sw/../../misc/lv_color.h ****         return 0;
 316:Drivers/lvgl/src/draw/sw/../../misc/lv_color.h ****     }
 317:Drivers/lvgl/src/draw/sw/../../misc/lv_color.h **** #elif LV_COLOR_DEPTH == 32
 318:Drivers/lvgl/src/draw/sw/../../misc/lv_color.h ****     if((LV_COLOR_GET_R(color) & 0x80) || (LV_COLOR_GET_G(color) & 0x80) || (LV_COLOR_GET_B(color) &
 319:Drivers/lvgl/src/draw/sw/../../misc/lv_color.h ****         return 1;
 320:Drivers/lvgl/src/draw/sw/../../misc/lv_color.h ****     }
 321:Drivers/lvgl/src/draw/sw/../../misc/lv_color.h ****     else {
 322:Drivers/lvgl/src/draw/sw/../../misc/lv_color.h ****         return 0;
 323:Drivers/lvgl/src/draw/sw/../../misc/lv_color.h ****     }
 324:Drivers/lvgl/src/draw/sw/../../misc/lv_color.h **** #endif
 325:Drivers/lvgl/src/draw/sw/../../misc/lv_color.h **** }
 326:Drivers/lvgl/src/draw/sw/../../misc/lv_color.h **** 
 327:Drivers/lvgl/src/draw/sw/../../misc/lv_color.h **** static inline uint8_t lv_color_to8(lv_color_t color)
 328:Drivers/lvgl/src/draw/sw/../../misc/lv_color.h **** {
 329:Drivers/lvgl/src/draw/sw/../../misc/lv_color.h **** #if LV_COLOR_DEPTH == 1
 330:Drivers/lvgl/src/draw/sw/../../misc/lv_color.h ****     if(color.full == 0)
 331:Drivers/lvgl/src/draw/sw/../../misc/lv_color.h ****         return 0;
 332:Drivers/lvgl/src/draw/sw/../../misc/lv_color.h ****     else
 333:Drivers/lvgl/src/draw/sw/../../misc/lv_color.h ****         return 0xFF;
 334:Drivers/lvgl/src/draw/sw/../../misc/lv_color.h **** #elif LV_COLOR_DEPTH == 8
 335:Drivers/lvgl/src/draw/sw/../../misc/lv_color.h ****     return color.full;
 336:Drivers/lvgl/src/draw/sw/../../misc/lv_color.h **** #elif LV_COLOR_DEPTH == 16
 337:Drivers/lvgl/src/draw/sw/../../misc/lv_color.h ****     lv_color8_t ret;
 338:Drivers/lvgl/src/draw/sw/../../misc/lv_color.h ****     LV_COLOR_SET_R8(ret, LV_COLOR_GET_R(color) >> 2); /*5 - 3  = 2*/
 339:Drivers/lvgl/src/draw/sw/../../misc/lv_color.h ****     LV_COLOR_SET_G8(ret, LV_COLOR_GET_G(color) >> 3); /*6 - 3  = 3*/
 340:Drivers/lvgl/src/draw/sw/../../misc/lv_color.h ****     LV_COLOR_SET_B8(ret, LV_COLOR_GET_B(color) >> 3); /*5 - 2  = 3*/
 341:Drivers/lvgl/src/draw/sw/../../misc/lv_color.h ****     return ret.full;
 342:Drivers/lvgl/src/draw/sw/../../misc/lv_color.h **** #elif LV_COLOR_DEPTH == 32
 343:Drivers/lvgl/src/draw/sw/../../misc/lv_color.h ****     lv_color8_t ret;
ARM GAS  /var/folders/0z/tsy30v1j4xl4_7kw94k978ww0000gn/T//cc6AX49L.s 			page 30


 344:Drivers/lvgl/src/draw/sw/../../misc/lv_color.h ****     LV_COLOR_SET_R8(ret, LV_COLOR_GET_R(color) >> 5); /*8 - 3  = 5*/
 345:Drivers/lvgl/src/draw/sw/../../misc/lv_color.h ****     LV_COLOR_SET_G8(ret, LV_COLOR_GET_G(color) >> 5); /*8 - 3  = 5*/
 346:Drivers/lvgl/src/draw/sw/../../misc/lv_color.h ****     LV_COLOR_SET_B8(ret, LV_COLOR_GET_B(color) >> 6); /*8 - 2  = 6*/
 347:Drivers/lvgl/src/draw/sw/../../misc/lv_color.h ****     return ret.full;
 348:Drivers/lvgl/src/draw/sw/../../misc/lv_color.h **** #endif
 349:Drivers/lvgl/src/draw/sw/../../misc/lv_color.h **** }
 350:Drivers/lvgl/src/draw/sw/../../misc/lv_color.h **** 
 351:Drivers/lvgl/src/draw/sw/../../misc/lv_color.h **** static inline uint16_t lv_color_to16(lv_color_t color)
 352:Drivers/lvgl/src/draw/sw/../../misc/lv_color.h **** {
 353:Drivers/lvgl/src/draw/sw/../../misc/lv_color.h **** #if LV_COLOR_DEPTH == 1
 354:Drivers/lvgl/src/draw/sw/../../misc/lv_color.h ****     if(color.full == 0)
 355:Drivers/lvgl/src/draw/sw/../../misc/lv_color.h ****         return 0;
 356:Drivers/lvgl/src/draw/sw/../../misc/lv_color.h ****     else
 357:Drivers/lvgl/src/draw/sw/../../misc/lv_color.h ****         return 0xFFFF;
 358:Drivers/lvgl/src/draw/sw/../../misc/lv_color.h **** #elif LV_COLOR_DEPTH == 8
 359:Drivers/lvgl/src/draw/sw/../../misc/lv_color.h ****     lv_color16_t ret;
 360:Drivers/lvgl/src/draw/sw/../../misc/lv_color.h ****     LV_COLOR_SET_R16(ret, LV_COLOR_GET_R(color) * 4);  /*(2^5 - 1)/(2^3 - 1) = 31/7 = 4*/
 361:Drivers/lvgl/src/draw/sw/../../misc/lv_color.h ****     LV_COLOR_SET_G16(ret, LV_COLOR_GET_G(color) * 9);  /*(2^6 - 1)/(2^3 - 1) = 63/7 = 9*/
 362:Drivers/lvgl/src/draw/sw/../../misc/lv_color.h ****     LV_COLOR_SET_B16(ret, LV_COLOR_GET_B(color) * 10); /*(2^5 - 1)/(2^2 - 1) = 31/3 = 10*/
 363:Drivers/lvgl/src/draw/sw/../../misc/lv_color.h ****     return ret.full;
 364:Drivers/lvgl/src/draw/sw/../../misc/lv_color.h **** #elif LV_COLOR_DEPTH == 16
 365:Drivers/lvgl/src/draw/sw/../../misc/lv_color.h ****     return color.full;
 366:Drivers/lvgl/src/draw/sw/../../misc/lv_color.h **** #elif LV_COLOR_DEPTH == 32
 367:Drivers/lvgl/src/draw/sw/../../misc/lv_color.h ****     lv_color16_t ret;
 368:Drivers/lvgl/src/draw/sw/../../misc/lv_color.h ****     LV_COLOR_SET_R16(ret, LV_COLOR_GET_R(color) >> 3); /*8 - 5  = 3*/
 369:Drivers/lvgl/src/draw/sw/../../misc/lv_color.h ****     LV_COLOR_SET_G16(ret, LV_COLOR_GET_G(color) >> 2); /*8 - 6  = 2*/
 370:Drivers/lvgl/src/draw/sw/../../misc/lv_color.h ****     LV_COLOR_SET_B16(ret, LV_COLOR_GET_B(color) >> 3); /*8 - 5  = 3*/
 371:Drivers/lvgl/src/draw/sw/../../misc/lv_color.h ****     return ret.full;
 372:Drivers/lvgl/src/draw/sw/../../misc/lv_color.h **** #endif
 373:Drivers/lvgl/src/draw/sw/../../misc/lv_color.h **** }
 374:Drivers/lvgl/src/draw/sw/../../misc/lv_color.h **** 
 375:Drivers/lvgl/src/draw/sw/../../misc/lv_color.h **** static inline uint32_t lv_color_to32(lv_color_t color)
 376:Drivers/lvgl/src/draw/sw/../../misc/lv_color.h **** {
 377:Drivers/lvgl/src/draw/sw/../../misc/lv_color.h **** #if LV_COLOR_DEPTH == 1
 378:Drivers/lvgl/src/draw/sw/../../misc/lv_color.h ****     if(color.full == 0)
 379:Drivers/lvgl/src/draw/sw/../../misc/lv_color.h ****         return 0xFF000000;
 380:Drivers/lvgl/src/draw/sw/../../misc/lv_color.h ****     else
 381:Drivers/lvgl/src/draw/sw/../../misc/lv_color.h ****         return 0xFFFFFFFF;
 382:Drivers/lvgl/src/draw/sw/../../misc/lv_color.h **** #elif LV_COLOR_DEPTH == 8
 383:Drivers/lvgl/src/draw/sw/../../misc/lv_color.h ****     lv_color32_t ret;
 384:Drivers/lvgl/src/draw/sw/../../misc/lv_color.h ****     LV_COLOR_SET_R32(ret, LV_COLOR_GET_R(color) * 36); /*(2^8 - 1)/(2^3 - 1) = 255/7 = 36*/
 385:Drivers/lvgl/src/draw/sw/../../misc/lv_color.h ****     LV_COLOR_SET_G32(ret, LV_COLOR_GET_G(color) * 36); /*(2^8 - 1)/(2^3 - 1) = 255/7 = 36*/
 386:Drivers/lvgl/src/draw/sw/../../misc/lv_color.h ****     LV_COLOR_SET_B32(ret, LV_COLOR_GET_B(color) * 85); /*(2^8 - 1)/(2^2 - 1) = 255/3 = 85*/
 387:Drivers/lvgl/src/draw/sw/../../misc/lv_color.h ****     LV_COLOR_SET_A32(ret, 0xFF);
 388:Drivers/lvgl/src/draw/sw/../../misc/lv_color.h ****     return ret.full;
 389:Drivers/lvgl/src/draw/sw/../../misc/lv_color.h **** #elif LV_COLOR_DEPTH == 16
 390:Drivers/lvgl/src/draw/sw/../../misc/lv_color.h ****     /**
 391:Drivers/lvgl/src/draw/sw/../../misc/lv_color.h ****      * The floating point math for conversion is:
 392:Drivers/lvgl/src/draw/sw/../../misc/lv_color.h ****      *  valueto = valuefrom * ( (2^bitsto - 1) / (float)(2^bitsfrom - 1) )
 393:Drivers/lvgl/src/draw/sw/../../misc/lv_color.h ****      * The faster integer math for conversion is:
 394:Drivers/lvgl/src/draw/sw/../../misc/lv_color.h ****      *  valueto = ( valuefrom * multiplier + adder ) >> divisor
 395:Drivers/lvgl/src/draw/sw/../../misc/lv_color.h ****      *   multiplier = FLOOR( ( (2^bitsto - 1) << divisor ) / (float)(2^bitsfrom - 1) )
 396:Drivers/lvgl/src/draw/sw/../../misc/lv_color.h ****      *
 397:Drivers/lvgl/src/draw/sw/../../misc/lv_color.h ****      * Find the first divisor where ( adder >> divisor ) <= 0
 398:Drivers/lvgl/src/draw/sw/../../misc/lv_color.h ****      *
 399:Drivers/lvgl/src/draw/sw/../../misc/lv_color.h ****      * 5-bit to 8-bit: ( 31 * multiplier + adder ) >> divisor = 255
 400:Drivers/lvgl/src/draw/sw/../../misc/lv_color.h ****      * divisor  multiplier  adder  min (0)  max (31)
ARM GAS  /var/folders/0z/tsy30v1j4xl4_7kw94k978ww0000gn/T//cc6AX49L.s 			page 31


 401:Drivers/lvgl/src/draw/sw/../../misc/lv_color.h ****      *       0           8      7        7       255
 402:Drivers/lvgl/src/draw/sw/../../misc/lv_color.h ****      *       1          16     14        7       255
 403:Drivers/lvgl/src/draw/sw/../../misc/lv_color.h ****      *       2          32     28        7       255
 404:Drivers/lvgl/src/draw/sw/../../misc/lv_color.h ****      *       3          65     25        3       255
 405:Drivers/lvgl/src/draw/sw/../../misc/lv_color.h ****      *       4         131     19        1       255
 406:Drivers/lvgl/src/draw/sw/../../misc/lv_color.h ****      *       5         263      7        0       255
 407:Drivers/lvgl/src/draw/sw/../../misc/lv_color.h ****      *
 408:Drivers/lvgl/src/draw/sw/../../misc/lv_color.h ****      * 6-bit to 8-bit: 255 = ( 63 * multiplier + adder ) >> divisor
 409:Drivers/lvgl/src/draw/sw/../../misc/lv_color.h ****      * divisor  multiplier  adder  min (0)  max (63)
 410:Drivers/lvgl/src/draw/sw/../../misc/lv_color.h ****      *       0           4      3        3       255
 411:Drivers/lvgl/src/draw/sw/../../misc/lv_color.h ****      *       1           8      6        3       255
 412:Drivers/lvgl/src/draw/sw/../../misc/lv_color.h ****      *       2          16     12        3       255
 413:Drivers/lvgl/src/draw/sw/../../misc/lv_color.h ****      *       3          32     24        3       255
 414:Drivers/lvgl/src/draw/sw/../../misc/lv_color.h ****      *       4          64     48        3       255
 415:Drivers/lvgl/src/draw/sw/../../misc/lv_color.h ****      *       5         129     33        1       255
 416:Drivers/lvgl/src/draw/sw/../../misc/lv_color.h ****      *       6         259      3        0       255
 417:Drivers/lvgl/src/draw/sw/../../misc/lv_color.h ****      */
 418:Drivers/lvgl/src/draw/sw/../../misc/lv_color.h **** 
 419:Drivers/lvgl/src/draw/sw/../../misc/lv_color.h ****     lv_color32_t ret;
 420:Drivers/lvgl/src/draw/sw/../../misc/lv_color.h ****     LV_COLOR_SET_R32(ret, (LV_COLOR_GET_R(color) * 263 + 7) >> 5);
 421:Drivers/lvgl/src/draw/sw/../../misc/lv_color.h ****     LV_COLOR_SET_G32(ret, (LV_COLOR_GET_G(color) * 259 + 3) >> 6);
 422:Drivers/lvgl/src/draw/sw/../../misc/lv_color.h ****     LV_COLOR_SET_B32(ret, (LV_COLOR_GET_B(color) * 263 + 7) >> 5);
 423:Drivers/lvgl/src/draw/sw/../../misc/lv_color.h ****     LV_COLOR_SET_A32(ret, 0xFF);
 424:Drivers/lvgl/src/draw/sw/../../misc/lv_color.h ****     return ret.full;
 425:Drivers/lvgl/src/draw/sw/../../misc/lv_color.h **** #elif LV_COLOR_DEPTH == 32
 426:Drivers/lvgl/src/draw/sw/../../misc/lv_color.h ****     return color.full;
 427:Drivers/lvgl/src/draw/sw/../../misc/lv_color.h **** #endif
 428:Drivers/lvgl/src/draw/sw/../../misc/lv_color.h **** }
 429:Drivers/lvgl/src/draw/sw/../../misc/lv_color.h **** 
 430:Drivers/lvgl/src/draw/sw/../../misc/lv_color.h **** //! @cond Doxygen_Suppress
 431:Drivers/lvgl/src/draw/sw/../../misc/lv_color.h **** 
 432:Drivers/lvgl/src/draw/sw/../../misc/lv_color.h **** /**
 433:Drivers/lvgl/src/draw/sw/../../misc/lv_color.h ****  * Mix two colors with a given ratio.
 434:Drivers/lvgl/src/draw/sw/../../misc/lv_color.h ****  * @param c1 the first color to mix (usually the foreground)
 435:Drivers/lvgl/src/draw/sw/../../misc/lv_color.h ****  * @param c2 the second color to mix (usually the background)
 436:Drivers/lvgl/src/draw/sw/../../misc/lv_color.h ****  * @param mix The ratio of the colors. 0: full `c2`, 255: full `c1`, 127: half `c1` and half`c2`
 437:Drivers/lvgl/src/draw/sw/../../misc/lv_color.h ****  * @return the mixed color
 438:Drivers/lvgl/src/draw/sw/../../misc/lv_color.h ****  */
 439:Drivers/lvgl/src/draw/sw/../../misc/lv_color.h **** static inline lv_color_t LV_ATTRIBUTE_FAST_MEM lv_color_mix(lv_color_t c1, lv_color_t c2, uint8_t m
 440:Drivers/lvgl/src/draw/sw/../../misc/lv_color.h **** {
 441:Drivers/lvgl/src/draw/sw/../../misc/lv_color.h ****     lv_color_t ret;
 442:Drivers/lvgl/src/draw/sw/../../misc/lv_color.h **** 
 443:Drivers/lvgl/src/draw/sw/../../misc/lv_color.h **** #if LV_COLOR_DEPTH == 16 && LV_COLOR_MIX_ROUND_OFS == 0
 444:Drivers/lvgl/src/draw/sw/../../misc/lv_color.h **** #if LV_COLOR_16_SWAP == 1
 445:Drivers/lvgl/src/draw/sw/../../misc/lv_color.h ****     c1.full = c1.full << 8 | c1.full >> 8;
 446:Drivers/lvgl/src/draw/sw/../../misc/lv_color.h ****     c2.full = c2.full << 8 | c2.full >> 8;
 447:Drivers/lvgl/src/draw/sw/../../misc/lv_color.h **** #endif
 448:Drivers/lvgl/src/draw/sw/../../misc/lv_color.h ****     /*Source: https://stackoverflow.com/a/50012418/1999969*/
 449:Drivers/lvgl/src/draw/sw/../../misc/lv_color.h ****     mix = (uint32_t)((uint32_t)mix + 4) >> 3;
 450:Drivers/lvgl/src/draw/sw/../../misc/lv_color.h ****     uint32_t bg = (uint32_t)((uint32_t)c2.full | ((uint32_t)c2.full << 16)) &
 451:Drivers/lvgl/src/draw/sw/../../misc/lv_color.h ****                   0x7E0F81F; /*0b00000111111000001111100000011111*/
 452:Drivers/lvgl/src/draw/sw/../../misc/lv_color.h ****     uint32_t fg = (uint32_t)((uint32_t)c1.full | ((uint32_t)c1.full << 16)) & 0x7E0F81F;
 453:Drivers/lvgl/src/draw/sw/../../misc/lv_color.h ****     uint32_t result = ((((fg - bg) * mix) >> 5) + bg) & 0x7E0F81F;
 454:Drivers/lvgl/src/draw/sw/../../misc/lv_color.h ****     ret.full = (uint16_t)((result >> 16) | result);
 455:Drivers/lvgl/src/draw/sw/../../misc/lv_color.h **** #if LV_COLOR_16_SWAP == 1
 456:Drivers/lvgl/src/draw/sw/../../misc/lv_color.h ****     ret.full = ret.full << 8 | ret.full >> 8;
 457:Drivers/lvgl/src/draw/sw/../../misc/lv_color.h **** #endif
ARM GAS  /var/folders/0z/tsy30v1j4xl4_7kw94k978ww0000gn/T//cc6AX49L.s 			page 32


 458:Drivers/lvgl/src/draw/sw/../../misc/lv_color.h **** #elif LV_COLOR_DEPTH != 1
 459:Drivers/lvgl/src/draw/sw/../../misc/lv_color.h ****     /*LV_COLOR_DEPTH == 8, 16 or 32*/
 460:Drivers/lvgl/src/draw/sw/../../misc/lv_color.h ****     LV_COLOR_SET_R(ret, LV_UDIV255((uint16_t)LV_COLOR_GET_R(c1) * mix + LV_COLOR_GET_R(c2) *
 461:Drivers/lvgl/src/draw/sw/../../misc/lv_color.h ****                                    (255 - mix) + LV_COLOR_MIX_ROUND_OFS));
 462:Drivers/lvgl/src/draw/sw/../../misc/lv_color.h ****     LV_COLOR_SET_G(ret, LV_UDIV255((uint16_t)LV_COLOR_GET_G(c1) * mix + LV_COLOR_GET_G(c2) *
 463:Drivers/lvgl/src/draw/sw/../../misc/lv_color.h ****                                    (255 - mix) + LV_COLOR_MIX_ROUND_OFS));
 464:Drivers/lvgl/src/draw/sw/../../misc/lv_color.h ****     LV_COLOR_SET_B(ret, LV_UDIV255((uint16_t)LV_COLOR_GET_B(c1) * mix + LV_COLOR_GET_B(c2) *
 465:Drivers/lvgl/src/draw/sw/../../misc/lv_color.h ****                                    (255 - mix) + LV_COLOR_MIX_ROUND_OFS));
 466:Drivers/lvgl/src/draw/sw/../../misc/lv_color.h ****     LV_COLOR_SET_A(ret, 0xFF);
 467:Drivers/lvgl/src/draw/sw/../../misc/lv_color.h **** #else
 468:Drivers/lvgl/src/draw/sw/../../misc/lv_color.h ****     /*LV_COLOR_DEPTH == 1*/
 469:Drivers/lvgl/src/draw/sw/../../misc/lv_color.h ****     ret.full = mix > LV_OPA_50 ? c1.full : c2.full;
 470:Drivers/lvgl/src/draw/sw/../../misc/lv_color.h **** #endif
 471:Drivers/lvgl/src/draw/sw/../../misc/lv_color.h **** 
 472:Drivers/lvgl/src/draw/sw/../../misc/lv_color.h ****     return ret;
 473:Drivers/lvgl/src/draw/sw/../../misc/lv_color.h **** }
 474:Drivers/lvgl/src/draw/sw/../../misc/lv_color.h **** 
 475:Drivers/lvgl/src/draw/sw/../../misc/lv_color.h **** static inline void LV_ATTRIBUTE_FAST_MEM lv_color_premult(lv_color_t c, uint8_t mix, uint16_t * out
 727              		.loc 3 475 42 view .LVU228
 728              	.LBB204:
 476:Drivers/lvgl/src/draw/sw/../../misc/lv_color.h **** {
 477:Drivers/lvgl/src/draw/sw/../../misc/lv_color.h **** #if LV_COLOR_DEPTH != 1
 478:Drivers/lvgl/src/draw/sw/../../misc/lv_color.h ****     out[0] = (uint16_t)LV_COLOR_GET_R(c) * mix;
 729              		.loc 3 478 5 view .LVU229
 730              	.LBE204:
 731              	.LBE203:
 156:Drivers/lvgl/src/draw/sw/lv_draw_sw_img.c ****                 lv_color_premult(recolor, recolor_opa, premult_v);
 732              		.loc 1 156 28 is_stmt 0 view .LVU230
 733 02ae 5E7A     		ldrb	r6, [r3, #9]	@ zero_extendqisi2
 734 02b0 1F7A     		ldrb	r7, [r3, #8]	@ zero_extendqisi2
 735              	.LBB208:
 736              	.LBB205:
 479:Drivers/lvgl/src/draw/sw/../../misc/lv_color.h ****     out[1] = (uint16_t)LV_COLOR_GET_G(c) * mix;
 737              		.loc 3 479 24 view .LVU231
 738 02b2 7509     		lsrs	r5, r6, #5
 739 02b4 07F00703 		and	r3, r7, #7
 740              		.loc 3 479 14 view .LVU232
 741 02b8 05EBC305 		add	r5, r5, r3, lsl #3
 478:Drivers/lvgl/src/draw/sw/../../misc/lv_color.h ****     out[1] = (uint16_t)LV_COLOR_GET_G(c) * mix;
 742              		.loc 3 478 42 view .LVU233
 743 02bc FF08     		lsrs	r7, r7, #3
 480:Drivers/lvgl/src/draw/sw/../../misc/lv_color.h ****     out[2] = (uint16_t)LV_COLOR_GET_B(c) * mix;
 744              		.loc 3 480 24 view .LVU234
 745 02be 06F01F06 		and	r6, r6, #31
 746              	.LBE205:
 747              	.LBE208:
 160:Drivers/lvgl/src/draw/sw/lv_draw_sw_img.c ****                     rgb_buf[i] = lv_color_mix_premult(premult_v, rgb_buf[i], recolor_opa);
 748              		.loc 1 160 30 view .LVU235
 749 02c2 129B     		ldr	r3, [sp, #72]
 750              	.LBB209:
 751              	.LBB206:
 479:Drivers/lvgl/src/draw/sw/../../misc/lv_color.h ****     out[2] = (uint16_t)LV_COLOR_GET_B(c) * mix;
 752              		.loc 3 479 42 view .LVU236
 753 02c4 01FB05F5 		mul	r5, r1, r5
 478:Drivers/lvgl/src/draw/sw/../../misc/lv_color.h ****     out[1] = (uint16_t)LV_COLOR_GET_G(c) * mix;
 754              		.loc 3 478 42 view .LVU237
 755 02c8 01FB07F7 		mul	r7, r1, r7
ARM GAS  /var/folders/0z/tsy30v1j4xl4_7kw94k978ww0000gn/T//cc6AX49L.s 			page 33


 479:Drivers/lvgl/src/draw/sw/../../misc/lv_color.h ****     out[2] = (uint16_t)LV_COLOR_GET_B(c) * mix;
 756              		.loc 3 479 5 is_stmt 1 view .LVU238
 757              		.loc 3 480 42 is_stmt 0 view .LVU239
 758 02cc 01FB06F6 		mul	r6, r1, r6
 759              	.LBE206:
 760              	.LBE209:
 158:Drivers/lvgl/src/draw/sw/lv_draw_sw_img.c ****                 uint32_t i;
 761              		.loc 1 158 29 view .LVU240
 762 02d0 C943     		mvns	r1, r1
 763              	.LVL58:
 764              	.LBB210:
 765              	.LBB207:
 479:Drivers/lvgl/src/draw/sw/../../misc/lv_color.h ****     out[2] = (uint16_t)LV_COLOR_GET_B(c) * mix;
 766              		.loc 3 479 42 view .LVU241
 767 02d2 ADB2     		uxth	r5, r5
 768              		.loc 3 480 5 is_stmt 1 view .LVU242
 769              	.LVL59:
 770              		.loc 3 480 5 is_stmt 0 view .LVU243
 771              	.LBE207:
 772              	.LBE210:
 158:Drivers/lvgl/src/draw/sw/lv_draw_sw_img.c ****                 uint32_t i;
 773              		.loc 1 158 17 is_stmt 1 view .LVU244
 158:Drivers/lvgl/src/draw/sw/lv_draw_sw_img.c ****                 uint32_t i;
 774              		.loc 1 158 29 is_stmt 0 view .LVU245
 775 02d4 C9B2     		uxtb	r1, r1
 776              	.LVL60:
 159:Drivers/lvgl/src/draw/sw/lv_draw_sw_img.c ****                 for(i = 0; i < buf_size; i++) {
 777              		.loc 1 159 17 is_stmt 1 view .LVU246
 160:Drivers/lvgl/src/draw/sw/lv_draw_sw_img.c ****                     rgb_buf[i] = lv_color_mix_premult(premult_v, rgb_buf[i], recolor_opa);
 778              		.loc 1 160 17 view .LVU247
 160:Drivers/lvgl/src/draw/sw/lv_draw_sw_img.c ****                     rgb_buf[i] = lv_color_mix_premult(premult_v, rgb_buf[i], recolor_opa);
 779              		.loc 1 160 30 view .LVU248
 780 02d6 002B     		cmp	r3, #0
 781 02d8 3FF439AF 		beq	.L30
 782              	.LBB211:
 783              	.LBB212:
 481:Drivers/lvgl/src/draw/sw/../../misc/lv_color.h **** #else
 482:Drivers/lvgl/src/draw/sw/../../misc/lv_color.h ****     (void) mix;
 483:Drivers/lvgl/src/draw/sw/../../misc/lv_color.h ****     /*Pre-multiplication can't be used with 1 bpp*/
 484:Drivers/lvgl/src/draw/sw/../../misc/lv_color.h ****     out[0] = LV_COLOR_GET_R(c);
 485:Drivers/lvgl/src/draw/sw/../../misc/lv_color.h ****     out[1] = LV_COLOR_GET_G(c);
 486:Drivers/lvgl/src/draw/sw/../../misc/lv_color.h ****     out[2] = LV_COLOR_GET_B(c);
 487:Drivers/lvgl/src/draw/sw/../../misc/lv_color.h **** #endif
 488:Drivers/lvgl/src/draw/sw/../../misc/lv_color.h **** 
 489:Drivers/lvgl/src/draw/sw/../../misc/lv_color.h **** }
 490:Drivers/lvgl/src/draw/sw/../../misc/lv_color.h **** 
 491:Drivers/lvgl/src/draw/sw/../../misc/lv_color.h **** /**
 492:Drivers/lvgl/src/draw/sw/../../misc/lv_color.h ****  * Mix two colors with a given ratio. It runs faster then `lv_color_mix` but requires some pre comp
 493:Drivers/lvgl/src/draw/sw/../../misc/lv_color.h ****  * @param premult_c1 The first color. Should be preprocessed with `lv_color_premult(c1)`
 494:Drivers/lvgl/src/draw/sw/../../misc/lv_color.h ****  * @param c2 The second color. As it is no pre computation required on it
 495:Drivers/lvgl/src/draw/sw/../../misc/lv_color.h ****  * @param mix The ratio of the colors. 0: full `c1`, 255: full `c2`, 127: half `c1` and half `c2`.
 496:Drivers/lvgl/src/draw/sw/../../misc/lv_color.h ****  *            Should be modified like mix = `255 - mix`
 497:Drivers/lvgl/src/draw/sw/../../misc/lv_color.h ****  * @return the mixed color
 498:Drivers/lvgl/src/draw/sw/../../misc/lv_color.h ****  * @note 255 won't give clearly `c1`.
 499:Drivers/lvgl/src/draw/sw/../../misc/lv_color.h ****  */
 500:Drivers/lvgl/src/draw/sw/../../misc/lv_color.h **** static inline lv_color_t LV_ATTRIBUTE_FAST_MEM lv_color_mix_premult(uint16_t * premult_c1, lv_color
 501:Drivers/lvgl/src/draw/sw/../../misc/lv_color.h **** {
ARM GAS  /var/folders/0z/tsy30v1j4xl4_7kw94k978ww0000gn/T//cc6AX49L.s 			page 34


 502:Drivers/lvgl/src/draw/sw/../../misc/lv_color.h ****     lv_color_t ret;
 503:Drivers/lvgl/src/draw/sw/../../misc/lv_color.h **** #if LV_COLOR_DEPTH != 1
 504:Drivers/lvgl/src/draw/sw/../../misc/lv_color.h ****     /*LV_COLOR_DEPTH == 8 or 32*/
 505:Drivers/lvgl/src/draw/sw/../../misc/lv_color.h ****     LV_COLOR_SET_R(ret, LV_UDIV255(premult_c1[0] + LV_COLOR_GET_R(c2) * mix + LV_COLOR_MIX_ROUND_OF
 506:Drivers/lvgl/src/draw/sw/../../misc/lv_color.h ****     LV_COLOR_SET_G(ret, LV_UDIV255(premult_c1[1] + LV_COLOR_GET_G(c2) * mix + LV_COLOR_MIX_ROUND_OF
 507:Drivers/lvgl/src/draw/sw/../../misc/lv_color.h ****     LV_COLOR_SET_B(ret, LV_UDIV255(premult_c1[2] + LV_COLOR_GET_B(c2) * mix + LV_COLOR_MIX_ROUND_OF
 784              		.loc 3 507 5 is_stmt 0 view .LVU249
 785 02dc 089A     		ldr	r2, [sp, #32]
 786              	.LBE212:
 787              	.LBE211:
 161:Drivers/lvgl/src/draw/sw/lv_draw_sw_img.c ****                 }
 788              		.loc 1 161 34 view .LVU250
 789 02de 41F6F87C 		movw	ip, #8184
 790              	.LVL61:
 791              	.L32:
 161:Drivers/lvgl/src/draw/sw/lv_draw_sw_img.c ****                 }
 792              		.loc 1 161 21 is_stmt 1 view .LVU251
 793              	.LBB218:
 794              	.LBI211:
 500:Drivers/lvgl/src/draw/sw/../../misc/lv_color.h **** {
 795              		.loc 3 500 48 view .LVU252
 796              	.LBB213:
 502:Drivers/lvgl/src/draw/sw/../../misc/lv_color.h **** #if LV_COLOR_DEPTH != 1
 797              		.loc 3 502 5 view .LVU253
 505:Drivers/lvgl/src/draw/sw/../../misc/lv_color.h ****     LV_COLOR_SET_G(ret, LV_UDIV255(premult_c1[1] + LV_COLOR_GET_G(c2) * mix + LV_COLOR_MIX_ROUND_OF
 798              		.loc 3 505 5 view .LVU254
 506:Drivers/lvgl/src/draw/sw/../../misc/lv_color.h ****     LV_COLOR_SET_B(ret, LV_UDIV255(premult_c1[2] + LV_COLOR_GET_B(c2) * mix + LV_COLOR_MIX_ROUND_OF
 799              		.loc 3 506 5 view .LVU255
 800 02e2 1078     		ldrb	r0, [r2]	@ zero_extendqisi2
 801 02e4 5378     		ldrb	r3, [r2, #1]	@ zero_extendqisi2
 802 02e6 00F00700 		and	r0, r0, #7
 803 02ea 5B09     		lsrs	r3, r3, #5
 804 02ec 03EBC003 		add	r3, r3, r0, lsl #3
 805 02f0 01FB0353 		mla	r3, r1, r3, r5
 806 02f4 03EB0320 		add	r0, r3, r3, lsl #8
 807 02f8 03EBC013 		add	r3, r3, r0, lsl #7
 808              	.LVL62:
 506:Drivers/lvgl/src/draw/sw/../../misc/lv_color.h ****     LV_COLOR_SET_B(ret, LV_UDIV255(premult_c1[2] + LV_COLOR_GET_B(c2) * mix + LV_COLOR_MIX_ROUND_OF
 809              		.loc 3 506 5 view .LVU256
 506:Drivers/lvgl/src/draw/sw/../../misc/lv_color.h ****     LV_COLOR_SET_B(ret, LV_UDIV255(premult_c1[2] + LV_COLOR_GET_B(c2) * mix + LV_COLOR_MIX_ROUND_OF
 810              		.loc 3 506 103 view .LVU257
 811              		.loc 3 507 5 view .LVU258
 508:Drivers/lvgl/src/draw/sw/../../misc/lv_color.h ****     LV_COLOR_SET_A(ret, 0xFF);
 812              		.loc 3 508 5 view .LVU259
 813              		.loc 3 508 5 view .LVU260
 814              		.loc 3 508 5 view .LVU261
 509:Drivers/lvgl/src/draw/sw/../../misc/lv_color.h **** #else
 510:Drivers/lvgl/src/draw/sw/../../misc/lv_color.h ****     /*LV_COLOR_DEPTH == 1*/
 511:Drivers/lvgl/src/draw/sw/../../misc/lv_color.h ****     /*Restore color1*/
 512:Drivers/lvgl/src/draw/sw/../../misc/lv_color.h ****     lv_color_t c1;
 513:Drivers/lvgl/src/draw/sw/../../misc/lv_color.h ****     LV_COLOR_SET_R(c1, premult_c1[0]);
 514:Drivers/lvgl/src/draw/sw/../../misc/lv_color.h ****     LV_COLOR_SET_G(c1, premult_c1[1]);
 515:Drivers/lvgl/src/draw/sw/../../misc/lv_color.h ****     LV_COLOR_SET_B(c1, premult_c1[2]);
 516:Drivers/lvgl/src/draw/sw/../../misc/lv_color.h ****     ret.full = mix > LV_OPA_50 ? c2.full : c1.full;
 517:Drivers/lvgl/src/draw/sw/../../misc/lv_color.h **** #endif
 518:Drivers/lvgl/src/draw/sw/../../misc/lv_color.h **** 
 519:Drivers/lvgl/src/draw/sw/../../misc/lv_color.h ****     return ret;
ARM GAS  /var/folders/0z/tsy30v1j4xl4_7kw94k978ww0000gn/T//cc6AX49L.s 			page 35


 815              		.loc 3 519 5 view .LVU262
 816              		.loc 3 519 5 is_stmt 0 view .LVU263
 817              	.LBE213:
 818              	.LBE218:
 161:Drivers/lvgl/src/draw/sw/lv_draw_sw_img.c ****                 }
 819              		.loc 1 161 34 view .LVU264
 820 02fc 1088     		ldrh	r0, [r2]
 821              	.LBB219:
 822              	.LBB214:
 506:Drivers/lvgl/src/draw/sw/../../misc/lv_color.h ****     LV_COLOR_SET_B(ret, LV_UDIV255(premult_c1[2] + LV_COLOR_GET_B(c2) * mix + LV_COLOR_MIX_ROUND_OF
 823              		.loc 3 506 5 view .LVU265
 824 02fe DC0D     		lsrs	r4, r3, #23
 825              	.LBE214:
 826              	.LBE219:
 161:Drivers/lvgl/src/draw/sw/lv_draw_sw_img.c ****                 }
 827              		.loc 1 161 34 view .LVU266
 828 0300 C3F38263 		ubfx	r3, r3, #26, #3
 829 0304 0CEA0000 		and	r0, ip, r0
 830 0308 43EA4433 		orr	r3, r3, r4, lsl #13
 831 030c 0343     		orrs	r3, r3, r0
 832 030e 22F8023B 		strh	r3, [r2], #2	@ movhi
 160:Drivers/lvgl/src/draw/sw/lv_draw_sw_img.c ****                     rgb_buf[i] = lv_color_mix_premult(premult_v, rgb_buf[i], recolor_opa);
 833              		.loc 1 160 43 is_stmt 1 view .LVU267
 160:Drivers/lvgl/src/draw/sw/lv_draw_sw_img.c ****                     rgb_buf[i] = lv_color_mix_premult(premult_v, rgb_buf[i], recolor_opa);
 834              		.loc 1 160 30 view .LVU268
 835 0312 5A45     		cmp	r2, fp
 836 0314 E5D1     		bne	.L32
 837 0316 0898     		ldr	r0, [sp, #32]
 838              	.L33:
 161:Drivers/lvgl/src/draw/sw/lv_draw_sw_img.c ****                 }
 839              		.loc 1 161 21 view .LVU269
 840              	.LVL63:
 841              	.LBB220:
 500:Drivers/lvgl/src/draw/sw/../../misc/lv_color.h **** {
 842              		.loc 3 500 48 view .LVU270
 843              	.LBB215:
 502:Drivers/lvgl/src/draw/sw/../../misc/lv_color.h **** #if LV_COLOR_DEPTH != 1
 844              		.loc 3 502 5 view .LVU271
 505:Drivers/lvgl/src/draw/sw/../../misc/lv_color.h ****     LV_COLOR_SET_G(ret, LV_UDIV255(premult_c1[1] + LV_COLOR_GET_G(c2) * mix + LV_COLOR_MIX_ROUND_OF
 845              		.loc 3 505 5 view .LVU272
 506:Drivers/lvgl/src/draw/sw/../../misc/lv_color.h ****     LV_COLOR_SET_B(ret, LV_UDIV255(premult_c1[2] + LV_COLOR_GET_B(c2) * mix + LV_COLOR_MIX_ROUND_OF
 846              		.loc 3 506 5 view .LVU273
 506:Drivers/lvgl/src/draw/sw/../../misc/lv_color.h ****     LV_COLOR_SET_B(ret, LV_UDIV255(premult_c1[2] + LV_COLOR_GET_B(c2) * mix + LV_COLOR_MIX_ROUND_OF
 847              		.loc 3 506 5 view .LVU274
 506:Drivers/lvgl/src/draw/sw/../../misc/lv_color.h ****     LV_COLOR_SET_B(ret, LV_UDIV255(premult_c1[2] + LV_COLOR_GET_B(c2) * mix + LV_COLOR_MIX_ROUND_OF
 848              		.loc 3 506 103 view .LVU275
 507:Drivers/lvgl/src/draw/sw/../../misc/lv_color.h ****     LV_COLOR_SET_A(ret, 0xFF);
 849              		.loc 3 507 5 view .LVU276
 508:Drivers/lvgl/src/draw/sw/../../misc/lv_color.h **** #else
 850              		.loc 3 508 5 view .LVU277
 508:Drivers/lvgl/src/draw/sw/../../misc/lv_color.h **** #else
 851              		.loc 3 508 5 view .LVU278
 508:Drivers/lvgl/src/draw/sw/../../misc/lv_color.h **** #else
 852              		.loc 3 508 5 view .LVU279
 853              		.loc 3 519 5 view .LVU280
 505:Drivers/lvgl/src/draw/sw/../../misc/lv_color.h ****     LV_COLOR_SET_G(ret, LV_UDIV255(premult_c1[1] + LV_COLOR_GET_G(c2) * mix + LV_COLOR_MIX_ROUND_OF
 854              		.loc 3 505 5 is_stmt 0 view .LVU281
ARM GAS  /var/folders/0z/tsy30v1j4xl4_7kw94k978ww0000gn/T//cc6AX49L.s 			page 36


 855 0318 0278     		ldrb	r2, [r0]	@ zero_extendqisi2
 856 031a D308     		lsrs	r3, r2, #3
 857 031c 03FB0173 		mla	r3, r3, r1, r7
 858 0320 03EB0324 		add	r4, r3, r3, lsl #8
 859 0324 03EBC413 		add	r3, r3, r4, lsl #7
 860 0328 DB0D     		lsrs	r3, r3, #23
 861              	.LBE215:
 862              	.LBE220:
 161:Drivers/lvgl/src/draw/sw/lv_draw_sw_img.c ****                 }
 863              		.loc 1 161 34 view .LVU282
 864 032a 63F3C702 		bfi	r2, r3, #3, #5
 865 032e 00F8022B 		strb	r2, [r0], #2
 160:Drivers/lvgl/src/draw/sw/lv_draw_sw_img.c ****                     rgb_buf[i] = lv_color_mix_premult(premult_v, rgb_buf[i], recolor_opa);
 866              		.loc 1 160 43 is_stmt 1 view .LVU283
 160:Drivers/lvgl/src/draw/sw/lv_draw_sw_img.c ****                     rgb_buf[i] = lv_color_mix_premult(premult_v, rgb_buf[i], recolor_opa);
 867              		.loc 1 160 30 view .LVU284
 868 0332 8345     		cmp	fp, r0
 869 0334 F0D1     		bne	.L33
 870 0336 0898     		ldr	r0, [sp, #32]
 871              	.L34:
 161:Drivers/lvgl/src/draw/sw/lv_draw_sw_img.c ****                 }
 872              		.loc 1 161 21 discriminator 3 view .LVU285
 873              	.LVL64:
 874              	.LBB221:
 500:Drivers/lvgl/src/draw/sw/../../misc/lv_color.h **** {
 875              		.loc 3 500 48 discriminator 3 view .LVU286
 876              	.LBB216:
 502:Drivers/lvgl/src/draw/sw/../../misc/lv_color.h **** #if LV_COLOR_DEPTH != 1
 877              		.loc 3 502 5 discriminator 3 view .LVU287
 505:Drivers/lvgl/src/draw/sw/../../misc/lv_color.h ****     LV_COLOR_SET_G(ret, LV_UDIV255(premult_c1[1] + LV_COLOR_GET_G(c2) * mix + LV_COLOR_MIX_ROUND_OF
 878              		.loc 3 505 5 discriminator 3 view .LVU288
 506:Drivers/lvgl/src/draw/sw/../../misc/lv_color.h ****     LV_COLOR_SET_B(ret, LV_UDIV255(premult_c1[2] + LV_COLOR_GET_B(c2) * mix + LV_COLOR_MIX_ROUND_OF
 879              		.loc 3 506 5 discriminator 3 view .LVU289
 506:Drivers/lvgl/src/draw/sw/../../misc/lv_color.h ****     LV_COLOR_SET_B(ret, LV_UDIV255(premult_c1[2] + LV_COLOR_GET_B(c2) * mix + LV_COLOR_MIX_ROUND_OF
 880              		.loc 3 506 5 discriminator 3 view .LVU290
 506:Drivers/lvgl/src/draw/sw/../../misc/lv_color.h ****     LV_COLOR_SET_B(ret, LV_UDIV255(premult_c1[2] + LV_COLOR_GET_B(c2) * mix + LV_COLOR_MIX_ROUND_OF
 881              		.loc 3 506 103 discriminator 3 view .LVU291
 507:Drivers/lvgl/src/draw/sw/../../misc/lv_color.h ****     LV_COLOR_SET_A(ret, 0xFF);
 882              		.loc 3 507 5 discriminator 3 view .LVU292
 508:Drivers/lvgl/src/draw/sw/../../misc/lv_color.h **** #else
 883              		.loc 3 508 5 discriminator 3 view .LVU293
 508:Drivers/lvgl/src/draw/sw/../../misc/lv_color.h **** #else
 884              		.loc 3 508 5 discriminator 3 view .LVU294
 508:Drivers/lvgl/src/draw/sw/../../misc/lv_color.h **** #else
 885              		.loc 3 508 5 discriminator 3 view .LVU295
 886              		.loc 3 519 5 discriminator 3 view .LVU296
 507:Drivers/lvgl/src/draw/sw/../../misc/lv_color.h ****     LV_COLOR_SET_A(ret, 0xFF);
 887              		.loc 3 507 5 is_stmt 0 discriminator 3 view .LVU297
 888 0338 4278     		ldrb	r2, [r0, #1]	@ zero_extendqisi2
 889 033a 02F01F03 		and	r3, r2, #31
 890 033e 03FB0163 		mla	r3, r3, r1, r6
 891 0342 03EB0324 		add	r4, r3, r3, lsl #8
 892 0346 03EBC413 		add	r3, r3, r4, lsl #7
 893              	.LBE216:
 894              	.LBE221:
 160:Drivers/lvgl/src/draw/sw/lv_draw_sw_img.c ****                     rgb_buf[i] = lv_color_mix_premult(premult_v, rgb_buf[i], recolor_opa);
 895              		.loc 1 160 30 discriminator 3 view .LVU298
ARM GAS  /var/folders/0z/tsy30v1j4xl4_7kw94k978ww0000gn/T//cc6AX49L.s 			page 37


 896 034a 0230     		adds	r0, r0, #2
 897              	.LBB222:
 898              	.LBB217:
 507:Drivers/lvgl/src/draw/sw/../../misc/lv_color.h ****     LV_COLOR_SET_A(ret, 0xFF);
 899              		.loc 3 507 5 discriminator 3 view .LVU299
 900 034c DB0D     		lsrs	r3, r3, #23
 901              	.LBE217:
 902              	.LBE222:
 161:Drivers/lvgl/src/draw/sw/lv_draw_sw_img.c ****                 }
 903              		.loc 1 161 34 discriminator 3 view .LVU300
 904 034e 63F30402 		bfi	r2, r3, #0, #5
 160:Drivers/lvgl/src/draw/sw/lv_draw_sw_img.c ****                     rgb_buf[i] = lv_color_mix_premult(premult_v, rgb_buf[i], recolor_opa);
 905              		.loc 1 160 30 discriminator 3 view .LVU301
 906 0352 8345     		cmp	fp, r0
 161:Drivers/lvgl/src/draw/sw/lv_draw_sw_img.c ****                 }
 907              		.loc 1 161 34 discriminator 3 view .LVU302
 908 0354 00F8012C 		strb	r2, [r0, #-1]
 160:Drivers/lvgl/src/draw/sw/lv_draw_sw_img.c ****                     rgb_buf[i] = lv_color_mix_premult(premult_v, rgb_buf[i], recolor_opa);
 909              		.loc 1 160 43 is_stmt 1 discriminator 3 view .LVU303
 160:Drivers/lvgl/src/draw/sw/lv_draw_sw_img.c ****                     rgb_buf[i] = lv_color_mix_premult(premult_v, rgb_buf[i], recolor_opa);
 910              		.loc 1 160 30 discriminator 3 view .LVU304
 911 0358 EED1     		bne	.L34
 912              	.LBE202:
 166:Drivers/lvgl/src/draw/sw/lv_draw_sw_img.c ****                 lv_coord_t y;
 913              		.loc 1 166 13 view .LVU305
 166:Drivers/lvgl/src/draw/sw/lv_draw_sw_img.c ****                 lv_coord_t y;
 914              		.loc 1 166 15 is_stmt 0 view .LVU306
 915 035a 0E9B     		ldr	r3, [sp, #56]
 916 035c 002B     		cmp	r3, #0
 917 035e 3FF4FAAE 		beq	.L39
 918              	.LVL65:
 919              	.L36:
 920              	.LBB223:
 167:Drivers/lvgl/src/draw/sw/lv_draw_sw_img.c ****                 lv_opa_t * mask_buf_tmp = mask_buf;
 921              		.loc 1 167 17 is_stmt 1 view .LVU307
 168:Drivers/lvgl/src/draw/sw/lv_draw_sw_img.c ****                 for(y = blend_area.y1; y <= blend_area.y2; y++) {
 922              		.loc 1 168 17 view .LVU308
 169:Drivers/lvgl/src/draw/sw/lv_draw_sw_img.c ****                     lv_draw_mask_res_t mask_res_line;
 923              		.loc 1 169 17 view .LVU309
 169:Drivers/lvgl/src/draw/sw/lv_draw_sw_img.c ****                     lv_draw_mask_res_t mask_res_line;
 924              		.loc 1 169 23 is_stmt 0 view .LVU310
 925 0362 BDF96E60 		ldrsh	r6, [sp, #110]
 926              	.LVL66:
 169:Drivers/lvgl/src/draw/sw/lv_draw_sw_img.c ****                     lv_draw_mask_res_t mask_res_line;
 927              		.loc 1 169 42 is_stmt 1 view .LVU311
 928 0366 BDF97230 		ldrsh	r3, [sp, #114]
 929 036a B342     		cmp	r3, r6
 930 036c FFF6F3AE 		blt	.L39
 168:Drivers/lvgl/src/draw/sw/lv_draw_sw_img.c ****                 for(y = blend_area.y1; y <= blend_area.y2; y++) {
 931              		.loc 1 168 28 is_stmt 0 view .LVU312
 932 0370 099C     		ldr	r4, [sp, #36]
 933              	.LBB224:
 175:Drivers/lvgl/src/draw/sw/lv_draw_sw_img.c ****                     }
 934              		.loc 1 175 44 view .LVU313
 935 0372 0225     		movs	r5, #2
 936 0374 0BE0     		b	.L42
 937              	.LVL67:
ARM GAS  /var/folders/0z/tsy30v1j4xl4_7kw94k978ww0000gn/T//cc6AX49L.s 			page 38


 938              	.L40:
 177:Drivers/lvgl/src/draw/sw/lv_draw_sw_img.c ****                         blend_dsc.mask_res = LV_DRAW_MASK_RES_CHANGED;
 939              		.loc 1 177 28 view .LVU314
 940 0376 0228     		cmp	r0, #2
 178:Drivers/lvgl/src/draw/sw/lv_draw_sw_img.c ****                     }
 941              		.loc 1 178 25 is_stmt 1 view .LVU315
 178:Drivers/lvgl/src/draw/sw/lv_draw_sw_img.c ****                     }
 942              		.loc 1 178 44 is_stmt 0 view .LVU316
 943 0378 08BF     		it	eq
 944 037a 8DF88C00 		strbeq	r0, [sp, #140]
 945              	.LVL68:
 946              	.L41:
 180:Drivers/lvgl/src/draw/sw/lv_draw_sw_img.c ****                 }
 947              		.loc 1 180 21 is_stmt 1 discriminator 2 view .LVU317
 948              	.LBE224:
 169:Drivers/lvgl/src/draw/sw/lv_draw_sw_img.c ****                     lv_draw_mask_res_t mask_res_line;
 949              		.loc 1 169 42 is_stmt 0 discriminator 2 view .LVU318
 950 037e BDF97230 		ldrsh	r3, [sp, #114]
 951 0382 0136     		adds	r6, r6, #1
 952              	.LVL69:
 169:Drivers/lvgl/src/draw/sw/lv_draw_sw_img.c ****                     lv_draw_mask_res_t mask_res_line;
 953              		.loc 1 169 42 discriminator 2 view .LVU319
 954 0384 36B2     		sxth	r6, r6
 955 0386 B342     		cmp	r3, r6
 956              	.LBB225:
 180:Drivers/lvgl/src/draw/sw/lv_draw_sw_img.c ****                 }
 957              		.loc 1 180 34 discriminator 2 view .LVU320
 958 0388 5444     		add	r4, r4, r10
 959              	.LVL70:
 180:Drivers/lvgl/src/draw/sw/lv_draw_sw_img.c ****                 }
 960              		.loc 1 180 34 discriminator 2 view .LVU321
 961              	.LBE225:
 169:Drivers/lvgl/src/draw/sw/lv_draw_sw_img.c ****                     lv_draw_mask_res_t mask_res_line;
 962              		.loc 1 169 61 is_stmt 1 discriminator 2 view .LVU322
 169:Drivers/lvgl/src/draw/sw/lv_draw_sw_img.c ****                     lv_draw_mask_res_t mask_res_line;
 963              		.loc 1 169 42 discriminator 2 view .LVU323
 964 038a FFF6E4AE 		blt	.L39
 965              	.LVL71:
 966              	.L42:
 967              	.LBB226:
 170:Drivers/lvgl/src/draw/sw/lv_draw_sw_img.c ****                     mask_res_line = lv_draw_mask_apply(mask_buf_tmp, blend_area.x1, y, blend_w);
 968              		.loc 1 170 21 view .LVU324
 171:Drivers/lvgl/src/draw/sw/lv_draw_sw_img.c **** 
 969              		.loc 1 171 21 view .LVU325
 171:Drivers/lvgl/src/draw/sw/lv_draw_sw_img.c **** 
 970              		.loc 1 171 37 is_stmt 0 view .LVU326
 971 038e BDF96C10 		ldrsh	r1, [sp, #108]
 972 0392 3246     		mov	r2, r6
 973 0394 5346     		mov	r3, r10
 974 0396 2046     		mov	r0, r4
 975 0398 FFF7FEFF 		bl	lv_draw_mask_apply
 976              	.LVL72:
 177:Drivers/lvgl/src/draw/sw/lv_draw_sw_img.c ****                         blend_dsc.mask_res = LV_DRAW_MASK_RES_CHANGED;
 977              		.loc 1 177 26 is_stmt 1 view .LVU327
 173:Drivers/lvgl/src/draw/sw/lv_draw_sw_img.c ****                         lv_memset_00(mask_buf_tmp, blend_w);
 978              		.loc 1 173 21 view .LVU328
 173:Drivers/lvgl/src/draw/sw/lv_draw_sw_img.c ****                         lv_memset_00(mask_buf_tmp, blend_w);
ARM GAS  /var/folders/0z/tsy30v1j4xl4_7kw94k978ww0000gn/T//cc6AX49L.s 			page 39


 979              		.loc 1 173 23 is_stmt 0 view .LVU329
 980 039c 0028     		cmp	r0, #0
 981 039e EAD1     		bne	.L40
 174:Drivers/lvgl/src/draw/sw/lv_draw_sw_img.c ****                         blend_dsc.mask_res = LV_DRAW_MASK_RES_CHANGED;
 982              		.loc 1 174 25 is_stmt 1 view .LVU330
 983 03a0 5146     		mov	r1, r10
 984 03a2 2046     		mov	r0, r4
 985              	.LVL73:
 174:Drivers/lvgl/src/draw/sw/lv_draw_sw_img.c ****                         blend_dsc.mask_res = LV_DRAW_MASK_RES_CHANGED;
 986              		.loc 1 174 25 is_stmt 0 view .LVU331
 987 03a4 FFF7FEFF 		bl	lv_memset_00
 988              	.LVL74:
 175:Drivers/lvgl/src/draw/sw/lv_draw_sw_img.c ****                     }
 989              		.loc 1 175 25 is_stmt 1 view .LVU332
 175:Drivers/lvgl/src/draw/sw/lv_draw_sw_img.c ****                     }
 990              		.loc 1 175 44 is_stmt 0 view .LVU333
 991 03a8 8DF88C50 		strb	r5, [sp, #140]
 992 03ac E7E7     		b	.L41
 993              	.LVL75:
 994              	.L14:
 175:Drivers/lvgl/src/draw/sw/lv_draw_sw_img.c ****                     }
 995              		.loc 1 175 44 view .LVU334
 996              	.LBE226:
 997              	.LBE223:
 998              	.LBB227:
 999              	.LBB192:
 1000              	.LBB165:
 278:Drivers/lvgl/src/draw/sw/lv_draw_sw_img.c **** 
 1001              		.loc 1 278 9 is_stmt 1 view .LVU335
 1002              	.LBB141:
 1003              	.LBB142:
 1004              		.loc 2 135 49 is_stmt 0 view .LVU336
 1005 03ae BDF87A50 		ldrh	r5, [sp, #122]
 1006              	.LBE142:
 1007              	.LBE141:
 278:Drivers/lvgl/src/draw/sw/lv_draw_sw_img.c **** 
 1008              		.loc 1 278 44 view .LVU337
 1009 03b2 BDF97630 		ldrsh	r3, [sp, #118]
 1010              	.LBB146:
 1011              	.LBB147:
 125:Drivers/lvgl/src/draw/sw/../../misc/lv_area.h **** }
 1012              		.loc 2 125 49 view .LVU338
 1013 03b6 BDF87860 		ldrh	r6, [sp, #120]
 1014              	.LBE147:
 1015              	.LBE146:
 278:Drivers/lvgl/src/draw/sw/lv_draw_sw_img.c **** 
 1016              		.loc 1 278 82 view .LVU339
 1017 03ba BDF97420 		ldrsh	r2, [sp, #116]
 278:Drivers/lvgl/src/draw/sw/lv_draw_sw_img.c **** 
 1018              		.loc 1 278 71 view .LVU340
 1019 03be 0D99     		ldr	r1, [sp, #52]
 1020              	.LBB151:
 1021              	.LBB143:
 1022              		.loc 2 135 49 view .LVU341
 1023 03c0 0135     		adds	r5, r5, #1
 1024 03c2 ED1A     		subs	r5, r5, r3
 1025              	.LBE143:
ARM GAS  /var/folders/0z/tsy30v1j4xl4_7kw94k978ww0000gn/T//cc6AX49L.s 			page 40


 1026              	.LBE151:
 1027              	.LBB152:
 1028              	.LBB148:
 125:Drivers/lvgl/src/draw/sw/../../misc/lv_area.h **** }
 1029              		.loc 2 125 49 view .LVU342
 1030 03c4 0136     		adds	r6, r6, #1
 1031              	.LBE148:
 1032              	.LBE152:
 278:Drivers/lvgl/src/draw/sw/lv_draw_sw_img.c **** 
 1033              		.loc 1 278 71 view .LVU343
 1034 03c6 01FB0323 		mla	r3, r1, r3, r2
 1035              	.LBB153:
 1036              	.LBB149:
 125:Drivers/lvgl/src/draw/sw/../../misc/lv_area.h **** }
 1037              		.loc 2 125 49 view .LVU344
 1038 03ca B61A     		subs	r6, r6, r2
 1039              	.LBE149:
 1040              	.LBE153:
 1041              	.LBB154:
 1042              	.LBB144:
 1043              		.loc 2 135 12 view .LVU345
 1044 03cc 2DB2     		sxth	r5, r5
 1045              	.LBE144:
 1046              	.LBE154:
 278:Drivers/lvgl/src/draw/sw/lv_draw_sw_img.c **** 
 1047              		.loc 1 278 18 view .LVU346
 1048 03ce 18EE102A 		vmov	r2, s16	@ int
 284:Drivers/lvgl/src/draw/sw/lv_draw_sw_img.c ****             lv_memcpy(cbuf, src_tmp8, dest_w * sizeof(lv_color_t));
 1049              		.loc 1 284 22 view .LVU347
 1050 03d2 002D     		cmp	r5, #0
 278:Drivers/lvgl/src/draw/sw/lv_draw_sw_img.c **** 
 1051              		.loc 1 278 18 view .LVU348
 1052 03d4 02EB4304 		add	r4, r2, r3, lsl #1
 1053              	.LVL76:
 280:Drivers/lvgl/src/draw/sw/lv_draw_sw_img.c **** 
 1054              		.loc 1 280 9 is_stmt 1 view .LVU349
 282:Drivers/lvgl/src/draw/sw/lv_draw_sw_img.c ****         lv_coord_t dest_w = lv_area_get_width(dest_area);
 1055              		.loc 1 282 9 view .LVU350
 1056              	.LBB155:
 1057              	.LBI141:
 133:Drivers/lvgl/src/draw/sw/../../misc/lv_area.h **** {
 1058              		.loc 2 133 26 view .LVU351
 1059              	.LBB145:
 1060              		.loc 2 135 5 view .LVU352
 1061              		.loc 2 135 5 is_stmt 0 view .LVU353
 1062              	.LBE145:
 1063              	.LBE155:
 283:Drivers/lvgl/src/draw/sw/lv_draw_sw_img.c ****         for(y = 0; y < dest_h; y++) {
 1064              		.loc 1 283 9 is_stmt 1 view .LVU354
 1065              	.LBB156:
 1066              	.LBI146:
 123:Drivers/lvgl/src/draw/sw/../../misc/lv_area.h **** {
 1067              		.loc 2 123 26 view .LVU355
 1068              	.LBB150:
 125:Drivers/lvgl/src/draw/sw/../../misc/lv_area.h **** }
 1069              		.loc 2 125 5 view .LVU356
 125:Drivers/lvgl/src/draw/sw/../../misc/lv_area.h **** }
ARM GAS  /var/folders/0z/tsy30v1j4xl4_7kw94k978ww0000gn/T//cc6AX49L.s 			page 41


 1070              		.loc 2 125 12 is_stmt 0 view .LVU357
 1071 03d8 36B2     		sxth	r6, r6
 1072              	.LVL77:
 125:Drivers/lvgl/src/draw/sw/../../misc/lv_area.h **** }
 1073              		.loc 2 125 12 view .LVU358
 1074              	.LBE150:
 1075              	.LBE156:
 284:Drivers/lvgl/src/draw/sw/lv_draw_sw_img.c ****             lv_memcpy(cbuf, src_tmp8, dest_w * sizeof(lv_color_t));
 1076              		.loc 1 284 9 is_stmt 1 view .LVU359
 284:Drivers/lvgl/src/draw/sw/lv_draw_sw_img.c ****             lv_memcpy(cbuf, src_tmp8, dest_w * sizeof(lv_color_t));
 1077              		.loc 1 284 22 view .LVU360
 1078 03da 7FF7B3AE 		ble	.L13
 1079              	.LVL78:
 285:Drivers/lvgl/src/draw/sw/lv_draw_sw_img.c ****             cbuf += dest_w;
 1080              		.loc 1 285 13 is_stmt 0 view .LVU361
 1081 03de 7200     		lsls	r2, r6, #1
 1082              	.LVL79:
 285:Drivers/lvgl/src/draw/sw/lv_draw_sw_img.c ****             cbuf += dest_w;
 1083              		.loc 1 285 13 view .LVU362
 1084              	.LBE165:
 1085              	.LBB166:
 227:Drivers/lvgl/src/draw/sw/lv_draw_sw_img.c ****             cbuf_tmp += dest_w;
 1086              		.loc 1 227 22 view .LVU363
 1087 03e0 1696     		str	r6, [sp, #88]
 1088 03e2 DDF82080 		ldr	r8, [sp, #32]
 1089 03e6 139E     		ldr	r6, [sp, #76]
 1090              	.LVL80:
 227:Drivers/lvgl/src/draw/sw/lv_draw_sw_img.c ****             cbuf_tmp += dest_w;
 1091              		.loc 1 227 22 view .LVU364
 1092 03e8 CDF85CB0 		str	fp, [sp, #92]
 1093 03ec 0027     		movs	r7, #0
 1094 03ee AB46     		mov	fp, r5
 1095 03f0 1546     		mov	r5, r2
 1096              	.LVL81:
 1097              	.L27:
 227:Drivers/lvgl/src/draw/sw/lv_draw_sw_img.c ****             cbuf_tmp += dest_w;
 1098              		.loc 1 227 22 view .LVU365
 1099              	.LBE166:
 1100              	.LBB167:
 285:Drivers/lvgl/src/draw/sw/lv_draw_sw_img.c ****             cbuf += dest_w;
 1101              		.loc 1 285 13 is_stmt 1 view .LVU366
 1102 03f2 2146     		mov	r1, r4
 1103 03f4 4046     		mov	r0, r8
 284:Drivers/lvgl/src/draw/sw/lv_draw_sw_img.c ****             lv_memcpy(cbuf, src_tmp8, dest_w * sizeof(lv_color_t));
 1104              		.loc 1 284 22 is_stmt 0 view .LVU367
 1105 03f6 0137     		adds	r7, r7, #1
 1106              	.LVL82:
 285:Drivers/lvgl/src/draw/sw/lv_draw_sw_img.c ****             cbuf += dest_w;
 1107              		.loc 1 285 13 view .LVU368
 1108 03f8 2A46     		mov	r2, r5
 1109 03fa FFF7FEFF 		bl	lv_memcpy
 1110              	.LVL83:
 286:Drivers/lvgl/src/draw/sw/lv_draw_sw_img.c ****             src_tmp8 += src_stride_byte;
 1111              		.loc 1 286 13 is_stmt 1 view .LVU369
 284:Drivers/lvgl/src/draw/sw/lv_draw_sw_img.c ****             lv_memcpy(cbuf, src_tmp8, dest_w * sizeof(lv_color_t));
 1112              		.loc 1 284 22 is_stmt 0 view .LVU370
 1113 03fe 3BB2     		sxth	r3, r7
ARM GAS  /var/folders/0z/tsy30v1j4xl4_7kw94k978ww0000gn/T//cc6AX49L.s 			page 42


 1114 0400 9B45     		cmp	fp, r3
 287:Drivers/lvgl/src/draw/sw/lv_draw_sw_img.c ****         }
 1115              		.loc 1 287 22 view .LVU371
 1116 0402 3444     		add	r4, r4, r6
 1117              	.LVL84:
 286:Drivers/lvgl/src/draw/sw/lv_draw_sw_img.c ****             src_tmp8 += src_stride_byte;
 1118              		.loc 1 286 18 view .LVU372
 1119 0404 A844     		add	r8, r8, r5
 1120              	.LVL85:
 287:Drivers/lvgl/src/draw/sw/lv_draw_sw_img.c ****         }
 1121              		.loc 1 287 13 is_stmt 1 view .LVU373
 284:Drivers/lvgl/src/draw/sw/lv_draw_sw_img.c ****             lv_memcpy(cbuf, src_tmp8, dest_w * sizeof(lv_color_t));
 1122              		.loc 1 284 33 view .LVU374
 284:Drivers/lvgl/src/draw/sw/lv_draw_sw_img.c ****             lv_memcpy(cbuf, src_tmp8, dest_w * sizeof(lv_color_t));
 1123              		.loc 1 284 22 view .LVU375
 1124 0406 F4DC     		bgt	.L27
 292:Drivers/lvgl/src/draw/sw/lv_draw_sw_img.c ****         src_tmp8 += src_stride * dest_area->y1 + dest_area->x1;
 1125              		.loc 1 292 48 is_stmt 0 view .LVU376
 1126 0408 BDF97430 		ldrsh	r3, [sp, #116]
 1127 040c 0D9A     		ldr	r2, [sp, #52]
 1128 040e BDF87640 		ldrh	r4, [sp, #118]
 1129              	.LVL86:
 1130              		.loc 1 292 18 view .LVU377
 1131 0412 DDF82480 		ldr	r8, [sp, #36]
 1132              	.LVL87:
 1133              		.loc 1 292 48 view .LVU378
 1134 0416 12FB0434 		smlabb	r4, r2, r4, r3
 1135              		.loc 1 292 18 view .LVU379
 1136 041a 159B     		ldr	r3, [sp, #84]
 1137 041c 5D46     		mov	r5, fp
 1138 041e DDE9166B 		ldrd	r6, fp, [sp, #88]
 1139              	.LVL88:
 290:Drivers/lvgl/src/draw/sw/lv_draw_sw_img.c ****         src_tmp8 += sizeof(lv_color_t) * src_w * src_h;
 1140              		.loc 1 290 9 is_stmt 1 view .LVU380
 291:Drivers/lvgl/src/draw/sw/lv_draw_sw_img.c ****         src_tmp8 += src_stride * dest_area->y1 + dest_area->x1;
 1141              		.loc 1 291 9 view .LVU381
 1142              		.loc 1 292 9 view .LVU382
 1143              		.loc 1 292 18 is_stmt 0 view .LVU383
 1144 0422 1C44     		add	r4, r4, r3
 1145 0424 18EE103A 		vmov	r3, s16	@ int
 1146 0428 CDF858B0 		str	fp, [sp, #88]
 1147              	.LVL89:
 1148              		.loc 1 292 18 view .LVU384
 1149 042c 1C44     		add	r4, r4, r3
 1150              	.LVL90:
 293:Drivers/lvgl/src/draw/sw/lv_draw_sw_img.c ****         for(y = 0; y < dest_h; y++) {
 1151              		.loc 1 293 9 is_stmt 1 view .LVU385
 1152              		.loc 1 293 22 view .LVU386
 1153 042e AB46     		mov	fp, r5
 292:Drivers/lvgl/src/draw/sw/lv_draw_sw_img.c ****         for(y = 0; y < dest_h; y++) {
 1154              		.loc 1 292 18 is_stmt 0 view .LVU387
 1155 0430 0027     		movs	r7, #0
 1156 0432 1546     		mov	r5, r2
 1157              	.LVL91:
 1158              	.L29:
 294:Drivers/lvgl/src/draw/sw/lv_draw_sw_img.c ****             lv_memcpy(abuf, src_tmp8, dest_w);
 1159              		.loc 1 294 13 is_stmt 1 view .LVU388
ARM GAS  /var/folders/0z/tsy30v1j4xl4_7kw94k978ww0000gn/T//cc6AX49L.s 			page 43


 1160 0434 2146     		mov	r1, r4
 1161 0436 4046     		mov	r0, r8
 293:Drivers/lvgl/src/draw/sw/lv_draw_sw_img.c ****         for(y = 0; y < dest_h; y++) {
 1162              		.loc 1 293 22 is_stmt 0 view .LVU389
 1163 0438 0137     		adds	r7, r7, #1
 1164              	.LVL92:
 1165              		.loc 1 294 13 view .LVU390
 1166 043a 3246     		mov	r2, r6
 1167 043c FFF7FEFF 		bl	lv_memcpy
 1168              	.LVL93:
 295:Drivers/lvgl/src/draw/sw/lv_draw_sw_img.c ****             abuf += dest_w;
 1169              		.loc 1 295 13 is_stmt 1 view .LVU391
 293:Drivers/lvgl/src/draw/sw/lv_draw_sw_img.c ****             lv_memcpy(abuf, src_tmp8, dest_w);
 1170              		.loc 1 293 22 is_stmt 0 view .LVU392
 1171 0440 3BB2     		sxth	r3, r7
 1172 0442 9B45     		cmp	fp, r3
 296:Drivers/lvgl/src/draw/sw/lv_draw_sw_img.c ****             src_tmp8 += src_stride;
 1173              		.loc 1 296 22 view .LVU393
 1174 0444 2C44     		add	r4, r4, r5
 1175              	.LVL94:
 295:Drivers/lvgl/src/draw/sw/lv_draw_sw_img.c ****             abuf += dest_w;
 1176              		.loc 1 295 18 view .LVU394
 1177 0446 B044     		add	r8, r8, r6
 1178              	.LVL95:
 1179              		.loc 1 296 13 is_stmt 1 view .LVU395
 293:Drivers/lvgl/src/draw/sw/lv_draw_sw_img.c ****             lv_memcpy(abuf, src_tmp8, dest_w);
 1180              		.loc 1 293 33 view .LVU396
 293:Drivers/lvgl/src/draw/sw/lv_draw_sw_img.c ****             lv_memcpy(abuf, src_tmp8, dest_w);
 1181              		.loc 1 293 22 view .LVU397
 1182 0448 F4DC     		bgt	.L29
 1183 044a DDF858B0 		ldr	fp, [sp, #88]
 1184              	.LVL96:
 293:Drivers/lvgl/src/draw/sw/lv_draw_sw_img.c ****             lv_memcpy(abuf, src_tmp8, dest_w);
 1185              		.loc 1 293 22 is_stmt 0 view .LVU398
 1186 044e 79E6     		b	.L13
 1187              	.LVL97:
 1188              	.L17:
 293:Drivers/lvgl/src/draw/sw/lv_draw_sw_img.c ****             lv_memcpy(abuf, src_tmp8, dest_w);
 1189              		.loc 1 293 22 view .LVU399
 1190              	.LBE167:
 1191              	.LBB168:
 251:Drivers/lvgl/src/draw/sw/lv_draw_sw_img.c **** 
 1192              		.loc 1 251 9 is_stmt 1 view .LVU400
 1193              	.LBB169:
 1194              	.LBB170:
 1195              		.loc 2 135 49 is_stmt 0 view .LVU401
 1196 0450 BDF87A30 		ldrh	r3, [sp, #122]
 1197              	.LBE170:
 1198              	.LBE169:
 251:Drivers/lvgl/src/draw/sw/lv_draw_sw_img.c **** 
 1199              		.loc 1 251 44 view .LVU402
 1200 0454 BDF97660 		ldrsh	r6, [sp, #118]
 251:Drivers/lvgl/src/draw/sw/lv_draw_sw_img.c **** 
 1201              		.loc 1 251 89 view .LVU403
 1202 0458 BDF97410 		ldrsh	r1, [sp, #116]
 251:Drivers/lvgl/src/draw/sw/lv_draw_sw_img.c **** 
 1203              		.loc 1 251 78 view .LVU404
ARM GAS  /var/folders/0z/tsy30v1j4xl4_7kw94k978ww0000gn/T//cc6AX49L.s 			page 44


 1204 045c 0D98     		ldr	r0, [sp, #52]
 1205              	.LBB174:
 1206              	.LBB175:
 125:Drivers/lvgl/src/draw/sw/../../misc/lv_area.h **** }
 1207              		.loc 2 125 31 view .LVU405
 1208 045e BDF87820 		ldrh	r2, [sp, #120]
 1209              	.LBE175:
 1210              	.LBE174:
 1211              	.LBB182:
 1212              	.LBB171:
 1213              		.loc 2 135 49 view .LVU406
 1214 0462 0133     		adds	r3, r3, #1
 1215 0464 9B1B     		subs	r3, r3, r6
 1216              	.LBE171:
 1217              	.LBE182:
 251:Drivers/lvgl/src/draw/sw/lv_draw_sw_img.c **** 
 1218              		.loc 1 251 78 view .LVU407
 1219 0466 00FB0616 		mla	r6, r0, r6, r1
 1220              	.LBB183:
 1221              	.LBB172:
 1222              		.loc 2 135 12 view .LVU408
 1223 046a 18B2     		sxth	r0, r3
 1224              	.LBE172:
 1225              	.LBE183:
 251:Drivers/lvgl/src/draw/sw/lv_draw_sw_img.c **** 
 1226              		.loc 1 251 18 view .LVU409
 1227 046c 18EE103A 		vmov	r3, s16	@ int
 1228              	.LBB184:
 1229              	.LBB176:
 125:Drivers/lvgl/src/draw/sw/../../misc/lv_area.h **** }
 1230              		.loc 2 125 44 view .LVU410
 1231 0470 89B2     		uxth	r1, r1
 1232              	.LBE176:
 1233              	.LBE184:
 251:Drivers/lvgl/src/draw/sw/lv_draw_sw_img.c **** 
 1234              		.loc 1 251 78 view .LVU411
 1235 0472 06EB4606 		add	r6, r6, r6, lsl #1
 1236              	.LBB185:
 1237              	.LBB177:
 125:Drivers/lvgl/src/draw/sw/../../misc/lv_area.h **** }
 1238              		.loc 2 125 49 view .LVU412
 1239 0476 571C     		adds	r7, r2, #1
 1240              	.LBE177:
 1241              	.LBE185:
 251:Drivers/lvgl/src/draw/sw/lv_draw_sw_img.c **** 
 1242              		.loc 1 251 18 view .LVU413
 1243 0478 1E44     		add	r6, r6, r3
 1244              	.LVL98:
 253:Drivers/lvgl/src/draw/sw/lv_draw_sw_img.c ****         lv_coord_t src_new_line_step_byte = src_new_line_step_px * LV_IMG_PX_SIZE_ALPHA_BYTE;
 1245              		.loc 1 253 9 is_stmt 1 view .LVU414
 1246              	.LBB186:
 1247              	.LBI174:
 123:Drivers/lvgl/src/draw/sw/../../misc/lv_area.h **** {
 1248              		.loc 2 123 26 view .LVU415
 1249              	.LBB178:
 125:Drivers/lvgl/src/draw/sw/../../misc/lv_area.h **** }
 1250              		.loc 2 125 5 view .LVU416
ARM GAS  /var/folders/0z/tsy30v1j4xl4_7kw94k978ww0000gn/T//cc6AX49L.s 			page 45


 1251              	.LBE178:
 1252              	.LBE186:
 253:Drivers/lvgl/src/draw/sw/lv_draw_sw_img.c ****         lv_coord_t src_new_line_step_byte = src_new_line_step_px * LV_IMG_PX_SIZE_ALPHA_BYTE;
 1253              		.loc 1 253 55 is_stmt 0 view .LVU417
 1254 047a 8B1A     		subs	r3, r1, r2
 1255 047c 149A     		ldr	r2, [sp, #80]
 1256 047e 1344     		add	r3, r3, r2
 1257              	.LBB187:
 1258              	.LBB179:
 125:Drivers/lvgl/src/draw/sw/../../misc/lv_area.h **** }
 1259              		.loc 2 125 49 view .LVU418
 1260 0480 7F1A     		subs	r7, r7, r1
 1261              	.LBE179:
 1262              	.LBE187:
 254:Drivers/lvgl/src/draw/sw/lv_draw_sw_img.c **** 
 1263              		.loc 1 254 66 view .LVU419
 1264 0482 03EB4303 		add	r3, r3, r3, lsl #1
 258:Drivers/lvgl/src/draw/sw/lv_draw_sw_img.c ****             for(x = 0; x < dest_w; x++) {
 1265              		.loc 1 258 22 view .LVU420
 1266 0486 0028     		cmp	r0, #0
 1267              	.LBB188:
 1268              	.LBB180:
 125:Drivers/lvgl/src/draw/sw/../../misc/lv_area.h **** }
 1269              		.loc 2 125 49 view .LVU421
 1270 0488 BAB2     		uxth	r2, r7
 1271              	.LBE180:
 1272              	.LBE188:
 254:Drivers/lvgl/src/draw/sw/lv_draw_sw_img.c **** 
 1273              		.loc 1 254 20 view .LVU422
 1274 048a 1BB2     		sxth	r3, r3
 1275              	.LBB189:
 1276              	.LBB181:
 125:Drivers/lvgl/src/draw/sw/../../misc/lv_area.h **** }
 1277              		.loc 2 125 12 view .LVU423
 1278 048c 3FB2     		sxth	r7, r7
 1279              	.LVL99:
 125:Drivers/lvgl/src/draw/sw/../../misc/lv_area.h **** }
 1280              		.loc 2 125 12 view .LVU424
 1281              	.LBE181:
 1282              	.LBE189:
 254:Drivers/lvgl/src/draw/sw/lv_draw_sw_img.c **** 
 1283              		.loc 1 254 9 is_stmt 1 view .LVU425
 256:Drivers/lvgl/src/draw/sw/lv_draw_sw_img.c ****         lv_coord_t dest_w = lv_area_get_width(dest_area);
 1284              		.loc 1 256 9 view .LVU426
 1285              	.LBB190:
 1286              	.LBI169:
 133:Drivers/lvgl/src/draw/sw/../../misc/lv_area.h **** {
 1287              		.loc 2 133 26 view .LVU427
 1288              	.LBB173:
 1289              		.loc 2 135 5 view .LVU428
 1290              		.loc 2 135 5 is_stmt 0 view .LVU429
 1291              	.LBE173:
 1292              	.LBE190:
 257:Drivers/lvgl/src/draw/sw/lv_draw_sw_img.c ****         for(y = 0; y < dest_h; y++) {
 1293              		.loc 1 257 9 is_stmt 1 view .LVU430
 258:Drivers/lvgl/src/draw/sw/lv_draw_sw_img.c ****             for(x = 0; x < dest_w; x++) {
 1294              		.loc 1 258 9 view .LVU431
ARM GAS  /var/folders/0z/tsy30v1j4xl4_7kw94k978ww0000gn/T//cc6AX49L.s 			page 46


 258:Drivers/lvgl/src/draw/sw/lv_draw_sw_img.c ****             for(x = 0; x < dest_w; x++) {
 1295              		.loc 1 258 22 view .LVU432
 1296 048e 0146     		mov	r1, r0
 1297              	.LVL100:
 258:Drivers/lvgl/src/draw/sw/lv_draw_sw_img.c ****             for(x = 0; x < dest_w; x++) {
 1298              		.loc 1 258 22 is_stmt 0 view .LVU433
 1299 0490 7FF758AE 		ble	.L13
 1300 0494 002F     		cmp	r7, #0
 272:Drivers/lvgl/src/draw/sw/lv_draw_sw_img.c ****             abuf += dest_w;
 1301              		.loc 1 272 18 view .LVU434
 1302 0496 4FEA4700 		lsl	r0, r7, #1
 1303              	.LVL101:
 272:Drivers/lvgl/src/draw/sw/lv_draw_sw_img.c ****             abuf += dest_w;
 1304              		.loc 1 272 18 view .LVU435
 1305 049a 7FF753AE 		ble	.L13
 1306 049e 551E     		subs	r5, r2, #1
 1307 04a0 ADB2     		uxth	r5, r5
 1308 04a2 05EB4502 		add	r2, r5, r5, lsl #1
 1309 04a6 1344     		add	r3, r3, r2
 1310              	.LVL102:
 272:Drivers/lvgl/src/draw/sw/lv_draw_sw_img.c ****             abuf += dest_w;
 1311              		.loc 1 272 18 view .LVU436
 1312 04a8 099A     		ldr	r2, [sp, #36]
 274:Drivers/lvgl/src/draw/sw/lv_draw_sw_img.c ****         }
 1313              		.loc 1 274 22 view .LVU437
 1314 04aa DDF82080 		ldr	r8, [sp, #32]
 1315 04ae CDF858B0 		str	fp, [sp, #88]
 1316 04b2 0333     		adds	r3, r3, #3
 1317 04b4 07EE90AA 		vmov	s15, r10	@ int
 1318 04b8 07EE109A 		vmov	s14, r9	@ int
 1319 04bc 1544     		add	r5, r5, r2
 1320 04be 9646     		mov	lr, r2
 1321 04c0 4FF0000C 		mov	ip, #0
 1322 04c4 8B46     		mov	fp, r1
 1323 04c6 8146     		mov	r9, r0
 1324              	.LVL103:
 274:Drivers/lvgl/src/draw/sw/lv_draw_sw_img.c ****         }
 1325              		.loc 1 274 22 view .LVU438
 1326 04c8 9A46     		mov	r10, r3
 1327              	.LVL104:
 1328              	.L25:
 259:Drivers/lvgl/src/draw/sw/lv_draw_sw_img.c ****                 abuf[x] = src_tmp8[LV_IMG_PX_SIZE_ALPHA_BYTE - 1];
 1329              		.loc 1 259 26 is_stmt 1 view .LVU439
 1330 04ca F31C     		adds	r3, r6, #3
 1331 04cc 0EF1FF31 		add	r1, lr, #-1
 1332 04d0 A8F10200 		sub	r0, r8, #2
 1333              	.LVL105:
 1334              	.L26:
 260:Drivers/lvgl/src/draw/sw/lv_draw_sw_img.c **** #if LV_COLOR_DEPTH == 8 || LV_COLOR_DEPTH == 1
 1335              		.loc 1 260 17 view .LVU440
 260:Drivers/lvgl/src/draw/sw/lv_draw_sw_img.c **** #if LV_COLOR_DEPTH == 8 || LV_COLOR_DEPTH == 1
 1336              		.loc 1 260 35 is_stmt 0 view .LVU441
 1337 04d4 13F8012C 		ldrb	r2, [r3, #-1]	@ zero_extendqisi2
 260:Drivers/lvgl/src/draw/sw/lv_draw_sw_img.c **** #if LV_COLOR_DEPTH == 8 || LV_COLOR_DEPTH == 1
 1338              		.loc 1 260 25 view .LVU442
 1339 04d8 01F8012F 		strb	r2, [r1, #1]!
 264:Drivers/lvgl/src/draw/sw/lv_draw_sw_img.c **** #elif LV_COLOR_DEPTH == 32
ARM GAS  /var/folders/0z/tsy30v1j4xl4_7kw94k978ww0000gn/T//cc6AX49L.s 			page 47


 1340              		.loc 1 264 17 is_stmt 1 view .LVU443
 264:Drivers/lvgl/src/draw/sw/lv_draw_sw_img.c **** #elif LV_COLOR_DEPTH == 32
 1341              		.loc 1 264 46 is_stmt 0 view .LVU444
 1342 04dc 13F8024C 		ldrb	r4, [r3, #-2]	@ zero_extendqisi2
 264:Drivers/lvgl/src/draw/sw/lv_draw_sw_img.c **** #elif LV_COLOR_DEPTH == 32
 1343              		.loc 1 264 32 view .LVU445
 1344 04e0 13F8032C 		ldrb	r2, [r3, #-3]	@ zero_extendqisi2
 259:Drivers/lvgl/src/draw/sw/lv_draw_sw_img.c ****                 abuf[x] = src_tmp8[LV_IMG_PX_SIZE_ALPHA_BYTE - 1];
 1345              		.loc 1 259 26 view .LVU446
 1346 04e4 A942     		cmp	r1, r5
 264:Drivers/lvgl/src/draw/sw/lv_draw_sw_img.c **** #elif LV_COLOR_DEPTH == 32
 1347              		.loc 1 264 42 view .LVU447
 1348 04e6 02EB0422 		add	r2, r2, r4, lsl #8
 259:Drivers/lvgl/src/draw/sw/lv_draw_sw_img.c ****                 abuf[x] = src_tmp8[LV_IMG_PX_SIZE_ALPHA_BYTE - 1];
 1349              		.loc 1 259 26 view .LVU448
 1350 04ea 03F10303 		add	r3, r3, #3
 1351              	.LVL106:
 264:Drivers/lvgl/src/draw/sw/lv_draw_sw_img.c **** #elif LV_COLOR_DEPTH == 32
 1352              		.loc 1 264 30 view .LVU449
 1353 04ee 20F8022F 		strh	r2, [r0, #2]!	@ movhi
 269:Drivers/lvgl/src/draw/sw/lv_draw_sw_img.c **** 
 1354              		.loc 1 269 17 is_stmt 1 view .LVU450
 1355              	.LVL107:
 259:Drivers/lvgl/src/draw/sw/lv_draw_sw_img.c ****                 abuf[x] = src_tmp8[LV_IMG_PX_SIZE_ALPHA_BYTE - 1];
 1356              		.loc 1 259 37 view .LVU451
 259:Drivers/lvgl/src/draw/sw/lv_draw_sw_img.c ****                 abuf[x] = src_tmp8[LV_IMG_PX_SIZE_ALPHA_BYTE - 1];
 1357              		.loc 1 259 26 view .LVU452
 1358 04f2 EFD1     		bne	.L26
 272:Drivers/lvgl/src/draw/sw/lv_draw_sw_img.c ****             abuf += dest_w;
 1359              		.loc 1 272 13 view .LVU453
 258:Drivers/lvgl/src/draw/sw/lv_draw_sw_img.c ****             for(x = 0; x < dest_w; x++) {
 1360              		.loc 1 258 22 is_stmt 0 view .LVU454
 1361 04f4 0CF1010C 		add	ip, ip, #1
 1362              	.LVL108:
 258:Drivers/lvgl/src/draw/sw/lv_draw_sw_img.c ****             for(x = 0; x < dest_w; x++) {
 1363              		.loc 1 258 22 view .LVU455
 1364 04f8 0FFA8CF3 		sxth	r3, ip
 1365 04fc 9B45     		cmp	fp, r3
 272:Drivers/lvgl/src/draw/sw/lv_draw_sw_img.c ****             abuf += dest_w;
 1366              		.loc 1 272 18 view .LVU456
 1367 04fe C844     		add	r8, r8, r9
 1368              	.LVL109:
 273:Drivers/lvgl/src/draw/sw/lv_draw_sw_img.c ****             src_tmp8 += src_new_line_step_byte;
 1369              		.loc 1 273 13 is_stmt 1 view .LVU457
 273:Drivers/lvgl/src/draw/sw/lv_draw_sw_img.c ****             src_tmp8 += src_new_line_step_byte;
 1370              		.loc 1 273 18 is_stmt 0 view .LVU458
 1371 0500 BE44     		add	lr, lr, r7
 1372              	.LVL110:
 274:Drivers/lvgl/src/draw/sw/lv_draw_sw_img.c ****         }
 1373              		.loc 1 274 13 is_stmt 1 view .LVU459
 1374 0502 5644     		add	r6, r6, r10
 1375              	.LVL111:
 258:Drivers/lvgl/src/draw/sw/lv_draw_sw_img.c ****             for(x = 0; x < dest_w; x++) {
 1376              		.loc 1 258 33 view .LVU460
 258:Drivers/lvgl/src/draw/sw/lv_draw_sw_img.c ****             for(x = 0; x < dest_w; x++) {
 1377              		.loc 1 258 22 view .LVU461
 1378 0504 3D44     		add	r5, r5, r7
ARM GAS  /var/folders/0z/tsy30v1j4xl4_7kw94k978ww0000gn/T//cc6AX49L.s 			page 48


 1379 0506 E0DC     		bgt	.L25
 1380 0508 17EE90AA 		vmov	r10, s15	@ int
 1381 050c DDF858B0 		ldr	fp, [sp, #88]
 1382              	.LVL112:
 258:Drivers/lvgl/src/draw/sw/lv_draw_sw_img.c ****             for(x = 0; x < dest_w; x++) {
 1383              		.loc 1 258 22 is_stmt 0 view .LVU462
 1384 0510 17EE109A 		vmov	r9, s14	@ int
 1385 0514 16E6     		b	.L13
 1386              	.LVL113:
 1387              	.L38:
 258:Drivers/lvgl/src/draw/sw/lv_draw_sw_img.c ****             for(x = 0; x < dest_w; x++) {
 1388              		.loc 1 258 22 view .LVU463
 1389              	.LBE168:
 1390              	.LBE192:
 1391              	.LBE227:
 1392              	.LBE229:
 194:Drivers/lvgl/src/draw/sw/lv_draw_sw_img.c ****         lv_mem_buf_release(rgb_buf);
 1393              		.loc 1 194 9 is_stmt 1 view .LVU464
 1394 0516 0998     		ldr	r0, [sp, #36]
 1395 0518 FFF7FEFF 		bl	lv_mem_buf_release
 1396              	.LVL114:
 195:Drivers/lvgl/src/draw/sw/lv_draw_sw_img.c ****     }
 1397              		.loc 1 195 9 view .LVU465
 1398 051c 0898     		ldr	r0, [sp, #32]
 1399 051e FFF7FEFF 		bl	lv_mem_buf_release
 1400              	.LVL115:
 1401              	.L1:
 195:Drivers/lvgl/src/draw/sw/lv_draw_sw_img.c ****     }
 1402              		.loc 1 195 9 is_stmt 0 view .LVU466
 1403              	.LBE108:
 197:Drivers/lvgl/src/draw/sw/lv_draw_sw_img.c **** 
 1404              		.loc 1 197 1 view .LVU467
 1405 0522 27B0     		add	sp, sp, #156
 1406              		.cfi_remember_state
 1407              		.cfi_def_cfa_offset 44
 1408              		@ sp needed
 1409 0524 BDEC028B 		vldm	sp!, {d8}
 1410              		.cfi_restore 80
 1411              		.cfi_restore 81
 1412              		.cfi_def_cfa_offset 36
 1413              	.LVL116:
 197:Drivers/lvgl/src/draw/sw/lv_draw_sw_img.c **** 
 1414              		.loc 1 197 1 view .LVU468
 1415 0528 BDE8F08F 		pop	{r4, r5, r6, r7, r8, r9, r10, fp, pc}
 1416              	.LVL117:
 1417              	.L64:
 1418              		.cfi_restore_state
 1419              	.LBB230:
 134:Drivers/lvgl/src/draw/sw/lv_draw_sw_img.c ****                                            draw_dsc->zoom != LV_IMG_ZOOM_NONE) ?
 1420              		.loc 1 134 90 discriminator 2 view .LVU469
 1421 052c 0799     		ldr	r1, [sp, #28]
 1422 052e 0968     		ldr	r1, [r1]
 134:Drivers/lvgl/src/draw/sw/lv_draw_sw_img.c ****                                            draw_dsc->zoom != LV_IMG_ZOOM_NONE) ?
 1423              		.loc 1 134 28 discriminator 2 view .LVU470
 1424 0530 B1F1807F 		cmp	r1, #16777216
 1425 0534 14BF     		ite	ne
 1426 0536 0221     		movne	r1, #2
ARM GAS  /var/folders/0z/tsy30v1j4xl4_7kw94k978ww0000gn/T//cc6AX49L.s 			page 49


 1427 0538 0121     		moveq	r1, #1
 1428 053a DFE5     		b	.L10
 1429              	.LVL118:
 1430              	.L63:
 134:Drivers/lvgl/src/draw/sw/lv_draw_sw_img.c ****                                            draw_dsc->zoom != LV_IMG_ZOOM_NONE) ?
 1431              		.loc 1 134 28 discriminator 2 view .LVU471
 1432              	.LBE230:
  66:Drivers/lvgl/src/draw/sw/lv_draw_sw_img.c ****         blend_dsc.src_buf = (const lv_color_t *)src_buf;
 1433              		.loc 1 66 32 discriminator 2 view .LVU472
 1434 053c 0A9B     		ldr	r3, [sp, #40]
 1435 053e 042B     		cmp	r3, #4
 1436 0540 24D0     		beq	.L67
  72:Drivers/lvgl/src/draw/sw/lv_draw_sw_img.c ****         lv_area_t clipped_coords;
 1437              		.loc 1 72 10 is_stmt 1 discriminator 2 view .LVU473
  72:Drivers/lvgl/src/draw/sw/lv_draw_sw_img.c ****         lv_area_t clipped_coords;
 1438              		.loc 1 72 37 is_stmt 0 discriminator 2 view .LVU474
 1439 0542 0E2B     		cmp	r3, #14
 1440 0544 30D0     		beq	.L68
  86:Drivers/lvgl/src/draw/sw/lv_draw_sw_img.c ****         lv_coord_t src_w = lv_area_get_width(coords);
 1441              		.loc 1 86 10 is_stmt 1 discriminator 2 view .LVU475
  86:Drivers/lvgl/src/draw/sw/lv_draw_sw_img.c ****         lv_coord_t src_w = lv_area_get_width(coords);
 1442              		.loc 1 86 37 is_stmt 0 discriminator 2 view .LVU476
 1443 0546 142B     		cmp	r3, #20
 1444 0548 7FF488AD 		bne	.L2
  86:Drivers/lvgl/src/draw/sw/lv_draw_sw_img.c ****         lv_coord_t src_w = lv_area_get_width(coords);
 1445              		.loc 1 86 65 discriminator 3 view .LVU477
 1446 054c 079B     		ldr	r3, [sp, #28]
 1447 054e 9B7A     		ldrb	r3, [r3, #10]	@ zero_extendqisi2
 1448 0550 002B     		cmp	r3, #0
 1449 0552 7FF483AD 		bne	.L2
 1450              	.LBB231:
  87:Drivers/lvgl/src/draw/sw/lv_draw_sw_img.c ****         lv_coord_t src_h = lv_area_get_height(coords);
 1451              		.loc 1 87 9 is_stmt 1 view .LVU478
 1452              	.LVL119:
 1453              	.LBB232:
 1454              	.LBI232:
 123:Drivers/lvgl/src/draw/sw/../../misc/lv_area.h **** {
 1455              		.loc 2 123 26 view .LVU479
 1456              	.LBB233:
 125:Drivers/lvgl/src/draw/sw/../../misc/lv_area.h **** }
 1457              		.loc 2 125 5 view .LVU480
 125:Drivers/lvgl/src/draw/sw/../../misc/lv_area.h **** }
 1458              		.loc 2 125 49 is_stmt 0 view .LVU481
 1459 0556 0B9D     		ldr	r5, [sp, #44]
 1460              	.LVL120:
 125:Drivers/lvgl/src/draw/sw/../../misc/lv_area.h **** }
 1461              		.loc 2 125 49 view .LVU482
 1462              	.LBE233:
 1463              	.LBE232:
  93:Drivers/lvgl/src/draw/sw/lv_draw_sw_img.c ****         blend_dsc.mask_res = LV_DRAW_MASK_RES_CHANGED;
 1464              		.loc 1 93 29 view .LVU483
 1465 0558 2495     		str	r5, [sp, #144]
 1466              	.LBB236:
 1467              	.LBB234:
 125:Drivers/lvgl/src/draw/sw/../../misc/lv_area.h **** }
 1468              		.loc 2 125 49 view .LVU484
 1469 055a AA88     		ldrh	r2, [r5, #4]
ARM GAS  /var/folders/0z/tsy30v1j4xl4_7kw94k978ww0000gn/T//cc6AX49L.s 			page 50


 1470 055c 2C88     		ldrh	r4, [r5]
 1471              	.LVL121:
 125:Drivers/lvgl/src/draw/sw/../../misc/lv_area.h **** }
 1472              		.loc 2 125 49 view .LVU485
 1473              	.LBE234:
 1474              	.LBE236:
 1475              	.LBB237:
 1476              	.LBB238:
 1477              		.loc 2 135 49 view .LVU486
 1478 055e EB88     		ldrh	r3, [r5, #6]
 1479              	.LBE238:
 1480              	.LBE237:
 1481              	.LBB241:
 1482              	.LBB235:
 125:Drivers/lvgl/src/draw/sw/../../misc/lv_area.h **** }
 1483              		.loc 2 125 49 view .LVU487
 1484 0560 0132     		adds	r2, r2, #1
 1485 0562 121B     		subs	r2, r2, r4
 1486              	.LVL122:
 125:Drivers/lvgl/src/draw/sw/../../misc/lv_area.h **** }
 1487              		.loc 2 125 49 view .LVU488
 1488              	.LBE235:
 1489              	.LBE241:
  88:Drivers/lvgl/src/draw/sw/lv_draw_sw_img.c ****         blend_dsc.src_buf = (const lv_color_t *)src_buf;
 1490              		.loc 1 88 9 is_stmt 1 view .LVU489
 1491              	.LBB242:
 1492              	.LBI237:
 133:Drivers/lvgl/src/draw/sw/../../misc/lv_area.h **** {
 1493              		.loc 2 133 26 view .LVU490
 1494              	.LBB239:
 1495              		.loc 2 135 5 view .LVU491
 1496              		.loc 2 135 49 is_stmt 0 view .LVU492
 1497 0564 6C88     		ldrh	r4, [r5, #2]
 1498 0566 0133     		adds	r3, r3, #1
 1499              	.LBE239:
 1500              	.LBE242:
  89:Drivers/lvgl/src/draw/sw/lv_draw_sw_img.c ****         blend_dsc.mask_buf = (lv_opa_t *)src_buf;
 1501              		.loc 1 89 27 view .LVU493
 1502 0568 18EE106A 		vmov	r6, s16	@ int
 1503              	.LVL123:
 1504              	.LBB243:
 1505              	.LBB240:
 1506              		.loc 2 135 49 view .LVU494
 1507 056c 1B1B     		subs	r3, r3, r4
 1508              	.LVL124:
 1509              		.loc 2 135 49 view .LVU495
 1510              	.LBE240:
 1511              	.LBE243:
  89:Drivers/lvgl/src/draw/sw/lv_draw_sw_img.c ****         blend_dsc.mask_buf = (lv_opa_t *)src_buf;
 1512              		.loc 1 89 9 is_stmt 1 view .LVU496
  90:Drivers/lvgl/src/draw/sw/lv_draw_sw_img.c ****         blend_dsc.mask_buf += sizeof(lv_color_t) * src_w * src_h;
 1513              		.loc 1 90 9 view .LVU497
  91:Drivers/lvgl/src/draw/sw/lv_draw_sw_img.c ****         blend_dsc.blend_area = coords;
 1514              		.loc 1 91 9 view .LVU498
  91:Drivers/lvgl/src/draw/sw/lv_draw_sw_img.c ****         blend_dsc.blend_area = coords;
 1515              		.loc 1 91 58 is_stmt 0 view .LVU499
 1516 056e 13FB02F3 		smulbb	r3, r3, r2
ARM GAS  /var/folders/0z/tsy30v1j4xl4_7kw94k978ww0000gn/T//cc6AX49L.s 			page 51


 1517              	.LVL125:
  91:Drivers/lvgl/src/draw/sw/lv_draw_sw_img.c ****         blend_dsc.blend_area = coords;
 1518              		.loc 1 91 28 view .LVU500
 1519 0572 06EB4303 		add	r3, r6, r3, lsl #1
  94:Drivers/lvgl/src/draw/sw/lv_draw_sw_img.c ****         lv_draw_sw_blend(draw_ctx, &blend_dsc);
 1520              		.loc 1 94 28 view .LVU501
 1521 0576 0222     		movs	r2, #2
 1522              	.LVL126:
  95:Drivers/lvgl/src/draw/sw/lv_draw_sw_img.c ****     }
 1523              		.loc 1 95 9 view .LVU502
 1524 0578 1FA9     		add	r1, sp, #124
 1525 057a 4846     		mov	r0, r9
  92:Drivers/lvgl/src/draw/sw/lv_draw_sw_img.c ****         blend_dsc.mask_area = coords;
 1526              		.loc 1 92 30 view .LVU503
 1527 057c CDE91F56 		strd	r5, r6, [sp, #124]
  91:Drivers/lvgl/src/draw/sw/lv_draw_sw_img.c ****         blend_dsc.blend_area = coords;
 1528              		.loc 1 91 28 view .LVU504
 1529 0580 2293     		str	r3, [sp, #136]
  92:Drivers/lvgl/src/draw/sw/lv_draw_sw_img.c ****         blend_dsc.mask_area = coords;
 1530              		.loc 1 92 9 is_stmt 1 view .LVU505
  93:Drivers/lvgl/src/draw/sw/lv_draw_sw_img.c ****         blend_dsc.mask_res = LV_DRAW_MASK_RES_CHANGED;
 1531              		.loc 1 93 9 view .LVU506
  94:Drivers/lvgl/src/draw/sw/lv_draw_sw_img.c ****         lv_draw_sw_blend(draw_ctx, &blend_dsc);
 1532              		.loc 1 94 9 view .LVU507
  94:Drivers/lvgl/src/draw/sw/lv_draw_sw_img.c ****         lv_draw_sw_blend(draw_ctx, &blend_dsc);
 1533              		.loc 1 94 28 is_stmt 0 view .LVU508
 1534 0582 8DF88C20 		strb	r2, [sp, #140]
  95:Drivers/lvgl/src/draw/sw/lv_draw_sw_img.c ****     }
 1535              		.loc 1 95 9 is_stmt 1 view .LVU509
 1536 0586 FFF7FEFF 		bl	lv_draw_sw_blend
 1537              	.LVL127:
  95:Drivers/lvgl/src/draw/sw/lv_draw_sw_img.c ****     }
 1538              		.loc 1 95 9 is_stmt 0 view .LVU510
 1539              	.LBE231:
  86:Drivers/lvgl/src/draw/sw/lv_draw_sw_img.c ****         lv_coord_t src_w = lv_area_get_width(coords);
 1540              		.loc 1 86 108 view .LVU511
 1541 058a CAE7     		b	.L1
 1542              	.LVL128:
 1543              	.L67:
  66:Drivers/lvgl/src/draw/sw/lv_draw_sw_img.c ****         blend_dsc.src_buf = (const lv_color_t *)src_buf;
 1544              		.loc 1 66 62 discriminator 3 view .LVU512
 1545 058c 079B     		ldr	r3, [sp, #28]
 1546 058e 9B7A     		ldrb	r3, [r3, #10]	@ zero_extendqisi2
 1547 0590 002B     		cmp	r3, #0
 1548 0592 7FF463AD 		bne	.L2
  67:Drivers/lvgl/src/draw/sw/lv_draw_sw_img.c **** 
 1549              		.loc 1 67 9 is_stmt 1 view .LVU513
  69:Drivers/lvgl/src/draw/sw/lv_draw_sw_img.c ****         lv_draw_sw_blend(draw_ctx, &blend_dsc);
 1550              		.loc 1 69 30 is_stmt 0 view .LVU514
 1551 0596 0B9B     		ldr	r3, [sp, #44]
  67:Drivers/lvgl/src/draw/sw/lv_draw_sw_img.c **** 
 1552              		.loc 1 67 27 view .LVU515
 1553 0598 8DED208A 		vstr.32	s16, [sp, #128]	@ int
  69:Drivers/lvgl/src/draw/sw/lv_draw_sw_img.c ****         lv_draw_sw_blend(draw_ctx, &blend_dsc);
 1554              		.loc 1 69 9 is_stmt 1 view .LVU516
  70:Drivers/lvgl/src/draw/sw/lv_draw_sw_img.c ****     }
 1555              		.loc 1 70 9 is_stmt 0 view .LVU517
ARM GAS  /var/folders/0z/tsy30v1j4xl4_7kw94k978ww0000gn/T//cc6AX49L.s 			page 52


 1556 059c 1FA9     		add	r1, sp, #124
 1557 059e 4846     		mov	r0, r9
  69:Drivers/lvgl/src/draw/sw/lv_draw_sw_img.c ****         lv_draw_sw_blend(draw_ctx, &blend_dsc);
 1558              		.loc 1 69 30 view .LVU518
 1559 05a0 1F93     		str	r3, [sp, #124]
  70:Drivers/lvgl/src/draw/sw/lv_draw_sw_img.c ****     }
 1560              		.loc 1 70 9 is_stmt 1 view .LVU519
 1561 05a2 FFF7FEFF 		bl	lv_draw_sw_blend
 1562              	.LVL129:
 1563 05a6 BCE7     		b	.L1
 1564              	.L68:
 1565              	.LBB244:
  73:Drivers/lvgl/src/draw/sw/lv_draw_sw_img.c ****         if(!_lv_area_intersect(&clipped_coords, coords, draw_ctx->clip_area)) return;
 1566              		.loc 1 73 9 view .LVU520
  74:Drivers/lvgl/src/draw/sw/lv_draw_sw_img.c **** 
 1567              		.loc 1 74 9 view .LVU521
  74:Drivers/lvgl/src/draw/sw/lv_draw_sw_img.c **** 
 1568              		.loc 1 74 13 is_stmt 0 view .LVU522
 1569 05a8 0B9C     		ldr	r4, [sp, #44]
 1570              	.LVL130:
  74:Drivers/lvgl/src/draw/sw/lv_draw_sw_img.c **** 
 1571              		.loc 1 74 13 view .LVU523
 1572 05aa D9F80820 		ldr	r2, [r9, #8]
 1573 05ae 2146     		mov	r1, r4
 1574 05b0 1DA8     		add	r0, sp, #116
 1575 05b2 FFF7FEFF 		bl	_lv_area_intersect
 1576              	.LVL131:
  74:Drivers/lvgl/src/draw/sw/lv_draw_sw_img.c **** 
 1577              		.loc 1 74 11 view .LVU524
 1578 05b6 0028     		cmp	r0, #0
 1579 05b8 B3D0     		beq	.L1
  76:Drivers/lvgl/src/draw/sw/lv_draw_sw_img.c ****         blend_dsc.mask_area = coords;
 1580              		.loc 1 76 9 is_stmt 1 view .LVU525
  79:Drivers/lvgl/src/draw/sw/lv_draw_sw_img.c ****         blend_dsc.mask_res = LV_DRAW_MASK_RES_CHANGED;
 1581              		.loc 1 79 25 is_stmt 0 view .LVU526
 1582 05ba 079B     		ldr	r3, [sp, #28]
  76:Drivers/lvgl/src/draw/sw/lv_draw_sw_img.c ****         blend_dsc.mask_area = coords;
 1583              		.loc 1 76 28 view .LVU527
 1584 05bc 8DED228A 		vstr.32	s16, [sp, #136]	@ int
  77:Drivers/lvgl/src/draw/sw/lv_draw_sw_img.c ****         blend_dsc.src_buf = NULL;
 1585              		.loc 1 77 9 is_stmt 1 view .LVU528
  79:Drivers/lvgl/src/draw/sw/lv_draw_sw_img.c ****         blend_dsc.mask_res = LV_DRAW_MASK_RES_CHANGED;
 1586              		.loc 1 79 25 is_stmt 0 view .LVU529
 1587 05c0 1A89     		ldrh	r2, [r3, #8]
  78:Drivers/lvgl/src/draw/sw/lv_draw_sw_img.c ****         blend_dsc.color = draw_dsc->recolor;
 1588              		.loc 1 78 27 view .LVU530
 1589 05c2 0E9B     		ldr	r3, [sp, #56]
 1590 05c4 2093     		str	r3, [sp, #128]
  83:Drivers/lvgl/src/draw/sw/lv_draw_sw_img.c ****     }
 1591              		.loc 1 83 9 view .LVU531
 1592 05c6 1FA9     		add	r1, sp, #124
  80:Drivers/lvgl/src/draw/sw/lv_draw_sw_img.c **** 
 1593              		.loc 1 80 28 view .LVU532
 1594 05c8 0223     		movs	r3, #2
  83:Drivers/lvgl/src/draw/sw/lv_draw_sw_img.c ****     }
 1595              		.loc 1 83 9 view .LVU533
 1596 05ca 4846     		mov	r0, r9
ARM GAS  /var/folders/0z/tsy30v1j4xl4_7kw94k978ww0000gn/T//cc6AX49L.s 			page 53


  77:Drivers/lvgl/src/draw/sw/lv_draw_sw_img.c ****         blend_dsc.src_buf = NULL;
 1597              		.loc 1 77 29 view .LVU534
 1598 05cc 2494     		str	r4, [sp, #144]
  78:Drivers/lvgl/src/draw/sw/lv_draw_sw_img.c ****         blend_dsc.color = draw_dsc->recolor;
 1599              		.loc 1 78 9 is_stmt 1 view .LVU535
  79:Drivers/lvgl/src/draw/sw/lv_draw_sw_img.c ****         blend_dsc.mask_res = LV_DRAW_MASK_RES_CHANGED;
 1600              		.loc 1 79 9 view .LVU536
  79:Drivers/lvgl/src/draw/sw/lv_draw_sw_img.c ****         blend_dsc.mask_res = LV_DRAW_MASK_RES_CHANGED;
 1601              		.loc 1 79 25 is_stmt 0 view .LVU537
 1602 05ce ADF88420 		strh	r2, [sp, #132]	@ movhi
  80:Drivers/lvgl/src/draw/sw/lv_draw_sw_img.c **** 
 1603              		.loc 1 80 9 is_stmt 1 view .LVU538
  80:Drivers/lvgl/src/draw/sw/lv_draw_sw_img.c **** 
 1604              		.loc 1 80 28 is_stmt 0 view .LVU539
 1605 05d2 8DF88C30 		strb	r3, [sp, #140]
  82:Drivers/lvgl/src/draw/sw/lv_draw_sw_img.c ****         lv_draw_sw_blend(draw_ctx, &blend_dsc);
 1606              		.loc 1 82 9 is_stmt 1 view .LVU540
  82:Drivers/lvgl/src/draw/sw/lv_draw_sw_img.c ****         lv_draw_sw_blend(draw_ctx, &blend_dsc);
 1607              		.loc 1 82 30 is_stmt 0 view .LVU541
 1608 05d6 1F94     		str	r4, [sp, #124]
  83:Drivers/lvgl/src/draw/sw/lv_draw_sw_img.c ****     }
 1609              		.loc 1 83 9 is_stmt 1 view .LVU542
 1610 05d8 FFF7FEFF 		bl	lv_draw_sw_blend
 1611              	.LVL132:
 1612              	.LBE244:
  72:Drivers/lvgl/src/draw/sw/lv_draw_sw_img.c ****         lv_area_t clipped_coords;
 1613              		.loc 1 72 68 is_stmt 0 view .LVU543
 1614 05dc A1E7     		b	.L1
 1615              		.cfi_endproc
 1616              	.LFE161:
 1618 05de 00BF     		.text
 1619              	.Letext0:
 1620              		.file 4 "/Users/johannes/Library/Application Support/Code/User/globalStorage/bmd.stm32-for-vscode/
 1621              		.file 5 "/Users/johannes/Library/Application Support/Code/User/globalStorage/bmd.stm32-for-vscode/
 1622              		.file 6 "Drivers/lvgl/src/draw/sw/../../misc/lv_types.h"
 1623              		.file 7 "/Users/johannes/Library/Application Support/Code/User/globalStorage/bmd.stm32-for-vscode/
 1624              		.file 8 "Drivers/lvgl/src/draw/sw/../../misc/../font/lv_font.h"
 1625              		.file 9 "Drivers/lvgl/src/draw/sw/../../misc/lv_txt.h"
 1626              		.file 10 "Drivers/lvgl/src/draw/sw/../../misc/lv_bidi.h"
 1627              		.file 11 "Drivers/lvgl/src/draw/sw/../../misc/lv_style.h"
 1628              		.file 12 "Drivers/lvgl/src/draw/sw/../lv_draw_mask.h"
 1629              		.file 13 "Drivers/lvgl/src/draw/sw/lv_draw_sw_blend.h"
 1630              		.file 14 "Drivers/lvgl/src/draw/sw/../lv_img_buf.h"
 1631              		.file 15 "Drivers/lvgl/src/draw/sw/../../core/lv_obj.h"
 1632              		.file 16 "Drivers/lvgl/src/draw/sw/../lv_draw_rect.h"
 1633              		.file 17 "Drivers/lvgl/src/draw/sw/../lv_draw_label.h"
 1634              		.file 18 "Drivers/lvgl/src/draw/sw/../lv_draw_img.h"
 1635              		.file 19 "Drivers/lvgl/src/draw/sw/../lv_draw_line.h"
 1636              		.file 20 "Drivers/lvgl/src/draw/sw/../lv_draw_arc.h"
 1637              		.file 21 "Drivers/lvgl/src/draw/sw/../lv_draw_layer.h"
 1638              		.file 22 "Drivers/lvgl/src/draw/sw/../lv_draw.h"
 1639              		.file 23 "Drivers/lvgl/src/draw/sw/../../hal/../misc/lv_timer.h"
 1640              		.file 24 "Drivers/lvgl/src/draw/sw/../../hal/lv_hal_disp.h"
 1641              		.file 25 "Drivers/lvgl/src/draw/sw/../../core/lv_group.h"
 1642              		.file 26 "Drivers/lvgl/src/draw/sw/../../hal/../misc/lv_ll.h"
 1643              		.file 27 "Drivers/lvgl/src/draw/sw/../../core/lv_obj_scroll.h"
 1644              		.file 28 "Drivers/lvgl/src/draw/sw/../../core/lv_obj_style.h"
ARM GAS  /var/folders/0z/tsy30v1j4xl4_7kw94k978ww0000gn/T//cc6AX49L.s 			page 54


 1645              		.file 29 "Drivers/lvgl/src/draw/sw/../../core/lv_obj_class.h"
 1646              		.file 30 "Drivers/lvgl/src/draw/sw/../../core/lv_event.h"
 1647              		.file 31 "Drivers/lvgl/src/draw/sw/../../misc/lv_mem.h"
 1648              		.file 32 "Drivers/lvgl/src/draw/sw/../lv_draw_transform.h"
 1649              		.file 33 "Drivers/lvgl/src/draw/sw/../../core/lv_refr.h"
ARM GAS  /var/folders/0z/tsy30v1j4xl4_7kw94k978ww0000gn/T//cc6AX49L.s 			page 55


DEFINED SYMBOLS
                            *ABS*:0000000000000000 lv_draw_sw_img.c
/var/folders/0z/tsy30v1j4xl4_7kw94k978ww0000gn/T//cc6AX49L.s:20     .text.lv_draw_sw_img_decoded:0000000000000000 $t
/var/folders/0z/tsy30v1j4xl4_7kw94k978ww0000gn/T//cc6AX49L.s:27     .text.lv_draw_sw_img_decoded:0000000000000000 lv_draw_sw_img_decoded
/var/folders/0z/tsy30v1j4xl4_7kw94k978ww0000gn/T//cc6AX49L.s:546    .text.lv_draw_sw_img_decoded:00000000000001c4 $d
/var/folders/0z/tsy30v1j4xl4_7kw94k978ww0000gn/T//cc6AX49L.s:563    .text.lv_draw_sw_img_decoded:0000000000000208 $t

UNDEFINED SYMBOLS
lv_draw_mask_is_any
lv_memset_00
_lv_refr_get_disp_refreshing
lv_disp_get_hor_res
lv_area_get_size
lv_mem_buf_get
lv_draw_transform
lv_draw_sw_blend
lv_area_move
lv_memset_ff
lv_memcpy
lv_draw_mask_apply
lv_mem_buf_release
_lv_area_intersect
