ARM GAS  /var/folders/0z/tsy30v1j4xl4_7kw94k978ww0000gn/T//cc3pBgSQ.s 			page 1


   1              		.cpu cortex-m4
   2              		.arch armv7e-m
   3              		.fpu fpv4-sp-d16
   4              		.eabi_attribute 27, 1
   5              		.eabi_attribute 28, 1
   6              		.eabi_attribute 20, 1
   7              		.eabi_attribute 21, 1
   8              		.eabi_attribute 23, 3
   9              		.eabi_attribute 24, 1
  10              		.eabi_attribute 25, 1
  11              		.eabi_attribute 26, 1
  12              		.eabi_attribute 30, 2
  13              		.eabi_attribute 34, 1
  14              		.eabi_attribute 18, 4
  15              		.file	"lv_draw_transform.c"
  16              		.text
  17              	.Ltext0:
  18              		.cfi_sections	.debug_frame
  19              		.section	.text.lv_draw_transform,"ax",%progbits
  20              		.align	1
  21              		.p2align 2,,3
  22              		.global	lv_draw_transform
  23              		.syntax unified
  24              		.thumb
  25              		.thumb_func
  27              	lv_draw_transform:
  28              	.LVL0:
  29              	.LFB55:
  30              		.file 1 "Drivers/lvgl/src/draw/lv_draw_transform.c"
   1:Drivers/lvgl/src/draw/lv_draw_transform.c **** /**
   2:Drivers/lvgl/src/draw/lv_draw_transform.c ****  * @file lv_draw_transform.c
   3:Drivers/lvgl/src/draw/lv_draw_transform.c ****  *
   4:Drivers/lvgl/src/draw/lv_draw_transform.c ****  */
   5:Drivers/lvgl/src/draw/lv_draw_transform.c **** 
   6:Drivers/lvgl/src/draw/lv_draw_transform.c **** /*********************
   7:Drivers/lvgl/src/draw/lv_draw_transform.c ****  *      INCLUDES
   8:Drivers/lvgl/src/draw/lv_draw_transform.c ****  *********************/
   9:Drivers/lvgl/src/draw/lv_draw_transform.c **** #include "lv_draw.h"
  10:Drivers/lvgl/src/draw/lv_draw_transform.c **** #include "lv_draw_transform.h"
  11:Drivers/lvgl/src/draw/lv_draw_transform.c **** #include "../misc/lv_assert.h"
  12:Drivers/lvgl/src/draw/lv_draw_transform.c **** #include "../misc/lv_area.h"
  13:Drivers/lvgl/src/draw/lv_draw_transform.c **** 
  14:Drivers/lvgl/src/draw/lv_draw_transform.c **** /*********************
  15:Drivers/lvgl/src/draw/lv_draw_transform.c ****  *      DEFINES
  16:Drivers/lvgl/src/draw/lv_draw_transform.c ****  *********************/
  17:Drivers/lvgl/src/draw/lv_draw_transform.c **** 
  18:Drivers/lvgl/src/draw/lv_draw_transform.c **** /**********************
  19:Drivers/lvgl/src/draw/lv_draw_transform.c ****  *      TYPEDEFS
  20:Drivers/lvgl/src/draw/lv_draw_transform.c ****  **********************/
  21:Drivers/lvgl/src/draw/lv_draw_transform.c **** 
  22:Drivers/lvgl/src/draw/lv_draw_transform.c **** /**********************
  23:Drivers/lvgl/src/draw/lv_draw_transform.c ****  *  STATIC PROTOTYPES
  24:Drivers/lvgl/src/draw/lv_draw_transform.c ****  **********************/
  25:Drivers/lvgl/src/draw/lv_draw_transform.c **** 
  26:Drivers/lvgl/src/draw/lv_draw_transform.c **** /**********************
  27:Drivers/lvgl/src/draw/lv_draw_transform.c ****  *  STATIC VARIABLES
  28:Drivers/lvgl/src/draw/lv_draw_transform.c ****  **********************/
ARM GAS  /var/folders/0z/tsy30v1j4xl4_7kw94k978ww0000gn/T//cc3pBgSQ.s 			page 2


  29:Drivers/lvgl/src/draw/lv_draw_transform.c **** 
  30:Drivers/lvgl/src/draw/lv_draw_transform.c **** /**********************
  31:Drivers/lvgl/src/draw/lv_draw_transform.c ****  *      MACROS
  32:Drivers/lvgl/src/draw/lv_draw_transform.c ****  **********************/
  33:Drivers/lvgl/src/draw/lv_draw_transform.c **** 
  34:Drivers/lvgl/src/draw/lv_draw_transform.c **** /**********************
  35:Drivers/lvgl/src/draw/lv_draw_transform.c ****  *   GLOBAL FUNCTIONS
  36:Drivers/lvgl/src/draw/lv_draw_transform.c ****  **********************/
  37:Drivers/lvgl/src/draw/lv_draw_transform.c **** void lv_draw_transform(lv_draw_ctx_t * draw_ctx, const lv_area_t * dest_area, const void * src_buf,
  38:Drivers/lvgl/src/draw/lv_draw_transform.c ****                        lv_coord_t src_h,
  39:Drivers/lvgl/src/draw/lv_draw_transform.c ****                        lv_coord_t src_stride, const lv_draw_img_dsc_t * draw_dsc, lv_img_cf_t cf, l
  40:Drivers/lvgl/src/draw/lv_draw_transform.c **** {
  31              		.loc 1 40 1 view -0
  32              		.cfi_startproc
  33              		@ args = 24, pretend = 0, frame = 0
  34              		@ frame_needed = 0, uses_anonymous_args = 0
  41:Drivers/lvgl/src/draw/lv_draw_transform.c ****     LV_ASSERT_NULL(draw_ctx);
  35              		.loc 1 41 5 view .LVU1
  36              		.loc 1 41 5 view .LVU2
  40:Drivers/lvgl/src/draw/lv_draw_transform.c ****     LV_ASSERT_NULL(draw_ctx);
  37              		.loc 1 40 1 is_stmt 0 view .LVU3
  38 0000 2DE9F043 		push	{r4, r5, r6, r7, r8, r9, lr}
  39              		.cfi_def_cfa_offset 28
  40              		.cfi_offset 4, -28
  41              		.cfi_offset 5, -24
  42              		.cfi_offset 6, -20
  43              		.cfi_offset 7, -16
  44              		.cfi_offset 8, -12
  45              		.cfi_offset 9, -8
  46              		.cfi_offset 14, -4
  40:Drivers/lvgl/src/draw/lv_draw_transform.c ****     LV_ASSERT_NULL(draw_ctx);
  47              		.loc 1 40 1 view .LVU4
  48 0004 099F     		ldr	r7, [sp, #36]
  49 0006 BDF91C50 		ldrsh	r5, [sp, #28]
  50 000a BDF92060 		ldrsh	r6, [sp, #32]
  51 000e 9DF828E0 		ldrb	lr, [sp, #40]	@ zero_extendqisi2
  52 0012 DDE90B89 		ldrd	r8, r9, [sp, #44]
  53              		.loc 1 41 5 view .LVU5
  54 0016 58B1     		cbz	r0, .L3
  55              		.loc 1 41 5 is_stmt 1 discriminator 2 view .LVU6
  56              		.loc 1 41 29 discriminator 2 view .LVU7
  42:Drivers/lvgl/src/draw/lv_draw_transform.c ****     if(draw_ctx->draw_transform == NULL) {
  57              		.loc 1 42 5 discriminator 2 view .LVU8
  58              		.loc 1 42 16 is_stmt 0 discriminator 2 view .LVU9
  59 0018 C46A     		ldr	r4, [r0, #44]
  60              		.loc 1 42 7 discriminator 2 view .LVU10
  61 001a 54B1     		cbz	r4, .L1
  43:Drivers/lvgl/src/draw/lv_draw_transform.c ****         LV_LOG_WARN("draw_ctx->draw_transform == NULL");
  44:Drivers/lvgl/src/draw/lv_draw_transform.c ****         return;
  45:Drivers/lvgl/src/draw/lv_draw_transform.c ****     }
  46:Drivers/lvgl/src/draw/lv_draw_transform.c **** 
  47:Drivers/lvgl/src/draw/lv_draw_transform.c ****     draw_ctx->draw_transform(draw_ctx, dest_area, src_buf, src_w, src_h, src_stride, draw_dsc, cf, 
  62              		.loc 1 47 5 is_stmt 1 view .LVU11
  63 001c CDE90B89 		strd	r8, r9, [sp, #44]
  64              	.LVL1:
  65              		.loc 1 47 5 is_stmt 0 view .LVU12
  66 0020 CDE9097E 		strd	r7, lr, [sp, #36]
ARM GAS  /var/folders/0z/tsy30v1j4xl4_7kw94k978ww0000gn/T//cc3pBgSQ.s 			page 3


  67              	.LVL2:
  68              		.loc 1 47 5 view .LVU13
  69 0024 CDE90756 		strd	r5, r6, [sp, #28]
  70              	.LVL3:
  71              		.loc 1 47 5 view .LVU14
  72 0028 A446     		mov	ip, r4
  48:Drivers/lvgl/src/draw/lv_draw_transform.c **** 
  49:Drivers/lvgl/src/draw/lv_draw_transform.c **** }
  73              		.loc 1 49 1 view .LVU15
  74 002a BDE8F043 		pop	{r4, r5, r6, r7, r8, r9, lr}
  75              		.cfi_remember_state
  76              		.cfi_restore 14
  77              		.cfi_restore 9
  78              		.cfi_restore 8
  79              		.cfi_restore 7
  80              		.cfi_restore 6
  81              		.cfi_restore 5
  82              		.cfi_restore 4
  83              		.cfi_def_cfa_offset 0
  47:Drivers/lvgl/src/draw/lv_draw_transform.c **** 
  84              		.loc 1 47 5 view .LVU16
  85 002e 6047     		bx	ip	@ indirect register sibling call
  86              	.LVL4:
  87              	.L3:
  88              		.cfi_restore_state
  41:Drivers/lvgl/src/draw/lv_draw_transform.c ****     if(draw_ctx->draw_transform == NULL) {
  89              		.loc 1 41 5 is_stmt 1 discriminator 1 view .LVU17
  41:Drivers/lvgl/src/draw/lv_draw_transform.c ****     if(draw_ctx->draw_transform == NULL) {
  90              		.loc 1 41 5 discriminator 1 view .LVU18
  41:Drivers/lvgl/src/draw/lv_draw_transform.c ****     if(draw_ctx->draw_transform == NULL) {
  91              		.loc 1 41 5 discriminator 1 view .LVU19
  41:Drivers/lvgl/src/draw/lv_draw_transform.c ****     if(draw_ctx->draw_transform == NULL) {
  92              		.loc 1 41 5 discriminator 1 view .LVU20
  41:Drivers/lvgl/src/draw/lv_draw_transform.c ****     if(draw_ctx->draw_transform == NULL) {
  93              		.loc 1 41 5 discriminator 1 view .LVU21
  41:Drivers/lvgl/src/draw/lv_draw_transform.c ****     if(draw_ctx->draw_transform == NULL) {
  94              		.loc 1 41 5 discriminator 1 view .LVU22
  41:Drivers/lvgl/src/draw/lv_draw_transform.c ****     if(draw_ctx->draw_transform == NULL) {
  95              		.loc 1 41 5 discriminator 1 view .LVU23
  41:Drivers/lvgl/src/draw/lv_draw_transform.c ****     if(draw_ctx->draw_transform == NULL) {
  96              		.loc 1 41 5 discriminator 1 view .LVU24
  41:Drivers/lvgl/src/draw/lv_draw_transform.c ****     if(draw_ctx->draw_transform == NULL) {
  97              		.loc 1 41 5 discriminator 1 view .LVU25
  41:Drivers/lvgl/src/draw/lv_draw_transform.c ****     if(draw_ctx->draw_transform == NULL) {
  98              		.loc 1 41 5 discriminator 1 view .LVU26
  99 0030 FEE7     		b	.L3
 100              	.L1:
 101              		.loc 1 49 1 is_stmt 0 view .LVU27
 102 0032 BDE8F083 		pop	{r4, r5, r6, r7, r8, r9, pc}
 103              		.loc 1 49 1 view .LVU28
 104              		.cfi_endproc
 105              	.LFE55:
 107 0036 00BF     		.text
 108              	.Letext0:
 109              		.file 2 "/Users/johannes/Library/Application Support/Code/User/globalStorage/bmd.stm32-for-vscode/
 110              		.file 3 "/Users/johannes/Library/Application Support/Code/User/globalStorage/bmd.stm32-for-vscode/
 111              		.file 4 "/Users/johannes/Library/Application Support/Code/User/globalStorage/bmd.stm32-for-vscode/
ARM GAS  /var/folders/0z/tsy30v1j4xl4_7kw94k978ww0000gn/T//cc3pBgSQ.s 			page 4


 112              		.file 5 "Drivers/lvgl/src/draw/../misc/../font/../misc/lv_area.h"
 113              		.file 6 "Drivers/lvgl/src/draw/../misc/../font/lv_font.h"
 114              		.file 7 "Drivers/lvgl/src/draw/../misc/lv_types.h"
 115              		.file 8 "Drivers/lvgl/src/draw/../misc/lv_color.h"
 116              		.file 9 "Drivers/lvgl/src/draw/../misc/lv_txt.h"
 117              		.file 10 "Drivers/lvgl/src/draw/../misc/lv_bidi.h"
 118              		.file 11 "Drivers/lvgl/src/draw/../misc/lv_style.h"
 119              		.file 12 "Drivers/lvgl/src/draw/lv_img_buf.h"
 120              		.file 13 "Drivers/lvgl/src/draw/lv_draw_rect.h"
 121              		.file 14 "Drivers/lvgl/src/draw/lv_draw_label.h"
 122              		.file 15 "Drivers/lvgl/src/draw/lv_draw_img.h"
 123              		.file 16 "Drivers/lvgl/src/draw/lv_draw_line.h"
 124              		.file 17 "Drivers/lvgl/src/draw/lv_draw_arc.h"
 125              		.file 18 "Drivers/lvgl/src/draw/lv_draw_layer.h"
 126              		.file 19 "Drivers/lvgl/src/draw/lv_draw.h"
ARM GAS  /var/folders/0z/tsy30v1j4xl4_7kw94k978ww0000gn/T//cc3pBgSQ.s 			page 5

