ARM GAS  /var/folders/lp/x54gwt890xv47sdkqj1k04q40000gn/T//ccKYvMxP.s 			page 1


   1              		.cpu cortex-m4
   2              		.arch armv7e-m
   3              		.fpu fpv4-sp-d16
   4              		.eabi_attribute 27, 1
   5              		.eabi_attribute 28, 1
   6              		.eabi_attribute 20, 1
   7              		.eabi_attribute 21, 1
   8              		.eabi_attribute 23, 3
   9              		.eabi_attribute 24, 1
  10              		.eabi_attribute 25, 1
  11              		.eabi_attribute 26, 1
  12              		.eabi_attribute 30, 2
  13              		.eabi_attribute 34, 1
  14              		.eabi_attribute 18, 4
  15              		.file	"lv_draw_sw_line.c"
  16              		.text
  17              	.Ltext0:
  18              		.cfi_sections	.debug_frame
  19              		.file 1 "Drivers/lvgl/src/draw/sw/lv_draw_sw_line.c"
  20              		.section	.text.lv_draw_sw_line,"ax",%progbits
  21              		.align	1
  22              		.p2align 2,,3
  23              		.global	lv_draw_sw_line
  24              		.syntax unified
  25              		.thumb
  26              		.thumb_func
  28              	lv_draw_sw_line:
  29              	.LVL0:
  30              	.LFB161:
   1:Drivers/lvgl/src/draw/sw/lv_draw_sw_line.c **** /**
   2:Drivers/lvgl/src/draw/sw/lv_draw_sw_line.c ****  * @file lv_draw_line.c
   3:Drivers/lvgl/src/draw/sw/lv_draw_sw_line.c ****  *
   4:Drivers/lvgl/src/draw/sw/lv_draw_sw_line.c ****  */
   5:Drivers/lvgl/src/draw/sw/lv_draw_sw_line.c **** 
   6:Drivers/lvgl/src/draw/sw/lv_draw_sw_line.c **** /*********************
   7:Drivers/lvgl/src/draw/sw/lv_draw_sw_line.c ****  *      INCLUDES
   8:Drivers/lvgl/src/draw/sw/lv_draw_sw_line.c ****  *********************/
   9:Drivers/lvgl/src/draw/sw/lv_draw_sw_line.c **** #include <stdbool.h>
  10:Drivers/lvgl/src/draw/sw/lv_draw_sw_line.c **** #include "lv_draw_sw.h"
  11:Drivers/lvgl/src/draw/sw/lv_draw_sw_line.c **** #include "../../misc/lv_math.h"
  12:Drivers/lvgl/src/draw/sw/lv_draw_sw_line.c **** #include "../../core/lv_refr.h"
  13:Drivers/lvgl/src/draw/sw/lv_draw_sw_line.c **** 
  14:Drivers/lvgl/src/draw/sw/lv_draw_sw_line.c **** /*********************
  15:Drivers/lvgl/src/draw/sw/lv_draw_sw_line.c ****  *      DEFINES
  16:Drivers/lvgl/src/draw/sw/lv_draw_sw_line.c ****  *********************/
  17:Drivers/lvgl/src/draw/sw/lv_draw_sw_line.c **** 
  18:Drivers/lvgl/src/draw/sw/lv_draw_sw_line.c **** /**********************
  19:Drivers/lvgl/src/draw/sw/lv_draw_sw_line.c ****  *      TYPEDEFS
  20:Drivers/lvgl/src/draw/sw/lv_draw_sw_line.c ****  **********************/
  21:Drivers/lvgl/src/draw/sw/lv_draw_sw_line.c **** 
  22:Drivers/lvgl/src/draw/sw/lv_draw_sw_line.c **** /**********************
  23:Drivers/lvgl/src/draw/sw/lv_draw_sw_line.c ****  *  STATIC PROTOTYPES
  24:Drivers/lvgl/src/draw/sw/lv_draw_sw_line.c ****  **********************/
  25:Drivers/lvgl/src/draw/sw/lv_draw_sw_line.c **** 
  26:Drivers/lvgl/src/draw/sw/lv_draw_sw_line.c **** static void /* LV_ATTRIBUTE_FAST_MEM */ draw_line_skew(struct _lv_draw_ctx_t * draw_ctx, const lv_d
  27:Drivers/lvgl/src/draw/sw/lv_draw_sw_line.c ****                                                        const lv_point_t * point1, const lv_point_t 
  28:Drivers/lvgl/src/draw/sw/lv_draw_sw_line.c **** static void /* LV_ATTRIBUTE_FAST_MEM */ draw_line_hor(struct _lv_draw_ctx_t * draw_ctx, const lv_dr
ARM GAS  /var/folders/lp/x54gwt890xv47sdkqj1k04q40000gn/T//ccKYvMxP.s 			page 2


  29:Drivers/lvgl/src/draw/sw/lv_draw_sw_line.c ****                                                       const lv_point_t * point1, const lv_point_t *
  30:Drivers/lvgl/src/draw/sw/lv_draw_sw_line.c **** static void /* LV_ATTRIBUTE_FAST_MEM */ draw_line_ver(struct _lv_draw_ctx_t * draw_ctx, const lv_dr
  31:Drivers/lvgl/src/draw/sw/lv_draw_sw_line.c ****                                                       const lv_point_t * point1, const lv_point_t *
  32:Drivers/lvgl/src/draw/sw/lv_draw_sw_line.c **** 
  33:Drivers/lvgl/src/draw/sw/lv_draw_sw_line.c **** /**********************
  34:Drivers/lvgl/src/draw/sw/lv_draw_sw_line.c ****  *  STATIC VARIABLES
  35:Drivers/lvgl/src/draw/sw/lv_draw_sw_line.c ****  **********************/
  36:Drivers/lvgl/src/draw/sw/lv_draw_sw_line.c **** 
  37:Drivers/lvgl/src/draw/sw/lv_draw_sw_line.c **** /**********************
  38:Drivers/lvgl/src/draw/sw/lv_draw_sw_line.c ****  *      MACROS
  39:Drivers/lvgl/src/draw/sw/lv_draw_sw_line.c ****  **********************/
  40:Drivers/lvgl/src/draw/sw/lv_draw_sw_line.c **** 
  41:Drivers/lvgl/src/draw/sw/lv_draw_sw_line.c **** /**********************
  42:Drivers/lvgl/src/draw/sw/lv_draw_sw_line.c ****  *   GLOBAL FUNCTIONS
  43:Drivers/lvgl/src/draw/sw/lv_draw_sw_line.c ****  **********************/
  44:Drivers/lvgl/src/draw/sw/lv_draw_sw_line.c **** 
  45:Drivers/lvgl/src/draw/sw/lv_draw_sw_line.c **** /**
  46:Drivers/lvgl/src/draw/sw/lv_draw_sw_line.c ****  * Draw a line
  47:Drivers/lvgl/src/draw/sw/lv_draw_sw_line.c ****  * @param point1 first point of the line
  48:Drivers/lvgl/src/draw/sw/lv_draw_sw_line.c ****  * @param point2 second point of the line
  49:Drivers/lvgl/src/draw/sw/lv_draw_sw_line.c ****  * @param clip the line will be drawn only in this area
  50:Drivers/lvgl/src/draw/sw/lv_draw_sw_line.c ****  * @param dsc pointer to an initialized `lv_draw_line_dsc_t` variable
  51:Drivers/lvgl/src/draw/sw/lv_draw_sw_line.c ****  */
  52:Drivers/lvgl/src/draw/sw/lv_draw_sw_line.c **** void LV_ATTRIBUTE_FAST_MEM lv_draw_sw_line(struct _lv_draw_ctx_t * draw_ctx, const lv_draw_line_dsc
  53:Drivers/lvgl/src/draw/sw/lv_draw_sw_line.c ****                                            const lv_point_t * point1, const lv_point_t * point2)
  54:Drivers/lvgl/src/draw/sw/lv_draw_sw_line.c **** {
  31              		.loc 1 54 1 view -0
  32              		.cfi_startproc
  33              		@ args = 0, pretend = 0, frame = 280
  34              		@ frame_needed = 0, uses_anonymous_args = 0
  55:Drivers/lvgl/src/draw/sw/lv_draw_sw_line.c ****     if(dsc->width == 0) return;
  35              		.loc 1 55 5 view .LVU1
  54:Drivers/lvgl/src/draw/sw/lv_draw_sw_line.c ****     if(dsc->width == 0) return;
  36              		.loc 1 54 1 is_stmt 0 view .LVU2
  37 0000 2DE9F04F 		push	{r4, r5, r6, r7, r8, r9, r10, fp, lr}
  38              		.cfi_def_cfa_offset 36
  39              		.cfi_offset 4, -36
  40              		.cfi_offset 5, -32
  41              		.cfi_offset 6, -28
  42              		.cfi_offset 7, -24
  43              		.cfi_offset 8, -20
  44              		.cfi_offset 9, -16
  45              		.cfi_offset 10, -12
  46              		.cfi_offset 11, -8
  47              		.cfi_offset 14, -4
  48 0004 0C46     		mov	r4, r1
  49 0006 C9B0     		sub	sp, sp, #292
  50              		.cfi_def_cfa_offset 328
  51              		.loc 1 55 11 view .LVU3
  52 0008 B1F90210 		ldrsh	r1, [r1, #2]
  53              	.LVL1:
  54:Drivers/lvgl/src/draw/sw/lv_draw_sw_line.c ****     if(dsc->width == 0) return;
  54              		.loc 1 54 1 view .LVU4
  55 000c 0292     		str	r2, [sp, #8]
  56              		.loc 1 55 7 view .LVU5
  57 000e 0029     		cmp	r1, #0
  58 0010 00F0A681 		beq	.L1
ARM GAS  /var/folders/lp/x54gwt890xv47sdkqj1k04q40000gn/T//ccKYvMxP.s 			page 3


  59 0014 9846     		mov	r8, r3
  56:Drivers/lvgl/src/draw/sw/lv_draw_sw_line.c ****     if(dsc->opa <= LV_OPA_MIN) return;
  60              		.loc 1 56 5 is_stmt 1 view .LVU6
  61              		.loc 1 56 7 is_stmt 0 view .LVU7
  62 0016 237A     		ldrb	r3, [r4, #8]	@ zero_extendqisi2
  63              	.LVL2:
  64              		.loc 1 56 7 view .LVU8
  65 0018 022B     		cmp	r3, #2
  66 001a 40F2A181 		bls	.L1
  57:Drivers/lvgl/src/draw/sw/lv_draw_sw_line.c **** 
  58:Drivers/lvgl/src/draw/sw/lv_draw_sw_line.c ****     if(point1->x == point2->x && point1->y == point2->y) return;
  67              		.loc 1 58 14 view .LVU9
  68 001e 1346     		mov	r3, r2
  69 0020 8346     		mov	fp, r0
  70              		.loc 1 58 5 is_stmt 1 view .LVU10
  71              		.loc 1 58 14 is_stmt 0 view .LVU11
  72 0022 B2F90000 		ldrsh	r0, [r2]
  73              	.LVL3:
  74              		.loc 1 58 27 view .LVU12
  75 0026 B8F90020 		ldrsh	r2, [r8]
  76              	.LVL4:
  77              		.loc 1 58 40 discriminator 1 view .LVU13
  78 002a B3F90270 		ldrsh	r7, [r3, #2]
  79              		.loc 1 58 53 discriminator 1 view .LVU14
  80 002e B8F90260 		ldrsh	r6, [r8, #2]
  81              		.loc 1 58 7 view .LVU15
  82 0032 9042     		cmp	r0, r2
  83 0034 02D1     		bne	.L3
  84              		.loc 1 58 31 discriminator 1 view .LVU16
  85 0036 B742     		cmp	r7, r6
  86 0038 00F09281 		beq	.L1
  87              	.L3:
  59:Drivers/lvgl/src/draw/sw/lv_draw_sw_line.c **** 
  60:Drivers/lvgl/src/draw/sw/lv_draw_sw_line.c ****     lv_area_t clip_line;
  88              		.loc 1 60 5 is_stmt 1 view .LVU17
  61:Drivers/lvgl/src/draw/sw/lv_draw_sw_line.c ****     clip_line.x1 = LV_MIN(point1->x, point2->x) - dsc->width / 2;
  89              		.loc 1 61 5 view .LVU18
  90              		.loc 1 61 49 is_stmt 0 view .LVU19
  91 003c 01EBD171 		add	r1, r1, r1, lsr #31
  92 0040 C1F34F01 		ubfx	r1, r1, #1, #16
  62:Drivers/lvgl/src/draw/sw/lv_draw_sw_line.c ****     clip_line.x2 = LV_MAX(point1->x, point2->x) + dsc->width / 2;
  93              		.loc 1 62 5 is_stmt 1 view .LVU20
  63:Drivers/lvgl/src/draw/sw/lv_draw_sw_line.c ****     clip_line.y1 = LV_MIN(point1->y, point2->y) - dsc->width / 2;
  94              		.loc 1 63 5 view .LVU21
  64:Drivers/lvgl/src/draw/sw/lv_draw_sw_line.c ****     clip_line.y2 = LV_MAX(point1->y, point2->y) + dsc->width / 2;
  95              		.loc 1 64 5 view .LVU22
  61:Drivers/lvgl/src/draw/sw/lv_draw_sw_line.c ****     clip_line.x2 = LV_MAX(point1->x, point2->x) + dsc->width / 2;
  96              		.loc 1 61 49 is_stmt 0 view .LVU23
  97 0044 0023     		movs	r3, #0
  98              	.LVL5:
  62:Drivers/lvgl/src/draw/sw/lv_draw_sw_line.c ****     clip_line.y1 = LV_MIN(point1->y, point2->y) - dsc->width / 2;
  99              		.loc 1 62 49 view .LVU24
 100 0046 9042     		cmp	r0, r2
 101 0048 ACBF     		ite	ge
 102 004a 01EB000C 		addge	ip, r1, r0
 103 004e 01EB020C 		addlt	ip, r1, r2
  61:Drivers/lvgl/src/draw/sw/lv_draw_sw_line.c ****     clip_line.x2 = LV_MAX(point1->x, point2->x) + dsc->width / 2;
ARM GAS  /var/folders/lp/x54gwt890xv47sdkqj1k04q40000gn/T//ccKYvMxP.s 			page 4


 104              		.loc 1 61 49 view .LVU25
 105 0052 1D46     		mov	r5, r3
 106 0054 9042     		cmp	r0, r2
 107 0056 D4BF     		ite	le
 108 0058 C1EB000E 		rsble	lr, r1, r0
 109 005c C1EB020E 		rsbgt	lr, r1, r2
 110 0060 6CF30F05 		bfi	r5, ip, #0, #16
  63:Drivers/lvgl/src/draw/sw/lv_draw_sw_line.c ****     clip_line.y2 = LV_MAX(point1->y, point2->y) + dsc->width / 2;
 111              		.loc 1 63 49 view .LVU26
 112 0064 B742     		cmp	r7, r6
 113 0066 D4BF     		ite	le
 114 0068 C1EB0702 		rsble	r2, r1, r7
 115 006c C1EB0602 		rsbgt	r2, r1, r6
 116              		.loc 1 64 49 view .LVU27
 117 0070 B742     		cmp	r7, r6
 118 0072 ACBF     		ite	ge
 119 0074 C919     		addge	r1, r1, r7
 120 0076 8919     		addlt	r1, r1, r6
  61:Drivers/lvgl/src/draw/sw/lv_draw_sw_line.c ****     clip_line.x2 = LV_MAX(point1->x, point2->x) + dsc->width / 2;
 121              		.loc 1 61 49 view .LVU28
 122 0078 61F31F45 		bfi	r5, r1, #16, #16
 123 007c 6EF30F03 		bfi	r3, lr, #0, #16
  65:Drivers/lvgl/src/draw/sw/lv_draw_sw_line.c **** 
  66:Drivers/lvgl/src/draw/sw/lv_draw_sw_line.c ****     bool is_common;
  67:Drivers/lvgl/src/draw/sw/lv_draw_sw_line.c ****     is_common = _lv_area_intersect(&clip_line, &clip_line, draw_ctx->clip_area);
 124              		.loc 1 67 17 view .LVU29
 125 0080 0CA9     		add	r1, sp, #48
  61:Drivers/lvgl/src/draw/sw/lv_draw_sw_line.c ****     clip_line.x2 = LV_MAX(point1->x, point2->x) + dsc->width / 2;
 126              		.loc 1 61 49 view .LVU30
 127 0082 62F31F43 		bfi	r3, r2, #16, #16
 128              		.loc 1 67 17 view .LVU31
 129 0086 0846     		mov	r0, r1
 130 0088 DBF80820 		ldr	r2, [fp, #8]
  61:Drivers/lvgl/src/draw/sw/lv_draw_sw_line.c ****     clip_line.x2 = LV_MAX(point1->x, point2->x) + dsc->width / 2;
 131              		.loc 1 61 18 view .LVU32
 132 008c CDE90C35 		strd	r3, r5, [sp, #48]
  66:Drivers/lvgl/src/draw/sw/lv_draw_sw_line.c ****     is_common = _lv_area_intersect(&clip_line, &clip_line, draw_ctx->clip_area);
 133              		.loc 1 66 5 is_stmt 1 view .LVU33
 134              		.loc 1 67 5 view .LVU34
 135              		.loc 1 67 17 is_stmt 0 view .LVU35
 136 0090 FFF7FEFF 		bl	_lv_area_intersect
 137              	.LVL6:
  68:Drivers/lvgl/src/draw/sw/lv_draw_sw_line.c ****     if(!is_common) return;
 138              		.loc 1 68 5 is_stmt 1 view .LVU36
 139              		.loc 1 68 7 is_stmt 0 view .LVU37
 140 0094 0028     		cmp	r0, #0
 141 0096 00F06381 		beq	.L1
  69:Drivers/lvgl/src/draw/sw/lv_draw_sw_line.c ****     const lv_area_t * clip_area_ori = draw_ctx->clip_area;
 142              		.loc 1 69 5 is_stmt 1 view .LVU38
  70:Drivers/lvgl/src/draw/sw/lv_draw_sw_line.c ****     draw_ctx->clip_area = &clip_line;
  71:Drivers/lvgl/src/draw/sw/lv_draw_sw_line.c **** 
  72:Drivers/lvgl/src/draw/sw/lv_draw_sw_line.c ****     if(point1->y == point2->y) draw_line_hor(draw_ctx, dsc, point1, point2);
 143              		.loc 1 72 14 is_stmt 0 view .LVU39
 144 009a 029B     		ldr	r3, [sp, #8]
 145              		.loc 1 72 27 view .LVU40
 146 009c B8F90270 		ldrsh	r7, [r8, #2]
 147              		.loc 1 72 14 view .LVU41
ARM GAS  /var/folders/lp/x54gwt890xv47sdkqj1k04q40000gn/T//ccKYvMxP.s 			page 5


 148 00a0 B3F90260 		ldrsh	r6, [r3, #2]
  69:Drivers/lvgl/src/draw/sw/lv_draw_sw_line.c ****     const lv_area_t * clip_area_ori = draw_ctx->clip_area;
 149              		.loc 1 69 23 view .LVU42
 150 00a4 DBF80830 		ldr	r3, [fp, #8]
 151 00a8 0393     		str	r3, [sp, #12]
 152              	.LVL7:
  70:Drivers/lvgl/src/draw/sw/lv_draw_sw_line.c ****     draw_ctx->clip_area = &clip_line;
 153              		.loc 1 70 5 is_stmt 1 view .LVU43
 154              		.loc 1 72 7 is_stmt 0 view .LVU44
 155 00aa BE42     		cmp	r6, r7
  70:Drivers/lvgl/src/draw/sw/lv_draw_sw_line.c ****     draw_ctx->clip_area = &clip_line;
 156              		.loc 1 70 25 view .LVU45
 157 00ac 0CAB     		add	r3, sp, #48
 158              	.LVL8:
 159              	.LBB39:
 160              	.LBB40:
  73:Drivers/lvgl/src/draw/sw/lv_draw_sw_line.c ****     else if(point1->x == point2->x) draw_line_ver(draw_ctx, dsc, point1, point2);
  74:Drivers/lvgl/src/draw/sw/lv_draw_sw_line.c ****     else draw_line_skew(draw_ctx, dsc, point1, point2);
  75:Drivers/lvgl/src/draw/sw/lv_draw_sw_line.c **** 
  76:Drivers/lvgl/src/draw/sw/lv_draw_sw_line.c ****     if(dsc->round_end || dsc->round_start) {
  77:Drivers/lvgl/src/draw/sw/lv_draw_sw_line.c ****         lv_draw_rect_dsc_t cir_dsc;
  78:Drivers/lvgl/src/draw/sw/lv_draw_sw_line.c ****         lv_draw_rect_dsc_init(&cir_dsc);
  79:Drivers/lvgl/src/draw/sw/lv_draw_sw_line.c ****         cir_dsc.bg_color = dsc->color;
  80:Drivers/lvgl/src/draw/sw/lv_draw_sw_line.c ****         cir_dsc.radius = LV_RADIUS_CIRCLE;
  81:Drivers/lvgl/src/draw/sw/lv_draw_sw_line.c ****         cir_dsc.bg_opa = dsc->opa;
  82:Drivers/lvgl/src/draw/sw/lv_draw_sw_line.c **** 
  83:Drivers/lvgl/src/draw/sw/lv_draw_sw_line.c ****         int32_t r = (dsc->width >> 1);
  84:Drivers/lvgl/src/draw/sw/lv_draw_sw_line.c ****         int32_t r_corr = (dsc->width & 1) ? 0 : 1;
  85:Drivers/lvgl/src/draw/sw/lv_draw_sw_line.c ****         lv_area_t cir_area;
  86:Drivers/lvgl/src/draw/sw/lv_draw_sw_line.c **** 
  87:Drivers/lvgl/src/draw/sw/lv_draw_sw_line.c ****         if(dsc->round_start) {
  88:Drivers/lvgl/src/draw/sw/lv_draw_sw_line.c ****             cir_area.x1 = point1->x - r;
  89:Drivers/lvgl/src/draw/sw/lv_draw_sw_line.c ****             cir_area.y1 = point1->y - r;
  90:Drivers/lvgl/src/draw/sw/lv_draw_sw_line.c ****             cir_area.x2 = point1->x + r - r_corr;
  91:Drivers/lvgl/src/draw/sw/lv_draw_sw_line.c ****             cir_area.y2 = point1->y + r - r_corr ;
  92:Drivers/lvgl/src/draw/sw/lv_draw_sw_line.c ****             lv_draw_rect(draw_ctx, &cir_dsc, &cir_area);
  93:Drivers/lvgl/src/draw/sw/lv_draw_sw_line.c ****         }
  94:Drivers/lvgl/src/draw/sw/lv_draw_sw_line.c **** 
  95:Drivers/lvgl/src/draw/sw/lv_draw_sw_line.c ****         if(dsc->round_end) {
  96:Drivers/lvgl/src/draw/sw/lv_draw_sw_line.c ****             cir_area.x1 = point2->x - r;
  97:Drivers/lvgl/src/draw/sw/lv_draw_sw_line.c ****             cir_area.y1 = point2->y - r;
  98:Drivers/lvgl/src/draw/sw/lv_draw_sw_line.c ****             cir_area.x2 = point2->x + r - r_corr;
  99:Drivers/lvgl/src/draw/sw/lv_draw_sw_line.c ****             cir_area.y2 = point2->y + r - r_corr ;
 100:Drivers/lvgl/src/draw/sw/lv_draw_sw_line.c ****             lv_draw_rect(draw_ctx, &cir_dsc, &cir_area);
 101:Drivers/lvgl/src/draw/sw/lv_draw_sw_line.c ****         }
 102:Drivers/lvgl/src/draw/sw/lv_draw_sw_line.c ****     }
 103:Drivers/lvgl/src/draw/sw/lv_draw_sw_line.c **** 
 104:Drivers/lvgl/src/draw/sw/lv_draw_sw_line.c ****     draw_ctx->clip_area = clip_area_ori;
 105:Drivers/lvgl/src/draw/sw/lv_draw_sw_line.c **** }
 106:Drivers/lvgl/src/draw/sw/lv_draw_sw_line.c **** 
 107:Drivers/lvgl/src/draw/sw/lv_draw_sw_line.c **** /**********************
 108:Drivers/lvgl/src/draw/sw/lv_draw_sw_line.c ****  *   STATIC FUNCTIONS
 109:Drivers/lvgl/src/draw/sw/lv_draw_sw_line.c ****  **********************/
 110:Drivers/lvgl/src/draw/sw/lv_draw_sw_line.c **** 
 111:Drivers/lvgl/src/draw/sw/lv_draw_sw_line.c **** 
 112:Drivers/lvgl/src/draw/sw/lv_draw_sw_line.c **** static void LV_ATTRIBUTE_FAST_MEM draw_line_hor(struct _lv_draw_ctx_t * draw_ctx, const lv_draw_lin
 113:Drivers/lvgl/src/draw/sw/lv_draw_sw_line.c ****                                                 const lv_point_t * point1, const lv_point_t * point
ARM GAS  /var/folders/lp/x54gwt890xv47sdkqj1k04q40000gn/T//ccKYvMxP.s 			page 6


 114:Drivers/lvgl/src/draw/sw/lv_draw_sw_line.c **** {
 115:Drivers/lvgl/src/draw/sw/lv_draw_sw_line.c ****     int32_t w = dsc->width - 1;
 161              		.loc 1 115 20 view .LVU46
 162 00ae B4F90250 		ldrsh	r5, [r4, #2]
 163              	.LBE40:
 164              	.LBE39:
  70:Drivers/lvgl/src/draw/sw/lv_draw_sw_line.c ****     draw_ctx->clip_area = &clip_line;
 165              		.loc 1 70 25 view .LVU47
 166 00b2 CBF80830 		str	r3, [fp, #8]
 167              	.LVL9:
  72:Drivers/lvgl/src/draw/sw/lv_draw_sw_line.c ****     else if(point1->x == point2->x) draw_line_ver(draw_ctx, dsc, point1, point2);
 168              		.loc 1 72 5 is_stmt 1 view .LVU48
  72:Drivers/lvgl/src/draw/sw/lv_draw_sw_line.c ****     else if(point1->x == point2->x) draw_line_ver(draw_ctx, dsc, point1, point2);
 169              		.loc 1 72 7 is_stmt 0 view .LVU49
 170 00b6 00F03882 		beq	.L108
  73:Drivers/lvgl/src/draw/sw/lv_draw_sw_line.c ****     else if(point1->x == point2->x) draw_line_ver(draw_ctx, dsc, point1, point2);
 171              		.loc 1 73 10 is_stmt 1 view .LVU50
  73:Drivers/lvgl/src/draw/sw/lv_draw_sw_line.c ****     else if(point1->x == point2->x) draw_line_ver(draw_ctx, dsc, point1, point2);
 172              		.loc 1 73 19 is_stmt 0 view .LVU51
 173 00ba 029B     		ldr	r3, [sp, #8]
  73:Drivers/lvgl/src/draw/sw/lv_draw_sw_line.c ****     else if(point1->x == point2->x) draw_line_ver(draw_ctx, dsc, point1, point2);
 174              		.loc 1 73 32 view .LVU52
 175 00bc B8F90090 		ldrsh	r9, [r8]
  73:Drivers/lvgl/src/draw/sw/lv_draw_sw_line.c ****     else if(point1->x == point2->x) draw_line_ver(draw_ctx, dsc, point1, point2);
 176              		.loc 1 73 19 view .LVU53
 177 00c0 B3F900A0 		ldrsh	r10, [r3]
  73:Drivers/lvgl/src/draw/sw/lv_draw_sw_line.c ****     else if(point1->x == point2->x) draw_line_ver(draw_ctx, dsc, point1, point2);
 178              		.loc 1 73 12 view .LVU54
 179 00c4 CA45     		cmp	r10, r9
 180 00c6 00F05181 		beq	.L109
  74:Drivers/lvgl/src/draw/sw/lv_draw_sw_line.c **** 
 181              		.loc 1 74 10 is_stmt 1 view .LVU55
 182              	.LVL10:
 183              	.LBB72:
 184              	.LBI72:
 116:Drivers/lvgl/src/draw/sw/lv_draw_sw_line.c ****     int32_t w_half0 = w >> 1;
 117:Drivers/lvgl/src/draw/sw/lv_draw_sw_line.c ****     int32_t w_half1 = w_half0 + (w & 0x1); /*Compensate rounding error*/
 118:Drivers/lvgl/src/draw/sw/lv_draw_sw_line.c **** 
 119:Drivers/lvgl/src/draw/sw/lv_draw_sw_line.c ****     lv_area_t blend_area;
 120:Drivers/lvgl/src/draw/sw/lv_draw_sw_line.c ****     blend_area.x1 = LV_MIN(point1->x, point2->x);
 121:Drivers/lvgl/src/draw/sw/lv_draw_sw_line.c ****     blend_area.x2 = LV_MAX(point1->x, point2->x)  - 1;
 122:Drivers/lvgl/src/draw/sw/lv_draw_sw_line.c ****     blend_area.y1 = point1->y - w_half1;
 123:Drivers/lvgl/src/draw/sw/lv_draw_sw_line.c ****     blend_area.y2 = point1->y + w_half0;
 124:Drivers/lvgl/src/draw/sw/lv_draw_sw_line.c **** 
 125:Drivers/lvgl/src/draw/sw/lv_draw_sw_line.c ****     bool is_common;
 126:Drivers/lvgl/src/draw/sw/lv_draw_sw_line.c ****     is_common = _lv_area_intersect(&blend_area, &blend_area, draw_ctx->clip_area);
 127:Drivers/lvgl/src/draw/sw/lv_draw_sw_line.c ****     if(!is_common) return;
 128:Drivers/lvgl/src/draw/sw/lv_draw_sw_line.c **** 
 129:Drivers/lvgl/src/draw/sw/lv_draw_sw_line.c ****     bool dashed = dsc->dash_gap && dsc->dash_width ? true : false;
 130:Drivers/lvgl/src/draw/sw/lv_draw_sw_line.c ****     bool simple_mode = true;
 131:Drivers/lvgl/src/draw/sw/lv_draw_sw_line.c ****     if(lv_draw_mask_is_any(&blend_area)) simple_mode = false;
 132:Drivers/lvgl/src/draw/sw/lv_draw_sw_line.c ****     else if(dashed) simple_mode = false;
 133:Drivers/lvgl/src/draw/sw/lv_draw_sw_line.c **** 
 134:Drivers/lvgl/src/draw/sw/lv_draw_sw_line.c ****     lv_draw_sw_blend_dsc_t blend_dsc;
 135:Drivers/lvgl/src/draw/sw/lv_draw_sw_line.c ****     lv_memset_00(&blend_dsc, sizeof(blend_dsc));
 136:Drivers/lvgl/src/draw/sw/lv_draw_sw_line.c ****     blend_dsc.blend_area = &blend_area;
 137:Drivers/lvgl/src/draw/sw/lv_draw_sw_line.c ****     blend_dsc.color = dsc->color;
ARM GAS  /var/folders/lp/x54gwt890xv47sdkqj1k04q40000gn/T//ccKYvMxP.s 			page 7


 138:Drivers/lvgl/src/draw/sw/lv_draw_sw_line.c ****     blend_dsc.opa = dsc->opa;
 139:Drivers/lvgl/src/draw/sw/lv_draw_sw_line.c **** 
 140:Drivers/lvgl/src/draw/sw/lv_draw_sw_line.c ****     /*If there is no mask then simply draw a rectangle*/
 141:Drivers/lvgl/src/draw/sw/lv_draw_sw_line.c ****     if(simple_mode) {
 142:Drivers/lvgl/src/draw/sw/lv_draw_sw_line.c ****         lv_draw_sw_blend(draw_ctx, &blend_dsc);
 143:Drivers/lvgl/src/draw/sw/lv_draw_sw_line.c ****     }
 144:Drivers/lvgl/src/draw/sw/lv_draw_sw_line.c **** #if LV_DRAW_COMPLEX
 145:Drivers/lvgl/src/draw/sw/lv_draw_sw_line.c ****     /*If there other mask apply it*/
 146:Drivers/lvgl/src/draw/sw/lv_draw_sw_line.c ****     else {
 147:Drivers/lvgl/src/draw/sw/lv_draw_sw_line.c **** 
 148:Drivers/lvgl/src/draw/sw/lv_draw_sw_line.c ****         int32_t blend_area_w = lv_area_get_width(&blend_area);
 149:Drivers/lvgl/src/draw/sw/lv_draw_sw_line.c **** 
 150:Drivers/lvgl/src/draw/sw/lv_draw_sw_line.c ****         lv_coord_t y2 = blend_area.y2;
 151:Drivers/lvgl/src/draw/sw/lv_draw_sw_line.c ****         blend_area.y2 = blend_area.y1;
 152:Drivers/lvgl/src/draw/sw/lv_draw_sw_line.c **** 
 153:Drivers/lvgl/src/draw/sw/lv_draw_sw_line.c ****         lv_coord_t dash_start = 0;
 154:Drivers/lvgl/src/draw/sw/lv_draw_sw_line.c ****         if(dashed) {
 155:Drivers/lvgl/src/draw/sw/lv_draw_sw_line.c ****             dash_start = (blend_area.x1) % (dsc->dash_gap + dsc->dash_width);
 156:Drivers/lvgl/src/draw/sw/lv_draw_sw_line.c ****         }
 157:Drivers/lvgl/src/draw/sw/lv_draw_sw_line.c **** 
 158:Drivers/lvgl/src/draw/sw/lv_draw_sw_line.c ****         lv_opa_t * mask_buf = lv_mem_buf_get(blend_area_w);
 159:Drivers/lvgl/src/draw/sw/lv_draw_sw_line.c ****         blend_dsc.mask_buf = mask_buf;
 160:Drivers/lvgl/src/draw/sw/lv_draw_sw_line.c ****         blend_dsc.mask_area = &blend_area;
 161:Drivers/lvgl/src/draw/sw/lv_draw_sw_line.c ****         int32_t h;
 162:Drivers/lvgl/src/draw/sw/lv_draw_sw_line.c ****         for(h = blend_area.y1; h <= y2; h++) {
 163:Drivers/lvgl/src/draw/sw/lv_draw_sw_line.c ****             lv_memset_ff(mask_buf, blend_area_w);
 164:Drivers/lvgl/src/draw/sw/lv_draw_sw_line.c ****             blend_dsc.mask_res = lv_draw_mask_apply(mask_buf, blend_area.x1, h, blend_area_w);
 165:Drivers/lvgl/src/draw/sw/lv_draw_sw_line.c **** 
 166:Drivers/lvgl/src/draw/sw/lv_draw_sw_line.c ****             if(dashed) {
 167:Drivers/lvgl/src/draw/sw/lv_draw_sw_line.c ****                 if(blend_dsc.mask_res != LV_DRAW_MASK_RES_TRANSP) {
 168:Drivers/lvgl/src/draw/sw/lv_draw_sw_line.c ****                     lv_coord_t dash_cnt = dash_start;
 169:Drivers/lvgl/src/draw/sw/lv_draw_sw_line.c ****                     lv_coord_t i;
 170:Drivers/lvgl/src/draw/sw/lv_draw_sw_line.c ****                     for(i = 0; i < blend_area_w; i++, dash_cnt++) {
 171:Drivers/lvgl/src/draw/sw/lv_draw_sw_line.c ****                         if(dash_cnt <= dsc->dash_width) {
 172:Drivers/lvgl/src/draw/sw/lv_draw_sw_line.c ****                             int16_t diff = dsc->dash_width - dash_cnt;
 173:Drivers/lvgl/src/draw/sw/lv_draw_sw_line.c ****                             i += diff;
 174:Drivers/lvgl/src/draw/sw/lv_draw_sw_line.c ****                             dash_cnt += diff;
 175:Drivers/lvgl/src/draw/sw/lv_draw_sw_line.c ****                         }
 176:Drivers/lvgl/src/draw/sw/lv_draw_sw_line.c ****                         else if(dash_cnt >= dsc->dash_gap + dsc->dash_width) {
 177:Drivers/lvgl/src/draw/sw/lv_draw_sw_line.c ****                             dash_cnt = 0;
 178:Drivers/lvgl/src/draw/sw/lv_draw_sw_line.c ****                         }
 179:Drivers/lvgl/src/draw/sw/lv_draw_sw_line.c ****                         else {
 180:Drivers/lvgl/src/draw/sw/lv_draw_sw_line.c ****                             mask_buf[i] = 0x00;
 181:Drivers/lvgl/src/draw/sw/lv_draw_sw_line.c ****                         }
 182:Drivers/lvgl/src/draw/sw/lv_draw_sw_line.c ****                     }
 183:Drivers/lvgl/src/draw/sw/lv_draw_sw_line.c **** 
 184:Drivers/lvgl/src/draw/sw/lv_draw_sw_line.c ****                     blend_dsc.mask_res = LV_DRAW_MASK_RES_CHANGED;
 185:Drivers/lvgl/src/draw/sw/lv_draw_sw_line.c ****                 }
 186:Drivers/lvgl/src/draw/sw/lv_draw_sw_line.c ****             }
 187:Drivers/lvgl/src/draw/sw/lv_draw_sw_line.c **** 
 188:Drivers/lvgl/src/draw/sw/lv_draw_sw_line.c ****             lv_draw_sw_blend(draw_ctx, &blend_dsc);
 189:Drivers/lvgl/src/draw/sw/lv_draw_sw_line.c **** 
 190:Drivers/lvgl/src/draw/sw/lv_draw_sw_line.c ****             blend_area.y1++;
 191:Drivers/lvgl/src/draw/sw/lv_draw_sw_line.c ****             blend_area.y2++;
 192:Drivers/lvgl/src/draw/sw/lv_draw_sw_line.c ****         }
 193:Drivers/lvgl/src/draw/sw/lv_draw_sw_line.c ****         lv_mem_buf_release(mask_buf);
 194:Drivers/lvgl/src/draw/sw/lv_draw_sw_line.c ****     }
ARM GAS  /var/folders/lp/x54gwt890xv47sdkqj1k04q40000gn/T//ccKYvMxP.s 			page 8


 195:Drivers/lvgl/src/draw/sw/lv_draw_sw_line.c **** #endif /*LV_DRAW_COMPLEX*/
 196:Drivers/lvgl/src/draw/sw/lv_draw_sw_line.c **** }
 197:Drivers/lvgl/src/draw/sw/lv_draw_sw_line.c **** 
 198:Drivers/lvgl/src/draw/sw/lv_draw_sw_line.c **** static void LV_ATTRIBUTE_FAST_MEM draw_line_ver(struct _lv_draw_ctx_t * draw_ctx, const lv_draw_lin
 199:Drivers/lvgl/src/draw/sw/lv_draw_sw_line.c ****                                                 const lv_point_t * point1, const lv_point_t * point
 200:Drivers/lvgl/src/draw/sw/lv_draw_sw_line.c **** {
 201:Drivers/lvgl/src/draw/sw/lv_draw_sw_line.c ****     int32_t w = dsc->width - 1;
 202:Drivers/lvgl/src/draw/sw/lv_draw_sw_line.c ****     int32_t w_half0 = w >> 1;
 203:Drivers/lvgl/src/draw/sw/lv_draw_sw_line.c ****     int32_t w_half1 = w_half0 + (w & 0x1); /*Compensate rounding error*/
 204:Drivers/lvgl/src/draw/sw/lv_draw_sw_line.c **** 
 205:Drivers/lvgl/src/draw/sw/lv_draw_sw_line.c ****     lv_area_t blend_area;
 206:Drivers/lvgl/src/draw/sw/lv_draw_sw_line.c ****     blend_area.x1 = point1->x - w_half1;
 207:Drivers/lvgl/src/draw/sw/lv_draw_sw_line.c ****     blend_area.x2 = point1->x + w_half0;
 208:Drivers/lvgl/src/draw/sw/lv_draw_sw_line.c ****     blend_area.y1 = LV_MIN(point1->y, point2->y);
 209:Drivers/lvgl/src/draw/sw/lv_draw_sw_line.c ****     blend_area.y2 = LV_MAX(point1->y, point2->y) - 1;
 210:Drivers/lvgl/src/draw/sw/lv_draw_sw_line.c **** 
 211:Drivers/lvgl/src/draw/sw/lv_draw_sw_line.c ****     bool is_common;
 212:Drivers/lvgl/src/draw/sw/lv_draw_sw_line.c ****     is_common = _lv_area_intersect(&blend_area, &blend_area, draw_ctx->clip_area);
 213:Drivers/lvgl/src/draw/sw/lv_draw_sw_line.c ****     if(!is_common) return;
 214:Drivers/lvgl/src/draw/sw/lv_draw_sw_line.c **** 
 215:Drivers/lvgl/src/draw/sw/lv_draw_sw_line.c ****     bool dashed = dsc->dash_gap && dsc->dash_width ? true : false;
 216:Drivers/lvgl/src/draw/sw/lv_draw_sw_line.c ****     bool simple_mode = true;
 217:Drivers/lvgl/src/draw/sw/lv_draw_sw_line.c ****     if(lv_draw_mask_is_any(&blend_area)) simple_mode = false;
 218:Drivers/lvgl/src/draw/sw/lv_draw_sw_line.c ****     else if(dashed) simple_mode = false;
 219:Drivers/lvgl/src/draw/sw/lv_draw_sw_line.c **** 
 220:Drivers/lvgl/src/draw/sw/lv_draw_sw_line.c ****     lv_draw_sw_blend_dsc_t blend_dsc;
 221:Drivers/lvgl/src/draw/sw/lv_draw_sw_line.c ****     lv_memset_00(&blend_dsc, sizeof(blend_dsc));
 222:Drivers/lvgl/src/draw/sw/lv_draw_sw_line.c ****     blend_dsc.blend_area = &blend_area;
 223:Drivers/lvgl/src/draw/sw/lv_draw_sw_line.c ****     blend_dsc.color = dsc->color;
 224:Drivers/lvgl/src/draw/sw/lv_draw_sw_line.c ****     blend_dsc.opa = dsc->opa;
 225:Drivers/lvgl/src/draw/sw/lv_draw_sw_line.c **** 
 226:Drivers/lvgl/src/draw/sw/lv_draw_sw_line.c ****     /*If there is no mask then simply draw a rectangle*/
 227:Drivers/lvgl/src/draw/sw/lv_draw_sw_line.c ****     if(simple_mode) {
 228:Drivers/lvgl/src/draw/sw/lv_draw_sw_line.c ****         lv_draw_sw_blend(draw_ctx, &blend_dsc);
 229:Drivers/lvgl/src/draw/sw/lv_draw_sw_line.c ****     }
 230:Drivers/lvgl/src/draw/sw/lv_draw_sw_line.c **** 
 231:Drivers/lvgl/src/draw/sw/lv_draw_sw_line.c **** #if LV_DRAW_COMPLEX
 232:Drivers/lvgl/src/draw/sw/lv_draw_sw_line.c ****     /*If there other mask apply it*/
 233:Drivers/lvgl/src/draw/sw/lv_draw_sw_line.c ****     else {
 234:Drivers/lvgl/src/draw/sw/lv_draw_sw_line.c ****         int32_t draw_area_w = lv_area_get_width(&blend_area);
 235:Drivers/lvgl/src/draw/sw/lv_draw_sw_line.c **** 
 236:Drivers/lvgl/src/draw/sw/lv_draw_sw_line.c ****         lv_coord_t y2 = blend_area.y2;
 237:Drivers/lvgl/src/draw/sw/lv_draw_sw_line.c ****         blend_area.y2 = blend_area.y1;
 238:Drivers/lvgl/src/draw/sw/lv_draw_sw_line.c **** 
 239:Drivers/lvgl/src/draw/sw/lv_draw_sw_line.c ****         lv_opa_t * mask_buf = lv_mem_buf_get(draw_area_w);
 240:Drivers/lvgl/src/draw/sw/lv_draw_sw_line.c ****         blend_dsc.mask_buf = mask_buf;
 241:Drivers/lvgl/src/draw/sw/lv_draw_sw_line.c ****         blend_dsc.mask_area = &blend_area;
 242:Drivers/lvgl/src/draw/sw/lv_draw_sw_line.c **** 
 243:Drivers/lvgl/src/draw/sw/lv_draw_sw_line.c ****         lv_coord_t dash_start = 0;
 244:Drivers/lvgl/src/draw/sw/lv_draw_sw_line.c ****         if(dashed) {
 245:Drivers/lvgl/src/draw/sw/lv_draw_sw_line.c ****             dash_start = (blend_area.y1) % (dsc->dash_gap + dsc->dash_width);
 246:Drivers/lvgl/src/draw/sw/lv_draw_sw_line.c ****         }
 247:Drivers/lvgl/src/draw/sw/lv_draw_sw_line.c **** 
 248:Drivers/lvgl/src/draw/sw/lv_draw_sw_line.c ****         lv_coord_t dash_cnt = dash_start;
 249:Drivers/lvgl/src/draw/sw/lv_draw_sw_line.c **** 
 250:Drivers/lvgl/src/draw/sw/lv_draw_sw_line.c ****         int32_t h;
 251:Drivers/lvgl/src/draw/sw/lv_draw_sw_line.c ****         for(h = blend_area.y1; h <= y2; h++) {
ARM GAS  /var/folders/lp/x54gwt890xv47sdkqj1k04q40000gn/T//ccKYvMxP.s 			page 9


 252:Drivers/lvgl/src/draw/sw/lv_draw_sw_line.c ****             lv_memset_ff(mask_buf, draw_area_w);
 253:Drivers/lvgl/src/draw/sw/lv_draw_sw_line.c ****             blend_dsc.mask_res = lv_draw_mask_apply(mask_buf, blend_area.x1, h, draw_area_w);
 254:Drivers/lvgl/src/draw/sw/lv_draw_sw_line.c **** 
 255:Drivers/lvgl/src/draw/sw/lv_draw_sw_line.c ****             if(dashed) {
 256:Drivers/lvgl/src/draw/sw/lv_draw_sw_line.c ****                 if(blend_dsc.mask_res != LV_DRAW_MASK_RES_TRANSP) {
 257:Drivers/lvgl/src/draw/sw/lv_draw_sw_line.c ****                     if(dash_cnt > dsc->dash_width) {
 258:Drivers/lvgl/src/draw/sw/lv_draw_sw_line.c ****                         blend_dsc.mask_res = LV_DRAW_MASK_RES_TRANSP;
 259:Drivers/lvgl/src/draw/sw/lv_draw_sw_line.c ****                     }
 260:Drivers/lvgl/src/draw/sw/lv_draw_sw_line.c **** 
 261:Drivers/lvgl/src/draw/sw/lv_draw_sw_line.c ****                     if(dash_cnt >= dsc->dash_gap + dsc->dash_width) {
 262:Drivers/lvgl/src/draw/sw/lv_draw_sw_line.c ****                         dash_cnt = 0;
 263:Drivers/lvgl/src/draw/sw/lv_draw_sw_line.c ****                     }
 264:Drivers/lvgl/src/draw/sw/lv_draw_sw_line.c ****                 }
 265:Drivers/lvgl/src/draw/sw/lv_draw_sw_line.c ****                 dash_cnt ++;
 266:Drivers/lvgl/src/draw/sw/lv_draw_sw_line.c ****             }
 267:Drivers/lvgl/src/draw/sw/lv_draw_sw_line.c **** 
 268:Drivers/lvgl/src/draw/sw/lv_draw_sw_line.c ****             lv_draw_sw_blend(draw_ctx, &blend_dsc);
 269:Drivers/lvgl/src/draw/sw/lv_draw_sw_line.c **** 
 270:Drivers/lvgl/src/draw/sw/lv_draw_sw_line.c ****             blend_area.y1++;
 271:Drivers/lvgl/src/draw/sw/lv_draw_sw_line.c ****             blend_area.y2++;
 272:Drivers/lvgl/src/draw/sw/lv_draw_sw_line.c ****         }
 273:Drivers/lvgl/src/draw/sw/lv_draw_sw_line.c ****         lv_mem_buf_release(mask_buf);
 274:Drivers/lvgl/src/draw/sw/lv_draw_sw_line.c ****     }
 275:Drivers/lvgl/src/draw/sw/lv_draw_sw_line.c **** #endif /*LV_DRAW_COMPLEX*/
 276:Drivers/lvgl/src/draw/sw/lv_draw_sw_line.c **** }
 277:Drivers/lvgl/src/draw/sw/lv_draw_sw_line.c **** 
 278:Drivers/lvgl/src/draw/sw/lv_draw_sw_line.c **** static void LV_ATTRIBUTE_FAST_MEM draw_line_skew(struct _lv_draw_ctx_t * draw_ctx, const lv_draw_li
 185              		.loc 1 278 35 view .LVU56
 186              	.LBB73:
 279:Drivers/lvgl/src/draw/sw/lv_draw_sw_line.c ****                                                  const lv_point_t * point1, const lv_point_t * poin
 280:Drivers/lvgl/src/draw/sw/lv_draw_sw_line.c **** {
 281:Drivers/lvgl/src/draw/sw/lv_draw_sw_line.c **** #if LV_DRAW_COMPLEX
 282:Drivers/lvgl/src/draw/sw/lv_draw_sw_line.c ****     /*Keep the great y in p1*/
 283:Drivers/lvgl/src/draw/sw/lv_draw_sw_line.c ****     lv_point_t p1;
 187              		.loc 1 283 5 view .LVU57
 284:Drivers/lvgl/src/draw/sw/lv_draw_sw_line.c ****     lv_point_t p2;
 188              		.loc 1 284 5 view .LVU58
 285:Drivers/lvgl/src/draw/sw/lv_draw_sw_line.c ****     if(point1->y < point2->y) {
 189              		.loc 1 285 5 view .LVU59
 190              		.loc 1 285 7 is_stmt 0 view .LVU60
 191 00ca BE42     		cmp	r6, r7
 192 00cc 05DA     		bge	.L33
 193 00ce 3A46     		mov	r2, r7
 194 00d0 4B46     		mov	r3, r9
 195              	.LVL11:
 286:Drivers/lvgl/src/draw/sw/lv_draw_sw_line.c ****         p1.y = point1->y;
 196              		.loc 1 286 14 view .LVU61
 197 00d2 3746     		mov	r7, r6
 287:Drivers/lvgl/src/draw/sw/lv_draw_sw_line.c ****         p2.y = point2->y;
 288:Drivers/lvgl/src/draw/sw/lv_draw_sw_line.c ****         p1.x = point1->x;
 198              		.loc 1 288 14 view .LVU62
 199 00d4 D146     		mov	r9, r10
 287:Drivers/lvgl/src/draw/sw/lv_draw_sw_line.c ****         p2.y = point2->y;
 200              		.loc 1 287 14 view .LVU63
 201 00d6 1646     		mov	r6, r2
 289:Drivers/lvgl/src/draw/sw/lv_draw_sw_line.c ****         p2.x = point2->x;
 202              		.loc 1 289 14 view .LVU64
ARM GAS  /var/folders/lp/x54gwt890xv47sdkqj1k04q40000gn/T//ccKYvMxP.s 			page 10


 203 00d8 9A46     		mov	r10, r3
 204              	.L33:
 205              	.LVL12:
 290:Drivers/lvgl/src/draw/sw/lv_draw_sw_line.c ****     }
 291:Drivers/lvgl/src/draw/sw/lv_draw_sw_line.c ****     else {
 292:Drivers/lvgl/src/draw/sw/lv_draw_sw_line.c ****         p1.y = point2->y;
 293:Drivers/lvgl/src/draw/sw/lv_draw_sw_line.c ****         p2.y = point1->y;
 294:Drivers/lvgl/src/draw/sw/lv_draw_sw_line.c ****         p1.x = point2->x;
 295:Drivers/lvgl/src/draw/sw/lv_draw_sw_line.c ****         p2.x = point1->x;
 296:Drivers/lvgl/src/draw/sw/lv_draw_sw_line.c ****     }
 297:Drivers/lvgl/src/draw/sw/lv_draw_sw_line.c **** 
 298:Drivers/lvgl/src/draw/sw/lv_draw_sw_line.c ****     int32_t xdiff = p2.x - p1.x;
 206              		.loc 1 298 5 is_stmt 1 view .LVU65
 207              		.loc 1 298 13 is_stmt 0 view .LVU66
 208 00da AAEB0903 		sub	r3, r10, r9
 299:Drivers/lvgl/src/draw/sw/lv_draw_sw_line.c ****     int32_t ydiff = p2.y - p1.y;
 209              		.loc 1 299 13 view .LVU67
 210 00de F11B     		subs	r1, r6, r7
 300:Drivers/lvgl/src/draw/sw/lv_draw_sw_line.c ****     bool flat = LV_ABS(xdiff) > LV_ABS(ydiff) ? true : false;
 211              		.loc 1 300 17 view .LVU68
 212 00e0 83EAE372 		eor	r2, r3, r3, asr #31
 213 00e4 A2EBE372 		sub	r2, r2, r3, asr #31
 298:Drivers/lvgl/src/draw/sw/lv_draw_sw_line.c ****     int32_t ydiff = p2.y - p1.y;
 214              		.loc 1 298 13 view .LVU69
 215 00e8 0893     		str	r3, [sp, #32]
 216              	.LVL13:
 299:Drivers/lvgl/src/draw/sw/lv_draw_sw_line.c ****     int32_t ydiff = p2.y - p1.y;
 217              		.loc 1 299 5 is_stmt 1 view .LVU70
 218              		.loc 1 300 33 is_stmt 0 view .LVU71
 219 00ea 81EAE173 		eor	r3, r1, r1, asr #31
 220              	.LVL14:
 221              		.loc 1 300 33 view .LVU72
 222 00ee A3EBE173 		sub	r3, r3, r1, asr #31
 301:Drivers/lvgl/src/draw/sw/lv_draw_sw_line.c **** 
 302:Drivers/lvgl/src/draw/sw/lv_draw_sw_line.c ****     static const uint8_t wcorr[] = {
 303:Drivers/lvgl/src/draw/sw/lv_draw_sw_line.c ****         128, 128, 128, 129, 129, 130, 130, 131,
 304:Drivers/lvgl/src/draw/sw/lv_draw_sw_line.c ****         132, 133, 134, 135, 137, 138, 140, 141,
 305:Drivers/lvgl/src/draw/sw/lv_draw_sw_line.c ****         143, 145, 147, 149, 151, 153, 155, 158,
 306:Drivers/lvgl/src/draw/sw/lv_draw_sw_line.c ****         160, 162, 165, 167, 170, 173, 175, 178,
 307:Drivers/lvgl/src/draw/sw/lv_draw_sw_line.c ****         181,
 308:Drivers/lvgl/src/draw/sw/lv_draw_sw_line.c ****     };
 309:Drivers/lvgl/src/draw/sw/lv_draw_sw_line.c **** 
 310:Drivers/lvgl/src/draw/sw/lv_draw_sw_line.c ****     int32_t w = dsc->width;
 311:Drivers/lvgl/src/draw/sw/lv_draw_sw_line.c ****     int32_t wcorr_i = 0;
 312:Drivers/lvgl/src/draw/sw/lv_draw_sw_line.c ****     if(flat) wcorr_i = (LV_ABS(ydiff) << 5) / LV_ABS(xdiff);
 223              		.loc 1 312 7 view .LVU73
 224 00f2 9A42     		cmp	r2, r3
 300:Drivers/lvgl/src/draw/sw/lv_draw_sw_line.c **** 
 225              		.loc 1 300 17 view .LVU74
 226 00f4 0492     		str	r2, [sp, #16]
 300:Drivers/lvgl/src/draw/sw/lv_draw_sw_line.c **** 
 227              		.loc 1 300 33 view .LVU75
 228 00f6 0593     		str	r3, [sp, #20]
 299:Drivers/lvgl/src/draw/sw/lv_draw_sw_line.c ****     bool flat = LV_ABS(xdiff) > LV_ABS(ydiff) ? true : false;
 229              		.loc 1 299 13 view .LVU76
 230 00f8 0B91     		str	r1, [sp, #44]
 231              	.LVL15:
ARM GAS  /var/folders/lp/x54gwt890xv47sdkqj1k04q40000gn/T//ccKYvMxP.s 			page 11


 300:Drivers/lvgl/src/draw/sw/lv_draw_sw_line.c **** 
 232              		.loc 1 300 5 is_stmt 1 view .LVU77
 302:Drivers/lvgl/src/draw/sw/lv_draw_sw_line.c ****         128, 128, 128, 129, 129, 130, 130, 131,
 233              		.loc 1 302 5 view .LVU78
 310:Drivers/lvgl/src/draw/sw/lv_draw_sw_line.c ****     int32_t wcorr_i = 0;
 234              		.loc 1 310 5 view .LVU79
 311:Drivers/lvgl/src/draw/sw/lv_draw_sw_line.c ****     if(flat) wcorr_i = (LV_ABS(ydiff) << 5) / LV_ABS(xdiff);
 235              		.loc 1 311 5 view .LVU80
 236              		.loc 1 312 5 view .LVU81
 237              		.loc 1 312 14 discriminator 1 view .LVU82
 313:Drivers/lvgl/src/draw/sw/lv_draw_sw_line.c ****     else wcorr_i = (LV_ABS(xdiff) << 5) / LV_ABS(ydiff);
 238              		.loc 1 313 35 is_stmt 0 view .LVU83
 239 00fa D8BF     		it	le
 240 00fc 049B     		ldrle	r3, [sp, #16]
 241              	.LVL16:
 314:Drivers/lvgl/src/draw/sw/lv_draw_sw_line.c **** 
 315:Drivers/lvgl/src/draw/sw/lv_draw_sw_line.c ****     w = (w * wcorr[wcorr_i] + 63) >> 7;     /*+ 63 for rounding*/
 242              		.loc 1 315 19 view .LVU84
 243 00fe 9A49     		ldr	r1, .L121
 244              	.LVL17:
 313:Drivers/lvgl/src/draw/sw/lv_draw_sw_line.c ****     else wcorr_i = (LV_ABS(xdiff) << 5) / LV_ABS(ydiff);
 245              		.loc 1 313 18 view .LVU85
 246 0100 D6BF     		itet	le
 247 0102 059A     		ldrle	r2, [sp, #20]
 248              	.LVL18:
 312:Drivers/lvgl/src/draw/sw/lv_draw_sw_line.c ****     else wcorr_i = (LV_ABS(xdiff) << 5) / LV_ABS(ydiff);
 249              		.loc 1 312 39 discriminator 1 view .LVU86
 250 0104 5B01     		lslgt	r3, r3, #5
 313:Drivers/lvgl/src/draw/sw/lv_draw_sw_line.c ****     else wcorr_i = (LV_ABS(xdiff) << 5) / LV_ABS(ydiff);
 251              		.loc 1 313 10 is_stmt 1 view .LVU87
 313:Drivers/lvgl/src/draw/sw/lv_draw_sw_line.c ****     else wcorr_i = (LV_ABS(xdiff) << 5) / LV_ABS(ydiff);
 252              		.loc 1 313 35 is_stmt 0 view .LVU88
 253 0106 5B01     		lslle	r3, r3, #5
 313:Drivers/lvgl/src/draw/sw/lv_draw_sw_line.c ****     else wcorr_i = (LV_ABS(xdiff) << 5) / LV_ABS(ydiff);
 254              		.loc 1 313 18 view .LVU89
 255 0108 B3FBF2F3 		udiv	r3, r3, r2
 256              	.LVL19:
 257              		.loc 1 315 5 is_stmt 1 view .LVU90
 316:Drivers/lvgl/src/draw/sw/lv_draw_sw_line.c ****     int32_t w_half0 = w >> 1;
 258              		.loc 1 316 5 view .LVU91
 315:Drivers/lvgl/src/draw/sw/lv_draw_sw_line.c ****     int32_t w_half0 = w >> 1;
 259              		.loc 1 315 29 is_stmt 0 view .LVU92
 260 010c C95C     		ldrb	r1, [r1, r3]	@ zero_extendqisi2
 261 010e 3F23     		movs	r3, #63
 262              	.LVL20:
 315:Drivers/lvgl/src/draw/sw/lv_draw_sw_line.c ****     int32_t w_half0 = w >> 1;
 263              		.loc 1 315 29 view .LVU93
 264 0110 15FB0135 		smlabb	r5, r5, r1, r3
 265              	.LVL21:
 317:Drivers/lvgl/src/draw/sw/lv_draw_sw_line.c ****     int32_t w_half1 = w_half0 + (w & 0x1); /*Compensate rounding error*/
 266              		.loc 1 317 5 is_stmt 1 view .LVU94
 318:Drivers/lvgl/src/draw/sw/lv_draw_sw_line.c **** 
 319:Drivers/lvgl/src/draw/sw/lv_draw_sw_line.c ****     lv_area_t blend_area;
 267              		.loc 1 319 5 view .LVU95
 320:Drivers/lvgl/src/draw/sw/lv_draw_sw_line.c ****     blend_area.x1 = LV_MIN(p1.x, p2.x) - w;
 268              		.loc 1 320 5 view .LVU96
 321:Drivers/lvgl/src/draw/sw/lv_draw_sw_line.c ****     blend_area.x2 = LV_MAX(p1.x, p2.x) + w;
ARM GAS  /var/folders/lp/x54gwt890xv47sdkqj1k04q40000gn/T//ccKYvMxP.s 			page 12


 269              		.loc 1 321 5 view .LVU97
 322:Drivers/lvgl/src/draw/sw/lv_draw_sw_line.c ****     blend_area.y1 = LV_MIN(p1.y, p2.y) - w;
 270              		.loc 1 322 5 view .LVU98
 323:Drivers/lvgl/src/draw/sw/lv_draw_sw_line.c ****     blend_area.y2 = LV_MAX(p1.y, p2.y) + w;
 271              		.loc 1 323 5 view .LVU99
 324:Drivers/lvgl/src/draw/sw/lv_draw_sw_line.c **** 
 325:Drivers/lvgl/src/draw/sw/lv_draw_sw_line.c ****     /*Get the union of `coords` and `clip`*/
 326:Drivers/lvgl/src/draw/sw/lv_draw_sw_line.c ****     /*`clip` is already truncated to the `draw_buf` size
 327:Drivers/lvgl/src/draw/sw/lv_draw_sw_line.c ****      *in 'lv_refr_area' function*/
 328:Drivers/lvgl/src/draw/sw/lv_draw_sw_line.c ****     bool is_common = _lv_area_intersect(&blend_area, &blend_area, draw_ctx->clip_area);
 272              		.loc 1 328 5 view .LVU100
 320:Drivers/lvgl/src/draw/sw/lv_draw_sw_line.c ****     blend_area.x2 = LV_MAX(p1.x, p2.x) + w;
 273              		.loc 1 320 40 is_stmt 0 view .LVU101
 274 0114 C5F3CF13 		ubfx	r3, r5, #7, #16
 275 0118 CA45     		cmp	r10, r9
 276 011a D4BF     		ite	le
 277 011c C3EB0A0C 		rsble	ip, r3, r10
 278 0120 C3EB090C 		rsbgt	ip, r3, r9
 279              	.LVL22:
 320:Drivers/lvgl/src/draw/sw/lv_draw_sw_line.c ****     blend_area.x2 = LV_MAX(p1.x, p2.x) + w;
 280              		.loc 1 320 40 view .LVU102
 281 0124 0021     		movs	r1, #0
 282 0126 0846     		mov	r0, r1
 283              	.LVL23:
 320:Drivers/lvgl/src/draw/sw/lv_draw_sw_line.c ****     blend_area.x2 = LV_MAX(p1.x, p2.x) + w;
 284              		.loc 1 320 40 view .LVU103
 285 0128 6CF30F01 		bfi	r1, ip, #0, #16
 321:Drivers/lvgl/src/draw/sw/lv_draw_sw_line.c ****     blend_area.y1 = LV_MIN(p1.y, p2.y) - w;
 286              		.loc 1 321 40 view .LVU104
 287 012c CA45     		cmp	r10, r9
 288 012e ACBF     		ite	ge
 289 0130 03EB0A0C 		addge	ip, r3, r10
 290 0134 03EB090C 		addlt	ip, r3, r9
 320:Drivers/lvgl/src/draw/sw/lv_draw_sw_line.c ****     blend_area.x2 = LV_MAX(p1.x, p2.x) + w;
 291              		.loc 1 320 40 view .LVU105
 292 0138 6CF30F00 		bfi	r0, ip, #0, #16
 322:Drivers/lvgl/src/draw/sw/lv_draw_sw_line.c ****     blend_area.y2 = LV_MAX(p1.y, p2.y) + w;
 293              		.loc 1 322 40 view .LVU106
 294 013c BE42     		cmp	r6, r7
 295 013e D4BF     		ite	le
 296 0140 C3EB060C 		rsble	ip, r3, r6
 297 0144 C3EB070C 		rsbgt	ip, r3, r7
 320:Drivers/lvgl/src/draw/sw/lv_draw_sw_line.c ****     blend_area.x2 = LV_MAX(p1.x, p2.x) + w;
 298              		.loc 1 320 40 view .LVU107
 299 0148 6CF31F41 		bfi	r1, ip, #16, #16
 323:Drivers/lvgl/src/draw/sw/lv_draw_sw_line.c **** 
 300              		.loc 1 323 40 view .LVU108
 301 014c BE42     		cmp	r6, r7
 302 014e ACBF     		ite	ge
 303 0150 9B19     		addge	r3, r3, r6
 304 0152 DB19     		addlt	r3, r3, r7
 320:Drivers/lvgl/src/draw/sw/lv_draw_sw_line.c ****     blend_area.x2 = LV_MAX(p1.x, p2.x) + w;
 305              		.loc 1 320 40 view .LVU109
 306 0154 63F31F40 		bfi	r0, r3, #16, #16
 320:Drivers/lvgl/src/draw/sw/lv_draw_sw_line.c ****     blend_area.x2 = LV_MAX(p1.x, p2.x) + w;
 307              		.loc 1 320 19 view .LVU110
 308 0158 0E91     		str	r1, [sp, #56]
ARM GAS  /var/folders/lp/x54gwt890xv47sdkqj1k04q40000gn/T//ccKYvMxP.s 			page 13


 309              		.loc 1 328 22 view .LVU111
 310 015a 0EA9     		add	r1, sp, #56
 320:Drivers/lvgl/src/draw/sw/lv_draw_sw_line.c ****     blend_area.x2 = LV_MAX(p1.x, p2.x) + w;
 311              		.loc 1 320 19 view .LVU112
 312 015c 0F90     		str	r0, [sp, #60]
 315:Drivers/lvgl/src/draw/sw/lv_draw_sw_line.c ****     int32_t w_half0 = w >> 1;
 313              		.loc 1 315 7 view .LVU113
 314 015e EB11     		asrs	r3, r5, #7
 315              		.loc 1 328 22 view .LVU114
 316 0160 0CAA     		add	r2, sp, #48
 317              	.LVL24:
 318              		.loc 1 328 22 view .LVU115
 319 0162 0846     		mov	r0, r1
 315:Drivers/lvgl/src/draw/sw/lv_draw_sw_line.c ****     int32_t w_half0 = w >> 1;
 320              		.loc 1 315 7 view .LVU116
 321 0164 0693     		str	r3, [sp, #24]
 322              	.LVL25:
 323              		.loc 1 328 22 view .LVU117
 324 0166 FFF7FEFF 		bl	_lv_area_intersect
 325              	.LVL26:
 329:Drivers/lvgl/src/draw/sw/lv_draw_sw_line.c ****     if(is_common == false) return;
 326              		.loc 1 329 5 is_stmt 1 view .LVU118
 327              		.loc 1 329 7 is_stmt 0 view .LVU119
 328 016a 0028     		cmp	r0, #0
 329 016c 00F0F080 		beq	.L6
 330:Drivers/lvgl/src/draw/sw/lv_draw_sw_line.c **** 
 331:Drivers/lvgl/src/draw/sw/lv_draw_sw_line.c ****     lv_draw_mask_line_param_t mask_left_param;
 330              		.loc 1 331 5 is_stmt 1 view .LVU120
 332:Drivers/lvgl/src/draw/sw/lv_draw_sw_line.c ****     lv_draw_mask_line_param_t mask_right_param;
 331              		.loc 1 332 5 view .LVU121
 333:Drivers/lvgl/src/draw/sw/lv_draw_sw_line.c ****     lv_draw_mask_line_param_t mask_top_param;
 332              		.loc 1 333 5 view .LVU122
 334:Drivers/lvgl/src/draw/sw/lv_draw_sw_line.c ****     lv_draw_mask_line_param_t mask_bottom_param;
 333              		.loc 1 334 5 view .LVU123
 335:Drivers/lvgl/src/draw/sw/lv_draw_sw_line.c **** 
 336:Drivers/lvgl/src/draw/sw/lv_draw_sw_line.c ****     if(flat) {
 334              		.loc 1 336 5 view .LVU124
 317:Drivers/lvgl/src/draw/sw/lv_draw_sw_line.c **** 
 335              		.loc 1 317 36 is_stmt 0 view .LVU125
 336 0170 EB11     		asrs	r3, r5, #7
 337 0172 03F00101 		and	r1, r3, #1
 338              		.loc 1 336 7 view .LVU126
 339 0176 DDE90432 		ldrd	r3, r2, [sp, #16]
 317:Drivers/lvgl/src/draw/sw/lv_draw_sw_line.c **** 
 340              		.loc 1 317 13 view .LVU127
 341 017a 01EB2521 		add	r1, r1, r5, asr #8
 342              		.loc 1 336 7 view .LVU128
 343 017e 9342     		cmp	r3, r2
 337:Drivers/lvgl/src/draw/sw/lv_draw_sw_line.c ****         if(xdiff > 0) {
 338:Drivers/lvgl/src/draw/sw/lv_draw_sw_line.c ****             lv_draw_mask_line_points_init(&mask_left_param, p1.x, p1.y - w_half0, p2.x, p2.y - w_ha
 339:Drivers/lvgl/src/draw/sw/lv_draw_sw_line.c ****                                           LV_DRAW_MASK_LINE_SIDE_LEFT);
 340:Drivers/lvgl/src/draw/sw/lv_draw_sw_line.c ****             lv_draw_mask_line_points_init(&mask_right_param, p1.x, p1.y + w_half1, p2.x, p2.y + w_h
 344              		.loc 1 340 73 view .LVU129
 345 0180 89B2     		uxth	r1, r1
 338:Drivers/lvgl/src/draw/sw/lv_draw_sw_line.c ****                                           LV_DRAW_MASK_LINE_SIDE_LEFT);
 346              		.loc 1 338 72 view .LVU130
 347 0182 C5F30F25 		ubfx	r5, r5, #8, #16
ARM GAS  /var/folders/lp/x54gwt890xv47sdkqj1k04q40000gn/T//ccKYvMxP.s 			page 14


 348              	.LVL27:
 336:Drivers/lvgl/src/draw/sw/lv_draw_sw_line.c ****         if(xdiff > 0) {
 349              		.loc 1 336 7 view .LVU131
 350 0186 40F3C182 		ble	.L37
 337:Drivers/lvgl/src/draw/sw/lv_draw_sw_line.c ****         if(xdiff > 0) {
 351              		.loc 1 337 9 is_stmt 1 view .LVU132
 338:Drivers/lvgl/src/draw/sw/lv_draw_sw_line.c ****                                           LV_DRAW_MASK_LINE_SIDE_LEFT);
 352              		.loc 1 338 69 is_stmt 0 view .LVU133
 353 018a BBB2     		uxth	r3, r7
 338:Drivers/lvgl/src/draw/sw/lv_draw_sw_line.c ****                                           LV_DRAW_MASK_LINE_SIDE_LEFT);
 354              		.loc 1 338 91 view .LVU134
 355 018c B0B2     		uxth	r0, r6
 356              	.LVL28:
 357              		.loc 1 340 73 view .LVU135
 358 018e 5A18     		adds	r2, r3, r1
 359              		.loc 1 340 95 view .LVU136
 360 0190 0144     		add	r1, r1, r0
 338:Drivers/lvgl/src/draw/sw/lv_draw_sw_line.c ****                                           LV_DRAW_MASK_LINE_SIDE_LEFT);
 361              		.loc 1 338 94 view .LVU137
 362 0192 401B     		subs	r0, r0, r5
 338:Drivers/lvgl/src/draw/sw/lv_draw_sw_line.c ****                                           LV_DRAW_MASK_LINE_SIDE_LEFT);
 363              		.loc 1 338 72 view .LVU138
 364 0194 5B1B     		subs	r3, r3, r5
 338:Drivers/lvgl/src/draw/sw/lv_draw_sw_line.c ****                                           LV_DRAW_MASK_LINE_SIDE_LEFT);
 365              		.loc 1 338 13 view .LVU139
 366 0196 05B2     		sxth	r5, r0
 337:Drivers/lvgl/src/draw/sw/lv_draw_sw_line.c ****         if(xdiff > 0) {
 367              		.loc 1 337 11 view .LVU140
 368 0198 0898     		ldr	r0, [sp, #32]
 369              		.loc 1 340 13 view .LVU141
 370 019a 12B2     		sxth	r2, r2
 371 019c 09B2     		sxth	r1, r1
 338:Drivers/lvgl/src/draw/sw/lv_draw_sw_line.c ****                                           LV_DRAW_MASK_LINE_SIDE_LEFT);
 372              		.loc 1 338 13 view .LVU142
 373 019e 1BB2     		sxth	r3, r3
 337:Drivers/lvgl/src/draw/sw/lv_draw_sw_line.c ****         if(xdiff > 0) {
 374              		.loc 1 337 11 view .LVU143
 375 01a0 0028     		cmp	r0, #0
 376              		.loc 1 340 13 view .LVU144
 377 01a2 0492     		str	r2, [sp, #16]
 378              	.LVL29:
 379              		.loc 1 340 13 view .LVU145
 380 01a4 0591     		str	r1, [sp, #20]
 381              	.LVL30:
 338:Drivers/lvgl/src/draw/sw/lv_draw_sw_line.c ****                                           LV_DRAW_MASK_LINE_SIDE_LEFT);
 382              		.loc 1 338 13 view .LVU146
 383 01a6 0793     		str	r3, [sp, #28]
 337:Drivers/lvgl/src/draw/sw/lv_draw_sw_line.c ****         if(xdiff > 0) {
 384              		.loc 1 337 11 view .LVU147
 385 01a8 40F37E82 		ble	.L38
 338:Drivers/lvgl/src/draw/sw/lv_draw_sw_line.c ****                                           LV_DRAW_MASK_LINE_SIDE_LEFT);
 386              		.loc 1 338 13 is_stmt 1 view .LVU148
 387 01ac 1A46     		mov	r2, r3
 388 01ae 18AB     		add	r3, sp, #96
 389 01b0 1846     		mov	r0, r3
 390 01b2 0693     		str	r3, [sp, #24]
 391 01b4 0023     		movs	r3, #0
ARM GAS  /var/folders/lp/x54gwt890xv47sdkqj1k04q40000gn/T//ccKYvMxP.s 			page 15


 392 01b6 0193     		str	r3, [sp, #4]
 393 01b8 4946     		mov	r1, r9
 394 01ba 0095     		str	r5, [sp]
 395 01bc 5346     		mov	r3, r10
 396 01be FFF7FEFF 		bl	lv_draw_mask_line_points_init
 397              	.LVL31:
 398              		.loc 1 340 13 view .LVU149
 399 01c2 0599     		ldr	r1, [sp, #20]
 400 01c4 049A     		ldr	r2, [sp, #16]
 401 01c6 0091     		str	r1, [sp]
 402              	.L106:
 341:Drivers/lvgl/src/draw/sw/lv_draw_sw_line.c ****                                           LV_DRAW_MASK_LINE_SIDE_RIGHT);
 342:Drivers/lvgl/src/draw/sw/lv_draw_sw_line.c ****         }
 343:Drivers/lvgl/src/draw/sw/lv_draw_sw_line.c ****         else {
 344:Drivers/lvgl/src/draw/sw/lv_draw_sw_line.c ****             lv_draw_mask_line_points_init(&mask_left_param, p1.x, p1.y + w_half1, p2.x, p2.y + w_ha
 345:Drivers/lvgl/src/draw/sw/lv_draw_sw_line.c ****                                           LV_DRAW_MASK_LINE_SIDE_LEFT);
 346:Drivers/lvgl/src/draw/sw/lv_draw_sw_line.c ****             lv_draw_mask_line_points_init(&mask_right_param, p1.x, p1.y - w_half0, p2.x, p2.y - w_h
 403              		.loc 1 346 13 is_stmt 0 view .LVU150
 404 01c8 23AB     		add	r3, sp, #140
 405 01ca 1846     		mov	r0, r3
 406 01cc 0793     		str	r3, [sp, #28]
 407 01ce 0123     		movs	r3, #1
 408 01d0 0193     		str	r3, [sp, #4]
 409 01d2 4946     		mov	r1, r9
 410 01d4 5346     		mov	r3, r10
 411 01d6 FFF7FEFF 		bl	lv_draw_mask_line_points_init
 412              	.LVL32:
 413              	.L39:
 347:Drivers/lvgl/src/draw/sw/lv_draw_sw_line.c ****                                           LV_DRAW_MASK_LINE_SIDE_RIGHT);
 348:Drivers/lvgl/src/draw/sw/lv_draw_sw_line.c ****         }
 349:Drivers/lvgl/src/draw/sw/lv_draw_sw_line.c ****     }
 350:Drivers/lvgl/src/draw/sw/lv_draw_sw_line.c ****     else {
 351:Drivers/lvgl/src/draw/sw/lv_draw_sw_line.c ****         lv_draw_mask_line_points_init(&mask_left_param, p1.x + w_half1, p1.y, p2.x + w_half1, p2.y,
 352:Drivers/lvgl/src/draw/sw/lv_draw_sw_line.c ****                                       LV_DRAW_MASK_LINE_SIDE_LEFT);
 353:Drivers/lvgl/src/draw/sw/lv_draw_sw_line.c ****         lv_draw_mask_line_points_init(&mask_right_param, p1.x - w_half0, p1.y, p2.x - w_half0, p2.y
 354:Drivers/lvgl/src/draw/sw/lv_draw_sw_line.c ****                                       LV_DRAW_MASK_LINE_SIDE_RIGHT);
 355:Drivers/lvgl/src/draw/sw/lv_draw_sw_line.c ****     }
 356:Drivers/lvgl/src/draw/sw/lv_draw_sw_line.c **** 
 357:Drivers/lvgl/src/draw/sw/lv_draw_sw_line.c ****     /*Use the normal vector for the endings*/
 358:Drivers/lvgl/src/draw/sw/lv_draw_sw_line.c **** 
 359:Drivers/lvgl/src/draw/sw/lv_draw_sw_line.c ****     int16_t mask_left_id = lv_draw_mask_add(&mask_left_param, NULL);
 414              		.loc 1 359 5 is_stmt 1 view .LVU151
 415              		.loc 1 359 28 is_stmt 0 view .LVU152
 416 01da 0021     		movs	r1, #0
 417 01dc 0698     		ldr	r0, [sp, #24]
 418 01de FFF7FEFF 		bl	lv_draw_mask_add
 419              	.LVL33:
 360:Drivers/lvgl/src/draw/sw/lv_draw_sw_line.c ****     int16_t mask_right_id = lv_draw_mask_add(&mask_right_param, NULL);
 420              		.loc 1 360 29 view .LVU153
 421 01e2 0021     		movs	r1, #0
 359:Drivers/lvgl/src/draw/sw/lv_draw_sw_line.c ****     int16_t mask_right_id = lv_draw_mask_add(&mask_right_param, NULL);
 422              		.loc 1 359 28 view .LVU154
 423 01e4 0990     		str	r0, [sp, #36]
 424              	.LVL34:
 425              		.loc 1 360 5 is_stmt 1 view .LVU155
 426              		.loc 1 360 29 is_stmt 0 view .LVU156
 427 01e6 0798     		ldr	r0, [sp, #28]
ARM GAS  /var/folders/lp/x54gwt890xv47sdkqj1k04q40000gn/T//ccKYvMxP.s 			page 16


 428 01e8 FFF7FEFF 		bl	lv_draw_mask_add
 429              	.LVL35:
 361:Drivers/lvgl/src/draw/sw/lv_draw_sw_line.c ****     int16_t mask_top_id = LV_MASK_ID_INV;
 362:Drivers/lvgl/src/draw/sw/lv_draw_sw_line.c ****     int16_t mask_bottom_id = LV_MASK_ID_INV;
 363:Drivers/lvgl/src/draw/sw/lv_draw_sw_line.c **** 
 364:Drivers/lvgl/src/draw/sw/lv_draw_sw_line.c ****     if(!dsc->raw_end) {
 430              		.loc 1 364 8 view .LVU157
 431 01ec 637A     		ldrb	r3, [r4, #9]	@ zero_extendqisi2
 360:Drivers/lvgl/src/draw/sw/lv_draw_sw_line.c ****     int16_t mask_top_id = LV_MASK_ID_INV;
 432              		.loc 1 360 29 view .LVU158
 433 01ee 0A90     		str	r0, [sp, #40]
 434              	.LVL36:
 361:Drivers/lvgl/src/draw/sw/lv_draw_sw_line.c ****     int16_t mask_top_id = LV_MASK_ID_INV;
 435              		.loc 1 361 5 is_stmt 1 view .LVU159
 362:Drivers/lvgl/src/draw/sw/lv_draw_sw_line.c **** 
 436              		.loc 1 362 5 view .LVU160
 437              		.loc 1 364 5 view .LVU161
 438              		.loc 1 364 7 is_stmt 0 view .LVU162
 439 01f0 13F01005 		ands	r5, r3, #16
 440 01f4 00F0AC82 		beq	.L110
 362:Drivers/lvgl/src/draw/sw/lv_draw_sw_line.c **** 
 441              		.loc 1 362 13 view .LVU163
 442 01f8 4FF0FF33 		mov	r3, #-1
 361:Drivers/lvgl/src/draw/sw/lv_draw_sw_line.c ****     int16_t mask_top_id = LV_MASK_ID_INV;
 443              		.loc 1 361 13 view .LVU164
 444 01fc CDE90433 		strd	r3, r3, [sp, #16]
 445              	.LVL37:
 446              	.L40:
 365:Drivers/lvgl/src/draw/sw/lv_draw_sw_line.c ****         lv_draw_mask_line_points_init(&mask_top_param, p1.x, p1.y, p1.x - ydiff, p1.y + xdiff, LV_D
 366:Drivers/lvgl/src/draw/sw/lv_draw_sw_line.c ****         lv_draw_mask_line_points_init(&mask_bottom_param, p2.x, p2.y, p2.x - ydiff, p2.y + xdiff,  
 367:Drivers/lvgl/src/draw/sw/lv_draw_sw_line.c ****         mask_top_id = lv_draw_mask_add(&mask_top_param, NULL);
 368:Drivers/lvgl/src/draw/sw/lv_draw_sw_line.c ****         mask_bottom_id = lv_draw_mask_add(&mask_bottom_param, NULL);
 369:Drivers/lvgl/src/draw/sw/lv_draw_sw_line.c ****     }
 370:Drivers/lvgl/src/draw/sw/lv_draw_sw_line.c **** 
 371:Drivers/lvgl/src/draw/sw/lv_draw_sw_line.c ****     /*The real draw area is around the line.
 372:Drivers/lvgl/src/draw/sw/lv_draw_sw_line.c ****      *It's easy to calculate with steep lines, but the area can be very wide with very flat lines.
 373:Drivers/lvgl/src/draw/sw/lv_draw_sw_line.c ****      *So deal with it only with steep lines.*/
 374:Drivers/lvgl/src/draw/sw/lv_draw_sw_line.c ****     int32_t draw_area_w = lv_area_get_width(&blend_area);
 447              		.loc 1 374 5 is_stmt 1 view .LVU165
 448              	.LBB74:
 449              	.LBI74:
 450              		.file 2 "Drivers/lvgl/src/draw/sw/../../misc/lv_area.h"
   1:Drivers/lvgl/src/draw/sw/../../misc/lv_area.h **** /**
   2:Drivers/lvgl/src/draw/sw/../../misc/lv_area.h ****  * @file lv_area.h
   3:Drivers/lvgl/src/draw/sw/../../misc/lv_area.h ****  *
   4:Drivers/lvgl/src/draw/sw/../../misc/lv_area.h ****  */
   5:Drivers/lvgl/src/draw/sw/../../misc/lv_area.h **** 
   6:Drivers/lvgl/src/draw/sw/../../misc/lv_area.h **** #ifndef LV_AREA_H
   7:Drivers/lvgl/src/draw/sw/../../misc/lv_area.h **** #define LV_AREA_H
   8:Drivers/lvgl/src/draw/sw/../../misc/lv_area.h **** 
   9:Drivers/lvgl/src/draw/sw/../../misc/lv_area.h **** #ifdef __cplusplus
  10:Drivers/lvgl/src/draw/sw/../../misc/lv_area.h **** extern "C" {
  11:Drivers/lvgl/src/draw/sw/../../misc/lv_area.h **** #endif
  12:Drivers/lvgl/src/draw/sw/../../misc/lv_area.h **** 
  13:Drivers/lvgl/src/draw/sw/../../misc/lv_area.h **** /*********************
  14:Drivers/lvgl/src/draw/sw/../../misc/lv_area.h ****  *      INCLUDES
  15:Drivers/lvgl/src/draw/sw/../../misc/lv_area.h ****  *********************/
ARM GAS  /var/folders/lp/x54gwt890xv47sdkqj1k04q40000gn/T//ccKYvMxP.s 			page 17


  16:Drivers/lvgl/src/draw/sw/../../misc/lv_area.h **** #include "../lv_conf_internal.h"
  17:Drivers/lvgl/src/draw/sw/../../misc/lv_area.h **** #include <stdbool.h>
  18:Drivers/lvgl/src/draw/sw/../../misc/lv_area.h **** #include <stdint.h>
  19:Drivers/lvgl/src/draw/sw/../../misc/lv_area.h **** 
  20:Drivers/lvgl/src/draw/sw/../../misc/lv_area.h **** /*********************
  21:Drivers/lvgl/src/draw/sw/../../misc/lv_area.h ****  *      DEFINES
  22:Drivers/lvgl/src/draw/sw/../../misc/lv_area.h ****  *********************/
  23:Drivers/lvgl/src/draw/sw/../../misc/lv_area.h **** 
  24:Drivers/lvgl/src/draw/sw/../../misc/lv_area.h **** #if LV_USE_LARGE_COORD
  25:Drivers/lvgl/src/draw/sw/../../misc/lv_area.h **** typedef int32_t lv_coord_t;
  26:Drivers/lvgl/src/draw/sw/../../misc/lv_area.h **** #else
  27:Drivers/lvgl/src/draw/sw/../../misc/lv_area.h **** typedef int16_t lv_coord_t;
  28:Drivers/lvgl/src/draw/sw/../../misc/lv_area.h **** #endif
  29:Drivers/lvgl/src/draw/sw/../../misc/lv_area.h **** 
  30:Drivers/lvgl/src/draw/sw/../../misc/lv_area.h **** /**********************
  31:Drivers/lvgl/src/draw/sw/../../misc/lv_area.h ****  *      TYPEDEFS
  32:Drivers/lvgl/src/draw/sw/../../misc/lv_area.h ****  **********************/
  33:Drivers/lvgl/src/draw/sw/../../misc/lv_area.h **** 
  34:Drivers/lvgl/src/draw/sw/../../misc/lv_area.h **** /**
  35:Drivers/lvgl/src/draw/sw/../../misc/lv_area.h ****  * Represents a point on the screen.
  36:Drivers/lvgl/src/draw/sw/../../misc/lv_area.h ****  */
  37:Drivers/lvgl/src/draw/sw/../../misc/lv_area.h **** typedef struct {
  38:Drivers/lvgl/src/draw/sw/../../misc/lv_area.h ****     lv_coord_t x;
  39:Drivers/lvgl/src/draw/sw/../../misc/lv_area.h ****     lv_coord_t y;
  40:Drivers/lvgl/src/draw/sw/../../misc/lv_area.h **** } lv_point_t;
  41:Drivers/lvgl/src/draw/sw/../../misc/lv_area.h **** 
  42:Drivers/lvgl/src/draw/sw/../../misc/lv_area.h **** /** Represents an area of the screen.*/
  43:Drivers/lvgl/src/draw/sw/../../misc/lv_area.h **** typedef struct {
  44:Drivers/lvgl/src/draw/sw/../../misc/lv_area.h ****     lv_coord_t x1;
  45:Drivers/lvgl/src/draw/sw/../../misc/lv_area.h ****     lv_coord_t y1;
  46:Drivers/lvgl/src/draw/sw/../../misc/lv_area.h ****     lv_coord_t x2;
  47:Drivers/lvgl/src/draw/sw/../../misc/lv_area.h ****     lv_coord_t y2;
  48:Drivers/lvgl/src/draw/sw/../../misc/lv_area.h **** } lv_area_t;
  49:Drivers/lvgl/src/draw/sw/../../misc/lv_area.h **** 
  50:Drivers/lvgl/src/draw/sw/../../misc/lv_area.h **** /** Alignments*/
  51:Drivers/lvgl/src/draw/sw/../../misc/lv_area.h **** enum {
  52:Drivers/lvgl/src/draw/sw/../../misc/lv_area.h ****     LV_ALIGN_DEFAULT = 0,
  53:Drivers/lvgl/src/draw/sw/../../misc/lv_area.h ****     LV_ALIGN_TOP_LEFT,
  54:Drivers/lvgl/src/draw/sw/../../misc/lv_area.h ****     LV_ALIGN_TOP_MID,
  55:Drivers/lvgl/src/draw/sw/../../misc/lv_area.h ****     LV_ALIGN_TOP_RIGHT,
  56:Drivers/lvgl/src/draw/sw/../../misc/lv_area.h ****     LV_ALIGN_BOTTOM_LEFT,
  57:Drivers/lvgl/src/draw/sw/../../misc/lv_area.h ****     LV_ALIGN_BOTTOM_MID,
  58:Drivers/lvgl/src/draw/sw/../../misc/lv_area.h ****     LV_ALIGN_BOTTOM_RIGHT,
  59:Drivers/lvgl/src/draw/sw/../../misc/lv_area.h ****     LV_ALIGN_LEFT_MID,
  60:Drivers/lvgl/src/draw/sw/../../misc/lv_area.h ****     LV_ALIGN_RIGHT_MID,
  61:Drivers/lvgl/src/draw/sw/../../misc/lv_area.h ****     LV_ALIGN_CENTER,
  62:Drivers/lvgl/src/draw/sw/../../misc/lv_area.h **** 
  63:Drivers/lvgl/src/draw/sw/../../misc/lv_area.h ****     LV_ALIGN_OUT_TOP_LEFT,
  64:Drivers/lvgl/src/draw/sw/../../misc/lv_area.h ****     LV_ALIGN_OUT_TOP_MID,
  65:Drivers/lvgl/src/draw/sw/../../misc/lv_area.h ****     LV_ALIGN_OUT_TOP_RIGHT,
  66:Drivers/lvgl/src/draw/sw/../../misc/lv_area.h ****     LV_ALIGN_OUT_BOTTOM_LEFT,
  67:Drivers/lvgl/src/draw/sw/../../misc/lv_area.h ****     LV_ALIGN_OUT_BOTTOM_MID,
  68:Drivers/lvgl/src/draw/sw/../../misc/lv_area.h ****     LV_ALIGN_OUT_BOTTOM_RIGHT,
  69:Drivers/lvgl/src/draw/sw/../../misc/lv_area.h ****     LV_ALIGN_OUT_LEFT_TOP,
  70:Drivers/lvgl/src/draw/sw/../../misc/lv_area.h ****     LV_ALIGN_OUT_LEFT_MID,
  71:Drivers/lvgl/src/draw/sw/../../misc/lv_area.h ****     LV_ALIGN_OUT_LEFT_BOTTOM,
  72:Drivers/lvgl/src/draw/sw/../../misc/lv_area.h ****     LV_ALIGN_OUT_RIGHT_TOP,
ARM GAS  /var/folders/lp/x54gwt890xv47sdkqj1k04q40000gn/T//ccKYvMxP.s 			page 18


  73:Drivers/lvgl/src/draw/sw/../../misc/lv_area.h ****     LV_ALIGN_OUT_RIGHT_MID,
  74:Drivers/lvgl/src/draw/sw/../../misc/lv_area.h ****     LV_ALIGN_OUT_RIGHT_BOTTOM,
  75:Drivers/lvgl/src/draw/sw/../../misc/lv_area.h **** };
  76:Drivers/lvgl/src/draw/sw/../../misc/lv_area.h **** typedef uint8_t lv_align_t;
  77:Drivers/lvgl/src/draw/sw/../../misc/lv_area.h **** 
  78:Drivers/lvgl/src/draw/sw/../../misc/lv_area.h **** enum {
  79:Drivers/lvgl/src/draw/sw/../../misc/lv_area.h ****     LV_DIR_NONE     = 0x00,
  80:Drivers/lvgl/src/draw/sw/../../misc/lv_area.h ****     LV_DIR_LEFT     = (1 << 0),
  81:Drivers/lvgl/src/draw/sw/../../misc/lv_area.h ****     LV_DIR_RIGHT    = (1 << 1),
  82:Drivers/lvgl/src/draw/sw/../../misc/lv_area.h ****     LV_DIR_TOP      = (1 << 2),
  83:Drivers/lvgl/src/draw/sw/../../misc/lv_area.h ****     LV_DIR_BOTTOM   = (1 << 3),
  84:Drivers/lvgl/src/draw/sw/../../misc/lv_area.h ****     LV_DIR_HOR      = LV_DIR_LEFT | LV_DIR_RIGHT,
  85:Drivers/lvgl/src/draw/sw/../../misc/lv_area.h ****     LV_DIR_VER      = LV_DIR_TOP | LV_DIR_BOTTOM,
  86:Drivers/lvgl/src/draw/sw/../../misc/lv_area.h ****     LV_DIR_ALL      = LV_DIR_HOR | LV_DIR_VER,
  87:Drivers/lvgl/src/draw/sw/../../misc/lv_area.h **** };
  88:Drivers/lvgl/src/draw/sw/../../misc/lv_area.h **** 
  89:Drivers/lvgl/src/draw/sw/../../misc/lv_area.h **** typedef uint8_t lv_dir_t;
  90:Drivers/lvgl/src/draw/sw/../../misc/lv_area.h **** 
  91:Drivers/lvgl/src/draw/sw/../../misc/lv_area.h **** /**********************
  92:Drivers/lvgl/src/draw/sw/../../misc/lv_area.h ****  * GLOBAL PROTOTYPES
  93:Drivers/lvgl/src/draw/sw/../../misc/lv_area.h ****  **********************/
  94:Drivers/lvgl/src/draw/sw/../../misc/lv_area.h **** 
  95:Drivers/lvgl/src/draw/sw/../../misc/lv_area.h **** /**
  96:Drivers/lvgl/src/draw/sw/../../misc/lv_area.h ****  * Initialize an area
  97:Drivers/lvgl/src/draw/sw/../../misc/lv_area.h ****  * @param area_p pointer to an area
  98:Drivers/lvgl/src/draw/sw/../../misc/lv_area.h ****  * @param x1 left coordinate of the area
  99:Drivers/lvgl/src/draw/sw/../../misc/lv_area.h ****  * @param y1 top coordinate of the area
 100:Drivers/lvgl/src/draw/sw/../../misc/lv_area.h ****  * @param x2 right coordinate of the area
 101:Drivers/lvgl/src/draw/sw/../../misc/lv_area.h ****  * @param y2 bottom coordinate of the area
 102:Drivers/lvgl/src/draw/sw/../../misc/lv_area.h ****  */
 103:Drivers/lvgl/src/draw/sw/../../misc/lv_area.h **** void lv_area_set(lv_area_t * area_p, lv_coord_t x1, lv_coord_t y1, lv_coord_t x2, lv_coord_t y2);
 104:Drivers/lvgl/src/draw/sw/../../misc/lv_area.h **** 
 105:Drivers/lvgl/src/draw/sw/../../misc/lv_area.h **** /**
 106:Drivers/lvgl/src/draw/sw/../../misc/lv_area.h ****  * Copy an area
 107:Drivers/lvgl/src/draw/sw/../../misc/lv_area.h ****  * @param dest pointer to the destination area
 108:Drivers/lvgl/src/draw/sw/../../misc/lv_area.h ****  * @param src pointer to the source area
 109:Drivers/lvgl/src/draw/sw/../../misc/lv_area.h ****  */
 110:Drivers/lvgl/src/draw/sw/../../misc/lv_area.h **** inline static void lv_area_copy(lv_area_t * dest, const lv_area_t * src)
 111:Drivers/lvgl/src/draw/sw/../../misc/lv_area.h **** {
 112:Drivers/lvgl/src/draw/sw/../../misc/lv_area.h ****     dest->x1 = src->x1;
 113:Drivers/lvgl/src/draw/sw/../../misc/lv_area.h ****     dest->y1 = src->y1;
 114:Drivers/lvgl/src/draw/sw/../../misc/lv_area.h ****     dest->x2 = src->x2;
 115:Drivers/lvgl/src/draw/sw/../../misc/lv_area.h ****     dest->y2 = src->y2;
 116:Drivers/lvgl/src/draw/sw/../../misc/lv_area.h **** }
 117:Drivers/lvgl/src/draw/sw/../../misc/lv_area.h **** 
 118:Drivers/lvgl/src/draw/sw/../../misc/lv_area.h **** /**
 119:Drivers/lvgl/src/draw/sw/../../misc/lv_area.h ****  * Get the width of an area
 120:Drivers/lvgl/src/draw/sw/../../misc/lv_area.h ****  * @param area_p pointer to an area
 121:Drivers/lvgl/src/draw/sw/../../misc/lv_area.h ****  * @return the width of the area (if x1 == x2 -> width = 1)
 122:Drivers/lvgl/src/draw/sw/../../misc/lv_area.h ****  */
 123:Drivers/lvgl/src/draw/sw/../../misc/lv_area.h **** static inline lv_coord_t lv_area_get_width(const lv_area_t * area_p)
 451              		.loc 2 123 26 view .LVU166
 452              	.LBB75:
 124:Drivers/lvgl/src/draw/sw/../../misc/lv_area.h **** {
 125:Drivers/lvgl/src/draw/sw/../../misc/lv_area.h ****     return (lv_coord_t)(area_p->x2 - area_p->x1 + 1);
 453              		.loc 2 125 5 view .LVU167
 454              		.loc 2 125 49 is_stmt 0 view .LVU168
ARM GAS  /var/folders/lp/x54gwt890xv47sdkqj1k04q40000gn/T//ccKYvMxP.s 			page 19


 455 0200 BDF83C70 		ldrh	r7, [sp, #60]
 456 0204 BDF83830 		ldrh	r3, [sp, #56]
 457 0208 0137     		adds	r7, r7, #1
 458 020a FF1A     		subs	r7, r7, r3
 459              	.LBE75:
 460              	.LBE74:
 375:Drivers/lvgl/src/draw/sw/lv_draw_sw_line.c **** 
 376:Drivers/lvgl/src/draw/sw/lv_draw_sw_line.c ****     /*Draw the background line by line*/
 377:Drivers/lvgl/src/draw/sw/lv_draw_sw_line.c ****     int32_t h;
 378:Drivers/lvgl/src/draw/sw/lv_draw_sw_line.c ****     uint32_t hor_res = (uint32_t)lv_disp_get_hor_res(_lv_refr_get_disp_refreshing());
 461              		.loc 1 378 34 view .LVU169
 462 020c FFF7FEFF 		bl	_lv_refr_get_disp_refreshing
 463              	.LVL38:
 464              		.loc 1 378 34 discriminator 1 view .LVU170
 465 0210 FFF7FEFF 		bl	lv_disp_get_hor_res
 466              	.LVL39:
 467 0214 8146     		mov	r9, r0
 468              	.LVL40:
 379:Drivers/lvgl/src/draw/sw/lv_draw_sw_line.c ****     size_t mask_buf_size = LV_MIN(lv_area_get_size(&blend_area), hor_res);
 469              		.loc 1 379 28 view .LVU171
 470 0216 0EA8     		add	r0, sp, #56
 471              	.LVL41:
 472              		.loc 1 379 28 view .LVU172
 473 0218 FFF7FEFF 		bl	lv_area_get_size
 474              	.LVL42:
 475              		.loc 1 379 28 discriminator 1 view .LVU173
 476 021c 8145     		cmp	r9, r0
 477              	.LBB77:
 478              	.LBB76:
 479              		.loc 2 125 12 view .LVU174
 480 021e 3FB2     		sxth	r7, r7
 481              	.LVL43:
 482              		.loc 2 125 12 view .LVU175
 483              	.LBE76:
 484              	.LBE77:
 377:Drivers/lvgl/src/draw/sw/lv_draw_sw_line.c ****     uint32_t hor_res = (uint32_t)lv_disp_get_hor_res(_lv_refr_get_disp_refreshing());
 485              		.loc 1 377 5 is_stmt 1 view .LVU176
 378:Drivers/lvgl/src/draw/sw/lv_draw_sw_line.c ****     size_t mask_buf_size = LV_MIN(lv_area_get_size(&blend_area), hor_res);
 486              		.loc 1 378 5 view .LVU177
 487              		.loc 1 379 5 view .LVU178
 488              		.loc 1 379 28 is_stmt 0 discriminator 1 view .LVU179
 489 0220 00F26F82 		bhi	.L111
 490              	.LVL44:
 491              	.L41:
 380:Drivers/lvgl/src/draw/sw/lv_draw_sw_line.c ****     lv_opa_t * mask_buf = lv_mem_buf_get(mask_buf_size);
 492              		.loc 1 380 5 is_stmt 1 view .LVU180
 493              		.loc 1 380 27 is_stmt 0 view .LVU181
 494 0224 4846     		mov	r0, r9
 495 0226 FFF7FEFF 		bl	lv_mem_buf_get
 496              	.LVL45:
 381:Drivers/lvgl/src/draw/sw/lv_draw_sw_line.c **** 
 382:Drivers/lvgl/src/draw/sw/lv_draw_sw_line.c ****     lv_coord_t y2 = blend_area.y2;
 383:Drivers/lvgl/src/draw/sw/lv_draw_sw_line.c ****     blend_area.y2 = blend_area.y1;
 497              		.loc 1 383 19 view .LVU182
 498 022a BDF83A30 		ldrh	r3, [sp, #58]
 382:Drivers/lvgl/src/draw/sw/lv_draw_sw_line.c ****     blend_area.y2 = blend_area.y1;
 499              		.loc 1 382 16 view .LVU183
ARM GAS  /var/folders/lp/x54gwt890xv47sdkqj1k04q40000gn/T//ccKYvMxP.s 			page 20


 500 022e BDF93E50 		ldrsh	r5, [sp, #62]
 501              		.loc 1 383 19 view .LVU184
 502 0232 ADF83E30 		strh	r3, [sp, #62]	@ movhi
 384:Drivers/lvgl/src/draw/sw/lv_draw_sw_line.c **** 
 385:Drivers/lvgl/src/draw/sw/lv_draw_sw_line.c ****     uint32_t mask_p = 0;
 386:Drivers/lvgl/src/draw/sw/lv_draw_sw_line.c ****     lv_memset_ff(mask_buf, mask_buf_size);
 503              		.loc 1 386 5 view .LVU185
 504 0236 4946     		mov	r1, r9
 380:Drivers/lvgl/src/draw/sw/lv_draw_sw_line.c **** 
 505              		.loc 1 380 27 view .LVU186
 506 0238 8246     		mov	r10, r0
 507              	.LVL46:
 382:Drivers/lvgl/src/draw/sw/lv_draw_sw_line.c ****     blend_area.y2 = blend_area.y1;
 508              		.loc 1 382 5 is_stmt 1 view .LVU187
 383:Drivers/lvgl/src/draw/sw/lv_draw_sw_line.c **** 
 509              		.loc 1 383 5 view .LVU188
 385:Drivers/lvgl/src/draw/sw/lv_draw_sw_line.c ****     lv_memset_ff(mask_buf, mask_buf_size);
 510              		.loc 1 385 5 view .LVU189
 511              		.loc 1 386 5 view .LVU190
 512 023a FFF7FEFF 		bl	lv_memset_ff
 513              	.LVL47:
 387:Drivers/lvgl/src/draw/sw/lv_draw_sw_line.c **** 
 388:Drivers/lvgl/src/draw/sw/lv_draw_sw_line.c ****     lv_draw_sw_blend_dsc_t blend_dsc;
 514              		.loc 1 388 5 view .LVU191
 389:Drivers/lvgl/src/draw/sw/lv_draw_sw_line.c ****     lv_memset_00(&blend_dsc, sizeof(blend_dsc));
 515              		.loc 1 389 5 view .LVU192
 516 023e 1C21     		movs	r1, #28
 517 0240 11A8     		add	r0, sp, #68
 518 0242 FFF7FEFF 		bl	lv_memset_00
 519              	.LVL48:
 390:Drivers/lvgl/src/draw/sw/lv_draw_sw_line.c ****     blend_dsc.blend_area = &blend_area;
 520              		.loc 1 390 5 view .LVU193
 521              		.loc 1 390 26 is_stmt 0 view .LVU194
 522 0246 0EAB     		add	r3, sp, #56
 391:Drivers/lvgl/src/draw/sw/lv_draw_sw_line.c ****     blend_dsc.color = dsc->color;
 392:Drivers/lvgl/src/draw/sw/lv_draw_sw_line.c ****     blend_dsc.opa = dsc->opa;
 393:Drivers/lvgl/src/draw/sw/lv_draw_sw_line.c ****     blend_dsc.mask_buf = mask_buf;
 394:Drivers/lvgl/src/draw/sw/lv_draw_sw_line.c ****     blend_dsc.mask_area = &blend_area;
 395:Drivers/lvgl/src/draw/sw/lv_draw_sw_line.c **** 
 396:Drivers/lvgl/src/draw/sw/lv_draw_sw_line.c ****     /*Fill the first row with 'color'*/
 397:Drivers/lvgl/src/draw/sw/lv_draw_sw_line.c ****     for(h = blend_area.y1; h <= y2; h++) {
 523              		.loc 1 397 23 view .LVU195
 524 0248 BDF93A60 		ldrsh	r6, [sp, #58]
 525              	.LVL49:
 390:Drivers/lvgl/src/draw/sw/lv_draw_sw_line.c ****     blend_dsc.blend_area = &blend_area;
 526              		.loc 1 390 26 view .LVU196
 527 024c 1193     		str	r3, [sp, #68]
 391:Drivers/lvgl/src/draw/sw/lv_draw_sw_line.c ****     blend_dsc.color = dsc->color;
 528              		.loc 1 391 5 is_stmt 1 view .LVU197
 394:Drivers/lvgl/src/draw/sw/lv_draw_sw_line.c **** 
 529              		.loc 1 394 25 is_stmt 0 view .LVU198
 530 024e 1693     		str	r3, [sp, #88]
 391:Drivers/lvgl/src/draw/sw/lv_draw_sw_line.c ****     blend_dsc.color = dsc->color;
 531              		.loc 1 391 21 view .LVU199
 532 0250 2388     		ldrh	r3, [r4]
 533 0252 ADF84C30 		strh	r3, [sp, #76]	@ movhi
 392:Drivers/lvgl/src/draw/sw/lv_draw_sw_line.c ****     blend_dsc.mask_buf = mask_buf;
ARM GAS  /var/folders/lp/x54gwt890xv47sdkqj1k04q40000gn/T//ccKYvMxP.s 			page 21


 534              		.loc 1 392 5 is_stmt 1 view .LVU200
 535              		.loc 1 397 30 is_stmt 0 discriminator 1 view .LVU201
 536 0256 B542     		cmp	r5, r6
 392:Drivers/lvgl/src/draw/sw/lv_draw_sw_line.c ****     blend_dsc.mask_buf = mask_buf;
 537              		.loc 1 392 19 view .LVU202
 538 0258 237A     		ldrb	r3, [r4, #8]	@ zero_extendqisi2
 539 025a 8DF85C30 		strb	r3, [sp, #92]
 393:Drivers/lvgl/src/draw/sw/lv_draw_sw_line.c ****     blend_dsc.mask_area = &blend_area;
 540              		.loc 1 393 5 is_stmt 1 view .LVU203
 394:Drivers/lvgl/src/draw/sw/lv_draw_sw_line.c **** 
 541              		.loc 1 394 5 view .LVU204
 542              		.loc 1 397 5 view .LVU205
 393:Drivers/lvgl/src/draw/sw/lv_draw_sw_line.c ****     blend_dsc.mask_area = &blend_area;
 543              		.loc 1 393 24 is_stmt 0 view .LVU206
 544 025e CDF850A0 		str	r10, [sp, #80]
 545              		.loc 1 397 11 view .LVU207
 546 0262 3246     		mov	r2, r6
 547              	.LVL50:
 548              		.loc 1 397 30 is_stmt 1 discriminator 1 view .LVU208
 549 0264 2B46     		mov	r3, r5
 550 0266 44DB     		blt	.L42
 398:Drivers/lvgl/src/draw/sw/lv_draw_sw_line.c ****         blend_dsc.mask_res = lv_draw_mask_apply(&mask_buf[mask_p], blend_area.x1, h, draw_area_w);
 399:Drivers/lvgl/src/draw/sw/lv_draw_sw_line.c ****         if(blend_dsc.mask_res == LV_DRAW_MASK_RES_TRANSP) {
 400:Drivers/lvgl/src/draw/sw/lv_draw_sw_line.c ****             lv_memset_00(&mask_buf[mask_p], draw_area_w);
 401:Drivers/lvgl/src/draw/sw/lv_draw_sw_line.c ****         }
 402:Drivers/lvgl/src/draw/sw/lv_draw_sw_line.c **** 
 403:Drivers/lvgl/src/draw/sw/lv_draw_sw_line.c ****         mask_p += draw_area_w;
 404:Drivers/lvgl/src/draw/sw/lv_draw_sw_line.c ****         if((uint32_t) mask_p + draw_area_w < mask_buf_size) {
 405:Drivers/lvgl/src/draw/sw/lv_draw_sw_line.c ****             blend_area.y2 ++;
 406:Drivers/lvgl/src/draw/sw/lv_draw_sw_line.c ****         }
 407:Drivers/lvgl/src/draw/sw/lv_draw_sw_line.c ****         else {
 408:Drivers/lvgl/src/draw/sw/lv_draw_sw_line.c ****             blend_dsc.mask_res = LV_DRAW_MASK_RES_CHANGED;
 551              		.loc 1 408 32 is_stmt 0 view .LVU209
 552 0268 CDF82C80 		str	r8, [sp, #44]
 553              	.LVL51:
 385:Drivers/lvgl/src/draw/sw/lv_draw_sw_line.c ****     lv_memset_ff(mask_buf, mask_buf_size);
 554              		.loc 1 385 14 view .LVU210
 555 026c 0025     		movs	r5, #0
 556              		.loc 1 408 32 view .LVU211
 557 026e B846     		mov	r8, r7
 558              	.LVL52:
 559              		.loc 1 408 32 view .LVU212
 560 0270 0894     		str	r4, [sp, #32]
 561              	.LVL53:
 562              		.loc 1 408 32 view .LVU213
 563 0272 1F46     		mov	r7, r3
 564              	.LVL54:
 565              		.loc 1 408 32 view .LVU214
 566 0274 0CE0     		b	.L46
 567              	.LVL55:
 568              	.L43:
 403:Drivers/lvgl/src/draw/sw/lv_draw_sw_line.c ****         if((uint32_t) mask_p + draw_area_w < mask_buf_size) {
 569              		.loc 1 403 9 is_stmt 1 view .LVU215
 405:Drivers/lvgl/src/draw/sw/lv_draw_sw_line.c ****         }
 570              		.loc 1 405 13 view .LVU216
 403:Drivers/lvgl/src/draw/sw/lv_draw_sw_line.c ****         if((uint32_t) mask_p + draw_area_w < mask_buf_size) {
 571              		.loc 1 403 16 is_stmt 0 view .LVU217
ARM GAS  /var/folders/lp/x54gwt890xv47sdkqj1k04q40000gn/T//ccKYvMxP.s 			page 22


 572 0276 4544     		add	r5, r5, r8
 573              	.LVL56:
 404:Drivers/lvgl/src/draw/sw/lv_draw_sw_line.c ****             blend_area.y2 ++;
 574              		.loc 1 404 9 is_stmt 1 view .LVU218
 404:Drivers/lvgl/src/draw/sw/lv_draw_sw_line.c ****             blend_area.y2 ++;
 575              		.loc 1 404 30 is_stmt 0 view .LVU219
 576 0278 05EB0802 		add	r2, r5, r8
 404:Drivers/lvgl/src/draw/sw/lv_draw_sw_line.c ****             blend_area.y2 ++;
 577              		.loc 1 404 11 view .LVU220
 578 027c 9145     		cmp	r9, r2
 579 027e 1DD9     		bls	.L44
 580              	.L113:
 405:Drivers/lvgl/src/draw/sw/lv_draw_sw_line.c ****         }
 581              		.loc 1 405 27 view .LVU221
 582 0280 BDF83E20 		ldrh	r2, [sp, #62]
 583 0284 0132     		adds	r2, r2, #1
 584 0286 ADF83E20 		strh	r2, [sp, #62]	@ movhi
 585              	.LVL57:
 586              	.L45:
 397:Drivers/lvgl/src/draw/sw/lv_draw_sw_line.c ****         blend_dsc.mask_res = lv_draw_mask_apply(&mask_buf[mask_p], blend_area.x1, h, draw_area_w);
 587              		.loc 1 397 38 is_stmt 1 discriminator 2 view .LVU222
 588 028a 0136     		adds	r6, r6, #1
 589              	.LVL58:
 397:Drivers/lvgl/src/draw/sw/lv_draw_sw_line.c ****         blend_dsc.mask_res = lv_draw_mask_apply(&mask_buf[mask_p], blend_area.x1, h, draw_area_w);
 590              		.loc 1 397 30 discriminator 1 view .LVU223
 591 028c B742     		cmp	r7, r6
 592 028e 2BDB     		blt	.L112
 593              	.LVL59:
 594              	.L46:
 398:Drivers/lvgl/src/draw/sw/lv_draw_sw_line.c ****         if(blend_dsc.mask_res == LV_DRAW_MASK_RES_TRANSP) {
 595              		.loc 1 398 9 view .LVU224
 398:Drivers/lvgl/src/draw/sw/lv_draw_sw_line.c ****         if(blend_dsc.mask_res == LV_DRAW_MASK_RES_TRANSP) {
 596              		.loc 1 398 30 is_stmt 0 view .LVU225
 597 0290 0AEB0504 		add	r4, r10, r5
 598 0294 BDF93810 		ldrsh	r1, [sp, #56]
 599 0298 4346     		mov	r3, r8
 600 029a 32B2     		sxth	r2, r6
 601 029c 2046     		mov	r0, r4
 602 029e FFF7FEFF 		bl	lv_draw_mask_apply
 603              	.LVL60:
 398:Drivers/lvgl/src/draw/sw/lv_draw_sw_line.c ****         if(blend_dsc.mask_res == LV_DRAW_MASK_RES_TRANSP) {
 604              		.loc 1 398 28 discriminator 1 view .LVU226
 605 02a2 8DF85400 		strb	r0, [sp, #84]
 399:Drivers/lvgl/src/draw/sw/lv_draw_sw_line.c ****             lv_memset_00(&mask_buf[mask_p], draw_area_w);
 606              		.loc 1 399 9 is_stmt 1 view .LVU227
 399:Drivers/lvgl/src/draw/sw/lv_draw_sw_line.c ****             lv_memset_00(&mask_buf[mask_p], draw_area_w);
 607              		.loc 1 399 11 is_stmt 0 view .LVU228
 608 02a6 0028     		cmp	r0, #0
 609 02a8 E5D1     		bne	.L43
 400:Drivers/lvgl/src/draw/sw/lv_draw_sw_line.c ****         }
 610              		.loc 1 400 13 is_stmt 1 view .LVU229
 611 02aa 4146     		mov	r1, r8
 612 02ac 2046     		mov	r0, r4
 403:Drivers/lvgl/src/draw/sw/lv_draw_sw_line.c ****         if((uint32_t) mask_p + draw_area_w < mask_buf_size) {
 613              		.loc 1 403 16 is_stmt 0 view .LVU230
 614 02ae 4544     		add	r5, r5, r8
 615              	.LVL61:
ARM GAS  /var/folders/lp/x54gwt890xv47sdkqj1k04q40000gn/T//ccKYvMxP.s 			page 23


 400:Drivers/lvgl/src/draw/sw/lv_draw_sw_line.c ****         }
 616              		.loc 1 400 13 view .LVU231
 617 02b0 FFF7FEFF 		bl	lv_memset_00
 618              	.LVL62:
 403:Drivers/lvgl/src/draw/sw/lv_draw_sw_line.c ****         if((uint32_t) mask_p + draw_area_w < mask_buf_size) {
 619              		.loc 1 403 9 is_stmt 1 view .LVU232
 405:Drivers/lvgl/src/draw/sw/lv_draw_sw_line.c ****         }
 620              		.loc 1 405 13 view .LVU233
 404:Drivers/lvgl/src/draw/sw/lv_draw_sw_line.c ****             blend_area.y2 ++;
 621              		.loc 1 404 9 view .LVU234
 404:Drivers/lvgl/src/draw/sw/lv_draw_sw_line.c ****             blend_area.y2 ++;
 622              		.loc 1 404 30 is_stmt 0 view .LVU235
 623 02b4 05EB0802 		add	r2, r5, r8
 404:Drivers/lvgl/src/draw/sw/lv_draw_sw_line.c ****             blend_area.y2 ++;
 624              		.loc 1 404 11 view .LVU236
 625 02b8 9145     		cmp	r9, r2
 626 02ba E1D8     		bhi	.L113
 627              	.L44:
 628              		.loc 1 408 13 is_stmt 1 view .LVU237
 629              		.loc 1 408 32 is_stmt 0 view .LVU238
 630 02bc 4FF00203 		mov	r3, #2
 409:Drivers/lvgl/src/draw/sw/lv_draw_sw_line.c ****             lv_draw_sw_blend(draw_ctx, &blend_dsc);
 631              		.loc 1 409 13 view .LVU239
 632 02c0 11A9     		add	r1, sp, #68
 633 02c2 5846     		mov	r0, fp
 408:Drivers/lvgl/src/draw/sw/lv_draw_sw_line.c ****             lv_draw_sw_blend(draw_ctx, &blend_dsc);
 634              		.loc 1 408 32 view .LVU240
 635 02c4 8DF85430 		strb	r3, [sp, #84]
 636              		.loc 1 409 13 is_stmt 1 view .LVU241
 637 02c8 FFF7FEFF 		bl	lv_draw_sw_blend
 638              	.LVL63:
 410:Drivers/lvgl/src/draw/sw/lv_draw_sw_line.c **** 
 411:Drivers/lvgl/src/draw/sw/lv_draw_sw_line.c ****             blend_area.y1 = blend_area.y2 + 1;
 639              		.loc 1 411 13 view .LVU242
 640              		.loc 1 411 43 is_stmt 0 view .LVU243
 641 02cc BDF83E20 		ldrh	r2, [sp, #62]
 642 02d0 0132     		adds	r2, r2, #1
 643 02d2 12B2     		sxth	r2, r2
 412:Drivers/lvgl/src/draw/sw/lv_draw_sw_line.c ****             blend_area.y2 = blend_area.y1;
 413:Drivers/lvgl/src/draw/sw/lv_draw_sw_line.c ****             mask_p = 0;
 414:Drivers/lvgl/src/draw/sw/lv_draw_sw_line.c ****             lv_memset_ff(mask_buf, mask_buf_size);
 644              		.loc 1 414 13 view .LVU244
 645 02d4 4946     		mov	r1, r9
 646 02d6 5046     		mov	r0, r10
 411:Drivers/lvgl/src/draw/sw/lv_draw_sw_line.c ****             blend_area.y2 = blend_area.y1;
 647              		.loc 1 411 27 view .LVU245
 648 02d8 ADF83A20 		strh	r2, [sp, #58]	@ movhi
 412:Drivers/lvgl/src/draw/sw/lv_draw_sw_line.c ****             blend_area.y2 = blend_area.y1;
 649              		.loc 1 412 13 is_stmt 1 view .LVU246
 412:Drivers/lvgl/src/draw/sw/lv_draw_sw_line.c ****             blend_area.y2 = blend_area.y1;
 650              		.loc 1 412 27 is_stmt 0 view .LVU247
 651 02dc ADF83E20 		strh	r2, [sp, #62]	@ movhi
 413:Drivers/lvgl/src/draw/sw/lv_draw_sw_line.c ****             lv_memset_ff(mask_buf, mask_buf_size);
 652              		.loc 1 413 13 is_stmt 1 view .LVU248
 653              	.LVL64:
 654              		.loc 1 414 13 view .LVU249
 413:Drivers/lvgl/src/draw/sw/lv_draw_sw_line.c ****             lv_memset_ff(mask_buf, mask_buf_size);
ARM GAS  /var/folders/lp/x54gwt890xv47sdkqj1k04q40000gn/T//ccKYvMxP.s 			page 24


 655              		.loc 1 413 20 is_stmt 0 view .LVU250
 656 02e0 0025     		movs	r5, #0
 657              		.loc 1 414 13 view .LVU251
 658 02e2 FFF7FEFF 		bl	lv_memset_ff
 659              	.LVL65:
 660 02e6 D0E7     		b	.L45
 661              	.LVL66:
 662              	.L112:
 415:Drivers/lvgl/src/draw/sw/lv_draw_sw_line.c ****         }
 416:Drivers/lvgl/src/draw/sw/lv_draw_sw_line.c ****     }
 417:Drivers/lvgl/src/draw/sw/lv_draw_sw_line.c **** 
 418:Drivers/lvgl/src/draw/sw/lv_draw_sw_line.c ****     /*Flush the last part*/
 419:Drivers/lvgl/src/draw/sw/lv_draw_sw_line.c ****     if(blend_area.y1 != blend_area.y2) {
 663              		.loc 1 419 18 view .LVU252
 664 02e8 089C     		ldr	r4, [sp, #32]
 665 02ea DDF82C80 		ldr	r8, [sp, #44]
 666              	.LVL67:
 667              		.loc 1 419 18 view .LVU253
 668 02ee BDF93A20 		ldrsh	r2, [sp, #58]
 669              	.LVL68:
 670              	.L42:
 671              		.loc 1 419 5 is_stmt 1 view .LVU254
 672              		.loc 1 419 35 is_stmt 0 view .LVU255
 673 02f2 BDF93E30 		ldrsh	r3, [sp, #62]
 674              		.loc 1 419 7 view .LVU256
 675 02f6 9342     		cmp	r3, r2
 676 02f8 09D0     		beq	.L47
 420:Drivers/lvgl/src/draw/sw/lv_draw_sw_line.c ****         blend_area.y2--;
 677              		.loc 1 420 9 is_stmt 1 view .LVU257
 678              		.loc 1 420 22 is_stmt 0 view .LVU258
 679 02fa 013B     		subs	r3, r3, #1
 680 02fc ADF83E30 		strh	r3, [sp, #62]	@ movhi
 421:Drivers/lvgl/src/draw/sw/lv_draw_sw_line.c ****         blend_dsc.mask_res = LV_DRAW_MASK_RES_CHANGED;
 681              		.loc 1 421 9 is_stmt 1 view .LVU259
 422:Drivers/lvgl/src/draw/sw/lv_draw_sw_line.c ****         lv_draw_sw_blend(draw_ctx, &blend_dsc);
 682              		.loc 1 422 9 is_stmt 0 view .LVU260
 683 0300 11A9     		add	r1, sp, #68
 421:Drivers/lvgl/src/draw/sw/lv_draw_sw_line.c ****         blend_dsc.mask_res = LV_DRAW_MASK_RES_CHANGED;
 684              		.loc 1 421 28 view .LVU261
 685 0302 0223     		movs	r3, #2
 686              		.loc 1 422 9 view .LVU262
 687 0304 5846     		mov	r0, fp
 421:Drivers/lvgl/src/draw/sw/lv_draw_sw_line.c ****         blend_dsc.mask_res = LV_DRAW_MASK_RES_CHANGED;
 688              		.loc 1 421 28 view .LVU263
 689 0306 8DF85430 		strb	r3, [sp, #84]
 690              		.loc 1 422 9 is_stmt 1 view .LVU264
 691 030a FFF7FEFF 		bl	lv_draw_sw_blend
 692              	.LVL69:
 693              	.L47:
 423:Drivers/lvgl/src/draw/sw/lv_draw_sw_line.c ****     }
 424:Drivers/lvgl/src/draw/sw/lv_draw_sw_line.c **** 
 425:Drivers/lvgl/src/draw/sw/lv_draw_sw_line.c ****     lv_mem_buf_release(mask_buf);
 694              		.loc 1 425 5 view .LVU265
 695 030e 5046     		mov	r0, r10
 696 0310 FFF7FEFF 		bl	lv_mem_buf_release
 697              	.LVL70:
 426:Drivers/lvgl/src/draw/sw/lv_draw_sw_line.c **** 
ARM GAS  /var/folders/lp/x54gwt890xv47sdkqj1k04q40000gn/T//ccKYvMxP.s 			page 25


 427:Drivers/lvgl/src/draw/sw/lv_draw_sw_line.c ****     lv_draw_mask_free_param(&mask_left_param);
 698              		.loc 1 427 5 view .LVU266
 699 0314 0698     		ldr	r0, [sp, #24]
 700 0316 FFF7FEFF 		bl	lv_draw_mask_free_param
 701              	.LVL71:
 428:Drivers/lvgl/src/draw/sw/lv_draw_sw_line.c ****     lv_draw_mask_free_param(&mask_right_param);
 702              		.loc 1 428 5 view .LVU267
 703 031a 0798     		ldr	r0, [sp, #28]
 704 031c FFF7FEFF 		bl	lv_draw_mask_free_param
 705              	.LVL72:
 429:Drivers/lvgl/src/draw/sw/lv_draw_sw_line.c ****     if(mask_top_id != LV_MASK_ID_INV) lv_draw_mask_free_param(&mask_top_param);
 706              		.loc 1 429 5 view .LVU268
 707              		.loc 1 429 7 is_stmt 0 view .LVU269
 708 0320 049B     		ldr	r3, [sp, #16]
 709 0322 0133     		adds	r3, r3, #1
 710 0324 02D0     		beq	.L48
 711              		.loc 1 429 39 is_stmt 1 discriminator 1 view .LVU270
 712 0326 2EA8     		add	r0, sp, #184
 713 0328 FFF7FEFF 		bl	lv_draw_mask_free_param
 714              	.LVL73:
 715              	.L48:
 430:Drivers/lvgl/src/draw/sw/lv_draw_sw_line.c ****     if(mask_bottom_id != LV_MASK_ID_INV) lv_draw_mask_free_param(&mask_bottom_param);
 716              		.loc 1 430 5 view .LVU271
 717              		.loc 1 430 7 is_stmt 0 view .LVU272
 718 032c 059B     		ldr	r3, [sp, #20]
 719 032e 0133     		adds	r3, r3, #1
 720 0330 02D0     		beq	.L49
 721              		.loc 1 430 42 is_stmt 1 discriminator 1 view .LVU273
 722 0332 3AA8     		add	r0, sp, #232
 723 0334 FFF7FEFF 		bl	lv_draw_mask_free_param
 724              	.LVL74:
 725              	.L49:
 431:Drivers/lvgl/src/draw/sw/lv_draw_sw_line.c ****     lv_draw_mask_remove_id(mask_left_id);
 726              		.loc 1 431 5 view .LVU274
 727 0338 0998     		ldr	r0, [sp, #36]
 728 033a FFF7FEFF 		bl	lv_draw_mask_remove_id
 729              	.LVL75:
 432:Drivers/lvgl/src/draw/sw/lv_draw_sw_line.c ****     lv_draw_mask_remove_id(mask_right_id);
 730              		.loc 1 432 5 view .LVU275
 731 033e 0A98     		ldr	r0, [sp, #40]
 732 0340 FFF7FEFF 		bl	lv_draw_mask_remove_id
 733              	.LVL76:
 433:Drivers/lvgl/src/draw/sw/lv_draw_sw_line.c ****     lv_draw_mask_remove_id(mask_top_id);
 734              		.loc 1 433 5 view .LVU276
 735 0344 0498     		ldr	r0, [sp, #16]
 736 0346 FFF7FEFF 		bl	lv_draw_mask_remove_id
 737              	.LVL77:
 434:Drivers/lvgl/src/draw/sw/lv_draw_sw_line.c ****     lv_draw_mask_remove_id(mask_bottom_id);
 738              		.loc 1 434 5 view .LVU277
 739 034a 0598     		ldr	r0, [sp, #20]
 740 034c FFF7FEFF 		bl	lv_draw_mask_remove_id
 741              	.LVL78:
 742              	.L6:
 743              		.loc 1 434 5 is_stmt 0 view .LVU278
 744              	.LBE73:
 745              	.LBE72:
  76:Drivers/lvgl/src/draw/sw/lv_draw_sw_line.c ****         lv_draw_rect_dsc_t cir_dsc;
ARM GAS  /var/folders/lp/x54gwt890xv47sdkqj1k04q40000gn/T//ccKYvMxP.s 			page 26


 746              		.loc 1 76 5 is_stmt 1 view .LVU279
  76:Drivers/lvgl/src/draw/sw/lv_draw_sw_line.c ****         lv_draw_rect_dsc_t cir_dsc;
 747              		.loc 1 76 23 is_stmt 0 view .LVU280
 748 0350 637A     		ldrb	r3, [r4, #9]	@ zero_extendqisi2
  76:Drivers/lvgl/src/draw/sw/lv_draw_sw_line.c ****         lv_draw_rect_dsc_t cir_dsc;
 749              		.loc 1 76 7 view .LVU281
 750 0352 13F00C0F 		tst	r3, #12
 751 0356 40F0B080 		bne	.L114
 752              	.L50:
 104:Drivers/lvgl/src/draw/sw/lv_draw_sw_line.c **** }
 753              		.loc 1 104 5 is_stmt 1 view .LVU282
 104:Drivers/lvgl/src/draw/sw/lv_draw_sw_line.c **** }
 754              		.loc 1 104 25 is_stmt 0 view .LVU283
 755 035a 039B     		ldr	r3, [sp, #12]
 756 035c CBF80830 		str	r3, [fp, #8]
 757              	.LVL79:
 758              	.L1:
 105:Drivers/lvgl/src/draw/sw/lv_draw_sw_line.c **** 
 759              		.loc 1 105 1 view .LVU284
 760 0360 49B0     		add	sp, sp, #292
 761              		.cfi_remember_state
 762              		.cfi_def_cfa_offset 36
 763              		@ sp needed
 764 0362 BDE8F08F 		pop	{r4, r5, r6, r7, r8, r9, r10, fp, pc}
 765              	.LVL80:
 766              	.L122:
 105:Drivers/lvgl/src/draw/sw/lv_draw_sw_line.c **** 
 767              		.loc 1 105 1 view .LVU285
 768 0366 00BF     		.align	2
 769              	.L121:
 770 0368 00000000 		.word	wcorr.0
 771              	.LVL81:
 772              	.L109:
 773              		.cfi_restore_state
  73:Drivers/lvgl/src/draw/sw/lv_draw_sw_line.c ****     else draw_line_skew(draw_ctx, dsc, point1, point2);
 774              		.loc 1 73 37 is_stmt 1 discriminator 1 view .LVU286
 775              	.LBB80:
 776              	.LBI80:
 198:Drivers/lvgl/src/draw/sw/lv_draw_sw_line.c ****                                                 const lv_point_t * point1, const lv_point_t * point
 777              		.loc 1 198 35 view .LVU287
 778              	.LBB81:
 201:Drivers/lvgl/src/draw/sw/lv_draw_sw_line.c ****     int32_t w_half0 = w >> 1;
 779              		.loc 1 201 5 view .LVU288
 201:Drivers/lvgl/src/draw/sw/lv_draw_sw_line.c ****     int32_t w_half0 = w >> 1;
 780              		.loc 1 201 13 is_stmt 0 view .LVU289
 781 036c 013D     		subs	r5, r5, #1
 782              	.LVL82:
 202:Drivers/lvgl/src/draw/sw/lv_draw_sw_line.c ****     int32_t w_half1 = w_half0 + (w & 0x1); /*Compensate rounding error*/
 783              		.loc 1 202 5 is_stmt 1 view .LVU290
 203:Drivers/lvgl/src/draw/sw/lv_draw_sw_line.c **** 
 784              		.loc 1 203 5 view .LVU291
 205:Drivers/lvgl/src/draw/sw/lv_draw_sw_line.c ****     blend_area.x1 = point1->x - w_half1;
 785              		.loc 1 205 5 view .LVU292
 206:Drivers/lvgl/src/draw/sw/lv_draw_sw_line.c ****     blend_area.x2 = point1->x + w_half0;
 786              		.loc 1 206 5 view .LVU293
 203:Drivers/lvgl/src/draw/sw/lv_draw_sw_line.c **** 
 787              		.loc 1 203 36 is_stmt 0 view .LVU294
ARM GAS  /var/folders/lp/x54gwt890xv47sdkqj1k04q40000gn/T//ccKYvMxP.s 			page 27


 788 036e 05F00103 		and	r3, r5, #1
 206:Drivers/lvgl/src/draw/sw/lv_draw_sw_line.c ****     blend_area.x2 = point1->x + w_half0;
 789              		.loc 1 206 27 view .LVU295
 790 0372 1FFA8AF1 		uxth	r1, r10
 207:Drivers/lvgl/src/draw/sw/lv_draw_sw_line.c ****     blend_area.y1 = LV_MIN(point1->y, point2->y);
 791              		.loc 1 207 5 is_stmt 1 view .LVU296
 208:Drivers/lvgl/src/draw/sw/lv_draw_sw_line.c ****     blend_area.y2 = LV_MAX(point1->y, point2->y) - 1;
 792              		.loc 1 208 5 view .LVU297
 209:Drivers/lvgl/src/draw/sw/lv_draw_sw_line.c **** 
 793              		.loc 1 209 5 view .LVU298
 203:Drivers/lvgl/src/draw/sw/lv_draw_sw_line.c **** 
 794              		.loc 1 203 13 is_stmt 0 view .LVU299
 795 0376 03EB6503 		add	r3, r3, r5, asr #1
 796              	.LVL83:
 207:Drivers/lvgl/src/draw/sw/lv_draw_sw_line.c ****     blend_area.y1 = LV_MIN(point1->y, point2->y);
 797              		.loc 1 207 31 view .LVU300
 798 037a 01EB6500 		add	r0, r1, r5, asr #1
 799              	.LVL84:
 206:Drivers/lvgl/src/draw/sw/lv_draw_sw_line.c ****     blend_area.x2 = point1->x + w_half0;
 800              		.loc 1 206 31 view .LVU301
 801 037e CB1A     		subs	r3, r1, r3
 802              	.LVL85:
 209:Drivers/lvgl/src/draw/sw/lv_draw_sw_line.c **** 
 803              		.loc 1 209 21 view .LVU302
 804 0380 BE42     		cmp	r6, r7
 206:Drivers/lvgl/src/draw/sw/lv_draw_sw_line.c ****     blend_area.x2 = point1->x + w_half0;
 805              		.loc 1 206 19 view .LVU303
 806 0382 4FF00001 		mov	r1, #0
 807 0386 0D46     		mov	r5, r1
 808              	.LVL86:
 206:Drivers/lvgl/src/draw/sw/lv_draw_sw_line.c ****     blend_area.x2 = point1->x + w_half0;
 809              		.loc 1 206 19 view .LVU304
 810 0388 63F30F01 		bfi	r1, r3, #0, #16
 209:Drivers/lvgl/src/draw/sw/lv_draw_sw_line.c **** 
 811              		.loc 1 209 21 view .LVU305
 812 038c 3346     		mov	r3, r6
 813 038e B8BF     		it	lt
 814 0390 3B46     		movlt	r3, r7
 208:Drivers/lvgl/src/draw/sw/lv_draw_sw_line.c ****     blend_area.y2 = LV_MAX(point1->y, point2->y) - 1;
 815              		.loc 1 208 21 view .LVU306
 816 0392 B742     		cmp	r7, r6
 817 0394 A8BF     		it	ge
 818 0396 3746     		movge	r7, r6
 206:Drivers/lvgl/src/draw/sw/lv_draw_sw_line.c ****     blend_area.x2 = point1->x + w_half0;
 819              		.loc 1 206 19 view .LVU307
 820 0398 60F30F05 		bfi	r5, r0, #0, #16
 821 039c 67F31F41 		bfi	r1, r7, #16, #16
 212:Drivers/lvgl/src/draw/sw/lv_draw_sw_line.c ****     if(!is_common) return;
 822              		.loc 1 212 17 view .LVU308
 823 03a0 0DF1B809 		add	r9, sp, #184
 209:Drivers/lvgl/src/draw/sw/lv_draw_sw_line.c **** 
 824              		.loc 1 209 50 view .LVU309
 825 03a4 013B     		subs	r3, r3, #1
 206:Drivers/lvgl/src/draw/sw/lv_draw_sw_line.c ****     blend_area.x2 = point1->x + w_half0;
 826              		.loc 1 206 19 view .LVU310
 827 03a6 2E91     		str	r1, [sp, #184]
 828 03a8 63F31F45 		bfi	r5, r3, #16, #16
ARM GAS  /var/folders/lp/x54gwt890xv47sdkqj1k04q40000gn/T//ccKYvMxP.s 			page 28


 212:Drivers/lvgl/src/draw/sw/lv_draw_sw_line.c ****     if(!is_common) return;
 829              		.loc 1 212 17 view .LVU311
 830 03ac 0CAA     		add	r2, sp, #48
 831 03ae 4946     		mov	r1, r9
 832 03b0 4846     		mov	r0, r9
 206:Drivers/lvgl/src/draw/sw/lv_draw_sw_line.c ****     blend_area.x2 = point1->x + w_half0;
 833              		.loc 1 206 19 view .LVU312
 834 03b2 2F95     		str	r5, [sp, #188]
 211:Drivers/lvgl/src/draw/sw/lv_draw_sw_line.c ****     is_common = _lv_area_intersect(&blend_area, &blend_area, draw_ctx->clip_area);
 835              		.loc 1 211 5 is_stmt 1 view .LVU313
 212:Drivers/lvgl/src/draw/sw/lv_draw_sw_line.c ****     if(!is_common) return;
 836              		.loc 1 212 5 view .LVU314
 212:Drivers/lvgl/src/draw/sw/lv_draw_sw_line.c ****     if(!is_common) return;
 837              		.loc 1 212 17 is_stmt 0 view .LVU315
 838 03b4 FFF7FEFF 		bl	_lv_area_intersect
 839              	.LVL87:
 213:Drivers/lvgl/src/draw/sw/lv_draw_sw_line.c **** 
 840              		.loc 1 213 5 is_stmt 1 view .LVU316
 213:Drivers/lvgl/src/draw/sw/lv_draw_sw_line.c **** 
 841              		.loc 1 213 7 is_stmt 0 view .LVU317
 842 03b8 0028     		cmp	r0, #0
 843 03ba C9D0     		beq	.L6
 215:Drivers/lvgl/src/draw/sw/lv_draw_sw_line.c ****     bool simple_mode = true;
 844              		.loc 1 215 5 is_stmt 1 view .LVU318
 215:Drivers/lvgl/src/draw/sw/lv_draw_sw_line.c ****     bool simple_mode = true;
 845              		.loc 1 215 59 is_stmt 0 view .LVU319
 846 03bc B4F90630 		ldrsh	r3, [r4, #6]
 217:Drivers/lvgl/src/draw/sw/lv_draw_sw_line.c ****     else if(dashed) simple_mode = false;
 847              		.loc 1 217 8 view .LVU320
 848 03c0 4846     		mov	r0, r9
 849              	.LVL88:
 215:Drivers/lvgl/src/draw/sw/lv_draw_sw_line.c ****     bool simple_mode = true;
 850              		.loc 1 215 59 view .LVU321
 851 03c2 002B     		cmp	r3, #0
 852 03c4 00F08581 		beq	.L20
 215:Drivers/lvgl/src/draw/sw/lv_draw_sw_line.c ****     bool simple_mode = true;
 853              		.loc 1 215 59 discriminator 1 view .LVU322
 854 03c8 B4F90430 		ldrsh	r3, [r4, #4]
 855 03cc 002B     		cmp	r3, #0
 856 03ce 00F08081 		beq	.L20
 857              	.LVL89:
 216:Drivers/lvgl/src/draw/sw/lv_draw_sw_line.c ****     if(lv_draw_mask_is_any(&blend_area)) simple_mode = false;
 858              		.loc 1 216 5 is_stmt 1 view .LVU323
 217:Drivers/lvgl/src/draw/sw/lv_draw_sw_line.c ****     else if(dashed) simple_mode = false;
 859              		.loc 1 217 5 view .LVU324
 221:Drivers/lvgl/src/draw/sw/lv_draw_sw_line.c ****     blend_dsc.blend_area = &blend_area;
 860              		.loc 1 221 5 is_stmt 0 view .LVU325
 861 03d2 3AAD     		add	r5, sp, #232
 217:Drivers/lvgl/src/draw/sw/lv_draw_sw_line.c ****     else if(dashed) simple_mode = false;
 862              		.loc 1 217 8 view .LVU326
 863 03d4 FFF7FEFF 		bl	lv_draw_mask_is_any
 864              	.LVL90:
 218:Drivers/lvgl/src/draw/sw/lv_draw_sw_line.c **** 
 865              		.loc 1 218 10 is_stmt 1 view .LVU327
 220:Drivers/lvgl/src/draw/sw/lv_draw_sw_line.c ****     lv_memset_00(&blend_dsc, sizeof(blend_dsc));
 866              		.loc 1 220 5 view .LVU328
 221:Drivers/lvgl/src/draw/sw/lv_draw_sw_line.c ****     blend_dsc.blend_area = &blend_area;
ARM GAS  /var/folders/lp/x54gwt890xv47sdkqj1k04q40000gn/T//ccKYvMxP.s 			page 29


 867              		.loc 1 221 5 view .LVU329
 868 03d8 1C21     		movs	r1, #28
 869 03da 2846     		mov	r0, r5
 870 03dc FFF7FEFF 		bl	lv_memset_00
 871              	.LVL91:
 222:Drivers/lvgl/src/draw/sw/lv_draw_sw_line.c ****     blend_dsc.color = dsc->color;
 872              		.loc 1 222 5 view .LVU330
 873              	.LBB82:
 874              	.LBB83:
 875              	.LBB84:
 876              		.loc 2 125 49 is_stmt 0 view .LVU331
 877 03e0 BDF8BC60 		ldrh	r6, [sp, #188]
 878 03e4 BDF8B830 		ldrh	r3, [sp, #184]
 879              	.LBE84:
 880              	.LBE83:
 236:Drivers/lvgl/src/draw/sw/lv_draw_sw_line.c ****         blend_area.y2 = blend_area.y1;
 881              		.loc 1 236 20 view .LVU332
 882 03e8 BDF9BE70 		ldrsh	r7, [sp, #190]
 883              	.LBE82:
 222:Drivers/lvgl/src/draw/sw/lv_draw_sw_line.c ****     blend_dsc.color = dsc->color;
 884              		.loc 1 222 26 view .LVU333
 885 03ec CDF8E890 		str	r9, [sp, #232]
 223:Drivers/lvgl/src/draw/sw/lv_draw_sw_line.c ****     blend_dsc.opa = dsc->opa;
 886              		.loc 1 223 5 is_stmt 1 view .LVU334
 887              	.LBB95:
 888              	.LBB90:
 889              	.LBB85:
 890              		.loc 2 125 49 is_stmt 0 view .LVU335
 891 03f0 0136     		adds	r6, r6, #1
 892 03f2 F61A     		subs	r6, r6, r3
 893              	.LBE85:
 894              	.LBE90:
 895              	.LBE95:
 223:Drivers/lvgl/src/draw/sw/lv_draw_sw_line.c ****     blend_dsc.opa = dsc->opa;
 896              		.loc 1 223 21 view .LVU336
 897 03f4 2388     		ldrh	r3, [r4]
 898 03f6 ADF8F030 		strh	r3, [sp, #240]	@ movhi
 224:Drivers/lvgl/src/draw/sw/lv_draw_sw_line.c **** 
 899              		.loc 1 224 5 is_stmt 1 view .LVU337
 900              	.LBB96:
 901              	.LBB91:
 902              	.LBB86:
 903              		.loc 2 125 12 is_stmt 0 view .LVU338
 904 03fa 36B2     		sxth	r6, r6
 905              	.LBE86:
 906              	.LBE91:
 907              	.LBE96:
 224:Drivers/lvgl/src/draw/sw/lv_draw_sw_line.c **** 
 908              		.loc 1 224 19 view .LVU339
 909 03fc 237A     		ldrb	r3, [r4, #8]	@ zero_extendqisi2
 910 03fe 8DF80031 		strb	r3, [sp, #256]
 227:Drivers/lvgl/src/draw/sw/lv_draw_sw_line.c ****         lv_draw_sw_blend(draw_ctx, &blend_dsc);
 911              		.loc 1 227 5 is_stmt 1 view .LVU340
 912              	.LBB97:
 234:Drivers/lvgl/src/draw/sw/lv_draw_sw_line.c **** 
 913              		.loc 1 234 9 view .LVU341
 914              	.LVL92:
ARM GAS  /var/folders/lp/x54gwt890xv47sdkqj1k04q40000gn/T//ccKYvMxP.s 			page 30


 915              	.LBB92:
 916              	.LBI83:
 123:Drivers/lvgl/src/draw/sw/../../misc/lv_area.h **** {
 917              		.loc 2 123 26 view .LVU342
 918              	.LBB87:
 919              		.loc 2 125 5 view .LVU343
 920              		.loc 2 125 5 is_stmt 0 view .LVU344
 921              	.LBE87:
 922              	.LBE92:
 236:Drivers/lvgl/src/draw/sw/lv_draw_sw_line.c ****         blend_area.y2 = blend_area.y1;
 923              		.loc 1 236 9 is_stmt 1 view .LVU345
 237:Drivers/lvgl/src/draw/sw/lv_draw_sw_line.c **** 
 924              		.loc 1 237 9 view .LVU346
 239:Drivers/lvgl/src/draw/sw/lv_draw_sw_line.c ****         blend_dsc.mask_buf = mask_buf;
 925              		.loc 1 239 31 is_stmt 0 view .LVU347
 926 0402 3046     		mov	r0, r6
 237:Drivers/lvgl/src/draw/sw/lv_draw_sw_line.c **** 
 927              		.loc 1 237 23 view .LVU348
 928 0404 BDF8BA30 		ldrh	r3, [sp, #186]
 929 0408 ADF8BE30 		strh	r3, [sp, #190]	@ movhi
 239:Drivers/lvgl/src/draw/sw/lv_draw_sw_line.c ****         blend_dsc.mask_buf = mask_buf;
 930              		.loc 1 239 9 is_stmt 1 view .LVU349
 239:Drivers/lvgl/src/draw/sw/lv_draw_sw_line.c ****         blend_dsc.mask_buf = mask_buf;
 931              		.loc 1 239 31 is_stmt 0 view .LVU350
 932 040c FFF7FEFF 		bl	lv_mem_buf_get
 933              	.LVL93:
 245:Drivers/lvgl/src/draw/sw/lv_draw_sw_line.c ****         }
 934              		.loc 1 245 64 view .LVU351
 935 0410 B4F90420 		ldrsh	r2, [r4, #4]
 245:Drivers/lvgl/src/draw/sw/lv_draw_sw_line.c ****         }
 936              		.loc 1 245 48 view .LVU352
 937 0414 B4F90630 		ldrsh	r3, [r4, #6]
 241:Drivers/lvgl/src/draw/sw/lv_draw_sw_line.c **** 
 938              		.loc 1 241 29 view .LVU353
 939 0418 CDF8FC90 		str	r9, [sp, #252]
 245:Drivers/lvgl/src/draw/sw/lv_draw_sw_line.c ****         }
 940              		.loc 1 245 37 view .LVU354
 941 041c BDF9BA90 		ldrsh	r9, [sp, #186]
 240:Drivers/lvgl/src/draw/sw/lv_draw_sw_line.c ****         blend_dsc.mask_area = &blend_area;
 942              		.loc 1 240 28 view .LVU355
 943 0420 3D90     		str	r0, [sp, #244]
 245:Drivers/lvgl/src/draw/sw/lv_draw_sw_line.c ****         }
 944              		.loc 1 245 59 view .LVU356
 945 0422 1344     		add	r3, r3, r2
 245:Drivers/lvgl/src/draw/sw/lv_draw_sw_line.c ****         }
 946              		.loc 1 245 42 view .LVU357
 947 0424 99FBF3F2 		sdiv	r2, r9, r3
 948 0428 03FB1293 		mls	r3, r3, r2, r9
 239:Drivers/lvgl/src/draw/sw/lv_draw_sw_line.c ****         blend_dsc.mask_buf = mask_buf;
 949              		.loc 1 239 31 view .LVU358
 950 042c 8246     		mov	r10, r0
 951              	.LVL94:
 240:Drivers/lvgl/src/draw/sw/lv_draw_sw_line.c ****         blend_dsc.mask_area = &blend_area;
 952              		.loc 1 240 9 is_stmt 1 view .LVU359
 241:Drivers/lvgl/src/draw/sw/lv_draw_sw_line.c **** 
 953              		.loc 1 241 9 view .LVU360
 243:Drivers/lvgl/src/draw/sw/lv_draw_sw_line.c ****         if(dashed) {
ARM GAS  /var/folders/lp/x54gwt890xv47sdkqj1k04q40000gn/T//ccKYvMxP.s 			page 31


 954              		.loc 1 243 9 view .LVU361
 244:Drivers/lvgl/src/draw/sw/lv_draw_sw_line.c ****             dash_start = (blend_area.y1) % (dsc->dash_gap + dsc->dash_width);
 955              		.loc 1 244 9 view .LVU362
 245:Drivers/lvgl/src/draw/sw/lv_draw_sw_line.c ****         }
 956              		.loc 1 245 13 view .LVU363
 245:Drivers/lvgl/src/draw/sw/lv_draw_sw_line.c ****         }
 957              		.loc 1 245 24 is_stmt 0 view .LVU364
 958 042e 0FFA83FC 		sxth	ip, r3
 959              	.LVL95:
 245:Drivers/lvgl/src/draw/sw/lv_draw_sw_line.c ****         }
 960              		.loc 1 245 24 view .LVU365
 961              	.LBE97:
 215:Drivers/lvgl/src/draw/sw/lv_draw_sw_line.c ****     bool simple_mode = true;
 962              		.loc 1 215 59 discriminator 3 view .LVU366
 963 0432 0122     		movs	r2, #1
 964              	.LVL96:
 965              	.L24:
 966              	.LBB98:
 248:Drivers/lvgl/src/draw/sw/lv_draw_sw_line.c **** 
 967              		.loc 1 248 9 is_stmt 1 view .LVU367
 250:Drivers/lvgl/src/draw/sw/lv_draw_sw_line.c ****         for(h = blend_area.y1; h <= y2; h++) {
 968              		.loc 1 250 9 view .LVU368
 251:Drivers/lvgl/src/draw/sw/lv_draw_sw_line.c ****             lv_memset_ff(mask_buf, draw_area_w);
 969              		.loc 1 251 9 view .LVU369
 251:Drivers/lvgl/src/draw/sw/lv_draw_sw_line.c ****             lv_memset_ff(mask_buf, draw_area_w);
 970              		.loc 1 251 34 discriminator 1 view .LVU370
 971 0434 4F45     		cmp	r7, r9
 972 0436 C0F24881 		blt	.L32
 973 043a 0494     		str	r4, [sp, #16]
 974 043c CDF81480 		str	r8, [sp, #20]
 975 0440 6446     		mov	r4, ip
 976              	.LVL97:
 251:Drivers/lvgl/src/draw/sw/lv_draw_sw_line.c ****             lv_memset_ff(mask_buf, draw_area_w);
 977              		.loc 1 251 34 is_stmt 0 discriminator 1 view .LVU371
 978 0442 A846     		mov	r8, r5
 979              	.LVL98:
 251:Drivers/lvgl/src/draw/sw/lv_draw_sw_line.c ****             lv_memset_ff(mask_buf, draw_area_w);
 980              		.loc 1 251 34 discriminator 1 view .LVU372
 981 0444 1546     		mov	r5, r2
 982 0446 13E0     		b	.L26
 983              	.LVL99:
 984              	.L116:
 265:Drivers/lvgl/src/draw/sw/lv_draw_sw_line.c ****             }
 985              		.loc 1 265 26 view .LVU373
 986 0448 1CB2     		sxth	r4, r3
 987              	.LVL100:
 988              	.L27:
 268:Drivers/lvgl/src/draw/sw/lv_draw_sw_line.c **** 
 989              		.loc 1 268 13 is_stmt 1 view .LVU374
 990 044a 4146     		mov	r1, r8
 991 044c 5846     		mov	r0, fp
 992 044e FFF7FEFF 		bl	lv_draw_sw_blend
 993              	.LVL101:
 270:Drivers/lvgl/src/draw/sw/lv_draw_sw_line.c ****             blend_area.y2++;
 994              		.loc 1 270 13 view .LVU375
 270:Drivers/lvgl/src/draw/sw/lv_draw_sw_line.c ****             blend_area.y2++;
 995              		.loc 1 270 26 is_stmt 0 view .LVU376
ARM GAS  /var/folders/lp/x54gwt890xv47sdkqj1k04q40000gn/T//ccKYvMxP.s 			page 32


 996 0452 BDF8BA30 		ldrh	r3, [sp, #186]
 997 0456 0133     		adds	r3, r3, #1
 998 0458 ADF8BA30 		strh	r3, [sp, #186]	@ movhi
 271:Drivers/lvgl/src/draw/sw/lv_draw_sw_line.c ****         }
 999              		.loc 1 271 13 is_stmt 1 view .LVU377
 271:Drivers/lvgl/src/draw/sw/lv_draw_sw_line.c ****         }
 1000              		.loc 1 271 26 is_stmt 0 view .LVU378
 1001 045c BDF8BE30 		ldrh	r3, [sp, #190]
 251:Drivers/lvgl/src/draw/sw/lv_draw_sw_line.c ****             lv_memset_ff(mask_buf, draw_area_w);
 1002              		.loc 1 251 42 discriminator 2 view .LVU379
 1003 0460 09F10109 		add	r9, r9, #1
 1004              	.LVL102:
 271:Drivers/lvgl/src/draw/sw/lv_draw_sw_line.c ****         }
 1005              		.loc 1 271 26 view .LVU380
 1006 0464 0133     		adds	r3, r3, #1
 251:Drivers/lvgl/src/draw/sw/lv_draw_sw_line.c ****             lv_memset_ff(mask_buf, draw_area_w);
 1007              		.loc 1 251 34 discriminator 1 view .LVU381
 1008 0466 B945     		cmp	r9, r7
 271:Drivers/lvgl/src/draw/sw/lv_draw_sw_line.c ****         }
 1009              		.loc 1 271 26 view .LVU382
 1010 0468 ADF8BE30 		strh	r3, [sp, #190]	@ movhi
 251:Drivers/lvgl/src/draw/sw/lv_draw_sw_line.c ****             lv_memset_ff(mask_buf, draw_area_w);
 1011              		.loc 1 251 42 is_stmt 1 discriminator 2 view .LVU383
 1012              	.LVL103:
 251:Drivers/lvgl/src/draw/sw/lv_draw_sw_line.c ****             lv_memset_ff(mask_buf, draw_area_w);
 1013              		.loc 1 251 34 discriminator 1 view .LVU384
 1014 046c 00F3E681 		bgt	.L115
 1015              	.LVL104:
 1016              	.L26:
 252:Drivers/lvgl/src/draw/sw/lv_draw_sw_line.c ****             blend_dsc.mask_res = lv_draw_mask_apply(mask_buf, blend_area.x1, h, draw_area_w);
 1017              		.loc 1 252 13 view .LVU385
 1018 0470 3146     		mov	r1, r6
 1019 0472 5046     		mov	r0, r10
 1020 0474 FFF7FEFF 		bl	lv_memset_ff
 1021              	.LVL105:
 253:Drivers/lvgl/src/draw/sw/lv_draw_sw_line.c **** 
 1022              		.loc 1 253 13 view .LVU386
 253:Drivers/lvgl/src/draw/sw/lv_draw_sw_line.c **** 
 1023              		.loc 1 253 34 is_stmt 0 view .LVU387
 1024 0478 BDF9B810 		ldrsh	r1, [sp, #184]
 1025 047c 3346     		mov	r3, r6
 1026 047e 0FFA89F2 		sxth	r2, r9
 1027 0482 5046     		mov	r0, r10
 1028 0484 FFF7FEFF 		bl	lv_draw_mask_apply
 1029              	.LVL106:
 256:Drivers/lvgl/src/draw/sw/lv_draw_sw_line.c ****                     if(dash_cnt > dsc->dash_width) {
 1030              		.loc 1 256 17 is_stmt 1 view .LVU388
 253:Drivers/lvgl/src/draw/sw/lv_draw_sw_line.c **** 
 1031              		.loc 1 253 32 is_stmt 0 discriminator 1 view .LVU389
 1032 0488 8DF8F800 		strb	r0, [sp, #248]
 255:Drivers/lvgl/src/draw/sw/lv_draw_sw_line.c ****                 if(blend_dsc.mask_res != LV_DRAW_MASK_RES_TRANSP) {
 1033              		.loc 1 255 13 is_stmt 1 view .LVU390
 255:Drivers/lvgl/src/draw/sw/lv_draw_sw_line.c ****                 if(blend_dsc.mask_res != LV_DRAW_MASK_RES_TRANSP) {
 1034              		.loc 1 255 15 is_stmt 0 view .LVU391
 1035 048c 002D     		cmp	r5, #0
 1036 048e DCD0     		beq	.L27
 257:Drivers/lvgl/src/draw/sw/lv_draw_sw_line.c ****                         blend_dsc.mask_res = LV_DRAW_MASK_RES_TRANSP;
ARM GAS  /var/folders/lp/x54gwt890xv47sdkqj1k04q40000gn/T//ccKYvMxP.s 			page 33


 1037              		.loc 1 257 21 is_stmt 1 view .LVU392
 265:Drivers/lvgl/src/draw/sw/lv_draw_sw_line.c ****             }
 1038              		.loc 1 265 26 is_stmt 0 view .LVU393
 1039 0490 631C     		adds	r3, r4, #1
 256:Drivers/lvgl/src/draw/sw/lv_draw_sw_line.c ****                     if(dash_cnt > dsc->dash_width) {
 1040              		.loc 1 256 19 view .LVU394
 1041 0492 0028     		cmp	r0, #0
 1042 0494 D8D0     		beq	.L116
 257:Drivers/lvgl/src/draw/sw/lv_draw_sw_line.c ****                         blend_dsc.mask_res = LV_DRAW_MASK_RES_TRANSP;
 1043              		.loc 1 257 38 view .LVU395
 1044 0496 049B     		ldr	r3, [sp, #16]
 1045 0498 B3F90420 		ldrsh	r2, [r3, #4]
 261:Drivers/lvgl/src/draw/sw/lv_draw_sw_line.c ****                         dash_cnt = 0;
 1046              		.loc 1 261 39 view .LVU396
 1047 049c B3F90630 		ldrsh	r3, [r3, #6]
 261:Drivers/lvgl/src/draw/sw/lv_draw_sw_line.c ****                         dash_cnt = 0;
 1048              		.loc 1 261 50 view .LVU397
 1049 04a0 1344     		add	r3, r3, r2
 258:Drivers/lvgl/src/draw/sw/lv_draw_sw_line.c ****                     }
 1050              		.loc 1 258 44 view .LVU398
 1051 04a2 9442     		cmp	r4, r2
 1052 04a4 C8BF     		it	gt
 1053 04a6 0020     		movgt	r0, #0
 261:Drivers/lvgl/src/draw/sw/lv_draw_sw_line.c ****                         dash_cnt = 0;
 1054              		.loc 1 261 23 view .LVU399
 1055 04a8 9C42     		cmp	r4, r3
 1056 04aa 8DF8F800 		strb	r0, [sp, #248]
 261:Drivers/lvgl/src/draw/sw/lv_draw_sw_line.c ****                         dash_cnt = 0;
 1057              		.loc 1 261 21 is_stmt 1 view .LVU400
 265:Drivers/lvgl/src/draw/sw/lv_draw_sw_line.c ****             }
 1058              		.loc 1 265 26 is_stmt 0 view .LVU401
 1059 04ae 04F10104 		add	r4, r4, #1
 1060              	.LVL107:
 261:Drivers/lvgl/src/draw/sw/lv_draw_sw_line.c ****                         dash_cnt = 0;
 1061              		.loc 1 261 23 view .LVU402
 1062 04b2 C0F2C181 		blt	.L31
 1063 04b6 0124     		movs	r4, #1
 1064              	.LVL108:
 265:Drivers/lvgl/src/draw/sw/lv_draw_sw_line.c ****             }
 1065              		.loc 1 265 17 is_stmt 1 view .LVU403
 265:Drivers/lvgl/src/draw/sw/lv_draw_sw_line.c ****             }
 1066              		.loc 1 265 17 is_stmt 0 view .LVU404
 1067 04b8 C7E7     		b	.L27
 1068              	.LVL109:
 1069              	.L114:
 265:Drivers/lvgl/src/draw/sw/lv_draw_sw_line.c ****             }
 1070              		.loc 1 265 17 view .LVU405
 1071              	.LBE98:
 1072              	.LBE81:
 1073              	.LBE80:
 1074              	.LBB103:
  77:Drivers/lvgl/src/draw/sw/lv_draw_sw_line.c ****         lv_draw_rect_dsc_init(&cir_dsc);
 1075              		.loc 1 77 9 is_stmt 1 view .LVU406
  78:Drivers/lvgl/src/draw/sw/lv_draw_sw_line.c ****         cir_dsc.bg_color = dsc->color;
 1076              		.loc 1 78 9 view .LVU407
 1077 04ba 3AAD     		add	r5, sp, #232
 1078 04bc 2846     		mov	r0, r5
ARM GAS  /var/folders/lp/x54gwt890xv47sdkqj1k04q40000gn/T//ccKYvMxP.s 			page 34


 1079 04be FFF7FEFF 		bl	lv_draw_rect_dsc_init
 1080              	.LVL110:
  79:Drivers/lvgl/src/draw/sw/lv_draw_sw_line.c ****         cir_dsc.radius = LV_RADIUS_CIRCLE;
 1081              		.loc 1 79 9 view .LVU408
  80:Drivers/lvgl/src/draw/sw/lv_draw_sw_line.c ****         cir_dsc.bg_opa = dsc->opa;
 1082              		.loc 1 80 24 is_stmt 0 view .LVU409
 1083 04c2 47F6FF73 		movw	r3, #32767
  83:Drivers/lvgl/src/draw/sw/lv_draw_sw_line.c ****         int32_t r_corr = (dsc->width & 1) ? 0 : 1;
 1084              		.loc 1 83 25 view .LVU410
 1085 04c6 B4F90220 		ldrsh	r2, [r4, #2]
  80:Drivers/lvgl/src/draw/sw/lv_draw_sw_line.c ****         cir_dsc.bg_opa = dsc->opa;
 1086              		.loc 1 80 24 view .LVU411
 1087 04ca ADF8E830 		strh	r3, [sp, #232]	@ movhi
  87:Drivers/lvgl/src/draw/sw/lv_draw_sw_line.c ****             cir_area.x1 = point1->x - r;
 1088              		.loc 1 87 12 view .LVU412
 1089 04ce 637A     		ldrb	r3, [r4, #9]	@ zero_extendqisi2
  79:Drivers/lvgl/src/draw/sw/lv_draw_sw_line.c ****         cir_dsc.radius = LV_RADIUS_CIRCLE;
 1090              		.loc 1 79 26 view .LVU413
 1091 04d0 2188     		ldrh	r1, [r4]
 1092 04d2 ADF8EC10 		strh	r1, [sp, #236]	@ movhi
  80:Drivers/lvgl/src/draw/sw/lv_draw_sw_line.c ****         cir_dsc.bg_opa = dsc->opa;
 1093              		.loc 1 80 9 is_stmt 1 view .LVU414
  81:Drivers/lvgl/src/draw/sw/lv_draw_sw_line.c **** 
 1094              		.loc 1 81 9 view .LVU415
 1095 04d6 D643     		mvns	r6, r2
  81:Drivers/lvgl/src/draw/sw/lv_draw_sw_line.c **** 
 1096              		.loc 1 81 24 is_stmt 0 view .LVU416
 1097 04d8 217A     		ldrb	r1, [r4, #8]	@ zero_extendqisi2
 1098 04da 8DF8EB10 		strb	r1, [sp, #235]
  83:Drivers/lvgl/src/draw/sw/lv_draw_sw_line.c ****         int32_t r_corr = (dsc->width & 1) ? 0 : 1;
 1099              		.loc 1 83 9 is_stmt 1 view .LVU417
  83:Drivers/lvgl/src/draw/sw/lv_draw_sw_line.c ****         int32_t r_corr = (dsc->width & 1) ? 0 : 1;
 1100              		.loc 1 83 33 is_stmt 0 view .LVU418
 1101 04de 5710     		asrs	r7, r2, #1
 1102              	.LVL111:
  84:Drivers/lvgl/src/draw/sw/lv_draw_sw_line.c ****         lv_area_t cir_area;
 1103              		.loc 1 84 9 is_stmt 1 view .LVU419
  87:Drivers/lvgl/src/draw/sw/lv_draw_sw_line.c ****             cir_area.x1 = point1->x - r;
 1104              		.loc 1 87 11 is_stmt 0 view .LVU420
 1105 04e0 5A07     		lsls	r2, r3, #29
 1106 04e2 06F00106 		and	r6, r6, #1
 1107              	.LVL112:
  85:Drivers/lvgl/src/draw/sw/lv_draw_sw_line.c **** 
 1108              		.loc 1 85 9 is_stmt 1 view .LVU421
  87:Drivers/lvgl/src/draw/sw/lv_draw_sw_line.c ****             cir_area.x1 = point1->x - r;
 1109              		.loc 1 87 9 view .LVU422
  87:Drivers/lvgl/src/draw/sw/lv_draw_sw_line.c ****             cir_area.x1 = point1->x - r;
 1110              		.loc 1 87 11 is_stmt 0 view .LVU423
 1111 04e6 00F15F81 		bmi	.L117
 1112              	.L51:
  95:Drivers/lvgl/src/draw/sw/lv_draw_sw_line.c ****             cir_area.x1 = point2->x - r;
 1113              		.loc 1 95 9 is_stmt 1 view .LVU424
  95:Drivers/lvgl/src/draw/sw/lv_draw_sw_line.c ****             cir_area.x1 = point2->x - r;
 1114              		.loc 1 95 11 is_stmt 0 view .LVU425
 1115 04ea 1B07     		lsls	r3, r3, #28
 1116 04ec 7FF535AF 		bpl	.L50
  96:Drivers/lvgl/src/draw/sw/lv_draw_sw_line.c ****             cir_area.y1 = point2->y - r;
ARM GAS  /var/folders/lp/x54gwt890xv47sdkqj1k04q40000gn/T//ccKYvMxP.s 			page 35


 1117              		.loc 1 96 13 is_stmt 1 view .LVU426
  96:Drivers/lvgl/src/draw/sw/lv_draw_sw_line.c ****             cir_area.y1 = point2->y - r;
 1118              		.loc 1 96 33 is_stmt 0 view .LVU427
 1119 04f0 B8F80040 		ldrh	r4, [r8]
  97:Drivers/lvgl/src/draw/sw/lv_draw_sw_line.c ****             cir_area.x2 = point2->x + r - r_corr;
 1120              		.loc 1 97 33 view .LVU428
 1121 04f4 B8F80200 		ldrh	r0, [r8, #2]
  96:Drivers/lvgl/src/draw/sw/lv_draw_sw_line.c ****             cir_area.y1 = point2->y - r;
 1122              		.loc 1 96 37 view .LVU429
 1123 04f8 BAB2     		uxth	r2, r7
  97:Drivers/lvgl/src/draw/sw/lv_draw_sw_line.c ****             cir_area.x2 = point2->x + r - r_corr;
 1124              		.loc 1 97 13 is_stmt 1 view .LVU430
  98:Drivers/lvgl/src/draw/sw/lv_draw_sw_line.c ****             cir_area.y2 = point2->y + r - r_corr ;
 1125              		.loc 1 98 13 view .LVU431
  99:Drivers/lvgl/src/draw/sw/lv_draw_sw_line.c ****             lv_draw_rect(draw_ctx, &cir_dsc, &cir_area);
 1126              		.loc 1 99 13 view .LVU432
  98:Drivers/lvgl/src/draw/sw/lv_draw_sw_line.c ****             cir_area.y2 = point2->y + r - r_corr ;
 1127              		.loc 1 98 37 is_stmt 0 view .LVU433
 1128 04fa A718     		adds	r7, r4, r2
 1129              	.LVL113:
  96:Drivers/lvgl/src/draw/sw/lv_draw_sw_line.c ****             cir_area.y1 = point2->y - r;
 1130              		.loc 1 96 37 view .LVU434
 1131 04fc 0023     		movs	r3, #0
 1132 04fe A41A     		subs	r4, r4, r2
 100:Drivers/lvgl/src/draw/sw/lv_draw_sw_line.c ****         }
 1133              		.loc 1 100 13 view .LVU435
 1134 0500 2946     		mov	r1, r5
  98:Drivers/lvgl/src/draw/sw/lv_draw_sw_line.c ****             cir_area.y2 = point2->y + r - r_corr ;
 1135              		.loc 1 98 41 view .LVU436
 1136 0502 BF1B     		subs	r7, r7, r6
  96:Drivers/lvgl/src/draw/sw/lv_draw_sw_line.c ****             cir_area.y1 = point2->y - r;
 1137              		.loc 1 96 37 view .LVU437
 1138 0504 1D46     		mov	r5, r3
 1139 0506 64F30F03 		bfi	r3, r4, #0, #16
  99:Drivers/lvgl/src/draw/sw/lv_draw_sw_line.c ****             lv_draw_rect(draw_ctx, &cir_dsc, &cir_area);
 1140              		.loc 1 99 37 view .LVU438
 1141 050a 1418     		adds	r4, r2, r0
  96:Drivers/lvgl/src/draw/sw/lv_draw_sw_line.c ****             cir_area.y1 = point2->y - r;
 1142              		.loc 1 96 37 view .LVU439
 1143 050c 67F30F05 		bfi	r5, r7, #0, #16
  97:Drivers/lvgl/src/draw/sw/lv_draw_sw_line.c ****             cir_area.x2 = point2->x + r - r_corr;
 1144              		.loc 1 97 37 view .LVU440
 1145 0510 801A     		subs	r0, r0, r2
  99:Drivers/lvgl/src/draw/sw/lv_draw_sw_line.c ****             lv_draw_rect(draw_ctx, &cir_dsc, &cir_area);
 1146              		.loc 1 99 41 view .LVU441
 1147 0512 A21B     		subs	r2, r4, r6
 1148              	.LVL114:
  96:Drivers/lvgl/src/draw/sw/lv_draw_sw_line.c ****             cir_area.y1 = point2->y - r;
 1149              		.loc 1 96 37 view .LVU442
 1150 0514 60F31F43 		bfi	r3, r0, #16, #16
 1151 0518 62F31F45 		bfi	r5, r2, #16, #16
 100:Drivers/lvgl/src/draw/sw/lv_draw_sw_line.c ****         }
 1152              		.loc 1 100 13 view .LVU443
 1153 051c 5846     		mov	r0, fp
 1154 051e 2EAA     		add	r2, sp, #184
  96:Drivers/lvgl/src/draw/sw/lv_draw_sw_line.c ****             cir_area.y1 = point2->y - r;
 1155              		.loc 1 96 25 view .LVU444
ARM GAS  /var/folders/lp/x54gwt890xv47sdkqj1k04q40000gn/T//ccKYvMxP.s 			page 36


 1156 0520 2E93     		str	r3, [sp, #184]
 1157 0522 2F95     		str	r5, [sp, #188]
 100:Drivers/lvgl/src/draw/sw/lv_draw_sw_line.c ****         }
 1158              		.loc 1 100 13 is_stmt 1 view .LVU445
 1159 0524 FFF7FEFF 		bl	lv_draw_rect
 1160              	.LVL115:
 1161 0528 17E7     		b	.L50
 1162              	.LVL116:
 1163              	.L108:
 100:Drivers/lvgl/src/draw/sw/lv_draw_sw_line.c ****         }
 1164              		.loc 1 100 13 is_stmt 0 view .LVU446
 1165              	.LBE103:
  72:Drivers/lvgl/src/draw/sw/lv_draw_sw_line.c ****     else if(point1->x == point2->x) draw_line_ver(draw_ctx, dsc, point1, point2);
 1166              		.loc 1 72 32 is_stmt 1 discriminator 1 view .LVU447
 1167              	.LBB104:
 1168              	.LBB68:
 126:Drivers/lvgl/src/draw/sw/lv_draw_sw_line.c ****     if(!is_common) return;
 1169              		.loc 1 126 17 is_stmt 0 view .LVU448
 1170 052a 1A46     		mov	r2, r3
 1171 052c 029B     		ldr	r3, [sp, #8]
 1172 052e B8F900C0 		ldrsh	ip, [r8]
 1173              	.LVL117:
 126:Drivers/lvgl/src/draw/sw/lv_draw_sw_line.c ****     if(!is_common) return;
 1174              		.loc 1 126 17 view .LVU449
 1175              	.LBE68:
 1176              	.LBI39:
 112:Drivers/lvgl/src/draw/sw/lv_draw_sw_line.c ****                                                 const lv_point_t * point1, const lv_point_t * point
 1177              		.loc 1 112 35 is_stmt 1 view .LVU450
 1178              	.LBB69:
 115:Drivers/lvgl/src/draw/sw/lv_draw_sw_line.c ****     int32_t w_half0 = w >> 1;
 1179              		.loc 1 115 5 view .LVU451
 1180 0532 B3F90030 		ldrsh	r3, [r3]
 1181              	.LVL118:
 115:Drivers/lvgl/src/draw/sw/lv_draw_sw_line.c ****     int32_t w_half0 = w >> 1;
 1182              		.loc 1 115 13 is_stmt 0 view .LVU452
 1183 0536 013D     		subs	r5, r5, #1
 1184              	.LVL119:
 116:Drivers/lvgl/src/draw/sw/lv_draw_sw_line.c ****     int32_t w_half1 = w_half0 + (w & 0x1); /*Compensate rounding error*/
 1185              		.loc 1 116 5 is_stmt 1 view .LVU453
 117:Drivers/lvgl/src/draw/sw/lv_draw_sw_line.c **** 
 1186              		.loc 1 117 5 view .LVU454
 119:Drivers/lvgl/src/draw/sw/lv_draw_sw_line.c ****     blend_area.x1 = LV_MIN(point1->x, point2->x);
 1187              		.loc 1 119 5 view .LVU455
 120:Drivers/lvgl/src/draw/sw/lv_draw_sw_line.c ****     blend_area.x2 = LV_MAX(point1->x, point2->x)  - 1;
 1188              		.loc 1 120 5 view .LVU456
 121:Drivers/lvgl/src/draw/sw/lv_draw_sw_line.c ****     blend_area.y1 = point1->y - w_half1;
 1189              		.loc 1 121 5 view .LVU457
 122:Drivers/lvgl/src/draw/sw/lv_draw_sw_line.c ****     blend_area.y2 = point1->y + w_half0;
 1190              		.loc 1 122 5 view .LVU458
 123:Drivers/lvgl/src/draw/sw/lv_draw_sw_line.c **** 
 1191              		.loc 1 123 5 view .LVU459
 121:Drivers/lvgl/src/draw/sw/lv_draw_sw_line.c ****     blend_area.y1 = point1->y - w_half1;
 1192              		.loc 1 121 21 is_stmt 0 view .LVU460
 1193 0538 6345     		cmp	r3, ip
 117:Drivers/lvgl/src/draw/sw/lv_draw_sw_line.c **** 
 1194              		.loc 1 117 36 view .LVU461
 1195 053a 05F00101 		and	r1, r5, #1
ARM GAS  /var/folders/lp/x54gwt890xv47sdkqj1k04q40000gn/T//ccKYvMxP.s 			page 37


 121:Drivers/lvgl/src/draw/sw/lv_draw_sw_line.c ****     blend_area.y1 = point1->y - w_half1;
 1196              		.loc 1 121 21 view .LVU462
 1197 053e 1F46     		mov	r7, r3
 122:Drivers/lvgl/src/draw/sw/lv_draw_sw_line.c ****     blend_area.y2 = point1->y + w_half0;
 1198              		.loc 1 122 27 view .LVU463
 1199 0540 B6B2     		uxth	r6, r6
 121:Drivers/lvgl/src/draw/sw/lv_draw_sw_line.c ****     blend_area.y1 = point1->y - w_half1;
 1200              		.loc 1 121 21 view .LVU464
 1201 0542 B8BF     		it	lt
 1202 0544 6746     		movlt	r7, ip
 120:Drivers/lvgl/src/draw/sw/lv_draw_sw_line.c ****     blend_area.x2 = LV_MAX(point1->x, point2->x)  - 1;
 1203              		.loc 1 120 19 view .LVU465
 1204 0546 0020     		movs	r0, #0
 1205              	.LVL120:
 117:Drivers/lvgl/src/draw/sw/lv_draw_sw_line.c **** 
 1206              		.loc 1 117 13 view .LVU466
 1207 0548 01EB6501 		add	r1, r1, r5, asr #1
 1208              	.LVL121:
 120:Drivers/lvgl/src/draw/sw/lv_draw_sw_line.c ****     blend_area.x2 = LV_MAX(point1->x, point2->x)  - 1;
 1209              		.loc 1 120 21 view .LVU467
 1210 054c 6345     		cmp	r3, ip
 122:Drivers/lvgl/src/draw/sw/lv_draw_sw_line.c ****     blend_area.y2 = point1->y + w_half0;
 1211              		.loc 1 122 31 view .LVU468
 1212 054e A6EB0101 		sub	r1, r6, r1
 1213              	.LVL122:
 120:Drivers/lvgl/src/draw/sw/lv_draw_sw_line.c ****     blend_area.x2 = LV_MAX(point1->x, point2->x)  - 1;
 1214              		.loc 1 120 21 view .LVU469
 1215 0552 A8BF     		it	ge
 1216 0554 6346     		movge	r3, ip
 123:Drivers/lvgl/src/draw/sw/lv_draw_sw_line.c **** 
 1217              		.loc 1 123 31 view .LVU470
 1218 0556 06EB6506 		add	r6, r6, r5, asr #1
 121:Drivers/lvgl/src/draw/sw/lv_draw_sw_line.c ****     blend_area.y1 = point1->y - w_half1;
 1219              		.loc 1 121 51 view .LVU471
 1220 055a 013F     		subs	r7, r7, #1
 120:Drivers/lvgl/src/draw/sw/lv_draw_sw_line.c ****     blend_area.x2 = LV_MAX(point1->x, point2->x)  - 1;
 1221              		.loc 1 120 19 view .LVU472
 1222 055c 0546     		mov	r5, r0
 1223              	.LVL123:
 120:Drivers/lvgl/src/draw/sw/lv_draw_sw_line.c ****     blend_area.x2 = LV_MAX(point1->x, point2->x)  - 1;
 1224              		.loc 1 120 19 view .LVU473
 1225 055e 67F30F05 		bfi	r5, r7, #0, #16
 1226 0562 63F30F00 		bfi	r0, r3, #0, #16
 1227 0566 61F31F40 		bfi	r0, r1, #16, #16
 126:Drivers/lvgl/src/draw/sw/lv_draw_sw_line.c ****     if(!is_common) return;
 1228              		.loc 1 126 17 view .LVU474
 1229 056a 0DF1B809 		add	r9, sp, #184
 120:Drivers/lvgl/src/draw/sw/lv_draw_sw_line.c ****     blend_area.x2 = LV_MAX(point1->x, point2->x)  - 1;
 1230              		.loc 1 120 19 view .LVU475
 1231 056e 66F31F45 		bfi	r5, r6, #16, #16
 1232 0572 CDE92E05 		strd	r0, r5, [sp, #184]
 125:Drivers/lvgl/src/draw/sw/lv_draw_sw_line.c ****     is_common = _lv_area_intersect(&blend_area, &blend_area, draw_ctx->clip_area);
 1233              		.loc 1 125 5 is_stmt 1 view .LVU476
 126:Drivers/lvgl/src/draw/sw/lv_draw_sw_line.c ****     if(!is_common) return;
 1234              		.loc 1 126 5 view .LVU477
 126:Drivers/lvgl/src/draw/sw/lv_draw_sw_line.c ****     if(!is_common) return;
 1235              		.loc 1 126 17 is_stmt 0 view .LVU478
ARM GAS  /var/folders/lp/x54gwt890xv47sdkqj1k04q40000gn/T//ccKYvMxP.s 			page 38


 1236 0576 4946     		mov	r1, r9
 1237 0578 4846     		mov	r0, r9
 1238 057a FFF7FEFF 		bl	_lv_area_intersect
 1239              	.LVL124:
 127:Drivers/lvgl/src/draw/sw/lv_draw_sw_line.c **** 
 1240              		.loc 1 127 5 is_stmt 1 view .LVU479
 127:Drivers/lvgl/src/draw/sw/lv_draw_sw_line.c **** 
 1241              		.loc 1 127 7 is_stmt 0 view .LVU480
 1242 057e 0028     		cmp	r0, #0
 1243 0580 3FF4E6AE 		beq	.L6
 129:Drivers/lvgl/src/draw/sw/lv_draw_sw_line.c ****     bool simple_mode = true;
 1244              		.loc 1 129 5 is_stmt 1 view .LVU481
 129:Drivers/lvgl/src/draw/sw/lv_draw_sw_line.c ****     bool simple_mode = true;
 1245              		.loc 1 129 59 is_stmt 0 view .LVU482
 1246 0584 B4F90630 		ldrsh	r3, [r4, #6]
 131:Drivers/lvgl/src/draw/sw/lv_draw_sw_line.c ****     else if(dashed) simple_mode = false;
 1247              		.loc 1 131 8 view .LVU483
 1248 0588 4846     		mov	r0, r9
 1249              	.LVL125:
 129:Drivers/lvgl/src/draw/sw/lv_draw_sw_line.c ****     bool simple_mode = true;
 1250              		.loc 1 129 59 view .LVU484
 1251 058a 002B     		cmp	r3, #0
 1252 058c 00F02C81 		beq	.L7
 129:Drivers/lvgl/src/draw/sw/lv_draw_sw_line.c ****     bool simple_mode = true;
 1253              		.loc 1 129 59 discriminator 1 view .LVU485
 1254 0590 B4F90430 		ldrsh	r3, [r4, #4]
 1255 0594 002B     		cmp	r3, #0
 1256 0596 00F02781 		beq	.L7
 1257              	.LVL126:
 130:Drivers/lvgl/src/draw/sw/lv_draw_sw_line.c ****     if(lv_draw_mask_is_any(&blend_area)) simple_mode = false;
 1258              		.loc 1 130 5 is_stmt 1 view .LVU486
 131:Drivers/lvgl/src/draw/sw/lv_draw_sw_line.c ****     else if(dashed) simple_mode = false;
 1259              		.loc 1 131 5 view .LVU487
 135:Drivers/lvgl/src/draw/sw/lv_draw_sw_line.c ****     blend_dsc.blend_area = &blend_area;
 1260              		.loc 1 135 5 is_stmt 0 view .LVU488
 1261 059a 3AAD     		add	r5, sp, #232
 131:Drivers/lvgl/src/draw/sw/lv_draw_sw_line.c ****     else if(dashed) simple_mode = false;
 1262              		.loc 1 131 8 view .LVU489
 1263 059c FFF7FEFF 		bl	lv_draw_mask_is_any
 1264              	.LVL127:
 132:Drivers/lvgl/src/draw/sw/lv_draw_sw_line.c **** 
 1265              		.loc 1 132 10 is_stmt 1 view .LVU490
 134:Drivers/lvgl/src/draw/sw/lv_draw_sw_line.c ****     lv_memset_00(&blend_dsc, sizeof(blend_dsc));
 1266              		.loc 1 134 5 view .LVU491
 135:Drivers/lvgl/src/draw/sw/lv_draw_sw_line.c ****     blend_dsc.blend_area = &blend_area;
 1267              		.loc 1 135 5 view .LVU492
 1268 05a0 1C21     		movs	r1, #28
 1269 05a2 2846     		mov	r0, r5
 1270 05a4 FFF7FEFF 		bl	lv_memset_00
 1271              	.LVL128:
 136:Drivers/lvgl/src/draw/sw/lv_draw_sw_line.c ****     blend_dsc.color = dsc->color;
 1272              		.loc 1 136 5 view .LVU493
 1273              	.LBB41:
 155:Drivers/lvgl/src/draw/sw/lv_draw_sw_line.c ****         }
 1274              		.loc 1 155 64 is_stmt 0 view .LVU494
 1275 05a8 B4F90430 		ldrsh	r3, [r4, #4]
 155:Drivers/lvgl/src/draw/sw/lv_draw_sw_line.c ****         }
ARM GAS  /var/folders/lp/x54gwt890xv47sdkqj1k04q40000gn/T//ccKYvMxP.s 			page 39


 1276              		.loc 1 155 48 view .LVU495
 1277 05ac B4F90620 		ldrsh	r2, [r4, #6]
 1278              	.LBB42:
 1279              	.LBB43:
 1280              		.loc 2 125 49 view .LVU496
 1281 05b0 BDF8BC60 		ldrh	r6, [sp, #188]
 1282              	.LBE43:
 1283              	.LBE42:
 1284              	.LBE41:
 137:Drivers/lvgl/src/draw/sw/lv_draw_sw_line.c ****     blend_dsc.opa = dsc->opa;
 1285              		.loc 1 137 21 view .LVU497
 1286 05b4 2188     		ldrh	r1, [r4]
 1287 05b6 ADF8F010 		strh	r1, [sp, #240]	@ movhi
 1288              	.LBB62:
 155:Drivers/lvgl/src/draw/sw/lv_draw_sw_line.c ****         }
 1289              		.loc 1 155 59 view .LVU498
 1290 05ba 1A44     		add	r2, r2, r3
 1291              	.LBB50:
 1292              	.LBB44:
 1293              		.loc 2 125 44 view .LVU499
 1294 05bc BDF9B830 		ldrsh	r3, [sp, #184]
 1295              	.LBE44:
 1296              	.LBE50:
 155:Drivers/lvgl/src/draw/sw/lv_draw_sw_line.c ****         }
 1297              		.loc 1 155 42 view .LVU500
 1298 05c0 93FBF2F0 		sdiv	r0, r3, r2
 1299              	.LBB51:
 1300              	.LBB45:
 1301              		.loc 2 125 49 view .LVU501
 1302 05c4 0136     		adds	r6, r6, #1
 1303 05c6 F61A     		subs	r6, r6, r3
 1304              	.LBE45:
 1305              	.LBE51:
 155:Drivers/lvgl/src/draw/sw/lv_draw_sw_line.c ****         }
 1306              		.loc 1 155 42 view .LVU502
 1307 05c8 02FB1033 		mls	r3, r2, r0, r3
 1308              	.LBE62:
 138:Drivers/lvgl/src/draw/sw/lv_draw_sw_line.c **** 
 1309              		.loc 1 138 19 view .LVU503
 1310 05cc 217A     		ldrb	r1, [r4, #8]	@ zero_extendqisi2
 1311 05ce 8DF80011 		strb	r1, [sp, #256]
 1312              	.LBB63:
 155:Drivers/lvgl/src/draw/sw/lv_draw_sw_line.c ****         }
 1313              		.loc 1 155 24 view .LVU504
 1314 05d2 1BB2     		sxth	r3, r3
 151:Drivers/lvgl/src/draw/sw/lv_draw_sw_line.c **** 
 1315              		.loc 1 151 23 view .LVU505
 1316 05d4 BDF8BA10 		ldrh	r1, [sp, #186]
 155:Drivers/lvgl/src/draw/sw/lv_draw_sw_line.c ****         }
 1317              		.loc 1 155 24 view .LVU506
 1318 05d8 0593     		str	r3, [sp, #20]
 150:Drivers/lvgl/src/draw/sw/lv_draw_sw_line.c ****         blend_area.y2 = blend_area.y1;
 1319              		.loc 1 150 20 view .LVU507
 1320 05da BDF9BE30 		ldrsh	r3, [sp, #190]
 1321              	.LBE63:
 136:Drivers/lvgl/src/draw/sw/lv_draw_sw_line.c ****     blend_dsc.color = dsc->color;
 1322              		.loc 1 136 26 view .LVU508
ARM GAS  /var/folders/lp/x54gwt890xv47sdkqj1k04q40000gn/T//ccKYvMxP.s 			page 40


 1323 05de CDF8E890 		str	r9, [sp, #232]
 137:Drivers/lvgl/src/draw/sw/lv_draw_sw_line.c ****     blend_dsc.opa = dsc->opa;
 1324              		.loc 1 137 5 is_stmt 1 view .LVU509
 138:Drivers/lvgl/src/draw/sw/lv_draw_sw_line.c **** 
 1325              		.loc 1 138 5 view .LVU510
 141:Drivers/lvgl/src/draw/sw/lv_draw_sw_line.c ****         lv_draw_sw_blend(draw_ctx, &blend_dsc);
 1326              		.loc 1 141 5 view .LVU511
 1327              	.LBB64:
 148:Drivers/lvgl/src/draw/sw/lv_draw_sw_line.c **** 
 1328              		.loc 1 148 9 view .LVU512
 1329              	.LVL129:
 1330              	.LBB52:
 1331              	.LBI42:
 123:Drivers/lvgl/src/draw/sw/../../misc/lv_area.h **** {
 1332              		.loc 2 123 26 view .LVU513
 1333              	.LBB46:
 1334              		.loc 2 125 5 view .LVU514
 1335              		.loc 2 125 12 is_stmt 0 view .LVU515
 1336 05e2 36B2     		sxth	r6, r6
 1337              	.LVL130:
 1338              		.loc 2 125 12 view .LVU516
 1339              	.LBE46:
 1340              	.LBE52:
 150:Drivers/lvgl/src/draw/sw/lv_draw_sw_line.c ****         blend_area.y2 = blend_area.y1;
 1341              		.loc 1 150 9 is_stmt 1 view .LVU517
 150:Drivers/lvgl/src/draw/sw/lv_draw_sw_line.c ****         blend_area.y2 = blend_area.y1;
 1342              		.loc 1 150 20 is_stmt 0 view .LVU518
 1343 05e4 0493     		str	r3, [sp, #16]
 1344              	.LVL131:
 151:Drivers/lvgl/src/draw/sw/lv_draw_sw_line.c **** 
 1345              		.loc 1 151 9 is_stmt 1 view .LVU519
 151:Drivers/lvgl/src/draw/sw/lv_draw_sw_line.c **** 
 1346              		.loc 1 151 23 is_stmt 0 view .LVU520
 1347 05e6 ADF8BE10 		strh	r1, [sp, #190]	@ movhi
 153:Drivers/lvgl/src/draw/sw/lv_draw_sw_line.c ****         if(dashed) {
 1348              		.loc 1 153 9 is_stmt 1 view .LVU521
 1349              	.LVL132:
 154:Drivers/lvgl/src/draw/sw/lv_draw_sw_line.c ****             dash_start = (blend_area.x1) % (dsc->dash_gap + dsc->dash_width);
 1350              		.loc 1 154 9 view .LVU522
 155:Drivers/lvgl/src/draw/sw/lv_draw_sw_line.c ****         }
 1351              		.loc 1 155 13 view .LVU523
 155:Drivers/lvgl/src/draw/sw/lv_draw_sw_line.c ****         }
 1352              		.loc 1 155 13 is_stmt 0 view .LVU524
 1353              	.LBE64:
 129:Drivers/lvgl/src/draw/sw/lv_draw_sw_line.c ****     bool simple_mode = true;
 1354              		.loc 1 129 59 discriminator 3 view .LVU525
 1355 05ea 0127     		movs	r7, #1
 1356              	.LVL133:
 1357              	.L8:
 1358              	.LBB65:
 158:Drivers/lvgl/src/draw/sw/lv_draw_sw_line.c ****         blend_dsc.mask_buf = mask_buf;
 1359              		.loc 1 158 9 is_stmt 1 view .LVU526
 158:Drivers/lvgl/src/draw/sw/lv_draw_sw_line.c ****         blend_dsc.mask_buf = mask_buf;
 1360              		.loc 1 158 31 is_stmt 0 view .LVU527
 1361 05ec 3046     		mov	r0, r6
 1362 05ee FFF7FEFF 		bl	lv_mem_buf_get
 1363              	.LVL134:
ARM GAS  /var/folders/lp/x54gwt890xv47sdkqj1k04q40000gn/T//ccKYvMxP.s 			page 41


 162:Drivers/lvgl/src/draw/sw/lv_draw_sw_line.c ****             lv_memset_ff(mask_buf, blend_area_w);
 1364              		.loc 1 162 34 discriminator 1 view .LVU528
 1365 05f2 049B     		ldr	r3, [sp, #16]
 160:Drivers/lvgl/src/draw/sw/lv_draw_sw_line.c ****         int32_t h;
 1366              		.loc 1 160 29 view .LVU529
 1367 05f4 CDF8FC90 		str	r9, [sp, #252]
 162:Drivers/lvgl/src/draw/sw/lv_draw_sw_line.c ****             lv_memset_ff(mask_buf, blend_area_w);
 1368              		.loc 1 162 15 view .LVU530
 1369 05f8 BDF9BA90 		ldrsh	r9, [sp, #186]
 159:Drivers/lvgl/src/draw/sw/lv_draw_sw_line.c ****         blend_dsc.mask_area = &blend_area;
 1370              		.loc 1 159 28 view .LVU531
 1371 05fc 3D90     		str	r0, [sp, #244]
 162:Drivers/lvgl/src/draw/sw/lv_draw_sw_line.c ****             lv_memset_ff(mask_buf, blend_area_w);
 1372              		.loc 1 162 34 discriminator 1 view .LVU532
 1373 05fe 9945     		cmp	r9, r3
 158:Drivers/lvgl/src/draw/sw/lv_draw_sw_line.c ****         blend_dsc.mask_buf = mask_buf;
 1374              		.loc 1 158 31 view .LVU533
 1375 0600 8246     		mov	r10, r0
 1376              	.LVL135:
 159:Drivers/lvgl/src/draw/sw/lv_draw_sw_line.c ****         blend_dsc.mask_area = &blend_area;
 1377              		.loc 1 159 9 is_stmt 1 view .LVU534
 160:Drivers/lvgl/src/draw/sw/lv_draw_sw_line.c ****         int32_t h;
 1378              		.loc 1 160 9 view .LVU535
 161:Drivers/lvgl/src/draw/sw/lv_draw_sw_line.c ****         for(h = blend_area.y1; h <= y2; h++) {
 1379              		.loc 1 161 9 view .LVU536
 162:Drivers/lvgl/src/draw/sw/lv_draw_sw_line.c ****             lv_memset_ff(mask_buf, blend_area_w);
 1380              		.loc 1 162 9 view .LVU537
 162:Drivers/lvgl/src/draw/sw/lv_draw_sw_line.c ****             lv_memset_ff(mask_buf, blend_area_w);
 1381              		.loc 1 162 34 discriminator 1 view .LVU538
 1382 0602 62DC     		bgt	.L32
 1383 0604 CDF81880 		str	r8, [sp, #24]
 1384 0608 DDF81080 		ldr	r8, [sp, #16]
 1385              	.LVL136:
 162:Drivers/lvgl/src/draw/sw/lv_draw_sw_line.c ****             lv_memset_ff(mask_buf, blend_area_w);
 1386              		.loc 1 162 34 is_stmt 0 discriminator 1 view .LVU539
 1387 060c 11E0     		b	.L11
 1388              	.LVL137:
 1389              	.L12:
 188:Drivers/lvgl/src/draw/sw/lv_draw_sw_line.c **** 
 1390              		.loc 1 188 13 is_stmt 1 view .LVU540
 1391 060e 2946     		mov	r1, r5
 1392 0610 5846     		mov	r0, fp
 1393 0612 FFF7FEFF 		bl	lv_draw_sw_blend
 1394              	.LVL138:
 190:Drivers/lvgl/src/draw/sw/lv_draw_sw_line.c ****             blend_area.y2++;
 1395              		.loc 1 190 13 view .LVU541
 190:Drivers/lvgl/src/draw/sw/lv_draw_sw_line.c ****             blend_area.y2++;
 1396              		.loc 1 190 26 is_stmt 0 view .LVU542
 1397 0616 BDF8BA30 		ldrh	r3, [sp, #186]
 1398 061a 0133     		adds	r3, r3, #1
 1399 061c ADF8BA30 		strh	r3, [sp, #186]	@ movhi
 191:Drivers/lvgl/src/draw/sw/lv_draw_sw_line.c ****         }
 1400              		.loc 1 191 13 is_stmt 1 view .LVU543
 191:Drivers/lvgl/src/draw/sw/lv_draw_sw_line.c ****         }
 1401              		.loc 1 191 26 is_stmt 0 view .LVU544
 1402 0620 BDF8BE30 		ldrh	r3, [sp, #190]
 162:Drivers/lvgl/src/draw/sw/lv_draw_sw_line.c ****             lv_memset_ff(mask_buf, blend_area_w);
ARM GAS  /var/folders/lp/x54gwt890xv47sdkqj1k04q40000gn/T//ccKYvMxP.s 			page 42


 1403              		.loc 1 162 42 discriminator 2 view .LVU545
 1404 0624 09F10109 		add	r9, r9, #1
 1405              	.LVL139:
 191:Drivers/lvgl/src/draw/sw/lv_draw_sw_line.c ****         }
 1406              		.loc 1 191 26 view .LVU546
 1407 0628 0133     		adds	r3, r3, #1
 162:Drivers/lvgl/src/draw/sw/lv_draw_sw_line.c ****             lv_memset_ff(mask_buf, blend_area_w);
 1408              		.loc 1 162 34 discriminator 1 view .LVU547
 1409 062a C145     		cmp	r9, r8
 191:Drivers/lvgl/src/draw/sw/lv_draw_sw_line.c ****         }
 1410              		.loc 1 191 26 view .LVU548
 1411 062c ADF8BE30 		strh	r3, [sp, #190]	@ movhi
 162:Drivers/lvgl/src/draw/sw/lv_draw_sw_line.c ****             lv_memset_ff(mask_buf, blend_area_w);
 1412              		.loc 1 162 42 is_stmt 1 discriminator 2 view .LVU549
 1413              	.LVL140:
 162:Drivers/lvgl/src/draw/sw/lv_draw_sw_line.c ****             lv_memset_ff(mask_buf, blend_area_w);
 1414              		.loc 1 162 34 discriminator 1 view .LVU550
 1415 0630 49DC     		bgt	.L118
 1416              	.L11:
 163:Drivers/lvgl/src/draw/sw/lv_draw_sw_line.c ****             blend_dsc.mask_res = lv_draw_mask_apply(mask_buf, blend_area.x1, h, blend_area_w);
 1417              		.loc 1 163 13 view .LVU551
 1418 0632 3146     		mov	r1, r6
 1419 0634 5046     		mov	r0, r10
 1420 0636 FFF7FEFF 		bl	lv_memset_ff
 1421              	.LVL141:
 164:Drivers/lvgl/src/draw/sw/lv_draw_sw_line.c **** 
 1422              		.loc 1 164 13 view .LVU552
 164:Drivers/lvgl/src/draw/sw/lv_draw_sw_line.c **** 
 1423              		.loc 1 164 34 is_stmt 0 view .LVU553
 1424 063a BDF9B810 		ldrsh	r1, [sp, #184]
 1425 063e 3346     		mov	r3, r6
 1426 0640 0FFA89F2 		sxth	r2, r9
 1427 0644 5046     		mov	r0, r10
 1428 0646 FFF7FEFF 		bl	lv_draw_mask_apply
 1429              	.LVL142:
 164:Drivers/lvgl/src/draw/sw/lv_draw_sw_line.c **** 
 1430              		.loc 1 164 32 discriminator 1 view .LVU554
 1431 064a 8DF8F800 		strb	r0, [sp, #248]
 166:Drivers/lvgl/src/draw/sw/lv_draw_sw_line.c ****                 if(blend_dsc.mask_res != LV_DRAW_MASK_RES_TRANSP) {
 1432              		.loc 1 166 13 is_stmt 1 view .LVU555
 166:Drivers/lvgl/src/draw/sw/lv_draw_sw_line.c ****                 if(blend_dsc.mask_res != LV_DRAW_MASK_RES_TRANSP) {
 1433              		.loc 1 166 15 is_stmt 0 view .LVU556
 1434 064e 002F     		cmp	r7, #0
 1435 0650 DDD0     		beq	.L12
 167:Drivers/lvgl/src/draw/sw/lv_draw_sw_line.c ****                     lv_coord_t dash_cnt = dash_start;
 1436              		.loc 1 167 17 is_stmt 1 view .LVU557
 167:Drivers/lvgl/src/draw/sw/lv_draw_sw_line.c ****                     lv_coord_t dash_cnt = dash_start;
 1437              		.loc 1 167 19 is_stmt 0 view .LVU558
 1438 0652 0028     		cmp	r0, #0
 1439 0654 DBD0     		beq	.L12
 1440              	.LVL143:
 1441              	.LBB53:
 170:Drivers/lvgl/src/draw/sw/lv_draw_sw_line.c ****                         if(dash_cnt <= dsc->dash_width) {
 1442              		.loc 1 170 34 is_stmt 1 discriminator 1 view .LVU559
 1443 0656 002E     		cmp	r6, #0
 1444 0658 40F3EA80 		ble	.L16
 168:Drivers/lvgl/src/draw/sw/lv_draw_sw_line.c ****                     lv_coord_t i;
ARM GAS  /var/folders/lp/x54gwt890xv47sdkqj1k04q40000gn/T//ccKYvMxP.s 			page 43


 1445              		.loc 1 168 32 is_stmt 0 view .LVU560
 1446 065c 0599     		ldr	r1, [sp, #20]
 170:Drivers/lvgl/src/draw/sw/lv_draw_sw_line.c ****                         if(dash_cnt <= dsc->dash_width) {
 1447              		.loc 1 170 27 view .LVU561
 1448 065e 0022     		movs	r2, #0
 1449 0660 07E0     		b	.L13
 1450              	.LVL144:
 1451              	.L119:
 1452              	.LBB54:
 173:Drivers/lvgl/src/draw/sw/lv_draw_sw_line.c ****                             dash_cnt += diff;
 1453              		.loc 1 173 31 view .LVU562
 1454 0662 1FFA8EF3 		uxth	r3, lr
 1455              	.LVL145:
 174:Drivers/lvgl/src/draw/sw/lv_draw_sw_line.c ****                         }
 1456              		.loc 1 174 29 is_stmt 1 view .LVU563
 174:Drivers/lvgl/src/draw/sw/lv_draw_sw_line.c ****                         }
 1457              		.loc 1 174 29 is_stmt 0 view .LVU564
 1458              	.LBE54:
 170:Drivers/lvgl/src/draw/sw/lv_draw_sw_line.c ****                         if(dash_cnt <= dsc->dash_width) {
 1459              		.loc 1 170 63 discriminator 2 view .LVU565
 1460 0666 01B2     		sxth	r1, r0
 1461              	.LVL146:
 1462              	.L15:
 170:Drivers/lvgl/src/draw/sw/lv_draw_sw_line.c ****                         if(dash_cnt <= dsc->dash_width) {
 1463              		.loc 1 170 53 is_stmt 1 discriminator 2 view .LVU566
 170:Drivers/lvgl/src/draw/sw/lv_draw_sw_line.c ****                         if(dash_cnt <= dsc->dash_width) {
 1464              		.loc 1 170 51 is_stmt 0 discriminator 2 view .LVU567
 1465 0668 0133     		adds	r3, r3, #1
 1466 066a 1AB2     		sxth	r2, r3
 1467              	.LVL147:
 170:Drivers/lvgl/src/draw/sw/lv_draw_sw_line.c ****                         if(dash_cnt <= dsc->dash_width) {
 1468              		.loc 1 170 34 is_stmt 1 discriminator 1 view .LVU568
 1469 066c B242     		cmp	r2, r6
 1470 066e 80F2DF80 		bge	.L16
 1471              	.LVL148:
 1472              	.L13:
 171:Drivers/lvgl/src/draw/sw/lv_draw_sw_line.c ****                             int16_t diff = dsc->dash_width - dash_cnt;
 1473              		.loc 1 171 25 view .LVU569
 1474              	.LBB55:
 172:Drivers/lvgl/src/draw/sw/lv_draw_sw_line.c ****                             i += diff;
 1475              		.loc 1 172 29 view .LVU570
 1476              	.LBE55:
 176:Drivers/lvgl/src/draw/sw/lv_draw_sw_line.c ****                             dash_cnt = 0;
 1477              		.loc 1 176 30 view .LVU571
 171:Drivers/lvgl/src/draw/sw/lv_draw_sw_line.c ****                             int16_t diff = dsc->dash_width - dash_cnt;
 1478              		.loc 1 171 43 is_stmt 0 view .LVU572
 1479 0672 B4F904C0 		ldrsh	ip, [r4, #4]
 1480              	.LBB56:
 173:Drivers/lvgl/src/draw/sw/lv_draw_sw_line.c ****                             dash_cnt += diff;
 1481              		.loc 1 173 31 view .LVU573
 1482 0676 93B2     		uxth	r3, r2
 172:Drivers/lvgl/src/draw/sw/lv_draw_sw_line.c ****                             i += diff;
 1483              		.loc 1 172 47 view .LVU574
 1484 0678 1FFA8CF0 		uxth	r0, ip
 1485              	.LVL149:
 173:Drivers/lvgl/src/draw/sw/lv_draw_sw_line.c ****                             dash_cnt += diff;
 1486              		.loc 1 173 29 is_stmt 1 view .LVU575
ARM GAS  /var/folders/lp/x54gwt890xv47sdkqj1k04q40000gn/T//ccKYvMxP.s 			page 44


 173:Drivers/lvgl/src/draw/sw/lv_draw_sw_line.c ****                             dash_cnt += diff;
 1487              		.loc 1 173 31 is_stmt 0 view .LVU576
 1488 067c 00EB030E 		add	lr, r0, r3
 1489              	.LBE56:
 171:Drivers/lvgl/src/draw/sw/lv_draw_sw_line.c ****                             int16_t diff = dsc->dash_width - dash_cnt;
 1490              		.loc 1 171 27 view .LVU577
 1491 0680 8C45     		cmp	ip, r1
 1492              	.LBB57:
 173:Drivers/lvgl/src/draw/sw/lv_draw_sw_line.c ****                             dash_cnt += diff;
 1493              		.loc 1 173 31 view .LVU578
 1494 0682 AEEB010E 		sub	lr, lr, r1
 1495              	.LBE57:
 170:Drivers/lvgl/src/draw/sw/lv_draw_sw_line.c ****                         if(dash_cnt <= dsc->dash_width) {
 1496              		.loc 1 170 63 discriminator 2 view .LVU579
 1497 0686 00F10100 		add	r0, r0, #1
 1498              	.LVL150:
 171:Drivers/lvgl/src/draw/sw/lv_draw_sw_line.c ****                             int16_t diff = dsc->dash_width - dash_cnt;
 1499              		.loc 1 171 27 view .LVU580
 1500 068a EADA     		bge	.L119
 180:Drivers/lvgl/src/draw/sw/lv_draw_sw_line.c ****                         }
 1501              		.loc 1 180 29 is_stmt 1 view .LVU581
 176:Drivers/lvgl/src/draw/sw/lv_draw_sw_line.c ****                             dash_cnt = 0;
 1502              		.loc 1 176 48 is_stmt 0 view .LVU582
 1503 068c B4F90600 		ldrsh	r0, [r4, #6]
 1504              	.LVL151:
 176:Drivers/lvgl/src/draw/sw/lv_draw_sw_line.c ****                             dash_cnt = 0;
 1505              		.loc 1 176 59 view .LVU583
 1506 0690 6044     		add	r0, r0, ip
 176:Drivers/lvgl/src/draw/sw/lv_draw_sw_line.c ****                             dash_cnt = 0;
 1507              		.loc 1 176 32 view .LVU584
 1508 0692 8142     		cmp	r1, r0
 180:Drivers/lvgl/src/draw/sw/lv_draw_sw_line.c ****                         }
 1509              		.loc 1 180 41 view .LVU585
 1510 0694 B8BF     		it	lt
 1511 0696 0020     		movlt	r0, #0
 170:Drivers/lvgl/src/draw/sw/lv_draw_sw_line.c ****                         if(dash_cnt <= dsc->dash_width) {
 1512              		.loc 1 170 63 discriminator 2 view .LVU586
 1513 0698 01F10101 		add	r1, r1, #1
 1514              	.LVL152:
 180:Drivers/lvgl/src/draw/sw/lv_draw_sw_line.c ****                         }
 1515              		.loc 1 180 41 view .LVU587
 1516 069c BABF     		itte	lt
 1517 069e 0AF80200 		strblt	r0, [r10, r2]
 170:Drivers/lvgl/src/draw/sw/lv_draw_sw_line.c ****                         if(dash_cnt <= dsc->dash_width) {
 1518              		.loc 1 170 63 discriminator 2 view .LVU588
 1519 06a2 09B2     		sxthlt	r1, r1
 1520              	.LVL153:
 170:Drivers/lvgl/src/draw/sw/lv_draw_sw_line.c ****                         if(dash_cnt <= dsc->dash_width) {
 1521              		.loc 1 170 63 discriminator 2 view .LVU589
 1522 06a4 0121     		movge	r1, #1
 1523 06a6 DFE7     		b	.L15
 1524              	.LVL154:
 1525              	.L38:
 170:Drivers/lvgl/src/draw/sw/lv_draw_sw_line.c ****                         if(dash_cnt <= dsc->dash_width) {
 1526              		.loc 1 170 63 discriminator 2 view .LVU590
 1527              	.LBE53:
 1528              	.LBE65:
ARM GAS  /var/folders/lp/x54gwt890xv47sdkqj1k04q40000gn/T//ccKYvMxP.s 			page 45


 1529              	.LBE69:
 1530              	.LBE104:
 1531              	.LBB105:
 1532              	.LBB78:
 344:Drivers/lvgl/src/draw/sw/lv_draw_sw_line.c ****                                           LV_DRAW_MASK_LINE_SIDE_LEFT);
 1533              		.loc 1 344 13 is_stmt 1 view .LVU591
 1534 06a8 059B     		ldr	r3, [sp, #20]
 1535 06aa 0093     		str	r3, [sp]
 1536 06ac 18AB     		add	r3, sp, #96
 1537 06ae 1846     		mov	r0, r3
 1538 06b0 0693     		str	r3, [sp, #24]
 1539 06b2 0023     		movs	r3, #0
 1540 06b4 049A     		ldr	r2, [sp, #16]
 1541 06b6 0193     		str	r3, [sp, #4]
 1542 06b8 4946     		mov	r1, r9
 1543 06ba 5346     		mov	r3, r10
 1544 06bc FFF7FEFF 		bl	lv_draw_mask_line_points_init
 1545              	.LVL155:
 346:Drivers/lvgl/src/draw/sw/lv_draw_sw_line.c ****                                           LV_DRAW_MASK_LINE_SIDE_RIGHT);
 1546              		.loc 1 346 13 view .LVU592
 1547 06c0 079A     		ldr	r2, [sp, #28]
 1548 06c2 0095     		str	r5, [sp]
 1549 06c4 80E5     		b	.L106
 1550              	.LVL156:
 1551              	.L118:
 346:Drivers/lvgl/src/draw/sw/lv_draw_sw_line.c ****                                           LV_DRAW_MASK_LINE_SIDE_RIGHT);
 1552              		.loc 1 346 13 is_stmt 0 view .LVU593
 1553              	.LBE78:
 1554              	.LBE105:
 1555              	.LBB106:
 1556              	.LBB70:
 1557              	.LBB66:
 1558 06c6 DDF81880 		ldr	r8, [sp, #24]
 1559              	.LVL157:
 1560              	.L32:
 346:Drivers/lvgl/src/draw/sw/lv_draw_sw_line.c ****                                           LV_DRAW_MASK_LINE_SIDE_RIGHT);
 1561              		.loc 1 346 13 view .LVU594
 1562              	.LBE66:
 1563              	.LBE70:
 1564              	.LBE106:
 1565              	.LBB107:
 1566              	.LBB101:
 1567              	.LBB99:
 273:Drivers/lvgl/src/draw/sw/lv_draw_sw_line.c ****     }
 1568              		.loc 1 273 9 is_stmt 1 view .LVU595
 1569 06ca 5046     		mov	r0, r10
 1570 06cc FFF7FEFF 		bl	lv_mem_buf_release
 1571              	.LVL158:
 1572 06d0 3EE6     		b	.L6
 1573              	.LVL159:
 1574              	.L20:
 273:Drivers/lvgl/src/draw/sw/lv_draw_sw_line.c ****     }
 1575              		.loc 1 273 9 is_stmt 0 view .LVU596
 1576              	.LBE99:
 216:Drivers/lvgl/src/draw/sw/lv_draw_sw_line.c ****     if(lv_draw_mask_is_any(&blend_area)) simple_mode = false;
 1577              		.loc 1 216 5 is_stmt 1 view .LVU597
 217:Drivers/lvgl/src/draw/sw/lv_draw_sw_line.c ****     else if(dashed) simple_mode = false;
ARM GAS  /var/folders/lp/x54gwt890xv47sdkqj1k04q40000gn/T//ccKYvMxP.s 			page 46


 1578              		.loc 1 217 5 view .LVU598
 217:Drivers/lvgl/src/draw/sw/lv_draw_sw_line.c ****     else if(dashed) simple_mode = false;
 1579              		.loc 1 217 8 is_stmt 0 view .LVU599
 1580 06d2 FFF7FEFF 		bl	lv_draw_mask_is_any
 1581              	.LVL160:
 221:Drivers/lvgl/src/draw/sw/lv_draw_sw_line.c ****     blend_dsc.blend_area = &blend_area;
 1582              		.loc 1 221 5 view .LVU600
 1583 06d6 3AAD     		add	r5, sp, #232
 217:Drivers/lvgl/src/draw/sw/lv_draw_sw_line.c ****     else if(dashed) simple_mode = false;
 1584              		.loc 1 217 8 view .LVU601
 1585 06d8 0646     		mov	r6, r0
 1586              	.LVL161:
 220:Drivers/lvgl/src/draw/sw/lv_draw_sw_line.c ****     lv_memset_00(&blend_dsc, sizeof(blend_dsc));
 1587              		.loc 1 220 5 is_stmt 1 view .LVU602
 221:Drivers/lvgl/src/draw/sw/lv_draw_sw_line.c ****     blend_dsc.blend_area = &blend_area;
 1588              		.loc 1 221 5 view .LVU603
 1589 06da 1C21     		movs	r1, #28
 1590 06dc 2846     		mov	r0, r5
 1591 06de FFF7FEFF 		bl	lv_memset_00
 1592              	.LVL162:
 222:Drivers/lvgl/src/draw/sw/lv_draw_sw_line.c ****     blend_dsc.color = dsc->color;
 1593              		.loc 1 222 5 view .LVU604
 223:Drivers/lvgl/src/draw/sw/lv_draw_sw_line.c ****     blend_dsc.opa = dsc->opa;
 1594              		.loc 1 223 21 is_stmt 0 view .LVU605
 1595 06e2 2388     		ldrh	r3, [r4]
 1596 06e4 ADF8F030 		strh	r3, [sp, #240]	@ movhi
 224:Drivers/lvgl/src/draw/sw/lv_draw_sw_line.c **** 
 1597              		.loc 1 224 19 view .LVU606
 1598 06e8 237A     		ldrb	r3, [r4, #8]	@ zero_extendqisi2
 222:Drivers/lvgl/src/draw/sw/lv_draw_sw_line.c ****     blend_dsc.color = dsc->color;
 1599              		.loc 1 222 26 view .LVU607
 1600 06ea CDF8E890 		str	r9, [sp, #232]
 223:Drivers/lvgl/src/draw/sw/lv_draw_sw_line.c ****     blend_dsc.opa = dsc->opa;
 1601              		.loc 1 223 5 is_stmt 1 view .LVU608
 224:Drivers/lvgl/src/draw/sw/lv_draw_sw_line.c **** 
 1602              		.loc 1 224 5 view .LVU609
 224:Drivers/lvgl/src/draw/sw/lv_draw_sw_line.c **** 
 1603              		.loc 1 224 19 is_stmt 0 view .LVU610
 1604 06ee 8DF80031 		strb	r3, [sp, #256]
 227:Drivers/lvgl/src/draw/sw/lv_draw_sw_line.c ****         lv_draw_sw_blend(draw_ctx, &blend_dsc);
 1605              		.loc 1 227 5 is_stmt 1 view .LVU611
 227:Drivers/lvgl/src/draw/sw/lv_draw_sw_line.c ****         lv_draw_sw_blend(draw_ctx, &blend_dsc);
 1606              		.loc 1 227 7 is_stmt 0 view .LVU612
 1607 06f2 002E     		cmp	r6, #0
 1608 06f4 40F0A580 		bne	.L120
 1609              	.LVL163:
 1610              	.L102:
 228:Drivers/lvgl/src/draw/sw/lv_draw_sw_line.c ****     }
 1611              		.loc 1 228 9 is_stmt 1 view .LVU613
 1612 06f8 2946     		mov	r1, r5
 1613 06fa 5846     		mov	r0, fp
 1614 06fc FFF7FEFF 		bl	lv_draw_sw_blend
 1615              	.LVL164:
 1616 0700 26E6     		b	.L6
 1617              	.LVL165:
 1618              	.L111:
 228:Drivers/lvgl/src/draw/sw/lv_draw_sw_line.c ****     }
ARM GAS  /var/folders/lp/x54gwt890xv47sdkqj1k04q40000gn/T//ccKYvMxP.s 			page 47


 1619              		.loc 1 228 9 is_stmt 0 view .LVU614
 1620              	.LBE101:
 1621              	.LBE107:
 1622              	.LBB108:
 1623              	.LBB79:
 379:Drivers/lvgl/src/draw/sw/lv_draw_sw_line.c ****     lv_opa_t * mask_buf = lv_mem_buf_get(mask_buf_size);
 1624              		.loc 1 379 28 discriminator 1 view .LVU615
 1625 0702 0EA8     		add	r0, sp, #56
 1626 0704 FFF7FEFF 		bl	lv_area_get_size
 1627              	.LVL166:
 1628 0708 8146     		mov	r9, r0
 1629              	.LVL167:
 379:Drivers/lvgl/src/draw/sw/lv_draw_sw_line.c ****     lv_opa_t * mask_buf = lv_mem_buf_get(mask_buf_size);
 1630              		.loc 1 379 28 discriminator 1 view .LVU616
 1631 070a 8BE5     		b	.L41
 1632              	.LVL168:
 1633              	.L37:
 351:Drivers/lvgl/src/draw/sw/lv_draw_sw_line.c ****                                       LV_DRAW_MASK_LINE_SIDE_LEFT);
 1634              		.loc 1 351 9 is_stmt 1 view .LVU617
 351:Drivers/lvgl/src/draw/sw/lv_draw_sw_line.c ****                                       LV_DRAW_MASK_LINE_SIDE_LEFT);
 1635              		.loc 1 351 59 is_stmt 0 view .LVU618
 1636 070c 1FFA89F2 		uxth	r2, r9
 351:Drivers/lvgl/src/draw/sw/lv_draw_sw_line.c ****                                       LV_DRAW_MASK_LINE_SIDE_LEFT);
 1637              		.loc 1 351 81 view .LVU619
 1638 0710 1FFA8AF3 		uxth	r3, r10
 351:Drivers/lvgl/src/draw/sw/lv_draw_sw_line.c ****                                       LV_DRAW_MASK_LINE_SIDE_LEFT);
 1639              		.loc 1 351 84 view .LVU620
 1640 0714 0593     		str	r3, [sp, #20]
 1641              	.LVL169:
 351:Drivers/lvgl/src/draw/sw/lv_draw_sw_line.c ****                                       LV_DRAW_MASK_LINE_SIDE_LEFT);
 1642              		.loc 1 351 62 view .LVU621
 1643 0716 0492     		str	r2, [sp, #16]
 1644              	.LVL170:
 351:Drivers/lvgl/src/draw/sw/lv_draw_sw_line.c ****                                       LV_DRAW_MASK_LINE_SIDE_LEFT);
 1645              		.loc 1 351 84 view .LVU622
 1646 0718 0B44     		add	r3, r3, r1
 351:Drivers/lvgl/src/draw/sw/lv_draw_sw_line.c ****                                       LV_DRAW_MASK_LINE_SIDE_LEFT);
 1647              		.loc 1 351 62 view .LVU623
 1648 071a 1144     		add	r1, r1, r2
 351:Drivers/lvgl/src/draw/sw/lv_draw_sw_line.c ****                                       LV_DRAW_MASK_LINE_SIDE_LEFT);
 1649              		.loc 1 351 9 view .LVU624
 1650 071c 0022     		movs	r2, #0
 1651 071e 18A8     		add	r0, sp, #96
 1652              	.LVL171:
 351:Drivers/lvgl/src/draw/sw/lv_draw_sw_line.c ****                                       LV_DRAW_MASK_LINE_SIDE_LEFT);
 1653              		.loc 1 351 9 view .LVU625
 1654 0720 0192     		str	r2, [sp, #4]
 1655 0722 0096     		str	r6, [sp]
 1656 0724 3A46     		mov	r2, r7
 1657 0726 1BB2     		sxth	r3, r3
 1658 0728 09B2     		sxth	r1, r1
 1659 072a 0690     		str	r0, [sp, #24]
 1660 072c FFF7FEFF 		bl	lv_draw_mask_line_points_init
 1661              	.LVL172:
 353:Drivers/lvgl/src/draw/sw/lv_draw_sw_line.c ****                                       LV_DRAW_MASK_LINE_SIDE_RIGHT);
 1662              		.loc 1 353 9 is_stmt 1 view .LVU626
 353:Drivers/lvgl/src/draw/sw/lv_draw_sw_line.c ****                                       LV_DRAW_MASK_LINE_SIDE_RIGHT);
ARM GAS  /var/folders/lp/x54gwt890xv47sdkqj1k04q40000gn/T//ccKYvMxP.s 			page 48


 1663              		.loc 1 353 63 is_stmt 0 view .LVU627
 1664 0730 049A     		ldr	r2, [sp, #16]
 353:Drivers/lvgl/src/draw/sw/lv_draw_sw_line.c ****                                       LV_DRAW_MASK_LINE_SIDE_RIGHT);
 1665              		.loc 1 353 85 view .LVU628
 1666 0732 059B     		ldr	r3, [sp, #20]
 353:Drivers/lvgl/src/draw/sw/lv_draw_sw_line.c ****                                       LV_DRAW_MASK_LINE_SIDE_RIGHT);
 1667              		.loc 1 353 9 view .LVU629
 1668 0734 0096     		str	r6, [sp]
 353:Drivers/lvgl/src/draw/sw/lv_draw_sw_line.c ****                                       LV_DRAW_MASK_LINE_SIDE_RIGHT);
 1669              		.loc 1 353 63 view .LVU630
 1670 0736 511B     		subs	r1, r2, r5
 353:Drivers/lvgl/src/draw/sw/lv_draw_sw_line.c ****                                       LV_DRAW_MASK_LINE_SIDE_RIGHT);
 1671              		.loc 1 353 9 view .LVU631
 1672 0738 23AA     		add	r2, sp, #140
 353:Drivers/lvgl/src/draw/sw/lv_draw_sw_line.c ****                                       LV_DRAW_MASK_LINE_SIDE_RIGHT);
 1673              		.loc 1 353 85 view .LVU632
 1674 073a 5B1B     		subs	r3, r3, r5
 353:Drivers/lvgl/src/draw/sw/lv_draw_sw_line.c ****                                       LV_DRAW_MASK_LINE_SIDE_RIGHT);
 1675              		.loc 1 353 9 view .LVU633
 1676 073c 1046     		mov	r0, r2
 1677 073e 0792     		str	r2, [sp, #28]
 1678 0740 0122     		movs	r2, #1
 1679 0742 0192     		str	r2, [sp, #4]
 1680 0744 1BB2     		sxth	r3, r3
 1681 0746 09B2     		sxth	r1, r1
 1682 0748 3A46     		mov	r2, r7
 1683 074a FFF7FEFF 		bl	lv_draw_mask_line_points_init
 1684              	.LVL173:
 1685 074e 44E5     		b	.L39
 1686              	.LVL174:
 1687              	.L110:
 365:Drivers/lvgl/src/draw/sw/lv_draw_sw_line.c ****         lv_draw_mask_line_points_init(&mask_bottom_param, p2.x, p2.y, p2.x - ydiff, p2.y + xdiff,  
 1688              		.loc 1 365 9 is_stmt 1 view .LVU634
 365:Drivers/lvgl/src/draw/sw/lv_draw_sw_line.c ****         lv_draw_mask_line_points_init(&mask_bottom_param, p2.x, p2.y, p2.x - ydiff, p2.y + xdiff,  
 1689              		.loc 1 365 87 is_stmt 0 view .LVU635
 1690 0750 BDF82030 		ldrh	r3, [sp, #32]
 365:Drivers/lvgl/src/draw/sw/lv_draw_sw_line.c ****         lv_draw_mask_line_points_init(&mask_bottom_param, p2.x, p2.y, p2.x - ydiff, p2.y + xdiff,  
 1691              		.loc 1 365 73 view .LVU636
 1692 0754 BDF82C10 		ldrh	r1, [sp, #44]
 365:Drivers/lvgl/src/draw/sw/lv_draw_sw_line.c ****         lv_draw_mask_line_points_init(&mask_bottom_param, p2.x, p2.y, p2.x - ydiff, p2.y + xdiff,  
 1693              		.loc 1 365 87 view .LVU637
 1694 0758 0493     		str	r3, [sp, #16]
 1695 075a 3B44     		add	r3, r3, r7
 365:Drivers/lvgl/src/draw/sw/lv_draw_sw_line.c ****         lv_draw_mask_line_points_init(&mask_bottom_param, p2.x, p2.y, p2.x - ydiff, p2.y + xdiff,  
 1696              		.loc 1 365 9 view .LVU638
 1697 075c 1BB2     		sxth	r3, r3
 1698 075e 0093     		str	r3, [sp]
 1699 0760 0320     		movs	r0, #3
 365:Drivers/lvgl/src/draw/sw/lv_draw_sw_line.c ****         lv_draw_mask_line_points_init(&mask_bottom_param, p2.x, p2.y, p2.x - ydiff, p2.y + xdiff,  
 1700              		.loc 1 365 73 view .LVU639
 1701 0762 A9EB0103 		sub	r3, r9, r1
 365:Drivers/lvgl/src/draw/sw/lv_draw_sw_line.c ****         lv_draw_mask_line_points_init(&mask_bottom_param, p2.x, p2.y, p2.x - ydiff, p2.y + xdiff,  
 1702              		.loc 1 365 9 view .LVU640
 1703 0766 3A46     		mov	r2, r7
 1704 0768 1BB2     		sxth	r3, r3
 365:Drivers/lvgl/src/draw/sw/lv_draw_sw_line.c ****         lv_draw_mask_line_points_init(&mask_bottom_param, p2.x, p2.y, p2.x - ydiff, p2.y + xdiff,  
 1705              		.loc 1 365 73 view .LVU641
ARM GAS  /var/folders/lp/x54gwt890xv47sdkqj1k04q40000gn/T//ccKYvMxP.s 			page 49


 1706 076a 0F46     		mov	r7, r1
 1707              	.LVL175:
 365:Drivers/lvgl/src/draw/sw/lv_draw_sw_line.c ****         lv_draw_mask_line_points_init(&mask_bottom_param, p2.x, p2.y, p2.x - ydiff, p2.y + xdiff,  
 1708              		.loc 1 365 9 view .LVU642
 1709 076c 0190     		str	r0, [sp, #4]
 1710 076e 4946     		mov	r1, r9
 1711 0770 2EA8     		add	r0, sp, #184
 1712 0772 FFF7FEFF 		bl	lv_draw_mask_line_points_init
 1713              	.LVL176:
 366:Drivers/lvgl/src/draw/sw/lv_draw_sw_line.c ****         mask_top_id = lv_draw_mask_add(&mask_top_param, NULL);
 1714              		.loc 1 366 9 is_stmt 1 view .LVU643
 366:Drivers/lvgl/src/draw/sw/lv_draw_sw_line.c ****         mask_top_id = lv_draw_mask_add(&mask_top_param, NULL);
 1715              		.loc 1 366 90 is_stmt 0 view .LVU644
 1716 0776 049B     		ldr	r3, [sp, #16]
 1717 0778 9A19     		adds	r2, r3, r6
 366:Drivers/lvgl/src/draw/sw/lv_draw_sw_line.c ****         mask_top_id = lv_draw_mask_add(&mask_top_param, NULL);
 1718              		.loc 1 366 9 view .LVU645
 1719 077a 12B2     		sxth	r2, r2
 1720 077c 0220     		movs	r0, #2
 366:Drivers/lvgl/src/draw/sw/lv_draw_sw_line.c ****         mask_top_id = lv_draw_mask_add(&mask_top_param, NULL);
 1721              		.loc 1 366 76 view .LVU646
 1722 077e AAEB0703 		sub	r3, r10, r7
 366:Drivers/lvgl/src/draw/sw/lv_draw_sw_line.c ****         mask_top_id = lv_draw_mask_add(&mask_top_param, NULL);
 1723              		.loc 1 366 9 view .LVU647
 1724 0782 1BB2     		sxth	r3, r3
 1725 0784 0092     		str	r2, [sp]
 1726 0786 5146     		mov	r1, r10
 1727 0788 3246     		mov	r2, r6
 1728 078a 0190     		str	r0, [sp, #4]
 1729 078c 3AA8     		add	r0, sp, #232
 1730 078e FFF7FEFF 		bl	lv_draw_mask_line_points_init
 1731              	.LVL177:
 367:Drivers/lvgl/src/draw/sw/lv_draw_sw_line.c ****         mask_bottom_id = lv_draw_mask_add(&mask_bottom_param, NULL);
 1732              		.loc 1 367 9 is_stmt 1 view .LVU648
 367:Drivers/lvgl/src/draw/sw/lv_draw_sw_line.c ****         mask_bottom_id = lv_draw_mask_add(&mask_bottom_param, NULL);
 1733              		.loc 1 367 23 is_stmt 0 view .LVU649
 1734 0792 2946     		mov	r1, r5
 1735 0794 2EA8     		add	r0, sp, #184
 1736 0796 FFF7FEFF 		bl	lv_draw_mask_add
 1737              	.LVL178:
 368:Drivers/lvgl/src/draw/sw/lv_draw_sw_line.c ****     }
 1738              		.loc 1 368 26 view .LVU650
 1739 079a 2946     		mov	r1, r5
 367:Drivers/lvgl/src/draw/sw/lv_draw_sw_line.c ****         mask_bottom_id = lv_draw_mask_add(&mask_bottom_param, NULL);
 1740              		.loc 1 367 23 view .LVU651
 1741 079c 0490     		str	r0, [sp, #16]
 1742              	.LVL179:
 368:Drivers/lvgl/src/draw/sw/lv_draw_sw_line.c ****     }
 1743              		.loc 1 368 9 is_stmt 1 view .LVU652
 368:Drivers/lvgl/src/draw/sw/lv_draw_sw_line.c ****     }
 1744              		.loc 1 368 26 is_stmt 0 view .LVU653
 1745 079e 3AA8     		add	r0, sp, #232
 1746 07a0 FFF7FEFF 		bl	lv_draw_mask_add
 1747              	.LVL180:
 1748 07a4 0590     		str	r0, [sp, #20]
 1749              	.LVL181:
 368:Drivers/lvgl/src/draw/sw/lv_draw_sw_line.c ****     }
ARM GAS  /var/folders/lp/x54gwt890xv47sdkqj1k04q40000gn/T//ccKYvMxP.s 			page 50


 1750              		.loc 1 368 26 view .LVU654
 1751 07a6 2BE5     		b	.L40
 1752              	.LVL182:
 1753              	.L117:
 368:Drivers/lvgl/src/draw/sw/lv_draw_sw_line.c ****     }
 1754              		.loc 1 368 26 view .LVU655
 1755              	.LBE79:
 1756              	.LBE108:
 1757              	.LBB109:
  88:Drivers/lvgl/src/draw/sw/lv_draw_sw_line.c ****             cir_area.y1 = point1->y - r;
 1758              		.loc 1 88 13 is_stmt 1 view .LVU656
  88:Drivers/lvgl/src/draw/sw/lv_draw_sw_line.c ****             cir_area.y1 = point1->y - r;
 1759              		.loc 1 88 33 is_stmt 0 view .LVU657
 1760 07a8 029B     		ldr	r3, [sp, #8]
 1761 07aa 1888     		ldrh	r0, [r3]
  89:Drivers/lvgl/src/draw/sw/lv_draw_sw_line.c ****             cir_area.x2 = point1->x + r - r_corr;
 1762              		.loc 1 89 33 view .LVU658
 1763 07ac 5988     		ldrh	r1, [r3, #2]
  88:Drivers/lvgl/src/draw/sw/lv_draw_sw_line.c ****             cir_area.y1 = point1->y - r;
 1764              		.loc 1 88 37 view .LVU659
 1765 07ae BBB2     		uxth	r3, r7
  89:Drivers/lvgl/src/draw/sw/lv_draw_sw_line.c ****             cir_area.x2 = point1->x + r - r_corr;
 1766              		.loc 1 89 13 is_stmt 1 view .LVU660
  90:Drivers/lvgl/src/draw/sw/lv_draw_sw_line.c ****             cir_area.y2 = point1->y + r - r_corr ;
 1767              		.loc 1 90 13 view .LVU661
  91:Drivers/lvgl/src/draw/sw/lv_draw_sw_line.c ****             lv_draw_rect(draw_ctx, &cir_dsc, &cir_area);
 1768              		.loc 1 91 13 view .LVU662
  90:Drivers/lvgl/src/draw/sw/lv_draw_sw_line.c ****             cir_area.y2 = point1->y + r - r_corr ;
 1769              		.loc 1 90 37 is_stmt 0 view .LVU663
 1770 07b0 00EB030E 		add	lr, r0, r3
  88:Drivers/lvgl/src/draw/sw/lv_draw_sw_line.c ****             cir_area.y1 = point1->y - r;
 1771              		.loc 1 88 37 view .LVU664
 1772 07b4 0022     		movs	r2, #0
 1773 07b6 C01A     		subs	r0, r0, r3
  90:Drivers/lvgl/src/draw/sw/lv_draw_sw_line.c ****             cir_area.y2 = point1->y + r - r_corr ;
 1774              		.loc 1 90 41 view .LVU665
 1775 07b8 AEEB060E 		sub	lr, lr, r6
  88:Drivers/lvgl/src/draw/sw/lv_draw_sw_line.c ****             cir_area.y1 = point1->y - r;
 1776              		.loc 1 88 37 view .LVU666
 1777 07bc 9446     		mov	ip, r2
 1778 07be 60F30F02 		bfi	r2, r0, #0, #16
  91:Drivers/lvgl/src/draw/sw/lv_draw_sw_line.c ****             lv_draw_rect(draw_ctx, &cir_dsc, &cir_area);
 1779              		.loc 1 91 37 view .LVU667
 1780 07c2 5818     		adds	r0, r3, r1
  89:Drivers/lvgl/src/draw/sw/lv_draw_sw_line.c ****             cir_area.x2 = point1->x + r - r_corr;
 1781              		.loc 1 89 37 view .LVU668
 1782 07c4 C91A     		subs	r1, r1, r3
  88:Drivers/lvgl/src/draw/sw/lv_draw_sw_line.c ****             cir_area.y1 = point1->y - r;
 1783              		.loc 1 88 37 view .LVU669
 1784 07c6 61F31F42 		bfi	r2, r1, #16, #16
  91:Drivers/lvgl/src/draw/sw/lv_draw_sw_line.c ****             lv_draw_rect(draw_ctx, &cir_dsc, &cir_area);
 1785              		.loc 1 91 41 view .LVU670
 1786 07ca 831B     		subs	r3, r0, r6
  88:Drivers/lvgl/src/draw/sw/lv_draw_sw_line.c ****             cir_area.y1 = point1->y - r;
 1787              		.loc 1 88 37 view .LVU671
 1788 07cc 6EF30F0C 		bfi	ip, lr, #0, #16
 1789 07d0 63F31F4C 		bfi	ip, r3, #16, #16
ARM GAS  /var/folders/lp/x54gwt890xv47sdkqj1k04q40000gn/T//ccKYvMxP.s 			page 51


  88:Drivers/lvgl/src/draw/sw/lv_draw_sw_line.c ****             cir_area.y1 = point1->y - r;
 1790              		.loc 1 88 25 view .LVU672
 1791 07d4 2E92     		str	r2, [sp, #184]
  92:Drivers/lvgl/src/draw/sw/lv_draw_sw_line.c ****         }
 1792              		.loc 1 92 13 view .LVU673
 1793 07d6 2946     		mov	r1, r5
 1794 07d8 2EAA     		add	r2, sp, #184
 1795 07da 5846     		mov	r0, fp
  88:Drivers/lvgl/src/draw/sw/lv_draw_sw_line.c ****             cir_area.y1 = point1->y - r;
 1796              		.loc 1 88 25 view .LVU674
 1797 07dc CDF8BCC0 		str	ip, [sp, #188]
  92:Drivers/lvgl/src/draw/sw/lv_draw_sw_line.c ****         }
 1798              		.loc 1 92 13 is_stmt 1 view .LVU675
 1799 07e0 FFF7FEFF 		bl	lv_draw_rect
 1800              	.LVL183:
  95:Drivers/lvgl/src/draw/sw/lv_draw_sw_line.c ****             cir_area.x1 = point2->x - r;
 1801              		.loc 1 95 12 is_stmt 0 view .LVU676
 1802 07e4 637A     		ldrb	r3, [r4, #9]	@ zero_extendqisi2
 1803 07e6 80E6     		b	.L51
 1804              	.LVL184:
 1805              	.L7:
  95:Drivers/lvgl/src/draw/sw/lv_draw_sw_line.c ****             cir_area.x1 = point2->x - r;
 1806              		.loc 1 95 12 view .LVU677
 1807              	.LBE109:
 1808              	.LBB110:
 1809              	.LBB71:
 130:Drivers/lvgl/src/draw/sw/lv_draw_sw_line.c ****     if(lv_draw_mask_is_any(&blend_area)) simple_mode = false;
 1810              		.loc 1 130 5 is_stmt 1 view .LVU678
 131:Drivers/lvgl/src/draw/sw/lv_draw_sw_line.c ****     else if(dashed) simple_mode = false;
 1811              		.loc 1 131 5 view .LVU679
 131:Drivers/lvgl/src/draw/sw/lv_draw_sw_line.c ****     else if(dashed) simple_mode = false;
 1812              		.loc 1 131 8 is_stmt 0 view .LVU680
 1813 07e8 FFF7FEFF 		bl	lv_draw_mask_is_any
 1814              	.LVL185:
 135:Drivers/lvgl/src/draw/sw/lv_draw_sw_line.c ****     blend_dsc.blend_area = &blend_area;
 1815              		.loc 1 135 5 view .LVU681
 1816 07ec 3AAD     		add	r5, sp, #232
 131:Drivers/lvgl/src/draw/sw/lv_draw_sw_line.c ****     else if(dashed) simple_mode = false;
 1817              		.loc 1 131 8 view .LVU682
 1818 07ee 0646     		mov	r6, r0
 1819              	.LVL186:
 134:Drivers/lvgl/src/draw/sw/lv_draw_sw_line.c ****     lv_memset_00(&blend_dsc, sizeof(blend_dsc));
 1820              		.loc 1 134 5 is_stmt 1 view .LVU683
 135:Drivers/lvgl/src/draw/sw/lv_draw_sw_line.c ****     blend_dsc.blend_area = &blend_area;
 1821              		.loc 1 135 5 view .LVU684
 1822 07f0 1C21     		movs	r1, #28
 1823 07f2 2846     		mov	r0, r5
 1824 07f4 FFF7FEFF 		bl	lv_memset_00
 1825              	.LVL187:
 136:Drivers/lvgl/src/draw/sw/lv_draw_sw_line.c ****     blend_dsc.color = dsc->color;
 1826              		.loc 1 136 5 view .LVU685
 137:Drivers/lvgl/src/draw/sw/lv_draw_sw_line.c ****     blend_dsc.opa = dsc->opa;
 1827              		.loc 1 137 21 is_stmt 0 view .LVU686
 1828 07f8 2388     		ldrh	r3, [r4]
 1829 07fa ADF8F030 		strh	r3, [sp, #240]	@ movhi
 138:Drivers/lvgl/src/draw/sw/lv_draw_sw_line.c **** 
 1830              		.loc 1 138 19 view .LVU687
ARM GAS  /var/folders/lp/x54gwt890xv47sdkqj1k04q40000gn/T//ccKYvMxP.s 			page 52


 1831 07fe 237A     		ldrb	r3, [r4, #8]	@ zero_extendqisi2
 136:Drivers/lvgl/src/draw/sw/lv_draw_sw_line.c ****     blend_dsc.color = dsc->color;
 1832              		.loc 1 136 26 view .LVU688
 1833 0800 CDF8E890 		str	r9, [sp, #232]
 137:Drivers/lvgl/src/draw/sw/lv_draw_sw_line.c ****     blend_dsc.opa = dsc->opa;
 1834              		.loc 1 137 5 is_stmt 1 view .LVU689
 138:Drivers/lvgl/src/draw/sw/lv_draw_sw_line.c **** 
 1835              		.loc 1 138 5 view .LVU690
 138:Drivers/lvgl/src/draw/sw/lv_draw_sw_line.c **** 
 1836              		.loc 1 138 19 is_stmt 0 view .LVU691
 1837 0804 8DF80031 		strb	r3, [sp, #256]
 141:Drivers/lvgl/src/draw/sw/lv_draw_sw_line.c ****         lv_draw_sw_blend(draw_ctx, &blend_dsc);
 1838              		.loc 1 141 5 is_stmt 1 view .LVU692
 141:Drivers/lvgl/src/draw/sw/lv_draw_sw_line.c ****         lv_draw_sw_blend(draw_ctx, &blend_dsc);
 1839              		.loc 1 141 7 is_stmt 0 view .LVU693
 1840 0808 002E     		cmp	r6, #0
 1841 080a 3FF475AF 		beq	.L102
 1842              	.LVL188:
 1843              	.LBB67:
 148:Drivers/lvgl/src/draw/sw/lv_draw_sw_line.c **** 
 1844              		.loc 1 148 9 is_stmt 1 view .LVU694
 1845              	.LBB58:
 123:Drivers/lvgl/src/draw/sw/../../misc/lv_area.h **** {
 1846              		.loc 2 123 26 view .LVU695
 1847              	.LBB47:
 1848              		.loc 2 125 5 view .LVU696
 1849              		.loc 2 125 49 is_stmt 0 view .LVU697
 1850 080e BDF8BC60 		ldrh	r6, [sp, #188]
 1851 0812 BDF8B830 		ldrh	r3, [sp, #184]
 1852              	.LBE47:
 1853              	.LBE58:
 150:Drivers/lvgl/src/draw/sw/lv_draw_sw_line.c ****         blend_area.y2 = blend_area.y1;
 1854              		.loc 1 150 20 view .LVU698
 1855 0816 BDF9BE20 		ldrsh	r2, [sp, #190]
 1856 081a 0492     		str	r2, [sp, #16]
 1857              	.LBB59:
 1858              	.LBB48:
 1859              		.loc 2 125 49 view .LVU699
 1860 081c 0136     		adds	r6, r6, #1
 1861 081e F61A     		subs	r6, r6, r3
 1862              	.LBE48:
 1863              	.LBE59:
 151:Drivers/lvgl/src/draw/sw/lv_draw_sw_line.c **** 
 1864              		.loc 1 151 23 view .LVU700
 1865 0820 0027     		movs	r7, #0
 1866 0822 BDF8BA30 		ldrh	r3, [sp, #186]
 1867 0826 ADF8BE30 		strh	r3, [sp, #190]	@ movhi
 1868              	.LBB60:
 1869              	.LBB49:
 1870              		.loc 2 125 12 view .LVU701
 1871 082a 36B2     		sxth	r6, r6
 1872              	.LVL189:
 1873              		.loc 2 125 12 view .LVU702
 1874              	.LBE49:
 1875              	.LBE60:
 150:Drivers/lvgl/src/draw/sw/lv_draw_sw_line.c ****         blend_area.y2 = blend_area.y1;
 1876              		.loc 1 150 9 is_stmt 1 view .LVU703
ARM GAS  /var/folders/lp/x54gwt890xv47sdkqj1k04q40000gn/T//ccKYvMxP.s 			page 53


 151:Drivers/lvgl/src/draw/sw/lv_draw_sw_line.c **** 
 1877              		.loc 1 151 9 view .LVU704
 153:Drivers/lvgl/src/draw/sw/lv_draw_sw_line.c ****         if(dashed) {
 1878              		.loc 1 153 9 view .LVU705
 154:Drivers/lvgl/src/draw/sw/lv_draw_sw_line.c ****             dash_start = (blend_area.x1) % (dsc->dash_gap + dsc->dash_width);
 1879              		.loc 1 154 9 view .LVU706
 153:Drivers/lvgl/src/draw/sw/lv_draw_sw_line.c ****         if(dashed) {
 1880              		.loc 1 153 20 is_stmt 0 view .LVU707
 1881 082c 0597     		str	r7, [sp, #20]
 1882 082e DDE6     		b	.L8
 1883              	.LVL190:
 1884              	.L16:
 1885              	.LBB61:
 184:Drivers/lvgl/src/draw/sw/lv_draw_sw_line.c ****                 }
 1886              		.loc 1 184 21 is_stmt 1 view .LVU708
 184:Drivers/lvgl/src/draw/sw/lv_draw_sw_line.c ****                 }
 1887              		.loc 1 184 40 is_stmt 0 view .LVU709
 1888 0830 0223     		movs	r3, #2
 1889 0832 8DF8F830 		strb	r3, [sp, #248]
 1890 0836 EAE6     		b	.L12
 1891              	.LVL191:
 1892              	.L31:
 184:Drivers/lvgl/src/draw/sw/lv_draw_sw_line.c ****                 }
 1893              		.loc 1 184 40 view .LVU710
 1894              	.LBE61:
 1895              	.LBE67:
 1896              	.LBE71:
 1897              	.LBE110:
 1898              	.LBB111:
 1899              	.LBB102:
 1900              	.LBB100:
 265:Drivers/lvgl/src/draw/sw/lv_draw_sw_line.c ****             }
 1901              		.loc 1 265 26 view .LVU711
 1902 0838 24B2     		sxth	r4, r4
 1903              	.LVL192:
 265:Drivers/lvgl/src/draw/sw/lv_draw_sw_line.c ****             }
 1904              		.loc 1 265 26 view .LVU712
 1905 083a 06E6     		b	.L27
 1906              	.LVL193:
 1907              	.L115:
 265:Drivers/lvgl/src/draw/sw/lv_draw_sw_line.c ****             }
 1908              		.loc 1 265 26 view .LVU713
 1909 083c DDE90448 		ldrd	r4, r8, [sp, #16]
 1910              	.LVL194:
 265:Drivers/lvgl/src/draw/sw/lv_draw_sw_line.c ****             }
 1911              		.loc 1 265 26 view .LVU714
 1912 0840 43E7     		b	.L32
 1913              	.LVL195:
 1914              	.L120:
 234:Drivers/lvgl/src/draw/sw/lv_draw_sw_line.c **** 
 1915              		.loc 1 234 9 is_stmt 1 view .LVU715
 1916              	.LBB93:
 123:Drivers/lvgl/src/draw/sw/../../misc/lv_area.h **** {
 1917              		.loc 2 123 26 view .LVU716
 1918              	.LBB88:
 1919              		.loc 2 125 5 view .LVU717
 1920              		.loc 2 125 49 is_stmt 0 view .LVU718
ARM GAS  /var/folders/lp/x54gwt890xv47sdkqj1k04q40000gn/T//ccKYvMxP.s 			page 54


 1921 0842 BDF8BC60 		ldrh	r6, [sp, #188]
 1922 0846 BDF8B830 		ldrh	r3, [sp, #184]
 1923              	.LBE88:
 1924              	.LBE93:
 236:Drivers/lvgl/src/draw/sw/lv_draw_sw_line.c ****         blend_area.y2 = blend_area.y1;
 1925              		.loc 1 236 20 view .LVU719
 1926 084a BDF9BE70 		ldrsh	r7, [sp, #190]
 1927              	.LBB94:
 1928              	.LBB89:
 1929              		.loc 2 125 49 view .LVU720
 1930 084e 0136     		adds	r6, r6, #1
 1931 0850 F61A     		subs	r6, r6, r3
 1932              		.loc 2 125 12 view .LVU721
 1933 0852 36B2     		sxth	r6, r6
 1934              	.LVL196:
 1935              		.loc 2 125 12 view .LVU722
 1936              	.LBE89:
 1937              	.LBE94:
 236:Drivers/lvgl/src/draw/sw/lv_draw_sw_line.c ****         blend_area.y2 = blend_area.y1;
 1938              		.loc 1 236 9 is_stmt 1 view .LVU723
 237:Drivers/lvgl/src/draw/sw/lv_draw_sw_line.c **** 
 1939              		.loc 1 237 9 view .LVU724
 237:Drivers/lvgl/src/draw/sw/lv_draw_sw_line.c **** 
 1940              		.loc 1 237 23 is_stmt 0 view .LVU725
 1941 0854 BDF8BA30 		ldrh	r3, [sp, #186]
 1942 0858 ADF8BE30 		strh	r3, [sp, #190]	@ movhi
 239:Drivers/lvgl/src/draw/sw/lv_draw_sw_line.c ****         blend_dsc.mask_buf = mask_buf;
 1943              		.loc 1 239 9 is_stmt 1 view .LVU726
 239:Drivers/lvgl/src/draw/sw/lv_draw_sw_line.c ****         blend_dsc.mask_buf = mask_buf;
 1944              		.loc 1 239 31 is_stmt 0 view .LVU727
 1945 085c 3046     		mov	r0, r6
 1946 085e FFF7FEFF 		bl	lv_mem_buf_get
 1947              	.LVL197:
 251:Drivers/lvgl/src/draw/sw/lv_draw_sw_line.c ****             lv_memset_ff(mask_buf, draw_area_w);
 1948              		.loc 1 251 15 view .LVU728
 1949 0862 0022     		movs	r2, #0
 241:Drivers/lvgl/src/draw/sw/lv_draw_sw_line.c **** 
 1950              		.loc 1 241 29 view .LVU729
 1951 0864 CDF8FC90 		str	r9, [sp, #252]
 239:Drivers/lvgl/src/draw/sw/lv_draw_sw_line.c ****         blend_dsc.mask_buf = mask_buf;
 1952              		.loc 1 239 31 view .LVU730
 1953 0868 8246     		mov	r10, r0
 1954              	.LVL198:
 240:Drivers/lvgl/src/draw/sw/lv_draw_sw_line.c ****         blend_dsc.mask_area = &blend_area;
 1955              		.loc 1 240 9 is_stmt 1 view .LVU731
 251:Drivers/lvgl/src/draw/sw/lv_draw_sw_line.c ****             lv_memset_ff(mask_buf, draw_area_w);
 1956              		.loc 1 251 15 is_stmt 0 view .LVU732
 1957 086a BDF9BA90 		ldrsh	r9, [sp, #186]
 240:Drivers/lvgl/src/draw/sw/lv_draw_sw_line.c ****         blend_dsc.mask_area = &blend_area;
 1958              		.loc 1 240 28 view .LVU733
 1959 086e 3D90     		str	r0, [sp, #244]
 241:Drivers/lvgl/src/draw/sw/lv_draw_sw_line.c **** 
 1960              		.loc 1 241 9 is_stmt 1 view .LVU734
 243:Drivers/lvgl/src/draw/sw/lv_draw_sw_line.c ****         if(dashed) {
 1961              		.loc 1 243 9 view .LVU735
 1962              	.LVL199:
 244:Drivers/lvgl/src/draw/sw/lv_draw_sw_line.c ****             dash_start = (blend_area.y1) % (dsc->dash_gap + dsc->dash_width);
ARM GAS  /var/folders/lp/x54gwt890xv47sdkqj1k04q40000gn/T//ccKYvMxP.s 			page 55


 1963              		.loc 1 244 9 view .LVU736
 243:Drivers/lvgl/src/draw/sw/lv_draw_sw_line.c ****         if(dashed) {
 1964              		.loc 1 243 20 is_stmt 0 view .LVU737
 1965 0870 9446     		mov	ip, r2
 1966 0872 DFE5     		b	.L24
 1967              	.LBE100:
 1968              	.LBE102:
 1969              	.LBE111:
 1970              		.cfi_endproc
 1971              	.LFE161:
 1973              		.section	.rodata.wcorr.0,"a"
 1974              		.align	2
 1977              	wcorr.0:
 1978 0000 80808081 		.ascii	"\200\200\200\201\201\202\202\203\204\205\206\207\211"
 1978      81828283 
 1978      84858687 
 1978      89
 1979 000d 8A8C8D8F 		.ascii	"\212\214\215\217\221\223\225\227\231\233\236\240\242"
 1979      91939597 
 1979      999B9EA0 
 1979      A2
 1980 001a A5A7AAAD 		.ascii	"\245\247\252\255\257\262\265"
 1980      AFB2B5
 1981              		.text
 1982              	.Letext0:
 1983              		.file 3 "/Users/jr/Library/Application Support/Code/User/globalStorage/bmd.stm32-for-vscode/@xpack
 1984              		.file 4 "/Users/jr/Library/Application Support/Code/User/globalStorage/bmd.stm32-for-vscode/@xpack
 1985              		.file 5 "Drivers/lvgl/src/draw/sw/../../misc/lv_types.h"
 1986              		.file 6 "/Users/jr/Library/Application Support/Code/User/globalStorage/bmd.stm32-for-vscode/@xpack
 1987              		.file 7 "Drivers/lvgl/src/draw/sw/../../misc/lv_color.h"
 1988              		.file 8 "Drivers/lvgl/src/draw/sw/../../misc/../font/lv_font.h"
 1989              		.file 9 "Drivers/lvgl/src/draw/sw/../../misc/lv_txt.h"
 1990              		.file 10 "Drivers/lvgl/src/draw/sw/../../misc/lv_bidi.h"
 1991              		.file 11 "Drivers/lvgl/src/draw/sw/../../misc/lv_style.h"
 1992              		.file 12 "Drivers/lvgl/src/draw/sw/../lv_draw_mask.h"
 1993              		.file 13 "Drivers/lvgl/src/draw/sw/lv_draw_sw_blend.h"
 1994              		.file 14 "Drivers/lvgl/src/draw/sw/../lv_img_buf.h"
 1995              		.file 15 "Drivers/lvgl/src/draw/sw/../../core/lv_obj.h"
 1996              		.file 16 "Drivers/lvgl/src/draw/sw/../lv_draw_rect.h"
 1997              		.file 17 "Drivers/lvgl/src/draw/sw/../lv_draw_label.h"
 1998              		.file 18 "Drivers/lvgl/src/draw/sw/../lv_draw_img.h"
 1999              		.file 19 "Drivers/lvgl/src/draw/sw/../lv_draw_line.h"
 2000              		.file 20 "Drivers/lvgl/src/draw/sw/../lv_draw_arc.h"
 2001              		.file 21 "Drivers/lvgl/src/draw/sw/../lv_draw_layer.h"
 2002              		.file 22 "Drivers/lvgl/src/draw/sw/../lv_draw.h"
 2003              		.file 23 "Drivers/lvgl/src/draw/sw/../../hal/../misc/lv_timer.h"
 2004              		.file 24 "Drivers/lvgl/src/draw/sw/../../hal/lv_hal_disp.h"
 2005              		.file 25 "Drivers/lvgl/src/draw/sw/../../core/lv_group.h"
 2006              		.file 26 "Drivers/lvgl/src/draw/sw/../../hal/../misc/lv_ll.h"
 2007              		.file 27 "Drivers/lvgl/src/draw/sw/../../core/lv_obj_scroll.h"
 2008              		.file 28 "Drivers/lvgl/src/draw/sw/../../core/lv_obj_style.h"
 2009              		.file 29 "Drivers/lvgl/src/draw/sw/../../core/lv_obj_class.h"
 2010              		.file 30 "Drivers/lvgl/src/draw/sw/../../core/lv_event.h"
 2011              		.file 31 "Drivers/lvgl/src/draw/sw/../../misc/lv_mem.h"
 2012              		.file 32 "Drivers/lvgl/src/draw/sw/../../core/lv_refr.h"
ARM GAS  /var/folders/lp/x54gwt890xv47sdkqj1k04q40000gn/T//ccKYvMxP.s 			page 56

