ARM GAS  /var/folders/0z/tsy30v1j4xl4_7kw94k978ww0000gn/T//ccOkarGI.s 			page 1


   1              		.cpu cortex-m4
   2              		.arch armv7e-m
   3              		.fpu fpv4-sp-d16
   4              		.eabi_attribute 27, 1
   5              		.eabi_attribute 28, 1
   6              		.eabi_attribute 23, 1
   7              		.eabi_attribute 24, 1
   8              		.eabi_attribute 25, 1
   9              		.eabi_attribute 26, 1
  10              		.eabi_attribute 30, 2
  11              		.eabi_attribute 34, 1
  12              		.eabi_attribute 18, 4
  13              		.file	"lv_draw_arc.c"
  14              		.text
  15              	.Ltext0:
  16              		.cfi_sections	.debug_frame
  17              		.section	.text.lv_draw_arc_dsc_init,"ax",%progbits
  18              		.align	1
  19              		.p2align 2,,3
  20              		.global	lv_draw_arc_dsc_init
  21              		.syntax unified
  22              		.thumb
  23              		.thumb_func
  25              	lv_draw_arc_dsc_init:
  26              	.LVL0:
  27              	.LFB55:
  28              		.file 1 "Drivers/lvgl/src/draw/lv_draw_arc.c"
   1:Drivers/lvgl/src/draw/lv_draw_arc.c **** /**
   2:Drivers/lvgl/src/draw/lv_draw_arc.c ****  * @file lv_draw_arc.c
   3:Drivers/lvgl/src/draw/lv_draw_arc.c ****  *
   4:Drivers/lvgl/src/draw/lv_draw_arc.c ****  */
   5:Drivers/lvgl/src/draw/lv_draw_arc.c **** 
   6:Drivers/lvgl/src/draw/lv_draw_arc.c **** /*********************
   7:Drivers/lvgl/src/draw/lv_draw_arc.c ****  *      INCLUDES
   8:Drivers/lvgl/src/draw/lv_draw_arc.c ****  *********************/
   9:Drivers/lvgl/src/draw/lv_draw_arc.c **** #include "lv_draw.h"
  10:Drivers/lvgl/src/draw/lv_draw_arc.c **** #include "lv_draw_arc.h"
  11:Drivers/lvgl/src/draw/lv_draw_arc.c **** 
  12:Drivers/lvgl/src/draw/lv_draw_arc.c **** /*********************
  13:Drivers/lvgl/src/draw/lv_draw_arc.c ****  *      DEFINES
  14:Drivers/lvgl/src/draw/lv_draw_arc.c ****  *********************/
  15:Drivers/lvgl/src/draw/lv_draw_arc.c **** 
  16:Drivers/lvgl/src/draw/lv_draw_arc.c **** /**********************
  17:Drivers/lvgl/src/draw/lv_draw_arc.c ****  *      TYPEDEFS
  18:Drivers/lvgl/src/draw/lv_draw_arc.c ****  **********************/
  19:Drivers/lvgl/src/draw/lv_draw_arc.c **** 
  20:Drivers/lvgl/src/draw/lv_draw_arc.c **** /**********************
  21:Drivers/lvgl/src/draw/lv_draw_arc.c ****  *  STATIC PROTOTYPES
  22:Drivers/lvgl/src/draw/lv_draw_arc.c ****  **********************/
  23:Drivers/lvgl/src/draw/lv_draw_arc.c **** 
  24:Drivers/lvgl/src/draw/lv_draw_arc.c **** /**********************
  25:Drivers/lvgl/src/draw/lv_draw_arc.c ****  *  STATIC VARIABLES
  26:Drivers/lvgl/src/draw/lv_draw_arc.c ****  **********************/
  27:Drivers/lvgl/src/draw/lv_draw_arc.c **** 
  28:Drivers/lvgl/src/draw/lv_draw_arc.c **** /**********************
  29:Drivers/lvgl/src/draw/lv_draw_arc.c ****  *      MACROS
  30:Drivers/lvgl/src/draw/lv_draw_arc.c ****  **********************/
ARM GAS  /var/folders/0z/tsy30v1j4xl4_7kw94k978ww0000gn/T//ccOkarGI.s 			page 2


  31:Drivers/lvgl/src/draw/lv_draw_arc.c **** 
  32:Drivers/lvgl/src/draw/lv_draw_arc.c **** /**********************
  33:Drivers/lvgl/src/draw/lv_draw_arc.c ****  *   GLOBAL FUNCTIONS
  34:Drivers/lvgl/src/draw/lv_draw_arc.c ****  **********************/
  35:Drivers/lvgl/src/draw/lv_draw_arc.c **** 
  36:Drivers/lvgl/src/draw/lv_draw_arc.c **** void lv_draw_arc_dsc_init(lv_draw_arc_dsc_t * dsc)
  37:Drivers/lvgl/src/draw/lv_draw_arc.c **** {
  29              		.loc 1 37 1 view -0
  30              		.cfi_startproc
  31              		@ args = 0, pretend = 0, frame = 0
  32              		@ frame_needed = 0, uses_anonymous_args = 0
  38:Drivers/lvgl/src/draw/lv_draw_arc.c ****     lv_memset_00(dsc, sizeof(lv_draw_arc_dsc_t));
  33              		.loc 1 38 5 view .LVU1
  37:Drivers/lvgl/src/draw/lv_draw_arc.c ****     lv_memset_00(dsc, sizeof(lv_draw_arc_dsc_t));
  34              		.loc 1 37 1 is_stmt 0 view .LVU2
  35 0000 10B5     		push	{r4, lr}
  36              		.cfi_def_cfa_offset 8
  37              		.cfi_offset 4, -8
  38              		.cfi_offset 14, -4
  39              		.loc 1 38 5 view .LVU3
  40 0002 1021     		movs	r1, #16
  37:Drivers/lvgl/src/draw/lv_draw_arc.c ****     lv_memset_00(dsc, sizeof(lv_draw_arc_dsc_t));
  41              		.loc 1 37 1 view .LVU4
  42 0004 0446     		mov	r4, r0
  43              		.loc 1 38 5 view .LVU5
  44 0006 FFF7FEFF 		bl	lv_memset_00
  45              	.LVL1:
  39:Drivers/lvgl/src/draw/lv_draw_arc.c ****     dsc->width = 1;
  46              		.loc 1 39 5 is_stmt 1 view .LVU6
  40:Drivers/lvgl/src/draw/lv_draw_arc.c ****     dsc->opa = LV_OPA_COVER;
  47              		.loc 1 40 5 view .LVU7
  48              		.loc 1 40 14 is_stmt 0 view .LVU8
  49 000a FF22     		movs	r2, #255
  41:Drivers/lvgl/src/draw/lv_draw_arc.c ****     dsc->color = lv_color_black();
  50              		.loc 1 41 18 view .LVU9
  51 000c 4FF48033 		mov	r3, #65536
  40:Drivers/lvgl/src/draw/lv_draw_arc.c ****     dsc->opa = LV_OPA_COVER;
  52              		.loc 1 40 14 view .LVU10
  53 0010 2273     		strb	r2, [r4, #12]
  54              		.loc 1 41 5 is_stmt 1 view .LVU11
  55              		.loc 1 41 18 is_stmt 0 view .LVU12
  56 0012 2360     		str	r3, [r4]
  42:Drivers/lvgl/src/draw/lv_draw_arc.c **** }
  57              		.loc 1 42 1 view .LVU13
  58 0014 10BD     		pop	{r4, pc}
  59              		.loc 1 42 1 view .LVU14
  60              		.cfi_endproc
  61              	.LFE55:
  63 0016 00BF     		.section	.text.lv_draw_arc,"ax",%progbits
  64              		.align	1
  65              		.p2align 2,,3
  66              		.global	lv_draw_arc
  67              		.syntax unified
  68              		.thumb
  69              		.thumb_func
  71              	lv_draw_arc:
  72              	.LVL2:
ARM GAS  /var/folders/0z/tsy30v1j4xl4_7kw94k978ww0000gn/T//ccOkarGI.s 			page 3


  73              	.LFB56:
  43:Drivers/lvgl/src/draw/lv_draw_arc.c **** 
  44:Drivers/lvgl/src/draw/lv_draw_arc.c **** void lv_draw_arc(lv_draw_ctx_t * draw_ctx, const lv_draw_arc_dsc_t * dsc, const lv_point_t * center
  45:Drivers/lvgl/src/draw/lv_draw_arc.c ****                  uint16_t start_angle, uint16_t end_angle)
  46:Drivers/lvgl/src/draw/lv_draw_arc.c **** {
  74              		.loc 1 46 1 is_stmt 1 view -0
  75              		.cfi_startproc
  76              		@ args = 8, pretend = 0, frame = 0
  77              		@ frame_needed = 0, uses_anonymous_args = 0
  47:Drivers/lvgl/src/draw/lv_draw_arc.c ****     if(dsc->opa <= LV_OPA_MIN) return;
  78              		.loc 1 47 5 view .LVU16
  46:Drivers/lvgl/src/draw/lv_draw_arc.c ****     if(dsc->opa <= LV_OPA_MIN) return;
  79              		.loc 1 46 1 is_stmt 0 view .LVU17
  80 0000 70B5     		push	{r4, r5, r6, lr}
  81              		.cfi_def_cfa_offset 16
  82              		.cfi_offset 4, -16
  83              		.cfi_offset 5, -12
  84              		.cfi_offset 6, -8
  85              		.cfi_offset 14, -4
  86              		.loc 1 47 7 view .LVU18
  87 0002 0C7B     		ldrb	r4, [r1, #12]	@ zero_extendqisi2
  46:Drivers/lvgl/src/draw/lv_draw_arc.c ****     if(dsc->opa <= LV_OPA_MIN) return;
  88              		.loc 1 46 1 view .LVU19
  89 0004 BDF81050 		ldrh	r5, [sp, #16]
  90 0008 BDF81460 		ldrh	r6, [sp, #20]
  91              		.loc 1 47 7 view .LVU20
  92 000c 022C     		cmp	r4, #2
  93 000e 0BD9     		bls	.L4
  48:Drivers/lvgl/src/draw/lv_draw_arc.c ****     if(dsc->width == 0) return;
  94              		.loc 1 48 5 is_stmt 1 view .LVU21
  95              		.loc 1 48 7 is_stmt 0 view .LVU22
  96 0010 B1F90240 		ldrsh	r4, [r1, #2]
  97 0014 44B1     		cbz	r4, .L4
  49:Drivers/lvgl/src/draw/lv_draw_arc.c ****     if(start_angle == end_angle) return;
  98              		.loc 1 49 5 is_stmt 1 view .LVU23
  99              		.loc 1 49 7 is_stmt 0 view .LVU24
 100 0016 B542     		cmp	r5, r6
 101 0018 06D0     		beq	.L4
  50:Drivers/lvgl/src/draw/lv_draw_arc.c **** 
  51:Drivers/lvgl/src/draw/lv_draw_arc.c ****     draw_ctx->draw_arc(draw_ctx, dsc, center, radius, start_angle, end_angle);
 102              		.loc 1 51 5 is_stmt 1 view .LVU25
 103 001a 4469     		ldr	r4, [r0, #20]
 104 001c CDE90456 		strd	r5, r6, [sp, #16]
 105              	.LVL3:
 106              		.loc 1 51 5 is_stmt 0 view .LVU26
 107 0020 A446     		mov	ip, r4
  52:Drivers/lvgl/src/draw/lv_draw_arc.c **** 
  53:Drivers/lvgl/src/draw/lv_draw_arc.c ****     //    const lv_draw_backend_t * backend = lv_draw_backend_get();
  54:Drivers/lvgl/src/draw/lv_draw_arc.c ****     //    backend->draw_arc(center_x, center_y, radius, start_angle, end_angle, clip_area, dsc);
  55:Drivers/lvgl/src/draw/lv_draw_arc.c **** }
 108              		.loc 1 55 1 view .LVU27
 109 0022 BDE87040 		pop	{r4, r5, r6, lr}
 110              		.cfi_remember_state
 111              		.cfi_restore 14
 112              		.cfi_restore 6
 113              		.cfi_restore 5
 114              		.cfi_restore 4
ARM GAS  /var/folders/0z/tsy30v1j4xl4_7kw94k978ww0000gn/T//ccOkarGI.s 			page 4


 115              		.cfi_def_cfa_offset 0
  51:Drivers/lvgl/src/draw/lv_draw_arc.c **** 
 116              		.loc 1 51 5 view .LVU28
 117 0026 6047     		bx	ip	@ indirect register sibling call
 118              	.LVL4:
 119              	.L4:
 120              		.cfi_restore_state
 121              		.loc 1 55 1 view .LVU29
 122 0028 70BD     		pop	{r4, r5, r6, pc}
 123              		.loc 1 55 1 view .LVU30
 124              		.cfi_endproc
 125              	.LFE56:
 127 002a 00BF     		.section	.text.lv_draw_arc_get_area,"ax",%progbits
 128              		.align	1
 129              		.p2align 2,,3
 130              		.global	lv_draw_arc_get_area
 131              		.syntax unified
 132              		.thumb
 133              		.thumb_func
 135              	lv_draw_arc_get_area:
 136              	.LVL5:
 137              	.LFB57:
  56:Drivers/lvgl/src/draw/lv_draw_arc.c **** 
  57:Drivers/lvgl/src/draw/lv_draw_arc.c **** void lv_draw_arc_get_area(lv_coord_t x, lv_coord_t y, uint16_t radius,  uint16_t start_angle, uint1
  58:Drivers/lvgl/src/draw/lv_draw_arc.c ****                           lv_coord_t w, bool rounded, lv_area_t * area)
  59:Drivers/lvgl/src/draw/lv_draw_arc.c **** {
 138              		.loc 1 59 1 is_stmt 1 view -0
 139              		.cfi_startproc
 140              		@ args = 16, pretend = 0, frame = 16
 141              		@ frame_needed = 0, uses_anonymous_args = 0
  60:Drivers/lvgl/src/draw/lv_draw_arc.c ****     lv_coord_t rout = radius;
 142              		.loc 1 60 5 view .LVU32
  59:Drivers/lvgl/src/draw/lv_draw_arc.c ****     lv_coord_t rout = radius;
 143              		.loc 1 59 1 is_stmt 0 view .LVU33
 144 0000 2DE9F04F 		push	{r4, r5, r6, r7, r8, r9, r10, fp, lr}
 145              		.cfi_def_cfa_offset 36
 146              		.cfi_offset 4, -36
 147              		.cfi_offset 5, -32
 148              		.cfi_offset 6, -28
 149              		.cfi_offset 7, -24
 150              		.cfi_offset 8, -20
 151              		.cfi_offset 9, -16
 152              		.cfi_offset 10, -12
 153              		.cfi_offset 11, -8
 154              		.cfi_offset 14, -4
 155 0004 85B0     		sub	sp, sp, #20
 156              		.cfi_def_cfa_offset 56
  59:Drivers/lvgl/src/draw/lv_draw_arc.c ****     lv_coord_t rout = radius;
 157              		.loc 1 59 1 view .LVU34
 158 0006 1746     		mov	r7, r2
 159 0008 BDF838B0 		ldrh	fp, [sp, #56]
 160 000c BDF93C20 		ldrsh	r2, [sp, #60]
 161              	.LVL6:
  59:Drivers/lvgl/src/draw/lv_draw_arc.c ****     lv_coord_t rout = radius;
 162              		.loc 1 59 1 view .LVU35
 163 0010 DDF844A0 		ldr	r10, [sp, #68]
 164 0014 0446     		mov	r4, r0
ARM GAS  /var/folders/0z/tsy30v1j4xl4_7kw94k978ww0000gn/T//ccOkarGI.s 			page 5


  61:Drivers/lvgl/src/draw/lv_draw_arc.c **** 
  62:Drivers/lvgl/src/draw/lv_draw_arc.c ****     /*Special case: full arc invalidation */
  63:Drivers/lvgl/src/draw/lv_draw_arc.c ****     if(end_angle == start_angle + 360) {
 165              		.loc 1 63 33 view .LVU36
 166 0016 03F5B470 		add	r0, r3, #360
 167              	.LVL7:
  59:Drivers/lvgl/src/draw/lv_draw_arc.c ****     lv_coord_t rout = radius;
 168              		.loc 1 59 1 view .LVU37
 169 001a 1E46     		mov	r6, r3
 170              		.loc 1 63 7 view .LVU38
 171 001c 8345     		cmp	fp, r0
  60:Drivers/lvgl/src/draw/lv_draw_arc.c **** 
 172              		.loc 1 60 16 view .LVU39
 173 001e 3BB2     		sxth	r3, r7
 174              	.LVL8:
  59:Drivers/lvgl/src/draw/lv_draw_arc.c ****     lv_coord_t rout = radius;
 175              		.loc 1 59 1 view .LVU40
 176 0020 0D46     		mov	r5, r1
  60:Drivers/lvgl/src/draw/lv_draw_arc.c **** 
 177              		.loc 1 60 16 view .LVU41
 178 0022 0093     		str	r3, [sp]
 179              	.LVL9:
 180              		.loc 1 63 5 is_stmt 1 view .LVU42
  59:Drivers/lvgl/src/draw/lv_draw_arc.c ****     lv_coord_t rout = radius;
 181              		.loc 1 59 1 is_stmt 0 view .LVU43
 182 0024 9DF84010 		ldrb	r1, [sp, #64]	@ zero_extendqisi2
 183              	.LVL10:
 184              		.loc 1 63 7 view .LVU44
 185 0028 2CD0     		beq	.L19
  64:Drivers/lvgl/src/draw/lv_draw_arc.c ****         area->x1 = x - rout;
  65:Drivers/lvgl/src/draw/lv_draw_arc.c ****         area->y1 = y - rout;
  66:Drivers/lvgl/src/draw/lv_draw_arc.c ****         area->x2 = x + rout;
  67:Drivers/lvgl/src/draw/lv_draw_arc.c ****         area->y2 = y + rout;
  68:Drivers/lvgl/src/draw/lv_draw_arc.c ****         return;
  69:Drivers/lvgl/src/draw/lv_draw_arc.c ****     }
  70:Drivers/lvgl/src/draw/lv_draw_arc.c **** 
  71:Drivers/lvgl/src/draw/lv_draw_arc.c ****     if(start_angle > 360) start_angle -= 360;
 186              		.loc 1 71 5 is_stmt 1 view .LVU45
 187              		.loc 1 71 7 is_stmt 0 view .LVU46
 188 002a B6F5B47F 		cmp	r6, #360
 189              		.loc 1 71 27 is_stmt 1 view .LVU47
 190              		.loc 1 71 39 is_stmt 0 view .LVU48
 191 002e 84BF     		itt	hi
 192 0030 A6F5B476 		subhi	r6, r6, #360
 193 0034 B6B2     		uxthhi	r6, r6
 194              	.LVL11:
  72:Drivers/lvgl/src/draw/lv_draw_arc.c ****     if(end_angle > 360) end_angle -= 360;
 195              		.loc 1 72 5 is_stmt 1 view .LVU49
 196              		.loc 1 72 7 is_stmt 0 view .LVU50
 197 0036 BBF5B47F 		cmp	fp, #360
 198              		.loc 1 72 25 is_stmt 1 view .LVU51
 199              		.loc 1 72 35 is_stmt 0 view .LVU52
 200 003a 88BF     		it	hi
 201 003c ABF5B47B 		subhi	fp, fp, #360
  73:Drivers/lvgl/src/draw/lv_draw_arc.c **** 
  74:Drivers/lvgl/src/draw/lv_draw_arc.c ****     lv_coord_t rin = radius - w;
 202              		.loc 1 74 29 view .LVU53
ARM GAS  /var/folders/0z/tsy30v1j4xl4_7kw94k978ww0000gn/T//ccOkarGI.s 			page 6


 203 0040 A7EB0209 		sub	r9, r7, r2
  72:Drivers/lvgl/src/draw/lv_draw_arc.c ****     if(end_angle > 360) end_angle -= 360;
 204              		.loc 1 72 35 view .LVU54
 205 0044 88BF     		it	hi
 206 0046 1FFA8BFB 		uxthhi	fp, fp
 207              	.LVL12:
 208              		.loc 1 74 5 is_stmt 1 view .LVU55
 209              		.loc 1 74 16 is_stmt 0 view .LVU56
 210 004a 0FFA89F9 		sxth	r9, r9
 211              	.LVL13:
  75:Drivers/lvgl/src/draw/lv_draw_arc.c ****     lv_coord_t extra_area = rounded ? w / 2 + 1 : 0;
 212              		.loc 1 75 5 is_stmt 1 view .LVU57
 213              		.loc 1 75 16 is_stmt 0 view .LVU58
 214 004e 51BB     		cbnz	r1, .L49
 215 0050 8846     		mov	r8, r1
 216              	.L15:
  76:Drivers/lvgl/src/draw/lv_draw_arc.c ****     uint8_t start_quarter = start_angle / 90;
 217              		.loc 1 76 5 is_stmt 1 discriminator 4 view .LVU59
 218              		.loc 1 76 13 is_stmt 0 discriminator 4 view .LVU60
 219 0052 BE48     		ldr	r0, .L56
 220 0054 7208     		lsrs	r2, r6, #1
 221 0056 A0FB0212 		umull	r1, r2, r0, r2
 222 005a C2F34712 		ubfx	r2, r2, #5, #8
 223              	.LVL14:
  77:Drivers/lvgl/src/draw/lv_draw_arc.c ****     uint8_t end_quarter = end_angle / 90;
 224              		.loc 1 77 5 is_stmt 1 discriminator 4 view .LVU61
 225              		.loc 1 77 13 is_stmt 0 discriminator 4 view .LVU62
 226 005e 4FEA5B01 		lsr	r1, fp, #1
 227 0062 A0FB0101 		umull	r0, r1, r0, r1
  78:Drivers/lvgl/src/draw/lv_draw_arc.c **** 
  79:Drivers/lvgl/src/draw/lv_draw_arc.c ****     /*360 deg still counts as quarter 3 (360 / 90 would be 4)*/
  80:Drivers/lvgl/src/draw/lv_draw_arc.c ****     if(start_quarter == 4) start_quarter = 3;
 228              		.loc 1 80 7 discriminator 4 view .LVU63
 229 0066 042A     		cmp	r2, #4
  77:Drivers/lvgl/src/draw/lv_draw_arc.c ****     uint8_t end_quarter = end_angle / 90;
 230              		.loc 1 77 13 discriminator 4 view .LVU64
 231 0068 C1F34711 		ubfx	r1, r1, #5, #8
 232              	.LVL15:
 233              		.loc 1 80 5 is_stmt 1 discriminator 4 view .LVU65
 234              		.loc 1 80 7 is_stmt 0 discriminator 4 view .LVU66
 235 006c 22D0     		beq	.L50
  81:Drivers/lvgl/src/draw/lv_draw_arc.c ****     if(end_quarter == 4) end_quarter = 3;
 236              		.loc 1 81 5 is_stmt 1 view .LVU67
 237              		.loc 1 81 7 is_stmt 0 view .LVU68
 238 006e 0429     		cmp	r1, #4
 239 0070 00F0E080 		beq	.L51
  82:Drivers/lvgl/src/draw/lv_draw_arc.c **** 
  83:Drivers/lvgl/src/draw/lv_draw_arc.c ****     if(start_quarter == end_quarter && start_angle <= end_angle) {
 240              		.loc 1 83 5 is_stmt 1 view .LVU69
 241              		.loc 1 83 7 is_stmt 0 view .LVU70
 242 0074 8A42     		cmp	r2, r1
 243 0076 61D0     		beq	.L52
 244              	.L23:
  84:Drivers/lvgl/src/draw/lv_draw_arc.c ****         if(start_quarter == 0) {
  85:Drivers/lvgl/src/draw/lv_draw_arc.c ****             area->y1 = y + ((lv_trigo_sin(start_angle) * rin) >> LV_TRIGO_SHIFT) - extra_area;
  86:Drivers/lvgl/src/draw/lv_draw_arc.c ****             area->x2 = x + ((lv_trigo_sin(start_angle + 90) * rout) >> LV_TRIGO_SHIFT) + extra_area
  87:Drivers/lvgl/src/draw/lv_draw_arc.c **** 
ARM GAS  /var/folders/0z/tsy30v1j4xl4_7kw94k978ww0000gn/T//ccOkarGI.s 			page 7


  88:Drivers/lvgl/src/draw/lv_draw_arc.c ****             area->y2 = y + ((lv_trigo_sin(end_angle) * rout) >> LV_TRIGO_SHIFT) + extra_area;
  89:Drivers/lvgl/src/draw/lv_draw_arc.c ****             area->x1 = x + ((lv_trigo_sin(end_angle + 90) * rin) >> LV_TRIGO_SHIFT) - extra_area;
  90:Drivers/lvgl/src/draw/lv_draw_arc.c ****         }
  91:Drivers/lvgl/src/draw/lv_draw_arc.c ****         else if(start_quarter == 1) {
  92:Drivers/lvgl/src/draw/lv_draw_arc.c ****             area->y2 = y + ((lv_trigo_sin(start_angle) * rout) >> LV_TRIGO_SHIFT) + extra_area;
  93:Drivers/lvgl/src/draw/lv_draw_arc.c ****             area->x2 = x + ((lv_trigo_sin(start_angle + 90) * rin) >> LV_TRIGO_SHIFT) + extra_area;
  94:Drivers/lvgl/src/draw/lv_draw_arc.c **** 
  95:Drivers/lvgl/src/draw/lv_draw_arc.c ****             area->y1 = y + ((lv_trigo_sin(end_angle) * rin) >> LV_TRIGO_SHIFT) - extra_area;
  96:Drivers/lvgl/src/draw/lv_draw_arc.c ****             area->x1 = x + ((lv_trigo_sin(end_angle + 90) * rout) >> LV_TRIGO_SHIFT) - extra_area;
  97:Drivers/lvgl/src/draw/lv_draw_arc.c ****         }
  98:Drivers/lvgl/src/draw/lv_draw_arc.c ****         else if(start_quarter == 2) {
  99:Drivers/lvgl/src/draw/lv_draw_arc.c ****             area->x1 = x + ((lv_trigo_sin(start_angle + 90) * rout) >> LV_TRIGO_SHIFT) - extra_area
 100:Drivers/lvgl/src/draw/lv_draw_arc.c ****             area->y2 = y + ((lv_trigo_sin(start_angle) * rin) >> LV_TRIGO_SHIFT) + extra_area;
 101:Drivers/lvgl/src/draw/lv_draw_arc.c **** 
 102:Drivers/lvgl/src/draw/lv_draw_arc.c ****             area->y1 = y + ((lv_trigo_sin(end_angle) * rout) >> LV_TRIGO_SHIFT) - extra_area;
 103:Drivers/lvgl/src/draw/lv_draw_arc.c ****             area->x2 = x + ((lv_trigo_sin(end_angle + 90) * rin) >> LV_TRIGO_SHIFT) + extra_area;
 104:Drivers/lvgl/src/draw/lv_draw_arc.c ****         }
 105:Drivers/lvgl/src/draw/lv_draw_arc.c ****         else if(start_quarter == 3) {
 106:Drivers/lvgl/src/draw/lv_draw_arc.c ****             area->x1 = x + ((lv_trigo_sin(start_angle + 90) * rin) >> LV_TRIGO_SHIFT) - extra_area;
 107:Drivers/lvgl/src/draw/lv_draw_arc.c ****             area->y1 = y + ((lv_trigo_sin(start_angle) * rout) >> LV_TRIGO_SHIFT) - extra_area;
 108:Drivers/lvgl/src/draw/lv_draw_arc.c **** 
 109:Drivers/lvgl/src/draw/lv_draw_arc.c ****             area->x2 = x + ((lv_trigo_sin(end_angle + 90) * rout) >> LV_TRIGO_SHIFT) + extra_area;
 110:Drivers/lvgl/src/draw/lv_draw_arc.c ****             area->y2 = y + ((lv_trigo_sin(end_angle) * rin) >> LV_TRIGO_SHIFT) + extra_area;
 111:Drivers/lvgl/src/draw/lv_draw_arc.c ****         }
 112:Drivers/lvgl/src/draw/lv_draw_arc.c ****     }
 113:Drivers/lvgl/src/draw/lv_draw_arc.c ****     else if(start_quarter == 0 && end_quarter == 1) {
 245              		.loc 1 113 10 is_stmt 1 view .LVU71
 246              		.loc 1 113 12 is_stmt 0 view .LVU72
 247 0078 002A     		cmp	r2, #0
 248 007a 40F01E81 		bne	.L53
 249              		.loc 1 113 32 discriminator 1 view .LVU73
 250 007e 0129     		cmp	r1, #1
 251 0080 00F09B80 		beq	.L54
 252              	.LVL16:
 253              	.L19:
  64:Drivers/lvgl/src/draw/lv_draw_arc.c ****         area->y1 = y - rout;
 254              		.loc 1 64 9 is_stmt 1 view .LVU74
  64:Drivers/lvgl/src/draw/lv_draw_arc.c ****         area->y1 = y - rout;
 255              		.loc 1 64 22 is_stmt 0 view .LVU75
 256 0084 A4B2     		uxth	r4, r4
 257 0086 E21B     		subs	r2, r4, r7
  65:Drivers/lvgl/src/draw/lv_draw_arc.c ****         area->x2 = x + rout;
 258              		.loc 1 65 22 view .LVU76
 259 0088 ADB2     		uxth	r5, r5
  66:Drivers/lvgl/src/draw/lv_draw_arc.c ****         area->y2 = y + rout;
 260              		.loc 1 66 22 view .LVU77
 261 008a 3C44     		add	r4, r4, r7
  64:Drivers/lvgl/src/draw/lv_draw_arc.c ****         area->y1 = y - rout;
 262              		.loc 1 64 18 view .LVU78
 263 008c AAF80020 		strh	r2, [r10]	@ movhi
  65:Drivers/lvgl/src/draw/lv_draw_arc.c ****         area->x2 = x + rout;
 264              		.loc 1 65 9 is_stmt 1 view .LVU79
  65:Drivers/lvgl/src/draw/lv_draw_arc.c ****         area->x2 = x + rout;
 265              		.loc 1 65 22 is_stmt 0 view .LVU80
 266 0090 EA1B     		subs	r2, r5, r7
  67:Drivers/lvgl/src/draw/lv_draw_arc.c ****         return;
 267              		.loc 1 67 22 view .LVU81
ARM GAS  /var/folders/0z/tsy30v1j4xl4_7kw94k978ww0000gn/T//ccOkarGI.s 			page 8


 268 0092 3D44     		add	r5, r5, r7
  65:Drivers/lvgl/src/draw/lv_draw_arc.c ****         area->x2 = x + rout;
 269              		.loc 1 65 18 view .LVU82
 270 0094 AAF80220 		strh	r2, [r10, #2]	@ movhi
  66:Drivers/lvgl/src/draw/lv_draw_arc.c ****         area->y2 = y + rout;
 271              		.loc 1 66 9 is_stmt 1 view .LVU83
  66:Drivers/lvgl/src/draw/lv_draw_arc.c ****         area->y2 = y + rout;
 272              		.loc 1 66 18 is_stmt 0 view .LVU84
 273 0098 AAF80440 		strh	r4, [r10, #4]	@ movhi
  67:Drivers/lvgl/src/draw/lv_draw_arc.c ****         return;
 274              		.loc 1 67 9 is_stmt 1 view .LVU85
  67:Drivers/lvgl/src/draw/lv_draw_arc.c ****         return;
 275              		.loc 1 67 18 is_stmt 0 view .LVU86
 276 009c AAF80650 		strh	r5, [r10, #6]	@ movhi
  68:Drivers/lvgl/src/draw/lv_draw_arc.c ****     }
 277              		.loc 1 68 9 is_stmt 1 view .LVU87
 278              	.L10:
 114:Drivers/lvgl/src/draw/lv_draw_arc.c ****         area->x1 = x + ((lv_trigo_sin(end_angle + 90) * rout) >> LV_TRIGO_SHIFT) - extra_area;
 115:Drivers/lvgl/src/draw/lv_draw_arc.c ****         area->y1 = y + ((LV_MIN(lv_trigo_sin(end_angle),
 116:Drivers/lvgl/src/draw/lv_draw_arc.c ****                                 lv_trigo_sin(start_angle))  * rin) >> LV_TRIGO_SHIFT) - extra_area;
 117:Drivers/lvgl/src/draw/lv_draw_arc.c ****         area->x2 = x + ((lv_trigo_sin(start_angle + 90) * rout) >> LV_TRIGO_SHIFT) + extra_area;
 118:Drivers/lvgl/src/draw/lv_draw_arc.c ****         area->y2 = y + rout + extra_area;
 119:Drivers/lvgl/src/draw/lv_draw_arc.c ****     }
 120:Drivers/lvgl/src/draw/lv_draw_arc.c ****     else if(start_quarter == 1 && end_quarter == 2) {
 121:Drivers/lvgl/src/draw/lv_draw_arc.c ****         area->x1 = x - rout - extra_area;
 122:Drivers/lvgl/src/draw/lv_draw_arc.c ****         area->y1 = y + ((lv_trigo_sin(end_angle) * rout) >> LV_TRIGO_SHIFT) - extra_area;
 123:Drivers/lvgl/src/draw/lv_draw_arc.c ****         area->x2 = x + ((LV_MAX(lv_trigo_sin(start_angle + 90),
 124:Drivers/lvgl/src/draw/lv_draw_arc.c ****                                 lv_trigo_sin(end_angle + 90)) * rin) >> LV_TRIGO_SHIFT) + extra_are
 125:Drivers/lvgl/src/draw/lv_draw_arc.c ****         area->y2 = y + ((lv_trigo_sin(start_angle) * rout) >> LV_TRIGO_SHIFT) + extra_area;
 126:Drivers/lvgl/src/draw/lv_draw_arc.c ****     }
 127:Drivers/lvgl/src/draw/lv_draw_arc.c ****     else if(start_quarter == 2 && end_quarter == 3) {
 128:Drivers/lvgl/src/draw/lv_draw_arc.c ****         area->x1 = x + ((lv_trigo_sin(start_angle + 90) * rout) >> LV_TRIGO_SHIFT) - extra_area;
 129:Drivers/lvgl/src/draw/lv_draw_arc.c ****         area->y1 = y - rout - extra_area;
 130:Drivers/lvgl/src/draw/lv_draw_arc.c ****         area->x2 = x + ((lv_trigo_sin(end_angle + 90) * rout) >> LV_TRIGO_SHIFT) + extra_area;
 131:Drivers/lvgl/src/draw/lv_draw_arc.c ****         area->y2 = y + (LV_MAX(lv_trigo_sin(end_angle) * rin,
 132:Drivers/lvgl/src/draw/lv_draw_arc.c ****                                lv_trigo_sin(start_angle) * rin) >> LV_TRIGO_SHIFT) + extra_area;
 133:Drivers/lvgl/src/draw/lv_draw_arc.c ****     }
 134:Drivers/lvgl/src/draw/lv_draw_arc.c ****     else if(start_quarter == 3 && end_quarter == 0) {
 135:Drivers/lvgl/src/draw/lv_draw_arc.c ****         area->x1 = x + ((LV_MIN(lv_trigo_sin(end_angle + 90),
 136:Drivers/lvgl/src/draw/lv_draw_arc.c ****                                 lv_trigo_sin(start_angle + 90)) * rin) >> LV_TRIGO_SHIFT) - extra_a
 137:Drivers/lvgl/src/draw/lv_draw_arc.c ****         area->y1 = y + ((lv_trigo_sin(start_angle) * rout) >> LV_TRIGO_SHIFT) - extra_area;
 138:Drivers/lvgl/src/draw/lv_draw_arc.c ****         area->x2 = x + rout + extra_area;
 139:Drivers/lvgl/src/draw/lv_draw_arc.c ****         area->y2 = y + ((lv_trigo_sin(end_angle) * rout) >> LV_TRIGO_SHIFT) + extra_area;
 140:Drivers/lvgl/src/draw/lv_draw_arc.c **** 
 141:Drivers/lvgl/src/draw/lv_draw_arc.c ****     }
 142:Drivers/lvgl/src/draw/lv_draw_arc.c ****     else {
 143:Drivers/lvgl/src/draw/lv_draw_arc.c ****         area->x1 = x - rout;
 144:Drivers/lvgl/src/draw/lv_draw_arc.c ****         area->y1 = y - rout;
 145:Drivers/lvgl/src/draw/lv_draw_arc.c ****         area->x2 = x + rout;
 146:Drivers/lvgl/src/draw/lv_draw_arc.c ****         area->y2 = y + rout;
 147:Drivers/lvgl/src/draw/lv_draw_arc.c ****     }
 148:Drivers/lvgl/src/draw/lv_draw_arc.c **** }
 279              		.loc 1 148 1 is_stmt 0 view .LVU88
 280 00a0 05B0     		add	sp, sp, #20
 281              		.cfi_remember_state
 282              		.cfi_def_cfa_offset 36
 283              	.LVL17:
ARM GAS  /var/folders/0z/tsy30v1j4xl4_7kw94k978ww0000gn/T//ccOkarGI.s 			page 9


 284              		.loc 1 148 1 view .LVU89
 285              		@ sp needed
 286 00a2 BDE8F08F 		pop	{r4, r5, r6, r7, r8, r9, r10, fp, pc}
 287              	.LVL18:
 288              	.L49:
 289              		.cfi_restore_state
  75:Drivers/lvgl/src/draw/lv_draw_arc.c ****     uint8_t start_quarter = start_angle / 90;
 290              		.loc 1 75 45 discriminator 1 view .LVU90
 291 00a6 02EBD272 		add	r2, r2, r2, lsr #31
 292 00aa 5210     		asrs	r2, r2, #1
 293 00ac 0132     		adds	r2, r2, #1
 294 00ae 1FFA82F8 		uxth	r8, r2
 295 00b2 CEE7     		b	.L15
 296              	.LVL19:
 297              	.L50:
  80:Drivers/lvgl/src/draw/lv_draw_arc.c ****     if(end_quarter == 4) end_quarter = 3;
 298              		.loc 1 80 28 is_stmt 1 view .LVU91
  81:Drivers/lvgl/src/draw/lv_draw_arc.c **** 
 299              		.loc 1 81 5 view .LVU92
  81:Drivers/lvgl/src/draw/lv_draw_arc.c **** 
 300              		.loc 1 81 7 is_stmt 0 view .LVU93
 301 00b4 0429     		cmp	r1, #4
 302 00b6 4BD0     		beq	.L47
  83:Drivers/lvgl/src/draw/lv_draw_arc.c ****         if(start_quarter == 0) {
 303              		.loc 1 83 5 is_stmt 1 view .LVU94
  83:Drivers/lvgl/src/draw/lv_draw_arc.c ****         if(start_quarter == 0) {
 304              		.loc 1 83 7 is_stmt 0 view .LVU95
 305 00b8 0329     		cmp	r1, #3
 306 00ba 49D0     		beq	.L47
 307              	.LVL20:
 308              	.L22:
 134:Drivers/lvgl/src/draw/lv_draw_arc.c ****         area->x1 = x + ((LV_MIN(lv_trigo_sin(end_angle + 90),
 309              		.loc 1 134 32 discriminator 1 view .LVU96
 310 00bc 0029     		cmp	r1, #0
 311 00be E1D1     		bne	.L19
 135:Drivers/lvgl/src/draw/lv_draw_arc.c ****                                 lv_trigo_sin(start_angle + 90)) * rin) >> LV_TRIGO_SHIFT) - extra_a
 312              		.loc 1 135 9 is_stmt 1 view .LVU97
 135:Drivers/lvgl/src/draw/lv_draw_arc.c ****                                 lv_trigo_sin(start_angle + 90)) * rin) >> LV_TRIGO_SHIFT) - extra_a
 313              		.loc 1 135 26 is_stmt 0 view .LVU98
 314 00c0 0BF15A02 		add	r2, fp, #90
 315 00c4 13B2     		sxth	r3, r2
 316 00c6 1846     		mov	r0, r3
 317 00c8 0393     		str	r3, [sp, #12]
 318 00ca FFF7FEFF 		bl	lv_trigo_sin
 319              	.LVL21:
 135:Drivers/lvgl/src/draw/lv_draw_arc.c ****                                 lv_trigo_sin(start_angle + 90)) * rin) >> LV_TRIGO_SHIFT) - extra_a
 320              		.loc 1 135 26 view .LVU99
 321 00ce 06F15A02 		add	r2, r6, #90
 322 00d2 12B2     		sxth	r2, r2
 323 00d4 0290     		str	r0, [sp, #8]
 324 00d6 1046     		mov	r0, r2
 325 00d8 0192     		str	r2, [sp, #4]
 326 00da FFF7FEFF 		bl	lv_trigo_sin
 327              	.LVL22:
 328 00de 0299     		ldr	r1, [sp, #8]
 329 00e0 019A     		ldr	r2, [sp, #4]
 330 00e2 8142     		cmp	r1, r0
ARM GAS  /var/folders/0z/tsy30v1j4xl4_7kw94k978ww0000gn/T//ccOkarGI.s 			page 10


 331 00e4 B6BF     		itet	lt
 332 00e6 039B     		ldrlt	r3, [sp, #12]
 333 00e8 1046     		movge	r0, r2
 334 00ea 1846     		movlt	r0, r3
 335 00ec FFF7FEFF 		bl	lv_trigo_sin
 336              	.LVL23:
 135:Drivers/lvgl/src/draw/lv_draw_arc.c ****                                 lv_trigo_sin(start_angle + 90)) * rin) >> LV_TRIGO_SHIFT) - extra_a
 337              		.loc 1 135 22 view .LVU100
 338 00f0 A4B2     		uxth	r4, r4
 136:Drivers/lvgl/src/draw/lv_draw_arc.c ****         area->y1 = y + ((lv_trigo_sin(start_angle) * rout) >> LV_TRIGO_SHIFT) - extra_area;
 339              		.loc 1 136 91 view .LVU101
 340 00f2 A4EB0801 		sub	r1, r4, r8
 136:Drivers/lvgl/src/draw/lv_draw_arc.c ****         area->y1 = y + ((lv_trigo_sin(start_angle) * rout) >> LV_TRIGO_SHIFT) - extra_area;
 341              		.loc 1 136 65 view .LVU102
 342 00f6 00FB09F2 		mul	r2, r0, r9
 136:Drivers/lvgl/src/draw/lv_draw_arc.c ****         area->y1 = y + ((lv_trigo_sin(start_angle) * rout) >> LV_TRIGO_SHIFT) - extra_area;
 343              		.loc 1 136 91 view .LVU103
 344 00fa 01EBE232 		add	r2, r1, r2, asr #15
 137:Drivers/lvgl/src/draw/lv_draw_arc.c ****         area->x2 = x + rout + extra_area;
 345              		.loc 1 137 26 view .LVU104
 346 00fe 30B2     		sxth	r0, r6
 135:Drivers/lvgl/src/draw/lv_draw_arc.c ****                                 lv_trigo_sin(start_angle + 90)) * rin) >> LV_TRIGO_SHIFT) - extra_a
 347              		.loc 1 135 18 view .LVU105
 348 0100 AAF80020 		strh	r2, [r10]	@ movhi
 137:Drivers/lvgl/src/draw/lv_draw_arc.c ****         area->x2 = x + rout + extra_area;
 349              		.loc 1 137 9 is_stmt 1 view .LVU106
 137:Drivers/lvgl/src/draw/lv_draw_arc.c ****         area->x2 = x + rout + extra_area;
 350              		.loc 1 137 26 is_stmt 0 view .LVU107
 351 0104 FFF7FEFF 		bl	lv_trigo_sin
 352              	.LVL24:
 137:Drivers/lvgl/src/draw/lv_draw_arc.c ****         area->x2 = x + rout + extra_area;
 353              		.loc 1 137 52 view .LVU108
 354 0108 009E     		ldr	r6, [sp]
 355              	.LVL25:
 137:Drivers/lvgl/src/draw/lv_draw_arc.c ****         area->x2 = x + rout + extra_area;
 356              		.loc 1 137 22 view .LVU109
 357 010a ADB2     		uxth	r5, r5
 137:Drivers/lvgl/src/draw/lv_draw_arc.c ****         area->x2 = x + rout + extra_area;
 358              		.loc 1 137 52 view .LVU110
 359 010c 00FB06F1 		mul	r1, r0, r6
 137:Drivers/lvgl/src/draw/lv_draw_arc.c ****         area->x2 = x + rout + extra_area;
 360              		.loc 1 137 79 view .LVU111
 361 0110 A5EB0802 		sub	r2, r5, r8
 138:Drivers/lvgl/src/draw/lv_draw_arc.c ****         area->y2 = y + ((lv_trigo_sin(end_angle) * rout) >> LV_TRIGO_SHIFT) + extra_area;
 362              		.loc 1 138 22 view .LVU112
 363 0114 3C44     		add	r4, r4, r7
 137:Drivers/lvgl/src/draw/lv_draw_arc.c ****         area->x2 = x + rout + extra_area;
 364              		.loc 1 137 79 view .LVU113
 365 0116 02EBE132 		add	r2, r2, r1, asr #15
 138:Drivers/lvgl/src/draw/lv_draw_arc.c ****         area->y2 = y + ((lv_trigo_sin(end_angle) * rout) >> LV_TRIGO_SHIFT) + extra_area;
 366              		.loc 1 138 29 view .LVU114
 367 011a 4444     		add	r4, r4, r8
 138:Drivers/lvgl/src/draw/lv_draw_arc.c ****         area->y2 = y + ((lv_trigo_sin(end_angle) * rout) >> LV_TRIGO_SHIFT) + extra_area;
 368              		.loc 1 138 18 view .LVU115
 369 011c AAF80440 		strh	r4, [r10, #4]	@ movhi
 139:Drivers/lvgl/src/draw/lv_draw_arc.c **** 
 370              		.loc 1 139 26 view .LVU116
ARM GAS  /var/folders/0z/tsy30v1j4xl4_7kw94k978ww0000gn/T//ccOkarGI.s 			page 11


 371 0120 0FFA8BF0 		sxth	r0, fp
 137:Drivers/lvgl/src/draw/lv_draw_arc.c ****         area->x2 = x + rout + extra_area;
 372              		.loc 1 137 18 view .LVU117
 373 0124 AAF80220 		strh	r2, [r10, #2]	@ movhi
 138:Drivers/lvgl/src/draw/lv_draw_arc.c ****         area->y2 = y + ((lv_trigo_sin(end_angle) * rout) >> LV_TRIGO_SHIFT) + extra_area;
 374              		.loc 1 138 9 is_stmt 1 view .LVU118
 139:Drivers/lvgl/src/draw/lv_draw_arc.c **** 
 375              		.loc 1 139 9 view .LVU119
 139:Drivers/lvgl/src/draw/lv_draw_arc.c **** 
 376              		.loc 1 139 26 is_stmt 0 view .LVU120
 377 0128 FFF7FEFF 		bl	lv_trigo_sin
 378              	.LVL26:
 139:Drivers/lvgl/src/draw/lv_draw_arc.c **** 
 379              		.loc 1 139 77 view .LVU121
 380 012c 4544     		add	r5, r5, r8
 139:Drivers/lvgl/src/draw/lv_draw_arc.c **** 
 381              		.loc 1 139 50 view .LVU122
 382 012e 06FB00F0 		mul	r0, r6, r0
 139:Drivers/lvgl/src/draw/lv_draw_arc.c **** 
 383              		.loc 1 139 77 view .LVU123
 384 0132 05EBE035 		add	r5, r5, r0, asr #15
 139:Drivers/lvgl/src/draw/lv_draw_arc.c **** 
 385              		.loc 1 139 18 view .LVU124
 386 0136 AAF80650 		strh	r5, [r10, #6]	@ movhi
 387 013a B1E7     		b	.L10
 388              	.LVL27:
 389              	.L52:
  83:Drivers/lvgl/src/draw/lv_draw_arc.c ****         if(start_quarter == 0) {
 390              		.loc 1 83 37 discriminator 1 view .LVU125
 391 013c 5E45     		cmp	r6, fp
 392 013e 9BD8     		bhi	.L23
  84:Drivers/lvgl/src/draw/lv_draw_arc.c ****             area->y1 = y + ((lv_trigo_sin(start_angle) * rin) >> LV_TRIGO_SHIFT) - extra_area;
 393              		.loc 1 84 9 is_stmt 1 view .LVU126
 394 0140 032A     		cmp	r2, #3
 395 0142 ADD8     		bhi	.L10
 396 0144 DFE812F0 		tbh	[pc, r2, lsl #1]
 397              	.LVL28:
 398              	.L24:
 399 0148 3901     		.2byte	(.L27-.L24)/2
 400 014a 0401     		.2byte	(.L26-.L24)/2
 401 014c 6D01     		.2byte	(.L25-.L24)/2
 402 014e 0600     		.2byte	(.L18-.L24)/2
 403              		.p2align 1
 404              	.L47:
  83:Drivers/lvgl/src/draw/lv_draw_arc.c ****         if(start_quarter == 0) {
 405              		.loc 1 83 37 is_stmt 0 view .LVU127
 406 0150 5E45     		cmp	r6, fp
 407 0152 97D8     		bhi	.L19
 408              	.L18:
 106:Drivers/lvgl/src/draw/lv_draw_arc.c ****             area->y1 = y + ((lv_trigo_sin(start_angle) * rout) >> LV_TRIGO_SHIFT) - extra_area;
 409              		.loc 1 106 13 is_stmt 1 view .LVU128
 106:Drivers/lvgl/src/draw/lv_draw_arc.c ****             area->y1 = y + ((lv_trigo_sin(start_angle) * rout) >> LV_TRIGO_SHIFT) - extra_area;
 410              		.loc 1 106 55 is_stmt 0 view .LVU129
 411 0154 06F15A00 		add	r0, r6, #90
 106:Drivers/lvgl/src/draw/lv_draw_arc.c ****             area->y1 = y + ((lv_trigo_sin(start_angle) * rout) >> LV_TRIGO_SHIFT) - extra_area;
 412              		.loc 1 106 30 view .LVU130
 413 0158 00B2     		sxth	r0, r0
ARM GAS  /var/folders/0z/tsy30v1j4xl4_7kw94k978ww0000gn/T//ccOkarGI.s 			page 12


 414 015a FFF7FEFF 		bl	lv_trigo_sin
 415              	.LVL29:
 106:Drivers/lvgl/src/draw/lv_draw_arc.c ****             area->y1 = y + ((lv_trigo_sin(start_angle) * rout) >> LV_TRIGO_SHIFT) - extra_area;
 416              		.loc 1 106 26 view .LVU131
 417 015e A4B2     		uxth	r4, r4
 106:Drivers/lvgl/src/draw/lv_draw_arc.c ****             area->y1 = y + ((lv_trigo_sin(start_angle) * rout) >> LV_TRIGO_SHIFT) - extra_area;
 418              		.loc 1 106 61 view .LVU132
 419 0160 00FB09F1 		mul	r1, r0, r9
 106:Drivers/lvgl/src/draw/lv_draw_arc.c ****             area->y1 = y + ((lv_trigo_sin(start_angle) * rout) >> LV_TRIGO_SHIFT) - extra_area;
 420              		.loc 1 106 87 view .LVU133
 421 0164 A4EB0802 		sub	r2, r4, r8
 422 0168 02EBE132 		add	r2, r2, r1, asr #15
 107:Drivers/lvgl/src/draw/lv_draw_arc.c **** 
 423              		.loc 1 107 30 view .LVU134
 424 016c 30B2     		sxth	r0, r6
 106:Drivers/lvgl/src/draw/lv_draw_arc.c ****             area->y1 = y + ((lv_trigo_sin(start_angle) * rout) >> LV_TRIGO_SHIFT) - extra_area;
 425              		.loc 1 106 22 view .LVU135
 426 016e AAF80020 		strh	r2, [r10]	@ movhi
 107:Drivers/lvgl/src/draw/lv_draw_arc.c **** 
 427              		.loc 1 107 13 is_stmt 1 view .LVU136
 107:Drivers/lvgl/src/draw/lv_draw_arc.c **** 
 428              		.loc 1 107 30 is_stmt 0 view .LVU137
 429 0172 FFF7FEFF 		bl	lv_trigo_sin
 430              	.LVL30:
 107:Drivers/lvgl/src/draw/lv_draw_arc.c **** 
 431              		.loc 1 107 56 view .LVU138
 432 0176 009E     		ldr	r6, [sp]
 433              	.LVL31:
 107:Drivers/lvgl/src/draw/lv_draw_arc.c **** 
 434              		.loc 1 107 26 view .LVU139
 435 0178 ADB2     		uxth	r5, r5
 107:Drivers/lvgl/src/draw/lv_draw_arc.c **** 
 436              		.loc 1 107 56 view .LVU140
 437 017a 06FB00F0 		mul	r0, r6, r0
 107:Drivers/lvgl/src/draw/lv_draw_arc.c **** 
 438              		.loc 1 107 83 view .LVU141
 439 017e A5EB0802 		sub	r2, r5, r8
 440 0182 02EBE032 		add	r2, r2, r0, asr #15
 109:Drivers/lvgl/src/draw/lv_draw_arc.c ****             area->y2 = y + ((lv_trigo_sin(end_angle) * rin) >> LV_TRIGO_SHIFT) + extra_area;
 441              		.loc 1 109 53 view .LVU142
 442 0186 0BF15A00 		add	r0, fp, #90
 107:Drivers/lvgl/src/draw/lv_draw_arc.c **** 
 443              		.loc 1 107 22 view .LVU143
 444 018a AAF80220 		strh	r2, [r10, #2]	@ movhi
 109:Drivers/lvgl/src/draw/lv_draw_arc.c ****             area->y2 = y + ((lv_trigo_sin(end_angle) * rin) >> LV_TRIGO_SHIFT) + extra_area;
 445              		.loc 1 109 13 is_stmt 1 view .LVU144
 109:Drivers/lvgl/src/draw/lv_draw_arc.c ****             area->y2 = y + ((lv_trigo_sin(end_angle) * rin) >> LV_TRIGO_SHIFT) + extra_area;
 446              		.loc 1 109 30 is_stmt 0 view .LVU145
 447 018e 00B2     		sxth	r0, r0
 448 0190 FFF7FEFF 		bl	lv_trigo_sin
 449              	.LVL32:
 109:Drivers/lvgl/src/draw/lv_draw_arc.c ****             area->y2 = y + ((lv_trigo_sin(end_angle) * rin) >> LV_TRIGO_SHIFT) + extra_area;
 450              		.loc 1 109 86 view .LVU146
 451 0194 4444     		add	r4, r4, r8
 109:Drivers/lvgl/src/draw/lv_draw_arc.c ****             area->y2 = y + ((lv_trigo_sin(end_angle) * rin) >> LV_TRIGO_SHIFT) + extra_area;
 452              		.loc 1 109 59 view .LVU147
 453 0196 06FB00F0 		mul	r0, r6, r0
ARM GAS  /var/folders/0z/tsy30v1j4xl4_7kw94k978ww0000gn/T//ccOkarGI.s 			page 13


 109:Drivers/lvgl/src/draw/lv_draw_arc.c ****             area->y2 = y + ((lv_trigo_sin(end_angle) * rin) >> LV_TRIGO_SHIFT) + extra_area;
 454              		.loc 1 109 86 view .LVU148
 455 019a 04EBE034 		add	r4, r4, r0, asr #15
 109:Drivers/lvgl/src/draw/lv_draw_arc.c ****             area->y2 = y + ((lv_trigo_sin(end_angle) * rin) >> LV_TRIGO_SHIFT) + extra_area;
 456              		.loc 1 109 22 view .LVU149
 457 019e AAF80440 		strh	r4, [r10, #4]	@ movhi
 110:Drivers/lvgl/src/draw/lv_draw_arc.c ****         }
 458              		.loc 1 110 13 is_stmt 1 view .LVU150
 110:Drivers/lvgl/src/draw/lv_draw_arc.c ****         }
 459              		.loc 1 110 30 is_stmt 0 view .LVU151
 460 01a2 0FFA8BF0 		sxth	r0, fp
 461 01a6 FFF7FEFF 		bl	lv_trigo_sin
 462              	.LVL33:
 110:Drivers/lvgl/src/draw/lv_draw_arc.c ****         }
 463              		.loc 1 110 80 view .LVU152
 464 01aa 4544     		add	r5, r5, r8
 110:Drivers/lvgl/src/draw/lv_draw_arc.c ****         }
 465              		.loc 1 110 54 view .LVU153
 466 01ac 09FB00F0 		mul	r0, r9, r0
 110:Drivers/lvgl/src/draw/lv_draw_arc.c ****         }
 467              		.loc 1 110 80 view .LVU154
 468 01b0 05EBE035 		add	r5, r5, r0, asr #15
 110:Drivers/lvgl/src/draw/lv_draw_arc.c ****         }
 469              		.loc 1 110 22 view .LVU155
 470 01b4 AAF80650 		strh	r5, [r10, #6]	@ movhi
 471 01b8 72E7     		b	.L10
 472              	.LVL34:
 473              	.L54:
 114:Drivers/lvgl/src/draw/lv_draw_arc.c ****         area->y1 = y + ((LV_MIN(lv_trigo_sin(end_angle),
 474              		.loc 1 114 9 is_stmt 1 view .LVU156
 114:Drivers/lvgl/src/draw/lv_draw_arc.c ****         area->y1 = y + ((LV_MIN(lv_trigo_sin(end_angle),
 475              		.loc 1 114 49 is_stmt 0 view .LVU157
 476 01ba 0BF15A00 		add	r0, fp, #90
 114:Drivers/lvgl/src/draw/lv_draw_arc.c ****         area->y1 = y + ((LV_MIN(lv_trigo_sin(end_angle),
 477              		.loc 1 114 26 view .LVU158
 478 01be 00B2     		sxth	r0, r0
 479 01c0 FFF7FEFF 		bl	lv_trigo_sin
 480              	.LVL35:
 114:Drivers/lvgl/src/draw/lv_draw_arc.c ****         area->y1 = y + ((LV_MIN(lv_trigo_sin(end_angle),
 481              		.loc 1 114 55 view .LVU159
 482 01c4 009B     		ldr	r3, [sp]
 114:Drivers/lvgl/src/draw/lv_draw_arc.c ****         area->y1 = y + ((LV_MIN(lv_trigo_sin(end_angle),
 483              		.loc 1 114 22 view .LVU160
 484 01c6 A4B2     		uxth	r4, r4
 114:Drivers/lvgl/src/draw/lv_draw_arc.c ****         area->y1 = y + ((LV_MIN(lv_trigo_sin(end_angle),
 485              		.loc 1 114 55 view .LVU161
 486 01c8 03FB00F0 		mul	r0, r3, r0
 114:Drivers/lvgl/src/draw/lv_draw_arc.c ****         area->y1 = y + ((LV_MIN(lv_trigo_sin(end_angle),
 487              		.loc 1 114 82 view .LVU162
 488 01cc A4EB0802 		sub	r2, r4, r8
 489 01d0 02EBE032 		add	r2, r2, r0, asr #15
 115:Drivers/lvgl/src/draw/lv_draw_arc.c ****                                 lv_trigo_sin(start_angle))  * rin) >> LV_TRIGO_SHIFT) - extra_area;
 490              		.loc 1 115 26 view .LVU163
 491 01d4 0FFA8BFB 		sxth	fp, fp
 492              	.LVL36:
 114:Drivers/lvgl/src/draw/lv_draw_arc.c ****         area->y1 = y + ((LV_MIN(lv_trigo_sin(end_angle),
 493              		.loc 1 114 18 view .LVU164
ARM GAS  /var/folders/0z/tsy30v1j4xl4_7kw94k978ww0000gn/T//ccOkarGI.s 			page 14


 494 01d8 AAF80020 		strh	r2, [r10]	@ movhi
 115:Drivers/lvgl/src/draw/lv_draw_arc.c ****                                 lv_trigo_sin(start_angle))  * rin) >> LV_TRIGO_SHIFT) - extra_area;
 495              		.loc 1 115 9 is_stmt 1 view .LVU165
 115:Drivers/lvgl/src/draw/lv_draw_arc.c ****                                 lv_trigo_sin(start_angle))  * rin) >> LV_TRIGO_SHIFT) - extra_area;
 496              		.loc 1 115 26 is_stmt 0 view .LVU166
 497 01dc 5846     		mov	r0, fp
 498 01de FFF7FEFF 		bl	lv_trigo_sin
 499              	.LVL37:
 500 01e2 32B2     		sxth	r2, r6
 501 01e4 0290     		str	r0, [sp, #8]
 502 01e6 1046     		mov	r0, r2
 503 01e8 0192     		str	r2, [sp, #4]
 504 01ea FFF7FEFF 		bl	lv_trigo_sin
 505              	.LVL38:
 506 01ee 029B     		ldr	r3, [sp, #8]
 507 01f0 019A     		ldr	r2, [sp, #4]
 508 01f2 8342     		cmp	r3, r0
 509 01f4 ACBF     		ite	ge
 510 01f6 1046     		movge	r0, r2
 511 01f8 5846     		movlt	r0, fp
 512 01fa FFF7FEFF 		bl	lv_trigo_sin
 513              	.LVL39:
 115:Drivers/lvgl/src/draw/lv_draw_arc.c ****                                 lv_trigo_sin(start_angle))  * rin) >> LV_TRIGO_SHIFT) - extra_area;
 514              		.loc 1 115 22 view .LVU167
 515 01fe ADB2     		uxth	r5, r5
 116:Drivers/lvgl/src/draw/lv_draw_arc.c ****         area->x2 = x + ((lv_trigo_sin(start_angle + 90) * rout) >> LV_TRIGO_SHIFT) + extra_area;
 516              		.loc 1 116 87 view .LVU168
 517 0200 A5EB0801 		sub	r1, r5, r8
 116:Drivers/lvgl/src/draw/lv_draw_arc.c ****         area->x2 = x + ((lv_trigo_sin(start_angle + 90) * rout) >> LV_TRIGO_SHIFT) + extra_area;
 518              		.loc 1 116 61 view .LVU169
 519 0204 00FB09F2 		mul	r2, r0, r9
 116:Drivers/lvgl/src/draw/lv_draw_arc.c ****         area->x2 = x + ((lv_trigo_sin(start_angle + 90) * rout) >> LV_TRIGO_SHIFT) + extra_area;
 520              		.loc 1 116 87 view .LVU170
 521 0208 01EBE232 		add	r2, r1, r2, asr #15
 117:Drivers/lvgl/src/draw/lv_draw_arc.c ****         area->y2 = y + rout + extra_area;
 522              		.loc 1 117 51 view .LVU171
 523 020c 06F15A00 		add	r0, r6, #90
 117:Drivers/lvgl/src/draw/lv_draw_arc.c ****         area->y2 = y + rout + extra_area;
 524              		.loc 1 117 26 view .LVU172
 525 0210 00B2     		sxth	r0, r0
 115:Drivers/lvgl/src/draw/lv_draw_arc.c ****                                 lv_trigo_sin(start_angle))  * rin) >> LV_TRIGO_SHIFT) - extra_area;
 526              		.loc 1 115 18 view .LVU173
 527 0212 AAF80220 		strh	r2, [r10, #2]	@ movhi
 117:Drivers/lvgl/src/draw/lv_draw_arc.c ****         area->y2 = y + rout + extra_area;
 528              		.loc 1 117 9 is_stmt 1 view .LVU174
 117:Drivers/lvgl/src/draw/lv_draw_arc.c ****         area->y2 = y + rout + extra_area;
 529              		.loc 1 117 26 is_stmt 0 view .LVU175
 530 0216 FFF7FEFF 		bl	lv_trigo_sin
 531              	.LVL40:
 117:Drivers/lvgl/src/draw/lv_draw_arc.c ****         area->y2 = y + rout + extra_area;
 532              		.loc 1 117 57 view .LVU176
 533 021a 009B     		ldr	r3, [sp]
 118:Drivers/lvgl/src/draw/lv_draw_arc.c ****     }
 534              		.loc 1 118 22 view .LVU177
 535 021c 3D44     		add	r5, r5, r7
 117:Drivers/lvgl/src/draw/lv_draw_arc.c ****         area->y2 = y + rout + extra_area;
 536              		.loc 1 117 57 view .LVU178
ARM GAS  /var/folders/0z/tsy30v1j4xl4_7kw94k978ww0000gn/T//ccOkarGI.s 			page 15


 537 021e 03FB00F0 		mul	r0, r3, r0
 117:Drivers/lvgl/src/draw/lv_draw_arc.c ****         area->y2 = y + rout + extra_area;
 538              		.loc 1 117 84 view .LVU179
 539 0222 4444     		add	r4, r4, r8
 540 0224 04EBE034 		add	r4, r4, r0, asr #15
 118:Drivers/lvgl/src/draw/lv_draw_arc.c ****     }
 541              		.loc 1 118 29 view .LVU180
 542 0228 4544     		add	r5, r5, r8
 117:Drivers/lvgl/src/draw/lv_draw_arc.c ****         area->y2 = y + rout + extra_area;
 543              		.loc 1 117 18 view .LVU181
 544 022a AAF80440 		strh	r4, [r10, #4]	@ movhi
 118:Drivers/lvgl/src/draw/lv_draw_arc.c ****     }
 545              		.loc 1 118 9 is_stmt 1 view .LVU182
 118:Drivers/lvgl/src/draw/lv_draw_arc.c ****     }
 546              		.loc 1 118 18 is_stmt 0 view .LVU183
 547 022e AAF80650 		strh	r5, [r10, #6]	@ movhi
 548 0232 35E7     		b	.L10
 549              	.LVL41:
 550              	.L51:
  81:Drivers/lvgl/src/draw/lv_draw_arc.c **** 
 551              		.loc 1 81 26 is_stmt 1 view .LVU184
  83:Drivers/lvgl/src/draw/lv_draw_arc.c ****         if(start_quarter == 0) {
 552              		.loc 1 83 5 view .LVU185
  83:Drivers/lvgl/src/draw/lv_draw_arc.c ****         if(start_quarter == 0) {
 553              		.loc 1 83 7 is_stmt 0 view .LVU186
 554 0234 032A     		cmp	r2, #3
 555 0236 8BD0     		beq	.L47
 113:Drivers/lvgl/src/draw/lv_draw_arc.c ****         area->x1 = x + ((lv_trigo_sin(end_angle + 90) * rout) >> LV_TRIGO_SHIFT) - extra_area;
 556              		.loc 1 113 10 is_stmt 1 view .LVU187
 113:Drivers/lvgl/src/draw/lv_draw_arc.c ****         area->x1 = x + ((lv_trigo_sin(end_angle + 90) * rout) >> LV_TRIGO_SHIFT) - extra_area;
 557              		.loc 1 113 12 is_stmt 0 view .LVU188
 558 0238 022A     		cmp	r2, #2
 559 023a 7FF423AF 		bne	.L19
 560              	.LVL42:
 561              	.L40:
 128:Drivers/lvgl/src/draw/lv_draw_arc.c ****         area->y1 = y - rout - extra_area;
 562              		.loc 1 128 9 is_stmt 1 view .LVU189
 128:Drivers/lvgl/src/draw/lv_draw_arc.c ****         area->y1 = y - rout - extra_area;
 563              		.loc 1 128 51 is_stmt 0 view .LVU190
 564 023e 06F15A00 		add	r0, r6, #90
 128:Drivers/lvgl/src/draw/lv_draw_arc.c ****         area->y1 = y - rout - extra_area;
 565              		.loc 1 128 26 view .LVU191
 566 0242 00B2     		sxth	r0, r0
 567 0244 FFF7FEFF 		bl	lv_trigo_sin
 568              	.LVL43:
 128:Drivers/lvgl/src/draw/lv_draw_arc.c ****         area->y1 = y - rout - extra_area;
 569              		.loc 1 128 57 view .LVU192
 570 0248 009B     		ldr	r3, [sp]
 128:Drivers/lvgl/src/draw/lv_draw_arc.c ****         area->y1 = y - rout - extra_area;
 571              		.loc 1 128 22 view .LVU193
 572 024a A4B2     		uxth	r4, r4
 129:Drivers/lvgl/src/draw/lv_draw_arc.c ****         area->x2 = x + ((lv_trigo_sin(end_angle + 90) * rout) >> LV_TRIGO_SHIFT) + extra_area;
 573              		.loc 1 129 22 view .LVU194
 574 024c ADB2     		uxth	r5, r5
 128:Drivers/lvgl/src/draw/lv_draw_arc.c ****         area->y1 = y - rout - extra_area;
 575              		.loc 1 128 57 view .LVU195
 576 024e 03FB00F0 		mul	r0, r3, r0
ARM GAS  /var/folders/0z/tsy30v1j4xl4_7kw94k978ww0000gn/T//ccOkarGI.s 			page 16


 129:Drivers/lvgl/src/draw/lv_draw_arc.c ****         area->x2 = x + ((lv_trigo_sin(end_angle + 90) * rout) >> LV_TRIGO_SHIFT) + extra_area;
 577              		.loc 1 129 22 view .LVU196
 578 0252 EF1B     		subs	r7, r5, r7
 128:Drivers/lvgl/src/draw/lv_draw_arc.c ****         area->y1 = y - rout - extra_area;
 579              		.loc 1 128 84 view .LVU197
 580 0254 A4EB0802 		sub	r2, r4, r8
 581 0258 02EBE032 		add	r2, r2, r0, asr #15
 129:Drivers/lvgl/src/draw/lv_draw_arc.c ****         area->x2 = x + ((lv_trigo_sin(end_angle + 90) * rout) >> LV_TRIGO_SHIFT) + extra_area;
 582              		.loc 1 129 29 view .LVU198
 583 025c A7EB0807 		sub	r7, r7, r8
 130:Drivers/lvgl/src/draw/lv_draw_arc.c ****         area->y2 = y + (LV_MAX(lv_trigo_sin(end_angle) * rin,
 584              		.loc 1 130 49 view .LVU199
 585 0260 0BF15A00 		add	r0, fp, #90
 128:Drivers/lvgl/src/draw/lv_draw_arc.c ****         area->y1 = y - rout - extra_area;
 586              		.loc 1 128 18 view .LVU200
 587 0264 AAF80020 		strh	r2, [r10]	@ movhi
 129:Drivers/lvgl/src/draw/lv_draw_arc.c ****         area->x2 = x + ((lv_trigo_sin(end_angle + 90) * rout) >> LV_TRIGO_SHIFT) + extra_area;
 588              		.loc 1 129 9 is_stmt 1 view .LVU201
 130:Drivers/lvgl/src/draw/lv_draw_arc.c ****         area->y2 = y + (LV_MAX(lv_trigo_sin(end_angle) * rin,
 589              		.loc 1 130 9 view .LVU202
 129:Drivers/lvgl/src/draw/lv_draw_arc.c ****         area->x2 = x + ((lv_trigo_sin(end_angle + 90) * rout) >> LV_TRIGO_SHIFT) + extra_area;
 590              		.loc 1 129 18 is_stmt 0 view .LVU203
 591 0268 AAF80270 		strh	r7, [r10, #2]	@ movhi
 130:Drivers/lvgl/src/draw/lv_draw_arc.c ****         area->y2 = y + (LV_MAX(lv_trigo_sin(end_angle) * rin,
 592              		.loc 1 130 26 view .LVU204
 593 026c 00B2     		sxth	r0, r0
 594 026e FFF7FEFF 		bl	lv_trigo_sin
 595              	.LVL44:
 130:Drivers/lvgl/src/draw/lv_draw_arc.c ****         area->y2 = y + (LV_MAX(lv_trigo_sin(end_angle) * rin,
 596              		.loc 1 130 55 view .LVU205
 597 0272 009B     		ldr	r3, [sp]
 130:Drivers/lvgl/src/draw/lv_draw_arc.c ****         area->y2 = y + (LV_MAX(lv_trigo_sin(end_angle) * rin,
 598              		.loc 1 130 82 view .LVU206
 599 0274 4444     		add	r4, r4, r8
 130:Drivers/lvgl/src/draw/lv_draw_arc.c ****         area->y2 = y + (LV_MAX(lv_trigo_sin(end_angle) * rin,
 600              		.loc 1 130 55 view .LVU207
 601 0276 03FB00F0 		mul	r0, r3, r0
 130:Drivers/lvgl/src/draw/lv_draw_arc.c ****         area->y2 = y + (LV_MAX(lv_trigo_sin(end_angle) * rin,
 602              		.loc 1 130 82 view .LVU208
 603 027a 04EBE034 		add	r4, r4, r0, asr #15
 131:Drivers/lvgl/src/draw/lv_draw_arc.c ****                                lv_trigo_sin(start_angle) * rin) >> LV_TRIGO_SHIFT) + extra_area;
 604              		.loc 1 131 25 view .LVU209
 605 027e 0FFA8BFB 		sxth	fp, fp
 130:Drivers/lvgl/src/draw/lv_draw_arc.c ****         area->y2 = y + (LV_MAX(lv_trigo_sin(end_angle) * rin,
 606              		.loc 1 130 18 view .LVU210
 607 0282 AAF80440 		strh	r4, [r10, #4]	@ movhi
 131:Drivers/lvgl/src/draw/lv_draw_arc.c ****                                lv_trigo_sin(start_angle) * rin) >> LV_TRIGO_SHIFT) + extra_area;
 608              		.loc 1 131 9 is_stmt 1 view .LVU211
 131:Drivers/lvgl/src/draw/lv_draw_arc.c ****                                lv_trigo_sin(start_angle) * rin) >> LV_TRIGO_SHIFT) + extra_area;
 609              		.loc 1 131 25 is_stmt 0 view .LVU212
 610 0286 5846     		mov	r0, fp
 611 0288 FFF7FEFF 		bl	lv_trigo_sin
 612              	.LVL45:
 613 028c 36B2     		sxth	r6, r6
 614              	.LVL46:
 131:Drivers/lvgl/src/draw/lv_draw_arc.c ****                                lv_trigo_sin(start_angle) * rin) >> LV_TRIGO_SHIFT) + extra_area;
 615              		.loc 1 131 25 view .LVU213
ARM GAS  /var/folders/0z/tsy30v1j4xl4_7kw94k978ww0000gn/T//ccOkarGI.s 			page 17


 616 028e 00FB09F4 		mul	r4, r0, r9
 617 0292 3046     		mov	r0, r6
 618 0294 FFF7FEFF 		bl	lv_trigo_sin
 619              	.LVL47:
 620 0298 09FB00F0 		mul	r0, r9, r0
 131:Drivers/lvgl/src/draw/lv_draw_arc.c ****                                lv_trigo_sin(start_angle) * rin) >> LV_TRIGO_SHIFT) + extra_area;
 621              		.loc 1 131 22 view .LVU214
 622 029c 8442     		cmp	r4, r0
 131:Drivers/lvgl/src/draw/lv_draw_arc.c ****                                lv_trigo_sin(start_angle) * rin) >> LV_TRIGO_SHIFT) + extra_area;
 623              		.loc 1 131 25 view .LVU215
 624 029e CCBF     		ite	gt
 625 02a0 5846     		movgt	r0, fp
 626 02a2 3046     		movle	r0, r6
 627 02a4 FFF7FEFF 		bl	lv_trigo_sin
 628              	.LVL48:
 629 02a8 09FB00F2 		mul	r2, r9, r0
 131:Drivers/lvgl/src/draw/lv_draw_arc.c ****                                lv_trigo_sin(start_angle) * rin) >> LV_TRIGO_SHIFT) + extra_area;
 630              		.loc 1 131 22 view .LVU216
 631 02ac C2F3CF32 		ubfx	r2, r2, #15, #16
 132:Drivers/lvgl/src/draw/lv_draw_arc.c ****     }
 632              		.loc 1 132 84 view .LVU217
 633 02b0 4544     		add	r5, r5, r8
 634 02b2 2A44     		add	r2, r2, r5
 131:Drivers/lvgl/src/draw/lv_draw_arc.c ****                                lv_trigo_sin(start_angle) * rin) >> LV_TRIGO_SHIFT) + extra_area;
 635              		.loc 1 131 18 view .LVU218
 636 02b4 AAF80620 		strh	r2, [r10, #6]	@ movhi
 637 02b8 F2E6     		b	.L10
 638              	.LVL49:
 639              	.L53:
 120:Drivers/lvgl/src/draw/lv_draw_arc.c ****         area->x1 = x - rout - extra_area;
 640              		.loc 1 120 10 is_stmt 1 view .LVU219
 120:Drivers/lvgl/src/draw/lv_draw_arc.c ****         area->x1 = x - rout - extra_area;
 641              		.loc 1 120 12 is_stmt 0 view .LVU220
 642 02ba 012A     		cmp	r2, #1
 643 02bc 3ED1     		bne	.L55
 120:Drivers/lvgl/src/draw/lv_draw_arc.c ****         area->x1 = x - rout - extra_area;
 644              		.loc 1 120 32 discriminator 1 view .LVU221
 645 02be 0229     		cmp	r1, #2
 646 02c0 7FF4E0AE 		bne	.L19
 121:Drivers/lvgl/src/draw/lv_draw_arc.c ****         area->y1 = y + ((lv_trigo_sin(end_angle) * rout) >> LV_TRIGO_SHIFT) - extra_area;
 647              		.loc 1 121 9 is_stmt 1 view .LVU222
 121:Drivers/lvgl/src/draw/lv_draw_arc.c ****         area->y1 = y + ((lv_trigo_sin(end_angle) * rout) >> LV_TRIGO_SHIFT) - extra_area;
 648              		.loc 1 121 22 is_stmt 0 view .LVU223
 649 02c4 A4B2     		uxth	r4, r4
 650 02c6 E71B     		subs	r7, r4, r7
 121:Drivers/lvgl/src/draw/lv_draw_arc.c ****         area->y1 = y + ((lv_trigo_sin(end_angle) * rout) >> LV_TRIGO_SHIFT) - extra_area;
 651              		.loc 1 121 29 view .LVU224
 652 02c8 A7EB0807 		sub	r7, r7, r8
 121:Drivers/lvgl/src/draw/lv_draw_arc.c ****         area->y1 = y + ((lv_trigo_sin(end_angle) * rout) >> LV_TRIGO_SHIFT) - extra_area;
 653              		.loc 1 121 18 view .LVU225
 654 02cc AAF80070 		strh	r7, [r10]	@ movhi
 122:Drivers/lvgl/src/draw/lv_draw_arc.c ****         area->x2 = x + ((LV_MAX(lv_trigo_sin(start_angle + 90),
 655              		.loc 1 122 9 is_stmt 1 view .LVU226
 122:Drivers/lvgl/src/draw/lv_draw_arc.c ****         area->x2 = x + ((LV_MAX(lv_trigo_sin(start_angle + 90),
 656              		.loc 1 122 26 is_stmt 0 view .LVU227
 657 02d0 0FFA8BF0 		sxth	r0, fp
 658 02d4 FFF7FEFF 		bl	lv_trigo_sin
ARM GAS  /var/folders/0z/tsy30v1j4xl4_7kw94k978ww0000gn/T//ccOkarGI.s 			page 18


 659              	.LVL50:
 122:Drivers/lvgl/src/draw/lv_draw_arc.c ****         area->x2 = x + ((LV_MAX(lv_trigo_sin(start_angle + 90),
 660              		.loc 1 122 50 view .LVU228
 661 02d8 009B     		ldr	r3, [sp]
 122:Drivers/lvgl/src/draw/lv_draw_arc.c ****         area->x2 = x + ((LV_MAX(lv_trigo_sin(start_angle + 90),
 662              		.loc 1 122 22 view .LVU229
 663 02da ADB2     		uxth	r5, r5
 122:Drivers/lvgl/src/draw/lv_draw_arc.c ****         area->x2 = x + ((LV_MAX(lv_trigo_sin(start_angle + 90),
 664              		.loc 1 122 50 view .LVU230
 665 02dc 03FB00F0 		mul	r0, r3, r0
 122:Drivers/lvgl/src/draw/lv_draw_arc.c ****         area->x2 = x + ((LV_MAX(lv_trigo_sin(start_angle + 90),
 666              		.loc 1 122 77 view .LVU231
 667 02e0 A5EB0802 		sub	r2, r5, r8
 123:Drivers/lvgl/src/draw/lv_draw_arc.c ****                                 lv_trigo_sin(end_angle + 90)) * rin) >> LV_TRIGO_SHIFT) + extra_are
 668              		.loc 1 123 26 view .LVU232
 669 02e4 06F15A07 		add	r7, r6, #90
 122:Drivers/lvgl/src/draw/lv_draw_arc.c ****         area->x2 = x + ((LV_MAX(lv_trigo_sin(start_angle + 90),
 670              		.loc 1 122 77 view .LVU233
 671 02e8 02EBE032 		add	r2, r2, r0, asr #15
 123:Drivers/lvgl/src/draw/lv_draw_arc.c ****                                 lv_trigo_sin(end_angle + 90)) * rin) >> LV_TRIGO_SHIFT) + extra_are
 672              		.loc 1 123 26 view .LVU234
 673 02ec 3FB2     		sxth	r7, r7
 122:Drivers/lvgl/src/draw/lv_draw_arc.c ****         area->x2 = x + ((LV_MAX(lv_trigo_sin(start_angle + 90),
 674              		.loc 1 122 18 view .LVU235
 675 02ee AAF80220 		strh	r2, [r10, #2]	@ movhi
 123:Drivers/lvgl/src/draw/lv_draw_arc.c ****                                 lv_trigo_sin(end_angle + 90)) * rin) >> LV_TRIGO_SHIFT) + extra_are
 676              		.loc 1 123 9 is_stmt 1 view .LVU236
 123:Drivers/lvgl/src/draw/lv_draw_arc.c ****                                 lv_trigo_sin(end_angle + 90)) * rin) >> LV_TRIGO_SHIFT) + extra_are
 677              		.loc 1 123 26 is_stmt 0 view .LVU237
 678 02f2 3846     		mov	r0, r7
 679 02f4 FFF7FEFF 		bl	lv_trigo_sin
 680              	.LVL51:
 681 02f8 0BF15A0B 		add	fp, fp, #90
 682              	.LVL52:
 123:Drivers/lvgl/src/draw/lv_draw_arc.c ****                                 lv_trigo_sin(end_angle + 90)) * rin) >> LV_TRIGO_SHIFT) + extra_are
 683              		.loc 1 123 26 view .LVU238
 684 02fc 0FFA8BFB 		sxth	fp, fp
 685              	.LVL53:
 123:Drivers/lvgl/src/draw/lv_draw_arc.c ****                                 lv_trigo_sin(end_angle + 90)) * rin) >> LV_TRIGO_SHIFT) + extra_are
 686              		.loc 1 123 26 view .LVU239
 687 0300 0190     		str	r0, [sp, #4]
 688 0302 5846     		mov	r0, fp
 689 0304 FFF7FEFF 		bl	lv_trigo_sin
 690              	.LVL54:
 691 0308 019A     		ldr	r2, [sp, #4]
 692 030a 8242     		cmp	r2, r0
 693 030c CCBF     		ite	gt
 694 030e 3846     		movgt	r0, r7
 695 0310 5846     		movle	r0, fp
 696 0312 FFF7FEFF 		bl	lv_trigo_sin
 697              	.LVL55:
 124:Drivers/lvgl/src/draw/lv_draw_arc.c ****         area->y2 = y + ((lv_trigo_sin(start_angle) * rout) >> LV_TRIGO_SHIFT) + extra_area;
 698              		.loc 1 124 89 view .LVU240
 699 0316 4444     		add	r4, r4, r8
 124:Drivers/lvgl/src/draw/lv_draw_arc.c ****         area->y2 = y + ((lv_trigo_sin(start_angle) * rout) >> LV_TRIGO_SHIFT) + extra_area;
 700              		.loc 1 124 63 view .LVU241
 701 0318 00FB09F2 		mul	r2, r0, r9
ARM GAS  /var/folders/0z/tsy30v1j4xl4_7kw94k978ww0000gn/T//ccOkarGI.s 			page 19


 124:Drivers/lvgl/src/draw/lv_draw_arc.c ****         area->y2 = y + ((lv_trigo_sin(start_angle) * rout) >> LV_TRIGO_SHIFT) + extra_area;
 702              		.loc 1 124 89 view .LVU242
 703 031c 04EBE234 		add	r4, r4, r2, asr #15
 123:Drivers/lvgl/src/draw/lv_draw_arc.c ****                                 lv_trigo_sin(end_angle + 90)) * rin) >> LV_TRIGO_SHIFT) + extra_are
 704              		.loc 1 123 18 view .LVU243
 705 0320 AAF80440 		strh	r4, [r10, #4]	@ movhi
 125:Drivers/lvgl/src/draw/lv_draw_arc.c ****     }
 706              		.loc 1 125 9 is_stmt 1 view .LVU244
 125:Drivers/lvgl/src/draw/lv_draw_arc.c ****     }
 707              		.loc 1 125 26 is_stmt 0 view .LVU245
 708 0324 30B2     		sxth	r0, r6
 709 0326 FFF7FEFF 		bl	lv_trigo_sin
 710              	.LVL56:
 125:Drivers/lvgl/src/draw/lv_draw_arc.c ****     }
 711              		.loc 1 125 52 view .LVU246
 712 032a 009B     		ldr	r3, [sp]
 125:Drivers/lvgl/src/draw/lv_draw_arc.c ****     }
 713              		.loc 1 125 79 view .LVU247
 714 032c 4544     		add	r5, r5, r8
 125:Drivers/lvgl/src/draw/lv_draw_arc.c ****     }
 715              		.loc 1 125 52 view .LVU248
 716 032e 03FB00F0 		mul	r0, r3, r0
 125:Drivers/lvgl/src/draw/lv_draw_arc.c ****     }
 717              		.loc 1 125 79 view .LVU249
 718 0332 05EBE035 		add	r5, r5, r0, asr #15
 125:Drivers/lvgl/src/draw/lv_draw_arc.c ****     }
 719              		.loc 1 125 18 view .LVU250
 720 0336 AAF80650 		strh	r5, [r10, #6]	@ movhi
 721 033a B1E6     		b	.L10
 722              	.LVL57:
 723              	.L55:
 127:Drivers/lvgl/src/draw/lv_draw_arc.c ****         area->x1 = x + ((lv_trigo_sin(start_angle + 90) * rout) >> LV_TRIGO_SHIFT) - extra_area;
 724              		.loc 1 127 10 is_stmt 1 view .LVU251
 127:Drivers/lvgl/src/draw/lv_draw_arc.c ****         area->x1 = x + ((lv_trigo_sin(start_angle + 90) * rout) >> LV_TRIGO_SHIFT) - extra_area;
 725              		.loc 1 127 12 is_stmt 0 view .LVU252
 726 033c 022A     		cmp	r2, #2
 727 033e 40F0A480 		bne	.L35
 127:Drivers/lvgl/src/draw/lv_draw_arc.c ****         area->x1 = x + ((lv_trigo_sin(start_angle + 90) * rout) >> LV_TRIGO_SHIFT) - extra_area;
 728              		.loc 1 127 32 discriminator 1 view .LVU253
 729 0342 0329     		cmp	r1, #3
 730 0344 7FF49EAE 		bne	.L19
 731 0348 79E7     		b	.L40
 732              	.L57:
 733 034a 00BF     		.align	2
 734              	.L56:
 735 034c B7600BB6 		.word	-1240768329
 736              	.LVL58:
 737              	.L26:
  92:Drivers/lvgl/src/draw/lv_draw_arc.c ****             area->x2 = x + ((lv_trigo_sin(start_angle + 90) * rin) >> LV_TRIGO_SHIFT) + extra_area;
 738              		.loc 1 92 13 is_stmt 1 view .LVU254
  92:Drivers/lvgl/src/draw/lv_draw_arc.c ****             area->x2 = x + ((lv_trigo_sin(start_angle + 90) * rin) >> LV_TRIGO_SHIFT) + extra_area;
 739              		.loc 1 92 30 is_stmt 0 view .LVU255
 740 0350 30B2     		sxth	r0, r6
 741 0352 FFF7FEFF 		bl	lv_trigo_sin
 742              	.LVL59:
  92:Drivers/lvgl/src/draw/lv_draw_arc.c ****             area->x2 = x + ((lv_trigo_sin(start_angle + 90) * rin) >> LV_TRIGO_SHIFT) + extra_area;
 743              		.loc 1 92 56 view .LVU256
ARM GAS  /var/folders/0z/tsy30v1j4xl4_7kw94k978ww0000gn/T//ccOkarGI.s 			page 20


 744 0356 009F     		ldr	r7, [sp]
  92:Drivers/lvgl/src/draw/lv_draw_arc.c ****             area->x2 = x + ((lv_trigo_sin(start_angle + 90) * rin) >> LV_TRIGO_SHIFT) + extra_area;
 745              		.loc 1 92 26 view .LVU257
 746 0358 ADB2     		uxth	r5, r5
  92:Drivers/lvgl/src/draw/lv_draw_arc.c ****             area->x2 = x + ((lv_trigo_sin(start_angle + 90) * rin) >> LV_TRIGO_SHIFT) + extra_area;
 747              		.loc 1 92 56 view .LVU258
 748 035a 00FB07F1 		mul	r1, r0, r7
  92:Drivers/lvgl/src/draw/lv_draw_arc.c ****             area->x2 = x + ((lv_trigo_sin(start_angle + 90) * rin) >> LV_TRIGO_SHIFT) + extra_area;
 749              		.loc 1 92 83 view .LVU259
 750 035e 05EB0802 		add	r2, r5, r8
 751 0362 02EBE132 		add	r2, r2, r1, asr #15
  93:Drivers/lvgl/src/draw/lv_draw_arc.c **** 
 752              		.loc 1 93 55 view .LVU260
 753 0366 06F15A00 		add	r0, r6, #90
  92:Drivers/lvgl/src/draw/lv_draw_arc.c ****             area->x2 = x + ((lv_trigo_sin(start_angle + 90) * rin) >> LV_TRIGO_SHIFT) + extra_area;
 754              		.loc 1 92 22 view .LVU261
 755 036a AAF80620 		strh	r2, [r10, #6]	@ movhi
  93:Drivers/lvgl/src/draw/lv_draw_arc.c **** 
 756              		.loc 1 93 13 is_stmt 1 view .LVU262
  93:Drivers/lvgl/src/draw/lv_draw_arc.c **** 
 757              		.loc 1 93 30 is_stmt 0 view .LVU263
 758 036e 00B2     		sxth	r0, r0
 759 0370 FFF7FEFF 		bl	lv_trigo_sin
 760              	.LVL60:
  93:Drivers/lvgl/src/draw/lv_draw_arc.c **** 
 761              		.loc 1 93 26 view .LVU264
 762 0374 A4B2     		uxth	r4, r4
  93:Drivers/lvgl/src/draw/lv_draw_arc.c **** 
 763              		.loc 1 93 61 view .LVU265
 764 0376 00FB09F0 		mul	r0, r0, r9
  93:Drivers/lvgl/src/draw/lv_draw_arc.c **** 
 765              		.loc 1 93 87 view .LVU266
 766 037a 04EB0802 		add	r2, r4, r8
 767 037e 02EBE032 		add	r2, r2, r0, asr #15
  93:Drivers/lvgl/src/draw/lv_draw_arc.c **** 
 768              		.loc 1 93 22 view .LVU267
 769 0382 AAF80420 		strh	r2, [r10, #4]	@ movhi
  95:Drivers/lvgl/src/draw/lv_draw_arc.c ****             area->x1 = x + ((lv_trigo_sin(end_angle + 90) * rout) >> LV_TRIGO_SHIFT) - extra_area;
 770              		.loc 1 95 13 is_stmt 1 view .LVU268
  95:Drivers/lvgl/src/draw/lv_draw_arc.c ****             area->x1 = x + ((lv_trigo_sin(end_angle + 90) * rout) >> LV_TRIGO_SHIFT) - extra_area;
 771              		.loc 1 95 30 is_stmt 0 view .LVU269
 772 0386 0FFA8BF0 		sxth	r0, fp
 773 038a FFF7FEFF 		bl	lv_trigo_sin
 774              	.LVL61:
  95:Drivers/lvgl/src/draw/lv_draw_arc.c ****             area->x1 = x + ((lv_trigo_sin(end_angle + 90) * rout) >> LV_TRIGO_SHIFT) - extra_area;
 775              		.loc 1 95 80 view .LVU270
 776 038e A5EB0805 		sub	r5, r5, r8
  95:Drivers/lvgl/src/draw/lv_draw_arc.c ****             area->x1 = x + ((lv_trigo_sin(end_angle + 90) * rout) >> LV_TRIGO_SHIFT) - extra_area;
 777              		.loc 1 95 54 view .LVU271
 778 0392 09FB00F0 		mul	r0, r9, r0
  95:Drivers/lvgl/src/draw/lv_draw_arc.c ****             area->x1 = x + ((lv_trigo_sin(end_angle + 90) * rout) >> LV_TRIGO_SHIFT) - extra_area;
 779              		.loc 1 95 80 view .LVU272
 780 0396 05EBE035 		add	r5, r5, r0, asr #15
  96:Drivers/lvgl/src/draw/lv_draw_arc.c ****         }
 781              		.loc 1 96 53 view .LVU273
 782 039a 0BF15A00 		add	r0, fp, #90
  95:Drivers/lvgl/src/draw/lv_draw_arc.c ****             area->x1 = x + ((lv_trigo_sin(end_angle + 90) * rout) >> LV_TRIGO_SHIFT) - extra_area;
ARM GAS  /var/folders/0z/tsy30v1j4xl4_7kw94k978ww0000gn/T//ccOkarGI.s 			page 21


 783              		.loc 1 95 22 view .LVU274
 784 039e AAF80250 		strh	r5, [r10, #2]	@ movhi
  96:Drivers/lvgl/src/draw/lv_draw_arc.c ****         }
 785              		.loc 1 96 13 is_stmt 1 view .LVU275
  96:Drivers/lvgl/src/draw/lv_draw_arc.c ****         }
 786              		.loc 1 96 30 is_stmt 0 view .LVU276
 787 03a2 00B2     		sxth	r0, r0
 788 03a4 FFF7FEFF 		bl	lv_trigo_sin
 789              	.LVL62:
  96:Drivers/lvgl/src/draw/lv_draw_arc.c ****         }
 790              		.loc 1 96 86 view .LVU277
 791 03a8 A4EB0804 		sub	r4, r4, r8
  96:Drivers/lvgl/src/draw/lv_draw_arc.c ****         }
 792              		.loc 1 96 59 view .LVU278
 793 03ac 07FB00F0 		mul	r0, r7, r0
  96:Drivers/lvgl/src/draw/lv_draw_arc.c ****         }
 794              		.loc 1 96 86 view .LVU279
 795 03b0 04EBE034 		add	r4, r4, r0, asr #15
  96:Drivers/lvgl/src/draw/lv_draw_arc.c ****         }
 796              		.loc 1 96 22 view .LVU280
 797 03b4 AAF80040 		strh	r4, [r10]	@ movhi
 798 03b8 72E6     		b	.L10
 799              	.LVL63:
 800              	.L27:
  85:Drivers/lvgl/src/draw/lv_draw_arc.c ****             area->x2 = x + ((lv_trigo_sin(start_angle + 90) * rout) >> LV_TRIGO_SHIFT) + extra_area
 801              		.loc 1 85 13 is_stmt 1 view .LVU281
  85:Drivers/lvgl/src/draw/lv_draw_arc.c ****             area->x2 = x + ((lv_trigo_sin(start_angle + 90) * rout) >> LV_TRIGO_SHIFT) + extra_area
 802              		.loc 1 85 30 is_stmt 0 view .LVU282
 803 03ba 30B2     		sxth	r0, r6
 804 03bc FFF7FEFF 		bl	lv_trigo_sin
 805              	.LVL64:
  85:Drivers/lvgl/src/draw/lv_draw_arc.c ****             area->x2 = x + ((lv_trigo_sin(start_angle + 90) * rout) >> LV_TRIGO_SHIFT) + extra_area
 806              		.loc 1 85 26 view .LVU283
 807 03c0 ADB2     		uxth	r5, r5
  85:Drivers/lvgl/src/draw/lv_draw_arc.c ****             area->x2 = x + ((lv_trigo_sin(start_angle + 90) * rout) >> LV_TRIGO_SHIFT) + extra_area
 808              		.loc 1 85 56 view .LVU284
 809 03c2 00FB09F1 		mul	r1, r0, r9
  85:Drivers/lvgl/src/draw/lv_draw_arc.c ****             area->x2 = x + ((lv_trigo_sin(start_angle + 90) * rout) >> LV_TRIGO_SHIFT) + extra_area
 810              		.loc 1 85 82 view .LVU285
 811 03c6 A5EB0802 		sub	r2, r5, r8
 812 03ca 02EBE132 		add	r2, r2, r1, asr #15
  86:Drivers/lvgl/src/draw/lv_draw_arc.c **** 
 813              		.loc 1 86 55 view .LVU286
 814 03ce 06F15A00 		add	r0, r6, #90
  85:Drivers/lvgl/src/draw/lv_draw_arc.c ****             area->x2 = x + ((lv_trigo_sin(start_angle + 90) * rout) >> LV_TRIGO_SHIFT) + extra_area
 815              		.loc 1 85 22 view .LVU287
 816 03d2 AAF80220 		strh	r2, [r10, #2]	@ movhi
  86:Drivers/lvgl/src/draw/lv_draw_arc.c **** 
 817              		.loc 1 86 13 is_stmt 1 view .LVU288
  86:Drivers/lvgl/src/draw/lv_draw_arc.c **** 
 818              		.loc 1 86 30 is_stmt 0 view .LVU289
 819 03d6 00B2     		sxth	r0, r0
 820 03d8 FFF7FEFF 		bl	lv_trigo_sin
 821              	.LVL65:
  86:Drivers/lvgl/src/draw/lv_draw_arc.c **** 
 822              		.loc 1 86 61 view .LVU290
 823 03dc 009E     		ldr	r6, [sp]
ARM GAS  /var/folders/0z/tsy30v1j4xl4_7kw94k978ww0000gn/T//ccOkarGI.s 			page 22


 824              	.LVL66:
  86:Drivers/lvgl/src/draw/lv_draw_arc.c **** 
 825              		.loc 1 86 26 view .LVU291
 826 03de A4B2     		uxth	r4, r4
  86:Drivers/lvgl/src/draw/lv_draw_arc.c **** 
 827              		.loc 1 86 61 view .LVU292
 828 03e0 06FB00F0 		mul	r0, r6, r0
  86:Drivers/lvgl/src/draw/lv_draw_arc.c **** 
 829              		.loc 1 86 88 view .LVU293
 830 03e4 04EB0802 		add	r2, r4, r8
 831 03e8 02EBE032 		add	r2, r2, r0, asr #15
  86:Drivers/lvgl/src/draw/lv_draw_arc.c **** 
 832              		.loc 1 86 22 view .LVU294
 833 03ec AAF80420 		strh	r2, [r10, #4]	@ movhi
  88:Drivers/lvgl/src/draw/lv_draw_arc.c ****             area->x1 = x + ((lv_trigo_sin(end_angle + 90) * rin) >> LV_TRIGO_SHIFT) - extra_area;
 834              		.loc 1 88 13 is_stmt 1 view .LVU295
  88:Drivers/lvgl/src/draw/lv_draw_arc.c ****             area->x1 = x + ((lv_trigo_sin(end_angle + 90) * rin) >> LV_TRIGO_SHIFT) - extra_area;
 835              		.loc 1 88 30 is_stmt 0 view .LVU296
 836 03f0 0FFA8BF0 		sxth	r0, fp
 837 03f4 FFF7FEFF 		bl	lv_trigo_sin
 838              	.LVL67:
  88:Drivers/lvgl/src/draw/lv_draw_arc.c ****             area->x1 = x + ((lv_trigo_sin(end_angle + 90) * rin) >> LV_TRIGO_SHIFT) - extra_area;
 839              		.loc 1 88 81 view .LVU297
 840 03f8 4544     		add	r5, r5, r8
  88:Drivers/lvgl/src/draw/lv_draw_arc.c ****             area->x1 = x + ((lv_trigo_sin(end_angle + 90) * rin) >> LV_TRIGO_SHIFT) - extra_area;
 841              		.loc 1 88 54 view .LVU298
 842 03fa 06FB00F0 		mul	r0, r6, r0
  88:Drivers/lvgl/src/draw/lv_draw_arc.c ****             area->x1 = x + ((lv_trigo_sin(end_angle + 90) * rin) >> LV_TRIGO_SHIFT) - extra_area;
 843              		.loc 1 88 81 view .LVU299
 844 03fe 05EBE035 		add	r5, r5, r0, asr #15
  89:Drivers/lvgl/src/draw/lv_draw_arc.c ****         }
 845              		.loc 1 89 53 view .LVU300
 846 0402 0BF15A00 		add	r0, fp, #90
  88:Drivers/lvgl/src/draw/lv_draw_arc.c ****             area->x1 = x + ((lv_trigo_sin(end_angle + 90) * rin) >> LV_TRIGO_SHIFT) - extra_area;
 847              		.loc 1 88 22 view .LVU301
 848 0406 AAF80650 		strh	r5, [r10, #6]	@ movhi
  89:Drivers/lvgl/src/draw/lv_draw_arc.c ****         }
 849              		.loc 1 89 13 is_stmt 1 view .LVU302
  89:Drivers/lvgl/src/draw/lv_draw_arc.c ****         }
 850              		.loc 1 89 30 is_stmt 0 view .LVU303
 851 040a 00B2     		sxth	r0, r0
 852 040c FFF7FEFF 		bl	lv_trigo_sin
 853              	.LVL68:
  89:Drivers/lvgl/src/draw/lv_draw_arc.c ****         }
 854              		.loc 1 89 85 view .LVU304
 855 0410 A4EB0804 		sub	r4, r4, r8
  89:Drivers/lvgl/src/draw/lv_draw_arc.c ****         }
 856              		.loc 1 89 59 view .LVU305
 857 0414 09FB00F0 		mul	r0, r9, r0
  89:Drivers/lvgl/src/draw/lv_draw_arc.c ****         }
 858              		.loc 1 89 85 view .LVU306
 859 0418 04EBE034 		add	r4, r4, r0, asr #15
  89:Drivers/lvgl/src/draw/lv_draw_arc.c ****         }
 860              		.loc 1 89 22 view .LVU307
 861 041c AAF80040 		strh	r4, [r10]	@ movhi
 862 0420 3EE6     		b	.L10
 863              	.LVL69:
ARM GAS  /var/folders/0z/tsy30v1j4xl4_7kw94k978ww0000gn/T//ccOkarGI.s 			page 23


 864              	.L25:
  99:Drivers/lvgl/src/draw/lv_draw_arc.c ****             area->y2 = y + ((lv_trigo_sin(start_angle) * rin) >> LV_TRIGO_SHIFT) + extra_area;
 865              		.loc 1 99 13 is_stmt 1 view .LVU308
  99:Drivers/lvgl/src/draw/lv_draw_arc.c ****             area->y2 = y + ((lv_trigo_sin(start_angle) * rin) >> LV_TRIGO_SHIFT) + extra_area;
 866              		.loc 1 99 55 is_stmt 0 view .LVU309
 867 0422 06F15A00 		add	r0, r6, #90
  99:Drivers/lvgl/src/draw/lv_draw_arc.c ****             area->y2 = y + ((lv_trigo_sin(start_angle) * rin) >> LV_TRIGO_SHIFT) + extra_area;
 868              		.loc 1 99 30 view .LVU310
 869 0426 00B2     		sxth	r0, r0
 870 0428 FFF7FEFF 		bl	lv_trigo_sin
 871              	.LVL70:
  99:Drivers/lvgl/src/draw/lv_draw_arc.c ****             area->y2 = y + ((lv_trigo_sin(start_angle) * rin) >> LV_TRIGO_SHIFT) + extra_area;
 872              		.loc 1 99 61 view .LVU311
 873 042c 009F     		ldr	r7, [sp]
  99:Drivers/lvgl/src/draw/lv_draw_arc.c ****             area->y2 = y + ((lv_trigo_sin(start_angle) * rin) >> LV_TRIGO_SHIFT) + extra_area;
 874              		.loc 1 99 26 view .LVU312
 875 042e A4B2     		uxth	r4, r4
  99:Drivers/lvgl/src/draw/lv_draw_arc.c ****             area->y2 = y + ((lv_trigo_sin(start_angle) * rin) >> LV_TRIGO_SHIFT) + extra_area;
 876              		.loc 1 99 61 view .LVU313
 877 0430 00FB07F1 		mul	r1, r0, r7
  99:Drivers/lvgl/src/draw/lv_draw_arc.c ****             area->y2 = y + ((lv_trigo_sin(start_angle) * rin) >> LV_TRIGO_SHIFT) + extra_area;
 878              		.loc 1 99 88 view .LVU314
 879 0434 A4EB0802 		sub	r2, r4, r8
 880 0438 02EBE132 		add	r2, r2, r1, asr #15
  99:Drivers/lvgl/src/draw/lv_draw_arc.c ****             area->y2 = y + ((lv_trigo_sin(start_angle) * rin) >> LV_TRIGO_SHIFT) + extra_area;
 881              		.loc 1 99 22 view .LVU315
 882 043c AAF80020 		strh	r2, [r10]	@ movhi
 100:Drivers/lvgl/src/draw/lv_draw_arc.c **** 
 883              		.loc 1 100 13 is_stmt 1 view .LVU316
 100:Drivers/lvgl/src/draw/lv_draw_arc.c **** 
 884              		.loc 1 100 30 is_stmt 0 view .LVU317
 885 0440 30B2     		sxth	r0, r6
 886 0442 FFF7FEFF 		bl	lv_trigo_sin
 887              	.LVL71:
 100:Drivers/lvgl/src/draw/lv_draw_arc.c **** 
 888              		.loc 1 100 26 view .LVU318
 889 0446 ADB2     		uxth	r5, r5
 100:Drivers/lvgl/src/draw/lv_draw_arc.c **** 
 890              		.loc 1 100 56 view .LVU319
 891 0448 00FB09F0 		mul	r0, r0, r9
 100:Drivers/lvgl/src/draw/lv_draw_arc.c **** 
 892              		.loc 1 100 82 view .LVU320
 893 044c 05EB0802 		add	r2, r5, r8
 894 0450 02EBE032 		add	r2, r2, r0, asr #15
 100:Drivers/lvgl/src/draw/lv_draw_arc.c **** 
 895              		.loc 1 100 22 view .LVU321
 896 0454 AAF80620 		strh	r2, [r10, #6]	@ movhi
 102:Drivers/lvgl/src/draw/lv_draw_arc.c ****             area->x2 = x + ((lv_trigo_sin(end_angle + 90) * rin) >> LV_TRIGO_SHIFT) + extra_area;
 897              		.loc 1 102 13 is_stmt 1 view .LVU322
 102:Drivers/lvgl/src/draw/lv_draw_arc.c ****             area->x2 = x + ((lv_trigo_sin(end_angle + 90) * rin) >> LV_TRIGO_SHIFT) + extra_area;
 898              		.loc 1 102 30 is_stmt 0 view .LVU323
 899 0458 0FFA8BF0 		sxth	r0, fp
 900 045c FFF7FEFF 		bl	lv_trigo_sin
 901              	.LVL72:
 102:Drivers/lvgl/src/draw/lv_draw_arc.c ****             area->x2 = x + ((lv_trigo_sin(end_angle + 90) * rin) >> LV_TRIGO_SHIFT) + extra_area;
 902              		.loc 1 102 81 view .LVU324
 903 0460 A5EB0805 		sub	r5, r5, r8
ARM GAS  /var/folders/0z/tsy30v1j4xl4_7kw94k978ww0000gn/T//ccOkarGI.s 			page 24


 102:Drivers/lvgl/src/draw/lv_draw_arc.c ****             area->x2 = x + ((lv_trigo_sin(end_angle + 90) * rin) >> LV_TRIGO_SHIFT) + extra_area;
 904              		.loc 1 102 54 view .LVU325
 905 0464 07FB00F0 		mul	r0, r7, r0
 102:Drivers/lvgl/src/draw/lv_draw_arc.c ****             area->x2 = x + ((lv_trigo_sin(end_angle + 90) * rin) >> LV_TRIGO_SHIFT) + extra_area;
 906              		.loc 1 102 81 view .LVU326
 907 0468 05EBE035 		add	r5, r5, r0, asr #15
 103:Drivers/lvgl/src/draw/lv_draw_arc.c ****         }
 908              		.loc 1 103 53 view .LVU327
 909 046c 0BF15A00 		add	r0, fp, #90
 102:Drivers/lvgl/src/draw/lv_draw_arc.c ****             area->x2 = x + ((lv_trigo_sin(end_angle + 90) * rin) >> LV_TRIGO_SHIFT) + extra_area;
 910              		.loc 1 102 22 view .LVU328
 911 0470 AAF80250 		strh	r5, [r10, #2]	@ movhi
 103:Drivers/lvgl/src/draw/lv_draw_arc.c ****         }
 912              		.loc 1 103 13 is_stmt 1 view .LVU329
 103:Drivers/lvgl/src/draw/lv_draw_arc.c ****         }
 913              		.loc 1 103 30 is_stmt 0 view .LVU330
 914 0474 00B2     		sxth	r0, r0
 915 0476 FFF7FEFF 		bl	lv_trigo_sin
 916              	.LVL73:
 103:Drivers/lvgl/src/draw/lv_draw_arc.c ****         }
 917              		.loc 1 103 85 view .LVU331
 918 047a 4444     		add	r4, r4, r8
 103:Drivers/lvgl/src/draw/lv_draw_arc.c ****         }
 919              		.loc 1 103 59 view .LVU332
 920 047c 09FB00F0 		mul	r0, r9, r0
 103:Drivers/lvgl/src/draw/lv_draw_arc.c ****         }
 921              		.loc 1 103 85 view .LVU333
 922 0480 04EBE034 		add	r4, r4, r0, asr #15
 103:Drivers/lvgl/src/draw/lv_draw_arc.c ****         }
 923              		.loc 1 103 22 view .LVU334
 924 0484 AAF80440 		strh	r4, [r10, #4]	@ movhi
 925 0488 0AE6     		b	.L10
 926              	.LVL74:
 927              	.L35:
 134:Drivers/lvgl/src/draw/lv_draw_arc.c ****         area->x1 = x + ((LV_MIN(lv_trigo_sin(end_angle + 90),
 928              		.loc 1 134 10 is_stmt 1 view .LVU335
 134:Drivers/lvgl/src/draw/lv_draw_arc.c ****         area->x1 = x + ((LV_MIN(lv_trigo_sin(end_angle + 90),
 929              		.loc 1 134 12 is_stmt 0 view .LVU336
 930 048a 032A     		cmp	r2, #3
 931 048c 3FF416AE 		beq	.L22
 932 0490 F8E5     		b	.L19
 933              		.cfi_endproc
 934              	.LFE57:
 936 0492 00BF     		.text
 937              	.Letext0:
 938              		.file 2 "/Users/johannes/Library/Application Support/Code/User/globalStorage/bmd.stm32-for-vscode/
 939              		.file 3 "/Users/johannes/Library/Application Support/Code/User/globalStorage/bmd.stm32-for-vscode/
 940              		.file 4 "/Users/johannes/Library/Application Support/Code/User/globalStorage/bmd.stm32-for-vscode/
 941              		.file 5 "Drivers/lvgl/src/draw/../misc/../font/../misc/lv_area.h"
 942              		.file 6 "Drivers/lvgl/src/draw/../misc/../font/lv_font.h"
 943              		.file 7 "Drivers/lvgl/src/draw/../misc/lv_types.h"
 944              		.file 8 "Drivers/lvgl/src/draw/../misc/lv_color.h"
 945              		.file 9 "Drivers/lvgl/src/draw/../misc/lv_txt.h"
 946              		.file 10 "Drivers/lvgl/src/draw/../misc/lv_bidi.h"
 947              		.file 11 "Drivers/lvgl/src/draw/../misc/lv_style.h"
 948              		.file 12 "Drivers/lvgl/src/draw/lv_img_buf.h"
 949              		.file 13 "Drivers/lvgl/src/draw/lv_draw_rect.h"
ARM GAS  /var/folders/0z/tsy30v1j4xl4_7kw94k978ww0000gn/T//ccOkarGI.s 			page 25


 950              		.file 14 "Drivers/lvgl/src/draw/lv_draw_label.h"
 951              		.file 15 "Drivers/lvgl/src/draw/lv_draw_img.h"
 952              		.file 16 "Drivers/lvgl/src/draw/lv_draw_line.h"
 953              		.file 17 "Drivers/lvgl/src/draw/lv_draw_arc.h"
 954              		.file 18 "Drivers/lvgl/src/draw/lv_draw_layer.h"
 955              		.file 19 "Drivers/lvgl/src/draw/lv_draw.h"
 956              		.file 20 "Drivers/lvgl/src/draw/../misc/lv_math.h"
 957              		.file 21 "Drivers/lvgl/src/draw/../misc/lv_mem.h"
ARM GAS  /var/folders/0z/tsy30v1j4xl4_7kw94k978ww0000gn/T//ccOkarGI.s 			page 26


DEFINED SYMBOLS
                            *ABS*:0000000000000000 lv_draw_arc.c
/var/folders/0z/tsy30v1j4xl4_7kw94k978ww0000gn/T//ccOkarGI.s:18     .text.lv_draw_arc_dsc_init:0000000000000000 $t
/var/folders/0z/tsy30v1j4xl4_7kw94k978ww0000gn/T//ccOkarGI.s:25     .text.lv_draw_arc_dsc_init:0000000000000000 lv_draw_arc_dsc_init
/var/folders/0z/tsy30v1j4xl4_7kw94k978ww0000gn/T//ccOkarGI.s:64     .text.lv_draw_arc:0000000000000000 $t
/var/folders/0z/tsy30v1j4xl4_7kw94k978ww0000gn/T//ccOkarGI.s:71     .text.lv_draw_arc:0000000000000000 lv_draw_arc
/var/folders/0z/tsy30v1j4xl4_7kw94k978ww0000gn/T//ccOkarGI.s:128    .text.lv_draw_arc_get_area:0000000000000000 $t
/var/folders/0z/tsy30v1j4xl4_7kw94k978ww0000gn/T//ccOkarGI.s:135    .text.lv_draw_arc_get_area:0000000000000000 lv_draw_arc_get_area
/var/folders/0z/tsy30v1j4xl4_7kw94k978ww0000gn/T//ccOkarGI.s:399    .text.lv_draw_arc_get_area:0000000000000148 $d
/var/folders/0z/tsy30v1j4xl4_7kw94k978ww0000gn/T//ccOkarGI.s:403    .text.lv_draw_arc_get_area:0000000000000150 $t
/var/folders/0z/tsy30v1j4xl4_7kw94k978ww0000gn/T//ccOkarGI.s:735    .text.lv_draw_arc_get_area:000000000000034c $d
/var/folders/0z/tsy30v1j4xl4_7kw94k978ww0000gn/T//ccOkarGI.s:740    .text.lv_draw_arc_get_area:0000000000000350 $t

UNDEFINED SYMBOLS
lv_memset_00
lv_trigo_sin
