ARM GAS  /var/folders/0z/tsy30v1j4xl4_7kw94k978ww0000gn/T//cceCRR69.s 			page 1


   1              		.cpu cortex-m4
   2              		.arch armv7e-m
   3              		.fpu fpv4-sp-d16
   4              		.eabi_attribute 27, 1
   5              		.eabi_attribute 28, 1
   6              		.eabi_attribute 20, 1
   7              		.eabi_attribute 21, 1
   8              		.eabi_attribute 23, 3
   9              		.eabi_attribute 24, 1
  10              		.eabi_attribute 25, 1
  11              		.eabi_attribute 26, 1
  12              		.eabi_attribute 30, 2
  13              		.eabi_attribute 34, 1
  14              		.eabi_attribute 18, 4
  15              		.file	"lv_draw_sw_transform.c"
  16              		.text
  17              	.Ltext0:
  18              		.cfi_sections	.debug_frame
  19              		.section	.text.transform_point_upscaled,"ax",%progbits
  20              		.align	1
  21              		.p2align 2,,3
  22              		.syntax unified
  23              		.thumb
  24              		.thumb_func
  26              	transform_point_upscaled:
  27              	.LVL0:
  28              	.LFB166:
  29              		.file 1 "Drivers/lvgl/src/draw/sw/lv_draw_sw_transform.c"
   1:Drivers/lvgl/src/draw/sw/lv_draw_sw_transform.c **** /**
   2:Drivers/lvgl/src/draw/sw/lv_draw_sw_transform.c ****  * @file lv_draw_sw_tranform.c
   3:Drivers/lvgl/src/draw/sw/lv_draw_sw_transform.c ****  *
   4:Drivers/lvgl/src/draw/sw/lv_draw_sw_transform.c ****  */
   5:Drivers/lvgl/src/draw/sw/lv_draw_sw_transform.c **** 
   6:Drivers/lvgl/src/draw/sw/lv_draw_sw_transform.c **** /*********************
   7:Drivers/lvgl/src/draw/sw/lv_draw_sw_transform.c ****  *      INCLUDES
   8:Drivers/lvgl/src/draw/sw/lv_draw_sw_transform.c ****  *********************/
   9:Drivers/lvgl/src/draw/sw/lv_draw_sw_transform.c **** #include "lv_draw_sw.h"
  10:Drivers/lvgl/src/draw/sw/lv_draw_sw_transform.c **** #include "../../misc/lv_assert.h"
  11:Drivers/lvgl/src/draw/sw/lv_draw_sw_transform.c **** #include "../../misc/lv_area.h"
  12:Drivers/lvgl/src/draw/sw/lv_draw_sw_transform.c **** #include "../../core/lv_refr.h"
  13:Drivers/lvgl/src/draw/sw/lv_draw_sw_transform.c **** 
  14:Drivers/lvgl/src/draw/sw/lv_draw_sw_transform.c **** #if LV_DRAW_COMPLEX
  15:Drivers/lvgl/src/draw/sw/lv_draw_sw_transform.c **** /*********************
  16:Drivers/lvgl/src/draw/sw/lv_draw_sw_transform.c ****  *      DEFINES
  17:Drivers/lvgl/src/draw/sw/lv_draw_sw_transform.c ****  *********************/
  18:Drivers/lvgl/src/draw/sw/lv_draw_sw_transform.c **** 
  19:Drivers/lvgl/src/draw/sw/lv_draw_sw_transform.c **** /**********************
  20:Drivers/lvgl/src/draw/sw/lv_draw_sw_transform.c ****  *      TYPEDEFS
  21:Drivers/lvgl/src/draw/sw/lv_draw_sw_transform.c ****  **********************/
  22:Drivers/lvgl/src/draw/sw/lv_draw_sw_transform.c **** typedef struct {
  23:Drivers/lvgl/src/draw/sw/lv_draw_sw_transform.c ****     int32_t x_in;
  24:Drivers/lvgl/src/draw/sw/lv_draw_sw_transform.c ****     int32_t y_in;
  25:Drivers/lvgl/src/draw/sw/lv_draw_sw_transform.c ****     int32_t x_out;
  26:Drivers/lvgl/src/draw/sw/lv_draw_sw_transform.c ****     int32_t y_out;
  27:Drivers/lvgl/src/draw/sw/lv_draw_sw_transform.c ****     int32_t sinma;
  28:Drivers/lvgl/src/draw/sw/lv_draw_sw_transform.c ****     int32_t cosma;
  29:Drivers/lvgl/src/draw/sw/lv_draw_sw_transform.c ****     int32_t zoom;
ARM GAS  /var/folders/0z/tsy30v1j4xl4_7kw94k978ww0000gn/T//cceCRR69.s 			page 2


  30:Drivers/lvgl/src/draw/sw/lv_draw_sw_transform.c ****     int32_t angle;
  31:Drivers/lvgl/src/draw/sw/lv_draw_sw_transform.c ****     int32_t pivot_x_256;
  32:Drivers/lvgl/src/draw/sw/lv_draw_sw_transform.c ****     int32_t pivot_y_256;
  33:Drivers/lvgl/src/draw/sw/lv_draw_sw_transform.c ****     lv_point_t pivot;
  34:Drivers/lvgl/src/draw/sw/lv_draw_sw_transform.c **** } point_transform_dsc_t;
  35:Drivers/lvgl/src/draw/sw/lv_draw_sw_transform.c **** 
  36:Drivers/lvgl/src/draw/sw/lv_draw_sw_transform.c **** /**********************
  37:Drivers/lvgl/src/draw/sw/lv_draw_sw_transform.c ****  *  STATIC PROTOTYPES
  38:Drivers/lvgl/src/draw/sw/lv_draw_sw_transform.c ****  **********************/
  39:Drivers/lvgl/src/draw/sw/lv_draw_sw_transform.c **** /**
  40:Drivers/lvgl/src/draw/sw/lv_draw_sw_transform.c ****  * Transform a point with 1/256 precision (the output coordinates are upscaled by 256)
  41:Drivers/lvgl/src/draw/sw/lv_draw_sw_transform.c ****  * @param t         pointer to n initialized `point_transform_dsc_t` structure
  42:Drivers/lvgl/src/draw/sw/lv_draw_sw_transform.c ****  * @param xin       X coordinate to rotate
  43:Drivers/lvgl/src/draw/sw/lv_draw_sw_transform.c ****  * @param yin       Y coordinate to rotate
  44:Drivers/lvgl/src/draw/sw/lv_draw_sw_transform.c ****  * @param xout      upscaled, transformed X
  45:Drivers/lvgl/src/draw/sw/lv_draw_sw_transform.c ****  * @param yout      upscaled, transformed Y
  46:Drivers/lvgl/src/draw/sw/lv_draw_sw_transform.c ****  */
  47:Drivers/lvgl/src/draw/sw/lv_draw_sw_transform.c **** static void transform_point_upscaled(point_transform_dsc_t * t, int32_t xin, int32_t yin, int32_t *
  48:Drivers/lvgl/src/draw/sw/lv_draw_sw_transform.c ****                                      int32_t * yout);
  49:Drivers/lvgl/src/draw/sw/lv_draw_sw_transform.c **** 
  50:Drivers/lvgl/src/draw/sw/lv_draw_sw_transform.c **** static void argb_no_aa(const uint8_t * src, lv_coord_t src_w, lv_coord_t src_h, lv_coord_t src_stri
  51:Drivers/lvgl/src/draw/sw/lv_draw_sw_transform.c ****                        int32_t xs_ups, int32_t ys_ups, int32_t xs_step, int32_t ys_step,
  52:Drivers/lvgl/src/draw/sw/lv_draw_sw_transform.c ****                        int32_t x_end, lv_color_t * cbuf, uint8_t * abuf);
  53:Drivers/lvgl/src/draw/sw/lv_draw_sw_transform.c **** 
  54:Drivers/lvgl/src/draw/sw/lv_draw_sw_transform.c **** static void rgb_no_aa(const uint8_t * src, lv_coord_t src_w, lv_coord_t src_h, lv_coord_t src_strid
  55:Drivers/lvgl/src/draw/sw/lv_draw_sw_transform.c ****                       int32_t xs_ups, int32_t ys_ups, int32_t xs_step, int32_t ys_step,
  56:Drivers/lvgl/src/draw/sw/lv_draw_sw_transform.c ****                       int32_t x_end, lv_color_t * cbuf, uint8_t * abuf, lv_img_cf_t cf);
  57:Drivers/lvgl/src/draw/sw/lv_draw_sw_transform.c **** 
  58:Drivers/lvgl/src/draw/sw/lv_draw_sw_transform.c **** #if LV_COLOR_DEPTH == 16
  59:Drivers/lvgl/src/draw/sw/lv_draw_sw_transform.c **** static void rgb565a8_no_aa(const uint8_t * src, lv_coord_t src_w, lv_coord_t src_h, lv_coord_t src_
  60:Drivers/lvgl/src/draw/sw/lv_draw_sw_transform.c ****                            int32_t xs_ups, int32_t ys_ups, int32_t xs_step, int32_t ys_step,
  61:Drivers/lvgl/src/draw/sw/lv_draw_sw_transform.c ****                            int32_t x_end, lv_color_t * cbuf, uint8_t * abuf);
  62:Drivers/lvgl/src/draw/sw/lv_draw_sw_transform.c **** #endif
  63:Drivers/lvgl/src/draw/sw/lv_draw_sw_transform.c **** 
  64:Drivers/lvgl/src/draw/sw/lv_draw_sw_transform.c **** static void argb_and_rgb_aa(const uint8_t * src, lv_coord_t src_w, lv_coord_t src_h, lv_coord_t src
  65:Drivers/lvgl/src/draw/sw/lv_draw_sw_transform.c ****                             int32_t xs_ups, int32_t ys_ups, int32_t xs_step, int32_t ys_step,
  66:Drivers/lvgl/src/draw/sw/lv_draw_sw_transform.c ****                             int32_t x_end, lv_color_t * cbuf, uint8_t * abuf, lv_img_cf_t cf);
  67:Drivers/lvgl/src/draw/sw/lv_draw_sw_transform.c **** 
  68:Drivers/lvgl/src/draw/sw/lv_draw_sw_transform.c **** /**********************
  69:Drivers/lvgl/src/draw/sw/lv_draw_sw_transform.c ****  *  STATIC VARIABLES
  70:Drivers/lvgl/src/draw/sw/lv_draw_sw_transform.c ****  **********************/
  71:Drivers/lvgl/src/draw/sw/lv_draw_sw_transform.c **** 
  72:Drivers/lvgl/src/draw/sw/lv_draw_sw_transform.c **** /**********************
  73:Drivers/lvgl/src/draw/sw/lv_draw_sw_transform.c ****  *      MACROS
  74:Drivers/lvgl/src/draw/sw/lv_draw_sw_transform.c ****  **********************/
  75:Drivers/lvgl/src/draw/sw/lv_draw_sw_transform.c **** 
  76:Drivers/lvgl/src/draw/sw/lv_draw_sw_transform.c **** /**********************
  77:Drivers/lvgl/src/draw/sw/lv_draw_sw_transform.c ****  *   GLOBAL FUNCTIONS
  78:Drivers/lvgl/src/draw/sw/lv_draw_sw_transform.c ****  **********************/
  79:Drivers/lvgl/src/draw/sw/lv_draw_sw_transform.c **** 
  80:Drivers/lvgl/src/draw/sw/lv_draw_sw_transform.c **** void lv_draw_sw_transform(lv_draw_ctx_t * draw_ctx, const lv_area_t * dest_area, const void * src_b
  81:Drivers/lvgl/src/draw/sw/lv_draw_sw_transform.c ****                           lv_coord_t src_w, lv_coord_t src_h, lv_coord_t src_stride,
  82:Drivers/lvgl/src/draw/sw/lv_draw_sw_transform.c ****                           const lv_draw_img_dsc_t * draw_dsc, lv_img_cf_t cf, lv_color_t * cbuf, lv
  83:Drivers/lvgl/src/draw/sw/lv_draw_sw_transform.c **** {
  84:Drivers/lvgl/src/draw/sw/lv_draw_sw_transform.c ****     LV_UNUSED(draw_ctx);
  85:Drivers/lvgl/src/draw/sw/lv_draw_sw_transform.c **** 
  86:Drivers/lvgl/src/draw/sw/lv_draw_sw_transform.c ****     point_transform_dsc_t tr_dsc;
ARM GAS  /var/folders/0z/tsy30v1j4xl4_7kw94k978ww0000gn/T//cceCRR69.s 			page 3


  87:Drivers/lvgl/src/draw/sw/lv_draw_sw_transform.c ****     tr_dsc.angle = -draw_dsc->angle;
  88:Drivers/lvgl/src/draw/sw/lv_draw_sw_transform.c ****     tr_dsc.zoom = (256 * 256) / draw_dsc->zoom;
  89:Drivers/lvgl/src/draw/sw/lv_draw_sw_transform.c ****     tr_dsc.pivot = draw_dsc->pivot;
  90:Drivers/lvgl/src/draw/sw/lv_draw_sw_transform.c **** 
  91:Drivers/lvgl/src/draw/sw/lv_draw_sw_transform.c ****     int32_t angle_low = tr_dsc.angle / 10;
  92:Drivers/lvgl/src/draw/sw/lv_draw_sw_transform.c ****     int32_t angle_high = angle_low + 1;
  93:Drivers/lvgl/src/draw/sw/lv_draw_sw_transform.c ****     int32_t angle_rem = tr_dsc.angle  - (angle_low * 10);
  94:Drivers/lvgl/src/draw/sw/lv_draw_sw_transform.c **** 
  95:Drivers/lvgl/src/draw/sw/lv_draw_sw_transform.c ****     int32_t s1 = lv_trigo_sin(angle_low);
  96:Drivers/lvgl/src/draw/sw/lv_draw_sw_transform.c ****     int32_t s2 = lv_trigo_sin(angle_high);
  97:Drivers/lvgl/src/draw/sw/lv_draw_sw_transform.c **** 
  98:Drivers/lvgl/src/draw/sw/lv_draw_sw_transform.c ****     int32_t c1 = lv_trigo_sin(angle_low + 90);
  99:Drivers/lvgl/src/draw/sw/lv_draw_sw_transform.c ****     int32_t c2 = lv_trigo_sin(angle_high + 90);
 100:Drivers/lvgl/src/draw/sw/lv_draw_sw_transform.c **** 
 101:Drivers/lvgl/src/draw/sw/lv_draw_sw_transform.c ****     tr_dsc.sinma = (s1 * (10 - angle_rem) + s2 * angle_rem) / 10;
 102:Drivers/lvgl/src/draw/sw/lv_draw_sw_transform.c ****     tr_dsc.cosma = (c1 * (10 - angle_rem) + c2 * angle_rem) / 10;
 103:Drivers/lvgl/src/draw/sw/lv_draw_sw_transform.c ****     tr_dsc.sinma = tr_dsc.sinma >> (LV_TRIGO_SHIFT - 10);
 104:Drivers/lvgl/src/draw/sw/lv_draw_sw_transform.c ****     tr_dsc.cosma = tr_dsc.cosma >> (LV_TRIGO_SHIFT - 10);
 105:Drivers/lvgl/src/draw/sw/lv_draw_sw_transform.c ****     tr_dsc.pivot_x_256 = tr_dsc.pivot.x * 256;
 106:Drivers/lvgl/src/draw/sw/lv_draw_sw_transform.c ****     tr_dsc.pivot_y_256 = tr_dsc.pivot.y * 256;
 107:Drivers/lvgl/src/draw/sw/lv_draw_sw_transform.c **** 
 108:Drivers/lvgl/src/draw/sw/lv_draw_sw_transform.c ****     lv_coord_t dest_w = lv_area_get_width(dest_area);
 109:Drivers/lvgl/src/draw/sw/lv_draw_sw_transform.c ****     lv_coord_t dest_h = lv_area_get_height(dest_area);
 110:Drivers/lvgl/src/draw/sw/lv_draw_sw_transform.c ****     lv_coord_t y;
 111:Drivers/lvgl/src/draw/sw/lv_draw_sw_transform.c ****     for(y = 0; y < dest_h; y++) {
 112:Drivers/lvgl/src/draw/sw/lv_draw_sw_transform.c ****         int32_t xs1_ups, ys1_ups, xs2_ups, ys2_ups;
 113:Drivers/lvgl/src/draw/sw/lv_draw_sw_transform.c **** 
 114:Drivers/lvgl/src/draw/sw/lv_draw_sw_transform.c ****         transform_point_upscaled(&tr_dsc, dest_area->x1, dest_area->y1 + y, &xs1_ups, &ys1_ups);
 115:Drivers/lvgl/src/draw/sw/lv_draw_sw_transform.c ****         transform_point_upscaled(&tr_dsc, dest_area->x2, dest_area->y1 + y, &xs2_ups, &ys2_ups);
 116:Drivers/lvgl/src/draw/sw/lv_draw_sw_transform.c **** 
 117:Drivers/lvgl/src/draw/sw/lv_draw_sw_transform.c ****         int32_t xs_diff = xs2_ups - xs1_ups;
 118:Drivers/lvgl/src/draw/sw/lv_draw_sw_transform.c ****         int32_t ys_diff = ys2_ups - ys1_ups;
 119:Drivers/lvgl/src/draw/sw/lv_draw_sw_transform.c ****         int32_t xs_step_256 = 0;
 120:Drivers/lvgl/src/draw/sw/lv_draw_sw_transform.c ****         int32_t ys_step_256 = 0;
 121:Drivers/lvgl/src/draw/sw/lv_draw_sw_transform.c ****         if(dest_w > 1) {
 122:Drivers/lvgl/src/draw/sw/lv_draw_sw_transform.c ****             xs_step_256 = (256 * xs_diff) / (dest_w - 1);
 123:Drivers/lvgl/src/draw/sw/lv_draw_sw_transform.c ****             ys_step_256 = (256 * ys_diff) / (dest_w - 1);
 124:Drivers/lvgl/src/draw/sw/lv_draw_sw_transform.c ****         }
 125:Drivers/lvgl/src/draw/sw/lv_draw_sw_transform.c ****         int32_t xs_ups = xs1_ups + 0x80;
 126:Drivers/lvgl/src/draw/sw/lv_draw_sw_transform.c ****         int32_t ys_ups = ys1_ups + 0x80;
 127:Drivers/lvgl/src/draw/sw/lv_draw_sw_transform.c **** 
 128:Drivers/lvgl/src/draw/sw/lv_draw_sw_transform.c ****         if(draw_dsc->antialias == 0) {
 129:Drivers/lvgl/src/draw/sw/lv_draw_sw_transform.c ****             switch(cf) {
 130:Drivers/lvgl/src/draw/sw/lv_draw_sw_transform.c ****                 case LV_IMG_CF_TRUE_COLOR_ALPHA:
 131:Drivers/lvgl/src/draw/sw/lv_draw_sw_transform.c ****                     argb_no_aa(src_buf, src_w, src_h, src_stride, xs_ups, ys_ups, xs_step_256, ys_s
 132:Drivers/lvgl/src/draw/sw/lv_draw_sw_transform.c ****                     break;
 133:Drivers/lvgl/src/draw/sw/lv_draw_sw_transform.c ****                 case LV_IMG_CF_TRUE_COLOR:
 134:Drivers/lvgl/src/draw/sw/lv_draw_sw_transform.c ****                 case LV_IMG_CF_TRUE_COLOR_CHROMA_KEYED:
 135:Drivers/lvgl/src/draw/sw/lv_draw_sw_transform.c ****                     rgb_no_aa(src_buf, src_w, src_h, src_stride, xs_ups, ys_ups, xs_step_256, ys_st
 136:Drivers/lvgl/src/draw/sw/lv_draw_sw_transform.c ****                     break;
 137:Drivers/lvgl/src/draw/sw/lv_draw_sw_transform.c **** 
 138:Drivers/lvgl/src/draw/sw/lv_draw_sw_transform.c **** #if LV_COLOR_DEPTH == 16
 139:Drivers/lvgl/src/draw/sw/lv_draw_sw_transform.c ****                 case LV_IMG_CF_RGB565A8:
 140:Drivers/lvgl/src/draw/sw/lv_draw_sw_transform.c ****                     rgb565a8_no_aa(src_buf, src_w, src_h, src_stride, xs_ups, ys_ups, xs_step_256, 
 141:Drivers/lvgl/src/draw/sw/lv_draw_sw_transform.c ****                     break;
 142:Drivers/lvgl/src/draw/sw/lv_draw_sw_transform.c **** #endif
 143:Drivers/lvgl/src/draw/sw/lv_draw_sw_transform.c ****                 default:
ARM GAS  /var/folders/0z/tsy30v1j4xl4_7kw94k978ww0000gn/T//cceCRR69.s 			page 4


 144:Drivers/lvgl/src/draw/sw/lv_draw_sw_transform.c ****                     break;
 145:Drivers/lvgl/src/draw/sw/lv_draw_sw_transform.c ****             }
 146:Drivers/lvgl/src/draw/sw/lv_draw_sw_transform.c ****         }
 147:Drivers/lvgl/src/draw/sw/lv_draw_sw_transform.c ****         else {
 148:Drivers/lvgl/src/draw/sw/lv_draw_sw_transform.c ****             argb_and_rgb_aa(src_buf, src_w, src_h, src_stride, xs_ups, ys_ups, xs_step_256, ys_step
 149:Drivers/lvgl/src/draw/sw/lv_draw_sw_transform.c ****         }
 150:Drivers/lvgl/src/draw/sw/lv_draw_sw_transform.c **** 
 151:Drivers/lvgl/src/draw/sw/lv_draw_sw_transform.c ****         cbuf += dest_w;
 152:Drivers/lvgl/src/draw/sw/lv_draw_sw_transform.c ****         abuf += dest_w;
 153:Drivers/lvgl/src/draw/sw/lv_draw_sw_transform.c ****     }
 154:Drivers/lvgl/src/draw/sw/lv_draw_sw_transform.c **** }
 155:Drivers/lvgl/src/draw/sw/lv_draw_sw_transform.c **** 
 156:Drivers/lvgl/src/draw/sw/lv_draw_sw_transform.c **** /**********************
 157:Drivers/lvgl/src/draw/sw/lv_draw_sw_transform.c ****  *   STATIC FUNCTIONS
 158:Drivers/lvgl/src/draw/sw/lv_draw_sw_transform.c ****  **********************/
 159:Drivers/lvgl/src/draw/sw/lv_draw_sw_transform.c **** 
 160:Drivers/lvgl/src/draw/sw/lv_draw_sw_transform.c **** static void rgb_no_aa(const uint8_t * src, lv_coord_t src_w, lv_coord_t src_h, lv_coord_t src_strid
 161:Drivers/lvgl/src/draw/sw/lv_draw_sw_transform.c ****                       int32_t xs_ups, int32_t ys_ups, int32_t xs_step, int32_t ys_step,
 162:Drivers/lvgl/src/draw/sw/lv_draw_sw_transform.c ****                       int32_t x_end, lv_color_t * cbuf, uint8_t * abuf, lv_img_cf_t cf)
 163:Drivers/lvgl/src/draw/sw/lv_draw_sw_transform.c **** {
 164:Drivers/lvgl/src/draw/sw/lv_draw_sw_transform.c ****     int32_t xs_ups_start = xs_ups;
 165:Drivers/lvgl/src/draw/sw/lv_draw_sw_transform.c ****     int32_t ys_ups_start = ys_ups;
 166:Drivers/lvgl/src/draw/sw/lv_draw_sw_transform.c ****     lv_disp_t * d = _lv_refr_get_disp_refreshing();
 167:Drivers/lvgl/src/draw/sw/lv_draw_sw_transform.c ****     lv_color_t ck = d->driver->color_chroma_key;
 168:Drivers/lvgl/src/draw/sw/lv_draw_sw_transform.c **** 
 169:Drivers/lvgl/src/draw/sw/lv_draw_sw_transform.c ****     lv_memset_ff(abuf, x_end);
 170:Drivers/lvgl/src/draw/sw/lv_draw_sw_transform.c **** 
 171:Drivers/lvgl/src/draw/sw/lv_draw_sw_transform.c ****     lv_coord_t x;
 172:Drivers/lvgl/src/draw/sw/lv_draw_sw_transform.c ****     for(x = 0; x < x_end; x++) {
 173:Drivers/lvgl/src/draw/sw/lv_draw_sw_transform.c ****         xs_ups = xs_ups_start + ((xs_step * x) >> 8);
 174:Drivers/lvgl/src/draw/sw/lv_draw_sw_transform.c ****         ys_ups = ys_ups_start + ((ys_step * x) >> 8);
 175:Drivers/lvgl/src/draw/sw/lv_draw_sw_transform.c **** 
 176:Drivers/lvgl/src/draw/sw/lv_draw_sw_transform.c ****         int32_t xs_int = xs_ups >> 8;
 177:Drivers/lvgl/src/draw/sw/lv_draw_sw_transform.c ****         int32_t ys_int = ys_ups >> 8;
 178:Drivers/lvgl/src/draw/sw/lv_draw_sw_transform.c ****         if(xs_int < 0 || xs_int >= src_w || ys_int < 0 || ys_int >= src_h) {
 179:Drivers/lvgl/src/draw/sw/lv_draw_sw_transform.c ****             abuf[x] = 0x00;
 180:Drivers/lvgl/src/draw/sw/lv_draw_sw_transform.c ****         }
 181:Drivers/lvgl/src/draw/sw/lv_draw_sw_transform.c ****         else {
 182:Drivers/lvgl/src/draw/sw/lv_draw_sw_transform.c **** 
 183:Drivers/lvgl/src/draw/sw/lv_draw_sw_transform.c **** #if LV_COLOR_DEPTH == 1 || LV_COLOR_DEPTH == 8
 184:Drivers/lvgl/src/draw/sw/lv_draw_sw_transform.c ****             const uint8_t * src_tmp = src;
 185:Drivers/lvgl/src/draw/sw/lv_draw_sw_transform.c ****             src_tmp += ys_int * src_stride + xs_int;
 186:Drivers/lvgl/src/draw/sw/lv_draw_sw_transform.c ****             cbuf[x].full = src_tmp[0];
 187:Drivers/lvgl/src/draw/sw/lv_draw_sw_transform.c **** #elif LV_COLOR_DEPTH == 16
 188:Drivers/lvgl/src/draw/sw/lv_draw_sw_transform.c ****             const lv_color_t * src_tmp = (const lv_color_t *)src;
 189:Drivers/lvgl/src/draw/sw/lv_draw_sw_transform.c ****             src_tmp += ys_int * src_stride + xs_int;
 190:Drivers/lvgl/src/draw/sw/lv_draw_sw_transform.c ****             cbuf[x] = *src_tmp;
 191:Drivers/lvgl/src/draw/sw/lv_draw_sw_transform.c **** #elif LV_COLOR_DEPTH == 32
 192:Drivers/lvgl/src/draw/sw/lv_draw_sw_transform.c ****             const uint8_t * src_tmp = src;
 193:Drivers/lvgl/src/draw/sw/lv_draw_sw_transform.c ****             src_tmp += (ys_int * src_stride * sizeof(lv_color_t)) + xs_int * sizeof(lv_color_t);
 194:Drivers/lvgl/src/draw/sw/lv_draw_sw_transform.c ****             cbuf[x].full = *((uint32_t *)src_tmp);
 195:Drivers/lvgl/src/draw/sw/lv_draw_sw_transform.c **** #endif
 196:Drivers/lvgl/src/draw/sw/lv_draw_sw_transform.c ****         }
 197:Drivers/lvgl/src/draw/sw/lv_draw_sw_transform.c ****         if(cf == LV_IMG_CF_TRUE_COLOR_CHROMA_KEYED && cbuf[x].full == ck.full) {
 198:Drivers/lvgl/src/draw/sw/lv_draw_sw_transform.c ****             abuf[x] = 0x00;
 199:Drivers/lvgl/src/draw/sw/lv_draw_sw_transform.c ****         }
 200:Drivers/lvgl/src/draw/sw/lv_draw_sw_transform.c ****     }
ARM GAS  /var/folders/0z/tsy30v1j4xl4_7kw94k978ww0000gn/T//cceCRR69.s 			page 5


 201:Drivers/lvgl/src/draw/sw/lv_draw_sw_transform.c **** }
 202:Drivers/lvgl/src/draw/sw/lv_draw_sw_transform.c **** 
 203:Drivers/lvgl/src/draw/sw/lv_draw_sw_transform.c **** static void argb_no_aa(const uint8_t * src, lv_coord_t src_w, lv_coord_t src_h, lv_coord_t src_stri
 204:Drivers/lvgl/src/draw/sw/lv_draw_sw_transform.c ****                        int32_t xs_ups, int32_t ys_ups, int32_t xs_step, int32_t ys_step,
 205:Drivers/lvgl/src/draw/sw/lv_draw_sw_transform.c ****                        int32_t x_end, lv_color_t * cbuf, uint8_t * abuf)
 206:Drivers/lvgl/src/draw/sw/lv_draw_sw_transform.c **** {
 207:Drivers/lvgl/src/draw/sw/lv_draw_sw_transform.c ****     int32_t xs_ups_start = xs_ups;
 208:Drivers/lvgl/src/draw/sw/lv_draw_sw_transform.c ****     int32_t ys_ups_start = ys_ups;
 209:Drivers/lvgl/src/draw/sw/lv_draw_sw_transform.c **** 
 210:Drivers/lvgl/src/draw/sw/lv_draw_sw_transform.c ****     lv_coord_t x;
 211:Drivers/lvgl/src/draw/sw/lv_draw_sw_transform.c ****     for(x = 0; x < x_end; x++) {
 212:Drivers/lvgl/src/draw/sw/lv_draw_sw_transform.c ****         xs_ups = xs_ups_start + ((xs_step * x) >> 8);
 213:Drivers/lvgl/src/draw/sw/lv_draw_sw_transform.c ****         ys_ups = ys_ups_start + ((ys_step * x) >> 8);
 214:Drivers/lvgl/src/draw/sw/lv_draw_sw_transform.c **** 
 215:Drivers/lvgl/src/draw/sw/lv_draw_sw_transform.c ****         int32_t xs_int = xs_ups >> 8;
 216:Drivers/lvgl/src/draw/sw/lv_draw_sw_transform.c ****         int32_t ys_int = ys_ups >> 8;
 217:Drivers/lvgl/src/draw/sw/lv_draw_sw_transform.c ****         if(xs_int < 0 || xs_int >= src_w || ys_int < 0 || ys_int >= src_h) {
 218:Drivers/lvgl/src/draw/sw/lv_draw_sw_transform.c ****             abuf[x] = 0;
 219:Drivers/lvgl/src/draw/sw/lv_draw_sw_transform.c ****         }
 220:Drivers/lvgl/src/draw/sw/lv_draw_sw_transform.c ****         else {
 221:Drivers/lvgl/src/draw/sw/lv_draw_sw_transform.c ****             const uint8_t * src_tmp = src;
 222:Drivers/lvgl/src/draw/sw/lv_draw_sw_transform.c ****             src_tmp += (ys_int * src_stride * LV_IMG_PX_SIZE_ALPHA_BYTE) + xs_int * LV_IMG_PX_SIZE_
 223:Drivers/lvgl/src/draw/sw/lv_draw_sw_transform.c **** 
 224:Drivers/lvgl/src/draw/sw/lv_draw_sw_transform.c **** #if LV_COLOR_DEPTH == 1 || LV_COLOR_DEPTH == 8
 225:Drivers/lvgl/src/draw/sw/lv_draw_sw_transform.c ****             cbuf[x].full = src_tmp[0];
 226:Drivers/lvgl/src/draw/sw/lv_draw_sw_transform.c **** #elif LV_COLOR_DEPTH == 16
 227:Drivers/lvgl/src/draw/sw/lv_draw_sw_transform.c ****             cbuf[x].full = src_tmp[0] + (src_tmp[1] << 8);
 228:Drivers/lvgl/src/draw/sw/lv_draw_sw_transform.c **** #elif LV_COLOR_DEPTH == 32
 229:Drivers/lvgl/src/draw/sw/lv_draw_sw_transform.c ****             cbuf[x].full = *((uint32_t *)src_tmp);
 230:Drivers/lvgl/src/draw/sw/lv_draw_sw_transform.c **** #endif
 231:Drivers/lvgl/src/draw/sw/lv_draw_sw_transform.c ****             abuf[x] = src_tmp[LV_IMG_PX_SIZE_ALPHA_BYTE - 1];
 232:Drivers/lvgl/src/draw/sw/lv_draw_sw_transform.c ****         }
 233:Drivers/lvgl/src/draw/sw/lv_draw_sw_transform.c ****     }
 234:Drivers/lvgl/src/draw/sw/lv_draw_sw_transform.c **** }
 235:Drivers/lvgl/src/draw/sw/lv_draw_sw_transform.c **** 
 236:Drivers/lvgl/src/draw/sw/lv_draw_sw_transform.c **** #if LV_COLOR_DEPTH == 16
 237:Drivers/lvgl/src/draw/sw/lv_draw_sw_transform.c **** static void rgb565a8_no_aa(const uint8_t * src, lv_coord_t src_w, lv_coord_t src_h, lv_coord_t src_
 238:Drivers/lvgl/src/draw/sw/lv_draw_sw_transform.c ****                            int32_t xs_ups, int32_t ys_ups, int32_t xs_step, int32_t ys_step,
 239:Drivers/lvgl/src/draw/sw/lv_draw_sw_transform.c ****                            int32_t x_end, lv_color_t * cbuf, uint8_t * abuf)
 240:Drivers/lvgl/src/draw/sw/lv_draw_sw_transform.c **** {
 241:Drivers/lvgl/src/draw/sw/lv_draw_sw_transform.c ****     int32_t xs_ups_start = xs_ups;
 242:Drivers/lvgl/src/draw/sw/lv_draw_sw_transform.c ****     int32_t ys_ups_start = ys_ups;
 243:Drivers/lvgl/src/draw/sw/lv_draw_sw_transform.c **** 
 244:Drivers/lvgl/src/draw/sw/lv_draw_sw_transform.c ****     lv_coord_t x;
 245:Drivers/lvgl/src/draw/sw/lv_draw_sw_transform.c ****     for(x = 0; x < x_end; x++) {
 246:Drivers/lvgl/src/draw/sw/lv_draw_sw_transform.c ****         xs_ups = xs_ups_start + ((xs_step * x) >> 8);
 247:Drivers/lvgl/src/draw/sw/lv_draw_sw_transform.c ****         ys_ups = ys_ups_start + ((ys_step * x) >> 8);
 248:Drivers/lvgl/src/draw/sw/lv_draw_sw_transform.c **** 
 249:Drivers/lvgl/src/draw/sw/lv_draw_sw_transform.c ****         int32_t xs_int = xs_ups >> 8;
 250:Drivers/lvgl/src/draw/sw/lv_draw_sw_transform.c ****         int32_t ys_int = ys_ups >> 8;
 251:Drivers/lvgl/src/draw/sw/lv_draw_sw_transform.c ****         if(xs_int < 0 || xs_int >= src_w || ys_int < 0 || ys_int >= src_h) {
 252:Drivers/lvgl/src/draw/sw/lv_draw_sw_transform.c ****             abuf[x] = 0;
 253:Drivers/lvgl/src/draw/sw/lv_draw_sw_transform.c ****         }
 254:Drivers/lvgl/src/draw/sw/lv_draw_sw_transform.c ****         else {
 255:Drivers/lvgl/src/draw/sw/lv_draw_sw_transform.c ****             const lv_color_t * src_tmp = (const lv_color_t *)src;
 256:Drivers/lvgl/src/draw/sw/lv_draw_sw_transform.c ****             src_tmp += ys_int * src_stride + xs_int;
 257:Drivers/lvgl/src/draw/sw/lv_draw_sw_transform.c ****             cbuf[x] = *src_tmp;
ARM GAS  /var/folders/0z/tsy30v1j4xl4_7kw94k978ww0000gn/T//cceCRR69.s 			page 6


 258:Drivers/lvgl/src/draw/sw/lv_draw_sw_transform.c **** 
 259:Drivers/lvgl/src/draw/sw/lv_draw_sw_transform.c ****             const lv_opa_t * a_tmp = src + src_stride * src_h * sizeof(lv_color_t);
 260:Drivers/lvgl/src/draw/sw/lv_draw_sw_transform.c ****             a_tmp += ys_int * src_stride + xs_int;
 261:Drivers/lvgl/src/draw/sw/lv_draw_sw_transform.c ****             abuf[x] = *a_tmp;
 262:Drivers/lvgl/src/draw/sw/lv_draw_sw_transform.c ****         }
 263:Drivers/lvgl/src/draw/sw/lv_draw_sw_transform.c ****     }
 264:Drivers/lvgl/src/draw/sw/lv_draw_sw_transform.c **** }
 265:Drivers/lvgl/src/draw/sw/lv_draw_sw_transform.c **** #endif
 266:Drivers/lvgl/src/draw/sw/lv_draw_sw_transform.c **** 
 267:Drivers/lvgl/src/draw/sw/lv_draw_sw_transform.c **** 
 268:Drivers/lvgl/src/draw/sw/lv_draw_sw_transform.c **** static void argb_and_rgb_aa(const uint8_t * src, lv_coord_t src_w, lv_coord_t src_h, lv_coord_t src
 269:Drivers/lvgl/src/draw/sw/lv_draw_sw_transform.c ****                             int32_t xs_ups, int32_t ys_ups, int32_t xs_step, int32_t ys_step,
 270:Drivers/lvgl/src/draw/sw/lv_draw_sw_transform.c ****                             int32_t x_end, lv_color_t * cbuf, uint8_t * abuf, lv_img_cf_t cf)
 271:Drivers/lvgl/src/draw/sw/lv_draw_sw_transform.c **** {
 272:Drivers/lvgl/src/draw/sw/lv_draw_sw_transform.c ****     int32_t xs_ups_start = xs_ups;
 273:Drivers/lvgl/src/draw/sw/lv_draw_sw_transform.c ****     int32_t ys_ups_start = ys_ups;
 274:Drivers/lvgl/src/draw/sw/lv_draw_sw_transform.c ****     bool has_alpha;
 275:Drivers/lvgl/src/draw/sw/lv_draw_sw_transform.c ****     int32_t px_size;
 276:Drivers/lvgl/src/draw/sw/lv_draw_sw_transform.c ****     lv_color_t ck = _LV_COLOR_ZERO_INITIALIZER;
 277:Drivers/lvgl/src/draw/sw/lv_draw_sw_transform.c ****     switch(cf) {
 278:Drivers/lvgl/src/draw/sw/lv_draw_sw_transform.c ****         case LV_IMG_CF_TRUE_COLOR:
 279:Drivers/lvgl/src/draw/sw/lv_draw_sw_transform.c ****             has_alpha = false;
 280:Drivers/lvgl/src/draw/sw/lv_draw_sw_transform.c ****             px_size = sizeof(lv_color_t);
 281:Drivers/lvgl/src/draw/sw/lv_draw_sw_transform.c ****             break;
 282:Drivers/lvgl/src/draw/sw/lv_draw_sw_transform.c ****         case LV_IMG_CF_TRUE_COLOR_ALPHA:
 283:Drivers/lvgl/src/draw/sw/lv_draw_sw_transform.c ****             has_alpha = true;
 284:Drivers/lvgl/src/draw/sw/lv_draw_sw_transform.c ****             px_size = LV_IMG_PX_SIZE_ALPHA_BYTE;
 285:Drivers/lvgl/src/draw/sw/lv_draw_sw_transform.c ****             break;
 286:Drivers/lvgl/src/draw/sw/lv_draw_sw_transform.c ****         case LV_IMG_CF_TRUE_COLOR_CHROMA_KEYED: {
 287:Drivers/lvgl/src/draw/sw/lv_draw_sw_transform.c ****                 has_alpha = true;
 288:Drivers/lvgl/src/draw/sw/lv_draw_sw_transform.c ****                 px_size = sizeof(lv_color_t);
 289:Drivers/lvgl/src/draw/sw/lv_draw_sw_transform.c ****                 lv_disp_t * d = _lv_refr_get_disp_refreshing();
 290:Drivers/lvgl/src/draw/sw/lv_draw_sw_transform.c ****                 ck = d->driver->color_chroma_key;
 291:Drivers/lvgl/src/draw/sw/lv_draw_sw_transform.c ****                 break;
 292:Drivers/lvgl/src/draw/sw/lv_draw_sw_transform.c ****             }
 293:Drivers/lvgl/src/draw/sw/lv_draw_sw_transform.c **** #if LV_COLOR_DEPTH == 16
 294:Drivers/lvgl/src/draw/sw/lv_draw_sw_transform.c ****         case LV_IMG_CF_RGB565A8:
 295:Drivers/lvgl/src/draw/sw/lv_draw_sw_transform.c ****             has_alpha = true;
 296:Drivers/lvgl/src/draw/sw/lv_draw_sw_transform.c ****             px_size = sizeof(lv_color_t);
 297:Drivers/lvgl/src/draw/sw/lv_draw_sw_transform.c ****             break;
 298:Drivers/lvgl/src/draw/sw/lv_draw_sw_transform.c **** #endif
 299:Drivers/lvgl/src/draw/sw/lv_draw_sw_transform.c ****         default:
 300:Drivers/lvgl/src/draw/sw/lv_draw_sw_transform.c ****             return;
 301:Drivers/lvgl/src/draw/sw/lv_draw_sw_transform.c ****     }
 302:Drivers/lvgl/src/draw/sw/lv_draw_sw_transform.c **** 
 303:Drivers/lvgl/src/draw/sw/lv_draw_sw_transform.c ****     lv_coord_t x;
 304:Drivers/lvgl/src/draw/sw/lv_draw_sw_transform.c ****     for(x = 0; x < x_end; x++) {
 305:Drivers/lvgl/src/draw/sw/lv_draw_sw_transform.c ****         xs_ups = xs_ups_start + ((xs_step * x) >> 8);
 306:Drivers/lvgl/src/draw/sw/lv_draw_sw_transform.c ****         ys_ups = ys_ups_start + ((ys_step * x) >> 8);
 307:Drivers/lvgl/src/draw/sw/lv_draw_sw_transform.c **** 
 308:Drivers/lvgl/src/draw/sw/lv_draw_sw_transform.c ****         int32_t xs_int = xs_ups >> 8;
 309:Drivers/lvgl/src/draw/sw/lv_draw_sw_transform.c ****         int32_t ys_int = ys_ups >> 8;
 310:Drivers/lvgl/src/draw/sw/lv_draw_sw_transform.c **** 
 311:Drivers/lvgl/src/draw/sw/lv_draw_sw_transform.c ****         /*Fully out of the image*/
 312:Drivers/lvgl/src/draw/sw/lv_draw_sw_transform.c ****         if(xs_int < 0 || xs_int >= src_w || ys_int < 0 || ys_int >= src_h) {
 313:Drivers/lvgl/src/draw/sw/lv_draw_sw_transform.c ****             abuf[x] = 0x00;
 314:Drivers/lvgl/src/draw/sw/lv_draw_sw_transform.c ****             continue;
ARM GAS  /var/folders/0z/tsy30v1j4xl4_7kw94k978ww0000gn/T//cceCRR69.s 			page 7


 315:Drivers/lvgl/src/draw/sw/lv_draw_sw_transform.c ****         }
 316:Drivers/lvgl/src/draw/sw/lv_draw_sw_transform.c **** 
 317:Drivers/lvgl/src/draw/sw/lv_draw_sw_transform.c ****         /*Get the direction the hor and ver neighbor
 318:Drivers/lvgl/src/draw/sw/lv_draw_sw_transform.c ****          *`fract` will be in range of 0x00..0xFF and `next` (+/-1) indicates the direction*/
 319:Drivers/lvgl/src/draw/sw/lv_draw_sw_transform.c ****         int32_t xs_fract = xs_ups & 0xFF;
 320:Drivers/lvgl/src/draw/sw/lv_draw_sw_transform.c ****         int32_t ys_fract = ys_ups & 0xFF;
 321:Drivers/lvgl/src/draw/sw/lv_draw_sw_transform.c **** 
 322:Drivers/lvgl/src/draw/sw/lv_draw_sw_transform.c ****         int32_t x_next;
 323:Drivers/lvgl/src/draw/sw/lv_draw_sw_transform.c ****         int32_t y_next;
 324:Drivers/lvgl/src/draw/sw/lv_draw_sw_transform.c ****         if(xs_fract < 0x80) {
 325:Drivers/lvgl/src/draw/sw/lv_draw_sw_transform.c ****             x_next = -1;
 326:Drivers/lvgl/src/draw/sw/lv_draw_sw_transform.c ****             xs_fract = (0x7F - xs_fract) * 2;
 327:Drivers/lvgl/src/draw/sw/lv_draw_sw_transform.c ****         }
 328:Drivers/lvgl/src/draw/sw/lv_draw_sw_transform.c ****         else {
 329:Drivers/lvgl/src/draw/sw/lv_draw_sw_transform.c ****             x_next = 1;
 330:Drivers/lvgl/src/draw/sw/lv_draw_sw_transform.c ****             xs_fract = (xs_fract - 0x80) * 2;
 331:Drivers/lvgl/src/draw/sw/lv_draw_sw_transform.c ****         }
 332:Drivers/lvgl/src/draw/sw/lv_draw_sw_transform.c ****         if(ys_fract < 0x80) {
 333:Drivers/lvgl/src/draw/sw/lv_draw_sw_transform.c ****             y_next = -1;
 334:Drivers/lvgl/src/draw/sw/lv_draw_sw_transform.c ****             ys_fract = (0x7F - ys_fract) * 2;
 335:Drivers/lvgl/src/draw/sw/lv_draw_sw_transform.c ****         }
 336:Drivers/lvgl/src/draw/sw/lv_draw_sw_transform.c ****         else {
 337:Drivers/lvgl/src/draw/sw/lv_draw_sw_transform.c ****             y_next = 1;
 338:Drivers/lvgl/src/draw/sw/lv_draw_sw_transform.c ****             ys_fract = (ys_fract - 0x80) * 2;
 339:Drivers/lvgl/src/draw/sw/lv_draw_sw_transform.c ****         }
 340:Drivers/lvgl/src/draw/sw/lv_draw_sw_transform.c **** 
 341:Drivers/lvgl/src/draw/sw/lv_draw_sw_transform.c ****         const uint8_t * src_tmp = src;
 342:Drivers/lvgl/src/draw/sw/lv_draw_sw_transform.c ****         src_tmp += (ys_int * src_stride * px_size) + xs_int * px_size;
 343:Drivers/lvgl/src/draw/sw/lv_draw_sw_transform.c **** 
 344:Drivers/lvgl/src/draw/sw/lv_draw_sw_transform.c **** 
 345:Drivers/lvgl/src/draw/sw/lv_draw_sw_transform.c ****         if(xs_int + x_next >= 0 &&
 346:Drivers/lvgl/src/draw/sw/lv_draw_sw_transform.c ****            xs_int + x_next <= src_w - 1 &&
 347:Drivers/lvgl/src/draw/sw/lv_draw_sw_transform.c ****            ys_int + y_next >= 0 &&
 348:Drivers/lvgl/src/draw/sw/lv_draw_sw_transform.c ****            ys_int + y_next <= src_h - 1) {
 349:Drivers/lvgl/src/draw/sw/lv_draw_sw_transform.c **** 
 350:Drivers/lvgl/src/draw/sw/lv_draw_sw_transform.c ****             const uint8_t * px_base = src_tmp;
 351:Drivers/lvgl/src/draw/sw/lv_draw_sw_transform.c ****             const uint8_t * px_hor = src_tmp + x_next * px_size;
 352:Drivers/lvgl/src/draw/sw/lv_draw_sw_transform.c ****             const uint8_t * px_ver = src_tmp + y_next * src_stride * px_size;
 353:Drivers/lvgl/src/draw/sw/lv_draw_sw_transform.c ****             lv_color_t c_base;
 354:Drivers/lvgl/src/draw/sw/lv_draw_sw_transform.c ****             lv_color_t c_ver;
 355:Drivers/lvgl/src/draw/sw/lv_draw_sw_transform.c ****             lv_color_t c_hor;
 356:Drivers/lvgl/src/draw/sw/lv_draw_sw_transform.c **** 
 357:Drivers/lvgl/src/draw/sw/lv_draw_sw_transform.c ****             if(has_alpha) {
 358:Drivers/lvgl/src/draw/sw/lv_draw_sw_transform.c ****                 lv_opa_t a_base;
 359:Drivers/lvgl/src/draw/sw/lv_draw_sw_transform.c ****                 lv_opa_t a_ver;
 360:Drivers/lvgl/src/draw/sw/lv_draw_sw_transform.c ****                 lv_opa_t a_hor;
 361:Drivers/lvgl/src/draw/sw/lv_draw_sw_transform.c ****                 if(cf == LV_IMG_CF_TRUE_COLOR_ALPHA) {
 362:Drivers/lvgl/src/draw/sw/lv_draw_sw_transform.c ****                     a_base = px_base[LV_IMG_PX_SIZE_ALPHA_BYTE - 1];
 363:Drivers/lvgl/src/draw/sw/lv_draw_sw_transform.c ****                     a_ver = px_ver[LV_IMG_PX_SIZE_ALPHA_BYTE - 1];
 364:Drivers/lvgl/src/draw/sw/lv_draw_sw_transform.c ****                     a_hor = px_hor[LV_IMG_PX_SIZE_ALPHA_BYTE - 1];
 365:Drivers/lvgl/src/draw/sw/lv_draw_sw_transform.c ****                 }
 366:Drivers/lvgl/src/draw/sw/lv_draw_sw_transform.c **** #if LV_COLOR_DEPTH == 16
 367:Drivers/lvgl/src/draw/sw/lv_draw_sw_transform.c ****                 else if(cf == LV_IMG_CF_RGB565A8) {
 368:Drivers/lvgl/src/draw/sw/lv_draw_sw_transform.c ****                     const lv_opa_t * a_tmp = src + src_stride * src_h * sizeof(lv_color_t);
 369:Drivers/lvgl/src/draw/sw/lv_draw_sw_transform.c ****                     a_base = *(a_tmp + (ys_int * src_stride) + xs_int);
 370:Drivers/lvgl/src/draw/sw/lv_draw_sw_transform.c ****                     a_hor = *(a_tmp + (ys_int * src_stride) + xs_int + x_next);
 371:Drivers/lvgl/src/draw/sw/lv_draw_sw_transform.c ****                     a_ver = *(a_tmp + ((ys_int + y_next) * src_stride) + xs_int);
ARM GAS  /var/folders/0z/tsy30v1j4xl4_7kw94k978ww0000gn/T//cceCRR69.s 			page 8


 372:Drivers/lvgl/src/draw/sw/lv_draw_sw_transform.c ****                 }
 373:Drivers/lvgl/src/draw/sw/lv_draw_sw_transform.c **** #endif
 374:Drivers/lvgl/src/draw/sw/lv_draw_sw_transform.c ****                 else if(cf == LV_IMG_CF_TRUE_COLOR_CHROMA_KEYED) {
 375:Drivers/lvgl/src/draw/sw/lv_draw_sw_transform.c ****                     if(((lv_color_t *)px_base)->full == ck.full ||
 376:Drivers/lvgl/src/draw/sw/lv_draw_sw_transform.c ****                        ((lv_color_t *)px_ver)->full == ck.full ||
 377:Drivers/lvgl/src/draw/sw/lv_draw_sw_transform.c ****                        ((lv_color_t *)px_hor)->full == ck.full) {
 378:Drivers/lvgl/src/draw/sw/lv_draw_sw_transform.c ****                         abuf[x] = 0x00;
 379:Drivers/lvgl/src/draw/sw/lv_draw_sw_transform.c ****                         continue;
 380:Drivers/lvgl/src/draw/sw/lv_draw_sw_transform.c ****                     }
 381:Drivers/lvgl/src/draw/sw/lv_draw_sw_transform.c ****                     else {
 382:Drivers/lvgl/src/draw/sw/lv_draw_sw_transform.c ****                         a_base = 0xff;
 383:Drivers/lvgl/src/draw/sw/lv_draw_sw_transform.c ****                         a_ver = 0xff;
 384:Drivers/lvgl/src/draw/sw/lv_draw_sw_transform.c ****                         a_hor = 0xff;
 385:Drivers/lvgl/src/draw/sw/lv_draw_sw_transform.c ****                     }
 386:Drivers/lvgl/src/draw/sw/lv_draw_sw_transform.c ****                 }
 387:Drivers/lvgl/src/draw/sw/lv_draw_sw_transform.c ****                 else {
 388:Drivers/lvgl/src/draw/sw/lv_draw_sw_transform.c ****                     a_base = 0xff;
 389:Drivers/lvgl/src/draw/sw/lv_draw_sw_transform.c ****                     a_ver = 0xff;
 390:Drivers/lvgl/src/draw/sw/lv_draw_sw_transform.c ****                     a_hor = 0xff;
 391:Drivers/lvgl/src/draw/sw/lv_draw_sw_transform.c ****                 }
 392:Drivers/lvgl/src/draw/sw/lv_draw_sw_transform.c **** 
 393:Drivers/lvgl/src/draw/sw/lv_draw_sw_transform.c ****                 if(a_ver != a_base) a_ver = ((a_ver * ys_fract) + (a_base * (0x100 - ys_fract))) >>
 394:Drivers/lvgl/src/draw/sw/lv_draw_sw_transform.c ****                 if(a_hor != a_base) a_hor = ((a_hor * xs_fract) + (a_base * (0x100 - xs_fract))) >>
 395:Drivers/lvgl/src/draw/sw/lv_draw_sw_transform.c ****                 abuf[x] = (a_ver + a_hor) >> 1;
 396:Drivers/lvgl/src/draw/sw/lv_draw_sw_transform.c **** 
 397:Drivers/lvgl/src/draw/sw/lv_draw_sw_transform.c ****                 if(abuf[x] == 0x00) continue;
 398:Drivers/lvgl/src/draw/sw/lv_draw_sw_transform.c **** 
 399:Drivers/lvgl/src/draw/sw/lv_draw_sw_transform.c **** #if LV_COLOR_DEPTH == 1 || LV_COLOR_DEPTH == 8
 400:Drivers/lvgl/src/draw/sw/lv_draw_sw_transform.c ****                 c_base.full = px_base[0];
 401:Drivers/lvgl/src/draw/sw/lv_draw_sw_transform.c ****                 c_ver.full = px_ver[0];
 402:Drivers/lvgl/src/draw/sw/lv_draw_sw_transform.c ****                 c_hor.full = px_hor[0];
 403:Drivers/lvgl/src/draw/sw/lv_draw_sw_transform.c **** #elif LV_COLOR_DEPTH == 16
 404:Drivers/lvgl/src/draw/sw/lv_draw_sw_transform.c ****                 c_base.full = px_base[0] + (px_base[1] << 8);
 405:Drivers/lvgl/src/draw/sw/lv_draw_sw_transform.c ****                 c_ver.full = px_ver[0] + (px_ver[1] << 8);
 406:Drivers/lvgl/src/draw/sw/lv_draw_sw_transform.c ****                 c_hor.full = px_hor[0] + (px_hor[1] << 8);
 407:Drivers/lvgl/src/draw/sw/lv_draw_sw_transform.c **** #elif LV_COLOR_DEPTH == 32
 408:Drivers/lvgl/src/draw/sw/lv_draw_sw_transform.c ****                 c_base.full = *((uint32_t *)px_base);
 409:Drivers/lvgl/src/draw/sw/lv_draw_sw_transform.c ****                 c_ver.full = *((uint32_t *)px_ver);
 410:Drivers/lvgl/src/draw/sw/lv_draw_sw_transform.c ****                 c_hor.full = *((uint32_t *)px_hor);
 411:Drivers/lvgl/src/draw/sw/lv_draw_sw_transform.c **** #endif
 412:Drivers/lvgl/src/draw/sw/lv_draw_sw_transform.c ****             }
 413:Drivers/lvgl/src/draw/sw/lv_draw_sw_transform.c ****             /*No alpha channel -> RGB*/
 414:Drivers/lvgl/src/draw/sw/lv_draw_sw_transform.c ****             else {
 415:Drivers/lvgl/src/draw/sw/lv_draw_sw_transform.c ****                 c_base = *((const lv_color_t *) px_base);
 416:Drivers/lvgl/src/draw/sw/lv_draw_sw_transform.c ****                 c_hor = *((const lv_color_t *) px_hor);
 417:Drivers/lvgl/src/draw/sw/lv_draw_sw_transform.c ****                 c_ver = *((const lv_color_t *) px_ver);
 418:Drivers/lvgl/src/draw/sw/lv_draw_sw_transform.c ****                 abuf[x] = 0xff;
 419:Drivers/lvgl/src/draw/sw/lv_draw_sw_transform.c ****             }
 420:Drivers/lvgl/src/draw/sw/lv_draw_sw_transform.c **** 
 421:Drivers/lvgl/src/draw/sw/lv_draw_sw_transform.c ****             if(c_base.full == c_ver.full && c_base.full == c_hor.full) {
 422:Drivers/lvgl/src/draw/sw/lv_draw_sw_transform.c ****                 cbuf[x] = c_base;
 423:Drivers/lvgl/src/draw/sw/lv_draw_sw_transform.c ****             }
 424:Drivers/lvgl/src/draw/sw/lv_draw_sw_transform.c ****             else {
 425:Drivers/lvgl/src/draw/sw/lv_draw_sw_transform.c ****                 c_ver = lv_color_mix(c_ver, c_base, ys_fract);
 426:Drivers/lvgl/src/draw/sw/lv_draw_sw_transform.c ****                 c_hor = lv_color_mix(c_hor, c_base, xs_fract);
 427:Drivers/lvgl/src/draw/sw/lv_draw_sw_transform.c ****                 cbuf[x] = lv_color_mix(c_hor, c_ver, LV_OPA_50);
 428:Drivers/lvgl/src/draw/sw/lv_draw_sw_transform.c ****             }
ARM GAS  /var/folders/0z/tsy30v1j4xl4_7kw94k978ww0000gn/T//cceCRR69.s 			page 9


 429:Drivers/lvgl/src/draw/sw/lv_draw_sw_transform.c ****         }
 430:Drivers/lvgl/src/draw/sw/lv_draw_sw_transform.c ****         /*Partially out of the image*/
 431:Drivers/lvgl/src/draw/sw/lv_draw_sw_transform.c ****         else {
 432:Drivers/lvgl/src/draw/sw/lv_draw_sw_transform.c **** #if LV_COLOR_DEPTH == 1 || LV_COLOR_DEPTH == 8
 433:Drivers/lvgl/src/draw/sw/lv_draw_sw_transform.c ****             cbuf[x].full = src_tmp[0];
 434:Drivers/lvgl/src/draw/sw/lv_draw_sw_transform.c **** #elif LV_COLOR_DEPTH == 16
 435:Drivers/lvgl/src/draw/sw/lv_draw_sw_transform.c ****             cbuf[x].full = src_tmp[0] + (src_tmp[1] << 8);
 436:Drivers/lvgl/src/draw/sw/lv_draw_sw_transform.c **** #elif LV_COLOR_DEPTH == 32
 437:Drivers/lvgl/src/draw/sw/lv_draw_sw_transform.c ****             cbuf[x].full = *((uint32_t *)src_tmp);
 438:Drivers/lvgl/src/draw/sw/lv_draw_sw_transform.c **** #endif
 439:Drivers/lvgl/src/draw/sw/lv_draw_sw_transform.c ****             lv_opa_t a;
 440:Drivers/lvgl/src/draw/sw/lv_draw_sw_transform.c ****             switch(cf) {
 441:Drivers/lvgl/src/draw/sw/lv_draw_sw_transform.c ****                 case LV_IMG_CF_TRUE_COLOR_ALPHA:
 442:Drivers/lvgl/src/draw/sw/lv_draw_sw_transform.c ****                     a = src_tmp[LV_IMG_PX_SIZE_ALPHA_BYTE - 1];
 443:Drivers/lvgl/src/draw/sw/lv_draw_sw_transform.c ****                     break;
 444:Drivers/lvgl/src/draw/sw/lv_draw_sw_transform.c ****                 case LV_IMG_CF_TRUE_COLOR_CHROMA_KEYED:
 445:Drivers/lvgl/src/draw/sw/lv_draw_sw_transform.c ****                     a = cbuf[x].full == ck.full ? 0x00 : 0xff;
 446:Drivers/lvgl/src/draw/sw/lv_draw_sw_transform.c ****                     break;
 447:Drivers/lvgl/src/draw/sw/lv_draw_sw_transform.c **** #if LV_COLOR_DEPTH == 16
 448:Drivers/lvgl/src/draw/sw/lv_draw_sw_transform.c ****                 case LV_IMG_CF_RGB565A8:
 449:Drivers/lvgl/src/draw/sw/lv_draw_sw_transform.c ****                     a = *(src + src_stride * src_h * sizeof(lv_color_t) + (ys_int * src_stride) + x
 450:Drivers/lvgl/src/draw/sw/lv_draw_sw_transform.c ****                     break;
 451:Drivers/lvgl/src/draw/sw/lv_draw_sw_transform.c **** #endif
 452:Drivers/lvgl/src/draw/sw/lv_draw_sw_transform.c ****                 default:
 453:Drivers/lvgl/src/draw/sw/lv_draw_sw_transform.c ****                     a = 0xff;
 454:Drivers/lvgl/src/draw/sw/lv_draw_sw_transform.c ****             }
 455:Drivers/lvgl/src/draw/sw/lv_draw_sw_transform.c **** 
 456:Drivers/lvgl/src/draw/sw/lv_draw_sw_transform.c ****             if((xs_int == 0 && x_next < 0) || (xs_int == src_w - 1 && x_next > 0))  {
 457:Drivers/lvgl/src/draw/sw/lv_draw_sw_transform.c ****                 abuf[x] = (a * (0xFF - xs_fract)) >> 8;
 458:Drivers/lvgl/src/draw/sw/lv_draw_sw_transform.c ****             }
 459:Drivers/lvgl/src/draw/sw/lv_draw_sw_transform.c ****             else if((ys_int == 0 && y_next < 0) || (ys_int == src_h - 1 && y_next > 0))  {
 460:Drivers/lvgl/src/draw/sw/lv_draw_sw_transform.c ****                 abuf[x] = (a * (0xFF - ys_fract)) >> 8;
 461:Drivers/lvgl/src/draw/sw/lv_draw_sw_transform.c ****             }
 462:Drivers/lvgl/src/draw/sw/lv_draw_sw_transform.c ****             else {
 463:Drivers/lvgl/src/draw/sw/lv_draw_sw_transform.c ****                 abuf[x] = 0x00;
 464:Drivers/lvgl/src/draw/sw/lv_draw_sw_transform.c ****             }
 465:Drivers/lvgl/src/draw/sw/lv_draw_sw_transform.c ****         }
 466:Drivers/lvgl/src/draw/sw/lv_draw_sw_transform.c ****     }
 467:Drivers/lvgl/src/draw/sw/lv_draw_sw_transform.c **** }
 468:Drivers/lvgl/src/draw/sw/lv_draw_sw_transform.c **** 
 469:Drivers/lvgl/src/draw/sw/lv_draw_sw_transform.c **** static void transform_point_upscaled(point_transform_dsc_t * t, int32_t xin, int32_t yin, int32_t *
 470:Drivers/lvgl/src/draw/sw/lv_draw_sw_transform.c ****                                      int32_t * yout)
 471:Drivers/lvgl/src/draw/sw/lv_draw_sw_transform.c **** {
  30              		.loc 1 471 1 view -0
  31              		.cfi_startproc
  32              		@ args = 4, pretend = 0, frame = 0
  33              		@ frame_needed = 0, uses_anonymous_args = 0
  34              		@ link register save eliminated.
 472:Drivers/lvgl/src/draw/sw/lv_draw_sw_transform.c ****     if(t->angle == 0 && t->zoom == LV_IMG_ZOOM_NONE) {
  35              		.loc 1 472 5 view .LVU1
 471:Drivers/lvgl/src/draw/sw/lv_draw_sw_transform.c ****     if(t->angle == 0 && t->zoom == LV_IMG_ZOOM_NONE) {
  36              		.loc 1 471 1 is_stmt 0 view .LVU2
  37 0000 30B4     		push	{r4, r5}
  38              		.cfi_def_cfa_offset 8
  39              		.cfi_offset 4, -8
  40              		.cfi_offset 5, -4
  41              		.loc 1 472 7 view .LVU3
ARM GAS  /var/folders/0z/tsy30v1j4xl4_7kw94k978ww0000gn/T//cceCRR69.s 			page 10


  42 0002 C469     		ldr	r4, [r0, #28]
  43 0004 2CB3     		cbz	r4, .L11
 473:Drivers/lvgl/src/draw/sw/lv_draw_sw_transform.c ****         *xout = xin * 256;
 474:Drivers/lvgl/src/draw/sw/lv_draw_sw_transform.c ****         *yout = yin * 256;
 475:Drivers/lvgl/src/draw/sw/lv_draw_sw_transform.c ****         return;
 476:Drivers/lvgl/src/draw/sw/lv_draw_sw_transform.c ****     }
 477:Drivers/lvgl/src/draw/sw/lv_draw_sw_transform.c **** 
 478:Drivers/lvgl/src/draw/sw/lv_draw_sw_transform.c ****     xin -= t->pivot.x;
  44              		.loc 1 478 5 is_stmt 1 view .LVU4
  45              		.loc 1 478 20 is_stmt 0 view .LVU5
  46 0006 B0F92840 		ldrsh	r4, [r0, #40]
  47              		.loc 1 478 9 view .LVU6
  48 000a 091B     		subs	r1, r1, r4
  49              	.LVL1:
 479:Drivers/lvgl/src/draw/sw/lv_draw_sw_transform.c ****     yin -= t->pivot.y;
  50              		.loc 1 479 5 is_stmt 1 view .LVU7
  51              		.loc 1 479 20 is_stmt 0 view .LVU8
  52 000c B0F92A40 		ldrsh	r4, [r0, #42]
  53              		.loc 1 479 9 view .LVU9
  54 0010 121B     		subs	r2, r2, r4
  55              	.LVL2:
 480:Drivers/lvgl/src/draw/sw/lv_draw_sw_transform.c **** 
 481:Drivers/lvgl/src/draw/sw/lv_draw_sw_transform.c ****     if(t->angle == 0) {
  56              		.loc 1 481 5 is_stmt 1 view .LVU10
 482:Drivers/lvgl/src/draw/sw/lv_draw_sw_transform.c ****         *xout = ((int32_t)(xin * t->zoom)) + (t->pivot_x_256);
 483:Drivers/lvgl/src/draw/sw/lv_draw_sw_transform.c ****         *yout = ((int32_t)(yin * t->zoom)) + (t->pivot_y_256);
 484:Drivers/lvgl/src/draw/sw/lv_draw_sw_transform.c ****     }
 485:Drivers/lvgl/src/draw/sw/lv_draw_sw_transform.c ****     else if(t->zoom == LV_IMG_ZOOM_NONE) {
  57              		.loc 1 485 10 view .LVU11
  58              		.loc 1 485 14 is_stmt 0 view .LVU12
  59 0012 8469     		ldr	r4, [r0, #24]
  60              		.loc 1 485 12 view .LVU13
  61 0014 B4F5807F 		cmp	r4, #256
  62 0018 32D0     		beq	.L12
 486:Drivers/lvgl/src/draw/sw/lv_draw_sw_transform.c ****         *xout = ((t->cosma * xin - t->sinma * yin) >> 2) + (t->pivot_x_256);
 487:Drivers/lvgl/src/draw/sw/lv_draw_sw_transform.c ****         *yout = ((t->sinma * xin + t->cosma * yin) >> 2) + (t->pivot_y_256);
 488:Drivers/lvgl/src/draw/sw/lv_draw_sw_transform.c ****     }
 489:Drivers/lvgl/src/draw/sw/lv_draw_sw_transform.c ****     else {
 490:Drivers/lvgl/src/draw/sw/lv_draw_sw_transform.c ****         *xout = (((t->cosma * xin - t->sinma * yin) * t->zoom) >> 10) + (t->pivot_x_256);
  63              		.loc 1 490 9 is_stmt 1 view .LVU14
  64              		.loc 1 490 29 is_stmt 0 view .LVU15
  65 001a 4569     		ldr	r5, [r0, #20]
  66 001c 05FB01FC 		mul	ip, r5, r1
  67              		.loc 1 490 35 view .LVU16
  68 0020 0569     		ldr	r5, [r0, #16]
  69 0022 05FB12CC 		mls	ip, r5, r2, ip
  70              		.loc 1 490 53 view .LVU17
  71 0026 04FB0CFC 		mul	ip, r4, ip
  72              		.loc 1 490 71 view .LVU18
  73 002a 046A     		ldr	r4, [r0, #32]
  74 002c 04EBAC24 		add	r4, r4, ip, asr #10
  75              		.loc 1 490 15 view .LVU19
  76 0030 1C60     		str	r4, [r3]
 491:Drivers/lvgl/src/draw/sw/lv_draw_sw_transform.c ****         *yout = (((t->sinma * xin + t->cosma * yin) * t->zoom) >> 10) + (t->pivot_y_256);
  77              		.loc 1 491 9 is_stmt 1 view .LVU20
  78              		.loc 1 491 46 is_stmt 0 view .LVU21
  79 0032 D0E90443 		ldrd	r4, r3, [r0, #16]
ARM GAS  /var/folders/0z/tsy30v1j4xl4_7kw94k978ww0000gn/T//cceCRR69.s 			page 11


  80              	.LVL3:
  81              		.loc 1 491 46 view .LVU22
  82 0036 02FB03F3 		mul	r3, r2, r3
  83              		.loc 1 491 35 view .LVU23
  84 003a 04FB0133 		mla	r3, r4, r1, r3
  85              		.loc 1 491 53 view .LVU24
  86 003e 8169     		ldr	r1, [r0, #24]
  87              	.LVL4:
  88              		.loc 1 491 71 view .LVU25
  89 0040 426A     		ldr	r2, [r0, #36]
  90              	.LVL5:
  91              		.loc 1 491 53 view .LVU26
  92 0042 01FB03F3 		mul	r3, r1, r3
  93              		.loc 1 491 71 view .LVU27
  94 0046 02EBA322 		add	r2, r2, r3, asr #10
 474:Drivers/lvgl/src/draw/sw/lv_draw_sw_transform.c ****         return;
  95              		.loc 1 474 15 view .LVU28
  96 004a 029B     		ldr	r3, [sp, #8]
 492:Drivers/lvgl/src/draw/sw/lv_draw_sw_transform.c ****     }
 493:Drivers/lvgl/src/draw/sw/lv_draw_sw_transform.c **** }
  97              		.loc 1 493 1 view .LVU29
  98 004c 30BC     		pop	{r4, r5}
  99              		.cfi_remember_state
 100              		.cfi_restore 5
 101              		.cfi_restore 4
 102              		.cfi_def_cfa_offset 0
 103              	.LVL6:
 474:Drivers/lvgl/src/draw/sw/lv_draw_sw_transform.c ****         return;
 104              		.loc 1 474 15 view .LVU30
 105 004e 1A60     		str	r2, [r3]
 106              		.loc 1 493 1 view .LVU31
 107 0050 7047     		bx	lr
 108              	.LVL7:
 109              	.L11:
 110              		.cfi_restore_state
 472:Drivers/lvgl/src/draw/sw/lv_draw_sw_transform.c ****         *xout = xin * 256;
 111              		.loc 1 472 26 discriminator 1 view .LVU32
 112 0052 8469     		ldr	r4, [r0, #24]
 472:Drivers/lvgl/src/draw/sw/lv_draw_sw_transform.c ****         *xout = xin * 256;
 113              		.loc 1 472 22 discriminator 1 view .LVU33
 114 0054 B4F5807F 		cmp	r4, #256
 115 0058 29D0     		beq	.L13
 478:Drivers/lvgl/src/draw/sw/lv_draw_sw_transform.c ****     yin -= t->pivot.y;
 116              		.loc 1 478 5 is_stmt 1 view .LVU34
 117              	.LVL8:
 479:Drivers/lvgl/src/draw/sw/lv_draw_sw_transform.c **** 
 118              		.loc 1 479 5 view .LVU35
 478:Drivers/lvgl/src/draw/sw/lv_draw_sw_transform.c ****     yin -= t->pivot.y;
 119              		.loc 1 478 20 is_stmt 0 view .LVU36
 120 005a B0F928C0 		ldrsh	ip, [r0, #40]
 482:Drivers/lvgl/src/draw/sw/lv_draw_sw_transform.c ****         *yout = ((int32_t)(yin * t->zoom)) + (t->pivot_y_256);
 121              		.loc 1 482 44 view .LVU37
 122 005e 056A     		ldr	r5, [r0, #32]
 478:Drivers/lvgl/src/draw/sw/lv_draw_sw_transform.c ****     yin -= t->pivot.y;
 123              		.loc 1 478 9 view .LVU38
 124 0060 A1EB0C01 		sub	r1, r1, ip
 125              	.LVL9:
ARM GAS  /var/folders/0z/tsy30v1j4xl4_7kw94k978ww0000gn/T//cceCRR69.s 			page 12


 482:Drivers/lvgl/src/draw/sw/lv_draw_sw_transform.c ****         *yout = ((int32_t)(yin * t->zoom)) + (t->pivot_y_256);
 126              		.loc 1 482 44 view .LVU39
 127 0064 04FB0151 		mla	r1, r4, r1, r5
 128              	.LVL10:
 479:Drivers/lvgl/src/draw/sw/lv_draw_sw_transform.c **** 
 129              		.loc 1 479 20 view .LVU40
 130 0068 B0F92A40 		ldrsh	r4, [r0, #42]
 482:Drivers/lvgl/src/draw/sw/lv_draw_sw_transform.c ****         *yout = ((int32_t)(yin * t->zoom)) + (t->pivot_y_256);
 131              		.loc 1 482 15 view .LVU41
 132 006c 1960     		str	r1, [r3]
 483:Drivers/lvgl/src/draw/sw/lv_draw_sw_transform.c ****     }
 133              		.loc 1 483 44 view .LVU42
 134 006e 436A     		ldr	r3, [r0, #36]
 135              	.LVL11:
 483:Drivers/lvgl/src/draw/sw/lv_draw_sw_transform.c ****     }
 136              		.loc 1 483 32 view .LVU43
 137 0070 8169     		ldr	r1, [r0, #24]
 479:Drivers/lvgl/src/draw/sw/lv_draw_sw_transform.c **** 
 138              		.loc 1 479 9 view .LVU44
 139 0072 121B     		subs	r2, r2, r4
 140              	.LVL12:
 481:Drivers/lvgl/src/draw/sw/lv_draw_sw_transform.c ****         *xout = ((int32_t)(xin * t->zoom)) + (t->pivot_x_256);
 141              		.loc 1 481 5 is_stmt 1 view .LVU45
 482:Drivers/lvgl/src/draw/sw/lv_draw_sw_transform.c ****         *yout = ((int32_t)(yin * t->zoom)) + (t->pivot_y_256);
 142              		.loc 1 482 9 view .LVU46
 483:Drivers/lvgl/src/draw/sw/lv_draw_sw_transform.c ****     }
 143              		.loc 1 483 9 view .LVU47
 483:Drivers/lvgl/src/draw/sw/lv_draw_sw_transform.c ****     }
 144              		.loc 1 483 44 is_stmt 0 view .LVU48
 145 0074 01FB0232 		mla	r2, r1, r2, r3
 146              	.LVL13:
 474:Drivers/lvgl/src/draw/sw/lv_draw_sw_transform.c ****         return;
 147              		.loc 1 474 15 view .LVU49
 148 0078 029B     		ldr	r3, [sp, #8]
 149              		.loc 1 493 1 view .LVU50
 150 007a 30BC     		pop	{r4, r5}
 151              		.cfi_remember_state
 152              		.cfi_restore 5
 153              		.cfi_restore 4
 154              		.cfi_def_cfa_offset 0
 155              	.LVL14:
 474:Drivers/lvgl/src/draw/sw/lv_draw_sw_transform.c ****         return;
 156              		.loc 1 474 15 view .LVU51
 157 007c 1A60     		str	r2, [r3]
 158              		.loc 1 493 1 view .LVU52
 159 007e 7047     		bx	lr
 160              	.LVL15:
 161              	.L12:
 162              		.cfi_restore_state
 486:Drivers/lvgl/src/draw/sw/lv_draw_sw_transform.c ****         *yout = ((t->sinma * xin + t->cosma * yin) >> 2) + (t->pivot_y_256);
 163              		.loc 1 486 9 is_stmt 1 view .LVU53
 486:Drivers/lvgl/src/draw/sw/lv_draw_sw_transform.c ****         *yout = ((t->sinma * xin + t->cosma * yin) >> 2) + (t->pivot_y_256);
 164              		.loc 1 486 28 is_stmt 0 view .LVU54
 165 0080 4469     		ldr	r4, [r0, #20]
 486:Drivers/lvgl/src/draw/sw/lv_draw_sw_transform.c ****         *yout = ((t->sinma * xin + t->cosma * yin) >> 2) + (t->pivot_y_256);
 166              		.loc 1 486 34 view .LVU55
 167 0082 0569     		ldr	r5, [r0, #16]
ARM GAS  /var/folders/0z/tsy30v1j4xl4_7kw94k978ww0000gn/T//cceCRR69.s 			page 13


 486:Drivers/lvgl/src/draw/sw/lv_draw_sw_transform.c ****         *yout = ((t->sinma * xin + t->cosma * yin) >> 2) + (t->pivot_y_256);
 168              		.loc 1 486 28 view .LVU56
 169 0084 01FB04F4 		mul	r4, r1, r4
 486:Drivers/lvgl/src/draw/sw/lv_draw_sw_transform.c ****         *yout = ((t->sinma * xin + t->cosma * yin) >> 2) + (t->pivot_y_256);
 170              		.loc 1 486 34 view .LVU57
 171 0088 05FB1244 		mls	r4, r5, r2, r4
 486:Drivers/lvgl/src/draw/sw/lv_draw_sw_transform.c ****         *yout = ((t->sinma * xin + t->cosma * yin) >> 2) + (t->pivot_y_256);
 172              		.loc 1 486 58 view .LVU58
 173 008c 056A     		ldr	r5, [r0, #32]
 174 008e 05EBA404 		add	r4, r5, r4, asr #2
 486:Drivers/lvgl/src/draw/sw/lv_draw_sw_transform.c ****         *yout = ((t->sinma * xin + t->cosma * yin) >> 2) + (t->pivot_y_256);
 175              		.loc 1 486 15 view .LVU59
 176 0092 1C60     		str	r4, [r3]
 487:Drivers/lvgl/src/draw/sw/lv_draw_sw_transform.c ****     }
 177              		.loc 1 487 9 is_stmt 1 view .LVU60
 487:Drivers/lvgl/src/draw/sw/lv_draw_sw_transform.c ****     }
 178              		.loc 1 487 45 is_stmt 0 view .LVU61
 179 0094 D0E90443 		ldrd	r4, r3, [r0, #16]
 180              	.LVL16:
 487:Drivers/lvgl/src/draw/sw/lv_draw_sw_transform.c ****     }
 181              		.loc 1 487 45 view .LVU62
 182 0098 03FB02F2 		mul	r2, r3, r2
 183              	.LVL17:
 487:Drivers/lvgl/src/draw/sw/lv_draw_sw_transform.c ****     }
 184              		.loc 1 487 58 view .LVU63
 185 009c 436A     		ldr	r3, [r0, #36]
 487:Drivers/lvgl/src/draw/sw/lv_draw_sw_transform.c ****     }
 186              		.loc 1 487 34 view .LVU64
 187 009e 04FB0122 		mla	r2, r4, r1, r2
 487:Drivers/lvgl/src/draw/sw/lv_draw_sw_transform.c ****     }
 188              		.loc 1 487 58 view .LVU65
 189 00a2 03EBA202 		add	r2, r3, r2, asr #2
 474:Drivers/lvgl/src/draw/sw/lv_draw_sw_transform.c ****         return;
 190              		.loc 1 474 15 view .LVU66
 191 00a6 029B     		ldr	r3, [sp, #8]
 192              		.loc 1 493 1 view .LVU67
 193 00a8 30BC     		pop	{r4, r5}
 194              		.cfi_remember_state
 195              		.cfi_restore 5
 196              		.cfi_restore 4
 197              		.cfi_def_cfa_offset 0
 198              	.LVL18:
 474:Drivers/lvgl/src/draw/sw/lv_draw_sw_transform.c ****         return;
 199              		.loc 1 474 15 view .LVU68
 200 00aa 1A60     		str	r2, [r3]
 201              		.loc 1 493 1 view .LVU69
 202 00ac 7047     		bx	lr
 203              	.LVL19:
 204              	.L13:
 205              		.cfi_restore_state
 473:Drivers/lvgl/src/draw/sw/lv_draw_sw_transform.c ****         *yout = yin * 256;
 206              		.loc 1 473 9 is_stmt 1 view .LVU70
 473:Drivers/lvgl/src/draw/sw/lv_draw_sw_transform.c ****         *yout = yin * 256;
 207              		.loc 1 473 21 is_stmt 0 view .LVU71
 208 00ae 0902     		lsls	r1, r1, #8
 209              	.LVL20:
 473:Drivers/lvgl/src/draw/sw/lv_draw_sw_transform.c ****         *yout = yin * 256;
ARM GAS  /var/folders/0z/tsy30v1j4xl4_7kw94k978ww0000gn/T//cceCRR69.s 			page 14


 210              		.loc 1 473 15 view .LVU72
 211 00b0 1960     		str	r1, [r3]
 474:Drivers/lvgl/src/draw/sw/lv_draw_sw_transform.c ****         return;
 212              		.loc 1 474 9 is_stmt 1 view .LVU73
 474:Drivers/lvgl/src/draw/sw/lv_draw_sw_transform.c ****         return;
 213              		.loc 1 474 15 is_stmt 0 view .LVU74
 214 00b2 029B     		ldr	r3, [sp, #8]
 215              	.LVL21:
 474:Drivers/lvgl/src/draw/sw/lv_draw_sw_transform.c ****         return;
 216              		.loc 1 474 21 view .LVU75
 217 00b4 1202     		lsls	r2, r2, #8
 218              	.LVL22:
 475:Drivers/lvgl/src/draw/sw/lv_draw_sw_transform.c ****     }
 219              		.loc 1 475 9 is_stmt 1 view .LVU76
 220              		.loc 1 493 1 is_stmt 0 view .LVU77
 221 00b6 30BC     		pop	{r4, r5}
 222              		.cfi_restore 5
 223              		.cfi_restore 4
 224              		.cfi_def_cfa_offset 0
 225              	.LVL23:
 474:Drivers/lvgl/src/draw/sw/lv_draw_sw_transform.c ****         return;
 226              		.loc 1 474 15 view .LVU78
 227 00b8 1A60     		str	r2, [r3]
 228              		.loc 1 493 1 view .LVU79
 229 00ba 7047     		bx	lr
 230              		.cfi_endproc
 231              	.LFE166:
 233              		.section	.text.lv_draw_sw_transform,"ax",%progbits
 234              		.align	1
 235              		.p2align 2,,3
 236              		.global	lv_draw_sw_transform
 237              		.syntax unified
 238              		.thumb
 239              		.thumb_func
 241              	lv_draw_sw_transform:
 242              	.LVL24:
 243              	.LFB161:
  83:Drivers/lvgl/src/draw/sw/lv_draw_sw_transform.c ****     LV_UNUSED(draw_ctx);
 244              		.loc 1 83 1 is_stmt 1 view -0
 245              		.cfi_startproc
 246              		@ args = 24, pretend = 0, frame = 192
 247              		@ frame_needed = 0, uses_anonymous_args = 0
  83:Drivers/lvgl/src/draw/sw/lv_draw_sw_transform.c ****     LV_UNUSED(draw_ctx);
 248              		.loc 1 83 1 is_stmt 0 view .LVU81
 249 0000 2DE9F04F 		push	{r4, r5, r6, r7, r8, r9, r10, fp, lr}
 250              		.cfi_def_cfa_offset 36
 251              		.cfi_offset 4, -36
 252              		.cfi_offset 5, -32
 253              		.cfi_offset 6, -28
 254              		.cfi_offset 7, -24
 255              		.cfi_offset 8, -20
 256              		.cfi_offset 9, -16
 257              		.cfi_offset 10, -12
 258              		.cfi_offset 11, -8
 259              		.cfi_offset 14, -4
 260 0004 B3B0     		sub	sp, sp, #204
 261              		.cfi_def_cfa_offset 240
ARM GAS  /var/folders/0z/tsy30v1j4xl4_7kw94k978ww0000gn/T//cceCRR69.s 			page 15


  91:Drivers/lvgl/src/draw/sw/lv_draw_sw_transform.c ****     int32_t angle_high = angle_low + 1;
 262              		.loc 1 91 13 view .LVU82
 263 0006 A94E     		ldr	r6, .L115
  87:Drivers/lvgl/src/draw/sw/lv_draw_sw_transform.c ****     tr_dsc.zoom = (256 * 256) / draw_dsc->zoom;
 264              		.loc 1 87 29 view .LVU83
 265 0008 3E9F     		ldr	r7, [sp, #248]
  83:Drivers/lvgl/src/draw/sw/lv_draw_sw_transform.c ****     LV_UNUSED(draw_ctx);
 266              		.loc 1 83 1 view .LVU84
 267 000a 0393     		str	r3, [sp, #12]
  84:Drivers/lvgl/src/draw/sw/lv_draw_sw_transform.c **** 
 268              		.loc 1 84 5 is_stmt 1 view .LVU85
  86:Drivers/lvgl/src/draw/sw/lv_draw_sw_transform.c ****     tr_dsc.angle = -draw_dsc->angle;
 269              		.loc 1 86 5 view .LVU86
  87:Drivers/lvgl/src/draw/sw/lv_draw_sw_transform.c ****     tr_dsc.zoom = (256 * 256) / draw_dsc->zoom;
 270              		.loc 1 87 5 view .LVU87
  87:Drivers/lvgl/src/draw/sw/lv_draw_sw_transform.c ****     tr_dsc.zoom = (256 * 256) / draw_dsc->zoom;
 271              		.loc 1 87 29 is_stmt 0 view .LVU88
 272 000c B7F90030 		ldrsh	r3, [r7]
 273              	.LVL25:
  83:Drivers/lvgl/src/draw/sw/lv_draw_sw_transform.c ****     LV_UNUSED(draw_ctx);
 274              		.loc 1 83 1 view .LVU89
 275 0010 0A91     		str	r1, [sp, #40]
  87:Drivers/lvgl/src/draw/sw/lv_draw_sw_transform.c ****     tr_dsc.zoom = (256 * 256) / draw_dsc->zoom;
 276              		.loc 1 87 20 view .LVU90
 277 0012 5D42     		rsbs	r5, r3, #0
  83:Drivers/lvgl/src/draw/sw/lv_draw_sw_transform.c ****     LV_UNUSED(draw_ctx);
 278              		.loc 1 83 1 view .LVU91
 279 0014 8946     		mov	r9, r1
 280 0016 0B92     		str	r2, [sp, #44]
  87:Drivers/lvgl/src/draw/sw/lv_draw_sw_transform.c ****     tr_dsc.zoom = (256 * 256) / draw_dsc->zoom;
 281              		.loc 1 87 18 view .LVU92
 282 0018 2E95     		str	r5, [sp, #184]
  88:Drivers/lvgl/src/draw/sw/lv_draw_sw_transform.c ****     tr_dsc.pivot = draw_dsc->pivot;
 283              		.loc 1 88 5 is_stmt 1 view .LVU93
  83:Drivers/lvgl/src/draw/sw/lv_draw_sw_transform.c ****     LV_UNUSED(draw_ctx);
 284              		.loc 1 83 1 is_stmt 0 view .LVU94
 285 001a 9346     		mov	fp, r2
  91:Drivers/lvgl/src/draw/sw/lv_draw_sw_transform.c ****     int32_t angle_high = angle_low + 1;
 286              		.loc 1 91 13 view .LVU95
 287 001c 86FB0512 		smull	r1, r2, r6, r5
 288              	.LVL26:
  91:Drivers/lvgl/src/draw/sw/lv_draw_sw_transform.c ****     int32_t angle_high = angle_low + 1;
 289              		.loc 1 91 13 view .LVU96
 290 0020 ED17     		asrs	r5, r5, #31
 291 0022 C5EBA205 		rsb	r5, r5, r2, asr #2
  93:Drivers/lvgl/src/draw/sw/lv_draw_sw_transform.c **** 
 292              		.loc 1 93 52 view .LVU97
 293 0026 6FF00907 		mvn	r7, #9
 294 002a 05FB07F7 		mul	r7, r5, r7
 295 002e FF1A     		subs	r7, r7, r3
  89:Drivers/lvgl/src/draw/sw/lv_draw_sw_transform.c **** 
 296              		.loc 1 89 18 view .LVU98
 297 0030 3E9B     		ldr	r3, [sp, #248]
  83:Drivers/lvgl/src/draw/sw/lv_draw_sw_transform.c ****     LV_UNUSED(draw_ctx);
 298              		.loc 1 83 1 view .LVU99
 299 0032 BDF9F000 		ldrsh	r0, [sp, #240]
 300              	.LVL27:
ARM GAS  /var/folders/0z/tsy30v1j4xl4_7kw94k978ww0000gn/T//cceCRR69.s 			page 16


  89:Drivers/lvgl/src/draw/sw/lv_draw_sw_transform.c **** 
 301              		.loc 1 89 18 view .LVU100
 302 0036 5B68     		ldr	r3, [r3, #4]
 303 0038 3193     		str	r3, [sp, #196]
  88:Drivers/lvgl/src/draw/sw/lv_draw_sw_transform.c ****     tr_dsc.pivot = draw_dsc->pivot;
 304              		.loc 1 88 41 view .LVU101
 305 003a 3E9B     		ldr	r3, [sp, #248]
  83:Drivers/lvgl/src/draw/sw/lv_draw_sw_transform.c ****     LV_UNUSED(draw_ctx);
 306              		.loc 1 83 1 view .LVU102
 307 003c BDF9F440 		ldrsh	r4, [sp, #244]
  88:Drivers/lvgl/src/draw/sw/lv_draw_sw_transform.c ****     tr_dsc.pivot = draw_dsc->pivot;
 308              		.loc 1 88 41 view .LVU103
 309 0040 5A88     		ldrh	r2, [r3, #2]
  83:Drivers/lvgl/src/draw/sw/lv_draw_sw_transform.c ****     LV_UNUSED(draw_ctx);
 310              		.loc 1 83 1 view .LVU104
 311 0042 0990     		str	r0, [sp, #36]
 312 0044 9DF8FC30 		ldrb	r3, [sp, #252]	@ zero_extendqisi2
 313 0048 0C94     		str	r4, [sp, #48]
  95:Drivers/lvgl/src/draw/sw/lv_draw_sw_transform.c ****     int32_t s2 = lv_trigo_sin(angle_high);
 314              		.loc 1 95 18 view .LVU105
 315 004a 28B2     		sxth	r0, r5
  83:Drivers/lvgl/src/draw/sw/lv_draw_sw_transform.c ****     LV_UNUSED(draw_ctx);
 316              		.loc 1 83 1 view .LVU106
 317 004c 1393     		str	r3, [sp, #76]
  88:Drivers/lvgl/src/draw/sw/lv_draw_sw_transform.c ****     tr_dsc.pivot = draw_dsc->pivot;
 318              		.loc 1 88 31 view .LVU107
 319 004e 4FF48033 		mov	r3, #65536
 320 0052 B3FBF2F3 		udiv	r3, r3, r2
  88:Drivers/lvgl/src/draw/sw/lv_draw_sw_transform.c ****     tr_dsc.pivot = draw_dsc->pivot;
 321              		.loc 1 88 17 view .LVU108
 322 0056 2D93     		str	r3, [sp, #180]
  89:Drivers/lvgl/src/draw/sw/lv_draw_sw_transform.c **** 
 323              		.loc 1 89 5 is_stmt 1 view .LVU109
  91:Drivers/lvgl/src/draw/sw/lv_draw_sw_transform.c ****     int32_t angle_high = angle_low + 1;
 324              		.loc 1 91 5 view .LVU110
 325              	.LVL28:
  92:Drivers/lvgl/src/draw/sw/lv_draw_sw_transform.c ****     int32_t angle_rem = tr_dsc.angle  - (angle_low * 10);
 326              		.loc 1 92 5 view .LVU111
  95:Drivers/lvgl/src/draw/sw/lv_draw_sw_transform.c ****     int32_t s2 = lv_trigo_sin(angle_high);
 327              		.loc 1 95 18 is_stmt 0 view .LVU112
 328 0058 FFF7FEFF 		bl	lv_trigo_sin
 329              	.LVL29:
  92:Drivers/lvgl/src/draw/sw/lv_draw_sw_transform.c ****     int32_t angle_rem = tr_dsc.angle  - (angle_low * 10);
 330              		.loc 1 92 13 view .LVU113
 331 005c 6C1C     		adds	r4, r5, #1
 332              	.LVL30:
  93:Drivers/lvgl/src/draw/sw/lv_draw_sw_transform.c **** 
 333              		.loc 1 93 5 is_stmt 1 view .LVU114
  95:Drivers/lvgl/src/draw/sw/lv_draw_sw_transform.c ****     int32_t s2 = lv_trigo_sin(angle_high);
 334              		.loc 1 95 5 view .LVU115
  95:Drivers/lvgl/src/draw/sw/lv_draw_sw_transform.c ****     int32_t s2 = lv_trigo_sin(angle_high);
 335              		.loc 1 95 18 is_stmt 0 view .LVU116
 336 005e 8046     		mov	r8, r0
  96:Drivers/lvgl/src/draw/sw/lv_draw_sw_transform.c **** 
 337              		.loc 1 96 18 view .LVU117
 338 0060 20B2     		sxth	r0, r4
 339              	.LVL31:
ARM GAS  /var/folders/0z/tsy30v1j4xl4_7kw94k978ww0000gn/T//cceCRR69.s 			page 17


  96:Drivers/lvgl/src/draw/sw/lv_draw_sw_transform.c **** 
 340              		.loc 1 96 5 is_stmt 1 view .LVU118
  96:Drivers/lvgl/src/draw/sw/lv_draw_sw_transform.c **** 
 341              		.loc 1 96 18 is_stmt 0 view .LVU119
 342 0062 FFF7FEFF 		bl	lv_trigo_sin
 343              	.LVL32:
 344 0066 0446     		mov	r4, r0
 345              	.LVL33:
  98:Drivers/lvgl/src/draw/sw/lv_draw_sw_transform.c ****     int32_t c2 = lv_trigo_sin(angle_high + 90);
 346              		.loc 1 98 5 is_stmt 1 view .LVU120
  98:Drivers/lvgl/src/draw/sw/lv_draw_sw_transform.c ****     int32_t c2 = lv_trigo_sin(angle_high + 90);
 347              		.loc 1 98 41 is_stmt 0 view .LVU121
 348 0068 05F15A00 		add	r0, r5, #90
  98:Drivers/lvgl/src/draw/sw/lv_draw_sw_transform.c ****     int32_t c2 = lv_trigo_sin(angle_high + 90);
 349              		.loc 1 98 18 view .LVU122
 350 006c 00B2     		sxth	r0, r0
 351 006e FFF7FEFF 		bl	lv_trigo_sin
 352              	.LVL34:
 353 0072 0346     		mov	r3, r0
  99:Drivers/lvgl/src/draw/sw/lv_draw_sw_transform.c **** 
 354              		.loc 1 99 42 view .LVU123
 355 0074 05F15B00 		add	r0, r5, #91
  99:Drivers/lvgl/src/draw/sw/lv_draw_sw_transform.c **** 
 356              		.loc 1 99 18 view .LVU124
 357 0078 00B2     		sxth	r0, r0
  98:Drivers/lvgl/src/draw/sw/lv_draw_sw_transform.c ****     int32_t c2 = lv_trigo_sin(angle_high + 90);
 358              		.loc 1 98 18 view .LVU125
 359 007a 1D46     		mov	r5, r3
 360              	.LVL35:
  99:Drivers/lvgl/src/draw/sw/lv_draw_sw_transform.c **** 
 361              		.loc 1 99 5 is_stmt 1 view .LVU126
  99:Drivers/lvgl/src/draw/sw/lv_draw_sw_transform.c **** 
 362              		.loc 1 99 18 is_stmt 0 view .LVU127
 363 007c FFF7FEFF 		bl	lv_trigo_sin
 364              	.LVL36:
 101:Drivers/lvgl/src/draw/sw/lv_draw_sw_transform.c ****     tr_dsc.cosma = (c1 * (10 - angle_rem) + c2 * angle_rem) / 10;
 365              		.loc 1 101 5 is_stmt 1 view .LVU128
 366              	.LBB38:
 367              	.LBB39:
 368              		.file 2 "Drivers/lvgl/src/draw/sw/../../misc/lv_area.h"
   1:Drivers/lvgl/src/draw/sw/../../misc/lv_area.h **** /**
   2:Drivers/lvgl/src/draw/sw/../../misc/lv_area.h ****  * @file lv_area.h
   3:Drivers/lvgl/src/draw/sw/../../misc/lv_area.h ****  *
   4:Drivers/lvgl/src/draw/sw/../../misc/lv_area.h ****  */
   5:Drivers/lvgl/src/draw/sw/../../misc/lv_area.h **** 
   6:Drivers/lvgl/src/draw/sw/../../misc/lv_area.h **** #ifndef LV_AREA_H
   7:Drivers/lvgl/src/draw/sw/../../misc/lv_area.h **** #define LV_AREA_H
   8:Drivers/lvgl/src/draw/sw/../../misc/lv_area.h **** 
   9:Drivers/lvgl/src/draw/sw/../../misc/lv_area.h **** #ifdef __cplusplus
  10:Drivers/lvgl/src/draw/sw/../../misc/lv_area.h **** extern "C" {
  11:Drivers/lvgl/src/draw/sw/../../misc/lv_area.h **** #endif
  12:Drivers/lvgl/src/draw/sw/../../misc/lv_area.h **** 
  13:Drivers/lvgl/src/draw/sw/../../misc/lv_area.h **** /*********************
  14:Drivers/lvgl/src/draw/sw/../../misc/lv_area.h ****  *      INCLUDES
  15:Drivers/lvgl/src/draw/sw/../../misc/lv_area.h ****  *********************/
  16:Drivers/lvgl/src/draw/sw/../../misc/lv_area.h **** #include "../lv_conf_internal.h"
  17:Drivers/lvgl/src/draw/sw/../../misc/lv_area.h **** #include <stdbool.h>
ARM GAS  /var/folders/0z/tsy30v1j4xl4_7kw94k978ww0000gn/T//cceCRR69.s 			page 18


  18:Drivers/lvgl/src/draw/sw/../../misc/lv_area.h **** #include <stdint.h>
  19:Drivers/lvgl/src/draw/sw/../../misc/lv_area.h **** 
  20:Drivers/lvgl/src/draw/sw/../../misc/lv_area.h **** /*********************
  21:Drivers/lvgl/src/draw/sw/../../misc/lv_area.h ****  *      DEFINES
  22:Drivers/lvgl/src/draw/sw/../../misc/lv_area.h ****  *********************/
  23:Drivers/lvgl/src/draw/sw/../../misc/lv_area.h **** 
  24:Drivers/lvgl/src/draw/sw/../../misc/lv_area.h **** #if LV_USE_LARGE_COORD
  25:Drivers/lvgl/src/draw/sw/../../misc/lv_area.h **** typedef int32_t lv_coord_t;
  26:Drivers/lvgl/src/draw/sw/../../misc/lv_area.h **** #else
  27:Drivers/lvgl/src/draw/sw/../../misc/lv_area.h **** typedef int16_t lv_coord_t;
  28:Drivers/lvgl/src/draw/sw/../../misc/lv_area.h **** #endif
  29:Drivers/lvgl/src/draw/sw/../../misc/lv_area.h **** 
  30:Drivers/lvgl/src/draw/sw/../../misc/lv_area.h **** /**********************
  31:Drivers/lvgl/src/draw/sw/../../misc/lv_area.h ****  *      TYPEDEFS
  32:Drivers/lvgl/src/draw/sw/../../misc/lv_area.h ****  **********************/
  33:Drivers/lvgl/src/draw/sw/../../misc/lv_area.h **** 
  34:Drivers/lvgl/src/draw/sw/../../misc/lv_area.h **** /**
  35:Drivers/lvgl/src/draw/sw/../../misc/lv_area.h ****  * Represents a point on the screen.
  36:Drivers/lvgl/src/draw/sw/../../misc/lv_area.h ****  */
  37:Drivers/lvgl/src/draw/sw/../../misc/lv_area.h **** typedef struct {
  38:Drivers/lvgl/src/draw/sw/../../misc/lv_area.h ****     lv_coord_t x;
  39:Drivers/lvgl/src/draw/sw/../../misc/lv_area.h ****     lv_coord_t y;
  40:Drivers/lvgl/src/draw/sw/../../misc/lv_area.h **** } lv_point_t;
  41:Drivers/lvgl/src/draw/sw/../../misc/lv_area.h **** 
  42:Drivers/lvgl/src/draw/sw/../../misc/lv_area.h **** /** Represents an area of the screen.*/
  43:Drivers/lvgl/src/draw/sw/../../misc/lv_area.h **** typedef struct {
  44:Drivers/lvgl/src/draw/sw/../../misc/lv_area.h ****     lv_coord_t x1;
  45:Drivers/lvgl/src/draw/sw/../../misc/lv_area.h ****     lv_coord_t y1;
  46:Drivers/lvgl/src/draw/sw/../../misc/lv_area.h ****     lv_coord_t x2;
  47:Drivers/lvgl/src/draw/sw/../../misc/lv_area.h ****     lv_coord_t y2;
  48:Drivers/lvgl/src/draw/sw/../../misc/lv_area.h **** } lv_area_t;
  49:Drivers/lvgl/src/draw/sw/../../misc/lv_area.h **** 
  50:Drivers/lvgl/src/draw/sw/../../misc/lv_area.h **** /** Alignments*/
  51:Drivers/lvgl/src/draw/sw/../../misc/lv_area.h **** enum {
  52:Drivers/lvgl/src/draw/sw/../../misc/lv_area.h ****     LV_ALIGN_DEFAULT = 0,
  53:Drivers/lvgl/src/draw/sw/../../misc/lv_area.h ****     LV_ALIGN_TOP_LEFT,
  54:Drivers/lvgl/src/draw/sw/../../misc/lv_area.h ****     LV_ALIGN_TOP_MID,
  55:Drivers/lvgl/src/draw/sw/../../misc/lv_area.h ****     LV_ALIGN_TOP_RIGHT,
  56:Drivers/lvgl/src/draw/sw/../../misc/lv_area.h ****     LV_ALIGN_BOTTOM_LEFT,
  57:Drivers/lvgl/src/draw/sw/../../misc/lv_area.h ****     LV_ALIGN_BOTTOM_MID,
  58:Drivers/lvgl/src/draw/sw/../../misc/lv_area.h ****     LV_ALIGN_BOTTOM_RIGHT,
  59:Drivers/lvgl/src/draw/sw/../../misc/lv_area.h ****     LV_ALIGN_LEFT_MID,
  60:Drivers/lvgl/src/draw/sw/../../misc/lv_area.h ****     LV_ALIGN_RIGHT_MID,
  61:Drivers/lvgl/src/draw/sw/../../misc/lv_area.h ****     LV_ALIGN_CENTER,
  62:Drivers/lvgl/src/draw/sw/../../misc/lv_area.h **** 
  63:Drivers/lvgl/src/draw/sw/../../misc/lv_area.h ****     LV_ALIGN_OUT_TOP_LEFT,
  64:Drivers/lvgl/src/draw/sw/../../misc/lv_area.h ****     LV_ALIGN_OUT_TOP_MID,
  65:Drivers/lvgl/src/draw/sw/../../misc/lv_area.h ****     LV_ALIGN_OUT_TOP_RIGHT,
  66:Drivers/lvgl/src/draw/sw/../../misc/lv_area.h ****     LV_ALIGN_OUT_BOTTOM_LEFT,
  67:Drivers/lvgl/src/draw/sw/../../misc/lv_area.h ****     LV_ALIGN_OUT_BOTTOM_MID,
  68:Drivers/lvgl/src/draw/sw/../../misc/lv_area.h ****     LV_ALIGN_OUT_BOTTOM_RIGHT,
  69:Drivers/lvgl/src/draw/sw/../../misc/lv_area.h ****     LV_ALIGN_OUT_LEFT_TOP,
  70:Drivers/lvgl/src/draw/sw/../../misc/lv_area.h ****     LV_ALIGN_OUT_LEFT_MID,
  71:Drivers/lvgl/src/draw/sw/../../misc/lv_area.h ****     LV_ALIGN_OUT_LEFT_BOTTOM,
  72:Drivers/lvgl/src/draw/sw/../../misc/lv_area.h ****     LV_ALIGN_OUT_RIGHT_TOP,
  73:Drivers/lvgl/src/draw/sw/../../misc/lv_area.h ****     LV_ALIGN_OUT_RIGHT_MID,
  74:Drivers/lvgl/src/draw/sw/../../misc/lv_area.h ****     LV_ALIGN_OUT_RIGHT_BOTTOM,
ARM GAS  /var/folders/0z/tsy30v1j4xl4_7kw94k978ww0000gn/T//cceCRR69.s 			page 19


  75:Drivers/lvgl/src/draw/sw/../../misc/lv_area.h **** };
  76:Drivers/lvgl/src/draw/sw/../../misc/lv_area.h **** typedef uint8_t lv_align_t;
  77:Drivers/lvgl/src/draw/sw/../../misc/lv_area.h **** 
  78:Drivers/lvgl/src/draw/sw/../../misc/lv_area.h **** enum {
  79:Drivers/lvgl/src/draw/sw/../../misc/lv_area.h ****     LV_DIR_NONE     = 0x00,
  80:Drivers/lvgl/src/draw/sw/../../misc/lv_area.h ****     LV_DIR_LEFT     = (1 << 0),
  81:Drivers/lvgl/src/draw/sw/../../misc/lv_area.h ****     LV_DIR_RIGHT    = (1 << 1),
  82:Drivers/lvgl/src/draw/sw/../../misc/lv_area.h ****     LV_DIR_TOP      = (1 << 2),
  83:Drivers/lvgl/src/draw/sw/../../misc/lv_area.h ****     LV_DIR_BOTTOM   = (1 << 3),
  84:Drivers/lvgl/src/draw/sw/../../misc/lv_area.h ****     LV_DIR_HOR      = LV_DIR_LEFT | LV_DIR_RIGHT,
  85:Drivers/lvgl/src/draw/sw/../../misc/lv_area.h ****     LV_DIR_VER      = LV_DIR_TOP | LV_DIR_BOTTOM,
  86:Drivers/lvgl/src/draw/sw/../../misc/lv_area.h ****     LV_DIR_ALL      = LV_DIR_HOR | LV_DIR_VER,
  87:Drivers/lvgl/src/draw/sw/../../misc/lv_area.h **** };
  88:Drivers/lvgl/src/draw/sw/../../misc/lv_area.h **** 
  89:Drivers/lvgl/src/draw/sw/../../misc/lv_area.h **** typedef uint8_t lv_dir_t;
  90:Drivers/lvgl/src/draw/sw/../../misc/lv_area.h **** 
  91:Drivers/lvgl/src/draw/sw/../../misc/lv_area.h **** /**********************
  92:Drivers/lvgl/src/draw/sw/../../misc/lv_area.h ****  * GLOBAL PROTOTYPES
  93:Drivers/lvgl/src/draw/sw/../../misc/lv_area.h ****  **********************/
  94:Drivers/lvgl/src/draw/sw/../../misc/lv_area.h **** 
  95:Drivers/lvgl/src/draw/sw/../../misc/lv_area.h **** /**
  96:Drivers/lvgl/src/draw/sw/../../misc/lv_area.h ****  * Initialize an area
  97:Drivers/lvgl/src/draw/sw/../../misc/lv_area.h ****  * @param area_p pointer to an area
  98:Drivers/lvgl/src/draw/sw/../../misc/lv_area.h ****  * @param x1 left coordinate of the area
  99:Drivers/lvgl/src/draw/sw/../../misc/lv_area.h ****  * @param y1 top coordinate of the area
 100:Drivers/lvgl/src/draw/sw/../../misc/lv_area.h ****  * @param x2 right coordinate of the area
 101:Drivers/lvgl/src/draw/sw/../../misc/lv_area.h ****  * @param y2 bottom coordinate of the area
 102:Drivers/lvgl/src/draw/sw/../../misc/lv_area.h ****  */
 103:Drivers/lvgl/src/draw/sw/../../misc/lv_area.h **** void lv_area_set(lv_area_t * area_p, lv_coord_t x1, lv_coord_t y1, lv_coord_t x2, lv_coord_t y2);
 104:Drivers/lvgl/src/draw/sw/../../misc/lv_area.h **** 
 105:Drivers/lvgl/src/draw/sw/../../misc/lv_area.h **** /**
 106:Drivers/lvgl/src/draw/sw/../../misc/lv_area.h ****  * Copy an area
 107:Drivers/lvgl/src/draw/sw/../../misc/lv_area.h ****  * @param dest pointer to the destination area
 108:Drivers/lvgl/src/draw/sw/../../misc/lv_area.h ****  * @param src pointer to the source area
 109:Drivers/lvgl/src/draw/sw/../../misc/lv_area.h ****  */
 110:Drivers/lvgl/src/draw/sw/../../misc/lv_area.h **** inline static void lv_area_copy(lv_area_t * dest, const lv_area_t * src)
 111:Drivers/lvgl/src/draw/sw/../../misc/lv_area.h **** {
 112:Drivers/lvgl/src/draw/sw/../../misc/lv_area.h ****     dest->x1 = src->x1;
 113:Drivers/lvgl/src/draw/sw/../../misc/lv_area.h ****     dest->y1 = src->y1;
 114:Drivers/lvgl/src/draw/sw/../../misc/lv_area.h ****     dest->x2 = src->x2;
 115:Drivers/lvgl/src/draw/sw/../../misc/lv_area.h ****     dest->y2 = src->y2;
 116:Drivers/lvgl/src/draw/sw/../../misc/lv_area.h **** }
 117:Drivers/lvgl/src/draw/sw/../../misc/lv_area.h **** 
 118:Drivers/lvgl/src/draw/sw/../../misc/lv_area.h **** /**
 119:Drivers/lvgl/src/draw/sw/../../misc/lv_area.h ****  * Get the width of an area
 120:Drivers/lvgl/src/draw/sw/../../misc/lv_area.h ****  * @param area_p pointer to an area
 121:Drivers/lvgl/src/draw/sw/../../misc/lv_area.h ****  * @return the width of the area (if x1 == x2 -> width = 1)
 122:Drivers/lvgl/src/draw/sw/../../misc/lv_area.h ****  */
 123:Drivers/lvgl/src/draw/sw/../../misc/lv_area.h **** static inline lv_coord_t lv_area_get_width(const lv_area_t * area_p)
 124:Drivers/lvgl/src/draw/sw/../../misc/lv_area.h **** {
 125:Drivers/lvgl/src/draw/sw/../../misc/lv_area.h ****     return (lv_coord_t)(area_p->x2 - area_p->x1 + 1);
 126:Drivers/lvgl/src/draw/sw/../../misc/lv_area.h **** }
 127:Drivers/lvgl/src/draw/sw/../../misc/lv_area.h **** 
 128:Drivers/lvgl/src/draw/sw/../../misc/lv_area.h **** /**
 129:Drivers/lvgl/src/draw/sw/../../misc/lv_area.h ****  * Get the height of an area
 130:Drivers/lvgl/src/draw/sw/../../misc/lv_area.h ****  * @param area_p pointer to an area
 131:Drivers/lvgl/src/draw/sw/../../misc/lv_area.h ****  * @return the height of the area (if y1 == y2 -> height = 1)
ARM GAS  /var/folders/0z/tsy30v1j4xl4_7kw94k978ww0000gn/T//cceCRR69.s 			page 20


 132:Drivers/lvgl/src/draw/sw/../../misc/lv_area.h ****  */
 133:Drivers/lvgl/src/draw/sw/../../misc/lv_area.h **** static inline lv_coord_t lv_area_get_height(const lv_area_t * area_p)
 134:Drivers/lvgl/src/draw/sw/../../misc/lv_area.h **** {
 135:Drivers/lvgl/src/draw/sw/../../misc/lv_area.h ****     return (lv_coord_t)(area_p->y2 - area_p->y1 + 1);
 369              		.loc 2 135 49 is_stmt 0 view .LVU129
 370 0080 B9F80610 		ldrh	r1, [r9, #6]
 371              		.loc 2 135 44 view .LVU130
 372 0084 B9F90220 		ldrsh	r2, [r9, #2]
 373              	.LBE39:
 374              	.LBE38:
 375              	.LBB42:
 376              	.LBB43:
 125:Drivers/lvgl/src/draw/sw/../../misc/lv_area.h **** }
 377              		.loc 2 125 49 view .LVU131
 378 0088 B9F80430 		ldrh	r3, [r9, #4]
 379              	.LBE43:
 380              	.LBE42:
 381              	.LBB49:
 382              	.LBB40:
 383              		.loc 2 135 49 view .LVU132
 384 008c 0131     		adds	r1, r1, #1
 385 008e 891A     		subs	r1, r1, r2
 386              		.loc 2 135 12 view .LVU133
 387 0090 09B2     		sxth	r1, r1
 388 0092 0E91     		str	r1, [sp, #56]
 389              	.LBE40:
 390              	.LBE49:
 105:Drivers/lvgl/src/draw/sw/lv_draw_sw_transform.c ****     tr_dsc.pivot_y_256 = tr_dsc.pivot.y * 256;
 391              		.loc 1 105 41 view .LVU134
 392 0094 BDF9C410 		ldrsh	r1, [sp, #196]
 393 0098 0902     		lsls	r1, r1, #8
 101:Drivers/lvgl/src/draw/sw/lv_draw_sw_transform.c ****     tr_dsc.cosma = (c1 * (10 - angle_rem) + c2 * angle_rem) / 10;
 394              		.loc 1 101 48 view .LVU135
 395 009a 07FB04F4 		mul	r4, r7, r4
 396              	.LVL37:
 102:Drivers/lvgl/src/draw/sw/lv_draw_sw_transform.c ****     tr_dsc.sinma = tr_dsc.sinma >> (LV_TRIGO_SHIFT - 10);
 397              		.loc 1 102 48 view .LVU136
 398 009e 07FB00F0 		mul	r0, r7, r0
 399              	.LVL38:
 105:Drivers/lvgl/src/draw/sw/lv_draw_sw_transform.c ****     tr_dsc.pivot_y_256 = tr_dsc.pivot.y * 256;
 400              		.loc 1 105 24 view .LVU137
 401 00a2 2F91     		str	r1, [sp, #188]
 101:Drivers/lvgl/src/draw/sw/lv_draw_sw_transform.c ****     tr_dsc.cosma = (c1 * (10 - angle_rem) + c2 * angle_rem) / 10;
 402              		.loc 1 101 30 view .LVU138
 403 00a4 C7F10A07 		rsb	r7, r7, #10
 404              	.LVL39:
 102:Drivers/lvgl/src/draw/sw/lv_draw_sw_transform.c ****     tr_dsc.sinma = tr_dsc.sinma >> (LV_TRIGO_SHIFT - 10);
 405              		.loc 1 102 5 is_stmt 1 view .LVU139
 103:Drivers/lvgl/src/draw/sw/lv_draw_sw_transform.c ****     tr_dsc.cosma = tr_dsc.cosma >> (LV_TRIGO_SHIFT - 10);
 406              		.loc 1 103 5 view .LVU140
 106:Drivers/lvgl/src/draw/sw/lv_draw_sw_transform.c **** 
 407              		.loc 1 106 41 is_stmt 0 view .LVU141
 408 00a8 BDF9C610 		ldrsh	r1, [sp, #198]
 101:Drivers/lvgl/src/draw/sw/lv_draw_sw_transform.c ****     tr_dsc.cosma = (c1 * (10 - angle_rem) + c2 * angle_rem) / 10;
 409              		.loc 1 101 43 view .LVU142
 410 00ac 07FB0844 		mla	r4, r7, r8, r4
 102:Drivers/lvgl/src/draw/sw/lv_draw_sw_transform.c ****     tr_dsc.sinma = tr_dsc.sinma >> (LV_TRIGO_SHIFT - 10);
ARM GAS  /var/folders/0z/tsy30v1j4xl4_7kw94k978ww0000gn/T//cceCRR69.s 			page 21


 411              		.loc 1 102 43 view .LVU143
 412 00b0 07FB0500 		mla	r0, r7, r5, r0
 106:Drivers/lvgl/src/draw/sw/lv_draw_sw_transform.c **** 
 413              		.loc 1 106 41 view .LVU144
 414 00b4 0902     		lsls	r1, r1, #8
 101:Drivers/lvgl/src/draw/sw/lv_draw_sw_transform.c ****     tr_dsc.cosma = (c1 * (10 - angle_rem) + c2 * angle_rem) / 10;
 415              		.loc 1 101 61 view .LVU145
 416 00b6 86FB0475 		smull	r7, r5, r6, r4
 417              	.LVL40:
 101:Drivers/lvgl/src/draw/sw/lv_draw_sw_transform.c ****     tr_dsc.cosma = (c1 * (10 - angle_rem) + c2 * angle_rem) / 10;
 418              		.loc 1 101 61 view .LVU146
 419 00ba E417     		asrs	r4, r4, #31
 420 00bc C4EBA504 		rsb	r4, r4, r5, asr #2
 106:Drivers/lvgl/src/draw/sw/lv_draw_sw_transform.c **** 
 421              		.loc 1 106 24 view .LVU147
 422 00c0 3091     		str	r1, [sp, #192]
 102:Drivers/lvgl/src/draw/sw/lv_draw_sw_transform.c ****     tr_dsc.sinma = tr_dsc.sinma >> (LV_TRIGO_SHIFT - 10);
 423              		.loc 1 102 61 view .LVU148
 424 00c2 86FB0056 		smull	r5, r6, r6, r0
 425              	.LBB50:
 426              	.LBB44:
 125:Drivers/lvgl/src/draw/sw/../../misc/lv_area.h **** }
 427              		.loc 2 125 44 view .LVU149
 428 00c6 B9F90010 		ldrsh	r1, [r9]
 429              	.LBE44:
 430              	.LBE50:
 102:Drivers/lvgl/src/draw/sw/lv_draw_sw_transform.c ****     tr_dsc.sinma = tr_dsc.sinma >> (LV_TRIGO_SHIFT - 10);
 431              		.loc 1 102 61 view .LVU150
 432 00ca C017     		asrs	r0, r0, #31
 433              	.LBB51:
 434              	.LBB45:
 125:Drivers/lvgl/src/draw/sw/../../misc/lv_area.h **** }
 435              		.loc 2 125 49 view .LVU151
 436 00cc 0133     		adds	r3, r3, #1
 437              	.LBE45:
 438              	.LBE51:
 102:Drivers/lvgl/src/draw/sw/lv_draw_sw_transform.c ****     tr_dsc.sinma = tr_dsc.sinma >> (LV_TRIGO_SHIFT - 10);
 439              		.loc 1 102 61 view .LVU152
 440 00ce C0EBA600 		rsb	r0, r0, r6, asr #2
 441              	.LBB52:
 442              	.LBB46:
 125:Drivers/lvgl/src/draw/sw/../../misc/lv_area.h **** }
 443              		.loc 2 125 49 view .LVU153
 444 00d2 5B1A     		subs	r3, r3, r1
 445              	.LBE46:
 446              	.LBE52:
 104:Drivers/lvgl/src/draw/sw/lv_draw_sw_transform.c ****     tr_dsc.pivot_x_256 = tr_dsc.pivot.x * 256;
 447              		.loc 1 104 33 view .LVU154
 448 00d4 4011     		asrs	r0, r0, #5
 104:Drivers/lvgl/src/draw/sw/lv_draw_sw_transform.c ****     tr_dsc.pivot_x_256 = tr_dsc.pivot.x * 256;
 449              		.loc 1 104 18 view .LVU155
 450 00d6 2C90     		str	r0, [sp, #176]
 451              	.LBB53:
 452              	.LBB47:
 125:Drivers/lvgl/src/draw/sw/../../misc/lv_area.h **** }
 453              		.loc 2 125 12 view .LVU156
 454 00d8 0FFA83F8 		sxth	r8, r3
ARM GAS  /var/folders/0z/tsy30v1j4xl4_7kw94k978ww0000gn/T//cceCRR69.s 			page 22


 455              	.LVL41:
 125:Drivers/lvgl/src/draw/sw/../../misc/lv_area.h **** }
 456              		.loc 2 125 49 view .LVU157
 457 00dc 98B2     		uxth	r0, r3
 458              	.LBE47:
 459              	.LBE53:
 111:Drivers/lvgl/src/draw/sw/lv_draw_sw_transform.c ****         int32_t xs1_ups, ys1_ups, xs2_ups, ys2_ups;
 460              		.loc 1 111 18 view .LVU158
 461 00de 0E9B     		ldr	r3, [sp, #56]
 103:Drivers/lvgl/src/draw/sw/lv_draw_sw_transform.c ****     tr_dsc.cosma = tr_dsc.cosma >> (LV_TRIGO_SHIFT - 10);
 462              		.loc 1 103 33 view .LVU159
 463 00e0 6411     		asrs	r4, r4, #5
 111:Drivers/lvgl/src/draw/sw/lv_draw_sw_transform.c ****         int32_t xs1_ups, ys1_ups, xs2_ups, ys2_ups;
 464              		.loc 1 111 18 view .LVU160
 465 00e2 002B     		cmp	r3, #0
 103:Drivers/lvgl/src/draw/sw/lv_draw_sw_transform.c ****     tr_dsc.cosma = tr_dsc.cosma >> (LV_TRIGO_SHIFT - 10);
 466              		.loc 1 103 18 view .LVU161
 467 00e4 2B94     		str	r4, [sp, #172]
 104:Drivers/lvgl/src/draw/sw/lv_draw_sw_transform.c ****     tr_dsc.pivot_x_256 = tr_dsc.pivot.x * 256;
 468              		.loc 1 104 5 is_stmt 1 view .LVU162
 105:Drivers/lvgl/src/draw/sw/lv_draw_sw_transform.c ****     tr_dsc.pivot_y_256 = tr_dsc.pivot.y * 256;
 469              		.loc 1 105 5 view .LVU163
 106:Drivers/lvgl/src/draw/sw/lv_draw_sw_transform.c **** 
 470              		.loc 1 106 5 view .LVU164
 108:Drivers/lvgl/src/draw/sw/lv_draw_sw_transform.c ****     lv_coord_t dest_h = lv_area_get_height(dest_area);
 471              		.loc 1 108 5 view .LVU165
 472              	.LVL42:
 473              	.LBB54:
 474              	.LBI42:
 123:Drivers/lvgl/src/draw/sw/../../misc/lv_area.h **** {
 475              		.loc 2 123 26 view .LVU166
 476              	.LBB48:
 125:Drivers/lvgl/src/draw/sw/../../misc/lv_area.h **** }
 477              		.loc 2 125 5 view .LVU167
 125:Drivers/lvgl/src/draw/sw/../../misc/lv_area.h **** }
 478              		.loc 2 125 5 is_stmt 0 view .LVU168
 479              	.LBE48:
 480              	.LBE54:
 109:Drivers/lvgl/src/draw/sw/lv_draw_sw_transform.c ****     lv_coord_t y;
 481              		.loc 1 109 5 is_stmt 1 view .LVU169
 482              	.LBB55:
 483              	.LBI38:
 133:Drivers/lvgl/src/draw/sw/../../misc/lv_area.h **** {
 484              		.loc 2 133 26 view .LVU170
 485              	.LBB41:
 486              		.loc 2 135 5 view .LVU171
 487              		.loc 2 135 5 is_stmt 0 view .LVU172
 488              	.LBE41:
 489              	.LBE55:
 110:Drivers/lvgl/src/draw/sw/lv_draw_sw_transform.c ****     for(y = 0; y < dest_h; y++) {
 490              		.loc 1 110 5 is_stmt 1 view .LVU173
 111:Drivers/lvgl/src/draw/sw/lv_draw_sw_transform.c ****         int32_t xs1_ups, ys1_ups, xs2_ups, ys2_ups;
 491              		.loc 1 111 5 view .LVU174
 111:Drivers/lvgl/src/draw/sw/lv_draw_sw_transform.c ****         int32_t xs1_ups, ys1_ups, xs2_ups, ys2_ups;
 492              		.loc 1 111 18 view .LVU175
 493 00e6 40F3EC81 		ble	.L14
 494              	.LBB56:
ARM GAS  /var/folders/0z/tsy30v1j4xl4_7kw94k978ww0000gn/T//cceCRR69.s 			page 23


 495              	.LBB57:
 496              	.LBB58:
 497              	.LBB59:
 498              	.LBB60:
 449:Drivers/lvgl/src/draw/sw/lv_draw_sw_transform.c ****                     break;
 499              		.loc 1 449 52 is_stmt 0 view .LVU176
 500 00ea 0C9C     		ldr	r4, [sp, #48]
 501 00ec 099B     		ldr	r3, [sp, #36]
 502 00ee 04FB03F3 		mul	r3, r4, r3
 503 00f2 419C     		ldr	r4, [sp, #260]
 504 00f4 0138     		subs	r0, r0, #1
 505 00f6 0134     		adds	r4, r4, #1
 506 00f8 14FA80FA 		uxtah	r10, r4, r0
 507 00fc 5C00     		lsls	r4, r3, #1
 508 00fe 1B94     		str	r4, [sp, #108]
 509              	.LBE60:
 510              	.LBB61:
 511              	.LBB62:
 512              	.LBB63:
 368:Drivers/lvgl/src/draw/sw/lv_draw_sw_transform.c ****                     a_base = *(a_tmp + (ys_int * src_stride) + xs_int);
 513              		.loc 1 368 38 view .LVU177
 514 0100 0BEB4304 		add	r4, fp, r3, lsl #1
 515 0104 139B     		ldr	r3, [sp, #76]
 516 0106 1F94     		str	r4, [sp, #124]
 517              	.LBE63:
 518              	.LBE62:
 519              	.LBE61:
 520              	.LBE59:
 521              	.LBE58:
 522              	.LBE57:
 151:Drivers/lvgl/src/draw/sw/lv_draw_sw_transform.c ****         abuf += dest_w;
 523              		.loc 1 151 14 view .LVU178
 524 0108 0020     		movs	r0, #0
 525 010a 4FEA4804 		lsl	r4, r8, #1
 526 010e 043B     		subs	r3, r3, #4
 527 0110 0490     		str	r0, [sp, #16]
 528 0112 0F94     		str	r4, [sp, #60]
 529 0114 1093     		str	r3, [sp, #64]
 120:Drivers/lvgl/src/draw/sw/lv_draw_sw_transform.c ****         if(dest_w > 1) {
 530              		.loc 1 120 17 view .LVU179
 531 0116 8346     		mov	fp, r0
 532              	.LVL43:
 120:Drivers/lvgl/src/draw/sw/lv_draw_sw_transform.c ****         if(dest_w > 1) {
 533              		.loc 1 120 17 view .LVU180
 534 0118 4746     		mov	r7, r8
 535 011a CDF814A0 		str	r10, [sp, #20]
 536              	.LVL44:
 537              	.L73:
 112:Drivers/lvgl/src/draw/sw/lv_draw_sw_transform.c **** 
 538              		.loc 1 112 9 is_stmt 1 view .LVU181
 114:Drivers/lvgl/src/draw/sw/lv_draw_sw_transform.c ****         transform_point_upscaled(&tr_dsc, dest_area->x2, dest_area->y1 + y, &xs2_ups, &ys2_ups);
 539              		.loc 1 114 9 view .LVU182
 114:Drivers/lvgl/src/draw/sw/lv_draw_sw_transform.c ****         transform_point_upscaled(&tr_dsc, dest_area->x2, dest_area->y1 + y, &xs2_ups, &ys2_ups);
 540              		.loc 1 114 72 is_stmt 0 view .LVU183
 541 011e 049B     		ldr	r3, [sp, #16]
 542 0120 1A44     		add	r2, r2, r3
 114:Drivers/lvgl/src/draw/sw/lv_draw_sw_transform.c ****         transform_point_upscaled(&tr_dsc, dest_area->x2, dest_area->y1 + y, &xs2_ups, &ys2_ups);
ARM GAS  /var/folders/0z/tsy30v1j4xl4_7kw94k978ww0000gn/T//cceCRR69.s 			page 24


 543              		.loc 1 114 9 view .LVU184
 544 0122 24AB     		add	r3, sp, #144
 545 0124 27A8     		add	r0, sp, #156
 546 0126 0093     		str	r3, [sp]
 547 0128 23AB     		add	r3, sp, #140
 548 012a 0692     		str	r2, [sp, #24]
 549 012c FFF7FEFF 		bl	transform_point_upscaled
 550              	.LVL45:
 115:Drivers/lvgl/src/draw/sw/lv_draw_sw_transform.c **** 
 551              		.loc 1 115 9 is_stmt 1 view .LVU185
 552 0130 26AB     		add	r3, sp, #152
 553 0132 0093     		str	r3, [sp]
 554 0134 0A9B     		ldr	r3, [sp, #40]
 555 0136 069A     		ldr	r2, [sp, #24]
 556 0138 B3F90410 		ldrsh	r1, [r3, #4]
 557 013c 25AB     		add	r3, sp, #148
 558 013e FFF7FEFF 		bl	transform_point_upscaled
 559              	.LVL46:
 117:Drivers/lvgl/src/draw/sw/lv_draw_sw_transform.c ****         int32_t ys_diff = ys2_ups - ys1_ups;
 560              		.loc 1 117 9 view .LVU186
 118:Drivers/lvgl/src/draw/sw/lv_draw_sw_transform.c ****         int32_t xs_step_256 = 0;
 561              		.loc 1 118 35 is_stmt 0 view .LVU187
 562 0142 23A8     		add	r0, sp, #140
 121:Drivers/lvgl/src/draw/sw/lv_draw_sw_transform.c ****             xs_step_256 = (256 * xs_diff) / (dest_w - 1);
 563              		.loc 1 121 11 view .LVU188
 564 0144 012F     		cmp	r7, #1
 118:Drivers/lvgl/src/draw/sw/lv_draw_sw_transform.c ****         int32_t xs_step_256 = 0;
 565              		.loc 1 118 35 view .LVU189
 566 0146 0FC8     		ldm	r0, {r0, r1, r2, r3}
 567              	.LVL47:
 119:Drivers/lvgl/src/draw/sw/lv_draw_sw_transform.c ****         int32_t ys_step_256 = 0;
 568              		.loc 1 119 9 is_stmt 1 view .LVU190
 120:Drivers/lvgl/src/draw/sw/lv_draw_sw_transform.c ****         if(dest_w > 1) {
 569              		.loc 1 120 9 view .LVU191
 121:Drivers/lvgl/src/draw/sw/lv_draw_sw_transform.c ****             xs_step_256 = (256 * xs_diff) / (dest_w - 1);
 570              		.loc 1 121 9 view .LVU192
 121:Drivers/lvgl/src/draw/sw/lv_draw_sw_transform.c ****             xs_step_256 = (256 * xs_diff) / (dest_w - 1);
 571              		.loc 1 121 11 is_stmt 0 view .LVU193
 572 0148 40F3E380 		ble	.L74
 122:Drivers/lvgl/src/draw/sw/lv_draw_sw_transform.c ****             ys_step_256 = (256 * ys_diff) / (dest_w - 1);
 573              		.loc 1 122 13 is_stmt 1 view .LVU194
 117:Drivers/lvgl/src/draw/sw/lv_draw_sw_transform.c ****         int32_t ys_diff = ys2_ups - ys1_ups;
 574              		.loc 1 117 17 is_stmt 0 view .LVU195
 575 014c 121A     		subs	r2, r2, r0
 118:Drivers/lvgl/src/draw/sw/lv_draw_sw_transform.c ****         int32_t xs_step_256 = 0;
 576              		.loc 1 118 17 view .LVU196
 577 014e 5B1A     		subs	r3, r3, r1
 578              	.LVL48:
 122:Drivers/lvgl/src/draw/sw/lv_draw_sw_transform.c ****             ys_step_256 = (256 * ys_diff) / (dest_w - 1);
 579              		.loc 1 122 53 view .LVU197
 580 0150 7C1E     		subs	r4, r7, #1
 581 0152 24B2     		sxth	r4, r4
 122:Drivers/lvgl/src/draw/sw/lv_draw_sw_transform.c ****             ys_step_256 = (256 * ys_diff) / (dest_w - 1);
 582              		.loc 1 122 32 view .LVU198
 583 0154 1202     		lsls	r2, r2, #8
 123:Drivers/lvgl/src/draw/sw/lv_draw_sw_transform.c ****         }
 584              		.loc 1 123 32 view .LVU199
ARM GAS  /var/folders/0z/tsy30v1j4xl4_7kw94k978ww0000gn/T//cceCRR69.s 			page 25


 585 0156 1B02     		lsls	r3, r3, #8
 586              	.LVL49:
 122:Drivers/lvgl/src/draw/sw/lv_draw_sw_transform.c ****             ys_step_256 = (256 * ys_diff) / (dest_w - 1);
 587              		.loc 1 122 25 view .LVU200
 588 0158 92FBF4F9 		sdiv	r9, r2, r4
 589              	.LVL50:
 123:Drivers/lvgl/src/draw/sw/lv_draw_sw_transform.c ****         }
 590              		.loc 1 123 13 is_stmt 1 view .LVU201
 123:Drivers/lvgl/src/draw/sw/lv_draw_sw_transform.c ****         }
 591              		.loc 1 123 25 is_stmt 0 view .LVU202
 592 015c 93FBF4F8 		sdiv	r8, r3, r4
 593              	.LVL51:
 594              	.L16:
 125:Drivers/lvgl/src/draw/sw/lv_draw_sw_transform.c ****         int32_t ys_ups = ys1_ups + 0x80;
 595              		.loc 1 125 9 is_stmt 1 view .LVU203
 126:Drivers/lvgl/src/draw/sw/lv_draw_sw_transform.c **** 
 596              		.loc 1 126 17 is_stmt 0 view .LVU204
 597 0160 01F18003 		add	r3, r1, #128
 598 0164 0693     		str	r3, [sp, #24]
 128:Drivers/lvgl/src/draw/sw/lv_draw_sw_transform.c ****             switch(cf) {
 599              		.loc 1 128 32 view .LVU205
 600 0166 3E9B     		ldr	r3, [sp, #248]
 129:Drivers/lvgl/src/draw/sw/lv_draw_sw_transform.c ****                 case LV_IMG_CF_TRUE_COLOR_ALPHA:
 601              		.loc 1 129 13 view .LVU206
 602 0168 109A     		ldr	r2, [sp, #64]
 128:Drivers/lvgl/src/draw/sw/lv_draw_sw_transform.c ****             switch(cf) {
 603              		.loc 1 128 32 view .LVU207
 604 016a 1B7D     		ldrb	r3, [r3, #20]	@ zero_extendqisi2
 128:Drivers/lvgl/src/draw/sw/lv_draw_sw_transform.c ****             switch(cf) {
 605              		.loc 1 128 11 view .LVU208
 606 016c D907     		lsls	r1, r3, #31
 607              	.LVL52:
 125:Drivers/lvgl/src/draw/sw/lv_draw_sw_transform.c ****         int32_t ys_ups = ys1_ups + 0x80;
 608              		.loc 1 125 17 view .LVU209
 609 016e 00F1800A 		add	r10, r0, #128
 610              	.LVL53:
 126:Drivers/lvgl/src/draw/sw/lv_draw_sw_transform.c **** 
 611              		.loc 1 126 9 is_stmt 1 view .LVU210
 128:Drivers/lvgl/src/draw/sw/lv_draw_sw_transform.c ****             switch(cf) {
 612              		.loc 1 128 9 view .LVU211
 128:Drivers/lvgl/src/draw/sw/lv_draw_sw_transform.c ****             switch(cf) {
 613              		.loc 1 128 11 is_stmt 0 view .LVU212
 614 0172 00F1D280 		bmi	.L17
 129:Drivers/lvgl/src/draw/sw/lv_draw_sw_transform.c ****                 case LV_IMG_CF_TRUE_COLOR_ALPHA:
 615              		.loc 1 129 13 is_stmt 1 view .LVU213
 616 0176 102A     		cmp	r2, #16
 617 0178 0BD8     		bhi	.L18
 618 017a DFE802F0 		tbb	[pc, r2]
 619              	.L20:
 620 017e 22       		.byte	(.L21-.L20)/2
 621 017f 61       		.byte	(.L22-.L20)/2
 622 0180 22       		.byte	(.L21-.L20)/2
 623 0181 0A       		.byte	(.L18-.L20)/2
 624 0182 0A       		.byte	(.L18-.L20)/2
 625 0183 0A       		.byte	(.L18-.L20)/2
 626 0184 0A       		.byte	(.L18-.L20)/2
 627 0185 0A       		.byte	(.L18-.L20)/2
ARM GAS  /var/folders/0z/tsy30v1j4xl4_7kw94k978ww0000gn/T//cceCRR69.s 			page 26


 628 0186 0A       		.byte	(.L18-.L20)/2
 629 0187 0A       		.byte	(.L18-.L20)/2
 630 0188 0A       		.byte	(.L18-.L20)/2
 631 0189 0A       		.byte	(.L18-.L20)/2
 632 018a 0A       		.byte	(.L18-.L20)/2
 633 018b 0A       		.byte	(.L18-.L20)/2
 634 018c 0A       		.byte	(.L18-.L20)/2
 635 018d 0A       		.byte	(.L18-.L20)/2
 636 018e 99       		.byte	(.L19-.L20)/2
 637              	.LVL54:
 638 018f 00       		.p2align 1
 639              	.L102:
 640              	.LBB148:
 641              	.LBB149:
 129:Drivers/lvgl/src/draw/sw/lv_draw_sw_transform.c ****                 case LV_IMG_CF_TRUE_COLOR_ALPHA:
 642              		.loc 1 129 13 is_stmt 0 view .LVU214
 643 0190 069F     		ldr	r7, [sp, #24]
 644              	.LVL55:
 645              	.L18:
 129:Drivers/lvgl/src/draw/sw/lv_draw_sw_transform.c ****                 case LV_IMG_CF_TRUE_COLOR_ALPHA:
 646              		.loc 1 129 13 view .LVU215
 647              	.LBE149:
 648              	.LBE148:
 151:Drivers/lvgl/src/draw/sw/lv_draw_sw_transform.c ****         abuf += dest_w;
 649              		.loc 1 151 9 is_stmt 1 discriminator 2 view .LVU216
 151:Drivers/lvgl/src/draw/sw/lv_draw_sw_transform.c ****         abuf += dest_w;
 650              		.loc 1 151 14 is_stmt 0 discriminator 2 view .LVU217
 651 0192 409A     		ldr	r2, [sp, #256]
 652 0194 0F99     		ldr	r1, [sp, #60]
 653              	.LBE56:
 111:Drivers/lvgl/src/draw/sw/lv_draw_sw_transform.c ****         int32_t xs1_ups, ys1_ups, xs2_ups, ys2_ups;
 654              		.loc 1 111 18 discriminator 2 view .LVU218
 655 0196 049B     		ldr	r3, [sp, #16]
 656              	.LBB176:
 151:Drivers/lvgl/src/draw/sw/lv_draw_sw_transform.c ****         abuf += dest_w;
 657              		.loc 1 151 14 discriminator 2 view .LVU219
 658 0198 0A44     		add	r2, r2, r1
 659 019a 4092     		str	r2, [sp, #256]
 660              	.LVL56:
 152:Drivers/lvgl/src/draw/sw/lv_draw_sw_transform.c ****     }
 661              		.loc 1 152 9 is_stmt 1 discriminator 2 view .LVU220
 152:Drivers/lvgl/src/draw/sw/lv_draw_sw_transform.c ****     }
 662              		.loc 1 152 14 is_stmt 0 discriminator 2 view .LVU221
 663 019c 419A     		ldr	r2, [sp, #260]
 664              	.LVL57:
 152:Drivers/lvgl/src/draw/sw/lv_draw_sw_transform.c ****     }
 665              		.loc 1 152 14 discriminator 2 view .LVU222
 666 019e 3A44     		add	r2, r2, r7
 667 01a0 4192     		str	r2, [sp, #260]
 668              	.LVL58:
 152:Drivers/lvgl/src/draw/sw/lv_draw_sw_transform.c ****     }
 669              		.loc 1 152 14 discriminator 2 view .LVU223
 670              	.LBE176:
 111:Drivers/lvgl/src/draw/sw/lv_draw_sw_transform.c ****         int32_t xs1_ups, ys1_ups, xs2_ups, ys2_ups;
 671              		.loc 1 111 29 is_stmt 1 discriminator 2 view .LVU224
 111:Drivers/lvgl/src/draw/sw/lv_draw_sw_transform.c ****         int32_t xs1_ups, ys1_ups, xs2_ups, ys2_ups;
 672              		.loc 1 111 18 discriminator 2 view .LVU225
ARM GAS  /var/folders/0z/tsy30v1j4xl4_7kw94k978ww0000gn/T//cceCRR69.s 			page 27


 673 01a2 059A     		ldr	r2, [sp, #20]
 674              	.LVL59:
 111:Drivers/lvgl/src/draw/sw/lv_draw_sw_transform.c ****         int32_t xs1_ups, ys1_ups, xs2_ups, ys2_ups;
 675              		.loc 1 111 18 is_stmt 0 discriminator 2 view .LVU226
 676 01a4 3A44     		add	r2, r2, r7
 677 01a6 0133     		adds	r3, r3, #1
 678 01a8 0592     		str	r2, [sp, #20]
 679 01aa 0E9A     		ldr	r2, [sp, #56]
 680 01ac 0493     		str	r3, [sp, #16]
 681 01ae 1BB2     		sxth	r3, r3
 682 01b0 9A42     		cmp	r2, r3
 683 01b2 40F38681 		ble	.L14
 684              	.LBB177:
 114:Drivers/lvgl/src/draw/sw/lv_draw_sw_transform.c ****         transform_point_upscaled(&tr_dsc, dest_area->x2, dest_area->y1 + y, &xs2_ups, &ys2_ups);
 685              		.loc 1 114 52 view .LVU227
 686 01b6 0A9B     		ldr	r3, [sp, #40]
 687 01b8 B3F90010 		ldrsh	r1, [r3]
 114:Drivers/lvgl/src/draw/sw/lv_draw_sw_transform.c ****         transform_point_upscaled(&tr_dsc, dest_area->x2, dest_area->y1 + y, &xs2_ups, &ys2_ups);
 688              		.loc 1 114 67 view .LVU228
 689 01bc B3F90220 		ldrsh	r2, [r3, #2]
 690 01c0 ADE7     		b	.L73
 691              	.LVL60:
 692              	.L21:
 135:Drivers/lvgl/src/draw/sw/lv_draw_sw_transform.c ****                     break;
 693              		.loc 1 135 21 is_stmt 1 view .LVU229
 694              	.LBB155:
 695              	.LBI155:
 160:Drivers/lvgl/src/draw/sw/lv_draw_sw_transform.c ****                       int32_t xs_ups, int32_t ys_ups, int32_t xs_step, int32_t ys_step,
 696              		.loc 1 160 13 view .LVU230
 697              	.LBB156:
 164:Drivers/lvgl/src/draw/sw/lv_draw_sw_transform.c ****     int32_t ys_ups_start = ys_ups;
 698              		.loc 1 164 5 view .LVU231
 165:Drivers/lvgl/src/draw/sw/lv_draw_sw_transform.c ****     lv_disp_t * d = _lv_refr_get_disp_refreshing();
 699              		.loc 1 165 5 view .LVU232
 166:Drivers/lvgl/src/draw/sw/lv_draw_sw_transform.c ****     lv_color_t ck = d->driver->color_chroma_key;
 700              		.loc 1 166 5 view .LVU233
 166:Drivers/lvgl/src/draw/sw/lv_draw_sw_transform.c ****     lv_color_t ck = d->driver->color_chroma_key;
 701              		.loc 1 166 21 is_stmt 0 view .LVU234
 702 01c2 FFF7FEFF 		bl	_lv_refr_get_disp_refreshing
 703              	.LVL61:
 167:Drivers/lvgl/src/draw/sw/lv_draw_sw_transform.c **** 
 704              		.loc 1 167 5 is_stmt 1 view .LVU235
 167:Drivers/lvgl/src/draw/sw/lv_draw_sw_transform.c **** 
 705              		.loc 1 167 16 is_stmt 0 view .LVU236
 706 01c6 0368     		ldr	r3, [r0]
 169:Drivers/lvgl/src/draw/sw/lv_draw_sw_transform.c **** 
 707              		.loc 1 169 5 view .LVU237
 708 01c8 4198     		ldr	r0, [sp, #260]
 709              	.LVL62:
 167:Drivers/lvgl/src/draw/sw/lv_draw_sw_transform.c **** 
 710              		.loc 1 167 16 view .LVU238
 711 01ca 1C8F     		ldrh	r4, [r3, #56]
 712              	.LVL63:
 169:Drivers/lvgl/src/draw/sw/lv_draw_sw_transform.c **** 
 713              		.loc 1 169 5 is_stmt 1 view .LVU239
 714 01cc 3946     		mov	r1, r7
 715 01ce FFF7FEFF 		bl	lv_memset_ff
ARM GAS  /var/folders/0z/tsy30v1j4xl4_7kw94k978ww0000gn/T//cceCRR69.s 			page 28


 716              	.LVL64:
 171:Drivers/lvgl/src/draw/sw/lv_draw_sw_transform.c ****     for(x = 0; x < x_end; x++) {
 717              		.loc 1 171 5 view .LVU240
 172:Drivers/lvgl/src/draw/sw/lv_draw_sw_transform.c ****         xs_ups = xs_ups_start + ((xs_step * x) >> 8);
 718              		.loc 1 172 5 view .LVU241
 172:Drivers/lvgl/src/draw/sw/lv_draw_sw_transform.c ****         xs_ups = xs_ups_start + ((xs_step * x) >> 8);
 719              		.loc 1 172 18 view .LVU242
 720 01d2 002F     		cmp	r7, #0
 721 01d4 DDDD     		ble	.L18
 722 01d6 0020     		movs	r0, #0
 723 01d8 0797     		str	r7, [sp, #28]
 724 01da DDE94052 		ldrd	r5, r2, [sp, #256]
 725 01de 069F     		ldr	r7, [sp, #24]
 726              	.LVL65:
 172:Drivers/lvgl/src/draw/sw/lv_draw_sw_transform.c ****         xs_ups = xs_ups_start + ((xs_step * x) >> 8);
 727              		.loc 1 172 18 is_stmt 0 view .LVU243
 728 01e0 DDF814C0 		ldr	ip, [sp, #20]
 729 01e4 DDF84CE0 		ldr	lr, [sp, #76]
 730 01e8 0694     		str	r4, [sp, #24]
 731              	.LVL66:
 172:Drivers/lvgl/src/draw/sw/lv_draw_sw_transform.c ****         xs_ups = xs_ups_start + ((xs_step * x) >> 8);
 732              		.loc 1 172 18 view .LVU244
 733 01ea 0146     		mov	r1, r0
 734 01ec 21E0     		b	.L33
 735              	.LVL67:
 736              	.L104:
 737              	.LBB157:
 178:Drivers/lvgl/src/draw/sw/lv_draw_sw_transform.c ****             abuf[x] = 0x00;
 738              		.loc 1 178 23 view .LVU245
 739 01ee 039C     		ldr	r4, [sp, #12]
 740 01f0 A342     		cmp	r3, r4
 174:Drivers/lvgl/src/draw/sw/lv_draw_sw_transform.c **** 
 741              		.loc 1 174 16 view .LVU246
 742 01f2 07EB2026 		add	r6, r7, r0, asr #8
 178:Drivers/lvgl/src/draw/sw/lv_draw_sw_transform.c ****             abuf[x] = 0x00;
 743              		.loc 1 178 23 view .LVU247
 744 01f6 20DA     		bge	.L29
 178:Drivers/lvgl/src/draw/sw/lv_draw_sw_transform.c ****             abuf[x] = 0x00;
 745              		.loc 1 178 42 view .LVU248
 746 01f8 3612     		asrs	r6, r6, #8
 747 01fa 1ED4     		bmi	.L29
 748              	.LBB158:
 188:Drivers/lvgl/src/draw/sw/lv_draw_sw_transform.c ****             src_tmp += ys_int * src_stride + xs_int;
 749              		.loc 1 188 13 is_stmt 1 view .LVU249
 750              	.LVL68:
 189:Drivers/lvgl/src/draw/sw/lv_draw_sw_transform.c ****             cbuf[x] = *src_tmp;
 751              		.loc 1 189 13 view .LVU250
 190:Drivers/lvgl/src/draw/sw/lv_draw_sw_transform.c **** #elif LV_COLOR_DEPTH == 32
 752              		.loc 1 190 13 view .LVU251
 753              	.LBE158:
 178:Drivers/lvgl/src/draw/sw/lv_draw_sw_transform.c ****             abuf[x] = 0x00;
 754              		.loc 1 178 56 is_stmt 0 view .LVU252
 755 01fc 099C     		ldr	r4, [sp, #36]
 756 01fe A642     		cmp	r6, r4
 757              	.LBB159:
 189:Drivers/lvgl/src/draw/sw/lv_draw_sw_transform.c ****             cbuf[x] = *src_tmp;
 758              		.loc 1 189 21 view .LVU253
ARM GAS  /var/folders/0z/tsy30v1j4xl4_7kw94k978ww0000gn/T//cceCRR69.s 			page 29


 759 0200 0C9C     		ldr	r4, [sp, #48]
 760 0202 04FB0633 		mla	r3, r4, r6, r3
 761              	.LVL69:
 189:Drivers/lvgl/src/draw/sw/lv_draw_sw_transform.c ****             cbuf[x] = *src_tmp;
 762              		.loc 1 189 21 view .LVU254
 763              	.LBE159:
 178:Drivers/lvgl/src/draw/sw/lv_draw_sw_transform.c ****             abuf[x] = 0x00;
 764              		.loc 1 178 56 view .LVU255
 765 0206 18DA     		bge	.L29
 766              	.LBB160:
 190:Drivers/lvgl/src/draw/sw/lv_draw_sw_transform.c **** #elif LV_COLOR_DEPTH == 32
 767              		.loc 1 190 21 view .LVU256
 768 0208 0B9C     		ldr	r4, [sp, #44]
 769 020a 34F81330 		ldrh	r3, [r4, r3, lsl #1]
 770 020e 2B80     		strh	r3, [r5]	@ movhi
 771              	.LVL70:
 772              	.L31:
 190:Drivers/lvgl/src/draw/sw/lv_draw_sw_transform.c **** #elif LV_COLOR_DEPTH == 32
 773              		.loc 1 190 21 view .LVU257
 774              	.LBE160:
 197:Drivers/lvgl/src/draw/sw/lv_draw_sw_transform.c ****             abuf[x] = 0x00;
 775              		.loc 1 197 9 is_stmt 1 view .LVU258
 776              	.LBE157:
 172:Drivers/lvgl/src/draw/sw/lv_draw_sw_transform.c ****         xs_ups = xs_ups_start + ((xs_step * x) >> 8);
 777              		.loc 1 172 28 view .LVU259
 172:Drivers/lvgl/src/draw/sw/lv_draw_sw_transform.c ****         xs_ups = xs_ups_start + ((xs_step * x) >> 8);
 778              		.loc 1 172 18 view .LVU260
 779              	.LBB161:
 197:Drivers/lvgl/src/draw/sw/lv_draw_sw_transform.c ****             abuf[x] = 0x00;
 780              		.loc 1 197 11 is_stmt 0 view .LVU261
 781 0210 BEF1060F 		cmp	lr, #6
 782              	.LBE161:
 172:Drivers/lvgl/src/draw/sw/lv_draw_sw_transform.c ****         xs_ups = xs_ups_start + ((xs_step * x) >> 8);
 783              		.loc 1 172 18 view .LVU262
 784 0214 4944     		add	r1, r1, r9
 785              	.LVL71:
 172:Drivers/lvgl/src/draw/sw/lv_draw_sw_transform.c ****         xs_ups = xs_ups_start + ((xs_step * x) >> 8);
 786              		.loc 1 172 18 view .LVU263
 787 0216 4044     		add	r0, r0, r8
 788              	.LBB162:
 197:Drivers/lvgl/src/draw/sw/lv_draw_sw_transform.c ****             abuf[x] = 0x00;
 789              		.loc 1 197 11 view .LVU264
 790 0218 05D1     		bne	.L32
 197:Drivers/lvgl/src/draw/sw/lv_draw_sw_transform.c ****             abuf[x] = 0x00;
 791              		.loc 1 197 52 view .LVU265
 792 021a 2B88     		ldrh	r3, [r5]
 793 021c 069C     		ldr	r4, [sp, #24]
 794 021e A342     		cmp	r3, r4
 198:Drivers/lvgl/src/draw/sw/lv_draw_sw_transform.c ****         }
 795              		.loc 1 198 13 is_stmt 1 view .LVU266
 198:Drivers/lvgl/src/draw/sw/lv_draw_sw_transform.c ****         }
 796              		.loc 1 198 21 is_stmt 0 view .LVU267
 797 0220 08BF     		it	eq
 798 0222 82F800B0 		strbeq	fp, [r2]
 799              	.L32:
 800              	.LBE162:
 172:Drivers/lvgl/src/draw/sw/lv_draw_sw_transform.c ****         xs_ups = xs_ups_start + ((xs_step * x) >> 8);
ARM GAS  /var/folders/0z/tsy30v1j4xl4_7kw94k978ww0000gn/T//cceCRR69.s 			page 30


 801              		.loc 1 172 18 view .LVU268
 802 0226 0132     		adds	r2, r2, #1
 803 0228 9445     		cmp	ip, r2
 804 022a 05F10205 		add	r5, r5, #2
 805 022e 00F04681 		beq	.L103
 806              	.L33:
 807              	.LBB163:
 173:Drivers/lvgl/src/draw/sw/lv_draw_sw_transform.c ****         ys_ups = ys_ups_start + ((ys_step * x) >> 8);
 808              		.loc 1 173 9 is_stmt 1 view .LVU269
 809              	.LVL72:
 174:Drivers/lvgl/src/draw/sw/lv_draw_sw_transform.c **** 
 810              		.loc 1 174 9 view .LVU270
 176:Drivers/lvgl/src/draw/sw/lv_draw_sw_transform.c ****         int32_t ys_int = ys_ups >> 8;
 811              		.loc 1 176 9 view .LVU271
 179:Drivers/lvgl/src/draw/sw/lv_draw_sw_transform.c ****         }
 812              		.loc 1 179 13 view .LVU272
 173:Drivers/lvgl/src/draw/sw/lv_draw_sw_transform.c ****         ys_ups = ys_ups_start + ((ys_step * x) >> 8);
 813              		.loc 1 173 16 is_stmt 0 view .LVU273
 814 0232 0AEB2123 		add	r3, r10, r1, asr #8
 815              	.LVL73:
 177:Drivers/lvgl/src/draw/sw/lv_draw_sw_transform.c ****         if(xs_int < 0 || xs_int >= src_w || ys_int < 0 || ys_int >= src_h) {
 816              		.loc 1 177 9 is_stmt 1 view .LVU274
 178:Drivers/lvgl/src/draw/sw/lv_draw_sw_transform.c ****             abuf[x] = 0x00;
 817              		.loc 1 178 9 view .LVU275
 178:Drivers/lvgl/src/draw/sw/lv_draw_sw_transform.c ****             abuf[x] = 0x00;
 818              		.loc 1 178 11 is_stmt 0 view .LVU276
 819 0236 1B12     		asrs	r3, r3, #8
 820              	.LVL74:
 178:Drivers/lvgl/src/draw/sw/lv_draw_sw_transform.c ****             abuf[x] = 0x00;
 821              		.loc 1 178 11 view .LVU277
 822 0238 D9D5     		bpl	.L104
 823              	.LVL75:
 824              	.L29:
 179:Drivers/lvgl/src/draw/sw/lv_draw_sw_transform.c ****         }
 825              		.loc 1 179 21 view .LVU278
 826 023a 82F800B0 		strb	fp, [r2]
 827 023e E7E7     		b	.L31
 828              	.LVL76:
 829              	.L22:
 179:Drivers/lvgl/src/draw/sw/lv_draw_sw_transform.c ****         }
 830              		.loc 1 179 21 view .LVU279
 831              	.LBE163:
 832              	.LBE156:
 833              	.LBE155:
 834              	.LBB165:
 835              	.LBB166:
 211:Drivers/lvgl/src/draw/sw/lv_draw_sw_transform.c ****         xs_ups = xs_ups_start + ((xs_step * x) >> 8);
 836              		.loc 1 211 18 is_stmt 1 view .LVU280
 837 0240 002F     		cmp	r7, #0
 838 0242 A6DD     		ble	.L18
 839 0244 0021     		movs	r1, #0
 840 0246 069D     		ldr	r5, [sp, #24]
 841 0248 059C     		ldr	r4, [sp, #20]
 842 024a DDF80CE0 		ldr	lr, [sp, #12]
 843 024e 0697     		str	r7, [sp, #24]
 844              	.LVL77:
 211:Drivers/lvgl/src/draw/sw/lv_draw_sw_transform.c ****         xs_ups = xs_ups_start + ((xs_step * x) >> 8);
ARM GAS  /var/folders/0z/tsy30v1j4xl4_7kw94k978ww0000gn/T//cceCRR69.s 			page 31


 845              		.loc 1 211 18 is_stmt 0 view .LVU281
 846 0250 DDE94003 		ldrd	r0, r3, [sp, #256]
 847 0254 0A46     		mov	r2, r1
 848 0256 22E0     		b	.L28
 849              	.LVL78:
 850              	.L105:
 851              	.LBB167:
 217:Drivers/lvgl/src/draw/sw/lv_draw_sw_transform.c ****             abuf[x] = 0;
 852              		.loc 1 217 23 view .LVU282
 853 0258 7645     		cmp	r6, lr
 213:Drivers/lvgl/src/draw/sw/lv_draw_sw_transform.c **** 
 854              		.loc 1 213 16 view .LVU283
 855 025a 05EB212C 		add	ip, r5, r1, asr #8
 217:Drivers/lvgl/src/draw/sw/lv_draw_sw_transform.c ****             abuf[x] = 0;
 856              		.loc 1 217 23 view .LVU284
 857 025e 22DA     		bge	.L25
 217:Drivers/lvgl/src/draw/sw/lv_draw_sw_transform.c ****             abuf[x] = 0;
 858              		.loc 1 217 42 view .LVU285
 859 0260 5FEA2C2C 		asrs	ip, ip, #8
 860 0264 1FD4     		bmi	.L25
 861              	.LBB168:
 221:Drivers/lvgl/src/draw/sw/lv_draw_sw_transform.c ****             src_tmp += (ys_int * src_stride * LV_IMG_PX_SIZE_ALPHA_BYTE) + xs_int * LV_IMG_PX_SIZE_
 862              		.loc 1 221 13 is_stmt 1 view .LVU286
 863              	.LVL79:
 222:Drivers/lvgl/src/draw/sw/lv_draw_sw_transform.c **** 
 864              		.loc 1 222 13 view .LVU287
 222:Drivers/lvgl/src/draw/sw/lv_draw_sw_transform.c **** 
 865              		.loc 1 222 74 is_stmt 0 view .LVU288
 866 0266 0C9F     		ldr	r7, [sp, #48]
 867 0268 07FB0C66 		mla	r6, r7, ip, r6
 868              	.LVL80:
 222:Drivers/lvgl/src/draw/sw/lv_draw_sw_transform.c **** 
 869              		.loc 1 222 74 view .LVU289
 870              	.LBE168:
 217:Drivers/lvgl/src/draw/sw/lv_draw_sw_transform.c ****             abuf[x] = 0;
 871              		.loc 1 217 56 view .LVU290
 872 026c 099F     		ldr	r7, [sp, #36]
 873 026e BC45     		cmp	ip, r7
 874              	.LBB169:
 222:Drivers/lvgl/src/draw/sw/lv_draw_sw_transform.c **** 
 875              		.loc 1 222 74 view .LVU291
 876 0270 06EB4606 		add	r6, r6, r6, lsl #1
 877              	.LBE169:
 217:Drivers/lvgl/src/draw/sw/lv_draw_sw_transform.c ****             abuf[x] = 0;
 878              		.loc 1 217 56 view .LVU292
 879 0274 17DA     		bge	.L25
 880              	.LBB170:
 222:Drivers/lvgl/src/draw/sw/lv_draw_sw_transform.c **** 
 881              		.loc 1 222 21 view .LVU293
 882 0276 0B9F     		ldr	r7, [sp, #44]
 883 0278 07EB060C 		add	ip, r7, r6
 884              	.LVL81:
 227:Drivers/lvgl/src/draw/sw/lv_draw_sw_transform.c **** #elif LV_COLOR_DEPTH == 32
 885              		.loc 1 227 13 is_stmt 1 view .LVU294
 227:Drivers/lvgl/src/draw/sw/lv_draw_sw_transform.c **** #elif LV_COLOR_DEPTH == 32
 886              		.loc 1 227 35 is_stmt 0 view .LVU295
 887 027c BE5D     		ldrb	r6, [r7, r6]	@ zero_extendqisi2
ARM GAS  /var/folders/0z/tsy30v1j4xl4_7kw94k978ww0000gn/T//cceCRR69.s 			page 32


 227:Drivers/lvgl/src/draw/sw/lv_draw_sw_transform.c **** #elif LV_COLOR_DEPTH == 32
 888              		.loc 1 227 49 view .LVU296
 889 027e 9CF80170 		ldrb	r7, [ip, #1]	@ zero_extendqisi2
 227:Drivers/lvgl/src/draw/sw/lv_draw_sw_transform.c **** #elif LV_COLOR_DEPTH == 32
 890              		.loc 1 227 39 view .LVU297
 891 0282 06EB0726 		add	r6, r6, r7, lsl #8
 227:Drivers/lvgl/src/draw/sw/lv_draw_sw_transform.c **** #elif LV_COLOR_DEPTH == 32
 892              		.loc 1 227 26 view .LVU298
 893 0286 0680     		strh	r6, [r0]	@ movhi
 231:Drivers/lvgl/src/draw/sw/lv_draw_sw_transform.c ****         }
 894              		.loc 1 231 13 is_stmt 1 view .LVU299
 231:Drivers/lvgl/src/draw/sw/lv_draw_sw_transform.c ****         }
 895              		.loc 1 231 30 is_stmt 0 view .LVU300
 896 0288 9CF80260 		ldrb	r6, [ip, #2]	@ zero_extendqisi2
 231:Drivers/lvgl/src/draw/sw/lv_draw_sw_transform.c ****         }
 897              		.loc 1 231 21 view .LVU301
 898 028c 1E70     		strb	r6, [r3]
 899              	.LVL82:
 900              	.L27:
 231:Drivers/lvgl/src/draw/sw/lv_draw_sw_transform.c ****         }
 901              		.loc 1 231 21 view .LVU302
 902              	.LBE170:
 903              	.LBE167:
 211:Drivers/lvgl/src/draw/sw/lv_draw_sw_transform.c ****         xs_ups = xs_ups_start + ((xs_step * x) >> 8);
 904              		.loc 1 211 28 is_stmt 1 view .LVU303
 211:Drivers/lvgl/src/draw/sw/lv_draw_sw_transform.c ****         xs_ups = xs_ups_start + ((xs_step * x) >> 8);
 905              		.loc 1 211 18 view .LVU304
 906 028e 0133     		adds	r3, r3, #1
 907 0290 9C42     		cmp	r4, r3
 908 0292 4A44     		add	r2, r2, r9
 909              	.LVL83:
 211:Drivers/lvgl/src/draw/sw/lv_draw_sw_transform.c ****         xs_ups = xs_ups_start + ((xs_step * x) >> 8);
 910              		.loc 1 211 18 is_stmt 0 view .LVU305
 911 0294 00F10200 		add	r0, r0, #2
 912 0298 4144     		add	r1, r1, r8
 913 029a 3FF479AF 		beq	.L102
 914              	.L28:
 915              	.LBB171:
 212:Drivers/lvgl/src/draw/sw/lv_draw_sw_transform.c ****         ys_ups = ys_ups_start + ((ys_step * x) >> 8);
 916              		.loc 1 212 9 is_stmt 1 view .LVU306
 917              	.LVL84:
 213:Drivers/lvgl/src/draw/sw/lv_draw_sw_transform.c **** 
 918              		.loc 1 213 9 view .LVU307
 215:Drivers/lvgl/src/draw/sw/lv_draw_sw_transform.c ****         int32_t ys_int = ys_ups >> 8;
 919              		.loc 1 215 9 view .LVU308
 218:Drivers/lvgl/src/draw/sw/lv_draw_sw_transform.c ****         }
 920              		.loc 1 218 13 view .LVU309
 212:Drivers/lvgl/src/draw/sw/lv_draw_sw_transform.c ****         ys_ups = ys_ups_start + ((ys_step * x) >> 8);
 921              		.loc 1 212 16 is_stmt 0 view .LVU310
 922 029e 0AEB2226 		add	r6, r10, r2, asr #8
 923              	.LVL85:
 216:Drivers/lvgl/src/draw/sw/lv_draw_sw_transform.c ****         if(xs_int < 0 || xs_int >= src_w || ys_int < 0 || ys_int >= src_h) {
 924              		.loc 1 216 9 is_stmt 1 view .LVU311
 217:Drivers/lvgl/src/draw/sw/lv_draw_sw_transform.c ****             abuf[x] = 0;
 925              		.loc 1 217 9 view .LVU312
 217:Drivers/lvgl/src/draw/sw/lv_draw_sw_transform.c ****             abuf[x] = 0;
 926              		.loc 1 217 11 is_stmt 0 view .LVU313
ARM GAS  /var/folders/0z/tsy30v1j4xl4_7kw94k978ww0000gn/T//cceCRR69.s 			page 33


 927 02a2 3612     		asrs	r6, r6, #8
 928              	.LVL86:
 217:Drivers/lvgl/src/draw/sw/lv_draw_sw_transform.c ****             abuf[x] = 0;
 929              		.loc 1 217 11 view .LVU314
 930 02a4 D8D5     		bpl	.L105
 931              	.LVL87:
 932              	.L25:
 218:Drivers/lvgl/src/draw/sw/lv_draw_sw_transform.c ****         }
 933              		.loc 1 218 21 view .LVU315
 934 02a6 83F800B0 		strb	fp, [r3]
 935 02aa F0E7     		b	.L27
 936              	.L116:
 937              		.align	2
 938              	.L115:
 939 02ac 67666666 		.word	1717986919
 940              	.LVL88:
 941              	.L19:
 218:Drivers/lvgl/src/draw/sw/lv_draw_sw_transform.c ****         }
 942              		.loc 1 218 21 view .LVU316
 943              	.LBE171:
 944              	.LBE166:
 945              	.LBE165:
 946              	.LBB172:
 947              	.LBB154:
 245:Drivers/lvgl/src/draw/sw/lv_draw_sw_transform.c ****         xs_ups = xs_ups_start + ((xs_step * x) >> 8);
 948              		.loc 1 245 18 is_stmt 1 view .LVU317
 949 02b0 002F     		cmp	r7, #0
 950 02b2 7FF76EAF 		ble	.L18
 951 02b6 0020     		movs	r0, #0
 952 02b8 DDF818C0 		ldr	ip, [sp, #24]
 953 02bc 059E     		ldr	r6, [sp, #20]
 954 02be DDF80CE0 		ldr	lr, [sp, #12]
 955 02c2 0697     		str	r7, [sp, #24]
 956              	.LVL89:
 245:Drivers/lvgl/src/draw/sw/lv_draw_sw_transform.c ****         xs_ups = xs_ups_start + ((xs_step * x) >> 8);
 957              		.loc 1 245 18 is_stmt 0 view .LVU318
 958 02c4 DDE94042 		ldrd	r4, r2, [sp, #256]
 959 02c8 0146     		mov	r1, r0
 960 02ca 1BE0     		b	.L37
 961              	.LVL90:
 962              	.L106:
 963              	.LBB150:
 251:Drivers/lvgl/src/draw/sw/lv_draw_sw_transform.c ****             abuf[x] = 0;
 964              		.loc 1 251 23 view .LVU319
 965 02cc 7345     		cmp	r3, lr
 247:Drivers/lvgl/src/draw/sw/lv_draw_sw_transform.c **** 
 966              		.loc 1 247 16 view .LVU320
 967 02ce 0CEB2025 		add	r5, ip, r0, asr #8
 251:Drivers/lvgl/src/draw/sw/lv_draw_sw_transform.c ****             abuf[x] = 0;
 968              		.loc 1 251 23 view .LVU321
 969 02d2 1BDA     		bge	.L34
 251:Drivers/lvgl/src/draw/sw/lv_draw_sw_transform.c ****             abuf[x] = 0;
 970              		.loc 1 251 42 view .LVU322
 971 02d4 2D12     		asrs	r5, r5, #8
 972 02d6 19D4     		bmi	.L34
 973              	.LBB151:
 255:Drivers/lvgl/src/draw/sw/lv_draw_sw_transform.c ****             src_tmp += ys_int * src_stride + xs_int;
ARM GAS  /var/folders/0z/tsy30v1j4xl4_7kw94k978ww0000gn/T//cceCRR69.s 			page 34


 974              		.loc 1 255 13 is_stmt 1 view .LVU323
 975              	.LVL91:
 256:Drivers/lvgl/src/draw/sw/lv_draw_sw_transform.c ****             cbuf[x] = *src_tmp;
 976              		.loc 1 256 13 view .LVU324
 256:Drivers/lvgl/src/draw/sw/lv_draw_sw_transform.c ****             cbuf[x] = *src_tmp;
 977              		.loc 1 256 44 is_stmt 0 view .LVU325
 978 02d8 0C9F     		ldr	r7, [sp, #48]
 979 02da 07FB0533 		mla	r3, r7, r5, r3
 980              	.LVL92:
 257:Drivers/lvgl/src/draw/sw/lv_draw_sw_transform.c **** 
 981              		.loc 1 257 13 is_stmt 1 view .LVU326
 982              	.LBE151:
 251:Drivers/lvgl/src/draw/sw/lv_draw_sw_transform.c ****             abuf[x] = 0;
 983              		.loc 1 251 56 is_stmt 0 view .LVU327
 984 02de 099F     		ldr	r7, [sp, #36]
 985 02e0 BD42     		cmp	r5, r7
 986 02e2 13DA     		bge	.L34
 987              	.LBB152:
 257:Drivers/lvgl/src/draw/sw/lv_draw_sw_transform.c **** 
 988              		.loc 1 257 21 view .LVU328
 989 02e4 0B9F     		ldr	r7, [sp, #44]
 990 02e6 37F81350 		ldrh	r5, [r7, r3, lsl #1]
 991 02ea 2580     		strh	r5, [r4]	@ movhi
 259:Drivers/lvgl/src/draw/sw/lv_draw_sw_transform.c ****             a_tmp += ys_int * src_stride + xs_int;
 992              		.loc 1 259 13 is_stmt 1 view .LVU329
 993              	.LVL93:
 260:Drivers/lvgl/src/draw/sw/lv_draw_sw_transform.c ****             abuf[x] = *a_tmp;
 994              		.loc 1 260 13 view .LVU330
 261:Drivers/lvgl/src/draw/sw/lv_draw_sw_transform.c ****         }
 995              		.loc 1 261 13 view .LVU331
 261:Drivers/lvgl/src/draw/sw/lv_draw_sw_transform.c ****         }
 996              		.loc 1 261 23 is_stmt 0 view .LVU332
 997 02ec 3B44     		add	r3, r3, r7
 998              	.LVL94:
 261:Drivers/lvgl/src/draw/sw/lv_draw_sw_transform.c ****         }
 999              		.loc 1 261 23 view .LVU333
 1000 02ee 1B9D     		ldr	r5, [sp, #108]
 1001 02f0 5B5D     		ldrb	r3, [r3, r5]	@ zero_extendqisi2
 261:Drivers/lvgl/src/draw/sw/lv_draw_sw_transform.c ****         }
 1002              		.loc 1 261 21 view .LVU334
 1003 02f2 1370     		strb	r3, [r2]
 1004              	.LVL95:
 1005              	.L36:
 261:Drivers/lvgl/src/draw/sw/lv_draw_sw_transform.c ****         }
 1006              		.loc 1 261 21 view .LVU335
 1007              	.LBE152:
 1008              	.LBE150:
 245:Drivers/lvgl/src/draw/sw/lv_draw_sw_transform.c ****         xs_ups = xs_ups_start + ((xs_step * x) >> 8);
 1009              		.loc 1 245 28 is_stmt 1 view .LVU336
 245:Drivers/lvgl/src/draw/sw/lv_draw_sw_transform.c ****         xs_ups = xs_ups_start + ((xs_step * x) >> 8);
 1010              		.loc 1 245 18 view .LVU337
 1011 02f4 0132     		adds	r2, r2, #1
 1012 02f6 9642     		cmp	r6, r2
 1013 02f8 4944     		add	r1, r1, r9
 1014              	.LVL96:
 245:Drivers/lvgl/src/draw/sw/lv_draw_sw_transform.c ****         xs_ups = xs_ups_start + ((xs_step * x) >> 8);
 1015              		.loc 1 245 18 is_stmt 0 view .LVU338
ARM GAS  /var/folders/0z/tsy30v1j4xl4_7kw94k978ww0000gn/T//cceCRR69.s 			page 35


 1016 02fa 04F10204 		add	r4, r4, #2
 1017 02fe 4044     		add	r0, r0, r8
 1018 0300 3FF446AF 		beq	.L102
 1019              	.L37:
 1020              	.LBB153:
 246:Drivers/lvgl/src/draw/sw/lv_draw_sw_transform.c ****         ys_ups = ys_ups_start + ((ys_step * x) >> 8);
 1021              		.loc 1 246 9 is_stmt 1 view .LVU339
 1022              	.LVL97:
 247:Drivers/lvgl/src/draw/sw/lv_draw_sw_transform.c **** 
 1023              		.loc 1 247 9 view .LVU340
 249:Drivers/lvgl/src/draw/sw/lv_draw_sw_transform.c ****         int32_t ys_int = ys_ups >> 8;
 1024              		.loc 1 249 9 view .LVU341
 252:Drivers/lvgl/src/draw/sw/lv_draw_sw_transform.c ****         }
 1025              		.loc 1 252 13 view .LVU342
 246:Drivers/lvgl/src/draw/sw/lv_draw_sw_transform.c ****         ys_ups = ys_ups_start + ((ys_step * x) >> 8);
 1026              		.loc 1 246 16 is_stmt 0 view .LVU343
 1027 0304 0AEB2123 		add	r3, r10, r1, asr #8
 1028              	.LVL98:
 250:Drivers/lvgl/src/draw/sw/lv_draw_sw_transform.c ****         if(xs_int < 0 || xs_int >= src_w || ys_int < 0 || ys_int >= src_h) {
 1029              		.loc 1 250 9 is_stmt 1 view .LVU344
 251:Drivers/lvgl/src/draw/sw/lv_draw_sw_transform.c ****             abuf[x] = 0;
 1030              		.loc 1 251 9 view .LVU345
 251:Drivers/lvgl/src/draw/sw/lv_draw_sw_transform.c ****             abuf[x] = 0;
 1031              		.loc 1 251 11 is_stmt 0 view .LVU346
 1032 0308 1B12     		asrs	r3, r3, #8
 1033              	.LVL99:
 251:Drivers/lvgl/src/draw/sw/lv_draw_sw_transform.c ****             abuf[x] = 0;
 1034              		.loc 1 251 11 view .LVU347
 1035 030a DFD5     		bpl	.L106
 1036              	.LVL100:
 1037              	.L34:
 252:Drivers/lvgl/src/draw/sw/lv_draw_sw_transform.c ****         }
 1038              		.loc 1 252 21 view .LVU348
 1039 030c 82F800B0 		strb	fp, [r2]
 1040 0310 F0E7     		b	.L36
 1041              	.LVL101:
 1042              	.L74:
 252:Drivers/lvgl/src/draw/sw/lv_draw_sw_transform.c ****         }
 1043              		.loc 1 252 21 view .LVU349
 1044              	.LBE153:
 1045              	.LBE154:
 1046              	.LBE172:
 120:Drivers/lvgl/src/draw/sw/lv_draw_sw_transform.c ****         if(dest_w > 1) {
 1047              		.loc 1 120 17 view .LVU350
 1048 0312 4FF00008 		mov	r8, #0
 119:Drivers/lvgl/src/draw/sw/lv_draw_sw_transform.c ****         int32_t ys_step_256 = 0;
 1049              		.loc 1 119 17 view .LVU351
 1050 0316 C146     		mov	r9, r8
 1051 0318 22E7     		b	.L16
 1052              	.LVL102:
 1053              	.L17:
 148:Drivers/lvgl/src/draw/sw/lv_draw_sw_transform.c ****         }
 1054              		.loc 1 148 13 is_stmt 1 view .LVU352
 1055              	.LBB173:
 1056              	.LBI57:
 268:Drivers/lvgl/src/draw/sw/lv_draw_sw_transform.c ****                             int32_t xs_ups, int32_t ys_ups, int32_t xs_step, int32_t ys_step,
 1057              		.loc 1 268 13 view .LVU353
ARM GAS  /var/folders/0z/tsy30v1j4xl4_7kw94k978ww0000gn/T//cceCRR69.s 			page 36


 1058              	.LBB146:
 272:Drivers/lvgl/src/draw/sw/lv_draw_sw_transform.c ****     int32_t ys_ups_start = ys_ups;
 1059              		.loc 1 272 5 view .LVU354
 273:Drivers/lvgl/src/draw/sw/lv_draw_sw_transform.c ****     bool has_alpha;
 1060              		.loc 1 273 5 view .LVU355
 274:Drivers/lvgl/src/draw/sw/lv_draw_sw_transform.c ****     int32_t px_size;
 1061              		.loc 1 274 5 view .LVU356
 275:Drivers/lvgl/src/draw/sw/lv_draw_sw_transform.c ****     lv_color_t ck = _LV_COLOR_ZERO_INITIALIZER;
 1062              		.loc 1 275 5 view .LVU357
 276:Drivers/lvgl/src/draw/sw/lv_draw_sw_transform.c ****     switch(cf) {
 1063              		.loc 1 276 5 view .LVU358
 277:Drivers/lvgl/src/draw/sw/lv_draw_sw_transform.c ****         case LV_IMG_CF_TRUE_COLOR:
 1064              		.loc 1 277 5 view .LVU359
 1065 031a 102A     		cmp	r2, #16
 1066 031c 3FF639AF 		bhi	.L18
 1067 0320 01A3     		adr	r3, .L39
 1068 0322 53F822F0 		ldr	pc, [r3, r2, lsl #2]
 1069 0326 00BF     		.p2align 2
 1070              	.L39:
 1071 0328 81050000 		.word	.L75+1
 1072 032c 83060000 		.word	.L41+1
 1073 0330 97040000 		.word	.L40+1
 1074 0334 93010000 		.word	.L18+1
 1075 0338 93010000 		.word	.L18+1
 1076 033c 93010000 		.word	.L18+1
 1077 0340 93010000 		.word	.L18+1
 1078 0344 93010000 		.word	.L18+1
 1079 0348 93010000 		.word	.L18+1
 1080 034c 93010000 		.word	.L18+1
 1081 0350 93010000 		.word	.L18+1
 1082 0354 93010000 		.word	.L18+1
 1083 0358 93010000 		.word	.L18+1
 1084 035c 93010000 		.word	.L18+1
 1085 0360 93010000 		.word	.L18+1
 1086 0364 93010000 		.word	.L18+1
 1087 0368 6D030000 		.word	.L38+1
 1088              		.p2align 1
 1089              	.L38:
 295:Drivers/lvgl/src/draw/sw/lv_draw_sw_transform.c ****             px_size = sizeof(lv_color_t);
 1090              		.loc 1 295 13 view .LVU360
 1091              	.LVL103:
 296:Drivers/lvgl/src/draw/sw/lv_draw_sw_transform.c ****             break;
 1092              		.loc 1 296 13 view .LVU361
 297:Drivers/lvgl/src/draw/sw/lv_draw_sw_transform.c **** #endif
 1093              		.loc 1 297 13 view .LVU362
 276:Drivers/lvgl/src/draw/sw/lv_draw_sw_transform.c ****     switch(cf) {
 1094              		.loc 1 276 16 is_stmt 0 view .LVU363
 1095 036c 0023     		movs	r3, #0
 1096              	.LVL104:
 1097              	.L99:
 276:Drivers/lvgl/src/draw/sw/lv_draw_sw_transform.c ****     switch(cf) {
 1098              		.loc 1 276 16 view .LVU364
 1099 036e 1C93     		str	r3, [sp, #112]
 296:Drivers/lvgl/src/draw/sw/lv_draw_sw_transform.c ****             break;
 1100              		.loc 1 296 21 view .LVU365
 1101 0370 0223     		movs	r3, #2
 1102 0372 1493     		str	r3, [sp, #80]
ARM GAS  /var/folders/0z/tsy30v1j4xl4_7kw94k978ww0000gn/T//cceCRR69.s 			page 37


 295:Drivers/lvgl/src/draw/sw/lv_draw_sw_transform.c ****             px_size = sizeof(lv_color_t);
 1103              		.loc 1 295 23 view .LVU366
 1104 0374 0123     		movs	r3, #1
 1105 0376 1D93     		str	r3, [sp, #116]
 1106              	.LVL105:
 1107              	.L42:
 303:Drivers/lvgl/src/draw/sw/lv_draw_sw_transform.c ****     for(x = 0; x < x_end; x++) {
 1108              		.loc 1 303 5 is_stmt 1 view .LVU367
 304:Drivers/lvgl/src/draw/sw/lv_draw_sw_transform.c ****         xs_ups = xs_ups_start + ((xs_step * x) >> 8);
 1109              		.loc 1 304 5 view .LVU368
 304:Drivers/lvgl/src/draw/sw/lv_draw_sw_transform.c ****         xs_ups = xs_ups_start + ((xs_step * x) >> 8);
 1110              		.loc 1 304 18 view .LVU369
 1111 0378 002F     		cmp	r7, #0
 1112 037a 7FF70AAF 		ble	.L18
 1113              	.LBB136:
 1114              	.LBB126:
 456:Drivers/lvgl/src/draw/sw/lv_draw_sw_transform.c ****                 abuf[x] = (a * (0xFF - xs_fract)) >> 8;
 1115              		.loc 1 456 64 is_stmt 0 view .LVU370
 1116 037e 0399     		ldr	r1, [sp, #12]
 1117 0380 0139     		subs	r1, r1, #1
 1118 0382 1891     		str	r1, [sp, #96]
 459:Drivers/lvgl/src/draw/sw/lv_draw_sw_transform.c ****                 abuf[x] = (a * (0xFF - ys_fract)) >> 8;
 1119              		.loc 1 459 69 view .LVU371
 1120 0384 0999     		ldr	r1, [sp, #36]
 1121 0386 DDE94042 		ldrd	r4, r2, [sp, #256]
 1122              	.LBE126:
 1123              	.LBE136:
 304:Drivers/lvgl/src/draw/sw/lv_draw_sw_transform.c ****         xs_ups = xs_ups_start + ((xs_step * x) >> 8);
 1124              		.loc 1 304 18 view .LVU372
 1125 038a 4FF0000C 		mov	ip, #0
 1126              	.LBB137:
 1127              	.LBB127:
 459:Drivers/lvgl/src/draw/sw/lv_draw_sw_transform.c ****                 abuf[x] = (a * (0xFF - ys_fract)) >> 8;
 1128              		.loc 1 459 69 view .LVU373
 1129 038e 0139     		subs	r1, r1, #1
 440:Drivers/lvgl/src/draw/sw/lv_draw_sw_transform.c ****                 case LV_IMG_CF_TRUE_COLOR_ALPHA:
 1130              		.loc 1 440 13 view .LVU374
 1131 0390 CDE9078A 		strd	r8, r10, [sp, #28]
 1132              	.LBE127:
 1133              	.LBE137:
 304:Drivers/lvgl/src/draw/sw/lv_draw_sw_transform.c ****         xs_ups = xs_ups_start + ((xs_step * x) >> 8);
 1134              		.loc 1 304 18 view .LVU375
 1135 0394 6346     		mov	r3, ip
 1136              	.LBB138:
 1137              	.LBB128:
 440:Drivers/lvgl/src/draw/sw/lv_draw_sw_transform.c ****                 case LV_IMG_CF_TRUE_COLOR_ALPHA:
 1138              		.loc 1 440 13 view .LVU376
 1139 0396 CA46     		mov	r10, r9
 1140              	.LVL106:
 440:Drivers/lvgl/src/draw/sw/lv_draw_sw_transform.c ****                 case LV_IMG_CF_TRUE_COLOR_ALPHA:
 1141              		.loc 1 440 13 view .LVU377
 1142              	.LBE128:
 1143              	.LBE138:
 304:Drivers/lvgl/src/draw/sw/lv_draw_sw_transform.c ****         xs_ups = xs_ups_start + ((xs_step * x) >> 8);
 1144              		.loc 1 304 18 view .LVU378
 1145 0398 E646     		mov	lr, ip
 1146              	.LBB139:
ARM GAS  /var/folders/0z/tsy30v1j4xl4_7kw94k978ww0000gn/T//cceCRR69.s 			page 38


 1147              	.LBB129:
 459:Drivers/lvgl/src/draw/sw/lv_draw_sw_transform.c ****                 abuf[x] = (a * (0xFF - ys_fract)) >> 8;
 1148              		.loc 1 459 69 view .LVU379
 1149 039a 1A91     		str	r1, [sp, #104]
 440:Drivers/lvgl/src/draw/sw/lv_draw_sw_transform.c ****                 case LV_IMG_CF_TRUE_COLOR_ALPHA:
 1150              		.loc 1 440 13 view .LVU380
 1151 039c B946     		mov	r9, r7
 1152              	.LVL107:
 1153              	.L72:
 440:Drivers/lvgl/src/draw/sw/lv_draw_sw_transform.c ****                 case LV_IMG_CF_TRUE_COLOR_ALPHA:
 1154              		.loc 1 440 13 view .LVU381
 1155              	.LBE129:
 305:Drivers/lvgl/src/draw/sw/lv_draw_sw_transform.c ****         ys_ups = ys_ups_start + ((ys_step * x) >> 8);
 1156              		.loc 1 305 9 is_stmt 1 view .LVU382
 305:Drivers/lvgl/src/draw/sw/lv_draw_sw_transform.c ****         ys_ups = ys_ups_start + ((ys_step * x) >> 8);
 1157              		.loc 1 305 16 is_stmt 0 view .LVU383
 1158 039e 0899     		ldr	r1, [sp, #32]
 1159 03a0 01EB2325 		add	r5, r1, r3, asr #8
 1160              	.LVL108:
 306:Drivers/lvgl/src/draw/sw/lv_draw_sw_transform.c **** 
 1161              		.loc 1 306 9 is_stmt 1 view .LVU384
 308:Drivers/lvgl/src/draw/sw/lv_draw_sw_transform.c ****         int32_t ys_int = ys_ups >> 8;
 1162              		.loc 1 308 9 view .LVU385
 309:Drivers/lvgl/src/draw/sw/lv_draw_sw_transform.c **** 
 1163              		.loc 1 309 9 view .LVU386
 312:Drivers/lvgl/src/draw/sw/lv_draw_sw_transform.c ****             abuf[x] = 0x00;
 1164              		.loc 1 312 9 view .LVU387
 312:Drivers/lvgl/src/draw/sw/lv_draw_sw_transform.c ****             abuf[x] = 0x00;
 1165              		.loc 1 312 11 is_stmt 0 view .LVU388
 1166 03a4 2912     		asrs	r1, r5, #8
 1167              	.LVL109:
 312:Drivers/lvgl/src/draw/sw/lv_draw_sw_transform.c ****             abuf[x] = 0x00;
 1168              		.loc 1 312 11 view .LVU389
 1169 03a6 5AD4     		bmi	.L71
 312:Drivers/lvgl/src/draw/sw/lv_draw_sw_transform.c ****             abuf[x] = 0x00;
 1170              		.loc 1 312 23 view .LVU390
 1171 03a8 0398     		ldr	r0, [sp, #12]
 1172 03aa 8142     		cmp	r1, r0
 1173 03ac 57DA     		bge	.L71
 306:Drivers/lvgl/src/draw/sw/lv_draw_sw_transform.c **** 
 1174              		.loc 1 306 16 view .LVU391
 1175 03ae 0698     		ldr	r0, [sp, #24]
 1176 03b0 00EB2C26 		add	r6, r0, ip, asr #8
 312:Drivers/lvgl/src/draw/sw/lv_draw_sw_transform.c ****             abuf[x] = 0x00;
 1177              		.loc 1 312 42 view .LVU392
 1178 03b4 3012     		asrs	r0, r6, #8
 1179 03b6 52D4     		bmi	.L71
 312:Drivers/lvgl/src/draw/sw/lv_draw_sw_transform.c ****             abuf[x] = 0x00;
 1180              		.loc 1 312 56 view .LVU393
 1181 03b8 099F     		ldr	r7, [sp, #36]
 1182 03ba B842     		cmp	r0, r7
 1183 03bc 4FDA     		bge	.L71
 319:Drivers/lvgl/src/draw/sw/lv_draw_sw_transform.c ****         int32_t ys_fract = ys_ups & 0xFF;
 1184              		.loc 1 319 9 is_stmt 1 view .LVU394
 319:Drivers/lvgl/src/draw/sw/lv_draw_sw_transform.c ****         int32_t ys_fract = ys_ups & 0xFF;
 1185              		.loc 1 319 17 is_stmt 0 view .LVU395
 1186 03be EFB2     		uxtb	r7, r5
ARM GAS  /var/folders/0z/tsy30v1j4xl4_7kw94k978ww0000gn/T//cceCRR69.s 			page 39


 1187              	.LVL110:
 320:Drivers/lvgl/src/draw/sw/lv_draw_sw_transform.c **** 
 1188              		.loc 1 320 9 is_stmt 1 view .LVU396
 324:Drivers/lvgl/src/draw/sw/lv_draw_sw_transform.c ****             x_next = -1;
 1189              		.loc 1 324 11 is_stmt 0 view .LVU397
 1190 03c0 2D06     		lsls	r5, r5, #24
 1191              	.LVL111:
 320:Drivers/lvgl/src/draw/sw/lv_draw_sw_transform.c **** 
 1192              		.loc 1 320 17 view .LVU398
 1193 03c2 5FFA86F8 		uxtb	r8, r6
 1194              	.LVL112:
 322:Drivers/lvgl/src/draw/sw/lv_draw_sw_transform.c ****         int32_t y_next;
 1195              		.loc 1 322 9 is_stmt 1 view .LVU399
 323:Drivers/lvgl/src/draw/sw/lv_draw_sw_transform.c ****         if(xs_fract < 0x80) {
 1196              		.loc 1 323 9 view .LVU400
 324:Drivers/lvgl/src/draw/sw/lv_draw_sw_transform.c ****             x_next = -1;
 1197              		.loc 1 324 9 view .LVU401
 324:Drivers/lvgl/src/draw/sw/lv_draw_sw_transform.c ****             x_next = -1;
 1198              		.loc 1 324 11 is_stmt 0 view .LVU402
 1199 03c6 6BD4     		bmi	.L46
 325:Drivers/lvgl/src/draw/sw/lv_draw_sw_transform.c ****             xs_fract = (0x7F - xs_fract) * 2;
 1200              		.loc 1 325 13 is_stmt 1 view .LVU403
 1201              	.LVL113:
 326:Drivers/lvgl/src/draw/sw/lv_draw_sw_transform.c ****         }
 1202              		.loc 1 326 13 view .LVU404
 326:Drivers/lvgl/src/draw/sw/lv_draw_sw_transform.c ****         }
 1203              		.loc 1 326 30 is_stmt 0 view .LVU405
 1204 03c8 C7F17F07 		rsb	r7, r7, #127
 1205              	.LVL114:
 326:Drivers/lvgl/src/draw/sw/lv_draw_sw_transform.c ****         }
 1206              		.loc 1 326 22 view .LVU406
 1207 03cc 7D00     		lsls	r5, r7, #1
 1208 03ce 1595     		str	r5, [sp, #84]
 1209              	.LVL115:
 332:Drivers/lvgl/src/draw/sw/lv_draw_sw_transform.c ****             y_next = -1;
 1210              		.loc 1 332 9 is_stmt 1 view .LVU407
 325:Drivers/lvgl/src/draw/sw/lv_draw_sw_transform.c ****             xs_fract = (0x7F - xs_fract) * 2;
 1211              		.loc 1 325 20 is_stmt 0 view .LVU408
 1212 03d0 4FF0FF35 		mov	r5, #-1
 1213              	.LVL116:
 325:Drivers/lvgl/src/draw/sw/lv_draw_sw_transform.c ****             xs_fract = (0x7F - xs_fract) * 2;
 1214              		.loc 1 325 20 view .LVU409
 1215 03d4 0D95     		str	r5, [sp, #52]
 1216              	.LVL117:
 332:Drivers/lvgl/src/draw/sw/lv_draw_sw_transform.c ****             y_next = -1;
 1217              		.loc 1 332 11 view .LVU410
 1218 03d6 3506     		lsls	r5, r6, #24
 1219 03d8 69D4     		bmi	.L48
 1220              	.L111:
 333:Drivers/lvgl/src/draw/sw/lv_draw_sw_transform.c ****             ys_fract = (0x7F - ys_fract) * 2;
 1221              		.loc 1 333 13 is_stmt 1 view .LVU411
 1222              	.LVL118:
 334:Drivers/lvgl/src/draw/sw/lv_draw_sw_transform.c ****         }
 1223              		.loc 1 334 13 view .LVU412
 334:Drivers/lvgl/src/draw/sw/lv_draw_sw_transform.c ****         }
 1224              		.loc 1 334 30 is_stmt 0 view .LVU413
 1225 03da C8F17F08 		rsb	r8, r8, #127
ARM GAS  /var/folders/0z/tsy30v1j4xl4_7kw94k978ww0000gn/T//cceCRR69.s 			page 40


 1226              	.LVL119:
 334:Drivers/lvgl/src/draw/sw/lv_draw_sw_transform.c ****         }
 1227              		.loc 1 334 22 view .LVU414
 1228 03de 4FEA4805 		lsl	r5, r8, #1
 1229 03e2 1695     		str	r5, [sp, #88]
 1230              	.LVL120:
 333:Drivers/lvgl/src/draw/sw/lv_draw_sw_transform.c ****             ys_fract = (0x7F - ys_fract) * 2;
 1231              		.loc 1 333 20 view .LVU415
 1232 03e4 4FF0FF35 		mov	r5, #-1
 1233              	.LVL121:
 333:Drivers/lvgl/src/draw/sw/lv_draw_sw_transform.c ****             ys_fract = (0x7F - ys_fract) * 2;
 1234              		.loc 1 333 20 view .LVU416
 1235 03e8 1295     		str	r5, [sp, #72]
 1236              	.LVL122:
 1237              	.L49:
 341:Drivers/lvgl/src/draw/sw/lv_draw_sw_transform.c ****         src_tmp += (ys_int * src_stride * px_size) + xs_int * px_size;
 1238              		.loc 1 341 9 is_stmt 1 view .LVU417
 342:Drivers/lvgl/src/draw/sw/lv_draw_sw_transform.c **** 
 1239              		.loc 1 342 9 view .LVU418
 342:Drivers/lvgl/src/draw/sw/lv_draw_sw_transform.c **** 
 1240              		.loc 1 342 28 is_stmt 0 view .LVU419
 1241 03ea 0C9D     		ldr	r5, [sp, #48]
 342:Drivers/lvgl/src/draw/sw/lv_draw_sw_transform.c **** 
 1242              		.loc 1 342 52 view .LVU420
 1243 03ec 149F     		ldr	r7, [sp, #80]
 342:Drivers/lvgl/src/draw/sw/lv_draw_sw_transform.c **** 
 1244              		.loc 1 342 28 view .LVU421
 1245 03ee 05FB00F6 		mul	r6, r5, r0
 342:Drivers/lvgl/src/draw/sw/lv_draw_sw_transform.c **** 
 1246              		.loc 1 342 52 view .LVU422
 1247 03f2 8D19     		adds	r5, r1, r6
 342:Drivers/lvgl/src/draw/sw/lv_draw_sw_transform.c **** 
 1248              		.loc 1 342 28 view .LVU423
 1249 03f4 1796     		str	r6, [sp, #92]
 342:Drivers/lvgl/src/draw/sw/lv_draw_sw_transform.c **** 
 1250              		.loc 1 342 52 view .LVU424
 1251 03f6 1995     		str	r5, [sp, #100]
 1252 03f8 07FB05F6 		mul	r6, r7, r5
 345:Drivers/lvgl/src/draw/sw/lv_draw_sw_transform.c ****            xs_int + x_next <= src_w - 1 &&
 1253              		.loc 1 345 19 view .LVU425
 1254 03fc 0D9D     		ldr	r5, [sp, #52]
 342:Drivers/lvgl/src/draw/sw/lv_draw_sw_transform.c **** 
 1255              		.loc 1 342 17 view .LVU426
 1256 03fe 0B9F     		ldr	r7, [sp, #44]
 342:Drivers/lvgl/src/draw/sw/lv_draw_sw_transform.c **** 
 1257              		.loc 1 342 52 view .LVU427
 1258 0400 1196     		str	r6, [sp, #68]
 345:Drivers/lvgl/src/draw/sw/lv_draw_sw_transform.c ****            xs_int + x_next <= src_w - 1 &&
 1259              		.loc 1 345 19 view .LVU428
 1260 0402 4D19     		adds	r5, r1, r5
 342:Drivers/lvgl/src/draw/sw/lv_draw_sw_transform.c **** 
 1261              		.loc 1 342 17 view .LVU429
 1262 0404 07EB0608 		add	r8, r7, r6
 1263              	.LVL123:
 345:Drivers/lvgl/src/draw/sw/lv_draw_sw_transform.c ****            xs_int + x_next <= src_w - 1 &&
 1264              		.loc 1 345 9 is_stmt 1 view .LVU430
 345:Drivers/lvgl/src/draw/sw/lv_draw_sw_transform.c ****            xs_int + x_next <= src_w - 1 &&
ARM GAS  /var/folders/0z/tsy30v1j4xl4_7kw94k978ww0000gn/T//cceCRR69.s 			page 41


 1265              		.loc 1 345 11 is_stmt 0 view .LVU431
 1266 0408 6F1C     		adds	r7, r5, #1
 1267 040a 0AD0     		beq	.L50
 345:Drivers/lvgl/src/draw/sw/lv_draw_sw_transform.c ****            xs_int + x_next <= src_w - 1 &&
 1268              		.loc 1 345 33 view .LVU432
 1269 040c 039F     		ldr	r7, [sp, #12]
 1270 040e AF42     		cmp	r7, r5
 1271 0410 07DD     		ble	.L50
 347:Drivers/lvgl/src/draw/sw/lv_draw_sw_transform.c ****            ys_int + y_next <= src_h - 1) {
 1272              		.loc 1 347 19 view .LVU433
 1273 0412 129F     		ldr	r7, [sp, #72]
 1274 0414 C719     		adds	r7, r0, r7
 346:Drivers/lvgl/src/draw/sw/lv_draw_sw_transform.c ****            ys_int + y_next >= 0 &&
 1275              		.loc 1 346 41 view .LVU434
 1276 0416 7E1C     		adds	r6, r7, #1
 347:Drivers/lvgl/src/draw/sw/lv_draw_sw_transform.c ****            ys_int + y_next <= src_h - 1) {
 1277              		.loc 1 347 19 view .LVU435
 1278 0418 1E97     		str	r7, [sp, #120]
 346:Drivers/lvgl/src/draw/sw/lv_draw_sw_transform.c ****            ys_int + y_next >= 0 &&
 1279              		.loc 1 346 41 view .LVU436
 1280 041a 02D0     		beq	.L50
 347:Drivers/lvgl/src/draw/sw/lv_draw_sw_transform.c ****            ys_int + y_next <= src_h - 1) {
 1281              		.loc 1 347 33 view .LVU437
 1282 041c 099E     		ldr	r6, [sp, #36]
 1283 041e BE42     		cmp	r6, r7
 1284 0420 6EDC     		bgt	.L107
 1285              	.L50:
 1286              	.LBB130:
 435:Drivers/lvgl/src/draw/sw/lv_draw_sw_transform.c **** #elif LV_COLOR_DEPTH == 32
 1287              		.loc 1 435 13 is_stmt 1 view .LVU438
 435:Drivers/lvgl/src/draw/sw/lv_draw_sw_transform.c **** #elif LV_COLOR_DEPTH == 32
 1288              		.loc 1 435 35 is_stmt 0 view .LVU439
 1289 0422 0B9F     		ldr	r7, [sp, #44]
 1290 0424 119E     		ldr	r6, [sp, #68]
 1291 0426 BE5D     		ldrb	r6, [r7, r6]	@ zero_extendqisi2
 435:Drivers/lvgl/src/draw/sw/lv_draw_sw_transform.c **** #elif LV_COLOR_DEPTH == 32
 1292              		.loc 1 435 49 view .LVU440
 1293 0428 98F80170 		ldrb	r7, [r8, #1]	@ zero_extendqisi2
 435:Drivers/lvgl/src/draw/sw/lv_draw_sw_transform.c **** #elif LV_COLOR_DEPTH == 32
 1294              		.loc 1 435 39 view .LVU441
 1295 042c 06EB0726 		add	r6, r6, r7, lsl #8
 440:Drivers/lvgl/src/draw/sw/lv_draw_sw_transform.c ****                 case LV_IMG_CF_TRUE_COLOR_ALPHA:
 1296              		.loc 1 440 13 view .LVU442
 1297 0430 139F     		ldr	r7, [sp, #76]
 435:Drivers/lvgl/src/draw/sw/lv_draw_sw_transform.c **** #elif LV_COLOR_DEPTH == 32
 1298              		.loc 1 435 39 view .LVU443
 1299 0432 B6B2     		uxth	r6, r6
 440:Drivers/lvgl/src/draw/sw/lv_draw_sw_transform.c ****                 case LV_IMG_CF_TRUE_COLOR_ALPHA:
 1300              		.loc 1 440 13 view .LVU444
 1301 0434 062F     		cmp	r7, #6
 435:Drivers/lvgl/src/draw/sw/lv_draw_sw_transform.c **** #elif LV_COLOR_DEPTH == 32
 1302              		.loc 1 435 26 view .LVU445
 1303 0436 2680     		strh	r6, [r4]	@ movhi
 439:Drivers/lvgl/src/draw/sw/lv_draw_sw_transform.c ****             switch(cf) {
 1304              		.loc 1 439 13 is_stmt 1 view .LVU446
 440:Drivers/lvgl/src/draw/sw/lv_draw_sw_transform.c ****                 case LV_IMG_CF_TRUE_COLOR_ALPHA:
 1305              		.loc 1 440 13 view .LVU447
ARM GAS  /var/folders/0z/tsy30v1j4xl4_7kw94k978ww0000gn/T//cceCRR69.s 			page 42


 1306 0438 46D0     		beq	.L63
 1307 043a 142F     		cmp	r7, #20
 1308 043c 4ED0     		beq	.L64
 1309 043e 052F     		cmp	r7, #5
 1310 0440 49D0     		beq	.L108
 1311 0442 FF26     		movs	r6, #255
 1312              	.L65:
 1313              	.LVL124:
 456:Drivers/lvgl/src/draw/sw/lv_draw_sw_transform.c ****                 abuf[x] = (a * (0xFF - xs_fract)) >> 8;
 1314              		.loc 1 456 13 view .LVU448
 456:Drivers/lvgl/src/draw/sw/lv_draw_sw_transform.c ****                 abuf[x] = (a * (0xFF - xs_fract)) >> 8;
 1315              		.loc 1 456 15 is_stmt 0 view .LVU449
 1316 0444 09B9     		cbnz	r1, .L66
 456:Drivers/lvgl/src/draw/sw/lv_draw_sw_transform.c ****                 abuf[x] = (a * (0xFF - xs_fract)) >> 8;
 1317              		.loc 1 456 29 view .LVU450
 1318 0446 0135     		adds	r5, r5, #1
 1319 0448 1DD0     		beq	.L67
 1320              	.L66:
 456:Drivers/lvgl/src/draw/sw/lv_draw_sw_transform.c ****                 abuf[x] = (a * (0xFF - xs_fract)) >> 8;
 1321              		.loc 1 456 44 view .LVU451
 1322 044a 189D     		ldr	r5, [sp, #96]
 1323 044c A942     		cmp	r1, r5
 1324 044e 17D0     		beq	.L109
 1325              	.LVL125:
 1326              	.L68:
 459:Drivers/lvgl/src/draw/sw/lv_draw_sw_transform.c ****                 abuf[x] = (a * (0xFF - ys_fract)) >> 8;
 1327              		.loc 1 459 18 is_stmt 1 view .LVU452
 459:Drivers/lvgl/src/draw/sw/lv_draw_sw_transform.c ****                 abuf[x] = (a * (0xFF - ys_fract)) >> 8;
 1328              		.loc 1 459 20 is_stmt 0 view .LVU453
 1329 0450 10B9     		cbnz	r0, .L69
 459:Drivers/lvgl/src/draw/sw/lv_draw_sw_transform.c ****                 abuf[x] = (a * (0xFF - ys_fract)) >> 8;
 1330              		.loc 1 459 34 view .LVU454
 1331 0452 1299     		ldr	r1, [sp, #72]
 1332 0454 0131     		adds	r1, r1, #1
 1333 0456 4BD0     		beq	.L70
 1334              	.L69:
 459:Drivers/lvgl/src/draw/sw/lv_draw_sw_transform.c ****                 abuf[x] = (a * (0xFF - ys_fract)) >> 8;
 1335              		.loc 1 459 49 view .LVU455
 1336 0458 1A99     		ldr	r1, [sp, #104]
 1337 045a 8842     		cmp	r0, r1
 1338 045c 45D0     		beq	.L110
 1339              	.LVL126:
 1340              	.L71:
 463:Drivers/lvgl/src/draw/sw/lv_draw_sw_transform.c ****             }
 1341              		.loc 1 463 17 is_stmt 1 view .LVU456
 463:Drivers/lvgl/src/draw/sw/lv_draw_sw_transform.c ****             }
 1342              		.loc 1 463 25 is_stmt 0 view .LVU457
 1343 045e 82F800B0 		strb	fp, [r2]
 1344              	.LVL127:
 1345              	.L45:
 463:Drivers/lvgl/src/draw/sw/lv_draw_sw_transform.c ****             }
 1346              		.loc 1 463 25 view .LVU458
 1347              	.LBE130:
 1348              	.LBE139:
 304:Drivers/lvgl/src/draw/sw/lv_draw_sw_transform.c ****         xs_ups = xs_ups_start + ((xs_step * x) >> 8);
 1349              		.loc 1 304 28 is_stmt 1 view .LVU459
 304:Drivers/lvgl/src/draw/sw/lv_draw_sw_transform.c ****         xs_ups = xs_ups_start + ((xs_step * x) >> 8);
ARM GAS  /var/folders/0z/tsy30v1j4xl4_7kw94k978ww0000gn/T//cceCRR69.s 			page 43


 1350              		.loc 1 304 18 view .LVU460
 1351 0462 0799     		ldr	r1, [sp, #28]
 1352 0464 0EF1010E 		add	lr, lr, #1
 1353              	.LVL128:
 304:Drivers/lvgl/src/draw/sw/lv_draw_sw_transform.c ****         xs_ups = xs_ups_start + ((xs_step * x) >> 8);
 1354              		.loc 1 304 18 is_stmt 0 view .LVU461
 1355 0468 8C44     		add	ip, ip, r1
 1356 046a 0FFA8EF1 		sxth	r1, lr
 1357 046e 8945     		cmp	r9, r1
 1358 0470 5344     		add	r3, r3, r10
 304:Drivers/lvgl/src/draw/sw/lv_draw_sw_transform.c ****         xs_ups = xs_ups_start + ((xs_step * x) >> 8);
 1359              		.loc 1 304 18 view .LVU462
 1360 0472 02F10102 		add	r2, r2, #1
 1361 0476 04F10204 		add	r4, r4, #2
 1362 047a 90DC     		bgt	.L72
 1363 047c 4F46     		mov	r7, r9
 1364 047e 88E6     		b	.L18
 1365              	.LVL129:
 1366              	.L109:
 1367              	.LBB140:
 1368              	.LBB131:
 456:Drivers/lvgl/src/draw/sw/lv_draw_sw_transform.c ****                 abuf[x] = (a * (0xFF - xs_fract)) >> 8;
 1369              		.loc 1 456 68 view .LVU463
 1370 0480 0D99     		ldr	r1, [sp, #52]
 1371              	.LVL130:
 456:Drivers/lvgl/src/draw/sw/lv_draw_sw_transform.c ****                 abuf[x] = (a * (0xFF - xs_fract)) >> 8;
 1372              		.loc 1 456 68 view .LVU464
 1373 0482 0129     		cmp	r1, #1
 1374 0484 E4D1     		bne	.L68
 1375              	.L67:
 457:Drivers/lvgl/src/draw/sw/lv_draw_sw_transform.c ****             }
 1376              		.loc 1 457 17 is_stmt 1 view .LVU465
 457:Drivers/lvgl/src/draw/sw/lv_draw_sw_transform.c ****             }
 1377              		.loc 1 457 38 is_stmt 0 view .LVU466
 1378 0486 1599     		ldr	r1, [sp, #84]
 1379 0488 C1F1FF01 		rsb	r1, r1, #255
 457:Drivers/lvgl/src/draw/sw/lv_draw_sw_transform.c ****             }
 1380              		.loc 1 457 30 view .LVU467
 1381 048c 06FB01F1 		mul	r1, r6, r1
 457:Drivers/lvgl/src/draw/sw/lv_draw_sw_transform.c ****             }
 1382              		.loc 1 457 51 view .LVU468
 1383 0490 0912     		asrs	r1, r1, #8
 457:Drivers/lvgl/src/draw/sw/lv_draw_sw_transform.c ****             }
 1384              		.loc 1 457 25 view .LVU469
 1385 0492 1170     		strb	r1, [r2]
 1386              	.LVL131:
 457:Drivers/lvgl/src/draw/sw/lv_draw_sw_transform.c ****             }
 1387              		.loc 1 457 25 view .LVU470
 1388 0494 E5E7     		b	.L45
 1389              	.LVL132:
 1390              	.L40:
 457:Drivers/lvgl/src/draw/sw/lv_draw_sw_transform.c ****             }
 1391              		.loc 1 457 25 view .LVU471
 1392              	.LBE131:
 1393              	.LBE140:
 1394              	.LBB141:
 287:Drivers/lvgl/src/draw/sw/lv_draw_sw_transform.c ****                 px_size = sizeof(lv_color_t);
ARM GAS  /var/folders/0z/tsy30v1j4xl4_7kw94k978ww0000gn/T//cceCRR69.s 			page 44


 1395              		.loc 1 287 17 is_stmt 1 view .LVU472
 288:Drivers/lvgl/src/draw/sw/lv_draw_sw_transform.c ****                 lv_disp_t * d = _lv_refr_get_disp_refreshing();
 1396              		.loc 1 288 17 view .LVU473
 289:Drivers/lvgl/src/draw/sw/lv_draw_sw_transform.c ****                 ck = d->driver->color_chroma_key;
 1397              		.loc 1 289 17 view .LVU474
 289:Drivers/lvgl/src/draw/sw/lv_draw_sw_transform.c ****                 ck = d->driver->color_chroma_key;
 1398              		.loc 1 289 33 is_stmt 0 view .LVU475
 1399 0496 FFF7FEFF 		bl	_lv_refr_get_disp_refreshing
 1400              	.LVL133:
 290:Drivers/lvgl/src/draw/sw/lv_draw_sw_transform.c ****                 break;
 1401              		.loc 1 290 17 is_stmt 1 view .LVU476
 290:Drivers/lvgl/src/draw/sw/lv_draw_sw_transform.c ****                 break;
 1402              		.loc 1 290 20 is_stmt 0 view .LVU477
 1403 049a 0368     		ldr	r3, [r0]
 1404 049c 1B8F     		ldrh	r3, [r3, #56]
 1405 049e 66E7     		b	.L99
 1406              	.LVL134:
 1407              	.L46:
 290:Drivers/lvgl/src/draw/sw/lv_draw_sw_transform.c ****                 break;
 1408              		.loc 1 290 20 view .LVU478
 1409              	.LBE141:
 1410              	.LBB142:
 329:Drivers/lvgl/src/draw/sw/lv_draw_sw_transform.c ****             xs_fract = (xs_fract - 0x80) * 2;
 1411              		.loc 1 329 13 is_stmt 1 view .LVU479
 330:Drivers/lvgl/src/draw/sw/lv_draw_sw_transform.c ****         }
 1412              		.loc 1 330 13 view .LVU480
 330:Drivers/lvgl/src/draw/sw/lv_draw_sw_transform.c ****         }
 1413              		.loc 1 330 34 is_stmt 0 view .LVU481
 1414 04a0 803F     		subs	r7, r7, #128
 1415              	.LVL135:
 330:Drivers/lvgl/src/draw/sw/lv_draw_sw_transform.c ****         }
 1416              		.loc 1 330 22 view .LVU482
 1417 04a2 7D00     		lsls	r5, r7, #1
 1418 04a4 1595     		str	r5, [sp, #84]
 1419              	.LVL136:
 329:Drivers/lvgl/src/draw/sw/lv_draw_sw_transform.c ****             xs_fract = (xs_fract - 0x80) * 2;
 1420              		.loc 1 329 20 view .LVU483
 1421 04a6 0125     		movs	r5, #1
 1422              	.LVL137:
 329:Drivers/lvgl/src/draw/sw/lv_draw_sw_transform.c ****             xs_fract = (xs_fract - 0x80) * 2;
 1423              		.loc 1 329 20 view .LVU484
 1424 04a8 0D95     		str	r5, [sp, #52]
 1425              	.LVL138:
 332:Drivers/lvgl/src/draw/sw/lv_draw_sw_transform.c ****             y_next = -1;
 1426              		.loc 1 332 9 is_stmt 1 view .LVU485
 332:Drivers/lvgl/src/draw/sw/lv_draw_sw_transform.c ****             y_next = -1;
 1427              		.loc 1 332 11 is_stmt 0 view .LVU486
 1428 04aa 3506     		lsls	r5, r6, #24
 1429              	.LVL139:
 332:Drivers/lvgl/src/draw/sw/lv_draw_sw_transform.c ****             y_next = -1;
 1430              		.loc 1 332 11 view .LVU487
 1431 04ac 95D5     		bpl	.L111
 1432              	.LVL140:
 1433              	.L48:
 337:Drivers/lvgl/src/draw/sw/lv_draw_sw_transform.c ****             ys_fract = (ys_fract - 0x80) * 2;
 1434              		.loc 1 337 13 is_stmt 1 view .LVU488
 338:Drivers/lvgl/src/draw/sw/lv_draw_sw_transform.c ****         }
ARM GAS  /var/folders/0z/tsy30v1j4xl4_7kw94k978ww0000gn/T//cceCRR69.s 			page 45


 1435              		.loc 1 338 13 view .LVU489
 338:Drivers/lvgl/src/draw/sw/lv_draw_sw_transform.c ****         }
 1436              		.loc 1 338 34 is_stmt 0 view .LVU490
 1437 04ae A8F18008 		sub	r8, r8, #128
 1438              	.LVL141:
 338:Drivers/lvgl/src/draw/sw/lv_draw_sw_transform.c ****         }
 1439              		.loc 1 338 22 view .LVU491
 1440 04b2 4FEA4805 		lsl	r5, r8, #1
 1441 04b6 1695     		str	r5, [sp, #88]
 1442              	.LVL142:
 337:Drivers/lvgl/src/draw/sw/lv_draw_sw_transform.c ****             ys_fract = (ys_fract - 0x80) * 2;
 1443              		.loc 1 337 20 view .LVU492
 1444 04b8 0125     		movs	r5, #1
 1445              	.LVL143:
 337:Drivers/lvgl/src/draw/sw/lv_draw_sw_transform.c ****             ys_fract = (ys_fract - 0x80) * 2;
 1446              		.loc 1 337 20 view .LVU493
 1447 04ba 1295     		str	r5, [sp, #72]
 1448 04bc 95E7     		b	.L49
 1449              	.LVL144:
 1450              	.L103:
 337:Drivers/lvgl/src/draw/sw/lv_draw_sw_transform.c ****             ys_fract = (ys_fract - 0x80) * 2;
 1451              		.loc 1 337 20 view .LVU494
 1452              	.LBE142:
 1453              	.LBE146:
 1454              	.LBE173:
 1455              	.LBB174:
 1456              	.LBB164:
 1457 04be 079F     		ldr	r7, [sp, #28]
 1458 04c0 67E6     		b	.L18
 1459              	.LVL145:
 1460              	.L14:
 337:Drivers/lvgl/src/draw/sw/lv_draw_sw_transform.c ****             ys_fract = (ys_fract - 0x80) * 2;
 1461              		.loc 1 337 20 view .LVU495
 1462              	.LBE164:
 1463              	.LBE174:
 1464              	.LBE177:
 154:Drivers/lvgl/src/draw/sw/lv_draw_sw_transform.c **** 
 1465              		.loc 1 154 1 view .LVU496
 1466 04c2 33B0     		add	sp, sp, #204
 1467              		.cfi_remember_state
 1468              		.cfi_def_cfa_offset 36
 1469              		@ sp needed
 1470 04c4 BDE8F08F 		pop	{r4, r5, r6, r7, r8, r9, r10, fp, pc}
 1471              	.LVL146:
 1472              	.L63:
 1473              		.cfi_restore_state
 1474              	.LBB178:
 1475              	.LBB175:
 1476              	.LBB147:
 1477              	.LBB143:
 1478              	.LBB132:
 445:Drivers/lvgl/src/draw/sw/lv_draw_sw_transform.c ****                     break;
 1479              		.loc 1 445 21 is_stmt 1 view .LVU497
 445:Drivers/lvgl/src/draw/sw/lv_draw_sw_transform.c ****                     break;
 1480              		.loc 1 445 23 is_stmt 0 view .LVU498
 1481 04c8 1C9F     		ldr	r7, [sp, #112]
 1482 04ca BE1B     		subs	r6, r7, r6
ARM GAS  /var/folders/0z/tsy30v1j4xl4_7kw94k978ww0000gn/T//cceCRR69.s 			page 46


 1483 04cc 18BF     		it	ne
 1484 04ce 4FF0FF36 		movne	r6, #-1
 1485 04d2 F6B2     		uxtb	r6, r6
 1486 04d4 B6E7     		b	.L65
 1487              	.L108:
 442:Drivers/lvgl/src/draw/sw/lv_draw_sw_transform.c ****                     break;
 1488              		.loc 1 442 21 is_stmt 1 view .LVU499
 442:Drivers/lvgl/src/draw/sw/lv_draw_sw_transform.c ****                     break;
 1489              		.loc 1 442 23 is_stmt 0 view .LVU500
 1490 04d6 98F80260 		ldrb	r6, [r8, #2]	@ zero_extendqisi2
 1491              	.LVL147:
 443:Drivers/lvgl/src/draw/sw/lv_draw_sw_transform.c ****                 case LV_IMG_CF_TRUE_COLOR_CHROMA_KEYED:
 1492              		.loc 1 443 21 is_stmt 1 view .LVU501
 1493 04da B3E7     		b	.L65
 1494              	.LVL148:
 1495              	.L64:
 449:Drivers/lvgl/src/draw/sw/lv_draw_sw_transform.c ****                     break;
 1496              		.loc 1 449 21 view .LVU502
 449:Drivers/lvgl/src/draw/sw/lv_draw_sw_transform.c ****                     break;
 1497              		.loc 1 449 23 is_stmt 0 view .LVU503
 1498 04dc 0B9E     		ldr	r6, [sp, #44]
 1499 04de 179F     		ldr	r7, [sp, #92]
 1500 04e0 0E44     		add	r6, r6, r1
 1501 04e2 3E44     		add	r6, r6, r7
 1502 04e4 1B9F     		ldr	r7, [sp, #108]
 1503 04e6 F65D     		ldrb	r6, [r6, r7]	@ zero_extendqisi2
 1504              	.LVL149:
 450:Drivers/lvgl/src/draw/sw/lv_draw_sw_transform.c **** #endif
 1505              		.loc 1 450 21 is_stmt 1 view .LVU504
 1506 04e8 ACE7     		b	.L65
 1507              	.LVL150:
 1508              	.L110:
 459:Drivers/lvgl/src/draw/sw/lv_draw_sw_transform.c ****                 abuf[x] = (a * (0xFF - ys_fract)) >> 8;
 1509              		.loc 1 459 73 is_stmt 0 view .LVU505
 1510 04ea 1299     		ldr	r1, [sp, #72]
 1511 04ec 0129     		cmp	r1, #1
 1512 04ee B6D1     		bne	.L71
 1513              	.L70:
 460:Drivers/lvgl/src/draw/sw/lv_draw_sw_transform.c ****             }
 1514              		.loc 1 460 17 is_stmt 1 view .LVU506
 460:Drivers/lvgl/src/draw/sw/lv_draw_sw_transform.c ****             }
 1515              		.loc 1 460 38 is_stmt 0 view .LVU507
 1516 04f0 1699     		ldr	r1, [sp, #88]
 1517 04f2 C1F1FF01 		rsb	r1, r1, #255
 460:Drivers/lvgl/src/draw/sw/lv_draw_sw_transform.c ****             }
 1518              		.loc 1 460 30 view .LVU508
 1519 04f6 06FB01F1 		mul	r1, r6, r1
 460:Drivers/lvgl/src/draw/sw/lv_draw_sw_transform.c ****             }
 1520              		.loc 1 460 51 view .LVU509
 1521 04fa 0912     		asrs	r1, r1, #8
 460:Drivers/lvgl/src/draw/sw/lv_draw_sw_transform.c ****             }
 1522              		.loc 1 460 25 view .LVU510
 1523 04fc 1170     		strb	r1, [r2]
 1524              	.LVL151:
 460:Drivers/lvgl/src/draw/sw/lv_draw_sw_transform.c ****             }
 1525              		.loc 1 460 25 view .LVU511
 1526 04fe B0E7     		b	.L45
ARM GAS  /var/folders/0z/tsy30v1j4xl4_7kw94k978ww0000gn/T//cceCRR69.s 			page 47


 1527              	.LVL152:
 1528              	.L107:
 460:Drivers/lvgl/src/draw/sw/lv_draw_sw_transform.c ****             }
 1529              		.loc 1 460 25 view .LVU512
 1530              	.LBE132:
 1531              	.LBB133:
 350:Drivers/lvgl/src/draw/sw/lv_draw_sw_transform.c ****             const uint8_t * px_hor = src_tmp + x_next * px_size;
 1532              		.loc 1 350 13 is_stmt 1 view .LVU513
 351:Drivers/lvgl/src/draw/sw/lv_draw_sw_transform.c ****             const uint8_t * px_ver = src_tmp + y_next * src_stride * px_size;
 1533              		.loc 1 351 13 view .LVU514
 352:Drivers/lvgl/src/draw/sw/lv_draw_sw_transform.c ****             lv_color_t c_base;
 1534              		.loc 1 352 55 is_stmt 0 view .LVU515
 1535 0500 1298     		ldr	r0, [sp, #72]
 1536 0502 0C9D     		ldr	r5, [sp, #48]
 352:Drivers/lvgl/src/draw/sw/lv_draw_sw_transform.c ****             lv_color_t c_base;
 1537              		.loc 1 352 68 view .LVU516
 1538 0504 149F     		ldr	r7, [sp, #80]
 352:Drivers/lvgl/src/draw/sw/lv_draw_sw_transform.c ****             lv_color_t c_base;
 1539              		.loc 1 352 55 view .LVU517
 1540 0506 05FB00F0 		mul	r0, r5, r0
 352:Drivers/lvgl/src/draw/sw/lv_draw_sw_transform.c ****             lv_color_t c_base;
 1541              		.loc 1 352 68 view .LVU518
 1542 050a 07FB00F5 		mul	r5, r7, r0
 351:Drivers/lvgl/src/draw/sw/lv_draw_sw_transform.c ****             const uint8_t * px_ver = src_tmp + y_next * src_stride * px_size;
 1543              		.loc 1 351 55 view .LVU519
 1544 050e 0D98     		ldr	r0, [sp, #52]
 1545 0510 00FB07F0 		mul	r0, r0, r7
 351:Drivers/lvgl/src/draw/sw/lv_draw_sw_transform.c ****             const uint8_t * px_ver = src_tmp + y_next * src_stride * px_size;
 1546              		.loc 1 351 29 view .LVU520
 1547 0514 08EB0006 		add	r6, r8, r0
 1548 0518 1796     		str	r6, [sp, #92]
 1549              	.LVL153:
 352:Drivers/lvgl/src/draw/sw/lv_draw_sw_transform.c ****             lv_color_t c_base;
 1550              		.loc 1 352 13 is_stmt 1 view .LVU521
 352:Drivers/lvgl/src/draw/sw/lv_draw_sw_transform.c ****             lv_color_t c_base;
 1551              		.loc 1 352 29 is_stmt 0 view .LVU522
 1552 051a 08EB0506 		add	r6, r8, r5
 1553              	.LVL154:
 352:Drivers/lvgl/src/draw/sw/lv_draw_sw_transform.c ****             lv_color_t c_base;
 1554              		.loc 1 352 29 view .LVU523
 1555 051e 2096     		str	r6, [sp, #128]
 1556              	.LVL155:
 353:Drivers/lvgl/src/draw/sw/lv_draw_sw_transform.c ****             lv_color_t c_ver;
 1557              		.loc 1 353 13 is_stmt 1 view .LVU524
 354:Drivers/lvgl/src/draw/sw/lv_draw_sw_transform.c ****             lv_color_t c_hor;
 1558              		.loc 1 354 13 view .LVU525
 355:Drivers/lvgl/src/draw/sw/lv_draw_sw_transform.c **** 
 1559              		.loc 1 355 13 view .LVU526
 357:Drivers/lvgl/src/draw/sw/lv_draw_sw_transform.c ****                 lv_opa_t a_base;
 1560              		.loc 1 357 13 view .LVU527
 357:Drivers/lvgl/src/draw/sw/lv_draw_sw_transform.c ****                 lv_opa_t a_base;
 1561              		.loc 1 357 15 is_stmt 0 view .LVU528
 1562 0520 1D9E     		ldr	r6, [sp, #116]
 1563              	.LVL156:
 351:Drivers/lvgl/src/draw/sw/lv_draw_sw_transform.c ****             const uint8_t * px_ver = src_tmp + y_next * src_stride * px_size;
 1564              		.loc 1 351 55 view .LVU529
 1565 0522 1290     		str	r0, [sp, #72]
ARM GAS  /var/folders/0z/tsy30v1j4xl4_7kw94k978ww0000gn/T//cceCRR69.s 			page 48


 1566              	.LVL157:
 357:Drivers/lvgl/src/draw/sw/lv_draw_sw_transform.c ****                 lv_opa_t a_base;
 1567              		.loc 1 357 15 view .LVU530
 1568 0524 002E     		cmp	r6, #0
 1569 0526 31D0     		beq	.L51
 1570              	.LBB65:
 358:Drivers/lvgl/src/draw/sw/lv_draw_sw_transform.c ****                 lv_opa_t a_ver;
 1571              		.loc 1 358 17 is_stmt 1 view .LVU531
 359:Drivers/lvgl/src/draw/sw/lv_draw_sw_transform.c ****                 lv_opa_t a_hor;
 1572              		.loc 1 359 17 view .LVU532
 360:Drivers/lvgl/src/draw/sw/lv_draw_sw_transform.c ****                 if(cf == LV_IMG_CF_TRUE_COLOR_ALPHA) {
 1573              		.loc 1 360 17 view .LVU533
 361:Drivers/lvgl/src/draw/sw/lv_draw_sw_transform.c ****                     a_base = px_base[LV_IMG_PX_SIZE_ALPHA_BYTE - 1];
 1574              		.loc 1 361 17 view .LVU534
 361:Drivers/lvgl/src/draw/sw/lv_draw_sw_transform.c ****                     a_base = px_base[LV_IMG_PX_SIZE_ALPHA_BYTE - 1];
 1575              		.loc 1 361 19 is_stmt 0 view .LVU535
 1576 0528 139E     		ldr	r6, [sp, #76]
 1577 052a 052E     		cmp	r6, #5
 1578 052c 00F0B080 		beq	.L112
 367:Drivers/lvgl/src/draw/sw/lv_draw_sw_transform.c ****                     const lv_opa_t * a_tmp = src + src_stride * src_h * sizeof(lv_color_t);
 1579              		.loc 1 367 22 is_stmt 1 view .LVU536
 367:Drivers/lvgl/src/draw/sw/lv_draw_sw_transform.c ****                     const lv_opa_t * a_tmp = src + src_stride * src_h * sizeof(lv_color_t);
 1580              		.loc 1 367 24 is_stmt 0 view .LVU537
 1581 0530 139E     		ldr	r6, [sp, #76]
 1582 0532 142E     		cmp	r6, #20
 1583 0534 00F0DD80 		beq	.L113
 374:Drivers/lvgl/src/draw/sw/lv_draw_sw_transform.c ****                     if(((lv_color_t *)px_base)->full == ck.full ||
 1584              		.loc 1 374 22 is_stmt 1 view .LVU538
 374:Drivers/lvgl/src/draw/sw/lv_draw_sw_transform.c ****                     if(((lv_color_t *)px_base)->full == ck.full ||
 1585              		.loc 1 374 24 is_stmt 0 view .LVU539
 1586 0538 1399     		ldr	r1, [sp, #76]
 1587              	.LVL158:
 374:Drivers/lvgl/src/draw/sw/lv_draw_sw_transform.c ****                     if(((lv_color_t *)px_base)->full == ck.full ||
 1588              		.loc 1 374 24 view .LVU540
 1589 053a 0629     		cmp	r1, #6
 1590 053c 00F0EA80 		beq	.L55
 1591              	.L101:
 395:Drivers/lvgl/src/draw/sw/lv_draw_sw_transform.c **** 
 1592              		.loc 1 395 17 is_stmt 1 view .LVU541
 395:Drivers/lvgl/src/draw/sw/lv_draw_sw_transform.c **** 
 1593              		.loc 1 395 25 is_stmt 0 view .LVU542
 1594 0540 4FF0FF31 		mov	r1, #-1
 1595 0544 1170     		strb	r1, [r2]
 1596              	.LVL159:
 397:Drivers/lvgl/src/draw/sw/lv_draw_sw_transform.c **** 
 1597              		.loc 1 397 17 is_stmt 1 view .LVU543
 1598              	.L56:
 404:Drivers/lvgl/src/draw/sw/lv_draw_sw_transform.c ****                 c_ver.full = px_ver[0] + (px_ver[1] << 8);
 1599              		.loc 1 404 17 view .LVU544
 404:Drivers/lvgl/src/draw/sw/lv_draw_sw_transform.c ****                 c_ver.full = px_ver[0] + (px_ver[1] << 8);
 1600              		.loc 1 404 38 is_stmt 0 view .LVU545
 1601 0546 0B99     		ldr	r1, [sp, #44]
 1602 0548 1198     		ldr	r0, [sp, #68]
 1603 054a 0E5C     		ldrb	r6, [r1, r0]	@ zero_extendqisi2
 405:Drivers/lvgl/src/draw/sw/lv_draw_sw_transform.c ****                 c_hor.full = px_hor[0] + (px_hor[1] << 8);
 1604              		.loc 1 405 49 view .LVU546
 1605 054c 2099     		ldr	r1, [sp, #128]
ARM GAS  /var/folders/0z/tsy30v1j4xl4_7kw94k978ww0000gn/T//cceCRR69.s 			page 49


 406:Drivers/lvgl/src/draw/sw/lv_draw_sw_transform.c **** #elif LV_COLOR_DEPTH == 32
 1606              		.loc 1 406 36 view .LVU547
 1607 054e 1298     		ldr	r0, [sp, #72]
 405:Drivers/lvgl/src/draw/sw/lv_draw_sw_transform.c ****                 c_hor.full = px_hor[0] + (px_hor[1] << 8);
 1608              		.loc 1 405 49 view .LVU548
 1609 0550 4F78     		ldrb	r7, [r1, #1]	@ zero_extendqisi2
 405:Drivers/lvgl/src/draw/sw/lv_draw_sw_transform.c ****                 c_hor.full = px_hor[0] + (px_hor[1] << 8);
 1610              		.loc 1 405 36 view .LVU549
 1611 0552 18F80510 		ldrb	r1, [r8, r5]	@ zero_extendqisi2
 406:Drivers/lvgl/src/draw/sw/lv_draw_sw_transform.c **** #elif LV_COLOR_DEPTH == 32
 1612              		.loc 1 406 36 view .LVU550
 1613 0556 18F80000 		ldrb	r0, [r8, r0]	@ zero_extendqisi2
 405:Drivers/lvgl/src/draw/sw/lv_draw_sw_transform.c ****                 c_hor.full = px_hor[0] + (px_hor[1] << 8);
 1614              		.loc 1 405 40 view .LVU551
 1615 055a 01EB0725 		add	r5, r1, r7, lsl #8
 1616              	.LVL160:
 406:Drivers/lvgl/src/draw/sw/lv_draw_sw_transform.c **** #elif LV_COLOR_DEPTH == 32
 1617              		.loc 1 406 49 view .LVU552
 1618 055e 1799     		ldr	r1, [sp, #92]
 1619 0560 4978     		ldrb	r1, [r1, #1]	@ zero_extendqisi2
 406:Drivers/lvgl/src/draw/sw/lv_draw_sw_transform.c **** #elif LV_COLOR_DEPTH == 32
 1620              		.loc 1 406 40 view .LVU553
 1621 0562 00EB0120 		add	r0, r0, r1, lsl #8
 404:Drivers/lvgl/src/draw/sw/lv_draw_sw_transform.c ****                 c_ver.full = px_ver[0] + (px_ver[1] << 8);
 1622              		.loc 1 404 52 view .LVU554
 1623 0566 98F80110 		ldrb	r1, [r8, #1]	@ zero_extendqisi2
 404:Drivers/lvgl/src/draw/sw/lv_draw_sw_transform.c ****                 c_ver.full = px_ver[0] + (px_ver[1] << 8);
 1624              		.loc 1 404 42 view .LVU555
 1625 056a 06EB0121 		add	r1, r6, r1, lsl #8
 1626 056e 89B2     		uxth	r1, r1
 1627              	.LVL161:
 405:Drivers/lvgl/src/draw/sw/lv_draw_sw_transform.c ****                 c_hor.full = px_hor[0] + (px_hor[1] << 8);
 1628              		.loc 1 405 17 is_stmt 1 view .LVU556
 405:Drivers/lvgl/src/draw/sw/lv_draw_sw_transform.c ****                 c_hor.full = px_hor[0] + (px_hor[1] << 8);
 1629              		.loc 1 405 40 is_stmt 0 view .LVU557
 1630 0570 ADB2     		uxth	r5, r5
 1631              	.LVL162:
 406:Drivers/lvgl/src/draw/sw/lv_draw_sw_transform.c **** #elif LV_COLOR_DEPTH == 32
 1632              		.loc 1 406 17 is_stmt 1 view .LVU558
 1633              	.LBE65:
 421:Drivers/lvgl/src/draw/sw/lv_draw_sw_transform.c ****                 cbuf[x] = c_base;
 1634              		.loc 1 421 15 is_stmt 0 view .LVU559
 1635 0572 8D42     		cmp	r5, r1
 1636              	.LBB66:
 406:Drivers/lvgl/src/draw/sw/lv_draw_sw_transform.c **** #elif LV_COLOR_DEPTH == 32
 1637              		.loc 1 406 40 view .LVU560
 1638 0574 80B2     		uxth	r0, r0
 1639              	.LVL163:
 406:Drivers/lvgl/src/draw/sw/lv_draw_sw_transform.c **** #elif LV_COLOR_DEPTH == 32
 1640              		.loc 1 406 40 view .LVU561
 1641              	.LBE66:
 421:Drivers/lvgl/src/draw/sw/lv_draw_sw_transform.c ****                 cbuf[x] = c_base;
 1642              		.loc 1 421 13 is_stmt 1 view .LVU562
 421:Drivers/lvgl/src/draw/sw/lv_draw_sw_transform.c ****                 cbuf[x] = c_base;
 1643              		.loc 1 421 15 is_stmt 0 view .LVU563
 1644 0576 16D1     		bne	.L62
 1645              	.LVL164:
ARM GAS  /var/folders/0z/tsy30v1j4xl4_7kw94k978ww0000gn/T//cceCRR69.s 			page 50


 1646              	.L114:
 421:Drivers/lvgl/src/draw/sw/lv_draw_sw_transform.c ****                 cbuf[x] = c_base;
 1647              		.loc 1 421 42 view .LVU564
 1648 0578 8542     		cmp	r5, r0
 1649 057a 14D1     		bne	.L62
 422:Drivers/lvgl/src/draw/sw/lv_draw_sw_transform.c ****             }
 1650              		.loc 1 422 17 is_stmt 1 view .LVU565
 422:Drivers/lvgl/src/draw/sw/lv_draw_sw_transform.c ****             }
 1651              		.loc 1 422 25 is_stmt 0 view .LVU566
 1652 057c 2580     		strh	r5, [r4]	@ movhi
 1653 057e 70E7     		b	.L45
 1654              	.LVL165:
 1655              	.L75:
 422:Drivers/lvgl/src/draw/sw/lv_draw_sw_transform.c ****             }
 1656              		.loc 1 422 25 view .LVU567
 1657              	.LBE133:
 1658              	.LBE143:
 277:Drivers/lvgl/src/draw/sw/lv_draw_sw_transform.c ****         case LV_IMG_CF_TRUE_COLOR:
 1659              		.loc 1 277 5 view .LVU568
 1660 0580 0023     		movs	r3, #0
 1661 0582 0222     		movs	r2, #2
 1662 0584 1C93     		str	r3, [sp, #112]
 1663 0586 1492     		str	r2, [sp, #80]
 1664 0588 1D93     		str	r3, [sp, #116]
 1665 058a F5E6     		b	.L42
 1666              	.LVL166:
 1667              	.L51:
 1668              	.LBB144:
 1669              	.LBB134:
 415:Drivers/lvgl/src/draw/sw/lv_draw_sw_transform.c ****                 c_hor = *((const lv_color_t *) px_hor);
 1670              		.loc 1 415 17 is_stmt 1 view .LVU569
 415:Drivers/lvgl/src/draw/sw/lv_draw_sw_transform.c ****                 c_hor = *((const lv_color_t *) px_hor);
 1671              		.loc 1 415 24 is_stmt 0 view .LVU570
 1672 058c 1198     		ldr	r0, [sp, #68]
 1673 058e 0B99     		ldr	r1, [sp, #44]
 1674              	.LVL167:
 417:Drivers/lvgl/src/draw/sw/lv_draw_sw_transform.c ****                 abuf[x] = 0xff;
 1675              		.loc 1 417 23 view .LVU571
 1676 0590 38F80550 		ldrh	r5, [r8, r5]
 415:Drivers/lvgl/src/draw/sw/lv_draw_sw_transform.c ****                 c_hor = *((const lv_color_t *) px_hor);
 1677              		.loc 1 415 24 view .LVU572
 1678 0594 095A     		ldrh	r1, [r1, r0]
 1679              	.LVL168:
 416:Drivers/lvgl/src/draw/sw/lv_draw_sw_transform.c ****                 c_ver = *((const lv_color_t *) px_ver);
 1680              		.loc 1 416 17 is_stmt 1 view .LVU573
 416:Drivers/lvgl/src/draw/sw/lv_draw_sw_transform.c ****                 c_ver = *((const lv_color_t *) px_ver);
 1681              		.loc 1 416 23 is_stmt 0 view .LVU574
 1682 0596 1298     		ldr	r0, [sp, #72]
 418:Drivers/lvgl/src/draw/sw/lv_draw_sw_transform.c ****             }
 1683              		.loc 1 418 25 view .LVU575
 1684 0598 4FF0FF36 		mov	r6, #-1
 421:Drivers/lvgl/src/draw/sw/lv_draw_sw_transform.c ****                 cbuf[x] = c_base;
 1685              		.loc 1 421 15 view .LVU576
 1686 059c 8D42     		cmp	r5, r1
 416:Drivers/lvgl/src/draw/sw/lv_draw_sw_transform.c ****                 c_ver = *((const lv_color_t *) px_ver);
 1687              		.loc 1 416 23 view .LVU577
 1688 059e 38F80000 		ldrh	r0, [r8, r0]
ARM GAS  /var/folders/0z/tsy30v1j4xl4_7kw94k978ww0000gn/T//cceCRR69.s 			page 51


 1689              	.LVL169:
 417:Drivers/lvgl/src/draw/sw/lv_draw_sw_transform.c ****                 abuf[x] = 0xff;
 1690              		.loc 1 417 17 is_stmt 1 view .LVU578
 418:Drivers/lvgl/src/draw/sw/lv_draw_sw_transform.c ****             }
 1691              		.loc 1 418 17 view .LVU579
 418:Drivers/lvgl/src/draw/sw/lv_draw_sw_transform.c ****             }
 1692              		.loc 1 418 25 is_stmt 0 view .LVU580
 1693 05a2 1670     		strb	r6, [r2]
 421:Drivers/lvgl/src/draw/sw/lv_draw_sw_transform.c ****                 cbuf[x] = c_base;
 1694              		.loc 1 421 13 is_stmt 1 view .LVU581
 421:Drivers/lvgl/src/draw/sw/lv_draw_sw_transform.c ****                 cbuf[x] = c_base;
 1695              		.loc 1 421 15 is_stmt 0 view .LVU582
 1696 05a4 E8D0     		beq	.L114
 1697              	.LVL170:
 1698              	.L62:
 425:Drivers/lvgl/src/draw/sw/lv_draw_sw_transform.c ****                 c_hor = lv_color_mix(c_hor, c_base, xs_fract);
 1699              		.loc 1 425 17 is_stmt 1 view .LVU583
 1700              	.LBB67:
 1701              	.LBI67:
 1702              		.file 3 "Drivers/lvgl/src/draw/sw/../../misc/lv_color.h"
   1:Drivers/lvgl/src/draw/sw/../../misc/lv_color.h **** /**
   2:Drivers/lvgl/src/draw/sw/../../misc/lv_color.h ****  * @file lv_color.h
   3:Drivers/lvgl/src/draw/sw/../../misc/lv_color.h ****  *
   4:Drivers/lvgl/src/draw/sw/../../misc/lv_color.h ****  */
   5:Drivers/lvgl/src/draw/sw/../../misc/lv_color.h **** 
   6:Drivers/lvgl/src/draw/sw/../../misc/lv_color.h **** #ifndef LV_COLOR_H
   7:Drivers/lvgl/src/draw/sw/../../misc/lv_color.h **** #define LV_COLOR_H
   8:Drivers/lvgl/src/draw/sw/../../misc/lv_color.h **** 
   9:Drivers/lvgl/src/draw/sw/../../misc/lv_color.h **** #ifdef __cplusplus
  10:Drivers/lvgl/src/draw/sw/../../misc/lv_color.h **** extern "C" {
  11:Drivers/lvgl/src/draw/sw/../../misc/lv_color.h **** #endif
  12:Drivers/lvgl/src/draw/sw/../../misc/lv_color.h **** 
  13:Drivers/lvgl/src/draw/sw/../../misc/lv_color.h **** /*********************
  14:Drivers/lvgl/src/draw/sw/../../misc/lv_color.h ****  *      INCLUDES
  15:Drivers/lvgl/src/draw/sw/../../misc/lv_color.h ****  *********************/
  16:Drivers/lvgl/src/draw/sw/../../misc/lv_color.h **** #include "../lv_conf_internal.h"
  17:Drivers/lvgl/src/draw/sw/../../misc/lv_color.h **** #include "lv_assert.h"
  18:Drivers/lvgl/src/draw/sw/../../misc/lv_color.h **** #include "lv_math.h"
  19:Drivers/lvgl/src/draw/sw/../../misc/lv_color.h **** #include "lv_types.h"
  20:Drivers/lvgl/src/draw/sw/../../misc/lv_color.h **** 
  21:Drivers/lvgl/src/draw/sw/../../misc/lv_color.h **** /*Error checking*/
  22:Drivers/lvgl/src/draw/sw/../../misc/lv_color.h **** #if LV_COLOR_DEPTH == 24
  23:Drivers/lvgl/src/draw/sw/../../misc/lv_color.h **** #error "LV_COLOR_DEPTH 24 is deprecated. Use LV_COLOR_DEPTH 32 instead (lv_conf.h)"
  24:Drivers/lvgl/src/draw/sw/../../misc/lv_color.h **** #endif
  25:Drivers/lvgl/src/draw/sw/../../misc/lv_color.h **** 
  26:Drivers/lvgl/src/draw/sw/../../misc/lv_color.h **** #if LV_COLOR_DEPTH != 16 && LV_COLOR_16_SWAP != 0
  27:Drivers/lvgl/src/draw/sw/../../misc/lv_color.h **** #error "LV_COLOR_16_SWAP requires LV_COLOR_DEPTH == 16. Set it in lv_conf.h"
  28:Drivers/lvgl/src/draw/sw/../../misc/lv_color.h **** #endif
  29:Drivers/lvgl/src/draw/sw/../../misc/lv_color.h **** 
  30:Drivers/lvgl/src/draw/sw/../../misc/lv_color.h **** #include <stdint.h>
  31:Drivers/lvgl/src/draw/sw/../../misc/lv_color.h **** 
  32:Drivers/lvgl/src/draw/sw/../../misc/lv_color.h **** /*********************
  33:Drivers/lvgl/src/draw/sw/../../misc/lv_color.h ****  *      DEFINES
  34:Drivers/lvgl/src/draw/sw/../../misc/lv_color.h ****  *********************/
  35:Drivers/lvgl/src/draw/sw/../../misc/lv_color.h **** LV_EXPORT_CONST_INT(LV_COLOR_DEPTH);
  36:Drivers/lvgl/src/draw/sw/../../misc/lv_color.h **** LV_EXPORT_CONST_INT(LV_COLOR_16_SWAP);
  37:Drivers/lvgl/src/draw/sw/../../misc/lv_color.h **** 
ARM GAS  /var/folders/0z/tsy30v1j4xl4_7kw94k978ww0000gn/T//cceCRR69.s 			page 52


  38:Drivers/lvgl/src/draw/sw/../../misc/lv_color.h **** /**
  39:Drivers/lvgl/src/draw/sw/../../misc/lv_color.h ****  * Opacity percentages.
  40:Drivers/lvgl/src/draw/sw/../../misc/lv_color.h ****  */
  41:Drivers/lvgl/src/draw/sw/../../misc/lv_color.h **** enum {
  42:Drivers/lvgl/src/draw/sw/../../misc/lv_color.h ****     LV_OPA_TRANSP = 0,
  43:Drivers/lvgl/src/draw/sw/../../misc/lv_color.h ****     LV_OPA_0      = 0,
  44:Drivers/lvgl/src/draw/sw/../../misc/lv_color.h ****     LV_OPA_10     = 25,
  45:Drivers/lvgl/src/draw/sw/../../misc/lv_color.h ****     LV_OPA_20     = 51,
  46:Drivers/lvgl/src/draw/sw/../../misc/lv_color.h ****     LV_OPA_30     = 76,
  47:Drivers/lvgl/src/draw/sw/../../misc/lv_color.h ****     LV_OPA_40     = 102,
  48:Drivers/lvgl/src/draw/sw/../../misc/lv_color.h ****     LV_OPA_50     = 127,
  49:Drivers/lvgl/src/draw/sw/../../misc/lv_color.h ****     LV_OPA_60     = 153,
  50:Drivers/lvgl/src/draw/sw/../../misc/lv_color.h ****     LV_OPA_70     = 178,
  51:Drivers/lvgl/src/draw/sw/../../misc/lv_color.h ****     LV_OPA_80     = 204,
  52:Drivers/lvgl/src/draw/sw/../../misc/lv_color.h ****     LV_OPA_90     = 229,
  53:Drivers/lvgl/src/draw/sw/../../misc/lv_color.h ****     LV_OPA_100    = 255,
  54:Drivers/lvgl/src/draw/sw/../../misc/lv_color.h ****     LV_OPA_COVER  = 255,
  55:Drivers/lvgl/src/draw/sw/../../misc/lv_color.h **** };
  56:Drivers/lvgl/src/draw/sw/../../misc/lv_color.h **** 
  57:Drivers/lvgl/src/draw/sw/../../misc/lv_color.h **** #define LV_OPA_MIN 2    /*Opacities below this will be transparent*/
  58:Drivers/lvgl/src/draw/sw/../../misc/lv_color.h **** #define LV_OPA_MAX 253  /*Opacities above this will fully cover*/
  59:Drivers/lvgl/src/draw/sw/../../misc/lv_color.h **** 
  60:Drivers/lvgl/src/draw/sw/../../misc/lv_color.h **** #if LV_COLOR_DEPTH == 1
  61:Drivers/lvgl/src/draw/sw/../../misc/lv_color.h **** #define LV_COLOR_SIZE 8
  62:Drivers/lvgl/src/draw/sw/../../misc/lv_color.h **** #elif LV_COLOR_DEPTH == 8
  63:Drivers/lvgl/src/draw/sw/../../misc/lv_color.h **** #define LV_COLOR_SIZE 8
  64:Drivers/lvgl/src/draw/sw/../../misc/lv_color.h **** #elif LV_COLOR_DEPTH == 16
  65:Drivers/lvgl/src/draw/sw/../../misc/lv_color.h **** #define LV_COLOR_SIZE 16
  66:Drivers/lvgl/src/draw/sw/../../misc/lv_color.h **** #elif LV_COLOR_DEPTH == 32
  67:Drivers/lvgl/src/draw/sw/../../misc/lv_color.h **** #define LV_COLOR_SIZE 32
  68:Drivers/lvgl/src/draw/sw/../../misc/lv_color.h **** #else
  69:Drivers/lvgl/src/draw/sw/../../misc/lv_color.h **** #error "Invalid LV_COLOR_DEPTH in lv_conf.h! Set it to 1, 8, 16 or 32!"
  70:Drivers/lvgl/src/draw/sw/../../misc/lv_color.h **** #endif
  71:Drivers/lvgl/src/draw/sw/../../misc/lv_color.h **** 
  72:Drivers/lvgl/src/draw/sw/../../misc/lv_color.h **** #if defined(__cplusplus) && !defined(_LV_COLOR_HAS_MODERN_CPP)
  73:Drivers/lvgl/src/draw/sw/../../misc/lv_color.h **** /**
  74:Drivers/lvgl/src/draw/sw/../../misc/lv_color.h **** * MSVC compiler's definition of the __cplusplus indicating 199711L regardless to C++ standard versi
  75:Drivers/lvgl/src/draw/sw/../../misc/lv_color.h **** * see https://devblogs.microsoft.com/cppblog/msvc-now-correctly-reports-cplusplus
  76:Drivers/lvgl/src/draw/sw/../../misc/lv_color.h **** * so we use _MSC_VER macro instead of __cplusplus
  77:Drivers/lvgl/src/draw/sw/../../misc/lv_color.h **** */
  78:Drivers/lvgl/src/draw/sw/../../misc/lv_color.h **** #ifdef _MSC_VER
  79:Drivers/lvgl/src/draw/sw/../../misc/lv_color.h **** #if _MSC_VER >= 1900 /*Visual Studio 2015*/
  80:Drivers/lvgl/src/draw/sw/../../misc/lv_color.h **** #define _LV_COLOR_HAS_MODERN_CPP 1
  81:Drivers/lvgl/src/draw/sw/../../misc/lv_color.h **** #endif
  82:Drivers/lvgl/src/draw/sw/../../misc/lv_color.h **** #else
  83:Drivers/lvgl/src/draw/sw/../../misc/lv_color.h **** #if __cplusplus >= 201103L
  84:Drivers/lvgl/src/draw/sw/../../misc/lv_color.h **** #define _LV_COLOR_HAS_MODERN_CPP 1
  85:Drivers/lvgl/src/draw/sw/../../misc/lv_color.h **** #endif
  86:Drivers/lvgl/src/draw/sw/../../misc/lv_color.h **** #endif
  87:Drivers/lvgl/src/draw/sw/../../misc/lv_color.h **** #endif /*__cplusplus*/
  88:Drivers/lvgl/src/draw/sw/../../misc/lv_color.h **** 
  89:Drivers/lvgl/src/draw/sw/../../misc/lv_color.h **** #ifndef _LV_COLOR_HAS_MODERN_CPP
  90:Drivers/lvgl/src/draw/sw/../../misc/lv_color.h **** #define _LV_COLOR_HAS_MODERN_CPP 0
  91:Drivers/lvgl/src/draw/sw/../../misc/lv_color.h **** #endif
  92:Drivers/lvgl/src/draw/sw/../../misc/lv_color.h **** 
  93:Drivers/lvgl/src/draw/sw/../../misc/lv_color.h **** #if _LV_COLOR_HAS_MODERN_CPP
  94:Drivers/lvgl/src/draw/sw/../../misc/lv_color.h **** /*Fix msvc compiler error C4576 inside C++ code*/
ARM GAS  /var/folders/0z/tsy30v1j4xl4_7kw94k978ww0000gn/T//cceCRR69.s 			page 53


  95:Drivers/lvgl/src/draw/sw/../../misc/lv_color.h **** #define _LV_COLOR_MAKE_TYPE_HELPER lv_color_t
  96:Drivers/lvgl/src/draw/sw/../../misc/lv_color.h **** #else
  97:Drivers/lvgl/src/draw/sw/../../misc/lv_color.h **** #define _LV_COLOR_MAKE_TYPE_HELPER (lv_color_t)
  98:Drivers/lvgl/src/draw/sw/../../misc/lv_color.h **** #endif
  99:Drivers/lvgl/src/draw/sw/../../misc/lv_color.h **** 
 100:Drivers/lvgl/src/draw/sw/../../misc/lv_color.h **** /*---------------------------------------
 101:Drivers/lvgl/src/draw/sw/../../misc/lv_color.h ****  * Macros for all existing color depths
 102:Drivers/lvgl/src/draw/sw/../../misc/lv_color.h ****  * to set/get values of the color channels
 103:Drivers/lvgl/src/draw/sw/../../misc/lv_color.h ****  *------------------------------------------*/
 104:Drivers/lvgl/src/draw/sw/../../misc/lv_color.h **** # define LV_COLOR_SET_R1(c, v) (c).ch.red = (uint8_t)((v) & 0x1)
 105:Drivers/lvgl/src/draw/sw/../../misc/lv_color.h **** # define LV_COLOR_SET_G1(c, v) (c).ch.green = (uint8_t)((v) & 0x1)
 106:Drivers/lvgl/src/draw/sw/../../misc/lv_color.h **** # define LV_COLOR_SET_B1(c, v) (c).ch.blue = (uint8_t)((v) & 0x1)
 107:Drivers/lvgl/src/draw/sw/../../misc/lv_color.h **** # define LV_COLOR_SET_A1(c, v) do {} while(0)
 108:Drivers/lvgl/src/draw/sw/../../misc/lv_color.h **** 
 109:Drivers/lvgl/src/draw/sw/../../misc/lv_color.h **** # define LV_COLOR_GET_R1(c) (c).ch.red
 110:Drivers/lvgl/src/draw/sw/../../misc/lv_color.h **** # define LV_COLOR_GET_G1(c) (c).ch.green
 111:Drivers/lvgl/src/draw/sw/../../misc/lv_color.h **** # define LV_COLOR_GET_B1(c) (c).ch.blue
 112:Drivers/lvgl/src/draw/sw/../../misc/lv_color.h **** # define LV_COLOR_GET_A1(c) 0xFF
 113:Drivers/lvgl/src/draw/sw/../../misc/lv_color.h **** 
 114:Drivers/lvgl/src/draw/sw/../../misc/lv_color.h **** # define _LV_COLOR_ZERO_INITIALIZER1 {0x00}
 115:Drivers/lvgl/src/draw/sw/../../misc/lv_color.h **** # define LV_COLOR_MAKE1(r8, g8, b8)  {(uint8_t)((b8 >> 7) | (g8 >> 7) | (r8 >> 7))}
 116:Drivers/lvgl/src/draw/sw/../../misc/lv_color.h **** 
 117:Drivers/lvgl/src/draw/sw/../../misc/lv_color.h **** # define LV_COLOR_SET_R8(c, v) (c).ch.red = (uint8_t)((v) & 0x7U)
 118:Drivers/lvgl/src/draw/sw/../../misc/lv_color.h **** # define LV_COLOR_SET_G8(c, v) (c).ch.green = (uint8_t)((v) & 0x7U)
 119:Drivers/lvgl/src/draw/sw/../../misc/lv_color.h **** # define LV_COLOR_SET_B8(c, v) (c).ch.blue = (uint8_t)((v) & 0x3U)
 120:Drivers/lvgl/src/draw/sw/../../misc/lv_color.h **** # define LV_COLOR_SET_A8(c, v) do {} while(0)
 121:Drivers/lvgl/src/draw/sw/../../misc/lv_color.h **** 
 122:Drivers/lvgl/src/draw/sw/../../misc/lv_color.h **** # define LV_COLOR_GET_R8(c) (c).ch.red
 123:Drivers/lvgl/src/draw/sw/../../misc/lv_color.h **** # define LV_COLOR_GET_G8(c) (c).ch.green
 124:Drivers/lvgl/src/draw/sw/../../misc/lv_color.h **** # define LV_COLOR_GET_B8(c) (c).ch.blue
 125:Drivers/lvgl/src/draw/sw/../../misc/lv_color.h **** # define LV_COLOR_GET_A8(c) 0xFF
 126:Drivers/lvgl/src/draw/sw/../../misc/lv_color.h **** 
 127:Drivers/lvgl/src/draw/sw/../../misc/lv_color.h **** # define _LV_COLOR_ZERO_INITIALIZER8 {{0x00, 0x00, 0x00}}
 128:Drivers/lvgl/src/draw/sw/../../misc/lv_color.h **** # define LV_COLOR_MAKE8(r8, g8, b8) {{(uint8_t)((b8 >> 6) & 0x3U), (uint8_t)((g8 >> 5) & 0x7U), (ui
 129:Drivers/lvgl/src/draw/sw/../../misc/lv_color.h **** 
 130:Drivers/lvgl/src/draw/sw/../../misc/lv_color.h **** # define LV_COLOR_SET_R16(c, v) (c).ch.red = (uint8_t)((v) & 0x1FU)
 131:Drivers/lvgl/src/draw/sw/../../misc/lv_color.h **** #if LV_COLOR_16_SWAP == 0
 132:Drivers/lvgl/src/draw/sw/../../misc/lv_color.h **** # define LV_COLOR_SET_G16(c, v) (c).ch.green = (uint8_t)((v) & 0x3FU)
 133:Drivers/lvgl/src/draw/sw/../../misc/lv_color.h **** #else
 134:Drivers/lvgl/src/draw/sw/../../misc/lv_color.h **** # define LV_COLOR_SET_G16(c, v) {(c).ch.green_h = (uint8_t)(((v) >> 3) & 0x7); (c).ch.green_l = (ui
 135:Drivers/lvgl/src/draw/sw/../../misc/lv_color.h **** #endif
 136:Drivers/lvgl/src/draw/sw/../../misc/lv_color.h **** # define LV_COLOR_SET_B16(c, v) (c).ch.blue = (uint8_t)((v) & 0x1FU)
 137:Drivers/lvgl/src/draw/sw/../../misc/lv_color.h **** # define LV_COLOR_SET_A16(c, v) do {} while(0)
 138:Drivers/lvgl/src/draw/sw/../../misc/lv_color.h **** 
 139:Drivers/lvgl/src/draw/sw/../../misc/lv_color.h **** # define LV_COLOR_GET_R16(c) (c).ch.red
 140:Drivers/lvgl/src/draw/sw/../../misc/lv_color.h **** #if LV_COLOR_16_SWAP == 0
 141:Drivers/lvgl/src/draw/sw/../../misc/lv_color.h **** # define LV_COLOR_GET_G16(c) (c).ch.green
 142:Drivers/lvgl/src/draw/sw/../../misc/lv_color.h **** #else
 143:Drivers/lvgl/src/draw/sw/../../misc/lv_color.h **** # define LV_COLOR_GET_G16(c) (((c).ch.green_h << 3) + (c).ch.green_l)
 144:Drivers/lvgl/src/draw/sw/../../misc/lv_color.h **** #endif
 145:Drivers/lvgl/src/draw/sw/../../misc/lv_color.h **** # define LV_COLOR_GET_B16(c) (c).ch.blue
 146:Drivers/lvgl/src/draw/sw/../../misc/lv_color.h **** # define LV_COLOR_GET_A16(c) 0xFF
 147:Drivers/lvgl/src/draw/sw/../../misc/lv_color.h **** 
 148:Drivers/lvgl/src/draw/sw/../../misc/lv_color.h **** #if LV_COLOR_16_SWAP == 0
 149:Drivers/lvgl/src/draw/sw/../../misc/lv_color.h **** # define _LV_COLOR_ZERO_INITIALIZER16  {{0x00, 0x00, 0x00}}
 150:Drivers/lvgl/src/draw/sw/../../misc/lv_color.h **** # define LV_COLOR_MAKE16(r8, g8, b8) {{(uint8_t)((b8 >> 3) & 0x1FU), (uint8_t)((g8 >> 2) & 0x3FU), 
 151:Drivers/lvgl/src/draw/sw/../../misc/lv_color.h **** #else
ARM GAS  /var/folders/0z/tsy30v1j4xl4_7kw94k978ww0000gn/T//cceCRR69.s 			page 54


 152:Drivers/lvgl/src/draw/sw/../../misc/lv_color.h **** # define _LV_COLOR_ZERO_INITIALIZER16 {{0x00, 0x00, 0x00, 0x00}}
 153:Drivers/lvgl/src/draw/sw/../../misc/lv_color.h **** # define LV_COLOR_MAKE16(r8, g8, b8) {{(uint8_t)((g8 >> 5) & 0x7U), (uint8_t)((r8 >> 3) & 0x1FU), (
 154:Drivers/lvgl/src/draw/sw/../../misc/lv_color.h **** #endif
 155:Drivers/lvgl/src/draw/sw/../../misc/lv_color.h **** 
 156:Drivers/lvgl/src/draw/sw/../../misc/lv_color.h **** # define LV_COLOR_SET_R32(c, v) (c).ch.red = (uint8_t)((v) & 0xFF)
 157:Drivers/lvgl/src/draw/sw/../../misc/lv_color.h **** # define LV_COLOR_SET_G32(c, v) (c).ch.green = (uint8_t)((v) & 0xFF)
 158:Drivers/lvgl/src/draw/sw/../../misc/lv_color.h **** # define LV_COLOR_SET_B32(c, v) (c).ch.blue = (uint8_t)((v) & 0xFF)
 159:Drivers/lvgl/src/draw/sw/../../misc/lv_color.h **** # define LV_COLOR_SET_A32(c, v) (c).ch.alpha = (uint8_t)((v) & 0xFF)
 160:Drivers/lvgl/src/draw/sw/../../misc/lv_color.h **** 
 161:Drivers/lvgl/src/draw/sw/../../misc/lv_color.h **** # define LV_COLOR_GET_R32(c) (c).ch.red
 162:Drivers/lvgl/src/draw/sw/../../misc/lv_color.h **** # define LV_COLOR_GET_G32(c) (c).ch.green
 163:Drivers/lvgl/src/draw/sw/../../misc/lv_color.h **** # define LV_COLOR_GET_B32(c) (c).ch.blue
 164:Drivers/lvgl/src/draw/sw/../../misc/lv_color.h **** # define LV_COLOR_GET_A32(c) (c).ch.alpha
 165:Drivers/lvgl/src/draw/sw/../../misc/lv_color.h **** 
 166:Drivers/lvgl/src/draw/sw/../../misc/lv_color.h **** # define _LV_COLOR_ZERO_INITIALIZER32  {{0x00, 0x00, 0x00, 0x00}}
 167:Drivers/lvgl/src/draw/sw/../../misc/lv_color.h **** # define LV_COLOR_MAKE32(r8, g8, b8) {{b8, g8, r8, 0xff}} /*Fix 0xff alpha*/
 168:Drivers/lvgl/src/draw/sw/../../misc/lv_color.h **** 
 169:Drivers/lvgl/src/draw/sw/../../misc/lv_color.h **** /*---------------------------------------
 170:Drivers/lvgl/src/draw/sw/../../misc/lv_color.h ****  * Macros for the current color depth
 171:Drivers/lvgl/src/draw/sw/../../misc/lv_color.h ****  * to set/get values of the color channels
 172:Drivers/lvgl/src/draw/sw/../../misc/lv_color.h ****  *------------------------------------------*/
 173:Drivers/lvgl/src/draw/sw/../../misc/lv_color.h **** #define LV_COLOR_SET_R(c, v) LV_CONCAT(LV_COLOR_SET_R, LV_COLOR_DEPTH)(c, v)
 174:Drivers/lvgl/src/draw/sw/../../misc/lv_color.h **** #define LV_COLOR_SET_G(c, v) LV_CONCAT(LV_COLOR_SET_G, LV_COLOR_DEPTH)(c, v)
 175:Drivers/lvgl/src/draw/sw/../../misc/lv_color.h **** #define LV_COLOR_SET_B(c, v) LV_CONCAT(LV_COLOR_SET_B, LV_COLOR_DEPTH)(c, v)
 176:Drivers/lvgl/src/draw/sw/../../misc/lv_color.h **** #define LV_COLOR_SET_A(c, v) LV_CONCAT(LV_COLOR_SET_A, LV_COLOR_DEPTH)(c, v)
 177:Drivers/lvgl/src/draw/sw/../../misc/lv_color.h **** 
 178:Drivers/lvgl/src/draw/sw/../../misc/lv_color.h **** #define LV_COLOR_GET_R(c) LV_CONCAT(LV_COLOR_GET_R, LV_COLOR_DEPTH)(c)
 179:Drivers/lvgl/src/draw/sw/../../misc/lv_color.h **** #define LV_COLOR_GET_G(c) LV_CONCAT(LV_COLOR_GET_G, LV_COLOR_DEPTH)(c)
 180:Drivers/lvgl/src/draw/sw/../../misc/lv_color.h **** #define LV_COLOR_GET_B(c) LV_CONCAT(LV_COLOR_GET_B, LV_COLOR_DEPTH)(c)
 181:Drivers/lvgl/src/draw/sw/../../misc/lv_color.h **** #define LV_COLOR_GET_A(c) LV_CONCAT(LV_COLOR_GET_A, LV_COLOR_DEPTH)(c)
 182:Drivers/lvgl/src/draw/sw/../../misc/lv_color.h **** 
 183:Drivers/lvgl/src/draw/sw/../../misc/lv_color.h **** #define _LV_COLOR_ZERO_INITIALIZER LV_CONCAT(_LV_COLOR_ZERO_INITIALIZER, LV_COLOR_DEPTH)
 184:Drivers/lvgl/src/draw/sw/../../misc/lv_color.h **** #define LV_COLOR_MAKE(r8, g8, b8) LV_CONCAT(LV_COLOR_MAKE, LV_COLOR_DEPTH)(r8, g8, b8)
 185:Drivers/lvgl/src/draw/sw/../../misc/lv_color.h **** 
 186:Drivers/lvgl/src/draw/sw/../../misc/lv_color.h **** /**********************
 187:Drivers/lvgl/src/draw/sw/../../misc/lv_color.h ****  *      TYPEDEFS
 188:Drivers/lvgl/src/draw/sw/../../misc/lv_color.h ****  **********************/
 189:Drivers/lvgl/src/draw/sw/../../misc/lv_color.h **** 
 190:Drivers/lvgl/src/draw/sw/../../misc/lv_color.h **** typedef union {
 191:Drivers/lvgl/src/draw/sw/../../misc/lv_color.h ****     uint8_t full; /*must be declared first to set all bits of byte via initializer list*/
 192:Drivers/lvgl/src/draw/sw/../../misc/lv_color.h ****     union {
 193:Drivers/lvgl/src/draw/sw/../../misc/lv_color.h ****         uint8_t blue : 1;
 194:Drivers/lvgl/src/draw/sw/../../misc/lv_color.h ****         uint8_t green : 1;
 195:Drivers/lvgl/src/draw/sw/../../misc/lv_color.h ****         uint8_t red : 1;
 196:Drivers/lvgl/src/draw/sw/../../misc/lv_color.h ****     } ch;
 197:Drivers/lvgl/src/draw/sw/../../misc/lv_color.h **** } lv_color1_t;
 198:Drivers/lvgl/src/draw/sw/../../misc/lv_color.h **** 
 199:Drivers/lvgl/src/draw/sw/../../misc/lv_color.h **** typedef union {
 200:Drivers/lvgl/src/draw/sw/../../misc/lv_color.h ****     struct {
 201:Drivers/lvgl/src/draw/sw/../../misc/lv_color.h ****         uint8_t blue : 2;
 202:Drivers/lvgl/src/draw/sw/../../misc/lv_color.h ****         uint8_t green : 3;
 203:Drivers/lvgl/src/draw/sw/../../misc/lv_color.h ****         uint8_t red : 3;
 204:Drivers/lvgl/src/draw/sw/../../misc/lv_color.h ****     } ch;
 205:Drivers/lvgl/src/draw/sw/../../misc/lv_color.h ****     uint8_t full;
 206:Drivers/lvgl/src/draw/sw/../../misc/lv_color.h **** } lv_color8_t;
 207:Drivers/lvgl/src/draw/sw/../../misc/lv_color.h **** 
 208:Drivers/lvgl/src/draw/sw/../../misc/lv_color.h **** typedef union {
ARM GAS  /var/folders/0z/tsy30v1j4xl4_7kw94k978ww0000gn/T//cceCRR69.s 			page 55


 209:Drivers/lvgl/src/draw/sw/../../misc/lv_color.h ****     struct {
 210:Drivers/lvgl/src/draw/sw/../../misc/lv_color.h **** #if LV_COLOR_16_SWAP == 0
 211:Drivers/lvgl/src/draw/sw/../../misc/lv_color.h ****         uint16_t blue : 5;
 212:Drivers/lvgl/src/draw/sw/../../misc/lv_color.h ****         uint16_t green : 6;
 213:Drivers/lvgl/src/draw/sw/../../misc/lv_color.h ****         uint16_t red : 5;
 214:Drivers/lvgl/src/draw/sw/../../misc/lv_color.h **** #else
 215:Drivers/lvgl/src/draw/sw/../../misc/lv_color.h ****         uint16_t green_h : 3;
 216:Drivers/lvgl/src/draw/sw/../../misc/lv_color.h ****         uint16_t red : 5;
 217:Drivers/lvgl/src/draw/sw/../../misc/lv_color.h ****         uint16_t blue : 5;
 218:Drivers/lvgl/src/draw/sw/../../misc/lv_color.h ****         uint16_t green_l : 3;
 219:Drivers/lvgl/src/draw/sw/../../misc/lv_color.h **** #endif
 220:Drivers/lvgl/src/draw/sw/../../misc/lv_color.h ****     } ch;
 221:Drivers/lvgl/src/draw/sw/../../misc/lv_color.h ****     uint16_t full;
 222:Drivers/lvgl/src/draw/sw/../../misc/lv_color.h **** } lv_color16_t;
 223:Drivers/lvgl/src/draw/sw/../../misc/lv_color.h **** 
 224:Drivers/lvgl/src/draw/sw/../../misc/lv_color.h **** typedef union {
 225:Drivers/lvgl/src/draw/sw/../../misc/lv_color.h ****     struct {
 226:Drivers/lvgl/src/draw/sw/../../misc/lv_color.h ****         uint8_t blue;
 227:Drivers/lvgl/src/draw/sw/../../misc/lv_color.h ****         uint8_t green;
 228:Drivers/lvgl/src/draw/sw/../../misc/lv_color.h ****         uint8_t red;
 229:Drivers/lvgl/src/draw/sw/../../misc/lv_color.h ****         uint8_t alpha;
 230:Drivers/lvgl/src/draw/sw/../../misc/lv_color.h ****     } ch;
 231:Drivers/lvgl/src/draw/sw/../../misc/lv_color.h ****     uint32_t full;
 232:Drivers/lvgl/src/draw/sw/../../misc/lv_color.h **** } lv_color32_t;
 233:Drivers/lvgl/src/draw/sw/../../misc/lv_color.h **** 
 234:Drivers/lvgl/src/draw/sw/../../misc/lv_color.h **** typedef LV_CONCAT3(uint, LV_COLOR_SIZE, _t) lv_color_int_t;
 235:Drivers/lvgl/src/draw/sw/../../misc/lv_color.h **** typedef LV_CONCAT3(lv_color, LV_COLOR_DEPTH, _t) lv_color_t;
 236:Drivers/lvgl/src/draw/sw/../../misc/lv_color.h **** 
 237:Drivers/lvgl/src/draw/sw/../../misc/lv_color.h **** typedef struct {
 238:Drivers/lvgl/src/draw/sw/../../misc/lv_color.h ****     uint16_t h;
 239:Drivers/lvgl/src/draw/sw/../../misc/lv_color.h ****     uint8_t s;
 240:Drivers/lvgl/src/draw/sw/../../misc/lv_color.h ****     uint8_t v;
 241:Drivers/lvgl/src/draw/sw/../../misc/lv_color.h **** } lv_color_hsv_t;
 242:Drivers/lvgl/src/draw/sw/../../misc/lv_color.h **** 
 243:Drivers/lvgl/src/draw/sw/../../misc/lv_color.h **** //! @cond Doxygen_Suppress
 244:Drivers/lvgl/src/draw/sw/../../misc/lv_color.h **** /*No idea where the guard is required but else throws warnings in the docs*/
 245:Drivers/lvgl/src/draw/sw/../../misc/lv_color.h **** typedef uint8_t lv_opa_t;
 246:Drivers/lvgl/src/draw/sw/../../misc/lv_color.h **** //! @endcond
 247:Drivers/lvgl/src/draw/sw/../../misc/lv_color.h **** 
 248:Drivers/lvgl/src/draw/sw/../../misc/lv_color.h **** struct _lv_color_filter_dsc_t;
 249:Drivers/lvgl/src/draw/sw/../../misc/lv_color.h **** 
 250:Drivers/lvgl/src/draw/sw/../../misc/lv_color.h **** typedef lv_color_t (*lv_color_filter_cb_t)(const struct _lv_color_filter_dsc_t *, lv_color_t, lv_op
 251:Drivers/lvgl/src/draw/sw/../../misc/lv_color.h **** 
 252:Drivers/lvgl/src/draw/sw/../../misc/lv_color.h **** typedef struct _lv_color_filter_dsc_t {
 253:Drivers/lvgl/src/draw/sw/../../misc/lv_color.h ****     lv_color_filter_cb_t filter_cb;
 254:Drivers/lvgl/src/draw/sw/../../misc/lv_color.h ****     void * user_data;
 255:Drivers/lvgl/src/draw/sw/../../misc/lv_color.h **** } lv_color_filter_dsc_t;
 256:Drivers/lvgl/src/draw/sw/../../misc/lv_color.h **** 
 257:Drivers/lvgl/src/draw/sw/../../misc/lv_color.h **** 
 258:Drivers/lvgl/src/draw/sw/../../misc/lv_color.h **** typedef enum {
 259:Drivers/lvgl/src/draw/sw/../../misc/lv_color.h ****     LV_PALETTE_RED,
 260:Drivers/lvgl/src/draw/sw/../../misc/lv_color.h ****     LV_PALETTE_PINK,
 261:Drivers/lvgl/src/draw/sw/../../misc/lv_color.h ****     LV_PALETTE_PURPLE,
 262:Drivers/lvgl/src/draw/sw/../../misc/lv_color.h ****     LV_PALETTE_DEEP_PURPLE,
 263:Drivers/lvgl/src/draw/sw/../../misc/lv_color.h ****     LV_PALETTE_INDIGO,
 264:Drivers/lvgl/src/draw/sw/../../misc/lv_color.h ****     LV_PALETTE_BLUE,
 265:Drivers/lvgl/src/draw/sw/../../misc/lv_color.h ****     LV_PALETTE_LIGHT_BLUE,
ARM GAS  /var/folders/0z/tsy30v1j4xl4_7kw94k978ww0000gn/T//cceCRR69.s 			page 56


 266:Drivers/lvgl/src/draw/sw/../../misc/lv_color.h ****     LV_PALETTE_CYAN,
 267:Drivers/lvgl/src/draw/sw/../../misc/lv_color.h ****     LV_PALETTE_TEAL,
 268:Drivers/lvgl/src/draw/sw/../../misc/lv_color.h ****     LV_PALETTE_GREEN,
 269:Drivers/lvgl/src/draw/sw/../../misc/lv_color.h ****     LV_PALETTE_LIGHT_GREEN,
 270:Drivers/lvgl/src/draw/sw/../../misc/lv_color.h ****     LV_PALETTE_LIME,
 271:Drivers/lvgl/src/draw/sw/../../misc/lv_color.h ****     LV_PALETTE_YELLOW,
 272:Drivers/lvgl/src/draw/sw/../../misc/lv_color.h ****     LV_PALETTE_AMBER,
 273:Drivers/lvgl/src/draw/sw/../../misc/lv_color.h ****     LV_PALETTE_ORANGE,
 274:Drivers/lvgl/src/draw/sw/../../misc/lv_color.h ****     LV_PALETTE_DEEP_ORANGE,
 275:Drivers/lvgl/src/draw/sw/../../misc/lv_color.h ****     LV_PALETTE_BROWN,
 276:Drivers/lvgl/src/draw/sw/../../misc/lv_color.h ****     LV_PALETTE_BLUE_GREY,
 277:Drivers/lvgl/src/draw/sw/../../misc/lv_color.h ****     LV_PALETTE_GREY,
 278:Drivers/lvgl/src/draw/sw/../../misc/lv_color.h ****     _LV_PALETTE_LAST,
 279:Drivers/lvgl/src/draw/sw/../../misc/lv_color.h ****     LV_PALETTE_NONE = 0xff,
 280:Drivers/lvgl/src/draw/sw/../../misc/lv_color.h **** } lv_palette_t;
 281:Drivers/lvgl/src/draw/sw/../../misc/lv_color.h **** 
 282:Drivers/lvgl/src/draw/sw/../../misc/lv_color.h **** /**********************
 283:Drivers/lvgl/src/draw/sw/../../misc/lv_color.h ****  * GLOBAL PROTOTYPES
 284:Drivers/lvgl/src/draw/sw/../../misc/lv_color.h ****  **********************/
 285:Drivers/lvgl/src/draw/sw/../../misc/lv_color.h **** 
 286:Drivers/lvgl/src/draw/sw/../../misc/lv_color.h **** /*In color conversations:
 287:Drivers/lvgl/src/draw/sw/../../misc/lv_color.h ****  * - When converting to bigger color type the LSB weight of 1 LSB is calculated
 288:Drivers/lvgl/src/draw/sw/../../misc/lv_color.h ****  *   E.g. 16 bit Red has 5 bits
 289:Drivers/lvgl/src/draw/sw/../../misc/lv_color.h ****  *         8 bit Red has 3 bits
 290:Drivers/lvgl/src/draw/sw/../../misc/lv_color.h ****  *        ----------------------
 291:Drivers/lvgl/src/draw/sw/../../misc/lv_color.h ****  *        8 bit red LSB = (2^5 - 1) / (2^3 - 1) = 31 / 7 = 4
 292:Drivers/lvgl/src/draw/sw/../../misc/lv_color.h ****  *
 293:Drivers/lvgl/src/draw/sw/../../misc/lv_color.h ****  * - When calculating to smaller color type simply shift out the LSBs
 294:Drivers/lvgl/src/draw/sw/../../misc/lv_color.h ****  *   E.g.  8 bit Red has 3 bits
 295:Drivers/lvgl/src/draw/sw/../../misc/lv_color.h ****  *        16 bit Red has 5 bits
 296:Drivers/lvgl/src/draw/sw/../../misc/lv_color.h ****  *        ----------------------
 297:Drivers/lvgl/src/draw/sw/../../misc/lv_color.h ****  *         Shift right with 5 - 3 = 2
 298:Drivers/lvgl/src/draw/sw/../../misc/lv_color.h ****  */
 299:Drivers/lvgl/src/draw/sw/../../misc/lv_color.h **** static inline uint8_t lv_color_to1(lv_color_t color)
 300:Drivers/lvgl/src/draw/sw/../../misc/lv_color.h **** {
 301:Drivers/lvgl/src/draw/sw/../../misc/lv_color.h **** #if LV_COLOR_DEPTH == 1
 302:Drivers/lvgl/src/draw/sw/../../misc/lv_color.h ****     return color.full;
 303:Drivers/lvgl/src/draw/sw/../../misc/lv_color.h **** #elif LV_COLOR_DEPTH == 8
 304:Drivers/lvgl/src/draw/sw/../../misc/lv_color.h ****     if((LV_COLOR_GET_R(color) & 0x4) || (LV_COLOR_GET_G(color) & 0x4) || (LV_COLOR_GET_B(color) & 0
 305:Drivers/lvgl/src/draw/sw/../../misc/lv_color.h ****         return 1;
 306:Drivers/lvgl/src/draw/sw/../../misc/lv_color.h ****     }
 307:Drivers/lvgl/src/draw/sw/../../misc/lv_color.h ****     else {
 308:Drivers/lvgl/src/draw/sw/../../misc/lv_color.h ****         return 0;
 309:Drivers/lvgl/src/draw/sw/../../misc/lv_color.h ****     }
 310:Drivers/lvgl/src/draw/sw/../../misc/lv_color.h **** #elif LV_COLOR_DEPTH == 16
 311:Drivers/lvgl/src/draw/sw/../../misc/lv_color.h ****     if((LV_COLOR_GET_R(color) & 0x10) || (LV_COLOR_GET_G(color) & 0x20) || (LV_COLOR_GET_B(color) &
 312:Drivers/lvgl/src/draw/sw/../../misc/lv_color.h ****         return 1;
 313:Drivers/lvgl/src/draw/sw/../../misc/lv_color.h ****     }
 314:Drivers/lvgl/src/draw/sw/../../misc/lv_color.h ****     else {
 315:Drivers/lvgl/src/draw/sw/../../misc/lv_color.h ****         return 0;
 316:Drivers/lvgl/src/draw/sw/../../misc/lv_color.h ****     }
 317:Drivers/lvgl/src/draw/sw/../../misc/lv_color.h **** #elif LV_COLOR_DEPTH == 32
 318:Drivers/lvgl/src/draw/sw/../../misc/lv_color.h ****     if((LV_COLOR_GET_R(color) & 0x80) || (LV_COLOR_GET_G(color) & 0x80) || (LV_COLOR_GET_B(color) &
 319:Drivers/lvgl/src/draw/sw/../../misc/lv_color.h ****         return 1;
 320:Drivers/lvgl/src/draw/sw/../../misc/lv_color.h ****     }
 321:Drivers/lvgl/src/draw/sw/../../misc/lv_color.h ****     else {
 322:Drivers/lvgl/src/draw/sw/../../misc/lv_color.h ****         return 0;
ARM GAS  /var/folders/0z/tsy30v1j4xl4_7kw94k978ww0000gn/T//cceCRR69.s 			page 57


 323:Drivers/lvgl/src/draw/sw/../../misc/lv_color.h ****     }
 324:Drivers/lvgl/src/draw/sw/../../misc/lv_color.h **** #endif
 325:Drivers/lvgl/src/draw/sw/../../misc/lv_color.h **** }
 326:Drivers/lvgl/src/draw/sw/../../misc/lv_color.h **** 
 327:Drivers/lvgl/src/draw/sw/../../misc/lv_color.h **** static inline uint8_t lv_color_to8(lv_color_t color)
 328:Drivers/lvgl/src/draw/sw/../../misc/lv_color.h **** {
 329:Drivers/lvgl/src/draw/sw/../../misc/lv_color.h **** #if LV_COLOR_DEPTH == 1
 330:Drivers/lvgl/src/draw/sw/../../misc/lv_color.h ****     if(color.full == 0)
 331:Drivers/lvgl/src/draw/sw/../../misc/lv_color.h ****         return 0;
 332:Drivers/lvgl/src/draw/sw/../../misc/lv_color.h ****     else
 333:Drivers/lvgl/src/draw/sw/../../misc/lv_color.h ****         return 0xFF;
 334:Drivers/lvgl/src/draw/sw/../../misc/lv_color.h **** #elif LV_COLOR_DEPTH == 8
 335:Drivers/lvgl/src/draw/sw/../../misc/lv_color.h ****     return color.full;
 336:Drivers/lvgl/src/draw/sw/../../misc/lv_color.h **** #elif LV_COLOR_DEPTH == 16
 337:Drivers/lvgl/src/draw/sw/../../misc/lv_color.h ****     lv_color8_t ret;
 338:Drivers/lvgl/src/draw/sw/../../misc/lv_color.h ****     LV_COLOR_SET_R8(ret, LV_COLOR_GET_R(color) >> 2); /*5 - 3  = 2*/
 339:Drivers/lvgl/src/draw/sw/../../misc/lv_color.h ****     LV_COLOR_SET_G8(ret, LV_COLOR_GET_G(color) >> 3); /*6 - 3  = 3*/
 340:Drivers/lvgl/src/draw/sw/../../misc/lv_color.h ****     LV_COLOR_SET_B8(ret, LV_COLOR_GET_B(color) >> 3); /*5 - 2  = 3*/
 341:Drivers/lvgl/src/draw/sw/../../misc/lv_color.h ****     return ret.full;
 342:Drivers/lvgl/src/draw/sw/../../misc/lv_color.h **** #elif LV_COLOR_DEPTH == 32
 343:Drivers/lvgl/src/draw/sw/../../misc/lv_color.h ****     lv_color8_t ret;
 344:Drivers/lvgl/src/draw/sw/../../misc/lv_color.h ****     LV_COLOR_SET_R8(ret, LV_COLOR_GET_R(color) >> 5); /*8 - 3  = 5*/
 345:Drivers/lvgl/src/draw/sw/../../misc/lv_color.h ****     LV_COLOR_SET_G8(ret, LV_COLOR_GET_G(color) >> 5); /*8 - 3  = 5*/
 346:Drivers/lvgl/src/draw/sw/../../misc/lv_color.h ****     LV_COLOR_SET_B8(ret, LV_COLOR_GET_B(color) >> 6); /*8 - 2  = 6*/
 347:Drivers/lvgl/src/draw/sw/../../misc/lv_color.h ****     return ret.full;
 348:Drivers/lvgl/src/draw/sw/../../misc/lv_color.h **** #endif
 349:Drivers/lvgl/src/draw/sw/../../misc/lv_color.h **** }
 350:Drivers/lvgl/src/draw/sw/../../misc/lv_color.h **** 
 351:Drivers/lvgl/src/draw/sw/../../misc/lv_color.h **** static inline uint16_t lv_color_to16(lv_color_t color)
 352:Drivers/lvgl/src/draw/sw/../../misc/lv_color.h **** {
 353:Drivers/lvgl/src/draw/sw/../../misc/lv_color.h **** #if LV_COLOR_DEPTH == 1
 354:Drivers/lvgl/src/draw/sw/../../misc/lv_color.h ****     if(color.full == 0)
 355:Drivers/lvgl/src/draw/sw/../../misc/lv_color.h ****         return 0;
 356:Drivers/lvgl/src/draw/sw/../../misc/lv_color.h ****     else
 357:Drivers/lvgl/src/draw/sw/../../misc/lv_color.h ****         return 0xFFFF;
 358:Drivers/lvgl/src/draw/sw/../../misc/lv_color.h **** #elif LV_COLOR_DEPTH == 8
 359:Drivers/lvgl/src/draw/sw/../../misc/lv_color.h ****     lv_color16_t ret;
 360:Drivers/lvgl/src/draw/sw/../../misc/lv_color.h ****     LV_COLOR_SET_R16(ret, LV_COLOR_GET_R(color) * 4);  /*(2^5 - 1)/(2^3 - 1) = 31/7 = 4*/
 361:Drivers/lvgl/src/draw/sw/../../misc/lv_color.h ****     LV_COLOR_SET_G16(ret, LV_COLOR_GET_G(color) * 9);  /*(2^6 - 1)/(2^3 - 1) = 63/7 = 9*/
 362:Drivers/lvgl/src/draw/sw/../../misc/lv_color.h ****     LV_COLOR_SET_B16(ret, LV_COLOR_GET_B(color) * 10); /*(2^5 - 1)/(2^2 - 1) = 31/3 = 10*/
 363:Drivers/lvgl/src/draw/sw/../../misc/lv_color.h ****     return ret.full;
 364:Drivers/lvgl/src/draw/sw/../../misc/lv_color.h **** #elif LV_COLOR_DEPTH == 16
 365:Drivers/lvgl/src/draw/sw/../../misc/lv_color.h ****     return color.full;
 366:Drivers/lvgl/src/draw/sw/../../misc/lv_color.h **** #elif LV_COLOR_DEPTH == 32
 367:Drivers/lvgl/src/draw/sw/../../misc/lv_color.h ****     lv_color16_t ret;
 368:Drivers/lvgl/src/draw/sw/../../misc/lv_color.h ****     LV_COLOR_SET_R16(ret, LV_COLOR_GET_R(color) >> 3); /*8 - 5  = 3*/
 369:Drivers/lvgl/src/draw/sw/../../misc/lv_color.h ****     LV_COLOR_SET_G16(ret, LV_COLOR_GET_G(color) >> 2); /*8 - 6  = 2*/
 370:Drivers/lvgl/src/draw/sw/../../misc/lv_color.h ****     LV_COLOR_SET_B16(ret, LV_COLOR_GET_B(color) >> 3); /*8 - 5  = 3*/
 371:Drivers/lvgl/src/draw/sw/../../misc/lv_color.h ****     return ret.full;
 372:Drivers/lvgl/src/draw/sw/../../misc/lv_color.h **** #endif
 373:Drivers/lvgl/src/draw/sw/../../misc/lv_color.h **** }
 374:Drivers/lvgl/src/draw/sw/../../misc/lv_color.h **** 
 375:Drivers/lvgl/src/draw/sw/../../misc/lv_color.h **** static inline uint32_t lv_color_to32(lv_color_t color)
 376:Drivers/lvgl/src/draw/sw/../../misc/lv_color.h **** {
 377:Drivers/lvgl/src/draw/sw/../../misc/lv_color.h **** #if LV_COLOR_DEPTH == 1
 378:Drivers/lvgl/src/draw/sw/../../misc/lv_color.h ****     if(color.full == 0)
 379:Drivers/lvgl/src/draw/sw/../../misc/lv_color.h ****         return 0xFF000000;
ARM GAS  /var/folders/0z/tsy30v1j4xl4_7kw94k978ww0000gn/T//cceCRR69.s 			page 58


 380:Drivers/lvgl/src/draw/sw/../../misc/lv_color.h ****     else
 381:Drivers/lvgl/src/draw/sw/../../misc/lv_color.h ****         return 0xFFFFFFFF;
 382:Drivers/lvgl/src/draw/sw/../../misc/lv_color.h **** #elif LV_COLOR_DEPTH == 8
 383:Drivers/lvgl/src/draw/sw/../../misc/lv_color.h ****     lv_color32_t ret;
 384:Drivers/lvgl/src/draw/sw/../../misc/lv_color.h ****     LV_COLOR_SET_R32(ret, LV_COLOR_GET_R(color) * 36); /*(2^8 - 1)/(2^3 - 1) = 255/7 = 36*/
 385:Drivers/lvgl/src/draw/sw/../../misc/lv_color.h ****     LV_COLOR_SET_G32(ret, LV_COLOR_GET_G(color) * 36); /*(2^8 - 1)/(2^3 - 1) = 255/7 = 36*/
 386:Drivers/lvgl/src/draw/sw/../../misc/lv_color.h ****     LV_COLOR_SET_B32(ret, LV_COLOR_GET_B(color) * 85); /*(2^8 - 1)/(2^2 - 1) = 255/3 = 85*/
 387:Drivers/lvgl/src/draw/sw/../../misc/lv_color.h ****     LV_COLOR_SET_A32(ret, 0xFF);
 388:Drivers/lvgl/src/draw/sw/../../misc/lv_color.h ****     return ret.full;
 389:Drivers/lvgl/src/draw/sw/../../misc/lv_color.h **** #elif LV_COLOR_DEPTH == 16
 390:Drivers/lvgl/src/draw/sw/../../misc/lv_color.h ****     /**
 391:Drivers/lvgl/src/draw/sw/../../misc/lv_color.h ****      * The floating point math for conversion is:
 392:Drivers/lvgl/src/draw/sw/../../misc/lv_color.h ****      *  valueto = valuefrom * ( (2^bitsto - 1) / (float)(2^bitsfrom - 1) )
 393:Drivers/lvgl/src/draw/sw/../../misc/lv_color.h ****      * The faster integer math for conversion is:
 394:Drivers/lvgl/src/draw/sw/../../misc/lv_color.h ****      *  valueto = ( valuefrom * multiplier + adder ) >> divisor
 395:Drivers/lvgl/src/draw/sw/../../misc/lv_color.h ****      *   multiplier = FLOOR( ( (2^bitsto - 1) << divisor ) / (float)(2^bitsfrom - 1) )
 396:Drivers/lvgl/src/draw/sw/../../misc/lv_color.h ****      *
 397:Drivers/lvgl/src/draw/sw/../../misc/lv_color.h ****      * Find the first divisor where ( adder >> divisor ) <= 0
 398:Drivers/lvgl/src/draw/sw/../../misc/lv_color.h ****      *
 399:Drivers/lvgl/src/draw/sw/../../misc/lv_color.h ****      * 5-bit to 8-bit: ( 31 * multiplier + adder ) >> divisor = 255
 400:Drivers/lvgl/src/draw/sw/../../misc/lv_color.h ****      * divisor  multiplier  adder  min (0)  max (31)
 401:Drivers/lvgl/src/draw/sw/../../misc/lv_color.h ****      *       0           8      7        7       255
 402:Drivers/lvgl/src/draw/sw/../../misc/lv_color.h ****      *       1          16     14        7       255
 403:Drivers/lvgl/src/draw/sw/../../misc/lv_color.h ****      *       2          32     28        7       255
 404:Drivers/lvgl/src/draw/sw/../../misc/lv_color.h ****      *       3          65     25        3       255
 405:Drivers/lvgl/src/draw/sw/../../misc/lv_color.h ****      *       4         131     19        1       255
 406:Drivers/lvgl/src/draw/sw/../../misc/lv_color.h ****      *       5         263      7        0       255
 407:Drivers/lvgl/src/draw/sw/../../misc/lv_color.h ****      *
 408:Drivers/lvgl/src/draw/sw/../../misc/lv_color.h ****      * 6-bit to 8-bit: 255 = ( 63 * multiplier + adder ) >> divisor
 409:Drivers/lvgl/src/draw/sw/../../misc/lv_color.h ****      * divisor  multiplier  adder  min (0)  max (63)
 410:Drivers/lvgl/src/draw/sw/../../misc/lv_color.h ****      *       0           4      3        3       255
 411:Drivers/lvgl/src/draw/sw/../../misc/lv_color.h ****      *       1           8      6        3       255
 412:Drivers/lvgl/src/draw/sw/../../misc/lv_color.h ****      *       2          16     12        3       255
 413:Drivers/lvgl/src/draw/sw/../../misc/lv_color.h ****      *       3          32     24        3       255
 414:Drivers/lvgl/src/draw/sw/../../misc/lv_color.h ****      *       4          64     48        3       255
 415:Drivers/lvgl/src/draw/sw/../../misc/lv_color.h ****      *       5         129     33        1       255
 416:Drivers/lvgl/src/draw/sw/../../misc/lv_color.h ****      *       6         259      3        0       255
 417:Drivers/lvgl/src/draw/sw/../../misc/lv_color.h ****      */
 418:Drivers/lvgl/src/draw/sw/../../misc/lv_color.h **** 
 419:Drivers/lvgl/src/draw/sw/../../misc/lv_color.h ****     lv_color32_t ret;
 420:Drivers/lvgl/src/draw/sw/../../misc/lv_color.h ****     LV_COLOR_SET_R32(ret, (LV_COLOR_GET_R(color) * 263 + 7) >> 5);
 421:Drivers/lvgl/src/draw/sw/../../misc/lv_color.h ****     LV_COLOR_SET_G32(ret, (LV_COLOR_GET_G(color) * 259 + 3) >> 6);
 422:Drivers/lvgl/src/draw/sw/../../misc/lv_color.h ****     LV_COLOR_SET_B32(ret, (LV_COLOR_GET_B(color) * 263 + 7) >> 5);
 423:Drivers/lvgl/src/draw/sw/../../misc/lv_color.h ****     LV_COLOR_SET_A32(ret, 0xFF);
 424:Drivers/lvgl/src/draw/sw/../../misc/lv_color.h ****     return ret.full;
 425:Drivers/lvgl/src/draw/sw/../../misc/lv_color.h **** #elif LV_COLOR_DEPTH == 32
 426:Drivers/lvgl/src/draw/sw/../../misc/lv_color.h ****     return color.full;
 427:Drivers/lvgl/src/draw/sw/../../misc/lv_color.h **** #endif
 428:Drivers/lvgl/src/draw/sw/../../misc/lv_color.h **** }
 429:Drivers/lvgl/src/draw/sw/../../misc/lv_color.h **** 
 430:Drivers/lvgl/src/draw/sw/../../misc/lv_color.h **** //! @cond Doxygen_Suppress
 431:Drivers/lvgl/src/draw/sw/../../misc/lv_color.h **** 
 432:Drivers/lvgl/src/draw/sw/../../misc/lv_color.h **** /**
 433:Drivers/lvgl/src/draw/sw/../../misc/lv_color.h ****  * Mix two colors with a given ratio.
 434:Drivers/lvgl/src/draw/sw/../../misc/lv_color.h ****  * @param c1 the first color to mix (usually the foreground)
 435:Drivers/lvgl/src/draw/sw/../../misc/lv_color.h ****  * @param c2 the second color to mix (usually the background)
 436:Drivers/lvgl/src/draw/sw/../../misc/lv_color.h ****  * @param mix The ratio of the colors. 0: full `c2`, 255: full `c1`, 127: half `c1` and half`c2`
ARM GAS  /var/folders/0z/tsy30v1j4xl4_7kw94k978ww0000gn/T//cceCRR69.s 			page 59


 437:Drivers/lvgl/src/draw/sw/../../misc/lv_color.h ****  * @return the mixed color
 438:Drivers/lvgl/src/draw/sw/../../misc/lv_color.h ****  */
 439:Drivers/lvgl/src/draw/sw/../../misc/lv_color.h **** static inline lv_color_t LV_ATTRIBUTE_FAST_MEM lv_color_mix(lv_color_t c1, lv_color_t c2, uint8_t m
 1703              		.loc 3 439 48 view .LVU584
 1704              	.LBB68:
 440:Drivers/lvgl/src/draw/sw/../../misc/lv_color.h **** {
 441:Drivers/lvgl/src/draw/sw/../../misc/lv_color.h ****     lv_color_t ret;
 1705              		.loc 3 441 5 view .LVU585
 442:Drivers/lvgl/src/draw/sw/../../misc/lv_color.h **** 
 443:Drivers/lvgl/src/draw/sw/../../misc/lv_color.h **** #if LV_COLOR_DEPTH == 16 && LV_COLOR_MIX_ROUND_OFS == 0
 444:Drivers/lvgl/src/draw/sw/../../misc/lv_color.h **** #if LV_COLOR_16_SWAP == 1
 445:Drivers/lvgl/src/draw/sw/../../misc/lv_color.h ****     c1.full = c1.full << 8 | c1.full >> 8;
 1706              		.loc 3 445 5 view .LVU586
 446:Drivers/lvgl/src/draw/sw/../../misc/lv_color.h ****     c2.full = c2.full << 8 | c2.full >> 8;
 1707              		.loc 3 446 5 view .LVU587
 447:Drivers/lvgl/src/draw/sw/../../misc/lv_color.h **** #endif
 448:Drivers/lvgl/src/draw/sw/../../misc/lv_color.h ****     /*Source: https://stackoverflow.com/a/50012418/1999969*/
 449:Drivers/lvgl/src/draw/sw/../../misc/lv_color.h ****     mix = (uint32_t)((uint32_t)mix + 4) >> 3;
 1708              		.loc 3 449 5 view .LVU588
 450:Drivers/lvgl/src/draw/sw/../../misc/lv_color.h ****     uint32_t bg = (uint32_t)((uint32_t)c2.full | ((uint32_t)c2.full << 16)) &
 1709              		.loc 3 450 5 view .LVU589
 1710              	.LBE68:
 1711              	.LBE67:
 1712              	.LBB81:
 1713              	.LBB82:
 451:Drivers/lvgl/src/draw/sw/../../misc/lv_color.h ****                   0x7E0F81F; /*0b00000111111000001111100000011111*/
 452:Drivers/lvgl/src/draw/sw/../../misc/lv_color.h ****     uint32_t fg = (uint32_t)((uint32_t)c1.full | ((uint32_t)c1.full << 16)) & 0x7E0F81F;
 1714              		.loc 3 452 30 is_stmt 0 view .LVU590
 1715 05a6 47BA     		rev16	r7, r0
 449:Drivers/lvgl/src/draw/sw/../../misc/lv_color.h ****     uint32_t bg = (uint32_t)((uint32_t)c2.full | ((uint32_t)c2.full << 16)) &
 1716              		.loc 3 449 22 view .LVU591
 1717 05a8 9DF85400 		ldrb	r0, [sp, #84]	@ zero_extendqisi2
 1718              	.LVL171:
 449:Drivers/lvgl/src/draw/sw/../../misc/lv_color.h ****     uint32_t bg = (uint32_t)((uint32_t)c2.full | ((uint32_t)c2.full << 16)) &
 1719              		.loc 3 449 22 view .LVU592
 1720              	.LBE82:
 1721              	.LBE81:
 1722              	.LBB96:
 1723              	.LBB69:
 1724 05ac 9DF85860 		ldrb	r6, [sp, #88]	@ zero_extendqisi2
 450:Drivers/lvgl/src/draw/sw/../../misc/lv_color.h ****     uint32_t bg = (uint32_t)((uint32_t)c2.full | ((uint32_t)c2.full << 16)) &
 1725              		.loc 3 450 30 view .LVU593
 1726 05b0 49BA     		rev16	r1, r1
 1727              	.LVL172:
 450:Drivers/lvgl/src/draw/sw/../../misc/lv_color.h ****     uint32_t bg = (uint32_t)((uint32_t)c2.full | ((uint32_t)c2.full << 16)) &
 1728              		.loc 3 450 30 view .LVU594
 1729              	.LBE69:
 1730              	.LBE96:
 1731              	.LBB97:
 1732              	.LBB83:
 449:Drivers/lvgl/src/draw/sw/../../misc/lv_color.h ****     uint32_t bg = (uint32_t)((uint32_t)c2.full | ((uint32_t)c2.full << 16)) &
 1733              		.loc 3 449 11 view .LVU595
 1734 05b2 0430     		adds	r0, r0, #4
 1735              	.LBE83:
 1736              	.LBE97:
 1737              	.LBB98:
 1738              	.LBB70:
ARM GAS  /var/folders/0z/tsy30v1j4xl4_7kw94k978ww0000gn/T//cceCRR69.s 			page 60


 1739              		.loc 3 452 30 view .LVU596
 1740 05b4 6DBA     		rev16	r5, r5
 1741              	.LVL173:
 1742              		.loc 3 452 30 view .LVU597
 1743              	.LBE70:
 1744              	.LBE98:
 1745              	.LBB99:
 1746              	.LBB84:
 449:Drivers/lvgl/src/draw/sw/../../misc/lv_color.h ****     uint32_t bg = (uint32_t)((uint32_t)c2.full | ((uint32_t)c2.full << 16)) &
 1747              		.loc 3 449 41 view .LVU598
 1748 05b6 4FEAD008 		lsr	r8, r0, #3
 1749              	.LVL174:
 449:Drivers/lvgl/src/draw/sw/../../misc/lv_color.h ****     uint32_t bg = (uint32_t)((uint32_t)c2.full | ((uint32_t)c2.full << 16)) &
 1750              		.loc 3 449 41 view .LVU599
 1751              	.LBE84:
 1752              	.LBE99:
 1753              	.LBB100:
 1754              	.LBB71:
 450:Drivers/lvgl/src/draw/sw/../../misc/lv_color.h ****     uint32_t bg = (uint32_t)((uint32_t)c2.full | ((uint32_t)c2.full << 16)) &
 1755              		.loc 3 450 30 view .LVU600
 1756 05ba 88B2     		uxth	r0, r1
 450:Drivers/lvgl/src/draw/sw/../../misc/lv_color.h ****     uint32_t bg = (uint32_t)((uint32_t)c2.full | ((uint32_t)c2.full << 16)) &
 1757              		.loc 3 450 19 view .LVU601
 1758 05bc 40EA0140 		orr	r0, r0, r1, lsl #16
 1759              		.loc 3 452 30 view .LVU602
 1760 05c0 A9B2     		uxth	r1, r5
 1761              		.loc 3 452 19 view .LVU603
 1762 05c2 41EA0541 		orr	r1, r1, r5, lsl #16
 1763              	.LBE71:
 1764              	.LBE100:
 1765              	.LBB101:
 1766              	.LBB85:
 1767              		.loc 3 452 30 view .LVU604
 1768 05c6 BDB2     		uxth	r5, r7
 1769              	.LBE85:
 1770              	.LBE101:
 1771              	.LBB102:
 1772              	.LBB72:
 450:Drivers/lvgl/src/draw/sw/../../misc/lv_color.h ****     uint32_t bg = (uint32_t)((uint32_t)c2.full | ((uint32_t)c2.full << 16)) &
 1773              		.loc 3 450 14 view .LVU605
 1774 05c8 20F07840 		bic	r0, r0, #-134217728
 1775              		.loc 3 452 14 view .LVU606
 1776 05cc 21F07841 		bic	r1, r1, #-134217728
 1777              	.LBE72:
 1778              	.LBE102:
 1779              	.LBB103:
 1780              	.LBB86:
 1781              		.loc 3 452 19 view .LVU607
 1782 05d0 45EA0745 		orr	r5, r5, r7, lsl #16
 1783              	.LBE86:
 1784              	.LBE103:
 1785              	.LBB104:
 1786              	.LBB73:
 450:Drivers/lvgl/src/draw/sw/../../misc/lv_color.h ****     uint32_t bg = (uint32_t)((uint32_t)c2.full | ((uint32_t)c2.full << 16)) &
 1787              		.loc 3 450 14 view .LVU608
 1788 05d4 20F4F810 		bic	r0, r0, #2031616
 1789              		.loc 3 452 14 view .LVU609
ARM GAS  /var/folders/0z/tsy30v1j4xl4_7kw94k978ww0000gn/T//cceCRR69.s 			page 61


 1790 05d8 21F4F811 		bic	r1, r1, #2031616
 1791              	.LBE73:
 1792              	.LBE104:
 1793              	.LBB105:
 1794              	.LBB87:
 1795 05dc 25F07845 		bic	r5, r5, #-134217728
 1796              	.LBE87:
 1797              	.LBE105:
 1798              	.LBB106:
 1799              	.LBB74:
 450:Drivers/lvgl/src/draw/sw/../../misc/lv_color.h ****     uint32_t bg = (uint32_t)((uint32_t)c2.full | ((uint32_t)c2.full << 16)) &
 1800              		.loc 3 450 14 view .LVU610
 1801 05e0 20F4FC60 		bic	r0, r0, #2016
 1802              	.LVL175:
 1803              		.loc 3 452 5 is_stmt 1 view .LVU611
 453:Drivers/lvgl/src/draw/sw/../../misc/lv_color.h ****     uint32_t result = ((((fg - bg) * mix) >> 5) + bg) & 0x7E0F81F;
 1804              		.loc 3 453 5 view .LVU612
 449:Drivers/lvgl/src/draw/sw/../../misc/lv_color.h ****     uint32_t bg = (uint32_t)((uint32_t)c2.full | ((uint32_t)c2.full << 16)) &
 1805              		.loc 3 449 11 is_stmt 0 view .LVU613
 1806 05e4 0436     		adds	r6, r6, #4
 452:Drivers/lvgl/src/draw/sw/../../misc/lv_color.h ****     uint32_t result = ((((fg - bg) * mix) >> 5) + bg) & 0x7E0F81F;
 1807              		.loc 3 452 14 view .LVU614
 1808 05e6 21F4FC61 		bic	r1, r1, #2016
 1809              	.LBE74:
 1810              	.LBE106:
 1811              	.LBB107:
 1812              	.LBB88:
 1813 05ea 25F4F815 		bic	r5, r5, #2031616
 1814              	.LBE88:
 1815              	.LBE107:
 1816              	.LBB108:
 1817              	.LBB75:
 1818              		.loc 3 453 30 view .LVU615
 1819 05ee 091A     		subs	r1, r1, r0
 449:Drivers/lvgl/src/draw/sw/../../misc/lv_color.h ****     uint32_t bg = (uint32_t)((uint32_t)c2.full | ((uint32_t)c2.full << 16)) &
 1820              		.loc 3 449 41 view .LVU616
 1821 05f0 F608     		lsrs	r6, r6, #3
 1822              	.LBE75:
 1823              	.LBE108:
 1824              	.LBB109:
 1825              	.LBB89:
 452:Drivers/lvgl/src/draw/sw/../../misc/lv_color.h ****     uint32_t result = ((((fg - bg) * mix) >> 5) + bg) & 0x7E0F81F;
 1826              		.loc 3 452 14 view .LVU617
 1827 05f2 25F4FC65 		bic	r5, r5, #2016
 1828              		.loc 3 453 30 view .LVU618
 1829 05f6 2D1A     		subs	r5, r5, r0
 1830              	.LBE89:
 1831              	.LBE109:
 1832              	.LBB110:
 1833              	.LBB76:
 1834              		.loc 3 453 36 view .LVU619
 1835 05f8 06FB01F1 		mul	r1, r6, r1
 1836              		.loc 3 453 49 view .LVU620
 1837 05fc 00EB5111 		add	r1, r0, r1, lsr #5
 1838              	.LBE76:
 1839              	.LBE110:
 1840              	.LBB111:
ARM GAS  /var/folders/0z/tsy30v1j4xl4_7kw94k978ww0000gn/T//cceCRR69.s 			page 62


 1841              	.LBB90:
 1842              		.loc 3 453 36 view .LVU621
 1843 0600 08FB05F5 		mul	r5, r8, r5
 1844              		.loc 3 453 49 view .LVU622
 1845 0604 00EB5510 		add	r0, r0, r5, lsr #5
 1846              	.LVL176:
 1847              		.loc 3 453 49 view .LVU623
 1848              	.LBE90:
 1849              	.LBE111:
 1850              	.LBB112:
 1851              	.LBB77:
 1852              		.loc 3 453 14 view .LVU624
 1853 0608 21F07841 		bic	r1, r1, #-134217728
 1854 060c 21F4F811 		bic	r1, r1, #2031616
 1855              	.LBE77:
 1856              	.LBE112:
 1857              	.LBB113:
 1858              	.LBB91:
 1859 0610 20F07840 		bic	r0, r0, #-134217728
 1860              	.LBE91:
 1861              	.LBE113:
 1862              	.LBB114:
 1863              	.LBB78:
 1864 0614 21F4FC61 		bic	r1, r1, #2016
 1865              	.LVL177:
 454:Drivers/lvgl/src/draw/sw/../../misc/lv_color.h ****     ret.full = (uint16_t)((result >> 16) | result);
 1866              		.loc 3 454 5 is_stmt 1 view .LVU625
 455:Drivers/lvgl/src/draw/sw/../../misc/lv_color.h **** #if LV_COLOR_16_SWAP == 1
 456:Drivers/lvgl/src/draw/sw/../../misc/lv_color.h ****     ret.full = ret.full << 8 | ret.full >> 8;
 1867              		.loc 3 456 5 view .LVU626
 1868              	.LBE78:
 1869              	.LBE114:
 1870              	.LBB115:
 1871              	.LBB92:
 453:Drivers/lvgl/src/draw/sw/../../misc/lv_color.h ****     ret.full = (uint16_t)((result >> 16) | result);
 1872              		.loc 3 453 14 is_stmt 0 view .LVU627
 1873 0618 20F4F810 		bic	r0, r0, #2031616
 1874              	.LBE92:
 1875              	.LBE115:
 1876              	.LBB116:
 1877              	.LBB79:
 454:Drivers/lvgl/src/draw/sw/../../misc/lv_color.h ****     ret.full = (uint16_t)((result >> 16) | result);
 1878              		.loc 3 454 16 view .LVU628
 1879 061c 41EA1141 		orr	r1, r1, r1, lsr #16
 1880              	.LVL178:
 454:Drivers/lvgl/src/draw/sw/../../misc/lv_color.h ****     ret.full = (uint16_t)((result >> 16) | result);
 1881              		.loc 3 454 16 view .LVU629
 1882              	.LBE79:
 1883              	.LBE116:
 1884              	.LBB117:
 1885              	.LBB93:
 453:Drivers/lvgl/src/draw/sw/../../misc/lv_color.h ****     ret.full = (uint16_t)((result >> 16) | result);
 1886              		.loc 3 453 14 view .LVU630
 1887 0620 20F4FC60 		bic	r0, r0, #2016
 1888 0624 49BA     		rev16	r1, r1
 454:Drivers/lvgl/src/draw/sw/../../misc/lv_color.h ****     ret.full = (uint16_t)((result >> 16) | result);
 1889              		.loc 3 454 16 view .LVU631
ARM GAS  /var/folders/0z/tsy30v1j4xl4_7kw94k978ww0000gn/T//cceCRR69.s 			page 63


 1890 0626 40EA1040 		orr	r0, r0, r0, lsr #16
 1891 062a 8DB2     		uxth	r5, r1
 454:Drivers/lvgl/src/draw/sw/../../misc/lv_color.h ****     ret.full = (uint16_t)((result >> 16) | result);
 1892              		.loc 3 454 16 view .LVU632
 1893              	.LBE93:
 1894              	.LBE117:
 1895              	.LBB118:
 1896              	.LBB80:
 457:Drivers/lvgl/src/draw/sw/../../misc/lv_color.h **** #endif
 458:Drivers/lvgl/src/draw/sw/../../misc/lv_color.h **** #elif LV_COLOR_DEPTH != 1
 459:Drivers/lvgl/src/draw/sw/../../misc/lv_color.h ****     /*LV_COLOR_DEPTH == 8, 16 or 32*/
 460:Drivers/lvgl/src/draw/sw/../../misc/lv_color.h ****     LV_COLOR_SET_R(ret, LV_UDIV255((uint16_t)LV_COLOR_GET_R(c1) * mix + LV_COLOR_GET_R(c2) *
 461:Drivers/lvgl/src/draw/sw/../../misc/lv_color.h ****                                    (255 - mix) + LV_COLOR_MIX_ROUND_OFS));
 462:Drivers/lvgl/src/draw/sw/../../misc/lv_color.h ****     LV_COLOR_SET_G(ret, LV_UDIV255((uint16_t)LV_COLOR_GET_G(c1) * mix + LV_COLOR_GET_G(c2) *
 463:Drivers/lvgl/src/draw/sw/../../misc/lv_color.h ****                                    (255 - mix) + LV_COLOR_MIX_ROUND_OFS));
 464:Drivers/lvgl/src/draw/sw/../../misc/lv_color.h ****     LV_COLOR_SET_B(ret, LV_UDIV255((uint16_t)LV_COLOR_GET_B(c1) * mix + LV_COLOR_GET_B(c2) *
 465:Drivers/lvgl/src/draw/sw/../../misc/lv_color.h ****                                    (255 - mix) + LV_COLOR_MIX_ROUND_OFS));
 466:Drivers/lvgl/src/draw/sw/../../misc/lv_color.h ****     LV_COLOR_SET_A(ret, 0xFF);
 467:Drivers/lvgl/src/draw/sw/../../misc/lv_color.h **** #else
 468:Drivers/lvgl/src/draw/sw/../../misc/lv_color.h ****     /*LV_COLOR_DEPTH == 1*/
 469:Drivers/lvgl/src/draw/sw/../../misc/lv_color.h ****     ret.full = mix > LV_OPA_50 ? c1.full : c2.full;
 470:Drivers/lvgl/src/draw/sw/../../misc/lv_color.h **** #endif
 471:Drivers/lvgl/src/draw/sw/../../misc/lv_color.h **** 
 472:Drivers/lvgl/src/draw/sw/../../misc/lv_color.h ****     return ret;
 1897              		.loc 3 472 5 is_stmt 1 view .LVU633
 1898              	.LVL179:
 1899              		.loc 3 472 5 is_stmt 0 view .LVU634
 1900              	.LBE80:
 1901              	.LBE118:
 426:Drivers/lvgl/src/draw/sw/lv_draw_sw_transform.c ****                 cbuf[x] = lv_color_mix(c_hor, c_ver, LV_OPA_50);
 1902              		.loc 1 426 17 is_stmt 1 view .LVU635
 1903              	.LBB119:
 1904              	.LBI81:
 439:Drivers/lvgl/src/draw/sw/../../misc/lv_color.h **** {
 1905              		.loc 3 439 48 view .LVU636
 1906              	.LBB94:
 441:Drivers/lvgl/src/draw/sw/../../misc/lv_color.h **** 
 1907              		.loc 3 441 5 view .LVU637
 445:Drivers/lvgl/src/draw/sw/../../misc/lv_color.h ****     c2.full = c2.full << 8 | c2.full >> 8;
 1908              		.loc 3 445 5 view .LVU638
 446:Drivers/lvgl/src/draw/sw/../../misc/lv_color.h **** #endif
 1909              		.loc 3 446 5 view .LVU639
 449:Drivers/lvgl/src/draw/sw/../../misc/lv_color.h ****     uint32_t bg = (uint32_t)((uint32_t)c2.full | ((uint32_t)c2.full << 16)) &
 1910              		.loc 3 449 5 view .LVU640
 450:Drivers/lvgl/src/draw/sw/../../misc/lv_color.h ****                   0x7E0F81F; /*0b00000111111000001111100000011111*/
 1911              		.loc 3 450 5 view .LVU641
 452:Drivers/lvgl/src/draw/sw/../../misc/lv_color.h ****     uint32_t result = ((((fg - bg) * mix) >> 5) + bg) & 0x7E0F81F;
 1912              		.loc 3 452 5 view .LVU642
 453:Drivers/lvgl/src/draw/sw/../../misc/lv_color.h ****     ret.full = (uint16_t)((result >> 16) | result);
 1913              		.loc 3 453 5 view .LVU643
 454:Drivers/lvgl/src/draw/sw/../../misc/lv_color.h **** #if LV_COLOR_16_SWAP == 1
 1914              		.loc 3 454 5 view .LVU644
 456:Drivers/lvgl/src/draw/sw/../../misc/lv_color.h **** #endif
 1915              		.loc 3 456 5 view .LVU645
 1916 062c 40BA     		rev16	r0, r0
 1917              	.LBE94:
 1918              	.LBE119:
ARM GAS  /var/folders/0z/tsy30v1j4xl4_7kw94k978ww0000gn/T//cceCRR69.s 			page 64


 1919              	.LBB120:
 1920              	.LBB121:
 446:Drivers/lvgl/src/draw/sw/../../misc/lv_color.h **** #endif
 1921              		.loc 3 446 28 is_stmt 0 view .LVU646
 1922 062e C1F30721 		ubfx	r1, r1, #8, #8
 1923 0632 41EA0521 		orr	r1, r1, r5, lsl #8
 1924 0636 85B2     		uxth	r5, r0
 446:Drivers/lvgl/src/draw/sw/../../misc/lv_color.h **** #endif
 1925              		.loc 3 446 28 view .LVU647
 1926              	.LBE121:
 1927              	.LBE120:
 1928              	.LBB123:
 1929              	.LBB95:
 1930              		.loc 3 472 5 is_stmt 1 view .LVU648
 1931              	.LVL180:
 1932              		.loc 3 472 5 is_stmt 0 view .LVU649
 1933              	.LBE95:
 1934              	.LBE123:
 427:Drivers/lvgl/src/draw/sw/lv_draw_sw_transform.c ****             }
 1935              		.loc 1 427 17 is_stmt 1 view .LVU650
 1936              	.LBB124:
 1937              	.LBI120:
 439:Drivers/lvgl/src/draw/sw/../../misc/lv_color.h **** {
 1938              		.loc 3 439 48 view .LVU651
 1939              	.LBB122:
 441:Drivers/lvgl/src/draw/sw/../../misc/lv_color.h **** 
 1940              		.loc 3 441 5 view .LVU652
 445:Drivers/lvgl/src/draw/sw/../../misc/lv_color.h ****     c2.full = c2.full << 8 | c2.full >> 8;
 1941              		.loc 3 445 5 view .LVU653
 446:Drivers/lvgl/src/draw/sw/../../misc/lv_color.h **** #endif
 1942              		.loc 3 446 5 view .LVU654
 449:Drivers/lvgl/src/draw/sw/../../misc/lv_color.h ****     uint32_t bg = (uint32_t)((uint32_t)c2.full | ((uint32_t)c2.full << 16)) &
 1943              		.loc 3 449 5 view .LVU655
 450:Drivers/lvgl/src/draw/sw/../../misc/lv_color.h ****                   0x7E0F81F; /*0b00000111111000001111100000011111*/
 1944              		.loc 3 450 5 view .LVU656
 445:Drivers/lvgl/src/draw/sw/../../misc/lv_color.h ****     c2.full = c2.full << 8 | c2.full >> 8;
 1945              		.loc 3 445 28 is_stmt 0 view .LVU657
 1946 0638 C0F30720 		ubfx	r0, r0, #8, #8
 1947              	.LVL181:
 445:Drivers/lvgl/src/draw/sw/../../misc/lv_color.h ****     c2.full = c2.full << 8 | c2.full >> 8;
 1948              		.loc 3 445 28 view .LVU658
 1949 063c 40EA0520 		orr	r0, r0, r5, lsl #8
 450:Drivers/lvgl/src/draw/sw/../../misc/lv_color.h ****                   0x7E0F81F; /*0b00000111111000001111100000011111*/
 1950              		.loc 3 450 30 view .LVU659
 1951 0640 8DB2     		uxth	r5, r1
 1952              	.LVL182:
 450:Drivers/lvgl/src/draw/sw/../../misc/lv_color.h ****                   0x7E0F81F; /*0b00000111111000001111100000011111*/
 1953              		.loc 3 450 19 view .LVU660
 1954 0642 45EA0145 		orr	r5, r5, r1, lsl #16
 452:Drivers/lvgl/src/draw/sw/../../misc/lv_color.h ****     uint32_t result = ((((fg - bg) * mix) >> 5) + bg) & 0x7E0F81F;
 1955              		.loc 3 452 30 view .LVU661
 1956 0646 81B2     		uxth	r1, r0
 452:Drivers/lvgl/src/draw/sw/../../misc/lv_color.h ****     uint32_t result = ((((fg - bg) * mix) >> 5) + bg) & 0x7E0F81F;
 1957              		.loc 3 452 19 view .LVU662
 1958 0648 41EA0041 		orr	r1, r1, r0, lsl #16
 450:Drivers/lvgl/src/draw/sw/../../misc/lv_color.h ****                   0x7E0F81F; /*0b00000111111000001111100000011111*/
 1959              		.loc 3 450 14 view .LVU663
ARM GAS  /var/folders/0z/tsy30v1j4xl4_7kw94k978ww0000gn/T//cceCRR69.s 			page 65


 1960 064c 25F07845 		bic	r5, r5, #-134217728
 452:Drivers/lvgl/src/draw/sw/../../misc/lv_color.h ****     uint32_t result = ((((fg - bg) * mix) >> 5) + bg) & 0x7E0F81F;
 1961              		.loc 3 452 14 view .LVU664
 1962 0650 21F07841 		bic	r1, r1, #-134217728
 450:Drivers/lvgl/src/draw/sw/../../misc/lv_color.h ****                   0x7E0F81F; /*0b00000111111000001111100000011111*/
 1963              		.loc 3 450 14 view .LVU665
 1964 0654 25F4F815 		bic	r5, r5, #2031616
 452:Drivers/lvgl/src/draw/sw/../../misc/lv_color.h ****     uint32_t result = ((((fg - bg) * mix) >> 5) + bg) & 0x7E0F81F;
 1965              		.loc 3 452 14 view .LVU666
 1966 0658 21F4F811 		bic	r1, r1, #2031616
 450:Drivers/lvgl/src/draw/sw/../../misc/lv_color.h ****                   0x7E0F81F; /*0b00000111111000001111100000011111*/
 1967              		.loc 3 450 14 view .LVU667
 1968 065c 25F4FC65 		bic	r5, r5, #2016
 1969              	.LVL183:
 452:Drivers/lvgl/src/draw/sw/../../misc/lv_color.h ****     uint32_t result = ((((fg - bg) * mix) >> 5) + bg) & 0x7E0F81F;
 1970              		.loc 3 452 5 is_stmt 1 view .LVU668
 453:Drivers/lvgl/src/draw/sw/../../misc/lv_color.h ****     ret.full = (uint16_t)((result >> 16) | result);
 1971              		.loc 3 453 5 view .LVU669
 452:Drivers/lvgl/src/draw/sw/../../misc/lv_color.h ****     uint32_t result = ((((fg - bg) * mix) >> 5) + bg) & 0x7E0F81F;
 1972              		.loc 3 452 14 is_stmt 0 view .LVU670
 1973 0660 21F4FC61 		bic	r1, r1, #2016
 453:Drivers/lvgl/src/draw/sw/../../misc/lv_color.h ****     ret.full = (uint16_t)((result >> 16) | result);
 1974              		.loc 3 453 30 view .LVU671
 1975 0664 491B     		subs	r1, r1, r5
 453:Drivers/lvgl/src/draw/sw/../../misc/lv_color.h ****     ret.full = (uint16_t)((result >> 16) | result);
 1976              		.loc 3 453 43 view .LVU672
 1977 0666 C1F35A01 		ubfx	r1, r1, #1, #27
 453:Drivers/lvgl/src/draw/sw/../../misc/lv_color.h ****     ret.full = (uint16_t)((result >> 16) | result);
 1978              		.loc 3 453 49 view .LVU673
 1979 066a 2944     		add	r1, r1, r5
 453:Drivers/lvgl/src/draw/sw/../../misc/lv_color.h ****     ret.full = (uint16_t)((result >> 16) | result);
 1980              		.loc 3 453 14 view .LVU674
 1981 066c 21F07841 		bic	r1, r1, #-134217728
 1982 0670 21F4F811 		bic	r1, r1, #2031616
 1983 0674 21F4FC61 		bic	r1, r1, #2016
 1984              	.LVL184:
 454:Drivers/lvgl/src/draw/sw/../../misc/lv_color.h **** #if LV_COLOR_16_SWAP == 1
 1985              		.loc 3 454 5 is_stmt 1 view .LVU675
 456:Drivers/lvgl/src/draw/sw/../../misc/lv_color.h **** #endif
 1986              		.loc 3 456 5 view .LVU676
 1987              		.loc 3 472 5 view .LVU677
 454:Drivers/lvgl/src/draw/sw/../../misc/lv_color.h **** #if LV_COLOR_16_SWAP == 1
 1988              		.loc 3 454 16 is_stmt 0 view .LVU678
 1989 0678 41EA1141 		orr	r1, r1, r1, lsr #16
 1990              	.LBE122:
 1991              	.LBE124:
 427:Drivers/lvgl/src/draw/sw/lv_draw_sw_transform.c ****             }
 1992              		.loc 1 427 27 view .LVU679
 1993 067c 49BA     		rev16	r1, r1
 1994 067e 2180     		strh	r1, [r4]	@ movhi
 1995 0680 EFE6     		b	.L45
 1996              	.LVL185:
 1997              	.L41:
 427:Drivers/lvgl/src/draw/sw/lv_draw_sw_transform.c ****             }
 1998              		.loc 1 427 27 view .LVU680
 1999              	.LBE134:
 2000              	.LBE144:
ARM GAS  /var/folders/0z/tsy30v1j4xl4_7kw94k978ww0000gn/T//cceCRR69.s 			page 66


 276:Drivers/lvgl/src/draw/sw/lv_draw_sw_transform.c ****     switch(cf) {
 2001              		.loc 1 276 16 view .LVU681
 2002 0682 0023     		movs	r3, #0
 2003 0684 1C93     		str	r3, [sp, #112]
 284:Drivers/lvgl/src/draw/sw/lv_draw_sw_transform.c ****             break;
 2004              		.loc 1 284 21 view .LVU682
 2005 0686 0323     		movs	r3, #3
 2006 0688 1493     		str	r3, [sp, #80]
 283:Drivers/lvgl/src/draw/sw/lv_draw_sw_transform.c ****             px_size = LV_IMG_PX_SIZE_ALPHA_BYTE;
 2007              		.loc 1 283 23 view .LVU683
 2008 068a 0123     		movs	r3, #1
 2009 068c 1D93     		str	r3, [sp, #116]
 2010 068e 73E6     		b	.L42
 2011              	.LVL186:
 2012              	.L112:
 2013              	.LBB145:
 2014              	.LBB135:
 2015              	.LBB125:
 362:Drivers/lvgl/src/draw/sw/lv_draw_sw_transform.c ****                     a_ver = px_ver[LV_IMG_PX_SIZE_ALPHA_BYTE - 1];
 2016              		.loc 1 362 21 is_stmt 1 view .LVU684
 362:Drivers/lvgl/src/draw/sw/lv_draw_sw_transform.c ****                     a_ver = px_ver[LV_IMG_PX_SIZE_ALPHA_BYTE - 1];
 2017              		.loc 1 362 28 is_stmt 0 view .LVU685
 2018 0690 98F80210 		ldrb	r1, [r8, #2]	@ zero_extendqisi2
 2019              	.LVL187:
 362:Drivers/lvgl/src/draw/sw/lv_draw_sw_transform.c ****                     a_ver = px_ver[LV_IMG_PX_SIZE_ALPHA_BYTE - 1];
 2020              		.loc 1 362 28 view .LVU686
 2021 0694 0846     		mov	r0, r1
 2022              	.LVL188:
 363:Drivers/lvgl/src/draw/sw/lv_draw_sw_transform.c ****                     a_hor = px_hor[LV_IMG_PX_SIZE_ALPHA_BYTE - 1];
 2023              		.loc 1 363 21 is_stmt 1 view .LVU687
 363:Drivers/lvgl/src/draw/sw/lv_draw_sw_transform.c ****                     a_hor = px_hor[LV_IMG_PX_SIZE_ALPHA_BYTE - 1];
 2024              		.loc 1 363 27 is_stmt 0 view .LVU688
 2025 0696 2099     		ldr	r1, [sp, #128]
 2026 0698 8978     		ldrb	r1, [r1, #2]	@ zero_extendqisi2
 2027 069a 0D91     		str	r1, [sp, #52]
 2028              	.LVL189:
 364:Drivers/lvgl/src/draw/sw/lv_draw_sw_transform.c ****                 }
 2029              		.loc 1 364 21 is_stmt 1 view .LVU689
 364:Drivers/lvgl/src/draw/sw/lv_draw_sw_transform.c ****                 }
 2030              		.loc 1 364 27 is_stmt 0 view .LVU690
 2031 069c 1799     		ldr	r1, [sp, #92]
 2032 069e 8978     		ldrb	r1, [r1, #2]	@ zero_extendqisi2
 2033 06a0 1991     		str	r1, [sp, #100]
 2034              	.LVL190:
 2035              	.L53:
 393:Drivers/lvgl/src/draw/sw/lv_draw_sw_transform.c ****                 if(a_hor != a_base) a_hor = ((a_hor * xs_fract) + (a_base * (0x100 - xs_fract))) >>
 2036              		.loc 1 393 17 is_stmt 1 view .LVU691
 393:Drivers/lvgl/src/draw/sw/lv_draw_sw_transform.c ****                 if(a_hor != a_base) a_hor = ((a_hor * xs_fract) + (a_base * (0x100 - xs_fract))) >>
 2037              		.loc 1 393 19 is_stmt 0 view .LVU692
 2038 06a2 0D9F     		ldr	r7, [sp, #52]
 2039 06a4 B842     		cmp	r0, r7
 2040 06a6 0CD0     		beq	.L58
 393:Drivers/lvgl/src/draw/sw/lv_draw_sw_transform.c ****                 if(a_hor != a_base) a_hor = ((a_hor * xs_fract) + (a_base * (0x100 - xs_fract))) >>
 2041              		.loc 1 393 37 is_stmt 1 view .LVU693
 393:Drivers/lvgl/src/draw/sw/lv_draw_sw_transform.c ****                 if(a_hor != a_base) a_hor = ((a_hor * xs_fract) + (a_base * (0x100 - xs_fract))) >>
 2042              		.loc 1 393 53 is_stmt 0 view .LVU694
 2043 06a8 1699     		ldr	r1, [sp, #88]
ARM GAS  /var/folders/0z/tsy30v1j4xl4_7kw94k978ww0000gn/T//cceCRR69.s 			page 67


 2044 06aa 0D91     		str	r1, [sp, #52]
 2045              	.LVL191:
 393:Drivers/lvgl/src/draw/sw/lv_draw_sw_transform.c ****                 if(a_hor != a_base) a_hor = ((a_hor * xs_fract) + (a_base * (0x100 - xs_fract))) >>
 2046              		.loc 1 393 53 view .LVU695
 2047 06ac 01FB07F7 		mul	r7, r1, r7
 2048 06b0 3946     		mov	r1, r7
 393:Drivers/lvgl/src/draw/sw/lv_draw_sw_transform.c ****                 if(a_hor != a_base) a_hor = ((a_hor * xs_fract) + (a_base * (0x100 - xs_fract))) >>
 2049              		.loc 1 393 84 view .LVU696
 2050 06b2 0D9F     		ldr	r7, [sp, #52]
 2051 06b4 C7F58077 		rsb	r7, r7, #256
 393:Drivers/lvgl/src/draw/sw/lv_draw_sw_transform.c ****                 if(a_hor != a_base) a_hor = ((a_hor * xs_fract) + (a_base * (0x100 - xs_fract))) >>
 2052              		.loc 1 393 65 view .LVU697
 2053 06b8 00FB0711 		mla	r1, r0, r7, r1
 393:Drivers/lvgl/src/draw/sw/lv_draw_sw_transform.c ****                 if(a_hor != a_base) a_hor = ((a_hor * xs_fract) + (a_base * (0x100 - xs_fract))) >>
 2054              		.loc 1 393 43 view .LVU698
 2055 06bc C1F30721 		ubfx	r1, r1, #8, #8
 2056 06c0 0D91     		str	r1, [sp, #52]
 2057              	.LVL192:
 2058              	.L58:
 394:Drivers/lvgl/src/draw/sw/lv_draw_sw_transform.c ****                 abuf[x] = (a_ver + a_hor) >> 1;
 2059              		.loc 1 394 17 is_stmt 1 view .LVU699
 394:Drivers/lvgl/src/draw/sw/lv_draw_sw_transform.c ****                 abuf[x] = (a_ver + a_hor) >> 1;
 2060              		.loc 1 394 19 is_stmt 0 view .LVU700
 2061 06c2 199E     		ldr	r6, [sp, #100]
 2062 06c4 B042     		cmp	r0, r6
 2063 06c6 0146     		mov	r1, r0
 2064 06c8 09D0     		beq	.L100
 394:Drivers/lvgl/src/draw/sw/lv_draw_sw_transform.c ****                 abuf[x] = (a_ver + a_hor) >> 1;
 2065              		.loc 1 394 37 is_stmt 1 view .LVU701
 2066              	.LVL193:
 394:Drivers/lvgl/src/draw/sw/lv_draw_sw_transform.c ****                 abuf[x] = (a_ver + a_hor) >> 1;
 2067              		.loc 1 394 53 is_stmt 0 view .LVU702
 2068 06ca 159E     		ldr	r6, [sp, #84]
 2069 06cc 1999     		ldr	r1, [sp, #100]
 2070 06ce 06FB01F1 		mul	r1, r6, r1
 394:Drivers/lvgl/src/draw/sw/lv_draw_sw_transform.c ****                 abuf[x] = (a_ver + a_hor) >> 1;
 2071              		.loc 1 394 84 view .LVU703
 2072 06d2 C6F58076 		rsb	r6, r6, #256
 2073              	.LVL194:
 394:Drivers/lvgl/src/draw/sw/lv_draw_sw_transform.c ****                 abuf[x] = (a_ver + a_hor) >> 1;
 2074              		.loc 1 394 65 view .LVU704
 2075 06d6 00FB0611 		mla	r1, r0, r6, r1
 395:Drivers/lvgl/src/draw/sw/lv_draw_sw_transform.c **** 
 2076              		.loc 1 395 34 view .LVU705
 2077 06da C1F30721 		ubfx	r1, r1, #8, #8
 2078              	.LVL195:
 2079              	.L100:
 395:Drivers/lvgl/src/draw/sw/lv_draw_sw_transform.c **** 
 2080              		.loc 1 395 17 is_stmt 1 view .LVU706
 395:Drivers/lvgl/src/draw/sw/lv_draw_sw_transform.c **** 
 2081              		.loc 1 395 34 is_stmt 0 view .LVU707
 2082 06de 0D98     		ldr	r0, [sp, #52]
 2083 06e0 0144     		add	r1, r1, r0
 395:Drivers/lvgl/src/draw/sw/lv_draw_sw_transform.c **** 
 2084              		.loc 1 395 43 view .LVU708
 2085 06e2 4F10     		asrs	r7, r1, #1
 395:Drivers/lvgl/src/draw/sw/lv_draw_sw_transform.c **** 
ARM GAS  /var/folders/0z/tsy30v1j4xl4_7kw94k978ww0000gn/T//cceCRR69.s 			page 68


 2086              		.loc 1 395 25 view .LVU709
 2087 06e4 C1F34701 		ubfx	r1, r1, #1, #8
 2088 06e8 1170     		strb	r1, [r2]
 397:Drivers/lvgl/src/draw/sw/lv_draw_sw_transform.c **** 
 2089              		.loc 1 397 17 is_stmt 1 view .LVU710
 397:Drivers/lvgl/src/draw/sw/lv_draw_sw_transform.c **** 
 2090              		.loc 1 397 19 is_stmt 0 view .LVU711
 2091 06ea 002F     		cmp	r7, #0
 2092 06ec 3FF4B9AE 		beq	.L45
 2093 06f0 29E7     		b	.L56
 2094              	.LVL196:
 2095              	.L113:
 2096              	.LBB64:
 368:Drivers/lvgl/src/draw/sw/lv_draw_sw_transform.c ****                     a_base = *(a_tmp + (ys_int * src_stride) + xs_int);
 2097              		.loc 1 368 21 is_stmt 1 view .LVU712
 369:Drivers/lvgl/src/draw/sw/lv_draw_sw_transform.c ****                     a_hor = *(a_tmp + (ys_int * src_stride) + xs_int + x_next);
 2098              		.loc 1 369 21 view .LVU713
 370:Drivers/lvgl/src/draw/sw/lv_draw_sw_transform.c ****                     a_ver = *(a_tmp + ((ys_int + y_next) * src_stride) + xs_int);
 2099              		.loc 1 370 27 is_stmt 0 view .LVU714
 2100 06f2 1F9E     		ldr	r6, [sp, #124]
 2101 06f4 0D98     		ldr	r0, [sp, #52]
 371:Drivers/lvgl/src/draw/sw/lv_draw_sw_transform.c ****                 }
 2102              		.loc 1 371 27 view .LVU715
 2103 06f6 0C9F     		ldr	r7, [sp, #48]
 370:Drivers/lvgl/src/draw/sw/lv_draw_sw_transform.c ****                     a_ver = *(a_tmp + ((ys_int + y_next) * src_stride) + xs_int);
 2104              		.loc 1 370 27 view .LVU716
 2105 06f8 3044     		add	r0, r0, r6
 2106 06fa 2190     		str	r0, [sp, #132]
 371:Drivers/lvgl/src/draw/sw/lv_draw_sw_transform.c ****                 }
 2107              		.loc 1 371 27 view .LVU717
 2108 06fc 1E98     		ldr	r0, [sp, #120]
 2109 06fe 00FB0767 		mla	r7, r0, r7, r6
 2110 0702 795C     		ldrb	r1, [r7, r1]	@ zero_extendqisi2
 2111              	.LVL197:
 371:Drivers/lvgl/src/draw/sw/lv_draw_sw_transform.c ****                 }
 2112              		.loc 1 371 27 view .LVU718
 2113 0704 0D91     		str	r1, [sp, #52]
 370:Drivers/lvgl/src/draw/sw/lv_draw_sw_transform.c ****                     a_ver = *(a_tmp + ((ys_int + y_next) * src_stride) + xs_int);
 2114              		.loc 1 370 27 view .LVU719
 2115 0706 219F     		ldr	r7, [sp, #132]
 2116 0708 1999     		ldr	r1, [sp, #100]
 2117 070a 785C     		ldrb	r0, [r7, r1]	@ zero_extendqisi2
 369:Drivers/lvgl/src/draw/sw/lv_draw_sw_transform.c ****                     a_hor = *(a_tmp + (ys_int * src_stride) + xs_int + x_next);
 2118              		.loc 1 369 28 view .LVU720
 2119 070c 715C     		ldrb	r1, [r6, r1]	@ zero_extendqisi2
 370:Drivers/lvgl/src/draw/sw/lv_draw_sw_transform.c ****                     a_ver = *(a_tmp + ((ys_int + y_next) * src_stride) + xs_int);
 2120              		.loc 1 370 27 view .LVU721
 2121 070e 1990     		str	r0, [sp, #100]
 369:Drivers/lvgl/src/draw/sw/lv_draw_sw_transform.c ****                     a_hor = *(a_tmp + (ys_int * src_stride) + xs_int + x_next);
 2122              		.loc 1 369 28 view .LVU722
 2123 0710 0846     		mov	r0, r1
 2124              	.LVL198:
 370:Drivers/lvgl/src/draw/sw/lv_draw_sw_transform.c ****                     a_ver = *(a_tmp + ((ys_int + y_next) * src_stride) + xs_int);
 2125              		.loc 1 370 21 is_stmt 1 view .LVU723
 371:Drivers/lvgl/src/draw/sw/lv_draw_sw_transform.c ****                 }
 2126              		.loc 1 371 21 view .LVU724
 371:Drivers/lvgl/src/draw/sw/lv_draw_sw_transform.c ****                 }
ARM GAS  /var/folders/0z/tsy30v1j4xl4_7kw94k978ww0000gn/T//cceCRR69.s 			page 69


 2127              		.loc 1 371 21 is_stmt 0 view .LVU725
 2128              	.LBE64:
 2129 0712 C6E7     		b	.L53
 2130              	.LVL199:
 2131              	.L55:
 375:Drivers/lvgl/src/draw/sw/lv_draw_sw_transform.c ****                        ((lv_color_t *)px_ver)->full == ck.full ||
 2132              		.loc 1 375 21 is_stmt 1 view .LVU726
 375:Drivers/lvgl/src/draw/sw/lv_draw_sw_transform.c ****                        ((lv_color_t *)px_ver)->full == ck.full ||
 2133              		.loc 1 375 23 is_stmt 0 view .LVU727
 2134 0714 1198     		ldr	r0, [sp, #68]
 2135 0716 0B99     		ldr	r1, [sp, #44]
 2136 0718 095A     		ldrh	r1, [r1, r0]
 2137 071a 1C98     		ldr	r0, [sp, #112]
 2138 071c 8142     		cmp	r1, r0
 2139 071e 3FF49EAE 		beq	.L71
 375:Drivers/lvgl/src/draw/sw/lv_draw_sw_transform.c ****                        ((lv_color_t *)px_ver)->full == ck.full ||
 2140              		.loc 1 375 65 view .LVU728
 2141 0722 38F80510 		ldrh	r1, [r8, r5]
 2142 0726 8142     		cmp	r1, r0
 2143 0728 3FF499AE 		beq	.L71
 376:Drivers/lvgl/src/draw/sw/lv_draw_sw_transform.c ****                        ((lv_color_t *)px_hor)->full == ck.full) {
 2144              		.loc 1 376 64 view .LVU729
 2145 072c 1299     		ldr	r1, [sp, #72]
 2146 072e 38F80110 		ldrh	r1, [r8, r1]
 2147 0732 8142     		cmp	r1, r0
 2148 0734 7FF404AF 		bne	.L101
 2149 0738 91E6     		b	.L71
 2150              	.LBE125:
 2151              	.LBE135:
 2152              	.LBE145:
 2153              	.LBE147:
 2154              	.LBE175:
 2155              	.LBE178:
 2156              		.cfi_endproc
 2157              	.LFE161:
 2159 073a 00BF     		.text
 2160              	.Letext0:
 2161              		.file 4 "/Users/johannes/Library/Application Support/Code/User/globalStorage/bmd.stm32-for-vscode/
 2162              		.file 5 "/Users/johannes/Library/Application Support/Code/User/globalStorage/bmd.stm32-for-vscode/
 2163              		.file 6 "Drivers/lvgl/src/draw/sw/../../misc/lv_types.h"
 2164              		.file 7 "/Users/johannes/Library/Application Support/Code/User/globalStorage/bmd.stm32-for-vscode/
 2165              		.file 8 "Drivers/lvgl/src/draw/sw/../../misc/../font/lv_font.h"
 2166              		.file 9 "Drivers/lvgl/src/draw/sw/../../misc/lv_txt.h"
 2167              		.file 10 "Drivers/lvgl/src/draw/sw/../../misc/lv_bidi.h"
 2168              		.file 11 "Drivers/lvgl/src/draw/sw/../../misc/lv_style.h"
 2169              		.file 12 "Drivers/lvgl/src/draw/sw/../lv_img_buf.h"
 2170              		.file 13 "Drivers/lvgl/src/draw/sw/../../core/lv_obj.h"
 2171              		.file 14 "Drivers/lvgl/src/draw/sw/../lv_draw_rect.h"
 2172              		.file 15 "Drivers/lvgl/src/draw/sw/../lv_draw_label.h"
 2173              		.file 16 "Drivers/lvgl/src/draw/sw/../lv_draw_img.h"
 2174              		.file 17 "Drivers/lvgl/src/draw/sw/../lv_draw_line.h"
 2175              		.file 18 "Drivers/lvgl/src/draw/sw/../lv_draw_arc.h"
 2176              		.file 19 "Drivers/lvgl/src/draw/sw/../lv_draw_layer.h"
 2177              		.file 20 "Drivers/lvgl/src/draw/sw/../lv_draw.h"
 2178              		.file 21 "Drivers/lvgl/src/draw/sw/../../hal/../misc/lv_timer.h"
 2179              		.file 22 "Drivers/lvgl/src/draw/sw/../../hal/lv_hal_disp.h"
 2180              		.file 23 "Drivers/lvgl/src/draw/sw/../../core/lv_group.h"
ARM GAS  /var/folders/0z/tsy30v1j4xl4_7kw94k978ww0000gn/T//cceCRR69.s 			page 70


 2181              		.file 24 "Drivers/lvgl/src/draw/sw/../../hal/../misc/lv_ll.h"
 2182              		.file 25 "Drivers/lvgl/src/draw/sw/../../core/lv_obj_scroll.h"
 2183              		.file 26 "Drivers/lvgl/src/draw/sw/../../core/lv_obj_style.h"
 2184              		.file 27 "Drivers/lvgl/src/draw/sw/../../core/lv_obj_class.h"
 2185              		.file 28 "Drivers/lvgl/src/draw/sw/../../core/lv_event.h"
 2186              		.file 29 "Drivers/lvgl/src/draw/sw/../../misc/lv_mem.h"
 2187              		.file 30 "Drivers/lvgl/src/draw/sw/../../core/lv_refr.h"
 2188              		.file 31 "Drivers/lvgl/src/draw/sw/../../misc/lv_math.h"
ARM GAS  /var/folders/0z/tsy30v1j4xl4_7kw94k978ww0000gn/T//cceCRR69.s 			page 71


DEFINED SYMBOLS
                            *ABS*:0000000000000000 lv_draw_sw_transform.c
/var/folders/0z/tsy30v1j4xl4_7kw94k978ww0000gn/T//cceCRR69.s:20     .text.transform_point_upscaled:0000000000000000 $t
/var/folders/0z/tsy30v1j4xl4_7kw94k978ww0000gn/T//cceCRR69.s:26     .text.transform_point_upscaled:0000000000000000 transform_point_upscaled
/var/folders/0z/tsy30v1j4xl4_7kw94k978ww0000gn/T//cceCRR69.s:234    .text.lv_draw_sw_transform:0000000000000000 $t
/var/folders/0z/tsy30v1j4xl4_7kw94k978ww0000gn/T//cceCRR69.s:241    .text.lv_draw_sw_transform:0000000000000000 lv_draw_sw_transform
/var/folders/0z/tsy30v1j4xl4_7kw94k978ww0000gn/T//cceCRR69.s:620    .text.lv_draw_sw_transform:000000000000017e $d
/var/folders/0z/tsy30v1j4xl4_7kw94k978ww0000gn/T//cceCRR69.s:939    .text.lv_draw_sw_transform:00000000000002ac $d
/var/folders/0z/tsy30v1j4xl4_7kw94k978ww0000gn/T//cceCRR69.s:949    .text.lv_draw_sw_transform:00000000000002b0 $t
/var/folders/0z/tsy30v1j4xl4_7kw94k978ww0000gn/T//cceCRR69.s:1071   .text.lv_draw_sw_transform:0000000000000328 $d
/var/folders/0z/tsy30v1j4xl4_7kw94k978ww0000gn/T//cceCRR69.s:1088   .text.lv_draw_sw_transform:000000000000036c $t
/var/folders/0z/tsy30v1j4xl4_7kw94k978ww0000gn/T//cceCRR69.s:638    .text.lv_draw_sw_transform:000000000000018f $d
/var/folders/0z/tsy30v1j4xl4_7kw94k978ww0000gn/T//cceCRR69.s:638    .text.lv_draw_sw_transform:0000000000000190 $t

UNDEFINED SYMBOLS
lv_trigo_sin
_lv_refr_get_disp_refreshing
lv_memset_ff
