ARM GAS  /var/folders/0z/tsy30v1j4xl4_7kw94k978ww0000gn/T//ccAYAUvH.s 			page 1


   1              		.cpu cortex-m4
   2              		.arch armv7e-m
   3              		.fpu fpv4-sp-d16
   4              		.eabi_attribute 27, 1
   5              		.eabi_attribute 28, 1
   6              		.eabi_attribute 23, 1
   7              		.eabi_attribute 24, 1
   8              		.eabi_attribute 25, 1
   9              		.eabi_attribute 26, 1
  10              		.eabi_attribute 30, 2
  11              		.eabi_attribute 34, 1
  12              		.eabi_attribute 18, 4
  13              		.file	"lv_draw_sw_transform.c"
  14              		.text
  15              	.Ltext0:
  16              		.cfi_sections	.debug_frame
  17              		.section	.text.lv_draw_sw_transform,"ax",%progbits
  18              		.align	1
  19              		.p2align 2,,3
  20              		.global	lv_draw_sw_transform
  21              		.syntax unified
  22              		.thumb
  23              		.thumb_func
  25              	lv_draw_sw_transform:
  26              	.LVL0:
  27              	.LFB161:
  28              		.file 1 "Drivers/lvgl/src/draw/sw/lv_draw_sw_transform.c"
   1:Drivers/lvgl/src/draw/sw/lv_draw_sw_transform.c **** /**
   2:Drivers/lvgl/src/draw/sw/lv_draw_sw_transform.c ****  * @file lv_draw_sw_tranform.c
   3:Drivers/lvgl/src/draw/sw/lv_draw_sw_transform.c ****  *
   4:Drivers/lvgl/src/draw/sw/lv_draw_sw_transform.c ****  */
   5:Drivers/lvgl/src/draw/sw/lv_draw_sw_transform.c **** 
   6:Drivers/lvgl/src/draw/sw/lv_draw_sw_transform.c **** /*********************
   7:Drivers/lvgl/src/draw/sw/lv_draw_sw_transform.c ****  *      INCLUDES
   8:Drivers/lvgl/src/draw/sw/lv_draw_sw_transform.c ****  *********************/
   9:Drivers/lvgl/src/draw/sw/lv_draw_sw_transform.c **** #include "lv_draw_sw.h"
  10:Drivers/lvgl/src/draw/sw/lv_draw_sw_transform.c **** #include "../../misc/lv_assert.h"
  11:Drivers/lvgl/src/draw/sw/lv_draw_sw_transform.c **** #include "../../misc/lv_area.h"
  12:Drivers/lvgl/src/draw/sw/lv_draw_sw_transform.c **** #include "../../core/lv_refr.h"
  13:Drivers/lvgl/src/draw/sw/lv_draw_sw_transform.c **** 
  14:Drivers/lvgl/src/draw/sw/lv_draw_sw_transform.c **** #if LV_DRAW_COMPLEX
  15:Drivers/lvgl/src/draw/sw/lv_draw_sw_transform.c **** /*********************
  16:Drivers/lvgl/src/draw/sw/lv_draw_sw_transform.c ****  *      DEFINES
  17:Drivers/lvgl/src/draw/sw/lv_draw_sw_transform.c ****  *********************/
  18:Drivers/lvgl/src/draw/sw/lv_draw_sw_transform.c **** 
  19:Drivers/lvgl/src/draw/sw/lv_draw_sw_transform.c **** /**********************
  20:Drivers/lvgl/src/draw/sw/lv_draw_sw_transform.c ****  *      TYPEDEFS
  21:Drivers/lvgl/src/draw/sw/lv_draw_sw_transform.c ****  **********************/
  22:Drivers/lvgl/src/draw/sw/lv_draw_sw_transform.c **** typedef struct {
  23:Drivers/lvgl/src/draw/sw/lv_draw_sw_transform.c ****     int32_t x_in;
  24:Drivers/lvgl/src/draw/sw/lv_draw_sw_transform.c ****     int32_t y_in;
  25:Drivers/lvgl/src/draw/sw/lv_draw_sw_transform.c ****     int32_t x_out;
  26:Drivers/lvgl/src/draw/sw/lv_draw_sw_transform.c ****     int32_t y_out;
  27:Drivers/lvgl/src/draw/sw/lv_draw_sw_transform.c ****     int32_t sinma;
  28:Drivers/lvgl/src/draw/sw/lv_draw_sw_transform.c ****     int32_t cosma;
  29:Drivers/lvgl/src/draw/sw/lv_draw_sw_transform.c ****     int32_t zoom;
  30:Drivers/lvgl/src/draw/sw/lv_draw_sw_transform.c ****     int32_t angle;
ARM GAS  /var/folders/0z/tsy30v1j4xl4_7kw94k978ww0000gn/T//ccAYAUvH.s 			page 2


  31:Drivers/lvgl/src/draw/sw/lv_draw_sw_transform.c ****     int32_t pivot_x_256;
  32:Drivers/lvgl/src/draw/sw/lv_draw_sw_transform.c ****     int32_t pivot_y_256;
  33:Drivers/lvgl/src/draw/sw/lv_draw_sw_transform.c ****     lv_point_t pivot;
  34:Drivers/lvgl/src/draw/sw/lv_draw_sw_transform.c **** } point_transform_dsc_t;
  35:Drivers/lvgl/src/draw/sw/lv_draw_sw_transform.c **** 
  36:Drivers/lvgl/src/draw/sw/lv_draw_sw_transform.c **** /**********************
  37:Drivers/lvgl/src/draw/sw/lv_draw_sw_transform.c ****  *  STATIC PROTOTYPES
  38:Drivers/lvgl/src/draw/sw/lv_draw_sw_transform.c ****  **********************/
  39:Drivers/lvgl/src/draw/sw/lv_draw_sw_transform.c **** /**
  40:Drivers/lvgl/src/draw/sw/lv_draw_sw_transform.c ****  * Transform a point with 1/256 precision (the output coordinates are upscaled by 256)
  41:Drivers/lvgl/src/draw/sw/lv_draw_sw_transform.c ****  * @param t         pointer to n initialized `point_transform_dsc_t` structure
  42:Drivers/lvgl/src/draw/sw/lv_draw_sw_transform.c ****  * @param xin       X coordinate to rotate
  43:Drivers/lvgl/src/draw/sw/lv_draw_sw_transform.c ****  * @param yin       Y coordinate to rotate
  44:Drivers/lvgl/src/draw/sw/lv_draw_sw_transform.c ****  * @param xout      upscaled, transformed X
  45:Drivers/lvgl/src/draw/sw/lv_draw_sw_transform.c ****  * @param yout      upscaled, transformed Y
  46:Drivers/lvgl/src/draw/sw/lv_draw_sw_transform.c ****  */
  47:Drivers/lvgl/src/draw/sw/lv_draw_sw_transform.c **** static void transform_point_upscaled(point_transform_dsc_t * t, int32_t xin, int32_t yin, int32_t *
  48:Drivers/lvgl/src/draw/sw/lv_draw_sw_transform.c ****                                      int32_t * yout);
  49:Drivers/lvgl/src/draw/sw/lv_draw_sw_transform.c **** 
  50:Drivers/lvgl/src/draw/sw/lv_draw_sw_transform.c **** static void argb_no_aa(const uint8_t * src, lv_coord_t src_w, lv_coord_t src_h, lv_coord_t src_stri
  51:Drivers/lvgl/src/draw/sw/lv_draw_sw_transform.c ****                        int32_t xs_ups, int32_t ys_ups, int32_t xs_step, int32_t ys_step,
  52:Drivers/lvgl/src/draw/sw/lv_draw_sw_transform.c ****                        int32_t x_end, lv_color_t * cbuf, uint8_t * abuf);
  53:Drivers/lvgl/src/draw/sw/lv_draw_sw_transform.c **** 
  54:Drivers/lvgl/src/draw/sw/lv_draw_sw_transform.c **** static void rgb_no_aa(const uint8_t * src, lv_coord_t src_w, lv_coord_t src_h, lv_coord_t src_strid
  55:Drivers/lvgl/src/draw/sw/lv_draw_sw_transform.c ****                       int32_t xs_ups, int32_t ys_ups, int32_t xs_step, int32_t ys_step,
  56:Drivers/lvgl/src/draw/sw/lv_draw_sw_transform.c ****                       int32_t x_end, lv_color_t * cbuf, uint8_t * abuf, lv_img_cf_t cf);
  57:Drivers/lvgl/src/draw/sw/lv_draw_sw_transform.c **** 
  58:Drivers/lvgl/src/draw/sw/lv_draw_sw_transform.c **** #if LV_COLOR_DEPTH == 16
  59:Drivers/lvgl/src/draw/sw/lv_draw_sw_transform.c **** static void rgb565a8_no_aa(const uint8_t * src, lv_coord_t src_w, lv_coord_t src_h, lv_coord_t src_
  60:Drivers/lvgl/src/draw/sw/lv_draw_sw_transform.c ****                            int32_t xs_ups, int32_t ys_ups, int32_t xs_step, int32_t ys_step,
  61:Drivers/lvgl/src/draw/sw/lv_draw_sw_transform.c ****                            int32_t x_end, lv_color_t * cbuf, uint8_t * abuf);
  62:Drivers/lvgl/src/draw/sw/lv_draw_sw_transform.c **** #endif
  63:Drivers/lvgl/src/draw/sw/lv_draw_sw_transform.c **** 
  64:Drivers/lvgl/src/draw/sw/lv_draw_sw_transform.c **** static void argb_and_rgb_aa(const uint8_t * src, lv_coord_t src_w, lv_coord_t src_h, lv_coord_t src
  65:Drivers/lvgl/src/draw/sw/lv_draw_sw_transform.c ****                             int32_t xs_ups, int32_t ys_ups, int32_t xs_step, int32_t ys_step,
  66:Drivers/lvgl/src/draw/sw/lv_draw_sw_transform.c ****                             int32_t x_end, lv_color_t * cbuf, uint8_t * abuf, lv_img_cf_t cf);
  67:Drivers/lvgl/src/draw/sw/lv_draw_sw_transform.c **** 
  68:Drivers/lvgl/src/draw/sw/lv_draw_sw_transform.c **** /**********************
  69:Drivers/lvgl/src/draw/sw/lv_draw_sw_transform.c ****  *  STATIC VARIABLES
  70:Drivers/lvgl/src/draw/sw/lv_draw_sw_transform.c ****  **********************/
  71:Drivers/lvgl/src/draw/sw/lv_draw_sw_transform.c **** 
  72:Drivers/lvgl/src/draw/sw/lv_draw_sw_transform.c **** /**********************
  73:Drivers/lvgl/src/draw/sw/lv_draw_sw_transform.c ****  *      MACROS
  74:Drivers/lvgl/src/draw/sw/lv_draw_sw_transform.c ****  **********************/
  75:Drivers/lvgl/src/draw/sw/lv_draw_sw_transform.c **** 
  76:Drivers/lvgl/src/draw/sw/lv_draw_sw_transform.c **** /**********************
  77:Drivers/lvgl/src/draw/sw/lv_draw_sw_transform.c ****  *   GLOBAL FUNCTIONS
  78:Drivers/lvgl/src/draw/sw/lv_draw_sw_transform.c ****  **********************/
  79:Drivers/lvgl/src/draw/sw/lv_draw_sw_transform.c **** 
  80:Drivers/lvgl/src/draw/sw/lv_draw_sw_transform.c **** void lv_draw_sw_transform(lv_draw_ctx_t * draw_ctx, const lv_area_t * dest_area, const void * src_b
  81:Drivers/lvgl/src/draw/sw/lv_draw_sw_transform.c ****                           lv_coord_t src_w, lv_coord_t src_h, lv_coord_t src_stride,
  82:Drivers/lvgl/src/draw/sw/lv_draw_sw_transform.c ****                           const lv_draw_img_dsc_t * draw_dsc, lv_img_cf_t cf, lv_color_t * cbuf, lv
  83:Drivers/lvgl/src/draw/sw/lv_draw_sw_transform.c **** {
  29              		.loc 1 83 1 view -0
  30              		.cfi_startproc
  31              		@ args = 24, pretend = 0, frame = 160
  32              		@ frame_needed = 0, uses_anonymous_args = 0
ARM GAS  /var/folders/0z/tsy30v1j4xl4_7kw94k978ww0000gn/T//ccAYAUvH.s 			page 3


  33              		.loc 1 83 1 is_stmt 0 view .LVU1
  34 0000 2DE9F04F 		push	{r4, r5, r6, r7, r8, r9, r10, fp, lr}
  35              		.cfi_def_cfa_offset 36
  36              		.cfi_offset 4, -36
  37              		.cfi_offset 5, -32
  38              		.cfi_offset 6, -28
  39              		.cfi_offset 7, -24
  40              		.cfi_offset 8, -20
  41              		.cfi_offset 9, -16
  42              		.cfi_offset 10, -12
  43              		.cfi_offset 11, -8
  44              		.cfi_offset 14, -4
  45 0004 A9B0     		sub	sp, sp, #164
  46              		.cfi_def_cfa_offset 200
  84:Drivers/lvgl/src/draw/sw/lv_draw_sw_transform.c ****     LV_UNUSED(draw_ctx);
  85:Drivers/lvgl/src/draw/sw/lv_draw_sw_transform.c **** 
  86:Drivers/lvgl/src/draw/sw/lv_draw_sw_transform.c ****     point_transform_dsc_t tr_dsc;
  87:Drivers/lvgl/src/draw/sw/lv_draw_sw_transform.c ****     tr_dsc.angle = -draw_dsc->angle;
  88:Drivers/lvgl/src/draw/sw/lv_draw_sw_transform.c ****     tr_dsc.zoom = (256 * 256) / draw_dsc->zoom;
  89:Drivers/lvgl/src/draw/sw/lv_draw_sw_transform.c ****     tr_dsc.pivot = draw_dsc->pivot;
  90:Drivers/lvgl/src/draw/sw/lv_draw_sw_transform.c **** 
  91:Drivers/lvgl/src/draw/sw/lv_draw_sw_transform.c ****     int32_t angle_low = tr_dsc.angle / 10;
  47              		.loc 1 91 13 view .LVU2
  48 0006 7B4D     		ldr	r5, .L148
  83:Drivers/lvgl/src/draw/sw/lv_draw_sw_transform.c ****     LV_UNUSED(draw_ctx);
  49              		.loc 1 83 1 view .LVU3
  50 0008 0393     		str	r3, [sp, #12]
  84:Drivers/lvgl/src/draw/sw/lv_draw_sw_transform.c ****     LV_UNUSED(draw_ctx);
  51              		.loc 1 84 5 is_stmt 1 view .LVU4
  86:Drivers/lvgl/src/draw/sw/lv_draw_sw_transform.c ****     tr_dsc.angle = -draw_dsc->angle;
  52              		.loc 1 86 5 view .LVU5
  87:Drivers/lvgl/src/draw/sw/lv_draw_sw_transform.c ****     tr_dsc.zoom = (256 * 256) / draw_dsc->zoom;
  53              		.loc 1 87 5 view .LVU6
  87:Drivers/lvgl/src/draw/sw/lv_draw_sw_transform.c ****     tr_dsc.zoom = (256 * 256) / draw_dsc->zoom;
  54              		.loc 1 87 29 is_stmt 0 view .LVU7
  55 000a 349B     		ldr	r3, [sp, #208]
  56              	.LVL1:
  83:Drivers/lvgl/src/draw/sw/lv_draw_sw_transform.c ****     LV_UNUSED(draw_ctx);
  57              		.loc 1 83 1 view .LVU8
  58 000c BDF9C800 		ldrsh	r0, [sp, #200]
  59              	.LVL2:
  87:Drivers/lvgl/src/draw/sw/lv_draw_sw_transform.c ****     tr_dsc.zoom = (256 * 256) / draw_dsc->zoom;
  60              		.loc 1 87 29 view .LVU9
  61 0010 B3F90030 		ldrsh	r3, [r3]
  83:Drivers/lvgl/src/draw/sw/lv_draw_sw_transform.c ****     LV_UNUSED(draw_ctx);
  62              		.loc 1 83 1 view .LVU10
  63 0014 0A92     		str	r2, [sp, #40]
  87:Drivers/lvgl/src/draw/sw/lv_draw_sw_transform.c ****     tr_dsc.zoom = (256 * 256) / draw_dsc->zoom;
  64              		.loc 1 87 20 view .LVU11
  65 0016 5E42     		rsbs	r6, r3, #0
  83:Drivers/lvgl/src/draw/sw/lv_draw_sw_transform.c ****     LV_UNUSED(draw_ctx);
  66              		.loc 1 83 1 view .LVU12
  67 0018 0790     		str	r0, [sp, #28]
  68 001a 9346     		mov	fp, r2
  87:Drivers/lvgl/src/draw/sw/lv_draw_sw_transform.c ****     tr_dsc.zoom = (256 * 256) / draw_dsc->zoom;
  69              		.loc 1 87 29 view .LVU13
  70 001c 1846     		mov	r0, r3
ARM GAS  /var/folders/0z/tsy30v1j4xl4_7kw94k978ww0000gn/T//ccAYAUvH.s 			page 4


  71 001e 0993     		str	r3, [sp, #36]
  88:Drivers/lvgl/src/draw/sw/lv_draw_sw_transform.c ****     tr_dsc.pivot = draw_dsc->pivot;
  72              		.loc 1 88 5 is_stmt 1 view .LVU14
  73              		.loc 1 91 13 is_stmt 0 view .LVU15
  74 0020 85FB0623 		smull	r2, r3, r5, r6
  75              	.LVL3:
  89:Drivers/lvgl/src/draw/sw/lv_draw_sw_transform.c **** 
  76              		.loc 1 89 18 view .LVU16
  77 0024 349A     		ldr	r2, [sp, #208]
  83:Drivers/lvgl/src/draw/sw/lv_draw_sw_transform.c ****     LV_UNUSED(draw_ctx);
  78              		.loc 1 83 1 view .LVU17
  79 0026 9DF8D4C0 		ldrb	ip, [sp, #212]	@ zero_extendqisi2
  89:Drivers/lvgl/src/draw/sw/lv_draw_sw_transform.c **** 
  80              		.loc 1 89 18 view .LVU18
  81 002a B2F90420 		ldrsh	r2, [r2, #4]
  82 002e 0B92     		str	r2, [sp, #44]
  83              		.loc 1 91 13 view .LVU19
  84 0030 F617     		asrs	r6, r6, #31
  85 0032 C6EBA306 		rsb	r6, r6, r3, asr #2
  89:Drivers/lvgl/src/draw/sw/lv_draw_sw_transform.c **** 
  86              		.loc 1 89 18 view .LVU20
  87 0036 349A     		ldr	r2, [sp, #208]
  88:Drivers/lvgl/src/draw/sw/lv_draw_sw_transform.c ****     tr_dsc.pivot = draw_dsc->pivot;
  88              		.loc 1 88 41 view .LVU21
  89 0038 349B     		ldr	r3, [sp, #208]
  83:Drivers/lvgl/src/draw/sw/lv_draw_sw_transform.c ****     LV_UNUSED(draw_ctx);
  90              		.loc 1 83 1 view .LVU22
  91 003a BDF9CC40 		ldrsh	r4, [sp, #204]
  89:Drivers/lvgl/src/draw/sw/lv_draw_sw_transform.c **** 
  92              		.loc 1 89 18 view .LVU23
  93 003e B2F90620 		ldrsh	r2, [r2, #6]
  83:Drivers/lvgl/src/draw/sw/lv_draw_sw_transform.c ****     LV_UNUSED(draw_ctx);
  94              		.loc 1 83 1 view .LVU24
  95 0042 1691     		str	r1, [sp, #88]
  92:Drivers/lvgl/src/draw/sw/lv_draw_sw_transform.c ****     int32_t angle_high = angle_low + 1;
  93:Drivers/lvgl/src/draw/sw/lv_draw_sw_transform.c ****     int32_t angle_rem = tr_dsc.angle  - (angle_low * 10);
  96              		.loc 1 93 52 view .LVU25
  97 0044 6FF00907 		mvn	r7, #9
  98 0048 06FB07F7 		mul	r7, r6, r7
  99 004c 3F1A     		subs	r7, r7, r0
  94:Drivers/lvgl/src/draw/sw/lv_draw_sw_transform.c **** 
  95:Drivers/lvgl/src/draw/sw/lv_draw_sw_transform.c ****     int32_t s1 = lv_trigo_sin(angle_low);
 100              		.loc 1 95 18 view .LVU26
 101 004e 30B2     		sxth	r0, r6
  83:Drivers/lvgl/src/draw/sw/lv_draw_sw_transform.c ****     LV_UNUSED(draw_ctx);
 102              		.loc 1 83 1 view .LVU27
 103 0050 8946     		mov	r9, r1
 104 0052 CDF85CC0 		str	ip, [sp, #92]
  88:Drivers/lvgl/src/draw/sw/lv_draw_sw_transform.c ****     tr_dsc.pivot = draw_dsc->pivot;
 105              		.loc 1 88 41 view .LVU28
 106 0056 5B88     		ldrh	r3, [r3, #2]
  83:Drivers/lvgl/src/draw/sw/lv_draw_sw_transform.c ****     LV_UNUSED(draw_ctx);
 107              		.loc 1 83 1 view .LVU29
 108 0058 0C94     		str	r4, [sp, #48]
  89:Drivers/lvgl/src/draw/sw/lv_draw_sw_transform.c **** 
 109              		.loc 1 89 18 view .LVU30
 110 005a 0F92     		str	r2, [sp, #60]
ARM GAS  /var/folders/0z/tsy30v1j4xl4_7kw94k978ww0000gn/T//ccAYAUvH.s 			page 5


  88:Drivers/lvgl/src/draw/sw/lv_draw_sw_transform.c ****     tr_dsc.pivot = draw_dsc->pivot;
 111              		.loc 1 88 31 view .LVU31
 112 005c 4FF48032 		mov	r2, #65536
 113 0060 B2FBF3F3 		udiv	r3, r2, r3
 114 0064 0893     		str	r3, [sp, #32]
  89:Drivers/lvgl/src/draw/sw/lv_draw_sw_transform.c **** 
 115              		.loc 1 89 5 is_stmt 1 view .LVU32
  91:Drivers/lvgl/src/draw/sw/lv_draw_sw_transform.c ****     int32_t angle_high = angle_low + 1;
 116              		.loc 1 91 5 view .LVU33
 117              	.LVL4:
  92:Drivers/lvgl/src/draw/sw/lv_draw_sw_transform.c ****     int32_t angle_rem = tr_dsc.angle  - (angle_low * 10);
 118              		.loc 1 92 5 view .LVU34
 119              		.loc 1 95 18 is_stmt 0 view .LVU35
 120 0066 FFF7FEFF 		bl	lv_trigo_sin
 121              	.LVL5:
  92:Drivers/lvgl/src/draw/sw/lv_draw_sw_transform.c ****     int32_t angle_rem = tr_dsc.angle  - (angle_low * 10);
 122              		.loc 1 92 13 view .LVU36
 123 006a 741C     		adds	r4, r6, #1
 124              	.LVL6:
  93:Drivers/lvgl/src/draw/sw/lv_draw_sw_transform.c **** 
 125              		.loc 1 93 5 is_stmt 1 view .LVU37
 126              		.loc 1 95 5 view .LVU38
 127              		.loc 1 95 18 is_stmt 0 view .LVU39
 128 006c 8046     		mov	r8, r0
  96:Drivers/lvgl/src/draw/sw/lv_draw_sw_transform.c ****     int32_t s2 = lv_trigo_sin(angle_high);
 129              		.loc 1 96 18 view .LVU40
 130 006e 20B2     		sxth	r0, r4
 131              	.LVL7:
 132              		.loc 1 96 5 is_stmt 1 view .LVU41
 133              		.loc 1 96 18 is_stmt 0 view .LVU42
 134 0070 FFF7FEFF 		bl	lv_trigo_sin
 135              	.LVL8:
 136 0074 0446     		mov	r4, r0
 137              	.LVL9:
  97:Drivers/lvgl/src/draw/sw/lv_draw_sw_transform.c **** 
  98:Drivers/lvgl/src/draw/sw/lv_draw_sw_transform.c ****     int32_t c1 = lv_trigo_sin(angle_low + 90);
 138              		.loc 1 98 5 is_stmt 1 view .LVU43
 139              		.loc 1 98 41 is_stmt 0 view .LVU44
 140 0076 06F15A00 		add	r0, r6, #90
 141              		.loc 1 98 18 view .LVU45
 142 007a 00B2     		sxth	r0, r0
 143 007c FFF7FEFF 		bl	lv_trigo_sin
 144              	.LVL10:
 145 0080 0346     		mov	r3, r0
  99:Drivers/lvgl/src/draw/sw/lv_draw_sw_transform.c ****     int32_t c2 = lv_trigo_sin(angle_high + 90);
 146              		.loc 1 99 42 view .LVU46
 147 0082 06F15B00 		add	r0, r6, #91
 148              		.loc 1 99 18 view .LVU47
 149 0086 00B2     		sxth	r0, r0
  98:Drivers/lvgl/src/draw/sw/lv_draw_sw_transform.c ****     int32_t c2 = lv_trigo_sin(angle_high + 90);
 150              		.loc 1 98 18 view .LVU48
 151 0088 1E46     		mov	r6, r3
 152              	.LVL11:
 153              		.loc 1 99 5 is_stmt 1 view .LVU49
 154              		.loc 1 99 18 is_stmt 0 view .LVU50
 155 008a FFF7FEFF 		bl	lv_trigo_sin
 156              	.LVL12:
ARM GAS  /var/folders/0z/tsy30v1j4xl4_7kw94k978ww0000gn/T//ccAYAUvH.s 			page 6


 100:Drivers/lvgl/src/draw/sw/lv_draw_sw_transform.c **** 
 101:Drivers/lvgl/src/draw/sw/lv_draw_sw_transform.c ****     tr_dsc.sinma = (s1 * (10 - angle_rem) + s2 * angle_rem) / 10;
 157              		.loc 1 101 5 is_stmt 1 view .LVU51
 158              		.loc 1 101 48 is_stmt 0 view .LVU52
 159 008e 07FB04F4 		mul	r4, r7, r4
 160              	.LVL13:
 102:Drivers/lvgl/src/draw/sw/lv_draw_sw_transform.c ****     tr_dsc.cosma = (c1 * (10 - angle_rem) + c2 * angle_rem) / 10;
 161              		.loc 1 102 48 view .LVU53
 162 0092 07FB00F0 		mul	r0, r7, r0
 163              	.LVL14:
 164              	.LBB42:
 165              	.LBB43:
 166              		.file 2 "Drivers/lvgl/src/draw/sw/../../misc/lv_area.h"
   1:Drivers/lvgl/src/draw/sw/../../misc/lv_area.h **** /**
   2:Drivers/lvgl/src/draw/sw/../../misc/lv_area.h ****  * @file lv_area.h
   3:Drivers/lvgl/src/draw/sw/../../misc/lv_area.h ****  *
   4:Drivers/lvgl/src/draw/sw/../../misc/lv_area.h ****  */
   5:Drivers/lvgl/src/draw/sw/../../misc/lv_area.h **** 
   6:Drivers/lvgl/src/draw/sw/../../misc/lv_area.h **** #ifndef LV_AREA_H
   7:Drivers/lvgl/src/draw/sw/../../misc/lv_area.h **** #define LV_AREA_H
   8:Drivers/lvgl/src/draw/sw/../../misc/lv_area.h **** 
   9:Drivers/lvgl/src/draw/sw/../../misc/lv_area.h **** #ifdef __cplusplus
  10:Drivers/lvgl/src/draw/sw/../../misc/lv_area.h **** extern "C" {
  11:Drivers/lvgl/src/draw/sw/../../misc/lv_area.h **** #endif
  12:Drivers/lvgl/src/draw/sw/../../misc/lv_area.h **** 
  13:Drivers/lvgl/src/draw/sw/../../misc/lv_area.h **** /*********************
  14:Drivers/lvgl/src/draw/sw/../../misc/lv_area.h ****  *      INCLUDES
  15:Drivers/lvgl/src/draw/sw/../../misc/lv_area.h ****  *********************/
  16:Drivers/lvgl/src/draw/sw/../../misc/lv_area.h **** #include "../lv_conf_internal.h"
  17:Drivers/lvgl/src/draw/sw/../../misc/lv_area.h **** #include <stdbool.h>
  18:Drivers/lvgl/src/draw/sw/../../misc/lv_area.h **** #include <stdint.h>
  19:Drivers/lvgl/src/draw/sw/../../misc/lv_area.h **** 
  20:Drivers/lvgl/src/draw/sw/../../misc/lv_area.h **** /*********************
  21:Drivers/lvgl/src/draw/sw/../../misc/lv_area.h ****  *      DEFINES
  22:Drivers/lvgl/src/draw/sw/../../misc/lv_area.h ****  *********************/
  23:Drivers/lvgl/src/draw/sw/../../misc/lv_area.h **** 
  24:Drivers/lvgl/src/draw/sw/../../misc/lv_area.h **** #if LV_USE_LARGE_COORD
  25:Drivers/lvgl/src/draw/sw/../../misc/lv_area.h **** typedef int32_t lv_coord_t;
  26:Drivers/lvgl/src/draw/sw/../../misc/lv_area.h **** #else
  27:Drivers/lvgl/src/draw/sw/../../misc/lv_area.h **** typedef int16_t lv_coord_t;
  28:Drivers/lvgl/src/draw/sw/../../misc/lv_area.h **** #endif
  29:Drivers/lvgl/src/draw/sw/../../misc/lv_area.h **** 
  30:Drivers/lvgl/src/draw/sw/../../misc/lv_area.h **** /**********************
  31:Drivers/lvgl/src/draw/sw/../../misc/lv_area.h ****  *      TYPEDEFS
  32:Drivers/lvgl/src/draw/sw/../../misc/lv_area.h ****  **********************/
  33:Drivers/lvgl/src/draw/sw/../../misc/lv_area.h **** 
  34:Drivers/lvgl/src/draw/sw/../../misc/lv_area.h **** /**
  35:Drivers/lvgl/src/draw/sw/../../misc/lv_area.h ****  * Represents a point on the screen.
  36:Drivers/lvgl/src/draw/sw/../../misc/lv_area.h ****  */
  37:Drivers/lvgl/src/draw/sw/../../misc/lv_area.h **** typedef struct {
  38:Drivers/lvgl/src/draw/sw/../../misc/lv_area.h ****     lv_coord_t x;
  39:Drivers/lvgl/src/draw/sw/../../misc/lv_area.h ****     lv_coord_t y;
  40:Drivers/lvgl/src/draw/sw/../../misc/lv_area.h **** } lv_point_t;
  41:Drivers/lvgl/src/draw/sw/../../misc/lv_area.h **** 
  42:Drivers/lvgl/src/draw/sw/../../misc/lv_area.h **** /** Represents an area of the screen.*/
  43:Drivers/lvgl/src/draw/sw/../../misc/lv_area.h **** typedef struct {
  44:Drivers/lvgl/src/draw/sw/../../misc/lv_area.h ****     lv_coord_t x1;
ARM GAS  /var/folders/0z/tsy30v1j4xl4_7kw94k978ww0000gn/T//ccAYAUvH.s 			page 7


  45:Drivers/lvgl/src/draw/sw/../../misc/lv_area.h ****     lv_coord_t y1;
  46:Drivers/lvgl/src/draw/sw/../../misc/lv_area.h ****     lv_coord_t x2;
  47:Drivers/lvgl/src/draw/sw/../../misc/lv_area.h ****     lv_coord_t y2;
  48:Drivers/lvgl/src/draw/sw/../../misc/lv_area.h **** } lv_area_t;
  49:Drivers/lvgl/src/draw/sw/../../misc/lv_area.h **** 
  50:Drivers/lvgl/src/draw/sw/../../misc/lv_area.h **** /** Alignments*/
  51:Drivers/lvgl/src/draw/sw/../../misc/lv_area.h **** enum {
  52:Drivers/lvgl/src/draw/sw/../../misc/lv_area.h ****     LV_ALIGN_DEFAULT = 0,
  53:Drivers/lvgl/src/draw/sw/../../misc/lv_area.h ****     LV_ALIGN_TOP_LEFT,
  54:Drivers/lvgl/src/draw/sw/../../misc/lv_area.h ****     LV_ALIGN_TOP_MID,
  55:Drivers/lvgl/src/draw/sw/../../misc/lv_area.h ****     LV_ALIGN_TOP_RIGHT,
  56:Drivers/lvgl/src/draw/sw/../../misc/lv_area.h ****     LV_ALIGN_BOTTOM_LEFT,
  57:Drivers/lvgl/src/draw/sw/../../misc/lv_area.h ****     LV_ALIGN_BOTTOM_MID,
  58:Drivers/lvgl/src/draw/sw/../../misc/lv_area.h ****     LV_ALIGN_BOTTOM_RIGHT,
  59:Drivers/lvgl/src/draw/sw/../../misc/lv_area.h ****     LV_ALIGN_LEFT_MID,
  60:Drivers/lvgl/src/draw/sw/../../misc/lv_area.h ****     LV_ALIGN_RIGHT_MID,
  61:Drivers/lvgl/src/draw/sw/../../misc/lv_area.h ****     LV_ALIGN_CENTER,
  62:Drivers/lvgl/src/draw/sw/../../misc/lv_area.h **** 
  63:Drivers/lvgl/src/draw/sw/../../misc/lv_area.h ****     LV_ALIGN_OUT_TOP_LEFT,
  64:Drivers/lvgl/src/draw/sw/../../misc/lv_area.h ****     LV_ALIGN_OUT_TOP_MID,
  65:Drivers/lvgl/src/draw/sw/../../misc/lv_area.h ****     LV_ALIGN_OUT_TOP_RIGHT,
  66:Drivers/lvgl/src/draw/sw/../../misc/lv_area.h ****     LV_ALIGN_OUT_BOTTOM_LEFT,
  67:Drivers/lvgl/src/draw/sw/../../misc/lv_area.h ****     LV_ALIGN_OUT_BOTTOM_MID,
  68:Drivers/lvgl/src/draw/sw/../../misc/lv_area.h ****     LV_ALIGN_OUT_BOTTOM_RIGHT,
  69:Drivers/lvgl/src/draw/sw/../../misc/lv_area.h ****     LV_ALIGN_OUT_LEFT_TOP,
  70:Drivers/lvgl/src/draw/sw/../../misc/lv_area.h ****     LV_ALIGN_OUT_LEFT_MID,
  71:Drivers/lvgl/src/draw/sw/../../misc/lv_area.h ****     LV_ALIGN_OUT_LEFT_BOTTOM,
  72:Drivers/lvgl/src/draw/sw/../../misc/lv_area.h ****     LV_ALIGN_OUT_RIGHT_TOP,
  73:Drivers/lvgl/src/draw/sw/../../misc/lv_area.h ****     LV_ALIGN_OUT_RIGHT_MID,
  74:Drivers/lvgl/src/draw/sw/../../misc/lv_area.h ****     LV_ALIGN_OUT_RIGHT_BOTTOM,
  75:Drivers/lvgl/src/draw/sw/../../misc/lv_area.h **** };
  76:Drivers/lvgl/src/draw/sw/../../misc/lv_area.h **** typedef uint8_t lv_align_t;
  77:Drivers/lvgl/src/draw/sw/../../misc/lv_area.h **** 
  78:Drivers/lvgl/src/draw/sw/../../misc/lv_area.h **** enum {
  79:Drivers/lvgl/src/draw/sw/../../misc/lv_area.h ****     LV_DIR_NONE     = 0x00,
  80:Drivers/lvgl/src/draw/sw/../../misc/lv_area.h ****     LV_DIR_LEFT     = (1 << 0),
  81:Drivers/lvgl/src/draw/sw/../../misc/lv_area.h ****     LV_DIR_RIGHT    = (1 << 1),
  82:Drivers/lvgl/src/draw/sw/../../misc/lv_area.h ****     LV_DIR_TOP      = (1 << 2),
  83:Drivers/lvgl/src/draw/sw/../../misc/lv_area.h ****     LV_DIR_BOTTOM   = (1 << 3),
  84:Drivers/lvgl/src/draw/sw/../../misc/lv_area.h ****     LV_DIR_HOR      = LV_DIR_LEFT | LV_DIR_RIGHT,
  85:Drivers/lvgl/src/draw/sw/../../misc/lv_area.h ****     LV_DIR_VER      = LV_DIR_TOP | LV_DIR_BOTTOM,
  86:Drivers/lvgl/src/draw/sw/../../misc/lv_area.h ****     LV_DIR_ALL      = LV_DIR_HOR | LV_DIR_VER,
  87:Drivers/lvgl/src/draw/sw/../../misc/lv_area.h **** };
  88:Drivers/lvgl/src/draw/sw/../../misc/lv_area.h **** 
  89:Drivers/lvgl/src/draw/sw/../../misc/lv_area.h **** typedef uint8_t lv_dir_t;
  90:Drivers/lvgl/src/draw/sw/../../misc/lv_area.h **** 
  91:Drivers/lvgl/src/draw/sw/../../misc/lv_area.h **** /**********************
  92:Drivers/lvgl/src/draw/sw/../../misc/lv_area.h ****  * GLOBAL PROTOTYPES
  93:Drivers/lvgl/src/draw/sw/../../misc/lv_area.h ****  **********************/
  94:Drivers/lvgl/src/draw/sw/../../misc/lv_area.h **** 
  95:Drivers/lvgl/src/draw/sw/../../misc/lv_area.h **** /**
  96:Drivers/lvgl/src/draw/sw/../../misc/lv_area.h ****  * Initialize an area
  97:Drivers/lvgl/src/draw/sw/../../misc/lv_area.h ****  * @param area_p pointer to an area
  98:Drivers/lvgl/src/draw/sw/../../misc/lv_area.h ****  * @param x1 left coordinate of the area
  99:Drivers/lvgl/src/draw/sw/../../misc/lv_area.h ****  * @param y1 top coordinate of the area
 100:Drivers/lvgl/src/draw/sw/../../misc/lv_area.h ****  * @param x2 right coordinate of the area
 101:Drivers/lvgl/src/draw/sw/../../misc/lv_area.h ****  * @param y2 bottom coordinate of the area
ARM GAS  /var/folders/0z/tsy30v1j4xl4_7kw94k978ww0000gn/T//ccAYAUvH.s 			page 8


 102:Drivers/lvgl/src/draw/sw/../../misc/lv_area.h ****  */
 103:Drivers/lvgl/src/draw/sw/../../misc/lv_area.h **** void lv_area_set(lv_area_t * area_p, lv_coord_t x1, lv_coord_t y1, lv_coord_t x2, lv_coord_t y2);
 104:Drivers/lvgl/src/draw/sw/../../misc/lv_area.h **** 
 105:Drivers/lvgl/src/draw/sw/../../misc/lv_area.h **** /**
 106:Drivers/lvgl/src/draw/sw/../../misc/lv_area.h ****  * Copy an area
 107:Drivers/lvgl/src/draw/sw/../../misc/lv_area.h ****  * @param dest pointer to the destination area
 108:Drivers/lvgl/src/draw/sw/../../misc/lv_area.h ****  * @param src pointer to the source area
 109:Drivers/lvgl/src/draw/sw/../../misc/lv_area.h ****  */
 110:Drivers/lvgl/src/draw/sw/../../misc/lv_area.h **** inline static void lv_area_copy(lv_area_t * dest, const lv_area_t * src)
 111:Drivers/lvgl/src/draw/sw/../../misc/lv_area.h **** {
 112:Drivers/lvgl/src/draw/sw/../../misc/lv_area.h ****     dest->x1 = src->x1;
 113:Drivers/lvgl/src/draw/sw/../../misc/lv_area.h ****     dest->y1 = src->y1;
 114:Drivers/lvgl/src/draw/sw/../../misc/lv_area.h ****     dest->x2 = src->x2;
 115:Drivers/lvgl/src/draw/sw/../../misc/lv_area.h ****     dest->y2 = src->y2;
 116:Drivers/lvgl/src/draw/sw/../../misc/lv_area.h **** }
 117:Drivers/lvgl/src/draw/sw/../../misc/lv_area.h **** 
 118:Drivers/lvgl/src/draw/sw/../../misc/lv_area.h **** /**
 119:Drivers/lvgl/src/draw/sw/../../misc/lv_area.h ****  * Get the width of an area
 120:Drivers/lvgl/src/draw/sw/../../misc/lv_area.h ****  * @param area_p pointer to an area
 121:Drivers/lvgl/src/draw/sw/../../misc/lv_area.h ****  * @return the width of the area (if x1 == x2 -> width = 1)
 122:Drivers/lvgl/src/draw/sw/../../misc/lv_area.h ****  */
 123:Drivers/lvgl/src/draw/sw/../../misc/lv_area.h **** static inline lv_coord_t lv_area_get_width(const lv_area_t * area_p)
 124:Drivers/lvgl/src/draw/sw/../../misc/lv_area.h **** {
 125:Drivers/lvgl/src/draw/sw/../../misc/lv_area.h ****     return (lv_coord_t)(area_p->x2 - area_p->x1 + 1);
 126:Drivers/lvgl/src/draw/sw/../../misc/lv_area.h **** }
 127:Drivers/lvgl/src/draw/sw/../../misc/lv_area.h **** 
 128:Drivers/lvgl/src/draw/sw/../../misc/lv_area.h **** /**
 129:Drivers/lvgl/src/draw/sw/../../misc/lv_area.h ****  * Get the height of an area
 130:Drivers/lvgl/src/draw/sw/../../misc/lv_area.h ****  * @param area_p pointer to an area
 131:Drivers/lvgl/src/draw/sw/../../misc/lv_area.h ****  * @return the height of the area (if y1 == y2 -> height = 1)
 132:Drivers/lvgl/src/draw/sw/../../misc/lv_area.h ****  */
 133:Drivers/lvgl/src/draw/sw/../../misc/lv_area.h **** static inline lv_coord_t lv_area_get_height(const lv_area_t * area_p)
 134:Drivers/lvgl/src/draw/sw/../../misc/lv_area.h **** {
 135:Drivers/lvgl/src/draw/sw/../../misc/lv_area.h ****     return (lv_coord_t)(area_p->y2 - area_p->y1 + 1);
 167              		.loc 2 135 49 view .LVU54
 168 0096 B9F80630 		ldrh	r3, [r9, #6]
 169              	.LBE43:
 170              	.LBE42:
 101:Drivers/lvgl/src/draw/sw/lv_draw_sw_transform.c ****     tr_dsc.cosma = (c1 * (10 - angle_rem) + c2 * angle_rem) / 10;
 171              		.loc 1 101 30 view .LVU55
 172 009a C7F10A07 		rsb	r7, r7, #10
 173              	.LVL15:
 174              		.loc 1 102 5 is_stmt 1 view .LVU56
 103:Drivers/lvgl/src/draw/sw/lv_draw_sw_transform.c ****     tr_dsc.sinma = tr_dsc.sinma >> (LV_TRIGO_SHIFT - 10);
 175              		.loc 1 103 5 view .LVU57
 102:Drivers/lvgl/src/draw/sw/lv_draw_sw_transform.c ****     tr_dsc.sinma = tr_dsc.sinma >> (LV_TRIGO_SHIFT - 10);
 176              		.loc 1 102 43 is_stmt 0 view .LVU58
 177 009e 07FB0600 		mla	r0, r7, r6, r0
 178              	.LBB50:
 179              	.LBB44:
 180              		.loc 2 135 44 view .LVU59
 181 00a2 B9F90260 		ldrsh	r6, [r9, #2]
 182              	.LVL16:
 183              		.loc 2 135 44 view .LVU60
 184              	.LBE44:
 185              	.LBE50:
 101:Drivers/lvgl/src/draw/sw/lv_draw_sw_transform.c ****     tr_dsc.cosma = (c1 * (10 - angle_rem) + c2 * angle_rem) / 10;
ARM GAS  /var/folders/0z/tsy30v1j4xl4_7kw94k978ww0000gn/T//ccAYAUvH.s 			page 9


 186              		.loc 1 101 43 view .LVU61
 187 00a6 07FB0842 		mla	r2, r7, r8, r4
 188              	.LBB51:
 189              	.LBB45:
 190              		.loc 2 135 49 view .LVU62
 191 00aa 0133     		adds	r3, r3, #1
 192              	.LBE45:
 193              	.LBE51:
 101:Drivers/lvgl/src/draw/sw/lv_draw_sw_transform.c ****     tr_dsc.cosma = (c1 * (10 - angle_rem) + c2 * angle_rem) / 10;
 194              		.loc 1 101 61 view .LVU63
 195 00ac 85FB0271 		smull	r7, r1, r5, r2
 196              	.LBB52:
 197              	.LBB46:
 198              		.loc 2 135 49 view .LVU64
 199 00b0 9B1B     		subs	r3, r3, r6
 200              	.LBE46:
 201              	.LBE52:
 101:Drivers/lvgl/src/draw/sw/lv_draw_sw_transform.c ****     tr_dsc.cosma = (c1 * (10 - angle_rem) + c2 * angle_rem) / 10;
 202              		.loc 1 101 61 view .LVU65
 203 00b2 D217     		asrs	r2, r2, #31
 204 00b4 C2EBA102 		rsb	r2, r2, r1, asr #2
 205              	.LBB53:
 206              	.LBB47:
 207              		.loc 2 135 12 view .LVU66
 208 00b8 1BB2     		sxth	r3, r3
 209              	.LBE47:
 210              	.LBE53:
 102:Drivers/lvgl/src/draw/sw/lv_draw_sw_transform.c ****     tr_dsc.sinma = tr_dsc.sinma >> (LV_TRIGO_SHIFT - 10);
 211              		.loc 1 102 61 view .LVU67
 212 00ba 85FB0015 		smull	r1, r5, r5, r0
 213              	.LVL17:
 214              	.LBB54:
 215              	.LBB55:
 125:Drivers/lvgl/src/draw/sw/../../misc/lv_area.h **** }
 216              		.loc 2 125 31 view .LVU68
 217 00be B9F90440 		ldrsh	r4, [r9, #4]
 218              	.LBE55:
 219              	.LBE54:
 220              	.LBB62:
 221              	.LBB48:
 222              		.loc 2 135 12 view .LVU69
 223 00c2 0E93     		str	r3, [sp, #56]
 224              	.LBE48:
 225              	.LBE62:
 102:Drivers/lvgl/src/draw/sw/lv_draw_sw_transform.c ****     tr_dsc.sinma = tr_dsc.sinma >> (LV_TRIGO_SHIFT - 10);
 226              		.loc 1 102 61 view .LVU70
 227 00c4 C017     		asrs	r0, r0, #31
 228 00c6 C0EBA500 		rsb	r0, r0, r5, asr #2
 229              	.LBB63:
 230              	.LBB56:
 125:Drivers/lvgl/src/draw/sw/../../misc/lv_area.h **** }
 231              		.loc 2 125 44 view .LVU71
 232 00ca B9F90030 		ldrsh	r3, [r9]
 233              	.LBE56:
 234              	.LBE63:
 235              		.loc 1 103 33 view .LVU72
 236 00ce 5511     		asrs	r5, r2, #5
ARM GAS  /var/folders/0z/tsy30v1j4xl4_7kw94k978ww0000gn/T//ccAYAUvH.s 			page 10


 237 00d0 1D95     		str	r5, [sp, #116]
 104:Drivers/lvgl/src/draw/sw/lv_draw_sw_transform.c ****     tr_dsc.cosma = tr_dsc.cosma >> (LV_TRIGO_SHIFT - 10);
 238              		.loc 1 104 5 is_stmt 1 view .LVU73
 239              	.LBB64:
 240              	.LBB57:
 125:Drivers/lvgl/src/draw/sw/../../misc/lv_area.h **** }
 241              		.loc 2 125 49 is_stmt 0 view .LVU74
 242 00d2 611C     		adds	r1, r4, #1
 243              	.LBE57:
 244              	.LBE64:
 245              		.loc 1 104 33 view .LVU75
 246 00d4 4511     		asrs	r5, r0, #5
 105:Drivers/lvgl/src/draw/sw/lv_draw_sw_transform.c ****     tr_dsc.pivot_x_256 = tr_dsc.pivot.x * 256;
 247              		.loc 1 105 41 view .LVU76
 248 00d6 0B98     		ldr	r0, [sp, #44]
 104:Drivers/lvgl/src/draw/sw/lv_draw_sw_transform.c ****     tr_dsc.cosma = tr_dsc.cosma >> (LV_TRIGO_SHIFT - 10);
 249              		.loc 1 104 33 view .LVU77
 250 00d8 1E95     		str	r5, [sp, #120]
 251              		.loc 1 105 5 is_stmt 1 view .LVU78
 252              	.LBB65:
 253              	.LBB58:
 125:Drivers/lvgl/src/draw/sw/../../misc/lv_area.h **** }
 254              		.loc 2 125 49 is_stmt 0 view .LVU79
 255 00da C91A     		subs	r1, r1, r3
 256              	.LBE58:
 257              	.LBE65:
 258              		.loc 1 105 41 view .LVU80
 259 00dc 0502     		lsls	r5, r0, #8
 260              	.LBB66:
 261              	.LBB59:
 125:Drivers/lvgl/src/draw/sw/../../misc/lv_area.h **** }
 262              		.loc 2 125 49 view .LVU81
 263 00de 8AB2     		uxth	r2, r1
 264              	.LBE59:
 265              	.LBE66:
 106:Drivers/lvgl/src/draw/sw/lv_draw_sw_transform.c ****     tr_dsc.pivot_y_256 = tr_dsc.pivot.y * 256;
 266              		.loc 1 106 41 view .LVU82
 267 00e0 0F98     		ldr	r0, [sp, #60]
 105:Drivers/lvgl/src/draw/sw/lv_draw_sw_transform.c ****     tr_dsc.pivot_x_256 = tr_dsc.pivot.x * 256;
 268              		.loc 1 105 41 view .LVU83
 269 00e2 1495     		str	r5, [sp, #80]
 270              		.loc 1 106 5 is_stmt 1 view .LVU84
 271              	.LBB67:
 272              	.LBB60:
 125:Drivers/lvgl/src/draw/sw/../../misc/lv_area.h **** }
 273              		.loc 2 125 12 is_stmt 0 view .LVU85
 274 00e4 0FFA81FA 		sxth	r10, r1
 275              	.LBE60:
 276              	.LBE67:
 107:Drivers/lvgl/src/draw/sw/lv_draw_sw_transform.c **** 
 108:Drivers/lvgl/src/draw/sw/lv_draw_sw_transform.c ****     lv_coord_t dest_w = lv_area_get_width(dest_area);
 109:Drivers/lvgl/src/draw/sw/lv_draw_sw_transform.c ****     lv_coord_t dest_h = lv_area_get_height(dest_area);
 110:Drivers/lvgl/src/draw/sw/lv_draw_sw_transform.c ****     lv_coord_t y;
 111:Drivers/lvgl/src/draw/sw/lv_draw_sw_transform.c ****     for(y = 0; y < dest_h; y++) {
 277              		.loc 1 111 18 view .LVU86
 278 00e8 0E99     		ldr	r1, [sp, #56]
 106:Drivers/lvgl/src/draw/sw/lv_draw_sw_transform.c **** 
ARM GAS  /var/folders/0z/tsy30v1j4xl4_7kw94k978ww0000gn/T//ccAYAUvH.s 			page 11


 279              		.loc 1 106 41 view .LVU87
 280 00ea 0502     		lsls	r5, r0, #8
 281              		.loc 1 111 18 view .LVU88
 282 00ec 0029     		cmp	r1, #0
 106:Drivers/lvgl/src/draw/sw/lv_draw_sw_transform.c **** 
 283              		.loc 1 106 41 view .LVU89
 284 00ee 1595     		str	r5, [sp, #84]
 108:Drivers/lvgl/src/draw/sw/lv_draw_sw_transform.c ****     lv_coord_t dest_h = lv_area_get_height(dest_area);
 285              		.loc 1 108 5 is_stmt 1 view .LVU90
 286              	.LVL18:
 287              	.LBB68:
 288              	.LBI54:
 123:Drivers/lvgl/src/draw/sw/../../misc/lv_area.h **** {
 289              		.loc 2 123 26 view .LVU91
 290              	.LBB61:
 125:Drivers/lvgl/src/draw/sw/../../misc/lv_area.h **** }
 291              		.loc 2 125 5 view .LVU92
 125:Drivers/lvgl/src/draw/sw/../../misc/lv_area.h **** }
 292              		.loc 2 125 5 is_stmt 0 view .LVU93
 293              	.LBE61:
 294              	.LBE68:
 109:Drivers/lvgl/src/draw/sw/lv_draw_sw_transform.c ****     lv_coord_t y;
 295              		.loc 1 109 5 is_stmt 1 view .LVU94
 296              	.LBB69:
 297              	.LBI42:
 133:Drivers/lvgl/src/draw/sw/../../misc/lv_area.h **** {
 298              		.loc 2 133 26 view .LVU95
 299              	.LBB49:
 300              		.loc 2 135 5 view .LVU96
 301              		.loc 2 135 5 is_stmt 0 view .LVU97
 302              	.LBE49:
 303              	.LBE69:
 110:Drivers/lvgl/src/draw/sw/lv_draw_sw_transform.c ****     for(y = 0; y < dest_h; y++) {
 304              		.loc 1 110 5 is_stmt 1 view .LVU98
 305              		.loc 1 111 5 view .LVU99
 306              		.loc 1 111 18 view .LVU100
 307 00f0 40F37D82 		ble	.L1
 308              	.LVL19:
 309              	.LBB70:
 112:Drivers/lvgl/src/draw/sw/lv_draw_sw_transform.c ****         int32_t xs1_ups, ys1_ups, xs2_ups, ys2_ups;
 310              		.loc 1 112 9 view .LVU101
 113:Drivers/lvgl/src/draw/sw/lv_draw_sw_transform.c **** 
 114:Drivers/lvgl/src/draw/sw/lv_draw_sw_transform.c ****         transform_point_upscaled(&tr_dsc, dest_area->x1, dest_area->y1 + y, &xs1_ups, &ys1_ups);
 311              		.loc 1 114 9 view .LVU102
 312              	.LBB71:
 313              	.LBB72:
 314              	.LBB73:
 315              	.LBB74:
 115:Drivers/lvgl/src/draw/sw/lv_draw_sw_transform.c ****         transform_point_upscaled(&tr_dsc, dest_area->x2, dest_area->y1 + y, &xs2_ups, &ys2_ups);
 116:Drivers/lvgl/src/draw/sw/lv_draw_sw_transform.c **** 
 117:Drivers/lvgl/src/draw/sw/lv_draw_sw_transform.c ****         int32_t xs_diff = xs2_ups - xs1_ups;
 118:Drivers/lvgl/src/draw/sw/lv_draw_sw_transform.c ****         int32_t ys_diff = ys2_ups - ys1_ups;
 119:Drivers/lvgl/src/draw/sw/lv_draw_sw_transform.c ****         int32_t xs_step_256 = 0;
 120:Drivers/lvgl/src/draw/sw/lv_draw_sw_transform.c ****         int32_t ys_step_256 = 0;
 121:Drivers/lvgl/src/draw/sw/lv_draw_sw_transform.c ****         if(dest_w > 1) {
 122:Drivers/lvgl/src/draw/sw/lv_draw_sw_transform.c ****             xs_step_256 = (256 * xs_diff) / (dest_w - 1);
 123:Drivers/lvgl/src/draw/sw/lv_draw_sw_transform.c ****             ys_step_256 = (256 * ys_diff) / (dest_w - 1);
ARM GAS  /var/folders/0z/tsy30v1j4xl4_7kw94k978ww0000gn/T//ccAYAUvH.s 			page 12


 124:Drivers/lvgl/src/draw/sw/lv_draw_sw_transform.c ****         }
 125:Drivers/lvgl/src/draw/sw/lv_draw_sw_transform.c ****         int32_t xs_ups = xs1_ups + 0x80;
 126:Drivers/lvgl/src/draw/sw/lv_draw_sw_transform.c ****         int32_t ys_ups = ys1_ups + 0x80;
 127:Drivers/lvgl/src/draw/sw/lv_draw_sw_transform.c **** 
 128:Drivers/lvgl/src/draw/sw/lv_draw_sw_transform.c ****         if(draw_dsc->antialias == 0) {
 129:Drivers/lvgl/src/draw/sw/lv_draw_sw_transform.c ****             switch(cf) {
 130:Drivers/lvgl/src/draw/sw/lv_draw_sw_transform.c ****                 case LV_IMG_CF_TRUE_COLOR_ALPHA:
 131:Drivers/lvgl/src/draw/sw/lv_draw_sw_transform.c ****                     argb_no_aa(src_buf, src_w, src_h, src_stride, xs_ups, ys_ups, xs_step_256, ys_s
 132:Drivers/lvgl/src/draw/sw/lv_draw_sw_transform.c ****                     break;
 133:Drivers/lvgl/src/draw/sw/lv_draw_sw_transform.c ****                 case LV_IMG_CF_TRUE_COLOR:
 134:Drivers/lvgl/src/draw/sw/lv_draw_sw_transform.c ****                 case LV_IMG_CF_TRUE_COLOR_CHROMA_KEYED:
 135:Drivers/lvgl/src/draw/sw/lv_draw_sw_transform.c ****                     rgb_no_aa(src_buf, src_w, src_h, src_stride, xs_ups, ys_ups, xs_step_256, ys_st
 136:Drivers/lvgl/src/draw/sw/lv_draw_sw_transform.c ****                     break;
 137:Drivers/lvgl/src/draw/sw/lv_draw_sw_transform.c **** 
 138:Drivers/lvgl/src/draw/sw/lv_draw_sw_transform.c **** #if LV_COLOR_DEPTH == 16
 139:Drivers/lvgl/src/draw/sw/lv_draw_sw_transform.c ****                 case LV_IMG_CF_RGB565A8:
 140:Drivers/lvgl/src/draw/sw/lv_draw_sw_transform.c ****                     rgb565a8_no_aa(src_buf, src_w, src_h, src_stride, xs_ups, ys_ups, xs_step_256, 
 141:Drivers/lvgl/src/draw/sw/lv_draw_sw_transform.c ****                     break;
 142:Drivers/lvgl/src/draw/sw/lv_draw_sw_transform.c **** #endif
 143:Drivers/lvgl/src/draw/sw/lv_draw_sw_transform.c ****                 default:
 144:Drivers/lvgl/src/draw/sw/lv_draw_sw_transform.c ****                     break;
 145:Drivers/lvgl/src/draw/sw/lv_draw_sw_transform.c ****             }
 146:Drivers/lvgl/src/draw/sw/lv_draw_sw_transform.c ****         }
 147:Drivers/lvgl/src/draw/sw/lv_draw_sw_transform.c ****         else {
 148:Drivers/lvgl/src/draw/sw/lv_draw_sw_transform.c ****             argb_and_rgb_aa(src_buf, src_w, src_h, src_stride, xs_ups, ys_ups, xs_step_256, ys_step
 149:Drivers/lvgl/src/draw/sw/lv_draw_sw_transform.c ****         }
 150:Drivers/lvgl/src/draw/sw/lv_draw_sw_transform.c **** 
 151:Drivers/lvgl/src/draw/sw/lv_draw_sw_transform.c ****         cbuf += dest_w;
 152:Drivers/lvgl/src/draw/sw/lv_draw_sw_transform.c ****         abuf += dest_w;
 153:Drivers/lvgl/src/draw/sw/lv_draw_sw_transform.c ****     }
 154:Drivers/lvgl/src/draw/sw/lv_draw_sw_transform.c **** }
 155:Drivers/lvgl/src/draw/sw/lv_draw_sw_transform.c **** 
 156:Drivers/lvgl/src/draw/sw/lv_draw_sw_transform.c **** /**********************
 157:Drivers/lvgl/src/draw/sw/lv_draw_sw_transform.c ****  *   STATIC FUNCTIONS
 158:Drivers/lvgl/src/draw/sw/lv_draw_sw_transform.c ****  **********************/
 159:Drivers/lvgl/src/draw/sw/lv_draw_sw_transform.c **** 
 160:Drivers/lvgl/src/draw/sw/lv_draw_sw_transform.c **** static void rgb_no_aa(const uint8_t * src, lv_coord_t src_w, lv_coord_t src_h, lv_coord_t src_strid
 161:Drivers/lvgl/src/draw/sw/lv_draw_sw_transform.c ****                       int32_t xs_ups, int32_t ys_ups, int32_t xs_step, int32_t ys_step,
 162:Drivers/lvgl/src/draw/sw/lv_draw_sw_transform.c ****                       int32_t x_end, lv_color_t * cbuf, uint8_t * abuf, lv_img_cf_t cf)
 163:Drivers/lvgl/src/draw/sw/lv_draw_sw_transform.c **** {
 164:Drivers/lvgl/src/draw/sw/lv_draw_sw_transform.c ****     int32_t xs_ups_start = xs_ups;
 165:Drivers/lvgl/src/draw/sw/lv_draw_sw_transform.c ****     int32_t ys_ups_start = ys_ups;
 166:Drivers/lvgl/src/draw/sw/lv_draw_sw_transform.c ****     lv_disp_t * d = _lv_refr_get_disp_refreshing();
 167:Drivers/lvgl/src/draw/sw/lv_draw_sw_transform.c ****     lv_color_t ck = d->driver->color_chroma_key;
 168:Drivers/lvgl/src/draw/sw/lv_draw_sw_transform.c **** 
 169:Drivers/lvgl/src/draw/sw/lv_draw_sw_transform.c ****     lv_memset_ff(abuf, x_end);
 170:Drivers/lvgl/src/draw/sw/lv_draw_sw_transform.c **** 
 171:Drivers/lvgl/src/draw/sw/lv_draw_sw_transform.c ****     lv_coord_t x;
 172:Drivers/lvgl/src/draw/sw/lv_draw_sw_transform.c ****     for(x = 0; x < x_end; x++) {
 173:Drivers/lvgl/src/draw/sw/lv_draw_sw_transform.c ****         xs_ups = xs_ups_start + ((xs_step * x) >> 8);
 174:Drivers/lvgl/src/draw/sw/lv_draw_sw_transform.c ****         ys_ups = ys_ups_start + ((ys_step * x) >> 8);
 175:Drivers/lvgl/src/draw/sw/lv_draw_sw_transform.c **** 
 176:Drivers/lvgl/src/draw/sw/lv_draw_sw_transform.c ****         int32_t xs_int = xs_ups >> 8;
 177:Drivers/lvgl/src/draw/sw/lv_draw_sw_transform.c ****         int32_t ys_int = ys_ups >> 8;
 178:Drivers/lvgl/src/draw/sw/lv_draw_sw_transform.c ****         if(xs_int < 0 || xs_int >= src_w || ys_int < 0 || ys_int >= src_h) {
 179:Drivers/lvgl/src/draw/sw/lv_draw_sw_transform.c ****             abuf[x] = 0x00;
 180:Drivers/lvgl/src/draw/sw/lv_draw_sw_transform.c ****         }
ARM GAS  /var/folders/0z/tsy30v1j4xl4_7kw94k978ww0000gn/T//ccAYAUvH.s 			page 13


 181:Drivers/lvgl/src/draw/sw/lv_draw_sw_transform.c ****         else {
 182:Drivers/lvgl/src/draw/sw/lv_draw_sw_transform.c **** 
 183:Drivers/lvgl/src/draw/sw/lv_draw_sw_transform.c **** #if LV_COLOR_DEPTH == 1 || LV_COLOR_DEPTH == 8
 184:Drivers/lvgl/src/draw/sw/lv_draw_sw_transform.c ****             const uint8_t * src_tmp = src;
 185:Drivers/lvgl/src/draw/sw/lv_draw_sw_transform.c ****             src_tmp += ys_int * src_stride + xs_int;
 186:Drivers/lvgl/src/draw/sw/lv_draw_sw_transform.c ****             cbuf[x].full = src_tmp[0];
 187:Drivers/lvgl/src/draw/sw/lv_draw_sw_transform.c **** #elif LV_COLOR_DEPTH == 16
 188:Drivers/lvgl/src/draw/sw/lv_draw_sw_transform.c ****             const lv_color_t * src_tmp = (const lv_color_t *)src;
 189:Drivers/lvgl/src/draw/sw/lv_draw_sw_transform.c ****             src_tmp += ys_int * src_stride + xs_int;
 190:Drivers/lvgl/src/draw/sw/lv_draw_sw_transform.c ****             cbuf[x] = *src_tmp;
 191:Drivers/lvgl/src/draw/sw/lv_draw_sw_transform.c **** #elif LV_COLOR_DEPTH == 32
 192:Drivers/lvgl/src/draw/sw/lv_draw_sw_transform.c ****             const uint8_t * src_tmp = src;
 193:Drivers/lvgl/src/draw/sw/lv_draw_sw_transform.c ****             src_tmp += (ys_int * src_stride * sizeof(lv_color_t)) + xs_int * sizeof(lv_color_t);
 194:Drivers/lvgl/src/draw/sw/lv_draw_sw_transform.c ****             cbuf[x].full = *((uint32_t *)src_tmp);
 195:Drivers/lvgl/src/draw/sw/lv_draw_sw_transform.c **** #endif
 196:Drivers/lvgl/src/draw/sw/lv_draw_sw_transform.c ****         }
 197:Drivers/lvgl/src/draw/sw/lv_draw_sw_transform.c ****         if(cf == LV_IMG_CF_TRUE_COLOR_CHROMA_KEYED && cbuf[x].full == ck.full) {
 198:Drivers/lvgl/src/draw/sw/lv_draw_sw_transform.c ****             abuf[x] = 0x00;
 199:Drivers/lvgl/src/draw/sw/lv_draw_sw_transform.c ****         }
 200:Drivers/lvgl/src/draw/sw/lv_draw_sw_transform.c ****     }
 201:Drivers/lvgl/src/draw/sw/lv_draw_sw_transform.c **** }
 202:Drivers/lvgl/src/draw/sw/lv_draw_sw_transform.c **** 
 203:Drivers/lvgl/src/draw/sw/lv_draw_sw_transform.c **** static void argb_no_aa(const uint8_t * src, lv_coord_t src_w, lv_coord_t src_h, lv_coord_t src_stri
 204:Drivers/lvgl/src/draw/sw/lv_draw_sw_transform.c ****                        int32_t xs_ups, int32_t ys_ups, int32_t xs_step, int32_t ys_step,
 205:Drivers/lvgl/src/draw/sw/lv_draw_sw_transform.c ****                        int32_t x_end, lv_color_t * cbuf, uint8_t * abuf)
 206:Drivers/lvgl/src/draw/sw/lv_draw_sw_transform.c **** {
 207:Drivers/lvgl/src/draw/sw/lv_draw_sw_transform.c ****     int32_t xs_ups_start = xs_ups;
 208:Drivers/lvgl/src/draw/sw/lv_draw_sw_transform.c ****     int32_t ys_ups_start = ys_ups;
 209:Drivers/lvgl/src/draw/sw/lv_draw_sw_transform.c **** 
 210:Drivers/lvgl/src/draw/sw/lv_draw_sw_transform.c ****     lv_coord_t x;
 211:Drivers/lvgl/src/draw/sw/lv_draw_sw_transform.c ****     for(x = 0; x < x_end; x++) {
 212:Drivers/lvgl/src/draw/sw/lv_draw_sw_transform.c ****         xs_ups = xs_ups_start + ((xs_step * x) >> 8);
 213:Drivers/lvgl/src/draw/sw/lv_draw_sw_transform.c ****         ys_ups = ys_ups_start + ((ys_step * x) >> 8);
 214:Drivers/lvgl/src/draw/sw/lv_draw_sw_transform.c **** 
 215:Drivers/lvgl/src/draw/sw/lv_draw_sw_transform.c ****         int32_t xs_int = xs_ups >> 8;
 216:Drivers/lvgl/src/draw/sw/lv_draw_sw_transform.c ****         int32_t ys_int = ys_ups >> 8;
 217:Drivers/lvgl/src/draw/sw/lv_draw_sw_transform.c ****         if(xs_int < 0 || xs_int >= src_w || ys_int < 0 || ys_int >= src_h) {
 218:Drivers/lvgl/src/draw/sw/lv_draw_sw_transform.c ****             abuf[x] = 0;
 219:Drivers/lvgl/src/draw/sw/lv_draw_sw_transform.c ****         }
 220:Drivers/lvgl/src/draw/sw/lv_draw_sw_transform.c ****         else {
 221:Drivers/lvgl/src/draw/sw/lv_draw_sw_transform.c ****             const uint8_t * src_tmp = src;
 222:Drivers/lvgl/src/draw/sw/lv_draw_sw_transform.c ****             src_tmp += (ys_int * src_stride * LV_IMG_PX_SIZE_ALPHA_BYTE) + xs_int * LV_IMG_PX_SIZE_
 223:Drivers/lvgl/src/draw/sw/lv_draw_sw_transform.c **** 
 224:Drivers/lvgl/src/draw/sw/lv_draw_sw_transform.c **** #if LV_COLOR_DEPTH == 1 || LV_COLOR_DEPTH == 8
 225:Drivers/lvgl/src/draw/sw/lv_draw_sw_transform.c ****             cbuf[x].full = src_tmp[0];
 226:Drivers/lvgl/src/draw/sw/lv_draw_sw_transform.c **** #elif LV_COLOR_DEPTH == 16
 227:Drivers/lvgl/src/draw/sw/lv_draw_sw_transform.c ****             cbuf[x].full = src_tmp[0] + (src_tmp[1] << 8);
 228:Drivers/lvgl/src/draw/sw/lv_draw_sw_transform.c **** #elif LV_COLOR_DEPTH == 32
 229:Drivers/lvgl/src/draw/sw/lv_draw_sw_transform.c ****             cbuf[x].full = *((uint32_t *)src_tmp);
 230:Drivers/lvgl/src/draw/sw/lv_draw_sw_transform.c **** #endif
 231:Drivers/lvgl/src/draw/sw/lv_draw_sw_transform.c ****             abuf[x] = src_tmp[LV_IMG_PX_SIZE_ALPHA_BYTE - 1];
 232:Drivers/lvgl/src/draw/sw/lv_draw_sw_transform.c ****         }
 233:Drivers/lvgl/src/draw/sw/lv_draw_sw_transform.c ****     }
 234:Drivers/lvgl/src/draw/sw/lv_draw_sw_transform.c **** }
 235:Drivers/lvgl/src/draw/sw/lv_draw_sw_transform.c **** 
 236:Drivers/lvgl/src/draw/sw/lv_draw_sw_transform.c **** #if LV_COLOR_DEPTH == 16
 237:Drivers/lvgl/src/draw/sw/lv_draw_sw_transform.c **** static void rgb565a8_no_aa(const uint8_t * src, lv_coord_t src_w, lv_coord_t src_h, lv_coord_t src_
ARM GAS  /var/folders/0z/tsy30v1j4xl4_7kw94k978ww0000gn/T//ccAYAUvH.s 			page 14


 238:Drivers/lvgl/src/draw/sw/lv_draw_sw_transform.c ****                            int32_t xs_ups, int32_t ys_ups, int32_t xs_step, int32_t ys_step,
 239:Drivers/lvgl/src/draw/sw/lv_draw_sw_transform.c ****                            int32_t x_end, lv_color_t * cbuf, uint8_t * abuf)
 240:Drivers/lvgl/src/draw/sw/lv_draw_sw_transform.c **** {
 241:Drivers/lvgl/src/draw/sw/lv_draw_sw_transform.c ****     int32_t xs_ups_start = xs_ups;
 242:Drivers/lvgl/src/draw/sw/lv_draw_sw_transform.c ****     int32_t ys_ups_start = ys_ups;
 243:Drivers/lvgl/src/draw/sw/lv_draw_sw_transform.c **** 
 244:Drivers/lvgl/src/draw/sw/lv_draw_sw_transform.c ****     lv_coord_t x;
 245:Drivers/lvgl/src/draw/sw/lv_draw_sw_transform.c ****     for(x = 0; x < x_end; x++) {
 246:Drivers/lvgl/src/draw/sw/lv_draw_sw_transform.c ****         xs_ups = xs_ups_start + ((xs_step * x) >> 8);
 247:Drivers/lvgl/src/draw/sw/lv_draw_sw_transform.c ****         ys_ups = ys_ups_start + ((ys_step * x) >> 8);
 248:Drivers/lvgl/src/draw/sw/lv_draw_sw_transform.c **** 
 249:Drivers/lvgl/src/draw/sw/lv_draw_sw_transform.c ****         int32_t xs_int = xs_ups >> 8;
 250:Drivers/lvgl/src/draw/sw/lv_draw_sw_transform.c ****         int32_t ys_int = ys_ups >> 8;
 251:Drivers/lvgl/src/draw/sw/lv_draw_sw_transform.c ****         if(xs_int < 0 || xs_int >= src_w || ys_int < 0 || ys_int >= src_h) {
 252:Drivers/lvgl/src/draw/sw/lv_draw_sw_transform.c ****             abuf[x] = 0;
 253:Drivers/lvgl/src/draw/sw/lv_draw_sw_transform.c ****         }
 254:Drivers/lvgl/src/draw/sw/lv_draw_sw_transform.c ****         else {
 255:Drivers/lvgl/src/draw/sw/lv_draw_sw_transform.c ****             const lv_color_t * src_tmp = (const lv_color_t *)src;
 256:Drivers/lvgl/src/draw/sw/lv_draw_sw_transform.c ****             src_tmp += ys_int * src_stride + xs_int;
 257:Drivers/lvgl/src/draw/sw/lv_draw_sw_transform.c ****             cbuf[x] = *src_tmp;
 258:Drivers/lvgl/src/draw/sw/lv_draw_sw_transform.c **** 
 259:Drivers/lvgl/src/draw/sw/lv_draw_sw_transform.c ****             const lv_opa_t * a_tmp = src + src_stride * src_h * sizeof(lv_color_t);
 260:Drivers/lvgl/src/draw/sw/lv_draw_sw_transform.c ****             a_tmp += ys_int * src_stride + xs_int;
 261:Drivers/lvgl/src/draw/sw/lv_draw_sw_transform.c ****             abuf[x] = *a_tmp;
 262:Drivers/lvgl/src/draw/sw/lv_draw_sw_transform.c ****         }
 263:Drivers/lvgl/src/draw/sw/lv_draw_sw_transform.c ****     }
 264:Drivers/lvgl/src/draw/sw/lv_draw_sw_transform.c **** }
 265:Drivers/lvgl/src/draw/sw/lv_draw_sw_transform.c **** #endif
 266:Drivers/lvgl/src/draw/sw/lv_draw_sw_transform.c **** 
 267:Drivers/lvgl/src/draw/sw/lv_draw_sw_transform.c **** 
 268:Drivers/lvgl/src/draw/sw/lv_draw_sw_transform.c **** static void argb_and_rgb_aa(const uint8_t * src, lv_coord_t src_w, lv_coord_t src_h, lv_coord_t src
 269:Drivers/lvgl/src/draw/sw/lv_draw_sw_transform.c ****                             int32_t xs_ups, int32_t ys_ups, int32_t xs_step, int32_t ys_step,
 270:Drivers/lvgl/src/draw/sw/lv_draw_sw_transform.c ****                             int32_t x_end, lv_color_t * cbuf, uint8_t * abuf, lv_img_cf_t cf)
 271:Drivers/lvgl/src/draw/sw/lv_draw_sw_transform.c **** {
 272:Drivers/lvgl/src/draw/sw/lv_draw_sw_transform.c ****     int32_t xs_ups_start = xs_ups;
 273:Drivers/lvgl/src/draw/sw/lv_draw_sw_transform.c ****     int32_t ys_ups_start = ys_ups;
 274:Drivers/lvgl/src/draw/sw/lv_draw_sw_transform.c ****     bool has_alpha;
 275:Drivers/lvgl/src/draw/sw/lv_draw_sw_transform.c ****     int32_t px_size;
 276:Drivers/lvgl/src/draw/sw/lv_draw_sw_transform.c ****     lv_color_t ck = _LV_COLOR_ZERO_INITIALIZER;
 277:Drivers/lvgl/src/draw/sw/lv_draw_sw_transform.c ****     switch(cf) {
 278:Drivers/lvgl/src/draw/sw/lv_draw_sw_transform.c ****         case LV_IMG_CF_TRUE_COLOR:
 279:Drivers/lvgl/src/draw/sw/lv_draw_sw_transform.c ****             has_alpha = false;
 280:Drivers/lvgl/src/draw/sw/lv_draw_sw_transform.c ****             px_size = sizeof(lv_color_t);
 281:Drivers/lvgl/src/draw/sw/lv_draw_sw_transform.c ****             break;
 282:Drivers/lvgl/src/draw/sw/lv_draw_sw_transform.c ****         case LV_IMG_CF_TRUE_COLOR_ALPHA:
 283:Drivers/lvgl/src/draw/sw/lv_draw_sw_transform.c ****             has_alpha = true;
 284:Drivers/lvgl/src/draw/sw/lv_draw_sw_transform.c ****             px_size = LV_IMG_PX_SIZE_ALPHA_BYTE;
 285:Drivers/lvgl/src/draw/sw/lv_draw_sw_transform.c ****             break;
 286:Drivers/lvgl/src/draw/sw/lv_draw_sw_transform.c ****         case LV_IMG_CF_TRUE_COLOR_CHROMA_KEYED: {
 287:Drivers/lvgl/src/draw/sw/lv_draw_sw_transform.c ****                 has_alpha = true;
 288:Drivers/lvgl/src/draw/sw/lv_draw_sw_transform.c ****                 px_size = sizeof(lv_color_t);
 289:Drivers/lvgl/src/draw/sw/lv_draw_sw_transform.c ****                 lv_disp_t * d = _lv_refr_get_disp_refreshing();
 290:Drivers/lvgl/src/draw/sw/lv_draw_sw_transform.c ****                 ck = d->driver->color_chroma_key;
 291:Drivers/lvgl/src/draw/sw/lv_draw_sw_transform.c ****                 break;
 292:Drivers/lvgl/src/draw/sw/lv_draw_sw_transform.c ****             }
 293:Drivers/lvgl/src/draw/sw/lv_draw_sw_transform.c **** #if LV_COLOR_DEPTH == 16
 294:Drivers/lvgl/src/draw/sw/lv_draw_sw_transform.c ****         case LV_IMG_CF_RGB565A8:
ARM GAS  /var/folders/0z/tsy30v1j4xl4_7kw94k978ww0000gn/T//ccAYAUvH.s 			page 15


 295:Drivers/lvgl/src/draw/sw/lv_draw_sw_transform.c ****             has_alpha = true;
 296:Drivers/lvgl/src/draw/sw/lv_draw_sw_transform.c ****             px_size = sizeof(lv_color_t);
 297:Drivers/lvgl/src/draw/sw/lv_draw_sw_transform.c ****             break;
 298:Drivers/lvgl/src/draw/sw/lv_draw_sw_transform.c **** #endif
 299:Drivers/lvgl/src/draw/sw/lv_draw_sw_transform.c ****         default:
 300:Drivers/lvgl/src/draw/sw/lv_draw_sw_transform.c ****             return;
 301:Drivers/lvgl/src/draw/sw/lv_draw_sw_transform.c ****     }
 302:Drivers/lvgl/src/draw/sw/lv_draw_sw_transform.c **** 
 303:Drivers/lvgl/src/draw/sw/lv_draw_sw_transform.c ****     lv_coord_t x;
 304:Drivers/lvgl/src/draw/sw/lv_draw_sw_transform.c ****     for(x = 0; x < x_end; x++) {
 305:Drivers/lvgl/src/draw/sw/lv_draw_sw_transform.c ****         xs_ups = xs_ups_start + ((xs_step * x) >> 8);
 306:Drivers/lvgl/src/draw/sw/lv_draw_sw_transform.c ****         ys_ups = ys_ups_start + ((ys_step * x) >> 8);
 307:Drivers/lvgl/src/draw/sw/lv_draw_sw_transform.c **** 
 308:Drivers/lvgl/src/draw/sw/lv_draw_sw_transform.c ****         int32_t xs_int = xs_ups >> 8;
 309:Drivers/lvgl/src/draw/sw/lv_draw_sw_transform.c ****         int32_t ys_int = ys_ups >> 8;
 310:Drivers/lvgl/src/draw/sw/lv_draw_sw_transform.c **** 
 311:Drivers/lvgl/src/draw/sw/lv_draw_sw_transform.c ****         /*Fully out of the image*/
 312:Drivers/lvgl/src/draw/sw/lv_draw_sw_transform.c ****         if(xs_int < 0 || xs_int >= src_w || ys_int < 0 || ys_int >= src_h) {
 313:Drivers/lvgl/src/draw/sw/lv_draw_sw_transform.c ****             abuf[x] = 0x00;
 314:Drivers/lvgl/src/draw/sw/lv_draw_sw_transform.c ****             continue;
 315:Drivers/lvgl/src/draw/sw/lv_draw_sw_transform.c ****         }
 316:Drivers/lvgl/src/draw/sw/lv_draw_sw_transform.c **** 
 317:Drivers/lvgl/src/draw/sw/lv_draw_sw_transform.c ****         /*Get the direction the hor and ver neighbor
 318:Drivers/lvgl/src/draw/sw/lv_draw_sw_transform.c ****          *`fract` will be in range of 0x00..0xFF and `next` (+/-1) indicates the direction*/
 319:Drivers/lvgl/src/draw/sw/lv_draw_sw_transform.c ****         int32_t xs_fract = xs_ups & 0xFF;
 320:Drivers/lvgl/src/draw/sw/lv_draw_sw_transform.c ****         int32_t ys_fract = ys_ups & 0xFF;
 321:Drivers/lvgl/src/draw/sw/lv_draw_sw_transform.c **** 
 322:Drivers/lvgl/src/draw/sw/lv_draw_sw_transform.c ****         int32_t x_next;
 323:Drivers/lvgl/src/draw/sw/lv_draw_sw_transform.c ****         int32_t y_next;
 324:Drivers/lvgl/src/draw/sw/lv_draw_sw_transform.c ****         if(xs_fract < 0x80) {
 325:Drivers/lvgl/src/draw/sw/lv_draw_sw_transform.c ****             x_next = -1;
 326:Drivers/lvgl/src/draw/sw/lv_draw_sw_transform.c ****             xs_fract = (0x7F - xs_fract) * 2;
 327:Drivers/lvgl/src/draw/sw/lv_draw_sw_transform.c ****         }
 328:Drivers/lvgl/src/draw/sw/lv_draw_sw_transform.c ****         else {
 329:Drivers/lvgl/src/draw/sw/lv_draw_sw_transform.c ****             x_next = 1;
 330:Drivers/lvgl/src/draw/sw/lv_draw_sw_transform.c ****             xs_fract = (xs_fract - 0x80) * 2;
 331:Drivers/lvgl/src/draw/sw/lv_draw_sw_transform.c ****         }
 332:Drivers/lvgl/src/draw/sw/lv_draw_sw_transform.c ****         if(ys_fract < 0x80) {
 333:Drivers/lvgl/src/draw/sw/lv_draw_sw_transform.c ****             y_next = -1;
 334:Drivers/lvgl/src/draw/sw/lv_draw_sw_transform.c ****             ys_fract = (0x7F - ys_fract) * 2;
 335:Drivers/lvgl/src/draw/sw/lv_draw_sw_transform.c ****         }
 336:Drivers/lvgl/src/draw/sw/lv_draw_sw_transform.c ****         else {
 337:Drivers/lvgl/src/draw/sw/lv_draw_sw_transform.c ****             y_next = 1;
 338:Drivers/lvgl/src/draw/sw/lv_draw_sw_transform.c ****             ys_fract = (ys_fract - 0x80) * 2;
 339:Drivers/lvgl/src/draw/sw/lv_draw_sw_transform.c ****         }
 340:Drivers/lvgl/src/draw/sw/lv_draw_sw_transform.c **** 
 341:Drivers/lvgl/src/draw/sw/lv_draw_sw_transform.c ****         const uint8_t * src_tmp = src;
 342:Drivers/lvgl/src/draw/sw/lv_draw_sw_transform.c ****         src_tmp += (ys_int * src_stride * px_size) + xs_int * px_size;
 343:Drivers/lvgl/src/draw/sw/lv_draw_sw_transform.c **** 
 344:Drivers/lvgl/src/draw/sw/lv_draw_sw_transform.c **** 
 345:Drivers/lvgl/src/draw/sw/lv_draw_sw_transform.c ****         if(xs_int + x_next >= 0 &&
 346:Drivers/lvgl/src/draw/sw/lv_draw_sw_transform.c ****            xs_int + x_next <= src_w - 1 &&
 347:Drivers/lvgl/src/draw/sw/lv_draw_sw_transform.c ****            ys_int + y_next >= 0 &&
 348:Drivers/lvgl/src/draw/sw/lv_draw_sw_transform.c ****            ys_int + y_next <= src_h - 1) {
 349:Drivers/lvgl/src/draw/sw/lv_draw_sw_transform.c **** 
 350:Drivers/lvgl/src/draw/sw/lv_draw_sw_transform.c ****             const uint8_t * px_base = src_tmp;
 351:Drivers/lvgl/src/draw/sw/lv_draw_sw_transform.c ****             const uint8_t * px_hor = src_tmp + x_next * px_size;
ARM GAS  /var/folders/0z/tsy30v1j4xl4_7kw94k978ww0000gn/T//ccAYAUvH.s 			page 16


 352:Drivers/lvgl/src/draw/sw/lv_draw_sw_transform.c ****             const uint8_t * px_ver = src_tmp + y_next * src_stride * px_size;
 353:Drivers/lvgl/src/draw/sw/lv_draw_sw_transform.c ****             lv_color_t c_base;
 354:Drivers/lvgl/src/draw/sw/lv_draw_sw_transform.c ****             lv_color_t c_ver;
 355:Drivers/lvgl/src/draw/sw/lv_draw_sw_transform.c ****             lv_color_t c_hor;
 356:Drivers/lvgl/src/draw/sw/lv_draw_sw_transform.c **** 
 357:Drivers/lvgl/src/draw/sw/lv_draw_sw_transform.c ****             if(has_alpha) {
 358:Drivers/lvgl/src/draw/sw/lv_draw_sw_transform.c ****                 lv_opa_t a_base;
 359:Drivers/lvgl/src/draw/sw/lv_draw_sw_transform.c ****                 lv_opa_t a_ver;
 360:Drivers/lvgl/src/draw/sw/lv_draw_sw_transform.c ****                 lv_opa_t a_hor;
 361:Drivers/lvgl/src/draw/sw/lv_draw_sw_transform.c ****                 if(cf == LV_IMG_CF_TRUE_COLOR_ALPHA) {
 362:Drivers/lvgl/src/draw/sw/lv_draw_sw_transform.c ****                     a_base = px_base[LV_IMG_PX_SIZE_ALPHA_BYTE - 1];
 363:Drivers/lvgl/src/draw/sw/lv_draw_sw_transform.c ****                     a_ver = px_ver[LV_IMG_PX_SIZE_ALPHA_BYTE - 1];
 364:Drivers/lvgl/src/draw/sw/lv_draw_sw_transform.c ****                     a_hor = px_hor[LV_IMG_PX_SIZE_ALPHA_BYTE - 1];
 365:Drivers/lvgl/src/draw/sw/lv_draw_sw_transform.c ****                 }
 366:Drivers/lvgl/src/draw/sw/lv_draw_sw_transform.c **** #if LV_COLOR_DEPTH == 16
 367:Drivers/lvgl/src/draw/sw/lv_draw_sw_transform.c ****                 else if(cf == LV_IMG_CF_RGB565A8) {
 368:Drivers/lvgl/src/draw/sw/lv_draw_sw_transform.c ****                     const lv_opa_t * a_tmp = src + src_stride * src_h * sizeof(lv_color_t);
 369:Drivers/lvgl/src/draw/sw/lv_draw_sw_transform.c ****                     a_base = *(a_tmp + (ys_int * src_stride) + xs_int);
 370:Drivers/lvgl/src/draw/sw/lv_draw_sw_transform.c ****                     a_hor = *(a_tmp + (ys_int * src_stride) + xs_int + x_next);
 371:Drivers/lvgl/src/draw/sw/lv_draw_sw_transform.c ****                     a_ver = *(a_tmp + ((ys_int + y_next) * src_stride) + xs_int);
 372:Drivers/lvgl/src/draw/sw/lv_draw_sw_transform.c ****                 }
 373:Drivers/lvgl/src/draw/sw/lv_draw_sw_transform.c **** #endif
 374:Drivers/lvgl/src/draw/sw/lv_draw_sw_transform.c ****                 else if(cf == LV_IMG_CF_TRUE_COLOR_CHROMA_KEYED) {
 375:Drivers/lvgl/src/draw/sw/lv_draw_sw_transform.c ****                     if(((lv_color_t *)px_base)->full == ck.full ||
 376:Drivers/lvgl/src/draw/sw/lv_draw_sw_transform.c ****                        ((lv_color_t *)px_ver)->full == ck.full ||
 377:Drivers/lvgl/src/draw/sw/lv_draw_sw_transform.c ****                        ((lv_color_t *)px_hor)->full == ck.full) {
 378:Drivers/lvgl/src/draw/sw/lv_draw_sw_transform.c ****                         abuf[x] = 0x00;
 379:Drivers/lvgl/src/draw/sw/lv_draw_sw_transform.c ****                         continue;
 380:Drivers/lvgl/src/draw/sw/lv_draw_sw_transform.c ****                     }
 381:Drivers/lvgl/src/draw/sw/lv_draw_sw_transform.c ****                     else {
 382:Drivers/lvgl/src/draw/sw/lv_draw_sw_transform.c ****                         a_base = 0xff;
 383:Drivers/lvgl/src/draw/sw/lv_draw_sw_transform.c ****                         a_ver = 0xff;
 384:Drivers/lvgl/src/draw/sw/lv_draw_sw_transform.c ****                         a_hor = 0xff;
 385:Drivers/lvgl/src/draw/sw/lv_draw_sw_transform.c ****                     }
 386:Drivers/lvgl/src/draw/sw/lv_draw_sw_transform.c ****                 }
 387:Drivers/lvgl/src/draw/sw/lv_draw_sw_transform.c ****                 else {
 388:Drivers/lvgl/src/draw/sw/lv_draw_sw_transform.c ****                     a_base = 0xff;
 389:Drivers/lvgl/src/draw/sw/lv_draw_sw_transform.c ****                     a_ver = 0xff;
 390:Drivers/lvgl/src/draw/sw/lv_draw_sw_transform.c ****                     a_hor = 0xff;
 391:Drivers/lvgl/src/draw/sw/lv_draw_sw_transform.c ****                 }
 392:Drivers/lvgl/src/draw/sw/lv_draw_sw_transform.c **** 
 393:Drivers/lvgl/src/draw/sw/lv_draw_sw_transform.c ****                 if(a_ver != a_base) a_ver = ((a_ver * ys_fract) + (a_base * (0x100 - ys_fract))) >>
 394:Drivers/lvgl/src/draw/sw/lv_draw_sw_transform.c ****                 if(a_hor != a_base) a_hor = ((a_hor * xs_fract) + (a_base * (0x100 - xs_fract))) >>
 395:Drivers/lvgl/src/draw/sw/lv_draw_sw_transform.c ****                 abuf[x] = (a_ver + a_hor) >> 1;
 396:Drivers/lvgl/src/draw/sw/lv_draw_sw_transform.c **** 
 397:Drivers/lvgl/src/draw/sw/lv_draw_sw_transform.c ****                 if(abuf[x] == 0x00) continue;
 398:Drivers/lvgl/src/draw/sw/lv_draw_sw_transform.c **** 
 399:Drivers/lvgl/src/draw/sw/lv_draw_sw_transform.c **** #if LV_COLOR_DEPTH == 1 || LV_COLOR_DEPTH == 8
 400:Drivers/lvgl/src/draw/sw/lv_draw_sw_transform.c ****                 c_base.full = px_base[0];
 401:Drivers/lvgl/src/draw/sw/lv_draw_sw_transform.c ****                 c_ver.full = px_ver[0];
 402:Drivers/lvgl/src/draw/sw/lv_draw_sw_transform.c ****                 c_hor.full = px_hor[0];
 403:Drivers/lvgl/src/draw/sw/lv_draw_sw_transform.c **** #elif LV_COLOR_DEPTH == 16
 404:Drivers/lvgl/src/draw/sw/lv_draw_sw_transform.c ****                 c_base.full = px_base[0] + (px_base[1] << 8);
 405:Drivers/lvgl/src/draw/sw/lv_draw_sw_transform.c ****                 c_ver.full = px_ver[0] + (px_ver[1] << 8);
 406:Drivers/lvgl/src/draw/sw/lv_draw_sw_transform.c ****                 c_hor.full = px_hor[0] + (px_hor[1] << 8);
 407:Drivers/lvgl/src/draw/sw/lv_draw_sw_transform.c **** #elif LV_COLOR_DEPTH == 32
 408:Drivers/lvgl/src/draw/sw/lv_draw_sw_transform.c ****                 c_base.full = *((uint32_t *)px_base);
ARM GAS  /var/folders/0z/tsy30v1j4xl4_7kw94k978ww0000gn/T//ccAYAUvH.s 			page 17


 409:Drivers/lvgl/src/draw/sw/lv_draw_sw_transform.c ****                 c_ver.full = *((uint32_t *)px_ver);
 410:Drivers/lvgl/src/draw/sw/lv_draw_sw_transform.c ****                 c_hor.full = *((uint32_t *)px_hor);
 411:Drivers/lvgl/src/draw/sw/lv_draw_sw_transform.c **** #endif
 412:Drivers/lvgl/src/draw/sw/lv_draw_sw_transform.c ****             }
 413:Drivers/lvgl/src/draw/sw/lv_draw_sw_transform.c ****             /*No alpha channel -> RGB*/
 414:Drivers/lvgl/src/draw/sw/lv_draw_sw_transform.c ****             else {
 415:Drivers/lvgl/src/draw/sw/lv_draw_sw_transform.c ****                 c_base = *((const lv_color_t *) px_base);
 416:Drivers/lvgl/src/draw/sw/lv_draw_sw_transform.c ****                 c_hor = *((const lv_color_t *) px_hor);
 417:Drivers/lvgl/src/draw/sw/lv_draw_sw_transform.c ****                 c_ver = *((const lv_color_t *) px_ver);
 418:Drivers/lvgl/src/draw/sw/lv_draw_sw_transform.c ****                 abuf[x] = 0xff;
 419:Drivers/lvgl/src/draw/sw/lv_draw_sw_transform.c ****             }
 420:Drivers/lvgl/src/draw/sw/lv_draw_sw_transform.c **** 
 421:Drivers/lvgl/src/draw/sw/lv_draw_sw_transform.c ****             if(c_base.full == c_ver.full && c_base.full == c_hor.full) {
 422:Drivers/lvgl/src/draw/sw/lv_draw_sw_transform.c ****                 cbuf[x] = c_base;
 423:Drivers/lvgl/src/draw/sw/lv_draw_sw_transform.c ****             }
 424:Drivers/lvgl/src/draw/sw/lv_draw_sw_transform.c ****             else {
 425:Drivers/lvgl/src/draw/sw/lv_draw_sw_transform.c ****                 c_ver = lv_color_mix(c_ver, c_base, ys_fract);
 426:Drivers/lvgl/src/draw/sw/lv_draw_sw_transform.c ****                 c_hor = lv_color_mix(c_hor, c_base, xs_fract);
 427:Drivers/lvgl/src/draw/sw/lv_draw_sw_transform.c ****                 cbuf[x] = lv_color_mix(c_hor, c_ver, LV_OPA_50);
 428:Drivers/lvgl/src/draw/sw/lv_draw_sw_transform.c ****             }
 429:Drivers/lvgl/src/draw/sw/lv_draw_sw_transform.c ****         }
 430:Drivers/lvgl/src/draw/sw/lv_draw_sw_transform.c ****         /*Partially out of the image*/
 431:Drivers/lvgl/src/draw/sw/lv_draw_sw_transform.c ****         else {
 432:Drivers/lvgl/src/draw/sw/lv_draw_sw_transform.c **** #if LV_COLOR_DEPTH == 1 || LV_COLOR_DEPTH == 8
 433:Drivers/lvgl/src/draw/sw/lv_draw_sw_transform.c ****             cbuf[x].full = src_tmp[0];
 434:Drivers/lvgl/src/draw/sw/lv_draw_sw_transform.c **** #elif LV_COLOR_DEPTH == 16
 435:Drivers/lvgl/src/draw/sw/lv_draw_sw_transform.c ****             cbuf[x].full = src_tmp[0] + (src_tmp[1] << 8);
 436:Drivers/lvgl/src/draw/sw/lv_draw_sw_transform.c **** #elif LV_COLOR_DEPTH == 32
 437:Drivers/lvgl/src/draw/sw/lv_draw_sw_transform.c ****             cbuf[x].full = *((uint32_t *)src_tmp);
 438:Drivers/lvgl/src/draw/sw/lv_draw_sw_transform.c **** #endif
 439:Drivers/lvgl/src/draw/sw/lv_draw_sw_transform.c ****             lv_opa_t a;
 440:Drivers/lvgl/src/draw/sw/lv_draw_sw_transform.c ****             switch(cf) {
 441:Drivers/lvgl/src/draw/sw/lv_draw_sw_transform.c ****                 case LV_IMG_CF_TRUE_COLOR_ALPHA:
 442:Drivers/lvgl/src/draw/sw/lv_draw_sw_transform.c ****                     a = src_tmp[LV_IMG_PX_SIZE_ALPHA_BYTE - 1];
 443:Drivers/lvgl/src/draw/sw/lv_draw_sw_transform.c ****                     break;
 444:Drivers/lvgl/src/draw/sw/lv_draw_sw_transform.c ****                 case LV_IMG_CF_TRUE_COLOR_CHROMA_KEYED:
 445:Drivers/lvgl/src/draw/sw/lv_draw_sw_transform.c ****                     a = cbuf[x].full == ck.full ? 0x00 : 0xff;
 446:Drivers/lvgl/src/draw/sw/lv_draw_sw_transform.c ****                     break;
 447:Drivers/lvgl/src/draw/sw/lv_draw_sw_transform.c **** #if LV_COLOR_DEPTH == 16
 448:Drivers/lvgl/src/draw/sw/lv_draw_sw_transform.c ****                 case LV_IMG_CF_RGB565A8:
 449:Drivers/lvgl/src/draw/sw/lv_draw_sw_transform.c ****                     a = *(src + src_stride * src_h * sizeof(lv_color_t) + (ys_int * src_stride) + x
 316              		.loc 1 449 52 is_stmt 0 view .LVU103
 317 00f4 0799     		ldr	r1, [sp, #28]
 318 00f6 0C98     		ldr	r0, [sp, #48]
 319 00f8 013A     		subs	r2, r2, #1
 320 00fa 95B2     		uxth	r5, r2
 321 00fc 00FB01F2 		mul	r2, r0, r1
 322 0100 3799     		ldr	r1, [sp, #220]
 323 0102 2595     		str	r5, [sp, #148]
 324 0104 5000     		lsls	r0, r2, #1
 325 0106 0131     		adds	r1, r1, #1
 326 0108 2944     		add	r1, r1, r5
 327 010a 2290     		str	r0, [sp, #136]
 328              	.LBE74:
 329              	.LBB75:
 330              	.LBB76:
 331              	.LBB77:
ARM GAS  /var/folders/0z/tsy30v1j4xl4_7kw94k978ww0000gn/T//ccAYAUvH.s 			page 18


 368:Drivers/lvgl/src/draw/sw/lv_draw_sw_transform.c ****                     a_base = *(a_tmp + (ys_int * src_stride) + xs_int);
 332              		.loc 1 368 38 view .LVU104
 333 010c 0BEB4200 		add	r0, fp, r2, lsl #1
 334 0110 179A     		ldr	r2, [sp, #92]
 335 0112 0491     		str	r1, [sp, #16]
 336              	.LBE77:
 337              	.LBE76:
 338              	.LBE75:
 339              	.LBE73:
 340              	.LBE72:
 341              	.LBE71:
 151:Drivers/lvgl/src/draw/sw/lv_draw_sw_transform.c ****         abuf += dest_w;
 342              		.loc 1 151 14 view .LVU105
 343 0114 0021     		movs	r1, #0
 344 0116 043A     		subs	r2, r2, #4
 345 0118 0291     		str	r1, [sp, #8]
 346              	.LVL20:
 151:Drivers/lvgl/src/draw/sw/lv_draw_sw_transform.c ****         abuf += dest_w;
 347              		.loc 1 151 14 view .LVU106
 348 011a 1192     		str	r2, [sp, #68]
 114:Drivers/lvgl/src/draw/sw/lv_draw_sw_transform.c ****         transform_point_upscaled(&tr_dsc, dest_area->x2, dest_area->y1 + y, &xs2_ups, &ys2_ups);
 349              		.loc 1 114 72 view .LVU107
 350 011c 029A     		ldr	r2, [sp, #8]
 351              	.LBB175:
 352              	.LBB167:
 353              	.LBB155:
 354              	.LBB143:
 355              	.LBB80:
 356              	.LBB78:
 368:Drivers/lvgl/src/draw/sw/lv_draw_sw_transform.c ****                     a_base = *(a_tmp + (ys_int * src_stride) + xs_int);
 357              		.loc 1 368 38 view .LVU108
 358 011e 2490     		str	r0, [sp, #144]
 359              	.LBE78:
 360              	.LBE80:
 361              	.LBE143:
 362              	.LBE155:
 363              	.LBE167:
 364              	.LBE175:
 365              	.LBB176:
 366              	.LBB177:
 367 0120 1D46     		mov	r5, r3
 368 0122 3346     		mov	r3, r6
 369              	.LBE177:
 370              	.LBE176:
 114:Drivers/lvgl/src/draw/sw/lv_draw_sw_transform.c ****         transform_point_upscaled(&tr_dsc, dest_area->x2, dest_area->y1 + y, &xs2_ups, &ys2_ups);
 371              		.loc 1 114 72 view .LVU109
 372 0124 9E18     		adds	r6, r3, r2
 373              	.LVL21:
 374              	.LBB199:
 375              	.LBI199:
 450:Drivers/lvgl/src/draw/sw/lv_draw_sw_transform.c ****                     break;
 451:Drivers/lvgl/src/draw/sw/lv_draw_sw_transform.c **** #endif
 452:Drivers/lvgl/src/draw/sw/lv_draw_sw_transform.c ****                 default:
 453:Drivers/lvgl/src/draw/sw/lv_draw_sw_transform.c ****                     a = 0xff;
 454:Drivers/lvgl/src/draw/sw/lv_draw_sw_transform.c ****             }
 455:Drivers/lvgl/src/draw/sw/lv_draw_sw_transform.c **** 
 456:Drivers/lvgl/src/draw/sw/lv_draw_sw_transform.c ****             if((xs_int == 0 && x_next < 0) || (xs_int == src_w - 1 && x_next > 0))  {
ARM GAS  /var/folders/0z/tsy30v1j4xl4_7kw94k978ww0000gn/T//ccAYAUvH.s 			page 19


 457:Drivers/lvgl/src/draw/sw/lv_draw_sw_transform.c ****                 abuf[x] = (a * (0xFF - xs_fract)) >> 8;
 458:Drivers/lvgl/src/draw/sw/lv_draw_sw_transform.c ****             }
 459:Drivers/lvgl/src/draw/sw/lv_draw_sw_transform.c ****             else if((ys_int == 0 && y_next < 0) || (ys_int == src_h - 1 && y_next > 0))  {
 460:Drivers/lvgl/src/draw/sw/lv_draw_sw_transform.c ****                 abuf[x] = (a * (0xFF - ys_fract)) >> 8;
 461:Drivers/lvgl/src/draw/sw/lv_draw_sw_transform.c ****             }
 462:Drivers/lvgl/src/draw/sw/lv_draw_sw_transform.c ****             else {
 463:Drivers/lvgl/src/draw/sw/lv_draw_sw_transform.c ****                 abuf[x] = 0x00;
 464:Drivers/lvgl/src/draw/sw/lv_draw_sw_transform.c ****             }
 465:Drivers/lvgl/src/draw/sw/lv_draw_sw_transform.c ****         }
 466:Drivers/lvgl/src/draw/sw/lv_draw_sw_transform.c ****     }
 467:Drivers/lvgl/src/draw/sw/lv_draw_sw_transform.c **** }
 468:Drivers/lvgl/src/draw/sw/lv_draw_sw_transform.c **** 
 469:Drivers/lvgl/src/draw/sw/lv_draw_sw_transform.c **** static void transform_point_upscaled(point_transform_dsc_t * t, int32_t xin, int32_t yin, int32_t *
 376              		.loc 1 469 13 is_stmt 1 view .LVU110
 377              	.LBB200:
 470:Drivers/lvgl/src/draw/sw/lv_draw_sw_transform.c ****                                      int32_t * yout)
 471:Drivers/lvgl/src/draw/sw/lv_draw_sw_transform.c **** {
 472:Drivers/lvgl/src/draw/sw/lv_draw_sw_transform.c ****     if(t->angle == 0 && t->zoom == LV_IMG_ZOOM_NONE) {
 378              		.loc 1 472 5 view .LVU111
 379              		.loc 1 472 7 is_stmt 0 view .LVU112
 380 0126 099B     		ldr	r3, [sp, #36]
 381              	.LBE200:
 382              	.LBE199:
 151:Drivers/lvgl/src/draw/sw/lv_draw_sw_transform.c ****         abuf += dest_w;
 383              		.loc 1 151 14 view .LVU113
 384 0128 4FEA4A00 		lsl	r0, r10, #1
 385 012c 1090     		str	r0, [sp, #64]
 386              	.LBB222:
 387              	.LBB178:
 388 012e 8B46     		mov	fp, r1
 389              	.LVL22:
 151:Drivers/lvgl/src/draw/sw/lv_draw_sw_transform.c ****         abuf += dest_w;
 390              		.loc 1 151 14 view .LVU114
 391 0130 D046     		mov	r8, r10
 392              	.LVL23:
 151:Drivers/lvgl/src/draw/sw/lv_draw_sw_transform.c ****         abuf += dest_w;
 393              		.loc 1 151 14 view .LVU115
 394              	.LBE178:
 395              	.LBE222:
 396              	.LBB223:
 397              	.LBB201:
 398              		.loc 1 472 7 view .LVU116
 399 0132 002B     		cmp	r3, #0
 400 0134 00F01281 		beq	.L128
 401              	.LVL24:
 402              	.L3:
 473:Drivers/lvgl/src/draw/sw/lv_draw_sw_transform.c ****         *xout = xin * 256;
 474:Drivers/lvgl/src/draw/sw/lv_draw_sw_transform.c ****         *yout = yin * 256;
 475:Drivers/lvgl/src/draw/sw/lv_draw_sw_transform.c ****         return;
 476:Drivers/lvgl/src/draw/sw/lv_draw_sw_transform.c ****     }
 477:Drivers/lvgl/src/draw/sw/lv_draw_sw_transform.c **** 
 478:Drivers/lvgl/src/draw/sw/lv_draw_sw_transform.c ****     xin -= t->pivot.x;
 403              		.loc 1 478 5 is_stmt 1 view .LVU117
 404              		.loc 1 478 9 is_stmt 0 view .LVU118
 405 0138 0B9B     		ldr	r3, [sp, #44]
 479:Drivers/lvgl/src/draw/sw/lv_draw_sw_transform.c ****     yin -= t->pivot.y;
 480:Drivers/lvgl/src/draw/sw/lv_draw_sw_transform.c **** 
ARM GAS  /var/folders/0z/tsy30v1j4xl4_7kw94k978ww0000gn/T//ccAYAUvH.s 			page 20


 481:Drivers/lvgl/src/draw/sw/lv_draw_sw_transform.c ****     if(t->angle == 0) {
 482:Drivers/lvgl/src/draw/sw/lv_draw_sw_transform.c ****         *xout = ((int32_t)(xin * t->zoom)) + (t->pivot_x_256);
 483:Drivers/lvgl/src/draw/sw/lv_draw_sw_transform.c ****         *yout = ((int32_t)(yin * t->zoom)) + (t->pivot_y_256);
 484:Drivers/lvgl/src/draw/sw/lv_draw_sw_transform.c ****     }
 485:Drivers/lvgl/src/draw/sw/lv_draw_sw_transform.c ****     else if(t->zoom == LV_IMG_ZOOM_NONE) {
 406              		.loc 1 485 12 view .LVU119
 407 013a 089A     		ldr	r2, [sp, #32]
 478:Drivers/lvgl/src/draw/sw/lv_draw_sw_transform.c ****     yin -= t->pivot.y;
 408              		.loc 1 478 9 view .LVU120
 409 013c ED1A     		subs	r5, r5, r3
 410              	.LVL25:
 479:Drivers/lvgl/src/draw/sw/lv_draw_sw_transform.c ****     yin -= t->pivot.y;
 411              		.loc 1 479 5 is_stmt 1 view .LVU121
 479:Drivers/lvgl/src/draw/sw/lv_draw_sw_transform.c ****     yin -= t->pivot.y;
 412              		.loc 1 479 9 is_stmt 0 view .LVU122
 413 013e 0F9B     		ldr	r3, [sp, #60]
 414              		.loc 1 485 12 view .LVU123
 415 0140 B2F5807F 		cmp	r2, #256
 479:Drivers/lvgl/src/draw/sw/lv_draw_sw_transform.c ****     yin -= t->pivot.y;
 416              		.loc 1 479 9 view .LVU124
 417 0144 A6EB0303 		sub	r3, r6, r3
 418              	.LVL26:
 481:Drivers/lvgl/src/draw/sw/lv_draw_sw_transform.c ****         *xout = ((int32_t)(xin * t->zoom)) + (t->pivot_x_256);
 419              		.loc 1 481 5 is_stmt 1 view .LVU125
 420              		.loc 1 485 10 view .LVU126
 421              		.loc 1 485 12 is_stmt 0 view .LVU127
 422 0148 00F03382 		beq	.L129
 486:Drivers/lvgl/src/draw/sw/lv_draw_sw_transform.c ****         *xout = ((t->cosma * xin - t->sinma * yin) >> 2) + (t->pivot_x_256);
 487:Drivers/lvgl/src/draw/sw/lv_draw_sw_transform.c ****         *yout = ((t->sinma * xin + t->cosma * yin) >> 2) + (t->pivot_y_256);
 488:Drivers/lvgl/src/draw/sw/lv_draw_sw_transform.c ****     }
 489:Drivers/lvgl/src/draw/sw/lv_draw_sw_transform.c ****     else {
 490:Drivers/lvgl/src/draw/sw/lv_draw_sw_transform.c ****         *xout = (((t->cosma * xin - t->sinma * yin) * t->zoom) >> 10) + (t->pivot_x_256);
 423              		.loc 1 490 9 is_stmt 1 view .LVU128
 424              	.LBE201:
 425              	.LBE223:
 426              	.LBB224:
 427              	.LBB179:
 478:Drivers/lvgl/src/draw/sw/lv_draw_sw_transform.c ****     yin -= t->pivot.y;
 428              		.loc 1 478 9 is_stmt 0 view .LVU129
 429 014c 0B9A     		ldr	r2, [sp, #44]
 430              	.LBE179:
 431              	.LBE224:
 432              	.LBB225:
 433              	.LBB202:
 434              		.loc 1 490 46 view .LVU130
 435 014e 1D9E     		ldr	r6, [sp, #116]
 436              	.LBE202:
 437              	.LBE225:
 438              	.LBB226:
 439              	.LBB180:
 478:Drivers/lvgl/src/draw/sw/lv_draw_sw_transform.c ****     yin -= t->pivot.y;
 440              		.loc 1 478 9 view .LVU131
 441 0150 A21A     		subs	r2, r4, r2
 442              	.LBE180:
 443              	.LBE226:
 444              	.LBB227:
 445              	.LBB203:
ARM GAS  /var/folders/0z/tsy30v1j4xl4_7kw94k978ww0000gn/T//ccAYAUvH.s 			page 21


 491:Drivers/lvgl/src/draw/sw/lv_draw_sw_transform.c ****         *yout = (((t->sinma * xin + t->cosma * yin) * t->zoom) >> 10) + (t->pivot_y_256);
 446              		.loc 1 491 46 view .LVU132
 447 0152 1E9C     		ldr	r4, [sp, #120]
 448 0154 03FB04F1 		mul	r1, r3, r4
 490:Drivers/lvgl/src/draw/sw/lv_draw_sw_transform.c ****         *yout = (((t->sinma * xin + t->cosma * yin) * t->zoom) >> 10) + (t->pivot_y_256);
 449              		.loc 1 490 29 view .LVU133
 450 0158 05FB04F0 		mul	r0, r5, r4
 490:Drivers/lvgl/src/draw/sw/lv_draw_sw_transform.c ****         *yout = (((t->sinma * xin + t->cosma * yin) * t->zoom) >> 10) + (t->pivot_y_256);
 451              		.loc 1 490 46 view .LVU134
 452 015c 06FB03F3 		mul	r3, r6, r3
 453              	.LVL27:
 454              		.loc 1 491 35 view .LVU135
 455 0160 05FB0615 		mla	r5, r5, r6, r1
 456              	.LVL28:
 457              		.loc 1 491 35 view .LVU136
 458              	.LBE203:
 459              	.LBE227:
 460              	.LBB228:
 461              	.LBB181:
 462 0164 02FB0611 		mla	r1, r2, r6, r1
 490:Drivers/lvgl/src/draw/sw/lv_draw_sw_transform.c ****         *yout = (((t->sinma * xin + t->cosma * yin) * t->zoom) >> 10) + (t->pivot_y_256);
 463              		.loc 1 490 29 view .LVU137
 464 0168 04FB02F2 		mul	r2, r4, r2
 465              	.LBE181:
 466              	.LBE228:
 467              	.LBB229:
 468              	.LBB204:
 490:Drivers/lvgl/src/draw/sw/lv_draw_sw_transform.c ****         *yout = (((t->sinma * xin + t->cosma * yin) * t->zoom) >> 10) + (t->pivot_y_256);
 469              		.loc 1 490 35 view .LVU138
 470 016c C01A     		subs	r0, r0, r3
 471              	.LBE204:
 472              	.LBE229:
 473              	.LBB230:
 474              	.LBB182:
 475 016e D21A     		subs	r2, r2, r3
 476              		.loc 1 491 53 view .LVU139
 477 0170 089B     		ldr	r3, [sp, #32]
 478              	.LBE182:
 479              	.LBE230:
 480              	.LBB231:
 481              	.LBB205:
 482 0172 03FB05F5 		mul	r5, r3, r5
 483              	.LBE205:
 484              	.LBE231:
 485              	.LBB232:
 486              	.LBB183:
 487 0176 03FB01F1 		mul	r1, r3, r1
 488              	.LBE183:
 489              	.LBE232:
 490              	.LBB233:
 491              	.LBB206:
 490:Drivers/lvgl/src/draw/sw/lv_draw_sw_transform.c ****         *yout = (((t->sinma * xin + t->cosma * yin) * t->zoom) >> 10) + (t->pivot_y_256);
 492              		.loc 1 490 53 view .LVU140
 493 017a 03FB00F0 		mul	r0, r3, r0
 494              	.LBE206:
 495              	.LBE233:
 496              	.LBB234:
ARM GAS  /var/folders/0z/tsy30v1j4xl4_7kw94k978ww0000gn/T//ccAYAUvH.s 			page 22


 497              	.LBB184:
 498 017e 03FB02F2 		mul	r2, r3, r2
 499              	.LBE184:
 500              	.LBE234:
 501              	.LBB235:
 502              	.LBB207:
 490:Drivers/lvgl/src/draw/sw/lv_draw_sw_transform.c ****         *yout = (((t->sinma * xin + t->cosma * yin) * t->zoom) >> 10) + (t->pivot_y_256);
 503              		.loc 1 490 71 view .LVU141
 504 0182 149B     		ldr	r3, [sp, #80]
 505 0184 03EBA020 		add	r0, r3, r0, asr #10
 506              	.LVL29:
 507              		.loc 1 491 9 is_stmt 1 view .LVU142
 508              	.LBE207:
 509              	.LBE235:
 510              	.LBB236:
 511              	.LBB185:
 490:Drivers/lvgl/src/draw/sw/lv_draw_sw_transform.c ****         *yout = (((t->sinma * xin + t->cosma * yin) * t->zoom) >> 10) + (t->pivot_y_256);
 512              		.loc 1 490 71 is_stmt 0 view .LVU143
 513 0188 03EBA222 		add	r2, r3, r2, asr #10
 514              	.LBE185:
 515              	.LBE236:
 516              	.LBB237:
 517              	.LBB208:
 518              		.loc 1 491 71 view .LVU144
 519 018c 159B     		ldr	r3, [sp, #84]
 520              	.LBE208:
 521              	.LBE237:
 522              	.LBB238:
 523              	.LBB186:
 524              		.loc 1 491 64 view .LVU145
 525 018e 8912     		asrs	r1, r1, #10
 526              	.LBE186:
 527              	.LBE238:
 118:Drivers/lvgl/src/draw/sw/lv_draw_sw_transform.c ****         int32_t xs_step_256 = 0;
 528              		.loc 1 118 17 view .LVU146
 529 0190 A1EBA521 		sub	r1, r1, r5, asr #10
 530              	.LBB239:
 531              	.LBB209:
 532              		.loc 1 491 71 view .LVU147
 533 0194 03EBA523 		add	r3, r3, r5, asr #10
 534              	.LVL30:
 535              		.loc 1 491 71 view .LVU148
 536              	.LBE209:
 537              	.LBE239:
 115:Drivers/lvgl/src/draw/sw/lv_draw_sw_transform.c **** 
 538              		.loc 1 115 9 is_stmt 1 view .LVU149
 539              	.LBB240:
 540              	.LBI176:
 469:Drivers/lvgl/src/draw/sw/lv_draw_sw_transform.c ****                                      int32_t * yout)
 541              		.loc 1 469 13 view .LVU150
 542              	.LBB187:
 472:Drivers/lvgl/src/draw/sw/lv_draw_sw_transform.c ****         *xout = xin * 256;
 543              		.loc 1 472 5 view .LVU151
 478:Drivers/lvgl/src/draw/sw/lv_draw_sw_transform.c ****     yin -= t->pivot.y;
 544              		.loc 1 478 5 view .LVU152
 479:Drivers/lvgl/src/draw/sw/lv_draw_sw_transform.c **** 
 545              		.loc 1 479 5 view .LVU153
ARM GAS  /var/folders/0z/tsy30v1j4xl4_7kw94k978ww0000gn/T//ccAYAUvH.s 			page 23


 481:Drivers/lvgl/src/draw/sw/lv_draw_sw_transform.c ****         *xout = ((int32_t)(xin * t->zoom)) + (t->pivot_x_256);
 546              		.loc 1 481 5 view .LVU154
 485:Drivers/lvgl/src/draw/sw/lv_draw_sw_transform.c ****         *xout = ((t->cosma * xin - t->sinma * yin) >> 2) + (t->pivot_x_256);
 547              		.loc 1 485 10 view .LVU155
 490:Drivers/lvgl/src/draw/sw/lv_draw_sw_transform.c ****         *yout = (((t->sinma * xin + t->cosma * yin) * t->zoom) >> 10) + (t->pivot_y_256);
 548              		.loc 1 490 9 view .LVU156
 549              		.loc 1 491 9 view .LVU157
 550              	.L5:
 551              		.loc 1 491 9 is_stmt 0 view .LVU158
 552              	.LBE187:
 553              	.LBE240:
 117:Drivers/lvgl/src/draw/sw/lv_draw_sw_transform.c ****         int32_t ys_diff = ys2_ups - ys1_ups;
 554              		.loc 1 117 9 is_stmt 1 view .LVU159
 118:Drivers/lvgl/src/draw/sw/lv_draw_sw_transform.c ****         int32_t xs_step_256 = 0;
 555              		.loc 1 118 9 view .LVU160
 119:Drivers/lvgl/src/draw/sw/lv_draw_sw_transform.c ****         int32_t ys_step_256 = 0;
 556              		.loc 1 119 9 view .LVU161
 120:Drivers/lvgl/src/draw/sw/lv_draw_sw_transform.c ****         if(dest_w > 1) {
 557              		.loc 1 120 9 view .LVU162
 121:Drivers/lvgl/src/draw/sw/lv_draw_sw_transform.c ****             xs_step_256 = (256 * xs_diff) / (dest_w - 1);
 558              		.loc 1 121 9 view .LVU163
 121:Drivers/lvgl/src/draw/sw/lv_draw_sw_transform.c ****             xs_step_256 = (256 * xs_diff) / (dest_w - 1);
 559              		.loc 1 121 11 is_stmt 0 view .LVU164
 560 0198 B8F1010F 		cmp	r8, #1
 561 019c 40F3F680 		ble	.L93
 562              	.LVL31:
 563              	.L135:
 122:Drivers/lvgl/src/draw/sw/lv_draw_sw_transform.c ****             ys_step_256 = (256 * ys_diff) / (dest_w - 1);
 564              		.loc 1 122 13 is_stmt 1 view .LVU165
 117:Drivers/lvgl/src/draw/sw/lv_draw_sw_transform.c ****         int32_t ys_diff = ys2_ups - ys1_ups;
 565              		.loc 1 117 17 is_stmt 0 view .LVU166
 566 01a0 121A     		subs	r2, r2, r0
 567              	.LVL32:
 122:Drivers/lvgl/src/draw/sw/lv_draw_sw_transform.c ****             ys_step_256 = (256 * ys_diff) / (dest_w - 1);
 568              		.loc 1 122 53 view .LVU167
 569 01a2 08F1FF34 		add	r4, r8, #-1
 570 01a6 24B2     		sxth	r4, r4
 122:Drivers/lvgl/src/draw/sw/lv_draw_sw_transform.c ****             ys_step_256 = (256 * ys_diff) / (dest_w - 1);
 571              		.loc 1 122 32 view .LVU168
 572 01a8 1202     		lsls	r2, r2, #8
 123:Drivers/lvgl/src/draw/sw/lv_draw_sw_transform.c ****         }
 573              		.loc 1 123 32 view .LVU169
 574 01aa 0902     		lsls	r1, r1, #8
 122:Drivers/lvgl/src/draw/sw/lv_draw_sw_transform.c ****             ys_step_256 = (256 * ys_diff) / (dest_w - 1);
 575              		.loc 1 122 25 view .LVU170
 576 01ac 92FBF4FA 		sdiv	r10, r2, r4
 577              	.LVL33:
 123:Drivers/lvgl/src/draw/sw/lv_draw_sw_transform.c ****         }
 578              		.loc 1 123 13 is_stmt 1 view .LVU171
 123:Drivers/lvgl/src/draw/sw/lv_draw_sw_transform.c ****         }
 579              		.loc 1 123 25 is_stmt 0 view .LVU172
 580 01b0 91FBF4F9 		sdiv	r9, r1, r4
 581              	.LVL34:
 582              	.L6:
 125:Drivers/lvgl/src/draw/sw/lv_draw_sw_transform.c ****         int32_t ys_ups = ys1_ups + 0x80;
 583              		.loc 1 125 9 is_stmt 1 view .LVU173
 126:Drivers/lvgl/src/draw/sw/lv_draw_sw_transform.c **** 
ARM GAS  /var/folders/0z/tsy30v1j4xl4_7kw94k978ww0000gn/T//ccAYAUvH.s 			page 24


 584              		.loc 1 126 17 is_stmt 0 view .LVU174
 585 01b4 8033     		adds	r3, r3, #128
 586              	.LVL35:
 126:Drivers/lvgl/src/draw/sw/lv_draw_sw_transform.c **** 
 587              		.loc 1 126 17 view .LVU175
 588 01b6 0193     		str	r3, [sp, #4]
 128:Drivers/lvgl/src/draw/sw/lv_draw_sw_transform.c ****             switch(cf) {
 589              		.loc 1 128 32 view .LVU176
 590 01b8 349B     		ldr	r3, [sp, #208]
 591              	.LVL36:
 129:Drivers/lvgl/src/draw/sw/lv_draw_sw_transform.c ****                 case LV_IMG_CF_TRUE_COLOR_ALPHA:
 592              		.loc 1 129 13 view .LVU177
 593 01ba 119A     		ldr	r2, [sp, #68]
 128:Drivers/lvgl/src/draw/sw/lv_draw_sw_transform.c ****             switch(cf) {
 594              		.loc 1 128 32 view .LVU178
 595 01bc 1B7D     		ldrb	r3, [r3, #20]	@ zero_extendqisi2
 128:Drivers/lvgl/src/draw/sw/lv_draw_sw_transform.c ****             switch(cf) {
 596              		.loc 1 128 11 view .LVU179
 597 01be D907     		lsls	r1, r3, #31
 125:Drivers/lvgl/src/draw/sw/lv_draw_sw_transform.c ****         int32_t ys_ups = ys1_ups + 0x80;
 598              		.loc 1 125 17 view .LVU180
 599 01c0 00F18007 		add	r7, r0, #128
 600              	.LVL37:
 126:Drivers/lvgl/src/draw/sw/lv_draw_sw_transform.c **** 
 601              		.loc 1 126 9 is_stmt 1 view .LVU181
 128:Drivers/lvgl/src/draw/sw/lv_draw_sw_transform.c ****             switch(cf) {
 602              		.loc 1 128 9 view .LVU182
 128:Drivers/lvgl/src/draw/sw/lv_draw_sw_transform.c ****             switch(cf) {
 603              		.loc 1 128 11 is_stmt 0 view .LVU183
 604 01c4 00F1AC81 		bmi	.L7
 129:Drivers/lvgl/src/draw/sw/lv_draw_sw_transform.c ****                 case LV_IMG_CF_TRUE_COLOR_ALPHA:
 605              		.loc 1 129 13 is_stmt 1 view .LVU184
 606 01c8 102A     		cmp	r2, #16
 607 01ca 00F2A880 		bhi	.L8
 608 01ce DFE812F0 		tbh	[pc, r2, lsl #1]
 609              	.L10:
 610 01d2 E100     		.2byte	(.L11-.L10)/2
 611 01d4 1E01     		.2byte	(.L12-.L10)/2
 612 01d6 E100     		.2byte	(.L11-.L10)/2
 613 01d8 A600     		.2byte	(.L8-.L10)/2
 614 01da A600     		.2byte	(.L8-.L10)/2
 615 01dc A600     		.2byte	(.L8-.L10)/2
 616 01de A600     		.2byte	(.L8-.L10)/2
 617 01e0 A600     		.2byte	(.L8-.L10)/2
 618 01e2 A600     		.2byte	(.L8-.L10)/2
 619 01e4 A600     		.2byte	(.L8-.L10)/2
 620 01e6 A600     		.2byte	(.L8-.L10)/2
 621 01e8 A600     		.2byte	(.L8-.L10)/2
 622 01ea A600     		.2byte	(.L8-.L10)/2
 623 01ec A600     		.2byte	(.L8-.L10)/2
 624 01ee A600     		.2byte	(.L8-.L10)/2
 625 01f0 A600     		.2byte	(.L8-.L10)/2
 626 01f2 7401     		.2byte	(.L9-.L10)/2
 627              		.p2align 1
 628              	.L149:
 629              		.align	2
 630              	.L148:
ARM GAS  /var/folders/0z/tsy30v1j4xl4_7kw94k978ww0000gn/T//ccAYAUvH.s 			page 25


 631 01f4 67666666 		.word	1717986919
 632              	.LVL38:
 633              	.L55:
 634              	.LBB241:
 635              	.LBB168:
 295:Drivers/lvgl/src/draw/sw/lv_draw_sw_transform.c ****             px_size = sizeof(lv_color_t);
 636              		.loc 1 295 13 view .LVU185
 296:Drivers/lvgl/src/draw/sw/lv_draw_sw_transform.c ****             break;
 637              		.loc 1 296 13 view .LVU186
 297:Drivers/lvgl/src/draw/sw/lv_draw_sw_transform.c **** #endif
 638              		.loc 1 297 13 view .LVU187
 276:Drivers/lvgl/src/draw/sw/lv_draw_sw_transform.c ****     switch(cf) {
 639              		.loc 1 276 16 is_stmt 0 view .LVU188
 640 01f8 0023     		movs	r3, #0
 641              	.LVL39:
 642              	.L124:
 276:Drivers/lvgl/src/draw/sw/lv_draw_sw_transform.c ****     switch(cf) {
 643              		.loc 1 276 16 view .LVU189
 644 01fa 2193     		str	r3, [sp, #132]
 296:Drivers/lvgl/src/draw/sw/lv_draw_sw_transform.c ****             break;
 645              		.loc 1 296 21 view .LVU190
 646 01fc 0223     		movs	r3, #2
 647 01fe 1893     		str	r3, [sp, #96]
 295:Drivers/lvgl/src/draw/sw/lv_draw_sw_transform.c ****             px_size = sizeof(lv_color_t);
 648              		.loc 1 295 23 view .LVU191
 649 0200 0123     		movs	r3, #1
 650 0202 2393     		str	r3, [sp, #140]
 651              	.LVL40:
 652              	.L59:
 303:Drivers/lvgl/src/draw/sw/lv_draw_sw_transform.c ****     for(x = 0; x < x_end; x++) {
 653              		.loc 1 303 5 is_stmt 1 view .LVU192
 304:Drivers/lvgl/src/draw/sw/lv_draw_sw_transform.c ****         xs_ups = xs_ups_start + ((xs_step * x) >> 8);
 654              		.loc 1 304 5 view .LVU193
 304:Drivers/lvgl/src/draw/sw/lv_draw_sw_transform.c ****         xs_ups = xs_ups_start + ((xs_step * x) >> 8);
 655              		.loc 1 304 18 view .LVU194
 656 0204 B8F1000F 		cmp	r8, #0
 657 0208 40F38980 		ble	.L8
 658              	.LBB156:
 659              	.LBB144:
 456:Drivers/lvgl/src/draw/sw/lv_draw_sw_transform.c ****                 abuf[x] = (a * (0xFF - xs_fract)) >> 8;
 660              		.loc 1 456 64 is_stmt 0 view .LVU195
 661 020c 0399     		ldr	r1, [sp, #12]
 662 020e 0139     		subs	r1, r1, #1
 663 0210 1C91     		str	r1, [sp, #112]
 459:Drivers/lvgl/src/draw/sw/lv_draw_sw_transform.c ****                 abuf[x] = (a * (0xFF - ys_fract)) >> 8;
 664              		.loc 1 459 69 view .LVU196
 665 0212 0799     		ldr	r1, [sp, #28]
 666 0214 DDE93642 		ldrd	r4, r2, [sp, #216]
 667              	.LBE144:
 668              	.LBE156:
 304:Drivers/lvgl/src/draw/sw/lv_draw_sw_transform.c ****         xs_ups = xs_ups_start + ((xs_step * x) >> 8);
 669              		.loc 1 304 18 view .LVU197
 670 0218 4FF0000C 		mov	ip, #0
 671              	.LBB157:
 672              	.LBB145:
 459:Drivers/lvgl/src/draw/sw/lv_draw_sw_transform.c ****                 abuf[x] = (a * (0xFF - ys_fract)) >> 8;
 673              		.loc 1 459 69 view .LVU198
ARM GAS  /var/folders/0z/tsy30v1j4xl4_7kw94k978ww0000gn/T//ccAYAUvH.s 			page 26


 674 021c 0139     		subs	r1, r1, #1
 440:Drivers/lvgl/src/draw/sw/lv_draw_sw_transform.c ****                 case LV_IMG_CF_TRUE_COLOR_ALPHA:
 675              		.loc 1 440 13 view .LVU199
 676 021e CDE90597 		strd	r9, r7, [sp, #20]
 677              	.LBE145:
 678              	.LBE157:
 304:Drivers/lvgl/src/draw/sw/lv_draw_sw_transform.c ****         xs_ups = xs_ups_start + ((xs_step * x) >> 8);
 679              		.loc 1 304 18 view .LVU200
 680 0222 6346     		mov	r3, ip
 681 0224 E646     		mov	lr, ip
 682              	.LBB158:
 683              	.LBB146:
 459:Drivers/lvgl/src/draw/sw/lv_draw_sw_transform.c ****                 abuf[x] = (a * (0xFF - ys_fract)) >> 8;
 684              		.loc 1 459 69 view .LVU201
 685 0226 2091     		str	r1, [sp, #128]
 440:Drivers/lvgl/src/draw/sw/lv_draw_sw_transform.c ****                 case LV_IMG_CF_TRUE_COLOR_ALPHA:
 686              		.loc 1 440 13 view .LVU202
 687 0228 C146     		mov	r9, r8
 688              	.LVL41:
 689              	.L89:
 440:Drivers/lvgl/src/draw/sw/lv_draw_sw_transform.c ****                 case LV_IMG_CF_TRUE_COLOR_ALPHA:
 690              		.loc 1 440 13 view .LVU203
 691              	.LBE146:
 305:Drivers/lvgl/src/draw/sw/lv_draw_sw_transform.c ****         ys_ups = ys_ups_start + ((ys_step * x) >> 8);
 692              		.loc 1 305 9 is_stmt 1 view .LVU204
 305:Drivers/lvgl/src/draw/sw/lv_draw_sw_transform.c ****         ys_ups = ys_ups_start + ((ys_step * x) >> 8);
 693              		.loc 1 305 16 is_stmt 0 view .LVU205
 694 022a 0699     		ldr	r1, [sp, #24]
 695 022c 01EB2325 		add	r5, r1, r3, asr #8
 696              	.LVL42:
 306:Drivers/lvgl/src/draw/sw/lv_draw_sw_transform.c **** 
 697              		.loc 1 306 9 is_stmt 1 view .LVU206
 308:Drivers/lvgl/src/draw/sw/lv_draw_sw_transform.c ****         int32_t ys_int = ys_ups >> 8;
 698              		.loc 1 308 9 view .LVU207
 309:Drivers/lvgl/src/draw/sw/lv_draw_sw_transform.c **** 
 699              		.loc 1 309 9 view .LVU208
 312:Drivers/lvgl/src/draw/sw/lv_draw_sw_transform.c ****             abuf[x] = 0x00;
 700              		.loc 1 312 9 view .LVU209
 312:Drivers/lvgl/src/draw/sw/lv_draw_sw_transform.c ****             abuf[x] = 0x00;
 701              		.loc 1 312 11 is_stmt 0 view .LVU210
 702 0230 2912     		asrs	r1, r5, #8
 703              	.LVL43:
 312:Drivers/lvgl/src/draw/sw/lv_draw_sw_transform.c ****             abuf[x] = 0x00;
 704              		.loc 1 312 11 view .LVU211
 705 0232 64D4     		bmi	.L88
 312:Drivers/lvgl/src/draw/sw/lv_draw_sw_transform.c ****             abuf[x] = 0x00;
 706              		.loc 1 312 23 view .LVU212
 707 0234 0398     		ldr	r0, [sp, #12]
 708 0236 8142     		cmp	r1, r0
 709 0238 61DA     		bge	.L88
 306:Drivers/lvgl/src/draw/sw/lv_draw_sw_transform.c **** 
 710              		.loc 1 306 16 view .LVU213
 711 023a 0198     		ldr	r0, [sp, #4]
 712 023c 00EB2C26 		add	r6, r0, ip, asr #8
 312:Drivers/lvgl/src/draw/sw/lv_draw_sw_transform.c ****             abuf[x] = 0x00;
 713              		.loc 1 312 42 view .LVU214
 714 0240 3012     		asrs	r0, r6, #8
ARM GAS  /var/folders/0z/tsy30v1j4xl4_7kw94k978ww0000gn/T//ccAYAUvH.s 			page 27


 715 0242 5CD4     		bmi	.L88
 312:Drivers/lvgl/src/draw/sw/lv_draw_sw_transform.c ****             abuf[x] = 0x00;
 716              		.loc 1 312 56 view .LVU215
 717 0244 079F     		ldr	r7, [sp, #28]
 718 0246 B842     		cmp	r0, r7
 719 0248 59DA     		bge	.L88
 319:Drivers/lvgl/src/draw/sw/lv_draw_sw_transform.c ****         int32_t ys_fract = ys_ups & 0xFF;
 720              		.loc 1 319 9 is_stmt 1 view .LVU216
 319:Drivers/lvgl/src/draw/sw/lv_draw_sw_transform.c ****         int32_t ys_fract = ys_ups & 0xFF;
 721              		.loc 1 319 17 is_stmt 0 view .LVU217
 722 024a EFB2     		uxtb	r7, r5
 723              	.LVL44:
 320:Drivers/lvgl/src/draw/sw/lv_draw_sw_transform.c **** 
 724              		.loc 1 320 9 is_stmt 1 view .LVU218
 324:Drivers/lvgl/src/draw/sw/lv_draw_sw_transform.c ****             x_next = -1;
 725              		.loc 1 324 11 is_stmt 0 view .LVU219
 726 024c 2D06     		lsls	r5, r5, #24
 727              	.LVL45:
 320:Drivers/lvgl/src/draw/sw/lv_draw_sw_transform.c **** 
 728              		.loc 1 320 17 view .LVU220
 729 024e 5FFA86F8 		uxtb	r8, r6
 730              	.LVL46:
 322:Drivers/lvgl/src/draw/sw/lv_draw_sw_transform.c ****         int32_t y_next;
 731              		.loc 1 322 9 is_stmt 1 view .LVU221
 323:Drivers/lvgl/src/draw/sw/lv_draw_sw_transform.c ****         if(xs_fract < 0x80) {
 732              		.loc 1 323 9 view .LVU222
 324:Drivers/lvgl/src/draw/sw/lv_draw_sw_transform.c ****             x_next = -1;
 733              		.loc 1 324 9 view .LVU223
 324:Drivers/lvgl/src/draw/sw/lv_draw_sw_transform.c ****             x_next = -1;
 734              		.loc 1 324 11 is_stmt 0 view .LVU224
 735 0252 00F19E81 		bmi	.L63
 325:Drivers/lvgl/src/draw/sw/lv_draw_sw_transform.c ****             xs_fract = (0x7F - xs_fract) * 2;
 736              		.loc 1 325 13 is_stmt 1 view .LVU225
 737              	.LVL47:
 326:Drivers/lvgl/src/draw/sw/lv_draw_sw_transform.c ****         }
 738              		.loc 1 326 13 view .LVU226
 326:Drivers/lvgl/src/draw/sw/lv_draw_sw_transform.c ****         }
 739              		.loc 1 326 30 is_stmt 0 view .LVU227
 740 0256 C7F17F07 		rsb	r7, r7, #127
 741              	.LVL48:
 326:Drivers/lvgl/src/draw/sw/lv_draw_sw_transform.c ****         }
 742              		.loc 1 326 22 view .LVU228
 743 025a 7D00     		lsls	r5, r7, #1
 744 025c 1995     		str	r5, [sp, #100]
 745              	.LVL49:
 332:Drivers/lvgl/src/draw/sw/lv_draw_sw_transform.c ****             y_next = -1;
 746              		.loc 1 332 9 is_stmt 1 view .LVU229
 325:Drivers/lvgl/src/draw/sw/lv_draw_sw_transform.c ****             xs_fract = (0x7F - xs_fract) * 2;
 747              		.loc 1 325 20 is_stmt 0 view .LVU230
 748 025e 4FF0FF35 		mov	r5, #-1
 749              	.LVL50:
 325:Drivers/lvgl/src/draw/sw/lv_draw_sw_transform.c ****             xs_fract = (0x7F - xs_fract) * 2;
 750              		.loc 1 325 20 view .LVU231
 751 0262 0D95     		str	r5, [sp, #52]
 752              	.LVL51:
 332:Drivers/lvgl/src/draw/sw/lv_draw_sw_transform.c ****             y_next = -1;
 753              		.loc 1 332 11 view .LVU232
ARM GAS  /var/folders/0z/tsy30v1j4xl4_7kw94k978ww0000gn/T//ccAYAUvH.s 			page 28


 754 0264 3506     		lsls	r5, r6, #24
 755 0266 00F19C81 		bmi	.L65
 756              	.L141:
 333:Drivers/lvgl/src/draw/sw/lv_draw_sw_transform.c ****             ys_fract = (0x7F - ys_fract) * 2;
 757              		.loc 1 333 13 is_stmt 1 view .LVU233
 758              	.LVL52:
 334:Drivers/lvgl/src/draw/sw/lv_draw_sw_transform.c ****         }
 759              		.loc 1 334 13 view .LVU234
 334:Drivers/lvgl/src/draw/sw/lv_draw_sw_transform.c ****         }
 760              		.loc 1 334 30 is_stmt 0 view .LVU235
 761 026a C8F17F08 		rsb	r8, r8, #127
 762              	.LVL53:
 334:Drivers/lvgl/src/draw/sw/lv_draw_sw_transform.c ****         }
 763              		.loc 1 334 22 view .LVU236
 764 026e 4FEA4805 		lsl	r5, r8, #1
 765 0272 1A95     		str	r5, [sp, #104]
 766              	.LVL54:
 333:Drivers/lvgl/src/draw/sw/lv_draw_sw_transform.c ****             ys_fract = (0x7F - ys_fract) * 2;
 767              		.loc 1 333 20 view .LVU237
 768 0274 4FF0FF35 		mov	r5, #-1
 769              	.LVL55:
 333:Drivers/lvgl/src/draw/sw/lv_draw_sw_transform.c ****             ys_fract = (0x7F - ys_fract) * 2;
 770              		.loc 1 333 20 view .LVU238
 771 0278 1395     		str	r5, [sp, #76]
 772              	.LVL56:
 773              	.L66:
 341:Drivers/lvgl/src/draw/sw/lv_draw_sw_transform.c ****         src_tmp += (ys_int * src_stride * px_size) + xs_int * px_size;
 774              		.loc 1 341 9 is_stmt 1 view .LVU239
 342:Drivers/lvgl/src/draw/sw/lv_draw_sw_transform.c **** 
 775              		.loc 1 342 9 view .LVU240
 342:Drivers/lvgl/src/draw/sw/lv_draw_sw_transform.c **** 
 776              		.loc 1 342 28 is_stmt 0 view .LVU241
 777 027a 0C9D     		ldr	r5, [sp, #48]
 342:Drivers/lvgl/src/draw/sw/lv_draw_sw_transform.c **** 
 778              		.loc 1 342 52 view .LVU242
 779 027c 189F     		ldr	r7, [sp, #96]
 342:Drivers/lvgl/src/draw/sw/lv_draw_sw_transform.c **** 
 780              		.loc 1 342 28 view .LVU243
 781 027e 05FB00F6 		mul	r6, r5, r0
 342:Drivers/lvgl/src/draw/sw/lv_draw_sw_transform.c **** 
 782              		.loc 1 342 52 view .LVU244
 783 0282 8D19     		adds	r5, r1, r6
 342:Drivers/lvgl/src/draw/sw/lv_draw_sw_transform.c **** 
 784              		.loc 1 342 28 view .LVU245
 785 0284 1B96     		str	r6, [sp, #108]
 342:Drivers/lvgl/src/draw/sw/lv_draw_sw_transform.c **** 
 786              		.loc 1 342 52 view .LVU246
 787 0286 1F95     		str	r5, [sp, #124]
 788 0288 07FB05F6 		mul	r6, r7, r5
 345:Drivers/lvgl/src/draw/sw/lv_draw_sw_transform.c ****            xs_int + x_next <= src_w - 1 &&
 789              		.loc 1 345 19 view .LVU247
 790 028c 0D9D     		ldr	r5, [sp, #52]
 342:Drivers/lvgl/src/draw/sw/lv_draw_sw_transform.c **** 
 791              		.loc 1 342 17 view .LVU248
 792 028e 0A9F     		ldr	r7, [sp, #40]
 342:Drivers/lvgl/src/draw/sw/lv_draw_sw_transform.c **** 
 793              		.loc 1 342 52 view .LVU249
ARM GAS  /var/folders/0z/tsy30v1j4xl4_7kw94k978ww0000gn/T//ccAYAUvH.s 			page 29


 794 0290 1296     		str	r6, [sp, #72]
 345:Drivers/lvgl/src/draw/sw/lv_draw_sw_transform.c ****            xs_int + x_next <= src_w - 1 &&
 795              		.loc 1 345 19 view .LVU250
 796 0292 4D19     		adds	r5, r1, r5
 342:Drivers/lvgl/src/draw/sw/lv_draw_sw_transform.c **** 
 797              		.loc 1 342 17 view .LVU251
 798 0294 07EB0608 		add	r8, r7, r6
 799              	.LVL57:
 345:Drivers/lvgl/src/draw/sw/lv_draw_sw_transform.c ****            xs_int + x_next <= src_w - 1 &&
 800              		.loc 1 345 9 is_stmt 1 view .LVU252
 345:Drivers/lvgl/src/draw/sw/lv_draw_sw_transform.c ****            xs_int + x_next <= src_w - 1 &&
 801              		.loc 1 345 11 is_stmt 0 view .LVU253
 802 0298 6F1C     		adds	r7, r5, #1
 803 029a 0BD0     		beq	.L67
 345:Drivers/lvgl/src/draw/sw/lv_draw_sw_transform.c ****            xs_int + x_next <= src_w - 1 &&
 804              		.loc 1 345 33 view .LVU254
 805 029c 039F     		ldr	r7, [sp, #12]
 806 029e AF42     		cmp	r7, r5
 807 02a0 08DD     		ble	.L67
 347:Drivers/lvgl/src/draw/sw/lv_draw_sw_transform.c ****            ys_int + y_next <= src_h - 1) {
 808              		.loc 1 347 19 view .LVU255
 809 02a2 139F     		ldr	r7, [sp, #76]
 810 02a4 C719     		adds	r7, r0, r7
 346:Drivers/lvgl/src/draw/sw/lv_draw_sw_transform.c ****            ys_int + y_next >= 0 &&
 811              		.loc 1 346 41 view .LVU256
 812 02a6 7E1C     		adds	r6, r7, #1
 347:Drivers/lvgl/src/draw/sw/lv_draw_sw_transform.c ****            ys_int + y_next <= src_h - 1) {
 813              		.loc 1 347 19 view .LVU257
 814 02a8 2697     		str	r7, [sp, #152]
 346:Drivers/lvgl/src/draw/sw/lv_draw_sw_transform.c ****            ys_int + y_next >= 0 &&
 815              		.loc 1 346 41 view .LVU258
 816 02aa 03D0     		beq	.L67
 347:Drivers/lvgl/src/draw/sw/lv_draw_sw_transform.c ****            ys_int + y_next <= src_h - 1) {
 817              		.loc 1 347 33 view .LVU259
 818 02ac 079E     		ldr	r6, [sp, #28]
 819 02ae BE42     		cmp	r6, r7
 820 02b0 00F3C281 		bgt	.L130
 821              	.L67:
 822              	.LBB147:
 435:Drivers/lvgl/src/draw/sw/lv_draw_sw_transform.c **** #elif LV_COLOR_DEPTH == 32
 823              		.loc 1 435 13 is_stmt 1 view .LVU260
 435:Drivers/lvgl/src/draw/sw/lv_draw_sw_transform.c **** #elif LV_COLOR_DEPTH == 32
 824              		.loc 1 435 35 is_stmt 0 view .LVU261
 825 02b4 0A9F     		ldr	r7, [sp, #40]
 826 02b6 129E     		ldr	r6, [sp, #72]
 827 02b8 BE5D     		ldrb	r6, [r7, r6]	@ zero_extendqisi2
 435:Drivers/lvgl/src/draw/sw/lv_draw_sw_transform.c **** #elif LV_COLOR_DEPTH == 32
 828              		.loc 1 435 49 view .LVU262
 829 02ba 98F80170 		ldrb	r7, [r8, #1]	@ zero_extendqisi2
 435:Drivers/lvgl/src/draw/sw/lv_draw_sw_transform.c **** #elif LV_COLOR_DEPTH == 32
 830              		.loc 1 435 39 view .LVU263
 831 02be 06EB0726 		add	r6, r6, r7, lsl #8
 440:Drivers/lvgl/src/draw/sw/lv_draw_sw_transform.c ****                 case LV_IMG_CF_TRUE_COLOR_ALPHA:
 832              		.loc 1 440 13 view .LVU264
 833 02c2 179F     		ldr	r7, [sp, #92]
 435:Drivers/lvgl/src/draw/sw/lv_draw_sw_transform.c **** #elif LV_COLOR_DEPTH == 32
 834              		.loc 1 435 39 view .LVU265
ARM GAS  /var/folders/0z/tsy30v1j4xl4_7kw94k978ww0000gn/T//ccAYAUvH.s 			page 30


 835 02c4 B6B2     		uxth	r6, r6
 440:Drivers/lvgl/src/draw/sw/lv_draw_sw_transform.c ****                 case LV_IMG_CF_TRUE_COLOR_ALPHA:
 836              		.loc 1 440 13 view .LVU266
 837 02c6 062F     		cmp	r7, #6
 435:Drivers/lvgl/src/draw/sw/lv_draw_sw_transform.c **** #elif LV_COLOR_DEPTH == 32
 838              		.loc 1 435 26 view .LVU267
 839 02c8 2680     		strh	r6, [r4]	@ movhi
 439:Drivers/lvgl/src/draw/sw/lv_draw_sw_transform.c ****             switch(cf) {
 840              		.loc 1 439 13 is_stmt 1 view .LVU268
 440:Drivers/lvgl/src/draw/sw/lv_draw_sw_transform.c ****                 case LV_IMG_CF_TRUE_COLOR_ALPHA:
 841              		.loc 1 440 13 view .LVU269
 842 02ca 00F09381 		beq	.L80
 843 02ce 142F     		cmp	r7, #20
 844 02d0 00F09A81 		beq	.L81
 845 02d4 052F     		cmp	r7, #5
 846 02d6 00F09481 		beq	.L131
 847 02da FF26     		movs	r6, #255
 848              	.L82:
 849              	.LVL58:
 456:Drivers/lvgl/src/draw/sw/lv_draw_sw_transform.c ****                 abuf[x] = (a * (0xFF - xs_fract)) >> 8;
 850              		.loc 1 456 13 view .LVU270
 456:Drivers/lvgl/src/draw/sw/lv_draw_sw_transform.c ****                 abuf[x] = (a * (0xFF - xs_fract)) >> 8;
 851              		.loc 1 456 15 is_stmt 0 view .LVU271
 852 02dc 11B9     		cbnz	r1, .L83
 456:Drivers/lvgl/src/draw/sw/lv_draw_sw_transform.c ****                 abuf[x] = (a * (0xFF - xs_fract)) >> 8;
 853              		.loc 1 456 29 view .LVU272
 854 02de 0135     		adds	r5, r5, #1
 855 02e0 00F04A81 		beq	.L84
 856              	.L83:
 456:Drivers/lvgl/src/draw/sw/lv_draw_sw_transform.c ****                 abuf[x] = (a * (0xFF - xs_fract)) >> 8;
 857              		.loc 1 456 44 view .LVU273
 858 02e4 1C9D     		ldr	r5, [sp, #112]
 859 02e6 A942     		cmp	r1, r5
 860 02e8 00F04281 		beq	.L132
 861              	.LVL59:
 862              	.L85:
 459:Drivers/lvgl/src/draw/sw/lv_draw_sw_transform.c ****                 abuf[x] = (a * (0xFF - ys_fract)) >> 8;
 863              		.loc 1 459 18 is_stmt 1 view .LVU274
 459:Drivers/lvgl/src/draw/sw/lv_draw_sw_transform.c ****                 abuf[x] = (a * (0xFF - ys_fract)) >> 8;
 864              		.loc 1 459 20 is_stmt 0 view .LVU275
 865 02ec 18B9     		cbnz	r0, .L86
 459:Drivers/lvgl/src/draw/sw/lv_draw_sw_transform.c ****                 abuf[x] = (a * (0xFF - ys_fract)) >> 8;
 866              		.loc 1 459 34 view .LVU276
 867 02ee 1399     		ldr	r1, [sp, #76]
 868 02f0 0131     		adds	r1, r1, #1
 869 02f2 00F09981 		beq	.L87
 870              	.L86:
 459:Drivers/lvgl/src/draw/sw/lv_draw_sw_transform.c ****                 abuf[x] = (a * (0xFF - ys_fract)) >> 8;
 871              		.loc 1 459 49 view .LVU277
 872 02f6 2099     		ldr	r1, [sp, #128]
 873 02f8 8842     		cmp	r0, r1
 874 02fa 00F09181 		beq	.L133
 875              	.LVL60:
 876              	.L88:
 463:Drivers/lvgl/src/draw/sw/lv_draw_sw_transform.c ****             }
 877              		.loc 1 463 17 is_stmt 1 view .LVU278
 463:Drivers/lvgl/src/draw/sw/lv_draw_sw_transform.c ****             }
ARM GAS  /var/folders/0z/tsy30v1j4xl4_7kw94k978ww0000gn/T//ccAYAUvH.s 			page 31


 878              		.loc 1 463 25 is_stmt 0 view .LVU279
 879 02fe 82F800B0 		strb	fp, [r2]
 880              	.LVL61:
 881              	.L62:
 463:Drivers/lvgl/src/draw/sw/lv_draw_sw_transform.c ****             }
 882              		.loc 1 463 25 view .LVU280
 883              	.LBE147:
 884              	.LBE158:
 304:Drivers/lvgl/src/draw/sw/lv_draw_sw_transform.c ****         xs_ups = xs_ups_start + ((xs_step * x) >> 8);
 885              		.loc 1 304 28 is_stmt 1 view .LVU281
 304:Drivers/lvgl/src/draw/sw/lv_draw_sw_transform.c ****         xs_ups = xs_ups_start + ((xs_step * x) >> 8);
 886              		.loc 1 304 18 view .LVU282
 887 0302 0599     		ldr	r1, [sp, #20]
 888 0304 0EF1010E 		add	lr, lr, #1
 889              	.LVL62:
 304:Drivers/lvgl/src/draw/sw/lv_draw_sw_transform.c ****         xs_ups = xs_ups_start + ((xs_step * x) >> 8);
 890              		.loc 1 304 18 is_stmt 0 view .LVU283
 891 0308 8C44     		add	ip, ip, r1
 892 030a 0FFA8EF1 		sxth	r1, lr
 893 030e 8945     		cmp	r9, r1
 894 0310 5344     		add	r3, r3, r10
 304:Drivers/lvgl/src/draw/sw/lv_draw_sw_transform.c ****         xs_ups = xs_ups_start + ((xs_step * x) >> 8);
 895              		.loc 1 304 18 view .LVU284
 896 0312 02F10102 		add	r2, r2, #1
 897 0316 04F10204 		add	r4, r4, #2
 898 031a 86DC     		bgt	.L89
 899 031c C846     		mov	r8, r9
 900              	.LVL63:
 901              	.L8:
 304:Drivers/lvgl/src/draw/sw/lv_draw_sw_transform.c ****         xs_ups = xs_ups_start + ((xs_step * x) >> 8);
 902              		.loc 1 304 18 view .LVU285
 903              	.LBE168:
 904              	.LBE241:
 151:Drivers/lvgl/src/draw/sw/lv_draw_sw_transform.c ****         abuf += dest_w;
 905              		.loc 1 151 9 is_stmt 1 discriminator 2 view .LVU286
 151:Drivers/lvgl/src/draw/sw/lv_draw_sw_transform.c ****         abuf += dest_w;
 906              		.loc 1 151 14 is_stmt 0 discriminator 2 view .LVU287
 907 031e 369A     		ldr	r2, [sp, #216]
 908 0320 1099     		ldr	r1, [sp, #64]
 909              	.LBE70:
 111:Drivers/lvgl/src/draw/sw/lv_draw_sw_transform.c ****         int32_t xs1_ups, ys1_ups, xs2_ups, ys2_ups;
 910              		.loc 1 111 18 discriminator 2 view .LVU288
 911 0322 029B     		ldr	r3, [sp, #8]
 912              	.LBB333:
 151:Drivers/lvgl/src/draw/sw/lv_draw_sw_transform.c ****         abuf += dest_w;
 913              		.loc 1 151 14 discriminator 2 view .LVU289
 914 0324 0A44     		add	r2, r2, r1
 915 0326 3692     		str	r2, [sp, #216]
 916              	.LVL64:
 152:Drivers/lvgl/src/draw/sw/lv_draw_sw_transform.c ****     }
 917              		.loc 1 152 9 is_stmt 1 discriminator 2 view .LVU290
 152:Drivers/lvgl/src/draw/sw/lv_draw_sw_transform.c ****     }
 918              		.loc 1 152 14 is_stmt 0 discriminator 2 view .LVU291
 919 0328 379A     		ldr	r2, [sp, #220]
 920              	.LVL65:
 152:Drivers/lvgl/src/draw/sw/lv_draw_sw_transform.c ****     }
 921              		.loc 1 152 14 discriminator 2 view .LVU292
ARM GAS  /var/folders/0z/tsy30v1j4xl4_7kw94k978ww0000gn/T//ccAYAUvH.s 			page 32


 922 032a 4244     		add	r2, r2, r8
 923 032c 3792     		str	r2, [sp, #220]
 924              	.LVL66:
 152:Drivers/lvgl/src/draw/sw/lv_draw_sw_transform.c ****     }
 925              		.loc 1 152 14 discriminator 2 view .LVU293
 926              	.LBE333:
 111:Drivers/lvgl/src/draw/sw/lv_draw_sw_transform.c ****         int32_t xs1_ups, ys1_ups, xs2_ups, ys2_ups;
 927              		.loc 1 111 29 is_stmt 1 discriminator 2 view .LVU294
 111:Drivers/lvgl/src/draw/sw/lv_draw_sw_transform.c ****         int32_t xs1_ups, ys1_ups, xs2_ups, ys2_ups;
 928              		.loc 1 111 18 discriminator 2 view .LVU295
 929 032e 049A     		ldr	r2, [sp, #16]
 930              	.LVL67:
 111:Drivers/lvgl/src/draw/sw/lv_draw_sw_transform.c ****         int32_t xs1_ups, ys1_ups, xs2_ups, ys2_ups;
 931              		.loc 1 111 18 is_stmt 0 discriminator 2 view .LVU296
 932 0330 4244     		add	r2, r2, r8
 933 0332 0133     		adds	r3, r3, #1
 934 0334 0492     		str	r2, [sp, #16]
 935 0336 0E9A     		ldr	r2, [sp, #56]
 936 0338 0293     		str	r3, [sp, #8]
 937 033a 1BB2     		sxth	r3, r3
 938 033c 9A42     		cmp	r2, r3
 939 033e 40F35681 		ble	.L1
 940              	.LBB334:
 114:Drivers/lvgl/src/draw/sw/lv_draw_sw_transform.c ****         transform_point_upscaled(&tr_dsc, dest_area->x2, dest_area->y1 + y, &xs2_ups, &ys2_ups);
 941              		.loc 1 114 52 view .LVU297
 942 0342 169A     		ldr	r2, [sp, #88]
 114:Drivers/lvgl/src/draw/sw/lv_draw_sw_transform.c ****         transform_point_upscaled(&tr_dsc, dest_area->x2, dest_area->y1 + y, &xs2_ups, &ys2_ups);
 943              		.loc 1 114 67 view .LVU298
 944 0344 B2F90230 		ldrsh	r3, [r2, #2]
 114:Drivers/lvgl/src/draw/sw/lv_draw_sw_transform.c ****         transform_point_upscaled(&tr_dsc, dest_area->x2, dest_area->y1 + y, &xs2_ups, &ys2_ups);
 945              		.loc 1 114 52 view .LVU299
 946 0348 B2F90050 		ldrsh	r5, [r2]
 115:Drivers/lvgl/src/draw/sw/lv_draw_sw_transform.c **** 
 947              		.loc 1 115 52 view .LVU300
 948 034c B2F90440 		ldrsh	r4, [r2, #4]
 949              	.LVL68:
 112:Drivers/lvgl/src/draw/sw/lv_draw_sw_transform.c **** 
 950              		.loc 1 112 9 is_stmt 1 view .LVU301
 114:Drivers/lvgl/src/draw/sw/lv_draw_sw_transform.c ****         transform_point_upscaled(&tr_dsc, dest_area->x2, dest_area->y1 + y, &xs2_ups, &ys2_ups);
 951              		.loc 1 114 9 view .LVU302
 114:Drivers/lvgl/src/draw/sw/lv_draw_sw_transform.c ****         transform_point_upscaled(&tr_dsc, dest_area->x2, dest_area->y1 + y, &xs2_ups, &ys2_ups);
 952              		.loc 1 114 72 is_stmt 0 view .LVU303
 953 0350 029A     		ldr	r2, [sp, #8]
 954 0352 9E18     		adds	r6, r3, r2
 955              	.LVL69:
 956              	.LBB242:
 469:Drivers/lvgl/src/draw/sw/lv_draw_sw_transform.c ****                                      int32_t * yout)
 957              		.loc 1 469 13 is_stmt 1 view .LVU304
 958              	.LBB210:
 472:Drivers/lvgl/src/draw/sw/lv_draw_sw_transform.c ****         *xout = xin * 256;
 959              		.loc 1 472 5 view .LVU305
 472:Drivers/lvgl/src/draw/sw/lv_draw_sw_transform.c ****         *xout = xin * 256;
 960              		.loc 1 472 7 is_stmt 0 view .LVU306
 961 0354 099B     		ldr	r3, [sp, #36]
 962 0356 002B     		cmp	r3, #0
 963 0358 7FF4EEAE 		bne	.L3
 964              	.LVL70:
ARM GAS  /var/folders/0z/tsy30v1j4xl4_7kw94k978ww0000gn/T//ccAYAUvH.s 			page 33


 965              	.L128:
 472:Drivers/lvgl/src/draw/sw/lv_draw_sw_transform.c ****         *xout = xin * 256;
 966              		.loc 1 472 22 view .LVU307
 967 035c 089B     		ldr	r3, [sp, #32]
 968 035e B3F5807F 		cmp	r3, #256
 969 0362 00F05881 		beq	.L134
 478:Drivers/lvgl/src/draw/sw/lv_draw_sw_transform.c ****     yin -= t->pivot.y;
 970              		.loc 1 478 5 is_stmt 1 view .LVU308
 971              	.LVL71:
 479:Drivers/lvgl/src/draw/sw/lv_draw_sw_transform.c **** 
 972              		.loc 1 479 5 view .LVU309
 481:Drivers/lvgl/src/draw/sw/lv_draw_sw_transform.c ****         *xout = ((int32_t)(xin * t->zoom)) + (t->pivot_x_256);
 973              		.loc 1 481 5 view .LVU310
 482:Drivers/lvgl/src/draw/sw/lv_draw_sw_transform.c ****         *yout = ((int32_t)(yin * t->zoom)) + (t->pivot_y_256);
 974              		.loc 1 482 9 view .LVU311
 478:Drivers/lvgl/src/draw/sw/lv_draw_sw_transform.c ****     yin -= t->pivot.y;
 975              		.loc 1 478 9 is_stmt 0 view .LVU312
 976 0366 0B9A     		ldr	r2, [sp, #44]
 977 0368 AD1A     		subs	r5, r5, r2
 978              	.LVL72:
 478:Drivers/lvgl/src/draw/sw/lv_draw_sw_transform.c ****     yin -= t->pivot.y;
 979              		.loc 1 478 9 view .LVU313
 980              	.LBE210:
 981              	.LBE242:
 982              	.LBB243:
 983              	.LBB188:
 984 036a A21A     		subs	r2, r4, r2
 985              	.LBE188:
 986              	.LBE243:
 987              	.LBB244:
 988              	.LBB211:
 482:Drivers/lvgl/src/draw/sw/lv_draw_sw_transform.c ****         *yout = ((int32_t)(yin * t->zoom)) + (t->pivot_y_256);
 989              		.loc 1 482 44 view .LVU314
 990 036c 149C     		ldr	r4, [sp, #80]
 991 036e 1946     		mov	r1, r3
 479:Drivers/lvgl/src/draw/sw/lv_draw_sw_transform.c **** 
 992              		.loc 1 479 9 view .LVU315
 993 0370 0F9B     		ldr	r3, [sp, #60]
 482:Drivers/lvgl/src/draw/sw/lv_draw_sw_transform.c ****         *yout = ((int32_t)(yin * t->zoom)) + (t->pivot_y_256);
 994              		.loc 1 482 44 view .LVU316
 995 0372 01FB0540 		mla	r0, r1, r5, r4
 483:Drivers/lvgl/src/draw/sw/lv_draw_sw_transform.c ****     }
 996              		.loc 1 483 44 view .LVU317
 997 0376 159D     		ldr	r5, [sp, #84]
 998              	.LVL73:
 479:Drivers/lvgl/src/draw/sw/lv_draw_sw_transform.c **** 
 999              		.loc 1 479 9 view .LVU318
 1000 0378 F31A     		subs	r3, r6, r3
 1001              	.LVL74:
 483:Drivers/lvgl/src/draw/sw/lv_draw_sw_transform.c ****     }
 1002              		.loc 1 483 9 is_stmt 1 view .LVU319
 1003              	.LBE211:
 1004              	.LBE244:
 121:Drivers/lvgl/src/draw/sw/lv_draw_sw_transform.c ****             xs_step_256 = (256 * xs_diff) / (dest_w - 1);
 1005              		.loc 1 121 11 is_stmt 0 view .LVU320
 1006 037a B8F1010F 		cmp	r8, #1
 1007              	.LBB245:
ARM GAS  /var/folders/0z/tsy30v1j4xl4_7kw94k978ww0000gn/T//ccAYAUvH.s 			page 34


 1008              	.LBB212:
 483:Drivers/lvgl/src/draw/sw/lv_draw_sw_transform.c ****     }
 1009              		.loc 1 483 44 view .LVU321
 1010 037e 01FB0353 		mla	r3, r1, r3, r5
 1011              	.LVL75:
 483:Drivers/lvgl/src/draw/sw/lv_draw_sw_transform.c ****     }
 1012              		.loc 1 483 44 view .LVU322
 1013              	.LBE212:
 1014              	.LBE245:
 115:Drivers/lvgl/src/draw/sw/lv_draw_sw_transform.c **** 
 1015              		.loc 1 115 9 is_stmt 1 view .LVU323
 1016              	.LBB246:
 469:Drivers/lvgl/src/draw/sw/lv_draw_sw_transform.c ****                                      int32_t * yout)
 1017              		.loc 1 469 13 view .LVU324
 1018              	.LBB189:
 472:Drivers/lvgl/src/draw/sw/lv_draw_sw_transform.c ****         *xout = xin * 256;
 1019              		.loc 1 472 5 view .LVU325
 478:Drivers/lvgl/src/draw/sw/lv_draw_sw_transform.c ****     yin -= t->pivot.y;
 1020              		.loc 1 478 5 view .LVU326
 479:Drivers/lvgl/src/draw/sw/lv_draw_sw_transform.c **** 
 1021              		.loc 1 479 5 view .LVU327
 481:Drivers/lvgl/src/draw/sw/lv_draw_sw_transform.c ****         *xout = ((int32_t)(xin * t->zoom)) + (t->pivot_x_256);
 1022              		.loc 1 481 5 view .LVU328
 482:Drivers/lvgl/src/draw/sw/lv_draw_sw_transform.c ****         *yout = ((int32_t)(yin * t->zoom)) + (t->pivot_y_256);
 1023              		.loc 1 482 9 view .LVU329
 482:Drivers/lvgl/src/draw/sw/lv_draw_sw_transform.c ****         *yout = ((int32_t)(yin * t->zoom)) + (t->pivot_y_256);
 1024              		.loc 1 482 44 is_stmt 0 view .LVU330
 1025 0382 01FB0242 		mla	r2, r1, r2, r4
 1026              	.LVL76:
 483:Drivers/lvgl/src/draw/sw/lv_draw_sw_transform.c ****     }
 1027              		.loc 1 483 9 is_stmt 1 view .LVU331
 483:Drivers/lvgl/src/draw/sw/lv_draw_sw_transform.c ****     }
 1028              		.loc 1 483 9 is_stmt 0 view .LVU332
 1029 0386 0999     		ldr	r1, [sp, #36]
 1030              	.LVL77:
 483:Drivers/lvgl/src/draw/sw/lv_draw_sw_transform.c ****     }
 1031              		.loc 1 483 9 view .LVU333
 1032              	.LBE189:
 1033              	.LBE246:
 117:Drivers/lvgl/src/draw/sw/lv_draw_sw_transform.c ****         int32_t ys_diff = ys2_ups - ys1_ups;
 1034              		.loc 1 117 9 is_stmt 1 view .LVU334
 118:Drivers/lvgl/src/draw/sw/lv_draw_sw_transform.c ****         int32_t xs_step_256 = 0;
 1035              		.loc 1 118 9 view .LVU335
 119:Drivers/lvgl/src/draw/sw/lv_draw_sw_transform.c ****         int32_t ys_step_256 = 0;
 1036              		.loc 1 119 9 view .LVU336
 120:Drivers/lvgl/src/draw/sw/lv_draw_sw_transform.c ****         if(dest_w > 1) {
 1037              		.loc 1 120 9 view .LVU337
 121:Drivers/lvgl/src/draw/sw/lv_draw_sw_transform.c ****             xs_step_256 = (256 * xs_diff) / (dest_w - 1);
 1038              		.loc 1 121 9 view .LVU338
 121:Drivers/lvgl/src/draw/sw/lv_draw_sw_transform.c ****             xs_step_256 = (256 * xs_diff) / (dest_w - 1);
 1039              		.loc 1 121 11 is_stmt 0 view .LVU339
 1040 0388 3FF70AAF 		bgt	.L135
 1041              	.LVL78:
 1042              	.L93:
 120:Drivers/lvgl/src/draw/sw/lv_draw_sw_transform.c ****         if(dest_w > 1) {
 1043              		.loc 1 120 17 view .LVU340
 1044 038c 4FF00009 		mov	r9, #0
ARM GAS  /var/folders/0z/tsy30v1j4xl4_7kw94k978ww0000gn/T//ccAYAUvH.s 			page 35


 119:Drivers/lvgl/src/draw/sw/lv_draw_sw_transform.c ****         int32_t ys_step_256 = 0;
 1045              		.loc 1 119 17 view .LVU341
 1046 0390 CA46     		mov	r10, r9
 1047 0392 0FE7     		b	.L6
 1048              	.LVL79:
 1049              	.L11:
 135:Drivers/lvgl/src/draw/sw/lv_draw_sw_transform.c ****                     break;
 1050              		.loc 1 135 21 is_stmt 1 view .LVU342
 1051              	.LBB247:
 1052              	.LBI247:
 160:Drivers/lvgl/src/draw/sw/lv_draw_sw_transform.c ****                       int32_t xs_ups, int32_t ys_ups, int32_t xs_step, int32_t ys_step,
 1053              		.loc 1 160 13 view .LVU343
 1054              	.LBB248:
 164:Drivers/lvgl/src/draw/sw/lv_draw_sw_transform.c ****     int32_t ys_ups_start = ys_ups;
 1055              		.loc 1 164 5 view .LVU344
 165:Drivers/lvgl/src/draw/sw/lv_draw_sw_transform.c ****     lv_disp_t * d = _lv_refr_get_disp_refreshing();
 1056              		.loc 1 165 5 view .LVU345
 166:Drivers/lvgl/src/draw/sw/lv_draw_sw_transform.c ****     lv_color_t ck = d->driver->color_chroma_key;
 1057              		.loc 1 166 5 view .LVU346
 166:Drivers/lvgl/src/draw/sw/lv_draw_sw_transform.c ****     lv_color_t ck = d->driver->color_chroma_key;
 1058              		.loc 1 166 21 is_stmt 0 view .LVU347
 1059 0394 FFF7FEFF 		bl	_lv_refr_get_disp_refreshing
 1060              	.LVL80:
 167:Drivers/lvgl/src/draw/sw/lv_draw_sw_transform.c **** 
 1061              		.loc 1 167 5 is_stmt 1 view .LVU348
 167:Drivers/lvgl/src/draw/sw/lv_draw_sw_transform.c **** 
 1062              		.loc 1 167 16 is_stmt 0 view .LVU349
 1063 0398 0368     		ldr	r3, [r0]
 169:Drivers/lvgl/src/draw/sw/lv_draw_sw_transform.c **** 
 1064              		.loc 1 169 5 view .LVU350
 1065 039a 3798     		ldr	r0, [sp, #220]
 1066              	.LVL81:
 167:Drivers/lvgl/src/draw/sw/lv_draw_sw_transform.c **** 
 1067              		.loc 1 167 16 view .LVU351
 1068 039c 1C8F     		ldrh	r4, [r3, #56]
 1069              	.LVL82:
 169:Drivers/lvgl/src/draw/sw/lv_draw_sw_transform.c **** 
 1070              		.loc 1 169 5 is_stmt 1 view .LVU352
 1071 039e 4146     		mov	r1, r8
 1072 03a0 FFF7FEFF 		bl	lv_memset_ff
 1073              	.LVL83:
 171:Drivers/lvgl/src/draw/sw/lv_draw_sw_transform.c ****     for(x = 0; x < x_end; x++) {
 1074              		.loc 1 171 5 view .LVU353
 172:Drivers/lvgl/src/draw/sw/lv_draw_sw_transform.c ****         xs_ups = xs_ups_start + ((xs_step * x) >> 8);
 1075              		.loc 1 172 5 view .LVU354
 172:Drivers/lvgl/src/draw/sw/lv_draw_sw_transform.c ****         xs_ups = xs_ups_start + ((xs_step * x) >> 8);
 1076              		.loc 1 172 18 view .LVU355
 1077 03a4 B8F1000F 		cmp	r8, #0
 1078 03a8 B9DD     		ble	.L8
 1079 03aa 179B     		ldr	r3, [sp, #92]
 1080 03ac 062B     		cmp	r3, #6
 1081 03ae 0C9B     		ldr	r3, [sp, #48]
 1082 03b0 00F08581 		beq	.L24
 1083 03b4 012B     		cmp	r3, #1
 1084 03b6 40F0A282 		bne	.L136
 1085 03ba 259B     		ldr	r3, [sp, #148]
 1086 03bc 3798     		ldr	r0, [sp, #220]
ARM GAS  /var/folders/0z/tsy30v1j4xl4_7kw94k978ww0000gn/T//ccAYAUvH.s 			page 36


 1087 03be DDF80CC0 		ldr	ip, [sp, #12]
 1088 03c2 5E1C     		adds	r6, r3, #1
 1089 03c4 369B     		ldr	r3, [sp, #216]
 1090 03c6 0024     		movs	r4, #0
 1091              	.LVL84:
 172:Drivers/lvgl/src/draw/sw/lv_draw_sw_transform.c ****         xs_ups = xs_ups_start + ((xs_step * x) >> 8);
 1092              		.loc 1 172 18 is_stmt 0 view .LVU356
 1093 03c8 03EB4606 		add	r6, r3, r6, lsl #1
 1094 03cc 1A46     		mov	r2, r3
 1095 03ce 2146     		mov	r1, r4
 1096 03d0 16E0     		b	.L33
 1097              	.LVL85:
 1098              	.L30:
 1099              	.LBB249:
 174:Drivers/lvgl/src/draw/sw/lv_draw_sw_transform.c **** 
 1100              		.loc 1 174 16 view .LVU357
 1101 03d2 019D     		ldr	r5, [sp, #4]
 178:Drivers/lvgl/src/draw/sw/lv_draw_sw_transform.c ****             abuf[x] = 0x00;
 1102              		.loc 1 178 23 view .LVU358
 1103 03d4 9C45     		cmp	ip, r3
 174:Drivers/lvgl/src/draw/sw/lv_draw_sw_transform.c **** 
 1104              		.loc 1 174 16 view .LVU359
 1105 03d6 05EB242E 		add	lr, r5, r4, asr #8
 178:Drivers/lvgl/src/draw/sw/lv_draw_sw_transform.c ****             abuf[x] = 0x00;
 1106              		.loc 1 178 23 view .LVU360
 1107 03da 15DD     		ble	.L32
 178:Drivers/lvgl/src/draw/sw/lv_draw_sw_transform.c ****             abuf[x] = 0x00;
 1108              		.loc 1 178 42 view .LVU361
 1109 03dc 5FEA2E2E 		asrs	lr, lr, #8
 1110 03e0 12D4     		bmi	.L32
 1111              	.LBB250:
 188:Drivers/lvgl/src/draw/sw/lv_draw_sw_transform.c ****             src_tmp += ys_int * src_stride + xs_int;
 1112              		.loc 1 188 13 is_stmt 1 view .LVU362
 1113              	.LVL86:
 189:Drivers/lvgl/src/draw/sw/lv_draw_sw_transform.c ****             cbuf[x] = *src_tmp;
 1114              		.loc 1 189 13 view .LVU363
 190:Drivers/lvgl/src/draw/sw/lv_draw_sw_transform.c **** #elif LV_COLOR_DEPTH == 32
 1115              		.loc 1 190 13 view .LVU364
 1116              	.LBE250:
 178:Drivers/lvgl/src/draw/sw/lv_draw_sw_transform.c ****             abuf[x] = 0x00;
 1117              		.loc 1 178 56 is_stmt 0 view .LVU365
 1118 03e2 079D     		ldr	r5, [sp, #28]
 1119 03e4 7545     		cmp	r5, lr
 1120              	.LBB251:
 189:Drivers/lvgl/src/draw/sw/lv_draw_sw_transform.c ****             cbuf[x] = *src_tmp;
 1121              		.loc 1 189 21 view .LVU366
 1122 03e6 9E44     		add	lr, lr, r3
 1123              	.LVL87:
 189:Drivers/lvgl/src/draw/sw/lv_draw_sw_transform.c ****             cbuf[x] = *src_tmp;
 1124              		.loc 1 189 21 view .LVU367
 1125              	.LBE251:
 178:Drivers/lvgl/src/draw/sw/lv_draw_sw_transform.c ****             abuf[x] = 0x00;
 1126              		.loc 1 178 56 view .LVU368
 1127 03e8 0EDD     		ble	.L32
 1128              	.LBB252:
 190:Drivers/lvgl/src/draw/sw/lv_draw_sw_transform.c **** #elif LV_COLOR_DEPTH == 32
 1129              		.loc 1 190 21 view .LVU369
ARM GAS  /var/folders/0z/tsy30v1j4xl4_7kw94k978ww0000gn/T//ccAYAUvH.s 			page 37


 1130 03ea 0A9B     		ldr	r3, [sp, #40]
 1131              	.LVL88:
 190:Drivers/lvgl/src/draw/sw/lv_draw_sw_transform.c **** #elif LV_COLOR_DEPTH == 32
 1132              		.loc 1 190 21 view .LVU370
 1133 03ec 33F81E30 		ldrh	r3, [r3, lr, lsl #1]
 1134 03f0 1380     		strh	r3, [r2]	@ movhi
 1135              	.LVL89:
 1136              	.L31:
 190:Drivers/lvgl/src/draw/sw/lv_draw_sw_transform.c **** #elif LV_COLOR_DEPTH == 32
 1137              		.loc 1 190 21 view .LVU371
 1138              	.LBE252:
 197:Drivers/lvgl/src/draw/sw/lv_draw_sw_transform.c ****             abuf[x] = 0x00;
 1139              		.loc 1 197 9 is_stmt 1 view .LVU372
 1140              	.LBE249:
 172:Drivers/lvgl/src/draw/sw/lv_draw_sw_transform.c ****         xs_ups = xs_ups_start + ((xs_step * x) >> 8);
 1141              		.loc 1 172 28 view .LVU373
 172:Drivers/lvgl/src/draw/sw/lv_draw_sw_transform.c ****         xs_ups = xs_ups_start + ((xs_step * x) >> 8);
 1142              		.loc 1 172 18 view .LVU374
 1143 03f2 0232     		adds	r2, r2, #2
 1144 03f4 9642     		cmp	r6, r2
 1145 03f6 5144     		add	r1, r1, r10
 1146              	.LVL90:
 172:Drivers/lvgl/src/draw/sw/lv_draw_sw_transform.c ****         xs_ups = xs_ups_start + ((xs_step * x) >> 8);
 1147              		.loc 1 172 18 is_stmt 0 view .LVU375
 1148 03f8 00F10100 		add	r0, r0, #1
 1149 03fc 4C44     		add	r4, r4, r9
 1150 03fe 8ED0     		beq	.L8
 1151              	.L33:
 1152              	.LBB262:
 173:Drivers/lvgl/src/draw/sw/lv_draw_sw_transform.c ****         ys_ups = ys_ups_start + ((ys_step * x) >> 8);
 1153              		.loc 1 173 9 is_stmt 1 view .LVU376
 1154              	.LVL91:
 174:Drivers/lvgl/src/draw/sw/lv_draw_sw_transform.c **** 
 1155              		.loc 1 174 9 view .LVU377
 176:Drivers/lvgl/src/draw/sw/lv_draw_sw_transform.c ****         int32_t ys_int = ys_ups >> 8;
 1156              		.loc 1 176 9 view .LVU378
 179:Drivers/lvgl/src/draw/sw/lv_draw_sw_transform.c ****         }
 1157              		.loc 1 179 13 view .LVU379
 173:Drivers/lvgl/src/draw/sw/lv_draw_sw_transform.c ****         ys_ups = ys_ups_start + ((ys_step * x) >> 8);
 1158              		.loc 1 173 16 is_stmt 0 view .LVU380
 1159 0400 07EB2123 		add	r3, r7, r1, asr #8
 1160              	.LVL92:
 177:Drivers/lvgl/src/draw/sw/lv_draw_sw_transform.c ****         if(xs_int < 0 || xs_int >= src_w || ys_int < 0 || ys_int >= src_h) {
 1161              		.loc 1 177 9 is_stmt 1 view .LVU381
 178:Drivers/lvgl/src/draw/sw/lv_draw_sw_transform.c ****             abuf[x] = 0x00;
 1162              		.loc 1 178 9 view .LVU382
 178:Drivers/lvgl/src/draw/sw/lv_draw_sw_transform.c ****             abuf[x] = 0x00;
 1163              		.loc 1 178 11 is_stmt 0 view .LVU383
 1164 0404 1B12     		asrs	r3, r3, #8
 1165              	.LVL93:
 178:Drivers/lvgl/src/draw/sw/lv_draw_sw_transform.c ****             abuf[x] = 0x00;
 1166              		.loc 1 178 11 view .LVU384
 1167 0406 E4D5     		bpl	.L30
 1168              	.L32:
 179:Drivers/lvgl/src/draw/sw/lv_draw_sw_transform.c ****         }
 1169              		.loc 1 179 21 view .LVU385
 1170 0408 80F800B0 		strb	fp, [r0]
ARM GAS  /var/folders/0z/tsy30v1j4xl4_7kw94k978ww0000gn/T//ccAYAUvH.s 			page 38


 1171 040c F1E7     		b	.L31
 1172              	.LVL94:
 1173              	.L12:
 179:Drivers/lvgl/src/draw/sw/lv_draw_sw_transform.c ****         }
 1174              		.loc 1 179 21 view .LVU386
 1175              	.LBE262:
 1176              	.LBE248:
 1177              	.LBE247:
 1178              	.LBB278:
 1179              	.LBB279:
 211:Drivers/lvgl/src/draw/sw/lv_draw_sw_transform.c ****         xs_ups = xs_ups_start + ((xs_step * x) >> 8);
 1180              		.loc 1 211 18 is_stmt 1 view .LVU387
 1181 040e B8F1000F 		cmp	r8, #0
 1182 0412 84DD     		ble	.L8
 1183 0414 0C9B     		ldr	r3, [sp, #48]
 1184 0416 0021     		movs	r1, #0
 1185 0418 012B     		cmp	r3, #1
 1186 041a DDE903E4 		ldrd	lr, r4, [sp, #12]
 1187 041e DDE93603 		ldrd	r0, r3, [sp, #216]
 1188              	.LVL95:
 211:Drivers/lvgl/src/draw/sw/lv_draw_sw_transform.c ****         xs_ups = xs_ups_start + ((xs_step * x) >> 8);
 1189              		.loc 1 211 18 is_stmt 0 view .LVU388
 1190 0422 0A46     		mov	r2, r1
 1191 0424 22D0     		beq	.L22
 1192 0426 3BE0     		b	.L19
 1193              	.LVL96:
 1194              	.L137:
 1195              	.LBB280:
 213:Drivers/lvgl/src/draw/sw/lv_draw_sw_transform.c **** 
 1196              		.loc 1 213 16 view .LVU389
 1197 0428 019D     		ldr	r5, [sp, #4]
 217:Drivers/lvgl/src/draw/sw/lv_draw_sw_transform.c ****             abuf[x] = 0;
 1198              		.loc 1 217 23 view .LVU390
 1199 042a B645     		cmp	lr, r6
 213:Drivers/lvgl/src/draw/sw/lv_draw_sw_transform.c **** 
 1200              		.loc 1 213 16 view .LVU391
 1201 042c 05EB212C 		add	ip, r5, r1, asr #8
 217:Drivers/lvgl/src/draw/sw/lv_draw_sw_transform.c ****             abuf[x] = 0;
 1202              		.loc 1 217 23 view .LVU392
 1203 0430 20DD     		ble	.L20
 217:Drivers/lvgl/src/draw/sw/lv_draw_sw_transform.c ****             abuf[x] = 0;
 1204              		.loc 1 217 42 view .LVU393
 1205 0432 5FEA2C2C 		asrs	ip, ip, #8
 1206 0436 1DD4     		bmi	.L20
 1207              	.LBB281:
 221:Drivers/lvgl/src/draw/sw/lv_draw_sw_transform.c ****             src_tmp += (ys_int * src_stride * LV_IMG_PX_SIZE_ALPHA_BYTE) + xs_int * LV_IMG_PX_SIZE_
 1208              		.loc 1 221 13 is_stmt 1 view .LVU394
 1209              	.LVL97:
 222:Drivers/lvgl/src/draw/sw/lv_draw_sw_transform.c **** 
 1210              		.loc 1 222 13 view .LVU395
 1211              	.LBE281:
 217:Drivers/lvgl/src/draw/sw/lv_draw_sw_transform.c ****             abuf[x] = 0;
 1212              		.loc 1 217 56 is_stmt 0 view .LVU396
 1213 0438 079D     		ldr	r5, [sp, #28]
 1214              	.LBB282:
 222:Drivers/lvgl/src/draw/sw/lv_draw_sw_transform.c **** 
 1215              		.loc 1 222 74 view .LVU397
ARM GAS  /var/folders/0z/tsy30v1j4xl4_7kw94k978ww0000gn/T//ccAYAUvH.s 			page 39


 1216 043a 6644     		add	r6, r6, ip
 1217              	.LVL98:
 222:Drivers/lvgl/src/draw/sw/lv_draw_sw_transform.c **** 
 1218              		.loc 1 222 74 view .LVU398
 1219              	.LBE282:
 217:Drivers/lvgl/src/draw/sw/lv_draw_sw_transform.c ****             abuf[x] = 0;
 1220              		.loc 1 217 56 view .LVU399
 1221 043c 6545     		cmp	r5, ip
 1222              	.LBB283:
 222:Drivers/lvgl/src/draw/sw/lv_draw_sw_transform.c **** 
 1223              		.loc 1 222 74 view .LVU400
 1224 043e 06EB4606 		add	r6, r6, r6, lsl #1
 1225              	.LBE283:
 217:Drivers/lvgl/src/draw/sw/lv_draw_sw_transform.c ****             abuf[x] = 0;
 1226              		.loc 1 217 56 view .LVU401
 1227 0442 17DD     		ble	.L20
 1228              	.LBB284:
 222:Drivers/lvgl/src/draw/sw/lv_draw_sw_transform.c **** 
 1229              		.loc 1 222 21 view .LVU402
 1230 0444 0A9D     		ldr	r5, [sp, #40]
 1231 0446 05EB060C 		add	ip, r5, r6
 1232              	.LVL99:
 227:Drivers/lvgl/src/draw/sw/lv_draw_sw_transform.c **** #elif LV_COLOR_DEPTH == 32
 1233              		.loc 1 227 13 is_stmt 1 view .LVU403
 227:Drivers/lvgl/src/draw/sw/lv_draw_sw_transform.c **** #elif LV_COLOR_DEPTH == 32
 1234              		.loc 1 227 35 is_stmt 0 view .LVU404
 1235 044a AE5D     		ldrb	r6, [r5, r6]	@ zero_extendqisi2
 227:Drivers/lvgl/src/draw/sw/lv_draw_sw_transform.c **** #elif LV_COLOR_DEPTH == 32
 1236              		.loc 1 227 49 view .LVU405
 1237 044c 9CF80150 		ldrb	r5, [ip, #1]	@ zero_extendqisi2
 227:Drivers/lvgl/src/draw/sw/lv_draw_sw_transform.c **** #elif LV_COLOR_DEPTH == 32
 1238              		.loc 1 227 39 view .LVU406
 1239 0450 06EB0526 		add	r6, r6, r5, lsl #8
 227:Drivers/lvgl/src/draw/sw/lv_draw_sw_transform.c **** #elif LV_COLOR_DEPTH == 32
 1240              		.loc 1 227 26 view .LVU407
 1241 0454 0680     		strh	r6, [r0]	@ movhi
 231:Drivers/lvgl/src/draw/sw/lv_draw_sw_transform.c ****         }
 1242              		.loc 1 231 13 is_stmt 1 view .LVU408
 231:Drivers/lvgl/src/draw/sw/lv_draw_sw_transform.c ****         }
 1243              		.loc 1 231 30 is_stmt 0 view .LVU409
 1244 0456 9CF80260 		ldrb	r6, [ip, #2]	@ zero_extendqisi2
 231:Drivers/lvgl/src/draw/sw/lv_draw_sw_transform.c ****         }
 1245              		.loc 1 231 21 view .LVU410
 1246 045a 1E70     		strb	r6, [r3]
 1247              	.LVL100:
 1248              	.L21:
 231:Drivers/lvgl/src/draw/sw/lv_draw_sw_transform.c ****         }
 1249              		.loc 1 231 21 view .LVU411
 1250              	.LBE284:
 1251              	.LBE280:
 211:Drivers/lvgl/src/draw/sw/lv_draw_sw_transform.c ****         xs_ups = xs_ups_start + ((xs_step * x) >> 8);
 1252              		.loc 1 211 28 is_stmt 1 view .LVU412
 211:Drivers/lvgl/src/draw/sw/lv_draw_sw_transform.c ****         xs_ups = xs_ups_start + ((xs_step * x) >> 8);
 1253              		.loc 1 211 18 view .LVU413
 1254 045c 0133     		adds	r3, r3, #1
 1255 045e 9C42     		cmp	r4, r3
 1256 0460 5244     		add	r2, r2, r10
ARM GAS  /var/folders/0z/tsy30v1j4xl4_7kw94k978ww0000gn/T//ccAYAUvH.s 			page 40


 1257              	.LVL101:
 211:Drivers/lvgl/src/draw/sw/lv_draw_sw_transform.c ****         xs_ups = xs_ups_start + ((xs_step * x) >> 8);
 1258              		.loc 1 211 18 is_stmt 0 view .LVU414
 1259 0462 00F10200 		add	r0, r0, #2
 1260 0466 4944     		add	r1, r1, r9
 1261 0468 3FF459AF 		beq	.L8
 1262              	.L22:
 1263              	.LBB288:
 212:Drivers/lvgl/src/draw/sw/lv_draw_sw_transform.c ****         ys_ups = ys_ups_start + ((ys_step * x) >> 8);
 1264              		.loc 1 212 9 is_stmt 1 view .LVU415
 1265              	.LVL102:
 213:Drivers/lvgl/src/draw/sw/lv_draw_sw_transform.c **** 
 1266              		.loc 1 213 9 view .LVU416
 215:Drivers/lvgl/src/draw/sw/lv_draw_sw_transform.c ****         int32_t ys_int = ys_ups >> 8;
 1267              		.loc 1 215 9 view .LVU417
 218:Drivers/lvgl/src/draw/sw/lv_draw_sw_transform.c ****         }
 1268              		.loc 1 218 13 view .LVU418
 212:Drivers/lvgl/src/draw/sw/lv_draw_sw_transform.c ****         ys_ups = ys_ups_start + ((ys_step * x) >> 8);
 1269              		.loc 1 212 16 is_stmt 0 view .LVU419
 1270 046c 07EB2226 		add	r6, r7, r2, asr #8
 1271              	.LVL103:
 216:Drivers/lvgl/src/draw/sw/lv_draw_sw_transform.c ****         if(xs_int < 0 || xs_int >= src_w || ys_int < 0 || ys_int >= src_h) {
 1272              		.loc 1 216 9 is_stmt 1 view .LVU420
 217:Drivers/lvgl/src/draw/sw/lv_draw_sw_transform.c ****             abuf[x] = 0;
 1273              		.loc 1 217 9 view .LVU421
 217:Drivers/lvgl/src/draw/sw/lv_draw_sw_transform.c ****             abuf[x] = 0;
 1274              		.loc 1 217 11 is_stmt 0 view .LVU422
 1275 0470 3612     		asrs	r6, r6, #8
 1276              	.LVL104:
 217:Drivers/lvgl/src/draw/sw/lv_draw_sw_transform.c ****             abuf[x] = 0;
 1277              		.loc 1 217 11 view .LVU423
 1278 0472 D9D5     		bpl	.L137
 1279              	.LVL105:
 1280              	.L20:
 218:Drivers/lvgl/src/draw/sw/lv_draw_sw_transform.c ****         }
 1281              		.loc 1 218 21 view .LVU424
 1282 0474 83F800B0 		strb	fp, [r3]
 1283 0478 F0E7     		b	.L21
 1284              	.LVL106:
 1285              	.L138:
 1286              	.LBB285:
 221:Drivers/lvgl/src/draw/sw/lv_draw_sw_transform.c ****             src_tmp += (ys_int * src_stride * LV_IMG_PX_SIZE_ALPHA_BYTE) + xs_int * LV_IMG_PX_SIZE_
 1287              		.loc 1 221 13 is_stmt 1 view .LVU425
 222:Drivers/lvgl/src/draw/sw/lv_draw_sw_transform.c **** 
 1288              		.loc 1 222 13 view .LVU426
 222:Drivers/lvgl/src/draw/sw/lv_draw_sw_transform.c **** 
 1289              		.loc 1 222 74 is_stmt 0 view .LVU427
 1290 047a 0C9D     		ldr	r5, [sp, #48]
 1291 047c 05FB0C66 		mla	r6, r5, ip, r6
 1292              	.LVL107:
 222:Drivers/lvgl/src/draw/sw/lv_draw_sw_transform.c **** 
 1293              		.loc 1 222 74 view .LVU428
 1294              	.LBE285:
 217:Drivers/lvgl/src/draw/sw/lv_draw_sw_transform.c ****             abuf[x] = 0;
 1295              		.loc 1 217 56 view .LVU429
 1296 0480 079D     		ldr	r5, [sp, #28]
 1297 0482 AC45     		cmp	ip, r5
ARM GAS  /var/folders/0z/tsy30v1j4xl4_7kw94k978ww0000gn/T//ccAYAUvH.s 			page 41


 1298              	.LBB286:
 222:Drivers/lvgl/src/draw/sw/lv_draw_sw_transform.c **** 
 1299              		.loc 1 222 74 view .LVU430
 1300 0484 06EB4606 		add	r6, r6, r6, lsl #1
 1301              	.LBE286:
 217:Drivers/lvgl/src/draw/sw/lv_draw_sw_transform.c ****             abuf[x] = 0;
 1302              		.loc 1 217 56 view .LVU431
 1303 0488 C0F2F081 		blt	.L17
 1304              	.LVL108:
 1305              	.L16:
 218:Drivers/lvgl/src/draw/sw/lv_draw_sw_transform.c ****         }
 1306              		.loc 1 218 21 view .LVU432
 1307 048c 83F800B0 		strb	fp, [r3]
 1308              	.L18:
 1309              	.LBE288:
 211:Drivers/lvgl/src/draw/sw/lv_draw_sw_transform.c ****         xs_ups = xs_ups_start + ((xs_step * x) >> 8);
 1310              		.loc 1 211 28 is_stmt 1 view .LVU433
 1311              	.LVL109:
 211:Drivers/lvgl/src/draw/sw/lv_draw_sw_transform.c ****         xs_ups = xs_ups_start + ((xs_step * x) >> 8);
 1312              		.loc 1 211 18 view .LVU434
 1313 0490 0133     		adds	r3, r3, #1
 1314 0492 9C42     		cmp	r4, r3
 1315 0494 5244     		add	r2, r2, r10
 1316              	.LVL110:
 211:Drivers/lvgl/src/draw/sw/lv_draw_sw_transform.c ****         xs_ups = xs_ups_start + ((xs_step * x) >> 8);
 1317              		.loc 1 211 18 is_stmt 0 view .LVU435
 1318 0496 00F10200 		add	r0, r0, #2
 1319 049a 4944     		add	r1, r1, r9
 1320 049c 3FF43FAF 		beq	.L8
 1321              	.L19:
 1322              	.LBB289:
 212:Drivers/lvgl/src/draw/sw/lv_draw_sw_transform.c ****         ys_ups = ys_ups_start + ((ys_step * x) >> 8);
 1323              		.loc 1 212 9 is_stmt 1 view .LVU436
 1324              	.LVL111:
 213:Drivers/lvgl/src/draw/sw/lv_draw_sw_transform.c **** 
 1325              		.loc 1 213 9 view .LVU437
 215:Drivers/lvgl/src/draw/sw/lv_draw_sw_transform.c ****         int32_t ys_int = ys_ups >> 8;
 1326              		.loc 1 215 9 view .LVU438
 218:Drivers/lvgl/src/draw/sw/lv_draw_sw_transform.c ****         }
 1327              		.loc 1 218 13 view .LVU439
 212:Drivers/lvgl/src/draw/sw/lv_draw_sw_transform.c ****         ys_ups = ys_ups_start + ((ys_step * x) >> 8);
 1328              		.loc 1 212 16 is_stmt 0 view .LVU440
 1329 04a0 07EB2226 		add	r6, r7, r2, asr #8
 1330              	.LVL112:
 216:Drivers/lvgl/src/draw/sw/lv_draw_sw_transform.c ****         if(xs_int < 0 || xs_int >= src_w || ys_int < 0 || ys_int >= src_h) {
 1331              		.loc 1 216 9 is_stmt 1 view .LVU441
 217:Drivers/lvgl/src/draw/sw/lv_draw_sw_transform.c ****             abuf[x] = 0;
 1332              		.loc 1 217 9 view .LVU442
 217:Drivers/lvgl/src/draw/sw/lv_draw_sw_transform.c ****             abuf[x] = 0;
 1333              		.loc 1 217 11 is_stmt 0 view .LVU443
 1334 04a4 3612     		asrs	r6, r6, #8
 1335              	.LVL113:
 217:Drivers/lvgl/src/draw/sw/lv_draw_sw_transform.c ****             abuf[x] = 0;
 1336              		.loc 1 217 11 view .LVU444
 1337 04a6 F1D4     		bmi	.L16
 213:Drivers/lvgl/src/draw/sw/lv_draw_sw_transform.c **** 
 1338              		.loc 1 213 16 view .LVU445
ARM GAS  /var/folders/0z/tsy30v1j4xl4_7kw94k978ww0000gn/T//ccAYAUvH.s 			page 42


 1339 04a8 019D     		ldr	r5, [sp, #4]
 217:Drivers/lvgl/src/draw/sw/lv_draw_sw_transform.c ****             abuf[x] = 0;
 1340              		.loc 1 217 23 view .LVU446
 1341 04aa 7645     		cmp	r6, lr
 213:Drivers/lvgl/src/draw/sw/lv_draw_sw_transform.c **** 
 1342              		.loc 1 213 16 view .LVU447
 1343 04ac 05EB212C 		add	ip, r5, r1, asr #8
 217:Drivers/lvgl/src/draw/sw/lv_draw_sw_transform.c ****             abuf[x] = 0;
 1344              		.loc 1 217 23 view .LVU448
 1345 04b0 ECDA     		bge	.L16
 217:Drivers/lvgl/src/draw/sw/lv_draw_sw_transform.c ****             abuf[x] = 0;
 1346              		.loc 1 217 42 view .LVU449
 1347 04b2 5FEA2C2C 		asrs	ip, ip, #8
 1348 04b6 E0D5     		bpl	.L138
 1349 04b8 E8E7     		b	.L16
 1350              	.LVL114:
 1351              	.L9:
 217:Drivers/lvgl/src/draw/sw/lv_draw_sw_transform.c ****             abuf[x] = 0;
 1352              		.loc 1 217 42 view .LVU450
 1353              	.LBE289:
 1354              	.LBE279:
 1355              	.LBE278:
 1356              	.LBB292:
 1357              	.LBB293:
 245:Drivers/lvgl/src/draw/sw/lv_draw_sw_transform.c ****         xs_ups = xs_ups_start + ((xs_step * x) >> 8);
 1358              		.loc 1 245 18 is_stmt 1 view .LVU451
 1359 04ba B8F1000F 		cmp	r8, #0
 1360 04be 7FF72EAF 		ble	.L8
 1361 04c2 0C9B     		ldr	r3, [sp, #48]
 1362 04c4 0020     		movs	r0, #0
 1363              	.LVL115:
 245:Drivers/lvgl/src/draw/sw/lv_draw_sw_transform.c ****         xs_ups = xs_ups_start + ((xs_step * x) >> 8);
 1364              		.loc 1 245 18 is_stmt 0 view .LVU452
 1365 04c6 012B     		cmp	r3, #1
 1366 04c8 DDE93642 		ldrd	r4, r2, [sp, #216]
 1367 04cc 0146     		mov	r1, r0
 1368 04ce 40F02A81 		bne	.L139
 1369 04d2 DDE903C5 		ldrd	ip, r5, [sp, #12]
 1370 04d6 1CE0     		b	.L53
 1371              	.LVL116:
 1372              	.L140:
 1373              	.LBB294:
 247:Drivers/lvgl/src/draw/sw/lv_draw_sw_transform.c **** 
 1374              		.loc 1 247 16 view .LVU453
 1375 04d8 019E     		ldr	r6, [sp, #4]
 251:Drivers/lvgl/src/draw/sw/lv_draw_sw_transform.c ****             abuf[x] = 0;
 1376              		.loc 1 251 23 view .LVU454
 1377 04da 9C45     		cmp	ip, r3
 247:Drivers/lvgl/src/draw/sw/lv_draw_sw_transform.c **** 
 1378              		.loc 1 247 16 view .LVU455
 1379 04dc 06EB202E 		add	lr, r6, r0, asr #8
 251:Drivers/lvgl/src/draw/sw/lv_draw_sw_transform.c ****             abuf[x] = 0;
 1380              		.loc 1 251 23 view .LVU456
 1381 04e0 1BDD     		ble	.L51
 251:Drivers/lvgl/src/draw/sw/lv_draw_sw_transform.c ****             abuf[x] = 0;
 1382              		.loc 1 251 42 view .LVU457
 1383 04e2 5FEA2E2E 		asrs	lr, lr, #8
ARM GAS  /var/folders/0z/tsy30v1j4xl4_7kw94k978ww0000gn/T//ccAYAUvH.s 			page 43


 1384 04e6 18D4     		bmi	.L51
 1385              	.LBB295:
 255:Drivers/lvgl/src/draw/sw/lv_draw_sw_transform.c ****             src_tmp += ys_int * src_stride + xs_int;
 1386              		.loc 1 255 13 is_stmt 1 view .LVU458
 1387              	.LVL117:
 256:Drivers/lvgl/src/draw/sw/lv_draw_sw_transform.c ****             cbuf[x] = *src_tmp;
 1388              		.loc 1 256 13 view .LVU459
 256:Drivers/lvgl/src/draw/sw/lv_draw_sw_transform.c ****             cbuf[x] = *src_tmp;
 1389              		.loc 1 256 44 is_stmt 0 view .LVU460
 1390 04e8 03EB0E06 		add	r6, r3, lr
 1391              	.LVL118:
 257:Drivers/lvgl/src/draw/sw/lv_draw_sw_transform.c **** 
 1392              		.loc 1 257 13 is_stmt 1 view .LVU461
 1393              	.LBE295:
 251:Drivers/lvgl/src/draw/sw/lv_draw_sw_transform.c ****             abuf[x] = 0;
 1394              		.loc 1 251 56 is_stmt 0 view .LVU462
 1395 04ec 079B     		ldr	r3, [sp, #28]
 1396              	.LVL119:
 251:Drivers/lvgl/src/draw/sw/lv_draw_sw_transform.c ****             abuf[x] = 0;
 1397              		.loc 1 251 56 view .LVU463
 1398 04ee 7345     		cmp	r3, lr
 1399 04f0 13DD     		ble	.L51
 1400              	.LBB296:
 257:Drivers/lvgl/src/draw/sw/lv_draw_sw_transform.c **** 
 1401              		.loc 1 257 21 view .LVU464
 1402 04f2 0A9B     		ldr	r3, [sp, #40]
 1403 04f4 33F816E0 		ldrh	lr, [r3, r6, lsl #1]
 261:Drivers/lvgl/src/draw/sw/lv_draw_sw_transform.c ****         }
 1404              		.loc 1 261 23 view .LVU465
 1405 04f8 249B     		ldr	r3, [sp, #144]
 257:Drivers/lvgl/src/draw/sw/lv_draw_sw_transform.c **** 
 1406              		.loc 1 257 21 view .LVU466
 1407 04fa A4F800E0 		strh	lr, [r4]	@ movhi
 259:Drivers/lvgl/src/draw/sw/lv_draw_sw_transform.c ****             a_tmp += ys_int * src_stride + xs_int;
 1408              		.loc 1 259 13 is_stmt 1 view .LVU467
 1409              	.LVL120:
 260:Drivers/lvgl/src/draw/sw/lv_draw_sw_transform.c ****             abuf[x] = *a_tmp;
 1410              		.loc 1 260 13 view .LVU468
 261:Drivers/lvgl/src/draw/sw/lv_draw_sw_transform.c ****         }
 1411              		.loc 1 261 13 view .LVU469
 261:Drivers/lvgl/src/draw/sw/lv_draw_sw_transform.c ****         }
 1412              		.loc 1 261 23 is_stmt 0 view .LVU470
 1413 04fe 9B5D     		ldrb	r3, [r3, r6]	@ zero_extendqisi2
 261:Drivers/lvgl/src/draw/sw/lv_draw_sw_transform.c ****         }
 1414              		.loc 1 261 21 view .LVU471
 1415 0500 1370     		strb	r3, [r2]
 1416              	.LVL121:
 1417              	.L52:
 261:Drivers/lvgl/src/draw/sw/lv_draw_sw_transform.c ****         }
 1418              		.loc 1 261 21 view .LVU472
 1419              	.LBE296:
 1420              	.LBE294:
 245:Drivers/lvgl/src/draw/sw/lv_draw_sw_transform.c ****         xs_ups = xs_ups_start + ((xs_step * x) >> 8);
 1421              		.loc 1 245 28 is_stmt 1 view .LVU473
 245:Drivers/lvgl/src/draw/sw/lv_draw_sw_transform.c ****         xs_ups = xs_ups_start + ((xs_step * x) >> 8);
 1422              		.loc 1 245 18 view .LVU474
 1423 0502 0132     		adds	r2, r2, #1
ARM GAS  /var/folders/0z/tsy30v1j4xl4_7kw94k978ww0000gn/T//ccAYAUvH.s 			page 44


 1424 0504 9542     		cmp	r5, r2
 1425 0506 5144     		add	r1, r1, r10
 1426              	.LVL122:
 245:Drivers/lvgl/src/draw/sw/lv_draw_sw_transform.c ****         xs_ups = xs_ups_start + ((xs_step * x) >> 8);
 1427              		.loc 1 245 18 is_stmt 0 view .LVU475
 1428 0508 04F10204 		add	r4, r4, #2
 1429 050c 4844     		add	r0, r0, r9
 1430 050e 3FF406AF 		beq	.L8
 1431              	.L53:
 1432              	.LBB299:
 246:Drivers/lvgl/src/draw/sw/lv_draw_sw_transform.c ****         ys_ups = ys_ups_start + ((ys_step * x) >> 8);
 1433              		.loc 1 246 9 is_stmt 1 view .LVU476
 1434              	.LVL123:
 247:Drivers/lvgl/src/draw/sw/lv_draw_sw_transform.c **** 
 1435              		.loc 1 247 9 view .LVU477
 249:Drivers/lvgl/src/draw/sw/lv_draw_sw_transform.c ****         int32_t ys_int = ys_ups >> 8;
 1436              		.loc 1 249 9 view .LVU478
 252:Drivers/lvgl/src/draw/sw/lv_draw_sw_transform.c ****         }
 1437              		.loc 1 252 13 view .LVU479
 246:Drivers/lvgl/src/draw/sw/lv_draw_sw_transform.c ****         ys_ups = ys_ups_start + ((ys_step * x) >> 8);
 1438              		.loc 1 246 16 is_stmt 0 view .LVU480
 1439 0512 07EB2123 		add	r3, r7, r1, asr #8
 1440              	.LVL124:
 250:Drivers/lvgl/src/draw/sw/lv_draw_sw_transform.c ****         if(xs_int < 0 || xs_int >= src_w || ys_int < 0 || ys_int >= src_h) {
 1441              		.loc 1 250 9 is_stmt 1 view .LVU481
 251:Drivers/lvgl/src/draw/sw/lv_draw_sw_transform.c ****             abuf[x] = 0;
 1442              		.loc 1 251 9 view .LVU482
 251:Drivers/lvgl/src/draw/sw/lv_draw_sw_transform.c ****             abuf[x] = 0;
 1443              		.loc 1 251 11 is_stmt 0 view .LVU483
 1444 0516 1B12     		asrs	r3, r3, #8
 1445              	.LVL125:
 251:Drivers/lvgl/src/draw/sw/lv_draw_sw_transform.c ****             abuf[x] = 0;
 1446              		.loc 1 251 11 view .LVU484
 1447 0518 DED5     		bpl	.L140
 1448              	.LVL126:
 1449              	.L51:
 252:Drivers/lvgl/src/draw/sw/lv_draw_sw_transform.c ****         }
 1450              		.loc 1 252 21 view .LVU485
 1451 051a 82F800B0 		strb	fp, [r2]
 1452 051e F0E7     		b	.L52
 1453              	.LVL127:
 1454              	.L7:
 252:Drivers/lvgl/src/draw/sw/lv_draw_sw_transform.c ****         }
 1455              		.loc 1 252 21 view .LVU486
 1456              	.LBE299:
 1457              	.LBE293:
 1458              	.LBE292:
 148:Drivers/lvgl/src/draw/sw/lv_draw_sw_transform.c ****         }
 1459              		.loc 1 148 13 is_stmt 1 view .LVU487
 1460              	.LBB304:
 1461              	.LBI71:
 268:Drivers/lvgl/src/draw/sw/lv_draw_sw_transform.c ****                             int32_t xs_ups, int32_t ys_ups, int32_t xs_step, int32_t ys_step,
 1462              		.loc 1 268 13 view .LVU488
 1463              	.LBB169:
 272:Drivers/lvgl/src/draw/sw/lv_draw_sw_transform.c ****     int32_t ys_ups_start = ys_ups;
 1464              		.loc 1 272 5 view .LVU489
 273:Drivers/lvgl/src/draw/sw/lv_draw_sw_transform.c ****     bool has_alpha;
ARM GAS  /var/folders/0z/tsy30v1j4xl4_7kw94k978ww0000gn/T//ccAYAUvH.s 			page 45


 1465              		.loc 1 273 5 view .LVU490
 274:Drivers/lvgl/src/draw/sw/lv_draw_sw_transform.c ****     int32_t px_size;
 1466              		.loc 1 274 5 view .LVU491
 275:Drivers/lvgl/src/draw/sw/lv_draw_sw_transform.c ****     lv_color_t ck = _LV_COLOR_ZERO_INITIALIZER;
 1467              		.loc 1 275 5 view .LVU492
 276:Drivers/lvgl/src/draw/sw/lv_draw_sw_transform.c ****     switch(cf) {
 1468              		.loc 1 276 5 view .LVU493
 277:Drivers/lvgl/src/draw/sw/lv_draw_sw_transform.c ****         case LV_IMG_CF_TRUE_COLOR:
 1469              		.loc 1 277 5 view .LVU494
 1470 0520 102A     		cmp	r2, #16
 1471 0522 3FF6FCAE 		bhi	.L8
 1472 0526 01A3     		adr	r3, .L56
 1473 0528 53F822F0 		ldr	pc, [r3, r2, lsl #2]
 1474              		.p2align 2
 1475              	.L56:
 1476 052c B3060000 		.word	.L94+1
 1477 0530 5F080000 		.word	.L58+1
 1478 0534 89050000 		.word	.L57+1
 1479 0538 1F030000 		.word	.L8+1
 1480 053c 1F030000 		.word	.L8+1
 1481 0540 1F030000 		.word	.L8+1
 1482 0544 1F030000 		.word	.L8+1
 1483 0548 1F030000 		.word	.L8+1
 1484 054c 1F030000 		.word	.L8+1
 1485 0550 1F030000 		.word	.L8+1
 1486 0554 1F030000 		.word	.L8+1
 1487 0558 1F030000 		.word	.L8+1
 1488 055c 1F030000 		.word	.L8+1
 1489 0560 1F030000 		.word	.L8+1
 1490 0564 1F030000 		.word	.L8+1
 1491 0568 1F030000 		.word	.L8+1
 1492 056c F9010000 		.word	.L55+1
 1493              	.LVL128:
 1494              		.p2align 1
 1495              	.L132:
 1496              	.LBB159:
 1497              	.LBB148:
 456:Drivers/lvgl/src/draw/sw/lv_draw_sw_transform.c ****                 abuf[x] = (a * (0xFF - xs_fract)) >> 8;
 1498              		.loc 1 456 68 is_stmt 0 view .LVU495
 1499 0570 0D99     		ldr	r1, [sp, #52]
 1500              	.LVL129:
 456:Drivers/lvgl/src/draw/sw/lv_draw_sw_transform.c ****                 abuf[x] = (a * (0xFF - xs_fract)) >> 8;
 1501              		.loc 1 456 68 view .LVU496
 1502 0572 0129     		cmp	r1, #1
 1503 0574 7FF4BAAE 		bne	.L85
 1504              	.L84:
 457:Drivers/lvgl/src/draw/sw/lv_draw_sw_transform.c ****             }
 1505              		.loc 1 457 17 is_stmt 1 view .LVU497
 457:Drivers/lvgl/src/draw/sw/lv_draw_sw_transform.c ****             }
 1506              		.loc 1 457 38 is_stmt 0 view .LVU498
 1507 0578 1999     		ldr	r1, [sp, #100]
 1508 057a C1F1FF01 		rsb	r1, r1, #255
 457:Drivers/lvgl/src/draw/sw/lv_draw_sw_transform.c ****             }
 1509              		.loc 1 457 30 view .LVU499
 1510 057e 06FB01F1 		mul	r1, r6, r1
 457:Drivers/lvgl/src/draw/sw/lv_draw_sw_transform.c ****             }
 1511              		.loc 1 457 51 view .LVU500
ARM GAS  /var/folders/0z/tsy30v1j4xl4_7kw94k978ww0000gn/T//ccAYAUvH.s 			page 46


 1512 0582 0912     		asrs	r1, r1, #8
 457:Drivers/lvgl/src/draw/sw/lv_draw_sw_transform.c ****             }
 1513              		.loc 1 457 25 view .LVU501
 1514 0584 1170     		strb	r1, [r2]
 1515              	.LVL130:
 457:Drivers/lvgl/src/draw/sw/lv_draw_sw_transform.c ****             }
 1516              		.loc 1 457 25 view .LVU502
 1517 0586 BCE6     		b	.L62
 1518              	.LVL131:
 1519              	.L57:
 457:Drivers/lvgl/src/draw/sw/lv_draw_sw_transform.c ****             }
 1520              		.loc 1 457 25 view .LVU503
 1521              	.LBE148:
 1522              	.LBE159:
 1523              	.LBB160:
 287:Drivers/lvgl/src/draw/sw/lv_draw_sw_transform.c ****                 px_size = sizeof(lv_color_t);
 1524              		.loc 1 287 17 is_stmt 1 view .LVU504
 288:Drivers/lvgl/src/draw/sw/lv_draw_sw_transform.c ****                 lv_disp_t * d = _lv_refr_get_disp_refreshing();
 1525              		.loc 1 288 17 view .LVU505
 289:Drivers/lvgl/src/draw/sw/lv_draw_sw_transform.c ****                 ck = d->driver->color_chroma_key;
 1526              		.loc 1 289 17 view .LVU506
 289:Drivers/lvgl/src/draw/sw/lv_draw_sw_transform.c ****                 ck = d->driver->color_chroma_key;
 1527              		.loc 1 289 33 is_stmt 0 view .LVU507
 1528 0588 FFF7FEFF 		bl	_lv_refr_get_disp_refreshing
 1529              	.LVL132:
 290:Drivers/lvgl/src/draw/sw/lv_draw_sw_transform.c ****                 break;
 1530              		.loc 1 290 17 is_stmt 1 view .LVU508
 290:Drivers/lvgl/src/draw/sw/lv_draw_sw_transform.c ****                 break;
 1531              		.loc 1 290 20 is_stmt 0 view .LVU509
 1532 058c 0368     		ldr	r3, [r0]
 1533 058e 1B8F     		ldrh	r3, [r3, #56]
 1534 0590 33E6     		b	.L124
 1535              	.LVL133:
 1536              	.L63:
 290:Drivers/lvgl/src/draw/sw/lv_draw_sw_transform.c ****                 break;
 1537              		.loc 1 290 20 view .LVU510
 1538              	.LBE160:
 1539              	.LBB161:
 329:Drivers/lvgl/src/draw/sw/lv_draw_sw_transform.c ****             xs_fract = (xs_fract - 0x80) * 2;
 1540              		.loc 1 329 13 is_stmt 1 view .LVU511
 330:Drivers/lvgl/src/draw/sw/lv_draw_sw_transform.c ****         }
 1541              		.loc 1 330 13 view .LVU512
 330:Drivers/lvgl/src/draw/sw/lv_draw_sw_transform.c ****         }
 1542              		.loc 1 330 34 is_stmt 0 view .LVU513
 1543 0592 803F     		subs	r7, r7, #128
 1544              	.LVL134:
 330:Drivers/lvgl/src/draw/sw/lv_draw_sw_transform.c ****         }
 1545              		.loc 1 330 22 view .LVU514
 1546 0594 7D00     		lsls	r5, r7, #1
 1547 0596 1995     		str	r5, [sp, #100]
 1548              	.LVL135:
 329:Drivers/lvgl/src/draw/sw/lv_draw_sw_transform.c ****             xs_fract = (xs_fract - 0x80) * 2;
 1549              		.loc 1 329 20 view .LVU515
 1550 0598 0125     		movs	r5, #1
 1551              	.LVL136:
 329:Drivers/lvgl/src/draw/sw/lv_draw_sw_transform.c ****             xs_fract = (xs_fract - 0x80) * 2;
 1552              		.loc 1 329 20 view .LVU516
ARM GAS  /var/folders/0z/tsy30v1j4xl4_7kw94k978ww0000gn/T//ccAYAUvH.s 			page 47


 1553 059a 0D95     		str	r5, [sp, #52]
 1554              	.LVL137:
 332:Drivers/lvgl/src/draw/sw/lv_draw_sw_transform.c ****             y_next = -1;
 1555              		.loc 1 332 9 is_stmt 1 view .LVU517
 332:Drivers/lvgl/src/draw/sw/lv_draw_sw_transform.c ****             y_next = -1;
 1556              		.loc 1 332 11 is_stmt 0 view .LVU518
 1557 059c 3506     		lsls	r5, r6, #24
 1558              	.LVL138:
 332:Drivers/lvgl/src/draw/sw/lv_draw_sw_transform.c ****             y_next = -1;
 1559              		.loc 1 332 11 view .LVU519
 1560 059e 7FF564AE 		bpl	.L141
 1561              	.LVL139:
 1562              	.L65:
 337:Drivers/lvgl/src/draw/sw/lv_draw_sw_transform.c ****             ys_fract = (ys_fract - 0x80) * 2;
 1563              		.loc 1 337 13 is_stmt 1 view .LVU520
 338:Drivers/lvgl/src/draw/sw/lv_draw_sw_transform.c ****         }
 1564              		.loc 1 338 13 view .LVU521
 338:Drivers/lvgl/src/draw/sw/lv_draw_sw_transform.c ****         }
 1565              		.loc 1 338 34 is_stmt 0 view .LVU522
 1566 05a2 A8F18008 		sub	r8, r8, #128
 1567              	.LVL140:
 338:Drivers/lvgl/src/draw/sw/lv_draw_sw_transform.c ****         }
 1568              		.loc 1 338 22 view .LVU523
 1569 05a6 4FEA4805 		lsl	r5, r8, #1
 1570 05aa 1A95     		str	r5, [sp, #104]
 1571              	.LVL141:
 337:Drivers/lvgl/src/draw/sw/lv_draw_sw_transform.c ****             ys_fract = (ys_fract - 0x80) * 2;
 1572              		.loc 1 337 20 view .LVU524
 1573 05ac 0125     		movs	r5, #1
 1574              	.LVL142:
 337:Drivers/lvgl/src/draw/sw/lv_draw_sw_transform.c ****             ys_fract = (ys_fract - 0x80) * 2;
 1575              		.loc 1 337 20 view .LVU525
 1576 05ae 1395     		str	r5, [sp, #76]
 1577 05b0 63E6     		b	.L66
 1578              	.LVL143:
 1579              	.L129:
 337:Drivers/lvgl/src/draw/sw/lv_draw_sw_transform.c ****             ys_fract = (ys_fract - 0x80) * 2;
 1580              		.loc 1 337 20 view .LVU526
 1581              	.LBE161:
 1582              	.LBE169:
 1583              	.LBE304:
 1584              	.LBB305:
 1585              	.LBB213:
 486:Drivers/lvgl/src/draw/sw/lv_draw_sw_transform.c ****         *yout = ((t->sinma * xin + t->cosma * yin) >> 2) + (t->pivot_y_256);
 1586              		.loc 1 486 9 is_stmt 1 view .LVU527
 1587              	.LBE213:
 1588              	.LBE305:
 1589              	.LBB306:
 1590              	.LBB190:
 478:Drivers/lvgl/src/draw/sw/lv_draw_sw_transform.c ****     yin -= t->pivot.y;
 1591              		.loc 1 478 9 is_stmt 0 view .LVU528
 1592 05b2 0B9A     		ldr	r2, [sp, #44]
 1593              	.LBE190:
 1594              	.LBE306:
 1595              	.LBB307:
 1596              	.LBB214:
 486:Drivers/lvgl/src/draw/sw/lv_draw_sw_transform.c ****         *yout = ((t->sinma * xin + t->cosma * yin) >> 2) + (t->pivot_y_256);
ARM GAS  /var/folders/0z/tsy30v1j4xl4_7kw94k978ww0000gn/T//ccAYAUvH.s 			page 48


 1597              		.loc 1 486 45 view .LVU529
 1598 05b4 1D9E     		ldr	r6, [sp, #116]
 1599              	.LBE214:
 1600              	.LBE307:
 1601              	.LBB308:
 1602              	.LBB191:
 478:Drivers/lvgl/src/draw/sw/lv_draw_sw_transform.c ****     yin -= t->pivot.y;
 1603              		.loc 1 478 9 view .LVU530
 1604 05b6 A21A     		subs	r2, r4, r2
 1605              	.LBE191:
 1606              	.LBE308:
 1607              	.LBB309:
 1608              	.LBB215:
 487:Drivers/lvgl/src/draw/sw/lv_draw_sw_transform.c ****     }
 1609              		.loc 1 487 45 view .LVU531
 1610 05b8 1E9C     		ldr	r4, [sp, #120]
 1611 05ba 03FB04F1 		mul	r1, r3, r4
 486:Drivers/lvgl/src/draw/sw/lv_draw_sw_transform.c ****         *yout = ((t->sinma * xin + t->cosma * yin) >> 2) + (t->pivot_y_256);
 1612              		.loc 1 486 28 view .LVU532
 1613 05be 05FB04F0 		mul	r0, r5, r4
 486:Drivers/lvgl/src/draw/sw/lv_draw_sw_transform.c ****         *yout = ((t->sinma * xin + t->cosma * yin) >> 2) + (t->pivot_y_256);
 1614              		.loc 1 486 45 view .LVU533
 1615 05c2 06FB03F3 		mul	r3, r6, r3
 1616              	.LVL144:
 487:Drivers/lvgl/src/draw/sw/lv_draw_sw_transform.c ****     }
 1617              		.loc 1 487 34 view .LVU534
 1618 05c6 05FB0615 		mla	r5, r5, r6, r1
 1619              	.LVL145:
 487:Drivers/lvgl/src/draw/sw/lv_draw_sw_transform.c ****     }
 1620              		.loc 1 487 34 view .LVU535
 1621              	.LBE215:
 1622              	.LBE309:
 1623              	.LBB310:
 1624              	.LBB192:
 1625 05ca 02FB0611 		mla	r1, r2, r6, r1
 486:Drivers/lvgl/src/draw/sw/lv_draw_sw_transform.c ****         *yout = ((t->sinma * xin + t->cosma * yin) >> 2) + (t->pivot_y_256);
 1626              		.loc 1 486 28 view .LVU536
 1627 05ce 04FB02F2 		mul	r2, r4, r2
 1628              	.LBE192:
 1629              	.LBE310:
 1630              	.LBB311:
 1631              	.LBB216:
 486:Drivers/lvgl/src/draw/sw/lv_draw_sw_transform.c ****         *yout = ((t->sinma * xin + t->cosma * yin) >> 2) + (t->pivot_y_256);
 1632              		.loc 1 486 34 view .LVU537
 1633 05d2 C01A     		subs	r0, r0, r3
 1634              	.LBE216:
 1635              	.LBE311:
 1636              	.LBB312:
 1637              	.LBB193:
 1638 05d4 D21A     		subs	r2, r2, r3
 1639              	.LBE193:
 1640              	.LBE312:
 1641              	.LBB313:
 1642              	.LBB217:
 486:Drivers/lvgl/src/draw/sw/lv_draw_sw_transform.c ****         *yout = ((t->sinma * xin + t->cosma * yin) >> 2) + (t->pivot_y_256);
 1643              		.loc 1 486 58 view .LVU538
 1644 05d6 149B     		ldr	r3, [sp, #80]
ARM GAS  /var/folders/0z/tsy30v1j4xl4_7kw94k978ww0000gn/T//ccAYAUvH.s 			page 49


 1645 05d8 03EBA000 		add	r0, r3, r0, asr #2
 1646              	.LVL146:
 487:Drivers/lvgl/src/draw/sw/lv_draw_sw_transform.c ****     }
 1647              		.loc 1 487 9 is_stmt 1 view .LVU539
 1648              	.LBE217:
 1649              	.LBE313:
 1650              	.LBB314:
 1651              	.LBB194:
 486:Drivers/lvgl/src/draw/sw/lv_draw_sw_transform.c ****         *yout = ((t->sinma * xin + t->cosma * yin) >> 2) + (t->pivot_y_256);
 1652              		.loc 1 486 58 is_stmt 0 view .LVU540
 1653 05dc 03EBA202 		add	r2, r3, r2, asr #2
 1654              	.LBE194:
 1655              	.LBE314:
 1656              	.LBB315:
 1657              	.LBB218:
 487:Drivers/lvgl/src/draw/sw/lv_draw_sw_transform.c ****     }
 1658              		.loc 1 487 58 view .LVU541
 1659 05e0 159B     		ldr	r3, [sp, #84]
 1660              	.LBE218:
 1661              	.LBE315:
 1662              	.LBB316:
 1663              	.LBB195:
 487:Drivers/lvgl/src/draw/sw/lv_draw_sw_transform.c ****     }
 1664              		.loc 1 487 52 view .LVU542
 1665 05e2 8910     		asrs	r1, r1, #2
 1666              	.LBE195:
 1667              	.LBE316:
 118:Drivers/lvgl/src/draw/sw/lv_draw_sw_transform.c ****         int32_t xs_step_256 = 0;
 1668              		.loc 1 118 17 view .LVU543
 1669 05e4 A1EBA501 		sub	r1, r1, r5, asr #2
 1670              	.LBB317:
 1671              	.LBB219:
 487:Drivers/lvgl/src/draw/sw/lv_draw_sw_transform.c ****     }
 1672              		.loc 1 487 58 view .LVU544
 1673 05e8 03EBA503 		add	r3, r3, r5, asr #2
 1674              	.LVL147:
 487:Drivers/lvgl/src/draw/sw/lv_draw_sw_transform.c ****     }
 1675              		.loc 1 487 58 view .LVU545
 1676              	.LBE219:
 1677              	.LBE317:
 115:Drivers/lvgl/src/draw/sw/lv_draw_sw_transform.c **** 
 1678              		.loc 1 115 9 is_stmt 1 view .LVU546
 1679              	.LBB318:
 469:Drivers/lvgl/src/draw/sw/lv_draw_sw_transform.c ****                                      int32_t * yout)
 1680              		.loc 1 469 13 view .LVU547
 1681              	.LBB196:
 472:Drivers/lvgl/src/draw/sw/lv_draw_sw_transform.c ****         *xout = xin * 256;
 1682              		.loc 1 472 5 view .LVU548
 478:Drivers/lvgl/src/draw/sw/lv_draw_sw_transform.c ****     yin -= t->pivot.y;
 1683              		.loc 1 478 5 view .LVU549
 479:Drivers/lvgl/src/draw/sw/lv_draw_sw_transform.c **** 
 1684              		.loc 1 479 5 view .LVU550
 481:Drivers/lvgl/src/draw/sw/lv_draw_sw_transform.c ****         *xout = ((int32_t)(xin * t->zoom)) + (t->pivot_x_256);
 1685              		.loc 1 481 5 view .LVU551
 485:Drivers/lvgl/src/draw/sw/lv_draw_sw_transform.c ****         *xout = ((t->cosma * xin - t->sinma * yin) >> 2) + (t->pivot_x_256);
 1686              		.loc 1 485 10 view .LVU552
 486:Drivers/lvgl/src/draw/sw/lv_draw_sw_transform.c ****         *yout = ((t->sinma * xin + t->cosma * yin) >> 2) + (t->pivot_y_256);
ARM GAS  /var/folders/0z/tsy30v1j4xl4_7kw94k978ww0000gn/T//ccAYAUvH.s 			page 50


 1687              		.loc 1 486 9 view .LVU553
 487:Drivers/lvgl/src/draw/sw/lv_draw_sw_transform.c ****     }
 1688              		.loc 1 487 9 view .LVU554
 487:Drivers/lvgl/src/draw/sw/lv_draw_sw_transform.c ****     }
 1689              		.loc 1 487 9 is_stmt 0 view .LVU555
 1690 05ec D4E5     		b	.L5
 1691              	.LVL148:
 1692              	.L1:
 487:Drivers/lvgl/src/draw/sw/lv_draw_sw_transform.c ****     }
 1693              		.loc 1 487 9 view .LVU556
 1694              	.LBE196:
 1695              	.LBE318:
 1696              	.LBE334:
 154:Drivers/lvgl/src/draw/sw/lv_draw_sw_transform.c **** 
 1697              		.loc 1 154 1 view .LVU557
 1698 05ee 29B0     		add	sp, sp, #164
 1699              		.cfi_remember_state
 1700              		.cfi_def_cfa_offset 36
 1701              		@ sp needed
 1702 05f0 BDE8F08F 		pop	{r4, r5, r6, r7, r8, r9, r10, fp, pc}
 1703              	.LVL149:
 1704              	.L80:
 1705              		.cfi_restore_state
 1706              	.LBB335:
 1707              	.LBB319:
 1708              	.LBB170:
 1709              	.LBB162:
 1710              	.LBB149:
 445:Drivers/lvgl/src/draw/sw/lv_draw_sw_transform.c ****                     break;
 1711              		.loc 1 445 21 is_stmt 1 view .LVU558
 445:Drivers/lvgl/src/draw/sw/lv_draw_sw_transform.c ****                     break;
 1712              		.loc 1 445 23 is_stmt 0 view .LVU559
 1713 05f4 219F     		ldr	r7, [sp, #132]
 1714 05f6 BE1B     		subs	r6, r7, r6
 1715 05f8 18BF     		it	ne
 1716 05fa 4FF0FF36 		movne	r6, #-1
 1717 05fe F6B2     		uxtb	r6, r6
 1718 0600 6CE6     		b	.L82
 1719              	.L131:
 442:Drivers/lvgl/src/draw/sw/lv_draw_sw_transform.c ****                     break;
 1720              		.loc 1 442 21 is_stmt 1 view .LVU560
 442:Drivers/lvgl/src/draw/sw/lv_draw_sw_transform.c ****                     break;
 1721              		.loc 1 442 23 is_stmt 0 view .LVU561
 1722 0602 98F80260 		ldrb	r6, [r8, #2]	@ zero_extendqisi2
 1723              	.LVL150:
 443:Drivers/lvgl/src/draw/sw/lv_draw_sw_transform.c ****                 case LV_IMG_CF_TRUE_COLOR_CHROMA_KEYED:
 1724              		.loc 1 443 21 is_stmt 1 view .LVU562
 1725 0606 69E6     		b	.L82
 1726              	.LVL151:
 1727              	.L81:
 449:Drivers/lvgl/src/draw/sw/lv_draw_sw_transform.c ****                     break;
 1728              		.loc 1 449 21 view .LVU563
 449:Drivers/lvgl/src/draw/sw/lv_draw_sw_transform.c ****                     break;
 1729              		.loc 1 449 23 is_stmt 0 view .LVU564
 1730 0608 0A9E     		ldr	r6, [sp, #40]
 1731 060a 1B9F     		ldr	r7, [sp, #108]
 1732 060c 0E44     		add	r6, r6, r1
ARM GAS  /var/folders/0z/tsy30v1j4xl4_7kw94k978ww0000gn/T//ccAYAUvH.s 			page 51


 1733 060e 3E44     		add	r6, r6, r7
 1734 0610 229F     		ldr	r7, [sp, #136]
 1735 0612 F65D     		ldrb	r6, [r6, r7]	@ zero_extendqisi2
 1736              	.LVL152:
 450:Drivers/lvgl/src/draw/sw/lv_draw_sw_transform.c **** #endif
 1737              		.loc 1 450 21 is_stmt 1 view .LVU565
 1738 0614 62E6     		b	.L82
 1739              	.LVL153:
 1740              	.L134:
 450:Drivers/lvgl/src/draw/sw/lv_draw_sw_transform.c **** #endif
 1741              		.loc 1 450 21 is_stmt 0 view .LVU566
 1742              	.LBE149:
 1743              	.LBE162:
 1744              	.LBE170:
 1745              	.LBE319:
 1746              	.LBB320:
 1747              	.LBB220:
 473:Drivers/lvgl/src/draw/sw/lv_draw_sw_transform.c ****         *yout = yin * 256;
 1748              		.loc 1 473 9 is_stmt 1 view .LVU567
 1749              	.LBE220:
 1750              	.LBE320:
 1751              	.LBB321:
 1752              	.LBB197:
 475:Drivers/lvgl/src/draw/sw/lv_draw_sw_transform.c ****     }
 1753              		.loc 1 475 9 is_stmt 0 view .LVU568
 1754 0616 0999     		ldr	r1, [sp, #36]
 1755              	.LBE197:
 1756              	.LBE321:
 1757              	.LBB322:
 1758              	.LBB221:
 473:Drivers/lvgl/src/draw/sw/lv_draw_sw_transform.c ****         *yout = yin * 256;
 1759              		.loc 1 473 21 view .LVU569
 1760 0618 2802     		lsls	r0, r5, #8
 1761              	.LVL154:
 474:Drivers/lvgl/src/draw/sw/lv_draw_sw_transform.c ****         return;
 1762              		.loc 1 474 9 is_stmt 1 view .LVU570
 474:Drivers/lvgl/src/draw/sw/lv_draw_sw_transform.c ****         return;
 1763              		.loc 1 474 21 is_stmt 0 view .LVU571
 1764 061a 3302     		lsls	r3, r6, #8
 1765              	.LVL155:
 475:Drivers/lvgl/src/draw/sw/lv_draw_sw_transform.c ****     }
 1766              		.loc 1 475 9 is_stmt 1 view .LVU572
 475:Drivers/lvgl/src/draw/sw/lv_draw_sw_transform.c ****     }
 1767              		.loc 1 475 9 is_stmt 0 view .LVU573
 1768              	.LBE221:
 1769              	.LBE322:
 115:Drivers/lvgl/src/draw/sw/lv_draw_sw_transform.c **** 
 1770              		.loc 1 115 9 is_stmt 1 view .LVU574
 1771              	.LBB323:
 469:Drivers/lvgl/src/draw/sw/lv_draw_sw_transform.c ****                                      int32_t * yout)
 1772              		.loc 1 469 13 view .LVU575
 1773              	.LBB198:
 472:Drivers/lvgl/src/draw/sw/lv_draw_sw_transform.c ****         *xout = xin * 256;
 1774              		.loc 1 472 5 view .LVU576
 473:Drivers/lvgl/src/draw/sw/lv_draw_sw_transform.c ****         *yout = yin * 256;
 1775              		.loc 1 473 9 view .LVU577
 473:Drivers/lvgl/src/draw/sw/lv_draw_sw_transform.c ****         *yout = yin * 256;
ARM GAS  /var/folders/0z/tsy30v1j4xl4_7kw94k978ww0000gn/T//ccAYAUvH.s 			page 52


 1776              		.loc 1 473 21 is_stmt 0 view .LVU578
 1777 061c 2202     		lsls	r2, r4, #8
 1778              	.LVL156:
 474:Drivers/lvgl/src/draw/sw/lv_draw_sw_transform.c ****         return;
 1779              		.loc 1 474 9 is_stmt 1 view .LVU579
 475:Drivers/lvgl/src/draw/sw/lv_draw_sw_transform.c ****     }
 1780              		.loc 1 475 9 view .LVU580
 1781 061e BBE5     		b	.L5
 1782              	.LVL157:
 1783              	.L133:
 475:Drivers/lvgl/src/draw/sw/lv_draw_sw_transform.c ****     }
 1784              		.loc 1 475 9 is_stmt 0 view .LVU581
 1785              	.LBE198:
 1786              	.LBE323:
 1787              	.LBB324:
 1788              	.LBB171:
 1789              	.LBB163:
 1790              	.LBB150:
 459:Drivers/lvgl/src/draw/sw/lv_draw_sw_transform.c ****                 abuf[x] = (a * (0xFF - ys_fract)) >> 8;
 1791              		.loc 1 459 73 view .LVU582
 1792 0620 1399     		ldr	r1, [sp, #76]
 1793 0622 0129     		cmp	r1, #1
 1794 0624 7FF46BAE 		bne	.L88
 1795              	.L87:
 460:Drivers/lvgl/src/draw/sw/lv_draw_sw_transform.c ****             }
 1796              		.loc 1 460 17 is_stmt 1 view .LVU583
 460:Drivers/lvgl/src/draw/sw/lv_draw_sw_transform.c ****             }
 1797              		.loc 1 460 38 is_stmt 0 view .LVU584
 1798 0628 1A99     		ldr	r1, [sp, #104]
 1799 062a C1F1FF01 		rsb	r1, r1, #255
 460:Drivers/lvgl/src/draw/sw/lv_draw_sw_transform.c ****             }
 1800              		.loc 1 460 30 view .LVU585
 1801 062e 06FB01F1 		mul	r1, r6, r1
 460:Drivers/lvgl/src/draw/sw/lv_draw_sw_transform.c ****             }
 1802              		.loc 1 460 51 view .LVU586
 1803 0632 0912     		asrs	r1, r1, #8
 460:Drivers/lvgl/src/draw/sw/lv_draw_sw_transform.c ****             }
 1804              		.loc 1 460 25 view .LVU587
 1805 0634 1170     		strb	r1, [r2]
 1806              	.LVL158:
 460:Drivers/lvgl/src/draw/sw/lv_draw_sw_transform.c ****             }
 1807              		.loc 1 460 25 view .LVU588
 1808 0636 64E6     		b	.L62
 1809              	.LVL159:
 1810              	.L130:
 460:Drivers/lvgl/src/draw/sw/lv_draw_sw_transform.c ****             }
 1811              		.loc 1 460 25 view .LVU589
 1812              	.LBE150:
 1813              	.LBB151:
 350:Drivers/lvgl/src/draw/sw/lv_draw_sw_transform.c ****             const uint8_t * px_hor = src_tmp + x_next * px_size;
 1814              		.loc 1 350 13 is_stmt 1 view .LVU590
 351:Drivers/lvgl/src/draw/sw/lv_draw_sw_transform.c ****             const uint8_t * px_ver = src_tmp + y_next * src_stride * px_size;
 1815              		.loc 1 351 13 view .LVU591
 352:Drivers/lvgl/src/draw/sw/lv_draw_sw_transform.c ****             lv_color_t c_base;
 1816              		.loc 1 352 55 is_stmt 0 view .LVU592
 1817 0638 1398     		ldr	r0, [sp, #76]
 1818 063a 0C9D     		ldr	r5, [sp, #48]
ARM GAS  /var/folders/0z/tsy30v1j4xl4_7kw94k978ww0000gn/T//ccAYAUvH.s 			page 53


 352:Drivers/lvgl/src/draw/sw/lv_draw_sw_transform.c ****             lv_color_t c_base;
 1819              		.loc 1 352 68 view .LVU593
 1820 063c 189F     		ldr	r7, [sp, #96]
 352:Drivers/lvgl/src/draw/sw/lv_draw_sw_transform.c ****             lv_color_t c_base;
 1821              		.loc 1 352 55 view .LVU594
 1822 063e 05FB00F0 		mul	r0, r5, r0
 352:Drivers/lvgl/src/draw/sw/lv_draw_sw_transform.c ****             lv_color_t c_base;
 1823              		.loc 1 352 68 view .LVU595
 1824 0642 07FB00F5 		mul	r5, r7, r0
 351:Drivers/lvgl/src/draw/sw/lv_draw_sw_transform.c ****             const uint8_t * px_ver = src_tmp + y_next * src_stride * px_size;
 1825              		.loc 1 351 55 view .LVU596
 1826 0646 0D98     		ldr	r0, [sp, #52]
 1827 0648 00FB07F0 		mul	r0, r0, r7
 351:Drivers/lvgl/src/draw/sw/lv_draw_sw_transform.c ****             const uint8_t * px_ver = src_tmp + y_next * src_stride * px_size;
 1828              		.loc 1 351 29 view .LVU597
 1829 064c 08EB0006 		add	r6, r8, r0
 1830 0650 1396     		str	r6, [sp, #76]
 1831              	.LVL160:
 352:Drivers/lvgl/src/draw/sw/lv_draw_sw_transform.c ****             lv_color_t c_base;
 1832              		.loc 1 352 13 is_stmt 1 view .LVU598
 352:Drivers/lvgl/src/draw/sw/lv_draw_sw_transform.c ****             lv_color_t c_base;
 1833              		.loc 1 352 29 is_stmt 0 view .LVU599
 1834 0652 08EB0506 		add	r6, r8, r5
 1835              	.LVL161:
 352:Drivers/lvgl/src/draw/sw/lv_draw_sw_transform.c ****             lv_color_t c_base;
 1836              		.loc 1 352 29 view .LVU600
 1837 0656 1B96     		str	r6, [sp, #108]
 1838              	.LVL162:
 353:Drivers/lvgl/src/draw/sw/lv_draw_sw_transform.c ****             lv_color_t c_ver;
 1839              		.loc 1 353 13 is_stmt 1 view .LVU601
 354:Drivers/lvgl/src/draw/sw/lv_draw_sw_transform.c ****             lv_color_t c_hor;
 1840              		.loc 1 354 13 view .LVU602
 355:Drivers/lvgl/src/draw/sw/lv_draw_sw_transform.c **** 
 1841              		.loc 1 355 13 view .LVU603
 357:Drivers/lvgl/src/draw/sw/lv_draw_sw_transform.c ****                 lv_opa_t a_base;
 1842              		.loc 1 357 13 view .LVU604
 357:Drivers/lvgl/src/draw/sw/lv_draw_sw_transform.c ****                 lv_opa_t a_base;
 1843              		.loc 1 357 15 is_stmt 0 view .LVU605
 1844 0658 239E     		ldr	r6, [sp, #140]
 1845              	.LVL163:
 357:Drivers/lvgl/src/draw/sw/lv_draw_sw_transform.c ****                 lv_opa_t a_base;
 1846              		.loc 1 357 15 view .LVU606
 1847 065a 002E     		cmp	r6, #0
 1848 065c 00F08580 		beq	.L68
 1849              	.LBB81:
 358:Drivers/lvgl/src/draw/sw/lv_draw_sw_transform.c ****                 lv_opa_t a_ver;
 1850              		.loc 1 358 17 is_stmt 1 view .LVU607
 359:Drivers/lvgl/src/draw/sw/lv_draw_sw_transform.c ****                 lv_opa_t a_hor;
 1851              		.loc 1 359 17 view .LVU608
 360:Drivers/lvgl/src/draw/sw/lv_draw_sw_transform.c ****                 if(cf == LV_IMG_CF_TRUE_COLOR_ALPHA) {
 1852              		.loc 1 360 17 view .LVU609
 361:Drivers/lvgl/src/draw/sw/lv_draw_sw_transform.c ****                     a_base = px_base[LV_IMG_PX_SIZE_ALPHA_BYTE - 1];
 1853              		.loc 1 361 17 view .LVU610
 361:Drivers/lvgl/src/draw/sw/lv_draw_sw_transform.c ****                     a_base = px_base[LV_IMG_PX_SIZE_ALPHA_BYTE - 1];
 1854              		.loc 1 361 19 is_stmt 0 view .LVU611
 1855 0660 179E     		ldr	r6, [sp, #92]
 1856 0662 052E     		cmp	r6, #5
ARM GAS  /var/folders/0z/tsy30v1j4xl4_7kw94k978ww0000gn/T//ccAYAUvH.s 			page 54


 1857 0664 00F01881 		beq	.L142
 367:Drivers/lvgl/src/draw/sw/lv_draw_sw_transform.c ****                     const lv_opa_t * a_tmp = src + src_stride * src_h * sizeof(lv_color_t);
 1858              		.loc 1 367 22 is_stmt 1 view .LVU612
 367:Drivers/lvgl/src/draw/sw/lv_draw_sw_transform.c ****                     const lv_opa_t * a_tmp = src + src_stride * src_h * sizeof(lv_color_t);
 1859              		.loc 1 367 24 is_stmt 0 view .LVU613
 1860 0668 142E     		cmp	r6, #20
 1861 066a 00F0A781 		beq	.L143
 374:Drivers/lvgl/src/draw/sw/lv_draw_sw_transform.c ****                     if(((lv_color_t *)px_base)->full == ck.full ||
 1862              		.loc 1 374 22 is_stmt 1 view .LVU614
 374:Drivers/lvgl/src/draw/sw/lv_draw_sw_transform.c ****                     if(((lv_color_t *)px_base)->full == ck.full ||
 1863              		.loc 1 374 24 is_stmt 0 view .LVU615
 1864 066e 062E     		cmp	r6, #6
 1865 0670 00F0B381 		beq	.L72
 1866              	.LVL164:
 1867              	.L126:
 395:Drivers/lvgl/src/draw/sw/lv_draw_sw_transform.c **** 
 1868              		.loc 1 395 17 is_stmt 1 view .LVU616
 395:Drivers/lvgl/src/draw/sw/lv_draw_sw_transform.c **** 
 1869              		.loc 1 395 25 is_stmt 0 view .LVU617
 1870 0674 4FF0FF31 		mov	r1, #-1
 1871 0678 1170     		strb	r1, [r2]
 1872              	.LVL165:
 397:Drivers/lvgl/src/draw/sw/lv_draw_sw_transform.c **** 
 1873              		.loc 1 397 17 is_stmt 1 view .LVU618
 1874              	.L73:
 404:Drivers/lvgl/src/draw/sw/lv_draw_sw_transform.c ****                 c_ver.full = px_ver[0] + (px_ver[1] << 8);
 1875              		.loc 1 404 17 view .LVU619
 404:Drivers/lvgl/src/draw/sw/lv_draw_sw_transform.c ****                 c_ver.full = px_ver[0] + (px_ver[1] << 8);
 1876              		.loc 1 404 38 is_stmt 0 view .LVU620
 1877 067a 0A99     		ldr	r1, [sp, #40]
 1878 067c 129E     		ldr	r6, [sp, #72]
 406:Drivers/lvgl/src/draw/sw/lv_draw_sw_transform.c **** #elif LV_COLOR_DEPTH == 32
 1879              		.loc 1 406 36 view .LVU621
 1880 067e 18F80000 		ldrb	r0, [r8, r0]	@ zero_extendqisi2
 1881              	.LVL166:
 404:Drivers/lvgl/src/draw/sw/lv_draw_sw_transform.c ****                 c_ver.full = px_ver[0] + (px_ver[1] << 8);
 1882              		.loc 1 404 38 view .LVU622
 1883 0682 8E5D     		ldrb	r6, [r1, r6]	@ zero_extendqisi2
 405:Drivers/lvgl/src/draw/sw/lv_draw_sw_transform.c ****                 c_hor.full = px_hor[0] + (px_hor[1] << 8);
 1884              		.loc 1 405 49 view .LVU623
 1885 0684 1B99     		ldr	r1, [sp, #108]
 1886 0686 4F78     		ldrb	r7, [r1, #1]	@ zero_extendqisi2
 405:Drivers/lvgl/src/draw/sw/lv_draw_sw_transform.c ****                 c_hor.full = px_hor[0] + (px_hor[1] << 8);
 1887              		.loc 1 405 36 view .LVU624
 1888 0688 18F80510 		ldrb	r1, [r8, r5]	@ zero_extendqisi2
 405:Drivers/lvgl/src/draw/sw/lv_draw_sw_transform.c ****                 c_hor.full = px_hor[0] + (px_hor[1] << 8);
 1889              		.loc 1 405 40 view .LVU625
 1890 068c 01EB0725 		add	r5, r1, r7, lsl #8
 1891              	.LVL167:
 406:Drivers/lvgl/src/draw/sw/lv_draw_sw_transform.c **** #elif LV_COLOR_DEPTH == 32
 1892              		.loc 1 406 49 view .LVU626
 1893 0690 1399     		ldr	r1, [sp, #76]
 1894 0692 4978     		ldrb	r1, [r1, #1]	@ zero_extendqisi2
 406:Drivers/lvgl/src/draw/sw/lv_draw_sw_transform.c **** #elif LV_COLOR_DEPTH == 32
 1895              		.loc 1 406 40 view .LVU627
 1896 0694 00EB0120 		add	r0, r0, r1, lsl #8
 404:Drivers/lvgl/src/draw/sw/lv_draw_sw_transform.c ****                 c_ver.full = px_ver[0] + (px_ver[1] << 8);
ARM GAS  /var/folders/0z/tsy30v1j4xl4_7kw94k978ww0000gn/T//ccAYAUvH.s 			page 55


 1897              		.loc 1 404 52 view .LVU628
 1898 0698 98F80110 		ldrb	r1, [r8, #1]	@ zero_extendqisi2
 404:Drivers/lvgl/src/draw/sw/lv_draw_sw_transform.c ****                 c_ver.full = px_ver[0] + (px_ver[1] << 8);
 1899              		.loc 1 404 42 view .LVU629
 1900 069c 06EB0121 		add	r1, r6, r1, lsl #8
 1901 06a0 89B2     		uxth	r1, r1
 1902              	.LVL168:
 405:Drivers/lvgl/src/draw/sw/lv_draw_sw_transform.c ****                 c_hor.full = px_hor[0] + (px_hor[1] << 8);
 1903              		.loc 1 405 17 is_stmt 1 view .LVU630
 405:Drivers/lvgl/src/draw/sw/lv_draw_sw_transform.c ****                 c_hor.full = px_hor[0] + (px_hor[1] << 8);
 1904              		.loc 1 405 40 is_stmt 0 view .LVU631
 1905 06a2 ADB2     		uxth	r5, r5
 1906              	.LVL169:
 406:Drivers/lvgl/src/draw/sw/lv_draw_sw_transform.c **** #elif LV_COLOR_DEPTH == 32
 1907              		.loc 1 406 17 is_stmt 1 view .LVU632
 1908              	.LBE81:
 421:Drivers/lvgl/src/draw/sw/lv_draw_sw_transform.c ****                 cbuf[x] = c_base;
 1909              		.loc 1 421 15 is_stmt 0 view .LVU633
 1910 06a4 8D42     		cmp	r5, r1
 1911              	.LBB82:
 406:Drivers/lvgl/src/draw/sw/lv_draw_sw_transform.c **** #elif LV_COLOR_DEPTH == 32
 1912              		.loc 1 406 40 view .LVU634
 1913 06a6 80B2     		uxth	r0, r0
 1914              	.LVL170:
 406:Drivers/lvgl/src/draw/sw/lv_draw_sw_transform.c **** #elif LV_COLOR_DEPTH == 32
 1915              		.loc 1 406 40 view .LVU635
 1916              	.LBE82:
 421:Drivers/lvgl/src/draw/sw/lv_draw_sw_transform.c ****                 cbuf[x] = c_base;
 1917              		.loc 1 421 13 is_stmt 1 view .LVU636
 421:Drivers/lvgl/src/draw/sw/lv_draw_sw_transform.c ****                 cbuf[x] = c_base;
 1918              		.loc 1 421 15 is_stmt 0 view .LVU637
 1919 06a8 6BD1     		bne	.L79
 1920              	.LVL171:
 1921              	.L146:
 421:Drivers/lvgl/src/draw/sw/lv_draw_sw_transform.c ****                 cbuf[x] = c_base;
 1922              		.loc 1 421 42 view .LVU638
 1923 06aa 8542     		cmp	r5, r0
 1924 06ac 69D1     		bne	.L79
 422:Drivers/lvgl/src/draw/sw/lv_draw_sw_transform.c ****             }
 1925              		.loc 1 422 17 is_stmt 1 view .LVU639
 422:Drivers/lvgl/src/draw/sw/lv_draw_sw_transform.c ****             }
 1926              		.loc 1 422 25 is_stmt 0 view .LVU640
 1927 06ae 2580     		strh	r5, [r4]	@ movhi
 1928 06b0 27E6     		b	.L62
 1929              	.LVL172:
 1930              	.L94:
 422:Drivers/lvgl/src/draw/sw/lv_draw_sw_transform.c ****             }
 1931              		.loc 1 422 25 view .LVU641
 1932              	.LBE151:
 1933              	.LBE163:
 277:Drivers/lvgl/src/draw/sw/lv_draw_sw_transform.c ****         case LV_IMG_CF_TRUE_COLOR:
 1934              		.loc 1 277 5 view .LVU642
 1935 06b2 0023     		movs	r3, #0
 1936 06b4 0222     		movs	r2, #2
 1937 06b6 2193     		str	r3, [sp, #132]
 1938 06b8 1892     		str	r2, [sp, #96]
 1939 06ba 2393     		str	r3, [sp, #140]
ARM GAS  /var/folders/0z/tsy30v1j4xl4_7kw94k978ww0000gn/T//ccAYAUvH.s 			page 56


 1940 06bc A2E5     		b	.L59
 1941              	.LVL173:
 1942              	.L24:
 277:Drivers/lvgl/src/draw/sw/lv_draw_sw_transform.c ****         case LV_IMG_CF_TRUE_COLOR:
 1943              		.loc 1 277 5 view .LVU643
 1944 06be 012B     		cmp	r3, #1
 1945 06c0 40F04881 		bne	.L144
 1946 06c4 369B     		ldr	r3, [sp, #216]
 1947              	.LBE171:
 1948              	.LBE324:
 1949              	.LBB325:
 1950              	.LBB276:
 172:Drivers/lvgl/src/draw/sw/lv_draw_sw_transform.c ****         xs_ups = xs_ups_start + ((xs_step * x) >> 8);
 1951              		.loc 1 172 18 view .LVU644
 1952 06c6 DDF804E0 		ldr	lr, [sp, #4]
 1953 06ca 379A     		ldr	r2, [sp, #220]
 1954 06cc 0194     		str	r4, [sp, #4]
 1955              	.LVL174:
 172:Drivers/lvgl/src/draw/sw/lv_draw_sw_transform.c ****         xs_ups = xs_ups_start + ((xs_step * x) >> 8);
 1956              		.loc 1 172 18 view .LVU645
 1957 06ce 0025     		movs	r5, #0
 1958 06d0 9E1E     		subs	r6, r3, #2
 1959 06d2 2846     		mov	r0, r5
 1960 06d4 2946     		mov	r1, r5
 1961 06d6 1FE0     		b	.L44
 1962              	.LVL175:
 1963              	.L145:
 1964              	.LBB263:
 178:Drivers/lvgl/src/draw/sw/lv_draw_sw_transform.c ****             abuf[x] = 0x00;
 1965              		.loc 1 178 23 view .LVU646
 1966 06d8 039C     		ldr	r4, [sp, #12]
 1967 06da 9C42     		cmp	r4, r3
 174:Drivers/lvgl/src/draw/sw/lv_draw_sw_transform.c **** 
 1968              		.loc 1 174 16 view .LVU647
 1969 06dc 0EEB252C 		add	ip, lr, r5, asr #8
 178:Drivers/lvgl/src/draw/sw/lv_draw_sw_transform.c ****             abuf[x] = 0x00;
 1970              		.loc 1 178 23 view .LVU648
 1971 06e0 1EDD     		ble	.L41
 178:Drivers/lvgl/src/draw/sw/lv_draw_sw_transform.c ****             abuf[x] = 0x00;
 1972              		.loc 1 178 42 view .LVU649
 1973 06e2 5FEA2C2C 		asrs	ip, ip, #8
 1974 06e6 1BD4     		bmi	.L41
 1975              	.LBB253:
 188:Drivers/lvgl/src/draw/sw/lv_draw_sw_transform.c ****             src_tmp += ys_int * src_stride + xs_int;
 1976              		.loc 1 188 13 is_stmt 1 view .LVU650
 1977              	.LVL176:
 189:Drivers/lvgl/src/draw/sw/lv_draw_sw_transform.c ****             cbuf[x] = *src_tmp;
 1978              		.loc 1 189 13 view .LVU651
 190:Drivers/lvgl/src/draw/sw/lv_draw_sw_transform.c **** #elif LV_COLOR_DEPTH == 32
 1979              		.loc 1 190 13 view .LVU652
 1980              	.LBE253:
 178:Drivers/lvgl/src/draw/sw/lv_draw_sw_transform.c ****             abuf[x] = 0x00;
 1981              		.loc 1 178 56 is_stmt 0 view .LVU653
 1982 06e8 079C     		ldr	r4, [sp, #28]
 1983 06ea 6445     		cmp	r4, ip
 1984              	.LBB254:
 189:Drivers/lvgl/src/draw/sw/lv_draw_sw_transform.c ****             cbuf[x] = *src_tmp;
ARM GAS  /var/folders/0z/tsy30v1j4xl4_7kw94k978ww0000gn/T//ccAYAUvH.s 			page 57


 1985              		.loc 1 189 21 view .LVU654
 1986 06ec 6344     		add	r3, r3, ip
 1987              	.LVL177:
 189:Drivers/lvgl/src/draw/sw/lv_draw_sw_transform.c ****             cbuf[x] = *src_tmp;
 1988              		.loc 1 189 21 view .LVU655
 1989              	.LBE254:
 178:Drivers/lvgl/src/draw/sw/lv_draw_sw_transform.c ****             abuf[x] = 0x00;
 1990              		.loc 1 178 56 view .LVU656
 1991 06ee 17DD     		ble	.L41
 1992              	.LBB255:
 190:Drivers/lvgl/src/draw/sw/lv_draw_sw_transform.c **** #elif LV_COLOR_DEPTH == 32
 1993              		.loc 1 190 21 view .LVU657
 1994 06f0 0A9C     		ldr	r4, [sp, #40]
 1995 06f2 34F81330 		ldrh	r3, [r4, r3, lsl #1]
 1996 06f6 7380     		strh	r3, [r6, #2]	@ movhi
 1997              	.LVL178:
 1998              	.L42:
 190:Drivers/lvgl/src/draw/sw/lv_draw_sw_transform.c **** #elif LV_COLOR_DEPTH == 32
 1999              		.loc 1 190 21 view .LVU658
 2000              	.LBE255:
 197:Drivers/lvgl/src/draw/sw/lv_draw_sw_transform.c ****             abuf[x] = 0x00;
 2001              		.loc 1 197 9 is_stmt 1 view .LVU659
 2002              	.LBE263:
 172:Drivers/lvgl/src/draw/sw/lv_draw_sw_transform.c ****         xs_ups = xs_ups_start + ((xs_step * x) >> 8);
 2003              		.loc 1 172 28 view .LVU660
 172:Drivers/lvgl/src/draw/sw/lv_draw_sw_transform.c ****         xs_ups = xs_ups_start + ((xs_step * x) >> 8);
 2004              		.loc 1 172 18 view .LVU661
 2005              	.LBB264:
 197:Drivers/lvgl/src/draw/sw/lv_draw_sw_transform.c ****             abuf[x] = 0x00;
 2006              		.loc 1 197 52 is_stmt 0 view .LVU662
 2007 06f8 36F8023F 		ldrh	r3, [r6, #2]!
 2008 06fc 019C     		ldr	r4, [sp, #4]
 2009              	.LBE264:
 172:Drivers/lvgl/src/draw/sw/lv_draw_sw_transform.c ****         xs_ups = xs_ups_start + ((xs_step * x) >> 8);
 2010              		.loc 1 172 18 view .LVU663
 2011 06fe 0131     		adds	r1, r1, #1
 2012              	.LVL179:
 2013              	.LBB265:
 197:Drivers/lvgl/src/draw/sw/lv_draw_sw_transform.c ****             abuf[x] = 0x00;
 2014              		.loc 1 197 52 view .LVU664
 2015 0700 A342     		cmp	r3, r4
 2016              	.LBE265:
 172:Drivers/lvgl/src/draw/sw/lv_draw_sw_transform.c ****         xs_ups = xs_ups_start + ((xs_step * x) >> 8);
 2017              		.loc 1 172 18 view .LVU665
 2018 0702 0BB2     		sxth	r3, r1
 2019              	.LBB266:
 198:Drivers/lvgl/src/draw/sw/lv_draw_sw_transform.c ****         }
 2020              		.loc 1 198 21 view .LVU666
 2021 0704 08BF     		it	eq
 2022 0706 82F800B0 		strbeq	fp, [r2]
 2023              	.LBE266:
 172:Drivers/lvgl/src/draw/sw/lv_draw_sw_transform.c ****         xs_ups = xs_ups_start + ((xs_step * x) >> 8);
 2024              		.loc 1 172 18 view .LVU667
 2025 070a 9845     		cmp	r8, r3
 2026 070c 5044     		add	r0, r0, r10
 2027              	.LVL180:
 172:Drivers/lvgl/src/draw/sw/lv_draw_sw_transform.c ****         xs_ups = xs_ups_start + ((xs_step * x) >> 8);
ARM GAS  /var/folders/0z/tsy30v1j4xl4_7kw94k978ww0000gn/T//ccAYAUvH.s 			page 58


 2028              		.loc 1 172 18 view .LVU668
 2029 070e 4D44     		add	r5, r5, r9
 2030              	.LBB267:
 198:Drivers/lvgl/src/draw/sw/lv_draw_sw_transform.c ****         }
 2031              		.loc 1 198 13 is_stmt 1 view .LVU669
 2032              	.LBE267:
 172:Drivers/lvgl/src/draw/sw/lv_draw_sw_transform.c ****         xs_ups = xs_ups_start + ((xs_step * x) >> 8);
 2033              		.loc 1 172 18 is_stmt 0 view .LVU670
 2034 0710 02F10102 		add	r2, r2, #1
 2035 0714 7FF703AE 		ble	.L8
 2036              	.L44:
 2037              	.LVL181:
 2038              	.LBB268:
 173:Drivers/lvgl/src/draw/sw/lv_draw_sw_transform.c ****         ys_ups = ys_ups_start + ((ys_step * x) >> 8);
 2039              		.loc 1 173 9 is_stmt 1 view .LVU671
 174:Drivers/lvgl/src/draw/sw/lv_draw_sw_transform.c **** 
 2040              		.loc 1 174 9 view .LVU672
 176:Drivers/lvgl/src/draw/sw/lv_draw_sw_transform.c ****         int32_t ys_int = ys_ups >> 8;
 2041              		.loc 1 176 9 view .LVU673
 179:Drivers/lvgl/src/draw/sw/lv_draw_sw_transform.c ****         }
 2042              		.loc 1 179 13 view .LVU674
 173:Drivers/lvgl/src/draw/sw/lv_draw_sw_transform.c ****         ys_ups = ys_ups_start + ((ys_step * x) >> 8);
 2043              		.loc 1 173 16 is_stmt 0 view .LVU675
 2044 0718 07EB2023 		add	r3, r7, r0, asr #8
 2045              	.LVL182:
 177:Drivers/lvgl/src/draw/sw/lv_draw_sw_transform.c ****         if(xs_int < 0 || xs_int >= src_w || ys_int < 0 || ys_int >= src_h) {
 2046              		.loc 1 177 9 is_stmt 1 view .LVU676
 178:Drivers/lvgl/src/draw/sw/lv_draw_sw_transform.c ****             abuf[x] = 0x00;
 2047              		.loc 1 178 9 view .LVU677
 178:Drivers/lvgl/src/draw/sw/lv_draw_sw_transform.c ****             abuf[x] = 0x00;
 2048              		.loc 1 178 11 is_stmt 0 view .LVU678
 2049 071c 1B12     		asrs	r3, r3, #8
 2050              	.LVL183:
 178:Drivers/lvgl/src/draw/sw/lv_draw_sw_transform.c ****             abuf[x] = 0x00;
 2051              		.loc 1 178 11 view .LVU679
 2052 071e DBD5     		bpl	.L145
 2053              	.LVL184:
 2054              	.L41:
 179:Drivers/lvgl/src/draw/sw/lv_draw_sw_transform.c ****         }
 2055              		.loc 1 179 21 view .LVU680
 2056 0720 82F800B0 		strb	fp, [r2]
 2057 0724 E8E7     		b	.L42
 2058              	.LVL185:
 2059              	.L139:
 179:Drivers/lvgl/src/draw/sw/lv_draw_sw_transform.c ****         }
 2060              		.loc 1 179 21 view .LVU681
 2061              	.LBE268:
 2062              	.LBE276:
 2063              	.LBE325:
 2064              	.LBB326:
 2065              	.LBB302:
 245:Drivers/lvgl/src/draw/sw/lv_draw_sw_transform.c ****         xs_ups = xs_ups_start + ((xs_step * x) >> 8);
 2066              		.loc 1 245 18 view .LVU682
 2067 0726 049B     		ldr	r3, [sp, #16]
 2068 0728 DDF80CE0 		ldr	lr, [sp, #12]
 2069 072c DDF804C0 		ldr	ip, [sp, #4]
 2070 0730 0193     		str	r3, [sp, #4]
ARM GAS  /var/folders/0z/tsy30v1j4xl4_7kw94k978ww0000gn/T//ccAYAUvH.s 			page 59


 2071              	.LVL186:
 2072              	.L50:
 2073              	.LBB300:
 246:Drivers/lvgl/src/draw/sw/lv_draw_sw_transform.c ****         ys_ups = ys_ups_start + ((ys_step * x) >> 8);
 2074              		.loc 1 246 9 is_stmt 1 view .LVU683
 247:Drivers/lvgl/src/draw/sw/lv_draw_sw_transform.c **** 
 2075              		.loc 1 247 9 view .LVU684
 249:Drivers/lvgl/src/draw/sw/lv_draw_sw_transform.c ****         int32_t ys_int = ys_ups >> 8;
 2076              		.loc 1 249 9 view .LVU685
 252:Drivers/lvgl/src/draw/sw/lv_draw_sw_transform.c ****         }
 2077              		.loc 1 252 13 view .LVU686
 246:Drivers/lvgl/src/draw/sw/lv_draw_sw_transform.c ****         ys_ups = ys_ups_start + ((ys_step * x) >> 8);
 2078              		.loc 1 246 16 is_stmt 0 view .LVU687
 2079 0732 07EB2123 		add	r3, r7, r1, asr #8
 2080              	.LVL187:
 250:Drivers/lvgl/src/draw/sw/lv_draw_sw_transform.c ****         if(xs_int < 0 || xs_int >= src_w || ys_int < 0 || ys_int >= src_h) {
 2081              		.loc 1 250 9 is_stmt 1 view .LVU688
 251:Drivers/lvgl/src/draw/sw/lv_draw_sw_transform.c ****             abuf[x] = 0;
 2082              		.loc 1 251 9 view .LVU689
 251:Drivers/lvgl/src/draw/sw/lv_draw_sw_transform.c ****             abuf[x] = 0;
 2083              		.loc 1 251 11 is_stmt 0 view .LVU690
 2084 0736 1B12     		asrs	r3, r3, #8
 2085              	.LVL188:
 251:Drivers/lvgl/src/draw/sw/lv_draw_sw_transform.c ****             abuf[x] = 0;
 2086              		.loc 1 251 11 view .LVU691
 2087 0738 0CD4     		bmi	.L47
 251:Drivers/lvgl/src/draw/sw/lv_draw_sw_transform.c ****             abuf[x] = 0;
 2088              		.loc 1 251 23 view .LVU692
 2089 073a 7345     		cmp	r3, lr
 247:Drivers/lvgl/src/draw/sw/lv_draw_sw_transform.c **** 
 2090              		.loc 1 247 16 view .LVU693
 2091 073c 0CEB2025 		add	r5, ip, r0, asr #8
 251:Drivers/lvgl/src/draw/sw/lv_draw_sw_transform.c ****             abuf[x] = 0;
 2092              		.loc 1 251 23 view .LVU694
 2093 0740 08DA     		bge	.L47
 251:Drivers/lvgl/src/draw/sw/lv_draw_sw_transform.c ****             abuf[x] = 0;
 2094              		.loc 1 251 42 view .LVU695
 2095 0742 2D12     		asrs	r5, r5, #8
 2096 0744 06D4     		bmi	.L47
 2097              	.LBB297:
 255:Drivers/lvgl/src/draw/sw/lv_draw_sw_transform.c ****             src_tmp += ys_int * src_stride + xs_int;
 2098              		.loc 1 255 13 is_stmt 1 view .LVU696
 2099              	.LVL189:
 256:Drivers/lvgl/src/draw/sw/lv_draw_sw_transform.c ****             cbuf[x] = *src_tmp;
 2100              		.loc 1 256 13 view .LVU697
 256:Drivers/lvgl/src/draw/sw/lv_draw_sw_transform.c ****             cbuf[x] = *src_tmp;
 2101              		.loc 1 256 44 is_stmt 0 view .LVU698
 2102 0746 0C9E     		ldr	r6, [sp, #48]
 2103 0748 06FB0533 		mla	r3, r6, r5, r3
 2104              	.LVL190:
 257:Drivers/lvgl/src/draw/sw/lv_draw_sw_transform.c **** 
 2105              		.loc 1 257 13 is_stmt 1 view .LVU699
 2106              	.LBE297:
 251:Drivers/lvgl/src/draw/sw/lv_draw_sw_transform.c ****             abuf[x] = 0;
 2107              		.loc 1 251 56 is_stmt 0 view .LVU700
 2108 074c 079E     		ldr	r6, [sp, #28]
 2109 074e B542     		cmp	r5, r6
ARM GAS  /var/folders/0z/tsy30v1j4xl4_7kw94k978ww0000gn/T//ccAYAUvH.s 			page 60


 2110 0750 C0F29980 		blt	.L48
 2111              	.LVL191:
 2112              	.L47:
 252:Drivers/lvgl/src/draw/sw/lv_draw_sw_transform.c ****         }
 2113              		.loc 1 252 21 view .LVU701
 2114 0754 82F800B0 		strb	fp, [r2]
 2115              	.L49:
 2116              	.LBE300:
 245:Drivers/lvgl/src/draw/sw/lv_draw_sw_transform.c ****         xs_ups = xs_ups_start + ((xs_step * x) >> 8);
 2117              		.loc 1 245 28 is_stmt 1 view .LVU702
 2118              	.LVL192:
 245:Drivers/lvgl/src/draw/sw/lv_draw_sw_transform.c ****         xs_ups = xs_ups_start + ((xs_step * x) >> 8);
 2119              		.loc 1 245 18 view .LVU703
 2120 0758 019B     		ldr	r3, [sp, #4]
 2121 075a 0132     		adds	r2, r2, #1
 2122 075c 9342     		cmp	r3, r2
 2123 075e 5144     		add	r1, r1, r10
 2124              	.LVL193:
 245:Drivers/lvgl/src/draw/sw/lv_draw_sw_transform.c ****         xs_ups = xs_ups_start + ((xs_step * x) >> 8);
 2125              		.loc 1 245 18 is_stmt 0 view .LVU704
 2126 0760 04F10204 		add	r4, r4, #2
 2127 0764 4844     		add	r0, r0, r9
 2128 0766 E4D1     		bne	.L50
 2129 0768 D9E5     		b	.L8
 2130              	.LVL194:
 2131              	.L68:
 245:Drivers/lvgl/src/draw/sw/lv_draw_sw_transform.c ****         xs_ups = xs_ups_start + ((xs_step * x) >> 8);
 2132              		.loc 1 245 18 view .LVU705
 2133              	.LBE302:
 2134              	.LBE326:
 2135              	.LBB327:
 2136              	.LBB172:
 2137              	.LBB164:
 2138              	.LBB152:
 415:Drivers/lvgl/src/draw/sw/lv_draw_sw_transform.c ****                 c_hor = *((const lv_color_t *) px_hor);
 2139              		.loc 1 415 17 is_stmt 1 view .LVU706
 415:Drivers/lvgl/src/draw/sw/lv_draw_sw_transform.c ****                 c_hor = *((const lv_color_t *) px_hor);
 2140              		.loc 1 415 24 is_stmt 0 view .LVU707
 2141 076a 129E     		ldr	r6, [sp, #72]
 2142 076c 0A99     		ldr	r1, [sp, #40]
 2143              	.LVL195:
 417:Drivers/lvgl/src/draw/sw/lv_draw_sw_transform.c ****                 abuf[x] = 0xff;
 2144              		.loc 1 417 23 view .LVU708
 2145 076e 38F80550 		ldrh	r5, [r8, r5]
 415:Drivers/lvgl/src/draw/sw/lv_draw_sw_transform.c ****                 c_hor = *((const lv_color_t *) px_hor);
 2146              		.loc 1 415 24 view .LVU709
 2147 0772 895B     		ldrh	r1, [r1, r6]
 2148              	.LVL196:
 416:Drivers/lvgl/src/draw/sw/lv_draw_sw_transform.c ****                 c_ver = *((const lv_color_t *) px_ver);
 2149              		.loc 1 416 17 is_stmt 1 view .LVU710
 416:Drivers/lvgl/src/draw/sw/lv_draw_sw_transform.c ****                 c_ver = *((const lv_color_t *) px_ver);
 2150              		.loc 1 416 23 is_stmt 0 view .LVU711
 2151 0774 38F80000 		ldrh	r0, [r8, r0]
 2152              	.LVL197:
 417:Drivers/lvgl/src/draw/sw/lv_draw_sw_transform.c ****                 abuf[x] = 0xff;
 2153              		.loc 1 417 17 is_stmt 1 view .LVU712
 418:Drivers/lvgl/src/draw/sw/lv_draw_sw_transform.c ****             }
ARM GAS  /var/folders/0z/tsy30v1j4xl4_7kw94k978ww0000gn/T//ccAYAUvH.s 			page 61


 2154              		.loc 1 418 17 view .LVU713
 418:Drivers/lvgl/src/draw/sw/lv_draw_sw_transform.c ****             }
 2155              		.loc 1 418 25 is_stmt 0 view .LVU714
 2156 0778 4FF0FF36 		mov	r6, #-1
 421:Drivers/lvgl/src/draw/sw/lv_draw_sw_transform.c ****                 cbuf[x] = c_base;
 2157              		.loc 1 421 15 view .LVU715
 2158 077c 8D42     		cmp	r5, r1
 418:Drivers/lvgl/src/draw/sw/lv_draw_sw_transform.c ****             }
 2159              		.loc 1 418 25 view .LVU716
 2160 077e 1670     		strb	r6, [r2]
 421:Drivers/lvgl/src/draw/sw/lv_draw_sw_transform.c ****                 cbuf[x] = c_base;
 2161              		.loc 1 421 13 is_stmt 1 view .LVU717
 421:Drivers/lvgl/src/draw/sw/lv_draw_sw_transform.c ****                 cbuf[x] = c_base;
 2162              		.loc 1 421 15 is_stmt 0 view .LVU718
 2163 0780 93D0     		beq	.L146
 2164              	.LVL198:
 2165              	.L79:
 425:Drivers/lvgl/src/draw/sw/lv_draw_sw_transform.c ****                 c_hor = lv_color_mix(c_hor, c_base, xs_fract);
 2166              		.loc 1 425 17 is_stmt 1 view .LVU719
 2167              	.LBB83:
 2168              	.LBI83:
 2169              		.file 3 "Drivers/lvgl/src/draw/sw/../../misc/lv_color.h"
   1:Drivers/lvgl/src/draw/sw/../../misc/lv_color.h **** /**
   2:Drivers/lvgl/src/draw/sw/../../misc/lv_color.h ****  * @file lv_color.h
   3:Drivers/lvgl/src/draw/sw/../../misc/lv_color.h ****  *
   4:Drivers/lvgl/src/draw/sw/../../misc/lv_color.h ****  */
   5:Drivers/lvgl/src/draw/sw/../../misc/lv_color.h **** 
   6:Drivers/lvgl/src/draw/sw/../../misc/lv_color.h **** #ifndef LV_COLOR_H
   7:Drivers/lvgl/src/draw/sw/../../misc/lv_color.h **** #define LV_COLOR_H
   8:Drivers/lvgl/src/draw/sw/../../misc/lv_color.h **** 
   9:Drivers/lvgl/src/draw/sw/../../misc/lv_color.h **** #ifdef __cplusplus
  10:Drivers/lvgl/src/draw/sw/../../misc/lv_color.h **** extern "C" {
  11:Drivers/lvgl/src/draw/sw/../../misc/lv_color.h **** #endif
  12:Drivers/lvgl/src/draw/sw/../../misc/lv_color.h **** 
  13:Drivers/lvgl/src/draw/sw/../../misc/lv_color.h **** /*********************
  14:Drivers/lvgl/src/draw/sw/../../misc/lv_color.h ****  *      INCLUDES
  15:Drivers/lvgl/src/draw/sw/../../misc/lv_color.h ****  *********************/
  16:Drivers/lvgl/src/draw/sw/../../misc/lv_color.h **** #include "../lv_conf_internal.h"
  17:Drivers/lvgl/src/draw/sw/../../misc/lv_color.h **** #include "lv_assert.h"
  18:Drivers/lvgl/src/draw/sw/../../misc/lv_color.h **** #include "lv_math.h"
  19:Drivers/lvgl/src/draw/sw/../../misc/lv_color.h **** #include "lv_types.h"
  20:Drivers/lvgl/src/draw/sw/../../misc/lv_color.h **** 
  21:Drivers/lvgl/src/draw/sw/../../misc/lv_color.h **** /*Error checking*/
  22:Drivers/lvgl/src/draw/sw/../../misc/lv_color.h **** #if LV_COLOR_DEPTH == 24
  23:Drivers/lvgl/src/draw/sw/../../misc/lv_color.h **** #error "LV_COLOR_DEPTH 24 is deprecated. Use LV_COLOR_DEPTH 32 instead (lv_conf.h)"
  24:Drivers/lvgl/src/draw/sw/../../misc/lv_color.h **** #endif
  25:Drivers/lvgl/src/draw/sw/../../misc/lv_color.h **** 
  26:Drivers/lvgl/src/draw/sw/../../misc/lv_color.h **** #if LV_COLOR_DEPTH != 16 && LV_COLOR_16_SWAP != 0
  27:Drivers/lvgl/src/draw/sw/../../misc/lv_color.h **** #error "LV_COLOR_16_SWAP requires LV_COLOR_DEPTH == 16. Set it in lv_conf.h"
  28:Drivers/lvgl/src/draw/sw/../../misc/lv_color.h **** #endif
  29:Drivers/lvgl/src/draw/sw/../../misc/lv_color.h **** 
  30:Drivers/lvgl/src/draw/sw/../../misc/lv_color.h **** #include <stdint.h>
  31:Drivers/lvgl/src/draw/sw/../../misc/lv_color.h **** 
  32:Drivers/lvgl/src/draw/sw/../../misc/lv_color.h **** /*********************
  33:Drivers/lvgl/src/draw/sw/../../misc/lv_color.h ****  *      DEFINES
  34:Drivers/lvgl/src/draw/sw/../../misc/lv_color.h ****  *********************/
  35:Drivers/lvgl/src/draw/sw/../../misc/lv_color.h **** LV_EXPORT_CONST_INT(LV_COLOR_DEPTH);
ARM GAS  /var/folders/0z/tsy30v1j4xl4_7kw94k978ww0000gn/T//ccAYAUvH.s 			page 62


  36:Drivers/lvgl/src/draw/sw/../../misc/lv_color.h **** LV_EXPORT_CONST_INT(LV_COLOR_16_SWAP);
  37:Drivers/lvgl/src/draw/sw/../../misc/lv_color.h **** 
  38:Drivers/lvgl/src/draw/sw/../../misc/lv_color.h **** /**
  39:Drivers/lvgl/src/draw/sw/../../misc/lv_color.h ****  * Opacity percentages.
  40:Drivers/lvgl/src/draw/sw/../../misc/lv_color.h ****  */
  41:Drivers/lvgl/src/draw/sw/../../misc/lv_color.h **** enum {
  42:Drivers/lvgl/src/draw/sw/../../misc/lv_color.h ****     LV_OPA_TRANSP = 0,
  43:Drivers/lvgl/src/draw/sw/../../misc/lv_color.h ****     LV_OPA_0      = 0,
  44:Drivers/lvgl/src/draw/sw/../../misc/lv_color.h ****     LV_OPA_10     = 25,
  45:Drivers/lvgl/src/draw/sw/../../misc/lv_color.h ****     LV_OPA_20     = 51,
  46:Drivers/lvgl/src/draw/sw/../../misc/lv_color.h ****     LV_OPA_30     = 76,
  47:Drivers/lvgl/src/draw/sw/../../misc/lv_color.h ****     LV_OPA_40     = 102,
  48:Drivers/lvgl/src/draw/sw/../../misc/lv_color.h ****     LV_OPA_50     = 127,
  49:Drivers/lvgl/src/draw/sw/../../misc/lv_color.h ****     LV_OPA_60     = 153,
  50:Drivers/lvgl/src/draw/sw/../../misc/lv_color.h ****     LV_OPA_70     = 178,
  51:Drivers/lvgl/src/draw/sw/../../misc/lv_color.h ****     LV_OPA_80     = 204,
  52:Drivers/lvgl/src/draw/sw/../../misc/lv_color.h ****     LV_OPA_90     = 229,
  53:Drivers/lvgl/src/draw/sw/../../misc/lv_color.h ****     LV_OPA_100    = 255,
  54:Drivers/lvgl/src/draw/sw/../../misc/lv_color.h ****     LV_OPA_COVER  = 255,
  55:Drivers/lvgl/src/draw/sw/../../misc/lv_color.h **** };
  56:Drivers/lvgl/src/draw/sw/../../misc/lv_color.h **** 
  57:Drivers/lvgl/src/draw/sw/../../misc/lv_color.h **** #define LV_OPA_MIN 2    /*Opacities below this will be transparent*/
  58:Drivers/lvgl/src/draw/sw/../../misc/lv_color.h **** #define LV_OPA_MAX 253  /*Opacities above this will fully cover*/
  59:Drivers/lvgl/src/draw/sw/../../misc/lv_color.h **** 
  60:Drivers/lvgl/src/draw/sw/../../misc/lv_color.h **** #if LV_COLOR_DEPTH == 1
  61:Drivers/lvgl/src/draw/sw/../../misc/lv_color.h **** #define LV_COLOR_SIZE 8
  62:Drivers/lvgl/src/draw/sw/../../misc/lv_color.h **** #elif LV_COLOR_DEPTH == 8
  63:Drivers/lvgl/src/draw/sw/../../misc/lv_color.h **** #define LV_COLOR_SIZE 8
  64:Drivers/lvgl/src/draw/sw/../../misc/lv_color.h **** #elif LV_COLOR_DEPTH == 16
  65:Drivers/lvgl/src/draw/sw/../../misc/lv_color.h **** #define LV_COLOR_SIZE 16
  66:Drivers/lvgl/src/draw/sw/../../misc/lv_color.h **** #elif LV_COLOR_DEPTH == 32
  67:Drivers/lvgl/src/draw/sw/../../misc/lv_color.h **** #define LV_COLOR_SIZE 32
  68:Drivers/lvgl/src/draw/sw/../../misc/lv_color.h **** #else
  69:Drivers/lvgl/src/draw/sw/../../misc/lv_color.h **** #error "Invalid LV_COLOR_DEPTH in lv_conf.h! Set it to 1, 8, 16 or 32!"
  70:Drivers/lvgl/src/draw/sw/../../misc/lv_color.h **** #endif
  71:Drivers/lvgl/src/draw/sw/../../misc/lv_color.h **** 
  72:Drivers/lvgl/src/draw/sw/../../misc/lv_color.h **** #if defined(__cplusplus) && !defined(_LV_COLOR_HAS_MODERN_CPP)
  73:Drivers/lvgl/src/draw/sw/../../misc/lv_color.h **** /**
  74:Drivers/lvgl/src/draw/sw/../../misc/lv_color.h **** * MSVC compiler's definition of the __cplusplus indicating 199711L regardless to C++ standard versi
  75:Drivers/lvgl/src/draw/sw/../../misc/lv_color.h **** * see https://devblogs.microsoft.com/cppblog/msvc-now-correctly-reports-cplusplus
  76:Drivers/lvgl/src/draw/sw/../../misc/lv_color.h **** * so we use _MSC_VER macro instead of __cplusplus
  77:Drivers/lvgl/src/draw/sw/../../misc/lv_color.h **** */
  78:Drivers/lvgl/src/draw/sw/../../misc/lv_color.h **** #ifdef _MSC_VER
  79:Drivers/lvgl/src/draw/sw/../../misc/lv_color.h **** #if _MSC_VER >= 1900 /*Visual Studio 2015*/
  80:Drivers/lvgl/src/draw/sw/../../misc/lv_color.h **** #define _LV_COLOR_HAS_MODERN_CPP 1
  81:Drivers/lvgl/src/draw/sw/../../misc/lv_color.h **** #endif
  82:Drivers/lvgl/src/draw/sw/../../misc/lv_color.h **** #else
  83:Drivers/lvgl/src/draw/sw/../../misc/lv_color.h **** #if __cplusplus >= 201103L
  84:Drivers/lvgl/src/draw/sw/../../misc/lv_color.h **** #define _LV_COLOR_HAS_MODERN_CPP 1
  85:Drivers/lvgl/src/draw/sw/../../misc/lv_color.h **** #endif
  86:Drivers/lvgl/src/draw/sw/../../misc/lv_color.h **** #endif
  87:Drivers/lvgl/src/draw/sw/../../misc/lv_color.h **** #endif /*__cplusplus*/
  88:Drivers/lvgl/src/draw/sw/../../misc/lv_color.h **** 
  89:Drivers/lvgl/src/draw/sw/../../misc/lv_color.h **** #ifndef _LV_COLOR_HAS_MODERN_CPP
  90:Drivers/lvgl/src/draw/sw/../../misc/lv_color.h **** #define _LV_COLOR_HAS_MODERN_CPP 0
  91:Drivers/lvgl/src/draw/sw/../../misc/lv_color.h **** #endif
  92:Drivers/lvgl/src/draw/sw/../../misc/lv_color.h **** 
ARM GAS  /var/folders/0z/tsy30v1j4xl4_7kw94k978ww0000gn/T//ccAYAUvH.s 			page 63


  93:Drivers/lvgl/src/draw/sw/../../misc/lv_color.h **** #if _LV_COLOR_HAS_MODERN_CPP
  94:Drivers/lvgl/src/draw/sw/../../misc/lv_color.h **** /*Fix msvc compiler error C4576 inside C++ code*/
  95:Drivers/lvgl/src/draw/sw/../../misc/lv_color.h **** #define _LV_COLOR_MAKE_TYPE_HELPER lv_color_t
  96:Drivers/lvgl/src/draw/sw/../../misc/lv_color.h **** #else
  97:Drivers/lvgl/src/draw/sw/../../misc/lv_color.h **** #define _LV_COLOR_MAKE_TYPE_HELPER (lv_color_t)
  98:Drivers/lvgl/src/draw/sw/../../misc/lv_color.h **** #endif
  99:Drivers/lvgl/src/draw/sw/../../misc/lv_color.h **** 
 100:Drivers/lvgl/src/draw/sw/../../misc/lv_color.h **** /*---------------------------------------
 101:Drivers/lvgl/src/draw/sw/../../misc/lv_color.h ****  * Macros for all existing color depths
 102:Drivers/lvgl/src/draw/sw/../../misc/lv_color.h ****  * to set/get values of the color channels
 103:Drivers/lvgl/src/draw/sw/../../misc/lv_color.h ****  *------------------------------------------*/
 104:Drivers/lvgl/src/draw/sw/../../misc/lv_color.h **** # define LV_COLOR_SET_R1(c, v) (c).ch.red = (uint8_t)((v) & 0x1)
 105:Drivers/lvgl/src/draw/sw/../../misc/lv_color.h **** # define LV_COLOR_SET_G1(c, v) (c).ch.green = (uint8_t)((v) & 0x1)
 106:Drivers/lvgl/src/draw/sw/../../misc/lv_color.h **** # define LV_COLOR_SET_B1(c, v) (c).ch.blue = (uint8_t)((v) & 0x1)
 107:Drivers/lvgl/src/draw/sw/../../misc/lv_color.h **** # define LV_COLOR_SET_A1(c, v) do {} while(0)
 108:Drivers/lvgl/src/draw/sw/../../misc/lv_color.h **** 
 109:Drivers/lvgl/src/draw/sw/../../misc/lv_color.h **** # define LV_COLOR_GET_R1(c) (c).ch.red
 110:Drivers/lvgl/src/draw/sw/../../misc/lv_color.h **** # define LV_COLOR_GET_G1(c) (c).ch.green
 111:Drivers/lvgl/src/draw/sw/../../misc/lv_color.h **** # define LV_COLOR_GET_B1(c) (c).ch.blue
 112:Drivers/lvgl/src/draw/sw/../../misc/lv_color.h **** # define LV_COLOR_GET_A1(c) 0xFF
 113:Drivers/lvgl/src/draw/sw/../../misc/lv_color.h **** 
 114:Drivers/lvgl/src/draw/sw/../../misc/lv_color.h **** # define _LV_COLOR_ZERO_INITIALIZER1 {0x00}
 115:Drivers/lvgl/src/draw/sw/../../misc/lv_color.h **** # define LV_COLOR_MAKE1(r8, g8, b8)  {(uint8_t)((b8 >> 7) | (g8 >> 7) | (r8 >> 7))}
 116:Drivers/lvgl/src/draw/sw/../../misc/lv_color.h **** 
 117:Drivers/lvgl/src/draw/sw/../../misc/lv_color.h **** # define LV_COLOR_SET_R8(c, v) (c).ch.red = (uint8_t)((v) & 0x7U)
 118:Drivers/lvgl/src/draw/sw/../../misc/lv_color.h **** # define LV_COLOR_SET_G8(c, v) (c).ch.green = (uint8_t)((v) & 0x7U)
 119:Drivers/lvgl/src/draw/sw/../../misc/lv_color.h **** # define LV_COLOR_SET_B8(c, v) (c).ch.blue = (uint8_t)((v) & 0x3U)
 120:Drivers/lvgl/src/draw/sw/../../misc/lv_color.h **** # define LV_COLOR_SET_A8(c, v) do {} while(0)
 121:Drivers/lvgl/src/draw/sw/../../misc/lv_color.h **** 
 122:Drivers/lvgl/src/draw/sw/../../misc/lv_color.h **** # define LV_COLOR_GET_R8(c) (c).ch.red
 123:Drivers/lvgl/src/draw/sw/../../misc/lv_color.h **** # define LV_COLOR_GET_G8(c) (c).ch.green
 124:Drivers/lvgl/src/draw/sw/../../misc/lv_color.h **** # define LV_COLOR_GET_B8(c) (c).ch.blue
 125:Drivers/lvgl/src/draw/sw/../../misc/lv_color.h **** # define LV_COLOR_GET_A8(c) 0xFF
 126:Drivers/lvgl/src/draw/sw/../../misc/lv_color.h **** 
 127:Drivers/lvgl/src/draw/sw/../../misc/lv_color.h **** # define _LV_COLOR_ZERO_INITIALIZER8 {{0x00, 0x00, 0x00}}
 128:Drivers/lvgl/src/draw/sw/../../misc/lv_color.h **** # define LV_COLOR_MAKE8(r8, g8, b8) {{(uint8_t)((b8 >> 6) & 0x3U), (uint8_t)((g8 >> 5) & 0x7U), (ui
 129:Drivers/lvgl/src/draw/sw/../../misc/lv_color.h **** 
 130:Drivers/lvgl/src/draw/sw/../../misc/lv_color.h **** # define LV_COLOR_SET_R16(c, v) (c).ch.red = (uint8_t)((v) & 0x1FU)
 131:Drivers/lvgl/src/draw/sw/../../misc/lv_color.h **** #if LV_COLOR_16_SWAP == 0
 132:Drivers/lvgl/src/draw/sw/../../misc/lv_color.h **** # define LV_COLOR_SET_G16(c, v) (c).ch.green = (uint8_t)((v) & 0x3FU)
 133:Drivers/lvgl/src/draw/sw/../../misc/lv_color.h **** #else
 134:Drivers/lvgl/src/draw/sw/../../misc/lv_color.h **** # define LV_COLOR_SET_G16(c, v) {(c).ch.green_h = (uint8_t)(((v) >> 3) & 0x7); (c).ch.green_l = (ui
 135:Drivers/lvgl/src/draw/sw/../../misc/lv_color.h **** #endif
 136:Drivers/lvgl/src/draw/sw/../../misc/lv_color.h **** # define LV_COLOR_SET_B16(c, v) (c).ch.blue = (uint8_t)((v) & 0x1FU)
 137:Drivers/lvgl/src/draw/sw/../../misc/lv_color.h **** # define LV_COLOR_SET_A16(c, v) do {} while(0)
 138:Drivers/lvgl/src/draw/sw/../../misc/lv_color.h **** 
 139:Drivers/lvgl/src/draw/sw/../../misc/lv_color.h **** # define LV_COLOR_GET_R16(c) (c).ch.red
 140:Drivers/lvgl/src/draw/sw/../../misc/lv_color.h **** #if LV_COLOR_16_SWAP == 0
 141:Drivers/lvgl/src/draw/sw/../../misc/lv_color.h **** # define LV_COLOR_GET_G16(c) (c).ch.green
 142:Drivers/lvgl/src/draw/sw/../../misc/lv_color.h **** #else
 143:Drivers/lvgl/src/draw/sw/../../misc/lv_color.h **** # define LV_COLOR_GET_G16(c) (((c).ch.green_h << 3) + (c).ch.green_l)
 144:Drivers/lvgl/src/draw/sw/../../misc/lv_color.h **** #endif
 145:Drivers/lvgl/src/draw/sw/../../misc/lv_color.h **** # define LV_COLOR_GET_B16(c) (c).ch.blue
 146:Drivers/lvgl/src/draw/sw/../../misc/lv_color.h **** # define LV_COLOR_GET_A16(c) 0xFF
 147:Drivers/lvgl/src/draw/sw/../../misc/lv_color.h **** 
 148:Drivers/lvgl/src/draw/sw/../../misc/lv_color.h **** #if LV_COLOR_16_SWAP == 0
 149:Drivers/lvgl/src/draw/sw/../../misc/lv_color.h **** # define _LV_COLOR_ZERO_INITIALIZER16  {{0x00, 0x00, 0x00}}
ARM GAS  /var/folders/0z/tsy30v1j4xl4_7kw94k978ww0000gn/T//ccAYAUvH.s 			page 64


 150:Drivers/lvgl/src/draw/sw/../../misc/lv_color.h **** # define LV_COLOR_MAKE16(r8, g8, b8) {{(uint8_t)((b8 >> 3) & 0x1FU), (uint8_t)((g8 >> 2) & 0x3FU), 
 151:Drivers/lvgl/src/draw/sw/../../misc/lv_color.h **** #else
 152:Drivers/lvgl/src/draw/sw/../../misc/lv_color.h **** # define _LV_COLOR_ZERO_INITIALIZER16 {{0x00, 0x00, 0x00, 0x00}}
 153:Drivers/lvgl/src/draw/sw/../../misc/lv_color.h **** # define LV_COLOR_MAKE16(r8, g8, b8) {{(uint8_t)((g8 >> 5) & 0x7U), (uint8_t)((r8 >> 3) & 0x1FU), (
 154:Drivers/lvgl/src/draw/sw/../../misc/lv_color.h **** #endif
 155:Drivers/lvgl/src/draw/sw/../../misc/lv_color.h **** 
 156:Drivers/lvgl/src/draw/sw/../../misc/lv_color.h **** # define LV_COLOR_SET_R32(c, v) (c).ch.red = (uint8_t)((v) & 0xFF)
 157:Drivers/lvgl/src/draw/sw/../../misc/lv_color.h **** # define LV_COLOR_SET_G32(c, v) (c).ch.green = (uint8_t)((v) & 0xFF)
 158:Drivers/lvgl/src/draw/sw/../../misc/lv_color.h **** # define LV_COLOR_SET_B32(c, v) (c).ch.blue = (uint8_t)((v) & 0xFF)
 159:Drivers/lvgl/src/draw/sw/../../misc/lv_color.h **** # define LV_COLOR_SET_A32(c, v) (c).ch.alpha = (uint8_t)((v) & 0xFF)
 160:Drivers/lvgl/src/draw/sw/../../misc/lv_color.h **** 
 161:Drivers/lvgl/src/draw/sw/../../misc/lv_color.h **** # define LV_COLOR_GET_R32(c) (c).ch.red
 162:Drivers/lvgl/src/draw/sw/../../misc/lv_color.h **** # define LV_COLOR_GET_G32(c) (c).ch.green
 163:Drivers/lvgl/src/draw/sw/../../misc/lv_color.h **** # define LV_COLOR_GET_B32(c) (c).ch.blue
 164:Drivers/lvgl/src/draw/sw/../../misc/lv_color.h **** # define LV_COLOR_GET_A32(c) (c).ch.alpha
 165:Drivers/lvgl/src/draw/sw/../../misc/lv_color.h **** 
 166:Drivers/lvgl/src/draw/sw/../../misc/lv_color.h **** # define _LV_COLOR_ZERO_INITIALIZER32  {{0x00, 0x00, 0x00, 0x00}}
 167:Drivers/lvgl/src/draw/sw/../../misc/lv_color.h **** # define LV_COLOR_MAKE32(r8, g8, b8) {{b8, g8, r8, 0xff}} /*Fix 0xff alpha*/
 168:Drivers/lvgl/src/draw/sw/../../misc/lv_color.h **** 
 169:Drivers/lvgl/src/draw/sw/../../misc/lv_color.h **** /*---------------------------------------
 170:Drivers/lvgl/src/draw/sw/../../misc/lv_color.h ****  * Macros for the current color depth
 171:Drivers/lvgl/src/draw/sw/../../misc/lv_color.h ****  * to set/get values of the color channels
 172:Drivers/lvgl/src/draw/sw/../../misc/lv_color.h ****  *------------------------------------------*/
 173:Drivers/lvgl/src/draw/sw/../../misc/lv_color.h **** #define LV_COLOR_SET_R(c, v) LV_CONCAT(LV_COLOR_SET_R, LV_COLOR_DEPTH)(c, v)
 174:Drivers/lvgl/src/draw/sw/../../misc/lv_color.h **** #define LV_COLOR_SET_G(c, v) LV_CONCAT(LV_COLOR_SET_G, LV_COLOR_DEPTH)(c, v)
 175:Drivers/lvgl/src/draw/sw/../../misc/lv_color.h **** #define LV_COLOR_SET_B(c, v) LV_CONCAT(LV_COLOR_SET_B, LV_COLOR_DEPTH)(c, v)
 176:Drivers/lvgl/src/draw/sw/../../misc/lv_color.h **** #define LV_COLOR_SET_A(c, v) LV_CONCAT(LV_COLOR_SET_A, LV_COLOR_DEPTH)(c, v)
 177:Drivers/lvgl/src/draw/sw/../../misc/lv_color.h **** 
 178:Drivers/lvgl/src/draw/sw/../../misc/lv_color.h **** #define LV_COLOR_GET_R(c) LV_CONCAT(LV_COLOR_GET_R, LV_COLOR_DEPTH)(c)
 179:Drivers/lvgl/src/draw/sw/../../misc/lv_color.h **** #define LV_COLOR_GET_G(c) LV_CONCAT(LV_COLOR_GET_G, LV_COLOR_DEPTH)(c)
 180:Drivers/lvgl/src/draw/sw/../../misc/lv_color.h **** #define LV_COLOR_GET_B(c) LV_CONCAT(LV_COLOR_GET_B, LV_COLOR_DEPTH)(c)
 181:Drivers/lvgl/src/draw/sw/../../misc/lv_color.h **** #define LV_COLOR_GET_A(c) LV_CONCAT(LV_COLOR_GET_A, LV_COLOR_DEPTH)(c)
 182:Drivers/lvgl/src/draw/sw/../../misc/lv_color.h **** 
 183:Drivers/lvgl/src/draw/sw/../../misc/lv_color.h **** #define _LV_COLOR_ZERO_INITIALIZER LV_CONCAT(_LV_COLOR_ZERO_INITIALIZER, LV_COLOR_DEPTH)
 184:Drivers/lvgl/src/draw/sw/../../misc/lv_color.h **** #define LV_COLOR_MAKE(r8, g8, b8) LV_CONCAT(LV_COLOR_MAKE, LV_COLOR_DEPTH)(r8, g8, b8)
 185:Drivers/lvgl/src/draw/sw/../../misc/lv_color.h **** 
 186:Drivers/lvgl/src/draw/sw/../../misc/lv_color.h **** /**********************
 187:Drivers/lvgl/src/draw/sw/../../misc/lv_color.h ****  *      TYPEDEFS
 188:Drivers/lvgl/src/draw/sw/../../misc/lv_color.h ****  **********************/
 189:Drivers/lvgl/src/draw/sw/../../misc/lv_color.h **** 
 190:Drivers/lvgl/src/draw/sw/../../misc/lv_color.h **** typedef union {
 191:Drivers/lvgl/src/draw/sw/../../misc/lv_color.h ****     uint8_t full; /*must be declared first to set all bits of byte via initializer list*/
 192:Drivers/lvgl/src/draw/sw/../../misc/lv_color.h ****     union {
 193:Drivers/lvgl/src/draw/sw/../../misc/lv_color.h ****         uint8_t blue : 1;
 194:Drivers/lvgl/src/draw/sw/../../misc/lv_color.h ****         uint8_t green : 1;
 195:Drivers/lvgl/src/draw/sw/../../misc/lv_color.h ****         uint8_t red : 1;
 196:Drivers/lvgl/src/draw/sw/../../misc/lv_color.h ****     } ch;
 197:Drivers/lvgl/src/draw/sw/../../misc/lv_color.h **** } lv_color1_t;
 198:Drivers/lvgl/src/draw/sw/../../misc/lv_color.h **** 
 199:Drivers/lvgl/src/draw/sw/../../misc/lv_color.h **** typedef union {
 200:Drivers/lvgl/src/draw/sw/../../misc/lv_color.h ****     struct {
 201:Drivers/lvgl/src/draw/sw/../../misc/lv_color.h ****         uint8_t blue : 2;
 202:Drivers/lvgl/src/draw/sw/../../misc/lv_color.h ****         uint8_t green : 3;
 203:Drivers/lvgl/src/draw/sw/../../misc/lv_color.h ****         uint8_t red : 3;
 204:Drivers/lvgl/src/draw/sw/../../misc/lv_color.h ****     } ch;
 205:Drivers/lvgl/src/draw/sw/../../misc/lv_color.h ****     uint8_t full;
 206:Drivers/lvgl/src/draw/sw/../../misc/lv_color.h **** } lv_color8_t;
ARM GAS  /var/folders/0z/tsy30v1j4xl4_7kw94k978ww0000gn/T//ccAYAUvH.s 			page 65


 207:Drivers/lvgl/src/draw/sw/../../misc/lv_color.h **** 
 208:Drivers/lvgl/src/draw/sw/../../misc/lv_color.h **** typedef union {
 209:Drivers/lvgl/src/draw/sw/../../misc/lv_color.h ****     struct {
 210:Drivers/lvgl/src/draw/sw/../../misc/lv_color.h **** #if LV_COLOR_16_SWAP == 0
 211:Drivers/lvgl/src/draw/sw/../../misc/lv_color.h ****         uint16_t blue : 5;
 212:Drivers/lvgl/src/draw/sw/../../misc/lv_color.h ****         uint16_t green : 6;
 213:Drivers/lvgl/src/draw/sw/../../misc/lv_color.h ****         uint16_t red : 5;
 214:Drivers/lvgl/src/draw/sw/../../misc/lv_color.h **** #else
 215:Drivers/lvgl/src/draw/sw/../../misc/lv_color.h ****         uint16_t green_h : 3;
 216:Drivers/lvgl/src/draw/sw/../../misc/lv_color.h ****         uint16_t red : 5;
 217:Drivers/lvgl/src/draw/sw/../../misc/lv_color.h ****         uint16_t blue : 5;
 218:Drivers/lvgl/src/draw/sw/../../misc/lv_color.h ****         uint16_t green_l : 3;
 219:Drivers/lvgl/src/draw/sw/../../misc/lv_color.h **** #endif
 220:Drivers/lvgl/src/draw/sw/../../misc/lv_color.h ****     } ch;
 221:Drivers/lvgl/src/draw/sw/../../misc/lv_color.h ****     uint16_t full;
 222:Drivers/lvgl/src/draw/sw/../../misc/lv_color.h **** } lv_color16_t;
 223:Drivers/lvgl/src/draw/sw/../../misc/lv_color.h **** 
 224:Drivers/lvgl/src/draw/sw/../../misc/lv_color.h **** typedef union {
 225:Drivers/lvgl/src/draw/sw/../../misc/lv_color.h ****     struct {
 226:Drivers/lvgl/src/draw/sw/../../misc/lv_color.h ****         uint8_t blue;
 227:Drivers/lvgl/src/draw/sw/../../misc/lv_color.h ****         uint8_t green;
 228:Drivers/lvgl/src/draw/sw/../../misc/lv_color.h ****         uint8_t red;
 229:Drivers/lvgl/src/draw/sw/../../misc/lv_color.h ****         uint8_t alpha;
 230:Drivers/lvgl/src/draw/sw/../../misc/lv_color.h ****     } ch;
 231:Drivers/lvgl/src/draw/sw/../../misc/lv_color.h ****     uint32_t full;
 232:Drivers/lvgl/src/draw/sw/../../misc/lv_color.h **** } lv_color32_t;
 233:Drivers/lvgl/src/draw/sw/../../misc/lv_color.h **** 
 234:Drivers/lvgl/src/draw/sw/../../misc/lv_color.h **** typedef LV_CONCAT3(uint, LV_COLOR_SIZE, _t) lv_color_int_t;
 235:Drivers/lvgl/src/draw/sw/../../misc/lv_color.h **** typedef LV_CONCAT3(lv_color, LV_COLOR_DEPTH, _t) lv_color_t;
 236:Drivers/lvgl/src/draw/sw/../../misc/lv_color.h **** 
 237:Drivers/lvgl/src/draw/sw/../../misc/lv_color.h **** typedef struct {
 238:Drivers/lvgl/src/draw/sw/../../misc/lv_color.h ****     uint16_t h;
 239:Drivers/lvgl/src/draw/sw/../../misc/lv_color.h ****     uint8_t s;
 240:Drivers/lvgl/src/draw/sw/../../misc/lv_color.h ****     uint8_t v;
 241:Drivers/lvgl/src/draw/sw/../../misc/lv_color.h **** } lv_color_hsv_t;
 242:Drivers/lvgl/src/draw/sw/../../misc/lv_color.h **** 
 243:Drivers/lvgl/src/draw/sw/../../misc/lv_color.h **** //! @cond Doxygen_Suppress
 244:Drivers/lvgl/src/draw/sw/../../misc/lv_color.h **** /*No idea where the guard is required but else throws warnings in the docs*/
 245:Drivers/lvgl/src/draw/sw/../../misc/lv_color.h **** typedef uint8_t lv_opa_t;
 246:Drivers/lvgl/src/draw/sw/../../misc/lv_color.h **** //! @endcond
 247:Drivers/lvgl/src/draw/sw/../../misc/lv_color.h **** 
 248:Drivers/lvgl/src/draw/sw/../../misc/lv_color.h **** struct _lv_color_filter_dsc_t;
 249:Drivers/lvgl/src/draw/sw/../../misc/lv_color.h **** 
 250:Drivers/lvgl/src/draw/sw/../../misc/lv_color.h **** typedef lv_color_t (*lv_color_filter_cb_t)(const struct _lv_color_filter_dsc_t *, lv_color_t, lv_op
 251:Drivers/lvgl/src/draw/sw/../../misc/lv_color.h **** 
 252:Drivers/lvgl/src/draw/sw/../../misc/lv_color.h **** typedef struct _lv_color_filter_dsc_t {
 253:Drivers/lvgl/src/draw/sw/../../misc/lv_color.h ****     lv_color_filter_cb_t filter_cb;
 254:Drivers/lvgl/src/draw/sw/../../misc/lv_color.h ****     void * user_data;
 255:Drivers/lvgl/src/draw/sw/../../misc/lv_color.h **** } lv_color_filter_dsc_t;
 256:Drivers/lvgl/src/draw/sw/../../misc/lv_color.h **** 
 257:Drivers/lvgl/src/draw/sw/../../misc/lv_color.h **** 
 258:Drivers/lvgl/src/draw/sw/../../misc/lv_color.h **** typedef enum {
 259:Drivers/lvgl/src/draw/sw/../../misc/lv_color.h ****     LV_PALETTE_RED,
 260:Drivers/lvgl/src/draw/sw/../../misc/lv_color.h ****     LV_PALETTE_PINK,
 261:Drivers/lvgl/src/draw/sw/../../misc/lv_color.h ****     LV_PALETTE_PURPLE,
 262:Drivers/lvgl/src/draw/sw/../../misc/lv_color.h ****     LV_PALETTE_DEEP_PURPLE,
 263:Drivers/lvgl/src/draw/sw/../../misc/lv_color.h ****     LV_PALETTE_INDIGO,
ARM GAS  /var/folders/0z/tsy30v1j4xl4_7kw94k978ww0000gn/T//ccAYAUvH.s 			page 66


 264:Drivers/lvgl/src/draw/sw/../../misc/lv_color.h ****     LV_PALETTE_BLUE,
 265:Drivers/lvgl/src/draw/sw/../../misc/lv_color.h ****     LV_PALETTE_LIGHT_BLUE,
 266:Drivers/lvgl/src/draw/sw/../../misc/lv_color.h ****     LV_PALETTE_CYAN,
 267:Drivers/lvgl/src/draw/sw/../../misc/lv_color.h ****     LV_PALETTE_TEAL,
 268:Drivers/lvgl/src/draw/sw/../../misc/lv_color.h ****     LV_PALETTE_GREEN,
 269:Drivers/lvgl/src/draw/sw/../../misc/lv_color.h ****     LV_PALETTE_LIGHT_GREEN,
 270:Drivers/lvgl/src/draw/sw/../../misc/lv_color.h ****     LV_PALETTE_LIME,
 271:Drivers/lvgl/src/draw/sw/../../misc/lv_color.h ****     LV_PALETTE_YELLOW,
 272:Drivers/lvgl/src/draw/sw/../../misc/lv_color.h ****     LV_PALETTE_AMBER,
 273:Drivers/lvgl/src/draw/sw/../../misc/lv_color.h ****     LV_PALETTE_ORANGE,
 274:Drivers/lvgl/src/draw/sw/../../misc/lv_color.h ****     LV_PALETTE_DEEP_ORANGE,
 275:Drivers/lvgl/src/draw/sw/../../misc/lv_color.h ****     LV_PALETTE_BROWN,
 276:Drivers/lvgl/src/draw/sw/../../misc/lv_color.h ****     LV_PALETTE_BLUE_GREY,
 277:Drivers/lvgl/src/draw/sw/../../misc/lv_color.h ****     LV_PALETTE_GREY,
 278:Drivers/lvgl/src/draw/sw/../../misc/lv_color.h ****     _LV_PALETTE_LAST,
 279:Drivers/lvgl/src/draw/sw/../../misc/lv_color.h ****     LV_PALETTE_NONE = 0xff,
 280:Drivers/lvgl/src/draw/sw/../../misc/lv_color.h **** } lv_palette_t;
 281:Drivers/lvgl/src/draw/sw/../../misc/lv_color.h **** 
 282:Drivers/lvgl/src/draw/sw/../../misc/lv_color.h **** /**********************
 283:Drivers/lvgl/src/draw/sw/../../misc/lv_color.h ****  * GLOBAL PROTOTYPES
 284:Drivers/lvgl/src/draw/sw/../../misc/lv_color.h ****  **********************/
 285:Drivers/lvgl/src/draw/sw/../../misc/lv_color.h **** 
 286:Drivers/lvgl/src/draw/sw/../../misc/lv_color.h **** /*In color conversations:
 287:Drivers/lvgl/src/draw/sw/../../misc/lv_color.h ****  * - When converting to bigger color type the LSB weight of 1 LSB is calculated
 288:Drivers/lvgl/src/draw/sw/../../misc/lv_color.h ****  *   E.g. 16 bit Red has 5 bits
 289:Drivers/lvgl/src/draw/sw/../../misc/lv_color.h ****  *         8 bit Red has 3 bits
 290:Drivers/lvgl/src/draw/sw/../../misc/lv_color.h ****  *        ----------------------
 291:Drivers/lvgl/src/draw/sw/../../misc/lv_color.h ****  *        8 bit red LSB = (2^5 - 1) / (2^3 - 1) = 31 / 7 = 4
 292:Drivers/lvgl/src/draw/sw/../../misc/lv_color.h ****  *
 293:Drivers/lvgl/src/draw/sw/../../misc/lv_color.h ****  * - When calculating to smaller color type simply shift out the LSBs
 294:Drivers/lvgl/src/draw/sw/../../misc/lv_color.h ****  *   E.g.  8 bit Red has 3 bits
 295:Drivers/lvgl/src/draw/sw/../../misc/lv_color.h ****  *        16 bit Red has 5 bits
 296:Drivers/lvgl/src/draw/sw/../../misc/lv_color.h ****  *        ----------------------
 297:Drivers/lvgl/src/draw/sw/../../misc/lv_color.h ****  *         Shift right with 5 - 3 = 2
 298:Drivers/lvgl/src/draw/sw/../../misc/lv_color.h ****  */
 299:Drivers/lvgl/src/draw/sw/../../misc/lv_color.h **** static inline uint8_t lv_color_to1(lv_color_t color)
 300:Drivers/lvgl/src/draw/sw/../../misc/lv_color.h **** {
 301:Drivers/lvgl/src/draw/sw/../../misc/lv_color.h **** #if LV_COLOR_DEPTH == 1
 302:Drivers/lvgl/src/draw/sw/../../misc/lv_color.h ****     return color.full;
 303:Drivers/lvgl/src/draw/sw/../../misc/lv_color.h **** #elif LV_COLOR_DEPTH == 8
 304:Drivers/lvgl/src/draw/sw/../../misc/lv_color.h ****     if((LV_COLOR_GET_R(color) & 0x4) || (LV_COLOR_GET_G(color) & 0x4) || (LV_COLOR_GET_B(color) & 0
 305:Drivers/lvgl/src/draw/sw/../../misc/lv_color.h ****         return 1;
 306:Drivers/lvgl/src/draw/sw/../../misc/lv_color.h ****     }
 307:Drivers/lvgl/src/draw/sw/../../misc/lv_color.h ****     else {
 308:Drivers/lvgl/src/draw/sw/../../misc/lv_color.h ****         return 0;
 309:Drivers/lvgl/src/draw/sw/../../misc/lv_color.h ****     }
 310:Drivers/lvgl/src/draw/sw/../../misc/lv_color.h **** #elif LV_COLOR_DEPTH == 16
 311:Drivers/lvgl/src/draw/sw/../../misc/lv_color.h ****     if((LV_COLOR_GET_R(color) & 0x10) || (LV_COLOR_GET_G(color) & 0x20) || (LV_COLOR_GET_B(color) &
 312:Drivers/lvgl/src/draw/sw/../../misc/lv_color.h ****         return 1;
 313:Drivers/lvgl/src/draw/sw/../../misc/lv_color.h ****     }
 314:Drivers/lvgl/src/draw/sw/../../misc/lv_color.h ****     else {
 315:Drivers/lvgl/src/draw/sw/../../misc/lv_color.h ****         return 0;
 316:Drivers/lvgl/src/draw/sw/../../misc/lv_color.h ****     }
 317:Drivers/lvgl/src/draw/sw/../../misc/lv_color.h **** #elif LV_COLOR_DEPTH == 32
 318:Drivers/lvgl/src/draw/sw/../../misc/lv_color.h ****     if((LV_COLOR_GET_R(color) & 0x80) || (LV_COLOR_GET_G(color) & 0x80) || (LV_COLOR_GET_B(color) &
 319:Drivers/lvgl/src/draw/sw/../../misc/lv_color.h ****         return 1;
 320:Drivers/lvgl/src/draw/sw/../../misc/lv_color.h ****     }
ARM GAS  /var/folders/0z/tsy30v1j4xl4_7kw94k978ww0000gn/T//ccAYAUvH.s 			page 67


 321:Drivers/lvgl/src/draw/sw/../../misc/lv_color.h ****     else {
 322:Drivers/lvgl/src/draw/sw/../../misc/lv_color.h ****         return 0;
 323:Drivers/lvgl/src/draw/sw/../../misc/lv_color.h ****     }
 324:Drivers/lvgl/src/draw/sw/../../misc/lv_color.h **** #endif
 325:Drivers/lvgl/src/draw/sw/../../misc/lv_color.h **** }
 326:Drivers/lvgl/src/draw/sw/../../misc/lv_color.h **** 
 327:Drivers/lvgl/src/draw/sw/../../misc/lv_color.h **** static inline uint8_t lv_color_to8(lv_color_t color)
 328:Drivers/lvgl/src/draw/sw/../../misc/lv_color.h **** {
 329:Drivers/lvgl/src/draw/sw/../../misc/lv_color.h **** #if LV_COLOR_DEPTH == 1
 330:Drivers/lvgl/src/draw/sw/../../misc/lv_color.h ****     if(color.full == 0)
 331:Drivers/lvgl/src/draw/sw/../../misc/lv_color.h ****         return 0;
 332:Drivers/lvgl/src/draw/sw/../../misc/lv_color.h ****     else
 333:Drivers/lvgl/src/draw/sw/../../misc/lv_color.h ****         return 0xFF;
 334:Drivers/lvgl/src/draw/sw/../../misc/lv_color.h **** #elif LV_COLOR_DEPTH == 8
 335:Drivers/lvgl/src/draw/sw/../../misc/lv_color.h ****     return color.full;
 336:Drivers/lvgl/src/draw/sw/../../misc/lv_color.h **** #elif LV_COLOR_DEPTH == 16
 337:Drivers/lvgl/src/draw/sw/../../misc/lv_color.h ****     lv_color8_t ret;
 338:Drivers/lvgl/src/draw/sw/../../misc/lv_color.h ****     LV_COLOR_SET_R8(ret, LV_COLOR_GET_R(color) >> 2); /*5 - 3  = 2*/
 339:Drivers/lvgl/src/draw/sw/../../misc/lv_color.h ****     LV_COLOR_SET_G8(ret, LV_COLOR_GET_G(color) >> 3); /*6 - 3  = 3*/
 340:Drivers/lvgl/src/draw/sw/../../misc/lv_color.h ****     LV_COLOR_SET_B8(ret, LV_COLOR_GET_B(color) >> 3); /*5 - 2  = 3*/
 341:Drivers/lvgl/src/draw/sw/../../misc/lv_color.h ****     return ret.full;
 342:Drivers/lvgl/src/draw/sw/../../misc/lv_color.h **** #elif LV_COLOR_DEPTH == 32
 343:Drivers/lvgl/src/draw/sw/../../misc/lv_color.h ****     lv_color8_t ret;
 344:Drivers/lvgl/src/draw/sw/../../misc/lv_color.h ****     LV_COLOR_SET_R8(ret, LV_COLOR_GET_R(color) >> 5); /*8 - 3  = 5*/
 345:Drivers/lvgl/src/draw/sw/../../misc/lv_color.h ****     LV_COLOR_SET_G8(ret, LV_COLOR_GET_G(color) >> 5); /*8 - 3  = 5*/
 346:Drivers/lvgl/src/draw/sw/../../misc/lv_color.h ****     LV_COLOR_SET_B8(ret, LV_COLOR_GET_B(color) >> 6); /*8 - 2  = 6*/
 347:Drivers/lvgl/src/draw/sw/../../misc/lv_color.h ****     return ret.full;
 348:Drivers/lvgl/src/draw/sw/../../misc/lv_color.h **** #endif
 349:Drivers/lvgl/src/draw/sw/../../misc/lv_color.h **** }
 350:Drivers/lvgl/src/draw/sw/../../misc/lv_color.h **** 
 351:Drivers/lvgl/src/draw/sw/../../misc/lv_color.h **** static inline uint16_t lv_color_to16(lv_color_t color)
 352:Drivers/lvgl/src/draw/sw/../../misc/lv_color.h **** {
 353:Drivers/lvgl/src/draw/sw/../../misc/lv_color.h **** #if LV_COLOR_DEPTH == 1
 354:Drivers/lvgl/src/draw/sw/../../misc/lv_color.h ****     if(color.full == 0)
 355:Drivers/lvgl/src/draw/sw/../../misc/lv_color.h ****         return 0;
 356:Drivers/lvgl/src/draw/sw/../../misc/lv_color.h ****     else
 357:Drivers/lvgl/src/draw/sw/../../misc/lv_color.h ****         return 0xFFFF;
 358:Drivers/lvgl/src/draw/sw/../../misc/lv_color.h **** #elif LV_COLOR_DEPTH == 8
 359:Drivers/lvgl/src/draw/sw/../../misc/lv_color.h ****     lv_color16_t ret;
 360:Drivers/lvgl/src/draw/sw/../../misc/lv_color.h ****     LV_COLOR_SET_R16(ret, LV_COLOR_GET_R(color) * 4);  /*(2^5 - 1)/(2^3 - 1) = 31/7 = 4*/
 361:Drivers/lvgl/src/draw/sw/../../misc/lv_color.h ****     LV_COLOR_SET_G16(ret, LV_COLOR_GET_G(color) * 9);  /*(2^6 - 1)/(2^3 - 1) = 63/7 = 9*/
 362:Drivers/lvgl/src/draw/sw/../../misc/lv_color.h ****     LV_COLOR_SET_B16(ret, LV_COLOR_GET_B(color) * 10); /*(2^5 - 1)/(2^2 - 1) = 31/3 = 10*/
 363:Drivers/lvgl/src/draw/sw/../../misc/lv_color.h ****     return ret.full;
 364:Drivers/lvgl/src/draw/sw/../../misc/lv_color.h **** #elif LV_COLOR_DEPTH == 16
 365:Drivers/lvgl/src/draw/sw/../../misc/lv_color.h ****     return color.full;
 366:Drivers/lvgl/src/draw/sw/../../misc/lv_color.h **** #elif LV_COLOR_DEPTH == 32
 367:Drivers/lvgl/src/draw/sw/../../misc/lv_color.h ****     lv_color16_t ret;
 368:Drivers/lvgl/src/draw/sw/../../misc/lv_color.h ****     LV_COLOR_SET_R16(ret, LV_COLOR_GET_R(color) >> 3); /*8 - 5  = 3*/
 369:Drivers/lvgl/src/draw/sw/../../misc/lv_color.h ****     LV_COLOR_SET_G16(ret, LV_COLOR_GET_G(color) >> 2); /*8 - 6  = 2*/
 370:Drivers/lvgl/src/draw/sw/../../misc/lv_color.h ****     LV_COLOR_SET_B16(ret, LV_COLOR_GET_B(color) >> 3); /*8 - 5  = 3*/
 371:Drivers/lvgl/src/draw/sw/../../misc/lv_color.h ****     return ret.full;
 372:Drivers/lvgl/src/draw/sw/../../misc/lv_color.h **** #endif
 373:Drivers/lvgl/src/draw/sw/../../misc/lv_color.h **** }
 374:Drivers/lvgl/src/draw/sw/../../misc/lv_color.h **** 
 375:Drivers/lvgl/src/draw/sw/../../misc/lv_color.h **** static inline uint32_t lv_color_to32(lv_color_t color)
 376:Drivers/lvgl/src/draw/sw/../../misc/lv_color.h **** {
 377:Drivers/lvgl/src/draw/sw/../../misc/lv_color.h **** #if LV_COLOR_DEPTH == 1
ARM GAS  /var/folders/0z/tsy30v1j4xl4_7kw94k978ww0000gn/T//ccAYAUvH.s 			page 68


 378:Drivers/lvgl/src/draw/sw/../../misc/lv_color.h ****     if(color.full == 0)
 379:Drivers/lvgl/src/draw/sw/../../misc/lv_color.h ****         return 0xFF000000;
 380:Drivers/lvgl/src/draw/sw/../../misc/lv_color.h ****     else
 381:Drivers/lvgl/src/draw/sw/../../misc/lv_color.h ****         return 0xFFFFFFFF;
 382:Drivers/lvgl/src/draw/sw/../../misc/lv_color.h **** #elif LV_COLOR_DEPTH == 8
 383:Drivers/lvgl/src/draw/sw/../../misc/lv_color.h ****     lv_color32_t ret;
 384:Drivers/lvgl/src/draw/sw/../../misc/lv_color.h ****     LV_COLOR_SET_R32(ret, LV_COLOR_GET_R(color) * 36); /*(2^8 - 1)/(2^3 - 1) = 255/7 = 36*/
 385:Drivers/lvgl/src/draw/sw/../../misc/lv_color.h ****     LV_COLOR_SET_G32(ret, LV_COLOR_GET_G(color) * 36); /*(2^8 - 1)/(2^3 - 1) = 255/7 = 36*/
 386:Drivers/lvgl/src/draw/sw/../../misc/lv_color.h ****     LV_COLOR_SET_B32(ret, LV_COLOR_GET_B(color) * 85); /*(2^8 - 1)/(2^2 - 1) = 255/3 = 85*/
 387:Drivers/lvgl/src/draw/sw/../../misc/lv_color.h ****     LV_COLOR_SET_A32(ret, 0xFF);
 388:Drivers/lvgl/src/draw/sw/../../misc/lv_color.h ****     return ret.full;
 389:Drivers/lvgl/src/draw/sw/../../misc/lv_color.h **** #elif LV_COLOR_DEPTH == 16
 390:Drivers/lvgl/src/draw/sw/../../misc/lv_color.h ****     /**
 391:Drivers/lvgl/src/draw/sw/../../misc/lv_color.h ****      * The floating point math for conversion is:
 392:Drivers/lvgl/src/draw/sw/../../misc/lv_color.h ****      *  valueto = valuefrom * ( (2^bitsto - 1) / (float)(2^bitsfrom - 1) )
 393:Drivers/lvgl/src/draw/sw/../../misc/lv_color.h ****      * The faster integer math for conversion is:
 394:Drivers/lvgl/src/draw/sw/../../misc/lv_color.h ****      *  valueto = ( valuefrom * multiplier + adder ) >> divisor
 395:Drivers/lvgl/src/draw/sw/../../misc/lv_color.h ****      *   multiplier = FLOOR( ( (2^bitsto - 1) << divisor ) / (float)(2^bitsfrom - 1) )
 396:Drivers/lvgl/src/draw/sw/../../misc/lv_color.h ****      *
 397:Drivers/lvgl/src/draw/sw/../../misc/lv_color.h ****      * Find the first divisor where ( adder >> divisor ) <= 0
 398:Drivers/lvgl/src/draw/sw/../../misc/lv_color.h ****      *
 399:Drivers/lvgl/src/draw/sw/../../misc/lv_color.h ****      * 5-bit to 8-bit: ( 31 * multiplier + adder ) >> divisor = 255
 400:Drivers/lvgl/src/draw/sw/../../misc/lv_color.h ****      * divisor  multiplier  adder  min (0)  max (31)
 401:Drivers/lvgl/src/draw/sw/../../misc/lv_color.h ****      *       0           8      7        7       255
 402:Drivers/lvgl/src/draw/sw/../../misc/lv_color.h ****      *       1          16     14        7       255
 403:Drivers/lvgl/src/draw/sw/../../misc/lv_color.h ****      *       2          32     28        7       255
 404:Drivers/lvgl/src/draw/sw/../../misc/lv_color.h ****      *       3          65     25        3       255
 405:Drivers/lvgl/src/draw/sw/../../misc/lv_color.h ****      *       4         131     19        1       255
 406:Drivers/lvgl/src/draw/sw/../../misc/lv_color.h ****      *       5         263      7        0       255
 407:Drivers/lvgl/src/draw/sw/../../misc/lv_color.h ****      *
 408:Drivers/lvgl/src/draw/sw/../../misc/lv_color.h ****      * 6-bit to 8-bit: 255 = ( 63 * multiplier + adder ) >> divisor
 409:Drivers/lvgl/src/draw/sw/../../misc/lv_color.h ****      * divisor  multiplier  adder  min (0)  max (63)
 410:Drivers/lvgl/src/draw/sw/../../misc/lv_color.h ****      *       0           4      3        3       255
 411:Drivers/lvgl/src/draw/sw/../../misc/lv_color.h ****      *       1           8      6        3       255
 412:Drivers/lvgl/src/draw/sw/../../misc/lv_color.h ****      *       2          16     12        3       255
 413:Drivers/lvgl/src/draw/sw/../../misc/lv_color.h ****      *       3          32     24        3       255
 414:Drivers/lvgl/src/draw/sw/../../misc/lv_color.h ****      *       4          64     48        3       255
 415:Drivers/lvgl/src/draw/sw/../../misc/lv_color.h ****      *       5         129     33        1       255
 416:Drivers/lvgl/src/draw/sw/../../misc/lv_color.h ****      *       6         259      3        0       255
 417:Drivers/lvgl/src/draw/sw/../../misc/lv_color.h ****      */
 418:Drivers/lvgl/src/draw/sw/../../misc/lv_color.h **** 
 419:Drivers/lvgl/src/draw/sw/../../misc/lv_color.h ****     lv_color32_t ret;
 420:Drivers/lvgl/src/draw/sw/../../misc/lv_color.h ****     LV_COLOR_SET_R32(ret, (LV_COLOR_GET_R(color) * 263 + 7) >> 5);
 421:Drivers/lvgl/src/draw/sw/../../misc/lv_color.h ****     LV_COLOR_SET_G32(ret, (LV_COLOR_GET_G(color) * 259 + 3) >> 6);
 422:Drivers/lvgl/src/draw/sw/../../misc/lv_color.h ****     LV_COLOR_SET_B32(ret, (LV_COLOR_GET_B(color) * 263 + 7) >> 5);
 423:Drivers/lvgl/src/draw/sw/../../misc/lv_color.h ****     LV_COLOR_SET_A32(ret, 0xFF);
 424:Drivers/lvgl/src/draw/sw/../../misc/lv_color.h ****     return ret.full;
 425:Drivers/lvgl/src/draw/sw/../../misc/lv_color.h **** #elif LV_COLOR_DEPTH == 32
 426:Drivers/lvgl/src/draw/sw/../../misc/lv_color.h ****     return color.full;
 427:Drivers/lvgl/src/draw/sw/../../misc/lv_color.h **** #endif
 428:Drivers/lvgl/src/draw/sw/../../misc/lv_color.h **** }
 429:Drivers/lvgl/src/draw/sw/../../misc/lv_color.h **** 
 430:Drivers/lvgl/src/draw/sw/../../misc/lv_color.h **** //! @cond Doxygen_Suppress
 431:Drivers/lvgl/src/draw/sw/../../misc/lv_color.h **** 
 432:Drivers/lvgl/src/draw/sw/../../misc/lv_color.h **** /**
 433:Drivers/lvgl/src/draw/sw/../../misc/lv_color.h ****  * Mix two colors with a given ratio.
 434:Drivers/lvgl/src/draw/sw/../../misc/lv_color.h ****  * @param c1 the first color to mix (usually the foreground)
ARM GAS  /var/folders/0z/tsy30v1j4xl4_7kw94k978ww0000gn/T//ccAYAUvH.s 			page 69


 435:Drivers/lvgl/src/draw/sw/../../misc/lv_color.h ****  * @param c2 the second color to mix (usually the background)
 436:Drivers/lvgl/src/draw/sw/../../misc/lv_color.h ****  * @param mix The ratio of the colors. 0: full `c2`, 255: full `c1`, 127: half `c1` and half`c2`
 437:Drivers/lvgl/src/draw/sw/../../misc/lv_color.h ****  * @return the mixed color
 438:Drivers/lvgl/src/draw/sw/../../misc/lv_color.h ****  */
 439:Drivers/lvgl/src/draw/sw/../../misc/lv_color.h **** static inline lv_color_t LV_ATTRIBUTE_FAST_MEM lv_color_mix(lv_color_t c1, lv_color_t c2, uint8_t m
 2170              		.loc 3 439 48 view .LVU720
 2171              	.LBB84:
 440:Drivers/lvgl/src/draw/sw/../../misc/lv_color.h **** {
 441:Drivers/lvgl/src/draw/sw/../../misc/lv_color.h ****     lv_color_t ret;
 2172              		.loc 3 441 5 view .LVU721
 442:Drivers/lvgl/src/draw/sw/../../misc/lv_color.h **** 
 443:Drivers/lvgl/src/draw/sw/../../misc/lv_color.h **** #if LV_COLOR_DEPTH == 16 && LV_COLOR_MIX_ROUND_OFS == 0
 444:Drivers/lvgl/src/draw/sw/../../misc/lv_color.h **** #if LV_COLOR_16_SWAP == 1
 445:Drivers/lvgl/src/draw/sw/../../misc/lv_color.h ****     c1.full = c1.full << 8 | c1.full >> 8;
 2173              		.loc 3 445 5 view .LVU722
 446:Drivers/lvgl/src/draw/sw/../../misc/lv_color.h ****     c2.full = c2.full << 8 | c2.full >> 8;
 2174              		.loc 3 446 5 view .LVU723
 447:Drivers/lvgl/src/draw/sw/../../misc/lv_color.h **** #endif
 448:Drivers/lvgl/src/draw/sw/../../misc/lv_color.h ****     /*Source: https://stackoverflow.com/a/50012418/1999969*/
 449:Drivers/lvgl/src/draw/sw/../../misc/lv_color.h ****     mix = (uint32_t)((uint32_t)mix + 4) >> 3;
 2175              		.loc 3 449 5 view .LVU724
 450:Drivers/lvgl/src/draw/sw/../../misc/lv_color.h ****     uint32_t bg = (uint32_t)((uint32_t)c2.full | ((uint32_t)c2.full << 16)) &
 2176              		.loc 3 450 5 view .LVU725
 2177              	.LBE84:
 2178              	.LBE83:
 2179              	.LBB97:
 2180              	.LBB98:
 451:Drivers/lvgl/src/draw/sw/../../misc/lv_color.h ****                   0x7E0F81F; /*0b00000111111000001111100000011111*/
 452:Drivers/lvgl/src/draw/sw/../../misc/lv_color.h ****     uint32_t fg = (uint32_t)((uint32_t)c1.full | ((uint32_t)c1.full << 16)) & 0x7E0F81F;
 2181              		.loc 3 452 30 is_stmt 0 view .LVU726
 2182 0782 47BA     		rev16	r7, r0
 449:Drivers/lvgl/src/draw/sw/../../misc/lv_color.h ****     uint32_t bg = (uint32_t)((uint32_t)c2.full | ((uint32_t)c2.full << 16)) &
 2183              		.loc 3 449 22 view .LVU727
 2184 0784 9DF86400 		ldrb	r0, [sp, #100]	@ zero_extendqisi2
 2185              	.LVL199:
 449:Drivers/lvgl/src/draw/sw/../../misc/lv_color.h ****     uint32_t bg = (uint32_t)((uint32_t)c2.full | ((uint32_t)c2.full << 16)) &
 2186              		.loc 3 449 22 view .LVU728
 2187              	.LBE98:
 2188              	.LBE97:
 2189              	.LBB112:
 2190              	.LBB85:
 2191 0788 9DF86860 		ldrb	r6, [sp, #104]	@ zero_extendqisi2
 450:Drivers/lvgl/src/draw/sw/../../misc/lv_color.h ****     uint32_t bg = (uint32_t)((uint32_t)c2.full | ((uint32_t)c2.full << 16)) &
 2192              		.loc 3 450 30 view .LVU729
 2193 078c 49BA     		rev16	r1, r1
 2194              	.LVL200:
 450:Drivers/lvgl/src/draw/sw/../../misc/lv_color.h ****     uint32_t bg = (uint32_t)((uint32_t)c2.full | ((uint32_t)c2.full << 16)) &
 2195              		.loc 3 450 30 view .LVU730
 2196              	.LBE85:
 2197              	.LBE112:
 2198              	.LBB113:
 2199              	.LBB99:
 449:Drivers/lvgl/src/draw/sw/../../misc/lv_color.h ****     uint32_t bg = (uint32_t)((uint32_t)c2.full | ((uint32_t)c2.full << 16)) &
 2200              		.loc 3 449 11 view .LVU731
 2201 078e 0430     		adds	r0, r0, #4
 2202              	.LBE99:
 2203              	.LBE113:
ARM GAS  /var/folders/0z/tsy30v1j4xl4_7kw94k978ww0000gn/T//ccAYAUvH.s 			page 70


 2204              	.LBB114:
 2205              	.LBB86:
 2206              		.loc 3 452 30 view .LVU732
 2207 0790 6DBA     		rev16	r5, r5
 2208              	.LVL201:
 2209              		.loc 3 452 30 view .LVU733
 2210              	.LBE86:
 2211              	.LBE114:
 2212              	.LBB115:
 2213              	.LBB100:
 449:Drivers/lvgl/src/draw/sw/../../misc/lv_color.h ****     uint32_t bg = (uint32_t)((uint32_t)c2.full | ((uint32_t)c2.full << 16)) &
 2214              		.loc 3 449 41 view .LVU734
 2215 0792 4FEAD008 		lsr	r8, r0, #3
 2216              	.LVL202:
 449:Drivers/lvgl/src/draw/sw/../../misc/lv_color.h ****     uint32_t bg = (uint32_t)((uint32_t)c2.full | ((uint32_t)c2.full << 16)) &
 2217              		.loc 3 449 41 view .LVU735
 2218              	.LBE100:
 2219              	.LBE115:
 2220              	.LBB116:
 2221              	.LBB87:
 450:Drivers/lvgl/src/draw/sw/../../misc/lv_color.h ****     uint32_t bg = (uint32_t)((uint32_t)c2.full | ((uint32_t)c2.full << 16)) &
 2222              		.loc 3 450 30 view .LVU736
 2223 0796 88B2     		uxth	r0, r1
 450:Drivers/lvgl/src/draw/sw/../../misc/lv_color.h ****     uint32_t bg = (uint32_t)((uint32_t)c2.full | ((uint32_t)c2.full << 16)) &
 2224              		.loc 3 450 19 view .LVU737
 2225 0798 40EA0140 		orr	r0, r0, r1, lsl #16
 2226              		.loc 3 452 30 view .LVU738
 2227 079c A9B2     		uxth	r1, r5
 2228              		.loc 3 452 19 view .LVU739
 2229 079e 41EA0541 		orr	r1, r1, r5, lsl #16
 2230              	.LBE87:
 2231              	.LBE116:
 2232              	.LBB117:
 2233              	.LBB101:
 2234              		.loc 3 452 30 view .LVU740
 2235 07a2 BDB2     		uxth	r5, r7
 2236              	.LBE101:
 2237              	.LBE117:
 2238              	.LBB118:
 2239              	.LBB88:
 450:Drivers/lvgl/src/draw/sw/../../misc/lv_color.h ****     uint32_t bg = (uint32_t)((uint32_t)c2.full | ((uint32_t)c2.full << 16)) &
 2240              		.loc 3 450 14 view .LVU741
 2241 07a4 20F07840 		bic	r0, r0, #-134217728
 2242              		.loc 3 452 14 view .LVU742
 2243 07a8 21F07841 		bic	r1, r1, #-134217728
 2244              	.LBE88:
 2245              	.LBE118:
 2246              	.LBB119:
 2247              	.LBB102:
 2248              		.loc 3 452 19 view .LVU743
 2249 07ac 45EA0745 		orr	r5, r5, r7, lsl #16
 2250              	.LBE102:
 2251              	.LBE119:
