ARM GAS  /var/folders/lp/x54gwt890xv47sdkqj1k04q40000gn/T//cc93WRjx.s 			page 1


   1              		.cpu cortex-m4
   2              		.arch armv7e-m
   3              		.fpu fpv4-sp-d16
   4              		.eabi_attribute 27, 1
   5              		.eabi_attribute 28, 1
   6              		.eabi_attribute 20, 1
   7              		.eabi_attribute 21, 1
   8              		.eabi_attribute 23, 3
   9              		.eabi_attribute 24, 1
  10              		.eabi_attribute 25, 1
  11              		.eabi_attribute 26, 1
  12              		.eabi_attribute 30, 2
  13              		.eabi_attribute 34, 1
  14              		.eabi_attribute 18, 4
  15              		.file	"lv_draw_sw_transform.c"
  16              		.text
  17              	.Ltext0:
  18              		.cfi_sections	.debug_frame
  19              		.file 1 "Drivers/lvgl/src/draw/sw/lv_draw_sw_transform.c"
  20              		.section	.text.transform_point_upscaled,"ax",%progbits
  21              		.align	1
  22              		.p2align 2,,3
  23              		.syntax unified
  24              		.thumb
  25              		.thumb_func
  27              	transform_point_upscaled:
  28              	.LVL0:
  29              	.LFB166:
   1:Drivers/lvgl/src/draw/sw/lv_draw_sw_transform.c **** /**
   2:Drivers/lvgl/src/draw/sw/lv_draw_sw_transform.c ****  * @file lv_draw_sw_tranform.c
   3:Drivers/lvgl/src/draw/sw/lv_draw_sw_transform.c ****  *
   4:Drivers/lvgl/src/draw/sw/lv_draw_sw_transform.c ****  */
   5:Drivers/lvgl/src/draw/sw/lv_draw_sw_transform.c **** 
   6:Drivers/lvgl/src/draw/sw/lv_draw_sw_transform.c **** /*********************
   7:Drivers/lvgl/src/draw/sw/lv_draw_sw_transform.c ****  *      INCLUDES
   8:Drivers/lvgl/src/draw/sw/lv_draw_sw_transform.c ****  *********************/
   9:Drivers/lvgl/src/draw/sw/lv_draw_sw_transform.c **** #include "lv_draw_sw.h"
  10:Drivers/lvgl/src/draw/sw/lv_draw_sw_transform.c **** #include "../../misc/lv_assert.h"
  11:Drivers/lvgl/src/draw/sw/lv_draw_sw_transform.c **** #include "../../misc/lv_area.h"
  12:Drivers/lvgl/src/draw/sw/lv_draw_sw_transform.c **** #include "../../core/lv_refr.h"
  13:Drivers/lvgl/src/draw/sw/lv_draw_sw_transform.c **** 
  14:Drivers/lvgl/src/draw/sw/lv_draw_sw_transform.c **** #if LV_DRAW_COMPLEX
  15:Drivers/lvgl/src/draw/sw/lv_draw_sw_transform.c **** /*********************
  16:Drivers/lvgl/src/draw/sw/lv_draw_sw_transform.c ****  *      DEFINES
  17:Drivers/lvgl/src/draw/sw/lv_draw_sw_transform.c ****  *********************/
  18:Drivers/lvgl/src/draw/sw/lv_draw_sw_transform.c **** 
  19:Drivers/lvgl/src/draw/sw/lv_draw_sw_transform.c **** /**********************
  20:Drivers/lvgl/src/draw/sw/lv_draw_sw_transform.c ****  *      TYPEDEFS
  21:Drivers/lvgl/src/draw/sw/lv_draw_sw_transform.c ****  **********************/
  22:Drivers/lvgl/src/draw/sw/lv_draw_sw_transform.c **** typedef struct {
  23:Drivers/lvgl/src/draw/sw/lv_draw_sw_transform.c ****     int32_t x_in;
  24:Drivers/lvgl/src/draw/sw/lv_draw_sw_transform.c ****     int32_t y_in;
  25:Drivers/lvgl/src/draw/sw/lv_draw_sw_transform.c ****     int32_t x_out;
  26:Drivers/lvgl/src/draw/sw/lv_draw_sw_transform.c ****     int32_t y_out;
  27:Drivers/lvgl/src/draw/sw/lv_draw_sw_transform.c ****     int32_t sinma;
  28:Drivers/lvgl/src/draw/sw/lv_draw_sw_transform.c ****     int32_t cosma;
  29:Drivers/lvgl/src/draw/sw/lv_draw_sw_transform.c ****     int32_t zoom;
ARM GAS  /var/folders/lp/x54gwt890xv47sdkqj1k04q40000gn/T//cc93WRjx.s 			page 2


  30:Drivers/lvgl/src/draw/sw/lv_draw_sw_transform.c ****     int32_t angle;
  31:Drivers/lvgl/src/draw/sw/lv_draw_sw_transform.c ****     int32_t pivot_x_256;
  32:Drivers/lvgl/src/draw/sw/lv_draw_sw_transform.c ****     int32_t pivot_y_256;
  33:Drivers/lvgl/src/draw/sw/lv_draw_sw_transform.c ****     lv_point_t pivot;
  34:Drivers/lvgl/src/draw/sw/lv_draw_sw_transform.c **** } point_transform_dsc_t;
  35:Drivers/lvgl/src/draw/sw/lv_draw_sw_transform.c **** 
  36:Drivers/lvgl/src/draw/sw/lv_draw_sw_transform.c **** /**********************
  37:Drivers/lvgl/src/draw/sw/lv_draw_sw_transform.c ****  *  STATIC PROTOTYPES
  38:Drivers/lvgl/src/draw/sw/lv_draw_sw_transform.c ****  **********************/
  39:Drivers/lvgl/src/draw/sw/lv_draw_sw_transform.c **** /**
  40:Drivers/lvgl/src/draw/sw/lv_draw_sw_transform.c ****  * Transform a point with 1/256 precision (the output coordinates are upscaled by 256)
  41:Drivers/lvgl/src/draw/sw/lv_draw_sw_transform.c ****  * @param t         pointer to n initialized `point_transform_dsc_t` structure
  42:Drivers/lvgl/src/draw/sw/lv_draw_sw_transform.c ****  * @param xin       X coordinate to rotate
  43:Drivers/lvgl/src/draw/sw/lv_draw_sw_transform.c ****  * @param yin       Y coordinate to rotate
  44:Drivers/lvgl/src/draw/sw/lv_draw_sw_transform.c ****  * @param xout      upscaled, transformed X
  45:Drivers/lvgl/src/draw/sw/lv_draw_sw_transform.c ****  * @param yout      upscaled, transformed Y
  46:Drivers/lvgl/src/draw/sw/lv_draw_sw_transform.c ****  */
  47:Drivers/lvgl/src/draw/sw/lv_draw_sw_transform.c **** static void transform_point_upscaled(point_transform_dsc_t * t, int32_t xin, int32_t yin, int32_t *
  48:Drivers/lvgl/src/draw/sw/lv_draw_sw_transform.c ****                                      int32_t * yout);
  49:Drivers/lvgl/src/draw/sw/lv_draw_sw_transform.c **** 
  50:Drivers/lvgl/src/draw/sw/lv_draw_sw_transform.c **** static void argb_no_aa(const uint8_t * src, lv_coord_t src_w, lv_coord_t src_h, lv_coord_t src_stri
  51:Drivers/lvgl/src/draw/sw/lv_draw_sw_transform.c ****                        int32_t xs_ups, int32_t ys_ups, int32_t xs_step, int32_t ys_step,
  52:Drivers/lvgl/src/draw/sw/lv_draw_sw_transform.c ****                        int32_t x_end, lv_color_t * cbuf, uint8_t * abuf);
  53:Drivers/lvgl/src/draw/sw/lv_draw_sw_transform.c **** 
  54:Drivers/lvgl/src/draw/sw/lv_draw_sw_transform.c **** static void rgb_no_aa(const uint8_t * src, lv_coord_t src_w, lv_coord_t src_h, lv_coord_t src_strid
  55:Drivers/lvgl/src/draw/sw/lv_draw_sw_transform.c ****                       int32_t xs_ups, int32_t ys_ups, int32_t xs_step, int32_t ys_step,
  56:Drivers/lvgl/src/draw/sw/lv_draw_sw_transform.c ****                       int32_t x_end, lv_color_t * cbuf, uint8_t * abuf, lv_img_cf_t cf);
  57:Drivers/lvgl/src/draw/sw/lv_draw_sw_transform.c **** 
  58:Drivers/lvgl/src/draw/sw/lv_draw_sw_transform.c **** #if LV_COLOR_DEPTH == 16
  59:Drivers/lvgl/src/draw/sw/lv_draw_sw_transform.c **** static void rgb565a8_no_aa(const uint8_t * src, lv_coord_t src_w, lv_coord_t src_h, lv_coord_t src_
  60:Drivers/lvgl/src/draw/sw/lv_draw_sw_transform.c ****                            int32_t xs_ups, int32_t ys_ups, int32_t xs_step, int32_t ys_step,
  61:Drivers/lvgl/src/draw/sw/lv_draw_sw_transform.c ****                            int32_t x_end, lv_color_t * cbuf, uint8_t * abuf);
  62:Drivers/lvgl/src/draw/sw/lv_draw_sw_transform.c **** #endif
  63:Drivers/lvgl/src/draw/sw/lv_draw_sw_transform.c **** 
  64:Drivers/lvgl/src/draw/sw/lv_draw_sw_transform.c **** static void argb_and_rgb_aa(const uint8_t * src, lv_coord_t src_w, lv_coord_t src_h, lv_coord_t src
  65:Drivers/lvgl/src/draw/sw/lv_draw_sw_transform.c ****                             int32_t xs_ups, int32_t ys_ups, int32_t xs_step, int32_t ys_step,
  66:Drivers/lvgl/src/draw/sw/lv_draw_sw_transform.c ****                             int32_t x_end, lv_color_t * cbuf, uint8_t * abuf, lv_img_cf_t cf);
  67:Drivers/lvgl/src/draw/sw/lv_draw_sw_transform.c **** 
  68:Drivers/lvgl/src/draw/sw/lv_draw_sw_transform.c **** /**********************
  69:Drivers/lvgl/src/draw/sw/lv_draw_sw_transform.c ****  *  STATIC VARIABLES
  70:Drivers/lvgl/src/draw/sw/lv_draw_sw_transform.c ****  **********************/
  71:Drivers/lvgl/src/draw/sw/lv_draw_sw_transform.c **** 
  72:Drivers/lvgl/src/draw/sw/lv_draw_sw_transform.c **** /**********************
  73:Drivers/lvgl/src/draw/sw/lv_draw_sw_transform.c ****  *      MACROS
  74:Drivers/lvgl/src/draw/sw/lv_draw_sw_transform.c ****  **********************/
  75:Drivers/lvgl/src/draw/sw/lv_draw_sw_transform.c **** 
  76:Drivers/lvgl/src/draw/sw/lv_draw_sw_transform.c **** /**********************
  77:Drivers/lvgl/src/draw/sw/lv_draw_sw_transform.c ****  *   GLOBAL FUNCTIONS
  78:Drivers/lvgl/src/draw/sw/lv_draw_sw_transform.c ****  **********************/
  79:Drivers/lvgl/src/draw/sw/lv_draw_sw_transform.c **** 
  80:Drivers/lvgl/src/draw/sw/lv_draw_sw_transform.c **** void lv_draw_sw_transform(lv_draw_ctx_t * draw_ctx, const lv_area_t * dest_area, const void * src_b
  81:Drivers/lvgl/src/draw/sw/lv_draw_sw_transform.c ****                           lv_coord_t src_w, lv_coord_t src_h, lv_coord_t src_stride,
  82:Drivers/lvgl/src/draw/sw/lv_draw_sw_transform.c ****                           const lv_draw_img_dsc_t * draw_dsc, lv_img_cf_t cf, lv_color_t * cbuf, lv
  83:Drivers/lvgl/src/draw/sw/lv_draw_sw_transform.c **** {
  84:Drivers/lvgl/src/draw/sw/lv_draw_sw_transform.c ****     LV_UNUSED(draw_ctx);
  85:Drivers/lvgl/src/draw/sw/lv_draw_sw_transform.c **** 
  86:Drivers/lvgl/src/draw/sw/lv_draw_sw_transform.c ****     point_transform_dsc_t tr_dsc;
ARM GAS  /var/folders/lp/x54gwt890xv47sdkqj1k04q40000gn/T//cc93WRjx.s 			page 3


  87:Drivers/lvgl/src/draw/sw/lv_draw_sw_transform.c ****     tr_dsc.angle = -draw_dsc->angle;
  88:Drivers/lvgl/src/draw/sw/lv_draw_sw_transform.c ****     tr_dsc.zoom = (256 * 256) / draw_dsc->zoom;
  89:Drivers/lvgl/src/draw/sw/lv_draw_sw_transform.c ****     tr_dsc.pivot = draw_dsc->pivot;
  90:Drivers/lvgl/src/draw/sw/lv_draw_sw_transform.c **** 
  91:Drivers/lvgl/src/draw/sw/lv_draw_sw_transform.c ****     int32_t angle_low = tr_dsc.angle / 10;
  92:Drivers/lvgl/src/draw/sw/lv_draw_sw_transform.c ****     int32_t angle_high = angle_low + 1;
  93:Drivers/lvgl/src/draw/sw/lv_draw_sw_transform.c ****     int32_t angle_rem = tr_dsc.angle  - (angle_low * 10);
  94:Drivers/lvgl/src/draw/sw/lv_draw_sw_transform.c **** 
  95:Drivers/lvgl/src/draw/sw/lv_draw_sw_transform.c ****     int32_t s1 = lv_trigo_sin(angle_low);
  96:Drivers/lvgl/src/draw/sw/lv_draw_sw_transform.c ****     int32_t s2 = lv_trigo_sin(angle_high);
  97:Drivers/lvgl/src/draw/sw/lv_draw_sw_transform.c **** 
  98:Drivers/lvgl/src/draw/sw/lv_draw_sw_transform.c ****     int32_t c1 = lv_trigo_sin(angle_low + 90);
  99:Drivers/lvgl/src/draw/sw/lv_draw_sw_transform.c ****     int32_t c2 = lv_trigo_sin(angle_high + 90);
 100:Drivers/lvgl/src/draw/sw/lv_draw_sw_transform.c **** 
 101:Drivers/lvgl/src/draw/sw/lv_draw_sw_transform.c ****     tr_dsc.sinma = (s1 * (10 - angle_rem) + s2 * angle_rem) / 10;
 102:Drivers/lvgl/src/draw/sw/lv_draw_sw_transform.c ****     tr_dsc.cosma = (c1 * (10 - angle_rem) + c2 * angle_rem) / 10;
 103:Drivers/lvgl/src/draw/sw/lv_draw_sw_transform.c ****     tr_dsc.sinma = tr_dsc.sinma >> (LV_TRIGO_SHIFT - 10);
 104:Drivers/lvgl/src/draw/sw/lv_draw_sw_transform.c ****     tr_dsc.cosma = tr_dsc.cosma >> (LV_TRIGO_SHIFT - 10);
 105:Drivers/lvgl/src/draw/sw/lv_draw_sw_transform.c ****     tr_dsc.pivot_x_256 = tr_dsc.pivot.x * 256;
 106:Drivers/lvgl/src/draw/sw/lv_draw_sw_transform.c ****     tr_dsc.pivot_y_256 = tr_dsc.pivot.y * 256;
 107:Drivers/lvgl/src/draw/sw/lv_draw_sw_transform.c **** 
 108:Drivers/lvgl/src/draw/sw/lv_draw_sw_transform.c ****     lv_coord_t dest_w = lv_area_get_width(dest_area);
 109:Drivers/lvgl/src/draw/sw/lv_draw_sw_transform.c ****     lv_coord_t dest_h = lv_area_get_height(dest_area);
 110:Drivers/lvgl/src/draw/sw/lv_draw_sw_transform.c ****     lv_coord_t y;
 111:Drivers/lvgl/src/draw/sw/lv_draw_sw_transform.c ****     for(y = 0; y < dest_h; y++) {
 112:Drivers/lvgl/src/draw/sw/lv_draw_sw_transform.c ****         int32_t xs1_ups, ys1_ups, xs2_ups, ys2_ups;
 113:Drivers/lvgl/src/draw/sw/lv_draw_sw_transform.c **** 
 114:Drivers/lvgl/src/draw/sw/lv_draw_sw_transform.c ****         transform_point_upscaled(&tr_dsc, dest_area->x1, dest_area->y1 + y, &xs1_ups, &ys1_ups);
 115:Drivers/lvgl/src/draw/sw/lv_draw_sw_transform.c ****         transform_point_upscaled(&tr_dsc, dest_area->x2, dest_area->y1 + y, &xs2_ups, &ys2_ups);
 116:Drivers/lvgl/src/draw/sw/lv_draw_sw_transform.c **** 
 117:Drivers/lvgl/src/draw/sw/lv_draw_sw_transform.c ****         int32_t xs_diff = xs2_ups - xs1_ups;
 118:Drivers/lvgl/src/draw/sw/lv_draw_sw_transform.c ****         int32_t ys_diff = ys2_ups - ys1_ups;
 119:Drivers/lvgl/src/draw/sw/lv_draw_sw_transform.c ****         int32_t xs_step_256 = 0;
 120:Drivers/lvgl/src/draw/sw/lv_draw_sw_transform.c ****         int32_t ys_step_256 = 0;
 121:Drivers/lvgl/src/draw/sw/lv_draw_sw_transform.c ****         if(dest_w > 1) {
 122:Drivers/lvgl/src/draw/sw/lv_draw_sw_transform.c ****             xs_step_256 = (256 * xs_diff) / (dest_w - 1);
 123:Drivers/lvgl/src/draw/sw/lv_draw_sw_transform.c ****             ys_step_256 = (256 * ys_diff) / (dest_w - 1);
 124:Drivers/lvgl/src/draw/sw/lv_draw_sw_transform.c ****         }
 125:Drivers/lvgl/src/draw/sw/lv_draw_sw_transform.c ****         int32_t xs_ups = xs1_ups + 0x80;
 126:Drivers/lvgl/src/draw/sw/lv_draw_sw_transform.c ****         int32_t ys_ups = ys1_ups + 0x80;
 127:Drivers/lvgl/src/draw/sw/lv_draw_sw_transform.c **** 
 128:Drivers/lvgl/src/draw/sw/lv_draw_sw_transform.c ****         if(draw_dsc->antialias == 0) {
 129:Drivers/lvgl/src/draw/sw/lv_draw_sw_transform.c ****             switch(cf) {
 130:Drivers/lvgl/src/draw/sw/lv_draw_sw_transform.c ****                 case LV_IMG_CF_TRUE_COLOR_ALPHA:
 131:Drivers/lvgl/src/draw/sw/lv_draw_sw_transform.c ****                     argb_no_aa(src_buf, src_w, src_h, src_stride, xs_ups, ys_ups, xs_step_256, ys_s
 132:Drivers/lvgl/src/draw/sw/lv_draw_sw_transform.c ****                     break;
 133:Drivers/lvgl/src/draw/sw/lv_draw_sw_transform.c ****                 case LV_IMG_CF_TRUE_COLOR:
 134:Drivers/lvgl/src/draw/sw/lv_draw_sw_transform.c ****                 case LV_IMG_CF_TRUE_COLOR_CHROMA_KEYED:
 135:Drivers/lvgl/src/draw/sw/lv_draw_sw_transform.c ****                     rgb_no_aa(src_buf, src_w, src_h, src_stride, xs_ups, ys_ups, xs_step_256, ys_st
 136:Drivers/lvgl/src/draw/sw/lv_draw_sw_transform.c ****                     break;
 137:Drivers/lvgl/src/draw/sw/lv_draw_sw_transform.c **** 
 138:Drivers/lvgl/src/draw/sw/lv_draw_sw_transform.c **** #if LV_COLOR_DEPTH == 16
 139:Drivers/lvgl/src/draw/sw/lv_draw_sw_transform.c ****                 case LV_IMG_CF_RGB565A8:
 140:Drivers/lvgl/src/draw/sw/lv_draw_sw_transform.c ****                     rgb565a8_no_aa(src_buf, src_w, src_h, src_stride, xs_ups, ys_ups, xs_step_256, 
 141:Drivers/lvgl/src/draw/sw/lv_draw_sw_transform.c ****                     break;
 142:Drivers/lvgl/src/draw/sw/lv_draw_sw_transform.c **** #endif
 143:Drivers/lvgl/src/draw/sw/lv_draw_sw_transform.c ****                 default:
ARM GAS  /var/folders/lp/x54gwt890xv47sdkqj1k04q40000gn/T//cc93WRjx.s 			page 4


 144:Drivers/lvgl/src/draw/sw/lv_draw_sw_transform.c ****                     break;
 145:Drivers/lvgl/src/draw/sw/lv_draw_sw_transform.c ****             }
 146:Drivers/lvgl/src/draw/sw/lv_draw_sw_transform.c ****         }
 147:Drivers/lvgl/src/draw/sw/lv_draw_sw_transform.c ****         else {
 148:Drivers/lvgl/src/draw/sw/lv_draw_sw_transform.c ****             argb_and_rgb_aa(src_buf, src_w, src_h, src_stride, xs_ups, ys_ups, xs_step_256, ys_step
 149:Drivers/lvgl/src/draw/sw/lv_draw_sw_transform.c ****         }
 150:Drivers/lvgl/src/draw/sw/lv_draw_sw_transform.c **** 
 151:Drivers/lvgl/src/draw/sw/lv_draw_sw_transform.c ****         cbuf += dest_w;
 152:Drivers/lvgl/src/draw/sw/lv_draw_sw_transform.c ****         abuf += dest_w;
 153:Drivers/lvgl/src/draw/sw/lv_draw_sw_transform.c ****     }
 154:Drivers/lvgl/src/draw/sw/lv_draw_sw_transform.c **** }
 155:Drivers/lvgl/src/draw/sw/lv_draw_sw_transform.c **** 
 156:Drivers/lvgl/src/draw/sw/lv_draw_sw_transform.c **** /**********************
 157:Drivers/lvgl/src/draw/sw/lv_draw_sw_transform.c ****  *   STATIC FUNCTIONS
 158:Drivers/lvgl/src/draw/sw/lv_draw_sw_transform.c ****  **********************/
 159:Drivers/lvgl/src/draw/sw/lv_draw_sw_transform.c **** 
 160:Drivers/lvgl/src/draw/sw/lv_draw_sw_transform.c **** static void rgb_no_aa(const uint8_t * src, lv_coord_t src_w, lv_coord_t src_h, lv_coord_t src_strid
 161:Drivers/lvgl/src/draw/sw/lv_draw_sw_transform.c ****                       int32_t xs_ups, int32_t ys_ups, int32_t xs_step, int32_t ys_step,
 162:Drivers/lvgl/src/draw/sw/lv_draw_sw_transform.c ****                       int32_t x_end, lv_color_t * cbuf, uint8_t * abuf, lv_img_cf_t cf)
 163:Drivers/lvgl/src/draw/sw/lv_draw_sw_transform.c **** {
 164:Drivers/lvgl/src/draw/sw/lv_draw_sw_transform.c ****     int32_t xs_ups_start = xs_ups;
 165:Drivers/lvgl/src/draw/sw/lv_draw_sw_transform.c ****     int32_t ys_ups_start = ys_ups;
 166:Drivers/lvgl/src/draw/sw/lv_draw_sw_transform.c ****     lv_disp_t * d = _lv_refr_get_disp_refreshing();
 167:Drivers/lvgl/src/draw/sw/lv_draw_sw_transform.c ****     lv_color_t ck = d->driver->color_chroma_key;
 168:Drivers/lvgl/src/draw/sw/lv_draw_sw_transform.c **** 
 169:Drivers/lvgl/src/draw/sw/lv_draw_sw_transform.c ****     lv_memset_ff(abuf, x_end);
 170:Drivers/lvgl/src/draw/sw/lv_draw_sw_transform.c **** 
 171:Drivers/lvgl/src/draw/sw/lv_draw_sw_transform.c ****     lv_coord_t x;
 172:Drivers/lvgl/src/draw/sw/lv_draw_sw_transform.c ****     for(x = 0; x < x_end; x++) {
 173:Drivers/lvgl/src/draw/sw/lv_draw_sw_transform.c ****         xs_ups = xs_ups_start + ((xs_step * x) >> 8);
 174:Drivers/lvgl/src/draw/sw/lv_draw_sw_transform.c ****         ys_ups = ys_ups_start + ((ys_step * x) >> 8);
 175:Drivers/lvgl/src/draw/sw/lv_draw_sw_transform.c **** 
 176:Drivers/lvgl/src/draw/sw/lv_draw_sw_transform.c ****         int32_t xs_int = xs_ups >> 8;
 177:Drivers/lvgl/src/draw/sw/lv_draw_sw_transform.c ****         int32_t ys_int = ys_ups >> 8;
 178:Drivers/lvgl/src/draw/sw/lv_draw_sw_transform.c ****         if(xs_int < 0 || xs_int >= src_w || ys_int < 0 || ys_int >= src_h) {
 179:Drivers/lvgl/src/draw/sw/lv_draw_sw_transform.c ****             abuf[x] = 0x00;
 180:Drivers/lvgl/src/draw/sw/lv_draw_sw_transform.c ****         }
 181:Drivers/lvgl/src/draw/sw/lv_draw_sw_transform.c ****         else {
 182:Drivers/lvgl/src/draw/sw/lv_draw_sw_transform.c **** 
 183:Drivers/lvgl/src/draw/sw/lv_draw_sw_transform.c **** #if LV_COLOR_DEPTH == 1 || LV_COLOR_DEPTH == 8
 184:Drivers/lvgl/src/draw/sw/lv_draw_sw_transform.c ****             const uint8_t * src_tmp = src;
 185:Drivers/lvgl/src/draw/sw/lv_draw_sw_transform.c ****             src_tmp += ys_int * src_stride + xs_int;
 186:Drivers/lvgl/src/draw/sw/lv_draw_sw_transform.c ****             cbuf[x].full = src_tmp[0];
 187:Drivers/lvgl/src/draw/sw/lv_draw_sw_transform.c **** #elif LV_COLOR_DEPTH == 16
 188:Drivers/lvgl/src/draw/sw/lv_draw_sw_transform.c ****             const lv_color_t * src_tmp = (const lv_color_t *)src;
 189:Drivers/lvgl/src/draw/sw/lv_draw_sw_transform.c ****             src_tmp += ys_int * src_stride + xs_int;
 190:Drivers/lvgl/src/draw/sw/lv_draw_sw_transform.c ****             cbuf[x] = *src_tmp;
 191:Drivers/lvgl/src/draw/sw/lv_draw_sw_transform.c **** #elif LV_COLOR_DEPTH == 32
 192:Drivers/lvgl/src/draw/sw/lv_draw_sw_transform.c ****             const uint8_t * src_tmp = src;
 193:Drivers/lvgl/src/draw/sw/lv_draw_sw_transform.c ****             src_tmp += (ys_int * src_stride * sizeof(lv_color_t)) + xs_int * sizeof(lv_color_t);
 194:Drivers/lvgl/src/draw/sw/lv_draw_sw_transform.c ****             cbuf[x].full = *((uint32_t *)src_tmp);
 195:Drivers/lvgl/src/draw/sw/lv_draw_sw_transform.c **** #endif
 196:Drivers/lvgl/src/draw/sw/lv_draw_sw_transform.c ****         }
 197:Drivers/lvgl/src/draw/sw/lv_draw_sw_transform.c ****         if(cf == LV_IMG_CF_TRUE_COLOR_CHROMA_KEYED && cbuf[x].full == ck.full) {
 198:Drivers/lvgl/src/draw/sw/lv_draw_sw_transform.c ****             abuf[x] = 0x00;
 199:Drivers/lvgl/src/draw/sw/lv_draw_sw_transform.c ****         }
 200:Drivers/lvgl/src/draw/sw/lv_draw_sw_transform.c ****     }
ARM GAS  /var/folders/lp/x54gwt890xv47sdkqj1k04q40000gn/T//cc93WRjx.s 			page 5


 201:Drivers/lvgl/src/draw/sw/lv_draw_sw_transform.c **** }
 202:Drivers/lvgl/src/draw/sw/lv_draw_sw_transform.c **** 
 203:Drivers/lvgl/src/draw/sw/lv_draw_sw_transform.c **** static void argb_no_aa(const uint8_t * src, lv_coord_t src_w, lv_coord_t src_h, lv_coord_t src_stri
 204:Drivers/lvgl/src/draw/sw/lv_draw_sw_transform.c ****                        int32_t xs_ups, int32_t ys_ups, int32_t xs_step, int32_t ys_step,
 205:Drivers/lvgl/src/draw/sw/lv_draw_sw_transform.c ****                        int32_t x_end, lv_color_t * cbuf, uint8_t * abuf)
 206:Drivers/lvgl/src/draw/sw/lv_draw_sw_transform.c **** {
 207:Drivers/lvgl/src/draw/sw/lv_draw_sw_transform.c ****     int32_t xs_ups_start = xs_ups;
 208:Drivers/lvgl/src/draw/sw/lv_draw_sw_transform.c ****     int32_t ys_ups_start = ys_ups;
 209:Drivers/lvgl/src/draw/sw/lv_draw_sw_transform.c **** 
 210:Drivers/lvgl/src/draw/sw/lv_draw_sw_transform.c ****     lv_coord_t x;
 211:Drivers/lvgl/src/draw/sw/lv_draw_sw_transform.c ****     for(x = 0; x < x_end; x++) {
 212:Drivers/lvgl/src/draw/sw/lv_draw_sw_transform.c ****         xs_ups = xs_ups_start + ((xs_step * x) >> 8);
 213:Drivers/lvgl/src/draw/sw/lv_draw_sw_transform.c ****         ys_ups = ys_ups_start + ((ys_step * x) >> 8);
 214:Drivers/lvgl/src/draw/sw/lv_draw_sw_transform.c **** 
 215:Drivers/lvgl/src/draw/sw/lv_draw_sw_transform.c ****         int32_t xs_int = xs_ups >> 8;
 216:Drivers/lvgl/src/draw/sw/lv_draw_sw_transform.c ****         int32_t ys_int = ys_ups >> 8;
 217:Drivers/lvgl/src/draw/sw/lv_draw_sw_transform.c ****         if(xs_int < 0 || xs_int >= src_w || ys_int < 0 || ys_int >= src_h) {
 218:Drivers/lvgl/src/draw/sw/lv_draw_sw_transform.c ****             abuf[x] = 0;
 219:Drivers/lvgl/src/draw/sw/lv_draw_sw_transform.c ****         }
 220:Drivers/lvgl/src/draw/sw/lv_draw_sw_transform.c ****         else {
 221:Drivers/lvgl/src/draw/sw/lv_draw_sw_transform.c ****             const uint8_t * src_tmp = src;
 222:Drivers/lvgl/src/draw/sw/lv_draw_sw_transform.c ****             src_tmp += (ys_int * src_stride * LV_IMG_PX_SIZE_ALPHA_BYTE) + xs_int * LV_IMG_PX_SIZE_
 223:Drivers/lvgl/src/draw/sw/lv_draw_sw_transform.c **** 
 224:Drivers/lvgl/src/draw/sw/lv_draw_sw_transform.c **** #if LV_COLOR_DEPTH == 1 || LV_COLOR_DEPTH == 8
 225:Drivers/lvgl/src/draw/sw/lv_draw_sw_transform.c ****             cbuf[x].full = src_tmp[0];
 226:Drivers/lvgl/src/draw/sw/lv_draw_sw_transform.c **** #elif LV_COLOR_DEPTH == 16
 227:Drivers/lvgl/src/draw/sw/lv_draw_sw_transform.c ****             cbuf[x].full = src_tmp[0] + (src_tmp[1] << 8);
 228:Drivers/lvgl/src/draw/sw/lv_draw_sw_transform.c **** #elif LV_COLOR_DEPTH == 32
 229:Drivers/lvgl/src/draw/sw/lv_draw_sw_transform.c ****             cbuf[x].full = *((uint32_t *)src_tmp);
 230:Drivers/lvgl/src/draw/sw/lv_draw_sw_transform.c **** #endif
 231:Drivers/lvgl/src/draw/sw/lv_draw_sw_transform.c ****             abuf[x] = src_tmp[LV_IMG_PX_SIZE_ALPHA_BYTE - 1];
 232:Drivers/lvgl/src/draw/sw/lv_draw_sw_transform.c ****         }
 233:Drivers/lvgl/src/draw/sw/lv_draw_sw_transform.c ****     }
 234:Drivers/lvgl/src/draw/sw/lv_draw_sw_transform.c **** }
 235:Drivers/lvgl/src/draw/sw/lv_draw_sw_transform.c **** 
 236:Drivers/lvgl/src/draw/sw/lv_draw_sw_transform.c **** #if LV_COLOR_DEPTH == 16
 237:Drivers/lvgl/src/draw/sw/lv_draw_sw_transform.c **** static void rgb565a8_no_aa(const uint8_t * src, lv_coord_t src_w, lv_coord_t src_h, lv_coord_t src_
 238:Drivers/lvgl/src/draw/sw/lv_draw_sw_transform.c ****                            int32_t xs_ups, int32_t ys_ups, int32_t xs_step, int32_t ys_step,
 239:Drivers/lvgl/src/draw/sw/lv_draw_sw_transform.c ****                            int32_t x_end, lv_color_t * cbuf, uint8_t * abuf)
 240:Drivers/lvgl/src/draw/sw/lv_draw_sw_transform.c **** {
 241:Drivers/lvgl/src/draw/sw/lv_draw_sw_transform.c ****     int32_t xs_ups_start = xs_ups;
 242:Drivers/lvgl/src/draw/sw/lv_draw_sw_transform.c ****     int32_t ys_ups_start = ys_ups;
 243:Drivers/lvgl/src/draw/sw/lv_draw_sw_transform.c **** 
 244:Drivers/lvgl/src/draw/sw/lv_draw_sw_transform.c ****     lv_coord_t x;
 245:Drivers/lvgl/src/draw/sw/lv_draw_sw_transform.c ****     for(x = 0; x < x_end; x++) {
 246:Drivers/lvgl/src/draw/sw/lv_draw_sw_transform.c ****         xs_ups = xs_ups_start + ((xs_step * x) >> 8);
 247:Drivers/lvgl/src/draw/sw/lv_draw_sw_transform.c ****         ys_ups = ys_ups_start + ((ys_step * x) >> 8);
 248:Drivers/lvgl/src/draw/sw/lv_draw_sw_transform.c **** 
 249:Drivers/lvgl/src/draw/sw/lv_draw_sw_transform.c ****         int32_t xs_int = xs_ups >> 8;
 250:Drivers/lvgl/src/draw/sw/lv_draw_sw_transform.c ****         int32_t ys_int = ys_ups >> 8;
 251:Drivers/lvgl/src/draw/sw/lv_draw_sw_transform.c ****         if(xs_int < 0 || xs_int >= src_w || ys_int < 0 || ys_int >= src_h) {
 252:Drivers/lvgl/src/draw/sw/lv_draw_sw_transform.c ****             abuf[x] = 0;
 253:Drivers/lvgl/src/draw/sw/lv_draw_sw_transform.c ****         }
 254:Drivers/lvgl/src/draw/sw/lv_draw_sw_transform.c ****         else {
 255:Drivers/lvgl/src/draw/sw/lv_draw_sw_transform.c ****             const lv_color_t * src_tmp = (const lv_color_t *)src;
 256:Drivers/lvgl/src/draw/sw/lv_draw_sw_transform.c ****             src_tmp += ys_int * src_stride + xs_int;
 257:Drivers/lvgl/src/draw/sw/lv_draw_sw_transform.c ****             cbuf[x] = *src_tmp;
ARM GAS  /var/folders/lp/x54gwt890xv47sdkqj1k04q40000gn/T//cc93WRjx.s 			page 6


 258:Drivers/lvgl/src/draw/sw/lv_draw_sw_transform.c **** 
 259:Drivers/lvgl/src/draw/sw/lv_draw_sw_transform.c ****             const lv_opa_t * a_tmp = src + src_stride * src_h * sizeof(lv_color_t);
 260:Drivers/lvgl/src/draw/sw/lv_draw_sw_transform.c ****             a_tmp += ys_int * src_stride + xs_int;
 261:Drivers/lvgl/src/draw/sw/lv_draw_sw_transform.c ****             abuf[x] = *a_tmp;
 262:Drivers/lvgl/src/draw/sw/lv_draw_sw_transform.c ****         }
 263:Drivers/lvgl/src/draw/sw/lv_draw_sw_transform.c ****     }
 264:Drivers/lvgl/src/draw/sw/lv_draw_sw_transform.c **** }
 265:Drivers/lvgl/src/draw/sw/lv_draw_sw_transform.c **** #endif
 266:Drivers/lvgl/src/draw/sw/lv_draw_sw_transform.c **** 
 267:Drivers/lvgl/src/draw/sw/lv_draw_sw_transform.c **** 
 268:Drivers/lvgl/src/draw/sw/lv_draw_sw_transform.c **** static void argb_and_rgb_aa(const uint8_t * src, lv_coord_t src_w, lv_coord_t src_h, lv_coord_t src
 269:Drivers/lvgl/src/draw/sw/lv_draw_sw_transform.c ****                             int32_t xs_ups, int32_t ys_ups, int32_t xs_step, int32_t ys_step,
 270:Drivers/lvgl/src/draw/sw/lv_draw_sw_transform.c ****                             int32_t x_end, lv_color_t * cbuf, uint8_t * abuf, lv_img_cf_t cf)
 271:Drivers/lvgl/src/draw/sw/lv_draw_sw_transform.c **** {
 272:Drivers/lvgl/src/draw/sw/lv_draw_sw_transform.c ****     int32_t xs_ups_start = xs_ups;
 273:Drivers/lvgl/src/draw/sw/lv_draw_sw_transform.c ****     int32_t ys_ups_start = ys_ups;
 274:Drivers/lvgl/src/draw/sw/lv_draw_sw_transform.c ****     bool has_alpha;
 275:Drivers/lvgl/src/draw/sw/lv_draw_sw_transform.c ****     int32_t px_size;
 276:Drivers/lvgl/src/draw/sw/lv_draw_sw_transform.c ****     lv_color_t ck = _LV_COLOR_ZERO_INITIALIZER;
 277:Drivers/lvgl/src/draw/sw/lv_draw_sw_transform.c ****     switch(cf) {
 278:Drivers/lvgl/src/draw/sw/lv_draw_sw_transform.c ****         case LV_IMG_CF_TRUE_COLOR:
 279:Drivers/lvgl/src/draw/sw/lv_draw_sw_transform.c ****             has_alpha = false;
 280:Drivers/lvgl/src/draw/sw/lv_draw_sw_transform.c ****             px_size = sizeof(lv_color_t);
 281:Drivers/lvgl/src/draw/sw/lv_draw_sw_transform.c ****             break;
 282:Drivers/lvgl/src/draw/sw/lv_draw_sw_transform.c ****         case LV_IMG_CF_TRUE_COLOR_ALPHA:
 283:Drivers/lvgl/src/draw/sw/lv_draw_sw_transform.c ****             has_alpha = true;
 284:Drivers/lvgl/src/draw/sw/lv_draw_sw_transform.c ****             px_size = LV_IMG_PX_SIZE_ALPHA_BYTE;
 285:Drivers/lvgl/src/draw/sw/lv_draw_sw_transform.c ****             break;
 286:Drivers/lvgl/src/draw/sw/lv_draw_sw_transform.c ****         case LV_IMG_CF_TRUE_COLOR_CHROMA_KEYED: {
 287:Drivers/lvgl/src/draw/sw/lv_draw_sw_transform.c ****                 has_alpha = true;
 288:Drivers/lvgl/src/draw/sw/lv_draw_sw_transform.c ****                 px_size = sizeof(lv_color_t);
 289:Drivers/lvgl/src/draw/sw/lv_draw_sw_transform.c ****                 lv_disp_t * d = _lv_refr_get_disp_refreshing();
 290:Drivers/lvgl/src/draw/sw/lv_draw_sw_transform.c ****                 ck = d->driver->color_chroma_key;
 291:Drivers/lvgl/src/draw/sw/lv_draw_sw_transform.c ****                 break;
 292:Drivers/lvgl/src/draw/sw/lv_draw_sw_transform.c ****             }
 293:Drivers/lvgl/src/draw/sw/lv_draw_sw_transform.c **** #if LV_COLOR_DEPTH == 16
 294:Drivers/lvgl/src/draw/sw/lv_draw_sw_transform.c ****         case LV_IMG_CF_RGB565A8:
 295:Drivers/lvgl/src/draw/sw/lv_draw_sw_transform.c ****             has_alpha = true;
 296:Drivers/lvgl/src/draw/sw/lv_draw_sw_transform.c ****             px_size = sizeof(lv_color_t);
 297:Drivers/lvgl/src/draw/sw/lv_draw_sw_transform.c ****             break;
 298:Drivers/lvgl/src/draw/sw/lv_draw_sw_transform.c **** #endif
 299:Drivers/lvgl/src/draw/sw/lv_draw_sw_transform.c ****         default:
 300:Drivers/lvgl/src/draw/sw/lv_draw_sw_transform.c ****             return;
 301:Drivers/lvgl/src/draw/sw/lv_draw_sw_transform.c ****     }
 302:Drivers/lvgl/src/draw/sw/lv_draw_sw_transform.c **** 
 303:Drivers/lvgl/src/draw/sw/lv_draw_sw_transform.c ****     lv_coord_t x;
 304:Drivers/lvgl/src/draw/sw/lv_draw_sw_transform.c ****     for(x = 0; x < x_end; x++) {
 305:Drivers/lvgl/src/draw/sw/lv_draw_sw_transform.c ****         xs_ups = xs_ups_start + ((xs_step * x) >> 8);
 306:Drivers/lvgl/src/draw/sw/lv_draw_sw_transform.c ****         ys_ups = ys_ups_start + ((ys_step * x) >> 8);
 307:Drivers/lvgl/src/draw/sw/lv_draw_sw_transform.c **** 
 308:Drivers/lvgl/src/draw/sw/lv_draw_sw_transform.c ****         int32_t xs_int = xs_ups >> 8;
 309:Drivers/lvgl/src/draw/sw/lv_draw_sw_transform.c ****         int32_t ys_int = ys_ups >> 8;
 310:Drivers/lvgl/src/draw/sw/lv_draw_sw_transform.c **** 
 311:Drivers/lvgl/src/draw/sw/lv_draw_sw_transform.c ****         /*Fully out of the image*/
 312:Drivers/lvgl/src/draw/sw/lv_draw_sw_transform.c ****         if(xs_int < 0 || xs_int >= src_w || ys_int < 0 || ys_int >= src_h) {
 313:Drivers/lvgl/src/draw/sw/lv_draw_sw_transform.c ****             abuf[x] = 0x00;
 314:Drivers/lvgl/src/draw/sw/lv_draw_sw_transform.c ****             continue;
ARM GAS  /var/folders/lp/x54gwt890xv47sdkqj1k04q40000gn/T//cc93WRjx.s 			page 7


 315:Drivers/lvgl/src/draw/sw/lv_draw_sw_transform.c ****         }
 316:Drivers/lvgl/src/draw/sw/lv_draw_sw_transform.c **** 
 317:Drivers/lvgl/src/draw/sw/lv_draw_sw_transform.c ****         /*Get the direction the hor and ver neighbor
 318:Drivers/lvgl/src/draw/sw/lv_draw_sw_transform.c ****          *`fract` will be in range of 0x00..0xFF and `next` (+/-1) indicates the direction*/
 319:Drivers/lvgl/src/draw/sw/lv_draw_sw_transform.c ****         int32_t xs_fract = xs_ups & 0xFF;
 320:Drivers/lvgl/src/draw/sw/lv_draw_sw_transform.c ****         int32_t ys_fract = ys_ups & 0xFF;
 321:Drivers/lvgl/src/draw/sw/lv_draw_sw_transform.c **** 
 322:Drivers/lvgl/src/draw/sw/lv_draw_sw_transform.c ****         int32_t x_next;
 323:Drivers/lvgl/src/draw/sw/lv_draw_sw_transform.c ****         int32_t y_next;
 324:Drivers/lvgl/src/draw/sw/lv_draw_sw_transform.c ****         if(xs_fract < 0x80) {
 325:Drivers/lvgl/src/draw/sw/lv_draw_sw_transform.c ****             x_next = -1;
 326:Drivers/lvgl/src/draw/sw/lv_draw_sw_transform.c ****             xs_fract = (0x7F - xs_fract) * 2;
 327:Drivers/lvgl/src/draw/sw/lv_draw_sw_transform.c ****         }
 328:Drivers/lvgl/src/draw/sw/lv_draw_sw_transform.c ****         else {
 329:Drivers/lvgl/src/draw/sw/lv_draw_sw_transform.c ****             x_next = 1;
 330:Drivers/lvgl/src/draw/sw/lv_draw_sw_transform.c ****             xs_fract = (xs_fract - 0x80) * 2;
 331:Drivers/lvgl/src/draw/sw/lv_draw_sw_transform.c ****         }
 332:Drivers/lvgl/src/draw/sw/lv_draw_sw_transform.c ****         if(ys_fract < 0x80) {
 333:Drivers/lvgl/src/draw/sw/lv_draw_sw_transform.c ****             y_next = -1;
 334:Drivers/lvgl/src/draw/sw/lv_draw_sw_transform.c ****             ys_fract = (0x7F - ys_fract) * 2;
 335:Drivers/lvgl/src/draw/sw/lv_draw_sw_transform.c ****         }
 336:Drivers/lvgl/src/draw/sw/lv_draw_sw_transform.c ****         else {
 337:Drivers/lvgl/src/draw/sw/lv_draw_sw_transform.c ****             y_next = 1;
 338:Drivers/lvgl/src/draw/sw/lv_draw_sw_transform.c ****             ys_fract = (ys_fract - 0x80) * 2;
 339:Drivers/lvgl/src/draw/sw/lv_draw_sw_transform.c ****         }
 340:Drivers/lvgl/src/draw/sw/lv_draw_sw_transform.c **** 
 341:Drivers/lvgl/src/draw/sw/lv_draw_sw_transform.c ****         const uint8_t * src_tmp = src;
 342:Drivers/lvgl/src/draw/sw/lv_draw_sw_transform.c ****         src_tmp += (ys_int * src_stride * px_size) + xs_int * px_size;
 343:Drivers/lvgl/src/draw/sw/lv_draw_sw_transform.c **** 
 344:Drivers/lvgl/src/draw/sw/lv_draw_sw_transform.c **** 
 345:Drivers/lvgl/src/draw/sw/lv_draw_sw_transform.c ****         if(xs_int + x_next >= 0 &&
 346:Drivers/lvgl/src/draw/sw/lv_draw_sw_transform.c ****            xs_int + x_next <= src_w - 1 &&
 347:Drivers/lvgl/src/draw/sw/lv_draw_sw_transform.c ****            ys_int + y_next >= 0 &&
 348:Drivers/lvgl/src/draw/sw/lv_draw_sw_transform.c ****            ys_int + y_next <= src_h - 1) {
 349:Drivers/lvgl/src/draw/sw/lv_draw_sw_transform.c **** 
 350:Drivers/lvgl/src/draw/sw/lv_draw_sw_transform.c ****             const uint8_t * px_base = src_tmp;
 351:Drivers/lvgl/src/draw/sw/lv_draw_sw_transform.c ****             const uint8_t * px_hor = src_tmp + x_next * px_size;
 352:Drivers/lvgl/src/draw/sw/lv_draw_sw_transform.c ****             const uint8_t * px_ver = src_tmp + y_next * src_stride * px_size;
 353:Drivers/lvgl/src/draw/sw/lv_draw_sw_transform.c ****             lv_color_t c_base;
 354:Drivers/lvgl/src/draw/sw/lv_draw_sw_transform.c ****             lv_color_t c_ver;
 355:Drivers/lvgl/src/draw/sw/lv_draw_sw_transform.c ****             lv_color_t c_hor;
 356:Drivers/lvgl/src/draw/sw/lv_draw_sw_transform.c **** 
 357:Drivers/lvgl/src/draw/sw/lv_draw_sw_transform.c ****             if(has_alpha) {
 358:Drivers/lvgl/src/draw/sw/lv_draw_sw_transform.c ****                 lv_opa_t a_base;
 359:Drivers/lvgl/src/draw/sw/lv_draw_sw_transform.c ****                 lv_opa_t a_ver;
 360:Drivers/lvgl/src/draw/sw/lv_draw_sw_transform.c ****                 lv_opa_t a_hor;
 361:Drivers/lvgl/src/draw/sw/lv_draw_sw_transform.c ****                 if(cf == LV_IMG_CF_TRUE_COLOR_ALPHA) {
 362:Drivers/lvgl/src/draw/sw/lv_draw_sw_transform.c ****                     a_base = px_base[LV_IMG_PX_SIZE_ALPHA_BYTE - 1];
 363:Drivers/lvgl/src/draw/sw/lv_draw_sw_transform.c ****                     a_ver = px_ver[LV_IMG_PX_SIZE_ALPHA_BYTE - 1];
 364:Drivers/lvgl/src/draw/sw/lv_draw_sw_transform.c ****                     a_hor = px_hor[LV_IMG_PX_SIZE_ALPHA_BYTE - 1];
 365:Drivers/lvgl/src/draw/sw/lv_draw_sw_transform.c ****                 }
 366:Drivers/lvgl/src/draw/sw/lv_draw_sw_transform.c **** #if LV_COLOR_DEPTH == 16
 367:Drivers/lvgl/src/draw/sw/lv_draw_sw_transform.c ****                 else if(cf == LV_IMG_CF_RGB565A8) {
 368:Drivers/lvgl/src/draw/sw/lv_draw_sw_transform.c ****                     const lv_opa_t * a_tmp = src + src_stride * src_h * sizeof(lv_color_t);
 369:Drivers/lvgl/src/draw/sw/lv_draw_sw_transform.c ****                     a_base = *(a_tmp + (ys_int * src_stride) + xs_int);
 370:Drivers/lvgl/src/draw/sw/lv_draw_sw_transform.c ****                     a_hor = *(a_tmp + (ys_int * src_stride) + xs_int + x_next);
 371:Drivers/lvgl/src/draw/sw/lv_draw_sw_transform.c ****                     a_ver = *(a_tmp + ((ys_int + y_next) * src_stride) + xs_int);
ARM GAS  /var/folders/lp/x54gwt890xv47sdkqj1k04q40000gn/T//cc93WRjx.s 			page 8


 372:Drivers/lvgl/src/draw/sw/lv_draw_sw_transform.c ****                 }
 373:Drivers/lvgl/src/draw/sw/lv_draw_sw_transform.c **** #endif
 374:Drivers/lvgl/src/draw/sw/lv_draw_sw_transform.c ****                 else if(cf == LV_IMG_CF_TRUE_COLOR_CHROMA_KEYED) {
 375:Drivers/lvgl/src/draw/sw/lv_draw_sw_transform.c ****                     if(((lv_color_t *)px_base)->full == ck.full ||
 376:Drivers/lvgl/src/draw/sw/lv_draw_sw_transform.c ****                        ((lv_color_t *)px_ver)->full == ck.full ||
 377:Drivers/lvgl/src/draw/sw/lv_draw_sw_transform.c ****                        ((lv_color_t *)px_hor)->full == ck.full) {
 378:Drivers/lvgl/src/draw/sw/lv_draw_sw_transform.c ****                         abuf[x] = 0x00;
 379:Drivers/lvgl/src/draw/sw/lv_draw_sw_transform.c ****                         continue;
 380:Drivers/lvgl/src/draw/sw/lv_draw_sw_transform.c ****                     }
 381:Drivers/lvgl/src/draw/sw/lv_draw_sw_transform.c ****                     else {
 382:Drivers/lvgl/src/draw/sw/lv_draw_sw_transform.c ****                         a_base = 0xff;
 383:Drivers/lvgl/src/draw/sw/lv_draw_sw_transform.c ****                         a_ver = 0xff;
 384:Drivers/lvgl/src/draw/sw/lv_draw_sw_transform.c ****                         a_hor = 0xff;
 385:Drivers/lvgl/src/draw/sw/lv_draw_sw_transform.c ****                     }
 386:Drivers/lvgl/src/draw/sw/lv_draw_sw_transform.c ****                 }
 387:Drivers/lvgl/src/draw/sw/lv_draw_sw_transform.c ****                 else {
 388:Drivers/lvgl/src/draw/sw/lv_draw_sw_transform.c ****                     a_base = 0xff;
 389:Drivers/lvgl/src/draw/sw/lv_draw_sw_transform.c ****                     a_ver = 0xff;
 390:Drivers/lvgl/src/draw/sw/lv_draw_sw_transform.c ****                     a_hor = 0xff;
 391:Drivers/lvgl/src/draw/sw/lv_draw_sw_transform.c ****                 }
 392:Drivers/lvgl/src/draw/sw/lv_draw_sw_transform.c **** 
 393:Drivers/lvgl/src/draw/sw/lv_draw_sw_transform.c ****                 if(a_ver != a_base) a_ver = ((a_ver * ys_fract) + (a_base * (0x100 - ys_fract))) >>
 394:Drivers/lvgl/src/draw/sw/lv_draw_sw_transform.c ****                 if(a_hor != a_base) a_hor = ((a_hor * xs_fract) + (a_base * (0x100 - xs_fract))) >>
 395:Drivers/lvgl/src/draw/sw/lv_draw_sw_transform.c ****                 abuf[x] = (a_ver + a_hor) >> 1;
 396:Drivers/lvgl/src/draw/sw/lv_draw_sw_transform.c **** 
 397:Drivers/lvgl/src/draw/sw/lv_draw_sw_transform.c ****                 if(abuf[x] == 0x00) continue;
 398:Drivers/lvgl/src/draw/sw/lv_draw_sw_transform.c **** 
 399:Drivers/lvgl/src/draw/sw/lv_draw_sw_transform.c **** #if LV_COLOR_DEPTH == 1 || LV_COLOR_DEPTH == 8
 400:Drivers/lvgl/src/draw/sw/lv_draw_sw_transform.c ****                 c_base.full = px_base[0];
 401:Drivers/lvgl/src/draw/sw/lv_draw_sw_transform.c ****                 c_ver.full = px_ver[0];
 402:Drivers/lvgl/src/draw/sw/lv_draw_sw_transform.c ****                 c_hor.full = px_hor[0];
 403:Drivers/lvgl/src/draw/sw/lv_draw_sw_transform.c **** #elif LV_COLOR_DEPTH == 16
 404:Drivers/lvgl/src/draw/sw/lv_draw_sw_transform.c ****                 c_base.full = px_base[0] + (px_base[1] << 8);
 405:Drivers/lvgl/src/draw/sw/lv_draw_sw_transform.c ****                 c_ver.full = px_ver[0] + (px_ver[1] << 8);
 406:Drivers/lvgl/src/draw/sw/lv_draw_sw_transform.c ****                 c_hor.full = px_hor[0] + (px_hor[1] << 8);
 407:Drivers/lvgl/src/draw/sw/lv_draw_sw_transform.c **** #elif LV_COLOR_DEPTH == 32
 408:Drivers/lvgl/src/draw/sw/lv_draw_sw_transform.c ****                 c_base.full = *((uint32_t *)px_base);
 409:Drivers/lvgl/src/draw/sw/lv_draw_sw_transform.c ****                 c_ver.full = *((uint32_t *)px_ver);
 410:Drivers/lvgl/src/draw/sw/lv_draw_sw_transform.c ****                 c_hor.full = *((uint32_t *)px_hor);
 411:Drivers/lvgl/src/draw/sw/lv_draw_sw_transform.c **** #endif
 412:Drivers/lvgl/src/draw/sw/lv_draw_sw_transform.c ****             }
 413:Drivers/lvgl/src/draw/sw/lv_draw_sw_transform.c ****             /*No alpha channel -> RGB*/
 414:Drivers/lvgl/src/draw/sw/lv_draw_sw_transform.c ****             else {
 415:Drivers/lvgl/src/draw/sw/lv_draw_sw_transform.c ****                 c_base = *((const lv_color_t *) px_base);
 416:Drivers/lvgl/src/draw/sw/lv_draw_sw_transform.c ****                 c_hor = *((const lv_color_t *) px_hor);
 417:Drivers/lvgl/src/draw/sw/lv_draw_sw_transform.c ****                 c_ver = *((const lv_color_t *) px_ver);
 418:Drivers/lvgl/src/draw/sw/lv_draw_sw_transform.c ****                 abuf[x] = 0xff;
 419:Drivers/lvgl/src/draw/sw/lv_draw_sw_transform.c ****             }
 420:Drivers/lvgl/src/draw/sw/lv_draw_sw_transform.c **** 
 421:Drivers/lvgl/src/draw/sw/lv_draw_sw_transform.c ****             if(c_base.full == c_ver.full && c_base.full == c_hor.full) {
 422:Drivers/lvgl/src/draw/sw/lv_draw_sw_transform.c ****                 cbuf[x] = c_base;
 423:Drivers/lvgl/src/draw/sw/lv_draw_sw_transform.c ****             }
 424:Drivers/lvgl/src/draw/sw/lv_draw_sw_transform.c ****             else {
 425:Drivers/lvgl/src/draw/sw/lv_draw_sw_transform.c ****                 c_ver = lv_color_mix(c_ver, c_base, ys_fract);
 426:Drivers/lvgl/src/draw/sw/lv_draw_sw_transform.c ****                 c_hor = lv_color_mix(c_hor, c_base, xs_fract);
 427:Drivers/lvgl/src/draw/sw/lv_draw_sw_transform.c ****                 cbuf[x] = lv_color_mix(c_hor, c_ver, LV_OPA_50);
 428:Drivers/lvgl/src/draw/sw/lv_draw_sw_transform.c ****             }
ARM GAS  /var/folders/lp/x54gwt890xv47sdkqj1k04q40000gn/T//cc93WRjx.s 			page 9


 429:Drivers/lvgl/src/draw/sw/lv_draw_sw_transform.c ****         }
 430:Drivers/lvgl/src/draw/sw/lv_draw_sw_transform.c ****         /*Partially out of the image*/
 431:Drivers/lvgl/src/draw/sw/lv_draw_sw_transform.c ****         else {
 432:Drivers/lvgl/src/draw/sw/lv_draw_sw_transform.c **** #if LV_COLOR_DEPTH == 1 || LV_COLOR_DEPTH == 8
 433:Drivers/lvgl/src/draw/sw/lv_draw_sw_transform.c ****             cbuf[x].full = src_tmp[0];
 434:Drivers/lvgl/src/draw/sw/lv_draw_sw_transform.c **** #elif LV_COLOR_DEPTH == 16
 435:Drivers/lvgl/src/draw/sw/lv_draw_sw_transform.c ****             cbuf[x].full = src_tmp[0] + (src_tmp[1] << 8);
 436:Drivers/lvgl/src/draw/sw/lv_draw_sw_transform.c **** #elif LV_COLOR_DEPTH == 32
 437:Drivers/lvgl/src/draw/sw/lv_draw_sw_transform.c ****             cbuf[x].full = *((uint32_t *)src_tmp);
 438:Drivers/lvgl/src/draw/sw/lv_draw_sw_transform.c **** #endif
 439:Drivers/lvgl/src/draw/sw/lv_draw_sw_transform.c ****             lv_opa_t a;
 440:Drivers/lvgl/src/draw/sw/lv_draw_sw_transform.c ****             switch(cf) {
 441:Drivers/lvgl/src/draw/sw/lv_draw_sw_transform.c ****                 case LV_IMG_CF_TRUE_COLOR_ALPHA:
 442:Drivers/lvgl/src/draw/sw/lv_draw_sw_transform.c ****                     a = src_tmp[LV_IMG_PX_SIZE_ALPHA_BYTE - 1];
 443:Drivers/lvgl/src/draw/sw/lv_draw_sw_transform.c ****                     break;
 444:Drivers/lvgl/src/draw/sw/lv_draw_sw_transform.c ****                 case LV_IMG_CF_TRUE_COLOR_CHROMA_KEYED:
 445:Drivers/lvgl/src/draw/sw/lv_draw_sw_transform.c ****                     a = cbuf[x].full == ck.full ? 0x00 : 0xff;
 446:Drivers/lvgl/src/draw/sw/lv_draw_sw_transform.c ****                     break;
 447:Drivers/lvgl/src/draw/sw/lv_draw_sw_transform.c **** #if LV_COLOR_DEPTH == 16
 448:Drivers/lvgl/src/draw/sw/lv_draw_sw_transform.c ****                 case LV_IMG_CF_RGB565A8:
 449:Drivers/lvgl/src/draw/sw/lv_draw_sw_transform.c ****                     a = *(src + src_stride * src_h * sizeof(lv_color_t) + (ys_int * src_stride) + x
 450:Drivers/lvgl/src/draw/sw/lv_draw_sw_transform.c ****                     break;
 451:Drivers/lvgl/src/draw/sw/lv_draw_sw_transform.c **** #endif
 452:Drivers/lvgl/src/draw/sw/lv_draw_sw_transform.c ****                 default:
 453:Drivers/lvgl/src/draw/sw/lv_draw_sw_transform.c ****                     a = 0xff;
 454:Drivers/lvgl/src/draw/sw/lv_draw_sw_transform.c ****             }
 455:Drivers/lvgl/src/draw/sw/lv_draw_sw_transform.c **** 
 456:Drivers/lvgl/src/draw/sw/lv_draw_sw_transform.c ****             if((xs_int == 0 && x_next < 0) || (xs_int == src_w - 1 && x_next > 0))  {
 457:Drivers/lvgl/src/draw/sw/lv_draw_sw_transform.c ****                 abuf[x] = (a * (0xFF - xs_fract)) >> 8;
 458:Drivers/lvgl/src/draw/sw/lv_draw_sw_transform.c ****             }
 459:Drivers/lvgl/src/draw/sw/lv_draw_sw_transform.c ****             else if((ys_int == 0 && y_next < 0) || (ys_int == src_h - 1 && y_next > 0))  {
 460:Drivers/lvgl/src/draw/sw/lv_draw_sw_transform.c ****                 abuf[x] = (a * (0xFF - ys_fract)) >> 8;
 461:Drivers/lvgl/src/draw/sw/lv_draw_sw_transform.c ****             }
 462:Drivers/lvgl/src/draw/sw/lv_draw_sw_transform.c ****             else {
 463:Drivers/lvgl/src/draw/sw/lv_draw_sw_transform.c ****                 abuf[x] = 0x00;
 464:Drivers/lvgl/src/draw/sw/lv_draw_sw_transform.c ****             }
 465:Drivers/lvgl/src/draw/sw/lv_draw_sw_transform.c ****         }
 466:Drivers/lvgl/src/draw/sw/lv_draw_sw_transform.c ****     }
 467:Drivers/lvgl/src/draw/sw/lv_draw_sw_transform.c **** }
 468:Drivers/lvgl/src/draw/sw/lv_draw_sw_transform.c **** 
 469:Drivers/lvgl/src/draw/sw/lv_draw_sw_transform.c **** static void transform_point_upscaled(point_transform_dsc_t * t, int32_t xin, int32_t yin, int32_t *
 470:Drivers/lvgl/src/draw/sw/lv_draw_sw_transform.c ****                                      int32_t * yout)
 471:Drivers/lvgl/src/draw/sw/lv_draw_sw_transform.c **** {
  30              		.loc 1 471 1 view -0
  31              		.cfi_startproc
  32              		@ args = 4, pretend = 0, frame = 0
  33              		@ frame_needed = 0, uses_anonymous_args = 0
 472:Drivers/lvgl/src/draw/sw/lv_draw_sw_transform.c ****     if(t->angle == 0 && t->zoom == LV_IMG_ZOOM_NONE) {
  34              		.loc 1 472 5 view .LVU1
 471:Drivers/lvgl/src/draw/sw/lv_draw_sw_transform.c ****     if(t->angle == 0 && t->zoom == LV_IMG_ZOOM_NONE) {
  35              		.loc 1 471 1 is_stmt 0 view .LVU2
  36 0000 30B5     		push	{r4, r5, lr}
  37              		.cfi_def_cfa_offset 12
  38              		.cfi_offset 4, -12
  39              		.cfi_offset 5, -8
  40              		.cfi_offset 14, -4
  41              		.loc 1 472 7 view .LVU3
ARM GAS  /var/folders/lp/x54gwt890xv47sdkqj1k04q40000gn/T//cc93WRjx.s 			page 10


  42 0002 D0E90645 		ldrd	r4, r5, [r0, #24]
  43 0006 9DB9     		cbnz	r5, .L2
  44              		.loc 1 472 22 discriminator 1 view .LVU4
  45 0008 B4F5807F 		cmp	r4, #256
  46 000c 43D0     		beq	.L10
 473:Drivers/lvgl/src/draw/sw/lv_draw_sw_transform.c ****         *xout = xin * 256;
 474:Drivers/lvgl/src/draw/sw/lv_draw_sw_transform.c ****         *yout = yin * 256;
 475:Drivers/lvgl/src/draw/sw/lv_draw_sw_transform.c ****         return;
 476:Drivers/lvgl/src/draw/sw/lv_draw_sw_transform.c ****     }
 477:Drivers/lvgl/src/draw/sw/lv_draw_sw_transform.c **** 
 478:Drivers/lvgl/src/draw/sw/lv_draw_sw_transform.c ****     xin -= t->pivot.x;
  47              		.loc 1 478 5 is_stmt 1 view .LVU5
  48              	.LVL1:
 479:Drivers/lvgl/src/draw/sw/lv_draw_sw_transform.c ****     yin -= t->pivot.y;
  49              		.loc 1 479 5 view .LVU6
 478:Drivers/lvgl/src/draw/sw/lv_draw_sw_transform.c ****     yin -= t->pivot.y;
  50              		.loc 1 478 20 is_stmt 0 view .LVU7
  51 000e B0F92850 		ldrsh	r5, [r0, #40]
 478:Drivers/lvgl/src/draw/sw/lv_draw_sw_transform.c ****     yin -= t->pivot.y;
  52              		.loc 1 478 9 view .LVU8
  53 0012 491B     		subs	r1, r1, r5
  54              	.LVL2:
 480:Drivers/lvgl/src/draw/sw/lv_draw_sw_transform.c **** 
 481:Drivers/lvgl/src/draw/sw/lv_draw_sw_transform.c ****     if(t->angle == 0) {
 482:Drivers/lvgl/src/draw/sw/lv_draw_sw_transform.c ****         *xout = ((int32_t)(xin * t->zoom)) + (t->pivot_x_256);
  55              		.loc 1 482 44 view .LVU9
  56 0014 056A     		ldr	r5, [r0, #32]
  57 0016 04FB0155 		mla	r5, r4, r1, r5
 479:Drivers/lvgl/src/draw/sw/lv_draw_sw_transform.c **** 
  58              		.loc 1 479 20 view .LVU10
  59 001a B0F92A10 		ldrsh	r1, [r0, #42]
  60              	.LVL3:
  61              		.loc 1 482 15 view .LVU11
  62 001e 1D60     		str	r5, [r3]
 483:Drivers/lvgl/src/draw/sw/lv_draw_sw_transform.c ****         *yout = ((int32_t)(yin * t->zoom)) + (t->pivot_y_256);
  63              		.loc 1 483 44 view .LVU12
  64 0020 436A     		ldr	r3, [r0, #36]
  65              	.LVL4:
 479:Drivers/lvgl/src/draw/sw/lv_draw_sw_transform.c **** 
  66              		.loc 1 479 9 view .LVU13
  67 0022 521A     		subs	r2, r2, r1
  68              	.LVL5:
 481:Drivers/lvgl/src/draw/sw/lv_draw_sw_transform.c ****         *xout = ((int32_t)(xin * t->zoom)) + (t->pivot_x_256);
  69              		.loc 1 481 5 is_stmt 1 view .LVU14
 482:Drivers/lvgl/src/draw/sw/lv_draw_sw_transform.c ****         *yout = ((int32_t)(yin * t->zoom)) + (t->pivot_y_256);
  70              		.loc 1 482 9 view .LVU15
  71              		.loc 1 483 9 view .LVU16
  72              		.loc 1 483 32 is_stmt 0 view .LVU17
  73 0024 8169     		ldr	r1, [r0, #24]
  74              		.loc 1 483 44 view .LVU18
  75 0026 01FB0232 		mla	r2, r1, r2, r3
  76              	.LVL6:
 474:Drivers/lvgl/src/draw/sw/lv_draw_sw_transform.c ****         return;
  77              		.loc 1 474 15 view .LVU19
  78 002a 039B     		ldr	r3, [sp, #12]
  79 002c 1A60     		str	r2, [r3]
 484:Drivers/lvgl/src/draw/sw/lv_draw_sw_transform.c ****     }
ARM GAS  /var/folders/lp/x54gwt890xv47sdkqj1k04q40000gn/T//cc93WRjx.s 			page 11


 485:Drivers/lvgl/src/draw/sw/lv_draw_sw_transform.c ****     else if(t->zoom == LV_IMG_ZOOM_NONE) {
 486:Drivers/lvgl/src/draw/sw/lv_draw_sw_transform.c ****         *xout = ((t->cosma * xin - t->sinma * yin) >> 2) + (t->pivot_x_256);
 487:Drivers/lvgl/src/draw/sw/lv_draw_sw_transform.c ****         *yout = ((t->sinma * xin + t->cosma * yin) >> 2) + (t->pivot_y_256);
 488:Drivers/lvgl/src/draw/sw/lv_draw_sw_transform.c ****     }
 489:Drivers/lvgl/src/draw/sw/lv_draw_sw_transform.c ****     else {
 490:Drivers/lvgl/src/draw/sw/lv_draw_sw_transform.c ****         *xout = (((t->cosma * xin - t->sinma * yin) * t->zoom) >> 10) + (t->pivot_x_256);
 491:Drivers/lvgl/src/draw/sw/lv_draw_sw_transform.c ****         *yout = (((t->sinma * xin + t->cosma * yin) * t->zoom) >> 10) + (t->pivot_y_256);
 492:Drivers/lvgl/src/draw/sw/lv_draw_sw_transform.c ****     }
 493:Drivers/lvgl/src/draw/sw/lv_draw_sw_transform.c **** }
  80              		.loc 1 493 1 view .LVU20
  81 002e 30BD     		pop	{r4, r5, pc}
  82              	.LVL7:
  83              	.L2:
 478:Drivers/lvgl/src/draw/sw/lv_draw_sw_transform.c ****     yin -= t->pivot.y;
  84              		.loc 1 478 5 is_stmt 1 view .LVU21
 478:Drivers/lvgl/src/draw/sw/lv_draw_sw_transform.c ****     yin -= t->pivot.y;
  85              		.loc 1 478 20 is_stmt 0 view .LVU22
  86 0030 B0F92850 		ldrsh	r5, [r0, #40]
 478:Drivers/lvgl/src/draw/sw/lv_draw_sw_transform.c ****     yin -= t->pivot.y;
  87              		.loc 1 478 9 view .LVU23
  88 0034 491B     		subs	r1, r1, r5
  89              	.LVL8:
 479:Drivers/lvgl/src/draw/sw/lv_draw_sw_transform.c **** 
  90              		.loc 1 479 5 is_stmt 1 view .LVU24
 479:Drivers/lvgl/src/draw/sw/lv_draw_sw_transform.c **** 
  91              		.loc 1 479 20 is_stmt 0 view .LVU25
  92 0036 B0F92A50 		ldrsh	r5, [r0, #42]
 479:Drivers/lvgl/src/draw/sw/lv_draw_sw_transform.c **** 
  93              		.loc 1 479 9 view .LVU26
  94 003a 521B     		subs	r2, r2, r5
  95              	.LVL9:
 481:Drivers/lvgl/src/draw/sw/lv_draw_sw_transform.c ****         *xout = ((int32_t)(xin * t->zoom)) + (t->pivot_x_256);
  96              		.loc 1 481 5 is_stmt 1 view .LVU27
 485:Drivers/lvgl/src/draw/sw/lv_draw_sw_transform.c ****         *xout = ((t->cosma * xin - t->sinma * yin) >> 2) + (t->pivot_x_256);
  97              		.loc 1 485 10 view .LVU28
 486:Drivers/lvgl/src/draw/sw/lv_draw_sw_transform.c ****         *yout = ((t->sinma * xin + t->cosma * yin) >> 2) + (t->pivot_y_256);
  98              		.loc 1 486 28 is_stmt 0 view .LVU29
  99 003c 4569     		ldr	r5, [r0, #20]
 100 003e 05FB01FE 		mul	lr, r5, r1
 486:Drivers/lvgl/src/draw/sw/lv_draw_sw_transform.c ****         *yout = ((t->sinma * xin + t->cosma * yin) >> 2) + (t->pivot_y_256);
 101              		.loc 1 486 45 view .LVU30
 102 0042 0569     		ldr	r5, [r0, #16]
 485:Drivers/lvgl/src/draw/sw/lv_draw_sw_transform.c ****         *xout = ((t->cosma * xin - t->sinma * yin) >> 2) + (t->pivot_x_256);
 103              		.loc 1 485 12 view .LVU31
 104 0044 B4F5807F 		cmp	r4, #256
 486:Drivers/lvgl/src/draw/sw/lv_draw_sw_transform.c ****         *yout = ((t->sinma * xin + t->cosma * yin) >> 2) + (t->pivot_y_256);
 105              		.loc 1 486 34 view .LVU32
 106 0048 05FB12EE 		mls	lr, r5, r2, lr
 482:Drivers/lvgl/src/draw/sw/lv_draw_sw_transform.c ****         *yout = ((int32_t)(yin * t->zoom)) + (t->pivot_y_256);
 107              		.loc 1 482 48 view .LVU33
 108 004c 056A     		ldr	r5, [r0, #32]
 485:Drivers/lvgl/src/draw/sw/lv_draw_sw_transform.c ****         *xout = ((t->cosma * xin - t->sinma * yin) >> 2) + (t->pivot_x_256);
 109              		.loc 1 485 12 view .LVU34
 110 004e 13D0     		beq	.L11
 490:Drivers/lvgl/src/draw/sw/lv_draw_sw_transform.c ****         *yout = (((t->sinma * xin + t->cosma * yin) * t->zoom) >> 10) + (t->pivot_y_256);
 111              		.loc 1 490 9 is_stmt 1 view .LVU35
 490:Drivers/lvgl/src/draw/sw/lv_draw_sw_transform.c ****         *yout = (((t->sinma * xin + t->cosma * yin) * t->zoom) >> 10) + (t->pivot_y_256);
ARM GAS  /var/folders/lp/x54gwt890xv47sdkqj1k04q40000gn/T//cc93WRjx.s 			page 12


 112              		.loc 1 490 53 is_stmt 0 view .LVU36
 113 0050 0EFB04FC 		mul	ip, lr, r4
 490:Drivers/lvgl/src/draw/sw/lv_draw_sw_transform.c ****         *yout = (((t->sinma * xin + t->cosma * yin) * t->zoom) >> 10) + (t->pivot_y_256);
 114              		.loc 1 490 71 view .LVU37
 115 0054 05EBAC25 		add	r5, r5, ip, asr #10
 490:Drivers/lvgl/src/draw/sw/lv_draw_sw_transform.c ****         *yout = (((t->sinma * xin + t->cosma * yin) * t->zoom) >> 10) + (t->pivot_y_256);
 116              		.loc 1 490 15 view .LVU38
 117 0058 1D60     		str	r5, [r3]
 491:Drivers/lvgl/src/draw/sw/lv_draw_sw_transform.c ****     }
 118              		.loc 1 491 9 is_stmt 1 view .LVU39
 491:Drivers/lvgl/src/draw/sw/lv_draw_sw_transform.c ****     }
 119              		.loc 1 491 46 is_stmt 0 view .LVU40
 120 005a D0E90443 		ldrd	r4, r3, [r0, #16]
 121              	.LVL10:
 491:Drivers/lvgl/src/draw/sw/lv_draw_sw_transform.c ****     }
 122              		.loc 1 491 46 view .LVU41
 123 005e 02FB03F3 		mul	r3, r2, r3
 491:Drivers/lvgl/src/draw/sw/lv_draw_sw_transform.c ****     }
 124              		.loc 1 491 35 view .LVU42
 125 0062 04FB0133 		mla	r3, r4, r1, r3
 491:Drivers/lvgl/src/draw/sw/lv_draw_sw_transform.c ****     }
 126              		.loc 1 491 53 view .LVU43
 127 0066 8169     		ldr	r1, [r0, #24]
 128              	.LVL11:
 491:Drivers/lvgl/src/draw/sw/lv_draw_sw_transform.c ****     }
 129              		.loc 1 491 71 view .LVU44
 130 0068 426A     		ldr	r2, [r0, #36]
 131              	.LVL12:
 491:Drivers/lvgl/src/draw/sw/lv_draw_sw_transform.c ****     }
 132              		.loc 1 491 53 view .LVU45
 133 006a 01FB03F3 		mul	r3, r1, r3
 491:Drivers/lvgl/src/draw/sw/lv_draw_sw_transform.c ****     }
 134              		.loc 1 491 71 view .LVU46
 135 006e 02EBA322 		add	r2, r2, r3, asr #10
 474:Drivers/lvgl/src/draw/sw/lv_draw_sw_transform.c ****         return;
 136              		.loc 1 474 15 view .LVU47
 137 0072 039B     		ldr	r3, [sp, #12]
 138 0074 1A60     		str	r2, [r3]
 139              		.loc 1 493 1 view .LVU48
 140 0076 30BD     		pop	{r4, r5, pc}
 141              	.LVL13:
 142              	.L11:
 486:Drivers/lvgl/src/draw/sw/lv_draw_sw_transform.c ****         *yout = ((t->sinma * xin + t->cosma * yin) >> 2) + (t->pivot_y_256);
 143              		.loc 1 486 9 is_stmt 1 view .LVU49
 486:Drivers/lvgl/src/draw/sw/lv_draw_sw_transform.c ****         *yout = ((t->sinma * xin + t->cosma * yin) >> 2) + (t->pivot_y_256);
 144              		.loc 1 486 58 is_stmt 0 view .LVU50
 145 0078 05EBAE05 		add	r5, r5, lr, asr #2
 486:Drivers/lvgl/src/draw/sw/lv_draw_sw_transform.c ****         *yout = ((t->sinma * xin + t->cosma * yin) >> 2) + (t->pivot_y_256);
 146              		.loc 1 486 15 view .LVU51
 147 007c 1D60     		str	r5, [r3]
 487:Drivers/lvgl/src/draw/sw/lv_draw_sw_transform.c ****     }
 148              		.loc 1 487 9 is_stmt 1 view .LVU52
 487:Drivers/lvgl/src/draw/sw/lv_draw_sw_transform.c ****     }
 149              		.loc 1 487 45 is_stmt 0 view .LVU53
 150 007e D0E90443 		ldrd	r4, r3, [r0, #16]
 151              	.LVL14:
 487:Drivers/lvgl/src/draw/sw/lv_draw_sw_transform.c ****     }
ARM GAS  /var/folders/lp/x54gwt890xv47sdkqj1k04q40000gn/T//cc93WRjx.s 			page 13


 152              		.loc 1 487 45 view .LVU54
 153 0082 02FB03F3 		mul	r3, r2, r3
 487:Drivers/lvgl/src/draw/sw/lv_draw_sw_transform.c ****     }
 154              		.loc 1 487 58 view .LVU55
 155 0086 426A     		ldr	r2, [r0, #36]
 156              	.LVL15:
 487:Drivers/lvgl/src/draw/sw/lv_draw_sw_transform.c ****     }
 157              		.loc 1 487 34 view .LVU56
 158 0088 04FB0133 		mla	r3, r4, r1, r3
 487:Drivers/lvgl/src/draw/sw/lv_draw_sw_transform.c ****     }
 159              		.loc 1 487 58 view .LVU57
 160 008c 02EBA302 		add	r2, r2, r3, asr #2
 474:Drivers/lvgl/src/draw/sw/lv_draw_sw_transform.c ****         return;
 161              		.loc 1 474 15 view .LVU58
 162 0090 039B     		ldr	r3, [sp, #12]
 163 0092 1A60     		str	r2, [r3]
 164              		.loc 1 493 1 view .LVU59
 165 0094 30BD     		pop	{r4, r5, pc}
 166              	.LVL16:
 167              	.L10:
 473:Drivers/lvgl/src/draw/sw/lv_draw_sw_transform.c ****         *yout = yin * 256;
 168              		.loc 1 473 9 is_stmt 1 view .LVU60
 473:Drivers/lvgl/src/draw/sw/lv_draw_sw_transform.c ****         *yout = yin * 256;
 169              		.loc 1 473 21 is_stmt 0 view .LVU61
 170 0096 0902     		lsls	r1, r1, #8
 171              	.LVL17:
 473:Drivers/lvgl/src/draw/sw/lv_draw_sw_transform.c ****         *yout = yin * 256;
 172              		.loc 1 473 15 view .LVU62
 173 0098 1960     		str	r1, [r3]
 474:Drivers/lvgl/src/draw/sw/lv_draw_sw_transform.c ****         return;
 174              		.loc 1 474 9 is_stmt 1 view .LVU63
 474:Drivers/lvgl/src/draw/sw/lv_draw_sw_transform.c ****         return;
 175              		.loc 1 474 15 is_stmt 0 view .LVU64
 176 009a 039B     		ldr	r3, [sp, #12]
 177              	.LVL18:
 474:Drivers/lvgl/src/draw/sw/lv_draw_sw_transform.c ****         return;
 178              		.loc 1 474 21 view .LVU65
 179 009c 1202     		lsls	r2, r2, #8
 180              	.LVL19:
 475:Drivers/lvgl/src/draw/sw/lv_draw_sw_transform.c ****     }
 181              		.loc 1 475 9 is_stmt 1 view .LVU66
 474:Drivers/lvgl/src/draw/sw/lv_draw_sw_transform.c ****         return;
 182              		.loc 1 474 15 is_stmt 0 view .LVU67
 183 009e 1A60     		str	r2, [r3]
 184              		.loc 1 493 1 view .LVU68
 185 00a0 30BD     		pop	{r4, r5, pc}
 186              		.loc 1 493 1 view .LVU69
 187              		.cfi_endproc
 188              	.LFE166:
 190 00a2 00BF     		.section	.text.lv_draw_sw_transform,"ax",%progbits
 191              		.align	1
 192              		.p2align 2,,3
 193              		.global	lv_draw_sw_transform
 194              		.syntax unified
 195              		.thumb
 196              		.thumb_func
 198              	lv_draw_sw_transform:
ARM GAS  /var/folders/lp/x54gwt890xv47sdkqj1k04q40000gn/T//cc93WRjx.s 			page 14


 199              	.LVL20:
 200              	.LFB161:
  83:Drivers/lvgl/src/draw/sw/lv_draw_sw_transform.c ****     LV_UNUSED(draw_ctx);
 201              		.loc 1 83 1 is_stmt 1 view -0
 202              		.cfi_startproc
 203              		@ args = 24, pretend = 0, frame = 168
 204              		@ frame_needed = 0, uses_anonymous_args = 0
  84:Drivers/lvgl/src/draw/sw/lv_draw_sw_transform.c **** 
 205              		.loc 1 84 5 view .LVU71
  86:Drivers/lvgl/src/draw/sw/lv_draw_sw_transform.c ****     tr_dsc.angle = -draw_dsc->angle;
 206              		.loc 1 86 5 view .LVU72
  87:Drivers/lvgl/src/draw/sw/lv_draw_sw_transform.c ****     tr_dsc.zoom = (256 * 256) / draw_dsc->zoom;
 207              		.loc 1 87 5 view .LVU73
  83:Drivers/lvgl/src/draw/sw/lv_draw_sw_transform.c ****     LV_UNUSED(draw_ctx);
 208              		.loc 1 83 1 is_stmt 0 view .LVU74
 209 0000 2DE9F04F 		push	{r4, r5, r6, r7, r8, r9, r10, fp, lr}
 210              		.cfi_def_cfa_offset 36
 211              		.cfi_offset 4, -36
 212              		.cfi_offset 5, -32
 213              		.cfi_offset 6, -28
 214              		.cfi_offset 7, -24
 215              		.cfi_offset 8, -20
 216              		.cfi_offset 9, -16
 217              		.cfi_offset 10, -12
 218              		.cfi_offset 11, -8
 219              		.cfi_offset 14, -4
 220 0004 ADB0     		sub	sp, sp, #180
 221              		.cfi_def_cfa_offset 216
  83:Drivers/lvgl/src/draw/sw/lv_draw_sw_transform.c ****     LV_UNUSED(draw_ctx);
 222              		.loc 1 83 1 view .LVU75
 223 0006 9946     		mov	r9, r3
  87:Drivers/lvgl/src/draw/sw/lv_draw_sw_transform.c ****     tr_dsc.zoom = (256 * 256) / draw_dsc->zoom;
 224              		.loc 1 87 29 view .LVU76
 225 0008 389E     		ldr	r6, [sp, #224]
  91:Drivers/lvgl/src/draw/sw/lv_draw_sw_transform.c ****     int32_t angle_high = angle_low + 1;
 226              		.loc 1 91 13 view .LVU77
 227 000a 664F     		ldr	r7, .L124
  87:Drivers/lvgl/src/draw/sw/lv_draw_sw_transform.c ****     tr_dsc.zoom = (256 * 256) / draw_dsc->zoom;
 228              		.loc 1 87 29 view .LVU78
 229 000c B6F90030 		ldrsh	r3, [r6]
 230              	.LVL21:
  83:Drivers/lvgl/src/draw/sw/lv_draw_sw_transform.c ****     LV_UNUSED(draw_ctx);
 231              		.loc 1 83 1 view .LVU79
 232 0010 BDF9D800 		ldrsh	r0, [sp, #216]
 233              	.LVL22:
  83:Drivers/lvgl/src/draw/sw/lv_draw_sw_transform.c ****     LV_UNUSED(draw_ctx);
 234              		.loc 1 83 1 view .LVU80
 235 0014 BDF9DC40 		ldrsh	r4, [sp, #220]
 236 0018 0690     		str	r0, [sp, #24]
  87:Drivers/lvgl/src/draw/sw/lv_draw_sw_transform.c ****     tr_dsc.zoom = (256 * 256) / draw_dsc->zoom;
 237              		.loc 1 87 20 view .LVU81
 238 001a 5D42     		rsbs	r5, r3, #0
  83:Drivers/lvgl/src/draw/sw/lv_draw_sw_transform.c ****     LV_UNUSED(draw_ctx);
 239              		.loc 1 83 1 view .LVU82
 240 001c 8B46     		mov	fp, r1
 241 001e CDE90712 		strd	r1, r2, [sp, #28]
  87:Drivers/lvgl/src/draw/sw/lv_draw_sw_transform.c ****     tr_dsc.zoom = (256 * 256) / draw_dsc->zoom;
ARM GAS  /var/folders/lp/x54gwt890xv47sdkqj1k04q40000gn/T//cc93WRjx.s 			page 15


 242              		.loc 1 87 18 view .LVU83
 243 0022 2895     		str	r5, [sp, #160]
  88:Drivers/lvgl/src/draw/sw/lv_draw_sw_transform.c ****     tr_dsc.pivot = draw_dsc->pivot;
 244              		.loc 1 88 5 is_stmt 1 view .LVU84
  91:Drivers/lvgl/src/draw/sw/lv_draw_sw_transform.c ****     int32_t angle_high = angle_low + 1;
 245              		.loc 1 91 13 is_stmt 0 view .LVU85
 246 0024 87FB0512 		smull	r1, r2, r7, r5
 247              	.LVL23:
  91:Drivers/lvgl/src/draw/sw/lv_draw_sw_transform.c ****     int32_t angle_high = angle_low + 1;
 248              		.loc 1 91 13 view .LVU86
 249 0028 ED17     		asrs	r5, r5, #31
 250 002a C5EBA205 		rsb	r5, r5, r2, asr #2
  93:Drivers/lvgl/src/draw/sw/lv_draw_sw_transform.c **** 
 251              		.loc 1 93 52 view .LVU87
 252 002e 6FF00906 		mvn	r6, #9
 253 0032 05FB06F6 		mul	r6, r5, r6
 254 0036 F61A     		subs	r6, r6, r3
  89:Drivers/lvgl/src/draw/sw/lv_draw_sw_transform.c **** 
 255              		.loc 1 89 18 view .LVU88
 256 0038 389B     		ldr	r3, [sp, #224]
  83:Drivers/lvgl/src/draw/sw/lv_draw_sw_transform.c ****     LV_UNUSED(draw_ctx);
 257              		.loc 1 83 1 view .LVU89
 258 003a 0994     		str	r4, [sp, #36]
  89:Drivers/lvgl/src/draw/sw/lv_draw_sw_transform.c **** 
 259              		.loc 1 89 18 view .LVU90
 260 003c 5B68     		ldr	r3, [r3, #4]
 261 003e 2B93     		str	r3, [sp, #172]
  88:Drivers/lvgl/src/draw/sw/lv_draw_sw_transform.c ****     tr_dsc.pivot = draw_dsc->pivot;
 262              		.loc 1 88 41 view .LVU91
 263 0040 389B     		ldr	r3, [sp, #224]
  95:Drivers/lvgl/src/draw/sw/lv_draw_sw_transform.c ****     int32_t s2 = lv_trigo_sin(angle_high);
 264              		.loc 1 95 18 view .LVU92
 265 0042 28B2     		sxth	r0, r5
  88:Drivers/lvgl/src/draw/sw/lv_draw_sw_transform.c ****     tr_dsc.pivot = draw_dsc->pivot;
 266              		.loc 1 88 41 view .LVU93
 267 0044 5A88     		ldrh	r2, [r3, #2]
  88:Drivers/lvgl/src/draw/sw/lv_draw_sw_transform.c ****     tr_dsc.pivot = draw_dsc->pivot;
 268              		.loc 1 88 31 view .LVU94
 269 0046 4FF48033 		mov	r3, #65536
 270 004a B3FBF2F3 		udiv	r3, r3, r2
  88:Drivers/lvgl/src/draw/sw/lv_draw_sw_transform.c ****     tr_dsc.pivot = draw_dsc->pivot;
 271              		.loc 1 88 17 view .LVU95
 272 004e 2793     		str	r3, [sp, #156]
  89:Drivers/lvgl/src/draw/sw/lv_draw_sw_transform.c **** 
 273              		.loc 1 89 5 is_stmt 1 view .LVU96
  91:Drivers/lvgl/src/draw/sw/lv_draw_sw_transform.c ****     int32_t angle_high = angle_low + 1;
 274              		.loc 1 91 5 view .LVU97
 275              	.LVL24:
  92:Drivers/lvgl/src/draw/sw/lv_draw_sw_transform.c ****     int32_t angle_rem = tr_dsc.angle  - (angle_low * 10);
 276              		.loc 1 92 5 view .LVU98
  83:Drivers/lvgl/src/draw/sw/lv_draw_sw_transform.c ****     LV_UNUSED(draw_ctx);
 277              		.loc 1 83 1 is_stmt 0 view .LVU99
 278 0050 9DF8E430 		ldrb	r3, [sp, #228]	@ zero_extendqisi2
 279 0054 0F93     		str	r3, [sp, #60]
  95:Drivers/lvgl/src/draw/sw/lv_draw_sw_transform.c ****     int32_t s2 = lv_trigo_sin(angle_high);
 280              		.loc 1 95 18 view .LVU100
 281 0056 FFF7FEFF 		bl	lv_trigo_sin
ARM GAS  /var/folders/lp/x54gwt890xv47sdkqj1k04q40000gn/T//cc93WRjx.s 			page 16


 282              	.LVL25:
  92:Drivers/lvgl/src/draw/sw/lv_draw_sw_transform.c ****     int32_t angle_rem = tr_dsc.angle  - (angle_low * 10);
 283              		.loc 1 92 13 view .LVU101
 284 005a 6C1C     		adds	r4, r5, #1
 285              	.LVL26:
  93:Drivers/lvgl/src/draw/sw/lv_draw_sw_transform.c **** 
 286              		.loc 1 93 5 is_stmt 1 view .LVU102
  95:Drivers/lvgl/src/draw/sw/lv_draw_sw_transform.c ****     int32_t s2 = lv_trigo_sin(angle_high);
 287              		.loc 1 95 5 view .LVU103
  95:Drivers/lvgl/src/draw/sw/lv_draw_sw_transform.c ****     int32_t s2 = lv_trigo_sin(angle_high);
 288              		.loc 1 95 18 is_stmt 0 view .LVU104
 289 005c 8246     		mov	r10, r0
 290              	.LVL27:
  96:Drivers/lvgl/src/draw/sw/lv_draw_sw_transform.c **** 
 291              		.loc 1 96 5 is_stmt 1 view .LVU105
  96:Drivers/lvgl/src/draw/sw/lv_draw_sw_transform.c **** 
 292              		.loc 1 96 18 is_stmt 0 view .LVU106
 293 005e 20B2     		sxth	r0, r4
 294 0060 FFF7FEFF 		bl	lv_trigo_sin
 295              	.LVL28:
 296 0064 0446     		mov	r4, r0
 297              	.LVL29:
  98:Drivers/lvgl/src/draw/sw/lv_draw_sw_transform.c ****     int32_t c2 = lv_trigo_sin(angle_high + 90);
 298              		.loc 1 98 5 is_stmt 1 view .LVU107
  98:Drivers/lvgl/src/draw/sw/lv_draw_sw_transform.c ****     int32_t c2 = lv_trigo_sin(angle_high + 90);
 299              		.loc 1 98 41 is_stmt 0 view .LVU108
 300 0066 05F15A00 		add	r0, r5, #90
  98:Drivers/lvgl/src/draw/sw/lv_draw_sw_transform.c ****     int32_t c2 = lv_trigo_sin(angle_high + 90);
 301              		.loc 1 98 18 view .LVU109
 302 006a 00B2     		sxth	r0, r0
 303 006c FFF7FEFF 		bl	lv_trigo_sin
 304              	.LVL30:
 305 0070 8046     		mov	r8, r0
 306              	.LVL31:
  99:Drivers/lvgl/src/draw/sw/lv_draw_sw_transform.c **** 
 307              		.loc 1 99 5 is_stmt 1 view .LVU110
  99:Drivers/lvgl/src/draw/sw/lv_draw_sw_transform.c **** 
 308              		.loc 1 99 42 is_stmt 0 view .LVU111
 309 0072 05F15B00 		add	r0, r5, #91
  99:Drivers/lvgl/src/draw/sw/lv_draw_sw_transform.c **** 
 310              		.loc 1 99 18 view .LVU112
 311 0076 00B2     		sxth	r0, r0
 312 0078 FFF7FEFF 		bl	lv_trigo_sin
 313              	.LVL32:
 101:Drivers/lvgl/src/draw/sw/lv_draw_sw_transform.c ****     tr_dsc.cosma = (c1 * (10 - angle_rem) + c2 * angle_rem) / 10;
 314              		.loc 1 101 5 is_stmt 1 view .LVU113
 101:Drivers/lvgl/src/draw/sw/lv_draw_sw_transform.c ****     tr_dsc.cosma = (c1 * (10 - angle_rem) + c2 * angle_rem) / 10;
 315              		.loc 1 101 48 is_stmt 0 view .LVU114
 316 007c 06FB04F4 		mul	r4, r6, r4
 317              	.LVL33:
 102:Drivers/lvgl/src/draw/sw/lv_draw_sw_transform.c ****     tr_dsc.sinma = tr_dsc.sinma >> (LV_TRIGO_SHIFT - 10);
 318              		.loc 1 102 48 view .LVU115
 319 0080 06FB00F3 		mul	r3, r6, r0
 320              	.LBB38:
 321              	.LBB39:
 322              		.file 2 "Drivers/lvgl/src/draw/sw/../../misc/lv_area.h"
   1:Drivers/lvgl/src/draw/sw/../../misc/lv_area.h **** /**
ARM GAS  /var/folders/lp/x54gwt890xv47sdkqj1k04q40000gn/T//cc93WRjx.s 			page 17


   2:Drivers/lvgl/src/draw/sw/../../misc/lv_area.h ****  * @file lv_area.h
   3:Drivers/lvgl/src/draw/sw/../../misc/lv_area.h ****  *
   4:Drivers/lvgl/src/draw/sw/../../misc/lv_area.h ****  */
   5:Drivers/lvgl/src/draw/sw/../../misc/lv_area.h **** 
   6:Drivers/lvgl/src/draw/sw/../../misc/lv_area.h **** #ifndef LV_AREA_H
   7:Drivers/lvgl/src/draw/sw/../../misc/lv_area.h **** #define LV_AREA_H
   8:Drivers/lvgl/src/draw/sw/../../misc/lv_area.h **** 
   9:Drivers/lvgl/src/draw/sw/../../misc/lv_area.h **** #ifdef __cplusplus
  10:Drivers/lvgl/src/draw/sw/../../misc/lv_area.h **** extern "C" {
  11:Drivers/lvgl/src/draw/sw/../../misc/lv_area.h **** #endif
  12:Drivers/lvgl/src/draw/sw/../../misc/lv_area.h **** 
  13:Drivers/lvgl/src/draw/sw/../../misc/lv_area.h **** /*********************
  14:Drivers/lvgl/src/draw/sw/../../misc/lv_area.h ****  *      INCLUDES
  15:Drivers/lvgl/src/draw/sw/../../misc/lv_area.h ****  *********************/
  16:Drivers/lvgl/src/draw/sw/../../misc/lv_area.h **** #include "../lv_conf_internal.h"
  17:Drivers/lvgl/src/draw/sw/../../misc/lv_area.h **** #include <stdbool.h>
  18:Drivers/lvgl/src/draw/sw/../../misc/lv_area.h **** #include <stdint.h>
  19:Drivers/lvgl/src/draw/sw/../../misc/lv_area.h **** 
  20:Drivers/lvgl/src/draw/sw/../../misc/lv_area.h **** /*********************
  21:Drivers/lvgl/src/draw/sw/../../misc/lv_area.h ****  *      DEFINES
  22:Drivers/lvgl/src/draw/sw/../../misc/lv_area.h ****  *********************/
  23:Drivers/lvgl/src/draw/sw/../../misc/lv_area.h **** 
  24:Drivers/lvgl/src/draw/sw/../../misc/lv_area.h **** #if LV_USE_LARGE_COORD
  25:Drivers/lvgl/src/draw/sw/../../misc/lv_area.h **** typedef int32_t lv_coord_t;
  26:Drivers/lvgl/src/draw/sw/../../misc/lv_area.h **** #else
  27:Drivers/lvgl/src/draw/sw/../../misc/lv_area.h **** typedef int16_t lv_coord_t;
  28:Drivers/lvgl/src/draw/sw/../../misc/lv_area.h **** #endif
  29:Drivers/lvgl/src/draw/sw/../../misc/lv_area.h **** 
  30:Drivers/lvgl/src/draw/sw/../../misc/lv_area.h **** /**********************
  31:Drivers/lvgl/src/draw/sw/../../misc/lv_area.h ****  *      TYPEDEFS
  32:Drivers/lvgl/src/draw/sw/../../misc/lv_area.h ****  **********************/
  33:Drivers/lvgl/src/draw/sw/../../misc/lv_area.h **** 
  34:Drivers/lvgl/src/draw/sw/../../misc/lv_area.h **** /**
  35:Drivers/lvgl/src/draw/sw/../../misc/lv_area.h ****  * Represents a point on the screen.
  36:Drivers/lvgl/src/draw/sw/../../misc/lv_area.h ****  */
  37:Drivers/lvgl/src/draw/sw/../../misc/lv_area.h **** typedef struct {
  38:Drivers/lvgl/src/draw/sw/../../misc/lv_area.h ****     lv_coord_t x;
  39:Drivers/lvgl/src/draw/sw/../../misc/lv_area.h ****     lv_coord_t y;
  40:Drivers/lvgl/src/draw/sw/../../misc/lv_area.h **** } lv_point_t;
  41:Drivers/lvgl/src/draw/sw/../../misc/lv_area.h **** 
  42:Drivers/lvgl/src/draw/sw/../../misc/lv_area.h **** /** Represents an area of the screen.*/
  43:Drivers/lvgl/src/draw/sw/../../misc/lv_area.h **** typedef struct {
  44:Drivers/lvgl/src/draw/sw/../../misc/lv_area.h ****     lv_coord_t x1;
  45:Drivers/lvgl/src/draw/sw/../../misc/lv_area.h ****     lv_coord_t y1;
  46:Drivers/lvgl/src/draw/sw/../../misc/lv_area.h ****     lv_coord_t x2;
  47:Drivers/lvgl/src/draw/sw/../../misc/lv_area.h ****     lv_coord_t y2;
  48:Drivers/lvgl/src/draw/sw/../../misc/lv_area.h **** } lv_area_t;
  49:Drivers/lvgl/src/draw/sw/../../misc/lv_area.h **** 
  50:Drivers/lvgl/src/draw/sw/../../misc/lv_area.h **** /** Alignments*/
  51:Drivers/lvgl/src/draw/sw/../../misc/lv_area.h **** enum {
  52:Drivers/lvgl/src/draw/sw/../../misc/lv_area.h ****     LV_ALIGN_DEFAULT = 0,
  53:Drivers/lvgl/src/draw/sw/../../misc/lv_area.h ****     LV_ALIGN_TOP_LEFT,
  54:Drivers/lvgl/src/draw/sw/../../misc/lv_area.h ****     LV_ALIGN_TOP_MID,
  55:Drivers/lvgl/src/draw/sw/../../misc/lv_area.h ****     LV_ALIGN_TOP_RIGHT,
  56:Drivers/lvgl/src/draw/sw/../../misc/lv_area.h ****     LV_ALIGN_BOTTOM_LEFT,
  57:Drivers/lvgl/src/draw/sw/../../misc/lv_area.h ****     LV_ALIGN_BOTTOM_MID,
  58:Drivers/lvgl/src/draw/sw/../../misc/lv_area.h ****     LV_ALIGN_BOTTOM_RIGHT,
ARM GAS  /var/folders/lp/x54gwt890xv47sdkqj1k04q40000gn/T//cc93WRjx.s 			page 18


  59:Drivers/lvgl/src/draw/sw/../../misc/lv_area.h ****     LV_ALIGN_LEFT_MID,
  60:Drivers/lvgl/src/draw/sw/../../misc/lv_area.h ****     LV_ALIGN_RIGHT_MID,
  61:Drivers/lvgl/src/draw/sw/../../misc/lv_area.h ****     LV_ALIGN_CENTER,
  62:Drivers/lvgl/src/draw/sw/../../misc/lv_area.h **** 
  63:Drivers/lvgl/src/draw/sw/../../misc/lv_area.h ****     LV_ALIGN_OUT_TOP_LEFT,
  64:Drivers/lvgl/src/draw/sw/../../misc/lv_area.h ****     LV_ALIGN_OUT_TOP_MID,
  65:Drivers/lvgl/src/draw/sw/../../misc/lv_area.h ****     LV_ALIGN_OUT_TOP_RIGHT,
  66:Drivers/lvgl/src/draw/sw/../../misc/lv_area.h ****     LV_ALIGN_OUT_BOTTOM_LEFT,
  67:Drivers/lvgl/src/draw/sw/../../misc/lv_area.h ****     LV_ALIGN_OUT_BOTTOM_MID,
  68:Drivers/lvgl/src/draw/sw/../../misc/lv_area.h ****     LV_ALIGN_OUT_BOTTOM_RIGHT,
  69:Drivers/lvgl/src/draw/sw/../../misc/lv_area.h ****     LV_ALIGN_OUT_LEFT_TOP,
  70:Drivers/lvgl/src/draw/sw/../../misc/lv_area.h ****     LV_ALIGN_OUT_LEFT_MID,
  71:Drivers/lvgl/src/draw/sw/../../misc/lv_area.h ****     LV_ALIGN_OUT_LEFT_BOTTOM,
  72:Drivers/lvgl/src/draw/sw/../../misc/lv_area.h ****     LV_ALIGN_OUT_RIGHT_TOP,
  73:Drivers/lvgl/src/draw/sw/../../misc/lv_area.h ****     LV_ALIGN_OUT_RIGHT_MID,
  74:Drivers/lvgl/src/draw/sw/../../misc/lv_area.h ****     LV_ALIGN_OUT_RIGHT_BOTTOM,
  75:Drivers/lvgl/src/draw/sw/../../misc/lv_area.h **** };
  76:Drivers/lvgl/src/draw/sw/../../misc/lv_area.h **** typedef uint8_t lv_align_t;
  77:Drivers/lvgl/src/draw/sw/../../misc/lv_area.h **** 
  78:Drivers/lvgl/src/draw/sw/../../misc/lv_area.h **** enum {
  79:Drivers/lvgl/src/draw/sw/../../misc/lv_area.h ****     LV_DIR_NONE     = 0x00,
  80:Drivers/lvgl/src/draw/sw/../../misc/lv_area.h ****     LV_DIR_LEFT     = (1 << 0),
  81:Drivers/lvgl/src/draw/sw/../../misc/lv_area.h ****     LV_DIR_RIGHT    = (1 << 1),
  82:Drivers/lvgl/src/draw/sw/../../misc/lv_area.h ****     LV_DIR_TOP      = (1 << 2),
  83:Drivers/lvgl/src/draw/sw/../../misc/lv_area.h ****     LV_DIR_BOTTOM   = (1 << 3),
  84:Drivers/lvgl/src/draw/sw/../../misc/lv_area.h ****     LV_DIR_HOR      = LV_DIR_LEFT | LV_DIR_RIGHT,
  85:Drivers/lvgl/src/draw/sw/../../misc/lv_area.h ****     LV_DIR_VER      = LV_DIR_TOP | LV_DIR_BOTTOM,
  86:Drivers/lvgl/src/draw/sw/../../misc/lv_area.h ****     LV_DIR_ALL      = LV_DIR_HOR | LV_DIR_VER,
  87:Drivers/lvgl/src/draw/sw/../../misc/lv_area.h **** };
  88:Drivers/lvgl/src/draw/sw/../../misc/lv_area.h **** 
  89:Drivers/lvgl/src/draw/sw/../../misc/lv_area.h **** typedef uint8_t lv_dir_t;
  90:Drivers/lvgl/src/draw/sw/../../misc/lv_area.h **** 
  91:Drivers/lvgl/src/draw/sw/../../misc/lv_area.h **** /**********************
  92:Drivers/lvgl/src/draw/sw/../../misc/lv_area.h ****  * GLOBAL PROTOTYPES
  93:Drivers/lvgl/src/draw/sw/../../misc/lv_area.h ****  **********************/
  94:Drivers/lvgl/src/draw/sw/../../misc/lv_area.h **** 
  95:Drivers/lvgl/src/draw/sw/../../misc/lv_area.h **** /**
  96:Drivers/lvgl/src/draw/sw/../../misc/lv_area.h ****  * Initialize an area
  97:Drivers/lvgl/src/draw/sw/../../misc/lv_area.h ****  * @param area_p pointer to an area
  98:Drivers/lvgl/src/draw/sw/../../misc/lv_area.h ****  * @param x1 left coordinate of the area
  99:Drivers/lvgl/src/draw/sw/../../misc/lv_area.h ****  * @param y1 top coordinate of the area
 100:Drivers/lvgl/src/draw/sw/../../misc/lv_area.h ****  * @param x2 right coordinate of the area
 101:Drivers/lvgl/src/draw/sw/../../misc/lv_area.h ****  * @param y2 bottom coordinate of the area
 102:Drivers/lvgl/src/draw/sw/../../misc/lv_area.h ****  */
 103:Drivers/lvgl/src/draw/sw/../../misc/lv_area.h **** void lv_area_set(lv_area_t * area_p, lv_coord_t x1, lv_coord_t y1, lv_coord_t x2, lv_coord_t y2);
 104:Drivers/lvgl/src/draw/sw/../../misc/lv_area.h **** 
 105:Drivers/lvgl/src/draw/sw/../../misc/lv_area.h **** /**
 106:Drivers/lvgl/src/draw/sw/../../misc/lv_area.h ****  * Copy an area
 107:Drivers/lvgl/src/draw/sw/../../misc/lv_area.h ****  * @param dest pointer to the destination area
 108:Drivers/lvgl/src/draw/sw/../../misc/lv_area.h ****  * @param src pointer to the source area
 109:Drivers/lvgl/src/draw/sw/../../misc/lv_area.h ****  */
 110:Drivers/lvgl/src/draw/sw/../../misc/lv_area.h **** inline static void lv_area_copy(lv_area_t * dest, const lv_area_t * src)
 111:Drivers/lvgl/src/draw/sw/../../misc/lv_area.h **** {
 112:Drivers/lvgl/src/draw/sw/../../misc/lv_area.h ****     dest->x1 = src->x1;
 113:Drivers/lvgl/src/draw/sw/../../misc/lv_area.h ****     dest->y1 = src->y1;
 114:Drivers/lvgl/src/draw/sw/../../misc/lv_area.h ****     dest->x2 = src->x2;
 115:Drivers/lvgl/src/draw/sw/../../misc/lv_area.h ****     dest->y2 = src->y2;
ARM GAS  /var/folders/lp/x54gwt890xv47sdkqj1k04q40000gn/T//cc93WRjx.s 			page 19


 116:Drivers/lvgl/src/draw/sw/../../misc/lv_area.h **** }
 117:Drivers/lvgl/src/draw/sw/../../misc/lv_area.h **** 
 118:Drivers/lvgl/src/draw/sw/../../misc/lv_area.h **** /**
 119:Drivers/lvgl/src/draw/sw/../../misc/lv_area.h ****  * Get the width of an area
 120:Drivers/lvgl/src/draw/sw/../../misc/lv_area.h ****  * @param area_p pointer to an area
 121:Drivers/lvgl/src/draw/sw/../../misc/lv_area.h ****  * @return the width of the area (if x1 == x2 -> width = 1)
 122:Drivers/lvgl/src/draw/sw/../../misc/lv_area.h ****  */
 123:Drivers/lvgl/src/draw/sw/../../misc/lv_area.h **** static inline lv_coord_t lv_area_get_width(const lv_area_t * area_p)
 124:Drivers/lvgl/src/draw/sw/../../misc/lv_area.h **** {
 125:Drivers/lvgl/src/draw/sw/../../misc/lv_area.h ****     return (lv_coord_t)(area_p->x2 - area_p->x1 + 1);
 126:Drivers/lvgl/src/draw/sw/../../misc/lv_area.h **** }
 127:Drivers/lvgl/src/draw/sw/../../misc/lv_area.h **** 
 128:Drivers/lvgl/src/draw/sw/../../misc/lv_area.h **** /**
 129:Drivers/lvgl/src/draw/sw/../../misc/lv_area.h ****  * Get the height of an area
 130:Drivers/lvgl/src/draw/sw/../../misc/lv_area.h ****  * @param area_p pointer to an area
 131:Drivers/lvgl/src/draw/sw/../../misc/lv_area.h ****  * @return the height of the area (if y1 == y2 -> height = 1)
 132:Drivers/lvgl/src/draw/sw/../../misc/lv_area.h ****  */
 133:Drivers/lvgl/src/draw/sw/../../misc/lv_area.h **** static inline lv_coord_t lv_area_get_height(const lv_area_t * area_p)
 134:Drivers/lvgl/src/draw/sw/../../misc/lv_area.h **** {
 135:Drivers/lvgl/src/draw/sw/../../misc/lv_area.h ****     return (lv_coord_t)(area_p->y2 - area_p->y1 + 1);
 323              		.loc 2 135 49 view .LVU116
 324 0084 BBF80610 		ldrh	r1, [fp, #6]
 325              	.LBE39:
 326              	.LBE38:
 327              	.LBB42:
 328              	.LBB43:
 125:Drivers/lvgl/src/draw/sw/../../misc/lv_area.h **** }
 329              		.loc 2 125 49 view .LVU117
 330 0088 BBF80400 		ldrh	r0, [fp, #4]
 331              	.LVL34:
 125:Drivers/lvgl/src/draw/sw/../../misc/lv_area.h **** }
 332              		.loc 2 125 49 view .LVU118
 333              	.LBE43:
 334              	.LBE42:
 101:Drivers/lvgl/src/draw/sw/lv_draw_sw_transform.c ****     tr_dsc.cosma = (c1 * (10 - angle_rem) + c2 * angle_rem) / 10;
 335              		.loc 1 101 30 view .LVU119
 336 008c C6F10A06 		rsb	r6, r6, #10
 337              	.LVL35:
 102:Drivers/lvgl/src/draw/sw/lv_draw_sw_transform.c ****     tr_dsc.sinma = tr_dsc.sinma >> (LV_TRIGO_SHIFT - 10);
 338              		.loc 1 102 5 is_stmt 1 view .LVU120
 103:Drivers/lvgl/src/draw/sw/lv_draw_sw_transform.c ****     tr_dsc.cosma = tr_dsc.cosma >> (LV_TRIGO_SHIFT - 10);
 339              		.loc 1 103 5 view .LVU121
 101:Drivers/lvgl/src/draw/sw/lv_draw_sw_transform.c ****     tr_dsc.cosma = (c1 * (10 - angle_rem) + c2 * angle_rem) / 10;
 340              		.loc 1 101 43 is_stmt 0 view .LVU122
 341 0090 06FB0A42 		mla	r2, r6, r10, r4
 342              	.LBB51:
 343              	.LBB40:
 344              		.loc 2 135 44 view .LVU123
 345 0094 BBF90240 		ldrsh	r4, [fp, #2]
 346              		.loc 2 135 49 view .LVU124
 347 0098 0131     		adds	r1, r1, #1
 348 009a 091B     		subs	r1, r1, r4
 349              		.loc 2 135 12 view .LVU125
 350 009c 09B2     		sxth	r1, r1
 351 009e 0A91     		str	r1, [sp, #40]
 352              	.LBE40:
 353              	.LBE51:
ARM GAS  /var/folders/lp/x54gwt890xv47sdkqj1k04q40000gn/T//cc93WRjx.s 			page 20


 105:Drivers/lvgl/src/draw/sw/lv_draw_sw_transform.c ****     tr_dsc.pivot_y_256 = tr_dsc.pivot.y * 256;
 354              		.loc 1 105 41 view .LVU126
 355 00a0 BDF9AC10 		ldrsh	r1, [sp, #172]
 356 00a4 0902     		lsls	r1, r1, #8
 105:Drivers/lvgl/src/draw/sw/lv_draw_sw_transform.c ****     tr_dsc.pivot_y_256 = tr_dsc.pivot.y * 256;
 357              		.loc 1 105 24 view .LVU127
 358 00a6 2991     		str	r1, [sp, #164]
 106:Drivers/lvgl/src/draw/sw/lv_draw_sw_transform.c **** 
 359              		.loc 1 106 41 view .LVU128
 360 00a8 BDF9AE10 		ldrsh	r1, [sp, #174]
 102:Drivers/lvgl/src/draw/sw/lv_draw_sw_transform.c ****     tr_dsc.sinma = tr_dsc.sinma >> (LV_TRIGO_SHIFT - 10);
 361              		.loc 1 102 43 view .LVU129
 362 00ac 06FB0833 		mla	r3, r6, r8, r3
 106:Drivers/lvgl/src/draw/sw/lv_draw_sw_transform.c **** 
 363              		.loc 1 106 41 view .LVU130
 364 00b0 0902     		lsls	r1, r1, #8
 101:Drivers/lvgl/src/draw/sw/lv_draw_sw_transform.c ****     tr_dsc.cosma = (c1 * (10 - angle_rem) + c2 * angle_rem) / 10;
 365              		.loc 1 101 61 view .LVU131
 366 00b2 87FB0265 		smull	r6, r5, r7, r2
 367              	.LVL36:
 101:Drivers/lvgl/src/draw/sw/lv_draw_sw_transform.c ****     tr_dsc.cosma = (c1 * (10 - angle_rem) + c2 * angle_rem) / 10;
 368              		.loc 1 101 61 view .LVU132
 369 00b6 D217     		asrs	r2, r2, #31
 370 00b8 C2EBA502 		rsb	r2, r2, r5, asr #2
 106:Drivers/lvgl/src/draw/sw/lv_draw_sw_transform.c **** 
 371              		.loc 1 106 24 view .LVU133
 372 00bc 2A91     		str	r1, [sp, #168]
 102:Drivers/lvgl/src/draw/sw/lv_draw_sw_transform.c ****     tr_dsc.sinma = tr_dsc.sinma >> (LV_TRIGO_SHIFT - 10);
 373              		.loc 1 102 61 view .LVU134
 374 00be 87FB0357 		smull	r5, r7, r7, r3
 375              	.LBB52:
 376              	.LBB44:
 125:Drivers/lvgl/src/draw/sw/../../misc/lv_area.h **** }
 377              		.loc 2 125 44 view .LVU135
 378 00c2 BBF90010 		ldrsh	r1, [fp]
 379              	.LBE44:
 380              	.LBE52:
 102:Drivers/lvgl/src/draw/sw/lv_draw_sw_transform.c ****     tr_dsc.sinma = tr_dsc.sinma >> (LV_TRIGO_SHIFT - 10);
 381              		.loc 1 102 61 view .LVU136
 382 00c6 DB17     		asrs	r3, r3, #31
 383              	.LBB53:
 384              	.LBB45:
 125:Drivers/lvgl/src/draw/sw/../../misc/lv_area.h **** }
 385              		.loc 2 125 49 view .LVU137
 386 00c8 0130     		adds	r0, r0, #1
 387              	.LBE45:
 388              	.LBE53:
 102:Drivers/lvgl/src/draw/sw/lv_draw_sw_transform.c ****     tr_dsc.sinma = tr_dsc.sinma >> (LV_TRIGO_SHIFT - 10);
 389              		.loc 1 102 61 view .LVU138
 390 00ca C3EBA703 		rsb	r3, r3, r7, asr #2
 391              	.LBB54:
 392              	.LBB46:
 125:Drivers/lvgl/src/draw/sw/../../misc/lv_area.h **** }
 393              		.loc 2 125 49 view .LVU139
 394 00ce 401A     		subs	r0, r0, r1
 395              	.LBE46:
 396              	.LBE54:
ARM GAS  /var/folders/lp/x54gwt890xv47sdkqj1k04q40000gn/T//cc93WRjx.s 			page 21


 104:Drivers/lvgl/src/draw/sw/lv_draw_sw_transform.c ****     tr_dsc.pivot_x_256 = tr_dsc.pivot.x * 256;
 397              		.loc 1 104 33 view .LVU140
 398 00d0 5B11     		asrs	r3, r3, #5
 399              	.LBB55:
 400              	.LBB47:
 125:Drivers/lvgl/src/draw/sw/../../misc/lv_area.h **** }
 401              		.loc 2 125 12 view .LVU141
 402 00d2 05B2     		sxth	r5, r0
 403              	.LBE47:
 404              	.LBE55:
 104:Drivers/lvgl/src/draw/sw/lv_draw_sw_transform.c ****     tr_dsc.pivot_x_256 = tr_dsc.pivot.x * 256;
 405              		.loc 1 104 18 view .LVU142
 406 00d4 2693     		str	r3, [sp, #152]
 407              	.LBB56:
 408              	.LBB48:
 125:Drivers/lvgl/src/draw/sw/../../misc/lv_area.h **** }
 409              		.loc 2 125 49 view .LVU143
 410 00d6 83B2     		uxth	r3, r0
 411              	.LBE48:
 412              	.LBE56:
 111:Drivers/lvgl/src/draw/sw/lv_draw_sw_transform.c ****         int32_t xs1_ups, ys1_ups, xs2_ups, ys2_ups;
 413              		.loc 1 111 18 discriminator 1 view .LVU144
 414 00d8 0A98     		ldr	r0, [sp, #40]
 415              	.LBB57:
 416              	.LBB49:
 125:Drivers/lvgl/src/draw/sw/../../misc/lv_area.h **** }
 417              		.loc 2 125 12 view .LVU145
 418 00da 0495     		str	r5, [sp, #16]
 419              	.LBE49:
 420              	.LBE57:
 103:Drivers/lvgl/src/draw/sw/lv_draw_sw_transform.c ****     tr_dsc.cosma = tr_dsc.cosma >> (LV_TRIGO_SHIFT - 10);
 421              		.loc 1 103 33 view .LVU146
 422 00dc 5211     		asrs	r2, r2, #5
 111:Drivers/lvgl/src/draw/sw/lv_draw_sw_transform.c ****         int32_t xs1_ups, ys1_ups, xs2_ups, ys2_ups;
 423              		.loc 1 111 18 discriminator 1 view .LVU147
 424 00de 0028     		cmp	r0, #0
 103:Drivers/lvgl/src/draw/sw/lv_draw_sw_transform.c ****     tr_dsc.cosma = tr_dsc.cosma >> (LV_TRIGO_SHIFT - 10);
 425              		.loc 1 103 18 view .LVU148
 426 00e0 2592     		str	r2, [sp, #148]
 104:Drivers/lvgl/src/draw/sw/lv_draw_sw_transform.c ****     tr_dsc.pivot_x_256 = tr_dsc.pivot.x * 256;
 427              		.loc 1 104 5 is_stmt 1 view .LVU149
 105:Drivers/lvgl/src/draw/sw/lv_draw_sw_transform.c ****     tr_dsc.pivot_y_256 = tr_dsc.pivot.y * 256;
 428              		.loc 1 105 5 view .LVU150
 106:Drivers/lvgl/src/draw/sw/lv_draw_sw_transform.c **** 
 429              		.loc 1 106 5 view .LVU151
 108:Drivers/lvgl/src/draw/sw/lv_draw_sw_transform.c ****     lv_coord_t dest_h = lv_area_get_height(dest_area);
 430              		.loc 1 108 5 view .LVU152
 431              	.LVL37:
 432              	.LBB58:
 433              	.LBI42:
 123:Drivers/lvgl/src/draw/sw/../../misc/lv_area.h **** {
 434              		.loc 2 123 26 view .LVU153
 435              	.LBB50:
 125:Drivers/lvgl/src/draw/sw/../../misc/lv_area.h **** }
 436              		.loc 2 125 5 view .LVU154
 125:Drivers/lvgl/src/draw/sw/../../misc/lv_area.h **** }
 437              		.loc 2 125 5 is_stmt 0 view .LVU155
ARM GAS  /var/folders/lp/x54gwt890xv47sdkqj1k04q40000gn/T//cc93WRjx.s 			page 22


 438              	.LBE50:
 439              	.LBE58:
 109:Drivers/lvgl/src/draw/sw/lv_draw_sw_transform.c ****     lv_coord_t y;
 440              		.loc 1 109 5 is_stmt 1 view .LVU156
 441              	.LBB59:
 442              	.LBI38:
 133:Drivers/lvgl/src/draw/sw/../../misc/lv_area.h **** {
 443              		.loc 2 133 26 view .LVU157
 444              	.LBB41:
 445              		.loc 2 135 5 view .LVU158
 446              		.loc 2 135 5 is_stmt 0 view .LVU159
 447              	.LBE41:
 448              	.LBE59:
 110:Drivers/lvgl/src/draw/sw/lv_draw_sw_transform.c ****     for(y = 0; y < dest_h; y++) {
 449              		.loc 1 110 5 is_stmt 1 view .LVU160
 111:Drivers/lvgl/src/draw/sw/lv_draw_sw_transform.c ****         int32_t xs1_ups, ys1_ups, xs2_ups, ys2_ups;
 450              		.loc 1 111 5 view .LVU161
 111:Drivers/lvgl/src/draw/sw/lv_draw_sw_transform.c ****         int32_t xs1_ups, ys1_ups, xs2_ups, ys2_ups;
 451              		.loc 1 111 18 discriminator 1 view .LVU162
 452 00e2 40F32382 		ble	.L12
 453 00e6 3B9F     		ldr	r7, [sp, #236]
 454              	.LBB60:
 455              	.LBB61:
 456              	.LBB62:
 457              	.LBB63:
 458              	.LBB64:
 259:Drivers/lvgl/src/draw/sw/lv_draw_sw_transform.c ****             a_tmp += ys_int * src_stride + xs_int;
 459              		.loc 1 259 55 is_stmt 0 view .LVU163
 460 00e8 0698     		ldr	r0, [sp, #24]
 261:Drivers/lvgl/src/draw/sw/lv_draw_sw_transform.c ****         }
 461              		.loc 1 261 23 view .LVU164
 462 00ea 089A     		ldr	r2, [sp, #32]
 463 00ec CDF80890 		str	r9, [sp, #8]
 464 00f0 5E1E     		subs	r6, r3, #1
 465 00f2 7B1C     		adds	r3, r7, #1
 466 00f4 13FA86F8 		uxtah	r8, r3, r6
 467              	.LVL38:
 259:Drivers/lvgl/src/draw/sw/lv_draw_sw_transform.c ****             a_tmp += ys_int * src_stride + xs_int;
 468              		.loc 1 259 55 view .LVU165
 469 00f8 099B     		ldr	r3, [sp, #36]
 470 00fa 1396     		str	r6, [sp, #76]
 471 00fc 00FB03F3 		mul	r3, r0, r3
 261:Drivers/lvgl/src/draw/sw/lv_draw_sw_transform.c ****         }
 472              		.loc 1 261 23 view .LVU166
 473 0100 02EB4302 		add	r2, r2, r3, lsl #1
 474 0104 0F9B     		ldr	r3, [sp, #60]
 475 0106 1A92     		str	r2, [sp, #104]
 476              	.LBE64:
 477              	.LBE63:
 478              	.LBE62:
 479              	.LBE61:
 151:Drivers/lvgl/src/draw/sw/lv_draw_sw_transform.c ****         abuf += dest_w;
 480              		.loc 1 151 14 view .LVU167
 481 0108 6A00     		lsls	r2, r5, #1
 482 010a 0C92     		str	r2, [sp, #48]
 483 010c 043B     		subs	r3, r3, #4
 484 010e 0022     		movs	r2, #0
ARM GAS  /var/folders/lp/x54gwt890xv47sdkqj1k04q40000gn/T//cc93WRjx.s 			page 23


 485 0110 C246     		mov	r10, r8
 486              	.LVL39:
 151:Drivers/lvgl/src/draw/sw/lv_draw_sw_transform.c ****         abuf += dest_w;
 487              		.loc 1 151 14 view .LVU168
 488 0112 DDF8E880 		ldr	r8, [sp, #232]
 489 0116 0392     		str	r2, [sp, #12]
 490 0118 0D93     		str	r3, [sp, #52]
 491 011a 3E46     		mov	r6, r7
 492              	.LVL40:
 493              	.L70:
 112:Drivers/lvgl/src/draw/sw/lv_draw_sw_transform.c **** 
 494              		.loc 1 112 9 is_stmt 1 view .LVU169
 114:Drivers/lvgl/src/draw/sw/lv_draw_sw_transform.c ****         transform_point_upscaled(&tr_dsc, dest_area->x2, dest_area->y1 + y, &xs2_ups, &ys2_ups);
 495              		.loc 1 114 9 view .LVU170
 114:Drivers/lvgl/src/draw/sw/lv_draw_sw_transform.c ****         transform_point_upscaled(&tr_dsc, dest_area->x2, dest_area->y1 + y, &xs2_ups, &ys2_ups);
 496              		.loc 1 114 72 is_stmt 0 view .LVU171
 497 011c 039B     		ldr	r3, [sp, #12]
 498 011e 1C44     		add	r4, r4, r3
 114:Drivers/lvgl/src/draw/sw/lv_draw_sw_transform.c ****         transform_point_upscaled(&tr_dsc, dest_area->x2, dest_area->y1 + y, &xs2_ups, &ys2_ups);
 499              		.loc 1 114 9 view .LVU172
 500 0120 1EAB     		add	r3, sp, #120
 501 0122 21A8     		add	r0, sp, #132
 502 0124 0093     		str	r3, [sp]
 503 0126 2246     		mov	r2, r4
 504 0128 1DAB     		add	r3, sp, #116
 505 012a FFF7FEFF 		bl	transform_point_upscaled
 506              	.LVL41:
 115:Drivers/lvgl/src/draw/sw/lv_draw_sw_transform.c **** 
 507              		.loc 1 115 9 is_stmt 1 view .LVU173
 508 012e 20AB     		add	r3, sp, #128
 509 0130 0093     		str	r3, [sp]
 510 0132 079B     		ldr	r3, [sp, #28]
 511 0134 2246     		mov	r2, r4
 512 0136 B3F90410 		ldrsh	r1, [r3, #4]
 513 013a 1FAB     		add	r3, sp, #124
 514 013c FFF7FEFF 		bl	transform_point_upscaled
 515              	.LVL42:
 117:Drivers/lvgl/src/draw/sw/lv_draw_sw_transform.c ****         int32_t ys_diff = ys2_ups - ys1_ups;
 516              		.loc 1 117 9 view .LVU174
 121:Drivers/lvgl/src/draw/sw/lv_draw_sw_transform.c ****             xs_step_256 = (256 * xs_diff) / (dest_w - 1);
 517              		.loc 1 121 11 is_stmt 0 view .LVU175
 518 0140 0499     		ldr	r1, [sp, #16]
 117:Drivers/lvgl/src/draw/sw/lv_draw_sw_transform.c ****         int32_t ys_diff = ys2_ups - ys1_ups;
 519              		.loc 1 117 35 view .LVU176
 520 0142 1F98     		ldr	r0, [sp, #124]
 521 0144 1D9F     		ldr	r7, [sp, #116]
 522              	.LVL43:
 118:Drivers/lvgl/src/draw/sw/lv_draw_sw_transform.c ****         int32_t xs_step_256 = 0;
 523              		.loc 1 118 9 is_stmt 1 view .LVU177
 118:Drivers/lvgl/src/draw/sw/lv_draw_sw_transform.c ****         int32_t xs_step_256 = 0;
 524              		.loc 1 118 35 is_stmt 0 view .LVU178
 525 0146 209B     		ldr	r3, [sp, #128]
 526 0148 1E9A     		ldr	r2, [sp, #120]
 527              	.LVL44:
 119:Drivers/lvgl/src/draw/sw/lv_draw_sw_transform.c ****         int32_t ys_step_256 = 0;
 528              		.loc 1 119 9 is_stmt 1 view .LVU179
 120:Drivers/lvgl/src/draw/sw/lv_draw_sw_transform.c ****         if(dest_w > 1) {
ARM GAS  /var/folders/lp/x54gwt890xv47sdkqj1k04q40000gn/T//cc93WRjx.s 			page 24


 529              		.loc 1 120 9 view .LVU180
 121:Drivers/lvgl/src/draw/sw/lv_draw_sw_transform.c ****             xs_step_256 = (256 * xs_diff) / (dest_w - 1);
 530              		.loc 1 121 9 view .LVU181
 121:Drivers/lvgl/src/draw/sw/lv_draw_sw_transform.c ****             xs_step_256 = (256 * xs_diff) / (dest_w - 1);
 531              		.loc 1 121 11 is_stmt 0 view .LVU182
 532 014a 0129     		cmp	r1, #1
 533 014c 40F36F81 		ble	.L73
 122:Drivers/lvgl/src/draw/sw/lv_draw_sw_transform.c ****             ys_step_256 = (256 * ys_diff) / (dest_w - 1);
 534              		.loc 1 122 13 is_stmt 1 view .LVU183
 117:Drivers/lvgl/src/draw/sw/lv_draw_sw_transform.c ****         int32_t ys_diff = ys2_ups - ys1_ups;
 535              		.loc 1 117 17 is_stmt 0 view .LVU184
 536 0150 C01B     		subs	r0, r0, r7
 537              	.LVL45:
 118:Drivers/lvgl/src/draw/sw/lv_draw_sw_transform.c ****         int32_t xs_step_256 = 0;
 538              		.loc 1 118 17 view .LVU185
 539 0152 9B1A     		subs	r3, r3, r2
 540              	.LVL46:
 122:Drivers/lvgl/src/draw/sw/lv_draw_sw_transform.c ****             ys_step_256 = (256 * ys_diff) / (dest_w - 1);
 541              		.loc 1 122 25 view .LVU186
 542 0154 1399     		ldr	r1, [sp, #76]
 122:Drivers/lvgl/src/draw/sw/lv_draw_sw_transform.c ****             ys_step_256 = (256 * ys_diff) / (dest_w - 1);
 543              		.loc 1 122 32 view .LVU187
 544 0156 0002     		lsls	r0, r0, #8
 545              	.LVL47:
 123:Drivers/lvgl/src/draw/sw/lv_draw_sw_transform.c ****         }
 546              		.loc 1 123 32 view .LVU188
 547 0158 1B02     		lsls	r3, r3, #8
 548              	.LVL48:
 122:Drivers/lvgl/src/draw/sw/lv_draw_sw_transform.c ****             ys_step_256 = (256 * ys_diff) / (dest_w - 1);
 549              		.loc 1 122 25 view .LVU189
 550 015a 90FBF1FB 		sdiv	fp, r0, r1
 551              	.LVL49:
 123:Drivers/lvgl/src/draw/sw/lv_draw_sw_transform.c ****         }
 552              		.loc 1 123 13 is_stmt 1 view .LVU190
 123:Drivers/lvgl/src/draw/sw/lv_draw_sw_transform.c ****         }
 553              		.loc 1 123 25 is_stmt 0 view .LVU191
 554 015e 93FBF1F9 		sdiv	r9, r3, r1
 555              	.LVL50:
 556              	.L14:
 125:Drivers/lvgl/src/draw/sw/lv_draw_sw_transform.c ****         int32_t ys_ups = ys1_ups + 0x80;
 557              		.loc 1 125 9 is_stmt 1 view .LVU192
 126:Drivers/lvgl/src/draw/sw/lv_draw_sw_transform.c **** 
 558              		.loc 1 126 17 is_stmt 0 view .LVU193
 559 0162 02F18003 		add	r3, r2, #128
 560 0166 0593     		str	r3, [sp, #20]
 128:Drivers/lvgl/src/draw/sw/lv_draw_sw_transform.c ****             switch(cf) {
 561              		.loc 1 128 32 view .LVU194
 562 0168 389B     		ldr	r3, [sp, #224]
 129:Drivers/lvgl/src/draw/sw/lv_draw_sw_transform.c ****                 case LV_IMG_CF_TRUE_COLOR_ALPHA:
 563              		.loc 1 129 13 view .LVU195
 564 016a 0D9A     		ldr	r2, [sp, #52]
 565              	.LVL51:
 128:Drivers/lvgl/src/draw/sw/lv_draw_sw_transform.c ****             switch(cf) {
 566              		.loc 1 128 32 view .LVU196
 567 016c 1B7D     		ldrb	r3, [r3, #20]	@ zero_extendqisi2
 128:Drivers/lvgl/src/draw/sw/lv_draw_sw_transform.c ****             switch(cf) {
 568              		.loc 1 128 11 view .LVU197
ARM GAS  /var/folders/lp/x54gwt890xv47sdkqj1k04q40000gn/T//cc93WRjx.s 			page 25


 569 016e D907     		lsls	r1, r3, #31
 125:Drivers/lvgl/src/draw/sw/lv_draw_sw_transform.c ****         int32_t ys_ups = ys1_ups + 0x80;
 570              		.loc 1 125 17 view .LVU198
 571 0170 07F18007 		add	r7, r7, #128
 572              	.LVL52:
 126:Drivers/lvgl/src/draw/sw/lv_draw_sw_transform.c **** 
 573              		.loc 1 126 9 is_stmt 1 view .LVU199
 128:Drivers/lvgl/src/draw/sw/lv_draw_sw_transform.c ****             switch(cf) {
 574              		.loc 1 128 9 view .LVU200
 128:Drivers/lvgl/src/draw/sw/lv_draw_sw_transform.c ****             switch(cf) {
 575              		.loc 1 128 11 is_stmt 0 view .LVU201
 576 0174 00F15F81 		bmi	.L15
 129:Drivers/lvgl/src/draw/sw/lv_draw_sw_transform.c ****                 case LV_IMG_CF_TRUE_COLOR_ALPHA:
 577              		.loc 1 129 13 is_stmt 1 view .LVU202
 578 0178 102A     		cmp	r2, #16
 579 017a 00F29B80 		bhi	.L16
 580 017e DFE812F0 		tbh	[pc, r2, lsl #1]
 581              	.L18:
 582 0182 AC00     		.2byte	(.L19-.L18)/2
 583 0184 ED00     		.2byte	(.L20-.L18)/2
 584 0186 AC00     		.2byte	(.L19-.L18)/2
 585 0188 9900     		.2byte	(.L16-.L18)/2
 586 018a 9900     		.2byte	(.L16-.L18)/2
 587 018c 9900     		.2byte	(.L16-.L18)/2
 588 018e 9900     		.2byte	(.L16-.L18)/2
 589 0190 9900     		.2byte	(.L16-.L18)/2
 590 0192 9900     		.2byte	(.L16-.L18)/2
 591 0194 9900     		.2byte	(.L16-.L18)/2
 592 0196 9900     		.2byte	(.L16-.L18)/2
 593 0198 9900     		.2byte	(.L16-.L18)/2
 594 019a 9900     		.2byte	(.L16-.L18)/2
 595 019c 9900     		.2byte	(.L16-.L18)/2
 596 019e 9900     		.2byte	(.L16-.L18)/2
 597 01a0 9900     		.2byte	(.L16-.L18)/2
 598 01a2 2201     		.2byte	(.L17-.L18)/2
 599              		.p2align 1
 600              	.L125:
 601              		.align	2
 602              	.L124:
 603 01a4 67666666 		.word	1717986919
 604              	.LVL53:
 605              	.L32:
 606              	.LBB70:
 607              	.LBB71:
 295:Drivers/lvgl/src/draw/sw/lv_draw_sw_transform.c ****             px_size = sizeof(lv_color_t);
 608              		.loc 1 295 13 view .LVU203
 296:Drivers/lvgl/src/draw/sw/lv_draw_sw_transform.c ****             break;
 609              		.loc 1 296 13 view .LVU204
 297:Drivers/lvgl/src/draw/sw/lv_draw_sw_transform.c **** #endif
 610              		.loc 1 297 13 view .LVU205
 276:Drivers/lvgl/src/draw/sw/lv_draw_sw_transform.c ****     switch(cf) {
 611              		.loc 1 276 16 is_stmt 0 view .LVU206
 612 01a8 0023     		movs	r3, #0
 613              	.LVL54:
 614              	.L110:
 276:Drivers/lvgl/src/draw/sw/lv_draw_sw_transform.c ****     switch(cf) {
 615              		.loc 1 276 16 view .LVU207
ARM GAS  /var/folders/lp/x54gwt890xv47sdkqj1k04q40000gn/T//cc93WRjx.s 			page 26


 616 01aa 1893     		str	r3, [sp, #96]
 296:Drivers/lvgl/src/draw/sw/lv_draw_sw_transform.c ****             break;
 617              		.loc 1 296 21 view .LVU208
 618 01ac 0223     		movs	r3, #2
 619 01ae 1093     		str	r3, [sp, #64]
 295:Drivers/lvgl/src/draw/sw/lv_draw_sw_transform.c ****             px_size = sizeof(lv_color_t);
 620              		.loc 1 295 23 view .LVU209
 621 01b0 0123     		movs	r3, #1
 622 01b2 1993     		str	r3, [sp, #100]
 623              	.LVL55:
 624              	.L35:
 303:Drivers/lvgl/src/draw/sw/lv_draw_sw_transform.c ****     for(x = 0; x < x_end; x++) {
 625              		.loc 1 303 5 is_stmt 1 view .LVU210
 304:Drivers/lvgl/src/draw/sw/lv_draw_sw_transform.c ****         xs_ups = xs_ups_start + ((xs_step * x) >> 8);
 626              		.loc 1 304 5 view .LVU211
 304:Drivers/lvgl/src/draw/sw/lv_draw_sw_transform.c ****         xs_ups = xs_ups_start + ((xs_step * x) >> 8);
 627              		.loc 1 304 18 discriminator 1 view .LVU212
 628 01b4 049B     		ldr	r3, [sp, #16]
 629 01b6 002B     		cmp	r3, #0
 630 01b8 7CDD     		ble	.L16
 631              	.LBB72:
 632              	.LBB73:
 456:Drivers/lvgl/src/draw/sw/lv_draw_sw_transform.c ****                 abuf[x] = (a * (0xFF - xs_fract)) >> 8;
 633              		.loc 1 456 64 is_stmt 0 discriminator 3 view .LVU213
 634 01ba 0299     		ldr	r1, [sp, #8]
 635 01bc CDF8E880 		str	r8, [sp, #232]
 636              	.LBE73:
 637              	.LBE72:
 304:Drivers/lvgl/src/draw/sw/lv_draw_sw_transform.c ****         xs_ups = xs_ups_start + ((xs_step * x) >> 8);
 638              		.loc 1 304 18 discriminator 1 view .LVU214
 639 01c0 4FF0000C 		mov	ip, #0
 640              	.LBB130:
 641              	.LBB74:
 456:Drivers/lvgl/src/draw/sw/lv_draw_sw_transform.c ****                 abuf[x] = (a * (0xFF - xs_fract)) >> 8;
 642              		.loc 1 456 64 discriminator 3 view .LVU215
 643 01c4 0139     		subs	r1, r1, #1
 644 01c6 C646     		mov	lr, r8
 645 01c8 3346     		mov	r3, r6
 646              	.LBE74:
 647              	.LBE130:
 304:Drivers/lvgl/src/draw/sw/lv_draw_sw_transform.c ****         xs_ups = xs_ups_start + ((xs_step * x) >> 8);
 648              		.loc 1 304 18 discriminator 1 view .LVU216
 649 01ca 6246     		mov	r2, ip
 650              	.LBB131:
 651              	.LBB75:
 456:Drivers/lvgl/src/draw/sw/lv_draw_sw_transform.c ****                 abuf[x] = (a * (0xFF - xs_fract)) >> 8;
 652              		.loc 1 456 64 discriminator 3 view .LVU217
 653 01cc 1791     		str	r1, [sp, #92]
 654 01ce B846     		mov	r8, r7
 655              	.LVL56:
 456:Drivers/lvgl/src/draw/sw/lv_draw_sw_transform.c ****                 abuf[x] = (a * (0xFF - xs_fract)) >> 8;
 656              		.loc 1 456 64 discriminator 3 view .LVU218
 657 01d0 3B96     		str	r6, [sp, #236]
 658              	.LVL57:
 659              	.L69:
 456:Drivers/lvgl/src/draw/sw/lv_draw_sw_transform.c ****                 abuf[x] = (a * (0xFF - xs_fract)) >> 8;
 660              		.loc 1 456 64 discriminator 3 view .LVU219
ARM GAS  /var/folders/lp/x54gwt890xv47sdkqj1k04q40000gn/T//cc93WRjx.s 			page 27


 661              	.LBE75:
 305:Drivers/lvgl/src/draw/sw/lv_draw_sw_transform.c ****         ys_ups = ys_ups_start + ((ys_step * x) >> 8);
 662              		.loc 1 305 9 is_stmt 1 view .LVU220
 305:Drivers/lvgl/src/draw/sw/lv_draw_sw_transform.c ****         ys_ups = ys_ups_start + ((ys_step * x) >> 8);
 663              		.loc 1 305 16 is_stmt 0 view .LVU221
 664 01d2 08EB2224 		add	r4, r8, r2, asr #8
 665              	.LVL58:
 306:Drivers/lvgl/src/draw/sw/lv_draw_sw_transform.c **** 
 666              		.loc 1 306 9 is_stmt 1 view .LVU222
 308:Drivers/lvgl/src/draw/sw/lv_draw_sw_transform.c ****         int32_t ys_int = ys_ups >> 8;
 667              		.loc 1 308 9 view .LVU223
 309:Drivers/lvgl/src/draw/sw/lv_draw_sw_transform.c **** 
 668              		.loc 1 309 9 view .LVU224
 312:Drivers/lvgl/src/draw/sw/lv_draw_sw_transform.c ****             abuf[x] = 0x00;
 669              		.loc 1 312 9 view .LVU225
 312:Drivers/lvgl/src/draw/sw/lv_draw_sw_transform.c ****             abuf[x] = 0x00;
 670              		.loc 1 312 11 is_stmt 0 view .LVU226
 671 01d6 2112     		asrs	r1, r4, #8
 672              	.LVL59:
 312:Drivers/lvgl/src/draw/sw/lv_draw_sw_transform.c ****             abuf[x] = 0x00;
 673              		.loc 1 312 11 view .LVU227
 674 01d8 5FD4     		bmi	.L68
 312:Drivers/lvgl/src/draw/sw/lv_draw_sw_transform.c ****             abuf[x] = 0x00;
 675              		.loc 1 312 23 discriminator 2 view .LVU228
 676 01da 0298     		ldr	r0, [sp, #8]
 677 01dc 8142     		cmp	r1, r0
 678 01de 5CDA     		bge	.L68
 306:Drivers/lvgl/src/draw/sw/lv_draw_sw_transform.c **** 
 679              		.loc 1 306 16 view .LVU229
 680 01e0 0598     		ldr	r0, [sp, #20]
 681 01e2 00EB2C25 		add	r5, r0, ip, asr #8
 312:Drivers/lvgl/src/draw/sw/lv_draw_sw_transform.c ****             abuf[x] = 0x00;
 682              		.loc 1 312 42 discriminator 4 view .LVU230
 683 01e6 2812     		asrs	r0, r5, #8
 684 01e8 57D4     		bmi	.L68
 312:Drivers/lvgl/src/draw/sw/lv_draw_sw_transform.c ****             abuf[x] = 0x00;
 685              		.loc 1 312 56 discriminator 6 view .LVU231
 686 01ea 069E     		ldr	r6, [sp, #24]
 687 01ec B042     		cmp	r0, r6
 688 01ee 54DA     		bge	.L68
 319:Drivers/lvgl/src/draw/sw/lv_draw_sw_transform.c ****         int32_t ys_fract = ys_ups & 0xFF;
 689              		.loc 1 319 9 is_stmt 1 view .LVU232
 319:Drivers/lvgl/src/draw/sw/lv_draw_sw_transform.c ****         int32_t ys_fract = ys_ups & 0xFF;
 690              		.loc 1 319 17 is_stmt 0 view .LVU233
 691 01f0 E6B2     		uxtb	r6, r4
 692              	.LVL60:
 320:Drivers/lvgl/src/draw/sw/lv_draw_sw_transform.c **** 
 693              		.loc 1 320 9 is_stmt 1 view .LVU234
 324:Drivers/lvgl/src/draw/sw/lv_draw_sw_transform.c ****             x_next = -1;
 694              		.loc 1 324 11 is_stmt 0 view .LVU235
 695 01f2 2406     		lsls	r4, r4, #24
 696              	.LVL61:
 320:Drivers/lvgl/src/draw/sw/lv_draw_sw_transform.c **** 
 697              		.loc 1 320 17 view .LVU236
 698 01f4 EFB2     		uxtb	r7, r5
 699              	.LVL62:
 322:Drivers/lvgl/src/draw/sw/lv_draw_sw_transform.c ****         int32_t y_next;
ARM GAS  /var/folders/lp/x54gwt890xv47sdkqj1k04q40000gn/T//cc93WRjx.s 			page 28


 700              		.loc 1 322 9 is_stmt 1 view .LVU237
 323:Drivers/lvgl/src/draw/sw/lv_draw_sw_transform.c ****         if(xs_fract < 0x80) {
 701              		.loc 1 323 9 view .LVU238
 324:Drivers/lvgl/src/draw/sw/lv_draw_sw_transform.c ****             x_next = -1;
 702              		.loc 1 324 9 view .LVU239
 324:Drivers/lvgl/src/draw/sw/lv_draw_sw_transform.c ****             x_next = -1;
 703              		.loc 1 324 11 is_stmt 0 view .LVU240
 704 01f6 00F15881 		bmi	.L40
 325:Drivers/lvgl/src/draw/sw/lv_draw_sw_transform.c ****             xs_fract = (0x7F - xs_fract) * 2;
 705              		.loc 1 325 13 is_stmt 1 view .LVU241
 706              	.LVL63:
 326:Drivers/lvgl/src/draw/sw/lv_draw_sw_transform.c ****         }
 707              		.loc 1 326 13 view .LVU242
 326:Drivers/lvgl/src/draw/sw/lv_draw_sw_transform.c ****         }
 708              		.loc 1 326 30 is_stmt 0 view .LVU243
 709 01fa C6F17F06 		rsb	r6, r6, #127
 710              	.LVL64:
 326:Drivers/lvgl/src/draw/sw/lv_draw_sw_transform.c ****         }
 711              		.loc 1 326 22 view .LVU244
 712 01fe 7400     		lsls	r4, r6, #1
 713 0200 1294     		str	r4, [sp, #72]
 714              	.LVL65:
 332:Drivers/lvgl/src/draw/sw/lv_draw_sw_transform.c ****             y_next = -1;
 715              		.loc 1 332 9 is_stmt 1 view .LVU245
 325:Drivers/lvgl/src/draw/sw/lv_draw_sw_transform.c ****             xs_fract = (0x7F - xs_fract) * 2;
 716              		.loc 1 325 20 is_stmt 0 view .LVU246
 717 0202 4FF0FF34 		mov	r4, #-1
 718              	.LVL66:
 325:Drivers/lvgl/src/draw/sw/lv_draw_sw_transform.c ****             xs_fract = (0x7F - xs_fract) * 2;
 719              		.loc 1 325 20 view .LVU247
 720 0206 0B94     		str	r4, [sp, #44]
 721              	.LVL67:
 332:Drivers/lvgl/src/draw/sw/lv_draw_sw_transform.c ****             y_next = -1;
 722              		.loc 1 332 11 view .LVU248
 723 0208 2C06     		lsls	r4, r5, #24
 724 020a 00F15681 		bmi	.L42
 725              	.LVL68:
 726              	.L120:
 333:Drivers/lvgl/src/draw/sw/lv_draw_sw_transform.c ****             ys_fract = (0x7F - ys_fract) * 2;
 727              		.loc 1 333 13 is_stmt 1 view .LVU249
 334:Drivers/lvgl/src/draw/sw/lv_draw_sw_transform.c ****         }
 728              		.loc 1 334 13 view .LVU250
 334:Drivers/lvgl/src/draw/sw/lv_draw_sw_transform.c ****         }
 729              		.loc 1 334 30 is_stmt 0 view .LVU251
 730 020e C7F17F07 		rsb	r7, r7, #127
 731              	.LVL69:
 334:Drivers/lvgl/src/draw/sw/lv_draw_sw_transform.c ****         }
 732              		.loc 1 334 22 view .LVU252
 733 0212 7C00     		lsls	r4, r7, #1
 734 0214 1494     		str	r4, [sp, #80]
 735              	.LVL70:
 333:Drivers/lvgl/src/draw/sw/lv_draw_sw_transform.c ****             ys_fract = (0x7F - ys_fract) * 2;
 736              		.loc 1 333 20 view .LVU253
 737 0216 4FF0FF34 		mov	r4, #-1
 738              	.LVL71:
 333:Drivers/lvgl/src/draw/sw/lv_draw_sw_transform.c ****             ys_fract = (0x7F - ys_fract) * 2;
 739              		.loc 1 333 20 view .LVU254
ARM GAS  /var/folders/lp/x54gwt890xv47sdkqj1k04q40000gn/T//cc93WRjx.s 			page 29


 740 021a 0E94     		str	r4, [sp, #56]
 741              	.LVL72:
 742              	.L43:
 341:Drivers/lvgl/src/draw/sw/lv_draw_sw_transform.c ****         src_tmp += (ys_int * src_stride * px_size) + xs_int * px_size;
 743              		.loc 1 341 9 is_stmt 1 view .LVU255
 342:Drivers/lvgl/src/draw/sw/lv_draw_sw_transform.c **** 
 744              		.loc 1 342 9 view .LVU256
 342:Drivers/lvgl/src/draw/sw/lv_draw_sw_transform.c **** 
 745              		.loc 1 342 28 is_stmt 0 view .LVU257
 746 021c 099C     		ldr	r4, [sp, #36]
 342:Drivers/lvgl/src/draw/sw/lv_draw_sw_transform.c **** 
 747              		.loc 1 342 52 view .LVU258
 748 021e 109D     		ldr	r5, [sp, #64]
 342:Drivers/lvgl/src/draw/sw/lv_draw_sw_transform.c **** 
 749              		.loc 1 342 17 view .LVU259
 750 0220 089F     		ldr	r7, [sp, #32]
 342:Drivers/lvgl/src/draw/sw/lv_draw_sw_transform.c **** 
 751              		.loc 1 342 28 view .LVU260
 752 0222 04FB00F4 		mul	r4, r4, r0
 753 0226 1594     		str	r4, [sp, #84]
 342:Drivers/lvgl/src/draw/sw/lv_draw_sw_transform.c **** 
 754              		.loc 1 342 52 view .LVU261
 755 0228 0C19     		adds	r4, r1, r4
 756 022a 1694     		str	r4, [sp, #88]
 757 022c 05FB04F4 		mul	r4, r5, r4
 758              	.LVL73:
 345:Drivers/lvgl/src/draw/sw/lv_draw_sw_transform.c ****            xs_int + x_next <= src_w - 1 &&
 759              		.loc 1 345 9 is_stmt 1 view .LVU262
 345:Drivers/lvgl/src/draw/sw/lv_draw_sw_transform.c ****            xs_int + x_next <= src_w - 1 &&
 760              		.loc 1 345 19 is_stmt 0 view .LVU263
 761 0230 0B9D     		ldr	r5, [sp, #44]
 342:Drivers/lvgl/src/draw/sw/lv_draw_sw_transform.c **** 
 762              		.loc 1 342 17 view .LVU264
 763 0232 2744     		add	r7, r7, r4
 764              	.LVL74:
 345:Drivers/lvgl/src/draw/sw/lv_draw_sw_transform.c ****            xs_int + x_next <= src_w - 1 &&
 765              		.loc 1 345 19 view .LVU265
 766 0234 4D19     		adds	r5, r1, r5
 342:Drivers/lvgl/src/draw/sw/lv_draw_sw_transform.c **** 
 767              		.loc 1 342 17 view .LVU266
 768 0236 1197     		str	r7, [sp, #68]
 345:Drivers/lvgl/src/draw/sw/lv_draw_sw_transform.c ****            xs_int + x_next <= src_w - 1 &&
 769              		.loc 1 345 11 view .LVU267
 770 0238 6F1C     		adds	r7, r5, #1
 771              	.LVL75:
 345:Drivers/lvgl/src/draw/sw/lv_draw_sw_transform.c ****            xs_int + x_next <= src_w - 1 &&
 772              		.loc 1 345 11 view .LVU268
 773 023a 00F04481 		beq	.L44
 345:Drivers/lvgl/src/draw/sw/lv_draw_sw_transform.c ****            xs_int + x_next <= src_w - 1 &&
 774              		.loc 1 345 33 discriminator 1 view .LVU269
 775 023e 029F     		ldr	r7, [sp, #8]
 776 0240 AF42     		cmp	r7, r5
 777 0242 08DD     		ble	.L45
 347:Drivers/lvgl/src/draw/sw/lv_draw_sw_transform.c ****            ys_int + y_next <= src_h - 1) {
 778              		.loc 1 347 19 view .LVU270
 779 0244 0E9F     		ldr	r7, [sp, #56]
 780 0246 C719     		adds	r7, r0, r7
ARM GAS  /var/folders/lp/x54gwt890xv47sdkqj1k04q40000gn/T//cc93WRjx.s 			page 30


 346:Drivers/lvgl/src/draw/sw/lv_draw_sw_transform.c ****            ys_int + y_next >= 0 &&
 781              		.loc 1 346 41 view .LVU271
 782 0248 7E1C     		adds	r6, r7, #1
 347:Drivers/lvgl/src/draw/sw/lv_draw_sw_transform.c ****            ys_int + y_next <= src_h - 1) {
 783              		.loc 1 347 19 view .LVU272
 784 024a 1B97     		str	r7, [sp, #108]
 346:Drivers/lvgl/src/draw/sw/lv_draw_sw_transform.c ****            ys_int + y_next >= 0 &&
 785              		.loc 1 346 41 view .LVU273
 786 024c 03D0     		beq	.L45
 347:Drivers/lvgl/src/draw/sw/lv_draw_sw_transform.c ****            ys_int + y_next <= src_h - 1) {
 787              		.loc 1 347 33 view .LVU274
 788 024e 069E     		ldr	r6, [sp, #24]
 789 0250 BE42     		cmp	r6, r7
 790 0252 00F38581 		bgt	.L115
 791              	.L45:
 792              	.LBB76:
 435:Drivers/lvgl/src/draw/sw/lv_draw_sw_transform.c **** #elif LV_COLOR_DEPTH == 32
 793              		.loc 1 435 13 is_stmt 1 view .LVU275
 435:Drivers/lvgl/src/draw/sw/lv_draw_sw_transform.c **** #elif LV_COLOR_DEPTH == 32
 794              		.loc 1 435 39 is_stmt 0 view .LVU276
 795 0256 089F     		ldr	r7, [sp, #32]
 796 0258 3C5B     		ldrh	r4, [r7, r4]	@ unaligned
 440:Drivers/lvgl/src/draw/sw/lv_draw_sw_transform.c ****                 case LV_IMG_CF_TRUE_COLOR_ALPHA:
 797              		.loc 1 440 13 view .LVU277
 798 025a 0F9F     		ldr	r7, [sp, #60]
 435:Drivers/lvgl/src/draw/sw/lv_draw_sw_transform.c **** #elif LV_COLOR_DEPTH == 32
 799              		.loc 1 435 26 view .LVU278
 800 025c AEF80040 		strh	r4, [lr]	@ movhi
 439:Drivers/lvgl/src/draw/sw/lv_draw_sw_transform.c ****             switch(cf) {
 801              		.loc 1 439 13 is_stmt 1 view .LVU279
 440:Drivers/lvgl/src/draw/sw/lv_draw_sw_transform.c ****                 case LV_IMG_CF_TRUE_COLOR_ALPHA:
 802              		.loc 1 440 13 view .LVU280
 803 0260 062F     		cmp	r7, #6
 804 0262 00F06F81 		beq	.L57
 805 0266 142F     		cmp	r7, #20
 806 0268 00F04C81 		beq	.L58
 807 026c 052F     		cmp	r7, #5
 808 026e 40F06081 		bne	.L59
 442:Drivers/lvgl/src/draw/sw/lv_draw_sw_transform.c ****                     break;
 809              		.loc 1 442 21 view .LVU281
 442:Drivers/lvgl/src/draw/sw/lv_draw_sw_transform.c ****                     break;
 810              		.loc 1 442 23 is_stmt 0 view .LVU282
 811 0272 119C     		ldr	r4, [sp, #68]
 812 0274 A478     		ldrb	r4, [r4, #2]	@ zero_extendqisi2
 813              	.LVL76:
 443:Drivers/lvgl/src/draw/sw/lv_draw_sw_transform.c ****                 case LV_IMG_CF_TRUE_COLOR_CHROMA_KEYED:
 814              		.loc 1 443 21 is_stmt 1 view .LVU283
 456:Drivers/lvgl/src/draw/sw/lv_draw_sw_transform.c ****                 abuf[x] = (a * (0xFF - xs_fract)) >> 8;
 815              		.loc 1 456 13 view .LVU284
 456:Drivers/lvgl/src/draw/sw/lv_draw_sw_transform.c ****                 abuf[x] = (a * (0xFF - xs_fract)) >> 8;
 816              		.loc 1 456 15 is_stmt 0 view .LVU285
 817 0276 0029     		cmp	r1, #0
 818 0278 00F05381 		beq	.L60
 819              	.LVL77:
 820              	.L61:
 456:Drivers/lvgl/src/draw/sw/lv_draw_sw_transform.c ****                 abuf[x] = (a * (0xFF - xs_fract)) >> 8;
 821              		.loc 1 456 44 discriminator 3 view .LVU286
ARM GAS  /var/folders/lp/x54gwt890xv47sdkqj1k04q40000gn/T//cc93WRjx.s 			page 31


 822 027c 179D     		ldr	r5, [sp, #92]
 823 027e A942     		cmp	r1, r5
 824 0280 00F00281 		beq	.L116
 825              	.LVL78:
 826              	.L65:
 459:Drivers/lvgl/src/draw/sw/lv_draw_sw_transform.c ****                 abuf[x] = (a * (0xFF - ys_fract)) >> 8;
 827              		.loc 1 459 18 is_stmt 1 view .LVU287
 459:Drivers/lvgl/src/draw/sw/lv_draw_sw_transform.c ****                 abuf[x] = (a * (0xFF - ys_fract)) >> 8;
 828              		.loc 1 459 20 is_stmt 0 view .LVU288
 829 0284 0028     		cmp	r0, #0
 830 0286 40F02C81 		bne	.L66
 459:Drivers/lvgl/src/draw/sw/lv_draw_sw_transform.c ****                 abuf[x] = (a * (0xFF - ys_fract)) >> 8;
 831              		.loc 1 459 34 discriminator 1 view .LVU289
 832 028a 0E99     		ldr	r1, [sp, #56]
 833 028c 0131     		adds	r1, r1, #1
 834 028e 00F03181 		beq	.L67
 459:Drivers/lvgl/src/draw/sw/lv_draw_sw_transform.c ****                 abuf[x] = (a * (0xFF - ys_fract)) >> 8;
 835              		.loc 1 459 49 discriminator 3 view .LVU290
 836 0292 0699     		ldr	r1, [sp, #24]
 837 0294 0129     		cmp	r1, #1
 838 0296 00F02D81 		beq	.L67
 839              	.LVL79:
 840              	.L68:
 463:Drivers/lvgl/src/draw/sw/lv_draw_sw_transform.c ****             }
 841              		.loc 1 463 17 is_stmt 1 view .LVU291
 463:Drivers/lvgl/src/draw/sw/lv_draw_sw_transform.c ****             }
 842              		.loc 1 463 25 is_stmt 0 view .LVU292
 843 029a 4FF00001 		mov	r1, #0
 844 029e 1970     		strb	r1, [r3]
 845              	.L39:
 846              	.LBE76:
 847              	.LBE131:
 304:Drivers/lvgl/src/draw/sw/lv_draw_sw_transform.c ****         xs_ups = xs_ups_start + ((xs_step * x) >> 8);
 848              		.loc 1 304 28 is_stmt 1 discriminator 2 view .LVU293
 304:Drivers/lvgl/src/draw/sw/lv_draw_sw_transform.c ****         xs_ups = xs_ups_start + ((xs_step * x) >> 8);
 849              		.loc 1 304 18 discriminator 1 view .LVU294
 850 02a0 0133     		adds	r3, r3, #1
 851 02a2 9A45     		cmp	r10, r3
 852 02a4 5A44     		add	r2, r2, fp
 853              	.LVL80:
 304:Drivers/lvgl/src/draw/sw/lv_draw_sw_transform.c ****         xs_ups = xs_ups_start + ((xs_step * x) >> 8);
 854              		.loc 1 304 18 is_stmt 0 discriminator 1 view .LVU295
 855 02a6 0EF1020E 		add	lr, lr, #2
 856 02aa CC44     		add	ip, ip, r9
 857 02ac 91D1     		bne	.L69
 858              	.LVL81:
 859              	.L113:
 304:Drivers/lvgl/src/draw/sw/lv_draw_sw_transform.c ****         xs_ups = xs_ups_start + ((xs_step * x) >> 8);
 860              		.loc 1 304 18 discriminator 1 view .LVU296
 861 02ae DDF8E880 		ldr	r8, [sp, #232]
 862              	.L112:
 863 02b2 3B9E     		ldr	r6, [sp, #236]
 864              	.L16:
 865              	.LBE71:
 866              	.LBE70:
 151:Drivers/lvgl/src/draw/sw/lv_draw_sw_transform.c ****         abuf += dest_w;
 867              		.loc 1 151 9 is_stmt 1 view .LVU297
ARM GAS  /var/folders/lp/x54gwt890xv47sdkqj1k04q40000gn/T//cc93WRjx.s 			page 32


 151:Drivers/lvgl/src/draw/sw/lv_draw_sw_transform.c ****         abuf += dest_w;
 868              		.loc 1 151 14 is_stmt 0 view .LVU298
 869 02b4 0C9A     		ldr	r2, [sp, #48]
 870              	.LBE60:
 111:Drivers/lvgl/src/draw/sw/lv_draw_sw_transform.c ****         int32_t xs1_ups, ys1_ups, xs2_ups, ys2_ups;
 871              		.loc 1 111 18 discriminator 1 view .LVU299
 872 02b6 039B     		ldr	r3, [sp, #12]
 873              	.LBB160:
 151:Drivers/lvgl/src/draw/sw/lv_draw_sw_transform.c ****         abuf += dest_w;
 874              		.loc 1 151 14 view .LVU300
 875 02b8 9044     		add	r8, r8, r2
 876              	.LVL82:
 152:Drivers/lvgl/src/draw/sw/lv_draw_sw_transform.c ****     }
 877              		.loc 1 152 9 is_stmt 1 view .LVU301
 152:Drivers/lvgl/src/draw/sw/lv_draw_sw_transform.c ****     }
 878              		.loc 1 152 14 is_stmt 0 view .LVU302
 879 02ba 049A     		ldr	r2, [sp, #16]
 880              	.LBE160:
 111:Drivers/lvgl/src/draw/sw/lv_draw_sw_transform.c ****         int32_t xs1_ups, ys1_ups, xs2_ups, ys2_ups;
 881              		.loc 1 111 18 discriminator 1 view .LVU303
 882 02bc 0133     		adds	r3, r3, #1
 883              	.LBB161:
 152:Drivers/lvgl/src/draw/sw/lv_draw_sw_transform.c ****     }
 884              		.loc 1 152 14 view .LVU304
 885 02be 1644     		add	r6, r6, r2
 886              	.LVL83:
 152:Drivers/lvgl/src/draw/sw/lv_draw_sw_transform.c ****     }
 887              		.loc 1 152 14 view .LVU305
 888              	.LBE161:
 111:Drivers/lvgl/src/draw/sw/lv_draw_sw_transform.c ****         int32_t xs1_ups, ys1_ups, xs2_ups, ys2_ups;
 889              		.loc 1 111 29 is_stmt 1 discriminator 2 view .LVU306
 111:Drivers/lvgl/src/draw/sw/lv_draw_sw_transform.c ****         int32_t xs1_ups, ys1_ups, xs2_ups, ys2_ups;
 890              		.loc 1 111 18 discriminator 1 view .LVU307
 891 02c0 9244     		add	r10, r10, r2
 892 02c2 0A9A     		ldr	r2, [sp, #40]
 893 02c4 0393     		str	r3, [sp, #12]
 894 02c6 1BB2     		sxth	r3, r3
 895 02c8 9A42     		cmp	r2, r3
 896 02ca 40F32F81 		ble	.L12
 897              	.LBB162:
 114:Drivers/lvgl/src/draw/sw/lv_draw_sw_transform.c ****         transform_point_upscaled(&tr_dsc, dest_area->x2, dest_area->y1 + y, &xs2_ups, &ys2_ups);
 898              		.loc 1 114 52 is_stmt 0 view .LVU308
 899 02ce 079B     		ldr	r3, [sp, #28]
 900 02d0 B3F90010 		ldrsh	r1, [r3]
 114:Drivers/lvgl/src/draw/sw/lv_draw_sw_transform.c ****         transform_point_upscaled(&tr_dsc, dest_area->x2, dest_area->y1 + y, &xs2_ups, &ys2_ups);
 901              		.loc 1 114 67 view .LVU309
 902 02d4 B3F90240 		ldrsh	r4, [r3, #2]
 903 02d8 20E7     		b	.L70
 904              	.LVL84:
 905              	.L19:
 135:Drivers/lvgl/src/draw/sw/lv_draw_sw_transform.c ****                     break;
 906              		.loc 1 135 21 is_stmt 1 view .LVU310
 907              	.LBB140:
 908              	.LBI140:
 160:Drivers/lvgl/src/draw/sw/lv_draw_sw_transform.c ****                       int32_t xs_ups, int32_t ys_ups, int32_t xs_step, int32_t ys_step,
 909              		.loc 1 160 13 view .LVU311
 910              	.LBB141:
ARM GAS  /var/folders/lp/x54gwt890xv47sdkqj1k04q40000gn/T//cc93WRjx.s 			page 33


 164:Drivers/lvgl/src/draw/sw/lv_draw_sw_transform.c ****     int32_t ys_ups_start = ys_ups;
 911              		.loc 1 164 5 view .LVU312
 165:Drivers/lvgl/src/draw/sw/lv_draw_sw_transform.c ****     lv_disp_t * d = _lv_refr_get_disp_refreshing();
 912              		.loc 1 165 5 view .LVU313
 166:Drivers/lvgl/src/draw/sw/lv_draw_sw_transform.c ****     lv_color_t ck = d->driver->color_chroma_key;
 913              		.loc 1 166 5 view .LVU314
 166:Drivers/lvgl/src/draw/sw/lv_draw_sw_transform.c ****     lv_color_t ck = d->driver->color_chroma_key;
 914              		.loc 1 166 21 is_stmt 0 view .LVU315
 915 02da FFF7FEFF 		bl	_lv_refr_get_disp_refreshing
 916              	.LVL85:
 167:Drivers/lvgl/src/draw/sw/lv_draw_sw_transform.c **** 
 917              		.loc 1 167 5 is_stmt 1 view .LVU316
 169:Drivers/lvgl/src/draw/sw/lv_draw_sw_transform.c **** 
 918              		.loc 1 169 5 is_stmt 0 view .LVU317
 919 02de 049D     		ldr	r5, [sp, #16]
 167:Drivers/lvgl/src/draw/sw/lv_draw_sw_transform.c **** 
 920              		.loc 1 167 16 view .LVU318
 921 02e0 0368     		ldr	r3, [r0]
 169:Drivers/lvgl/src/draw/sw/lv_draw_sw_transform.c **** 
 922              		.loc 1 169 5 view .LVU319
 923 02e2 2946     		mov	r1, r5
 924 02e4 3046     		mov	r0, r6
 925              	.LVL86:
 167:Drivers/lvgl/src/draw/sw/lv_draw_sw_transform.c **** 
 926              		.loc 1 167 16 view .LVU320
 927 02e6 1C8F     		ldrh	r4, [r3, #56]
 928              	.LVL87:
 169:Drivers/lvgl/src/draw/sw/lv_draw_sw_transform.c **** 
 929              		.loc 1 169 5 is_stmt 1 view .LVU321
 930 02e8 FFF7FEFF 		bl	lv_memset_ff
 931              	.LVL88:
 171:Drivers/lvgl/src/draw/sw/lv_draw_sw_transform.c ****     for(x = 0; x < x_end; x++) {
 932              		.loc 1 171 5 view .LVU322
 172:Drivers/lvgl/src/draw/sw/lv_draw_sw_transform.c ****         xs_ups = xs_ups_start + ((xs_step * x) >> 8);
 933              		.loc 1 172 5 view .LVU323
 172:Drivers/lvgl/src/draw/sw/lv_draw_sw_transform.c ****         xs_ups = xs_ups_start + ((xs_step * x) >> 8);
 934              		.loc 1 172 18 discriminator 1 view .LVU324
 935 02ec 002D     		cmp	r5, #0
 936 02ee E1DD     		ble	.L16
 937 02f0 0020     		movs	r0, #0
 938 02f2 3246     		mov	r2, r6
 939 02f4 4546     		mov	r5, r8
 940              	.LBB142:
 179:Drivers/lvgl/src/draw/sw/lv_draw_sw_transform.c ****         }
 941              		.loc 1 179 21 is_stmt 0 view .LVU325
 942 02f6 CDF8E880 		str	r8, [sp, #232]
 943 02fa 3B96     		str	r6, [sp, #236]
 944 02fc DDF83C80 		ldr	r8, [sp, #60]
 945              	.LVL89:
 179:Drivers/lvgl/src/draw/sw/lv_draw_sw_transform.c ****         }
 946              		.loc 1 179 21 view .LVU326
 947 0300 059E     		ldr	r6, [sp, #20]
 948              	.LVL90:
 179:Drivers/lvgl/src/draw/sw/lv_draw_sw_transform.c ****         }
 949              		.loc 1 179 21 view .LVU327
 950 0302 0B94     		str	r4, [sp, #44]
 951              	.LBE142:
ARM GAS  /var/folders/lp/x54gwt890xv47sdkqj1k04q40000gn/T//cc93WRjx.s 			page 34


 172:Drivers/lvgl/src/draw/sw/lv_draw_sw_transform.c ****         xs_ups = xs_ups_start + ((xs_step * x) >> 8);
 952              		.loc 1 172 18 discriminator 1 view .LVU328
 953 0304 0146     		mov	r1, r0
 954              	.LBB146:
 179:Drivers/lvgl/src/draw/sw/lv_draw_sw_transform.c ****         }
 955              		.loc 1 179 21 view .LVU329
 956 0306 8446     		mov	ip, r0
 957 0308 21E0     		b	.L29
 958              	.LVL91:
 959              	.L117:
 178:Drivers/lvgl/src/draw/sw/lv_draw_sw_transform.c ****             abuf[x] = 0x00;
 960              		.loc 1 178 23 discriminator 1 view .LVU330
 961 030a 029C     		ldr	r4, [sp, #8]
 962 030c A342     		cmp	r3, r4
 174:Drivers/lvgl/src/draw/sw/lv_draw_sw_transform.c **** 
 963              		.loc 1 174 16 view .LVU331
 964 030e 06EB202E 		add	lr, r6, r0, asr #8
 178:Drivers/lvgl/src/draw/sw/lv_draw_sw_transform.c ****             abuf[x] = 0x00;
 965              		.loc 1 178 23 discriminator 1 view .LVU332
 966 0312 20DA     		bge	.L25
 178:Drivers/lvgl/src/draw/sw/lv_draw_sw_transform.c ****             abuf[x] = 0x00;
 967              		.loc 1 178 42 discriminator 2 view .LVU333
 968 0314 5FEA2E2E 		asrs	lr, lr, #8
 969 0318 1DD4     		bmi	.L25
 970              	.LBB143:
 188:Drivers/lvgl/src/draw/sw/lv_draw_sw_transform.c ****             src_tmp += ys_int * src_stride + xs_int;
 971              		.loc 1 188 13 is_stmt 1 view .LVU334
 972              	.LVL92:
 189:Drivers/lvgl/src/draw/sw/lv_draw_sw_transform.c ****             cbuf[x] = *src_tmp;
 973              		.loc 1 189 13 view .LVU335
 190:Drivers/lvgl/src/draw/sw/lv_draw_sw_transform.c **** #elif LV_COLOR_DEPTH == 32
 974              		.loc 1 190 13 view .LVU336
 975              	.LBE143:
 178:Drivers/lvgl/src/draw/sw/lv_draw_sw_transform.c ****             abuf[x] = 0x00;
 976              		.loc 1 178 56 is_stmt 0 discriminator 3 view .LVU337
 977 031a 069C     		ldr	r4, [sp, #24]
 978 031c A645     		cmp	lr, r4
 979              	.LBB144:
 189:Drivers/lvgl/src/draw/sw/lv_draw_sw_transform.c ****             cbuf[x] = *src_tmp;
 980              		.loc 1 189 21 view .LVU338
 981 031e 099C     		ldr	r4, [sp, #36]
 982 0320 0EFB0433 		mla	r3, lr, r4, r3
 983              	.LVL93:
 189:Drivers/lvgl/src/draw/sw/lv_draw_sw_transform.c ****             cbuf[x] = *src_tmp;
 984              		.loc 1 189 21 view .LVU339
 985              	.LBE144:
 178:Drivers/lvgl/src/draw/sw/lv_draw_sw_transform.c ****             abuf[x] = 0x00;
 986              		.loc 1 178 56 discriminator 3 view .LVU340
 987 0324 17DA     		bge	.L25
 988              	.LBB145:
 190:Drivers/lvgl/src/draw/sw/lv_draw_sw_transform.c **** #elif LV_COLOR_DEPTH == 32
 989              		.loc 1 190 21 view .LVU341
 990 0326 089C     		ldr	r4, [sp, #32]
 991 0328 34F81330 		ldrh	r3, [r4, r3, lsl #1]
 992 032c 2B80     		strh	r3, [r5]	@ movhi
 993              	.LVL94:
 994              	.L27:
ARM GAS  /var/folders/lp/x54gwt890xv47sdkqj1k04q40000gn/T//cc93WRjx.s 			page 35


 190:Drivers/lvgl/src/draw/sw/lv_draw_sw_transform.c **** #elif LV_COLOR_DEPTH == 32
 995              		.loc 1 190 21 view .LVU342
 996              	.LBE145:
 197:Drivers/lvgl/src/draw/sw/lv_draw_sw_transform.c ****             abuf[x] = 0x00;
 997              		.loc 1 197 9 is_stmt 1 view .LVU343
 998              	.LBE146:
 172:Drivers/lvgl/src/draw/sw/lv_draw_sw_transform.c ****         xs_ups = xs_ups_start + ((xs_step * x) >> 8);
 999              		.loc 1 172 28 discriminator 2 view .LVU344
 172:Drivers/lvgl/src/draw/sw/lv_draw_sw_transform.c ****         xs_ups = xs_ups_start + ((xs_step * x) >> 8);
 1000              		.loc 1 172 18 discriminator 1 view .LVU345
 1001              	.LBB147:
 197:Drivers/lvgl/src/draw/sw/lv_draw_sw_transform.c ****             abuf[x] = 0x00;
 1002              		.loc 1 197 11 is_stmt 0 view .LVU346
 1003 032e B8F1060F 		cmp	r8, #6
 1004              	.LBE147:
 172:Drivers/lvgl/src/draw/sw/lv_draw_sw_transform.c ****         xs_ups = xs_ups_start + ((xs_step * x) >> 8);
 1005              		.loc 1 172 18 discriminator 1 view .LVU347
 1006 0332 5944     		add	r1, r1, fp
 1007              	.LVL95:
 172:Drivers/lvgl/src/draw/sw/lv_draw_sw_transform.c ****         xs_ups = xs_ups_start + ((xs_step * x) >> 8);
 1008              		.loc 1 172 18 discriminator 1 view .LVU348
 1009 0334 4844     		add	r0, r0, r9
 1010              	.LBB148:
 197:Drivers/lvgl/src/draw/sw/lv_draw_sw_transform.c ****             abuf[x] = 0x00;
 1011              		.loc 1 197 11 view .LVU349
 1012 0336 05D1     		bne	.L28
 197:Drivers/lvgl/src/draw/sw/lv_draw_sw_transform.c ****             abuf[x] = 0x00;
 1013              		.loc 1 197 52 discriminator 1 view .LVU350
 1014 0338 2B88     		ldrh	r3, [r5]
 1015 033a 0B9C     		ldr	r4, [sp, #44]
 1016 033c A342     		cmp	r3, r4
 198:Drivers/lvgl/src/draw/sw/lv_draw_sw_transform.c ****         }
 1017              		.loc 1 198 13 is_stmt 1 view .LVU351
 198:Drivers/lvgl/src/draw/sw/lv_draw_sw_transform.c ****         }
 1018              		.loc 1 198 21 is_stmt 0 view .LVU352
 1019 033e 08BF     		it	eq
 1020 0340 82F800C0 		strbeq	ip, [r2]
 1021              	.L28:
 1022              	.LBE148:
 172:Drivers/lvgl/src/draw/sw/lv_draw_sw_transform.c ****         xs_ups = xs_ups_start + ((xs_step * x) >> 8);
 1023              		.loc 1 172 18 discriminator 1 view .LVU353
 1024 0344 0132     		adds	r2, r2, #1
 1025 0346 9245     		cmp	r10, r2
 1026 0348 05F10205 		add	r5, r5, #2
 1027 034c AFD0     		beq	.L113
 1028              	.LVL96:
 1029              	.L29:
 1030              	.LBB149:
 173:Drivers/lvgl/src/draw/sw/lv_draw_sw_transform.c ****         ys_ups = ys_ups_start + ((ys_step * x) >> 8);
 1031              		.loc 1 173 9 is_stmt 1 view .LVU354
 174:Drivers/lvgl/src/draw/sw/lv_draw_sw_transform.c **** 
 1032              		.loc 1 174 9 view .LVU355
 176:Drivers/lvgl/src/draw/sw/lv_draw_sw_transform.c ****         int32_t ys_int = ys_ups >> 8;
 1033              		.loc 1 176 9 view .LVU356
 179:Drivers/lvgl/src/draw/sw/lv_draw_sw_transform.c ****         }
 1034              		.loc 1 179 13 view .LVU357
 173:Drivers/lvgl/src/draw/sw/lv_draw_sw_transform.c ****         ys_ups = ys_ups_start + ((ys_step * x) >> 8);
ARM GAS  /var/folders/lp/x54gwt890xv47sdkqj1k04q40000gn/T//cc93WRjx.s 			page 36


 1035              		.loc 1 173 16 is_stmt 0 view .LVU358
 1036 034e 07EB2123 		add	r3, r7, r1, asr #8
 1037              	.LVL97:
 177:Drivers/lvgl/src/draw/sw/lv_draw_sw_transform.c ****         if(xs_int < 0 || xs_int >= src_w || ys_int < 0 || ys_int >= src_h) {
 1038              		.loc 1 177 9 is_stmt 1 view .LVU359
 178:Drivers/lvgl/src/draw/sw/lv_draw_sw_transform.c ****             abuf[x] = 0x00;
 1039              		.loc 1 178 9 view .LVU360
 178:Drivers/lvgl/src/draw/sw/lv_draw_sw_transform.c ****             abuf[x] = 0x00;
 1040              		.loc 1 178 11 is_stmt 0 view .LVU361
 1041 0352 1B12     		asrs	r3, r3, #8
 1042              	.LVL98:
 178:Drivers/lvgl/src/draw/sw/lv_draw_sw_transform.c ****             abuf[x] = 0x00;
 1043              		.loc 1 178 11 view .LVU362
 1044 0354 D9D5     		bpl	.L117
 1045              	.LVL99:
 1046              	.L25:
 179:Drivers/lvgl/src/draw/sw/lv_draw_sw_transform.c ****         }
 1047              		.loc 1 179 21 view .LVU363
 1048 0356 82F800C0 		strb	ip, [r2]
 1049 035a E8E7     		b	.L27
 1050              	.LVL100:
 1051              	.L20:
 179:Drivers/lvgl/src/draw/sw/lv_draw_sw_transform.c ****         }
 1052              		.loc 1 179 21 view .LVU364
 1053              	.LBE149:
 1054              	.LBE141:
 1055              	.LBE140:
 1056              	.LBB150:
 1057              	.LBB151:
 211:Drivers/lvgl/src/draw/sw/lv_draw_sw_transform.c ****         xs_ups = xs_ups_start + ((xs_step * x) >> 8);
 1058              		.loc 1 211 18 is_stmt 1 discriminator 1 view .LVU365
 1059 035c 049B     		ldr	r3, [sp, #16]
 1060 035e 002B     		cmp	r3, #0
 1061 0360 A8DD     		ble	.L16
 1062 0362 029B     		ldr	r3, [sp, #8]
 1063 0364 DDF814E0 		ldr	lr, [sp, #20]
 1064 0368 3B96     		str	r6, [sp, #236]
 1065 036a 0020     		movs	r0, #0
 1066 036c 711E     		subs	r1, r6, #1
 1067 036e 4546     		mov	r5, r8
 1068 0370 0246     		mov	r2, r0
 1069 0372 0AF1FF34 		add	r4, r10, #-1
 1070 0376 0593     		str	r3, [sp, #20]
 1071              	.LVL101:
 211:Drivers/lvgl/src/draw/sw/lv_draw_sw_transform.c ****         xs_ups = xs_ups_start + ((xs_step * x) >> 8);
 1072              		.loc 1 211 18 is_stmt 0 discriminator 1 view .LVU366
 1073 0378 1FE0     		b	.L24
 1074              	.LVL102:
 1075              	.L118:
 1076              	.LBB152:
 217:Drivers/lvgl/src/draw/sw/lv_draw_sw_transform.c ****             abuf[x] = 0;
 1077              		.loc 1 217 23 discriminator 1 view .LVU367
 1078 037a 059E     		ldr	r6, [sp, #20]
 1079 037c B342     		cmp	r3, r6
 213:Drivers/lvgl/src/draw/sw/lv_draw_sw_transform.c **** 
 1080              		.loc 1 213 16 view .LVU368
 1081 037e 0EEB202C 		add	ip, lr, r0, asr #8
ARM GAS  /var/folders/lp/x54gwt890xv47sdkqj1k04q40000gn/T//cc93WRjx.s 			page 37


 217:Drivers/lvgl/src/draw/sw/lv_draw_sw_transform.c ****             abuf[x] = 0;
 1082              		.loc 1 217 23 discriminator 1 view .LVU369
 1083 0382 1EDA     		bge	.L77
 217:Drivers/lvgl/src/draw/sw/lv_draw_sw_transform.c ****             abuf[x] = 0;
 1084              		.loc 1 217 42 discriminator 2 view .LVU370
 1085 0384 5FEA2C2C 		asrs	ip, ip, #8
 1086 0388 1BD4     		bmi	.L77
 1087              	.LBB153:
 221:Drivers/lvgl/src/draw/sw/lv_draw_sw_transform.c ****             src_tmp += (ys_int * src_stride * LV_IMG_PX_SIZE_ALPHA_BYTE) + xs_int * LV_IMG_PX_SIZE_
 1088              		.loc 1 221 13 is_stmt 1 view .LVU371
 1089              	.LVL103:
 222:Drivers/lvgl/src/draw/sw/lv_draw_sw_transform.c **** 
 1090              		.loc 1 222 13 view .LVU372
 222:Drivers/lvgl/src/draw/sw/lv_draw_sw_transform.c **** 
 1091              		.loc 1 222 74 is_stmt 0 view .LVU373
 1092 038a 099E     		ldr	r6, [sp, #36]
 1093 038c 0CFB0633 		mla	r3, ip, r6, r3
 1094              	.LVL104:
 222:Drivers/lvgl/src/draw/sw/lv_draw_sw_transform.c **** 
 1095              		.loc 1 222 74 view .LVU374
 1096              	.LBE153:
 217:Drivers/lvgl/src/draw/sw/lv_draw_sw_transform.c ****             abuf[x] = 0;
 1097              		.loc 1 217 56 discriminator 3 view .LVU375
 1098 0390 069E     		ldr	r6, [sp, #24]
 1099 0392 B445     		cmp	ip, r6
 1100              	.LBB154:
 222:Drivers/lvgl/src/draw/sw/lv_draw_sw_transform.c **** 
 1101              		.loc 1 222 74 view .LVU376
 1102 0394 03EB4303 		add	r3, r3, r3, lsl #1
 1103              	.LBE154:
 217:Drivers/lvgl/src/draw/sw/lv_draw_sw_transform.c ****             abuf[x] = 0;
 1104              		.loc 1 217 56 discriminator 3 view .LVU377
 1105 0398 13DA     		bge	.L77
 1106              	.LBB155:
 227:Drivers/lvgl/src/draw/sw/lv_draw_sw_transform.c **** #elif LV_COLOR_DEPTH == 32
 1107              		.loc 1 227 39 view .LVU378
 1108 039a 089E     		ldr	r6, [sp, #32]
 1109 039c 36F803C0 		ldrh	ip, [r6, r3]	@ unaligned
 227:Drivers/lvgl/src/draw/sw/lv_draw_sw_transform.c **** #elif LV_COLOR_DEPTH == 32
 1110              		.loc 1 227 26 view .LVU379
 1111 03a0 A5F800C0 		strh	ip, [r5]	@ movhi
 222:Drivers/lvgl/src/draw/sw/lv_draw_sw_transform.c **** 
 1112              		.loc 1 222 21 view .LVU380
 1113 03a4 3344     		add	r3, r3, r6
 1114              	.LVL105:
 227:Drivers/lvgl/src/draw/sw/lv_draw_sw_transform.c **** #elif LV_COLOR_DEPTH == 32
 1115              		.loc 1 227 13 is_stmt 1 view .LVU381
 231:Drivers/lvgl/src/draw/sw/lv_draw_sw_transform.c ****         }
 1116              		.loc 1 231 13 view .LVU382
 231:Drivers/lvgl/src/draw/sw/lv_draw_sw_transform.c ****         }
 1117              		.loc 1 231 30 is_stmt 0 view .LVU383
 1118 03a6 9B78     		ldrb	r3, [r3, #2]	@ zero_extendqisi2
 1119              	.LVL106:
 1120              	.L23:
 231:Drivers/lvgl/src/draw/sw/lv_draw_sw_transform.c ****         }
 1121              		.loc 1 231 30 view .LVU384
 1122              	.LBE155:
ARM GAS  /var/folders/lp/x54gwt890xv47sdkqj1k04q40000gn/T//cc93WRjx.s 			page 38


 218:Drivers/lvgl/src/draw/sw/lv_draw_sw_transform.c ****         }
 1123              		.loc 1 218 21 view .LVU385
 1124 03a8 01F8013F 		strb	r3, [r1, #1]!
 1125              	.LBE152:
 211:Drivers/lvgl/src/draw/sw/lv_draw_sw_transform.c ****         xs_ups = xs_ups_start + ((xs_step * x) >> 8);
 1126              		.loc 1 211 28 is_stmt 1 discriminator 2 view .LVU386
 1127              	.LVL107:
 211:Drivers/lvgl/src/draw/sw/lv_draw_sw_transform.c ****         xs_ups = xs_ups_start + ((xs_step * x) >> 8);
 1128              		.loc 1 211 18 discriminator 1 view .LVU387
 1129 03ac 8C42     		cmp	r4, r1
 1130 03ae 5A44     		add	r2, r2, fp
 1131              	.LVL108:
 211:Drivers/lvgl/src/draw/sw/lv_draw_sw_transform.c ****         xs_ups = xs_ups_start + ((xs_step * x) >> 8);
 1132              		.loc 1 211 18 is_stmt 0 discriminator 1 view .LVU388
 1133 03b0 05F10205 		add	r5, r5, #2
 1134 03b4 4844     		add	r0, r0, r9
 1135 03b6 3FF47CAF 		beq	.L112
 1136              	.LVL109:
 1137              	.L24:
 1138              	.LBB156:
 212:Drivers/lvgl/src/draw/sw/lv_draw_sw_transform.c ****         ys_ups = ys_ups_start + ((ys_step * x) >> 8);
 1139              		.loc 1 212 9 is_stmt 1 view .LVU389
 213:Drivers/lvgl/src/draw/sw/lv_draw_sw_transform.c **** 
 1140              		.loc 1 213 9 view .LVU390
 215:Drivers/lvgl/src/draw/sw/lv_draw_sw_transform.c ****         int32_t ys_int = ys_ups >> 8;
 1141              		.loc 1 215 9 view .LVU391
 212:Drivers/lvgl/src/draw/sw/lv_draw_sw_transform.c ****         ys_ups = ys_ups_start + ((ys_step * x) >> 8);
 1142              		.loc 1 212 16 is_stmt 0 view .LVU392
 1143 03ba 07EB2223 		add	r3, r7, r2, asr #8
 1144              	.LVL110:
 216:Drivers/lvgl/src/draw/sw/lv_draw_sw_transform.c ****         if(xs_int < 0 || xs_int >= src_w || ys_int < 0 || ys_int >= src_h) {
 1145              		.loc 1 216 9 is_stmt 1 view .LVU393
 217:Drivers/lvgl/src/draw/sw/lv_draw_sw_transform.c ****             abuf[x] = 0;
 1146              		.loc 1 217 9 view .LVU394
 217:Drivers/lvgl/src/draw/sw/lv_draw_sw_transform.c ****             abuf[x] = 0;
 1147              		.loc 1 217 11 is_stmt 0 view .LVU395
 1148 03be 1B12     		asrs	r3, r3, #8
 1149              	.LVL111:
 217:Drivers/lvgl/src/draw/sw/lv_draw_sw_transform.c ****             abuf[x] = 0;
 1150              		.loc 1 217 11 view .LVU396
 1151 03c0 DBD5     		bpl	.L118
 1152              	.LVL112:
 1153              	.L77:
 217:Drivers/lvgl/src/draw/sw/lv_draw_sw_transform.c ****             abuf[x] = 0;
 1154              		.loc 1 217 11 view .LVU397
 1155 03c2 0023     		movs	r3, #0
 1156 03c4 F0E7     		b	.L23
 1157              	.LVL113:
 1158              	.L17:
 217:Drivers/lvgl/src/draw/sw/lv_draw_sw_transform.c ****             abuf[x] = 0;
 1159              		.loc 1 217 11 view .LVU398
 1160              	.LBE156:
 1161              	.LBE151:
 1162              	.LBE150:
 1163              	.LBB157:
 1164              	.LBB69:
 245:Drivers/lvgl/src/draw/sw/lv_draw_sw_transform.c ****         xs_ups = xs_ups_start + ((xs_step * x) >> 8);
ARM GAS  /var/folders/lp/x54gwt890xv47sdkqj1k04q40000gn/T//cc93WRjx.s 			page 39


 1165              		.loc 1 245 18 is_stmt 1 discriminator 1 view .LVU399
 1166 03c6 049B     		ldr	r3, [sp, #16]
 1167 03c8 002B     		cmp	r3, #0
 1168 03ca 7FF773AF 		ble	.L16
 1169 03ce 029B     		ldr	r3, [sp, #8]
 1170 03d0 DDF814E0 		ldr	lr, [sp, #20]
 1171 03d4 3B96     		str	r6, [sp, #236]
 1172 03d6 0020     		movs	r0, #0
 1173 03d8 711E     		subs	r1, r6, #1
 1174 03da 4546     		mov	r5, r8
 1175 03dc 0246     		mov	r2, r0
 1176 03de 0AF1FF34 		add	r4, r10, #-1
 1177 03e2 0593     		str	r3, [sp, #20]
 1178              	.LVL114:
 245:Drivers/lvgl/src/draw/sw/lv_draw_sw_transform.c ****         xs_ups = xs_ups_start + ((xs_step * x) >> 8);
 1179              		.loc 1 245 18 is_stmt 0 discriminator 1 view .LVU400
 1180 03e4 1DE0     		b	.L31
 1181              	.LVL115:
 1182              	.L119:
 1183              	.LBB67:
 251:Drivers/lvgl/src/draw/sw/lv_draw_sw_transform.c ****             abuf[x] = 0;
 1184              		.loc 1 251 23 discriminator 1 view .LVU401
 1185 03e6 059E     		ldr	r6, [sp, #20]
 1186 03e8 B342     		cmp	r3, r6
 247:Drivers/lvgl/src/draw/sw/lv_draw_sw_transform.c **** 
 1187              		.loc 1 247 16 view .LVU402
 1188 03ea 0EEB202C 		add	ip, lr, r0, asr #8
 251:Drivers/lvgl/src/draw/sw/lv_draw_sw_transform.c ****             abuf[x] = 0;
 1189              		.loc 1 251 23 discriminator 1 view .LVU403
 1190 03ee 1CDA     		bge	.L81
 251:Drivers/lvgl/src/draw/sw/lv_draw_sw_transform.c ****             abuf[x] = 0;
 1191              		.loc 1 251 42 discriminator 2 view .LVU404
 1192 03f0 5FEA2C2C 		asrs	ip, ip, #8
 1193 03f4 19D4     		bmi	.L81
 1194              	.LBB65:
 255:Drivers/lvgl/src/draw/sw/lv_draw_sw_transform.c ****             src_tmp += ys_int * src_stride + xs_int;
 1195              		.loc 1 255 13 is_stmt 1 view .LVU405
 1196              	.LVL116:
 256:Drivers/lvgl/src/draw/sw/lv_draw_sw_transform.c ****             cbuf[x] = *src_tmp;
 1197              		.loc 1 256 13 view .LVU406
 256:Drivers/lvgl/src/draw/sw/lv_draw_sw_transform.c ****             cbuf[x] = *src_tmp;
 1198              		.loc 1 256 44 is_stmt 0 view .LVU407
 1199 03f6 099E     		ldr	r6, [sp, #36]
 1200 03f8 0CFB0633 		mla	r3, ip, r6, r3
 1201              	.LVL117:
 257:Drivers/lvgl/src/draw/sw/lv_draw_sw_transform.c **** 
 1202              		.loc 1 257 13 is_stmt 1 view .LVU408
 1203              	.LBE65:
 251:Drivers/lvgl/src/draw/sw/lv_draw_sw_transform.c ****             abuf[x] = 0;
 1204              		.loc 1 251 56 is_stmt 0 discriminator 3 view .LVU409
 1205 03fc 069E     		ldr	r6, [sp, #24]
 1206 03fe B445     		cmp	ip, r6
 1207 0400 13DA     		bge	.L81
 1208              	.LBB66:
 257:Drivers/lvgl/src/draw/sw/lv_draw_sw_transform.c **** 
 1209              		.loc 1 257 21 view .LVU410
 1210 0402 089E     		ldr	r6, [sp, #32]
ARM GAS  /var/folders/lp/x54gwt890xv47sdkqj1k04q40000gn/T//cc93WRjx.s 			page 40


 1211 0404 36F813C0 		ldrh	ip, [r6, r3, lsl #1]
 261:Drivers/lvgl/src/draw/sw/lv_draw_sw_transform.c ****         }
 1212              		.loc 1 261 23 view .LVU411
 1213 0408 1A9E     		ldr	r6, [sp, #104]
 257:Drivers/lvgl/src/draw/sw/lv_draw_sw_transform.c **** 
 1214              		.loc 1 257 21 view .LVU412
 1215 040a A5F800C0 		strh	ip, [r5]	@ movhi
 259:Drivers/lvgl/src/draw/sw/lv_draw_sw_transform.c ****             a_tmp += ys_int * src_stride + xs_int;
 1216              		.loc 1 259 13 is_stmt 1 view .LVU413
 1217              	.LVL118:
 260:Drivers/lvgl/src/draw/sw/lv_draw_sw_transform.c ****             abuf[x] = *a_tmp;
 1218              		.loc 1 260 13 view .LVU414
 261:Drivers/lvgl/src/draw/sw/lv_draw_sw_transform.c ****         }
 1219              		.loc 1 261 13 view .LVU415
 261:Drivers/lvgl/src/draw/sw/lv_draw_sw_transform.c ****         }
 1220              		.loc 1 261 23 is_stmt 0 view .LVU416
 1221 040e F35C     		ldrb	r3, [r6, r3]	@ zero_extendqisi2
 1222              	.LVL119:
 1223              	.L30:
 261:Drivers/lvgl/src/draw/sw/lv_draw_sw_transform.c ****         }
 1224              		.loc 1 261 23 view .LVU417
 1225              	.LBE66:
 252:Drivers/lvgl/src/draw/sw/lv_draw_sw_transform.c ****         }
 1226              		.loc 1 252 21 view .LVU418
 1227 0410 01F8013F 		strb	r3, [r1, #1]!
 1228              	.LBE67:
 245:Drivers/lvgl/src/draw/sw/lv_draw_sw_transform.c ****         xs_ups = xs_ups_start + ((xs_step * x) >> 8);
 1229              		.loc 1 245 28 is_stmt 1 discriminator 2 view .LVU419
 1230              	.LVL120:
 245:Drivers/lvgl/src/draw/sw/lv_draw_sw_transform.c ****         xs_ups = xs_ups_start + ((xs_step * x) >> 8);
 1231              		.loc 1 245 18 discriminator 1 view .LVU420
 1232 0414 8C42     		cmp	r4, r1
 1233 0416 5A44     		add	r2, r2, fp
 1234              	.LVL121:
 245:Drivers/lvgl/src/draw/sw/lv_draw_sw_transform.c ****         xs_ups = xs_ups_start + ((xs_step * x) >> 8);
 1235              		.loc 1 245 18 is_stmt 0 discriminator 1 view .LVU421
 1236 0418 05F10205 		add	r5, r5, #2
 1237 041c 4844     		add	r0, r0, r9
 1238 041e 3FF448AF 		beq	.L112
 1239              	.LVL122:
 1240              	.L31:
 1241              	.LBB68:
 246:Drivers/lvgl/src/draw/sw/lv_draw_sw_transform.c ****         ys_ups = ys_ups_start + ((ys_step * x) >> 8);
 1242              		.loc 1 246 9 is_stmt 1 view .LVU422
 247:Drivers/lvgl/src/draw/sw/lv_draw_sw_transform.c **** 
 1243              		.loc 1 247 9 view .LVU423
 249:Drivers/lvgl/src/draw/sw/lv_draw_sw_transform.c ****         int32_t ys_int = ys_ups >> 8;
 1244              		.loc 1 249 9 view .LVU424
 246:Drivers/lvgl/src/draw/sw/lv_draw_sw_transform.c ****         ys_ups = ys_ups_start + ((ys_step * x) >> 8);
 1245              		.loc 1 246 16 is_stmt 0 view .LVU425
 1246 0422 07EB2223 		add	r3, r7, r2, asr #8
 1247              	.LVL123:
 250:Drivers/lvgl/src/draw/sw/lv_draw_sw_transform.c ****         if(xs_int < 0 || xs_int >= src_w || ys_int < 0 || ys_int >= src_h) {
 1248              		.loc 1 250 9 is_stmt 1 view .LVU426
 251:Drivers/lvgl/src/draw/sw/lv_draw_sw_transform.c ****             abuf[x] = 0;
 1249              		.loc 1 251 9 view .LVU427
 251:Drivers/lvgl/src/draw/sw/lv_draw_sw_transform.c ****             abuf[x] = 0;
ARM GAS  /var/folders/lp/x54gwt890xv47sdkqj1k04q40000gn/T//cc93WRjx.s 			page 41


 1250              		.loc 1 251 11 is_stmt 0 view .LVU428
 1251 0426 1B12     		asrs	r3, r3, #8
 1252              	.LVL124:
 251:Drivers/lvgl/src/draw/sw/lv_draw_sw_transform.c ****             abuf[x] = 0;
 1253              		.loc 1 251 11 view .LVU429
 1254 0428 DDD5     		bpl	.L119
 1255              	.LVL125:
 1256              	.L81:
 251:Drivers/lvgl/src/draw/sw/lv_draw_sw_transform.c ****             abuf[x] = 0;
 1257              		.loc 1 251 11 view .LVU430
 1258 042a 0023     		movs	r3, #0
 1259 042c F0E7     		b	.L30
 1260              	.LVL126:
 1261              	.L73:
 251:Drivers/lvgl/src/draw/sw/lv_draw_sw_transform.c ****             abuf[x] = 0;
 1262              		.loc 1 251 11 view .LVU431
 1263              	.LBE68:
 1264              	.LBE69:
 1265              	.LBE157:
 120:Drivers/lvgl/src/draw/sw/lv_draw_sw_transform.c ****         if(dest_w > 1) {
 1266              		.loc 1 120 17 view .LVU432
 1267 042e 4FF00009 		mov	r9, #0
 119:Drivers/lvgl/src/draw/sw/lv_draw_sw_transform.c ****         int32_t ys_step_256 = 0;
 1268              		.loc 1 119 17 view .LVU433
 1269 0432 CB46     		mov	fp, r9
 1270 0434 95E6     		b	.L14
 1271              	.LVL127:
 1272              	.L15:
 148:Drivers/lvgl/src/draw/sw/lv_draw_sw_transform.c ****         }
 1273              		.loc 1 148 13 is_stmt 1 view .LVU434
 1274              	.LBB158:
 1275              	.LBI70:
 268:Drivers/lvgl/src/draw/sw/lv_draw_sw_transform.c ****                             int32_t xs_ups, int32_t ys_ups, int32_t xs_step, int32_t ys_step,
 1276              		.loc 1 268 13 view .LVU435
 1277              	.LBB138:
 272:Drivers/lvgl/src/draw/sw/lv_draw_sw_transform.c ****     int32_t ys_ups_start = ys_ups;
 1278              		.loc 1 272 5 view .LVU436
 273:Drivers/lvgl/src/draw/sw/lv_draw_sw_transform.c ****     bool has_alpha;
 1279              		.loc 1 273 5 view .LVU437
 274:Drivers/lvgl/src/draw/sw/lv_draw_sw_transform.c ****     int32_t px_size;
 1280              		.loc 1 274 5 view .LVU438
 275:Drivers/lvgl/src/draw/sw/lv_draw_sw_transform.c ****     lv_color_t ck = _LV_COLOR_ZERO_INITIALIZER;
 1281              		.loc 1 275 5 view .LVU439
 276:Drivers/lvgl/src/draw/sw/lv_draw_sw_transform.c ****     switch(cf) {
 1282              		.loc 1 276 5 view .LVU440
 277:Drivers/lvgl/src/draw/sw/lv_draw_sw_transform.c ****         case LV_IMG_CF_TRUE_COLOR:
 1283              		.loc 1 277 5 view .LVU441
 1284 0436 102A     		cmp	r2, #16
 1285 0438 3FF63CAF 		bhi	.L16
 1286 043c 01A3     		adr	r3, .L33
 1287 043e 53F822F0 		ldr	pc, [r3, r2, lsl #2]
 1288 0442 00BF     		.p2align 2
 1289              	.L33:
 1290 0444 7B060000 		.word	.L36+1
 1291 0448 BD050000 		.word	.L82+1
 1292 044c A1040000 		.word	.L34+1
 1293 0450 B5020000 		.word	.L16+1
ARM GAS  /var/folders/lp/x54gwt890xv47sdkqj1k04q40000gn/T//cc93WRjx.s 			page 42


 1294 0454 B5020000 		.word	.L16+1
 1295 0458 B5020000 		.word	.L16+1
 1296 045c B5020000 		.word	.L16+1
 1297 0460 B5020000 		.word	.L16+1
 1298 0464 B5020000 		.word	.L16+1
 1299 0468 B5020000 		.word	.L16+1
 1300 046c B5020000 		.word	.L16+1
 1301 0470 B5020000 		.word	.L16+1
 1302 0474 B5020000 		.word	.L16+1
 1303 0478 B5020000 		.word	.L16+1
 1304 047c B5020000 		.word	.L16+1
 1305 0480 B5020000 		.word	.L16+1
 1306 0484 A9010000 		.word	.L32+1
 1307              	.LVL128:
 1308              		.p2align 1
 1309              	.L116:
 1310              	.LBB132:
 1311              	.LBB77:
 456:Drivers/lvgl/src/draw/sw/lv_draw_sw_transform.c ****                 abuf[x] = (a * (0xFF - xs_fract)) >> 8;
 1312              		.loc 1 456 68 is_stmt 0 discriminator 4 view .LVU442
 1313 0488 0B99     		ldr	r1, [sp, #44]
 1314              	.LVL129:
 456:Drivers/lvgl/src/draw/sw/lv_draw_sw_transform.c ****                 abuf[x] = (a * (0xFF - xs_fract)) >> 8;
 1315              		.loc 1 456 68 discriminator 4 view .LVU443
 1316 048a 0129     		cmp	r1, #1
 1317 048c 7FF4FAAE 		bne	.L65
 1318              	.L64:
 457:Drivers/lvgl/src/draw/sw/lv_draw_sw_transform.c ****             }
 1319              		.loc 1 457 17 is_stmt 1 view .LVU444
 457:Drivers/lvgl/src/draw/sw/lv_draw_sw_transform.c ****             }
 1320              		.loc 1 457 38 is_stmt 0 view .LVU445
 1321 0490 1299     		ldr	r1, [sp, #72]
 1322 0492 C1F1FF01 		rsb	r1, r1, #255
 457:Drivers/lvgl/src/draw/sw/lv_draw_sw_transform.c ****             }
 1323              		.loc 1 457 30 view .LVU446
 1324 0496 04FB01F1 		mul	r1, r4, r1
 457:Drivers/lvgl/src/draw/sw/lv_draw_sw_transform.c ****             }
 1325              		.loc 1 457 51 view .LVU447
 1326 049a 0912     		asrs	r1, r1, #8
 457:Drivers/lvgl/src/draw/sw/lv_draw_sw_transform.c ****             }
 1327              		.loc 1 457 25 view .LVU448
 1328 049c 1970     		strb	r1, [r3]
 1329              	.LVL130:
 457:Drivers/lvgl/src/draw/sw/lv_draw_sw_transform.c ****             }
 1330              		.loc 1 457 25 view .LVU449
 1331 049e FFE6     		b	.L39
 1332              	.LVL131:
 1333              	.L34:
 457:Drivers/lvgl/src/draw/sw/lv_draw_sw_transform.c ****             }
 1334              		.loc 1 457 25 view .LVU450
 1335              	.LBE77:
 1336              	.LBE132:
 1337              	.LBB133:
 287:Drivers/lvgl/src/draw/sw/lv_draw_sw_transform.c ****                 px_size = sizeof(lv_color_t);
 1338              		.loc 1 287 17 is_stmt 1 view .LVU451
 288:Drivers/lvgl/src/draw/sw/lv_draw_sw_transform.c ****                 lv_disp_t * d = _lv_refr_get_disp_refreshing();
 1339              		.loc 1 288 17 view .LVU452
ARM GAS  /var/folders/lp/x54gwt890xv47sdkqj1k04q40000gn/T//cc93WRjx.s 			page 43


 289:Drivers/lvgl/src/draw/sw/lv_draw_sw_transform.c ****                 ck = d->driver->color_chroma_key;
 1340              		.loc 1 289 17 view .LVU453
 289:Drivers/lvgl/src/draw/sw/lv_draw_sw_transform.c ****                 ck = d->driver->color_chroma_key;
 1341              		.loc 1 289 33 is_stmt 0 view .LVU454
 1342 04a0 FFF7FEFF 		bl	_lv_refr_get_disp_refreshing
 1343              	.LVL132:
 290:Drivers/lvgl/src/draw/sw/lv_draw_sw_transform.c ****                 break;
 1344              		.loc 1 290 17 is_stmt 1 view .LVU455
 290:Drivers/lvgl/src/draw/sw/lv_draw_sw_transform.c ****                 break;
 1345              		.loc 1 290 20 is_stmt 0 view .LVU456
 1346 04a4 0368     		ldr	r3, [r0]
 1347 04a6 1B8F     		ldrh	r3, [r3, #56]
 1348 04a8 7FE6     		b	.L110
 1349              	.LVL133:
 1350              	.L40:
 290:Drivers/lvgl/src/draw/sw/lv_draw_sw_transform.c ****                 break;
 1351              		.loc 1 290 20 view .LVU457
 1352              	.LBE133:
 1353              	.LBB134:
 329:Drivers/lvgl/src/draw/sw/lv_draw_sw_transform.c ****             xs_fract = (xs_fract - 0x80) * 2;
 1354              		.loc 1 329 13 is_stmt 1 view .LVU458
 330:Drivers/lvgl/src/draw/sw/lv_draw_sw_transform.c ****         }
 1355              		.loc 1 330 13 view .LVU459
 330:Drivers/lvgl/src/draw/sw/lv_draw_sw_transform.c ****         }
 1356              		.loc 1 330 34 is_stmt 0 view .LVU460
 1357 04aa 803E     		subs	r6, r6, #128
 1358              	.LVL134:
 330:Drivers/lvgl/src/draw/sw/lv_draw_sw_transform.c ****         }
 1359              		.loc 1 330 22 view .LVU461
 1360 04ac 7400     		lsls	r4, r6, #1
 1361 04ae 1294     		str	r4, [sp, #72]
 1362              	.LVL135:
 329:Drivers/lvgl/src/draw/sw/lv_draw_sw_transform.c ****             xs_fract = (xs_fract - 0x80) * 2;
 1363              		.loc 1 329 20 view .LVU462
 1364 04b0 0124     		movs	r4, #1
 1365              	.LVL136:
 329:Drivers/lvgl/src/draw/sw/lv_draw_sw_transform.c ****             xs_fract = (xs_fract - 0x80) * 2;
 1366              		.loc 1 329 20 view .LVU463
 1367 04b2 0B94     		str	r4, [sp, #44]
 1368              	.LVL137:
 332:Drivers/lvgl/src/draw/sw/lv_draw_sw_transform.c ****             y_next = -1;
 1369              		.loc 1 332 9 is_stmt 1 view .LVU464
 332:Drivers/lvgl/src/draw/sw/lv_draw_sw_transform.c ****             y_next = -1;
 1370              		.loc 1 332 11 is_stmt 0 view .LVU465
 1371 04b4 2C06     		lsls	r4, r5, #24
 1372              	.LVL138:
 332:Drivers/lvgl/src/draw/sw/lv_draw_sw_transform.c ****             y_next = -1;
 1373              		.loc 1 332 11 view .LVU466
 1374 04b6 7FF5AAAE 		bpl	.L120
 1375              	.LVL139:
 1376              	.L42:
 337:Drivers/lvgl/src/draw/sw/lv_draw_sw_transform.c ****             ys_fract = (ys_fract - 0x80) * 2;
 1377              		.loc 1 337 13 is_stmt 1 view .LVU467
 338:Drivers/lvgl/src/draw/sw/lv_draw_sw_transform.c ****         }
 1378              		.loc 1 338 13 view .LVU468
 338:Drivers/lvgl/src/draw/sw/lv_draw_sw_transform.c ****         }
 1379              		.loc 1 338 34 is_stmt 0 view .LVU469
ARM GAS  /var/folders/lp/x54gwt890xv47sdkqj1k04q40000gn/T//cc93WRjx.s 			page 44


 1380 04ba 803F     		subs	r7, r7, #128
 1381              	.LVL140:
 338:Drivers/lvgl/src/draw/sw/lv_draw_sw_transform.c ****         }
 1382              		.loc 1 338 22 view .LVU470
 1383 04bc 7C00     		lsls	r4, r7, #1
 1384 04be 1494     		str	r4, [sp, #80]
 1385              	.LVL141:
 337:Drivers/lvgl/src/draw/sw/lv_draw_sw_transform.c ****             ys_fract = (ys_fract - 0x80) * 2;
 1386              		.loc 1 337 20 view .LVU471
 1387 04c0 0124     		movs	r4, #1
 1388              	.LVL142:
 337:Drivers/lvgl/src/draw/sw/lv_draw_sw_transform.c ****             ys_fract = (ys_fract - 0x80) * 2;
 1389              		.loc 1 337 20 view .LVU472
 1390 04c2 0E94     		str	r4, [sp, #56]
 1391 04c4 AAE6     		b	.L43
 1392              	.LVL143:
 1393              	.L44:
 1394              	.LBB78:
 435:Drivers/lvgl/src/draw/sw/lv_draw_sw_transform.c **** #elif LV_COLOR_DEPTH == 32
 1395              		.loc 1 435 13 is_stmt 1 view .LVU473
 435:Drivers/lvgl/src/draw/sw/lv_draw_sw_transform.c **** #elif LV_COLOR_DEPTH == 32
 1396              		.loc 1 435 39 is_stmt 0 view .LVU474
 1397 04c6 0899     		ldr	r1, [sp, #32]
 1398              	.LVL144:
 435:Drivers/lvgl/src/draw/sw/lv_draw_sw_transform.c **** #elif LV_COLOR_DEPTH == 32
 1399              		.loc 1 435 39 view .LVU475
 1400 04c8 0C5B     		ldrh	r4, [r1, r4]	@ unaligned
 440:Drivers/lvgl/src/draw/sw/lv_draw_sw_transform.c ****                 case LV_IMG_CF_TRUE_COLOR_ALPHA:
 1401              		.loc 1 440 13 view .LVU476
 1402 04ca 0F99     		ldr	r1, [sp, #60]
 435:Drivers/lvgl/src/draw/sw/lv_draw_sw_transform.c **** #elif LV_COLOR_DEPTH == 32
 1403              		.loc 1 435 26 view .LVU477
 1404 04cc AEF80040 		strh	r4, [lr]	@ movhi
 439:Drivers/lvgl/src/draw/sw/lv_draw_sw_transform.c ****             switch(cf) {
 1405              		.loc 1 439 13 is_stmt 1 view .LVU478
 440:Drivers/lvgl/src/draw/sw/lv_draw_sw_transform.c ****                 case LV_IMG_CF_TRUE_COLOR_ALPHA:
 1406              		.loc 1 440 13 view .LVU479
 1407 04d0 0629     		cmp	r1, #6
 1408 04d2 7AD0     		beq	.L71
 1409 04d4 1429     		cmp	r1, #20
 1410 04d6 7FD0     		beq	.L72
 1411 04d8 0529     		cmp	r1, #5
 1412 04da 6DD1     		bne	.L83
 442:Drivers/lvgl/src/draw/sw/lv_draw_sw_transform.c ****                     break;
 1413              		.loc 1 442 21 view .LVU480
 442:Drivers/lvgl/src/draw/sw/lv_draw_sw_transform.c ****                     break;
 1414              		.loc 1 442 23 is_stmt 0 view .LVU481
 1415 04dc 1199     		ldr	r1, [sp, #68]
 1416 04de 8C78     		ldrb	r4, [r1, #2]	@ zero_extendqisi2
 1417              	.LVL145:
 443:Drivers/lvgl/src/draw/sw/lv_draw_sw_transform.c ****                 case LV_IMG_CF_TRUE_COLOR_CHROMA_KEYED:
 1418              		.loc 1 443 21 is_stmt 1 view .LVU482
 456:Drivers/lvgl/src/draw/sw/lv_draw_sw_transform.c ****                 abuf[x] = (a * (0xFF - xs_fract)) >> 8;
 1419              		.loc 1 456 13 view .LVU483
 1420 04e0 D6E7     		b	.L64
 1421              	.LVL146:
 1422              	.L66:
ARM GAS  /var/folders/lp/x54gwt890xv47sdkqj1k04q40000gn/T//cc93WRjx.s 			page 45


 459:Drivers/lvgl/src/draw/sw/lv_draw_sw_transform.c ****                 abuf[x] = (a * (0xFF - ys_fract)) >> 8;
 1423              		.loc 1 459 69 is_stmt 0 discriminator 3 view .LVU484
 1424 04e2 0699     		ldr	r1, [sp, #24]
 1425 04e4 0139     		subs	r1, r1, #1
 459:Drivers/lvgl/src/draw/sw/lv_draw_sw_transform.c ****                 abuf[x] = (a * (0xFF - ys_fract)) >> 8;
 1426              		.loc 1 459 49 discriminator 3 view .LVU485
 1427 04e6 8842     		cmp	r0, r1
 1428 04e8 7FF4D7AE 		bne	.L68
 459:Drivers/lvgl/src/draw/sw/lv_draw_sw_transform.c ****                 abuf[x] = (a * (0xFF - ys_fract)) >> 8;
 1429              		.loc 1 459 73 discriminator 4 view .LVU486
 1430 04ec 0E99     		ldr	r1, [sp, #56]
 1431 04ee 0129     		cmp	r1, #1
 1432 04f0 7FF4D3AE 		bne	.L68
 1433              	.L67:
 460:Drivers/lvgl/src/draw/sw/lv_draw_sw_transform.c ****             }
 1434              		.loc 1 460 17 is_stmt 1 view .LVU487
 460:Drivers/lvgl/src/draw/sw/lv_draw_sw_transform.c ****             }
 1435              		.loc 1 460 38 is_stmt 0 view .LVU488
 1436 04f4 1499     		ldr	r1, [sp, #80]
 1437 04f6 C1F1FF01 		rsb	r1, r1, #255
 460:Drivers/lvgl/src/draw/sw/lv_draw_sw_transform.c ****             }
 1438              		.loc 1 460 30 view .LVU489
 1439 04fa 04FB01F1 		mul	r1, r4, r1
 460:Drivers/lvgl/src/draw/sw/lv_draw_sw_transform.c ****             }
 1440              		.loc 1 460 51 view .LVU490
 1441 04fe 0912     		asrs	r1, r1, #8
 460:Drivers/lvgl/src/draw/sw/lv_draw_sw_transform.c ****             }
 1442              		.loc 1 460 25 view .LVU491
 1443 0500 1970     		strb	r1, [r3]
 1444              	.LVL147:
 460:Drivers/lvgl/src/draw/sw/lv_draw_sw_transform.c ****             }
 1445              		.loc 1 460 25 view .LVU492
 1446 0502 CDE6     		b	.L39
 1447              	.LVL148:
 1448              	.L58:
 449:Drivers/lvgl/src/draw/sw/lv_draw_sw_transform.c ****                     break;
 1449              		.loc 1 449 21 is_stmt 1 view .LVU493
 449:Drivers/lvgl/src/draw/sw/lv_draw_sw_transform.c ****                     break;
 1450              		.loc 1 449 44 is_stmt 0 view .LVU494
 1451 0504 069E     		ldr	r6, [sp, #24]
 1452 0506 099C     		ldr	r4, [sp, #36]
 1453 0508 06FB04F4 		mul	r4, r6, r4
 449:Drivers/lvgl/src/draw/sw/lv_draw_sw_transform.c ****                     break;
 1454              		.loc 1 449 23 view .LVU495
 1455 050c 089E     		ldr	r6, [sp, #32]
 1456 050e 06EB4404 		add	r4, r6, r4, lsl #1
 1457 0512 0C44     		add	r4, r4, r1
 1458 0514 159E     		ldr	r6, [sp, #84]
 1459 0516 A45D     		ldrb	r4, [r4, r6]	@ zero_extendqisi2
 1460              	.LVL149:
 450:Drivers/lvgl/src/draw/sw/lv_draw_sw_transform.c **** #endif
 1461              		.loc 1 450 21 is_stmt 1 view .LVU496
 456:Drivers/lvgl/src/draw/sw/lv_draw_sw_transform.c ****                 abuf[x] = (a * (0xFF - xs_fract)) >> 8;
 1462              		.loc 1 456 13 view .LVU497
 456:Drivers/lvgl/src/draw/sw/lv_draw_sw_transform.c ****                 abuf[x] = (a * (0xFF - xs_fract)) >> 8;
 1463              		.loc 1 456 15 is_stmt 0 view .LVU498
 1464 0518 0029     		cmp	r1, #0
ARM GAS  /var/folders/lp/x54gwt890xv47sdkqj1k04q40000gn/T//cc93WRjx.s 			page 46


 1465 051a 7FF4AFAE 		bne	.L61
 456:Drivers/lvgl/src/draw/sw/lv_draw_sw_transform.c ****                 abuf[x] = (a * (0xFF - xs_fract)) >> 8;
 1466              		.loc 1 456 29 discriminator 1 view .LVU499
 1467 051e 0135     		adds	r5, r5, #1
 1468 0520 B6D0     		beq	.L64
 1469              	.L60:
 456:Drivers/lvgl/src/draw/sw/lv_draw_sw_transform.c ****                 abuf[x] = (a * (0xFF - xs_fract)) >> 8;
 1470              		.loc 1 456 44 discriminator 3 view .LVU500
 1471 0522 0299     		ldr	r1, [sp, #8]
 1472              	.LVL150:
 456:Drivers/lvgl/src/draw/sw/lv_draw_sw_transform.c ****                 abuf[x] = (a * (0xFF - xs_fract)) >> 8;
 1473              		.loc 1 456 44 discriminator 3 view .LVU501
 1474 0524 0129     		cmp	r1, #1
 1475 0526 7FF4ADAE 		bne	.L65
 1476 052a B1E7     		b	.L64
 1477              	.LVL151:
 1478              	.L12:
 456:Drivers/lvgl/src/draw/sw/lv_draw_sw_transform.c ****                 abuf[x] = (a * (0xFF - xs_fract)) >> 8;
 1479              		.loc 1 456 44 discriminator 3 view .LVU502
 1480              	.LBE78:
 1481              	.LBE134:
 1482              	.LBE138:
 1483              	.LBE158:
 1484              	.LBE162:
 154:Drivers/lvgl/src/draw/sw/lv_draw_sw_transform.c **** 
 1485              		.loc 1 154 1 view .LVU503
 1486 052c 2DB0     		add	sp, sp, #180
 1487              		.cfi_remember_state
 1488              		.cfi_def_cfa_offset 36
 1489              		@ sp needed
 1490 052e BDE8F08F 		pop	{r4, r5, r6, r7, r8, r9, r10, fp, pc}
 1491              	.LVL152:
 1492              	.L59:
 1493              		.cfi_restore_state
 1494              	.LBB163:
 1495              	.LBB159:
 1496              	.LBB139:
 1497              	.LBB135:
 1498              	.LBB79:
 456:Drivers/lvgl/src/draw/sw/lv_draw_sw_transform.c ****                 abuf[x] = (a * (0xFF - xs_fract)) >> 8;
 1499              		.loc 1 456 13 is_stmt 1 view .LVU504
 456:Drivers/lvgl/src/draw/sw/lv_draw_sw_transform.c ****                 abuf[x] = (a * (0xFF - xs_fract)) >> 8;
 1500              		.loc 1 456 15 is_stmt 0 view .LVU505
 1501 0532 FF24     		movs	r4, #255
 1502 0534 0029     		cmp	r1, #0
 1503 0536 7FF4A1AE 		bne	.L61
 456:Drivers/lvgl/src/draw/sw/lv_draw_sw_transform.c ****                 abuf[x] = (a * (0xFF - xs_fract)) >> 8;
 1504              		.loc 1 456 44 discriminator 3 view .LVU506
 1505 053a 0299     		ldr	r1, [sp, #8]
 1506              	.LVL153:
 456:Drivers/lvgl/src/draw/sw/lv_draw_sw_transform.c ****                 abuf[x] = (a * (0xFF - xs_fract)) >> 8;
 1507              		.loc 1 456 44 discriminator 3 view .LVU507
 1508 053c 0129     		cmp	r1, #1
 1509 053e 7FF4A1AE 		bne	.L65
 1510 0542 A5E7     		b	.L64
 1511              	.LVL154:
 1512              	.L57:
ARM GAS  /var/folders/lp/x54gwt890xv47sdkqj1k04q40000gn/T//cc93WRjx.s 			page 47


 445:Drivers/lvgl/src/draw/sw/lv_draw_sw_transform.c ****                     break;
 1513              		.loc 1 445 21 is_stmt 1 view .LVU508
 445:Drivers/lvgl/src/draw/sw/lv_draw_sw_transform.c ****                     break;
 1514              		.loc 1 445 23 is_stmt 0 view .LVU509
 1515 0544 189D     		ldr	r5, [sp, #96]
 1516 0546 2C1B     		subs	r4, r5, r4
 1517 0548 18BF     		it	ne
 1518 054a 4FF0FF34 		movne	r4, #-1
 1519 054e E4B2     		uxtb	r4, r4
 1520              	.LVL155:
 456:Drivers/lvgl/src/draw/sw/lv_draw_sw_transform.c ****                 abuf[x] = (a * (0xFF - xs_fract)) >> 8;
 1521              		.loc 1 456 13 is_stmt 1 view .LVU510
 456:Drivers/lvgl/src/draw/sw/lv_draw_sw_transform.c ****                 abuf[x] = (a * (0xFF - xs_fract)) >> 8;
 1522              		.loc 1 456 15 is_stmt 0 view .LVU511
 1523 0550 0029     		cmp	r1, #0
 1524 0552 7FF493AE 		bne	.L61
 456:Drivers/lvgl/src/draw/sw/lv_draw_sw_transform.c ****                 abuf[x] = (a * (0xFF - xs_fract)) >> 8;
 1525              		.loc 1 456 44 discriminator 3 view .LVU512
 1526 0556 0299     		ldr	r1, [sp, #8]
 1527              	.LVL156:
 456:Drivers/lvgl/src/draw/sw/lv_draw_sw_transform.c ****                 abuf[x] = (a * (0xFF - xs_fract)) >> 8;
 1528              		.loc 1 456 44 discriminator 3 view .LVU513
 1529 0558 0129     		cmp	r1, #1
 1530 055a 7FF493AE 		bne	.L65
 1531 055e 97E7     		b	.L64
 1532              	.LVL157:
 1533              	.L115:
 456:Drivers/lvgl/src/draw/sw/lv_draw_sw_transform.c ****                 abuf[x] = (a * (0xFF - xs_fract)) >> 8;
 1534              		.loc 1 456 44 discriminator 3 view .LVU514
 1535              	.LBE79:
 1536              	.LBB80:
 350:Drivers/lvgl/src/draw/sw/lv_draw_sw_transform.c ****             const uint8_t * px_hor = src_tmp + x_next * px_size;
 1537              		.loc 1 350 13 is_stmt 1 view .LVU515
 351:Drivers/lvgl/src/draw/sw/lv_draw_sw_transform.c ****             const uint8_t * px_ver = src_tmp + y_next * src_stride * px_size;
 1538              		.loc 1 351 13 view .LVU516
 352:Drivers/lvgl/src/draw/sw/lv_draw_sw_transform.c ****             lv_color_t c_base;
 1539              		.loc 1 352 55 is_stmt 0 view .LVU517
 1540 0560 0E9F     		ldr	r7, [sp, #56]
 1541 0562 0998     		ldr	r0, [sp, #36]
 352:Drivers/lvgl/src/draw/sw/lv_draw_sw_transform.c ****             lv_color_t c_base;
 1542              		.loc 1 352 68 view .LVU518
 1543 0564 109D     		ldr	r5, [sp, #64]
 352:Drivers/lvgl/src/draw/sw/lv_draw_sw_transform.c ****             lv_color_t c_base;
 1544              		.loc 1 352 55 view .LVU519
 1545 0566 00FB07F7 		mul	r7, r0, r7
 351:Drivers/lvgl/src/draw/sw/lv_draw_sw_transform.c ****             const uint8_t * px_ver = src_tmp + y_next * src_stride * px_size;
 1546              		.loc 1 351 55 view .LVU520
 1547 056a 0B98     		ldr	r0, [sp, #44]
 352:Drivers/lvgl/src/draw/sw/lv_draw_sw_transform.c ****             lv_color_t c_base;
 1548              		.loc 1 352 68 view .LVU521
 1549 056c 05FB07F7 		mul	r7, r5, r7
 351:Drivers/lvgl/src/draw/sw/lv_draw_sw_transform.c ****             const uint8_t * px_ver = src_tmp + y_next * src_stride * px_size;
 1550              		.loc 1 351 55 view .LVU522
 1551 0570 00FB05F5 		mul	r5, r0, r5
 351:Drivers/lvgl/src/draw/sw/lv_draw_sw_transform.c ****             const uint8_t * px_ver = src_tmp + y_next * src_stride * px_size;
 1552              		.loc 1 351 29 view .LVU523
 1553 0574 1198     		ldr	r0, [sp, #68]
ARM GAS  /var/folders/lp/x54gwt890xv47sdkqj1k04q40000gn/T//cc93WRjx.s 			page 48


 351:Drivers/lvgl/src/draw/sw/lv_draw_sw_transform.c ****             const uint8_t * px_ver = src_tmp + y_next * src_stride * px_size;
 1554              		.loc 1 351 55 view .LVU524
 1555 0576 0E95     		str	r5, [sp, #56]
 1556              	.LVL158:
 351:Drivers/lvgl/src/draw/sw/lv_draw_sw_transform.c ****             const uint8_t * px_ver = src_tmp + y_next * src_stride * px_size;
 1557              		.loc 1 351 29 view .LVU525
 1558 0578 4619     		adds	r6, r0, r5
 1559 057a 3546     		mov	r5, r6
 1560              	.LVL159:
 352:Drivers/lvgl/src/draw/sw/lv_draw_sw_transform.c ****             lv_color_t c_base;
 1561              		.loc 1 352 13 is_stmt 1 view .LVU526
 357:Drivers/lvgl/src/draw/sw/lv_draw_sw_transform.c ****                 lv_opa_t a_base;
 1562              		.loc 1 357 15 is_stmt 0 view .LVU527
 1563 057c 199E     		ldr	r6, [sp, #100]
 352:Drivers/lvgl/src/draw/sw/lv_draw_sw_transform.c ****             lv_color_t c_base;
 1564              		.loc 1 352 29 view .LVU528
 1565 057e 3844     		add	r0, r0, r7
 1566              	.LVL160:
 353:Drivers/lvgl/src/draw/sw/lv_draw_sw_transform.c ****             lv_color_t c_ver;
 1567              		.loc 1 353 13 is_stmt 1 view .LVU529
 354:Drivers/lvgl/src/draw/sw/lv_draw_sw_transform.c ****             lv_color_t c_hor;
 1568              		.loc 1 354 13 view .LVU530
 355:Drivers/lvgl/src/draw/sw/lv_draw_sw_transform.c **** 
 1569              		.loc 1 355 13 view .LVU531
 357:Drivers/lvgl/src/draw/sw/lv_draw_sw_transform.c ****                 lv_opa_t a_base;
 1570              		.loc 1 357 13 view .LVU532
 357:Drivers/lvgl/src/draw/sw/lv_draw_sw_transform.c ****                 lv_opa_t a_base;
 1571              		.loc 1 357 15 is_stmt 0 view .LVU533
 1572 0580 002E     		cmp	r6, #0
 1573 0582 33D0     		beq	.L46
 1574              	.LBB81:
 358:Drivers/lvgl/src/draw/sw/lv_draw_sw_transform.c ****                 lv_opa_t a_ver;
 1575              		.loc 1 358 17 is_stmt 1 view .LVU534
 359:Drivers/lvgl/src/draw/sw/lv_draw_sw_transform.c ****                 lv_opa_t a_hor;
 1576              		.loc 1 359 17 view .LVU535
 360:Drivers/lvgl/src/draw/sw/lv_draw_sw_transform.c ****                 if(cf == LV_IMG_CF_TRUE_COLOR_ALPHA) {
 1577              		.loc 1 360 17 view .LVU536
 361:Drivers/lvgl/src/draw/sw/lv_draw_sw_transform.c ****                     a_base = px_base[LV_IMG_PX_SIZE_ALPHA_BYTE - 1];
 1578              		.loc 1 361 17 view .LVU537
 361:Drivers/lvgl/src/draw/sw/lv_draw_sw_transform.c ****                     a_base = px_base[LV_IMG_PX_SIZE_ALPHA_BYTE - 1];
 1579              		.loc 1 361 19 is_stmt 0 view .LVU538
 1580 0584 0F9E     		ldr	r6, [sp, #60]
 1581 0586 052E     		cmp	r6, #5
 1582 0588 7DD0     		beq	.L121
 367:Drivers/lvgl/src/draw/sw/lv_draw_sw_transform.c ****                     const lv_opa_t * a_tmp = src + src_stride * src_h * sizeof(lv_color_t);
 1583              		.loc 1 367 22 is_stmt 1 view .LVU539
 367:Drivers/lvgl/src/draw/sw/lv_draw_sw_transform.c ****                     const lv_opa_t * a_tmp = src + src_stride * src_h * sizeof(lv_color_t);
 1584              		.loc 1 367 24 is_stmt 0 view .LVU540
 1585 058a 0F98     		ldr	r0, [sp, #60]
 1586              	.LVL161:
 367:Drivers/lvgl/src/draw/sw/lv_draw_sw_transform.c ****                     const lv_opa_t * a_tmp = src + src_stride * src_h * sizeof(lv_color_t);
 1587              		.loc 1 367 24 view .LVU541
 1588 058c 1428     		cmp	r0, #20
 1589 058e 00F09B80 		beq	.L122
 374:Drivers/lvgl/src/draw/sw/lv_draw_sw_transform.c ****                     if(((lv_color_t *)px_base)->full == ck.full ||
 1590              		.loc 1 374 22 is_stmt 1 view .LVU542
 374:Drivers/lvgl/src/draw/sw/lv_draw_sw_transform.c ****                     if(((lv_color_t *)px_base)->full == ck.full ||
ARM GAS  /var/folders/lp/x54gwt890xv47sdkqj1k04q40000gn/T//cc93WRjx.s 			page 49


 1591              		.loc 1 374 24 is_stmt 0 view .LVU543
 1592 0592 0F99     		ldr	r1, [sp, #60]
 1593              	.LVL162:
 374:Drivers/lvgl/src/draw/sw/lv_draw_sw_transform.c ****                     if(((lv_color_t *)px_base)->full == ck.full ||
 1594              		.loc 1 374 24 view .LVU544
 1595 0594 0629     		cmp	r1, #6
 1596 0596 00F0AC80 		beq	.L50
 1597              	.LVL163:
 1598              	.L111:
 395:Drivers/lvgl/src/draw/sw/lv_draw_sw_transform.c **** 
 1599              		.loc 1 395 17 is_stmt 1 view .LVU545
 395:Drivers/lvgl/src/draw/sw/lv_draw_sw_transform.c **** 
 1600              		.loc 1 395 25 is_stmt 0 view .LVU546
 1601 059a FF21     		movs	r1, #255
 1602 059c 1970     		strb	r1, [r3]
 1603              	.LVL164:
 397:Drivers/lvgl/src/draw/sw/lv_draw_sw_transform.c **** 
 1604              		.loc 1 397 17 is_stmt 1 view .LVU547
 1605              	.L51:
 404:Drivers/lvgl/src/draw/sw/lv_draw_sw_transform.c ****                 c_ver.full = px_ver[0] + (px_ver[1] << 8);
 1606              		.loc 1 404 17 view .LVU548
 404:Drivers/lvgl/src/draw/sw/lv_draw_sw_transform.c ****                 c_ver.full = px_ver[0] + (px_ver[1] << 8);
 1607              		.loc 1 404 42 is_stmt 0 view .LVU549
 1608 059e 0899     		ldr	r1, [sp, #32]
 406:Drivers/lvgl/src/draw/sw/lv_draw_sw_transform.c **** #elif LV_COLOR_DEPTH == 32
 1609              		.loc 1 406 40 view .LVU550
 1610 05a0 0E9D     		ldr	r5, [sp, #56]
 404:Drivers/lvgl/src/draw/sw/lv_draw_sw_transform.c ****                 c_ver.full = px_ver[0] + (px_ver[1] << 8);
 1611              		.loc 1 404 42 view .LVU551
 1612 05a2 095B     		ldrh	r1, [r1, r4]	@ unaligned
 1613              	.LVL165:
 405:Drivers/lvgl/src/draw/sw/lv_draw_sw_transform.c ****                 c_hor.full = px_hor[0] + (px_hor[1] << 8);
 1614              		.loc 1 405 17 is_stmt 1 view .LVU552
 405:Drivers/lvgl/src/draw/sw/lv_draw_sw_transform.c ****                 c_hor.full = px_hor[0] + (px_hor[1] << 8);
 1615              		.loc 1 405 40 is_stmt 0 view .LVU553
 1616 05a4 119C     		ldr	r4, [sp, #68]
 1617 05a6 E05B     		ldrh	r0, [r4, r7]	@ unaligned
 1618              	.LVL166:
 406:Drivers/lvgl/src/draw/sw/lv_draw_sw_transform.c **** #elif LV_COLOR_DEPTH == 32
 1619              		.loc 1 406 17 is_stmt 1 view .LVU554
 406:Drivers/lvgl/src/draw/sw/lv_draw_sw_transform.c **** #elif LV_COLOR_DEPTH == 32
 1620              		.loc 1 406 40 is_stmt 0 view .LVU555
 1621 05a8 645B     		ldrh	r4, [r4, r5]	@ unaligned
 1622              	.LVL167:
 406:Drivers/lvgl/src/draw/sw/lv_draw_sw_transform.c **** #elif LV_COLOR_DEPTH == 32
 1623              		.loc 1 406 40 view .LVU556
 1624              	.LBE81:
 421:Drivers/lvgl/src/draw/sw/lv_draw_sw_transform.c ****                 cbuf[x] = c_base;
 1625              		.loc 1 421 13 is_stmt 1 view .LVU557
 421:Drivers/lvgl/src/draw/sw/lv_draw_sw_transform.c ****                 cbuf[x] = c_base;
 1626              		.loc 1 421 15 is_stmt 0 view .LVU558
 1627 05aa 8842     		cmp	r0, r1
 1628 05ac 28D1     		bne	.L56
 1629              	.LVL168:
 1630              	.L123:
 421:Drivers/lvgl/src/draw/sw/lv_draw_sw_transform.c ****                 cbuf[x] = c_base;
 1631              		.loc 1 421 42 discriminator 1 view .LVU559
ARM GAS  /var/folders/lp/x54gwt890xv47sdkqj1k04q40000gn/T//cc93WRjx.s 			page 50


 1632 05ae A042     		cmp	r0, r4
 1633 05b0 26D1     		bne	.L56
 422:Drivers/lvgl/src/draw/sw/lv_draw_sw_transform.c ****             }
 1634              		.loc 1 422 17 is_stmt 1 view .LVU560
 422:Drivers/lvgl/src/draw/sw/lv_draw_sw_transform.c ****             }
 1635              		.loc 1 422 25 is_stmt 0 view .LVU561
 1636 05b2 AEF80000 		strh	r0, [lr]	@ movhi
 1637 05b6 73E6     		b	.L39
 1638              	.LVL169:
 1639              	.L83:
 422:Drivers/lvgl/src/draw/sw/lv_draw_sw_transform.c ****             }
 1640              		.loc 1 422 25 view .LVU562
 1641              	.LBE80:
 1642              	.LBB126:
 440:Drivers/lvgl/src/draw/sw/lv_draw_sw_transform.c ****                 case LV_IMG_CF_TRUE_COLOR_ALPHA:
 1643              		.loc 1 440 13 view .LVU563
 1644 05b8 FF24     		movs	r4, #255
 1645 05ba 69E7     		b	.L64
 1646              	.LVL170:
 1647              	.L82:
 440:Drivers/lvgl/src/draw/sw/lv_draw_sw_transform.c ****                 case LV_IMG_CF_TRUE_COLOR_ALPHA:
 1648              		.loc 1 440 13 view .LVU564
 1649              	.LBE126:
 1650              	.LBE135:
 277:Drivers/lvgl/src/draw/sw/lv_draw_sw_transform.c ****         case LV_IMG_CF_TRUE_COLOR:
 1651              		.loc 1 277 5 view .LVU565
 1652 05bc 0023     		movs	r3, #0
 1653 05be 1893     		str	r3, [sp, #96]
 1654 05c0 0323     		movs	r3, #3
 1655 05c2 1093     		str	r3, [sp, #64]
 1656 05c4 0123     		movs	r3, #1
 1657 05c6 1993     		str	r3, [sp, #100]
 1658 05c8 F4E5     		b	.L35
 1659              	.LVL171:
 1660              	.L71:
 1661              	.LBB136:
 1662              	.LBB127:
 445:Drivers/lvgl/src/draw/sw/lv_draw_sw_transform.c ****                     break;
 1663              		.loc 1 445 21 is_stmt 1 view .LVU566
 445:Drivers/lvgl/src/draw/sw/lv_draw_sw_transform.c ****                     break;
 1664              		.loc 1 445 23 is_stmt 0 view .LVU567
 1665 05ca 1899     		ldr	r1, [sp, #96]
 1666 05cc 0C1B     		subs	r4, r1, r4
 1667 05ce 18BF     		it	ne
 1668 05d0 4FF0FF34 		movne	r4, #-1
 1669 05d4 E4B2     		uxtb	r4, r4
 1670              	.LVL172:
 456:Drivers/lvgl/src/draw/sw/lv_draw_sw_transform.c ****                 abuf[x] = (a * (0xFF - xs_fract)) >> 8;
 1671              		.loc 1 456 13 is_stmt 1 view .LVU568
 1672 05d6 5BE7     		b	.L64
 1673              	.LVL173:
 1674              	.L72:
 449:Drivers/lvgl/src/draw/sw/lv_draw_sw_transform.c ****                     break;
 1675              		.loc 1 449 21 view .LVU569
 449:Drivers/lvgl/src/draw/sw/lv_draw_sw_transform.c ****                     break;
 1676              		.loc 1 449 44 is_stmt 0 view .LVU570
 1677 05d8 0698     		ldr	r0, [sp, #24]
ARM GAS  /var/folders/lp/x54gwt890xv47sdkqj1k04q40000gn/T//cc93WRjx.s 			page 51


 1678 05da 0999     		ldr	r1, [sp, #36]
 1679 05dc 00FB01F1 		mul	r1, r0, r1
 449:Drivers/lvgl/src/draw/sw/lv_draw_sw_transform.c ****                     break;
 1680              		.loc 1 449 23 view .LVU571
 1681 05e0 0898     		ldr	r0, [sp, #32]
 1682 05e2 00EB4101 		add	r1, r0, r1, lsl #1
 1683 05e6 1598     		ldr	r0, [sp, #84]
 1684 05e8 0C5C     		ldrb	r4, [r1, r0]	@ zero_extendqisi2
 1685              	.LVL174:
 450:Drivers/lvgl/src/draw/sw/lv_draw_sw_transform.c **** #endif
 1686              		.loc 1 450 21 is_stmt 1 view .LVU572
 456:Drivers/lvgl/src/draw/sw/lv_draw_sw_transform.c ****                 abuf[x] = (a * (0xFF - xs_fract)) >> 8;
 1687              		.loc 1 456 13 view .LVU573
 1688 05ea 51E7     		b	.L64
 1689              	.LVL175:
 1690              	.L46:
 456:Drivers/lvgl/src/draw/sw/lv_draw_sw_transform.c ****                 abuf[x] = (a * (0xFF - xs_fract)) >> 8;
 1691              		.loc 1 456 13 is_stmt 0 view .LVU574
 1692              	.LBE127:
 1693              	.LBB128:
 415:Drivers/lvgl/src/draw/sw/lv_draw_sw_transform.c ****                 c_hor = *((const lv_color_t *) px_hor);
 1694              		.loc 1 415 17 is_stmt 1 view .LVU575
 415:Drivers/lvgl/src/draw/sw/lv_draw_sw_transform.c ****                 c_hor = *((const lv_color_t *) px_hor);
 1695              		.loc 1 415 24 is_stmt 0 view .LVU576
 1696 05ec 0899     		ldr	r1, [sp, #32]
 1697              	.LVL176:
 416:Drivers/lvgl/src/draw/sw/lv_draw_sw_transform.c ****                 c_ver = *((const lv_color_t *) px_ver);
 1698              		.loc 1 416 23 view .LVU577
 1699 05ee 1198     		ldr	r0, [sp, #68]
 1700              	.LVL177:
 415:Drivers/lvgl/src/draw/sw/lv_draw_sw_transform.c ****                 c_hor = *((const lv_color_t *) px_hor);
 1701              		.loc 1 415 24 view .LVU578
 1702 05f0 095B     		ldrh	r1, [r1, r4]
 1703              	.LVL178:
 416:Drivers/lvgl/src/draw/sw/lv_draw_sw_transform.c ****                 c_ver = *((const lv_color_t *) px_ver);
 1704              		.loc 1 416 17 is_stmt 1 view .LVU579
 416:Drivers/lvgl/src/draw/sw/lv_draw_sw_transform.c ****                 c_ver = *((const lv_color_t *) px_ver);
 1705              		.loc 1 416 23 is_stmt 0 view .LVU580
 1706 05f2 0E9C     		ldr	r4, [sp, #56]
 1707 05f4 045B     		ldrh	r4, [r0, r4]
 1708              	.LVL179:
 417:Drivers/lvgl/src/draw/sw/lv_draw_sw_transform.c ****                 abuf[x] = 0xff;
 1709              		.loc 1 417 17 is_stmt 1 view .LVU581
 417:Drivers/lvgl/src/draw/sw/lv_draw_sw_transform.c ****                 abuf[x] = 0xff;
 1710              		.loc 1 417 23 is_stmt 0 view .LVU582
 1711 05f6 C05B     		ldrh	r0, [r0, r7]
 1712              	.LVL180:
 418:Drivers/lvgl/src/draw/sw/lv_draw_sw_transform.c ****             }
 1713              		.loc 1 418 17 is_stmt 1 view .LVU583
 418:Drivers/lvgl/src/draw/sw/lv_draw_sw_transform.c ****             }
 1714              		.loc 1 418 25 is_stmt 0 view .LVU584
 1715 05f8 FF25     		movs	r5, #255
 1716              	.LVL181:
 421:Drivers/lvgl/src/draw/sw/lv_draw_sw_transform.c ****                 cbuf[x] = c_base;
 1717              		.loc 1 421 15 view .LVU585
 1718 05fa 8842     		cmp	r0, r1
 418:Drivers/lvgl/src/draw/sw/lv_draw_sw_transform.c ****             }
ARM GAS  /var/folders/lp/x54gwt890xv47sdkqj1k04q40000gn/T//cc93WRjx.s 			page 52


 1719              		.loc 1 418 25 view .LVU586
 1720 05fc 1D70     		strb	r5, [r3]
 1721              	.LVL182:
 421:Drivers/lvgl/src/draw/sw/lv_draw_sw_transform.c ****                 cbuf[x] = c_base;
 1722              		.loc 1 421 13 is_stmt 1 view .LVU587
 421:Drivers/lvgl/src/draw/sw/lv_draw_sw_transform.c ****                 cbuf[x] = c_base;
 1723              		.loc 1 421 15 is_stmt 0 view .LVU588
 1724 05fe D6D0     		beq	.L123
 1725              	.LVL183:
 1726              	.L56:
 425:Drivers/lvgl/src/draw/sw/lv_draw_sw_transform.c ****                 c_hor = lv_color_mix(c_hor, c_base, xs_fract);
 1727              		.loc 1 425 17 is_stmt 1 view .LVU589
 1728              	.LBB83:
 1729              	.LBI83:
 1730              		.file 3 "Drivers/lvgl/src/draw/sw/../../misc/lv_color.h"
   1:Drivers/lvgl/src/draw/sw/../../misc/lv_color.h **** /**
   2:Drivers/lvgl/src/draw/sw/../../misc/lv_color.h ****  * @file lv_color.h
   3:Drivers/lvgl/src/draw/sw/../../misc/lv_color.h ****  *
   4:Drivers/lvgl/src/draw/sw/../../misc/lv_color.h ****  */
   5:Drivers/lvgl/src/draw/sw/../../misc/lv_color.h **** 
   6:Drivers/lvgl/src/draw/sw/../../misc/lv_color.h **** #ifndef LV_COLOR_H
   7:Drivers/lvgl/src/draw/sw/../../misc/lv_color.h **** #define LV_COLOR_H
   8:Drivers/lvgl/src/draw/sw/../../misc/lv_color.h **** 
   9:Drivers/lvgl/src/draw/sw/../../misc/lv_color.h **** #ifdef __cplusplus
  10:Drivers/lvgl/src/draw/sw/../../misc/lv_color.h **** extern "C" {
  11:Drivers/lvgl/src/draw/sw/../../misc/lv_color.h **** #endif
  12:Drivers/lvgl/src/draw/sw/../../misc/lv_color.h **** 
  13:Drivers/lvgl/src/draw/sw/../../misc/lv_color.h **** /*********************
  14:Drivers/lvgl/src/draw/sw/../../misc/lv_color.h ****  *      INCLUDES
  15:Drivers/lvgl/src/draw/sw/../../misc/lv_color.h ****  *********************/
  16:Drivers/lvgl/src/draw/sw/../../misc/lv_color.h **** #include "../lv_conf_internal.h"
  17:Drivers/lvgl/src/draw/sw/../../misc/lv_color.h **** #include "lv_assert.h"
  18:Drivers/lvgl/src/draw/sw/../../misc/lv_color.h **** #include "lv_math.h"
  19:Drivers/lvgl/src/draw/sw/../../misc/lv_color.h **** #include "lv_types.h"
  20:Drivers/lvgl/src/draw/sw/../../misc/lv_color.h **** 
  21:Drivers/lvgl/src/draw/sw/../../misc/lv_color.h **** /*Error checking*/
  22:Drivers/lvgl/src/draw/sw/../../misc/lv_color.h **** #if LV_COLOR_DEPTH == 24
  23:Drivers/lvgl/src/draw/sw/../../misc/lv_color.h **** #error "LV_COLOR_DEPTH 24 is deprecated. Use LV_COLOR_DEPTH 32 instead (lv_conf.h)"
  24:Drivers/lvgl/src/draw/sw/../../misc/lv_color.h **** #endif
  25:Drivers/lvgl/src/draw/sw/../../misc/lv_color.h **** 
  26:Drivers/lvgl/src/draw/sw/../../misc/lv_color.h **** #if LV_COLOR_DEPTH != 16 && LV_COLOR_16_SWAP != 0
  27:Drivers/lvgl/src/draw/sw/../../misc/lv_color.h **** #error "LV_COLOR_16_SWAP requires LV_COLOR_DEPTH == 16. Set it in lv_conf.h"
  28:Drivers/lvgl/src/draw/sw/../../misc/lv_color.h **** #endif
  29:Drivers/lvgl/src/draw/sw/../../misc/lv_color.h **** 
  30:Drivers/lvgl/src/draw/sw/../../misc/lv_color.h **** #include <stdint.h>
  31:Drivers/lvgl/src/draw/sw/../../misc/lv_color.h **** 
  32:Drivers/lvgl/src/draw/sw/../../misc/lv_color.h **** /*********************
  33:Drivers/lvgl/src/draw/sw/../../misc/lv_color.h ****  *      DEFINES
  34:Drivers/lvgl/src/draw/sw/../../misc/lv_color.h ****  *********************/
  35:Drivers/lvgl/src/draw/sw/../../misc/lv_color.h **** LV_EXPORT_CONST_INT(LV_COLOR_DEPTH);
  36:Drivers/lvgl/src/draw/sw/../../misc/lv_color.h **** LV_EXPORT_CONST_INT(LV_COLOR_16_SWAP);
  37:Drivers/lvgl/src/draw/sw/../../misc/lv_color.h **** 
  38:Drivers/lvgl/src/draw/sw/../../misc/lv_color.h **** /**
  39:Drivers/lvgl/src/draw/sw/../../misc/lv_color.h ****  * Opacity percentages.
  40:Drivers/lvgl/src/draw/sw/../../misc/lv_color.h ****  */
  41:Drivers/lvgl/src/draw/sw/../../misc/lv_color.h **** enum {
  42:Drivers/lvgl/src/draw/sw/../../misc/lv_color.h ****     LV_OPA_TRANSP = 0,
ARM GAS  /var/folders/lp/x54gwt890xv47sdkqj1k04q40000gn/T//cc93WRjx.s 			page 53


  43:Drivers/lvgl/src/draw/sw/../../misc/lv_color.h ****     LV_OPA_0      = 0,
  44:Drivers/lvgl/src/draw/sw/../../misc/lv_color.h ****     LV_OPA_10     = 25,
  45:Drivers/lvgl/src/draw/sw/../../misc/lv_color.h ****     LV_OPA_20     = 51,
  46:Drivers/lvgl/src/draw/sw/../../misc/lv_color.h ****     LV_OPA_30     = 76,
  47:Drivers/lvgl/src/draw/sw/../../misc/lv_color.h ****     LV_OPA_40     = 102,
  48:Drivers/lvgl/src/draw/sw/../../misc/lv_color.h ****     LV_OPA_50     = 127,
  49:Drivers/lvgl/src/draw/sw/../../misc/lv_color.h ****     LV_OPA_60     = 153,
  50:Drivers/lvgl/src/draw/sw/../../misc/lv_color.h ****     LV_OPA_70     = 178,
  51:Drivers/lvgl/src/draw/sw/../../misc/lv_color.h ****     LV_OPA_80     = 204,
  52:Drivers/lvgl/src/draw/sw/../../misc/lv_color.h ****     LV_OPA_90     = 229,
  53:Drivers/lvgl/src/draw/sw/../../misc/lv_color.h ****     LV_OPA_100    = 255,
  54:Drivers/lvgl/src/draw/sw/../../misc/lv_color.h ****     LV_OPA_COVER  = 255,
  55:Drivers/lvgl/src/draw/sw/../../misc/lv_color.h **** };
  56:Drivers/lvgl/src/draw/sw/../../misc/lv_color.h **** 
  57:Drivers/lvgl/src/draw/sw/../../misc/lv_color.h **** #define LV_OPA_MIN 2    /*Opacities below this will be transparent*/
  58:Drivers/lvgl/src/draw/sw/../../misc/lv_color.h **** #define LV_OPA_MAX 253  /*Opacities above this will fully cover*/
  59:Drivers/lvgl/src/draw/sw/../../misc/lv_color.h **** 
  60:Drivers/lvgl/src/draw/sw/../../misc/lv_color.h **** #if LV_COLOR_DEPTH == 1
  61:Drivers/lvgl/src/draw/sw/../../misc/lv_color.h **** #define LV_COLOR_SIZE 8
  62:Drivers/lvgl/src/draw/sw/../../misc/lv_color.h **** #elif LV_COLOR_DEPTH == 8
  63:Drivers/lvgl/src/draw/sw/../../misc/lv_color.h **** #define LV_COLOR_SIZE 8
  64:Drivers/lvgl/src/draw/sw/../../misc/lv_color.h **** #elif LV_COLOR_DEPTH == 16
  65:Drivers/lvgl/src/draw/sw/../../misc/lv_color.h **** #define LV_COLOR_SIZE 16
  66:Drivers/lvgl/src/draw/sw/../../misc/lv_color.h **** #elif LV_COLOR_DEPTH == 32
  67:Drivers/lvgl/src/draw/sw/../../misc/lv_color.h **** #define LV_COLOR_SIZE 32
  68:Drivers/lvgl/src/draw/sw/../../misc/lv_color.h **** #else
  69:Drivers/lvgl/src/draw/sw/../../misc/lv_color.h **** #error "Invalid LV_COLOR_DEPTH in lv_conf.h! Set it to 1, 8, 16 or 32!"
  70:Drivers/lvgl/src/draw/sw/../../misc/lv_color.h **** #endif
  71:Drivers/lvgl/src/draw/sw/../../misc/lv_color.h **** 
  72:Drivers/lvgl/src/draw/sw/../../misc/lv_color.h **** #if defined(__cplusplus) && !defined(_LV_COLOR_HAS_MODERN_CPP)
  73:Drivers/lvgl/src/draw/sw/../../misc/lv_color.h **** /**
  74:Drivers/lvgl/src/draw/sw/../../misc/lv_color.h **** * MSVC compiler's definition of the __cplusplus indicating 199711L regardless to C++ standard versi
  75:Drivers/lvgl/src/draw/sw/../../misc/lv_color.h **** * see https://devblogs.microsoft.com/cppblog/msvc-now-correctly-reports-cplusplus
  76:Drivers/lvgl/src/draw/sw/../../misc/lv_color.h **** * so we use _MSC_VER macro instead of __cplusplus
  77:Drivers/lvgl/src/draw/sw/../../misc/lv_color.h **** */
  78:Drivers/lvgl/src/draw/sw/../../misc/lv_color.h **** #ifdef _MSC_VER
  79:Drivers/lvgl/src/draw/sw/../../misc/lv_color.h **** #if _MSC_VER >= 1900 /*Visual Studio 2015*/
  80:Drivers/lvgl/src/draw/sw/../../misc/lv_color.h **** #define _LV_COLOR_HAS_MODERN_CPP 1
  81:Drivers/lvgl/src/draw/sw/../../misc/lv_color.h **** #endif
  82:Drivers/lvgl/src/draw/sw/../../misc/lv_color.h **** #else
  83:Drivers/lvgl/src/draw/sw/../../misc/lv_color.h **** #if __cplusplus >= 201103L
  84:Drivers/lvgl/src/draw/sw/../../misc/lv_color.h **** #define _LV_COLOR_HAS_MODERN_CPP 1
  85:Drivers/lvgl/src/draw/sw/../../misc/lv_color.h **** #endif
  86:Drivers/lvgl/src/draw/sw/../../misc/lv_color.h **** #endif
  87:Drivers/lvgl/src/draw/sw/../../misc/lv_color.h **** #endif /*__cplusplus*/
  88:Drivers/lvgl/src/draw/sw/../../misc/lv_color.h **** 
  89:Drivers/lvgl/src/draw/sw/../../misc/lv_color.h **** #ifndef _LV_COLOR_HAS_MODERN_CPP
  90:Drivers/lvgl/src/draw/sw/../../misc/lv_color.h **** #define _LV_COLOR_HAS_MODERN_CPP 0
  91:Drivers/lvgl/src/draw/sw/../../misc/lv_color.h **** #endif
  92:Drivers/lvgl/src/draw/sw/../../misc/lv_color.h **** 
  93:Drivers/lvgl/src/draw/sw/../../misc/lv_color.h **** #if _LV_COLOR_HAS_MODERN_CPP
  94:Drivers/lvgl/src/draw/sw/../../misc/lv_color.h **** /*Fix msvc compiler error C4576 inside C++ code*/
  95:Drivers/lvgl/src/draw/sw/../../misc/lv_color.h **** #define _LV_COLOR_MAKE_TYPE_HELPER lv_color_t
  96:Drivers/lvgl/src/draw/sw/../../misc/lv_color.h **** #else
  97:Drivers/lvgl/src/draw/sw/../../misc/lv_color.h **** #define _LV_COLOR_MAKE_TYPE_HELPER (lv_color_t)
  98:Drivers/lvgl/src/draw/sw/../../misc/lv_color.h **** #endif
  99:Drivers/lvgl/src/draw/sw/../../misc/lv_color.h **** 
ARM GAS  /var/folders/lp/x54gwt890xv47sdkqj1k04q40000gn/T//cc93WRjx.s 			page 54


 100:Drivers/lvgl/src/draw/sw/../../misc/lv_color.h **** /*---------------------------------------
 101:Drivers/lvgl/src/draw/sw/../../misc/lv_color.h ****  * Macros for all existing color depths
 102:Drivers/lvgl/src/draw/sw/../../misc/lv_color.h ****  * to set/get values of the color channels
 103:Drivers/lvgl/src/draw/sw/../../misc/lv_color.h ****  *------------------------------------------*/
 104:Drivers/lvgl/src/draw/sw/../../misc/lv_color.h **** # define LV_COLOR_SET_R1(c, v) (c).ch.red = (uint8_t)((v) & 0x1)
 105:Drivers/lvgl/src/draw/sw/../../misc/lv_color.h **** # define LV_COLOR_SET_G1(c, v) (c).ch.green = (uint8_t)((v) & 0x1)
 106:Drivers/lvgl/src/draw/sw/../../misc/lv_color.h **** # define LV_COLOR_SET_B1(c, v) (c).ch.blue = (uint8_t)((v) & 0x1)
 107:Drivers/lvgl/src/draw/sw/../../misc/lv_color.h **** # define LV_COLOR_SET_A1(c, v) do {} while(0)
 108:Drivers/lvgl/src/draw/sw/../../misc/lv_color.h **** 
 109:Drivers/lvgl/src/draw/sw/../../misc/lv_color.h **** # define LV_COLOR_GET_R1(c) (c).ch.red
 110:Drivers/lvgl/src/draw/sw/../../misc/lv_color.h **** # define LV_COLOR_GET_G1(c) (c).ch.green
 111:Drivers/lvgl/src/draw/sw/../../misc/lv_color.h **** # define LV_COLOR_GET_B1(c) (c).ch.blue
 112:Drivers/lvgl/src/draw/sw/../../misc/lv_color.h **** # define LV_COLOR_GET_A1(c) 0xFF
 113:Drivers/lvgl/src/draw/sw/../../misc/lv_color.h **** 
 114:Drivers/lvgl/src/draw/sw/../../misc/lv_color.h **** # define _LV_COLOR_ZERO_INITIALIZER1 {0x00}
 115:Drivers/lvgl/src/draw/sw/../../misc/lv_color.h **** # define LV_COLOR_MAKE1(r8, g8, b8)  {(uint8_t)((b8 >> 7) | (g8 >> 7) | (r8 >> 7))}
 116:Drivers/lvgl/src/draw/sw/../../misc/lv_color.h **** 
 117:Drivers/lvgl/src/draw/sw/../../misc/lv_color.h **** # define LV_COLOR_SET_R8(c, v) (c).ch.red = (uint8_t)((v) & 0x7U)
 118:Drivers/lvgl/src/draw/sw/../../misc/lv_color.h **** # define LV_COLOR_SET_G8(c, v) (c).ch.green = (uint8_t)((v) & 0x7U)
 119:Drivers/lvgl/src/draw/sw/../../misc/lv_color.h **** # define LV_COLOR_SET_B8(c, v) (c).ch.blue = (uint8_t)((v) & 0x3U)
 120:Drivers/lvgl/src/draw/sw/../../misc/lv_color.h **** # define LV_COLOR_SET_A8(c, v) do {} while(0)
 121:Drivers/lvgl/src/draw/sw/../../misc/lv_color.h **** 
 122:Drivers/lvgl/src/draw/sw/../../misc/lv_color.h **** # define LV_COLOR_GET_R8(c) (c).ch.red
 123:Drivers/lvgl/src/draw/sw/../../misc/lv_color.h **** # define LV_COLOR_GET_G8(c) (c).ch.green
 124:Drivers/lvgl/src/draw/sw/../../misc/lv_color.h **** # define LV_COLOR_GET_B8(c) (c).ch.blue
 125:Drivers/lvgl/src/draw/sw/../../misc/lv_color.h **** # define LV_COLOR_GET_A8(c) 0xFF
 126:Drivers/lvgl/src/draw/sw/../../misc/lv_color.h **** 
 127:Drivers/lvgl/src/draw/sw/../../misc/lv_color.h **** # define _LV_COLOR_ZERO_INITIALIZER8 {{0x00, 0x00, 0x00}}
 128:Drivers/lvgl/src/draw/sw/../../misc/lv_color.h **** # define LV_COLOR_MAKE8(r8, g8, b8) {{(uint8_t)((b8 >> 6) & 0x3U), (uint8_t)((g8 >> 5) & 0x7U), (ui
 129:Drivers/lvgl/src/draw/sw/../../misc/lv_color.h **** 
 130:Drivers/lvgl/src/draw/sw/../../misc/lv_color.h **** # define LV_COLOR_SET_R16(c, v) (c).ch.red = (uint8_t)((v) & 0x1FU)
 131:Drivers/lvgl/src/draw/sw/../../misc/lv_color.h **** #if LV_COLOR_16_SWAP == 0
 132:Drivers/lvgl/src/draw/sw/../../misc/lv_color.h **** # define LV_COLOR_SET_G16(c, v) (c).ch.green = (uint8_t)((v) & 0x3FU)
 133:Drivers/lvgl/src/draw/sw/../../misc/lv_color.h **** #else
 134:Drivers/lvgl/src/draw/sw/../../misc/lv_color.h **** # define LV_COLOR_SET_G16(c, v) {(c).ch.green_h = (uint8_t)(((v) >> 3) & 0x7); (c).ch.green_l = (ui
 135:Drivers/lvgl/src/draw/sw/../../misc/lv_color.h **** #endif
 136:Drivers/lvgl/src/draw/sw/../../misc/lv_color.h **** # define LV_COLOR_SET_B16(c, v) (c).ch.blue = (uint8_t)((v) & 0x1FU)
 137:Drivers/lvgl/src/draw/sw/../../misc/lv_color.h **** # define LV_COLOR_SET_A16(c, v) do {} while(0)
 138:Drivers/lvgl/src/draw/sw/../../misc/lv_color.h **** 
 139:Drivers/lvgl/src/draw/sw/../../misc/lv_color.h **** # define LV_COLOR_GET_R16(c) (c).ch.red
 140:Drivers/lvgl/src/draw/sw/../../misc/lv_color.h **** #if LV_COLOR_16_SWAP == 0
 141:Drivers/lvgl/src/draw/sw/../../misc/lv_color.h **** # define LV_COLOR_GET_G16(c) (c).ch.green
 142:Drivers/lvgl/src/draw/sw/../../misc/lv_color.h **** #else
 143:Drivers/lvgl/src/draw/sw/../../misc/lv_color.h **** # define LV_COLOR_GET_G16(c) (((c).ch.green_h << 3) + (c).ch.green_l)
 144:Drivers/lvgl/src/draw/sw/../../misc/lv_color.h **** #endif
 145:Drivers/lvgl/src/draw/sw/../../misc/lv_color.h **** # define LV_COLOR_GET_B16(c) (c).ch.blue
 146:Drivers/lvgl/src/draw/sw/../../misc/lv_color.h **** # define LV_COLOR_GET_A16(c) 0xFF
 147:Drivers/lvgl/src/draw/sw/../../misc/lv_color.h **** 
 148:Drivers/lvgl/src/draw/sw/../../misc/lv_color.h **** #if LV_COLOR_16_SWAP == 0
 149:Drivers/lvgl/src/draw/sw/../../misc/lv_color.h **** # define _LV_COLOR_ZERO_INITIALIZER16  {{0x00, 0x00, 0x00}}
 150:Drivers/lvgl/src/draw/sw/../../misc/lv_color.h **** # define LV_COLOR_MAKE16(r8, g8, b8) {{(uint8_t)((b8 >> 3) & 0x1FU), (uint8_t)((g8 >> 2) & 0x3FU), 
 151:Drivers/lvgl/src/draw/sw/../../misc/lv_color.h **** #else
 152:Drivers/lvgl/src/draw/sw/../../misc/lv_color.h **** # define _LV_COLOR_ZERO_INITIALIZER16 {{0x00, 0x00, 0x00, 0x00}}
 153:Drivers/lvgl/src/draw/sw/../../misc/lv_color.h **** # define LV_COLOR_MAKE16(r8, g8, b8) {{(uint8_t)((g8 >> 5) & 0x7U), (uint8_t)((r8 >> 3) & 0x1FU), (
 154:Drivers/lvgl/src/draw/sw/../../misc/lv_color.h **** #endif
 155:Drivers/lvgl/src/draw/sw/../../misc/lv_color.h **** 
 156:Drivers/lvgl/src/draw/sw/../../misc/lv_color.h **** # define LV_COLOR_SET_R32(c, v) (c).ch.red = (uint8_t)((v) & 0xFF)
ARM GAS  /var/folders/lp/x54gwt890xv47sdkqj1k04q40000gn/T//cc93WRjx.s 			page 55


 157:Drivers/lvgl/src/draw/sw/../../misc/lv_color.h **** # define LV_COLOR_SET_G32(c, v) (c).ch.green = (uint8_t)((v) & 0xFF)
 158:Drivers/lvgl/src/draw/sw/../../misc/lv_color.h **** # define LV_COLOR_SET_B32(c, v) (c).ch.blue = (uint8_t)((v) & 0xFF)
 159:Drivers/lvgl/src/draw/sw/../../misc/lv_color.h **** # define LV_COLOR_SET_A32(c, v) (c).ch.alpha = (uint8_t)((v) & 0xFF)
 160:Drivers/lvgl/src/draw/sw/../../misc/lv_color.h **** 
 161:Drivers/lvgl/src/draw/sw/../../misc/lv_color.h **** # define LV_COLOR_GET_R32(c) (c).ch.red
 162:Drivers/lvgl/src/draw/sw/../../misc/lv_color.h **** # define LV_COLOR_GET_G32(c) (c).ch.green
 163:Drivers/lvgl/src/draw/sw/../../misc/lv_color.h **** # define LV_COLOR_GET_B32(c) (c).ch.blue
 164:Drivers/lvgl/src/draw/sw/../../misc/lv_color.h **** # define LV_COLOR_GET_A32(c) (c).ch.alpha
 165:Drivers/lvgl/src/draw/sw/../../misc/lv_color.h **** 
 166:Drivers/lvgl/src/draw/sw/../../misc/lv_color.h **** # define _LV_COLOR_ZERO_INITIALIZER32  {{0x00, 0x00, 0x00, 0x00}}
 167:Drivers/lvgl/src/draw/sw/../../misc/lv_color.h **** # define LV_COLOR_MAKE32(r8, g8, b8) {{b8, g8, r8, 0xff}} /*Fix 0xff alpha*/
 168:Drivers/lvgl/src/draw/sw/../../misc/lv_color.h **** 
 169:Drivers/lvgl/src/draw/sw/../../misc/lv_color.h **** /*---------------------------------------
 170:Drivers/lvgl/src/draw/sw/../../misc/lv_color.h ****  * Macros for the current color depth
 171:Drivers/lvgl/src/draw/sw/../../misc/lv_color.h ****  * to set/get values of the color channels
 172:Drivers/lvgl/src/draw/sw/../../misc/lv_color.h ****  *------------------------------------------*/
 173:Drivers/lvgl/src/draw/sw/../../misc/lv_color.h **** #define LV_COLOR_SET_R(c, v) LV_CONCAT(LV_COLOR_SET_R, LV_COLOR_DEPTH)(c, v)
 174:Drivers/lvgl/src/draw/sw/../../misc/lv_color.h **** #define LV_COLOR_SET_G(c, v) LV_CONCAT(LV_COLOR_SET_G, LV_COLOR_DEPTH)(c, v)
 175:Drivers/lvgl/src/draw/sw/../../misc/lv_color.h **** #define LV_COLOR_SET_B(c, v) LV_CONCAT(LV_COLOR_SET_B, LV_COLOR_DEPTH)(c, v)
 176:Drivers/lvgl/src/draw/sw/../../misc/lv_color.h **** #define LV_COLOR_SET_A(c, v) LV_CONCAT(LV_COLOR_SET_A, LV_COLOR_DEPTH)(c, v)
 177:Drivers/lvgl/src/draw/sw/../../misc/lv_color.h **** 
 178:Drivers/lvgl/src/draw/sw/../../misc/lv_color.h **** #define LV_COLOR_GET_R(c) LV_CONCAT(LV_COLOR_GET_R, LV_COLOR_DEPTH)(c)
 179:Drivers/lvgl/src/draw/sw/../../misc/lv_color.h **** #define LV_COLOR_GET_G(c) LV_CONCAT(LV_COLOR_GET_G, LV_COLOR_DEPTH)(c)
 180:Drivers/lvgl/src/draw/sw/../../misc/lv_color.h **** #define LV_COLOR_GET_B(c) LV_CONCAT(LV_COLOR_GET_B, LV_COLOR_DEPTH)(c)
 181:Drivers/lvgl/src/draw/sw/../../misc/lv_color.h **** #define LV_COLOR_GET_A(c) LV_CONCAT(LV_COLOR_GET_A, LV_COLOR_DEPTH)(c)
 182:Drivers/lvgl/src/draw/sw/../../misc/lv_color.h **** 
 183:Drivers/lvgl/src/draw/sw/../../misc/lv_color.h **** #define _LV_COLOR_ZERO_INITIALIZER LV_CONCAT(_LV_COLOR_ZERO_INITIALIZER, LV_COLOR_DEPTH)
 184:Drivers/lvgl/src/draw/sw/../../misc/lv_color.h **** #define LV_COLOR_MAKE(r8, g8, b8) LV_CONCAT(LV_COLOR_MAKE, LV_COLOR_DEPTH)(r8, g8, b8)
 185:Drivers/lvgl/src/draw/sw/../../misc/lv_color.h **** 
 186:Drivers/lvgl/src/draw/sw/../../misc/lv_color.h **** /**********************
 187:Drivers/lvgl/src/draw/sw/../../misc/lv_color.h ****  *      TYPEDEFS
 188:Drivers/lvgl/src/draw/sw/../../misc/lv_color.h ****  **********************/
 189:Drivers/lvgl/src/draw/sw/../../misc/lv_color.h **** 
 190:Drivers/lvgl/src/draw/sw/../../misc/lv_color.h **** typedef union {
 191:Drivers/lvgl/src/draw/sw/../../misc/lv_color.h ****     uint8_t full; /*must be declared first to set all bits of byte via initializer list*/
 192:Drivers/lvgl/src/draw/sw/../../misc/lv_color.h ****     union {
 193:Drivers/lvgl/src/draw/sw/../../misc/lv_color.h ****         uint8_t blue : 1;
 194:Drivers/lvgl/src/draw/sw/../../misc/lv_color.h ****         uint8_t green : 1;
 195:Drivers/lvgl/src/draw/sw/../../misc/lv_color.h ****         uint8_t red : 1;
 196:Drivers/lvgl/src/draw/sw/../../misc/lv_color.h ****     } ch;
 197:Drivers/lvgl/src/draw/sw/../../misc/lv_color.h **** } lv_color1_t;
 198:Drivers/lvgl/src/draw/sw/../../misc/lv_color.h **** 
 199:Drivers/lvgl/src/draw/sw/../../misc/lv_color.h **** typedef union {
 200:Drivers/lvgl/src/draw/sw/../../misc/lv_color.h ****     struct {
 201:Drivers/lvgl/src/draw/sw/../../misc/lv_color.h ****         uint8_t blue : 2;
 202:Drivers/lvgl/src/draw/sw/../../misc/lv_color.h ****         uint8_t green : 3;
 203:Drivers/lvgl/src/draw/sw/../../misc/lv_color.h ****         uint8_t red : 3;
 204:Drivers/lvgl/src/draw/sw/../../misc/lv_color.h ****     } ch;
 205:Drivers/lvgl/src/draw/sw/../../misc/lv_color.h ****     uint8_t full;
 206:Drivers/lvgl/src/draw/sw/../../misc/lv_color.h **** } lv_color8_t;
 207:Drivers/lvgl/src/draw/sw/../../misc/lv_color.h **** 
 208:Drivers/lvgl/src/draw/sw/../../misc/lv_color.h **** typedef union {
 209:Drivers/lvgl/src/draw/sw/../../misc/lv_color.h ****     struct {
 210:Drivers/lvgl/src/draw/sw/../../misc/lv_color.h **** #if LV_COLOR_16_SWAP == 0
 211:Drivers/lvgl/src/draw/sw/../../misc/lv_color.h ****         uint16_t blue : 5;
 212:Drivers/lvgl/src/draw/sw/../../misc/lv_color.h ****         uint16_t green : 6;
 213:Drivers/lvgl/src/draw/sw/../../misc/lv_color.h ****         uint16_t red : 5;
ARM GAS  /var/folders/lp/x54gwt890xv47sdkqj1k04q40000gn/T//cc93WRjx.s 			page 56


 214:Drivers/lvgl/src/draw/sw/../../misc/lv_color.h **** #else
 215:Drivers/lvgl/src/draw/sw/../../misc/lv_color.h ****         uint16_t green_h : 3;
 216:Drivers/lvgl/src/draw/sw/../../misc/lv_color.h ****         uint16_t red : 5;
 217:Drivers/lvgl/src/draw/sw/../../misc/lv_color.h ****         uint16_t blue : 5;
 218:Drivers/lvgl/src/draw/sw/../../misc/lv_color.h ****         uint16_t green_l : 3;
 219:Drivers/lvgl/src/draw/sw/../../misc/lv_color.h **** #endif
 220:Drivers/lvgl/src/draw/sw/../../misc/lv_color.h ****     } ch;
 221:Drivers/lvgl/src/draw/sw/../../misc/lv_color.h ****     uint16_t full;
 222:Drivers/lvgl/src/draw/sw/../../misc/lv_color.h **** } lv_color16_t;
 223:Drivers/lvgl/src/draw/sw/../../misc/lv_color.h **** 
 224:Drivers/lvgl/src/draw/sw/../../misc/lv_color.h **** typedef union {
 225:Drivers/lvgl/src/draw/sw/../../misc/lv_color.h ****     struct {
 226:Drivers/lvgl/src/draw/sw/../../misc/lv_color.h ****         uint8_t blue;
 227:Drivers/lvgl/src/draw/sw/../../misc/lv_color.h ****         uint8_t green;
 228:Drivers/lvgl/src/draw/sw/../../misc/lv_color.h ****         uint8_t red;
 229:Drivers/lvgl/src/draw/sw/../../misc/lv_color.h ****         uint8_t alpha;
 230:Drivers/lvgl/src/draw/sw/../../misc/lv_color.h ****     } ch;
 231:Drivers/lvgl/src/draw/sw/../../misc/lv_color.h ****     uint32_t full;
 232:Drivers/lvgl/src/draw/sw/../../misc/lv_color.h **** } lv_color32_t;
 233:Drivers/lvgl/src/draw/sw/../../misc/lv_color.h **** 
 234:Drivers/lvgl/src/draw/sw/../../misc/lv_color.h **** typedef LV_CONCAT3(uint, LV_COLOR_SIZE, _t) lv_color_int_t;
 235:Drivers/lvgl/src/draw/sw/../../misc/lv_color.h **** typedef LV_CONCAT3(lv_color, LV_COLOR_DEPTH, _t) lv_color_t;
 236:Drivers/lvgl/src/draw/sw/../../misc/lv_color.h **** 
 237:Drivers/lvgl/src/draw/sw/../../misc/lv_color.h **** typedef struct {
 238:Drivers/lvgl/src/draw/sw/../../misc/lv_color.h ****     uint16_t h;
 239:Drivers/lvgl/src/draw/sw/../../misc/lv_color.h ****     uint8_t s;
 240:Drivers/lvgl/src/draw/sw/../../misc/lv_color.h ****     uint8_t v;
 241:Drivers/lvgl/src/draw/sw/../../misc/lv_color.h **** } lv_color_hsv_t;
 242:Drivers/lvgl/src/draw/sw/../../misc/lv_color.h **** 
 243:Drivers/lvgl/src/draw/sw/../../misc/lv_color.h **** //! @cond Doxygen_Suppress
 244:Drivers/lvgl/src/draw/sw/../../misc/lv_color.h **** /*No idea where the guard is required but else throws warnings in the docs*/
 245:Drivers/lvgl/src/draw/sw/../../misc/lv_color.h **** typedef uint8_t lv_opa_t;
 246:Drivers/lvgl/src/draw/sw/../../misc/lv_color.h **** //! @endcond
 247:Drivers/lvgl/src/draw/sw/../../misc/lv_color.h **** 
 248:Drivers/lvgl/src/draw/sw/../../misc/lv_color.h **** struct _lv_color_filter_dsc_t;
 249:Drivers/lvgl/src/draw/sw/../../misc/lv_color.h **** 
 250:Drivers/lvgl/src/draw/sw/../../misc/lv_color.h **** typedef lv_color_t (*lv_color_filter_cb_t)(const struct _lv_color_filter_dsc_t *, lv_color_t, lv_op
 251:Drivers/lvgl/src/draw/sw/../../misc/lv_color.h **** 
 252:Drivers/lvgl/src/draw/sw/../../misc/lv_color.h **** typedef struct _lv_color_filter_dsc_t {
 253:Drivers/lvgl/src/draw/sw/../../misc/lv_color.h ****     lv_color_filter_cb_t filter_cb;
 254:Drivers/lvgl/src/draw/sw/../../misc/lv_color.h ****     void * user_data;
 255:Drivers/lvgl/src/draw/sw/../../misc/lv_color.h **** } lv_color_filter_dsc_t;
 256:Drivers/lvgl/src/draw/sw/../../misc/lv_color.h **** 
 257:Drivers/lvgl/src/draw/sw/../../misc/lv_color.h **** 
 258:Drivers/lvgl/src/draw/sw/../../misc/lv_color.h **** typedef enum {
 259:Drivers/lvgl/src/draw/sw/../../misc/lv_color.h ****     LV_PALETTE_RED,
 260:Drivers/lvgl/src/draw/sw/../../misc/lv_color.h ****     LV_PALETTE_PINK,
 261:Drivers/lvgl/src/draw/sw/../../misc/lv_color.h ****     LV_PALETTE_PURPLE,
 262:Drivers/lvgl/src/draw/sw/../../misc/lv_color.h ****     LV_PALETTE_DEEP_PURPLE,
 263:Drivers/lvgl/src/draw/sw/../../misc/lv_color.h ****     LV_PALETTE_INDIGO,
 264:Drivers/lvgl/src/draw/sw/../../misc/lv_color.h ****     LV_PALETTE_BLUE,
 265:Drivers/lvgl/src/draw/sw/../../misc/lv_color.h ****     LV_PALETTE_LIGHT_BLUE,
 266:Drivers/lvgl/src/draw/sw/../../misc/lv_color.h ****     LV_PALETTE_CYAN,
 267:Drivers/lvgl/src/draw/sw/../../misc/lv_color.h ****     LV_PALETTE_TEAL,
 268:Drivers/lvgl/src/draw/sw/../../misc/lv_color.h ****     LV_PALETTE_GREEN,
 269:Drivers/lvgl/src/draw/sw/../../misc/lv_color.h ****     LV_PALETTE_LIGHT_GREEN,
 270:Drivers/lvgl/src/draw/sw/../../misc/lv_color.h ****     LV_PALETTE_LIME,
ARM GAS  /var/folders/lp/x54gwt890xv47sdkqj1k04q40000gn/T//cc93WRjx.s 			page 57


 271:Drivers/lvgl/src/draw/sw/../../misc/lv_color.h ****     LV_PALETTE_YELLOW,
 272:Drivers/lvgl/src/draw/sw/../../misc/lv_color.h ****     LV_PALETTE_AMBER,
 273:Drivers/lvgl/src/draw/sw/../../misc/lv_color.h ****     LV_PALETTE_ORANGE,
 274:Drivers/lvgl/src/draw/sw/../../misc/lv_color.h ****     LV_PALETTE_DEEP_ORANGE,
 275:Drivers/lvgl/src/draw/sw/../../misc/lv_color.h ****     LV_PALETTE_BROWN,
 276:Drivers/lvgl/src/draw/sw/../../misc/lv_color.h ****     LV_PALETTE_BLUE_GREY,
 277:Drivers/lvgl/src/draw/sw/../../misc/lv_color.h ****     LV_PALETTE_GREY,
 278:Drivers/lvgl/src/draw/sw/../../misc/lv_color.h ****     _LV_PALETTE_LAST,
 279:Drivers/lvgl/src/draw/sw/../../misc/lv_color.h ****     LV_PALETTE_NONE = 0xff,
 280:Drivers/lvgl/src/draw/sw/../../misc/lv_color.h **** } lv_palette_t;
 281:Drivers/lvgl/src/draw/sw/../../misc/lv_color.h **** 
 282:Drivers/lvgl/src/draw/sw/../../misc/lv_color.h **** /**********************
 283:Drivers/lvgl/src/draw/sw/../../misc/lv_color.h ****  * GLOBAL PROTOTYPES
 284:Drivers/lvgl/src/draw/sw/../../misc/lv_color.h ****  **********************/
 285:Drivers/lvgl/src/draw/sw/../../misc/lv_color.h **** 
 286:Drivers/lvgl/src/draw/sw/../../misc/lv_color.h **** /*In color conversations:
 287:Drivers/lvgl/src/draw/sw/../../misc/lv_color.h ****  * - When converting to bigger color type the LSB weight of 1 LSB is calculated
 288:Drivers/lvgl/src/draw/sw/../../misc/lv_color.h ****  *   E.g. 16 bit Red has 5 bits
 289:Drivers/lvgl/src/draw/sw/../../misc/lv_color.h ****  *         8 bit Red has 3 bits
 290:Drivers/lvgl/src/draw/sw/../../misc/lv_color.h ****  *        ----------------------
 291:Drivers/lvgl/src/draw/sw/../../misc/lv_color.h ****  *        8 bit red LSB = (2^5 - 1) / (2^3 - 1) = 31 / 7 = 4
 292:Drivers/lvgl/src/draw/sw/../../misc/lv_color.h ****  *
 293:Drivers/lvgl/src/draw/sw/../../misc/lv_color.h ****  * - When calculating to smaller color type simply shift out the LSBs
 294:Drivers/lvgl/src/draw/sw/../../misc/lv_color.h ****  *   E.g.  8 bit Red has 3 bits
 295:Drivers/lvgl/src/draw/sw/../../misc/lv_color.h ****  *        16 bit Red has 5 bits
 296:Drivers/lvgl/src/draw/sw/../../misc/lv_color.h ****  *        ----------------------
 297:Drivers/lvgl/src/draw/sw/../../misc/lv_color.h ****  *         Shift right with 5 - 3 = 2
 298:Drivers/lvgl/src/draw/sw/../../misc/lv_color.h ****  */
 299:Drivers/lvgl/src/draw/sw/../../misc/lv_color.h **** static inline uint8_t lv_color_to1(lv_color_t color)
 300:Drivers/lvgl/src/draw/sw/../../misc/lv_color.h **** {
 301:Drivers/lvgl/src/draw/sw/../../misc/lv_color.h **** #if LV_COLOR_DEPTH == 1
 302:Drivers/lvgl/src/draw/sw/../../misc/lv_color.h ****     return color.full;
 303:Drivers/lvgl/src/draw/sw/../../misc/lv_color.h **** #elif LV_COLOR_DEPTH == 8
 304:Drivers/lvgl/src/draw/sw/../../misc/lv_color.h ****     if((LV_COLOR_GET_R(color) & 0x4) || (LV_COLOR_GET_G(color) & 0x4) || (LV_COLOR_GET_B(color) & 0
 305:Drivers/lvgl/src/draw/sw/../../misc/lv_color.h ****         return 1;
 306:Drivers/lvgl/src/draw/sw/../../misc/lv_color.h ****     }
 307:Drivers/lvgl/src/draw/sw/../../misc/lv_color.h ****     else {
 308:Drivers/lvgl/src/draw/sw/../../misc/lv_color.h ****         return 0;
 309:Drivers/lvgl/src/draw/sw/../../misc/lv_color.h ****     }
 310:Drivers/lvgl/src/draw/sw/../../misc/lv_color.h **** #elif LV_COLOR_DEPTH == 16
 311:Drivers/lvgl/src/draw/sw/../../misc/lv_color.h ****     if((LV_COLOR_GET_R(color) & 0x10) || (LV_COLOR_GET_G(color) & 0x20) || (LV_COLOR_GET_B(color) &
 312:Drivers/lvgl/src/draw/sw/../../misc/lv_color.h ****         return 1;
 313:Drivers/lvgl/src/draw/sw/../../misc/lv_color.h ****     }
 314:Drivers/lvgl/src/draw/sw/../../misc/lv_color.h ****     else {
 315:Drivers/lvgl/src/draw/sw/../../misc/lv_color.h ****         return 0;
 316:Drivers/lvgl/src/draw/sw/../../misc/lv_color.h ****     }
 317:Drivers/lvgl/src/draw/sw/../../misc/lv_color.h **** #elif LV_COLOR_DEPTH == 32
 318:Drivers/lvgl/src/draw/sw/../../misc/lv_color.h ****     if((LV_COLOR_GET_R(color) & 0x80) || (LV_COLOR_GET_G(color) & 0x80) || (LV_COLOR_GET_B(color) &
 319:Drivers/lvgl/src/draw/sw/../../misc/lv_color.h ****         return 1;
 320:Drivers/lvgl/src/draw/sw/../../misc/lv_color.h ****     }
 321:Drivers/lvgl/src/draw/sw/../../misc/lv_color.h ****     else {
 322:Drivers/lvgl/src/draw/sw/../../misc/lv_color.h ****         return 0;
 323:Drivers/lvgl/src/draw/sw/../../misc/lv_color.h ****     }
 324:Drivers/lvgl/src/draw/sw/../../misc/lv_color.h **** #endif
 325:Drivers/lvgl/src/draw/sw/../../misc/lv_color.h **** }
 326:Drivers/lvgl/src/draw/sw/../../misc/lv_color.h **** 
 327:Drivers/lvgl/src/draw/sw/../../misc/lv_color.h **** static inline uint8_t lv_color_to8(lv_color_t color)
ARM GAS  /var/folders/lp/x54gwt890xv47sdkqj1k04q40000gn/T//cc93WRjx.s 			page 58


 328:Drivers/lvgl/src/draw/sw/../../misc/lv_color.h **** {
 329:Drivers/lvgl/src/draw/sw/../../misc/lv_color.h **** #if LV_COLOR_DEPTH == 1
 330:Drivers/lvgl/src/draw/sw/../../misc/lv_color.h ****     if(color.full == 0)
 331:Drivers/lvgl/src/draw/sw/../../misc/lv_color.h ****         return 0;
 332:Drivers/lvgl/src/draw/sw/../../misc/lv_color.h ****     else
 333:Drivers/lvgl/src/draw/sw/../../misc/lv_color.h ****         return 0xFF;
 334:Drivers/lvgl/src/draw/sw/../../misc/lv_color.h **** #elif LV_COLOR_DEPTH == 8
 335:Drivers/lvgl/src/draw/sw/../../misc/lv_color.h ****     return color.full;
 336:Drivers/lvgl/src/draw/sw/../../misc/lv_color.h **** #elif LV_COLOR_DEPTH == 16
 337:Drivers/lvgl/src/draw/sw/../../misc/lv_color.h ****     lv_color8_t ret;
 338:Drivers/lvgl/src/draw/sw/../../misc/lv_color.h ****     LV_COLOR_SET_R8(ret, LV_COLOR_GET_R(color) >> 2); /*5 - 3  = 2*/
 339:Drivers/lvgl/src/draw/sw/../../misc/lv_color.h ****     LV_COLOR_SET_G8(ret, LV_COLOR_GET_G(color) >> 3); /*6 - 3  = 3*/
 340:Drivers/lvgl/src/draw/sw/../../misc/lv_color.h ****     LV_COLOR_SET_B8(ret, LV_COLOR_GET_B(color) >> 3); /*5 - 2  = 3*/
 341:Drivers/lvgl/src/draw/sw/../../misc/lv_color.h ****     return ret.full;
 342:Drivers/lvgl/src/draw/sw/../../misc/lv_color.h **** #elif LV_COLOR_DEPTH == 32
 343:Drivers/lvgl/src/draw/sw/../../misc/lv_color.h ****     lv_color8_t ret;
 344:Drivers/lvgl/src/draw/sw/../../misc/lv_color.h ****     LV_COLOR_SET_R8(ret, LV_COLOR_GET_R(color) >> 5); /*8 - 3  = 5*/
 345:Drivers/lvgl/src/draw/sw/../../misc/lv_color.h ****     LV_COLOR_SET_G8(ret, LV_COLOR_GET_G(color) >> 5); /*8 - 3  = 5*/
 346:Drivers/lvgl/src/draw/sw/../../misc/lv_color.h ****     LV_COLOR_SET_B8(ret, LV_COLOR_GET_B(color) >> 6); /*8 - 2  = 6*/
 347:Drivers/lvgl/src/draw/sw/../../misc/lv_color.h ****     return ret.full;
 348:Drivers/lvgl/src/draw/sw/../../misc/lv_color.h **** #endif
 349:Drivers/lvgl/src/draw/sw/../../misc/lv_color.h **** }
 350:Drivers/lvgl/src/draw/sw/../../misc/lv_color.h **** 
 351:Drivers/lvgl/src/draw/sw/../../misc/lv_color.h **** static inline uint16_t lv_color_to16(lv_color_t color)
 352:Drivers/lvgl/src/draw/sw/../../misc/lv_color.h **** {
 353:Drivers/lvgl/src/draw/sw/../../misc/lv_color.h **** #if LV_COLOR_DEPTH == 1
 354:Drivers/lvgl/src/draw/sw/../../misc/lv_color.h ****     if(color.full == 0)
 355:Drivers/lvgl/src/draw/sw/../../misc/lv_color.h ****         return 0;
 356:Drivers/lvgl/src/draw/sw/../../misc/lv_color.h ****     else
 357:Drivers/lvgl/src/draw/sw/../../misc/lv_color.h ****         return 0xFFFF;
 358:Drivers/lvgl/src/draw/sw/../../misc/lv_color.h **** #elif LV_COLOR_DEPTH == 8
 359:Drivers/lvgl/src/draw/sw/../../misc/lv_color.h ****     lv_color16_t ret;
 360:Drivers/lvgl/src/draw/sw/../../misc/lv_color.h ****     LV_COLOR_SET_R16(ret, LV_COLOR_GET_R(color) * 4);  /*(2^5 - 1)/(2^3 - 1) = 31/7 = 4*/
 361:Drivers/lvgl/src/draw/sw/../../misc/lv_color.h ****     LV_COLOR_SET_G16(ret, LV_COLOR_GET_G(color) * 9);  /*(2^6 - 1)/(2^3 - 1) = 63/7 = 9*/
 362:Drivers/lvgl/src/draw/sw/../../misc/lv_color.h ****     LV_COLOR_SET_B16(ret, LV_COLOR_GET_B(color) * 10); /*(2^5 - 1)/(2^2 - 1) = 31/3 = 10*/
 363:Drivers/lvgl/src/draw/sw/../../misc/lv_color.h ****     return ret.full;
 364:Drivers/lvgl/src/draw/sw/../../misc/lv_color.h **** #elif LV_COLOR_DEPTH == 16
 365:Drivers/lvgl/src/draw/sw/../../misc/lv_color.h ****     return color.full;
 366:Drivers/lvgl/src/draw/sw/../../misc/lv_color.h **** #elif LV_COLOR_DEPTH == 32
 367:Drivers/lvgl/src/draw/sw/../../misc/lv_color.h ****     lv_color16_t ret;
 368:Drivers/lvgl/src/draw/sw/../../misc/lv_color.h ****     LV_COLOR_SET_R16(ret, LV_COLOR_GET_R(color) >> 3); /*8 - 5  = 3*/
 369:Drivers/lvgl/src/draw/sw/../../misc/lv_color.h ****     LV_COLOR_SET_G16(ret, LV_COLOR_GET_G(color) >> 2); /*8 - 6  = 2*/
 370:Drivers/lvgl/src/draw/sw/../../misc/lv_color.h ****     LV_COLOR_SET_B16(ret, LV_COLOR_GET_B(color) >> 3); /*8 - 5  = 3*/
 371:Drivers/lvgl/src/draw/sw/../../misc/lv_color.h ****     return ret.full;
 372:Drivers/lvgl/src/draw/sw/../../misc/lv_color.h **** #endif
 373:Drivers/lvgl/src/draw/sw/../../misc/lv_color.h **** }
 374:Drivers/lvgl/src/draw/sw/../../misc/lv_color.h **** 
 375:Drivers/lvgl/src/draw/sw/../../misc/lv_color.h **** static inline uint32_t lv_color_to32(lv_color_t color)
 376:Drivers/lvgl/src/draw/sw/../../misc/lv_color.h **** {
 377:Drivers/lvgl/src/draw/sw/../../misc/lv_color.h **** #if LV_COLOR_DEPTH == 1
 378:Drivers/lvgl/src/draw/sw/../../misc/lv_color.h ****     if(color.full == 0)
 379:Drivers/lvgl/src/draw/sw/../../misc/lv_color.h ****         return 0xFF000000;
 380:Drivers/lvgl/src/draw/sw/../../misc/lv_color.h ****     else
 381:Drivers/lvgl/src/draw/sw/../../misc/lv_color.h ****         return 0xFFFFFFFF;
 382:Drivers/lvgl/src/draw/sw/../../misc/lv_color.h **** #elif LV_COLOR_DEPTH == 8
 383:Drivers/lvgl/src/draw/sw/../../misc/lv_color.h ****     lv_color32_t ret;
 384:Drivers/lvgl/src/draw/sw/../../misc/lv_color.h ****     LV_COLOR_SET_R32(ret, LV_COLOR_GET_R(color) * 36); /*(2^8 - 1)/(2^3 - 1) = 255/7 = 36*/
ARM GAS  /var/folders/lp/x54gwt890xv47sdkqj1k04q40000gn/T//cc93WRjx.s 			page 59


 385:Drivers/lvgl/src/draw/sw/../../misc/lv_color.h ****     LV_COLOR_SET_G32(ret, LV_COLOR_GET_G(color) * 36); /*(2^8 - 1)/(2^3 - 1) = 255/7 = 36*/
 386:Drivers/lvgl/src/draw/sw/../../misc/lv_color.h ****     LV_COLOR_SET_B32(ret, LV_COLOR_GET_B(color) * 85); /*(2^8 - 1)/(2^2 - 1) = 255/3 = 85*/
 387:Drivers/lvgl/src/draw/sw/../../misc/lv_color.h ****     LV_COLOR_SET_A32(ret, 0xFF);
 388:Drivers/lvgl/src/draw/sw/../../misc/lv_color.h ****     return ret.full;
 389:Drivers/lvgl/src/draw/sw/../../misc/lv_color.h **** #elif LV_COLOR_DEPTH == 16
 390:Drivers/lvgl/src/draw/sw/../../misc/lv_color.h ****     /**
 391:Drivers/lvgl/src/draw/sw/../../misc/lv_color.h ****      * The floating point math for conversion is:
 392:Drivers/lvgl/src/draw/sw/../../misc/lv_color.h ****      *  valueto = valuefrom * ( (2^bitsto - 1) / (float)(2^bitsfrom - 1) )
 393:Drivers/lvgl/src/draw/sw/../../misc/lv_color.h ****      * The faster integer math for conversion is:
 394:Drivers/lvgl/src/draw/sw/../../misc/lv_color.h ****      *  valueto = ( valuefrom * multiplier + adder ) >> divisor
 395:Drivers/lvgl/src/draw/sw/../../misc/lv_color.h ****      *   multiplier = FLOOR( ( (2^bitsto - 1) << divisor ) / (float)(2^bitsfrom - 1) )
 396:Drivers/lvgl/src/draw/sw/../../misc/lv_color.h ****      *
 397:Drivers/lvgl/src/draw/sw/../../misc/lv_color.h ****      * Find the first divisor where ( adder >> divisor ) <= 0
 398:Drivers/lvgl/src/draw/sw/../../misc/lv_color.h ****      *
 399:Drivers/lvgl/src/draw/sw/../../misc/lv_color.h ****      * 5-bit to 8-bit: ( 31 * multiplier + adder ) >> divisor = 255
 400:Drivers/lvgl/src/draw/sw/../../misc/lv_color.h ****      * divisor  multiplier  adder  min (0)  max (31)
 401:Drivers/lvgl/src/draw/sw/../../misc/lv_color.h ****      *       0           8      7        7       255
 402:Drivers/lvgl/src/draw/sw/../../misc/lv_color.h ****      *       1          16     14        7       255
 403:Drivers/lvgl/src/draw/sw/../../misc/lv_color.h ****      *       2          32     28        7       255
 404:Drivers/lvgl/src/draw/sw/../../misc/lv_color.h ****      *       3          65     25        3       255
 405:Drivers/lvgl/src/draw/sw/../../misc/lv_color.h ****      *       4         131     19        1       255
 406:Drivers/lvgl/src/draw/sw/../../misc/lv_color.h ****      *       5         263      7        0       255
 407:Drivers/lvgl/src/draw/sw/../../misc/lv_color.h ****      *
 408:Drivers/lvgl/src/draw/sw/../../misc/lv_color.h ****      * 6-bit to 8-bit: 255 = ( 63 * multiplier + adder ) >> divisor
 409:Drivers/lvgl/src/draw/sw/../../misc/lv_color.h ****      * divisor  multiplier  adder  min (0)  max (63)
 410:Drivers/lvgl/src/draw/sw/../../misc/lv_color.h ****      *       0           4      3        3       255
 411:Drivers/lvgl/src/draw/sw/../../misc/lv_color.h ****      *       1           8      6        3       255
 412:Drivers/lvgl/src/draw/sw/../../misc/lv_color.h ****      *       2          16     12        3       255
 413:Drivers/lvgl/src/draw/sw/../../misc/lv_color.h ****      *       3          32     24        3       255
 414:Drivers/lvgl/src/draw/sw/../../misc/lv_color.h ****      *       4          64     48        3       255
 415:Drivers/lvgl/src/draw/sw/../../misc/lv_color.h ****      *       5         129     33        1       255
 416:Drivers/lvgl/src/draw/sw/../../misc/lv_color.h ****      *       6         259      3        0       255
 417:Drivers/lvgl/src/draw/sw/../../misc/lv_color.h ****      */
 418:Drivers/lvgl/src/draw/sw/../../misc/lv_color.h **** 
 419:Drivers/lvgl/src/draw/sw/../../misc/lv_color.h ****     lv_color32_t ret;
 420:Drivers/lvgl/src/draw/sw/../../misc/lv_color.h ****     LV_COLOR_SET_R32(ret, (LV_COLOR_GET_R(color) * 263 + 7) >> 5);
 421:Drivers/lvgl/src/draw/sw/../../misc/lv_color.h ****     LV_COLOR_SET_G32(ret, (LV_COLOR_GET_G(color) * 259 + 3) >> 6);
 422:Drivers/lvgl/src/draw/sw/../../misc/lv_color.h ****     LV_COLOR_SET_B32(ret, (LV_COLOR_GET_B(color) * 263 + 7) >> 5);
 423:Drivers/lvgl/src/draw/sw/../../misc/lv_color.h ****     LV_COLOR_SET_A32(ret, 0xFF);
 424:Drivers/lvgl/src/draw/sw/../../misc/lv_color.h ****     return ret.full;
 425:Drivers/lvgl/src/draw/sw/../../misc/lv_color.h **** #elif LV_COLOR_DEPTH == 32
 426:Drivers/lvgl/src/draw/sw/../../misc/lv_color.h ****     return color.full;
 427:Drivers/lvgl/src/draw/sw/../../misc/lv_color.h **** #endif
 428:Drivers/lvgl/src/draw/sw/../../misc/lv_color.h **** }
 429:Drivers/lvgl/src/draw/sw/../../misc/lv_color.h **** 
 430:Drivers/lvgl/src/draw/sw/../../misc/lv_color.h **** //! @cond Doxygen_Suppress
 431:Drivers/lvgl/src/draw/sw/../../misc/lv_color.h **** 
 432:Drivers/lvgl/src/draw/sw/../../misc/lv_color.h **** /**
 433:Drivers/lvgl/src/draw/sw/../../misc/lv_color.h ****  * Mix two colors with a given ratio.
 434:Drivers/lvgl/src/draw/sw/../../misc/lv_color.h ****  * @param c1 the first color to mix (usually the foreground)
 435:Drivers/lvgl/src/draw/sw/../../misc/lv_color.h ****  * @param c2 the second color to mix (usually the background)
 436:Drivers/lvgl/src/draw/sw/../../misc/lv_color.h ****  * @param mix The ratio of the colors. 0: full `c2`, 255: full `c1`, 127: half `c1` and half`c2`
 437:Drivers/lvgl/src/draw/sw/../../misc/lv_color.h ****  * @return the mixed color
 438:Drivers/lvgl/src/draw/sw/../../misc/lv_color.h ****  */
 439:Drivers/lvgl/src/draw/sw/../../misc/lv_color.h **** static inline lv_color_t LV_ATTRIBUTE_FAST_MEM lv_color_mix(lv_color_t c1, lv_color_t c2, uint8_t m
 1731              		.loc 3 439 48 view .LVU590
 1732              	.LBB84:
ARM GAS  /var/folders/lp/x54gwt890xv47sdkqj1k04q40000gn/T//cc93WRjx.s 			page 60


 440:Drivers/lvgl/src/draw/sw/../../misc/lv_color.h **** {
 441:Drivers/lvgl/src/draw/sw/../../misc/lv_color.h ****     lv_color_t ret;
 1733              		.loc 3 441 5 view .LVU591
 442:Drivers/lvgl/src/draw/sw/../../misc/lv_color.h **** 
 443:Drivers/lvgl/src/draw/sw/../../misc/lv_color.h **** #if LV_COLOR_DEPTH == 16 && LV_COLOR_MIX_ROUND_OFS == 0
 444:Drivers/lvgl/src/draw/sw/../../misc/lv_color.h **** #if LV_COLOR_16_SWAP == 1
 445:Drivers/lvgl/src/draw/sw/../../misc/lv_color.h ****     c1.full = c1.full << 8 | c1.full >> 8;
 1734              		.loc 3 445 5 view .LVU592
 446:Drivers/lvgl/src/draw/sw/../../misc/lv_color.h ****     c2.full = c2.full << 8 | c2.full >> 8;
 1735              		.loc 3 446 5 view .LVU593
 447:Drivers/lvgl/src/draw/sw/../../misc/lv_color.h **** #endif
 448:Drivers/lvgl/src/draw/sw/../../misc/lv_color.h ****     /*Source: https://stackoverflow.com/a/50012418/1999969*/
 449:Drivers/lvgl/src/draw/sw/../../misc/lv_color.h ****     mix = (uint32_t)((uint32_t)mix + 4) >> 3;
 1736              		.loc 3 449 5 view .LVU594
 450:Drivers/lvgl/src/draw/sw/../../misc/lv_color.h ****     uint32_t bg = (uint32_t)((uint32_t)c2.full | ((uint32_t)c2.full << 16)) &
 1737              		.loc 3 450 5 view .LVU595
 1738              	.LBE84:
 1739              	.LBE83:
 1740              	.LBB93:
 1741              	.LBB94:
 449:Drivers/lvgl/src/draw/sw/../../misc/lv_color.h ****     uint32_t bg = (uint32_t)((uint32_t)c2.full | ((uint32_t)c2.full << 16)) &
 1742              		.loc 3 449 22 is_stmt 0 view .LVU596
 1743 0600 9DF84850 		ldrb	r5, [sp, #72]	@ zero_extendqisi2
 1744              	.LBE94:
 1745              	.LBE93:
 1746              	.LBB104:
 1747              	.LBB85:
 1748 0604 9DF85060 		ldrb	r6, [sp, #80]	@ zero_extendqisi2
 446:Drivers/lvgl/src/draw/sw/../../misc/lv_color.h **** #endif
 1749              		.loc 3 446 28 view .LVU597
 1750 0608 49BA     		rev16	r1, r1
 1751              	.LBE85:
 1752              	.LBE104:
 1753              	.LBB105:
 1754              	.LBB95:
 449:Drivers/lvgl/src/draw/sw/../../misc/lv_color.h ****     uint32_t bg = (uint32_t)((uint32_t)c2.full | ((uint32_t)c2.full << 16)) &
 1755              		.loc 3 449 11 view .LVU598
 1756 060a 0435     		adds	r5, r5, #4
 1757              	.LBE95:
 1758              	.LBE105:
 1759              	.LBB106:
 1760              	.LBB86:
 445:Drivers/lvgl/src/draw/sw/../../misc/lv_color.h ****     c2.full = c2.full << 8 | c2.full >> 8;
 1761              		.loc 3 445 28 view .LVU599
 1762 060c 40BA     		rev16	r0, r0
 1763              	.LVL184:
 445:Drivers/lvgl/src/draw/sw/../../misc/lv_color.h ****     c2.full = c2.full << 8 | c2.full >> 8;
 1764              		.loc 3 445 28 view .LVU600
 1765              	.LBE86:
 1766              	.LBE106:
 1767              	.LBB107:
 1768              	.LBB96:
 449:Drivers/lvgl/src/draw/sw/../../misc/lv_color.h ****     uint32_t bg = (uint32_t)((uint32_t)c2.full | ((uint32_t)c2.full << 16)) &
 1769              		.loc 3 449 41 view .LVU601
 1770 060e ED08     		lsrs	r5, r5, #3
 1771              	.LBE96:
 1772              	.LBE107:
ARM GAS  /var/folders/lp/x54gwt890xv47sdkqj1k04q40000gn/T//cc93WRjx.s 			page 61


 1773              	.LBB108:
 1774              	.LBB87:
 1775              		.loc 3 450 19 view .LVU602
 1776 0610 0F04     		lsls	r7, r1, #16
 1777              	.LBE87:
 1778              	.LBE108:
 1779              	.LBB109:
 1780              	.LBB97:
 449:Drivers/lvgl/src/draw/sw/../../misc/lv_color.h ****     uint32_t bg = (uint32_t)((uint32_t)c2.full | ((uint32_t)c2.full << 16)) &
 1781              		.loc 3 449 41 view .LVU603
 1782 0612 0B95     		str	r5, [sp, #44]
 1783              	.LBE97:
 1784              	.LBE109:
 1785              	.LBB110:
 1786              	.LBB88:
 1787              		.loc 3 450 19 view .LVU604
 1788 0614 17FA81F1 		uxtah	r1, r7, r1
 1789              		.loc 3 450 14 view .LVU605
 1790 0618 3E4D     		ldr	r5, .L126
 451:Drivers/lvgl/src/draw/sw/../../misc/lv_color.h ****                   0x7E0F81F; /*0b00000111111000001111100000011111*/
 452:Drivers/lvgl/src/draw/sw/../../misc/lv_color.h ****     uint32_t fg = (uint32_t)((uint32_t)c1.full | ((uint32_t)c1.full << 16)) & 0x7E0F81F;
 1791              		.loc 3 452 19 view .LVU606
 1792 061a 0704     		lsls	r7, r0, #16
 1793 061c 17FA80F0 		uxtah	r0, r7, r0
 450:Drivers/lvgl/src/draw/sw/../../misc/lv_color.h ****                   0x7E0F81F; /*0b00000111111000001111100000011111*/
 1794              		.loc 3 450 14 view .LVU607
 1795 0620 2940     		ands	r1, r1, r5
 1796              	.LVL185:
 1797              		.loc 3 452 5 is_stmt 1 view .LVU608
 453:Drivers/lvgl/src/draw/sw/../../misc/lv_color.h ****     uint32_t result = ((((fg - bg) * mix) >> 5) + bg) & 0x7E0F81F;
 1798              		.loc 3 453 5 view .LVU609
 449:Drivers/lvgl/src/draw/sw/../../misc/lv_color.h ****     uint32_t bg = (uint32_t)((uint32_t)c2.full | ((uint32_t)c2.full << 16)) &
 1799              		.loc 3 449 11 is_stmt 0 view .LVU610
 1800 0622 0436     		adds	r6, r6, #4
 452:Drivers/lvgl/src/draw/sw/../../misc/lv_color.h ****     uint32_t result = ((((fg - bg) * mix) >> 5) + bg) & 0x7E0F81F;
 1801              		.loc 3 452 14 view .LVU611
 1802 0624 2840     		ands	r0, r0, r5
 1803              	.LBE88:
 1804              	.LBE110:
 1805              	.LBB111:
 1806              	.LBB98:
 445:Drivers/lvgl/src/draw/sw/../../misc/lv_color.h ****     c2.full = c2.full << 8 | c2.full >> 8;
 1807              		.loc 3 445 28 view .LVU612
 1808 0626 64BA     		rev16	r4, r4
 1809              	.LVL186:
 445:Drivers/lvgl/src/draw/sw/../../misc/lv_color.h ****     c2.full = c2.full << 8 | c2.full >> 8;
 1810              		.loc 3 445 28 view .LVU613
 1811              	.LBE98:
 1812              	.LBE111:
 1813              	.LBB112:
 1814              	.LBB89:
 449:Drivers/lvgl/src/draw/sw/../../misc/lv_color.h ****     uint32_t bg = (uint32_t)((uint32_t)c2.full | ((uint32_t)c2.full << 16)) &
 1815              		.loc 3 449 41 view .LVU614
 1816 0628 F608     		lsrs	r6, r6, #3
 1817              		.loc 3 453 30 view .LVU615
 1818 062a 401A     		subs	r0, r0, r1
 1819              		.loc 3 453 36 view .LVU616
ARM GAS  /var/folders/lp/x54gwt890xv47sdkqj1k04q40000gn/T//cc93WRjx.s 			page 62


 1820 062c 06FB00F0 		mul	r0, r6, r0
 1821              	.LBE89:
 1822              	.LBE112:
 1823              	.LBB113:
 1824              	.LBB99:
 452:Drivers/lvgl/src/draw/sw/../../misc/lv_color.h ****     uint32_t result = ((((fg - bg) * mix) >> 5) + bg) & 0x7E0F81F;
 1825              		.loc 3 452 19 view .LVU617
 1826 0630 2604     		lsls	r6, r4, #16
 1827 0632 16FA84F4 		uxtah	r4, r6, r4
 452:Drivers/lvgl/src/draw/sw/../../misc/lv_color.h ****     uint32_t result = ((((fg - bg) * mix) >> 5) + bg) & 0x7E0F81F;
 1828              		.loc 3 452 14 view .LVU618
 1829 0636 2C40     		ands	r4, r4, r5
 1830              		.loc 3 453 36 view .LVU619
 1831 0638 0B9E     		ldr	r6, [sp, #44]
 1832              		.loc 3 453 30 view .LVU620
 1833 063a 641A     		subs	r4, r4, r1
 1834              	.LBE99:
 1835              	.LBE113:
 1836              	.LBB114:
 1837              	.LBB90:
 1838              		.loc 3 453 49 view .LVU621
 1839 063c 01EB5010 		add	r0, r1, r0, lsr #5
 1840              	.LBE90:
 1841              	.LBE114:
 1842              	.LBB115:
 1843              	.LBB100:
 1844              		.loc 3 453 36 view .LVU622
 1845 0640 06FB04F4 		mul	r4, r6, r4
 1846              		.loc 3 453 49 view .LVU623
 1847 0644 01EB5411 		add	r1, r1, r4, lsr #5
 1848              	.LVL187:
 1849              		.loc 3 453 49 view .LVU624
 1850              	.LBE100:
 1851              	.LBE115:
 1852              	.LBB116:
 1853              	.LBB91:
 1854              		.loc 3 453 14 view .LVU625
 1855 0648 2840     		ands	r0, r0, r5
 1856              	.LVL188:
 454:Drivers/lvgl/src/draw/sw/../../misc/lv_color.h ****     ret.full = (uint16_t)((result >> 16) | result);
 1857              		.loc 3 454 5 is_stmt 1 view .LVU626
 455:Drivers/lvgl/src/draw/sw/../../misc/lv_color.h **** #if LV_COLOR_16_SWAP == 1
 456:Drivers/lvgl/src/draw/sw/../../misc/lv_color.h ****     ret.full = ret.full << 8 | ret.full >> 8;
 1858              		.loc 3 456 5 view .LVU627
 457:Drivers/lvgl/src/draw/sw/../../misc/lv_color.h **** #endif
 458:Drivers/lvgl/src/draw/sw/../../misc/lv_color.h **** #elif LV_COLOR_DEPTH != 1
 459:Drivers/lvgl/src/draw/sw/../../misc/lv_color.h ****     /*LV_COLOR_DEPTH == 8, 16 or 32*/
 460:Drivers/lvgl/src/draw/sw/../../misc/lv_color.h ****     LV_COLOR_SET_R(ret, LV_UDIV255((uint16_t)LV_COLOR_GET_R(c1) * mix + LV_COLOR_GET_R(c2) *
 461:Drivers/lvgl/src/draw/sw/../../misc/lv_color.h ****                                    (255 - mix) + LV_COLOR_MIX_ROUND_OFS));
 462:Drivers/lvgl/src/draw/sw/../../misc/lv_color.h ****     LV_COLOR_SET_G(ret, LV_UDIV255((uint16_t)LV_COLOR_GET_G(c1) * mix + LV_COLOR_GET_G(c2) *
 463:Drivers/lvgl/src/draw/sw/../../misc/lv_color.h ****                                    (255 - mix) + LV_COLOR_MIX_ROUND_OFS));
 464:Drivers/lvgl/src/draw/sw/../../misc/lv_color.h ****     LV_COLOR_SET_B(ret, LV_UDIV255((uint16_t)LV_COLOR_GET_B(c1) * mix + LV_COLOR_GET_B(c2) *
 465:Drivers/lvgl/src/draw/sw/../../misc/lv_color.h ****                                    (255 - mix) + LV_COLOR_MIX_ROUND_OFS));
 466:Drivers/lvgl/src/draw/sw/../../misc/lv_color.h ****     LV_COLOR_SET_A(ret, 0xFF);
 467:Drivers/lvgl/src/draw/sw/../../misc/lv_color.h **** #else
 468:Drivers/lvgl/src/draw/sw/../../misc/lv_color.h ****     /*LV_COLOR_DEPTH == 1*/
 469:Drivers/lvgl/src/draw/sw/../../misc/lv_color.h ****     ret.full = mix > LV_OPA_50 ? c1.full : c2.full;
ARM GAS  /var/folders/lp/x54gwt890xv47sdkqj1k04q40000gn/T//cc93WRjx.s 			page 63


 470:Drivers/lvgl/src/draw/sw/../../misc/lv_color.h **** #endif
 471:Drivers/lvgl/src/draw/sw/../../misc/lv_color.h **** 
 472:Drivers/lvgl/src/draw/sw/../../misc/lv_color.h ****     return ret;
 1859              		.loc 3 472 5 view .LVU628
 1860              		.loc 3 472 5 is_stmt 0 view .LVU629
 1861              	.LBE91:
 1862              	.LBE116:
 426:Drivers/lvgl/src/draw/sw/lv_draw_sw_transform.c ****                 cbuf[x] = lv_color_mix(c_hor, c_ver, LV_OPA_50);
 1863              		.loc 1 426 17 is_stmt 1 view .LVU630
 1864              	.LBB117:
 1865              	.LBI93:
 439:Drivers/lvgl/src/draw/sw/../../misc/lv_color.h **** {
 1866              		.loc 3 439 48 view .LVU631
 1867              	.LBB101:
 441:Drivers/lvgl/src/draw/sw/../../misc/lv_color.h **** 
 1868              		.loc 3 441 5 view .LVU632
 445:Drivers/lvgl/src/draw/sw/../../misc/lv_color.h ****     c2.full = c2.full << 8 | c2.full >> 8;
 1869              		.loc 3 445 5 view .LVU633
 446:Drivers/lvgl/src/draw/sw/../../misc/lv_color.h **** #endif
 1870              		.loc 3 446 5 view .LVU634
 449:Drivers/lvgl/src/draw/sw/../../misc/lv_color.h ****     uint32_t bg = (uint32_t)((uint32_t)c2.full | ((uint32_t)c2.full << 16)) &
 1871              		.loc 3 449 5 view .LVU635
 450:Drivers/lvgl/src/draw/sw/../../misc/lv_color.h ****                   0x7E0F81F; /*0b00000111111000001111100000011111*/
 1872              		.loc 3 450 5 view .LVU636
 452:Drivers/lvgl/src/draw/sw/../../misc/lv_color.h ****     uint32_t result = ((((fg - bg) * mix) >> 5) + bg) & 0x7E0F81F;
 1873              		.loc 3 452 5 view .LVU637
 453:Drivers/lvgl/src/draw/sw/../../misc/lv_color.h ****     ret.full = (uint16_t)((result >> 16) | result);
 1874              		.loc 3 453 5 view .LVU638
 1875              	.LBE101:
 1876              	.LBE117:
 1877              	.LBB118:
 1878              	.LBB92:
 454:Drivers/lvgl/src/draw/sw/../../misc/lv_color.h **** #if LV_COLOR_16_SWAP == 1
 1879              		.loc 3 454 16 is_stmt 0 view .LVU639
 1880 064a 40EA1040 		orr	r0, r0, r0, lsr #16
 1881              	.LBE92:
 1882              	.LBE118:
 1883              	.LBB119:
 1884              	.LBB102:
 453:Drivers/lvgl/src/draw/sw/../../misc/lv_color.h ****     ret.full = (uint16_t)((result >> 16) | result);
 1885              		.loc 3 453 14 view .LVU640
 1886 064e 2940     		ands	r1, r1, r5
 1887              	.LVL189:
 454:Drivers/lvgl/src/draw/sw/../../misc/lv_color.h **** #if LV_COLOR_16_SWAP == 1
 1888              		.loc 3 454 5 is_stmt 1 view .LVU641
 456:Drivers/lvgl/src/draw/sw/../../misc/lv_color.h **** #endif
 1889              		.loc 3 456 5 view .LVU642
 1890              		.loc 3 472 5 view .LVU643
 1891              		.loc 3 472 5 is_stmt 0 view .LVU644
 1892              	.LBE102:
 1893              	.LBE119:
 427:Drivers/lvgl/src/draw/sw/lv_draw_sw_transform.c ****             }
 1894              		.loc 1 427 17 is_stmt 1 view .LVU645
 1895              	.LBB120:
 1896              	.LBI120:
 439:Drivers/lvgl/src/draw/sw/../../misc/lv_color.h **** {
 1897              		.loc 3 439 48 view .LVU646
ARM GAS  /var/folders/lp/x54gwt890xv47sdkqj1k04q40000gn/T//cc93WRjx.s 			page 64


 1898              	.LBB121:
 441:Drivers/lvgl/src/draw/sw/../../misc/lv_color.h **** 
 1899              		.loc 3 441 5 view .LVU647
 445:Drivers/lvgl/src/draw/sw/../../misc/lv_color.h ****     c2.full = c2.full << 8 | c2.full >> 8;
 1900              		.loc 3 445 5 view .LVU648
 446:Drivers/lvgl/src/draw/sw/../../misc/lv_color.h **** #endif
 1901              		.loc 3 446 5 view .LVU649
 449:Drivers/lvgl/src/draw/sw/../../misc/lv_color.h ****     uint32_t bg = (uint32_t)((uint32_t)c2.full | ((uint32_t)c2.full << 16)) &
 1902              		.loc 3 449 5 view .LVU650
 450:Drivers/lvgl/src/draw/sw/../../misc/lv_color.h ****                   0x7E0F81F; /*0b00000111111000001111100000011111*/
 1903              		.loc 3 450 5 view .LVU651
 1904              	.LBE121:
 1905              	.LBE120:
 1906              	.LBB123:
 1907              	.LBB103:
 454:Drivers/lvgl/src/draw/sw/../../misc/lv_color.h **** #if LV_COLOR_16_SWAP == 1
 1908              		.loc 3 454 16 is_stmt 0 view .LVU652
 1909 0650 41EA1141 		orr	r1, r1, r1, lsr #16
 1910              	.LVL190:
 454:Drivers/lvgl/src/draw/sw/../../misc/lv_color.h **** #if LV_COLOR_16_SWAP == 1
 1911              		.loc 3 454 16 view .LVU653
 1912              	.LBE103:
 1913              	.LBE123:
 1914              	.LBB124:
 1915              	.LBB122:
 450:Drivers/lvgl/src/draw/sw/../../misc/lv_color.h ****                   0x7E0F81F; /*0b00000111111000001111100000011111*/
 1916              		.loc 3 450 19 view .LVU654
 1917 0654 0404     		lsls	r4, r0, #16
 450:Drivers/lvgl/src/draw/sw/../../misc/lv_color.h ****                   0x7E0F81F; /*0b00000111111000001111100000011111*/
 1918              		.loc 3 450 19 view .LVU655
 1919 0656 14FA80F0 		uxtah	r0, r4, r0
 452:Drivers/lvgl/src/draw/sw/../../misc/lv_color.h ****     uint32_t result = ((((fg - bg) * mix) >> 5) + bg) & 0x7E0F81F;
 1920              		.loc 3 452 19 view .LVU656
 1921 065a 0C04     		lsls	r4, r1, #16
 1922 065c 14FA81F1 		uxtah	r1, r4, r1
 450:Drivers/lvgl/src/draw/sw/../../misc/lv_color.h ****                   0x7E0F81F; /*0b00000111111000001111100000011111*/
 1923              		.loc 3 450 14 view .LVU657
 1924 0660 2840     		ands	r0, r0, r5
 1925              	.LVL191:
 452:Drivers/lvgl/src/draw/sw/../../misc/lv_color.h ****     uint32_t result = ((((fg - bg) * mix) >> 5) + bg) & 0x7E0F81F;
 1926              		.loc 3 452 5 is_stmt 1 view .LVU658
 453:Drivers/lvgl/src/draw/sw/../../misc/lv_color.h ****     ret.full = (uint16_t)((result >> 16) | result);
 1927              		.loc 3 453 5 view .LVU659
 452:Drivers/lvgl/src/draw/sw/../../misc/lv_color.h ****     uint32_t result = ((((fg - bg) * mix) >> 5) + bg) & 0x7E0F81F;
 1928              		.loc 3 452 14 is_stmt 0 view .LVU660
 1929 0662 2940     		ands	r1, r1, r5
 453:Drivers/lvgl/src/draw/sw/../../misc/lv_color.h ****     ret.full = (uint16_t)((result >> 16) | result);
 1930              		.loc 3 453 30 view .LVU661
 1931 0664 091A     		subs	r1, r1, r0
 453:Drivers/lvgl/src/draw/sw/../../misc/lv_color.h ****     ret.full = (uint16_t)((result >> 16) | result);
 1932              		.loc 3 453 43 view .LVU662
 1933 0666 C1F35A01 		ubfx	r1, r1, #1, #27
 453:Drivers/lvgl/src/draw/sw/../../misc/lv_color.h ****     ret.full = (uint16_t)((result >> 16) | result);
 1934              		.loc 3 453 49 view .LVU663
 1935 066a 0144     		add	r1, r1, r0
 453:Drivers/lvgl/src/draw/sw/../../misc/lv_color.h ****     ret.full = (uint16_t)((result >> 16) | result);
 1936              		.loc 3 453 14 view .LVU664
ARM GAS  /var/folders/lp/x54gwt890xv47sdkqj1k04q40000gn/T//cc93WRjx.s 			page 65


 1937 066c 2940     		ands	r1, r1, r5
 1938              	.LVL192:
 454:Drivers/lvgl/src/draw/sw/../../misc/lv_color.h **** #if LV_COLOR_16_SWAP == 1
 1939              		.loc 3 454 5 is_stmt 1 view .LVU665
 456:Drivers/lvgl/src/draw/sw/../../misc/lv_color.h **** #endif
 1940              		.loc 3 456 5 view .LVU666
 1941              		.loc 3 472 5 view .LVU667
 454:Drivers/lvgl/src/draw/sw/../../misc/lv_color.h **** #if LV_COLOR_16_SWAP == 1
 1942              		.loc 3 454 16 is_stmt 0 view .LVU668
 1943 066e 41EA1141 		orr	r1, r1, r1, lsr #16
 456:Drivers/lvgl/src/draw/sw/../../misc/lv_color.h **** #endif
 1944              		.loc 3 456 30 view .LVU669
 1945 0672 49BA     		rev16	r1, r1
 1946              	.LBE122:
 1947              	.LBE124:
 427:Drivers/lvgl/src/draw/sw/lv_draw_sw_transform.c ****             }
 1948              		.loc 1 427 27 view .LVU670
 1949 0674 AEF80010 		strh	r1, [lr]	@ movhi
 1950 0678 12E6     		b	.L39
 1951              	.LVL193:
 1952              	.L36:
 427:Drivers/lvgl/src/draw/sw/lv_draw_sw_transform.c ****             }
 1953              		.loc 1 427 27 view .LVU671
 1954              	.LBE128:
 1955              	.LBE136:
 276:Drivers/lvgl/src/draw/sw/lv_draw_sw_transform.c ****     switch(cf) {
 1956              		.loc 1 276 16 view .LVU672
 1957 067a 0023     		movs	r3, #0
 280:Drivers/lvgl/src/draw/sw/lv_draw_sw_transform.c ****             break;
 1958              		.loc 1 280 21 view .LVU673
 1959 067c 0222     		movs	r2, #2
 276:Drivers/lvgl/src/draw/sw/lv_draw_sw_transform.c ****     switch(cf) {
 1960              		.loc 1 276 16 view .LVU674
 1961 067e 1893     		str	r3, [sp, #96]
 280:Drivers/lvgl/src/draw/sw/lv_draw_sw_transform.c ****             break;
 1962              		.loc 1 280 21 view .LVU675
 1963 0680 1092     		str	r2, [sp, #64]
 279:Drivers/lvgl/src/draw/sw/lv_draw_sw_transform.c ****             px_size = sizeof(lv_color_t);
 1964              		.loc 1 279 23 view .LVU676
 1965 0682 1993     		str	r3, [sp, #100]
 1966 0684 96E5     		b	.L35
 1967              	.LVL194:
 1968              	.L121:
 1969              	.LBB137:
 1970              	.LBB129:
 1971              	.LBB125:
 362:Drivers/lvgl/src/draw/sw/lv_draw_sw_transform.c ****                     a_ver = px_ver[LV_IMG_PX_SIZE_ALPHA_BYTE - 1];
 1972              		.loc 1 362 21 is_stmt 1 view .LVU677
 362:Drivers/lvgl/src/draw/sw/lv_draw_sw_transform.c ****                     a_ver = px_ver[LV_IMG_PX_SIZE_ALPHA_BYTE - 1];
 1973              		.loc 1 362 28 is_stmt 0 view .LVU678
 1974 0686 119E     		ldr	r6, [sp, #68]
 364:Drivers/lvgl/src/draw/sw/lv_draw_sw_transform.c ****                 }
 1975              		.loc 1 364 27 view .LVU679
 1976 0688 A978     		ldrb	r1, [r5, #2]	@ zero_extendqisi2
 1977              	.LVL195:
 363:Drivers/lvgl/src/draw/sw/lv_draw_sw_transform.c ****                     a_hor = px_hor[LV_IMG_PX_SIZE_ALPHA_BYTE - 1];
 1978              		.loc 1 363 27 view .LVU680
ARM GAS  /var/folders/lp/x54gwt890xv47sdkqj1k04q40000gn/T//cc93WRjx.s 			page 66


 1979 068a 8078     		ldrb	r0, [r0, #2]	@ zero_extendqisi2
 1980              	.LVL196:
 362:Drivers/lvgl/src/draw/sw/lv_draw_sw_transform.c ****                     a_ver = px_ver[LV_IMG_PX_SIZE_ALPHA_BYTE - 1];
 1981              		.loc 1 362 28 view .LVU681
 1982 068c B578     		ldrb	r5, [r6, #2]	@ zero_extendqisi2
 1983              	.LVL197:
 363:Drivers/lvgl/src/draw/sw/lv_draw_sw_transform.c ****                     a_hor = px_hor[LV_IMG_PX_SIZE_ALPHA_BYTE - 1];
 1984              		.loc 1 363 21 is_stmt 1 view .LVU682
 364:Drivers/lvgl/src/draw/sw/lv_draw_sw_transform.c ****                 }
 1985              		.loc 1 364 21 view .LVU683
 1986              	.L48:
 393:Drivers/lvgl/src/draw/sw/lv_draw_sw_transform.c ****                 if(a_hor != a_base) a_hor = ((a_hor * xs_fract) + (a_base * (0x100 - xs_fract))) >>
 1987              		.loc 1 393 17 view .LVU684
 393:Drivers/lvgl/src/draw/sw/lv_draw_sw_transform.c ****                 if(a_hor != a_base) a_hor = ((a_hor * xs_fract) + (a_base * (0x100 - xs_fract))) >>
 1988              		.loc 1 393 19 is_stmt 0 view .LVU685
 1989 068e 8542     		cmp	r5, r0
 1990 0690 08D0     		beq	.L53
 393:Drivers/lvgl/src/draw/sw/lv_draw_sw_transform.c ****                 if(a_hor != a_base) a_hor = ((a_hor * xs_fract) + (a_base * (0x100 - xs_fract))) >>
 1991              		.loc 1 393 37 is_stmt 1 discriminator 1 view .LVU686
 393:Drivers/lvgl/src/draw/sw/lv_draw_sw_transform.c ****                 if(a_hor != a_base) a_hor = ((a_hor * xs_fract) + (a_base * (0x100 - xs_fract))) >>
 1992              		.loc 1 393 53 is_stmt 0 discriminator 1 view .LVU687
 1993 0692 149E     		ldr	r6, [sp, #80]
 1994 0694 06FB00F0 		mul	r0, r6, r0
 1995              	.LVL198:
 393:Drivers/lvgl/src/draw/sw/lv_draw_sw_transform.c ****                 if(a_hor != a_base) a_hor = ((a_hor * xs_fract) + (a_base * (0x100 - xs_fract))) >>
 1996              		.loc 1 393 84 discriminator 1 view .LVU688
 1997 0698 C6F58076 		rsb	r6, r6, #256
 393:Drivers/lvgl/src/draw/sw/lv_draw_sw_transform.c ****                 if(a_hor != a_base) a_hor = ((a_hor * xs_fract) + (a_base * (0x100 - xs_fract))) >>
 1998              		.loc 1 393 65 discriminator 1 view .LVU689
 1999 069c 05FB0600 		mla	r0, r5, r6, r0
 393:Drivers/lvgl/src/draw/sw/lv_draw_sw_transform.c ****                 if(a_hor != a_base) a_hor = ((a_hor * xs_fract) + (a_base * (0x100 - xs_fract))) >>
 2000              		.loc 1 393 43 discriminator 1 view .LVU690
 2001 06a0 C0F30720 		ubfx	r0, r0, #8, #8
 2002              	.LVL199:
 2003              	.L53:
 394:Drivers/lvgl/src/draw/sw/lv_draw_sw_transform.c ****                 abuf[x] = (a_ver + a_hor) >> 1;
 2004              		.loc 1 394 17 is_stmt 1 view .LVU691
 394:Drivers/lvgl/src/draw/sw/lv_draw_sw_transform.c ****                 abuf[x] = (a_ver + a_hor) >> 1;
 2005              		.loc 1 394 19 is_stmt 0 view .LVU692
 2006 06a4 8D42     		cmp	r5, r1
 2007 06a6 08D0     		beq	.L54
 394:Drivers/lvgl/src/draw/sw/lv_draw_sw_transform.c ****                 abuf[x] = (a_ver + a_hor) >> 1;
 2008              		.loc 1 394 37 is_stmt 1 discriminator 1 view .LVU693
 394:Drivers/lvgl/src/draw/sw/lv_draw_sw_transform.c ****                 abuf[x] = (a_ver + a_hor) >> 1;
 2009              		.loc 1 394 53 is_stmt 0 discriminator 1 view .LVU694
 2010 06a8 129E     		ldr	r6, [sp, #72]
 2011 06aa 06FB01F1 		mul	r1, r6, r1
 394:Drivers/lvgl/src/draw/sw/lv_draw_sw_transform.c ****                 abuf[x] = (a_ver + a_hor) >> 1;
 2012              		.loc 1 394 84 discriminator 1 view .LVU695
 2013 06ae C6F58076 		rsb	r6, r6, #256
 394:Drivers/lvgl/src/draw/sw/lv_draw_sw_transform.c ****                 abuf[x] = (a_ver + a_hor) >> 1;
 2014              		.loc 1 394 65 discriminator 1 view .LVU696
 2015 06b2 05FB0611 		mla	r1, r5, r6, r1
 394:Drivers/lvgl/src/draw/sw/lv_draw_sw_transform.c ****                 abuf[x] = (a_ver + a_hor) >> 1;
 2016              		.loc 1 394 43 discriminator 1 view .LVU697
 2017 06b6 C1F30721 		ubfx	r1, r1, #8, #8
 2018              	.LVL200:
ARM GAS  /var/folders/lp/x54gwt890xv47sdkqj1k04q40000gn/T//cc93WRjx.s 			page 67


 2019              	.L54:
 395:Drivers/lvgl/src/draw/sw/lv_draw_sw_transform.c **** 
 2020              		.loc 1 395 17 is_stmt 1 view .LVU698
 395:Drivers/lvgl/src/draw/sw/lv_draw_sw_transform.c **** 
 2021              		.loc 1 395 34 is_stmt 0 view .LVU699
 2022 06ba 0144     		add	r1, r1, r0
 2023              	.LVL201:
 395:Drivers/lvgl/src/draw/sw/lv_draw_sw_transform.c **** 
 2024              		.loc 1 395 43 view .LVU700
 2025 06bc 4910     		asrs	r1, r1, #1
 395:Drivers/lvgl/src/draw/sw/lv_draw_sw_transform.c **** 
 2026              		.loc 1 395 25 view .LVU701
 2027 06be 1970     		strb	r1, [r3]
 397:Drivers/lvgl/src/draw/sw/lv_draw_sw_transform.c **** 
 2028              		.loc 1 397 17 is_stmt 1 view .LVU702
 397:Drivers/lvgl/src/draw/sw/lv_draw_sw_transform.c **** 
 2029              		.loc 1 397 19 is_stmt 0 view .LVU703
 2030 06c0 0029     		cmp	r1, #0
 2031 06c2 3FF4EDAD 		beq	.L39
 2032 06c6 6AE7     		b	.L51
 2033              	.LVL202:
 2034              	.L122:
 2035              	.LBB82:
 368:Drivers/lvgl/src/draw/sw/lv_draw_sw_transform.c ****                     a_base = *(a_tmp + (ys_int * src_stride) + xs_int);
 2036              		.loc 1 368 21 is_stmt 1 view .LVU704
 368:Drivers/lvgl/src/draw/sw/lv_draw_sw_transform.c ****                     a_base = *(a_tmp + (ys_int * src_stride) + xs_int);
 2037              		.loc 1 368 63 is_stmt 0 view .LVU705
 2038 06c8 099D     		ldr	r5, [sp, #36]
 2039              	.LVL203:
 368:Drivers/lvgl/src/draw/sw/lv_draw_sw_transform.c ****                     a_base = *(a_tmp + (ys_int * src_stride) + xs_int);
 2040              		.loc 1 368 63 view .LVU706
 2041 06ca 069E     		ldr	r6, [sp, #24]
 2042 06cc 2846     		mov	r0, r5
 2043 06ce 06FB00F0 		mul	r0, r6, r0
 368:Drivers/lvgl/src/draw/sw/lv_draw_sw_transform.c ****                     a_base = *(a_tmp + (ys_int * src_stride) + xs_int);
 2044              		.loc 1 368 38 view .LVU707
 2045 06d2 089E     		ldr	r6, [sp, #32]
 2046 06d4 06EB4006 		add	r6, r6, r0, lsl #1
 2047              	.LVL204:
 369:Drivers/lvgl/src/draw/sw/lv_draw_sw_transform.c ****                     a_hor = *(a_tmp + (ys_int * src_stride) + xs_int + x_next);
 2048              		.loc 1 369 21 is_stmt 1 view .LVU708
 370:Drivers/lvgl/src/draw/sw/lv_draw_sw_transform.c ****                     a_ver = *(a_tmp + ((ys_int + y_next) * src_stride) + xs_int);
 2049              		.loc 1 370 27 is_stmt 0 view .LVU709
 2050 06d8 0B98     		ldr	r0, [sp, #44]
 2051 06da 3044     		add	r0, r0, r6
 2052 06dc 0B90     		str	r0, [sp, #44]
 371:Drivers/lvgl/src/draw/sw/lv_draw_sw_transform.c ****                 }
 2053              		.loc 1 371 27 view .LVU710
 2054 06de 2846     		mov	r0, r5
 2055 06e0 1B9D     		ldr	r5, [sp, #108]
 2056 06e2 05FB0060 		mla	r0, r5, r0, r6
 2057 06e6 405C     		ldrb	r0, [r0, r1]	@ zero_extendqisi2
 369:Drivers/lvgl/src/draw/sw/lv_draw_sw_transform.c ****                     a_hor = *(a_tmp + (ys_int * src_stride) + xs_int + x_next);
 2058              		.loc 1 369 28 view .LVU711
 2059 06e8 1699     		ldr	r1, [sp, #88]
 2060              	.LVL205:
 369:Drivers/lvgl/src/draw/sw/lv_draw_sw_transform.c ****                     a_hor = *(a_tmp + (ys_int * src_stride) + xs_int + x_next);
ARM GAS  /var/folders/lp/x54gwt890xv47sdkqj1k04q40000gn/T//cc93WRjx.s 			page 68


 2061              		.loc 1 369 28 view .LVU712
 2062 06ea 755C     		ldrb	r5, [r6, r1]	@ zero_extendqisi2
 2063              	.LVL206:
 370:Drivers/lvgl/src/draw/sw/lv_draw_sw_transform.c ****                     a_ver = *(a_tmp + ((ys_int + y_next) * src_stride) + xs_int);
 2064              		.loc 1 370 21 is_stmt 1 view .LVU713
 370:Drivers/lvgl/src/draw/sw/lv_draw_sw_transform.c ****                     a_ver = *(a_tmp + ((ys_int + y_next) * src_stride) + xs_int);
 2065              		.loc 1 370 27 is_stmt 0 view .LVU714
 2066 06ec 0B9E     		ldr	r6, [sp, #44]
 2067              	.LVL207:
 370:Drivers/lvgl/src/draw/sw/lv_draw_sw_transform.c ****                     a_ver = *(a_tmp + ((ys_int + y_next) * src_stride) + xs_int);
 2068              		.loc 1 370 27 view .LVU715
 2069 06ee 715C     		ldrb	r1, [r6, r1]	@ zero_extendqisi2
 2070              	.LVL208:
 371:Drivers/lvgl/src/draw/sw/lv_draw_sw_transform.c ****                 }
 2071              		.loc 1 371 21 is_stmt 1 view .LVU716
 371:Drivers/lvgl/src/draw/sw/lv_draw_sw_transform.c ****                 }
 2072              		.loc 1 371 21 is_stmt 0 view .LVU717
 2073              	.LBE82:
 2074 06f0 CDE7     		b	.L48
 2075              	.LVL209:
 2076              	.L50:
 375:Drivers/lvgl/src/draw/sw/lv_draw_sw_transform.c ****                        ((lv_color_t *)px_ver)->full == ck.full ||
 2077              		.loc 1 375 21 is_stmt 1 view .LVU718
 375:Drivers/lvgl/src/draw/sw/lv_draw_sw_transform.c ****                        ((lv_color_t *)px_ver)->full == ck.full ||
 2078              		.loc 1 375 23 is_stmt 0 view .LVU719
 2079 06f2 0899     		ldr	r1, [sp, #32]
 2080 06f4 1898     		ldr	r0, [sp, #96]
 2081 06f6 095B     		ldrh	r1, [r1, r4]
 2082 06f8 8142     		cmp	r1, r0
 2083 06fa 08D0     		beq	.L52
 375:Drivers/lvgl/src/draw/sw/lv_draw_sw_transform.c ****                        ((lv_color_t *)px_ver)->full == ck.full ||
 2084              		.loc 1 375 65 discriminator 2 view .LVU720
 2085 06fc 119D     		ldr	r5, [sp, #68]
 2086              	.LVL210:
 375:Drivers/lvgl/src/draw/sw/lv_draw_sw_transform.c ****                        ((lv_color_t *)px_ver)->full == ck.full ||
 2087              		.loc 1 375 65 discriminator 2 view .LVU721
 2088 06fe E95B     		ldrh	r1, [r5, r7]
 2089 0700 8142     		cmp	r1, r0
 2090 0702 04D0     		beq	.L52
 376:Drivers/lvgl/src/draw/sw/lv_draw_sw_transform.c ****                        ((lv_color_t *)px_hor)->full == ck.full) {
 2091              		.loc 1 376 64 view .LVU722
 2092 0704 0E99     		ldr	r1, [sp, #56]
 2093 0706 695A     		ldrh	r1, [r5, r1]
 2094 0708 8142     		cmp	r1, r0
 2095 070a 7FF446AF 		bne	.L111
 2096              	.L52:
 378:Drivers/lvgl/src/draw/sw/lv_draw_sw_transform.c ****                         continue;
 2097              		.loc 1 378 25 is_stmt 1 view .LVU723
 378:Drivers/lvgl/src/draw/sw/lv_draw_sw_transform.c ****                         continue;
 2098              		.loc 1 378 33 is_stmt 0 view .LVU724
 2099 070e 0021     		movs	r1, #0
 2100 0710 1970     		strb	r1, [r3]
 2101              	.LVL211:
 379:Drivers/lvgl/src/draw/sw/lv_draw_sw_transform.c ****                     }
 2102              		.loc 1 379 25 is_stmt 1 view .LVU725
 2103 0712 C5E5     		b	.L39
 2104              	.L127:
ARM GAS  /var/folders/lp/x54gwt890xv47sdkqj1k04q40000gn/T//cc93WRjx.s 			page 69


 2105              		.align	2
 2106              	.L126:
 2107 0714 1FF8E007 		.word	132184095
 2108              	.LBE125:
 2109              	.LBE129:
 2110              	.LBE137:
 2111              	.LBE139:
 2112              	.LBE159:
 2113              	.LBE163:
 2114              		.cfi_endproc
 2115              	.LFE161:
 2117              		.text
 2118              	.Letext0:
 2119              		.file 4 "/Users/jr/Library/Application Support/Code/User/globalStorage/bmd.stm32-for-vscode/@xpack
 2120              		.file 5 "/Users/jr/Library/Application Support/Code/User/globalStorage/bmd.stm32-for-vscode/@xpack
 2121              		.file 6 "Drivers/lvgl/src/draw/sw/../../misc/lv_types.h"
 2122              		.file 7 "/Users/jr/Library/Application Support/Code/User/globalStorage/bmd.stm32-for-vscode/@xpack
 2123              		.file 8 "Drivers/lvgl/src/draw/sw/../../misc/../font/lv_font.h"
 2124              		.file 9 "Drivers/lvgl/src/draw/sw/../../misc/lv_txt.h"
 2125              		.file 10 "Drivers/lvgl/src/draw/sw/../../misc/lv_bidi.h"
 2126              		.file 11 "Drivers/lvgl/src/draw/sw/../../misc/lv_style.h"
 2127              		.file 12 "Drivers/lvgl/src/draw/sw/../lv_img_buf.h"
 2128              		.file 13 "Drivers/lvgl/src/draw/sw/../../core/lv_obj.h"
 2129              		.file 14 "Drivers/lvgl/src/draw/sw/../lv_draw_rect.h"
 2130              		.file 15 "Drivers/lvgl/src/draw/sw/../lv_draw_label.h"
 2131              		.file 16 "Drivers/lvgl/src/draw/sw/../lv_draw_img.h"
 2132              		.file 17 "Drivers/lvgl/src/draw/sw/../lv_draw_line.h"
 2133              		.file 18 "Drivers/lvgl/src/draw/sw/../lv_draw_arc.h"
 2134              		.file 19 "Drivers/lvgl/src/draw/sw/../lv_draw_layer.h"
 2135              		.file 20 "Drivers/lvgl/src/draw/sw/../lv_draw.h"
 2136              		.file 21 "Drivers/lvgl/src/draw/sw/../../hal/../misc/lv_timer.h"
 2137              		.file 22 "Drivers/lvgl/src/draw/sw/../../hal/lv_hal_disp.h"
 2138              		.file 23 "Drivers/lvgl/src/draw/sw/../../core/lv_group.h"
 2139              		.file 24 "Drivers/lvgl/src/draw/sw/../../hal/../misc/lv_ll.h"
 2140              		.file 25 "Drivers/lvgl/src/draw/sw/../../core/lv_obj_scroll.h"
 2141              		.file 26 "Drivers/lvgl/src/draw/sw/../../core/lv_obj_style.h"
 2142              		.file 27 "Drivers/lvgl/src/draw/sw/../../core/lv_obj_class.h"
 2143              		.file 28 "Drivers/lvgl/src/draw/sw/../../core/lv_event.h"
 2144              		.file 29 "Drivers/lvgl/src/draw/sw/../../misc/lv_mem.h"
 2145              		.file 30 "Drivers/lvgl/src/draw/sw/../../core/lv_refr.h"
 2146              		.file 31 "Drivers/lvgl/src/draw/sw/../../misc/lv_math.h"
ARM GAS  /var/folders/lp/x54gwt890xv47sdkqj1k04q40000gn/T//cc93WRjx.s 			page 70


DEFINED SYMBOLS
                            *ABS*:00000000 lv_draw_sw_transform.c
/var/folders/lp/x54gwt890xv47sdkqj1k04q40000gn/T//cc93WRjx.s:21     .text.transform_point_upscaled:00000000 $t
/var/folders/lp/x54gwt890xv47sdkqj1k04q40000gn/T//cc93WRjx.s:27     .text.transform_point_upscaled:00000000 transform_point_upscaled
/var/folders/lp/x54gwt890xv47sdkqj1k04q40000gn/T//cc93WRjx.s:191    .text.lv_draw_sw_transform:00000000 $t
/var/folders/lp/x54gwt890xv47sdkqj1k04q40000gn/T//cc93WRjx.s:198    .text.lv_draw_sw_transform:00000000 lv_draw_sw_transform
/var/folders/lp/x54gwt890xv47sdkqj1k04q40000gn/T//cc93WRjx.s:582    .text.lv_draw_sw_transform:00000182 $d
/var/folders/lp/x54gwt890xv47sdkqj1k04q40000gn/T//cc93WRjx.s:603    .text.lv_draw_sw_transform:000001a4 $d
/var/folders/lp/x54gwt890xv47sdkqj1k04q40000gn/T//cc93WRjx.s:612    .text.lv_draw_sw_transform:000001a8 $t
/var/folders/lp/x54gwt890xv47sdkqj1k04q40000gn/T//cc93WRjx.s:1290   .text.lv_draw_sw_transform:00000444 $d
/var/folders/lp/x54gwt890xv47sdkqj1k04q40000gn/T//cc93WRjx.s:1308   .text.lv_draw_sw_transform:00000488 $t
/var/folders/lp/x54gwt890xv47sdkqj1k04q40000gn/T//cc93WRjx.s:2107   .text.lv_draw_sw_transform:00000714 $d

UNDEFINED SYMBOLS
lv_trigo_sin
_lv_refr_get_disp_refreshing
lv_memset_ff
