ARM GAS  /var/folders/lp/x54gwt890xv47sdkqj1k04q40000gn/T//cc8OVz70.s 			page 1


   1              		.cpu cortex-m4
   2              		.arch armv7e-m
   3              		.fpu fpv4-sp-d16
   4              		.eabi_attribute 27, 1
   5              		.eabi_attribute 28, 1
   6              		.eabi_attribute 20, 1
   7              		.eabi_attribute 21, 1
   8              		.eabi_attribute 23, 3
   9              		.eabi_attribute 24, 1
  10              		.eabi_attribute 25, 1
  11              		.eabi_attribute 26, 1
  12              		.eabi_attribute 30, 2
  13              		.eabi_attribute 34, 1
  14              		.eabi_attribute 18, 4
  15              		.file	"lv_draw_sw_arc.c"
  16              		.text
  17              	.Ltext0:
  18              		.cfi_sections	.debug_frame
  19              		.file 1 "Drivers/lvgl/src/draw/sw/lv_draw_sw_arc.c"
  20              		.section	.text.get_rounded_area,"ax",%progbits
  21              		.align	1
  22              		.p2align 2,,3
  23              		.syntax unified
  24              		.thumb
  25              		.thumb_func
  27              	get_rounded_area:
  28              	.LVL0:
  29              	.LFB61:
   1:Drivers/lvgl/src/draw/sw/lv_draw_sw_arc.c **** /**
   2:Drivers/lvgl/src/draw/sw/lv_draw_sw_arc.c ****  * @file lv_draw_arc.c
   3:Drivers/lvgl/src/draw/sw/lv_draw_sw_arc.c ****  *
   4:Drivers/lvgl/src/draw/sw/lv_draw_sw_arc.c ****  */
   5:Drivers/lvgl/src/draw/sw/lv_draw_sw_arc.c **** 
   6:Drivers/lvgl/src/draw/sw/lv_draw_sw_arc.c **** /*********************
   7:Drivers/lvgl/src/draw/sw/lv_draw_sw_arc.c ****  *      INCLUDES
   8:Drivers/lvgl/src/draw/sw/lv_draw_sw_arc.c ****  *********************/
   9:Drivers/lvgl/src/draw/sw/lv_draw_sw_arc.c **** #include "lv_draw_sw.h"
  10:Drivers/lvgl/src/draw/sw/lv_draw_sw_arc.c **** #include "../../misc/lv_math.h"
  11:Drivers/lvgl/src/draw/sw/lv_draw_sw_arc.c **** #include "../../misc/lv_log.h"
  12:Drivers/lvgl/src/draw/sw/lv_draw_sw_arc.c **** #include "../../misc/lv_mem.h"
  13:Drivers/lvgl/src/draw/sw/lv_draw_sw_arc.c **** #include "../lv_draw.h"
  14:Drivers/lvgl/src/draw/sw/lv_draw_sw_arc.c **** 
  15:Drivers/lvgl/src/draw/sw/lv_draw_sw_arc.c **** /*********************
  16:Drivers/lvgl/src/draw/sw/lv_draw_sw_arc.c ****  *      DEFINES
  17:Drivers/lvgl/src/draw/sw/lv_draw_sw_arc.c ****  *********************/
  18:Drivers/lvgl/src/draw/sw/lv_draw_sw_arc.c **** #define SPLIT_RADIUS_LIMIT 10  /*With radius greater than this the arc will drawn in quarters. A qu
  19:Drivers/lvgl/src/draw/sw/lv_draw_sw_arc.c **** #define SPLIT_ANGLE_GAP_LIMIT 60  /*With small gaps in the arc don't bother with splitting because 
  20:Drivers/lvgl/src/draw/sw/lv_draw_sw_arc.c **** 
  21:Drivers/lvgl/src/draw/sw/lv_draw_sw_arc.c **** /**********************
  22:Drivers/lvgl/src/draw/sw/lv_draw_sw_arc.c ****  *      TYPEDEFS
  23:Drivers/lvgl/src/draw/sw/lv_draw_sw_arc.c ****  **********************/
  24:Drivers/lvgl/src/draw/sw/lv_draw_sw_arc.c **** typedef struct {
  25:Drivers/lvgl/src/draw/sw/lv_draw_sw_arc.c ****     const lv_point_t * center;
  26:Drivers/lvgl/src/draw/sw/lv_draw_sw_arc.c ****     lv_coord_t radius;
  27:Drivers/lvgl/src/draw/sw/lv_draw_sw_arc.c ****     uint16_t start_angle;
  28:Drivers/lvgl/src/draw/sw/lv_draw_sw_arc.c ****     uint16_t end_angle;
  29:Drivers/lvgl/src/draw/sw/lv_draw_sw_arc.c ****     uint16_t start_quarter;
ARM GAS  /var/folders/lp/x54gwt890xv47sdkqj1k04q40000gn/T//cc8OVz70.s 			page 2


  30:Drivers/lvgl/src/draw/sw/lv_draw_sw_arc.c ****     uint16_t end_quarter;
  31:Drivers/lvgl/src/draw/sw/lv_draw_sw_arc.c ****     lv_coord_t width;
  32:Drivers/lvgl/src/draw/sw/lv_draw_sw_arc.c ****     lv_draw_rect_dsc_t * draw_dsc;
  33:Drivers/lvgl/src/draw/sw/lv_draw_sw_arc.c ****     const lv_area_t * draw_area;
  34:Drivers/lvgl/src/draw/sw/lv_draw_sw_arc.c ****     lv_draw_ctx_t * draw_ctx;
  35:Drivers/lvgl/src/draw/sw/lv_draw_sw_arc.c **** } quarter_draw_dsc_t;
  36:Drivers/lvgl/src/draw/sw/lv_draw_sw_arc.c **** 
  37:Drivers/lvgl/src/draw/sw/lv_draw_sw_arc.c **** /**********************
  38:Drivers/lvgl/src/draw/sw/lv_draw_sw_arc.c ****  *  STATIC PROTOTYPES
  39:Drivers/lvgl/src/draw/sw/lv_draw_sw_arc.c ****  **********************/
  40:Drivers/lvgl/src/draw/sw/lv_draw_sw_arc.c **** #if LV_DRAW_COMPLEX
  41:Drivers/lvgl/src/draw/sw/lv_draw_sw_arc.c ****     static void draw_quarter_0(quarter_draw_dsc_t * q);
  42:Drivers/lvgl/src/draw/sw/lv_draw_sw_arc.c ****     static void draw_quarter_1(quarter_draw_dsc_t * q);
  43:Drivers/lvgl/src/draw/sw/lv_draw_sw_arc.c ****     static void draw_quarter_2(quarter_draw_dsc_t * q);
  44:Drivers/lvgl/src/draw/sw/lv_draw_sw_arc.c ****     static void draw_quarter_3(quarter_draw_dsc_t * q);
  45:Drivers/lvgl/src/draw/sw/lv_draw_sw_arc.c ****     static void get_rounded_area(int16_t angle, lv_coord_t radius, uint8_t thickness, lv_area_t * r
  46:Drivers/lvgl/src/draw/sw/lv_draw_sw_arc.c **** #endif /*LV_DRAW_COMPLEX*/
  47:Drivers/lvgl/src/draw/sw/lv_draw_sw_arc.c **** 
  48:Drivers/lvgl/src/draw/sw/lv_draw_sw_arc.c **** /**********************
  49:Drivers/lvgl/src/draw/sw/lv_draw_sw_arc.c ****  *  STATIC VARIABLES
  50:Drivers/lvgl/src/draw/sw/lv_draw_sw_arc.c ****  **********************/
  51:Drivers/lvgl/src/draw/sw/lv_draw_sw_arc.c **** 
  52:Drivers/lvgl/src/draw/sw/lv_draw_sw_arc.c **** /**********************
  53:Drivers/lvgl/src/draw/sw/lv_draw_sw_arc.c ****  *      MACROS
  54:Drivers/lvgl/src/draw/sw/lv_draw_sw_arc.c ****  **********************/
  55:Drivers/lvgl/src/draw/sw/lv_draw_sw_arc.c **** 
  56:Drivers/lvgl/src/draw/sw/lv_draw_sw_arc.c **** /**********************
  57:Drivers/lvgl/src/draw/sw/lv_draw_sw_arc.c ****  *   GLOBAL FUNCTIONS
  58:Drivers/lvgl/src/draw/sw/lv_draw_sw_arc.c ****  **********************/
  59:Drivers/lvgl/src/draw/sw/lv_draw_sw_arc.c **** 
  60:Drivers/lvgl/src/draw/sw/lv_draw_sw_arc.c **** void lv_draw_sw_arc(lv_draw_ctx_t * draw_ctx, const lv_draw_arc_dsc_t * dsc, const lv_point_t * cen
  61:Drivers/lvgl/src/draw/sw/lv_draw_sw_arc.c ****                     uint16_t start_angle, uint16_t end_angle)
  62:Drivers/lvgl/src/draw/sw/lv_draw_sw_arc.c **** {
  63:Drivers/lvgl/src/draw/sw/lv_draw_sw_arc.c **** #if LV_DRAW_COMPLEX
  64:Drivers/lvgl/src/draw/sw/lv_draw_sw_arc.c ****     if(dsc->opa <= LV_OPA_MIN) return;
  65:Drivers/lvgl/src/draw/sw/lv_draw_sw_arc.c ****     if(dsc->width == 0) return;
  66:Drivers/lvgl/src/draw/sw/lv_draw_sw_arc.c ****     if(start_angle == end_angle) return;
  67:Drivers/lvgl/src/draw/sw/lv_draw_sw_arc.c **** 
  68:Drivers/lvgl/src/draw/sw/lv_draw_sw_arc.c ****     lv_coord_t width = dsc->width;
  69:Drivers/lvgl/src/draw/sw/lv_draw_sw_arc.c ****     if(width > radius) width = radius;
  70:Drivers/lvgl/src/draw/sw/lv_draw_sw_arc.c **** 
  71:Drivers/lvgl/src/draw/sw/lv_draw_sw_arc.c ****     lv_draw_rect_dsc_t cir_dsc;
  72:Drivers/lvgl/src/draw/sw/lv_draw_sw_arc.c ****     lv_draw_rect_dsc_init(&cir_dsc);
  73:Drivers/lvgl/src/draw/sw/lv_draw_sw_arc.c ****     cir_dsc.blend_mode = dsc->blend_mode;
  74:Drivers/lvgl/src/draw/sw/lv_draw_sw_arc.c ****     if(dsc->img_src) {
  75:Drivers/lvgl/src/draw/sw/lv_draw_sw_arc.c ****         cir_dsc.bg_opa = LV_OPA_TRANSP;
  76:Drivers/lvgl/src/draw/sw/lv_draw_sw_arc.c ****         cir_dsc.bg_img_src = dsc->img_src;
  77:Drivers/lvgl/src/draw/sw/lv_draw_sw_arc.c ****         cir_dsc.bg_img_opa = dsc->opa;
  78:Drivers/lvgl/src/draw/sw/lv_draw_sw_arc.c ****     }
  79:Drivers/lvgl/src/draw/sw/lv_draw_sw_arc.c ****     else {
  80:Drivers/lvgl/src/draw/sw/lv_draw_sw_arc.c ****         cir_dsc.bg_opa = dsc->opa;
  81:Drivers/lvgl/src/draw/sw/lv_draw_sw_arc.c ****         cir_dsc.bg_color = dsc->color;
  82:Drivers/lvgl/src/draw/sw/lv_draw_sw_arc.c ****     }
  83:Drivers/lvgl/src/draw/sw/lv_draw_sw_arc.c **** 
  84:Drivers/lvgl/src/draw/sw/lv_draw_sw_arc.c ****     lv_area_t area_out;
  85:Drivers/lvgl/src/draw/sw/lv_draw_sw_arc.c ****     area_out.x1 = center->x - radius;
  86:Drivers/lvgl/src/draw/sw/lv_draw_sw_arc.c ****     area_out.y1 = center->y - radius;
ARM GAS  /var/folders/lp/x54gwt890xv47sdkqj1k04q40000gn/T//cc8OVz70.s 			page 3


  87:Drivers/lvgl/src/draw/sw/lv_draw_sw_arc.c ****     area_out.x2 = center->x + radius - 1;  /*-1 because the center already belongs to the left/bott
  88:Drivers/lvgl/src/draw/sw/lv_draw_sw_arc.c ****     area_out.y2 = center->y + radius - 1;
  89:Drivers/lvgl/src/draw/sw/lv_draw_sw_arc.c **** 
  90:Drivers/lvgl/src/draw/sw/lv_draw_sw_arc.c ****     lv_area_t area_in;
  91:Drivers/lvgl/src/draw/sw/lv_draw_sw_arc.c ****     lv_area_copy(&area_in, &area_out);
  92:Drivers/lvgl/src/draw/sw/lv_draw_sw_arc.c ****     area_in.x1 += dsc->width;
  93:Drivers/lvgl/src/draw/sw/lv_draw_sw_arc.c ****     area_in.y1 += dsc->width;
  94:Drivers/lvgl/src/draw/sw/lv_draw_sw_arc.c ****     area_in.x2 -= dsc->width;
  95:Drivers/lvgl/src/draw/sw/lv_draw_sw_arc.c ****     area_in.y2 -= dsc->width;
  96:Drivers/lvgl/src/draw/sw/lv_draw_sw_arc.c **** 
  97:Drivers/lvgl/src/draw/sw/lv_draw_sw_arc.c ****     /*Create inner the mask*/
  98:Drivers/lvgl/src/draw/sw/lv_draw_sw_arc.c ****     int16_t mask_in_id = LV_MASK_ID_INV;
  99:Drivers/lvgl/src/draw/sw/lv_draw_sw_arc.c ****     lv_draw_mask_radius_param_t mask_in_param;
 100:Drivers/lvgl/src/draw/sw/lv_draw_sw_arc.c ****     bool mask_in_param_valid = false;
 101:Drivers/lvgl/src/draw/sw/lv_draw_sw_arc.c ****     if(lv_area_get_width(&area_in) > 0 && lv_area_get_height(&area_in) > 0) {
 102:Drivers/lvgl/src/draw/sw/lv_draw_sw_arc.c ****         lv_draw_mask_radius_init(&mask_in_param, &area_in, LV_RADIUS_CIRCLE, true);
 103:Drivers/lvgl/src/draw/sw/lv_draw_sw_arc.c ****         mask_in_param_valid = true;
 104:Drivers/lvgl/src/draw/sw/lv_draw_sw_arc.c ****         mask_in_id = lv_draw_mask_add(&mask_in_param, NULL);
 105:Drivers/lvgl/src/draw/sw/lv_draw_sw_arc.c ****     }
 106:Drivers/lvgl/src/draw/sw/lv_draw_sw_arc.c **** 
 107:Drivers/lvgl/src/draw/sw/lv_draw_sw_arc.c ****     lv_draw_mask_radius_param_t mask_out_param;
 108:Drivers/lvgl/src/draw/sw/lv_draw_sw_arc.c ****     lv_draw_mask_radius_init(&mask_out_param, &area_out, LV_RADIUS_CIRCLE, false);
 109:Drivers/lvgl/src/draw/sw/lv_draw_sw_arc.c ****     int16_t mask_out_id = lv_draw_mask_add(&mask_out_param, NULL);
 110:Drivers/lvgl/src/draw/sw/lv_draw_sw_arc.c **** 
 111:Drivers/lvgl/src/draw/sw/lv_draw_sw_arc.c ****     /*Draw a full ring*/
 112:Drivers/lvgl/src/draw/sw/lv_draw_sw_arc.c ****     if(start_angle + 360 == end_angle || start_angle == end_angle + 360) {
 113:Drivers/lvgl/src/draw/sw/lv_draw_sw_arc.c ****         cir_dsc.radius = LV_RADIUS_CIRCLE;
 114:Drivers/lvgl/src/draw/sw/lv_draw_sw_arc.c ****         lv_draw_rect(draw_ctx, &cir_dsc, &area_out);
 115:Drivers/lvgl/src/draw/sw/lv_draw_sw_arc.c **** 
 116:Drivers/lvgl/src/draw/sw/lv_draw_sw_arc.c ****         lv_draw_mask_remove_id(mask_out_id);
 117:Drivers/lvgl/src/draw/sw/lv_draw_sw_arc.c ****         if(mask_in_id != LV_MASK_ID_INV) lv_draw_mask_remove_id(mask_in_id);
 118:Drivers/lvgl/src/draw/sw/lv_draw_sw_arc.c **** 
 119:Drivers/lvgl/src/draw/sw/lv_draw_sw_arc.c ****         lv_draw_mask_free_param(&mask_out_param);
 120:Drivers/lvgl/src/draw/sw/lv_draw_sw_arc.c ****         if(mask_in_param_valid) {
 121:Drivers/lvgl/src/draw/sw/lv_draw_sw_arc.c ****             lv_draw_mask_free_param(&mask_in_param);
 122:Drivers/lvgl/src/draw/sw/lv_draw_sw_arc.c ****         }
 123:Drivers/lvgl/src/draw/sw/lv_draw_sw_arc.c **** 
 124:Drivers/lvgl/src/draw/sw/lv_draw_sw_arc.c ****         return;
 125:Drivers/lvgl/src/draw/sw/lv_draw_sw_arc.c ****     }
 126:Drivers/lvgl/src/draw/sw/lv_draw_sw_arc.c **** 
 127:Drivers/lvgl/src/draw/sw/lv_draw_sw_arc.c ****     while(start_angle >= 360) start_angle -= 360;
 128:Drivers/lvgl/src/draw/sw/lv_draw_sw_arc.c ****     while(end_angle >= 360) end_angle -= 360;
 129:Drivers/lvgl/src/draw/sw/lv_draw_sw_arc.c **** 
 130:Drivers/lvgl/src/draw/sw/lv_draw_sw_arc.c ****     lv_draw_mask_angle_param_t mask_angle_param;
 131:Drivers/lvgl/src/draw/sw/lv_draw_sw_arc.c ****     lv_draw_mask_angle_init(&mask_angle_param, center->x, center->y, start_angle, end_angle);
 132:Drivers/lvgl/src/draw/sw/lv_draw_sw_arc.c ****     int16_t mask_angle_id = lv_draw_mask_add(&mask_angle_param, NULL);
 133:Drivers/lvgl/src/draw/sw/lv_draw_sw_arc.c **** 
 134:Drivers/lvgl/src/draw/sw/lv_draw_sw_arc.c ****     int32_t angle_gap;
 135:Drivers/lvgl/src/draw/sw/lv_draw_sw_arc.c ****     if(end_angle > start_angle) {
 136:Drivers/lvgl/src/draw/sw/lv_draw_sw_arc.c ****         angle_gap = 360 - (end_angle - start_angle);
 137:Drivers/lvgl/src/draw/sw/lv_draw_sw_arc.c ****     }
 138:Drivers/lvgl/src/draw/sw/lv_draw_sw_arc.c ****     else {
 139:Drivers/lvgl/src/draw/sw/lv_draw_sw_arc.c ****         angle_gap = start_angle - end_angle;
 140:Drivers/lvgl/src/draw/sw/lv_draw_sw_arc.c ****     }
 141:Drivers/lvgl/src/draw/sw/lv_draw_sw_arc.c **** 
 142:Drivers/lvgl/src/draw/sw/lv_draw_sw_arc.c ****     const lv_area_t * clip_area_ori = draw_ctx->clip_area;
 143:Drivers/lvgl/src/draw/sw/lv_draw_sw_arc.c **** 
ARM GAS  /var/folders/lp/x54gwt890xv47sdkqj1k04q40000gn/T//cc8OVz70.s 			page 4


 144:Drivers/lvgl/src/draw/sw/lv_draw_sw_arc.c ****     if(angle_gap > SPLIT_ANGLE_GAP_LIMIT && radius > SPLIT_RADIUS_LIMIT) {
 145:Drivers/lvgl/src/draw/sw/lv_draw_sw_arc.c ****         /*Handle each quarter individually and skip which is empty*/
 146:Drivers/lvgl/src/draw/sw/lv_draw_sw_arc.c ****         quarter_draw_dsc_t q_dsc;
 147:Drivers/lvgl/src/draw/sw/lv_draw_sw_arc.c ****         q_dsc.center = center;
 148:Drivers/lvgl/src/draw/sw/lv_draw_sw_arc.c ****         q_dsc.radius = radius;
 149:Drivers/lvgl/src/draw/sw/lv_draw_sw_arc.c ****         q_dsc.start_angle = start_angle;
 150:Drivers/lvgl/src/draw/sw/lv_draw_sw_arc.c ****         q_dsc.end_angle = end_angle;
 151:Drivers/lvgl/src/draw/sw/lv_draw_sw_arc.c ****         q_dsc.start_quarter = (start_angle / 90) & 0x3;
 152:Drivers/lvgl/src/draw/sw/lv_draw_sw_arc.c ****         q_dsc.end_quarter = (end_angle / 90) & 0x3;
 153:Drivers/lvgl/src/draw/sw/lv_draw_sw_arc.c ****         q_dsc.width = width;
 154:Drivers/lvgl/src/draw/sw/lv_draw_sw_arc.c ****         q_dsc.draw_dsc = &cir_dsc;
 155:Drivers/lvgl/src/draw/sw/lv_draw_sw_arc.c ****         q_dsc.draw_area = &area_out;
 156:Drivers/lvgl/src/draw/sw/lv_draw_sw_arc.c ****         q_dsc.draw_ctx = draw_ctx;
 157:Drivers/lvgl/src/draw/sw/lv_draw_sw_arc.c **** 
 158:Drivers/lvgl/src/draw/sw/lv_draw_sw_arc.c ****         draw_quarter_0(&q_dsc);
 159:Drivers/lvgl/src/draw/sw/lv_draw_sw_arc.c ****         draw_quarter_1(&q_dsc);
 160:Drivers/lvgl/src/draw/sw/lv_draw_sw_arc.c ****         draw_quarter_2(&q_dsc);
 161:Drivers/lvgl/src/draw/sw/lv_draw_sw_arc.c ****         draw_quarter_3(&q_dsc);
 162:Drivers/lvgl/src/draw/sw/lv_draw_sw_arc.c ****     }
 163:Drivers/lvgl/src/draw/sw/lv_draw_sw_arc.c ****     else {
 164:Drivers/lvgl/src/draw/sw/lv_draw_sw_arc.c ****         lv_draw_rect(draw_ctx, &cir_dsc, &area_out);
 165:Drivers/lvgl/src/draw/sw/lv_draw_sw_arc.c ****     }
 166:Drivers/lvgl/src/draw/sw/lv_draw_sw_arc.c **** 
 167:Drivers/lvgl/src/draw/sw/lv_draw_sw_arc.c ****     lv_draw_mask_free_param(&mask_angle_param);
 168:Drivers/lvgl/src/draw/sw/lv_draw_sw_arc.c ****     lv_draw_mask_free_param(&mask_out_param);
 169:Drivers/lvgl/src/draw/sw/lv_draw_sw_arc.c ****     if(mask_in_param_valid) {
 170:Drivers/lvgl/src/draw/sw/lv_draw_sw_arc.c ****         lv_draw_mask_free_param(&mask_in_param);
 171:Drivers/lvgl/src/draw/sw/lv_draw_sw_arc.c ****     }
 172:Drivers/lvgl/src/draw/sw/lv_draw_sw_arc.c **** 
 173:Drivers/lvgl/src/draw/sw/lv_draw_sw_arc.c ****     lv_draw_mask_remove_id(mask_angle_id);
 174:Drivers/lvgl/src/draw/sw/lv_draw_sw_arc.c ****     lv_draw_mask_remove_id(mask_out_id);
 175:Drivers/lvgl/src/draw/sw/lv_draw_sw_arc.c ****     if(mask_in_id != LV_MASK_ID_INV) lv_draw_mask_remove_id(mask_in_id);
 176:Drivers/lvgl/src/draw/sw/lv_draw_sw_arc.c **** 
 177:Drivers/lvgl/src/draw/sw/lv_draw_sw_arc.c ****     if(dsc->rounded) {
 178:Drivers/lvgl/src/draw/sw/lv_draw_sw_arc.c **** 
 179:Drivers/lvgl/src/draw/sw/lv_draw_sw_arc.c ****         lv_draw_mask_radius_param_t mask_end_param;
 180:Drivers/lvgl/src/draw/sw/lv_draw_sw_arc.c **** 
 181:Drivers/lvgl/src/draw/sw/lv_draw_sw_arc.c ****         lv_area_t round_area;
 182:Drivers/lvgl/src/draw/sw/lv_draw_sw_arc.c ****         get_rounded_area(start_angle, radius, width, &round_area);
 183:Drivers/lvgl/src/draw/sw/lv_draw_sw_arc.c ****         round_area.x1 += center->x;
 184:Drivers/lvgl/src/draw/sw/lv_draw_sw_arc.c ****         round_area.x2 += center->x;
 185:Drivers/lvgl/src/draw/sw/lv_draw_sw_arc.c ****         round_area.y1 += center->y;
 186:Drivers/lvgl/src/draw/sw/lv_draw_sw_arc.c ****         round_area.y2 += center->y;
 187:Drivers/lvgl/src/draw/sw/lv_draw_sw_arc.c ****         lv_area_t clip_area2;
 188:Drivers/lvgl/src/draw/sw/lv_draw_sw_arc.c ****         if(_lv_area_intersect(&clip_area2, clip_area_ori, &round_area)) {
 189:Drivers/lvgl/src/draw/sw/lv_draw_sw_arc.c ****             lv_draw_mask_radius_init(&mask_end_param, &round_area, LV_RADIUS_CIRCLE, false);
 190:Drivers/lvgl/src/draw/sw/lv_draw_sw_arc.c ****             int16_t mask_end_id = lv_draw_mask_add(&mask_end_param, NULL);
 191:Drivers/lvgl/src/draw/sw/lv_draw_sw_arc.c **** 
 192:Drivers/lvgl/src/draw/sw/lv_draw_sw_arc.c ****             draw_ctx->clip_area = &clip_area2;
 193:Drivers/lvgl/src/draw/sw/lv_draw_sw_arc.c ****             lv_draw_rect(draw_ctx, &cir_dsc, &area_out);
 194:Drivers/lvgl/src/draw/sw/lv_draw_sw_arc.c ****             lv_draw_mask_remove_id(mask_end_id);
 195:Drivers/lvgl/src/draw/sw/lv_draw_sw_arc.c ****             lv_draw_mask_free_param(&mask_end_param);
 196:Drivers/lvgl/src/draw/sw/lv_draw_sw_arc.c ****         }
 197:Drivers/lvgl/src/draw/sw/lv_draw_sw_arc.c **** 
 198:Drivers/lvgl/src/draw/sw/lv_draw_sw_arc.c ****         get_rounded_area(end_angle, radius, width, &round_area);
 199:Drivers/lvgl/src/draw/sw/lv_draw_sw_arc.c ****         round_area.x1 += center->x;
 200:Drivers/lvgl/src/draw/sw/lv_draw_sw_arc.c ****         round_area.x2 += center->x;
ARM GAS  /var/folders/lp/x54gwt890xv47sdkqj1k04q40000gn/T//cc8OVz70.s 			page 5


 201:Drivers/lvgl/src/draw/sw/lv_draw_sw_arc.c ****         round_area.y1 += center->y;
 202:Drivers/lvgl/src/draw/sw/lv_draw_sw_arc.c ****         round_area.y2 += center->y;
 203:Drivers/lvgl/src/draw/sw/lv_draw_sw_arc.c ****         if(_lv_area_intersect(&clip_area2, clip_area_ori, &round_area)) {
 204:Drivers/lvgl/src/draw/sw/lv_draw_sw_arc.c ****             lv_draw_mask_radius_init(&mask_end_param, &round_area, LV_RADIUS_CIRCLE, false);
 205:Drivers/lvgl/src/draw/sw/lv_draw_sw_arc.c ****             int16_t mask_end_id = lv_draw_mask_add(&mask_end_param, NULL);
 206:Drivers/lvgl/src/draw/sw/lv_draw_sw_arc.c **** 
 207:Drivers/lvgl/src/draw/sw/lv_draw_sw_arc.c ****             draw_ctx->clip_area = &clip_area2;
 208:Drivers/lvgl/src/draw/sw/lv_draw_sw_arc.c ****             lv_draw_rect(draw_ctx, &cir_dsc, &area_out);
 209:Drivers/lvgl/src/draw/sw/lv_draw_sw_arc.c ****             lv_draw_mask_remove_id(mask_end_id);
 210:Drivers/lvgl/src/draw/sw/lv_draw_sw_arc.c ****             lv_draw_mask_free_param(&mask_end_param);
 211:Drivers/lvgl/src/draw/sw/lv_draw_sw_arc.c ****         }
 212:Drivers/lvgl/src/draw/sw/lv_draw_sw_arc.c ****         draw_ctx->clip_area = clip_area_ori;
 213:Drivers/lvgl/src/draw/sw/lv_draw_sw_arc.c ****     }
 214:Drivers/lvgl/src/draw/sw/lv_draw_sw_arc.c **** #else
 215:Drivers/lvgl/src/draw/sw/lv_draw_sw_arc.c ****     LV_LOG_WARN("Can't draw arc with LV_DRAW_COMPLEX == 0");
 216:Drivers/lvgl/src/draw/sw/lv_draw_sw_arc.c ****     LV_UNUSED(center);
 217:Drivers/lvgl/src/draw/sw/lv_draw_sw_arc.c ****     LV_UNUSED(radius);
 218:Drivers/lvgl/src/draw/sw/lv_draw_sw_arc.c ****     LV_UNUSED(start_angle);
 219:Drivers/lvgl/src/draw/sw/lv_draw_sw_arc.c ****     LV_UNUSED(end_angle);
 220:Drivers/lvgl/src/draw/sw/lv_draw_sw_arc.c ****     LV_UNUSED(draw_ctx);
 221:Drivers/lvgl/src/draw/sw/lv_draw_sw_arc.c ****     LV_UNUSED(dsc);
 222:Drivers/lvgl/src/draw/sw/lv_draw_sw_arc.c **** #endif /*LV_DRAW_COMPLEX*/
 223:Drivers/lvgl/src/draw/sw/lv_draw_sw_arc.c **** }
 224:Drivers/lvgl/src/draw/sw/lv_draw_sw_arc.c **** 
 225:Drivers/lvgl/src/draw/sw/lv_draw_sw_arc.c **** /**********************
 226:Drivers/lvgl/src/draw/sw/lv_draw_sw_arc.c ****  *   STATIC FUNCTIONS
 227:Drivers/lvgl/src/draw/sw/lv_draw_sw_arc.c ****  **********************/
 228:Drivers/lvgl/src/draw/sw/lv_draw_sw_arc.c **** 
 229:Drivers/lvgl/src/draw/sw/lv_draw_sw_arc.c **** #if LV_DRAW_COMPLEX
 230:Drivers/lvgl/src/draw/sw/lv_draw_sw_arc.c **** static void draw_quarter_0(quarter_draw_dsc_t * q)
 231:Drivers/lvgl/src/draw/sw/lv_draw_sw_arc.c **** {
 232:Drivers/lvgl/src/draw/sw/lv_draw_sw_arc.c ****     const lv_area_t * clip_area_ori = q->draw_ctx->clip_area;
 233:Drivers/lvgl/src/draw/sw/lv_draw_sw_arc.c ****     lv_area_t quarter_area;
 234:Drivers/lvgl/src/draw/sw/lv_draw_sw_arc.c **** 
 235:Drivers/lvgl/src/draw/sw/lv_draw_sw_arc.c ****     if(q->start_quarter == 0 && q->end_quarter == 0 && q->start_angle < q->end_angle) {
 236:Drivers/lvgl/src/draw/sw/lv_draw_sw_arc.c ****         /*Small arc here*/
 237:Drivers/lvgl/src/draw/sw/lv_draw_sw_arc.c ****         quarter_area.y1 = q->center->y + ((lv_trigo_sin(q->start_angle) * (q->radius - q->width)) >
 238:Drivers/lvgl/src/draw/sw/lv_draw_sw_arc.c ****         quarter_area.x2 = q->center->x + ((lv_trigo_sin(q->start_angle + 90) * (q->radius)) >> LV_T
 239:Drivers/lvgl/src/draw/sw/lv_draw_sw_arc.c **** 
 240:Drivers/lvgl/src/draw/sw/lv_draw_sw_arc.c ****         quarter_area.y2 = q->center->y + ((lv_trigo_sin(q->end_angle) * q->radius) >> LV_TRIGO_SHIF
 241:Drivers/lvgl/src/draw/sw/lv_draw_sw_arc.c ****         quarter_area.x1 = q->center->x + ((lv_trigo_sin(q->end_angle + 90) * (q->radius - q->width)
 242:Drivers/lvgl/src/draw/sw/lv_draw_sw_arc.c **** 
 243:Drivers/lvgl/src/draw/sw/lv_draw_sw_arc.c ****         bool ok = _lv_area_intersect(&quarter_area, &quarter_area, clip_area_ori);
 244:Drivers/lvgl/src/draw/sw/lv_draw_sw_arc.c ****         if(ok) {
 245:Drivers/lvgl/src/draw/sw/lv_draw_sw_arc.c ****             q->draw_ctx->clip_area = &quarter_area;
 246:Drivers/lvgl/src/draw/sw/lv_draw_sw_arc.c ****             lv_draw_rect(q->draw_ctx, q->draw_dsc, q->draw_area);
 247:Drivers/lvgl/src/draw/sw/lv_draw_sw_arc.c ****         }
 248:Drivers/lvgl/src/draw/sw/lv_draw_sw_arc.c ****     }
 249:Drivers/lvgl/src/draw/sw/lv_draw_sw_arc.c ****     else if(q->start_quarter == 0 || q->end_quarter == 0) {
 250:Drivers/lvgl/src/draw/sw/lv_draw_sw_arc.c ****         /*Start and/or end arcs here*/
 251:Drivers/lvgl/src/draw/sw/lv_draw_sw_arc.c ****         if(q->start_quarter == 0) {
 252:Drivers/lvgl/src/draw/sw/lv_draw_sw_arc.c ****             quarter_area.x1 = q->center->x;
 253:Drivers/lvgl/src/draw/sw/lv_draw_sw_arc.c ****             quarter_area.y2 = q->center->y + q->radius;
 254:Drivers/lvgl/src/draw/sw/lv_draw_sw_arc.c **** 
 255:Drivers/lvgl/src/draw/sw/lv_draw_sw_arc.c ****             quarter_area.y1 = q->center->y + ((lv_trigo_sin(q->start_angle) * (q->radius - q->width
 256:Drivers/lvgl/src/draw/sw/lv_draw_sw_arc.c ****             quarter_area.x2 = q->center->x + ((lv_trigo_sin(q->start_angle + 90) * (q->radius)) >> 
 257:Drivers/lvgl/src/draw/sw/lv_draw_sw_arc.c **** 
ARM GAS  /var/folders/lp/x54gwt890xv47sdkqj1k04q40000gn/T//cc8OVz70.s 			page 6


 258:Drivers/lvgl/src/draw/sw/lv_draw_sw_arc.c ****             bool ok = _lv_area_intersect(&quarter_area, &quarter_area, clip_area_ori);
 259:Drivers/lvgl/src/draw/sw/lv_draw_sw_arc.c ****             if(ok) {
 260:Drivers/lvgl/src/draw/sw/lv_draw_sw_arc.c ****                 q->draw_ctx->clip_area = &quarter_area;
 261:Drivers/lvgl/src/draw/sw/lv_draw_sw_arc.c ****                 lv_draw_rect(q->draw_ctx, q->draw_dsc, q->draw_area);
 262:Drivers/lvgl/src/draw/sw/lv_draw_sw_arc.c ****             }
 263:Drivers/lvgl/src/draw/sw/lv_draw_sw_arc.c ****         }
 264:Drivers/lvgl/src/draw/sw/lv_draw_sw_arc.c ****         if(q->end_quarter == 0) {
 265:Drivers/lvgl/src/draw/sw/lv_draw_sw_arc.c ****             quarter_area.x2 = q->center->x + q->radius;
 266:Drivers/lvgl/src/draw/sw/lv_draw_sw_arc.c ****             quarter_area.y1 = q->center->y;
 267:Drivers/lvgl/src/draw/sw/lv_draw_sw_arc.c **** 
 268:Drivers/lvgl/src/draw/sw/lv_draw_sw_arc.c ****             quarter_area.y2 = q->center->y + ((lv_trigo_sin(q->end_angle) * q->radius) >> LV_TRIGO_
 269:Drivers/lvgl/src/draw/sw/lv_draw_sw_arc.c ****             quarter_area.x1 = q->center->x + ((lv_trigo_sin(q->end_angle + 90) * (q->radius - q->wi
 270:Drivers/lvgl/src/draw/sw/lv_draw_sw_arc.c **** 
 271:Drivers/lvgl/src/draw/sw/lv_draw_sw_arc.c ****             bool ok = _lv_area_intersect(&quarter_area, &quarter_area, clip_area_ori);
 272:Drivers/lvgl/src/draw/sw/lv_draw_sw_arc.c ****             if(ok) {
 273:Drivers/lvgl/src/draw/sw/lv_draw_sw_arc.c ****                 q->draw_ctx->clip_area = &quarter_area;
 274:Drivers/lvgl/src/draw/sw/lv_draw_sw_arc.c ****                 lv_draw_rect(q->draw_ctx, q->draw_dsc, q->draw_area);
 275:Drivers/lvgl/src/draw/sw/lv_draw_sw_arc.c ****             }
 276:Drivers/lvgl/src/draw/sw/lv_draw_sw_arc.c ****         }
 277:Drivers/lvgl/src/draw/sw/lv_draw_sw_arc.c ****     }
 278:Drivers/lvgl/src/draw/sw/lv_draw_sw_arc.c ****     else if((q->start_quarter == q->end_quarter && q->start_quarter != 0 && q->end_angle < q->start
 279:Drivers/lvgl/src/draw/sw/lv_draw_sw_arc.c ****             (q->start_quarter == 2 && q->end_quarter == 1) ||
 280:Drivers/lvgl/src/draw/sw/lv_draw_sw_arc.c ****             (q->start_quarter == 3 && q->end_quarter == 2) ||
 281:Drivers/lvgl/src/draw/sw/lv_draw_sw_arc.c ****             (q->start_quarter == 3 && q->end_quarter == 1)) {
 282:Drivers/lvgl/src/draw/sw/lv_draw_sw_arc.c ****         /*Arc crosses here*/
 283:Drivers/lvgl/src/draw/sw/lv_draw_sw_arc.c ****         quarter_area.x1 = q->center->x;
 284:Drivers/lvgl/src/draw/sw/lv_draw_sw_arc.c ****         quarter_area.y1 = q->center->y;
 285:Drivers/lvgl/src/draw/sw/lv_draw_sw_arc.c ****         quarter_area.x2 = q->center->x + q->radius;
 286:Drivers/lvgl/src/draw/sw/lv_draw_sw_arc.c ****         quarter_area.y2 = q->center->y + q->radius;
 287:Drivers/lvgl/src/draw/sw/lv_draw_sw_arc.c **** 
 288:Drivers/lvgl/src/draw/sw/lv_draw_sw_arc.c ****         bool ok = _lv_area_intersect(&quarter_area, &quarter_area, clip_area_ori);
 289:Drivers/lvgl/src/draw/sw/lv_draw_sw_arc.c ****         if(ok) {
 290:Drivers/lvgl/src/draw/sw/lv_draw_sw_arc.c ****             q->draw_ctx->clip_area = &quarter_area;
 291:Drivers/lvgl/src/draw/sw/lv_draw_sw_arc.c ****             lv_draw_rect(q->draw_ctx, q->draw_dsc, q->draw_area);
 292:Drivers/lvgl/src/draw/sw/lv_draw_sw_arc.c ****         }
 293:Drivers/lvgl/src/draw/sw/lv_draw_sw_arc.c ****     }
 294:Drivers/lvgl/src/draw/sw/lv_draw_sw_arc.c ****     q->draw_ctx->clip_area = clip_area_ori;
 295:Drivers/lvgl/src/draw/sw/lv_draw_sw_arc.c **** }
 296:Drivers/lvgl/src/draw/sw/lv_draw_sw_arc.c **** 
 297:Drivers/lvgl/src/draw/sw/lv_draw_sw_arc.c **** static void draw_quarter_1(quarter_draw_dsc_t * q)
 298:Drivers/lvgl/src/draw/sw/lv_draw_sw_arc.c **** {
 299:Drivers/lvgl/src/draw/sw/lv_draw_sw_arc.c ****     const lv_area_t * clip_area_ori = q->draw_ctx->clip_area;
 300:Drivers/lvgl/src/draw/sw/lv_draw_sw_arc.c ****     lv_area_t quarter_area;
 301:Drivers/lvgl/src/draw/sw/lv_draw_sw_arc.c **** 
 302:Drivers/lvgl/src/draw/sw/lv_draw_sw_arc.c ****     if(q->start_quarter == 1 && q->end_quarter == 1 && q->start_angle < q->end_angle) {
 303:Drivers/lvgl/src/draw/sw/lv_draw_sw_arc.c ****         /*Small arc here*/
 304:Drivers/lvgl/src/draw/sw/lv_draw_sw_arc.c ****         quarter_area.y2 = q->center->y + ((lv_trigo_sin(q->start_angle) * (q->radius)) >> LV_TRIGO_
 305:Drivers/lvgl/src/draw/sw/lv_draw_sw_arc.c ****         quarter_area.x2 = q->center->x + ((lv_trigo_sin(q->start_angle + 90) * (q->radius - q->widt
 306:Drivers/lvgl/src/draw/sw/lv_draw_sw_arc.c **** 
 307:Drivers/lvgl/src/draw/sw/lv_draw_sw_arc.c ****         quarter_area.y1 = q->center->y + ((lv_trigo_sin(q->end_angle) * (q->radius - q->width)) >> 
 308:Drivers/lvgl/src/draw/sw/lv_draw_sw_arc.c ****         quarter_area.x1 = q->center->x + ((lv_trigo_sin(q->end_angle + 90) * (q->radius)) >> LV_TRI
 309:Drivers/lvgl/src/draw/sw/lv_draw_sw_arc.c **** 
 310:Drivers/lvgl/src/draw/sw/lv_draw_sw_arc.c ****         bool ok = _lv_area_intersect(&quarter_area, &quarter_area, clip_area_ori);
 311:Drivers/lvgl/src/draw/sw/lv_draw_sw_arc.c ****         if(ok) {
 312:Drivers/lvgl/src/draw/sw/lv_draw_sw_arc.c ****             q->draw_ctx->clip_area = &quarter_area;
 313:Drivers/lvgl/src/draw/sw/lv_draw_sw_arc.c ****             lv_draw_rect(q->draw_ctx, q->draw_dsc, q->draw_area);
 314:Drivers/lvgl/src/draw/sw/lv_draw_sw_arc.c ****         }
ARM GAS  /var/folders/lp/x54gwt890xv47sdkqj1k04q40000gn/T//cc8OVz70.s 			page 7


 315:Drivers/lvgl/src/draw/sw/lv_draw_sw_arc.c ****     }
 316:Drivers/lvgl/src/draw/sw/lv_draw_sw_arc.c ****     else if(q->start_quarter == 1 || q->end_quarter == 1) {
 317:Drivers/lvgl/src/draw/sw/lv_draw_sw_arc.c ****         /*Start and/or end arcs here*/
 318:Drivers/lvgl/src/draw/sw/lv_draw_sw_arc.c ****         if(q->start_quarter == 1) {
 319:Drivers/lvgl/src/draw/sw/lv_draw_sw_arc.c ****             quarter_area.x1 = q->center->x - q->radius;
 320:Drivers/lvgl/src/draw/sw/lv_draw_sw_arc.c ****             quarter_area.y1 = q->center->y;
 321:Drivers/lvgl/src/draw/sw/lv_draw_sw_arc.c **** 
 322:Drivers/lvgl/src/draw/sw/lv_draw_sw_arc.c ****             quarter_area.y2 = q->center->y + ((lv_trigo_sin(q->start_angle) * (q->radius)) >> LV_TR
 323:Drivers/lvgl/src/draw/sw/lv_draw_sw_arc.c ****             quarter_area.x2 = q->center->x + ((lv_trigo_sin(q->start_angle + 90) * (q->radius - q->
 324:Drivers/lvgl/src/draw/sw/lv_draw_sw_arc.c **** 
 325:Drivers/lvgl/src/draw/sw/lv_draw_sw_arc.c ****             bool ok = _lv_area_intersect(&quarter_area, &quarter_area, clip_area_ori);
 326:Drivers/lvgl/src/draw/sw/lv_draw_sw_arc.c ****             if(ok) {
 327:Drivers/lvgl/src/draw/sw/lv_draw_sw_arc.c ****                 q->draw_ctx->clip_area = &quarter_area;
 328:Drivers/lvgl/src/draw/sw/lv_draw_sw_arc.c ****                 lv_draw_rect(q->draw_ctx, q->draw_dsc, q->draw_area);
 329:Drivers/lvgl/src/draw/sw/lv_draw_sw_arc.c ****             }
 330:Drivers/lvgl/src/draw/sw/lv_draw_sw_arc.c ****         }
 331:Drivers/lvgl/src/draw/sw/lv_draw_sw_arc.c ****         if(q->end_quarter == 1) {
 332:Drivers/lvgl/src/draw/sw/lv_draw_sw_arc.c ****             quarter_area.x2 = q->center->x - 1;
 333:Drivers/lvgl/src/draw/sw/lv_draw_sw_arc.c ****             quarter_area.y2 = q->center->y + q->radius;
 334:Drivers/lvgl/src/draw/sw/lv_draw_sw_arc.c **** 
 335:Drivers/lvgl/src/draw/sw/lv_draw_sw_arc.c ****             quarter_area.y1 = q->center->y + ((lv_trigo_sin(q->end_angle) * (q->radius - q->width))
 336:Drivers/lvgl/src/draw/sw/lv_draw_sw_arc.c ****             quarter_area.x1 = q->center->x + ((lv_trigo_sin(q->end_angle + 90) * (q->radius)) >> LV
 337:Drivers/lvgl/src/draw/sw/lv_draw_sw_arc.c **** 
 338:Drivers/lvgl/src/draw/sw/lv_draw_sw_arc.c ****             bool ok = _lv_area_intersect(&quarter_area, &quarter_area, clip_area_ori);
 339:Drivers/lvgl/src/draw/sw/lv_draw_sw_arc.c ****             if(ok) {
 340:Drivers/lvgl/src/draw/sw/lv_draw_sw_arc.c ****                 q->draw_ctx->clip_area = &quarter_area;
 341:Drivers/lvgl/src/draw/sw/lv_draw_sw_arc.c ****                 lv_draw_rect(q->draw_ctx, q->draw_dsc, q->draw_area);
 342:Drivers/lvgl/src/draw/sw/lv_draw_sw_arc.c ****             }
 343:Drivers/lvgl/src/draw/sw/lv_draw_sw_arc.c ****         }
 344:Drivers/lvgl/src/draw/sw/lv_draw_sw_arc.c ****     }
 345:Drivers/lvgl/src/draw/sw/lv_draw_sw_arc.c ****     else if((q->start_quarter == q->end_quarter && q->start_quarter != 1 && q->end_angle < q->start
 346:Drivers/lvgl/src/draw/sw/lv_draw_sw_arc.c ****             (q->start_quarter == 0 && q->end_quarter == 2) ||
 347:Drivers/lvgl/src/draw/sw/lv_draw_sw_arc.c ****             (q->start_quarter == 0 && q->end_quarter == 3) ||
 348:Drivers/lvgl/src/draw/sw/lv_draw_sw_arc.c ****             (q->start_quarter == 3 && q->end_quarter == 2)) {
 349:Drivers/lvgl/src/draw/sw/lv_draw_sw_arc.c ****         /*Arc crosses here*/
 350:Drivers/lvgl/src/draw/sw/lv_draw_sw_arc.c ****         quarter_area.x1 = q->center->x - q->radius;
 351:Drivers/lvgl/src/draw/sw/lv_draw_sw_arc.c ****         quarter_area.y1 = q->center->y;
 352:Drivers/lvgl/src/draw/sw/lv_draw_sw_arc.c ****         quarter_area.x2 = q->center->x - 1;
 353:Drivers/lvgl/src/draw/sw/lv_draw_sw_arc.c ****         quarter_area.y2 = q->center->y + q->radius;
 354:Drivers/lvgl/src/draw/sw/lv_draw_sw_arc.c **** 
 355:Drivers/lvgl/src/draw/sw/lv_draw_sw_arc.c ****         bool ok = _lv_area_intersect(&quarter_area, &quarter_area, clip_area_ori);
 356:Drivers/lvgl/src/draw/sw/lv_draw_sw_arc.c ****         if(ok) {
 357:Drivers/lvgl/src/draw/sw/lv_draw_sw_arc.c ****             q->draw_ctx->clip_area = &quarter_area;
 358:Drivers/lvgl/src/draw/sw/lv_draw_sw_arc.c ****             lv_draw_rect(q->draw_ctx, q->draw_dsc, q->draw_area);
 359:Drivers/lvgl/src/draw/sw/lv_draw_sw_arc.c ****         }
 360:Drivers/lvgl/src/draw/sw/lv_draw_sw_arc.c ****     }
 361:Drivers/lvgl/src/draw/sw/lv_draw_sw_arc.c ****     q->draw_ctx->clip_area = clip_area_ori;
 362:Drivers/lvgl/src/draw/sw/lv_draw_sw_arc.c **** }
 363:Drivers/lvgl/src/draw/sw/lv_draw_sw_arc.c **** 
 364:Drivers/lvgl/src/draw/sw/lv_draw_sw_arc.c **** static void draw_quarter_2(quarter_draw_dsc_t * q)
 365:Drivers/lvgl/src/draw/sw/lv_draw_sw_arc.c **** {
 366:Drivers/lvgl/src/draw/sw/lv_draw_sw_arc.c ****     const lv_area_t * clip_area_ori = q->draw_ctx->clip_area;
 367:Drivers/lvgl/src/draw/sw/lv_draw_sw_arc.c ****     lv_area_t quarter_area;
 368:Drivers/lvgl/src/draw/sw/lv_draw_sw_arc.c **** 
 369:Drivers/lvgl/src/draw/sw/lv_draw_sw_arc.c ****     if(q->start_quarter == 2 && q->end_quarter == 2 && q->start_angle < q->end_angle) {
 370:Drivers/lvgl/src/draw/sw/lv_draw_sw_arc.c ****         /*Small arc here*/
 371:Drivers/lvgl/src/draw/sw/lv_draw_sw_arc.c ****         quarter_area.x1 = q->center->x + ((lv_trigo_sin(q->start_angle + 90) * (q->radius)) >> LV_T
ARM GAS  /var/folders/lp/x54gwt890xv47sdkqj1k04q40000gn/T//cc8OVz70.s 			page 8


 372:Drivers/lvgl/src/draw/sw/lv_draw_sw_arc.c ****         quarter_area.y2 = q->center->y + ((lv_trigo_sin(q->start_angle) * (q->radius - q->width)) >
 373:Drivers/lvgl/src/draw/sw/lv_draw_sw_arc.c **** 
 374:Drivers/lvgl/src/draw/sw/lv_draw_sw_arc.c ****         quarter_area.y1 = q->center->y + ((lv_trigo_sin(q->end_angle) * q->radius) >> LV_TRIGO_SHIF
 375:Drivers/lvgl/src/draw/sw/lv_draw_sw_arc.c ****         quarter_area.x2 = q->center->x + ((lv_trigo_sin(q->end_angle + 90) * (q->radius - q->width)
 376:Drivers/lvgl/src/draw/sw/lv_draw_sw_arc.c **** 
 377:Drivers/lvgl/src/draw/sw/lv_draw_sw_arc.c ****         bool ok = _lv_area_intersect(&quarter_area, &quarter_area, clip_area_ori);
 378:Drivers/lvgl/src/draw/sw/lv_draw_sw_arc.c ****         if(ok) {
 379:Drivers/lvgl/src/draw/sw/lv_draw_sw_arc.c ****             q->draw_ctx->clip_area = &quarter_area;
 380:Drivers/lvgl/src/draw/sw/lv_draw_sw_arc.c ****             lv_draw_rect(q->draw_ctx, q->draw_dsc, q->draw_area);
 381:Drivers/lvgl/src/draw/sw/lv_draw_sw_arc.c ****         }
 382:Drivers/lvgl/src/draw/sw/lv_draw_sw_arc.c ****     }
 383:Drivers/lvgl/src/draw/sw/lv_draw_sw_arc.c ****     else if(q->start_quarter == 2 || q->end_quarter == 2) {
 384:Drivers/lvgl/src/draw/sw/lv_draw_sw_arc.c ****         /*Start and/or end arcs here*/
 385:Drivers/lvgl/src/draw/sw/lv_draw_sw_arc.c ****         if(q->start_quarter == 2) {
 386:Drivers/lvgl/src/draw/sw/lv_draw_sw_arc.c ****             quarter_area.x2 = q->center->x - 1;
 387:Drivers/lvgl/src/draw/sw/lv_draw_sw_arc.c ****             quarter_area.y1 = q->center->y - q->radius;
 388:Drivers/lvgl/src/draw/sw/lv_draw_sw_arc.c **** 
 389:Drivers/lvgl/src/draw/sw/lv_draw_sw_arc.c ****             quarter_area.x1 = q->center->x + ((lv_trigo_sin(q->start_angle + 90) * (q->radius)) >> 
 390:Drivers/lvgl/src/draw/sw/lv_draw_sw_arc.c ****             quarter_area.y2 = q->center->y + ((lv_trigo_sin(q->start_angle) * (q->radius - q->width
 391:Drivers/lvgl/src/draw/sw/lv_draw_sw_arc.c **** 
 392:Drivers/lvgl/src/draw/sw/lv_draw_sw_arc.c ****             bool ok = _lv_area_intersect(&quarter_area, &quarter_area, clip_area_ori);
 393:Drivers/lvgl/src/draw/sw/lv_draw_sw_arc.c ****             if(ok) {
 394:Drivers/lvgl/src/draw/sw/lv_draw_sw_arc.c ****                 q->draw_ctx->clip_area = &quarter_area;
 395:Drivers/lvgl/src/draw/sw/lv_draw_sw_arc.c ****                 lv_draw_rect(q->draw_ctx, q->draw_dsc, q->draw_area);
 396:Drivers/lvgl/src/draw/sw/lv_draw_sw_arc.c ****             }
 397:Drivers/lvgl/src/draw/sw/lv_draw_sw_arc.c ****         }
 398:Drivers/lvgl/src/draw/sw/lv_draw_sw_arc.c ****         if(q->end_quarter == 2) {
 399:Drivers/lvgl/src/draw/sw/lv_draw_sw_arc.c ****             quarter_area.x1 = q->center->x - q->radius;
 400:Drivers/lvgl/src/draw/sw/lv_draw_sw_arc.c ****             quarter_area.y2 = q->center->y - 1;
 401:Drivers/lvgl/src/draw/sw/lv_draw_sw_arc.c **** 
 402:Drivers/lvgl/src/draw/sw/lv_draw_sw_arc.c ****             quarter_area.x2 = q->center->x + ((lv_trigo_sin(q->end_angle + 90) * (q->radius - q->wi
 403:Drivers/lvgl/src/draw/sw/lv_draw_sw_arc.c ****             quarter_area.y1 = q->center->y + ((lv_trigo_sin(q->end_angle) * (q->radius)) >> LV_TRIG
 404:Drivers/lvgl/src/draw/sw/lv_draw_sw_arc.c **** 
 405:Drivers/lvgl/src/draw/sw/lv_draw_sw_arc.c ****             bool ok = _lv_area_intersect(&quarter_area, &quarter_area, clip_area_ori);
 406:Drivers/lvgl/src/draw/sw/lv_draw_sw_arc.c ****             if(ok) {
 407:Drivers/lvgl/src/draw/sw/lv_draw_sw_arc.c ****                 q->draw_ctx->clip_area = &quarter_area;
 408:Drivers/lvgl/src/draw/sw/lv_draw_sw_arc.c ****                 lv_draw_rect(q->draw_ctx, q->draw_dsc, q->draw_area);
 409:Drivers/lvgl/src/draw/sw/lv_draw_sw_arc.c ****             }
 410:Drivers/lvgl/src/draw/sw/lv_draw_sw_arc.c ****         }
 411:Drivers/lvgl/src/draw/sw/lv_draw_sw_arc.c ****     }
 412:Drivers/lvgl/src/draw/sw/lv_draw_sw_arc.c ****     else if((q->start_quarter == q->end_quarter && q->start_quarter != 2 && q->end_angle < q->start
 413:Drivers/lvgl/src/draw/sw/lv_draw_sw_arc.c ****             (q->start_quarter == 0 && q->end_quarter == 3) ||
 414:Drivers/lvgl/src/draw/sw/lv_draw_sw_arc.c ****             (q->start_quarter == 1 && q->end_quarter == 3) ||
 415:Drivers/lvgl/src/draw/sw/lv_draw_sw_arc.c ****             (q->start_quarter == 1 && q->end_quarter == 0)) {
 416:Drivers/lvgl/src/draw/sw/lv_draw_sw_arc.c ****         /*Arc crosses here*/
 417:Drivers/lvgl/src/draw/sw/lv_draw_sw_arc.c ****         quarter_area.x1 = q->center->x - q->radius;
 418:Drivers/lvgl/src/draw/sw/lv_draw_sw_arc.c ****         quarter_area.y1 = q->center->y - q->radius;
 419:Drivers/lvgl/src/draw/sw/lv_draw_sw_arc.c ****         quarter_area.x2 = q->center->x - 1;
 420:Drivers/lvgl/src/draw/sw/lv_draw_sw_arc.c ****         quarter_area.y2 = q->center->y - 1;
 421:Drivers/lvgl/src/draw/sw/lv_draw_sw_arc.c **** 
 422:Drivers/lvgl/src/draw/sw/lv_draw_sw_arc.c ****         bool ok = _lv_area_intersect(&quarter_area, &quarter_area, clip_area_ori);
 423:Drivers/lvgl/src/draw/sw/lv_draw_sw_arc.c ****         if(ok) {
 424:Drivers/lvgl/src/draw/sw/lv_draw_sw_arc.c ****             q->draw_ctx->clip_area = &quarter_area;
 425:Drivers/lvgl/src/draw/sw/lv_draw_sw_arc.c ****             lv_draw_rect(q->draw_ctx, q->draw_dsc, q->draw_area);
 426:Drivers/lvgl/src/draw/sw/lv_draw_sw_arc.c ****         }
 427:Drivers/lvgl/src/draw/sw/lv_draw_sw_arc.c ****     }
 428:Drivers/lvgl/src/draw/sw/lv_draw_sw_arc.c ****     q->draw_ctx->clip_area = clip_area_ori;
ARM GAS  /var/folders/lp/x54gwt890xv47sdkqj1k04q40000gn/T//cc8OVz70.s 			page 9


 429:Drivers/lvgl/src/draw/sw/lv_draw_sw_arc.c **** }
 430:Drivers/lvgl/src/draw/sw/lv_draw_sw_arc.c **** 
 431:Drivers/lvgl/src/draw/sw/lv_draw_sw_arc.c **** static void draw_quarter_3(quarter_draw_dsc_t * q)
 432:Drivers/lvgl/src/draw/sw/lv_draw_sw_arc.c **** {
 433:Drivers/lvgl/src/draw/sw/lv_draw_sw_arc.c ****     const lv_area_t * clip_area_ori = q->draw_ctx->clip_area;
 434:Drivers/lvgl/src/draw/sw/lv_draw_sw_arc.c ****     lv_area_t quarter_area;
 435:Drivers/lvgl/src/draw/sw/lv_draw_sw_arc.c **** 
 436:Drivers/lvgl/src/draw/sw/lv_draw_sw_arc.c ****     if(q->start_quarter == 3 && q->end_quarter == 3 && q->start_angle < q->end_angle) {
 437:Drivers/lvgl/src/draw/sw/lv_draw_sw_arc.c ****         /*Small arc here*/
 438:Drivers/lvgl/src/draw/sw/lv_draw_sw_arc.c ****         quarter_area.x1 = q->center->x + ((lv_trigo_sin(q->start_angle + 90) * (q->radius - q->widt
 439:Drivers/lvgl/src/draw/sw/lv_draw_sw_arc.c ****         quarter_area.y1 = q->center->y + ((lv_trigo_sin(q->start_angle) * (q->radius)) >> LV_TRIGO_
 440:Drivers/lvgl/src/draw/sw/lv_draw_sw_arc.c **** 
 441:Drivers/lvgl/src/draw/sw/lv_draw_sw_arc.c ****         quarter_area.x2 = q->center->x + ((lv_trigo_sin(q->end_angle + 90) * (q->radius)) >> LV_TRI
 442:Drivers/lvgl/src/draw/sw/lv_draw_sw_arc.c ****         quarter_area.y2 = q->center->y + ((lv_trigo_sin(q->end_angle) * (q->radius - q->width)) >> 
 443:Drivers/lvgl/src/draw/sw/lv_draw_sw_arc.c **** 
 444:Drivers/lvgl/src/draw/sw/lv_draw_sw_arc.c ****         bool ok = _lv_area_intersect(&quarter_area, &quarter_area, clip_area_ori);
 445:Drivers/lvgl/src/draw/sw/lv_draw_sw_arc.c ****         if(ok) {
 446:Drivers/lvgl/src/draw/sw/lv_draw_sw_arc.c ****             q->draw_ctx->clip_area = &quarter_area;
 447:Drivers/lvgl/src/draw/sw/lv_draw_sw_arc.c ****             lv_draw_rect(q->draw_ctx, q->draw_dsc, q->draw_area);
 448:Drivers/lvgl/src/draw/sw/lv_draw_sw_arc.c ****         }
 449:Drivers/lvgl/src/draw/sw/lv_draw_sw_arc.c ****     }
 450:Drivers/lvgl/src/draw/sw/lv_draw_sw_arc.c ****     else if(q->start_quarter == 3 || q->end_quarter == 3) {
 451:Drivers/lvgl/src/draw/sw/lv_draw_sw_arc.c ****         /*Start and/or end arcs here*/
 452:Drivers/lvgl/src/draw/sw/lv_draw_sw_arc.c ****         if(q->start_quarter == 3) {
 453:Drivers/lvgl/src/draw/sw/lv_draw_sw_arc.c ****             quarter_area.x2 = q->center->x + q->radius;
 454:Drivers/lvgl/src/draw/sw/lv_draw_sw_arc.c ****             quarter_area.y2 = q->center->y - 1;
 455:Drivers/lvgl/src/draw/sw/lv_draw_sw_arc.c **** 
 456:Drivers/lvgl/src/draw/sw/lv_draw_sw_arc.c ****             quarter_area.x1 = q->center->x + ((lv_trigo_sin(q->start_angle + 90) * (q->radius - q->
 457:Drivers/lvgl/src/draw/sw/lv_draw_sw_arc.c ****             quarter_area.y1 = q->center->y + ((lv_trigo_sin(q->start_angle) * (q->radius)) >> LV_TR
 458:Drivers/lvgl/src/draw/sw/lv_draw_sw_arc.c **** 
 459:Drivers/lvgl/src/draw/sw/lv_draw_sw_arc.c ****             bool ok = _lv_area_intersect(&quarter_area, &quarter_area, clip_area_ori);
 460:Drivers/lvgl/src/draw/sw/lv_draw_sw_arc.c ****             if(ok) {
 461:Drivers/lvgl/src/draw/sw/lv_draw_sw_arc.c ****                 q->draw_ctx->clip_area = &quarter_area;
 462:Drivers/lvgl/src/draw/sw/lv_draw_sw_arc.c ****                 lv_draw_rect(q->draw_ctx, q->draw_dsc, q->draw_area);
 463:Drivers/lvgl/src/draw/sw/lv_draw_sw_arc.c ****             }
 464:Drivers/lvgl/src/draw/sw/lv_draw_sw_arc.c ****         }
 465:Drivers/lvgl/src/draw/sw/lv_draw_sw_arc.c ****         if(q->end_quarter == 3) {
 466:Drivers/lvgl/src/draw/sw/lv_draw_sw_arc.c ****             quarter_area.x1 = q->center->x;
 467:Drivers/lvgl/src/draw/sw/lv_draw_sw_arc.c ****             quarter_area.y1 = q->center->y - q->radius;
 468:Drivers/lvgl/src/draw/sw/lv_draw_sw_arc.c **** 
 469:Drivers/lvgl/src/draw/sw/lv_draw_sw_arc.c ****             quarter_area.x2 = q->center->x + ((lv_trigo_sin(q->end_angle + 90) * (q->radius)) >> LV
 470:Drivers/lvgl/src/draw/sw/lv_draw_sw_arc.c ****             quarter_area.y2 = q->center->y + ((lv_trigo_sin(q->end_angle) * (q->radius - q->width))
 471:Drivers/lvgl/src/draw/sw/lv_draw_sw_arc.c **** 
 472:Drivers/lvgl/src/draw/sw/lv_draw_sw_arc.c ****             bool ok = _lv_area_intersect(&quarter_area, &quarter_area, clip_area_ori);
 473:Drivers/lvgl/src/draw/sw/lv_draw_sw_arc.c ****             if(ok) {
 474:Drivers/lvgl/src/draw/sw/lv_draw_sw_arc.c ****                 q->draw_ctx->clip_area = &quarter_area;
 475:Drivers/lvgl/src/draw/sw/lv_draw_sw_arc.c ****                 lv_draw_rect(q->draw_ctx, q->draw_dsc, q->draw_area);
 476:Drivers/lvgl/src/draw/sw/lv_draw_sw_arc.c ****             }
 477:Drivers/lvgl/src/draw/sw/lv_draw_sw_arc.c ****         }
 478:Drivers/lvgl/src/draw/sw/lv_draw_sw_arc.c ****     }
 479:Drivers/lvgl/src/draw/sw/lv_draw_sw_arc.c ****     else if((q->start_quarter == q->end_quarter && q->start_quarter != 3 && q->end_angle < q->start
 480:Drivers/lvgl/src/draw/sw/lv_draw_sw_arc.c ****             (q->start_quarter == 2 && q->end_quarter == 0) ||
 481:Drivers/lvgl/src/draw/sw/lv_draw_sw_arc.c ****             (q->start_quarter == 1 && q->end_quarter == 0) ||
 482:Drivers/lvgl/src/draw/sw/lv_draw_sw_arc.c ****             (q->start_quarter == 2 && q->end_quarter == 1)) {
 483:Drivers/lvgl/src/draw/sw/lv_draw_sw_arc.c ****         /*Arc crosses here*/
 484:Drivers/lvgl/src/draw/sw/lv_draw_sw_arc.c ****         quarter_area.x1 = q->center->x;
 485:Drivers/lvgl/src/draw/sw/lv_draw_sw_arc.c ****         quarter_area.y1 = q->center->y - q->radius;
ARM GAS  /var/folders/lp/x54gwt890xv47sdkqj1k04q40000gn/T//cc8OVz70.s 			page 10


 486:Drivers/lvgl/src/draw/sw/lv_draw_sw_arc.c ****         quarter_area.x2 = q->center->x + q->radius;
 487:Drivers/lvgl/src/draw/sw/lv_draw_sw_arc.c ****         quarter_area.y2 = q->center->y - 1;
 488:Drivers/lvgl/src/draw/sw/lv_draw_sw_arc.c **** 
 489:Drivers/lvgl/src/draw/sw/lv_draw_sw_arc.c ****         bool ok = _lv_area_intersect(&quarter_area, &quarter_area, clip_area_ori);
 490:Drivers/lvgl/src/draw/sw/lv_draw_sw_arc.c ****         if(ok) {
 491:Drivers/lvgl/src/draw/sw/lv_draw_sw_arc.c ****             q->draw_ctx->clip_area = &quarter_area;
 492:Drivers/lvgl/src/draw/sw/lv_draw_sw_arc.c ****             lv_draw_rect(q->draw_ctx, q->draw_dsc, q->draw_area);
 493:Drivers/lvgl/src/draw/sw/lv_draw_sw_arc.c ****         }
 494:Drivers/lvgl/src/draw/sw/lv_draw_sw_arc.c ****     }
 495:Drivers/lvgl/src/draw/sw/lv_draw_sw_arc.c **** 
 496:Drivers/lvgl/src/draw/sw/lv_draw_sw_arc.c ****     q->draw_ctx->clip_area = clip_area_ori;
 497:Drivers/lvgl/src/draw/sw/lv_draw_sw_arc.c **** }
 498:Drivers/lvgl/src/draw/sw/lv_draw_sw_arc.c **** 
 499:Drivers/lvgl/src/draw/sw/lv_draw_sw_arc.c **** static void get_rounded_area(int16_t angle, lv_coord_t radius, uint8_t thickness, lv_area_t * res_a
 500:Drivers/lvgl/src/draw/sw/lv_draw_sw_arc.c **** {
  30              		.loc 1 500 1 view -0
  31              		.cfi_startproc
  32              		@ args = 0, pretend = 0, frame = 0
  33              		@ frame_needed = 0, uses_anonymous_args = 0
 501:Drivers/lvgl/src/draw/sw/lv_draw_sw_arc.c ****     const uint8_t ps = 8;
  34              		.loc 1 501 5 view .LVU1
 502:Drivers/lvgl/src/draw/sw/lv_draw_sw_arc.c ****     const uint8_t pa = 127;
  35              		.loc 1 502 5 view .LVU2
 503:Drivers/lvgl/src/draw/sw/lv_draw_sw_arc.c **** 
 504:Drivers/lvgl/src/draw/sw/lv_draw_sw_arc.c ****     int32_t thick_half = thickness / 2;
  36              		.loc 1 504 5 view .LVU3
 500:Drivers/lvgl/src/draw/sw/lv_draw_sw_arc.c ****     const uint8_t ps = 8;
  37              		.loc 1 500 1 is_stmt 0 view .LVU4
  38 0000 2DE9F843 		push	{r3, r4, r5, r6, r7, r8, r9, lr}
  39              		.cfi_def_cfa_offset 32
  40              		.cfi_offset 3, -32
  41              		.cfi_offset 4, -28
  42              		.cfi_offset 5, -24
  43              		.cfi_offset 6, -20
  44              		.cfi_offset 7, -16
  45              		.cfi_offset 8, -12
  46              		.cfi_offset 9, -8
  47              		.cfi_offset 14, -4
 500:Drivers/lvgl/src/draw/sw/lv_draw_sw_arc.c ****     const uint8_t ps = 8;
  48              		.loc 1 500 1 view .LVU5
  49 0004 8146     		mov	r9, r0
 505:Drivers/lvgl/src/draw/sw/lv_draw_sw_arc.c ****     uint8_t thick_corr = (thickness & 0x01) ? 0 : 1;
 506:Drivers/lvgl/src/draw/sw/lv_draw_sw_arc.c **** 
 507:Drivers/lvgl/src/draw/sw/lv_draw_sw_arc.c ****     int32_t cir_x;
 508:Drivers/lvgl/src/draw/sw/lv_draw_sw_arc.c ****     int32_t cir_y;
 509:Drivers/lvgl/src/draw/sw/lv_draw_sw_arc.c **** 
 510:Drivers/lvgl/src/draw/sw/lv_draw_sw_arc.c ****     cir_x = ((radius - thick_half) * lv_trigo_sin(90 - angle)) >> (LV_TRIGO_SHIFT - ps);
  50              		.loc 1 510 54 view .LVU6
  51 0006 C0F15A00 		rsb	r0, r0, #90
  52              	.LVL1:
  53              		.loc 1 510 38 view .LVU7
  54 000a 00B2     		sxth	r0, r0
  55              		.loc 1 510 22 view .LVU8
  56 000c A1EB5208 		sub	r8, r1, r2, lsr #1
 500:Drivers/lvgl/src/draw/sw/lv_draw_sw_arc.c ****     const uint8_t ps = 8;
  57              		.loc 1 500 1 view .LVU9
  58 0010 1746     		mov	r7, r2
ARM GAS  /var/folders/lp/x54gwt890xv47sdkqj1k04q40000gn/T//cc8OVz70.s 			page 11


 504:Drivers/lvgl/src/draw/sw/lv_draw_sw_arc.c ****     uint8_t thick_corr = (thickness & 0x01) ? 0 : 1;
  59              		.loc 1 504 36 view .LVU10
  60 0012 5608     		lsrs	r6, r2, #1
  61              	.LVL2:
 505:Drivers/lvgl/src/draw/sw/lv_draw_sw_arc.c ****     uint8_t thick_corr = (thickness & 0x01) ? 0 : 1;
  62              		.loc 1 505 5 is_stmt 1 view .LVU11
 507:Drivers/lvgl/src/draw/sw/lv_draw_sw_arc.c ****     int32_t cir_y;
  63              		.loc 1 507 5 view .LVU12
 508:Drivers/lvgl/src/draw/sw/lv_draw_sw_arc.c **** 
  64              		.loc 1 508 5 view .LVU13
  65              		.loc 1 510 5 view .LVU14
 500:Drivers/lvgl/src/draw/sw/lv_draw_sw_arc.c ****     const uint8_t ps = 8;
  66              		.loc 1 500 1 is_stmt 0 view .LVU15
  67 0014 1D46     		mov	r5, r3
  68              		.loc 1 510 38 view .LVU16
  69 0016 FFF7FEFF 		bl	lv_trigo_sin
  70              	.LVL3:
  71              		.loc 1 510 36 discriminator 1 view .LVU17
  72 001a 08FB00F4 		mul	r4, r8, r0
 511:Drivers/lvgl/src/draw/sw/lv_draw_sw_arc.c ****     cir_y = ((radius - thick_half) * lv_trigo_sin(angle)) >> (LV_TRIGO_SHIFT - ps);
  73              		.loc 1 511 38 view .LVU18
  74 001e 4846     		mov	r0, r9
  75 0020 FFF7FEFF 		bl	lv_trigo_sin
  76              	.LVL4:
 510:Drivers/lvgl/src/draw/sw/lv_draw_sw_arc.c ****     cir_y = ((radius - thick_half) * lv_trigo_sin(angle)) >> (LV_TRIGO_SHIFT - ps);
  77              		.loc 1 510 11 discriminator 1 view .LVU19
  78 0024 E411     		asrs	r4, r4, #7
  79              	.LVL5:
  80              		.loc 1 511 5 is_stmt 1 view .LVU20
  81              		.loc 1 511 36 is_stmt 0 discriminator 1 view .LVU21
  82 0026 08FB00F1 		mul	r1, r8, r0
 512:Drivers/lvgl/src/draw/sw/lv_draw_sw_arc.c **** 
 513:Drivers/lvgl/src/draw/sw/lv_draw_sw_arc.c ****     /*Actually the center of the pixel need to be calculated so apply 1/2 px offset*/
 514:Drivers/lvgl/src/draw/sw/lv_draw_sw_arc.c ****     if(cir_x > 0) {
 515:Drivers/lvgl/src/draw/sw/lv_draw_sw_arc.c ****         cir_x = (cir_x - pa) >> ps;
 516:Drivers/lvgl/src/draw/sw/lv_draw_sw_arc.c ****         res_area->x1 = cir_x - thick_half + thick_corr;
  83              		.loc 1 516 43 view .LVU22
  84 002a FA43     		mvns	r2, r7
 514:Drivers/lvgl/src/draw/sw/lv_draw_sw_arc.c ****         cir_x = (cir_x - pa) >> ps;
  85              		.loc 1 514 7 view .LVU23
  86 002c 002C     		cmp	r4, #0
 511:Drivers/lvgl/src/draw/sw/lv_draw_sw_arc.c **** 
  87              		.loc 1 511 11 discriminator 1 view .LVU24
  88 002e 4FEAE111 		asr	r1, r1, #7
  89              	.LVL6:
 514:Drivers/lvgl/src/draw/sw/lv_draw_sw_arc.c ****         cir_x = (cir_x - pa) >> ps;
  90              		.loc 1 514 5 is_stmt 1 view .LVU25
  91              		.loc 1 516 43 is_stmt 0 view .LVU26
  92 0032 02F00102 		and	r2, r2, #1
 514:Drivers/lvgl/src/draw/sw/lv_draw_sw_arc.c ****         cir_x = (cir_x - pa) >> ps;
  93              		.loc 1 514 7 view .LVU27
  94 0036 17DD     		ble	.L2
 515:Drivers/lvgl/src/draw/sw/lv_draw_sw_arc.c ****         res_area->x1 = cir_x - thick_half + thick_corr;
  95              		.loc 1 515 9 is_stmt 1 view .LVU28
 515:Drivers/lvgl/src/draw/sw/lv_draw_sw_arc.c ****         res_area->x1 = cir_x - thick_half + thick_corr;
  96              		.loc 1 515 24 is_stmt 0 view .LVU29
  97 0038 7F3C     		subs	r4, r4, #127
ARM GAS  /var/folders/lp/x54gwt890xv47sdkqj1k04q40000gn/T//cc8OVz70.s 			page 12


  98              	.LVL7:
  99              		.loc 1 516 9 is_stmt 1 view .LVU30
 100              		.loc 1 516 30 is_stmt 0 view .LVU31
 101 003a C4F30F24 		ubfx	r4, r4, #8, #16
 102              	.LVL8:
 103              		.loc 1 516 43 view .LVU32
 104 003e 931B     		subs	r3, r2, r6
 105 0040 2344     		add	r3, r3, r4
 517:Drivers/lvgl/src/draw/sw/lv_draw_sw_arc.c ****         res_area->x2 = cir_x + thick_half;
 106              		.loc 1 517 30 view .LVU33
 107 0042 3444     		add	r4, r4, r6
 516:Drivers/lvgl/src/draw/sw/lv_draw_sw_arc.c ****         res_area->x2 = cir_x + thick_half;
 108              		.loc 1 516 43 view .LVU34
 109 0044 1BB2     		sxth	r3, r3
 110              		.loc 1 517 9 is_stmt 1 view .LVU35
 111              		.loc 1 517 30 is_stmt 0 view .LVU36
 112 0046 24B2     		sxth	r4, r4
 518:Drivers/lvgl/src/draw/sw/lv_draw_sw_arc.c ****     }
 519:Drivers/lvgl/src/draw/sw/lv_draw_sw_arc.c ****     else {
 520:Drivers/lvgl/src/draw/sw/lv_draw_sw_arc.c ****         cir_x = (cir_x + pa) >> ps;
 521:Drivers/lvgl/src/draw/sw/lv_draw_sw_arc.c ****         res_area->x1 = cir_x - thick_half;
 522:Drivers/lvgl/src/draw/sw/lv_draw_sw_arc.c ****         res_area->x2 = cir_x + thick_half - thick_corr;
 523:Drivers/lvgl/src/draw/sw/lv_draw_sw_arc.c ****     }
 524:Drivers/lvgl/src/draw/sw/lv_draw_sw_arc.c **** 
 525:Drivers/lvgl/src/draw/sw/lv_draw_sw_arc.c ****     if(cir_y > 0) {
 113              		.loc 1 525 7 view .LVU37
 114 0048 0029     		cmp	r1, #0
 115 004a AC80     		strh	r4, [r5, #4]	@ movhi
 116 004c 2B80     		strh	r3, [r5]	@ movhi
 117              		.loc 1 525 5 is_stmt 1 view .LVU38
 118              		.loc 1 525 7 is_stmt 0 view .LVU39
 119 004e 17DD     		ble	.L4
 120              	.LVL9:
 121              	.L8:
 526:Drivers/lvgl/src/draw/sw/lv_draw_sw_arc.c ****         cir_y = (cir_y - pa) >> ps;
 122              		.loc 1 526 9 is_stmt 1 view .LVU40
 123              		.loc 1 526 24 is_stmt 0 view .LVU41
 124 0050 7F39     		subs	r1, r1, #127
 125              	.LVL10:
 527:Drivers/lvgl/src/draw/sw/lv_draw_sw_arc.c ****         res_area->y1 = cir_y - thick_half + thick_corr;
 126              		.loc 1 527 9 is_stmt 1 view .LVU42
 127              		.loc 1 527 30 is_stmt 0 view .LVU43
 128 0052 C1F30F21 		ubfx	r1, r1, #8, #16
 129              	.LVL11:
 130              		.loc 1 527 43 view .LVU44
 131 0056 921B     		subs	r2, r2, r6
 132 0058 0A44     		add	r2, r2, r1
 528:Drivers/lvgl/src/draw/sw/lv_draw_sw_arc.c ****         res_area->y2 = cir_y + thick_half;
 133              		.loc 1 528 30 view .LVU45
 134 005a 3144     		add	r1, r1, r6
 527:Drivers/lvgl/src/draw/sw/lv_draw_sw_arc.c ****         res_area->y1 = cir_y - thick_half + thick_corr;
 135              		.loc 1 527 43 view .LVU46
 136 005c 12B2     		sxth	r2, r2
 137              		.loc 1 528 9 is_stmt 1 view .LVU47
 138              		.loc 1 528 30 is_stmt 0 view .LVU48
 139 005e 09B2     		sxth	r1, r1
 140 0060 E980     		strh	r1, [r5, #6]	@ movhi
ARM GAS  /var/folders/lp/x54gwt890xv47sdkqj1k04q40000gn/T//cc8OVz70.s 			page 13


 141 0062 6A80     		strh	r2, [r5, #2]	@ movhi
 529:Drivers/lvgl/src/draw/sw/lv_draw_sw_arc.c ****     }
 530:Drivers/lvgl/src/draw/sw/lv_draw_sw_arc.c ****     else {
 531:Drivers/lvgl/src/draw/sw/lv_draw_sw_arc.c ****         cir_y = (cir_y + pa) >> ps;
 532:Drivers/lvgl/src/draw/sw/lv_draw_sw_arc.c ****         res_area->y1 = cir_y - thick_half;
 533:Drivers/lvgl/src/draw/sw/lv_draw_sw_arc.c ****         res_area->y2 = cir_y + thick_half - thick_corr;
 534:Drivers/lvgl/src/draw/sw/lv_draw_sw_arc.c ****     }
 535:Drivers/lvgl/src/draw/sw/lv_draw_sw_arc.c **** }
 142              		.loc 1 535 1 view .LVU49
 143 0064 BDE8F883 		pop	{r3, r4, r5, r6, r7, r8, r9, pc}
 144              	.LVL12:
 145              	.L2:
 520:Drivers/lvgl/src/draw/sw/lv_draw_sw_arc.c ****         res_area->x1 = cir_x - thick_half;
 146              		.loc 1 520 9 is_stmt 1 view .LVU50
 520:Drivers/lvgl/src/draw/sw/lv_draw_sw_arc.c ****         res_area->x1 = cir_x - thick_half;
 147              		.loc 1 520 24 is_stmt 0 view .LVU51
 148 0068 7F34     		adds	r4, r4, #127
 149              	.LVL13:
 521:Drivers/lvgl/src/draw/sw/lv_draw_sw_arc.c ****         res_area->x2 = cir_x + thick_half - thick_corr;
 150              		.loc 1 521 9 is_stmt 1 view .LVU52
 521:Drivers/lvgl/src/draw/sw/lv_draw_sw_arc.c ****         res_area->x2 = cir_x + thick_half - thick_corr;
 151              		.loc 1 521 30 is_stmt 0 view .LVU53
 152 006a C4F30F24 		ubfx	r4, r4, #8, #16
 153              	.LVL14:
 522:Drivers/lvgl/src/draw/sw/lv_draw_sw_arc.c ****     }
 154              		.loc 1 522 43 view .LVU54
 155 006e B01A     		subs	r0, r6, r2
 156 0070 2044     		add	r0, r0, r4
 521:Drivers/lvgl/src/draw/sw/lv_draw_sw_arc.c ****         res_area->x2 = cir_x + thick_half - thick_corr;
 157              		.loc 1 521 30 view .LVU55
 158 0072 A41B     		subs	r4, r4, r6
 159 0074 23B2     		sxth	r3, r4
 522:Drivers/lvgl/src/draw/sw/lv_draw_sw_arc.c ****     }
 160              		.loc 1 522 9 is_stmt 1 view .LVU56
 525:Drivers/lvgl/src/draw/sw/lv_draw_sw_arc.c ****         cir_y = (cir_y - pa) >> ps;
 161              		.loc 1 525 7 is_stmt 0 view .LVU57
 162 0076 0029     		cmp	r1, #0
 522:Drivers/lvgl/src/draw/sw/lv_draw_sw_arc.c ****     }
 163              		.loc 1 522 43 view .LVU58
 164 0078 04B2     		sxth	r4, r0
 165 007a AC80     		strh	r4, [r5, #4]	@ movhi
 166 007c 2B80     		strh	r3, [r5]	@ movhi
 525:Drivers/lvgl/src/draw/sw/lv_draw_sw_arc.c ****         cir_y = (cir_y - pa) >> ps;
 167              		.loc 1 525 5 is_stmt 1 view .LVU59
 525:Drivers/lvgl/src/draw/sw/lv_draw_sw_arc.c ****         cir_y = (cir_y - pa) >> ps;
 168              		.loc 1 525 7 is_stmt 0 view .LVU60
 169 007e E7DC     		bgt	.L8
 170              	.LVL15:
 171              	.L4:
 531:Drivers/lvgl/src/draw/sw/lv_draw_sw_arc.c ****         res_area->y1 = cir_y - thick_half;
 172              		.loc 1 531 9 is_stmt 1 view .LVU61
 531:Drivers/lvgl/src/draw/sw/lv_draw_sw_arc.c ****         res_area->y1 = cir_y - thick_half;
 173              		.loc 1 531 24 is_stmt 0 view .LVU62
 174 0080 7F31     		adds	r1, r1, #127
 175              	.LVL16:
 532:Drivers/lvgl/src/draw/sw/lv_draw_sw_arc.c ****         res_area->y2 = cir_y + thick_half - thick_corr;
 176              		.loc 1 532 9 is_stmt 1 view .LVU63
ARM GAS  /var/folders/lp/x54gwt890xv47sdkqj1k04q40000gn/T//cc8OVz70.s 			page 14


 533:Drivers/lvgl/src/draw/sw/lv_draw_sw_arc.c ****     }
 177              		.loc 1 533 43 is_stmt 0 view .LVU64
 178 0082 B21A     		subs	r2, r6, r2
 532:Drivers/lvgl/src/draw/sw/lv_draw_sw_arc.c ****         res_area->y2 = cir_y + thick_half - thick_corr;
 179              		.loc 1 532 30 view .LVU65
 180 0084 C1F30F21 		ubfx	r1, r1, #8, #16
 181              	.LVL17:
 532:Drivers/lvgl/src/draw/sw/lv_draw_sw_arc.c ****         res_area->y2 = cir_y + thick_half - thick_corr;
 182              		.loc 1 532 30 view .LVU66
 183 0088 8E1B     		subs	r6, r1, r6
 184              	.LVL18:
 533:Drivers/lvgl/src/draw/sw/lv_draw_sw_arc.c ****     }
 185              		.loc 1 533 43 view .LVU67
 186 008a 1144     		add	r1, r1, r2
 187 008c 09B2     		sxth	r1, r1
 532:Drivers/lvgl/src/draw/sw/lv_draw_sw_arc.c ****         res_area->y2 = cir_y + thick_half - thick_corr;
 188              		.loc 1 532 30 view .LVU68
 189 008e 32B2     		sxth	r2, r6
 533:Drivers/lvgl/src/draw/sw/lv_draw_sw_arc.c ****     }
 190              		.loc 1 533 9 is_stmt 1 view .LVU69
 191 0090 E980     		strh	r1, [r5, #6]	@ movhi
 192 0092 6A80     		strh	r2, [r5, #2]	@ movhi
 193              		.loc 1 535 1 is_stmt 0 view .LVU70
 194 0094 BDE8F883 		pop	{r3, r4, r5, r6, r7, r8, r9, pc}
 195              		.loc 1 535 1 view .LVU71
 196              		.cfi_endproc
 197              	.LFE61:
 199              		.section	.text.lv_draw_sw_arc,"ax",%progbits
 200              		.align	1
 201              		.p2align 2,,3
 202              		.global	lv_draw_sw_arc
 203              		.syntax unified
 204              		.thumb
 205              		.thumb_func
 207              	lv_draw_sw_arc:
 208              	.LVL19:
 209              	.LFB56:
  62:Drivers/lvgl/src/draw/sw/lv_draw_sw_arc.c **** #if LV_DRAW_COMPLEX
 210              		.loc 1 62 1 is_stmt 1 view -0
 211              		.cfi_startproc
 212              		@ args = 8, pretend = 0, frame = 328
 213              		@ frame_needed = 0, uses_anonymous_args = 0
  64:Drivers/lvgl/src/draw/sw/lv_draw_sw_arc.c ****     if(dsc->width == 0) return;
 214              		.loc 1 64 5 view .LVU73
  62:Drivers/lvgl/src/draw/sw/lv_draw_sw_arc.c **** #if LV_DRAW_COMPLEX
 215              		.loc 1 62 1 is_stmt 0 view .LVU74
 216 0000 2DE9F04F 		push	{r4, r5, r6, r7, r8, r9, r10, fp, lr}
 217              		.cfi_def_cfa_offset 36
 218              		.cfi_offset 4, -36
 219              		.cfi_offset 5, -32
 220              		.cfi_offset 6, -28
 221              		.cfi_offset 7, -24
 222              		.cfi_offset 8, -20
 223              		.cfi_offset 9, -16
 224              		.cfi_offset 10, -12
 225              		.cfi_offset 11, -8
 226              		.cfi_offset 14, -4
ARM GAS  /var/folders/lp/x54gwt890xv47sdkqj1k04q40000gn/T//cc8OVz70.s 			page 15


 227 0004 1F46     		mov	r7, r3
  64:Drivers/lvgl/src/draw/sw/lv_draw_sw_arc.c ****     if(dsc->width == 0) return;
 228              		.loc 1 64 7 view .LVU75
 229 0006 0B7B     		ldrb	r3, [r1, #12]	@ zero_extendqisi2
 230              	.LVL20:
  62:Drivers/lvgl/src/draw/sw/lv_draw_sw_arc.c **** #if LV_DRAW_COMPLEX
 231              		.loc 1 62 1 view .LVU76
 232 0008 D5B0     		sub	sp, sp, #340
 233              		.cfi_def_cfa_offset 376
  64:Drivers/lvgl/src/draw/sw/lv_draw_sw_arc.c ****     if(dsc->width == 0) return;
 234              		.loc 1 64 7 view .LVU77
 235 000a 022B     		cmp	r3, #2
  62:Drivers/lvgl/src/draw/sw/lv_draw_sw_arc.c **** #if LV_DRAW_COMPLEX
 236              		.loc 1 62 1 view .LVU78
 237 000c BDF87841 		ldrh	r4, [sp, #376]
 238 0010 BDF87C51 		ldrh	r5, [sp, #380]
 239 0014 0290     		str	r0, [sp, #8]
  64:Drivers/lvgl/src/draw/sw/lv_draw_sw_arc.c ****     if(dsc->width == 0) return;
 240              		.loc 1 64 7 view .LVU79
 241 0016 40F21B81 		bls	.L9
  65:Drivers/lvgl/src/draw/sw/lv_draw_sw_arc.c ****     if(start_angle == end_angle) return;
 242              		.loc 1 65 5 is_stmt 1 view .LVU80
  65:Drivers/lvgl/src/draw/sw/lv_draw_sw_arc.c ****     if(start_angle == end_angle) return;
 243              		.loc 1 65 11 is_stmt 0 view .LVU81
 244 001a B1F90290 		ldrsh	r9, [r1, #2]
 245 001e 0E46     		mov	r6, r1
  65:Drivers/lvgl/src/draw/sw/lv_draw_sw_arc.c ****     if(start_angle == end_angle) return;
 246              		.loc 1 65 7 view .LVU82
 247 0020 B9F1000F 		cmp	r9, #0
 248 0024 00F01481 		beq	.L9
  66:Drivers/lvgl/src/draw/sw/lv_draw_sw_arc.c **** 
 249              		.loc 1 66 5 is_stmt 1 view .LVU83
  66:Drivers/lvgl/src/draw/sw/lv_draw_sw_arc.c **** 
 250              		.loc 1 66 7 is_stmt 0 view .LVU84
 251 0028 AC42     		cmp	r4, r5
 252 002a 00F01181 		beq	.L9
  69:Drivers/lvgl/src/draw/sw/lv_draw_sw_arc.c **** 
 253              		.loc 1 69 7 view .LVU85
 254 002e B945     		cmp	r9, r7
  72:Drivers/lvgl/src/draw/sw/lv_draw_sw_arc.c ****     cir_dsc.blend_mode = dsc->blend_mode;
 255              		.loc 1 72 5 view .LVU86
 256 0030 2BA8     		add	r0, sp, #172
 257              	.LVL21:
  72:Drivers/lvgl/src/draw/sw/lv_draw_sw_arc.c ****     cir_dsc.blend_mode = dsc->blend_mode;
 258              		.loc 1 72 5 view .LVU87
 259 0032 9046     		mov	r8, r2
  68:Drivers/lvgl/src/draw/sw/lv_draw_sw_arc.c ****     if(width > radius) width = radius;
 260              		.loc 1 68 5 is_stmt 1 view .LVU88
 261              	.LVL22:
  69:Drivers/lvgl/src/draw/sw/lv_draw_sw_arc.c **** 
 262              		.loc 1 69 5 view .LVU89
  69:Drivers/lvgl/src/draw/sw/lv_draw_sw_arc.c **** 
 263              		.loc 1 69 24 discriminator 1 view .LVU90
  69:Drivers/lvgl/src/draw/sw/lv_draw_sw_arc.c **** 
 264              		.loc 1 69 30 is_stmt 0 discriminator 1 view .LVU91
 265 0034 C8BF     		it	gt
 266 0036 0FFA87F9 		sxthgt	r9, r7
ARM GAS  /var/folders/lp/x54gwt890xv47sdkqj1k04q40000gn/T//cc8OVz70.s 			page 16


 267              	.LVL23:
  71:Drivers/lvgl/src/draw/sw/lv_draw_sw_arc.c ****     lv_draw_rect_dsc_init(&cir_dsc);
 268              		.loc 1 71 5 is_stmt 1 view .LVU92
  72:Drivers/lvgl/src/draw/sw/lv_draw_sw_arc.c ****     cir_dsc.blend_mode = dsc->blend_mode;
 269              		.loc 1 72 5 view .LVU93
 270 003a FFF7FEFF 		bl	lv_draw_rect_dsc_init
 271              	.LVL24:
  73:Drivers/lvgl/src/draw/sw/lv_draw_sw_arc.c ****     if(dsc->img_src) {
 272              		.loc 1 73 5 view .LVU94
  73:Drivers/lvgl/src/draw/sw/lv_draw_sw_arc.c ****     if(dsc->img_src) {
 273              		.loc 1 73 29 is_stmt 0 view .LVU95
 274 003e 737B     		ldrb	r3, [r6, #13]	@ zero_extendqisi2
 275 0040 C3F30103 		ubfx	r3, r3, #0, #2
  73:Drivers/lvgl/src/draw/sw/lv_draw_sw_arc.c ****     if(dsc->img_src) {
 276              		.loc 1 73 24 view .LVU96
 277 0044 8DF8AE30 		strb	r3, [sp, #174]
  74:Drivers/lvgl/src/draw/sw/lv_draw_sw_arc.c ****         cir_dsc.bg_opa = LV_OPA_TRANSP;
 278              		.loc 1 74 5 is_stmt 1 view .LVU97
  74:Drivers/lvgl/src/draw/sw/lv_draw_sw_arc.c ****         cir_dsc.bg_opa = LV_OPA_TRANSP;
 279              		.loc 1 74 11 is_stmt 0 view .LVU98
 280 0048 B368     		ldr	r3, [r6, #8]
  74:Drivers/lvgl/src/draw/sw/lv_draw_sw_arc.c ****         cir_dsc.bg_opa = LV_OPA_TRANSP;
 281              		.loc 1 74 7 view .LVU99
 282 004a 002B     		cmp	r3, #0
 283 004c 00F03D81 		beq	.L12
  75:Drivers/lvgl/src/draw/sw/lv_draw_sw_arc.c ****         cir_dsc.bg_img_src = dsc->img_src;
 284              		.loc 1 75 9 is_stmt 1 view .LVU100
  76:Drivers/lvgl/src/draw/sw/lv_draw_sw_arc.c ****         cir_dsc.bg_img_opa = dsc->opa;
 285              		.loc 1 76 9 view .LVU101
  76:Drivers/lvgl/src/draw/sw/lv_draw_sw_arc.c ****         cir_dsc.bg_img_opa = dsc->opa;
 286              		.loc 1 76 28 is_stmt 0 view .LVU102
 287 0050 2F93     		str	r3, [sp, #188]
  77:Drivers/lvgl/src/draw/sw/lv_draw_sw_arc.c ****     }
 288              		.loc 1 77 9 is_stmt 1 view .LVU103
  77:Drivers/lvgl/src/draw/sw/lv_draw_sw_arc.c ****     }
 289              		.loc 1 77 28 is_stmt 0 view .LVU104
 290 0052 337B     		ldrb	r3, [r6, #12]	@ zero_extendqisi2
 291 0054 8DF8C630 		strb	r3, [sp, #198]
  75:Drivers/lvgl/src/draw/sw/lv_draw_sw_arc.c ****         cir_dsc.bg_img_src = dsc->img_src;
 292              		.loc 1 75 24 view .LVU105
 293 0058 0023     		movs	r3, #0
 294              	.L13:
  85:Drivers/lvgl/src/draw/sw/lv_draw_sw_arc.c ****     area_out.y1 = center->y - radius;
 295              		.loc 1 85 25 view .LVU106
 296 005a B8F80000 		ldrh	r0, [r8]
 297 005e 8DF8AF30 		strb	r3, [sp, #175]
  84:Drivers/lvgl/src/draw/sw/lv_draw_sw_arc.c ****     area_out.x1 = center->x - radius;
 298              		.loc 1 84 5 is_stmt 1 view .LVU107
  85:Drivers/lvgl/src/draw/sw/lv_draw_sw_arc.c ****     area_out.y1 = center->y - radius;
 299              		.loc 1 85 5 view .LVU108
 300 0062 7A1E     		subs	r2, r7, #1
 301 0064 92B2     		uxth	r2, r2
  92:Drivers/lvgl/src/draw/sw/lv_draw_sw_arc.c ****     area_in.y1 += dsc->width;
 302              		.loc 1 92 22 is_stmt 0 view .LVU109
 303 0066 7388     		ldrh	r3, [r6, #2]
  86:Drivers/lvgl/src/draw/sw/lv_draw_sw_arc.c ****     area_out.x2 = center->x + radius - 1;  /*-1 because the center already belongs to the left/bott
 304              		.loc 1 86 25 view .LVU110
ARM GAS  /var/folders/lp/x54gwt890xv47sdkqj1k04q40000gn/T//cc8OVz70.s 			page 17


 305 0068 B8F80210 		ldrh	r1, [r8, #2]
  87:Drivers/lvgl/src/draw/sw/lv_draw_sw_arc.c ****     area_out.y2 = center->y + radius - 1;
 306              		.loc 1 87 38 view .LVU111
 307 006c 00EB020B 		add	fp, r0, r2
 308 0070 1FFA8BFB 		uxth	fp, fp
  85:Drivers/lvgl/src/draw/sw/lv_draw_sw_arc.c ****     area_out.y1 = center->y - radius;
 309              		.loc 1 85 29 view .LVU112
 310 0074 C01B     		subs	r0, r0, r7
 311 0076 80B2     		uxth	r0, r0
  94:Drivers/lvgl/src/draw/sw/lv_draw_sw_arc.c ****     area_in.y2 -= dsc->width;
 312              		.loc 1 94 16 view .LVU113
 313 0078 ABEB030E 		sub	lr, fp, r3
 314 007c 1FFA8EFE 		uxth	lr, lr
  92:Drivers/lvgl/src/draw/sw/lv_draw_sw_arc.c ****     area_in.y1 += dsc->width;
 315              		.loc 1 92 16 view .LVU114
 316 0080 00EB030A 		add	r10, r0, r3
 317 0084 1FFA8AFA 		uxth	r10, r10
  88:Drivers/lvgl/src/draw/sw/lv_draw_sw_arc.c **** 
 318              		.loc 1 88 38 view .LVU115
 319 0088 0A44     		add	r2, r2, r1
 320              	.LBB44:
 321              	.LBB45:
 322              		.file 2 "Drivers/lvgl/src/draw/sw/../../misc/lv_area.h"
   1:Drivers/lvgl/src/draw/sw/../../misc/lv_area.h **** /**
   2:Drivers/lvgl/src/draw/sw/../../misc/lv_area.h ****  * @file lv_area.h
   3:Drivers/lvgl/src/draw/sw/../../misc/lv_area.h ****  *
   4:Drivers/lvgl/src/draw/sw/../../misc/lv_area.h ****  */
   5:Drivers/lvgl/src/draw/sw/../../misc/lv_area.h **** 
   6:Drivers/lvgl/src/draw/sw/../../misc/lv_area.h **** #ifndef LV_AREA_H
   7:Drivers/lvgl/src/draw/sw/../../misc/lv_area.h **** #define LV_AREA_H
   8:Drivers/lvgl/src/draw/sw/../../misc/lv_area.h **** 
   9:Drivers/lvgl/src/draw/sw/../../misc/lv_area.h **** #ifdef __cplusplus
  10:Drivers/lvgl/src/draw/sw/../../misc/lv_area.h **** extern "C" {
  11:Drivers/lvgl/src/draw/sw/../../misc/lv_area.h **** #endif
  12:Drivers/lvgl/src/draw/sw/../../misc/lv_area.h **** 
  13:Drivers/lvgl/src/draw/sw/../../misc/lv_area.h **** /*********************
  14:Drivers/lvgl/src/draw/sw/../../misc/lv_area.h ****  *      INCLUDES
  15:Drivers/lvgl/src/draw/sw/../../misc/lv_area.h ****  *********************/
  16:Drivers/lvgl/src/draw/sw/../../misc/lv_area.h **** #include "../lv_conf_internal.h"
  17:Drivers/lvgl/src/draw/sw/../../misc/lv_area.h **** #include <stdbool.h>
  18:Drivers/lvgl/src/draw/sw/../../misc/lv_area.h **** #include <stdint.h>
  19:Drivers/lvgl/src/draw/sw/../../misc/lv_area.h **** 
  20:Drivers/lvgl/src/draw/sw/../../misc/lv_area.h **** /*********************
  21:Drivers/lvgl/src/draw/sw/../../misc/lv_area.h ****  *      DEFINES
  22:Drivers/lvgl/src/draw/sw/../../misc/lv_area.h ****  *********************/
  23:Drivers/lvgl/src/draw/sw/../../misc/lv_area.h **** 
  24:Drivers/lvgl/src/draw/sw/../../misc/lv_area.h **** #if LV_USE_LARGE_COORD
  25:Drivers/lvgl/src/draw/sw/../../misc/lv_area.h **** typedef int32_t lv_coord_t;
  26:Drivers/lvgl/src/draw/sw/../../misc/lv_area.h **** #else
  27:Drivers/lvgl/src/draw/sw/../../misc/lv_area.h **** typedef int16_t lv_coord_t;
  28:Drivers/lvgl/src/draw/sw/../../misc/lv_area.h **** #endif
  29:Drivers/lvgl/src/draw/sw/../../misc/lv_area.h **** 
  30:Drivers/lvgl/src/draw/sw/../../misc/lv_area.h **** /**********************
  31:Drivers/lvgl/src/draw/sw/../../misc/lv_area.h ****  *      TYPEDEFS
  32:Drivers/lvgl/src/draw/sw/../../misc/lv_area.h ****  **********************/
  33:Drivers/lvgl/src/draw/sw/../../misc/lv_area.h **** 
  34:Drivers/lvgl/src/draw/sw/../../misc/lv_area.h **** /**
ARM GAS  /var/folders/lp/x54gwt890xv47sdkqj1k04q40000gn/T//cc8OVz70.s 			page 18


  35:Drivers/lvgl/src/draw/sw/../../misc/lv_area.h ****  * Represents a point on the screen.
  36:Drivers/lvgl/src/draw/sw/../../misc/lv_area.h ****  */
  37:Drivers/lvgl/src/draw/sw/../../misc/lv_area.h **** typedef struct {
  38:Drivers/lvgl/src/draw/sw/../../misc/lv_area.h ****     lv_coord_t x;
  39:Drivers/lvgl/src/draw/sw/../../misc/lv_area.h ****     lv_coord_t y;
  40:Drivers/lvgl/src/draw/sw/../../misc/lv_area.h **** } lv_point_t;
  41:Drivers/lvgl/src/draw/sw/../../misc/lv_area.h **** 
  42:Drivers/lvgl/src/draw/sw/../../misc/lv_area.h **** /** Represents an area of the screen.*/
  43:Drivers/lvgl/src/draw/sw/../../misc/lv_area.h **** typedef struct {
  44:Drivers/lvgl/src/draw/sw/../../misc/lv_area.h ****     lv_coord_t x1;
  45:Drivers/lvgl/src/draw/sw/../../misc/lv_area.h ****     lv_coord_t y1;
  46:Drivers/lvgl/src/draw/sw/../../misc/lv_area.h ****     lv_coord_t x2;
  47:Drivers/lvgl/src/draw/sw/../../misc/lv_area.h ****     lv_coord_t y2;
  48:Drivers/lvgl/src/draw/sw/../../misc/lv_area.h **** } lv_area_t;
  49:Drivers/lvgl/src/draw/sw/../../misc/lv_area.h **** 
  50:Drivers/lvgl/src/draw/sw/../../misc/lv_area.h **** /** Alignments*/
  51:Drivers/lvgl/src/draw/sw/../../misc/lv_area.h **** enum {
  52:Drivers/lvgl/src/draw/sw/../../misc/lv_area.h ****     LV_ALIGN_DEFAULT = 0,
  53:Drivers/lvgl/src/draw/sw/../../misc/lv_area.h ****     LV_ALIGN_TOP_LEFT,
  54:Drivers/lvgl/src/draw/sw/../../misc/lv_area.h ****     LV_ALIGN_TOP_MID,
  55:Drivers/lvgl/src/draw/sw/../../misc/lv_area.h ****     LV_ALIGN_TOP_RIGHT,
  56:Drivers/lvgl/src/draw/sw/../../misc/lv_area.h ****     LV_ALIGN_BOTTOM_LEFT,
  57:Drivers/lvgl/src/draw/sw/../../misc/lv_area.h ****     LV_ALIGN_BOTTOM_MID,
  58:Drivers/lvgl/src/draw/sw/../../misc/lv_area.h ****     LV_ALIGN_BOTTOM_RIGHT,
  59:Drivers/lvgl/src/draw/sw/../../misc/lv_area.h ****     LV_ALIGN_LEFT_MID,
  60:Drivers/lvgl/src/draw/sw/../../misc/lv_area.h ****     LV_ALIGN_RIGHT_MID,
  61:Drivers/lvgl/src/draw/sw/../../misc/lv_area.h ****     LV_ALIGN_CENTER,
  62:Drivers/lvgl/src/draw/sw/../../misc/lv_area.h **** 
  63:Drivers/lvgl/src/draw/sw/../../misc/lv_area.h ****     LV_ALIGN_OUT_TOP_LEFT,
  64:Drivers/lvgl/src/draw/sw/../../misc/lv_area.h ****     LV_ALIGN_OUT_TOP_MID,
  65:Drivers/lvgl/src/draw/sw/../../misc/lv_area.h ****     LV_ALIGN_OUT_TOP_RIGHT,
  66:Drivers/lvgl/src/draw/sw/../../misc/lv_area.h ****     LV_ALIGN_OUT_BOTTOM_LEFT,
  67:Drivers/lvgl/src/draw/sw/../../misc/lv_area.h ****     LV_ALIGN_OUT_BOTTOM_MID,
  68:Drivers/lvgl/src/draw/sw/../../misc/lv_area.h ****     LV_ALIGN_OUT_BOTTOM_RIGHT,
  69:Drivers/lvgl/src/draw/sw/../../misc/lv_area.h ****     LV_ALIGN_OUT_LEFT_TOP,
  70:Drivers/lvgl/src/draw/sw/../../misc/lv_area.h ****     LV_ALIGN_OUT_LEFT_MID,
  71:Drivers/lvgl/src/draw/sw/../../misc/lv_area.h ****     LV_ALIGN_OUT_LEFT_BOTTOM,
  72:Drivers/lvgl/src/draw/sw/../../misc/lv_area.h ****     LV_ALIGN_OUT_RIGHT_TOP,
  73:Drivers/lvgl/src/draw/sw/../../misc/lv_area.h ****     LV_ALIGN_OUT_RIGHT_MID,
  74:Drivers/lvgl/src/draw/sw/../../misc/lv_area.h ****     LV_ALIGN_OUT_RIGHT_BOTTOM,
  75:Drivers/lvgl/src/draw/sw/../../misc/lv_area.h **** };
  76:Drivers/lvgl/src/draw/sw/../../misc/lv_area.h **** typedef uint8_t lv_align_t;
  77:Drivers/lvgl/src/draw/sw/../../misc/lv_area.h **** 
  78:Drivers/lvgl/src/draw/sw/../../misc/lv_area.h **** enum {
  79:Drivers/lvgl/src/draw/sw/../../misc/lv_area.h ****     LV_DIR_NONE     = 0x00,
  80:Drivers/lvgl/src/draw/sw/../../misc/lv_area.h ****     LV_DIR_LEFT     = (1 << 0),
  81:Drivers/lvgl/src/draw/sw/../../misc/lv_area.h ****     LV_DIR_RIGHT    = (1 << 1),
  82:Drivers/lvgl/src/draw/sw/../../misc/lv_area.h ****     LV_DIR_TOP      = (1 << 2),
  83:Drivers/lvgl/src/draw/sw/../../misc/lv_area.h ****     LV_DIR_BOTTOM   = (1 << 3),
  84:Drivers/lvgl/src/draw/sw/../../misc/lv_area.h ****     LV_DIR_HOR      = LV_DIR_LEFT | LV_DIR_RIGHT,
  85:Drivers/lvgl/src/draw/sw/../../misc/lv_area.h ****     LV_DIR_VER      = LV_DIR_TOP | LV_DIR_BOTTOM,
  86:Drivers/lvgl/src/draw/sw/../../misc/lv_area.h ****     LV_DIR_ALL      = LV_DIR_HOR | LV_DIR_VER,
  87:Drivers/lvgl/src/draw/sw/../../misc/lv_area.h **** };
  88:Drivers/lvgl/src/draw/sw/../../misc/lv_area.h **** 
  89:Drivers/lvgl/src/draw/sw/../../misc/lv_area.h **** typedef uint8_t lv_dir_t;
  90:Drivers/lvgl/src/draw/sw/../../misc/lv_area.h **** 
  91:Drivers/lvgl/src/draw/sw/../../misc/lv_area.h **** /**********************
ARM GAS  /var/folders/lp/x54gwt890xv47sdkqj1k04q40000gn/T//cc8OVz70.s 			page 19


  92:Drivers/lvgl/src/draw/sw/../../misc/lv_area.h ****  * GLOBAL PROTOTYPES
  93:Drivers/lvgl/src/draw/sw/../../misc/lv_area.h ****  **********************/
  94:Drivers/lvgl/src/draw/sw/../../misc/lv_area.h **** 
  95:Drivers/lvgl/src/draw/sw/../../misc/lv_area.h **** /**
  96:Drivers/lvgl/src/draw/sw/../../misc/lv_area.h ****  * Initialize an area
  97:Drivers/lvgl/src/draw/sw/../../misc/lv_area.h ****  * @param area_p pointer to an area
  98:Drivers/lvgl/src/draw/sw/../../misc/lv_area.h ****  * @param x1 left coordinate of the area
  99:Drivers/lvgl/src/draw/sw/../../misc/lv_area.h ****  * @param y1 top coordinate of the area
 100:Drivers/lvgl/src/draw/sw/../../misc/lv_area.h ****  * @param x2 right coordinate of the area
 101:Drivers/lvgl/src/draw/sw/../../misc/lv_area.h ****  * @param y2 bottom coordinate of the area
 102:Drivers/lvgl/src/draw/sw/../../misc/lv_area.h ****  */
 103:Drivers/lvgl/src/draw/sw/../../misc/lv_area.h **** void lv_area_set(lv_area_t * area_p, lv_coord_t x1, lv_coord_t y1, lv_coord_t x2, lv_coord_t y2);
 104:Drivers/lvgl/src/draw/sw/../../misc/lv_area.h **** 
 105:Drivers/lvgl/src/draw/sw/../../misc/lv_area.h **** /**
 106:Drivers/lvgl/src/draw/sw/../../misc/lv_area.h ****  * Copy an area
 107:Drivers/lvgl/src/draw/sw/../../misc/lv_area.h ****  * @param dest pointer to the destination area
 108:Drivers/lvgl/src/draw/sw/../../misc/lv_area.h ****  * @param src pointer to the source area
 109:Drivers/lvgl/src/draw/sw/../../misc/lv_area.h ****  */
 110:Drivers/lvgl/src/draw/sw/../../misc/lv_area.h **** inline static void lv_area_copy(lv_area_t * dest, const lv_area_t * src)
 111:Drivers/lvgl/src/draw/sw/../../misc/lv_area.h **** {
 112:Drivers/lvgl/src/draw/sw/../../misc/lv_area.h ****     dest->x1 = src->x1;
 113:Drivers/lvgl/src/draw/sw/../../misc/lv_area.h ****     dest->y1 = src->y1;
 114:Drivers/lvgl/src/draw/sw/../../misc/lv_area.h ****     dest->x2 = src->x2;
 115:Drivers/lvgl/src/draw/sw/../../misc/lv_area.h ****     dest->y2 = src->y2;
 116:Drivers/lvgl/src/draw/sw/../../misc/lv_area.h **** }
 117:Drivers/lvgl/src/draw/sw/../../misc/lv_area.h **** 
 118:Drivers/lvgl/src/draw/sw/../../misc/lv_area.h **** /**
 119:Drivers/lvgl/src/draw/sw/../../misc/lv_area.h ****  * Get the width of an area
 120:Drivers/lvgl/src/draw/sw/../../misc/lv_area.h ****  * @param area_p pointer to an area
 121:Drivers/lvgl/src/draw/sw/../../misc/lv_area.h ****  * @return the width of the area (if x1 == x2 -> width = 1)
 122:Drivers/lvgl/src/draw/sw/../../misc/lv_area.h ****  */
 123:Drivers/lvgl/src/draw/sw/../../misc/lv_area.h **** static inline lv_coord_t lv_area_get_width(const lv_area_t * area_p)
 124:Drivers/lvgl/src/draw/sw/../../misc/lv_area.h **** {
 125:Drivers/lvgl/src/draw/sw/../../misc/lv_area.h ****     return (lv_coord_t)(area_p->x2 - area_p->x1 + 1);
 323              		.loc 2 125 49 view .LVU116
 324 008a 0EF1010C 		add	ip, lr, #1
 325              	.LBE45:
 326              	.LBE44:
  86:Drivers/lvgl/src/draw/sw/lv_draw_sw_arc.c ****     area_out.x2 = center->x + radius - 1;  /*-1 because the center already belongs to the left/bott
 327              		.loc 1 86 29 view .LVU117
 328 008e C91B     		subs	r1, r1, r7
 329 0090 89B2     		uxth	r1, r1
  88:Drivers/lvgl/src/draw/sw/lv_draw_sw_arc.c **** 
 330              		.loc 1 88 38 view .LVU118
 331 0092 92B2     		uxth	r2, r2
 332              	.LBB48:
 333              	.LBB46:
 334              		.loc 2 125 49 view .LVU119
 335 0094 ACEB0A0C 		sub	ip, ip, r10
 336              	.LBE46:
 337              	.LBE48:
 101:Drivers/lvgl/src/draw/sw/lv_draw_sw_arc.c ****         lv_draw_mask_radius_init(&mask_in_param, &area_in, LV_RADIUS_CIRCLE, true);
 338              		.loc 1 101 7 discriminator 1 view .LVU120
 339 0098 0FFA8CFC 		sxth	ip, ip
  86:Drivers/lvgl/src/draw/sw/lv_draw_sw_arc.c ****     area_out.x2 = center->x + radius - 1;  /*-1 because the center already belongs to the left/bott
 340              		.loc 1 86 17 view .LVU121
 341 009c ADF84610 		strh	r1, [sp, #70]	@ movhi
ARM GAS  /var/folders/lp/x54gwt890xv47sdkqj1k04q40000gn/T//cc8OVz70.s 			page 20


  93:Drivers/lvgl/src/draw/sw/lv_draw_sw_arc.c ****     area_in.x2 -= dsc->width;
 342              		.loc 1 93 16 view .LVU122
 343 00a0 1944     		add	r1, r1, r3
  95:Drivers/lvgl/src/draw/sw/lv_draw_sw_arc.c **** 
 344              		.loc 1 95 16 view .LVU123
 345 00a2 D31A     		subs	r3, r2, r3
  93:Drivers/lvgl/src/draw/sw/lv_draw_sw_arc.c ****     area_in.x2 -= dsc->width;
 346              		.loc 1 93 16 view .LVU124
 347 00a4 89B2     		uxth	r1, r1
  95:Drivers/lvgl/src/draw/sw/lv_draw_sw_arc.c **** 
 348              		.loc 1 95 16 view .LVU125
 349 00a6 9BB2     		uxth	r3, r3
 101:Drivers/lvgl/src/draw/sw/lv_draw_sw_arc.c ****         lv_draw_mask_radius_init(&mask_in_param, &area_in, LV_RADIUS_CIRCLE, true);
 350              		.loc 1 101 7 discriminator 1 view .LVU126
 351 00a8 BCF1000F 		cmp	ip, #0
  92:Drivers/lvgl/src/draw/sw/lv_draw_sw_arc.c ****     area_in.y1 += dsc->width;
 352              		.loc 1 92 16 view .LVU127
 353 00ac ADF84CA0 		strh	r10, [sp, #76]	@ movhi
  85:Drivers/lvgl/src/draw/sw/lv_draw_sw_arc.c ****     area_out.y1 = center->y - radius;
 354              		.loc 1 85 17 view .LVU128
 355 00b0 ADF84400 		strh	r0, [sp, #68]	@ movhi
  86:Drivers/lvgl/src/draw/sw/lv_draw_sw_arc.c ****     area_out.x2 = center->x + radius - 1;  /*-1 because the center already belongs to the left/bott
 356              		.loc 1 86 5 is_stmt 1 view .LVU129
  87:Drivers/lvgl/src/draw/sw/lv_draw_sw_arc.c ****     area_out.y2 = center->y + radius - 1;
 357              		.loc 1 87 5 view .LVU130
  88:Drivers/lvgl/src/draw/sw/lv_draw_sw_arc.c **** 
 358              		.loc 1 88 5 view .LVU131
  87:Drivers/lvgl/src/draw/sw/lv_draw_sw_arc.c ****     area_out.y2 = center->y + radius - 1;
 359              		.loc 1 87 17 is_stmt 0 view .LVU132
 360 00b4 ADF848B0 		strh	fp, [sp, #72]	@ movhi
  88:Drivers/lvgl/src/draw/sw/lv_draw_sw_arc.c **** 
 361              		.loc 1 88 17 view .LVU133
 362 00b8 ADF84A20 		strh	r2, [sp, #74]	@ movhi
  90:Drivers/lvgl/src/draw/sw/lv_draw_sw_arc.c ****     lv_area_copy(&area_in, &area_out);
 363              		.loc 1 90 5 is_stmt 1 view .LVU134
  91:Drivers/lvgl/src/draw/sw/lv_draw_sw_arc.c ****     area_in.x1 += dsc->width;
 364              		.loc 1 91 5 view .LVU135
  92:Drivers/lvgl/src/draw/sw/lv_draw_sw_arc.c ****     area_in.y1 += dsc->width;
 365              		.loc 1 92 5 view .LVU136
  93:Drivers/lvgl/src/draw/sw/lv_draw_sw_arc.c ****     area_in.x2 -= dsc->width;
 366              		.loc 1 93 5 view .LVU137
  95:Drivers/lvgl/src/draw/sw/lv_draw_sw_arc.c **** 
 367              		.loc 1 95 16 is_stmt 0 view .LVU138
 368 00bc ADF85230 		strh	r3, [sp, #82]	@ movhi
  94:Drivers/lvgl/src/draw/sw/lv_draw_sw_arc.c ****     area_in.y2 -= dsc->width;
 369              		.loc 1 94 16 view .LVU139
 370 00c0 ADF850E0 		strh	lr, [sp, #80]	@ movhi
  93:Drivers/lvgl/src/draw/sw/lv_draw_sw_arc.c ****     area_in.x2 -= dsc->width;
 371              		.loc 1 93 16 view .LVU140
 372 00c4 ADF84E10 		strh	r1, [sp, #78]	@ movhi
  94:Drivers/lvgl/src/draw/sw/lv_draw_sw_arc.c ****     area_in.y2 -= dsc->width;
 373              		.loc 1 94 5 is_stmt 1 view .LVU141
  95:Drivers/lvgl/src/draw/sw/lv_draw_sw_arc.c **** 
 374              		.loc 1 95 5 view .LVU142
  98:Drivers/lvgl/src/draw/sw/lv_draw_sw_arc.c ****     lv_draw_mask_radius_param_t mask_in_param;
 375              		.loc 1 98 5 view .LVU143
 376              	.LVL25:
ARM GAS  /var/folders/lp/x54gwt890xv47sdkqj1k04q40000gn/T//cc8OVz70.s 			page 21


  99:Drivers/lvgl/src/draw/sw/lv_draw_sw_arc.c ****     bool mask_in_param_valid = false;
 377              		.loc 1 99 5 view .LVU144
 100:Drivers/lvgl/src/draw/sw/lv_draw_sw_arc.c ****     if(lv_area_get_width(&area_in) > 0 && lv_area_get_height(&area_in) > 0) {
 378              		.loc 1 100 5 view .LVU145
 101:Drivers/lvgl/src/draw/sw/lv_draw_sw_arc.c ****         lv_draw_mask_radius_init(&mask_in_param, &area_in, LV_RADIUS_CIRCLE, true);
 379              		.loc 1 101 5 view .LVU146
 380              	.LBB49:
 381              	.LBI44:
 123:Drivers/lvgl/src/draw/sw/../../misc/lv_area.h **** {
 382              		.loc 2 123 26 view .LVU147
 383              	.LBB47:
 384              		.loc 2 125 5 view .LVU148
 385              		.loc 2 125 5 is_stmt 0 view .LVU149
 386              	.LBE47:
 387              	.LBE49:
 112:Drivers/lvgl/src/draw/sw/lv_draw_sw_arc.c ****         cir_dsc.radius = LV_RADIUS_CIRCLE;
 388              		.loc 1 112 20 view .LVU150
 389 00c8 04F5B47A 		add	r10, r4, #360
 101:Drivers/lvgl/src/draw/sw/lv_draw_sw_arc.c ****         lv_draw_mask_radius_init(&mask_in_param, &area_in, LV_RADIUS_CIRCLE, true);
 390              		.loc 1 101 7 discriminator 1 view .LVU151
 391 00cc 05DD     		ble	.L14
 392              	.LVL26:
 393              	.LBB50:
 394              	.LBI50:
 126:Drivers/lvgl/src/draw/sw/../../misc/lv_area.h **** }
 127:Drivers/lvgl/src/draw/sw/../../misc/lv_area.h **** 
 128:Drivers/lvgl/src/draw/sw/../../misc/lv_area.h **** /**
 129:Drivers/lvgl/src/draw/sw/../../misc/lv_area.h ****  * Get the height of an area
 130:Drivers/lvgl/src/draw/sw/../../misc/lv_area.h ****  * @param area_p pointer to an area
 131:Drivers/lvgl/src/draw/sw/../../misc/lv_area.h ****  * @return the height of the area (if y1 == y2 -> height = 1)
 132:Drivers/lvgl/src/draw/sw/../../misc/lv_area.h ****  */
 133:Drivers/lvgl/src/draw/sw/../../misc/lv_area.h **** static inline lv_coord_t lv_area_get_height(const lv_area_t * area_p)
 395              		.loc 2 133 26 is_stmt 1 view .LVU152
 396              	.LBB51:
 134:Drivers/lvgl/src/draw/sw/../../misc/lv_area.h **** {
 135:Drivers/lvgl/src/draw/sw/../../misc/lv_area.h ****     return (lv_coord_t)(area_p->y2 - area_p->y1 + 1);
 397              		.loc 2 135 5 view .LVU153
 398              		.loc 2 135 49 is_stmt 0 view .LVU154
 399 00ce 0133     		adds	r3, r3, #1
 400 00d0 5B1A     		subs	r3, r3, r1
 401              	.LBE51:
 402              	.LBE50:
 101:Drivers/lvgl/src/draw/sw/lv_draw_sw_arc.c ****         lv_draw_mask_radius_init(&mask_in_param, &area_in, LV_RADIUS_CIRCLE, true);
 403              		.loc 1 101 40 discriminator 1 view .LVU155
 404 00d2 1BB2     		sxth	r3, r3
 405 00d4 002B     		cmp	r3, #0
 406 00d6 00F3BE80 		bgt	.L292
 407              	.L14:
 107:Drivers/lvgl/src/draw/sw/lv_draw_sw_arc.c ****     lv_draw_mask_radius_init(&mask_out_param, &area_out, LV_RADIUS_CIRCLE, false);
 408              		.loc 1 107 5 is_stmt 1 view .LVU156
 108:Drivers/lvgl/src/draw/sw/lv_draw_sw_arc.c ****     int16_t mask_out_id = lv_draw_mask_add(&mask_out_param, NULL);
 409              		.loc 1 108 5 view .LVU157
 410 00da 0DF17C0B 		add	fp, sp, #124
 411 00de 0023     		movs	r3, #0
 412 00e0 47F6FF72 		movw	r2, #32767
 413 00e4 11A9     		add	r1, sp, #68
 414 00e6 5846     		mov	r0, fp
ARM GAS  /var/folders/lp/x54gwt890xv47sdkqj1k04q40000gn/T//cc8OVz70.s 			page 22


 415 00e8 FFF7FEFF 		bl	lv_draw_mask_radius_init
 416              	.LVL27:
 109:Drivers/lvgl/src/draw/sw/lv_draw_sw_arc.c **** 
 417              		.loc 1 109 5 view .LVU158
 109:Drivers/lvgl/src/draw/sw/lv_draw_sw_arc.c **** 
 418              		.loc 1 109 27 is_stmt 0 view .LVU159
 419 00ec 0021     		movs	r1, #0
 420 00ee 5846     		mov	r0, fp
 421 00f0 FFF7FEFF 		bl	lv_draw_mask_add
 422              	.LVL28:
 112:Drivers/lvgl/src/draw/sw/lv_draw_sw_arc.c ****         cir_dsc.radius = LV_RADIUS_CIRCLE;
 423              		.loc 1 112 7 view .LVU160
 424 00f4 5545     		cmp	r5, r10
 109:Drivers/lvgl/src/draw/sw/lv_draw_sw_arc.c **** 
 425              		.loc 1 109 27 view .LVU161
 426 00f6 0390     		str	r0, [sp, #12]
 427              	.LVL29:
 112:Drivers/lvgl/src/draw/sw/lv_draw_sw_arc.c ****         cir_dsc.radius = LV_RADIUS_CIRCLE;
 428              		.loc 1 112 5 is_stmt 1 view .LVU162
 112:Drivers/lvgl/src/draw/sw/lv_draw_sw_arc.c ****         cir_dsc.radius = LV_RADIUS_CIRCLE;
 429              		.loc 1 112 7 is_stmt 0 view .LVU163
 430 00f8 00F04F82 		beq	.L125
 112:Drivers/lvgl/src/draw/sw/lv_draw_sw_arc.c ****         cir_dsc.radius = LV_RADIUS_CIRCLE;
 431              		.loc 1 112 67 discriminator 1 view .LVU164
 432 00fc 05F5B473 		add	r3, r5, #360
 112:Drivers/lvgl/src/draw/sw/lv_draw_sw_arc.c ****         cir_dsc.radius = LV_RADIUS_CIRCLE;
 433              		.loc 1 112 39 discriminator 1 view .LVU165
 434 0100 A342     		cmp	r3, r4
 435 0102 00F04A82 		beq	.L125
 436 0106 0023     		movs	r3, #0
 437 0108 0693     		str	r3, [sp, #24]
 438 010a 4FF0FF33 		mov	r3, #-1
 439 010e 0493     		str	r3, [sp, #16]
 440 0110 02E0     		b	.L266
 441              	.LVL30:
 442              	.L17:
 127:Drivers/lvgl/src/draw/sw/lv_draw_sw_arc.c ****     while(end_angle >= 360) end_angle -= 360;
 443              		.loc 1 127 31 is_stmt 1 discriminator 2 view .LVU166
 127:Drivers/lvgl/src/draw/sw/lv_draw_sw_arc.c ****     while(end_angle >= 360) end_angle -= 360;
 444              		.loc 1 127 43 is_stmt 0 discriminator 2 view .LVU167
 445 0112 A4F5B474 		sub	r4, r4, #360
 446              	.LVL31:
 127:Drivers/lvgl/src/draw/sw/lv_draw_sw_arc.c ****     while(end_angle >= 360) end_angle -= 360;
 447              		.loc 1 127 43 discriminator 2 view .LVU168
 448 0116 A4B2     		uxth	r4, r4
 449              	.LVL32:
 450              	.L266:
 127:Drivers/lvgl/src/draw/sw/lv_draw_sw_arc.c ****     while(end_angle >= 360) end_angle -= 360;
 451              		.loc 1 127 23 is_stmt 1 discriminator 1 view .LVU169
 452 0118 B4F5B47F 		cmp	r4, #360
 453 011c F9D2     		bcs	.L17
 454              	.LVL33:
 128:Drivers/lvgl/src/draw/sw/lv_draw_sw_arc.c **** 
 455              		.loc 1 128 21 discriminator 1 view .LVU170
 456 011e B5F5B47F 		cmp	r5, #360
 457 0122 05D3     		bcc	.L293
 458              	.L23:
ARM GAS  /var/folders/lp/x54gwt890xv47sdkqj1k04q40000gn/T//cc8OVz70.s 			page 23


 128:Drivers/lvgl/src/draw/sw/lv_draw_sw_arc.c **** 
 459              		.loc 1 128 29 discriminator 2 view .LVU171
 128:Drivers/lvgl/src/draw/sw/lv_draw_sw_arc.c **** 
 460              		.loc 1 128 39 is_stmt 0 discriminator 2 view .LVU172
 461 0124 A5F5B475 		sub	r5, r5, #360
 462              	.LVL34:
 128:Drivers/lvgl/src/draw/sw/lv_draw_sw_arc.c **** 
 463              		.loc 1 128 39 discriminator 2 view .LVU173
 464 0128 ADB2     		uxth	r5, r5
 465              	.LVL35:
 128:Drivers/lvgl/src/draw/sw/lv_draw_sw_arc.c **** 
 466              		.loc 1 128 21 is_stmt 1 discriminator 1 view .LVU174
 467 012a B5F5B47F 		cmp	r5, #360
 468 012e F9D2     		bcs	.L23
 469              	.L293:
 130:Drivers/lvgl/src/draw/sw/lv_draw_sw_arc.c ****     lv_draw_mask_angle_init(&mask_angle_param, center->x, center->y, start_angle, end_angle);
 470              		.loc 1 130 5 view .LVU175
 131:Drivers/lvgl/src/draw/sw/lv_draw_sw_arc.c ****     int16_t mask_angle_id = lv_draw_mask_add(&mask_angle_param, NULL);
 471              		.loc 1 131 5 view .LVU176
 472 0130 2AB2     		sxth	r2, r5
 473 0132 0092     		str	r2, [sp]
 474 0134 23B2     		sxth	r3, r4
 475 0136 B8F90010 		ldrsh	r1, [r8]
 476 013a 0792     		str	r2, [sp, #28]
 477 013c 39A8     		add	r0, sp, #228
 478 013e B8F90220 		ldrsh	r2, [r8, #2]
 479 0142 0893     		str	r3, [sp, #32]
 480 0144 FFF7FEFF 		bl	lv_draw_mask_angle_init
 481              	.LVL36:
 132:Drivers/lvgl/src/draw/sw/lv_draw_sw_arc.c **** 
 482              		.loc 1 132 5 view .LVU177
 132:Drivers/lvgl/src/draw/sw/lv_draw_sw_arc.c **** 
 483              		.loc 1 132 29 is_stmt 0 view .LVU178
 484 0148 0021     		movs	r1, #0
 485 014a 39A8     		add	r0, sp, #228
 486 014c FFF7FEFF 		bl	lv_draw_mask_add
 487              	.LVL37:
 135:Drivers/lvgl/src/draw/sw/lv_draw_sw_arc.c ****         angle_gap = 360 - (end_angle - start_angle);
 488              		.loc 1 135 7 view .LVU179
 489 0150 AC42     		cmp	r4, r5
 136:Drivers/lvgl/src/draw/sw/lv_draw_sw_arc.c ****     }
 490              		.loc 1 136 38 view .LVU180
 491 0152 38BF     		it	cc
 492 0154 2B1B     		subcc	r3, r5, r4
 142:Drivers/lvgl/src/draw/sw/lv_draw_sw_arc.c **** 
 493              		.loc 1 142 23 view .LVU181
 494 0156 029A     		ldr	r2, [sp, #8]
 132:Drivers/lvgl/src/draw/sw/lv_draw_sw_arc.c **** 
 495              		.loc 1 132 29 view .LVU182
 496 0158 0590     		str	r0, [sp, #20]
 497              	.LVL38:
 134:Drivers/lvgl/src/draw/sw/lv_draw_sw_arc.c ****     if(end_angle > start_angle) {
 498              		.loc 1 134 5 is_stmt 1 view .LVU183
 135:Drivers/lvgl/src/draw/sw/lv_draw_sw_arc.c ****         angle_gap = 360 - (end_angle - start_angle);
 499              		.loc 1 135 5 view .LVU184
 136:Drivers/lvgl/src/draw/sw/lv_draw_sw_arc.c ****     }
 500              		.loc 1 136 9 view .LVU185
ARM GAS  /var/folders/lp/x54gwt890xv47sdkqj1k04q40000gn/T//cc8OVz70.s 			page 24


 136:Drivers/lvgl/src/draw/sw/lv_draw_sw_arc.c ****     }
 501              		.loc 1 136 19 is_stmt 0 view .LVU186
 502 015a 34BF     		ite	cc
 503 015c C3F5B473 		rsbcc	r3, r3, #360
 504              	.LVL39:
 139:Drivers/lvgl/src/draw/sw/lv_draw_sw_arc.c ****     }
 505              		.loc 1 139 9 is_stmt 1 view .LVU187
 139:Drivers/lvgl/src/draw/sw/lv_draw_sw_arc.c ****     }
 506              		.loc 1 139 19 is_stmt 0 view .LVU188
 507 0160 631B     		subcs	r3, r4, r5
 508              	.LVL40:
 142:Drivers/lvgl/src/draw/sw/lv_draw_sw_arc.c **** 
 509              		.loc 1 142 5 is_stmt 1 view .LVU189
 144:Drivers/lvgl/src/draw/sw/lv_draw_sw_arc.c ****         /*Handle each quarter individually and skip which is empty*/
 510              		.loc 1 144 7 is_stmt 0 view .LVU190
 511 0162 3C2B     		cmp	r3, #60
 142:Drivers/lvgl/src/draw/sw/lv_draw_sw_arc.c **** 
 512              		.loc 1 142 23 view .LVU191
 513 0164 D2F808A0 		ldr	r10, [r2, #8]
 514              	.LVL41:
 144:Drivers/lvgl/src/draw/sw/lv_draw_sw_arc.c ****         /*Handle each quarter individually and skip which is empty*/
 515              		.loc 1 144 5 is_stmt 1 view .LVU192
 144:Drivers/lvgl/src/draw/sw/lv_draw_sw_arc.c ****         /*Handle each quarter individually and skip which is empty*/
 516              		.loc 1 144 7 is_stmt 0 view .LVU193
 517 0168 02DD     		ble	.L26
 144:Drivers/lvgl/src/draw/sw/lv_draw_sw_arc.c ****         /*Handle each quarter individually and skip which is empty*/
 518              		.loc 1 144 42 discriminator 1 view .LVU194
 519 016a 0A2F     		cmp	r7, #10
 520 016c 00F2B680 		bhi	.L294
 521              	.L26:
 164:Drivers/lvgl/src/draw/sw/lv_draw_sw_arc.c ****     }
 522              		.loc 1 164 9 is_stmt 1 view .LVU195
 523 0170 0298     		ldr	r0, [sp, #8]
 524 0172 11AA     		add	r2, sp, #68
 525 0174 2BA9     		add	r1, sp, #172
 526 0176 FFF7FEFF 		bl	lv_draw_rect
 527              	.LVL42:
 528              	.L113:
 167:Drivers/lvgl/src/draw/sw/lv_draw_sw_arc.c ****     lv_draw_mask_free_param(&mask_out_param);
 529              		.loc 1 167 5 view .LVU196
 530 017a 39A8     		add	r0, sp, #228
 531 017c FFF7FEFF 		bl	lv_draw_mask_free_param
 532              	.LVL43:
 168:Drivers/lvgl/src/draw/sw/lv_draw_sw_arc.c ****     if(mask_in_param_valid) {
 533              		.loc 1 168 5 view .LVU197
 534 0180 5846     		mov	r0, fp
 535 0182 FFF7FEFF 		bl	lv_draw_mask_free_param
 536              	.LVL44:
 169:Drivers/lvgl/src/draw/sw/lv_draw_sw_arc.c ****         lv_draw_mask_free_param(&mask_in_param);
 537              		.loc 1 169 5 view .LVU198
 169:Drivers/lvgl/src/draw/sw/lv_draw_sw_arc.c ****         lv_draw_mask_free_param(&mask_in_param);
 538              		.loc 1 169 7 is_stmt 0 view .LVU199
 539 0186 069B     		ldr	r3, [sp, #24]
 540 0188 002B     		cmp	r3, #0
 541 018a 40F0A380 		bne	.L295
 542              	.L114:
 173:Drivers/lvgl/src/draw/sw/lv_draw_sw_arc.c ****     lv_draw_mask_remove_id(mask_out_id);
ARM GAS  /var/folders/lp/x54gwt890xv47sdkqj1k04q40000gn/T//cc8OVz70.s 			page 25


 543              		.loc 1 173 5 is_stmt 1 view .LVU200
 544 018e 0598     		ldr	r0, [sp, #20]
 545 0190 FFF7FEFF 		bl	lv_draw_mask_remove_id
 546              	.LVL45:
 174:Drivers/lvgl/src/draw/sw/lv_draw_sw_arc.c ****     if(mask_in_id != LV_MASK_ID_INV) lv_draw_mask_remove_id(mask_in_id);
 547              		.loc 1 174 5 view .LVU201
 548 0194 0398     		ldr	r0, [sp, #12]
 549 0196 FFF7FEFF 		bl	lv_draw_mask_remove_id
 550              	.LVL46:
 175:Drivers/lvgl/src/draw/sw/lv_draw_sw_arc.c **** 
 551              		.loc 1 175 5 view .LVU202
 175:Drivers/lvgl/src/draw/sw/lv_draw_sw_arc.c **** 
 552              		.loc 1 175 7 is_stmt 0 view .LVU203
 553 019a 049B     		ldr	r3, [sp, #16]
 554 019c 581C     		adds	r0, r3, #1
 555 019e 02D0     		beq	.L115
 175:Drivers/lvgl/src/draw/sw/lv_draw_sw_arc.c **** 
 556              		.loc 1 175 38 is_stmt 1 discriminator 1 view .LVU204
 557 01a0 1846     		mov	r0, r3
 558 01a2 FFF7FEFF 		bl	lv_draw_mask_remove_id
 559              	.LVL47:
 560              	.L115:
 177:Drivers/lvgl/src/draw/sw/lv_draw_sw_arc.c **** 
 561              		.loc 1 177 5 view .LVU205
 177:Drivers/lvgl/src/draw/sw/lv_draw_sw_arc.c **** 
 562              		.loc 1 177 8 is_stmt 0 view .LVU206
 563 01a6 737B     		ldrb	r3, [r6, #13]	@ zero_extendqisi2
 177:Drivers/lvgl/src/draw/sw/lv_draw_sw_arc.c **** 
 564              		.loc 1 177 7 view .LVU207
 565 01a8 5907     		lsls	r1, r3, #29
 566 01aa 51D5     		bpl	.L9
 567              	.LBB52:
 179:Drivers/lvgl/src/draw/sw/lv_draw_sw_arc.c **** 
 568              		.loc 1 179 9 is_stmt 1 view .LVU208
 181:Drivers/lvgl/src/draw/sw/lv_draw_sw_arc.c ****         get_rounded_area(start_angle, radius, width, &round_area);
 569              		.loc 1 181 9 view .LVU209
 182:Drivers/lvgl/src/draw/sw/lv_draw_sw_arc.c ****         round_area.x1 += center->x;
 570              		.loc 1 182 9 view .LVU210
 571 01ac 3FB2     		sxth	r7, r7
 572              	.LVL48:
 182:Drivers/lvgl/src/draw/sw/lv_draw_sw_arc.c ****         round_area.x1 += center->x;
 573              		.loc 1 182 9 is_stmt 0 view .LVU211
 574 01ae 5FFA89F9 		uxtb	r9, r9
 575              	.LVL49:
 182:Drivers/lvgl/src/draw/sw/lv_draw_sw_arc.c ****         round_area.x1 += center->x;
 576              		.loc 1 182 9 view .LVU212
 577 01b2 0898     		ldr	r0, [sp, #32]
 578 01b4 15AB     		add	r3, sp, #84
 579 01b6 4A46     		mov	r2, r9
 580 01b8 3946     		mov	r1, r7
 581 01ba FFF7FEFF 		bl	get_rounded_area
 582              	.LVL50:
 183:Drivers/lvgl/src/draw/sw/lv_draw_sw_arc.c ****         round_area.x2 += center->x;
 583              		.loc 1 183 9 is_stmt 1 view .LVU213
 183:Drivers/lvgl/src/draw/sw/lv_draw_sw_arc.c ****         round_area.x2 += center->x;
 584              		.loc 1 183 32 is_stmt 0 view .LVU214
 585 01be B8F80030 		ldrh	r3, [r8]
ARM GAS  /var/folders/lp/x54gwt890xv47sdkqj1k04q40000gn/T//cc8OVz70.s 			page 26


 183:Drivers/lvgl/src/draw/sw/lv_draw_sw_arc.c ****         round_area.x2 += center->x;
 586              		.loc 1 183 23 view .LVU215
 587 01c2 BDF85420 		ldrh	r2, [sp, #84]
 588 01c6 1A44     		add	r2, r2, r3
 589 01c8 ADF85420 		strh	r2, [sp, #84]	@ movhi
 184:Drivers/lvgl/src/draw/sw/lv_draw_sw_arc.c ****         round_area.y1 += center->y;
 590              		.loc 1 184 9 is_stmt 1 view .LVU216
 184:Drivers/lvgl/src/draw/sw/lv_draw_sw_arc.c ****         round_area.y1 += center->y;
 591              		.loc 1 184 23 is_stmt 0 view .LVU217
 592 01cc BDF85820 		ldrh	r2, [sp, #88]
 593 01d0 1344     		add	r3, r3, r2
 594 01d2 ADF85830 		strh	r3, [sp, #88]	@ movhi
 185:Drivers/lvgl/src/draw/sw/lv_draw_sw_arc.c ****         round_area.y2 += center->y;
 595              		.loc 1 185 9 is_stmt 1 view .LVU218
 185:Drivers/lvgl/src/draw/sw/lv_draw_sw_arc.c ****         round_area.y2 += center->y;
 596              		.loc 1 185 23 is_stmt 0 view .LVU219
 597 01d6 BDF85620 		ldrh	r2, [sp, #86]
 185:Drivers/lvgl/src/draw/sw/lv_draw_sw_arc.c ****         round_area.y2 += center->y;
 598              		.loc 1 185 32 view .LVU220
 599 01da B8F80230 		ldrh	r3, [r8, #2]
 185:Drivers/lvgl/src/draw/sw/lv_draw_sw_arc.c ****         round_area.y2 += center->y;
 600              		.loc 1 185 23 view .LVU221
 601 01de 1A44     		add	r2, r2, r3
 602 01e0 ADF85620 		strh	r2, [sp, #86]	@ movhi
 186:Drivers/lvgl/src/draw/sw/lv_draw_sw_arc.c ****         lv_area_t clip_area2;
 603              		.loc 1 186 9 is_stmt 1 view .LVU222
 186:Drivers/lvgl/src/draw/sw/lv_draw_sw_arc.c ****         lv_area_t clip_area2;
 604              		.loc 1 186 23 is_stmt 0 view .LVU223
 605 01e4 BDF85A20 		ldrh	r2, [sp, #90]
 188:Drivers/lvgl/src/draw/sw/lv_draw_sw_arc.c ****             lv_draw_mask_radius_init(&mask_end_param, &round_area, LV_RADIUS_CIRCLE, false);
 606              		.loc 1 188 12 view .LVU224
 607 01e8 5146     		mov	r1, r10
 186:Drivers/lvgl/src/draw/sw/lv_draw_sw_arc.c ****         lv_area_t clip_area2;
 608              		.loc 1 186 23 view .LVU225
 609 01ea 1344     		add	r3, r3, r2
 188:Drivers/lvgl/src/draw/sw/lv_draw_sw_arc.c ****             lv_draw_mask_radius_init(&mask_end_param, &round_area, LV_RADIUS_CIRCLE, false);
 610              		.loc 1 188 12 view .LVU226
 611 01ec 17A8     		add	r0, sp, #92
 612 01ee 15AA     		add	r2, sp, #84
 186:Drivers/lvgl/src/draw/sw/lv_draw_sw_arc.c ****         lv_area_t clip_area2;
 613              		.loc 1 186 23 view .LVU227
 614 01f0 ADF85A30 		strh	r3, [sp, #90]	@ movhi
 187:Drivers/lvgl/src/draw/sw/lv_draw_sw_arc.c ****         if(_lv_area_intersect(&clip_area2, clip_area_ori, &round_area)) {
 615              		.loc 1 187 9 is_stmt 1 view .LVU228
 188:Drivers/lvgl/src/draw/sw/lv_draw_sw_arc.c ****             lv_draw_mask_radius_init(&mask_end_param, &round_area, LV_RADIUS_CIRCLE, false);
 616              		.loc 1 188 9 view .LVU229
 188:Drivers/lvgl/src/draw/sw/lv_draw_sw_arc.c ****             lv_draw_mask_radius_init(&mask_end_param, &round_area, LV_RADIUS_CIRCLE, false);
 617              		.loc 1 188 12 is_stmt 0 view .LVU230
 618 01f4 FFF7FEFF 		bl	_lv_area_intersect
 619              	.LVL51:
 188:Drivers/lvgl/src/draw/sw/lv_draw_sw_arc.c ****             lv_draw_mask_radius_init(&mask_end_param, &round_area, LV_RADIUS_CIRCLE, false);
 620              		.loc 1 188 11 discriminator 1 view .LVU231
 621 01f8 0028     		cmp	r0, #0
 622 01fa 40F0FC81 		bne	.L296
 623              	.L116:
 198:Drivers/lvgl/src/draw/sw/lv_draw_sw_arc.c ****         round_area.x1 += center->x;
 624              		.loc 1 198 9 is_stmt 1 view .LVU232
ARM GAS  /var/folders/lp/x54gwt890xv47sdkqj1k04q40000gn/T//cc8OVz70.s 			page 27


 625 01fe 0798     		ldr	r0, [sp, #28]
 626 0200 4A46     		mov	r2, r9
 627 0202 3946     		mov	r1, r7
 628 0204 15AB     		add	r3, sp, #84
 629 0206 FFF7FEFF 		bl	get_rounded_area
 630              	.LVL52:
 199:Drivers/lvgl/src/draw/sw/lv_draw_sw_arc.c ****         round_area.x2 += center->x;
 631              		.loc 1 199 9 view .LVU233
 199:Drivers/lvgl/src/draw/sw/lv_draw_sw_arc.c ****         round_area.x2 += center->x;
 632              		.loc 1 199 32 is_stmt 0 view .LVU234
 633 020a B8F80020 		ldrh	r2, [r8]
 199:Drivers/lvgl/src/draw/sw/lv_draw_sw_arc.c ****         round_area.x2 += center->x;
 634              		.loc 1 199 23 view .LVU235
 635 020e BDF85410 		ldrh	r1, [sp, #84]
 201:Drivers/lvgl/src/draw/sw/lv_draw_sw_arc.c ****         round_area.y2 += center->y;
 636              		.loc 1 201 32 view .LVU236
 637 0212 B8F80230 		ldrh	r3, [r8, #2]
 199:Drivers/lvgl/src/draw/sw/lv_draw_sw_arc.c ****         round_area.x2 += center->x;
 638              		.loc 1 199 23 view .LVU237
 639 0216 1144     		add	r1, r1, r2
 640 0218 ADF85410 		strh	r1, [sp, #84]	@ movhi
 200:Drivers/lvgl/src/draw/sw/lv_draw_sw_arc.c ****         round_area.y1 += center->y;
 641              		.loc 1 200 9 is_stmt 1 view .LVU238
 200:Drivers/lvgl/src/draw/sw/lv_draw_sw_arc.c ****         round_area.y1 += center->y;
 642              		.loc 1 200 23 is_stmt 0 view .LVU239
 643 021c BDF85810 		ldrh	r1, [sp, #88]
 644 0220 0A44     		add	r2, r2, r1
 645 0222 ADF85820 		strh	r2, [sp, #88]	@ movhi
 201:Drivers/lvgl/src/draw/sw/lv_draw_sw_arc.c ****         round_area.y2 += center->y;
 646              		.loc 1 201 9 is_stmt 1 view .LVU240
 201:Drivers/lvgl/src/draw/sw/lv_draw_sw_arc.c ****         round_area.y2 += center->y;
 647              		.loc 1 201 23 is_stmt 0 view .LVU241
 648 0226 BDF85620 		ldrh	r2, [sp, #86]
 649 022a 1A44     		add	r2, r2, r3
 650 022c ADF85620 		strh	r2, [sp, #86]	@ movhi
 202:Drivers/lvgl/src/draw/sw/lv_draw_sw_arc.c ****         if(_lv_area_intersect(&clip_area2, clip_area_ori, &round_area)) {
 651              		.loc 1 202 9 is_stmt 1 view .LVU242
 202:Drivers/lvgl/src/draw/sw/lv_draw_sw_arc.c ****         if(_lv_area_intersect(&clip_area2, clip_area_ori, &round_area)) {
 652              		.loc 1 202 23 is_stmt 0 view .LVU243
 653 0230 BDF85A20 		ldrh	r2, [sp, #90]
 203:Drivers/lvgl/src/draw/sw/lv_draw_sw_arc.c ****             lv_draw_mask_radius_init(&mask_end_param, &round_area, LV_RADIUS_CIRCLE, false);
 654              		.loc 1 203 12 view .LVU244
 655 0234 5146     		mov	r1, r10
 202:Drivers/lvgl/src/draw/sw/lv_draw_sw_arc.c ****         if(_lv_area_intersect(&clip_area2, clip_area_ori, &round_area)) {
 656              		.loc 1 202 23 view .LVU245
 657 0236 1344     		add	r3, r3, r2
 203:Drivers/lvgl/src/draw/sw/lv_draw_sw_arc.c ****             lv_draw_mask_radius_init(&mask_end_param, &round_area, LV_RADIUS_CIRCLE, false);
 658              		.loc 1 203 12 view .LVU246
 659 0238 17A8     		add	r0, sp, #92
 660 023a 15AA     		add	r2, sp, #84
 202:Drivers/lvgl/src/draw/sw/lv_draw_sw_arc.c ****         if(_lv_area_intersect(&clip_area2, clip_area_ori, &round_area)) {
 661              		.loc 1 202 23 view .LVU247
 662 023c ADF85A30 		strh	r3, [sp, #90]	@ movhi
 203:Drivers/lvgl/src/draw/sw/lv_draw_sw_arc.c ****             lv_draw_mask_radius_init(&mask_end_param, &round_area, LV_RADIUS_CIRCLE, false);
 663              		.loc 1 203 9 is_stmt 1 view .LVU248
 203:Drivers/lvgl/src/draw/sw/lv_draw_sw_arc.c ****             lv_draw_mask_radius_init(&mask_end_param, &round_area, LV_RADIUS_CIRCLE, false);
 664              		.loc 1 203 12 is_stmt 0 view .LVU249
ARM GAS  /var/folders/lp/x54gwt890xv47sdkqj1k04q40000gn/T//cc8OVz70.s 			page 28


 665 0240 FFF7FEFF 		bl	_lv_area_intersect
 666              	.LVL53:
 203:Drivers/lvgl/src/draw/sw/lv_draw_sw_arc.c ****             lv_draw_mask_radius_init(&mask_end_param, &round_area, LV_RADIUS_CIRCLE, false);
 667              		.loc 1 203 11 discriminator 1 view .LVU250
 668 0244 0028     		cmp	r0, #0
 669 0246 40F0BB81 		bne	.L297
 670              	.L117:
 212:Drivers/lvgl/src/draw/sw/lv_draw_sw_arc.c ****     }
 671              		.loc 1 212 9 is_stmt 1 view .LVU251
 212:Drivers/lvgl/src/draw/sw/lv_draw_sw_arc.c ****     }
 672              		.loc 1 212 29 is_stmt 0 view .LVU252
 673 024a 029B     		ldr	r3, [sp, #8]
 674 024c C3F808A0 		str	r10, [r3, #8]
 675              	.LVL54:
 676              	.L9:
 212:Drivers/lvgl/src/draw/sw/lv_draw_sw_arc.c ****     }
 677              		.loc 1 212 29 view .LVU253
 678              	.LBE52:
 223:Drivers/lvgl/src/draw/sw/lv_draw_sw_arc.c **** 
 679              		.loc 1 223 1 view .LVU254
 680 0250 55B0     		add	sp, sp, #340
 681              		.cfi_remember_state
 682              		.cfi_def_cfa_offset 36
 683              		@ sp needed
 684 0252 BDE8F08F 		pop	{r4, r5, r6, r7, r8, r9, r10, fp, pc}
 685              	.LVL55:
 686              	.L292:
 687              		.cfi_restore_state
 102:Drivers/lvgl/src/draw/sw/lv_draw_sw_arc.c ****         mask_in_param_valid = true;
 688              		.loc 1 102 9 is_stmt 1 view .LVU255
 689 0256 0123     		movs	r3, #1
 690 0258 47F6FF72 		movw	r2, #32767
 691 025c 13A9     		add	r1, sp, #76
 692 025e 19A8     		add	r0, sp, #100
 693 0260 FFF7FEFF 		bl	lv_draw_mask_radius_init
 694              	.LVL56:
 103:Drivers/lvgl/src/draw/sw/lv_draw_sw_arc.c ****         mask_in_id = lv_draw_mask_add(&mask_in_param, NULL);
 695              		.loc 1 103 9 view .LVU256
 104:Drivers/lvgl/src/draw/sw/lv_draw_sw_arc.c ****     }
 696              		.loc 1 104 9 view .LVU257
 104:Drivers/lvgl/src/draw/sw/lv_draw_sw_arc.c ****     }
 697              		.loc 1 104 22 is_stmt 0 view .LVU258
 698 0264 0021     		movs	r1, #0
 699 0266 19A8     		add	r0, sp, #100
 700 0268 FFF7FEFF 		bl	lv_draw_mask_add
 701              	.LVL57:
 108:Drivers/lvgl/src/draw/sw/lv_draw_sw_arc.c ****     int16_t mask_out_id = lv_draw_mask_add(&mask_out_param, NULL);
 702              		.loc 1 108 5 view .LVU259
 703 026c 0DF17C0B 		add	fp, sp, #124
 104:Drivers/lvgl/src/draw/sw/lv_draw_sw_arc.c ****     }
 704              		.loc 1 104 22 view .LVU260
 705 0270 0490     		str	r0, [sp, #16]
 706              	.LVL58:
 107:Drivers/lvgl/src/draw/sw/lv_draw_sw_arc.c ****     lv_draw_mask_radius_init(&mask_out_param, &area_out, LV_RADIUS_CIRCLE, false);
 707              		.loc 1 107 5 is_stmt 1 view .LVU261
 108:Drivers/lvgl/src/draw/sw/lv_draw_sw_arc.c ****     int16_t mask_out_id = lv_draw_mask_add(&mask_out_param, NULL);
 708              		.loc 1 108 5 view .LVU262
ARM GAS  /var/folders/lp/x54gwt890xv47sdkqj1k04q40000gn/T//cc8OVz70.s 			page 29


 709 0272 0023     		movs	r3, #0
 710 0274 47F6FF72 		movw	r2, #32767
 711 0278 11A9     		add	r1, sp, #68
 712 027a 5846     		mov	r0, fp
 713 027c FFF7FEFF 		bl	lv_draw_mask_radius_init
 714              	.LVL59:
 109:Drivers/lvgl/src/draw/sw/lv_draw_sw_arc.c **** 
 715              		.loc 1 109 5 view .LVU263
 109:Drivers/lvgl/src/draw/sw/lv_draw_sw_arc.c **** 
 716              		.loc 1 109 27 is_stmt 0 view .LVU264
 717 0280 0021     		movs	r1, #0
 718 0282 5846     		mov	r0, fp
 719 0284 FFF7FEFF 		bl	lv_draw_mask_add
 720              	.LVL60:
 112:Drivers/lvgl/src/draw/sw/lv_draw_sw_arc.c ****         cir_dsc.radius = LV_RADIUS_CIRCLE;
 721              		.loc 1 112 7 view .LVU265
 722 0288 5545     		cmp	r5, r10
 109:Drivers/lvgl/src/draw/sw/lv_draw_sw_arc.c **** 
 723              		.loc 1 109 27 view .LVU266
 724 028a 0390     		str	r0, [sp, #12]
 725              	.LVL61:
 112:Drivers/lvgl/src/draw/sw/lv_draw_sw_arc.c ****         cir_dsc.radius = LV_RADIUS_CIRCLE;
 726              		.loc 1 112 5 is_stmt 1 view .LVU267
 112:Drivers/lvgl/src/draw/sw/lv_draw_sw_arc.c ****         cir_dsc.radius = LV_RADIUS_CIRCLE;
 727              		.loc 1 112 7 is_stmt 0 view .LVU268
 728 028c 04D0     		beq	.L15
 112:Drivers/lvgl/src/draw/sw/lv_draw_sw_arc.c ****         cir_dsc.radius = LV_RADIUS_CIRCLE;
 729              		.loc 1 112 67 discriminator 1 view .LVU269
 730 028e 05F5B473 		add	r3, r5, #360
 112:Drivers/lvgl/src/draw/sw/lv_draw_sw_arc.c ****         cir_dsc.radius = LV_RADIUS_CIRCLE;
 731              		.loc 1 112 39 discriminator 1 view .LVU270
 732 0292 A342     		cmp	r3, r4
 733 0294 40F0F180 		bne	.L298
 734              	.L15:
 113:Drivers/lvgl/src/draw/sw/lv_draw_sw_arc.c ****         lv_draw_rect(draw_ctx, &cir_dsc, &area_out);
 735              		.loc 1 113 9 is_stmt 1 view .LVU271
 113:Drivers/lvgl/src/draw/sw/lv_draw_sw_arc.c ****         lv_draw_rect(draw_ctx, &cir_dsc, &area_out);
 736              		.loc 1 113 24 is_stmt 0 view .LVU272
 737 0298 47F6FF73 		movw	r3, #32767
 114:Drivers/lvgl/src/draw/sw/lv_draw_sw_arc.c **** 
 738              		.loc 1 114 9 view .LVU273
 739 029c 0298     		ldr	r0, [sp, #8]
 113:Drivers/lvgl/src/draw/sw/lv_draw_sw_arc.c ****         lv_draw_rect(draw_ctx, &cir_dsc, &area_out);
 740              		.loc 1 113 24 view .LVU274
 741 029e ADF8AC30 		strh	r3, [sp, #172]	@ movhi
 114:Drivers/lvgl/src/draw/sw/lv_draw_sw_arc.c **** 
 742              		.loc 1 114 9 is_stmt 1 view .LVU275
 743 02a2 11AA     		add	r2, sp, #68
 744 02a4 2BA9     		add	r1, sp, #172
 745 02a6 FFF7FEFF 		bl	lv_draw_rect
 746              	.LVL62:
 116:Drivers/lvgl/src/draw/sw/lv_draw_sw_arc.c ****         if(mask_in_id != LV_MASK_ID_INV) lv_draw_mask_remove_id(mask_in_id);
 747              		.loc 1 116 9 view .LVU276
 748 02aa 0398     		ldr	r0, [sp, #12]
 749 02ac FFF7FEFF 		bl	lv_draw_mask_remove_id
 750              	.LVL63:
 117:Drivers/lvgl/src/draw/sw/lv_draw_sw_arc.c **** 
ARM GAS  /var/folders/lp/x54gwt890xv47sdkqj1k04q40000gn/T//cc8OVz70.s 			page 30


 751              		.loc 1 117 9 view .LVU277
 117:Drivers/lvgl/src/draw/sw/lv_draw_sw_arc.c **** 
 752              		.loc 1 117 11 is_stmt 0 view .LVU278
 753 02b0 049B     		ldr	r3, [sp, #16]
 754 02b2 0133     		adds	r3, r3, #1
 755 02b4 02D0     		beq	.L265
 117:Drivers/lvgl/src/draw/sw/lv_draw_sw_arc.c **** 
 756              		.loc 1 117 42 is_stmt 1 discriminator 1 view .LVU279
 757 02b6 0498     		ldr	r0, [sp, #16]
 758 02b8 FFF7FEFF 		bl	lv_draw_mask_remove_id
 759              	.LVL64:
 760              	.L265:
 119:Drivers/lvgl/src/draw/sw/lv_draw_sw_arc.c ****         if(mask_in_param_valid) {
 761              		.loc 1 119 9 view .LVU280
 762 02bc 5846     		mov	r0, fp
 763 02be FFF7FEFF 		bl	lv_draw_mask_free_param
 764              	.LVL65:
 120:Drivers/lvgl/src/draw/sw/lv_draw_sw_arc.c ****             lv_draw_mask_free_param(&mask_in_param);
 765              		.loc 1 120 9 view .LVU281
 121:Drivers/lvgl/src/draw/sw/lv_draw_sw_arc.c ****         }
 766              		.loc 1 121 13 view .LVU282
 767 02c2 19A8     		add	r0, sp, #100
 768 02c4 FFF7FEFF 		bl	lv_draw_mask_free_param
 769              	.LVL66:
 770 02c8 C2E7     		b	.L9
 771              	.LVL67:
 772              	.L12:
  80:Drivers/lvgl/src/draw/sw/lv_draw_sw_arc.c ****         cir_dsc.bg_color = dsc->color;
 773              		.loc 1 80 9 view .LVU283
  81:Drivers/lvgl/src/draw/sw/lv_draw_sw_arc.c ****     }
 774              		.loc 1 81 26 is_stmt 0 view .LVU284
 775 02ca 3388     		ldrh	r3, [r6]
 776 02cc ADF8B030 		strh	r3, [sp, #176]	@ movhi
  80:Drivers/lvgl/src/draw/sw/lv_draw_sw_arc.c ****         cir_dsc.bg_color = dsc->color;
 777              		.loc 1 80 29 view .LVU285
 778 02d0 337B     		ldrb	r3, [r6, #12]	@ zero_extendqisi2
  81:Drivers/lvgl/src/draw/sw/lv_draw_sw_arc.c ****     }
 779              		.loc 1 81 9 is_stmt 1 view .LVU286
 780 02d2 C2E6     		b	.L13
 781              	.LVL68:
 782              	.L295:
 170:Drivers/lvgl/src/draw/sw/lv_draw_sw_arc.c ****     }
 783              		.loc 1 170 9 view .LVU287
 784 02d4 19A8     		add	r0, sp, #100
 785 02d6 FFF7FEFF 		bl	lv_draw_mask_free_param
 786              	.LVL69:
 787 02da 58E7     		b	.L114
 788              	.LVL70:
 789              	.L294:
 790              	.LBB55:
 146:Drivers/lvgl/src/draw/sw/lv_draw_sw_arc.c ****         q_dsc.center = center;
 791              		.loc 1 146 9 view .LVU288
 147:Drivers/lvgl/src/draw/sw/lv_draw_sw_arc.c ****         q_dsc.radius = radius;
 792              		.loc 1 147 9 view .LVU289
 148:Drivers/lvgl/src/draw/sw/lv_draw_sw_arc.c ****         q_dsc.start_angle = start_angle;
 793              		.loc 1 148 9 view .LVU290
 151:Drivers/lvgl/src/draw/sw/lv_draw_sw_arc.c ****         q_dsc.end_quarter = (end_angle / 90) & 0x3;
ARM GAS  /var/folders/lp/x54gwt890xv47sdkqj1k04q40000gn/T//cc8OVz70.s 			page 31


 794              		.loc 1 151 50 is_stmt 0 view .LVU291
 795 02dc B74A     		ldr	r2, .L320
 796 02de 6308     		lsrs	r3, r4, #1
 797              	.LVL71:
 151:Drivers/lvgl/src/draw/sw/lv_draw_sw_arc.c ****         q_dsc.end_quarter = (end_angle / 90) & 0x3;
 798              		.loc 1 151 50 view .LVU292
 799 02e0 A2FB0313 		umull	r1, r3, r2, r3
 800 02e4 C3F34F13 		ubfx	r3, r3, #5, #16
 801 02e8 0993     		str	r3, [sp, #36]
 152:Drivers/lvgl/src/draw/sw/lv_draw_sw_arc.c ****         q_dsc.width = width;
 802              		.loc 1 152 46 view .LVU293
 803 02ea 6B08     		lsrs	r3, r5, #1
 804 02ec A2FB0323 		umull	r2, r3, r2, r3
 805 02f0 C3F34F13 		ubfx	r3, r3, #5, #16
 148:Drivers/lvgl/src/draw/sw/lv_draw_sw_arc.c ****         q_dsc.start_angle = start_angle;
 806              		.loc 1 148 22 view .LVU294
 807 02f4 39B2     		sxth	r1, r7
 808              	.LBB56:
 809              	.LBB57:
 235:Drivers/lvgl/src/draw/sw/lv_draw_sw_arc.c ****         /*Small arc here*/
 810              		.loc 1 235 7 view .LVU295
 811 02f6 592C     		cmp	r4, #89
 812              	.LBE57:
 813              	.LBE56:
 152:Drivers/lvgl/src/draw/sw/lv_draw_sw_arc.c ****         q_dsc.width = width;
 814              		.loc 1 152 46 view .LVU296
 815 02f8 0A93     		str	r3, [sp, #40]
 148:Drivers/lvgl/src/draw/sw/lv_draw_sw_arc.c ****         q_dsc.start_angle = start_angle;
 816              		.loc 1 148 22 view .LVU297
 817 02fa 0C91     		str	r1, [sp, #48]
 149:Drivers/lvgl/src/draw/sw/lv_draw_sw_arc.c ****         q_dsc.end_angle = end_angle;
 818              		.loc 1 149 9 is_stmt 1 view .LVU298
 150:Drivers/lvgl/src/draw/sw/lv_draw_sw_arc.c ****         q_dsc.start_quarter = (start_angle / 90) & 0x3;
 819              		.loc 1 150 9 view .LVU299
 151:Drivers/lvgl/src/draw/sw/lv_draw_sw_arc.c ****         q_dsc.end_quarter = (end_angle / 90) & 0x3;
 820              		.loc 1 151 9 view .LVU300
 152:Drivers/lvgl/src/draw/sw/lv_draw_sw_arc.c ****         q_dsc.width = width;
 821              		.loc 1 152 9 view .LVU301
 153:Drivers/lvgl/src/draw/sw/lv_draw_sw_arc.c ****         q_dsc.draw_dsc = &cir_dsc;
 822              		.loc 1 153 9 view .LVU302
 154:Drivers/lvgl/src/draw/sw/lv_draw_sw_arc.c ****         q_dsc.draw_area = &area_out;
 823              		.loc 1 154 9 view .LVU303
 155:Drivers/lvgl/src/draw/sw/lv_draw_sw_arc.c ****         q_dsc.draw_ctx = draw_ctx;
 824              		.loc 1 155 9 view .LVU304
 156:Drivers/lvgl/src/draw/sw/lv_draw_sw_arc.c **** 
 825              		.loc 1 156 9 view .LVU305
 158:Drivers/lvgl/src/draw/sw/lv_draw_sw_arc.c ****         draw_quarter_1(&q_dsc);
 826              		.loc 1 158 9 view .LVU306
 827              	.LVL72:
 828              	.LBB81:
 829              	.LBI56:
 230:Drivers/lvgl/src/draw/sw/lv_draw_sw_arc.c **** {
 830              		.loc 1 230 13 view .LVU307
 831              	.LBB69:
 232:Drivers/lvgl/src/draw/sw/lv_draw_sw_arc.c ****     lv_area_t quarter_area;
 832              		.loc 1 232 5 view .LVU308
 233:Drivers/lvgl/src/draw/sw/lv_draw_sw_arc.c **** 
ARM GAS  /var/folders/lp/x54gwt890xv47sdkqj1k04q40000gn/T//cc8OVz70.s 			page 32


 833              		.loc 1 233 5 view .LVU309
 235:Drivers/lvgl/src/draw/sw/lv_draw_sw_arc.c ****         /*Small arc here*/
 834              		.loc 1 235 5 view .LVU310
 235:Drivers/lvgl/src/draw/sw/lv_draw_sw_arc.c ****         /*Small arc here*/
 835              		.loc 1 235 7 is_stmt 0 view .LVU311
 836 02fc 40F2C080 		bls	.L299
 249:Drivers/lvgl/src/draw/sw/lv_draw_sw_arc.c ****         /*Start and/or end arcs here*/
 837              		.loc 1 249 10 is_stmt 1 view .LVU312
 249:Drivers/lvgl/src/draw/sw/lv_draw_sw_arc.c ****         /*Start and/or end arcs here*/
 838              		.loc 1 249 35 is_stmt 0 discriminator 1 view .LVU313
 839 0300 592D     		cmp	r5, #89
 840 0302 40F2EF81 		bls	.L300
 278:Drivers/lvgl/src/draw/sw/lv_draw_sw_arc.c ****             (q->start_quarter == 2 && q->end_quarter == 1) ||
 841              		.loc 1 278 10 is_stmt 1 view .LVU314
 278:Drivers/lvgl/src/draw/sw/lv_draw_sw_arc.c ****             (q->start_quarter == 2 && q->end_quarter == 1) ||
 842              		.loc 1 278 12 is_stmt 0 view .LVU315
 843 0306 DDE90932 		ldrd	r3, r2, [sp, #36]
 844 030a 9342     		cmp	r3, r2
 845 030c 00F0B583 		beq	.L301
 278:Drivers/lvgl/src/draw/sw/lv_draw_sw_arc.c ****             (q->start_quarter == 2 && q->end_quarter == 1) ||
 846              		.loc 1 278 108 discriminator 5 view .LVU316
 847 0310 099B     		ldr	r3, [sp, #36]
 848 0312 022B     		cmp	r3, #2
 849 0314 00F04684 		beq	.L302
 279:Drivers/lvgl/src/draw/sw/lv_draw_sw_arc.c ****             (q->start_quarter == 3 && q->end_quarter == 2) ||
 850              		.loc 1 279 60 discriminator 1 view .LVU317
 851 0318 099B     		ldr	r3, [sp, #36]
 852 031a 032B     		cmp	r3, #3
 853 031c 00F02F82 		beq	.L52
 854              	.L50:
 294:Drivers/lvgl/src/draw/sw/lv_draw_sw_arc.c **** }
 855              		.loc 1 294 5 is_stmt 1 view .LVU318
 856              	.LVL73:
 294:Drivers/lvgl/src/draw/sw/lv_draw_sw_arc.c **** }
 857              		.loc 1 294 5 is_stmt 0 view .LVU319
 858              	.LBE69:
 859              	.LBE81:
 159:Drivers/lvgl/src/draw/sw/lv_draw_sw_arc.c ****         draw_quarter_2(&q_dsc);
 860              		.loc 1 159 9 is_stmt 1 view .LVU320
 861              	.LBB82:
 862              	.LBI82:
 297:Drivers/lvgl/src/draw/sw/lv_draw_sw_arc.c **** {
 863              		.loc 1 297 13 view .LVU321
 864              	.LBB83:
 299:Drivers/lvgl/src/draw/sw/lv_draw_sw_arc.c ****     lv_area_t quarter_area;
 865              		.loc 1 299 5 view .LVU322
 300:Drivers/lvgl/src/draw/sw/lv_draw_sw_arc.c **** 
 866              		.loc 1 300 5 view .LVU323
 302:Drivers/lvgl/src/draw/sw/lv_draw_sw_arc.c ****         /*Small arc here*/
 867              		.loc 1 302 5 view .LVU324
 302:Drivers/lvgl/src/draw/sw/lv_draw_sw_arc.c ****         /*Small arc here*/
 868              		.loc 1 302 30 is_stmt 0 discriminator 1 view .LVU325
 869 0320 0A9B     		ldr	r3, [sp, #40]
 870 0322 012B     		cmp	r3, #1
 871 0324 40F01985 		bne	.L246
 872 0328 25AB     		add	r3, sp, #148
 873 032a 0B93     		str	r3, [sp, #44]
ARM GAS  /var/folders/lp/x54gwt890xv47sdkqj1k04q40000gn/T//cc8OVz70.s 			page 33


 874              	.L53:
 875              	.LBB84:
 305:Drivers/lvgl/src/draw/sw/lv_draw_sw_arc.c **** 
 876              		.loc 1 305 91 discriminator 1 view .LVU326
 877 032c 0C9A     		ldr	r2, [sp, #48]
 304:Drivers/lvgl/src/draw/sw/lv_draw_sw_arc.c ****         quarter_area.x2 = q->center->x + ((lv_trigo_sin(q->start_angle + 90) * (q->radius - q->widt
 878              		.loc 1 304 36 view .LVU327
 879 032e B8F90230 		ldrsh	r3, [r8, #2]
 305:Drivers/lvgl/src/draw/sw/lv_draw_sw_arc.c **** 
 880              		.loc 1 305 91 discriminator 1 view .LVU328
 881 0332 A2EB0902 		sub	r2, r2, r9
 882              	.LBE84:
 302:Drivers/lvgl/src/draw/sw/lv_draw_sw_arc.c ****         /*Small arc here*/
 883              		.loc 1 302 53 discriminator 2 view .LVU329
 884 0336 AC42     		cmp	r4, r5
 885              	.LBB85:
 305:Drivers/lvgl/src/draw/sw/lv_draw_sw_arc.c **** 
 886              		.loc 1 305 91 discriminator 1 view .LVU330
 887 0338 0D92     		str	r2, [sp, #52]
 888              	.LBE85:
 302:Drivers/lvgl/src/draw/sw/lv_draw_sw_arc.c ****         /*Small arc here*/
 889              		.loc 1 302 53 discriminator 2 view .LVU331
 890 033a C0F0D582 		bcc	.L303
 891              	.L54:
 892              	.LBB86:
 319:Drivers/lvgl/src/draw/sw/lv_draw_sw_arc.c ****             quarter_area.y1 = q->center->y;
 893              		.loc 1 319 13 is_stmt 1 view .LVU332
 319:Drivers/lvgl/src/draw/sw/lv_draw_sw_arc.c ****             quarter_area.y1 = q->center->y;
 894              		.loc 1 319 44 is_stmt 0 view .LVU333
 895 033e B8F80020 		ldrh	r2, [r8]
 322:Drivers/lvgl/src/draw/sw/lv_draw_sw_arc.c ****             quarter_area.x2 = q->center->x + ((lv_trigo_sin(q->start_angle + 90) * (q->radius - q->
 896              		.loc 1 322 48 view .LVU334
 897 0342 0898     		ldr	r0, [sp, #32]
 320:Drivers/lvgl/src/draw/sw/lv_draw_sw_arc.c **** 
 898              		.loc 1 320 29 view .LVU335
 899 0344 ADF89630 		strh	r3, [sp, #150]	@ movhi
 319:Drivers/lvgl/src/draw/sw/lv_draw_sw_arc.c ****             quarter_area.y1 = q->center->y;
 900              		.loc 1 319 44 view .LVU336
 901 0348 D21B     		subs	r2, r2, r7
 320:Drivers/lvgl/src/draw/sw/lv_draw_sw_arc.c **** 
 902              		.loc 1 320 29 view .LVU337
 903 034a 0E93     		str	r3, [sp, #56]
 319:Drivers/lvgl/src/draw/sw/lv_draw_sw_arc.c ****             quarter_area.y1 = q->center->y;
 904              		.loc 1 319 29 view .LVU338
 905 034c ADF89420 		strh	r2, [sp, #148]	@ movhi
 320:Drivers/lvgl/src/draw/sw/lv_draw_sw_arc.c **** 
 906              		.loc 1 320 13 is_stmt 1 view .LVU339
 322:Drivers/lvgl/src/draw/sw/lv_draw_sw_arc.c ****             quarter_area.x2 = q->center->x + ((lv_trigo_sin(q->start_angle + 90) * (q->radius - q->
 907              		.loc 1 322 13 view .LVU340
 322:Drivers/lvgl/src/draw/sw/lv_draw_sw_arc.c ****             quarter_area.x2 = q->center->x + ((lv_trigo_sin(q->start_angle + 90) * (q->radius - q->
 908              		.loc 1 322 48 is_stmt 0 view .LVU341
 909 0350 FFF7FEFF 		bl	lv_trigo_sin
 910              	.LVL74:
 322:Drivers/lvgl/src/draw/sw/lv_draw_sw_arc.c ****             quarter_area.x2 = q->center->x + ((lv_trigo_sin(q->start_angle + 90) * (q->radius - q->
 911              		.loc 1 322 77 discriminator 1 view .LVU342
 912 0354 0C9B     		ldr	r3, [sp, #48]
 913 0356 03FB00F2 		mul	r2, r3, r0
ARM GAS  /var/folders/lp/x54gwt890xv47sdkqj1k04q40000gn/T//cc8OVz70.s 			page 34


 322:Drivers/lvgl/src/draw/sw/lv_draw_sw_arc.c ****             quarter_area.x2 = q->center->x + ((lv_trigo_sin(q->start_angle + 90) * (q->radius - q->
 914              		.loc 1 322 44 discriminator 1 view .LVU343
 915 035a 0E9B     		ldr	r3, [sp, #56]
 916 035c 03EBE233 		add	r3, r3, r2, asr #15
 322:Drivers/lvgl/src/draw/sw/lv_draw_sw_arc.c ****             quarter_area.x2 = q->center->x + ((lv_trigo_sin(q->start_angle + 90) * (q->radius - q->
 917              		.loc 1 322 29 discriminator 1 view .LVU344
 918 0360 ADF89A30 		strh	r3, [sp, #154]	@ movhi
 323:Drivers/lvgl/src/draw/sw/lv_draw_sw_arc.c **** 
 919              		.loc 1 323 13 is_stmt 1 view .LVU345
 323:Drivers/lvgl/src/draw/sw/lv_draw_sw_arc.c **** 
 920              		.loc 1 323 76 is_stmt 0 view .LVU346
 921 0364 04F15A03 		add	r3, r4, #90
 323:Drivers/lvgl/src/draw/sw/lv_draw_sw_arc.c **** 
 922              		.loc 1 323 48 view .LVU347
 923 0368 18B2     		sxth	r0, r3
 323:Drivers/lvgl/src/draw/sw/lv_draw_sw_arc.c **** 
 924              		.loc 1 323 40 view .LVU348
 925 036a B8F80030 		ldrh	r3, [r8]
 926 036e 0E93     		str	r3, [sp, #56]
 323:Drivers/lvgl/src/draw/sw/lv_draw_sw_arc.c **** 
 927              		.loc 1 323 48 view .LVU349
 928 0370 FFF7FEFF 		bl	lv_trigo_sin
 929              	.LVL75:
 323:Drivers/lvgl/src/draw/sw/lv_draw_sw_arc.c **** 
 930              		.loc 1 323 82 discriminator 1 view .LVU350
 931 0374 0D9B     		ldr	r3, [sp, #52]
 325:Drivers/lvgl/src/draw/sw/lv_draw_sw_arc.c ****             if(ok) {
 932              		.loc 1 325 23 view .LVU351
 933 0376 0B99     		ldr	r1, [sp, #44]
 323:Drivers/lvgl/src/draw/sw/lv_draw_sw_arc.c **** 
 934              		.loc 1 323 82 discriminator 1 view .LVU352
 935 0378 03FB00F2 		mul	r2, r3, r0
 323:Drivers/lvgl/src/draw/sw/lv_draw_sw_arc.c **** 
 936              		.loc 1 323 44 discriminator 1 view .LVU353
 937 037c 0E9B     		ldr	r3, [sp, #56]
 325:Drivers/lvgl/src/draw/sw/lv_draw_sw_arc.c ****             if(ok) {
 938              		.loc 1 325 23 view .LVU354
 939 037e 0846     		mov	r0, r1
 323:Drivers/lvgl/src/draw/sw/lv_draw_sw_arc.c **** 
 940              		.loc 1 323 44 discriminator 1 view .LVU355
 941 0380 03EBE233 		add	r3, r3, r2, asr #15
 325:Drivers/lvgl/src/draw/sw/lv_draw_sw_arc.c ****             if(ok) {
 942              		.loc 1 325 23 view .LVU356
 943 0384 5246     		mov	r2, r10
 323:Drivers/lvgl/src/draw/sw/lv_draw_sw_arc.c **** 
 944              		.loc 1 323 29 discriminator 1 view .LVU357
 945 0386 ADF89830 		strh	r3, [sp, #152]	@ movhi
 325:Drivers/lvgl/src/draw/sw/lv_draw_sw_arc.c ****             if(ok) {
 946              		.loc 1 325 13 is_stmt 1 view .LVU358
 325:Drivers/lvgl/src/draw/sw/lv_draw_sw_arc.c ****             if(ok) {
 947              		.loc 1 325 23 is_stmt 0 view .LVU359
 948 038a FFF7FEFF 		bl	_lv_area_intersect
 949              	.LVL76:
 326:Drivers/lvgl/src/draw/sw/lv_draw_sw_arc.c ****                 q->draw_ctx->clip_area = &quarter_area;
 950              		.loc 1 326 13 is_stmt 1 view .LVU360
 326:Drivers/lvgl/src/draw/sw/lv_draw_sw_arc.c ****                 q->draw_ctx->clip_area = &quarter_area;
 951              		.loc 1 326 15 is_stmt 0 view .LVU361
ARM GAS  /var/folders/lp/x54gwt890xv47sdkqj1k04q40000gn/T//cc8OVz70.s 			page 35


 952 038e 0028     		cmp	r0, #0
 953 0390 40F04784 		bne	.L304
 954              	.LBE86:
 331:Drivers/lvgl/src/draw/sw/lv_draw_sw_arc.c ****             quarter_area.x2 = q->center->x - 1;
 955              		.loc 1 331 9 is_stmt 1 view .LVU362
 331:Drivers/lvgl/src/draw/sw/lv_draw_sw_arc.c ****             quarter_area.x2 = q->center->x - 1;
 956              		.loc 1 331 11 is_stmt 0 view .LVU363
 957 0394 0A9B     		ldr	r3, [sp, #40]
 958 0396 012B     		cmp	r3, #1
 959 0398 00F0B680 		beq	.L36
 960              	.LVL77:
 961              	.L272:
 361:Drivers/lvgl/src/draw/sw/lv_draw_sw_arc.c **** }
 962              		.loc 1 361 5 is_stmt 1 view .LVU364
 361:Drivers/lvgl/src/draw/sw/lv_draw_sw_arc.c **** }
 963              		.loc 1 361 28 is_stmt 0 view .LVU365
 964 039c 029B     		ldr	r3, [sp, #8]
 965 039e C3F808A0 		str	r10, [r3, #8]
 966              	.LVL78:
 361:Drivers/lvgl/src/draw/sw/lv_draw_sw_arc.c **** }
 967              		.loc 1 361 28 view .LVU366
 968              	.LBE83:
 969              	.LBE82:
 160:Drivers/lvgl/src/draw/sw/lv_draw_sw_arc.c ****         draw_quarter_3(&q_dsc);
 970              		.loc 1 160 9 is_stmt 1 view .LVU367
 971              	.LBB113:
 972              	.LBI113:
 364:Drivers/lvgl/src/draw/sw/lv_draw_sw_arc.c **** {
 973              		.loc 1 364 13 view .LVU368
 974              	.LBB114:
 366:Drivers/lvgl/src/draw/sw/lv_draw_sw_arc.c ****     lv_area_t quarter_area;
 975              		.loc 1 366 5 view .LVU369
 367:Drivers/lvgl/src/draw/sw/lv_draw_sw_arc.c **** 
 976              		.loc 1 367 5 view .LVU370
 369:Drivers/lvgl/src/draw/sw/lv_draw_sw_arc.c ****         /*Small arc here*/
 977              		.loc 1 369 5 view .LVU371
 978              	.L68:
 383:Drivers/lvgl/src/draw/sw/lv_draw_sw_arc.c ****         /*Start and/or end arcs here*/
 979              		.loc 1 383 10 view .LVU372
 383:Drivers/lvgl/src/draw/sw/lv_draw_sw_arc.c ****         /*Start and/or end arcs here*/
 980              		.loc 1 383 35 is_stmt 0 discriminator 1 view .LVU373
 981 03a2 0A9B     		ldr	r3, [sp, #40]
 982 03a4 022B     		cmp	r3, #2
 983 03a6 40F04081 		bne	.L256
 984 03aa 0C9B     		ldr	r3, [sp, #48]
 985 03ac A3EB0903 		sub	r3, r3, r9
 986 03b0 0D93     		str	r3, [sp, #52]
 987 03b2 25AB     		add	r3, sp, #148
 988 03b4 0B93     		str	r3, [sp, #44]
 989              	.LVL79:
 990              	.L86:
 991              	.LBB115:
 399:Drivers/lvgl/src/draw/sw/lv_draw_sw_arc.c ****             quarter_area.y2 = q->center->y - 1;
 992              		.loc 1 399 13 is_stmt 1 view .LVU374
 400:Drivers/lvgl/src/draw/sw/lv_draw_sw_arc.c **** 
 993              		.loc 1 400 44 is_stmt 0 view .LVU375
 994 03b6 B8F80220 		ldrh	r2, [r8, #2]
ARM GAS  /var/folders/lp/x54gwt890xv47sdkqj1k04q40000gn/T//cc8OVz70.s 			page 36


 399:Drivers/lvgl/src/draw/sw/lv_draw_sw_arc.c ****             quarter_area.y2 = q->center->y - 1;
 995              		.loc 1 399 40 view .LVU376
 996 03ba B8F80030 		ldrh	r3, [r8]
 399:Drivers/lvgl/src/draw/sw/lv_draw_sw_arc.c ****             quarter_area.y2 = q->center->y - 1;
 997              		.loc 1 399 44 view .LVU377
 998 03be 0F93     		str	r3, [sp, #60]
 400:Drivers/lvgl/src/draw/sw/lv_draw_sw_arc.c **** 
 999              		.loc 1 400 44 view .LVU378
 1000 03c0 013A     		subs	r2, r2, #1
 402:Drivers/lvgl/src/draw/sw/lv_draw_sw_arc.c ****             quarter_area.y1 = q->center->y + ((lv_trigo_sin(q->end_angle) * (q->radius)) >> LV_TRIG
 1001              		.loc 1 402 74 view .LVU379
 1002 03c2 05F15A00 		add	r0, r5, #90
 400:Drivers/lvgl/src/draw/sw/lv_draw_sw_arc.c **** 
 1003              		.loc 1 400 29 view .LVU380
 1004 03c6 ADF89A20 		strh	r2, [sp, #154]	@ movhi
 402:Drivers/lvgl/src/draw/sw/lv_draw_sw_arc.c ****             quarter_area.y1 = q->center->y + ((lv_trigo_sin(q->end_angle) * (q->radius)) >> LV_TRIG
 1005              		.loc 1 402 48 view .LVU381
 1006 03ca 00B2     		sxth	r0, r0
 399:Drivers/lvgl/src/draw/sw/lv_draw_sw_arc.c ****             quarter_area.y2 = q->center->y - 1;
 1007              		.loc 1 399 44 view .LVU382
 1008 03cc DA1B     		subs	r2, r3, r7
 399:Drivers/lvgl/src/draw/sw/lv_draw_sw_arc.c ****             quarter_area.y2 = q->center->y - 1;
 1009              		.loc 1 399 29 view .LVU383
 1010 03ce ADF89420 		strh	r2, [sp, #148]	@ movhi
 400:Drivers/lvgl/src/draw/sw/lv_draw_sw_arc.c **** 
 1011              		.loc 1 400 13 is_stmt 1 view .LVU384
 402:Drivers/lvgl/src/draw/sw/lv_draw_sw_arc.c ****             quarter_area.y1 = q->center->y + ((lv_trigo_sin(q->end_angle) * (q->radius)) >> LV_TRIG
 1012              		.loc 1 402 13 view .LVU385
 402:Drivers/lvgl/src/draw/sw/lv_draw_sw_arc.c ****             quarter_area.y1 = q->center->y + ((lv_trigo_sin(q->end_angle) * (q->radius)) >> LV_TRIG
 1013              		.loc 1 402 48 is_stmt 0 view .LVU386
 1014 03d2 FFF7FEFF 		bl	lv_trigo_sin
 1015              	.LVL80:
 402:Drivers/lvgl/src/draw/sw/lv_draw_sw_arc.c ****             quarter_area.y1 = q->center->y + ((lv_trigo_sin(q->end_angle) * (q->radius)) >> LV_TRIG
 1016              		.loc 1 402 93 discriminator 1 view .LVU387
 1017 03d6 0D9B     		ldr	r3, [sp, #52]
 1018 03d8 0E93     		str	r3, [sp, #56]
 402:Drivers/lvgl/src/draw/sw/lv_draw_sw_arc.c ****             quarter_area.y1 = q->center->y + ((lv_trigo_sin(q->end_angle) * (q->radius)) >> LV_TRIG
 1019              		.loc 1 402 80 discriminator 1 view .LVU388
 1020 03da 03FB00F2 		mul	r2, r3, r0
 402:Drivers/lvgl/src/draw/sw/lv_draw_sw_arc.c ****             quarter_area.y1 = q->center->y + ((lv_trigo_sin(q->end_angle) * (q->radius)) >> LV_TRIG
 1021              		.loc 1 402 44 discriminator 1 view .LVU389
 1022 03de 0F9B     		ldr	r3, [sp, #60]
 403:Drivers/lvgl/src/draw/sw/lv_draw_sw_arc.c **** 
 1023              		.loc 1 403 48 view .LVU390
 1024 03e0 0798     		ldr	r0, [sp, #28]
 402:Drivers/lvgl/src/draw/sw/lv_draw_sw_arc.c ****             quarter_area.y1 = q->center->y + ((lv_trigo_sin(q->end_angle) * (q->radius)) >> LV_TRIG
 1025              		.loc 1 402 44 discriminator 1 view .LVU391
 1026 03e2 03EBE233 		add	r3, r3, r2, asr #15
 402:Drivers/lvgl/src/draw/sw/lv_draw_sw_arc.c ****             quarter_area.y1 = q->center->y + ((lv_trigo_sin(q->end_angle) * (q->radius)) >> LV_TRIG
 1027              		.loc 1 402 29 discriminator 1 view .LVU392
 1028 03e6 ADF89830 		strh	r3, [sp, #152]	@ movhi
 403:Drivers/lvgl/src/draw/sw/lv_draw_sw_arc.c **** 
 1029              		.loc 1 403 13 is_stmt 1 view .LVU393
 403:Drivers/lvgl/src/draw/sw/lv_draw_sw_arc.c **** 
 1030              		.loc 1 403 40 is_stmt 0 view .LVU394
 1031 03ea B8F80230 		ldrh	r3, [r8, #2]
 1032 03ee 0D93     		str	r3, [sp, #52]
ARM GAS  /var/folders/lp/x54gwt890xv47sdkqj1k04q40000gn/T//cc8OVz70.s 			page 37


 403:Drivers/lvgl/src/draw/sw/lv_draw_sw_arc.c **** 
 1033              		.loc 1 403 48 view .LVU395
 1034 03f0 FFF7FEFF 		bl	lv_trigo_sin
 1035              	.LVL81:
 403:Drivers/lvgl/src/draw/sw/lv_draw_sw_arc.c **** 
 1036              		.loc 1 403 75 discriminator 1 view .LVU396
 1037 03f4 0C9B     		ldr	r3, [sp, #48]
 405:Drivers/lvgl/src/draw/sw/lv_draw_sw_arc.c ****             if(ok) {
 1038              		.loc 1 405 23 view .LVU397
 1039 03f6 0B99     		ldr	r1, [sp, #44]
 403:Drivers/lvgl/src/draw/sw/lv_draw_sw_arc.c **** 
 1040              		.loc 1 403 75 discriminator 1 view .LVU398
 1041 03f8 03FB00F2 		mul	r2, r3, r0
 403:Drivers/lvgl/src/draw/sw/lv_draw_sw_arc.c **** 
 1042              		.loc 1 403 44 discriminator 1 view .LVU399
 1043 03fc 0D9B     		ldr	r3, [sp, #52]
 405:Drivers/lvgl/src/draw/sw/lv_draw_sw_arc.c ****             if(ok) {
 1044              		.loc 1 405 23 view .LVU400
 1045 03fe 0846     		mov	r0, r1
 403:Drivers/lvgl/src/draw/sw/lv_draw_sw_arc.c **** 
 1046              		.loc 1 403 44 discriminator 1 view .LVU401
 1047 0400 03EBE233 		add	r3, r3, r2, asr #15
 405:Drivers/lvgl/src/draw/sw/lv_draw_sw_arc.c ****             if(ok) {
 1048              		.loc 1 405 23 view .LVU402
 1049 0404 5246     		mov	r2, r10
 403:Drivers/lvgl/src/draw/sw/lv_draw_sw_arc.c **** 
 1050              		.loc 1 403 29 discriminator 1 view .LVU403
 1051 0406 ADF89630 		strh	r3, [sp, #150]	@ movhi
 405:Drivers/lvgl/src/draw/sw/lv_draw_sw_arc.c ****             if(ok) {
 1052              		.loc 1 405 13 is_stmt 1 view .LVU404
 405:Drivers/lvgl/src/draw/sw/lv_draw_sw_arc.c ****             if(ok) {
 1053              		.loc 1 405 23 is_stmt 0 view .LVU405
 1054 040a FFF7FEFF 		bl	_lv_area_intersect
 1055              	.LVL82:
 406:Drivers/lvgl/src/draw/sw/lv_draw_sw_arc.c ****                 q->draw_ctx->clip_area = &quarter_area;
 1056              		.loc 1 406 13 is_stmt 1 view .LVU406
 407:Drivers/lvgl/src/draw/sw/lv_draw_sw_arc.c ****                 lv_draw_rect(q->draw_ctx, q->draw_dsc, q->draw_area);
 1057              		.loc 1 407 40 is_stmt 0 view .LVU407
 1058 040e 029B     		ldr	r3, [sp, #8]
 406:Drivers/lvgl/src/draw/sw/lv_draw_sw_arc.c ****                 q->draw_ctx->clip_area = &quarter_area;
 1059              		.loc 1 406 15 view .LVU408
 1060 0410 0028     		cmp	r0, #0
 1061 0412 40F0FC83 		bne	.L90
 1062              	.LVL83:
 1063              	.L287:
 406:Drivers/lvgl/src/draw/sw/lv_draw_sw_arc.c ****                 q->draw_ctx->clip_area = &quarter_area;
 1064              		.loc 1 406 15 view .LVU409
 1065              	.LBE115:
 428:Drivers/lvgl/src/draw/sw/lv_draw_sw_arc.c **** }
 1066              		.loc 1 428 28 view .LVU410
 1067 0416 C3F808A0 		str	r10, [r3, #8]
 1068              	.LVL84:
 428:Drivers/lvgl/src/draw/sw/lv_draw_sw_arc.c **** }
 1069              		.loc 1 428 28 view .LVU411
 1070              	.LBE114:
 1071              	.LBE113:
 161:Drivers/lvgl/src/draw/sw/lv_draw_sw_arc.c ****     }
ARM GAS  /var/folders/lp/x54gwt890xv47sdkqj1k04q40000gn/T//cc8OVz70.s 			page 38


 1072              		.loc 1 161 9 is_stmt 1 view .LVU412
 1073              	.LBB150:
 1074              	.LBI150:
 431:Drivers/lvgl/src/draw/sw/lv_draw_sw_arc.c **** {
 1075              		.loc 1 431 13 view .LVU413
 1076              	.LBB151:
 433:Drivers/lvgl/src/draw/sw/lv_draw_sw_arc.c ****     lv_area_t quarter_area;
 1077              		.loc 1 433 5 view .LVU414
 434:Drivers/lvgl/src/draw/sw/lv_draw_sw_arc.c **** 
 1078              		.loc 1 434 5 view .LVU415
 436:Drivers/lvgl/src/draw/sw/lv_draw_sw_arc.c ****         /*Small arc here*/
 1079              		.loc 1 436 5 view .LVU416
 436:Drivers/lvgl/src/draw/sw/lv_draw_sw_arc.c ****         /*Small arc here*/
 1080              		.loc 1 436 7 is_stmt 0 view .LVU417
 1081 041a 099B     		ldr	r3, [sp, #36]
 1082              	.LVL85:
 436:Drivers/lvgl/src/draw/sw/lv_draw_sw_arc.c ****         /*Small arc here*/
 1083              		.loc 1 436 7 view .LVU418
 1084 041c 032B     		cmp	r3, #3
 1085 041e 00F0F383 		beq	.L305
 479:Drivers/lvgl/src/draw/sw/lv_draw_sw_arc.c ****             (q->start_quarter == 2 && q->end_quarter == 0) ||
 1086              		.loc 1 479 10 is_stmt 1 view .LVU419
 479:Drivers/lvgl/src/draw/sw/lv_draw_sw_arc.c ****             (q->start_quarter == 2 && q->end_quarter == 0) ||
 1087              		.loc 1 479 12 is_stmt 0 view .LVU420
 1088 0422 099B     		ldr	r3, [sp, #36]
 1089 0424 022B     		cmp	r3, #2
 1090 0426 00F0A284 		beq	.L306
 1091              	.L111:
 480:Drivers/lvgl/src/draw/sw/lv_draw_sw_arc.c ****             (q->start_quarter == 1 && q->end_quarter == 0) ||
 1092              		.loc 1 480 60 discriminator 1 view .LVU421
 1093 042a 099B     		ldr	r3, [sp, #36]
 1094 042c 012B     		cmp	r3, #1
 1095 042e 40F0B080 		bne	.L108
 1096              	.L102:
 481:Drivers/lvgl/src/draw/sw/lv_draw_sw_arc.c ****             (q->start_quarter == 2 && q->end_quarter == 1)) {
 1097              		.loc 1 481 36 view .LVU422
 1098 0432 592D     		cmp	r5, #89
 1099 0434 00F2AD80 		bhi	.L108
 1100              	.LVL86:
 1101              	.L282:
 481:Drivers/lvgl/src/draw/sw/lv_draw_sw_arc.c ****             (q->start_quarter == 2 && q->end_quarter == 1)) {
 1102              		.loc 1 481 36 view .LVU423
 1103 0438 25AB     		add	r3, sp, #148
 1104 043a 0B93     		str	r3, [sp, #44]
 1105              	.LVL87:
 1106              	.L84:
 1107              	.LBB152:
 484:Drivers/lvgl/src/draw/sw/lv_draw_sw_arc.c ****         quarter_area.y1 = q->center->y - q->radius;
 1108              		.loc 1 484 9 is_stmt 1 view .LVU424
 484:Drivers/lvgl/src/draw/sw/lv_draw_sw_arc.c ****         quarter_area.y1 = q->center->y - q->radius;
 1109              		.loc 1 484 36 is_stmt 0 view .LVU425
 1110 043c B8F90030 		ldrsh	r3, [r8]
 484:Drivers/lvgl/src/draw/sw/lv_draw_sw_arc.c ****         quarter_area.y1 = q->center->y - q->radius;
 1111              		.loc 1 484 25 view .LVU426
 1112 0440 ADF89430 		strh	r3, [sp, #148]	@ movhi
 485:Drivers/lvgl/src/draw/sw/lv_draw_sw_arc.c ****         quarter_area.x2 = q->center->x + q->radius;
 1113              		.loc 1 485 9 is_stmt 1 view .LVU427
ARM GAS  /var/folders/lp/x54gwt890xv47sdkqj1k04q40000gn/T//cc8OVz70.s 			page 39


 486:Drivers/lvgl/src/draw/sw/lv_draw_sw_arc.c ****         quarter_area.y2 = q->center->y - 1;
 1114              		.loc 1 486 40 is_stmt 0 view .LVU428
 1115 0444 3B44     		add	r3, r3, r7
 486:Drivers/lvgl/src/draw/sw/lv_draw_sw_arc.c ****         quarter_area.y2 = q->center->y - 1;
 1116              		.loc 1 486 25 view .LVU429
 1117 0446 ADF89830 		strh	r3, [sp, #152]	@ movhi
 485:Drivers/lvgl/src/draw/sw/lv_draw_sw_arc.c ****         quarter_area.x2 = q->center->x + q->radius;
 1118              		.loc 1 485 36 view .LVU430
 1119 044a B8F80230 		ldrh	r3, [r8, #2]
 485:Drivers/lvgl/src/draw/sw/lv_draw_sw_arc.c ****         quarter_area.x2 = q->center->x + q->radius;
 1120              		.loc 1 485 40 view .LVU431
 1121 044e D91B     		subs	r1, r3, r7
 485:Drivers/lvgl/src/draw/sw/lv_draw_sw_arc.c ****         quarter_area.x2 = q->center->x + q->radius;
 1122              		.loc 1 485 25 view .LVU432
 1123 0450 ADF89610 		strh	r1, [sp, #150]	@ movhi
 486:Drivers/lvgl/src/draw/sw/lv_draw_sw_arc.c ****         quarter_area.y2 = q->center->y - 1;
 1124              		.loc 1 486 9 is_stmt 1 view .LVU433
 487:Drivers/lvgl/src/draw/sw/lv_draw_sw_arc.c **** 
 1125              		.loc 1 487 9 view .LVU434
 489:Drivers/lvgl/src/draw/sw/lv_draw_sw_arc.c ****         if(ok) {
 1126              		.loc 1 489 19 is_stmt 0 view .LVU435
 1127 0454 0B99     		ldr	r1, [sp, #44]
 487:Drivers/lvgl/src/draw/sw/lv_draw_sw_arc.c **** 
 1128              		.loc 1 487 40 view .LVU436
 1129 0456 013B     		subs	r3, r3, #1
 489:Drivers/lvgl/src/draw/sw/lv_draw_sw_arc.c ****         if(ok) {
 1130              		.loc 1 489 19 view .LVU437
 1131 0458 5246     		mov	r2, r10
 1132 045a 0846     		mov	r0, r1
 487:Drivers/lvgl/src/draw/sw/lv_draw_sw_arc.c **** 
 1133              		.loc 1 487 25 view .LVU438
 1134 045c ADF89A30 		strh	r3, [sp, #154]	@ movhi
 489:Drivers/lvgl/src/draw/sw/lv_draw_sw_arc.c ****         if(ok) {
 1135              		.loc 1 489 9 is_stmt 1 view .LVU439
 489:Drivers/lvgl/src/draw/sw/lv_draw_sw_arc.c ****         if(ok) {
 1136              		.loc 1 489 19 is_stmt 0 view .LVU440
 1137 0460 FFF7FEFF 		bl	_lv_area_intersect
 1138              	.LVL88:
 490:Drivers/lvgl/src/draw/sw/lv_draw_sw_arc.c ****             q->draw_ctx->clip_area = &quarter_area;
 1139              		.loc 1 490 9 is_stmt 1 view .LVU441
 490:Drivers/lvgl/src/draw/sw/lv_draw_sw_arc.c ****             q->draw_ctx->clip_area = &quarter_area;
 1140              		.loc 1 490 11 is_stmt 0 view .LVU442
 1141 0464 0028     		cmp	r0, #0
 1142 0466 00F09480 		beq	.L108
 1143              	.LVL89:
 1144              	.L107:
 490:Drivers/lvgl/src/draw/sw/lv_draw_sw_arc.c ****             q->draw_ctx->clip_area = &quarter_area;
 1145              		.loc 1 490 11 view .LVU443
 1146              	.LBE152:
 1147              	.LBB153:
 446:Drivers/lvgl/src/draw/sw/lv_draw_sw_arc.c ****             lv_draw_rect(q->draw_ctx, q->draw_dsc, q->draw_area);
 1148              		.loc 1 446 13 is_stmt 1 view .LVU444
 446:Drivers/lvgl/src/draw/sw/lv_draw_sw_arc.c ****             lv_draw_rect(q->draw_ctx, q->draw_dsc, q->draw_area);
 1149              		.loc 1 446 36 is_stmt 0 view .LVU445
 1150 046a 0298     		ldr	r0, [sp, #8]
 1151 046c 0B9B     		ldr	r3, [sp, #44]
 1152 046e 8360     		str	r3, [r0, #8]
ARM GAS  /var/folders/lp/x54gwt890xv47sdkqj1k04q40000gn/T//cc8OVz70.s 			page 40


 447:Drivers/lvgl/src/draw/sw/lv_draw_sw_arc.c ****         }
 1153              		.loc 1 447 13 is_stmt 1 view .LVU446
 1154 0470 11AA     		add	r2, sp, #68
 1155 0472 2BA9     		add	r1, sp, #172
 1156 0474 FFF7FEFF 		bl	lv_draw_rect
 1157              	.LVL90:
 1158 0478 8BE0     		b	.L108
 1159              	.LVL91:
 1160              	.L298:
 447:Drivers/lvgl/src/draw/sw/lv_draw_sw_arc.c ****         }
 1161              		.loc 1 447 13 is_stmt 0 view .LVU447
 1162              	.LBE153:
 1163              	.LBE151:
 1164              	.LBE150:
 1165              	.LBE55:
 1166 047a 0123     		movs	r3, #1
 1167 047c 0693     		str	r3, [sp, #24]
 1168              	.LVL92:
 127:Drivers/lvgl/src/draw/sw/lv_draw_sw_arc.c ****     while(end_angle >= 360) end_angle -= 360;
 1169              		.loc 1 127 23 is_stmt 1 discriminator 1 view .LVU448
 1170 047e 4BE6     		b	.L266
 1171              	.LVL93:
 1172              	.L299:
 1173              	.LBB251:
 1174              	.LBB183:
 1175              	.LBB70:
 1176              	.LBB58:
 238:Drivers/lvgl/src/draw/sw/lv_draw_sw_arc.c **** 
 1177              		.loc 1 238 72 is_stmt 0 view .LVU449
 1178 0480 04F15A03 		add	r3, r4, #90
 237:Drivers/lvgl/src/draw/sw/lv_draw_sw_arc.c ****         quarter_area.x2 = q->center->x + ((lv_trigo_sin(q->start_angle + 90) * (q->radius)) >> LV_T
 1179              		.loc 1 237 86 discriminator 1 view .LVU450
 1180 0484 A1EB0901 		sub	r1, r1, r9
 1181              	.LBE58:
 235:Drivers/lvgl/src/draw/sw/lv_draw_sw_arc.c ****         /*Small arc here*/
 1182              		.loc 1 235 30 discriminator 1 view .LVU451
 1183 0488 592D     		cmp	r5, #89
 1184              	.LBB59:
 237:Drivers/lvgl/src/draw/sw/lv_draw_sw_arc.c ****         quarter_area.x2 = q->center->x + ((lv_trigo_sin(q->start_angle + 90) * (q->radius)) >> LV_T
 1185              		.loc 1 237 36 view .LVU452
 1186 048a B8F80220 		ldrh	r2, [r8, #2]
 237:Drivers/lvgl/src/draw/sw/lv_draw_sw_arc.c ****         quarter_area.x2 = q->center->x + ((lv_trigo_sin(q->start_angle + 90) * (q->radius)) >> LV_T
 1187              		.loc 1 237 86 discriminator 1 view .LVU453
 1188 048e 0D91     		str	r1, [sp, #52]
 238:Drivers/lvgl/src/draw/sw/lv_draw_sw_arc.c **** 
 1189              		.loc 1 238 44 view .LVU454
 1190 0490 1BB2     		sxth	r3, r3
 1191              	.LBE59:
 235:Drivers/lvgl/src/draw/sw/lv_draw_sw_arc.c ****         /*Small arc here*/
 1192              		.loc 1 235 30 discriminator 1 view .LVU455
 1193 0492 02D8     		bhi	.L28
 235:Drivers/lvgl/src/draw/sw/lv_draw_sw_arc.c ****         /*Small arc here*/
 1194              		.loc 1 235 53 discriminator 2 view .LVU456
 1195 0494 AC42     		cmp	r4, r5
 1196 0496 C0F09482 		bcc	.L307
 1197              	.L28:
 1198              	.LBB60:
ARM GAS  /var/folders/lp/x54gwt890xv47sdkqj1k04q40000gn/T//cc8OVz70.s 			page 41


 252:Drivers/lvgl/src/draw/sw/lv_draw_sw_arc.c ****             quarter_area.y2 = q->center->y + q->radius;
 1199              		.loc 1 252 13 is_stmt 1 view .LVU457
 252:Drivers/lvgl/src/draw/sw/lv_draw_sw_arc.c ****             quarter_area.y2 = q->center->y + q->radius;
 1200              		.loc 1 252 29 is_stmt 0 view .LVU458
 1201 049a B8F80010 		ldrh	r1, [r8]
 1202 049e ADF89410 		strh	r1, [sp, #148]	@ movhi
 253:Drivers/lvgl/src/draw/sw/lv_draw_sw_arc.c **** 
 1203              		.loc 1 253 13 is_stmt 1 view .LVU459
 255:Drivers/lvgl/src/draw/sw/lv_draw_sw_arc.c ****             quarter_area.x2 = q->center->x + ((lv_trigo_sin(q->start_angle + 90) * (q->radius)) >> 
 1204              		.loc 1 255 48 is_stmt 0 view .LVU460
 1205 04a2 0898     		ldr	r0, [sp, #32]
 1206 04a4 0E93     		str	r3, [sp, #56]
 253:Drivers/lvgl/src/draw/sw/lv_draw_sw_arc.c **** 
 1207              		.loc 1 253 44 view .LVU461
 1208 04a6 B918     		adds	r1, r7, r2
 1209 04a8 0B92     		str	r2, [sp, #44]
 253:Drivers/lvgl/src/draw/sw/lv_draw_sw_arc.c **** 
 1210              		.loc 1 253 29 view .LVU462
 1211 04aa ADF89A10 		strh	r1, [sp, #154]	@ movhi
 255:Drivers/lvgl/src/draw/sw/lv_draw_sw_arc.c ****             quarter_area.x2 = q->center->x + ((lv_trigo_sin(q->start_angle + 90) * (q->radius)) >> 
 1212              		.loc 1 255 13 is_stmt 1 view .LVU463
 255:Drivers/lvgl/src/draw/sw/lv_draw_sw_arc.c ****             quarter_area.x2 = q->center->x + ((lv_trigo_sin(q->start_angle + 90) * (q->radius)) >> 
 1213              		.loc 1 255 48 is_stmt 0 view .LVU464
 1214 04ae FFF7FEFF 		bl	lv_trigo_sin
 1215              	.LVL94:
 255:Drivers/lvgl/src/draw/sw/lv_draw_sw_arc.c ****             quarter_area.x2 = q->center->x + ((lv_trigo_sin(q->start_angle + 90) * (q->radius)) >> 
 1216              		.loc 1 255 77 discriminator 1 view .LVU465
 1217 04b2 0D9B     		ldr	r3, [sp, #52]
 255:Drivers/lvgl/src/draw/sw/lv_draw_sw_arc.c ****             quarter_area.x2 = q->center->x + ((lv_trigo_sin(q->start_angle + 90) * (q->radius)) >> 
 1218              		.loc 1 255 44 discriminator 1 view .LVU466
 1219 04b4 0B9A     		ldr	r2, [sp, #44]
 255:Drivers/lvgl/src/draw/sw/lv_draw_sw_arc.c ****             quarter_area.x2 = q->center->x + ((lv_trigo_sin(q->start_angle + 90) * (q->radius)) >> 
 1220              		.loc 1 255 77 discriminator 1 view .LVU467
 1221 04b6 03FB00F1 		mul	r1, r3, r0
 256:Drivers/lvgl/src/draw/sw/lv_draw_sw_arc.c **** 
 1222              		.loc 1 256 48 view .LVU468
 1223 04ba 0E9B     		ldr	r3, [sp, #56]
 255:Drivers/lvgl/src/draw/sw/lv_draw_sw_arc.c ****             quarter_area.x2 = q->center->x + ((lv_trigo_sin(q->start_angle + 90) * (q->radius)) >> 
 1224              		.loc 1 255 44 discriminator 1 view .LVU469
 1225 04bc 02EBE132 		add	r2, r2, r1, asr #15
 256:Drivers/lvgl/src/draw/sw/lv_draw_sw_arc.c **** 
 1226              		.loc 1 256 48 view .LVU470
 1227 04c0 1846     		mov	r0, r3
 256:Drivers/lvgl/src/draw/sw/lv_draw_sw_arc.c **** 
 1228              		.loc 1 256 40 view .LVU471
 1229 04c2 B8F80030 		ldrh	r3, [r8]
 255:Drivers/lvgl/src/draw/sw/lv_draw_sw_arc.c ****             quarter_area.x2 = q->center->x + ((lv_trigo_sin(q->start_angle + 90) * (q->radius)) >> 
 1230              		.loc 1 255 29 discriminator 1 view .LVU472
 1231 04c6 ADF89620 		strh	r2, [sp, #150]	@ movhi
 256:Drivers/lvgl/src/draw/sw/lv_draw_sw_arc.c **** 
 1232              		.loc 1 256 13 is_stmt 1 view .LVU473
 256:Drivers/lvgl/src/draw/sw/lv_draw_sw_arc.c **** 
 1233              		.loc 1 256 40 is_stmt 0 view .LVU474
 1234 04ca 0B93     		str	r3, [sp, #44]
 256:Drivers/lvgl/src/draw/sw/lv_draw_sw_arc.c **** 
 1235              		.loc 1 256 48 view .LVU475
 1236 04cc FFF7FEFF 		bl	lv_trigo_sin
ARM GAS  /var/folders/lp/x54gwt890xv47sdkqj1k04q40000gn/T//cc8OVz70.s 			page 42


 1237              	.LVL95:
 256:Drivers/lvgl/src/draw/sw/lv_draw_sw_arc.c **** 
 1238              		.loc 1 256 82 discriminator 1 view .LVU476
 1239 04d0 0C9B     		ldr	r3, [sp, #48]
 1240 04d2 00FB03F2 		mul	r2, r0, r3
 256:Drivers/lvgl/src/draw/sw/lv_draw_sw_arc.c **** 
 1241              		.loc 1 256 44 discriminator 1 view .LVU477
 1242 04d6 0B9B     		ldr	r3, [sp, #44]
 1243 04d8 03EBE233 		add	r3, r3, r2, asr #15
 256:Drivers/lvgl/src/draw/sw/lv_draw_sw_arc.c **** 
 1244              		.loc 1 256 29 discriminator 1 view .LVU478
 1245 04dc ADF89830 		strh	r3, [sp, #152]	@ movhi
 258:Drivers/lvgl/src/draw/sw/lv_draw_sw_arc.c ****             if(ok) {
 1246              		.loc 1 258 13 is_stmt 1 view .LVU479
 258:Drivers/lvgl/src/draw/sw/lv_draw_sw_arc.c ****             if(ok) {
 1247              		.loc 1 258 23 is_stmt 0 view .LVU480
 1248 04e0 25AB     		add	r3, sp, #148
 1249 04e2 1946     		mov	r1, r3
 1250 04e4 5246     		mov	r2, r10
 1251 04e6 1846     		mov	r0, r3
 1252 04e8 0B93     		str	r3, [sp, #44]
 1253 04ea FFF7FEFF 		bl	_lv_area_intersect
 1254              	.LVL96:
 259:Drivers/lvgl/src/draw/sw/lv_draw_sw_arc.c ****                 q->draw_ctx->clip_area = &quarter_area;
 1255              		.loc 1 259 13 is_stmt 1 view .LVU481
 259:Drivers/lvgl/src/draw/sw/lv_draw_sw_arc.c ****                 q->draw_ctx->clip_area = &quarter_area;
 1256              		.loc 1 259 15 is_stmt 0 view .LVU482
 1257 04ee 0028     		cmp	r0, #0
 1258 04f0 40F02983 		bne	.L308
 1259              	.LBE60:
 264:Drivers/lvgl/src/draw/sw/lv_draw_sw_arc.c ****             quarter_area.x2 = q->center->x + q->radius;
 1260              		.loc 1 264 9 is_stmt 1 view .LVU483
 264:Drivers/lvgl/src/draw/sw/lv_draw_sw_arc.c ****             quarter_area.x2 = q->center->x + q->radius;
 1261              		.loc 1 264 11 is_stmt 0 view .LVU484
 1262 04f4 592D     		cmp	r5, #89
 1263 04f6 40F2FB80 		bls	.L35
 1264              	.LVL97:
 1265              	.L269:
 294:Drivers/lvgl/src/draw/sw/lv_draw_sw_arc.c **** }
 1266              		.loc 1 294 5 is_stmt 1 view .LVU485
 294:Drivers/lvgl/src/draw/sw/lv_draw_sw_arc.c **** }
 1267              		.loc 1 294 28 is_stmt 0 view .LVU486
 1268 04fa 029B     		ldr	r3, [sp, #8]
 1269 04fc C3F808A0 		str	r10, [r3, #8]
 1270              	.LVL98:
 294:Drivers/lvgl/src/draw/sw/lv_draw_sw_arc.c **** }
 1271              		.loc 1 294 28 view .LVU487
 1272              	.LBE70:
 1273              	.LBE183:
 159:Drivers/lvgl/src/draw/sw/lv_draw_sw_arc.c ****         draw_quarter_2(&q_dsc);
 1274              		.loc 1 159 9 is_stmt 1 view .LVU488
 1275              	.LBB184:
 297:Drivers/lvgl/src/draw/sw/lv_draw_sw_arc.c **** {
 1276              		.loc 1 297 13 view .LVU489
 1277              	.LBB97:
 299:Drivers/lvgl/src/draw/sw/lv_draw_sw_arc.c ****     lv_area_t quarter_area;
 1278              		.loc 1 299 5 view .LVU490
ARM GAS  /var/folders/lp/x54gwt890xv47sdkqj1k04q40000gn/T//cc8OVz70.s 			page 43


 300:Drivers/lvgl/src/draw/sw/lv_draw_sw_arc.c **** 
 1279              		.loc 1 300 5 view .LVU491
 302:Drivers/lvgl/src/draw/sw/lv_draw_sw_arc.c ****         /*Small arc here*/
 1280              		.loc 1 302 5 view .LVU492
 316:Drivers/lvgl/src/draw/sw/lv_draw_sw_arc.c ****         /*Start and/or end arcs here*/
 1281              		.loc 1 316 10 view .LVU493
 316:Drivers/lvgl/src/draw/sw/lv_draw_sw_arc.c ****         /*Start and/or end arcs here*/
 1282              		.loc 1 316 35 is_stmt 0 discriminator 1 view .LVU494
 1283 0500 0A9B     		ldr	r3, [sp, #40]
 1284              	.LVL99:
 316:Drivers/lvgl/src/draw/sw/lv_draw_sw_arc.c ****         /*Start and/or end arcs here*/
 1285              		.loc 1 316 35 discriminator 1 view .LVU495
 1286 0502 012B     		cmp	r3, #1
 1287 0504 40F04481 		bne	.L37
 1288              	.LVL100:
 1289              	.L36:
 1290              	.LBB87:
 332:Drivers/lvgl/src/draw/sw/lv_draw_sw_arc.c ****             quarter_area.y2 = q->center->y + q->radius;
 1291              		.loc 1 332 13 is_stmt 1 view .LVU496
 332:Drivers/lvgl/src/draw/sw/lv_draw_sw_arc.c ****             quarter_area.y2 = q->center->y + q->radius;
 1292              		.loc 1 332 44 is_stmt 0 view .LVU497
 1293 0508 B8F80030 		ldrh	r3, [r8]
 335:Drivers/lvgl/src/draw/sw/lv_draw_sw_arc.c ****             quarter_area.x1 = q->center->x + ((lv_trigo_sin(q->end_angle + 90) * (q->radius)) >> LV
 1294              		.loc 1 335 48 view .LVU498
 1295 050c 0798     		ldr	r0, [sp, #28]
 332:Drivers/lvgl/src/draw/sw/lv_draw_sw_arc.c ****             quarter_area.y2 = q->center->y + q->radius;
 1296              		.loc 1 332 44 view .LVU499
 1297 050e 013B     		subs	r3, r3, #1
 332:Drivers/lvgl/src/draw/sw/lv_draw_sw_arc.c ****             quarter_area.y2 = q->center->y + q->radius;
 1298              		.loc 1 332 29 view .LVU500
 1299 0510 ADF89830 		strh	r3, [sp, #152]	@ movhi
 333:Drivers/lvgl/src/draw/sw/lv_draw_sw_arc.c **** 
 1300              		.loc 1 333 13 is_stmt 1 view .LVU501
 333:Drivers/lvgl/src/draw/sw/lv_draw_sw_arc.c **** 
 1301              		.loc 1 333 40 is_stmt 0 view .LVU502
 1302 0514 B8F80230 		ldrh	r3, [r8, #2]
 333:Drivers/lvgl/src/draw/sw/lv_draw_sw_arc.c **** 
 1303              		.loc 1 333 44 view .LVU503
 1304 0518 0E93     		str	r3, [sp, #56]
 1305 051a FA18     		adds	r2, r7, r3
 333:Drivers/lvgl/src/draw/sw/lv_draw_sw_arc.c **** 
 1306              		.loc 1 333 29 view .LVU504
 1307 051c ADF89A20 		strh	r2, [sp, #154]	@ movhi
 335:Drivers/lvgl/src/draw/sw/lv_draw_sw_arc.c ****             quarter_area.x1 = q->center->x + ((lv_trigo_sin(q->end_angle + 90) * (q->radius)) >> LV
 1308              		.loc 1 335 13 is_stmt 1 view .LVU505
 335:Drivers/lvgl/src/draw/sw/lv_draw_sw_arc.c ****             quarter_area.x1 = q->center->x + ((lv_trigo_sin(q->end_angle + 90) * (q->radius)) >> LV
 1309              		.loc 1 335 48 is_stmt 0 view .LVU506
 1310 0520 FFF7FEFF 		bl	lv_trigo_sin
 1311              	.LVL101:
 335:Drivers/lvgl/src/draw/sw/lv_draw_sw_arc.c ****             quarter_area.x1 = q->center->x + ((lv_trigo_sin(q->end_angle + 90) * (q->radius)) >> LV
 1312              		.loc 1 335 75 discriminator 1 view .LVU507
 1313 0524 0D99     		ldr	r1, [sp, #52]
 335:Drivers/lvgl/src/draw/sw/lv_draw_sw_arc.c ****             quarter_area.x1 = q->center->x + ((lv_trigo_sin(q->end_angle + 90) * (q->radius)) >> LV
 1314              		.loc 1 335 44 discriminator 1 view .LVU508
 1315 0526 0E9B     		ldr	r3, [sp, #56]
 335:Drivers/lvgl/src/draw/sw/lv_draw_sw_arc.c ****             quarter_area.x1 = q->center->x + ((lv_trigo_sin(q->end_angle + 90) * (q->radius)) >> LV
 1316              		.loc 1 335 75 discriminator 1 view .LVU509
ARM GAS  /var/folders/lp/x54gwt890xv47sdkqj1k04q40000gn/T//cc8OVz70.s 			page 44


 1317 0528 01FB00F2 		mul	r2, r1, r0
 335:Drivers/lvgl/src/draw/sw/lv_draw_sw_arc.c ****             quarter_area.x1 = q->center->x + ((lv_trigo_sin(q->end_angle + 90) * (q->radius)) >> LV
 1318              		.loc 1 335 44 discriminator 1 view .LVU510
 1319 052c 03EBE233 		add	r3, r3, r2, asr #15
 335:Drivers/lvgl/src/draw/sw/lv_draw_sw_arc.c ****             quarter_area.x1 = q->center->x + ((lv_trigo_sin(q->end_angle + 90) * (q->radius)) >> LV
 1320              		.loc 1 335 29 discriminator 1 view .LVU511
 1321 0530 ADF89630 		strh	r3, [sp, #150]	@ movhi
 336:Drivers/lvgl/src/draw/sw/lv_draw_sw_arc.c **** 
 1322              		.loc 1 336 13 is_stmt 1 view .LVU512
 336:Drivers/lvgl/src/draw/sw/lv_draw_sw_arc.c **** 
 1323              		.loc 1 336 74 is_stmt 0 view .LVU513
 1324 0534 05F15A00 		add	r0, r5, #90
 336:Drivers/lvgl/src/draw/sw/lv_draw_sw_arc.c **** 
 1325              		.loc 1 336 40 view .LVU514
 1326 0538 B8F80030 		ldrh	r3, [r8]
 336:Drivers/lvgl/src/draw/sw/lv_draw_sw_arc.c **** 
 1327              		.loc 1 336 48 view .LVU515
 1328 053c 00B2     		sxth	r0, r0
 335:Drivers/lvgl/src/draw/sw/lv_draw_sw_arc.c ****             quarter_area.x1 = q->center->x + ((lv_trigo_sin(q->end_angle + 90) * (q->radius)) >> LV
 1329              		.loc 1 335 88 discriminator 1 view .LVU516
 1330 053e CDE90E13 		strd	r1, r3, [sp, #56]
 336:Drivers/lvgl/src/draw/sw/lv_draw_sw_arc.c **** 
 1331              		.loc 1 336 48 view .LVU517
 1332 0542 FFF7FEFF 		bl	lv_trigo_sin
 1333              	.LVL102:
 336:Drivers/lvgl/src/draw/sw/lv_draw_sw_arc.c **** 
 1334              		.loc 1 336 80 discriminator 1 view .LVU518
 1335 0546 0C9B     		ldr	r3, [sp, #48]
 338:Drivers/lvgl/src/draw/sw/lv_draw_sw_arc.c ****             if(ok) {
 1336              		.loc 1 338 23 view .LVU519
 1337 0548 0B99     		ldr	r1, [sp, #44]
 336:Drivers/lvgl/src/draw/sw/lv_draw_sw_arc.c **** 
 1338              		.loc 1 336 80 discriminator 1 view .LVU520
 1339 054a 03FB00F2 		mul	r2, r3, r0
 336:Drivers/lvgl/src/draw/sw/lv_draw_sw_arc.c **** 
 1340              		.loc 1 336 44 discriminator 1 view .LVU521
 1341 054e 0F9B     		ldr	r3, [sp, #60]
 338:Drivers/lvgl/src/draw/sw/lv_draw_sw_arc.c ****             if(ok) {
 1342              		.loc 1 338 23 view .LVU522
 1343 0550 0846     		mov	r0, r1
 336:Drivers/lvgl/src/draw/sw/lv_draw_sw_arc.c **** 
 1344              		.loc 1 336 44 discriminator 1 view .LVU523
 1345 0552 03EBE233 		add	r3, r3, r2, asr #15
 338:Drivers/lvgl/src/draw/sw/lv_draw_sw_arc.c ****             if(ok) {
 1346              		.loc 1 338 23 view .LVU524
 1347 0556 5246     		mov	r2, r10
 336:Drivers/lvgl/src/draw/sw/lv_draw_sw_arc.c **** 
 1348              		.loc 1 336 29 discriminator 1 view .LVU525
 1349 0558 ADF89430 		strh	r3, [sp, #148]	@ movhi
 338:Drivers/lvgl/src/draw/sw/lv_draw_sw_arc.c ****             if(ok) {
 1350              		.loc 1 338 13 is_stmt 1 view .LVU526
 338:Drivers/lvgl/src/draw/sw/lv_draw_sw_arc.c ****             if(ok) {
 1351              		.loc 1 338 23 is_stmt 0 view .LVU527
 1352 055c FFF7FEFF 		bl	_lv_area_intersect
 1353              	.LVL103:
 339:Drivers/lvgl/src/draw/sw/lv_draw_sw_arc.c ****                 q->draw_ctx->clip_area = &quarter_area;
 1354              		.loc 1 339 13 is_stmt 1 view .LVU528
ARM GAS  /var/folders/lp/x54gwt890xv47sdkqj1k04q40000gn/T//cc8OVz70.s 			page 45


 340:Drivers/lvgl/src/draw/sw/lv_draw_sw_arc.c ****                 lv_draw_rect(q->draw_ctx, q->draw_dsc, q->draw_area);
 1355              		.loc 1 340 40 is_stmt 0 view .LVU529
 1356 0560 029B     		ldr	r3, [sp, #8]
 339:Drivers/lvgl/src/draw/sw/lv_draw_sw_arc.c ****                 q->draw_ctx->clip_area = &quarter_area;
 1357              		.loc 1 339 15 view .LVU530
 1358 0562 0028     		cmp	r0, #0
 1359 0564 40F03F83 		bne	.L69
 1360              	.LVL104:
 1361              	.L291:
 339:Drivers/lvgl/src/draw/sw/lv_draw_sw_arc.c ****                 q->draw_ctx->clip_area = &quarter_area;
 1362              		.loc 1 339 15 view .LVU531
 1363              	.LBE87:
 361:Drivers/lvgl/src/draw/sw/lv_draw_sw_arc.c **** }
 1364              		.loc 1 361 28 view .LVU532
 1365 0568 C3F808A0 		str	r10, [r3, #8]
 1366              	.LVL105:
 361:Drivers/lvgl/src/draw/sw/lv_draw_sw_arc.c **** }
 1367              		.loc 1 361 28 view .LVU533
 1368              	.LBE97:
 1369              	.LBE184:
 160:Drivers/lvgl/src/draw/sw/lv_draw_sw_arc.c ****         draw_quarter_3(&q_dsc);
 1370              		.loc 1 160 9 is_stmt 1 view .LVU534
 1371              	.LBB185:
 364:Drivers/lvgl/src/draw/sw/lv_draw_sw_arc.c **** {
 1372              		.loc 1 364 13 view .LVU535
 1373              	.LBB128:
 366:Drivers/lvgl/src/draw/sw/lv_draw_sw_arc.c ****     lv_area_t quarter_area;
 1374              		.loc 1 366 5 view .LVU536
 367:Drivers/lvgl/src/draw/sw/lv_draw_sw_arc.c **** 
 1375              		.loc 1 367 5 view .LVU537
 369:Drivers/lvgl/src/draw/sw/lv_draw_sw_arc.c ****         /*Small arc here*/
 1376              		.loc 1 369 5 view .LVU538
 369:Drivers/lvgl/src/draw/sw/lv_draw_sw_arc.c ****         /*Small arc here*/
 1377              		.loc 1 369 7 is_stmt 0 view .LVU539
 1378 056c 099B     		ldr	r3, [sp, #36]
 1379              	.LVL106:
 369:Drivers/lvgl/src/draw/sw/lv_draw_sw_arc.c ****         /*Small arc here*/
 1380              		.loc 1 369 7 view .LVU540
 1381 056e 022B     		cmp	r3, #2
 1382 0570 00F03C81 		beq	.L82
 412:Drivers/lvgl/src/draw/sw/lv_draw_sw_arc.c ****             (q->start_quarter == 0 && q->end_quarter == 3) ||
 1383              		.loc 1 412 10 is_stmt 1 view .LVU541
 412:Drivers/lvgl/src/draw/sw/lv_draw_sw_arc.c ****             (q->start_quarter == 0 && q->end_quarter == 3) ||
 1384              		.loc 1 412 12 is_stmt 0 view .LVU542
 1385 0574 099B     		ldr	r3, [sp, #36]
 1386 0576 012B     		cmp	r3, #1
 1387 0578 00F00084 		beq	.L94
 412:Drivers/lvgl/src/draw/sw/lv_draw_sw_arc.c ****             (q->start_quarter == 0 && q->end_quarter == 3) ||
 1388              		.loc 1 412 108 discriminator 5 view .LVU543
 1389 057c 592C     		cmp	r4, #89
 1390 057e 00F20F82 		bhi	.L77
 1391              	.LVL107:
 1392              	.L74:
 428:Drivers/lvgl/src/draw/sw/lv_draw_sw_arc.c **** }
 1393              		.loc 1 428 5 is_stmt 1 view .LVU544
 428:Drivers/lvgl/src/draw/sw/lv_draw_sw_arc.c **** }
 1394              		.loc 1 428 28 is_stmt 0 view .LVU545
ARM GAS  /var/folders/lp/x54gwt890xv47sdkqj1k04q40000gn/T//cc8OVz70.s 			page 46


 1395 0582 029B     		ldr	r3, [sp, #8]
 1396 0584 C3F808A0 		str	r10, [r3, #8]
 1397              	.LBE128:
 1398              	.LBE185:
 161:Drivers/lvgl/src/draw/sw/lv_draw_sw_arc.c ****     }
 1399              		.loc 1 161 9 is_stmt 1 view .LVU546
 1400              	.LVL108:
 1401              	.LBB186:
 431:Drivers/lvgl/src/draw/sw/lv_draw_sw_arc.c **** {
 1402              		.loc 1 431 13 view .LVU547
 1403              	.LBB164:
 433:Drivers/lvgl/src/draw/sw/lv_draw_sw_arc.c ****     lv_area_t quarter_area;
 1404              		.loc 1 433 5 view .LVU548
 434:Drivers/lvgl/src/draw/sw/lv_draw_sw_arc.c **** 
 1405              		.loc 1 434 5 view .LVU549
 436:Drivers/lvgl/src/draw/sw/lv_draw_sw_arc.c ****         /*Small arc here*/
 1406              		.loc 1 436 5 view .LVU550
 450:Drivers/lvgl/src/draw/sw/lv_draw_sw_arc.c ****         /*Start and/or end arcs here*/
 1407              		.loc 1 450 10 view .LVU551
 479:Drivers/lvgl/src/draw/sw/lv_draw_sw_arc.c ****             (q->start_quarter == 2 && q->end_quarter == 0) ||
 1408              		.loc 1 479 10 view .LVU552
 479:Drivers/lvgl/src/draw/sw/lv_draw_sw_arc.c ****             (q->start_quarter == 2 && q->end_quarter == 0) ||
 1409              		.loc 1 479 12 is_stmt 0 view .LVU553
 1410 0588 DDE90932 		ldrd	r3, r2, [sp, #36]
 1411              	.LVL109:
 479:Drivers/lvgl/src/draw/sw/lv_draw_sw_arc.c ****             (q->start_quarter == 2 && q->end_quarter == 0) ||
 1412              		.loc 1 479 12 view .LVU554
 1413 058c 9342     		cmp	r3, r2
 1414 058e 00F06C82 		beq	.L80
 1415              	.LVL110:
 1416              	.L108:
 496:Drivers/lvgl/src/draw/sw/lv_draw_sw_arc.c **** }
 1417              		.loc 1 496 5 is_stmt 1 view .LVU555
 496:Drivers/lvgl/src/draw/sw/lv_draw_sw_arc.c **** }
 1418              		.loc 1 496 28 is_stmt 0 view .LVU556
 1419 0592 029B     		ldr	r3, [sp, #8]
 1420 0594 C3F808A0 		str	r10, [r3, #8]
 1421              	.LBE164:
 1422              	.LBE186:
 1423              	.LBE251:
 144:Drivers/lvgl/src/draw/sw/lv_draw_sw_arc.c ****         /*Handle each quarter individually and skip which is empty*/
 1424              		.loc 1 144 74 view .LVU557
 1425 0598 EFE5     		b	.L113
 1426              	.LVL111:
 1427              	.L125:
 113:Drivers/lvgl/src/draw/sw/lv_draw_sw_arc.c ****         lv_draw_rect(draw_ctx, &cir_dsc, &area_out);
 1428              		.loc 1 113 9 is_stmt 1 view .LVU558
 113:Drivers/lvgl/src/draw/sw/lv_draw_sw_arc.c ****         lv_draw_rect(draw_ctx, &cir_dsc, &area_out);
 1429              		.loc 1 113 24 is_stmt 0 view .LVU559
 1430 059a 47F6FF73 		movw	r3, #32767
 114:Drivers/lvgl/src/draw/sw/lv_draw_sw_arc.c **** 
 1431              		.loc 1 114 9 view .LVU560
 1432 059e 0298     		ldr	r0, [sp, #8]
 113:Drivers/lvgl/src/draw/sw/lv_draw_sw_arc.c ****         lv_draw_rect(draw_ctx, &cir_dsc, &area_out);
 1433              		.loc 1 113 24 view .LVU561
 1434 05a0 ADF8AC30 		strh	r3, [sp, #172]	@ movhi
 114:Drivers/lvgl/src/draw/sw/lv_draw_sw_arc.c **** 
ARM GAS  /var/folders/lp/x54gwt890xv47sdkqj1k04q40000gn/T//cc8OVz70.s 			page 47


 1435              		.loc 1 114 9 is_stmt 1 view .LVU562
 1436 05a4 11AA     		add	r2, sp, #68
 1437 05a6 2BA9     		add	r1, sp, #172
 1438 05a8 FFF7FEFF 		bl	lv_draw_rect
 1439              	.LVL112:
 116:Drivers/lvgl/src/draw/sw/lv_draw_sw_arc.c ****         if(mask_in_id != LV_MASK_ID_INV) lv_draw_mask_remove_id(mask_in_id);
 1440              		.loc 1 116 9 view .LVU563
 1441 05ac 0398     		ldr	r0, [sp, #12]
 1442 05ae FFF7FEFF 		bl	lv_draw_mask_remove_id
 1443              	.LVL113:
 117:Drivers/lvgl/src/draw/sw/lv_draw_sw_arc.c **** 
 1444              		.loc 1 117 9 view .LVU564
 119:Drivers/lvgl/src/draw/sw/lv_draw_sw_arc.c ****         if(mask_in_param_valid) {
 1445              		.loc 1 119 9 view .LVU565
 1446 05b2 5846     		mov	r0, fp
 1447 05b4 FFF7FEFF 		bl	lv_draw_mask_free_param
 1448              	.LVL114:
 120:Drivers/lvgl/src/draw/sw/lv_draw_sw_arc.c ****             lv_draw_mask_free_param(&mask_in_param);
 1449              		.loc 1 120 9 view .LVU566
 1450 05b8 4AE6     		b	.L9
 1451              	.L321:
 1452 05ba 00BF     		.align	2
 1453              	.L320:
 1454 05bc B7600BB6 		.word	-1240768329
 1455              	.LVL115:
 1456              	.L297:
 1457              	.LBB252:
 1458              	.LBB53:
 204:Drivers/lvgl/src/draw/sw/lv_draw_sw_arc.c ****             int16_t mask_end_id = lv_draw_mask_add(&mask_end_param, NULL);
 1459              		.loc 1 204 13 view .LVU567
 1460 05c0 15A9     		add	r1, sp, #84
 1461 05c2 0023     		movs	r3, #0
 1462 05c4 47F6FF72 		movw	r2, #32767
 1463 05c8 25A8     		add	r0, sp, #148
 1464 05ca FFF7FEFF 		bl	lv_draw_mask_radius_init
 1465              	.LVL116:
 205:Drivers/lvgl/src/draw/sw/lv_draw_sw_arc.c **** 
 1466              		.loc 1 205 13 view .LVU568
 205:Drivers/lvgl/src/draw/sw/lv_draw_sw_arc.c **** 
 1467              		.loc 1 205 35 is_stmt 0 view .LVU569
 1468 05ce 0021     		movs	r1, #0
 1469 05d0 25A8     		add	r0, sp, #148
 1470 05d2 FFF7FEFF 		bl	lv_draw_mask_add
 1471              	.LVL117:
 207:Drivers/lvgl/src/draw/sw/lv_draw_sw_arc.c ****             lv_draw_rect(draw_ctx, &cir_dsc, &area_out);
 1472              		.loc 1 207 33 view .LVU570
 1473 05d6 029B     		ldr	r3, [sp, #8]
 1474 05d8 17AA     		add	r2, sp, #92
 1475 05da 9A60     		str	r2, [r3, #8]
 208:Drivers/lvgl/src/draw/sw/lv_draw_sw_arc.c ****             lv_draw_mask_remove_id(mask_end_id);
 1476              		.loc 1 208 13 view .LVU571
 1477 05dc 2BA9     		add	r1, sp, #172
 1478 05de 11AA     		add	r2, sp, #68
 205:Drivers/lvgl/src/draw/sw/lv_draw_sw_arc.c **** 
 1479              		.loc 1 205 35 view .LVU572
 1480 05e0 0446     		mov	r4, r0
 1481              	.LVL118:
ARM GAS  /var/folders/lp/x54gwt890xv47sdkqj1k04q40000gn/T//cc8OVz70.s 			page 48


 207:Drivers/lvgl/src/draw/sw/lv_draw_sw_arc.c ****             lv_draw_rect(draw_ctx, &cir_dsc, &area_out);
 1482              		.loc 1 207 13 is_stmt 1 view .LVU573
 208:Drivers/lvgl/src/draw/sw/lv_draw_sw_arc.c ****             lv_draw_mask_remove_id(mask_end_id);
 1483              		.loc 1 208 13 view .LVU574
 1484 05e2 1846     		mov	r0, r3
 1485 05e4 FFF7FEFF 		bl	lv_draw_rect
 1486              	.LVL119:
 209:Drivers/lvgl/src/draw/sw/lv_draw_sw_arc.c ****             lv_draw_mask_free_param(&mask_end_param);
 1487              		.loc 1 209 13 view .LVU575
 1488 05e8 2046     		mov	r0, r4
 1489 05ea FFF7FEFF 		bl	lv_draw_mask_remove_id
 1490              	.LVL120:
 210:Drivers/lvgl/src/draw/sw/lv_draw_sw_arc.c ****         }
 1491              		.loc 1 210 13 view .LVU576
 1492 05ee 25A8     		add	r0, sp, #148
 1493 05f0 FFF7FEFF 		bl	lv_draw_mask_free_param
 1494              	.LVL121:
 1495 05f4 29E6     		b	.L117
 1496              	.LVL122:
 1497              	.L296:
 210:Drivers/lvgl/src/draw/sw/lv_draw_sw_arc.c ****         }
 1498              		.loc 1 210 13 is_stmt 0 view .LVU577
 1499              	.LBE53:
 1500              	.LBB54:
 189:Drivers/lvgl/src/draw/sw/lv_draw_sw_arc.c ****             int16_t mask_end_id = lv_draw_mask_add(&mask_end_param, NULL);
 1501              		.loc 1 189 13 is_stmt 1 view .LVU578
 1502 05f6 0023     		movs	r3, #0
 1503 05f8 47F6FF72 		movw	r2, #32767
 1504 05fc 15A9     		add	r1, sp, #84
 1505 05fe 25A8     		add	r0, sp, #148
 1506 0600 FFF7FEFF 		bl	lv_draw_mask_radius_init
 1507              	.LVL123:
 190:Drivers/lvgl/src/draw/sw/lv_draw_sw_arc.c **** 
 1508              		.loc 1 190 13 view .LVU579
 190:Drivers/lvgl/src/draw/sw/lv_draw_sw_arc.c **** 
 1509              		.loc 1 190 35 is_stmt 0 view .LVU580
 1510 0604 0021     		movs	r1, #0
 1511 0606 25A8     		add	r0, sp, #148
 1512 0608 FFF7FEFF 		bl	lv_draw_mask_add
 1513              	.LVL124:
 1514 060c 0446     		mov	r4, r0
 1515              	.LVL125:
 192:Drivers/lvgl/src/draw/sw/lv_draw_sw_arc.c ****             lv_draw_rect(draw_ctx, &cir_dsc, &area_out);
 1516              		.loc 1 192 13 is_stmt 1 view .LVU581
 192:Drivers/lvgl/src/draw/sw/lv_draw_sw_arc.c ****             lv_draw_rect(draw_ctx, &cir_dsc, &area_out);
 1517              		.loc 1 192 33 is_stmt 0 view .LVU582
 1518 060e 0298     		ldr	r0, [sp, #8]
 1519 0610 17AB     		add	r3, sp, #92
 1520 0612 8360     		str	r3, [r0, #8]
 193:Drivers/lvgl/src/draw/sw/lv_draw_sw_arc.c ****             lv_draw_mask_remove_id(mask_end_id);
 1521              		.loc 1 193 13 is_stmt 1 view .LVU583
 1522 0614 11AA     		add	r2, sp, #68
 1523 0616 2BA9     		add	r1, sp, #172
 1524 0618 FFF7FEFF 		bl	lv_draw_rect
 1525              	.LVL126:
 194:Drivers/lvgl/src/draw/sw/lv_draw_sw_arc.c ****             lv_draw_mask_free_param(&mask_end_param);
 1526              		.loc 1 194 13 view .LVU584
ARM GAS  /var/folders/lp/x54gwt890xv47sdkqj1k04q40000gn/T//cc8OVz70.s 			page 49


 1527 061c 2046     		mov	r0, r4
 1528 061e FFF7FEFF 		bl	lv_draw_mask_remove_id
 1529              	.LVL127:
 195:Drivers/lvgl/src/draw/sw/lv_draw_sw_arc.c ****         }
 1530              		.loc 1 195 13 view .LVU585
 1531 0622 25A8     		add	r0, sp, #148
 1532 0624 FFF7FEFF 		bl	lv_draw_mask_free_param
 1533              	.LVL128:
 1534 0628 E9E5     		b	.L116
 1535              	.LVL129:
 1536              	.L256:
 195:Drivers/lvgl/src/draw/sw/lv_draw_sw_arc.c ****         }
 1537              		.loc 1 195 13 is_stmt 0 view .LVU586
 1538              	.LBE54:
 1539              	.LBE252:
 1540              	.LBB253:
 1541              	.LBB187:
 1542              	.LBB129:
 412:Drivers/lvgl/src/draw/sw/lv_draw_sw_arc.c ****             (q->start_quarter == 0 && q->end_quarter == 3) ||
 1543              		.loc 1 412 10 is_stmt 1 view .LVU587
 412:Drivers/lvgl/src/draw/sw/lv_draw_sw_arc.c ****             (q->start_quarter == 0 && q->end_quarter == 3) ||
 1544              		.loc 1 412 12 is_stmt 0 view .LVU588
 1545 062a DDE90923 		ldrd	r2, r3, [sp, #36]
 1546 062e 9A42     		cmp	r2, r3
 1547 0630 00F01382 		beq	.L95
 412:Drivers/lvgl/src/draw/sw/lv_draw_sw_arc.c ****             (q->start_quarter == 0 && q->end_quarter == 3) ||
 1548              		.loc 1 412 108 discriminator 5 view .LVU589
 1549 0634 592C     		cmp	r4, #89
 1550 0636 00F2AF81 		bhi	.L79
 413:Drivers/lvgl/src/draw/sw/lv_draw_sw_arc.c ****             (q->start_quarter == 1 && q->end_quarter == 3) ||
 1551              		.loc 1 413 36 view .LVU590
 1552 063a 032B     		cmp	r3, #3
 1553 063c A9D1     		bne	.L108
 1554              	.L277:
 413:Drivers/lvgl/src/draw/sw/lv_draw_sw_arc.c ****             (q->start_quarter == 1 && q->end_quarter == 3) ||
 1555              		.loc 1 413 36 view .LVU591
 1556 063e 25AB     		add	r3, sp, #148
 1557 0640 0B93     		str	r3, [sp, #44]
 1558              	.L73:
 1559              	.LBB116:
 417:Drivers/lvgl/src/draw/sw/lv_draw_sw_arc.c ****         quarter_area.y1 = q->center->y - q->radius;
 1560              		.loc 1 417 9 is_stmt 1 view .LVU592
 417:Drivers/lvgl/src/draw/sw/lv_draw_sw_arc.c ****         quarter_area.y1 = q->center->y - q->radius;
 1561              		.loc 1 417 36 is_stmt 0 view .LVU593
 1562 0642 B8F80020 		ldrh	r2, [r8]
 418:Drivers/lvgl/src/draw/sw/lv_draw_sw_arc.c ****         quarter_area.x2 = q->center->x - 1;
 1563              		.loc 1 418 36 view .LVU594
 1564 0646 B8F80230 		ldrh	r3, [r8, #2]
 417:Drivers/lvgl/src/draw/sw/lv_draw_sw_arc.c ****         quarter_area.y1 = q->center->y - q->radius;
 1565              		.loc 1 417 40 view .LVU595
 1566 064a D11B     		subs	r1, r2, r7
 417:Drivers/lvgl/src/draw/sw/lv_draw_sw_arc.c ****         quarter_area.y1 = q->center->y - q->radius;
 1567              		.loc 1 417 25 view .LVU596
 1568 064c ADF89410 		strh	r1, [sp, #148]	@ movhi
 418:Drivers/lvgl/src/draw/sw/lv_draw_sw_arc.c ****         quarter_area.x2 = q->center->x - 1;
 1569              		.loc 1 418 9 is_stmt 1 view .LVU597
 419:Drivers/lvgl/src/draw/sw/lv_draw_sw_arc.c ****         quarter_area.y2 = q->center->y - 1;
ARM GAS  /var/folders/lp/x54gwt890xv47sdkqj1k04q40000gn/T//cc8OVz70.s 			page 50


 1570              		.loc 1 419 40 is_stmt 0 view .LVU598
 1571 0650 013A     		subs	r2, r2, #1
 422:Drivers/lvgl/src/draw/sw/lv_draw_sw_arc.c ****         if(ok) {
 1572              		.loc 1 422 19 view .LVU599
 1573 0652 0B99     		ldr	r1, [sp, #44]
 419:Drivers/lvgl/src/draw/sw/lv_draw_sw_arc.c ****         quarter_area.y2 = q->center->y - 1;
 1574              		.loc 1 419 25 view .LVU600
 1575 0654 ADF89820 		strh	r2, [sp, #152]	@ movhi
 418:Drivers/lvgl/src/draw/sw/lv_draw_sw_arc.c ****         quarter_area.x2 = q->center->x - 1;
 1576              		.loc 1 418 40 view .LVU601
 1577 0658 DA1B     		subs	r2, r3, r7
 418:Drivers/lvgl/src/draw/sw/lv_draw_sw_arc.c ****         quarter_area.x2 = q->center->x - 1;
 1578              		.loc 1 418 25 view .LVU602
 1579 065a ADF89620 		strh	r2, [sp, #150]	@ movhi
 419:Drivers/lvgl/src/draw/sw/lv_draw_sw_arc.c ****         quarter_area.y2 = q->center->y - 1;
 1580              		.loc 1 419 9 is_stmt 1 view .LVU603
 420:Drivers/lvgl/src/draw/sw/lv_draw_sw_arc.c **** 
 1581              		.loc 1 420 9 view .LVU604
 420:Drivers/lvgl/src/draw/sw/lv_draw_sw_arc.c **** 
 1582              		.loc 1 420 40 is_stmt 0 view .LVU605
 1583 065e 013B     		subs	r3, r3, #1
 422:Drivers/lvgl/src/draw/sw/lv_draw_sw_arc.c ****         if(ok) {
 1584              		.loc 1 422 19 view .LVU606
 1585 0660 5246     		mov	r2, r10
 1586 0662 0846     		mov	r0, r1
 420:Drivers/lvgl/src/draw/sw/lv_draw_sw_arc.c **** 
 1587              		.loc 1 420 25 view .LVU607
 1588 0664 ADF89A30 		strh	r3, [sp, #154]	@ movhi
 422:Drivers/lvgl/src/draw/sw/lv_draw_sw_arc.c ****         if(ok) {
 1589              		.loc 1 422 9 is_stmt 1 view .LVU608
 422:Drivers/lvgl/src/draw/sw/lv_draw_sw_arc.c ****         if(ok) {
 1590              		.loc 1 422 19 is_stmt 0 view .LVU609
 1591 0668 FFF7FEFF 		bl	_lv_area_intersect
 1592              	.LVL130:
 423:Drivers/lvgl/src/draw/sw/lv_draw_sw_arc.c ****             q->draw_ctx->clip_area = &quarter_area;
 1593              		.loc 1 423 9 is_stmt 1 view .LVU610
 423:Drivers/lvgl/src/draw/sw/lv_draw_sw_arc.c ****             q->draw_ctx->clip_area = &quarter_area;
 1594              		.loc 1 423 11 is_stmt 0 view .LVU611
 1595 066c 0028     		cmp	r0, #0
 1596 066e 40F07682 		bne	.L309
 1597              	.LVL131:
 1598              	.L105:
 423:Drivers/lvgl/src/draw/sw/lv_draw_sw_arc.c ****             q->draw_ctx->clip_area = &quarter_area;
 1599              		.loc 1 423 11 view .LVU612
 1600              	.LBE116:
 428:Drivers/lvgl/src/draw/sw/lv_draw_sw_arc.c **** }
 1601              		.loc 1 428 5 is_stmt 1 view .LVU613
 428:Drivers/lvgl/src/draw/sw/lv_draw_sw_arc.c **** }
 1602              		.loc 1 428 28 is_stmt 0 view .LVU614
 1603 0672 029B     		ldr	r3, [sp, #8]
 1604 0674 C3F808A0 		str	r10, [r3, #8]
 1605              	.LVL132:
 428:Drivers/lvgl/src/draw/sw/lv_draw_sw_arc.c **** }
 1606              		.loc 1 428 28 view .LVU615
 1607              	.LBE129:
 1608              	.LBE187:
 161:Drivers/lvgl/src/draw/sw/lv_draw_sw_arc.c ****     }
ARM GAS  /var/folders/lp/x54gwt890xv47sdkqj1k04q40000gn/T//cc8OVz70.s 			page 51


 1609              		.loc 1 161 9 is_stmt 1 view .LVU616
 1610              	.LBB188:
 431:Drivers/lvgl/src/draw/sw/lv_draw_sw_arc.c **** {
 1611              		.loc 1 431 13 view .LVU617
 1612              	.LBB165:
 433:Drivers/lvgl/src/draw/sw/lv_draw_sw_arc.c ****     lv_area_t quarter_area;
 1613              		.loc 1 433 5 view .LVU618
 434:Drivers/lvgl/src/draw/sw/lv_draw_sw_arc.c **** 
 1614              		.loc 1 434 5 view .LVU619
 436:Drivers/lvgl/src/draw/sw/lv_draw_sw_arc.c ****         /*Small arc here*/
 1615              		.loc 1 436 5 view .LVU620
 436:Drivers/lvgl/src/draw/sw/lv_draw_sw_arc.c ****         /*Small arc here*/
 1616              		.loc 1 436 7 is_stmt 0 view .LVU621
 1617 0678 099B     		ldr	r3, [sp, #36]
 1618              	.LVL133:
 436:Drivers/lvgl/src/draw/sw/lv_draw_sw_arc.c ****         /*Small arc here*/
 1619              		.loc 1 436 7 view .LVU622
 1620 067a 032B     		cmp	r3, #3
 1621 067c 00F0F780 		beq	.L310
 1622              	.LVL134:
 450:Drivers/lvgl/src/draw/sw/lv_draw_sw_arc.c ****         /*Start and/or end arcs here*/
 1623              		.loc 1 450 10 is_stmt 1 view .LVU623
 450:Drivers/lvgl/src/draw/sw/lv_draw_sw_arc.c ****         /*Start and/or end arcs here*/
 1624              		.loc 1 450 35 is_stmt 0 discriminator 1 view .LVU624
 1625 0680 0A9B     		ldr	r3, [sp, #40]
 1626 0682 032B     		cmp	r3, #3
 1627 0684 40F07E81 		bne	.L62
 1628              	.L98:
 1629              	.LBB154:
 470:Drivers/lvgl/src/draw/sw/lv_draw_sw_arc.c **** 
 1630              		.loc 1 470 88 discriminator 1 view .LVU625
 1631 0688 0C9B     		ldr	r3, [sp, #48]
 1632 068a A3EB0903 		sub	r3, r3, r9
 1633 068e 0E93     		str	r3, [sp, #56]
 1634              	.LBE154:
 465:Drivers/lvgl/src/draw/sw/lv_draw_sw_arc.c ****             quarter_area.x1 = q->center->x;
 1635              		.loc 1 465 9 is_stmt 1 view .LVU626
 1636              	.LVL135:
 1637              	.L109:
 1638              	.LBB155:
 466:Drivers/lvgl/src/draw/sw/lv_draw_sw_arc.c ****             quarter_area.y1 = q->center->y - q->radius;
 1639              		.loc 1 466 13 view .LVU627
 467:Drivers/lvgl/src/draw/sw/lv_draw_sw_arc.c **** 
 1640              		.loc 1 467 44 is_stmt 0 view .LVU628
 1641 0690 B8F80230 		ldrh	r3, [r8, #2]
 466:Drivers/lvgl/src/draw/sw/lv_draw_sw_arc.c ****             quarter_area.y1 = q->center->y - q->radius;
 1642              		.loc 1 466 40 view .LVU629
 1643 0694 B8F90040 		ldrsh	r4, [r8]
 466:Drivers/lvgl/src/draw/sw/lv_draw_sw_arc.c ****             quarter_area.y1 = q->center->y - q->radius;
 1644              		.loc 1 466 29 view .LVU630
 1645 0698 ADF89440 		strh	r4, [sp, #148]	@ movhi
 467:Drivers/lvgl/src/draw/sw/lv_draw_sw_arc.c **** 
 1646              		.loc 1 467 13 is_stmt 1 view .LVU631
 469:Drivers/lvgl/src/draw/sw/lv_draw_sw_arc.c ****             quarter_area.y2 = q->center->y + ((lv_trigo_sin(q->end_angle) * (q->radius - q->width))
 1647              		.loc 1 469 13 view .LVU632
 469:Drivers/lvgl/src/draw/sw/lv_draw_sw_arc.c ****             quarter_area.y2 = q->center->y + ((lv_trigo_sin(q->end_angle) * (q->radius - q->width))
 1648              		.loc 1 469 74 is_stmt 0 view .LVU633
ARM GAS  /var/folders/lp/x54gwt890xv47sdkqj1k04q40000gn/T//cc8OVz70.s 			page 52


 1649 069c 05F15A00 		add	r0, r5, #90
 467:Drivers/lvgl/src/draw/sw/lv_draw_sw_arc.c **** 
 1650              		.loc 1 467 44 view .LVU634
 1651 06a0 DB1B     		subs	r3, r3, r7
 469:Drivers/lvgl/src/draw/sw/lv_draw_sw_arc.c ****             quarter_area.y2 = q->center->y + ((lv_trigo_sin(q->end_angle) * (q->radius - q->width))
 1652              		.loc 1 469 48 view .LVU635
 1653 06a2 00B2     		sxth	r0, r0
 467:Drivers/lvgl/src/draw/sw/lv_draw_sw_arc.c **** 
 1654              		.loc 1 467 29 view .LVU636
 1655 06a4 ADF89630 		strh	r3, [sp, #150]	@ movhi
 469:Drivers/lvgl/src/draw/sw/lv_draw_sw_arc.c ****             quarter_area.y2 = q->center->y + ((lv_trigo_sin(q->end_angle) * (q->radius - q->width))
 1656              		.loc 1 469 48 view .LVU637
 1657 06a8 FFF7FEFF 		bl	lv_trigo_sin
 1658              	.LVL136:
 469:Drivers/lvgl/src/draw/sw/lv_draw_sw_arc.c ****             quarter_area.y2 = q->center->y + ((lv_trigo_sin(q->end_angle) * (q->radius - q->width))
 1659              		.loc 1 469 80 discriminator 1 view .LVU638
 1660 06ac 0C9B     		ldr	r3, [sp, #48]
 1661 06ae 00FB03F3 		mul	r3, r0, r3
 469:Drivers/lvgl/src/draw/sw/lv_draw_sw_arc.c ****             quarter_area.y2 = q->center->y + ((lv_trigo_sin(q->end_angle) * (q->radius - q->width))
 1662              		.loc 1 469 44 discriminator 1 view .LVU639
 1663 06b2 04EBE334 		add	r4, r4, r3, asr #15
 470:Drivers/lvgl/src/draw/sw/lv_draw_sw_arc.c **** 
 1664              		.loc 1 470 48 view .LVU640
 1665 06b6 0798     		ldr	r0, [sp, #28]
 469:Drivers/lvgl/src/draw/sw/lv_draw_sw_arc.c ****             quarter_area.y2 = q->center->y + ((lv_trigo_sin(q->end_angle) * (q->radius - q->width))
 1666              		.loc 1 469 29 discriminator 1 view .LVU641
 1667 06b8 ADF89840 		strh	r4, [sp, #152]	@ movhi
 470:Drivers/lvgl/src/draw/sw/lv_draw_sw_arc.c **** 
 1668              		.loc 1 470 13 is_stmt 1 view .LVU642
 470:Drivers/lvgl/src/draw/sw/lv_draw_sw_arc.c **** 
 1669              		.loc 1 470 40 is_stmt 0 view .LVU643
 1670 06bc B8F80240 		ldrh	r4, [r8, #2]
 470:Drivers/lvgl/src/draw/sw/lv_draw_sw_arc.c **** 
 1671              		.loc 1 470 48 view .LVU644
 1672 06c0 FFF7FEFF 		bl	lv_trigo_sin
 1673              	.LVL137:
 470:Drivers/lvgl/src/draw/sw/lv_draw_sw_arc.c **** 
 1674              		.loc 1 470 75 discriminator 1 view .LVU645
 1675 06c4 0E9B     		ldr	r3, [sp, #56]
 1676              	.L279:
 470:Drivers/lvgl/src/draw/sw/lv_draw_sw_arc.c **** 
 1677              		.loc 1 470 75 discriminator 1 view .LVU646
 1678              	.LBE155:
 1679              	.LBB156:
 444:Drivers/lvgl/src/draw/sw/lv_draw_sw_arc.c ****         if(ok) {
 1680              		.loc 1 444 19 view .LVU647
 1681 06c6 0B99     		ldr	r1, [sp, #44]
 442:Drivers/lvgl/src/draw/sw/lv_draw_sw_arc.c **** 
 1682              		.loc 1 442 71 discriminator 1 view .LVU648
 1683 06c8 03FB00F3 		mul	r3, r3, r0
 442:Drivers/lvgl/src/draw/sw/lv_draw_sw_arc.c **** 
 1684              		.loc 1 442 40 discriminator 1 view .LVU649
 1685 06cc 04EBE334 		add	r4, r4, r3, asr #15
 444:Drivers/lvgl/src/draw/sw/lv_draw_sw_arc.c ****         if(ok) {
 1686              		.loc 1 444 19 view .LVU650
 1687 06d0 5246     		mov	r2, r10
 1688 06d2 0846     		mov	r0, r1
ARM GAS  /var/folders/lp/x54gwt890xv47sdkqj1k04q40000gn/T//cc8OVz70.s 			page 53


 442:Drivers/lvgl/src/draw/sw/lv_draw_sw_arc.c **** 
 1689              		.loc 1 442 25 discriminator 1 view .LVU651
 1690 06d4 ADF89A40 		strh	r4, [sp, #154]	@ movhi
 444:Drivers/lvgl/src/draw/sw/lv_draw_sw_arc.c ****         if(ok) {
 1691              		.loc 1 444 9 is_stmt 1 view .LVU652
 444:Drivers/lvgl/src/draw/sw/lv_draw_sw_arc.c ****         if(ok) {
 1692              		.loc 1 444 19 is_stmt 0 view .LVU653
 1693 06d8 FFF7FEFF 		bl	_lv_area_intersect
 1694              	.LVL138:
 445:Drivers/lvgl/src/draw/sw/lv_draw_sw_arc.c ****             q->draw_ctx->clip_area = &quarter_area;
 1695              		.loc 1 445 9 is_stmt 1 view .LVU654
 445:Drivers/lvgl/src/draw/sw/lv_draw_sw_arc.c ****             q->draw_ctx->clip_area = &quarter_area;
 1696              		.loc 1 445 11 is_stmt 0 view .LVU655
 1697 06dc 0028     		cmp	r0, #0
 1698 06de 3FF458AF 		beq	.L108
 1699 06e2 C2E6     		b	.L107
 1700              	.LVL139:
 1701              	.L300:
 445:Drivers/lvgl/src/draw/sw/lv_draw_sw_arc.c ****             q->draw_ctx->clip_area = &quarter_area;
 1702              		.loc 1 445 11 view .LVU656
 1703              	.LBE156:
 1704              	.LBE165:
 1705              	.LBE188:
 1706              	.LBB189:
 1707              	.LBB71:
 1708              	.LBB61:
 269:Drivers/lvgl/src/draw/sw/lv_draw_sw_arc.c **** 
 1709              		.loc 1 269 93 discriminator 1 view .LVU657
 1710 06e4 0C9B     		ldr	r3, [sp, #48]
 1711 06e6 A3EB0903 		sub	r3, r3, r9
 1712 06ea 0D93     		str	r3, [sp, #52]
 1713 06ec 25AB     		add	r3, sp, #148
 1714 06ee 0B93     		str	r3, [sp, #44]
 1715              	.L35:
 265:Drivers/lvgl/src/draw/sw/lv_draw_sw_arc.c ****             quarter_area.y1 = q->center->y;
 1716              		.loc 1 265 13 is_stmt 1 view .LVU658
 265:Drivers/lvgl/src/draw/sw/lv_draw_sw_arc.c ****             quarter_area.y1 = q->center->y;
 1717              		.loc 1 265 44 is_stmt 0 view .LVU659
 1718 06f0 B8F80030 		ldrh	r3, [r8]
 268:Drivers/lvgl/src/draw/sw/lv_draw_sw_arc.c ****             quarter_area.x1 = q->center->x + ((lv_trigo_sin(q->end_angle + 90) * (q->radius - q->wi
 1719              		.loc 1 268 48 view .LVU660
 1720 06f4 0798     		ldr	r0, [sp, #28]
 265:Drivers/lvgl/src/draw/sw/lv_draw_sw_arc.c ****             quarter_area.y1 = q->center->y;
 1721              		.loc 1 265 44 view .LVU661
 1722 06f6 3B44     		add	r3, r3, r7
 265:Drivers/lvgl/src/draw/sw/lv_draw_sw_arc.c ****             quarter_area.y1 = q->center->y;
 1723              		.loc 1 265 29 view .LVU662
 1724 06f8 ADF89830 		strh	r3, [sp, #152]	@ movhi
 266:Drivers/lvgl/src/draw/sw/lv_draw_sw_arc.c **** 
 1725              		.loc 1 266 13 is_stmt 1 view .LVU663
 266:Drivers/lvgl/src/draw/sw/lv_draw_sw_arc.c **** 
 1726              		.loc 1 266 40 is_stmt 0 view .LVU664
 1727 06fc B8F90230 		ldrsh	r3, [r8, #2]
 266:Drivers/lvgl/src/draw/sw/lv_draw_sw_arc.c **** 
 1728              		.loc 1 266 29 view .LVU665
 1729 0700 ADF89630 		strh	r3, [sp, #150]	@ movhi
 1730 0704 0E93     		str	r3, [sp, #56]
ARM GAS  /var/folders/lp/x54gwt890xv47sdkqj1k04q40000gn/T//cc8OVz70.s 			page 54


 268:Drivers/lvgl/src/draw/sw/lv_draw_sw_arc.c ****             quarter_area.x1 = q->center->x + ((lv_trigo_sin(q->end_angle + 90) * (q->radius - q->wi
 1731              		.loc 1 268 13 is_stmt 1 view .LVU666
 268:Drivers/lvgl/src/draw/sw/lv_draw_sw_arc.c ****             quarter_area.x1 = q->center->x + ((lv_trigo_sin(q->end_angle + 90) * (q->radius - q->wi
 1732              		.loc 1 268 48 is_stmt 0 view .LVU667
 1733 0706 FFF7FEFF 		bl	lv_trigo_sin
 1734              	.LVL140:
 268:Drivers/lvgl/src/draw/sw/lv_draw_sw_arc.c ****             quarter_area.x1 = q->center->x + ((lv_trigo_sin(q->end_angle + 90) * (q->radius - q->wi
 1735              		.loc 1 268 75 discriminator 1 view .LVU668
 1736 070a 0C9B     		ldr	r3, [sp, #48]
 1737 070c 03FB00F2 		mul	r2, r3, r0
 268:Drivers/lvgl/src/draw/sw/lv_draw_sw_arc.c ****             quarter_area.x1 = q->center->x + ((lv_trigo_sin(q->end_angle + 90) * (q->radius - q->wi
 1738              		.loc 1 268 44 discriminator 1 view .LVU669
 1739 0710 0E9B     		ldr	r3, [sp, #56]
 269:Drivers/lvgl/src/draw/sw/lv_draw_sw_arc.c **** 
 1740              		.loc 1 269 74 view .LVU670
 1741 0712 05F15A00 		add	r0, r5, #90
 268:Drivers/lvgl/src/draw/sw/lv_draw_sw_arc.c ****             quarter_area.x1 = q->center->x + ((lv_trigo_sin(q->end_angle + 90) * (q->radius - q->wi
 1742              		.loc 1 268 44 discriminator 1 view .LVU671
 1743 0716 03EBE233 		add	r3, r3, r2, asr #15
 268:Drivers/lvgl/src/draw/sw/lv_draw_sw_arc.c ****             quarter_area.x1 = q->center->x + ((lv_trigo_sin(q->end_angle + 90) * (q->radius - q->wi
 1744              		.loc 1 268 29 discriminator 1 view .LVU672
 1745 071a ADF89A30 		strh	r3, [sp, #154]	@ movhi
 269:Drivers/lvgl/src/draw/sw/lv_draw_sw_arc.c **** 
 1746              		.loc 1 269 13 is_stmt 1 view .LVU673
 269:Drivers/lvgl/src/draw/sw/lv_draw_sw_arc.c **** 
 1747              		.loc 1 269 48 is_stmt 0 view .LVU674
 1748 071e 00B2     		sxth	r0, r0
 269:Drivers/lvgl/src/draw/sw/lv_draw_sw_arc.c **** 
 1749              		.loc 1 269 40 view .LVU675
 1750 0720 B8F80030 		ldrh	r3, [r8]
 1751 0724 0E93     		str	r3, [sp, #56]
 269:Drivers/lvgl/src/draw/sw/lv_draw_sw_arc.c **** 
 1752              		.loc 1 269 48 view .LVU676
 1753 0726 FFF7FEFF 		bl	lv_trigo_sin
 1754              	.LVL141:
 269:Drivers/lvgl/src/draw/sw/lv_draw_sw_arc.c **** 
 1755              		.loc 1 269 80 discriminator 1 view .LVU677
 1756 072a 0D9B     		ldr	r3, [sp, #52]
 271:Drivers/lvgl/src/draw/sw/lv_draw_sw_arc.c ****             if(ok) {
 1757              		.loc 1 271 23 view .LVU678
 1758 072c 0B99     		ldr	r1, [sp, #44]
 269:Drivers/lvgl/src/draw/sw/lv_draw_sw_arc.c **** 
 1759              		.loc 1 269 80 discriminator 1 view .LVU679
 1760 072e 03FB00F2 		mul	r2, r3, r0
 269:Drivers/lvgl/src/draw/sw/lv_draw_sw_arc.c **** 
 1761              		.loc 1 269 44 discriminator 1 view .LVU680
 1762 0732 0E9B     		ldr	r3, [sp, #56]
 271:Drivers/lvgl/src/draw/sw/lv_draw_sw_arc.c ****             if(ok) {
 1763              		.loc 1 271 23 view .LVU681
 1764 0734 0846     		mov	r0, r1
 269:Drivers/lvgl/src/draw/sw/lv_draw_sw_arc.c **** 
 1765              		.loc 1 269 44 discriminator 1 view .LVU682
 1766 0736 03EBE233 		add	r3, r3, r2, asr #15
 271:Drivers/lvgl/src/draw/sw/lv_draw_sw_arc.c ****             if(ok) {
 1767              		.loc 1 271 23 view .LVU683
 1768 073a 5246     		mov	r2, r10
 269:Drivers/lvgl/src/draw/sw/lv_draw_sw_arc.c **** 
ARM GAS  /var/folders/lp/x54gwt890xv47sdkqj1k04q40000gn/T//cc8OVz70.s 			page 55


 1769              		.loc 1 269 29 discriminator 1 view .LVU684
 1770 073c ADF89430 		strh	r3, [sp, #148]	@ movhi
 271:Drivers/lvgl/src/draw/sw/lv_draw_sw_arc.c ****             if(ok) {
 1771              		.loc 1 271 13 is_stmt 1 view .LVU685
 271:Drivers/lvgl/src/draw/sw/lv_draw_sw_arc.c ****             if(ok) {
 1772              		.loc 1 271 23 is_stmt 0 view .LVU686
 1773 0740 FFF7FEFF 		bl	_lv_area_intersect
 1774              	.LVL142:
 272:Drivers/lvgl/src/draw/sw/lv_draw_sw_arc.c ****                 q->draw_ctx->clip_area = &quarter_area;
 1775              		.loc 1 272 13 is_stmt 1 view .LVU687
 273:Drivers/lvgl/src/draw/sw/lv_draw_sw_arc.c ****                 lv_draw_rect(q->draw_ctx, q->draw_dsc, q->draw_area);
 1776              		.loc 1 273 40 is_stmt 0 view .LVU688
 1777 0744 029B     		ldr	r3, [sp, #8]
 272:Drivers/lvgl/src/draw/sw/lv_draw_sw_arc.c ****                 q->draw_ctx->clip_area = &quarter_area;
 1778              		.loc 1 272 15 view .LVU689
 1779 0746 0028     		cmp	r0, #0
 1780 0748 40F0F481 		bne	.L39
 1781              	.LVL143:
 1782              	.L285:
 272:Drivers/lvgl/src/draw/sw/lv_draw_sw_arc.c ****                 q->draw_ctx->clip_area = &quarter_area;
 1783              		.loc 1 272 15 view .LVU690
 1784              	.LBE61:
 294:Drivers/lvgl/src/draw/sw/lv_draw_sw_arc.c **** }
 1785              		.loc 1 294 28 view .LVU691
 1786 074c C3F808A0 		str	r10, [r3, #8]
 1787              	.LVL144:
 294:Drivers/lvgl/src/draw/sw/lv_draw_sw_arc.c **** }
 1788              		.loc 1 294 28 view .LVU692
 1789              	.LBE71:
 1790              	.LBE189:
 159:Drivers/lvgl/src/draw/sw/lv_draw_sw_arc.c ****         draw_quarter_2(&q_dsc);
 1791              		.loc 1 159 9 is_stmt 1 view .LVU693
 1792              	.LBB190:
 297:Drivers/lvgl/src/draw/sw/lv_draw_sw_arc.c **** {
 1793              		.loc 1 297 13 view .LVU694
 1794              	.LBB98:
 299:Drivers/lvgl/src/draw/sw/lv_draw_sw_arc.c ****     lv_area_t quarter_area;
 1795              		.loc 1 299 5 view .LVU695
 300:Drivers/lvgl/src/draw/sw/lv_draw_sw_arc.c **** 
 1796              		.loc 1 300 5 view .LVU696
 302:Drivers/lvgl/src/draw/sw/lv_draw_sw_arc.c ****         /*Small arc here*/
 1797              		.loc 1 302 5 view .LVU697
 302:Drivers/lvgl/src/draw/sw/lv_draw_sw_arc.c ****         /*Small arc here*/
 1798              		.loc 1 302 7 is_stmt 0 view .LVU698
 1799 0750 099B     		ldr	r3, [sp, #36]
 1800              	.LVL145:
 302:Drivers/lvgl/src/draw/sw/lv_draw_sw_arc.c ****         /*Small arc here*/
 1801              		.loc 1 302 7 view .LVU699
 1802 0752 012B     		cmp	r3, #1
 1803 0754 00F03281 		beq	.L311
 345:Drivers/lvgl/src/draw/sw/lv_draw_sw_arc.c ****             (q->start_quarter == 0 && q->end_quarter == 2) ||
 1804              		.loc 1 345 10 is_stmt 1 view .LVU700
 345:Drivers/lvgl/src/draw/sw/lv_draw_sw_arc.c ****             (q->start_quarter == 0 && q->end_quarter == 2) ||
 1805              		.loc 1 345 12 is_stmt 0 view .LVU701
 1806 0758 DDE90932 		ldrd	r3, r2, [sp, #36]
 1807 075c 9342     		cmp	r3, r2
 1808 075e 00F00682 		beq	.L65
ARM GAS  /var/folders/lp/x54gwt890xv47sdkqj1k04q40000gn/T//cc8OVz70.s 			page 56


 1809              	.LVL146:
 1810              	.L45:
 345:Drivers/lvgl/src/draw/sw/lv_draw_sw_arc.c ****             (q->start_quarter == 0 && q->end_quarter == 2) ||
 1811              		.loc 1 345 108 discriminator 5 view .LVU702
 1812 0762 592C     		cmp	r4, #89
 1813 0764 00F2CF81 		bhi	.L66
 346:Drivers/lvgl/src/draw/sw/lv_draw_sw_arc.c ****             (q->start_quarter == 0 && q->end_quarter == 3) ||
 1814              		.loc 1 346 36 view .LVU703
 1815 0768 0A9B     		ldr	r3, [sp, #40]
 1816 076a 023B     		subs	r3, r3, #2
 1817 076c 012B     		cmp	r3, #1
 1818 076e 0DD9     		bls	.L271
 1819              	.L30:
 361:Drivers/lvgl/src/draw/sw/lv_draw_sw_arc.c **** }
 1820              		.loc 1 361 5 is_stmt 1 view .LVU704
 361:Drivers/lvgl/src/draw/sw/lv_draw_sw_arc.c **** }
 1821              		.loc 1 361 28 is_stmt 0 view .LVU705
 1822 0770 029B     		ldr	r3, [sp, #8]
 1823              	.LBE98:
 1824              	.LBE190:
 1825              	.LBB191:
 1826              	.LBB130:
 412:Drivers/lvgl/src/draw/sw/lv_draw_sw_arc.c ****             (q->start_quarter == 0 && q->end_quarter == 3) ||
 1827              		.loc 1 412 74 discriminator 3 view .LVU706
 1828 0772 AC42     		cmp	r4, r5
 1829              	.LBE130:
 1830              	.LBE191:
 1831              	.LBB192:
 1832              	.LBB99:
 361:Drivers/lvgl/src/draw/sw/lv_draw_sw_arc.c **** }
 1833              		.loc 1 361 28 view .LVU707
 1834 0774 C3F808A0 		str	r10, [r3, #8]
 1835              	.LBE99:
 1836              	.LBE192:
 160:Drivers/lvgl/src/draw/sw/lv_draw_sw_arc.c ****         draw_quarter_3(&q_dsc);
 1837              		.loc 1 160 9 is_stmt 1 view .LVU708
 1838              	.LVL147:
 1839              	.LBB193:
 364:Drivers/lvgl/src/draw/sw/lv_draw_sw_arc.c **** {
 1840              		.loc 1 364 13 view .LVU709
 1841              	.LBB131:
 366:Drivers/lvgl/src/draw/sw/lv_draw_sw_arc.c ****     lv_area_t quarter_area;
 1842              		.loc 1 366 5 view .LVU710
 367:Drivers/lvgl/src/draw/sw/lv_draw_sw_arc.c **** 
 1843              		.loc 1 367 5 view .LVU711
 369:Drivers/lvgl/src/draw/sw/lv_draw_sw_arc.c ****         /*Small arc here*/
 1844              		.loc 1 369 5 view .LVU712
 383:Drivers/lvgl/src/draw/sw/lv_draw_sw_arc.c ****         /*Start and/or end arcs here*/
 1845              		.loc 1 383 10 view .LVU713
 412:Drivers/lvgl/src/draw/sw/lv_draw_sw_arc.c ****             (q->start_quarter == 0 && q->end_quarter == 3) ||
 1846              		.loc 1 412 10 view .LVU714
 412:Drivers/lvgl/src/draw/sw/lv_draw_sw_arc.c ****             (q->start_quarter == 0 && q->end_quarter == 3) ||
 1847              		.loc 1 412 74 is_stmt 0 discriminator 3 view .LVU715
 1848 0778 3FF661AF 		bhi	.L277
 1849              	.LVL148:
 412:Drivers/lvgl/src/draw/sw/lv_draw_sw_arc.c ****             (q->start_quarter == 0 && q->end_quarter == 3) ||
 1850              		.loc 1 412 74 discriminator 3 view .LVU716
ARM GAS  /var/folders/lp/x54gwt890xv47sdkqj1k04q40000gn/T//cc8OVz70.s 			page 57


 1851 077c 01E7     		b	.L74
 1852              	.LVL149:
 1853              	.L52:
 412:Drivers/lvgl/src/draw/sw/lv_draw_sw_arc.c ****             (q->start_quarter == 0 && q->end_quarter == 3) ||
 1854              		.loc 1 412 74 discriminator 3 view .LVU717
 1855              	.LBE131:
 1856              	.LBE193:
 1857              	.LBB194:
 1858              	.LBB72:
 280:Drivers/lvgl/src/draw/sw/lv_draw_sw_arc.c ****             (q->start_quarter == 3 && q->end_quarter == 1)) {
 1859              		.loc 1 280 36 view .LVU718
 1860 077e 0A9B     		ldr	r3, [sp, #40]
 1861 0780 032B     		cmp	r3, #3
 1862 0782 40F08D81 		bne	.L43
 294:Drivers/lvgl/src/draw/sw/lv_draw_sw_arc.c **** }
 1863              		.loc 1 294 5 is_stmt 1 view .LVU719
 1864              	.LVL150:
 294:Drivers/lvgl/src/draw/sw/lv_draw_sw_arc.c **** }
 1865              		.loc 1 294 5 is_stmt 0 view .LVU720
 1866              	.LBE72:
 1867              	.LBE194:
 159:Drivers/lvgl/src/draw/sw/lv_draw_sw_arc.c ****         draw_quarter_2(&q_dsc);
 1868              		.loc 1 159 9 is_stmt 1 view .LVU721
 1869              	.LBB195:
 297:Drivers/lvgl/src/draw/sw/lv_draw_sw_arc.c **** {
 1870              		.loc 1 297 13 view .LVU722
 1871              	.LBB100:
 299:Drivers/lvgl/src/draw/sw/lv_draw_sw_arc.c ****     lv_area_t quarter_area;
 1872              		.loc 1 299 5 view .LVU723
 300:Drivers/lvgl/src/draw/sw/lv_draw_sw_arc.c **** 
 1873              		.loc 1 300 5 view .LVU724
 302:Drivers/lvgl/src/draw/sw/lv_draw_sw_arc.c ****         /*Small arc here*/
 1874              		.loc 1 302 5 view .LVU725
 345:Drivers/lvgl/src/draw/sw/lv_draw_sw_arc.c ****             (q->start_quarter == 0 && q->end_quarter == 2) ||
 1875              		.loc 1 345 10 view .LVU726
 345:Drivers/lvgl/src/draw/sw/lv_draw_sw_arc.c ****             (q->start_quarter == 0 && q->end_quarter == 2) ||
 1876              		.loc 1 345 74 is_stmt 0 discriminator 3 view .LVU727
 1877 0786 AC42     		cmp	r4, r5
 1878 0788 40F28081 		bls	.L51
 1879              	.LVL151:
 1880              	.L271:
 345:Drivers/lvgl/src/draw/sw/lv_draw_sw_arc.c ****             (q->start_quarter == 0 && q->end_quarter == 2) ||
 1881              		.loc 1 345 74 discriminator 3 view .LVU728
 1882 078c 25AB     		add	r3, sp, #148
 1883 078e 0B93     		str	r3, [sp, #44]
 1884              	.L37:
 1885              	.LBB88:
 350:Drivers/lvgl/src/draw/sw/lv_draw_sw_arc.c ****         quarter_area.y1 = q->center->y;
 1886              		.loc 1 350 9 is_stmt 1 view .LVU729
 351:Drivers/lvgl/src/draw/sw/lv_draw_sw_arc.c ****         quarter_area.x2 = q->center->x - 1;
 1887              		.loc 1 351 36 is_stmt 0 view .LVU730
 1888 0790 B8F90220 		ldrsh	r2, [r8, #2]
 350:Drivers/lvgl/src/draw/sw/lv_draw_sw_arc.c ****         quarter_area.y1 = q->center->y;
 1889              		.loc 1 350 36 view .LVU731
 1890 0794 B8F80030 		ldrh	r3, [r8]
 355:Drivers/lvgl/src/draw/sw/lv_draw_sw_arc.c ****         if(ok) {
 1891              		.loc 1 355 19 view .LVU732
ARM GAS  /var/folders/lp/x54gwt890xv47sdkqj1k04q40000gn/T//cc8OVz70.s 			page 58


 1892 0798 0B99     		ldr	r1, [sp, #44]
 351:Drivers/lvgl/src/draw/sw/lv_draw_sw_arc.c ****         quarter_area.x2 = q->center->x - 1;
 1893              		.loc 1 351 25 view .LVU733
 1894 079a ADF89620 		strh	r2, [sp, #150]	@ movhi
 353:Drivers/lvgl/src/draw/sw/lv_draw_sw_arc.c **** 
 1895              		.loc 1 353 40 view .LVU734
 1896 079e 3A44     		add	r2, r2, r7
 353:Drivers/lvgl/src/draw/sw/lv_draw_sw_arc.c **** 
 1897              		.loc 1 353 25 view .LVU735
 1898 07a0 ADF89A20 		strh	r2, [sp, #154]	@ movhi
 350:Drivers/lvgl/src/draw/sw/lv_draw_sw_arc.c ****         quarter_area.y1 = q->center->y;
 1899              		.loc 1 350 40 view .LVU736
 1900 07a4 DA1B     		subs	r2, r3, r7
 350:Drivers/lvgl/src/draw/sw/lv_draw_sw_arc.c ****         quarter_area.y1 = q->center->y;
 1901              		.loc 1 350 25 view .LVU737
 1902 07a6 ADF89420 		strh	r2, [sp, #148]	@ movhi
 351:Drivers/lvgl/src/draw/sw/lv_draw_sw_arc.c ****         quarter_area.x2 = q->center->x - 1;
 1903              		.loc 1 351 9 is_stmt 1 view .LVU738
 352:Drivers/lvgl/src/draw/sw/lv_draw_sw_arc.c ****         quarter_area.y2 = q->center->y + q->radius;
 1904              		.loc 1 352 9 view .LVU739
 352:Drivers/lvgl/src/draw/sw/lv_draw_sw_arc.c ****         quarter_area.y2 = q->center->y + q->radius;
 1905              		.loc 1 352 40 is_stmt 0 view .LVU740
 1906 07aa 013B     		subs	r3, r3, #1
 355:Drivers/lvgl/src/draw/sw/lv_draw_sw_arc.c ****         if(ok) {
 1907              		.loc 1 355 19 view .LVU741
 1908 07ac 5246     		mov	r2, r10
 1909 07ae 0846     		mov	r0, r1
 352:Drivers/lvgl/src/draw/sw/lv_draw_sw_arc.c ****         quarter_area.y2 = q->center->y + q->radius;
 1910              		.loc 1 352 25 view .LVU742
 1911 07b0 ADF89830 		strh	r3, [sp, #152]	@ movhi
 353:Drivers/lvgl/src/draw/sw/lv_draw_sw_arc.c **** 
 1912              		.loc 1 353 9 is_stmt 1 view .LVU743
 355:Drivers/lvgl/src/draw/sw/lv_draw_sw_arc.c ****         if(ok) {
 1913              		.loc 1 355 9 view .LVU744
 355:Drivers/lvgl/src/draw/sw/lv_draw_sw_arc.c ****         if(ok) {
 1914              		.loc 1 355 19 is_stmt 0 view .LVU745
 1915 07b4 FFF7FEFF 		bl	_lv_area_intersect
 1916              	.LVL152:
 356:Drivers/lvgl/src/draw/sw/lv_draw_sw_arc.c ****             q->draw_ctx->clip_area = &quarter_area;
 1917              		.loc 1 356 9 is_stmt 1 view .LVU746
 356:Drivers/lvgl/src/draw/sw/lv_draw_sw_arc.c ****             q->draw_ctx->clip_area = &quarter_area;
 1918              		.loc 1 356 11 is_stmt 0 view .LVU747
 1919 07b8 0028     		cmp	r0, #0
 1920 07ba 40F0E381 		bne	.L312
 1921              	.LVL153:
 1922              	.L49:
 356:Drivers/lvgl/src/draw/sw/lv_draw_sw_arc.c ****             q->draw_ctx->clip_area = &quarter_area;
 1923              		.loc 1 356 11 view .LVU748
 1924              	.LBE88:
 361:Drivers/lvgl/src/draw/sw/lv_draw_sw_arc.c **** }
 1925              		.loc 1 361 5 is_stmt 1 view .LVU749
 361:Drivers/lvgl/src/draw/sw/lv_draw_sw_arc.c **** }
 1926              		.loc 1 361 28 is_stmt 0 view .LVU750
 1927 07be 029B     		ldr	r3, [sp, #8]
 1928 07c0 C3F808A0 		str	r10, [r3, #8]
 1929              	.LBE100:
 1930              	.LBE195:
ARM GAS  /var/folders/lp/x54gwt890xv47sdkqj1k04q40000gn/T//cc8OVz70.s 			page 59


 160:Drivers/lvgl/src/draw/sw/lv_draw_sw_arc.c ****         draw_quarter_3(&q_dsc);
 1931              		.loc 1 160 9 is_stmt 1 view .LVU751
 1932              	.LVL154:
 1933              	.LBB196:
 364:Drivers/lvgl/src/draw/sw/lv_draw_sw_arc.c **** {
 1934              		.loc 1 364 13 view .LVU752
 1935              	.LBB132:
 366:Drivers/lvgl/src/draw/sw/lv_draw_sw_arc.c ****     lv_area_t quarter_area;
 1936              		.loc 1 366 5 view .LVU753
 367:Drivers/lvgl/src/draw/sw/lv_draw_sw_arc.c **** 
 1937              		.loc 1 367 5 view .LVU754
 369:Drivers/lvgl/src/draw/sw/lv_draw_sw_arc.c ****         /*Small arc here*/
 1938              		.loc 1 369 5 view .LVU755
 369:Drivers/lvgl/src/draw/sw/lv_draw_sw_arc.c ****         /*Small arc here*/
 1939              		.loc 1 369 7 is_stmt 0 view .LVU756
 1940 07c4 099B     		ldr	r3, [sp, #36]
 1941              	.LVL155:
 369:Drivers/lvgl/src/draw/sw/lv_draw_sw_arc.c ****         /*Small arc here*/
 1942              		.loc 1 369 7 view .LVU757
 1943 07c6 022B     		cmp	r3, #2
 1944 07c8 7FF4EBAD 		bne	.L68
 1945              	.LVL156:
 1946              	.L120:
 1947              	.LBB117:
 372:Drivers/lvgl/src/draw/sw/lv_draw_sw_arc.c **** 
 1948              		.loc 1 372 86 discriminator 1 view .LVU758
 1949 07cc 0C9B     		ldr	r3, [sp, #48]
 1950 07ce A3EB0903 		sub	r3, r3, r9
 1951 07d2 1A46     		mov	r2, r3
 1952 07d4 0E92     		str	r2, [sp, #56]
 1953              	.LBE117:
 369:Drivers/lvgl/src/draw/sw/lv_draw_sw_arc.c ****         /*Small arc here*/
 1954              		.loc 1 369 30 discriminator 1 view .LVU759
 1955 07d6 0A9A     		ldr	r2, [sp, #40]
 1956              	.LBB118:
 372:Drivers/lvgl/src/draw/sw/lv_draw_sw_arc.c **** 
 1957              		.loc 1 372 86 discriminator 1 view .LVU760
 1958 07d8 0D93     		str	r3, [sp, #52]
 1959              	.LBE118:
 369:Drivers/lvgl/src/draw/sw/lv_draw_sw_arc.c ****         /*Small arc here*/
 1960              		.loc 1 369 30 discriminator 1 view .LVU761
 1961 07da 022A     		cmp	r2, #2
 1962              	.LBB119:
 371:Drivers/lvgl/src/draw/sw/lv_draw_sw_arc.c ****         quarter_area.y2 = q->center->y + ((lv_trigo_sin(q->start_angle) * (q->radius - q->width)) >
 1963              		.loc 1 371 36 view .LVU762
 1964 07dc B8F90030 		ldrsh	r3, [r8]
 1965              	.LBE119:
 369:Drivers/lvgl/src/draw/sw/lv_draw_sw_arc.c ****         /*Small arc here*/
 1966              		.loc 1 369 30 discriminator 1 view .LVU763
 1967 07e0 02D1     		bne	.L273
 369:Drivers/lvgl/src/draw/sw/lv_draw_sw_arc.c ****         /*Small arc here*/
 1968              		.loc 1 369 53 discriminator 2 view .LVU764
 1969 07e2 AC42     		cmp	r4, r5
 1970 07e4 C0F06482 		bcc	.L255
 1971              	.L273:
 369:Drivers/lvgl/src/draw/sw/lv_draw_sw_arc.c ****         /*Small arc here*/
 1972              		.loc 1 369 53 discriminator 2 view .LVU765
ARM GAS  /var/folders/lp/x54gwt890xv47sdkqj1k04q40000gn/T//cc8OVz70.s 			page 60


 1973 07e8 25AB     		add	r3, sp, #148
 1974 07ea 0B93     		str	r3, [sp, #44]
 1975              	.L82:
 1976              	.LBB120:
 386:Drivers/lvgl/src/draw/sw/lv_draw_sw_arc.c ****             quarter_area.y1 = q->center->y - q->radius;
 1977              		.loc 1 386 13 is_stmt 1 view .LVU766
 387:Drivers/lvgl/src/draw/sw/lv_draw_sw_arc.c **** 
 1978              		.loc 1 387 44 is_stmt 0 view .LVU767
 1979 07ec B8F80230 		ldrh	r3, [r8, #2]
 386:Drivers/lvgl/src/draw/sw/lv_draw_sw_arc.c ****             quarter_area.y1 = q->center->y - q->radius;
 1980              		.loc 1 386 40 view .LVU768
 1981 07f0 B8F80020 		ldrh	r2, [r8]
 386:Drivers/lvgl/src/draw/sw/lv_draw_sw_arc.c ****             quarter_area.y1 = q->center->y - q->radius;
 1982              		.loc 1 386 44 view .LVU769
 1983 07f4 0F92     		str	r2, [sp, #60]
 387:Drivers/lvgl/src/draw/sw/lv_draw_sw_arc.c **** 
 1984              		.loc 1 387 44 view .LVU770
 1985 07f6 DB1B     		subs	r3, r3, r7
 387:Drivers/lvgl/src/draw/sw/lv_draw_sw_arc.c **** 
 1986              		.loc 1 387 29 view .LVU771
 1987 07f8 ADF89630 		strh	r3, [sp, #150]	@ movhi
 389:Drivers/lvgl/src/draw/sw/lv_draw_sw_arc.c ****             quarter_area.y2 = q->center->y + ((lv_trigo_sin(q->start_angle) * (q->radius - q->width
 1988              		.loc 1 389 76 view .LVU772
 1989 07fc 04F15A03 		add	r3, r4, #90
 389:Drivers/lvgl/src/draw/sw/lv_draw_sw_arc.c ****             quarter_area.y2 = q->center->y + ((lv_trigo_sin(q->start_angle) * (q->radius - q->width
 1990              		.loc 1 389 48 view .LVU773
 1991 0800 18B2     		sxth	r0, r3
 386:Drivers/lvgl/src/draw/sw/lv_draw_sw_arc.c ****             quarter_area.y1 = q->center->y - q->radius;
 1992              		.loc 1 386 44 view .LVU774
 1993 0802 531E     		subs	r3, r2, #1
 386:Drivers/lvgl/src/draw/sw/lv_draw_sw_arc.c ****             quarter_area.y1 = q->center->y - q->radius;
 1994              		.loc 1 386 29 view .LVU775
 1995 0804 ADF89830 		strh	r3, [sp, #152]	@ movhi
 387:Drivers/lvgl/src/draw/sw/lv_draw_sw_arc.c **** 
 1996              		.loc 1 387 13 is_stmt 1 view .LVU776
 389:Drivers/lvgl/src/draw/sw/lv_draw_sw_arc.c ****             quarter_area.y2 = q->center->y + ((lv_trigo_sin(q->start_angle) * (q->radius - q->width
 1997              		.loc 1 389 13 view .LVU777
 389:Drivers/lvgl/src/draw/sw/lv_draw_sw_arc.c ****             quarter_area.y2 = q->center->y + ((lv_trigo_sin(q->start_angle) * (q->radius - q->width
 1998              		.loc 1 389 48 is_stmt 0 view .LVU778
 1999 0808 FFF7FEFF 		bl	lv_trigo_sin
 2000              	.LVL157:
 389:Drivers/lvgl/src/draw/sw/lv_draw_sw_arc.c ****             quarter_area.y2 = q->center->y + ((lv_trigo_sin(q->start_angle) * (q->radius - q->width
 2001              		.loc 1 389 82 discriminator 1 view .LVU779
 2002 080c 0C9B     		ldr	r3, [sp, #48]
 389:Drivers/lvgl/src/draw/sw/lv_draw_sw_arc.c ****             quarter_area.y2 = q->center->y + ((lv_trigo_sin(q->start_angle) * (q->radius - q->width
 2003              		.loc 1 389 44 discriminator 1 view .LVU780
 2004 080e 0F9A     		ldr	r2, [sp, #60]
 389:Drivers/lvgl/src/draw/sw/lv_draw_sw_arc.c ****             quarter_area.y2 = q->center->y + ((lv_trigo_sin(q->start_angle) * (q->radius - q->width
 2005              		.loc 1 389 82 discriminator 1 view .LVU781
 2006 0810 03FB00F3 		mul	r3, r3, r0
 389:Drivers/lvgl/src/draw/sw/lv_draw_sw_arc.c ****             quarter_area.y2 = q->center->y + ((lv_trigo_sin(q->start_angle) * (q->radius - q->width
 2007              		.loc 1 389 44 discriminator 1 view .LVU782
 2008 0814 02EBE332 		add	r2, r2, r3, asr #15
 390:Drivers/lvgl/src/draw/sw/lv_draw_sw_arc.c **** 
 2009              		.loc 1 390 48 view .LVU783
 2010 0818 0898     		ldr	r0, [sp, #32]
 390:Drivers/lvgl/src/draw/sw/lv_draw_sw_arc.c **** 
ARM GAS  /var/folders/lp/x54gwt890xv47sdkqj1k04q40000gn/T//cc8OVz70.s 			page 61


 2011              		.loc 1 390 40 view .LVU784
 2012 081a B8F80230 		ldrh	r3, [r8, #2]
 389:Drivers/lvgl/src/draw/sw/lv_draw_sw_arc.c ****             quarter_area.y2 = q->center->y + ((lv_trigo_sin(q->start_angle) * (q->radius - q->width
 2013              		.loc 1 389 29 discriminator 1 view .LVU785
 2014 081e ADF89420 		strh	r2, [sp, #148]	@ movhi
 390:Drivers/lvgl/src/draw/sw/lv_draw_sw_arc.c **** 
 2015              		.loc 1 390 13 is_stmt 1 view .LVU786
 390:Drivers/lvgl/src/draw/sw/lv_draw_sw_arc.c **** 
 2016              		.loc 1 390 40 is_stmt 0 view .LVU787
 2017 0822 0F93     		str	r3, [sp, #60]
 390:Drivers/lvgl/src/draw/sw/lv_draw_sw_arc.c **** 
 2018              		.loc 1 390 48 view .LVU788
 2019 0824 FFF7FEFF 		bl	lv_trigo_sin
 2020              	.LVL158:
 390:Drivers/lvgl/src/draw/sw/lv_draw_sw_arc.c **** 
 2021              		.loc 1 390 77 discriminator 1 view .LVU789
 2022 0828 0D9B     		ldr	r3, [sp, #52]
 392:Drivers/lvgl/src/draw/sw/lv_draw_sw_arc.c ****             if(ok) {
 2023              		.loc 1 392 23 view .LVU790
 2024 082a 0B99     		ldr	r1, [sp, #44]
 390:Drivers/lvgl/src/draw/sw/lv_draw_sw_arc.c **** 
 2025              		.loc 1 390 77 discriminator 1 view .LVU791
 2026 082c 03FB00F2 		mul	r2, r3, r0
 390:Drivers/lvgl/src/draw/sw/lv_draw_sw_arc.c **** 
 2027              		.loc 1 390 44 discriminator 1 view .LVU792
 2028 0830 0F9B     		ldr	r3, [sp, #60]
 392:Drivers/lvgl/src/draw/sw/lv_draw_sw_arc.c ****             if(ok) {
 2029              		.loc 1 392 23 view .LVU793
 2030 0832 0846     		mov	r0, r1
 390:Drivers/lvgl/src/draw/sw/lv_draw_sw_arc.c **** 
 2031              		.loc 1 390 44 discriminator 1 view .LVU794
 2032 0834 03EBE233 		add	r3, r3, r2, asr #15
 392:Drivers/lvgl/src/draw/sw/lv_draw_sw_arc.c ****             if(ok) {
 2033              		.loc 1 392 23 view .LVU795
 2034 0838 5246     		mov	r2, r10
 390:Drivers/lvgl/src/draw/sw/lv_draw_sw_arc.c **** 
 2035              		.loc 1 390 29 discriminator 1 view .LVU796
 2036 083a ADF89A30 		strh	r3, [sp, #154]	@ movhi
 392:Drivers/lvgl/src/draw/sw/lv_draw_sw_arc.c ****             if(ok) {
 2037              		.loc 1 392 13 is_stmt 1 view .LVU797
 392:Drivers/lvgl/src/draw/sw/lv_draw_sw_arc.c ****             if(ok) {
 2038              		.loc 1 392 23 is_stmt 0 view .LVU798
 2039 083e FFF7FEFF 		bl	_lv_area_intersect
 2040              	.LVL159:
 393:Drivers/lvgl/src/draw/sw/lv_draw_sw_arc.c ****                 q->draw_ctx->clip_area = &quarter_area;
 2041              		.loc 1 393 13 is_stmt 1 view .LVU799
 393:Drivers/lvgl/src/draw/sw/lv_draw_sw_arc.c ****                 q->draw_ctx->clip_area = &quarter_area;
 2042              		.loc 1 393 15 is_stmt 0 view .LVU800
 2043 0842 0028     		cmp	r0, #0
 2044 0844 40F02782 		bne	.L313
 2045              	.LBE120:
 398:Drivers/lvgl/src/draw/sw/lv_draw_sw_arc.c ****             quarter_area.x1 = q->center->x - q->radius;
 2046              		.loc 1 398 9 is_stmt 1 view .LVU801
 398:Drivers/lvgl/src/draw/sw/lv_draw_sw_arc.c ****             quarter_area.x1 = q->center->x - q->radius;
 2047              		.loc 1 398 11 is_stmt 0 view .LVU802
 2048 0848 0A9B     		ldr	r3, [sp, #40]
 2049 084a 022B     		cmp	r3, #2
ARM GAS  /var/folders/lp/x54gwt890xv47sdkqj1k04q40000gn/T//cc8OVz70.s 			page 62


 2050 084c 3FF4B3AD 		beq	.L86
 2051              	.LVL160:
 2052              	.L89:
 428:Drivers/lvgl/src/draw/sw/lv_draw_sw_arc.c **** }
 2053              		.loc 1 428 28 view .LVU803
 2054 0850 029B     		ldr	r3, [sp, #8]
 2055 0852 C3F808A0 		str	r10, [r3, #8]
 2056              	.LBE132:
 2057              	.LBE196:
 2058              	.LBB197:
 2059              	.LBB166:
 450:Drivers/lvgl/src/draw/sw/lv_draw_sw_arc.c ****         /*Start and/or end arcs here*/
 2060              		.loc 1 450 10 is_stmt 1 view .LVU804
 450:Drivers/lvgl/src/draw/sw/lv_draw_sw_arc.c ****         /*Start and/or end arcs here*/
 2061              		.loc 1 450 35 is_stmt 0 discriminator 1 view .LVU805
 2062 0856 0A9B     		ldr	r3, [sp, #40]
 2063 0858 032B     		cmp	r3, #3
 2064 085a 3FF419AF 		beq	.L109
 2065              	.L100:
 480:Drivers/lvgl/src/draw/sw/lv_draw_sw_arc.c ****             (q->start_quarter == 1 && q->end_quarter == 0) ||
 2066              		.loc 1 480 36 view .LVU806
 2067 085e 592D     		cmp	r5, #89
 2068 0860 7FF6EAAD 		bls	.L282
 482:Drivers/lvgl/src/draw/sw/lv_draw_sw_arc.c ****         /*Arc crosses here*/
 2069              		.loc 1 482 36 view .LVU807
 2070 0864 0A9B     		ldr	r3, [sp, #40]
 2071 0866 012B     		cmp	r3, #1
 2072 0868 7FF493AE 		bne	.L108
 2073 086c E4E5     		b	.L282
 2074              	.LVL161:
 2075              	.L310:
 482:Drivers/lvgl/src/draw/sw/lv_draw_sw_arc.c ****         /*Arc crosses here*/
 2076              		.loc 1 482 36 view .LVU808
 2077 086e 0C9A     		ldr	r2, [sp, #48]
 2078 0870 A2EB0902 		sub	r2, r2, r9
 2079 0874 04F15A03 		add	r3, r4, #90
 2080 0878 0D92     		str	r2, [sp, #52]
 2081              	.L61:
 2082              	.LBB157:
 438:Drivers/lvgl/src/draw/sw/lv_draw_sw_arc.c ****         quarter_area.y1 = q->center->y + ((lv_trigo_sin(q->start_angle) * (q->radius)) >> LV_TRIGO_
 2083              		.loc 1 438 91 discriminator 1 view .LVU809
 2084 087a 0D99     		ldr	r1, [sp, #52]
 2085 087c 0E91     		str	r1, [sp, #56]
 2086              	.LBE157:
 436:Drivers/lvgl/src/draw/sw/lv_draw_sw_arc.c ****         /*Small arc here*/
 2087              		.loc 1 436 30 discriminator 1 view .LVU810
 2088 087e 0A99     		ldr	r1, [sp, #40]
 2089              	.LBB158:
 438:Drivers/lvgl/src/draw/sw/lv_draw_sw_arc.c ****         quarter_area.y1 = q->center->y + ((lv_trigo_sin(q->start_angle) * (q->radius)) >> LV_TRIGO_
 2090              		.loc 1 438 36 view .LVU811
 2091 0880 B8F90020 		ldrsh	r2, [r8]
 2092              	.LBE158:
 436:Drivers/lvgl/src/draw/sw/lv_draw_sw_arc.c ****         /*Small arc here*/
 2093              		.loc 1 436 30 discriminator 1 view .LVU812
 2094 0884 0329     		cmp	r1, #3
 2095 0886 02D1     		bne	.L97
 436:Drivers/lvgl/src/draw/sw/lv_draw_sw_arc.c ****         /*Small arc here*/
ARM GAS  /var/folders/lp/x54gwt890xv47sdkqj1k04q40000gn/T//cc8OVz70.s 			page 63


 2096              		.loc 1 436 53 discriminator 2 view .LVU813
 2097 0888 AC42     		cmp	r4, r5
 2098 088a C0F0D781 		bcc	.L314
 2099              	.L97:
 2100              	.LBB159:
 453:Drivers/lvgl/src/draw/sw/lv_draw_sw_arc.c ****             quarter_area.y2 = q->center->y - 1;
 2101              		.loc 1 453 13 is_stmt 1 view .LVU814
 456:Drivers/lvgl/src/draw/sw/lv_draw_sw_arc.c ****             quarter_area.y1 = q->center->y + ((lv_trigo_sin(q->start_angle) * (q->radius)) >> LV_TR
 2102              		.loc 1 456 48 is_stmt 0 view .LVU815
 2103 088e 18B2     		sxth	r0, r3
 454:Drivers/lvgl/src/draw/sw/lv_draw_sw_arc.c **** 
 2104              		.loc 1 454 44 view .LVU816
 2105 0890 B8F80230 		ldrh	r3, [r8, #2]
 453:Drivers/lvgl/src/draw/sw/lv_draw_sw_arc.c ****             quarter_area.y2 = q->center->y - 1;
 2106              		.loc 1 453 40 view .LVU817
 2107 0894 B8F80040 		ldrh	r4, [r8]
 2108              	.LVL162:
 454:Drivers/lvgl/src/draw/sw/lv_draw_sw_arc.c **** 
 2109              		.loc 1 454 44 view .LVU818
 2110 0898 013B     		subs	r3, r3, #1
 454:Drivers/lvgl/src/draw/sw/lv_draw_sw_arc.c **** 
 2111              		.loc 1 454 29 view .LVU819
 2112 089a ADF89A30 		strh	r3, [sp, #154]	@ movhi
 453:Drivers/lvgl/src/draw/sw/lv_draw_sw_arc.c ****             quarter_area.y2 = q->center->y - 1;
 2113              		.loc 1 453 44 view .LVU820
 2114 089e 3B19     		adds	r3, r7, r4
 453:Drivers/lvgl/src/draw/sw/lv_draw_sw_arc.c ****             quarter_area.y2 = q->center->y - 1;
 2115              		.loc 1 453 29 view .LVU821
 2116 08a0 ADF89830 		strh	r3, [sp, #152]	@ movhi
 454:Drivers/lvgl/src/draw/sw/lv_draw_sw_arc.c **** 
 2117              		.loc 1 454 13 is_stmt 1 view .LVU822
 456:Drivers/lvgl/src/draw/sw/lv_draw_sw_arc.c ****             quarter_area.y1 = q->center->y + ((lv_trigo_sin(q->start_angle) * (q->radius)) >> LV_TR
 2118              		.loc 1 456 13 view .LVU823
 456:Drivers/lvgl/src/draw/sw/lv_draw_sw_arc.c ****             quarter_area.y1 = q->center->y + ((lv_trigo_sin(q->start_angle) * (q->radius)) >> LV_TR
 2119              		.loc 1 456 48 is_stmt 0 view .LVU824
 2120 08a4 FFF7FEFF 		bl	lv_trigo_sin
 2121              	.LVL163:
 456:Drivers/lvgl/src/draw/sw/lv_draw_sw_arc.c ****             quarter_area.y1 = q->center->y + ((lv_trigo_sin(q->start_angle) * (q->radius)) >> LV_TR
 2122              		.loc 1 456 82 discriminator 1 view .LVU825
 2123 08a8 0E9B     		ldr	r3, [sp, #56]
 2124 08aa 03FB00F3 		mul	r3, r3, r0
 456:Drivers/lvgl/src/draw/sw/lv_draw_sw_arc.c ****             quarter_area.y1 = q->center->y + ((lv_trigo_sin(q->start_angle) * (q->radius)) >> LV_TR
 2125              		.loc 1 456 44 discriminator 1 view .LVU826
 2126 08ae 04EBE334 		add	r4, r4, r3, asr #15
 457:Drivers/lvgl/src/draw/sw/lv_draw_sw_arc.c **** 
 2127              		.loc 1 457 48 view .LVU827
 2128 08b2 0898     		ldr	r0, [sp, #32]
 456:Drivers/lvgl/src/draw/sw/lv_draw_sw_arc.c ****             quarter_area.y1 = q->center->y + ((lv_trigo_sin(q->start_angle) * (q->radius)) >> LV_TR
 2129              		.loc 1 456 29 discriminator 1 view .LVU828
 2130 08b4 ADF89440 		strh	r4, [sp, #148]	@ movhi
 457:Drivers/lvgl/src/draw/sw/lv_draw_sw_arc.c **** 
 2131              		.loc 1 457 13 is_stmt 1 view .LVU829
 457:Drivers/lvgl/src/draw/sw/lv_draw_sw_arc.c **** 
 2132              		.loc 1 457 40 is_stmt 0 view .LVU830
 2133 08b8 B8F80240 		ldrh	r4, [r8, #2]
 457:Drivers/lvgl/src/draw/sw/lv_draw_sw_arc.c **** 
 2134              		.loc 1 457 48 view .LVU831
ARM GAS  /var/folders/lp/x54gwt890xv47sdkqj1k04q40000gn/T//cc8OVz70.s 			page 64


 2135 08bc FFF7FEFF 		bl	lv_trigo_sin
 2136              	.LVL164:
 457:Drivers/lvgl/src/draw/sw/lv_draw_sw_arc.c **** 
 2137              		.loc 1 457 77 discriminator 1 view .LVU832
 2138 08c0 0C9B     		ldr	r3, [sp, #48]
 459:Drivers/lvgl/src/draw/sw/lv_draw_sw_arc.c ****             if(ok) {
 2139              		.loc 1 459 23 view .LVU833
 2140 08c2 0B99     		ldr	r1, [sp, #44]
 457:Drivers/lvgl/src/draw/sw/lv_draw_sw_arc.c **** 
 2141              		.loc 1 457 77 discriminator 1 view .LVU834
 2142 08c4 03FB00F3 		mul	r3, r3, r0
 457:Drivers/lvgl/src/draw/sw/lv_draw_sw_arc.c **** 
 2143              		.loc 1 457 44 discriminator 1 view .LVU835
 2144 08c8 04EBE334 		add	r4, r4, r3, asr #15
 459:Drivers/lvgl/src/draw/sw/lv_draw_sw_arc.c ****             if(ok) {
 2145              		.loc 1 459 23 view .LVU836
 2146 08cc 5246     		mov	r2, r10
 2147 08ce 0846     		mov	r0, r1
 457:Drivers/lvgl/src/draw/sw/lv_draw_sw_arc.c **** 
 2148              		.loc 1 457 29 discriminator 1 view .LVU837
 2149 08d0 ADF89640 		strh	r4, [sp, #150]	@ movhi
 459:Drivers/lvgl/src/draw/sw/lv_draw_sw_arc.c ****             if(ok) {
 2150              		.loc 1 459 13 is_stmt 1 view .LVU838
 459:Drivers/lvgl/src/draw/sw/lv_draw_sw_arc.c ****             if(ok) {
 2151              		.loc 1 459 23 is_stmt 0 view .LVU839
 2152 08d4 FFF7FEFF 		bl	_lv_area_intersect
 2153              	.LVL165:
 460:Drivers/lvgl/src/draw/sw/lv_draw_sw_arc.c ****                 q->draw_ctx->clip_area = &quarter_area;
 2154              		.loc 1 460 13 is_stmt 1 view .LVU840
 460:Drivers/lvgl/src/draw/sw/lv_draw_sw_arc.c ****                 q->draw_ctx->clip_area = &quarter_area;
 2155              		.loc 1 460 15 is_stmt 0 view .LVU841
 2156 08d8 0028     		cmp	r0, #0
 2157 08da 40F08D81 		bne	.L315
 2158              	.LVL166:
 2159              	.L110:
 460:Drivers/lvgl/src/draw/sw/lv_draw_sw_arc.c ****                 q->draw_ctx->clip_area = &quarter_area;
 2160              		.loc 1 460 15 view .LVU842
 2161              	.LBE159:
 465:Drivers/lvgl/src/draw/sw/lv_draw_sw_arc.c ****             quarter_area.x1 = q->center->x;
 2162              		.loc 1 465 9 is_stmt 1 view .LVU843
 465:Drivers/lvgl/src/draw/sw/lv_draw_sw_arc.c ****             quarter_area.x1 = q->center->x;
 2163              		.loc 1 465 11 is_stmt 0 view .LVU844
 2164 08de 0A9B     		ldr	r3, [sp, #40]
 2165 08e0 032B     		cmp	r3, #3
 2166 08e2 7FF456AE 		bne	.L108
 2167 08e6 D3E6     		b	.L109
 2168              	.LVL167:
 2169              	.L303:
 465:Drivers/lvgl/src/draw/sw/lv_draw_sw_arc.c ****             quarter_area.x1 = q->center->x;
 2170              		.loc 1 465 11 view .LVU845
 2171              	.LBE166:
 2172              	.LBE197:
 2173              	.LBB198:
 2174              	.LBB101:
 2175              	.LBB89:
 304:Drivers/lvgl/src/draw/sw/lv_draw_sw_arc.c ****         quarter_area.x2 = q->center->x + ((lv_trigo_sin(q->start_angle + 90) * (q->radius - q->widt
 2176              		.loc 1 304 9 is_stmt 1 view .LVU846
ARM GAS  /var/folders/lp/x54gwt890xv47sdkqj1k04q40000gn/T//cc8OVz70.s 			page 65


 304:Drivers/lvgl/src/draw/sw/lv_draw_sw_arc.c ****         quarter_area.x2 = q->center->x + ((lv_trigo_sin(q->start_angle + 90) * (q->radius - q->widt
 2177              		.loc 1 304 44 is_stmt 0 view .LVU847
 2178 08e8 0898     		ldr	r0, [sp, #32]
 2179 08ea 0E93     		str	r3, [sp, #56]
 2180 08ec FFF7FEFF 		bl	lv_trigo_sin
 2181              	.LVL168:
 304:Drivers/lvgl/src/draw/sw/lv_draw_sw_arc.c ****         quarter_area.x2 = q->center->x + ((lv_trigo_sin(q->start_angle + 90) * (q->radius - q->widt
 2182              		.loc 1 304 73 discriminator 1 view .LVU848
 2183 08f0 0C9B     		ldr	r3, [sp, #48]
 2184 08f2 00FB03F2 		mul	r2, r0, r3
 304:Drivers/lvgl/src/draw/sw/lv_draw_sw_arc.c ****         quarter_area.x2 = q->center->x + ((lv_trigo_sin(q->start_angle + 90) * (q->radius - q->widt
 2185              		.loc 1 304 40 discriminator 1 view .LVU849
 2186 08f6 0E9B     		ldr	r3, [sp, #56]
 2187 08f8 03EBE233 		add	r3, r3, r2, asr #15
 304:Drivers/lvgl/src/draw/sw/lv_draw_sw_arc.c ****         quarter_area.x2 = q->center->x + ((lv_trigo_sin(q->start_angle + 90) * (q->radius - q->widt
 2188              		.loc 1 304 25 discriminator 1 view .LVU850
 2189 08fc ADF89A30 		strh	r3, [sp, #154]	@ movhi
 305:Drivers/lvgl/src/draw/sw/lv_draw_sw_arc.c **** 
 2190              		.loc 1 305 9 is_stmt 1 view .LVU851
 2191              	.LBE89:
 2192              	.LBE101:
 2193              	.LBE198:
 2194              	.LBB199:
 2195              	.LBB73:
 2196              	.LBB62:
 238:Drivers/lvgl/src/draw/sw/lv_draw_sw_arc.c **** 
 2197              		.loc 1 238 72 is_stmt 0 view .LVU852
 2198 0900 04F15A03 		add	r3, r4, #90
 2199              	.LBE62:
 2200              	.LBE73:
 2201              	.LBE199:
 2202              	.LBB200:
 2203              	.LBB102:
 2204              	.LBB90:
 305:Drivers/lvgl/src/draw/sw/lv_draw_sw_arc.c **** 
 2205              		.loc 1 305 44 view .LVU853
 2206 0904 18B2     		sxth	r0, r3
 305:Drivers/lvgl/src/draw/sw/lv_draw_sw_arc.c **** 
 2207              		.loc 1 305 36 view .LVU854
 2208 0906 B8F80020 		ldrh	r2, [r8]
 305:Drivers/lvgl/src/draw/sw/lv_draw_sw_arc.c **** 
 2209              		.loc 1 305 44 view .LVU855
 2210 090a 0F93     		str	r3, [sp, #60]
 305:Drivers/lvgl/src/draw/sw/lv_draw_sw_arc.c **** 
 2211              		.loc 1 305 36 view .LVU856
 2212 090c 0E92     		str	r2, [sp, #56]
 305:Drivers/lvgl/src/draw/sw/lv_draw_sw_arc.c **** 
 2213              		.loc 1 305 44 view .LVU857
 2214 090e FFF7FEFF 		bl	lv_trigo_sin
 2215              	.LVL169:
 305:Drivers/lvgl/src/draw/sw/lv_draw_sw_arc.c **** 
 2216              		.loc 1 305 78 discriminator 1 view .LVU858
 2217 0912 0D9A     		ldr	r2, [sp, #52]
 2218 0914 02FB00F1 		mul	r1, r2, r0
 305:Drivers/lvgl/src/draw/sw/lv_draw_sw_arc.c **** 
 2219              		.loc 1 305 40 discriminator 1 view .LVU859
 2220 0918 0E9A     		ldr	r2, [sp, #56]
ARM GAS  /var/folders/lp/x54gwt890xv47sdkqj1k04q40000gn/T//cc8OVz70.s 			page 66


 307:Drivers/lvgl/src/draw/sw/lv_draw_sw_arc.c ****         quarter_area.x1 = q->center->x + ((lv_trigo_sin(q->end_angle + 90) * (q->radius)) >> LV_TRI
 2221              		.loc 1 307 44 view .LVU860
 2222 091a 0798     		ldr	r0, [sp, #28]
 305:Drivers/lvgl/src/draw/sw/lv_draw_sw_arc.c **** 
 2223              		.loc 1 305 40 discriminator 1 view .LVU861
 2224 091c 02EBE132 		add	r2, r2, r1, asr #15
 305:Drivers/lvgl/src/draw/sw/lv_draw_sw_arc.c **** 
 2225              		.loc 1 305 25 discriminator 1 view .LVU862
 2226 0920 ADF89820 		strh	r2, [sp, #152]	@ movhi
 307:Drivers/lvgl/src/draw/sw/lv_draw_sw_arc.c ****         quarter_area.x1 = q->center->x + ((lv_trigo_sin(q->end_angle + 90) * (q->radius)) >> LV_TRI
 2227              		.loc 1 307 9 is_stmt 1 view .LVU863
 307:Drivers/lvgl/src/draw/sw/lv_draw_sw_arc.c ****         quarter_area.x1 = q->center->x + ((lv_trigo_sin(q->end_angle + 90) * (q->radius)) >> LV_TRI
 2228              		.loc 1 307 36 is_stmt 0 view .LVU864
 2229 0924 B8F80220 		ldrh	r2, [r8, #2]
 2230 0928 0E92     		str	r2, [sp, #56]
 307:Drivers/lvgl/src/draw/sw/lv_draw_sw_arc.c ****         quarter_area.x1 = q->center->x + ((lv_trigo_sin(q->end_angle + 90) * (q->radius)) >> LV_TRI
 2231              		.loc 1 307 44 view .LVU865
 2232 092a FFF7FEFF 		bl	lv_trigo_sin
 2233              	.LVL170:
 307:Drivers/lvgl/src/draw/sw/lv_draw_sw_arc.c ****         quarter_area.x1 = q->center->x + ((lv_trigo_sin(q->end_angle + 90) * (q->radius)) >> LV_TRI
 2234              		.loc 1 307 71 discriminator 1 view .LVU866
 2235 092e 0D9A     		ldr	r2, [sp, #52]
 2236 0930 02FB00F1 		mul	r1, r2, r0
 307:Drivers/lvgl/src/draw/sw/lv_draw_sw_arc.c ****         quarter_area.x1 = q->center->x + ((lv_trigo_sin(q->end_angle + 90) * (q->radius)) >> LV_TRI
 2237              		.loc 1 307 40 discriminator 1 view .LVU867
 2238 0934 0E9A     		ldr	r2, [sp, #56]
 308:Drivers/lvgl/src/draw/sw/lv_draw_sw_arc.c **** 
 2239              		.loc 1 308 70 view .LVU868
 2240 0936 05F15A00 		add	r0, r5, #90
 307:Drivers/lvgl/src/draw/sw/lv_draw_sw_arc.c ****         quarter_area.x1 = q->center->x + ((lv_trigo_sin(q->end_angle + 90) * (q->radius)) >> LV_TRI
 2241              		.loc 1 307 40 discriminator 1 view .LVU869
 2242 093a 02EBE132 		add	r2, r2, r1, asr #15
 307:Drivers/lvgl/src/draw/sw/lv_draw_sw_arc.c ****         quarter_area.x1 = q->center->x + ((lv_trigo_sin(q->end_angle + 90) * (q->radius)) >> LV_TRI
 2243              		.loc 1 307 25 discriminator 1 view .LVU870
 2244 093e ADF89620 		strh	r2, [sp, #150]	@ movhi
 308:Drivers/lvgl/src/draw/sw/lv_draw_sw_arc.c **** 
 2245              		.loc 1 308 9 is_stmt 1 view .LVU871
 308:Drivers/lvgl/src/draw/sw/lv_draw_sw_arc.c **** 
 2246              		.loc 1 308 44 is_stmt 0 view .LVU872
 2247 0942 00B2     		sxth	r0, r0
 308:Drivers/lvgl/src/draw/sw/lv_draw_sw_arc.c **** 
 2248              		.loc 1 308 36 view .LVU873
 2249 0944 B8F80020 		ldrh	r2, [r8]
 2250 0948 0E92     		str	r2, [sp, #56]
 308:Drivers/lvgl/src/draw/sw/lv_draw_sw_arc.c **** 
 2251              		.loc 1 308 44 view .LVU874
 2252 094a FFF7FEFF 		bl	lv_trigo_sin
 2253              	.LVL171:
 308:Drivers/lvgl/src/draw/sw/lv_draw_sw_arc.c **** 
 2254              		.loc 1 308 76 discriminator 1 view .LVU875
 2255 094e 0C9B     		ldr	r3, [sp, #48]
 308:Drivers/lvgl/src/draw/sw/lv_draw_sw_arc.c **** 
 2256              		.loc 1 308 40 discriminator 1 view .LVU876
 2257 0950 0E9A     		ldr	r2, [sp, #56]
 308:Drivers/lvgl/src/draw/sw/lv_draw_sw_arc.c **** 
 2258              		.loc 1 308 76 discriminator 1 view .LVU877
 2259 0952 00FB03F1 		mul	r1, r0, r3
ARM GAS  /var/folders/lp/x54gwt890xv47sdkqj1k04q40000gn/T//cc8OVz70.s 			page 67


 308:Drivers/lvgl/src/draw/sw/lv_draw_sw_arc.c **** 
 2260              		.loc 1 308 40 discriminator 1 view .LVU878
 2261 0956 02EBE132 		add	r2, r2, r1, asr #15
 310:Drivers/lvgl/src/draw/sw/lv_draw_sw_arc.c ****         if(ok) {
 2262              		.loc 1 310 19 view .LVU879
 2263 095a 0B99     		ldr	r1, [sp, #44]
 308:Drivers/lvgl/src/draw/sw/lv_draw_sw_arc.c **** 
 2264              		.loc 1 308 25 discriminator 1 view .LVU880
 2265 095c ADF89420 		strh	r2, [sp, #148]	@ movhi
 310:Drivers/lvgl/src/draw/sw/lv_draw_sw_arc.c ****         if(ok) {
 2266              		.loc 1 310 9 is_stmt 1 view .LVU881
 310:Drivers/lvgl/src/draw/sw/lv_draw_sw_arc.c ****         if(ok) {
 2267              		.loc 1 310 19 is_stmt 0 view .LVU882
 2268 0960 0846     		mov	r0, r1
 2269 0962 5246     		mov	r2, r10
 2270 0964 FFF7FEFF 		bl	_lv_area_intersect
 2271              	.LVL172:
 311:Drivers/lvgl/src/draw/sw/lv_draw_sw_arc.c ****             q->draw_ctx->clip_area = &quarter_area;
 2272              		.loc 1 311 9 is_stmt 1 view .LVU883
 311:Drivers/lvgl/src/draw/sw/lv_draw_sw_arc.c ****             q->draw_ctx->clip_area = &quarter_area;
 2273              		.loc 1 311 11 is_stmt 0 view .LVU884
 2274 0968 0F9B     		ldr	r3, [sp, #60]
 2275 096a 0028     		cmp	r0, #0
 2276 096c 40F00D82 		bne	.L59
 2277              	.LBE90:
 361:Drivers/lvgl/src/draw/sw/lv_draw_sw_arc.c **** }
 2278              		.loc 1 361 5 is_stmt 1 view .LVU885
 2279              	.LVL173:
 361:Drivers/lvgl/src/draw/sw/lv_draw_sw_arc.c **** }
 2280              		.loc 1 361 5 is_stmt 0 view .LVU886
 2281              	.LBE102:
 2282              	.LBE200:
 160:Drivers/lvgl/src/draw/sw/lv_draw_sw_arc.c ****         draw_quarter_3(&q_dsc);
 2283              		.loc 1 160 9 is_stmt 1 view .LVU887
 2284              	.LBB201:
 364:Drivers/lvgl/src/draw/sw/lv_draw_sw_arc.c **** {
 2285              		.loc 1 364 13 view .LVU888
 2286              	.LBB133:
 366:Drivers/lvgl/src/draw/sw/lv_draw_sw_arc.c ****     lv_area_t quarter_area;
 2287              		.loc 1 366 5 view .LVU889
 367:Drivers/lvgl/src/draw/sw/lv_draw_sw_arc.c **** 
 2288              		.loc 1 367 5 view .LVU890
 369:Drivers/lvgl/src/draw/sw/lv_draw_sw_arc.c ****         /*Small arc here*/
 2289              		.loc 1 369 5 view .LVU891
 383:Drivers/lvgl/src/draw/sw/lv_draw_sw_arc.c ****         /*Start and/or end arcs here*/
 2290              		.loc 1 383 10 view .LVU892
 412:Drivers/lvgl/src/draw/sw/lv_draw_sw_arc.c ****             (q->start_quarter == 0 && q->end_quarter == 3) ||
 2291              		.loc 1 412 10 view .LVU893
 413:Drivers/lvgl/src/draw/sw/lv_draw_sw_arc.c ****             (q->start_quarter == 1 && q->end_quarter == 3) ||
 2292              		.loc 1 413 60 is_stmt 0 discriminator 1 view .LVU894
 2293 0970 099A     		ldr	r2, [sp, #36]
 2294 0972 012A     		cmp	r2, #1
 2295 0974 00F02C81 		beq	.L60
 428:Drivers/lvgl/src/draw/sw/lv_draw_sw_arc.c **** }
 2296              		.loc 1 428 5 is_stmt 1 view .LVU895
 428:Drivers/lvgl/src/draw/sw/lv_draw_sw_arc.c **** }
 2297              		.loc 1 428 28 is_stmt 0 view .LVU896
ARM GAS  /var/folders/lp/x54gwt890xv47sdkqj1k04q40000gn/T//cc8OVz70.s 			page 68


 2298 0978 0299     		ldr	r1, [sp, #8]
 2299              	.LBE133:
 2300              	.LBE201:
 2301              	.LBB202:
 2302              	.LBB167:
 436:Drivers/lvgl/src/draw/sw/lv_draw_sw_arc.c ****         /*Small arc here*/
 2303              		.loc 1 436 7 view .LVU897
 2304 097a 032A     		cmp	r2, #3
 2305              	.LBE167:
 2306              	.LBE202:
 2307              	.LBB203:
 2308              	.LBB134:
 428:Drivers/lvgl/src/draw/sw/lv_draw_sw_arc.c **** }
 2309              		.loc 1 428 28 view .LVU898
 2310 097c C1F808A0 		str	r10, [r1, #8]
 2311              	.LVL174:
 428:Drivers/lvgl/src/draw/sw/lv_draw_sw_arc.c **** }
 2312              		.loc 1 428 28 view .LVU899
 2313              	.LBE134:
 2314              	.LBE203:
 161:Drivers/lvgl/src/draw/sw/lv_draw_sw_arc.c ****     }
 2315              		.loc 1 161 9 is_stmt 1 view .LVU900
 2316              	.LBB204:
 431:Drivers/lvgl/src/draw/sw/lv_draw_sw_arc.c **** {
 2317              		.loc 1 431 13 view .LVU901
 2318              	.LBB168:
 433:Drivers/lvgl/src/draw/sw/lv_draw_sw_arc.c ****     lv_area_t quarter_area;
 2319              		.loc 1 433 5 view .LVU902
 434:Drivers/lvgl/src/draw/sw/lv_draw_sw_arc.c **** 
 2320              		.loc 1 434 5 view .LVU903
 436:Drivers/lvgl/src/draw/sw/lv_draw_sw_arc.c ****         /*Small arc here*/
 2321              		.loc 1 436 5 view .LVU904
 436:Drivers/lvgl/src/draw/sw/lv_draw_sw_arc.c ****         /*Small arc here*/
 2322              		.loc 1 436 7 is_stmt 0 view .LVU905
 2323 0980 3FF47BAF 		beq	.L61
 2324              	.L62:
 479:Drivers/lvgl/src/draw/sw/lv_draw_sw_arc.c ****             (q->start_quarter == 2 && q->end_quarter == 0) ||
 2325              		.loc 1 479 10 is_stmt 1 view .LVU906
 479:Drivers/lvgl/src/draw/sw/lv_draw_sw_arc.c ****             (q->start_quarter == 2 && q->end_quarter == 0) ||
 2326              		.loc 1 479 12 is_stmt 0 view .LVU907
 2327 0984 DDE90932 		ldrd	r3, r2, [sp, #36]
 2328 0988 9342     		cmp	r3, r2
 2329 098a 00F00781 		beq	.L99
 2330              	.L104:
 479:Drivers/lvgl/src/draw/sw/lv_draw_sw_arc.c ****             (q->start_quarter == 2 && q->end_quarter == 0) ||
 2331              		.loc 1 479 108 discriminator 5 view .LVU908
 2332 098e 099B     		ldr	r3, [sp, #36]
 2333 0990 022B     		cmp	r3, #2
 2334 0992 7FF44AAD 		bne	.L111
 2335 0996 62E7     		b	.L100
 2336              	.LVL175:
 2337              	.L79:
 479:Drivers/lvgl/src/draw/sw/lv_draw_sw_arc.c ****             (q->start_quarter == 2 && q->end_quarter == 0) ||
 2338              		.loc 1 479 108 discriminator 5 view .LVU909
 2339              	.LBE168:
 2340              	.LBE204:
 2341              	.LBB205:
ARM GAS  /var/folders/lp/x54gwt890xv47sdkqj1k04q40000gn/T//cc8OVz70.s 			page 69


 2342              	.LBB135:
 413:Drivers/lvgl/src/draw/sw/lv_draw_sw_arc.c ****             (q->start_quarter == 1 && q->end_quarter == 3) ||
 2343              		.loc 1 413 60 discriminator 1 view .LVU910
 2344 0998 099B     		ldr	r3, [sp, #36]
 2345 099a 012B     		cmp	r3, #1
 2346 099c 00F01181 		beq	.L78
 2347              	.L77:
 428:Drivers/lvgl/src/draw/sw/lv_draw_sw_arc.c **** }
 2348              		.loc 1 428 5 is_stmt 1 view .LVU911
 428:Drivers/lvgl/src/draw/sw/lv_draw_sw_arc.c **** }
 2349              		.loc 1 428 28 is_stmt 0 view .LVU912
 2350 09a0 029B     		ldr	r3, [sp, #8]
 2351 09a2 C3F808A0 		str	r10, [r3, #8]
 2352              	.LVL176:
 428:Drivers/lvgl/src/draw/sw/lv_draw_sw_arc.c **** }
 2353              		.loc 1 428 28 view .LVU913
 2354              	.LBE135:
 2355              	.LBE205:
 161:Drivers/lvgl/src/draw/sw/lv_draw_sw_arc.c ****     }
 2356              		.loc 1 161 9 is_stmt 1 view .LVU914
 2357              	.LBB206:
 431:Drivers/lvgl/src/draw/sw/lv_draw_sw_arc.c **** {
 2358              		.loc 1 431 13 view .LVU915
 2359              	.LBB169:
 433:Drivers/lvgl/src/draw/sw/lv_draw_sw_arc.c ****     lv_area_t quarter_area;
 2360              		.loc 1 433 5 view .LVU916
 434:Drivers/lvgl/src/draw/sw/lv_draw_sw_arc.c **** 
 2361              		.loc 1 434 5 view .LVU917
 436:Drivers/lvgl/src/draw/sw/lv_draw_sw_arc.c ****         /*Small arc here*/
 2362              		.loc 1 436 5 view .LVU918
 436:Drivers/lvgl/src/draw/sw/lv_draw_sw_arc.c ****         /*Small arc here*/
 2363              		.loc 1 436 7 is_stmt 0 view .LVU919
 2364 09a6 099B     		ldr	r3, [sp, #36]
 2365              	.LVL177:
 436:Drivers/lvgl/src/draw/sw/lv_draw_sw_arc.c ****         /*Small arc here*/
 2366              		.loc 1 436 7 view .LVU920
 2367 09a8 032B     		cmp	r3, #3
 2368 09aa 00F0C581 		beq	.L316
 2369              	.LVL178:
 450:Drivers/lvgl/src/draw/sw/lv_draw_sw_arc.c ****         /*Start and/or end arcs here*/
 2370              		.loc 1 450 10 is_stmt 1 view .LVU921
 450:Drivers/lvgl/src/draw/sw/lv_draw_sw_arc.c ****         /*Start and/or end arcs here*/
 2371              		.loc 1 450 35 is_stmt 0 discriminator 1 view .LVU922
 2372 09ae 0A9B     		ldr	r3, [sp, #40]
 2373 09b0 032B     		cmp	r3, #3
 2374 09b2 40F0EF80 		bne	.L258
 2375 09b6 25AB     		add	r3, sp, #148
 2376 09b8 0B93     		str	r3, [sp, #44]
 2377 09ba 65E6     		b	.L98
 2378              	.LVL179:
 2379              	.L311:
 450:Drivers/lvgl/src/draw/sw/lv_draw_sw_arc.c ****         /*Start and/or end arcs here*/
 2380              		.loc 1 450 35 discriminator 1 view .LVU923
 2381 09bc B8F90230 		ldrsh	r3, [r8, #2]
 2382 09c0 BDE4     		b	.L54
 2383              	.LVL180:
 2384              	.L307:
ARM GAS  /var/folders/lp/x54gwt890xv47sdkqj1k04q40000gn/T//cc8OVz70.s 			page 70


 450:Drivers/lvgl/src/draw/sw/lv_draw_sw_arc.c ****         /*Start and/or end arcs here*/
 2385              		.loc 1 450 35 discriminator 1 view .LVU924
 2386              	.LBE169:
 2387              	.LBE206:
 2388              	.LBB207:
 2389              	.LBB74:
 2390              	.LBB63:
 237:Drivers/lvgl/src/draw/sw/lv_draw_sw_arc.c ****         quarter_area.x2 = q->center->x + ((lv_trigo_sin(q->start_angle + 90) * (q->radius)) >> LV_T
 2391              		.loc 1 237 9 is_stmt 1 view .LVU925
 237:Drivers/lvgl/src/draw/sw/lv_draw_sw_arc.c ****         quarter_area.x2 = q->center->x + ((lv_trigo_sin(q->start_angle + 90) * (q->radius)) >> LV_T
 2392              		.loc 1 237 44 is_stmt 0 view .LVU926
 2393 09c2 0898     		ldr	r0, [sp, #32]
 2394 09c4 0E92     		str	r2, [sp, #56]
 2395 09c6 0B93     		str	r3, [sp, #44]
 2396 09c8 FFF7FEFF 		bl	lv_trigo_sin
 2397              	.LVL181:
 237:Drivers/lvgl/src/draw/sw/lv_draw_sw_arc.c ****         quarter_area.x2 = q->center->x + ((lv_trigo_sin(q->start_angle + 90) * (q->radius)) >> LV_T
 2398              		.loc 1 237 73 discriminator 1 view .LVU927
 2399 09cc 0D9B     		ldr	r3, [sp, #52]
 237:Drivers/lvgl/src/draw/sw/lv_draw_sw_arc.c ****         quarter_area.x2 = q->center->x + ((lv_trigo_sin(q->start_angle + 90) * (q->radius)) >> LV_T
 2400              		.loc 1 237 40 discriminator 1 view .LVU928
 2401 09ce 0E9A     		ldr	r2, [sp, #56]
 237:Drivers/lvgl/src/draw/sw/lv_draw_sw_arc.c ****         quarter_area.x2 = q->center->x + ((lv_trigo_sin(q->start_angle + 90) * (q->radius)) >> LV_T
 2402              		.loc 1 237 73 discriminator 1 view .LVU929
 2403 09d0 03FB00F1 		mul	r1, r3, r0
 238:Drivers/lvgl/src/draw/sw/lv_draw_sw_arc.c **** 
 2404              		.loc 1 238 44 view .LVU930
 2405 09d4 0B9B     		ldr	r3, [sp, #44]
 237:Drivers/lvgl/src/draw/sw/lv_draw_sw_arc.c ****         quarter_area.x2 = q->center->x + ((lv_trigo_sin(q->start_angle + 90) * (q->radius)) >> LV_T
 2406              		.loc 1 237 40 discriminator 1 view .LVU931
 2407 09d6 02EBE132 		add	r2, r2, r1, asr #15
 238:Drivers/lvgl/src/draw/sw/lv_draw_sw_arc.c **** 
 2408              		.loc 1 238 44 view .LVU932
 2409 09da 1846     		mov	r0, r3
 238:Drivers/lvgl/src/draw/sw/lv_draw_sw_arc.c **** 
 2410              		.loc 1 238 36 view .LVU933
 2411 09dc B8F80030 		ldrh	r3, [r8]
 237:Drivers/lvgl/src/draw/sw/lv_draw_sw_arc.c ****         quarter_area.x2 = q->center->x + ((lv_trigo_sin(q->start_angle + 90) * (q->radius)) >> LV_T
 2412              		.loc 1 237 25 discriminator 1 view .LVU934
 2413 09e0 ADF89620 		strh	r2, [sp, #150]	@ movhi
 238:Drivers/lvgl/src/draw/sw/lv_draw_sw_arc.c **** 
 2414              		.loc 1 238 9 is_stmt 1 view .LVU935
 238:Drivers/lvgl/src/draw/sw/lv_draw_sw_arc.c **** 
 2415              		.loc 1 238 36 is_stmt 0 view .LVU936
 2416 09e4 0B93     		str	r3, [sp, #44]
 238:Drivers/lvgl/src/draw/sw/lv_draw_sw_arc.c **** 
 2417              		.loc 1 238 44 view .LVU937
 2418 09e6 FFF7FEFF 		bl	lv_trigo_sin
 2419              	.LVL182:
 238:Drivers/lvgl/src/draw/sw/lv_draw_sw_arc.c **** 
 2420              		.loc 1 238 78 discriminator 1 view .LVU938
 2421 09ea 0C9A     		ldr	r2, [sp, #48]
 238:Drivers/lvgl/src/draw/sw/lv_draw_sw_arc.c **** 
 2422              		.loc 1 238 40 discriminator 1 view .LVU939
 2423 09ec 0B9B     		ldr	r3, [sp, #44]
 238:Drivers/lvgl/src/draw/sw/lv_draw_sw_arc.c **** 
 2424              		.loc 1 238 78 discriminator 1 view .LVU940
ARM GAS  /var/folders/lp/x54gwt890xv47sdkqj1k04q40000gn/T//cc8OVz70.s 			page 71


 2425 09ee 00FB02F2 		mul	r2, r0, r2
 238:Drivers/lvgl/src/draw/sw/lv_draw_sw_arc.c **** 
 2426              		.loc 1 238 40 discriminator 1 view .LVU941
 2427 09f2 03EBE233 		add	r3, r3, r2, asr #15
 238:Drivers/lvgl/src/draw/sw/lv_draw_sw_arc.c **** 
 2428              		.loc 1 238 25 discriminator 1 view .LVU942
 2429 09f6 ADF89830 		strh	r3, [sp, #152]	@ movhi
 240:Drivers/lvgl/src/draw/sw/lv_draw_sw_arc.c ****         quarter_area.x1 = q->center->x + ((lv_trigo_sin(q->end_angle + 90) * (q->radius - q->width)
 2430              		.loc 1 240 9 is_stmt 1 view .LVU943
 240:Drivers/lvgl/src/draw/sw/lv_draw_sw_arc.c ****         quarter_area.x1 = q->center->x + ((lv_trigo_sin(q->end_angle + 90) * (q->radius - q->width)
 2431              		.loc 1 240 44 is_stmt 0 view .LVU944
 2432 09fa 0798     		ldr	r0, [sp, #28]
 240:Drivers/lvgl/src/draw/sw/lv_draw_sw_arc.c ****         quarter_area.x1 = q->center->x + ((lv_trigo_sin(q->end_angle + 90) * (q->radius - q->width)
 2433              		.loc 1 240 36 view .LVU945
 2434 09fc B8F80230 		ldrh	r3, [r8, #2]
 2435 0a00 0B93     		str	r3, [sp, #44]
 240:Drivers/lvgl/src/draw/sw/lv_draw_sw_arc.c ****         quarter_area.x1 = q->center->x + ((lv_trigo_sin(q->end_angle + 90) * (q->radius - q->width)
 2436              		.loc 1 240 44 view .LVU946
 2437 0a02 FFF7FEFF 		bl	lv_trigo_sin
 2438              	.LVL183:
 240:Drivers/lvgl/src/draw/sw/lv_draw_sw_arc.c ****         quarter_area.x1 = q->center->x + ((lv_trigo_sin(q->end_angle + 90) * (q->radius - q->width)
 2439              		.loc 1 240 71 discriminator 1 view .LVU947
 2440 0a06 0C9A     		ldr	r2, [sp, #48]
 240:Drivers/lvgl/src/draw/sw/lv_draw_sw_arc.c ****         quarter_area.x1 = q->center->x + ((lv_trigo_sin(q->end_angle + 90) * (q->radius - q->width)
 2441              		.loc 1 240 40 discriminator 1 view .LVU948
 2442 0a08 0B9B     		ldr	r3, [sp, #44]
 240:Drivers/lvgl/src/draw/sw/lv_draw_sw_arc.c ****         quarter_area.x1 = q->center->x + ((lv_trigo_sin(q->end_angle + 90) * (q->radius - q->width)
 2443              		.loc 1 240 71 discriminator 1 view .LVU949
 2444 0a0a 00FB02F2 		mul	r2, r0, r2
 240:Drivers/lvgl/src/draw/sw/lv_draw_sw_arc.c ****         quarter_area.x1 = q->center->x + ((lv_trigo_sin(q->end_angle + 90) * (q->radius - q->width)
 2445              		.loc 1 240 40 discriminator 1 view .LVU950
 2446 0a0e 03EBE233 		add	r3, r3, r2, asr #15
 241:Drivers/lvgl/src/draw/sw/lv_draw_sw_arc.c **** 
 2447              		.loc 1 241 70 view .LVU951
 2448 0a12 05F15A00 		add	r0, r5, #90
 240:Drivers/lvgl/src/draw/sw/lv_draw_sw_arc.c ****         quarter_area.x1 = q->center->x + ((lv_trigo_sin(q->end_angle + 90) * (q->radius - q->width)
 2449              		.loc 1 240 25 discriminator 1 view .LVU952
 2450 0a16 ADF89A30 		strh	r3, [sp, #154]	@ movhi
 241:Drivers/lvgl/src/draw/sw/lv_draw_sw_arc.c **** 
 2451              		.loc 1 241 9 is_stmt 1 view .LVU953
 241:Drivers/lvgl/src/draw/sw/lv_draw_sw_arc.c **** 
 2452              		.loc 1 241 44 is_stmt 0 view .LVU954
 2453 0a1a 00B2     		sxth	r0, r0
 241:Drivers/lvgl/src/draw/sw/lv_draw_sw_arc.c **** 
 2454              		.loc 1 241 36 view .LVU955
 2455 0a1c B8F80030 		ldrh	r3, [r8]
 2456 0a20 0B93     		str	r3, [sp, #44]
 241:Drivers/lvgl/src/draw/sw/lv_draw_sw_arc.c **** 
 2457              		.loc 1 241 44 view .LVU956
 2458 0a22 FFF7FEFF 		bl	lv_trigo_sin
 2459              	.LVL184:
 241:Drivers/lvgl/src/draw/sw/lv_draw_sw_arc.c **** 
 2460              		.loc 1 241 76 discriminator 1 view .LVU957
 2461 0a26 0D9B     		ldr	r3, [sp, #52]
 2462 0a28 03FB00F2 		mul	r2, r3, r0
 241:Drivers/lvgl/src/draw/sw/lv_draw_sw_arc.c **** 
 2463              		.loc 1 241 40 discriminator 1 view .LVU958
ARM GAS  /var/folders/lp/x54gwt890xv47sdkqj1k04q40000gn/T//cc8OVz70.s 			page 72


 2464 0a2c 0B9B     		ldr	r3, [sp, #44]
 2465 0a2e 03EBE233 		add	r3, r3, r2, asr #15
 241:Drivers/lvgl/src/draw/sw/lv_draw_sw_arc.c **** 
 2466              		.loc 1 241 25 discriminator 1 view .LVU959
 2467 0a32 ADF89430 		strh	r3, [sp, #148]	@ movhi
 243:Drivers/lvgl/src/draw/sw/lv_draw_sw_arc.c ****         if(ok) {
 2468              		.loc 1 243 9 is_stmt 1 view .LVU960
 243:Drivers/lvgl/src/draw/sw/lv_draw_sw_arc.c ****         if(ok) {
 2469              		.loc 1 243 19 is_stmt 0 view .LVU961
 2470 0a36 25AB     		add	r3, sp, #148
 2471 0a38 1946     		mov	r1, r3
 2472 0a3a 5246     		mov	r2, r10
 2473 0a3c 1846     		mov	r0, r3
 2474 0a3e 0B93     		str	r3, [sp, #44]
 2475 0a40 FFF7FEFF 		bl	_lv_area_intersect
 2476              	.LVL185:
 244:Drivers/lvgl/src/draw/sw/lv_draw_sw_arc.c ****             q->draw_ctx->clip_area = &quarter_area;
