ARM GAS  /var/folders/0z/tsy30v1j4xl4_7kw94k978ww0000gn/T//ccqei2dV.s 			page 1


   1              		.cpu cortex-m4
   2              		.arch armv7e-m
   3              		.fpu fpv4-sp-d16
   4              		.eabi_attribute 27, 1
   5              		.eabi_attribute 28, 1
   6              		.eabi_attribute 20, 1
   7              		.eabi_attribute 21, 1
   8              		.eabi_attribute 23, 3
   9              		.eabi_attribute 24, 1
  10              		.eabi_attribute 25, 1
  11              		.eabi_attribute 26, 1
  12              		.eabi_attribute 30, 2
  13              		.eabi_attribute 34, 1
  14              		.eabi_attribute 18, 4
  15              		.file	"lv_draw_sw_polygon.c"
  16              		.text
  17              	.Ltext0:
  18              		.cfi_sections	.debug_frame
  19              		.section	.text.lv_draw_sw_polygon,"ax",%progbits
  20              		.align	1
  21              		.p2align 2,,3
  22              		.global	lv_draw_sw_polygon
  23              		.syntax unified
  24              		.thumb
  25              		.thumb_func
  27              	lv_draw_sw_polygon:
  28              	.LVL0:
  29              	.LFB56:
  30              		.file 1 "Drivers/lvgl/src/draw/sw/lv_draw_sw_polygon.c"
   1:Drivers/lvgl/src/draw/sw/lv_draw_sw_polygon.c **** /**
   2:Drivers/lvgl/src/draw/sw/lv_draw_sw_polygon.c ****  * @file lv_draw_sw_polygon.c
   3:Drivers/lvgl/src/draw/sw/lv_draw_sw_polygon.c ****  *
   4:Drivers/lvgl/src/draw/sw/lv_draw_sw_polygon.c ****  */
   5:Drivers/lvgl/src/draw/sw/lv_draw_sw_polygon.c **** 
   6:Drivers/lvgl/src/draw/sw/lv_draw_sw_polygon.c **** /*********************
   7:Drivers/lvgl/src/draw/sw/lv_draw_sw_polygon.c ****  *      INCLUDES
   8:Drivers/lvgl/src/draw/sw/lv_draw_sw_polygon.c ****  *********************/
   9:Drivers/lvgl/src/draw/sw/lv_draw_sw_polygon.c **** #include "lv_draw_sw.h"
  10:Drivers/lvgl/src/draw/sw/lv_draw_sw_polygon.c **** #include "../../misc/lv_math.h"
  11:Drivers/lvgl/src/draw/sw/lv_draw_sw_polygon.c **** #include "../../misc/lv_mem.h"
  12:Drivers/lvgl/src/draw/sw/lv_draw_sw_polygon.c **** #include "../../misc/lv_area.h"
  13:Drivers/lvgl/src/draw/sw/lv_draw_sw_polygon.c **** #include "../../misc/lv_color.h"
  14:Drivers/lvgl/src/draw/sw/lv_draw_sw_polygon.c **** #include "../lv_draw_rect.h"
  15:Drivers/lvgl/src/draw/sw/lv_draw_sw_polygon.c **** 
  16:Drivers/lvgl/src/draw/sw/lv_draw_sw_polygon.c **** /*********************
  17:Drivers/lvgl/src/draw/sw/lv_draw_sw_polygon.c ****  *      DEFINES
  18:Drivers/lvgl/src/draw/sw/lv_draw_sw_polygon.c ****  *********************/
  19:Drivers/lvgl/src/draw/sw/lv_draw_sw_polygon.c **** 
  20:Drivers/lvgl/src/draw/sw/lv_draw_sw_polygon.c **** /**********************
  21:Drivers/lvgl/src/draw/sw/lv_draw_sw_polygon.c ****  *      TYPEDEFS
  22:Drivers/lvgl/src/draw/sw/lv_draw_sw_polygon.c ****  **********************/
  23:Drivers/lvgl/src/draw/sw/lv_draw_sw_polygon.c **** 
  24:Drivers/lvgl/src/draw/sw/lv_draw_sw_polygon.c **** /**********************
  25:Drivers/lvgl/src/draw/sw/lv_draw_sw_polygon.c ****  *  STATIC PROTOTYPES
  26:Drivers/lvgl/src/draw/sw/lv_draw_sw_polygon.c ****  **********************/
  27:Drivers/lvgl/src/draw/sw/lv_draw_sw_polygon.c **** 
  28:Drivers/lvgl/src/draw/sw/lv_draw_sw_polygon.c **** /**********************
ARM GAS  /var/folders/0z/tsy30v1j4xl4_7kw94k978ww0000gn/T//ccqei2dV.s 			page 2


  29:Drivers/lvgl/src/draw/sw/lv_draw_sw_polygon.c ****  *  STATIC VARIABLES
  30:Drivers/lvgl/src/draw/sw/lv_draw_sw_polygon.c ****  **********************/
  31:Drivers/lvgl/src/draw/sw/lv_draw_sw_polygon.c **** 
  32:Drivers/lvgl/src/draw/sw/lv_draw_sw_polygon.c **** /**********************
  33:Drivers/lvgl/src/draw/sw/lv_draw_sw_polygon.c ****  *      MACROS
  34:Drivers/lvgl/src/draw/sw/lv_draw_sw_polygon.c ****  **********************/
  35:Drivers/lvgl/src/draw/sw/lv_draw_sw_polygon.c **** 
  36:Drivers/lvgl/src/draw/sw/lv_draw_sw_polygon.c **** /**********************
  37:Drivers/lvgl/src/draw/sw/lv_draw_sw_polygon.c ****  *   GLOBAL FUNCTIONS
  38:Drivers/lvgl/src/draw/sw/lv_draw_sw_polygon.c ****  **********************/
  39:Drivers/lvgl/src/draw/sw/lv_draw_sw_polygon.c **** 
  40:Drivers/lvgl/src/draw/sw/lv_draw_sw_polygon.c **** /**
  41:Drivers/lvgl/src/draw/sw/lv_draw_sw_polygon.c ****  * Draw a polygon. Only convex polygons are supported
  42:Drivers/lvgl/src/draw/sw/lv_draw_sw_polygon.c ****  * @param points an array of points
  43:Drivers/lvgl/src/draw/sw/lv_draw_sw_polygon.c ****  * @param point_cnt number of points
  44:Drivers/lvgl/src/draw/sw/lv_draw_sw_polygon.c ****  * @param clip_area polygon will be drawn only in this area
  45:Drivers/lvgl/src/draw/sw/lv_draw_sw_polygon.c ****  * @param draw_dsc pointer to an initialized `lv_draw_rect_dsc_t` variable
  46:Drivers/lvgl/src/draw/sw/lv_draw_sw_polygon.c ****  */
  47:Drivers/lvgl/src/draw/sw/lv_draw_sw_polygon.c **** void lv_draw_sw_polygon(lv_draw_ctx_t * draw_ctx, const lv_draw_rect_dsc_t * draw_dsc, const lv_poi
  48:Drivers/lvgl/src/draw/sw/lv_draw_sw_polygon.c ****                         uint16_t point_cnt)
  49:Drivers/lvgl/src/draw/sw/lv_draw_sw_polygon.c **** {
  31              		.loc 1 49 1 view -0
  32              		.cfi_startproc
  33              		@ args = 0, pretend = 0, frame = 40
  34              		@ frame_needed = 0, uses_anonymous_args = 0
  50:Drivers/lvgl/src/draw/sw/lv_draw_sw_polygon.c **** #if LV_DRAW_COMPLEX
  51:Drivers/lvgl/src/draw/sw/lv_draw_sw_polygon.c ****     if(point_cnt < 3) return;
  35              		.loc 1 51 5 view .LVU1
  49:Drivers/lvgl/src/draw/sw/lv_draw_sw_polygon.c **** #if LV_DRAW_COMPLEX
  36              		.loc 1 49 1 is_stmt 0 view .LVU2
  37 0000 2DE9F04F 		push	{r4, r5, r6, r7, r8, r9, r10, fp, lr}
  38              		.cfi_def_cfa_offset 36
  39              		.cfi_offset 4, -36
  40              		.cfi_offset 5, -32
  41              		.cfi_offset 6, -28
  42              		.cfi_offset 7, -24
  43              		.cfi_offset 8, -20
  44              		.cfi_offset 9, -16
  45              		.cfi_offset 10, -12
  46              		.cfi_offset 11, -8
  47              		.cfi_offset 14, -4
  48 0004 2DED028B 		vpush.64	{d8}
  49              		.cfi_def_cfa_offset 44
  50              		.cfi_offset 80, -44
  51              		.cfi_offset 81, -40
  52              		.loc 1 51 7 view .LVU3
  53 0008 022B     		cmp	r3, #2
  49:Drivers/lvgl/src/draw/sw/lv_draw_sw_polygon.c **** #if LV_DRAW_COMPLEX
  54              		.loc 1 49 1 view .LVU4
  55 000a 8DB0     		sub	sp, sp, #52
  56              		.cfi_def_cfa_offset 96
  49:Drivers/lvgl/src/draw/sw/lv_draw_sw_polygon.c **** #if LV_DRAW_COMPLEX
  57              		.loc 1 49 1 view .LVU5
  58 000c CDE90501 		strd	r0, r1, [sp, #20]
  59              		.loc 1 51 7 view .LVU6
  60 0010 40F23681 		bls	.L1
  52:Drivers/lvgl/src/draw/sw/lv_draw_sw_polygon.c ****     if(points == NULL) return;
ARM GAS  /var/folders/0z/tsy30v1j4xl4_7kw94k978ww0000gn/T//ccqei2dV.s 			page 3


  61              		.loc 1 52 5 is_stmt 1 view .LVU7
  62 0014 1646     		mov	r6, r2
  63              		.loc 1 52 7 is_stmt 0 view .LVU8
  64 0016 002A     		cmp	r2, #0
  65 0018 00F03281 		beq	.L1
  53:Drivers/lvgl/src/draw/sw/lv_draw_sw_polygon.c **** 
  54:Drivers/lvgl/src/draw/sw/lv_draw_sw_polygon.c ****     /*Join adjacent points if they are on the same coordinate*/
  55:Drivers/lvgl/src/draw/sw/lv_draw_sw_polygon.c ****     lv_point_t * p = lv_mem_buf_get(point_cnt * sizeof(lv_point_t));
  66              		.loc 1 55 5 is_stmt 1 view .LVU9
  67              		.loc 1 55 47 is_stmt 0 view .LVU10
  68 001c 9F00     		lsls	r7, r3, #2
  69              		.loc 1 55 22 view .LVU11
  70 001e 3846     		mov	r0, r7
  71              	.LVL1:
  72              		.loc 1 55 22 view .LVU12
  73 0020 1C46     		mov	r4, r3
  74 0022 FFF7FEFF 		bl	lv_mem_buf_get
  75              	.LVL2:
  56:Drivers/lvgl/src/draw/sw/lv_draw_sw_polygon.c ****     if(p == NULL) return;
  76              		.loc 1 56 5 is_stmt 1 view .LVU13
  77              		.loc 1 56 7 is_stmt 0 view .LVU14
  78 0026 0546     		mov	r5, r0
  79 0028 0028     		cmp	r0, #0
  80 002a 00F02981 		beq	.L1
  57:Drivers/lvgl/src/draw/sw/lv_draw_sw_polygon.c ****     uint16_t i;
  81              		.loc 1 57 5 is_stmt 1 view .LVU15
  58:Drivers/lvgl/src/draw/sw/lv_draw_sw_polygon.c ****     uint16_t pcnt = 0;
  82              		.loc 1 58 5 view .LVU16
  83              	.LVL3:
  59:Drivers/lvgl/src/draw/sw/lv_draw_sw_polygon.c ****     p[0] = points[0];
  84              		.loc 1 59 5 view .LVU17
  85              		.loc 1 59 10 is_stmt 0 view .LVU18
  86 002e 3368     		ldr	r3, [r6]	@ unaligned
  87 0030 2B60     		str	r3, [r5]	@ unaligned
  60:Drivers/lvgl/src/draw/sw/lv_draw_sw_polygon.c ****     for(i = 0; i < point_cnt - 1; i++) {
  88              		.loc 1 60 5 is_stmt 1 view .LVU19
  89              	.LVL4:
  90              		.loc 1 60 18 view .LVU20
  91              		.loc 1 60 30 is_stmt 0 view .LVU21
  92 0032 601E     		subs	r0, r4, #1
  93              	.LVL5:
  58:Drivers/lvgl/src/draw/sw/lv_draw_sw_polygon.c ****     uint16_t pcnt = 0;
  94              		.loc 1 58 14 view .LVU22
  95 0034 0024     		movs	r4, #0
  96              		.loc 1 60 11 view .LVU23
  97 0036 2346     		mov	r3, r4
  98 0038 06E0     		b	.L5
  99              	.LVL6:
 100              	.L3:
  61:Drivers/lvgl/src/draw/sw/lv_draw_sw_polygon.c ****         if(points[i].x != points[i + 1].x || points[i].y != points[i + 1].y) {
  62:Drivers/lvgl/src/draw/sw/lv_draw_sw_polygon.c ****             p[pcnt] = points[i];
 101              		.loc 1 62 21 view .LVU24
 102 003a 7158     		ldr	r1, [r6, r1]	@ unaligned
 103 003c 45F82410 		str	r1, [r5, r4, lsl #2]	@ unaligned
  63:Drivers/lvgl/src/draw/sw/lv_draw_sw_polygon.c ****             pcnt++;
 104              		.loc 1 63 13 is_stmt 1 view .LVU25
 105              		.loc 1 63 17 is_stmt 0 view .LVU26
ARM GAS  /var/folders/0z/tsy30v1j4xl4_7kw94k978ww0000gn/T//ccqei2dV.s 			page 4


 106 0040 621C     		adds	r2, r4, #1
  60:Drivers/lvgl/src/draw/sw/lv_draw_sw_polygon.c ****     for(i = 0; i < point_cnt - 1; i++) {
 107              		.loc 1 60 18 view .LVU27
 108 0042 8342     		cmp	r3, r0
 109              		.loc 1 63 17 view .LVU28
 110 0044 94B2     		uxth	r4, r2
 111              	.LVL7:
  60:Drivers/lvgl/src/draw/sw/lv_draw_sw_polygon.c ****     for(i = 0; i < point_cnt - 1; i++) {
 112              		.loc 1 60 36 is_stmt 1 view .LVU29
  60:Drivers/lvgl/src/draw/sw/lv_draw_sw_polygon.c ****     for(i = 0; i < point_cnt - 1; i++) {
 113              		.loc 1 60 18 view .LVU30
 114 0046 16DA     		bge	.L43
 115              	.LVL8:
 116              	.L5:
  61:Drivers/lvgl/src/draw/sw/lv_draw_sw_polygon.c ****         if(points[i].x != points[i + 1].x || points[i].y != points[i + 1].y) {
 117              		.loc 1 61 9 view .LVU31
  62:Drivers/lvgl/src/draw/sw/lv_draw_sw_polygon.c ****             pcnt++;
 118              		.loc 1 62 13 view .LVU32
  61:Drivers/lvgl/src/draw/sw/lv_draw_sw_polygon.c ****         if(points[i].x != points[i + 1].x || points[i].y != points[i + 1].y) {
 119              		.loc 1 61 18 is_stmt 0 view .LVU33
 120 0048 9900     		lsls	r1, r3, #2
  61:Drivers/lvgl/src/draw/sw/lv_draw_sw_polygon.c ****         if(points[i].x != points[i + 1].x || points[i].y != points[i + 1].y) {
 121              		.loc 1 61 33 view .LVU34
 122 004a 0A1D     		adds	r2, r1, #4
  61:Drivers/lvgl/src/draw/sw/lv_draw_sw_polygon.c ****         if(points[i].x != points[i + 1].x || points[i].y != points[i + 1].y) {
 123              		.loc 1 61 11 view .LVU35
 124 004c 36F923E0 		ldrsh	lr, [r6, r3, lsl #2]
 125 0050 36F902C0 		ldrsh	ip, [r6, r2]
  60:Drivers/lvgl/src/draw/sw/lv_draw_sw_polygon.c ****         if(points[i].x != points[i + 1].x || points[i].y != points[i + 1].y) {
 126              		.loc 1 60 36 view .LVU36
 127 0054 03F10108 		add	r8, r3, #1
  61:Drivers/lvgl/src/draw/sw/lv_draw_sw_polygon.c ****             p[pcnt] = points[i];
 128              		.loc 1 61 11 view .LVU37
 129 0058 E645     		cmp	lr, ip
  61:Drivers/lvgl/src/draw/sw/lv_draw_sw_polygon.c ****             p[pcnt] = points[i];
 130              		.loc 1 61 18 view .LVU38
 131 005a 06EB8309 		add	r9, r6, r3, lsl #2
  61:Drivers/lvgl/src/draw/sw/lv_draw_sw_polygon.c ****             p[pcnt] = points[i];
 132              		.loc 1 61 33 view .LVU39
 133 005e 3244     		add	r2, r2, r6
  60:Drivers/lvgl/src/draw/sw/lv_draw_sw_polygon.c ****         if(points[i].x != points[i + 1].x || points[i].y != points[i + 1].y) {
 134              		.loc 1 60 36 view .LVU40
 135 0060 1FFA88F3 		uxth	r3, r8
 136              	.LVL9:
  61:Drivers/lvgl/src/draw/sw/lv_draw_sw_polygon.c ****             p[pcnt] = points[i];
 137              		.loc 1 61 11 view .LVU41
 138 0064 E9D1     		bne	.L3
  61:Drivers/lvgl/src/draw/sw/lv_draw_sw_polygon.c ****             p[pcnt] = points[i];
 139              		.loc 1 61 43 discriminator 1 view .LVU42
 140 0066 B9F902C0 		ldrsh	ip, [r9, #2]
 141 006a B2F90220 		ldrsh	r2, [r2, #2]
 142 006e 9445     		cmp	ip, r2
 143 0070 E3D1     		bne	.L3
  60:Drivers/lvgl/src/draw/sw/lv_draw_sw_polygon.c ****         if(points[i].x != points[i + 1].x || points[i].y != points[i + 1].y) {
 144              		.loc 1 60 36 is_stmt 1 view .LVU43
 145              	.LVL10:
  60:Drivers/lvgl/src/draw/sw/lv_draw_sw_polygon.c ****         if(points[i].x != points[i + 1].x || points[i].y != points[i + 1].y) {
ARM GAS  /var/folders/0z/tsy30v1j4xl4_7kw94k978ww0000gn/T//ccqei2dV.s 			page 5


 146              		.loc 1 60 18 view .LVU44
 147 0072 8342     		cmp	r3, r0
 148 0074 E8DB     		blt	.L5
 149              	.L43:
  64:Drivers/lvgl/src/draw/sw/lv_draw_sw_polygon.c ****         }
  65:Drivers/lvgl/src/draw/sw/lv_draw_sw_polygon.c ****     }
  66:Drivers/lvgl/src/draw/sw/lv_draw_sw_polygon.c ****     /*The first and the last points are also adjacent*/
  67:Drivers/lvgl/src/draw/sw/lv_draw_sw_polygon.c ****     if(points[0].x != points[point_cnt - 1].x || points[0].y != points[point_cnt - 1].y) {
 150              		.loc 1 67 5 view .LVU45
 151              		.loc 1 67 29 is_stmt 0 view .LVU46
 152 0076 043F     		subs	r7, r7, #4
 153              		.loc 1 67 7 view .LVU47
 154 0078 B6F90020 		ldrsh	r2, [r6]
 155 007c F35F     		ldrsh	r3, [r6, r7]
 156              	.LVL11:
 157              		.loc 1 67 7 view .LVU48
 158 007e 9A42     		cmp	r2, r3
 159              		.loc 1 67 29 view .LVU49
 160 0080 06EB0701 		add	r1, r6, r7
 161              		.loc 1 67 7 view .LVU50
 162 0084 00F00181 		beq	.L44
 163              	.L6:
  68:Drivers/lvgl/src/draw/sw/lv_draw_sw_polygon.c ****         p[pcnt] = points[point_cnt - 1];
 164              		.loc 1 68 9 is_stmt 1 view .LVU51
 165              		.loc 1 68 17 is_stmt 0 view .LVU52
 166 0088 F359     		ldr	r3, [r6, r7]	@ unaligned
 167 008a 45F82430 		str	r3, [r5, r4, lsl #2]	@ unaligned
  69:Drivers/lvgl/src/draw/sw/lv_draw_sw_polygon.c ****         pcnt++;
 168              		.loc 1 69 9 is_stmt 1 view .LVU53
 169              		.loc 1 69 13 is_stmt 0 view .LVU54
 170 008e 0134     		adds	r4, r4, #1
 171              	.LVL12:
 172              		.loc 1 69 13 view .LVU55
 173 0090 A4B2     		uxth	r4, r4
 174              	.LVL13:
 175              	.L7:
  70:Drivers/lvgl/src/draw/sw/lv_draw_sw_polygon.c ****     }
  71:Drivers/lvgl/src/draw/sw/lv_draw_sw_polygon.c **** 
  72:Drivers/lvgl/src/draw/sw/lv_draw_sw_polygon.c ****     point_cnt = pcnt;
 176              		.loc 1 72 5 is_stmt 1 view .LVU56
  73:Drivers/lvgl/src/draw/sw/lv_draw_sw_polygon.c ****     if(point_cnt < 3) {
 177              		.loc 1 73 5 view .LVU57
 178              		.loc 1 73 7 is_stmt 0 view .LVU58
 179 0092 022C     		cmp	r4, #2
 180 0094 40F20181 		bls	.L45
  74:Drivers/lvgl/src/draw/sw/lv_draw_sw_polygon.c ****         lv_mem_buf_release(p);
  75:Drivers/lvgl/src/draw/sw/lv_draw_sw_polygon.c ****         return;
  76:Drivers/lvgl/src/draw/sw/lv_draw_sw_polygon.c ****     }
  77:Drivers/lvgl/src/draw/sw/lv_draw_sw_polygon.c **** 
  78:Drivers/lvgl/src/draw/sw/lv_draw_sw_polygon.c ****     lv_area_t poly_coords = {.x1 = LV_COORD_MAX, .y1 = LV_COORD_MAX, .x2 = LV_COORD_MIN, .y2 = LV_C
 181              		.loc 1 78 5 is_stmt 1 view .LVU59
 182              		.loc 1 78 15 is_stmt 0 view .LVU60
 183 0098 864B     		ldr	r3, .L48
 184 009a 93E80300 		ldm	r3, {r0, r1}
 185 009e 08AB     		add	r3, sp, #32
 186 00a0 83E80300 		stm	r3, {r0, r1}
  79:Drivers/lvgl/src/draw/sw/lv_draw_sw_polygon.c **** 
ARM GAS  /var/folders/0z/tsy30v1j4xl4_7kw94k978ww0000gn/T//ccqei2dV.s 			page 6


  80:Drivers/lvgl/src/draw/sw/lv_draw_sw_polygon.c ****     for(i = 0; i < point_cnt; i++) {
 187              		.loc 1 80 5 is_stmt 1 view .LVU61
 188              	.LVL14:
 189              		.loc 1 80 18 view .LVU62
  78:Drivers/lvgl/src/draw/sw/lv_draw_sw_polygon.c **** 
 190              		.loc 1 78 15 is_stmt 0 view .LVU63
 191 00a4 8449     		ldr	r1, .L48+4
 192 00a6 631E     		subs	r3, r4, #1
 193 00a8 9BB2     		uxth	r3, r3
 194 00aa 05F1040C 		add	ip, r5, #4
 195 00ae 41F6FF70 		movw	r0, #8191
 196 00b2 0CEB830C 		add	ip, ip, r3, lsl #2
 197 00b6 0E46     		mov	r6, r1
 198              	.LVL15:
  78:Drivers/lvgl/src/draw/sw/lv_draw_sw_polygon.c **** 
 199              		.loc 1 78 15 view .LVU64
 200 00b8 2B46     		mov	r3, r5
 201 00ba 0746     		mov	r7, r0
 202              	.LVL16:
 203              	.L9:
  81:Drivers/lvgl/src/draw/sw/lv_draw_sw_polygon.c ****         poly_coords.x1 = LV_MIN(poly_coords.x1, p[i].x);
 204              		.loc 1 81 9 is_stmt 1 discriminator 3 view .LVU65
 205              		.loc 1 81 26 is_stmt 0 discriminator 3 view .LVU66
 206 00bc B3F90020 		ldrsh	r2, [r3]
 207 00c0 9742     		cmp	r7, r2
 208 00c2 A8BF     		it	ge
 209 00c4 1746     		movge	r7, r2
  82:Drivers/lvgl/src/draw/sw/lv_draw_sw_polygon.c ****         poly_coords.y1 = LV_MIN(poly_coords.y1, p[i].y);
 210              		.loc 1 82 9 is_stmt 1 discriminator 3 view .LVU67
  83:Drivers/lvgl/src/draw/sw/lv_draw_sw_polygon.c ****         poly_coords.x2 = LV_MAX(poly_coords.x2, p[i].x);
 211              		.loc 1 83 26 is_stmt 0 discriminator 3 view .LVU68
 212 00c6 9642     		cmp	r6, r2
 213 00c8 B8BF     		it	lt
 214 00ca 1646     		movlt	r6, r2
  82:Drivers/lvgl/src/draw/sw/lv_draw_sw_polygon.c ****         poly_coords.y1 = LV_MIN(poly_coords.y1, p[i].y);
 215              		.loc 1 82 26 discriminator 3 view .LVU69
 216 00cc B3F90220 		ldrsh	r2, [r3, #2]
 217 00d0 9042     		cmp	r0, r2
  80:Drivers/lvgl/src/draw/sw/lv_draw_sw_polygon.c ****         poly_coords.x1 = LV_MIN(poly_coords.x1, p[i].x);
 218              		.loc 1 80 18 discriminator 3 view .LVU70
 219 00d2 03F10403 		add	r3, r3, #4
  82:Drivers/lvgl/src/draw/sw/lv_draw_sw_polygon.c ****         poly_coords.y1 = LV_MIN(poly_coords.y1, p[i].y);
 220              		.loc 1 82 26 discriminator 3 view .LVU71
 221 00d6 A8BF     		it	ge
 222 00d8 1046     		movge	r0, r2
 223              		.loc 1 83 9 is_stmt 1 discriminator 3 view .LVU72
  84:Drivers/lvgl/src/draw/sw/lv_draw_sw_polygon.c ****         poly_coords.y2 = LV_MAX(poly_coords.y2, p[i].y);
 224              		.loc 1 84 9 discriminator 3 view .LVU73
 225              		.loc 1 84 26 is_stmt 0 discriminator 3 view .LVU74
 226 00da 9142     		cmp	r1, r2
 227 00dc B8BF     		it	lt
 228 00de 1146     		movlt	r1, r2
  80:Drivers/lvgl/src/draw/sw/lv_draw_sw_polygon.c ****         poly_coords.x1 = LV_MIN(poly_coords.x1, p[i].x);
 229              		.loc 1 80 32 is_stmt 1 discriminator 3 view .LVU75
  80:Drivers/lvgl/src/draw/sw/lv_draw_sw_polygon.c ****         poly_coords.x1 = LV_MIN(poly_coords.x1, p[i].x);
 230              		.loc 1 80 18 discriminator 3 view .LVU76
 231 00e0 9C45     		cmp	ip, r3
ARM GAS  /var/folders/0z/tsy30v1j4xl4_7kw94k978ww0000gn/T//ccqei2dV.s 			page 7


 232 00e2 EBD1     		bne	.L9
  85:Drivers/lvgl/src/draw/sw/lv_draw_sw_polygon.c ****     }
  86:Drivers/lvgl/src/draw/sw/lv_draw_sw_polygon.c **** 
  87:Drivers/lvgl/src/draw/sw/lv_draw_sw_polygon.c ****     bool is_common;
  88:Drivers/lvgl/src/draw/sw/lv_draw_sw_polygon.c ****     lv_area_t clip_area;
  89:Drivers/lvgl/src/draw/sw/lv_draw_sw_polygon.c ****     is_common = _lv_area_intersect(&clip_area, &poly_coords, draw_ctx->clip_area);
 233              		.loc 1 89 17 is_stmt 0 view .LVU77
 234 00e4 059B     		ldr	r3, [sp, #20]
 235 00e6 ADF82200 		strh	r0, [sp, #34]	@ movhi
 236 00ea ADF82610 		strh	r1, [sp, #38]	@ movhi
  87:Drivers/lvgl/src/draw/sw/lv_draw_sw_polygon.c ****     lv_area_t clip_area;
 237              		.loc 1 87 5 is_stmt 1 view .LVU78
  88:Drivers/lvgl/src/draw/sw/lv_draw_sw_polygon.c ****     is_common = _lv_area_intersect(&clip_area, &poly_coords, draw_ctx->clip_area);
 238              		.loc 1 88 5 view .LVU79
 239              		.loc 1 89 5 view .LVU80
 240              		.loc 1 89 17 is_stmt 0 view .LVU81
 241 00ee 9A68     		ldr	r2, [r3, #8]
 242 00f0 ADF82070 		strh	r7, [sp, #32]	@ movhi
 243 00f4 08A9     		add	r1, sp, #32
 244 00f6 0AA8     		add	r0, sp, #40
 245 00f8 ADF82460 		strh	r6, [sp, #36]	@ movhi
 246 00fc FFF7FEFF 		bl	_lv_area_intersect
 247              	.LVL17:
  90:Drivers/lvgl/src/draw/sw/lv_draw_sw_polygon.c ****     if(!is_common) {
 248              		.loc 1 90 5 is_stmt 1 view .LVU82
 249              		.loc 1 90 7 is_stmt 0 view .LVU83
 250 0100 0028     		cmp	r0, #0
 251 0102 00F0D280 		beq	.L46
  91:Drivers/lvgl/src/draw/sw/lv_draw_sw_polygon.c ****         lv_mem_buf_release(p);
  92:Drivers/lvgl/src/draw/sw/lv_draw_sw_polygon.c ****         return;
  93:Drivers/lvgl/src/draw/sw/lv_draw_sw_polygon.c ****     }
  94:Drivers/lvgl/src/draw/sw/lv_draw_sw_polygon.c **** 
  95:Drivers/lvgl/src/draw/sw/lv_draw_sw_polygon.c ****     const lv_area_t * clip_area_ori = draw_ctx->clip_area;
 252              		.loc 1 95 5 is_stmt 1 view .LVU84
 253              		.loc 1 95 23 is_stmt 0 view .LVU85
 254 0106 059B     		ldr	r3, [sp, #20]
  96:Drivers/lvgl/src/draw/sw/lv_draw_sw_polygon.c ****     draw_ctx->clip_area = &clip_area;
  97:Drivers/lvgl/src/draw/sw/lv_draw_sw_polygon.c **** 
  98:Drivers/lvgl/src/draw/sw/lv_draw_sw_polygon.c ****     /*Find the lowest point*/
  99:Drivers/lvgl/src/draw/sw/lv_draw_sw_polygon.c ****     lv_coord_t y_min = p[0].y;
 255              		.loc 1 99 16 view .LVU86
 256 0108 2846     		mov	r0, r5
 257              	.LVL18:
  95:Drivers/lvgl/src/draw/sw/lv_draw_sw_polygon.c ****     draw_ctx->clip_area = &clip_area;
 258              		.loc 1 95 23 view .LVU87
 259 010a 9A68     		ldr	r2, [r3, #8]
 260 010c 0792     		str	r2, [sp, #28]
 261              	.LVL19:
  96:Drivers/lvgl/src/draw/sw/lv_draw_sw_polygon.c ****     draw_ctx->clip_area = &clip_area;
 262              		.loc 1 96 5 is_stmt 1 view .LVU88
 263              		.loc 1 99 16 is_stmt 0 view .LVU89
 264 010e 30F9021F 		ldrsh	r1, [r0, #2]!
  96:Drivers/lvgl/src/draw/sw/lv_draw_sw_polygon.c ****     draw_ctx->clip_area = &clip_area;
 265              		.loc 1 96 25 view .LVU90
 266 0112 0AAA     		add	r2, sp, #40
 267              	.LVL20:
  96:Drivers/lvgl/src/draw/sw/lv_draw_sw_polygon.c ****     draw_ctx->clip_area = &clip_area;
ARM GAS  /var/folders/0z/tsy30v1j4xl4_7kw94k978ww0000gn/T//ccqei2dV.s 			page 8


 268              		.loc 1 96 25 view .LVU91
 269 0114 9A60     		str	r2, [r3, #8]
 270              	.LVL21:
 271              		.loc 1 99 5 is_stmt 1 view .LVU92
 100:Drivers/lvgl/src/draw/sw/lv_draw_sw_polygon.c ****     int16_t y_min_i = 0;
 272              		.loc 1 100 5 view .LVU93
 101:Drivers/lvgl/src/draw/sw/lv_draw_sw_polygon.c **** 
 102:Drivers/lvgl/src/draw/sw/lv_draw_sw_polygon.c ****     for(i = 1; i < point_cnt; i++) {
 273              		.loc 1 102 5 view .LVU94
 274              		.loc 1 102 18 view .LVU95
 100:Drivers/lvgl/src/draw/sw/lv_draw_sw_polygon.c ****     int16_t y_min_i = 0;
 275              		.loc 1 100 13 is_stmt 0 view .LVU96
 276 0116 0026     		movs	r6, #0
  99:Drivers/lvgl/src/draw/sw/lv_draw_sw_polygon.c ****     int16_t y_min_i = 0;
 277              		.loc 1 99 16 view .LVU97
 278 0118 0123     		movs	r3, #1
 279              	.LVL22:
 280              	.L13:
 103:Drivers/lvgl/src/draw/sw/lv_draw_sw_polygon.c ****         if(p[i].y < y_min) {
 281              		.loc 1 103 9 is_stmt 1 view .LVU98
 104:Drivers/lvgl/src/draw/sw/lv_draw_sw_polygon.c ****             y_min = p[i].y;
 282              		.loc 1 104 13 view .LVU99
 103:Drivers/lvgl/src/draw/sw/lv_draw_sw_polygon.c ****         if(p[i].y < y_min) {
 283              		.loc 1 103 16 is_stmt 0 view .LVU100
 284 011a 30F92320 		ldrsh	r2, [r0, r3, lsl #2]
 285              	.LVL23:
 105:Drivers/lvgl/src/draw/sw/lv_draw_sw_polygon.c ****             y_min_i = i;
 286              		.loc 1 105 13 is_stmt 1 view .LVU101
 103:Drivers/lvgl/src/draw/sw/lv_draw_sw_polygon.c ****         if(p[i].y < y_min) {
 287              		.loc 1 103 11 is_stmt 0 view .LVU102
 288 011e 8A42     		cmp	r2, r1
 289              		.loc 1 105 21 view .LVU103
 290 0120 B8BF     		it	lt
 291 0122 1EB2     		sxthlt	r6, r3
 292              	.LVL24:
 102:Drivers/lvgl/src/draw/sw/lv_draw_sw_polygon.c ****         if(p[i].y < y_min) {
 293              		.loc 1 102 18 view .LVU104
 294 0124 03F10103 		add	r3, r3, #1
 295              	.LVL25:
 296              		.loc 1 105 21 view .LVU105
 297 0128 B8BF     		it	lt
 298 012a 1146     		movlt	r1, r2
 299              	.LVL26:
 102:Drivers/lvgl/src/draw/sw/lv_draw_sw_polygon.c ****         if(p[i].y < y_min) {
 300              		.loc 1 102 32 is_stmt 1 view .LVU106
 102:Drivers/lvgl/src/draw/sw/lv_draw_sw_polygon.c ****         if(p[i].y < y_min) {
 301              		.loc 1 102 18 view .LVU107
 302 012c 9AB2     		uxth	r2, r3
 303 012e 9442     		cmp	r4, r2
 304 0130 F3D8     		bhi	.L13
 106:Drivers/lvgl/src/draw/sw/lv_draw_sw_polygon.c ****         }
 107:Drivers/lvgl/src/draw/sw/lv_draw_sw_polygon.c ****     }
 108:Drivers/lvgl/src/draw/sw/lv_draw_sw_polygon.c **** 
 109:Drivers/lvgl/src/draw/sw/lv_draw_sw_polygon.c ****     lv_draw_mask_line_param_t * mp = lv_mem_buf_get(sizeof(lv_draw_mask_line_param_t) * point_cnt);
 305              		.loc 1 109 5 view .LVU108
 306              		.loc 1 109 87 is_stmt 0 view .LVU109
 307 0132 2C20     		movs	r0, #44
ARM GAS  /var/folders/0z/tsy30v1j4xl4_7kw94k978ww0000gn/T//ccqei2dV.s 			page 9


 308              		.loc 1 109 38 view .LVU110
 309 0134 04FB00F0 		mul	r0, r4, r0
 310 0138 FFF7FEFF 		bl	lv_mem_buf_get
 311              	.LVL27:
 110:Drivers/lvgl/src/draw/sw/lv_draw_sw_polygon.c ****     lv_draw_mask_line_param_t * mp_next = mp;
 111:Drivers/lvgl/src/draw/sw/lv_draw_sw_polygon.c **** 
 112:Drivers/lvgl/src/draw/sw/lv_draw_sw_polygon.c ****     int32_t i_prev_left = y_min_i;
 113:Drivers/lvgl/src/draw/sw/lv_draw_sw_polygon.c ****     int32_t i_prev_right = y_min_i;
 114:Drivers/lvgl/src/draw/sw/lv_draw_sw_polygon.c ****     int32_t i_next_left;
 115:Drivers/lvgl/src/draw/sw/lv_draw_sw_polygon.c ****     int32_t i_next_right;
 116:Drivers/lvgl/src/draw/sw/lv_draw_sw_polygon.c ****     uint32_t mask_cnt = 0;
 117:Drivers/lvgl/src/draw/sw/lv_draw_sw_polygon.c **** 
 118:Drivers/lvgl/src/draw/sw/lv_draw_sw_polygon.c ****     /*Get the index of the left and right points*/
 119:Drivers/lvgl/src/draw/sw/lv_draw_sw_polygon.c ****     i_next_left = y_min_i - 1;
 120:Drivers/lvgl/src/draw/sw/lv_draw_sw_polygon.c ****     if(i_next_left < 0) i_next_left = point_cnt + i_next_left;
 121:Drivers/lvgl/src/draw/sw/lv_draw_sw_polygon.c **** 
 122:Drivers/lvgl/src/draw/sw/lv_draw_sw_polygon.c ****     i_next_right = y_min_i + 1;
 312              		.loc 1 122 18 view .LVU111
 313 013c 731C     		adds	r3, r6, #1
 120:Drivers/lvgl/src/draw/sw/lv_draw_sw_polygon.c **** 
 314              		.loc 1 120 7 view .LVU112
 315 013e 711E     		subs	r1, r6, #1
 120:Drivers/lvgl/src/draw/sw/lv_draw_sw_polygon.c **** 
 316              		.loc 1 120 37 view .LVU113
 317 0140 48BF     		it	mi
 318 0142 0919     		addmi	r1, r1, r4
 123:Drivers/lvgl/src/draw/sw/lv_draw_sw_polygon.c ****     if(i_next_right > point_cnt - 1) i_next_right = 0;
 319              		.loc 1 123 7 view .LVU114
 320 0144 A342     		cmp	r3, r4
 124:Drivers/lvgl/src/draw/sw/lv_draw_sw_polygon.c **** 
 125:Drivers/lvgl/src/draw/sw/lv_draw_sw_polygon.c ****     /**
 126:Drivers/lvgl/src/draw/sw/lv_draw_sw_polygon.c ****      * Check if the order of points is inverted or not.
 127:Drivers/lvgl/src/draw/sw/lv_draw_sw_polygon.c ****      * The normal case is when the left point is on `y_min_i - 1`
 128:Drivers/lvgl/src/draw/sw/lv_draw_sw_polygon.c ****      * Explanation:
 129:Drivers/lvgl/src/draw/sw/lv_draw_sw_polygon.c ****      *   if angle(p_left) < angle(p_right) -> inverted
 130:Drivers/lvgl/src/draw/sw/lv_draw_sw_polygon.c ****      *   dy_left/dx_left < dy_right/dx_right
 131:Drivers/lvgl/src/draw/sw/lv_draw_sw_polygon.c ****      *   dy_left * dx_right < dy_right * dx_left
 132:Drivers/lvgl/src/draw/sw/lv_draw_sw_polygon.c ****      */
 133:Drivers/lvgl/src/draw/sw/lv_draw_sw_polygon.c ****     lv_coord_t dxl = p[i_next_left].x - p[y_min_i].x;
 134:Drivers/lvgl/src/draw/sw/lv_draw_sw_polygon.c ****     lv_coord_t dxr = p[i_next_right].x - p[y_min_i].x;
 321              		.loc 1 134 23 view .LVU115
 322 0146 B4BF     		ite	lt
 323 0148 05EB8303 		addlt	r3, r5, r3, lsl #2
 324 014c 2B46     		movge	r3, r5
 133:Drivers/lvgl/src/draw/sw/lv_draw_sw_polygon.c ****     lv_coord_t dxr = p[i_next_right].x - p[y_min_i].x;
 325              		.loc 1 133 42 view .LVU116
 326 014e 05EB8602 		add	r2, r5, r6, lsl #2
 109:Drivers/lvgl/src/draw/sw/lv_draw_sw_polygon.c ****     lv_draw_mask_line_param_t * mp_next = mp;
 327              		.loc 1 109 38 view .LVU117
 328 0152 08EE100A 		vmov	s16, r0	@ int
 329              	.LVL28:
 110:Drivers/lvgl/src/draw/sw/lv_draw_sw_polygon.c **** 
 330              		.loc 1 110 5 is_stmt 1 view .LVU118
 112:Drivers/lvgl/src/draw/sw/lv_draw_sw_polygon.c ****     int32_t i_prev_right = y_min_i;
 331              		.loc 1 112 5 view .LVU119
 133:Drivers/lvgl/src/draw/sw/lv_draw_sw_polygon.c ****     lv_coord_t dxr = p[i_next_right].x - p[y_min_i].x;
 332              		.loc 1 133 23 is_stmt 0 view .LVU120
ARM GAS  /var/folders/0z/tsy30v1j4xl4_7kw94k978ww0000gn/T//ccqei2dV.s 			page 10


 333 0156 05EB8100 		add	r0, r5, r1, lsl #2
 334              	.LVL29:
 133:Drivers/lvgl/src/draw/sw/lv_draw_sw_polygon.c ****     lv_coord_t dxr = p[i_next_right].x - p[y_min_i].x;
 335              		.loc 1 133 51 view .LVU121
 336 015a 35F826C0 		ldrh	ip, [r5, r6, lsl #2]
 337              		.loc 1 134 40 view .LVU122
 338 015e 1F88     		ldrh	r7, [r3]
 135:Drivers/lvgl/src/draw/sw/lv_draw_sw_polygon.c ****     lv_coord_t dyl = p[i_next_left].y - p[y_min_i].y;
 339              		.loc 1 135 51 view .LVU123
 340 0160 B2F90220 		ldrsh	r2, [r2, #2]
 133:Drivers/lvgl/src/draw/sw/lv_draw_sw_polygon.c ****     lv_coord_t dxr = p[i_next_right].x - p[y_min_i].x;
 341              		.loc 1 133 39 view .LVU124
 342 0164 35F82110 		ldrh	r1, [r5, r1, lsl #2]
 343              		.loc 1 135 39 view .LVU125
 344 0168 4088     		ldrh	r0, [r0, #2]
 136:Drivers/lvgl/src/draw/sw/lv_draw_sw_polygon.c ****     lv_coord_t dyr = p[i_next_right].y - p[y_min_i].y;
 345              		.loc 1 136 40 view .LVU126
 346 016a 5B88     		ldrh	r3, [r3, #2]
 133:Drivers/lvgl/src/draw/sw/lv_draw_sw_polygon.c ****     lv_coord_t dxr = p[i_next_right].x - p[y_min_i].x;
 347              		.loc 1 133 39 view .LVU127
 348 016c A1EB0C01 		sub	r1, r1, ip
 134:Drivers/lvgl/src/draw/sw/lv_draw_sw_polygon.c ****     lv_coord_t dyl = p[i_next_left].y - p[y_min_i].y;
 349              		.loc 1 134 40 view .LVU128
 350 0170 A7EB0C07 		sub	r7, r7, ip
 135:Drivers/lvgl/src/draw/sw/lv_draw_sw_polygon.c ****     lv_coord_t dyl = p[i_next_left].y - p[y_min_i].y;
 351              		.loc 1 135 51 view .LVU129
 352 0174 1FFA82FC 		uxth	ip, r2
 135:Drivers/lvgl/src/draw/sw/lv_draw_sw_polygon.c ****     lv_coord_t dyl = p[i_next_left].y - p[y_min_i].y;
 353              		.loc 1 135 39 view .LVU130
 354 0178 A0EB0C00 		sub	r0, r0, ip
 355              		.loc 1 136 40 view .LVU131
 356 017c A3EB0C03 		sub	r3, r3, ip
 137:Drivers/lvgl/src/draw/sw/lv_draw_sw_polygon.c **** 
 138:Drivers/lvgl/src/draw/sw/lv_draw_sw_polygon.c ****     bool inv = false;
 139:Drivers/lvgl/src/draw/sw/lv_draw_sw_polygon.c ****     if(dyl * dxr < dyr * dxl) inv = true;
 357              		.loc 1 139 12 view .LVU132
 358 0180 10FB07F0 		smulbb	r0, r0, r7
 359              		.loc 1 139 24 view .LVU133
 360 0184 13FB01F3 		smulbb	r3, r3, r1
 361 0188 18EE10BA 		vmov	fp, s16	@ int
 112:Drivers/lvgl/src/draw/sw/lv_draw_sw_polygon.c ****     int32_t i_prev_right = y_min_i;
 362              		.loc 1 112 13 view .LVU134
 363 018c B246     		mov	r10, r6
 364              	.LVL30:
 113:Drivers/lvgl/src/draw/sw/lv_draw_sw_polygon.c ****     int32_t i_next_left;
 365              		.loc 1 113 5 is_stmt 1 view .LVU135
 114:Drivers/lvgl/src/draw/sw/lv_draw_sw_polygon.c ****     int32_t i_next_right;
 366              		.loc 1 114 5 view .LVU136
 115:Drivers/lvgl/src/draw/sw/lv_draw_sw_polygon.c ****     uint32_t mask_cnt = 0;
 367              		.loc 1 115 5 view .LVU137
 116:Drivers/lvgl/src/draw/sw/lv_draw_sw_polygon.c **** 
 368              		.loc 1 116 5 view .LVU138
 119:Drivers/lvgl/src/draw/sw/lv_draw_sw_polygon.c ****     if(i_next_left < 0) i_next_left = point_cnt + i_next_left;
 369              		.loc 1 119 5 view .LVU139
 120:Drivers/lvgl/src/draw/sw/lv_draw_sw_polygon.c **** 
 370              		.loc 1 120 5 view .LVU140
 120:Drivers/lvgl/src/draw/sw/lv_draw_sw_polygon.c **** 
ARM GAS  /var/folders/0z/tsy30v1j4xl4_7kw94k978ww0000gn/T//ccqei2dV.s 			page 11


 371              		.loc 1 120 25 view .LVU141
 122:Drivers/lvgl/src/draw/sw/lv_draw_sw_polygon.c ****     if(i_next_right > point_cnt - 1) i_next_right = 0;
 372              		.loc 1 122 5 view .LVU142
 123:Drivers/lvgl/src/draw/sw/lv_draw_sw_polygon.c **** 
 373              		.loc 1 123 5 view .LVU143
 133:Drivers/lvgl/src/draw/sw/lv_draw_sw_polygon.c ****     lv_coord_t dxr = p[i_next_right].x - p[y_min_i].x;
 374              		.loc 1 133 5 view .LVU144
 134:Drivers/lvgl/src/draw/sw/lv_draw_sw_polygon.c ****     lv_coord_t dyl = p[i_next_left].y - p[y_min_i].y;
 375              		.loc 1 134 5 view .LVU145
 135:Drivers/lvgl/src/draw/sw/lv_draw_sw_polygon.c ****     lv_coord_t dyr = p[i_next_right].y - p[y_min_i].y;
 376              		.loc 1 135 5 view .LVU146
 136:Drivers/lvgl/src/draw/sw/lv_draw_sw_polygon.c **** 
 377              		.loc 1 136 5 view .LVU147
 138:Drivers/lvgl/src/draw/sw/lv_draw_sw_polygon.c ****     if(dyl * dxr < dyr * dxl) inv = true;
 378              		.loc 1 138 5 view .LVU148
 379              		.loc 1 139 5 view .LVU149
 380              		.loc 1 139 12 is_stmt 0 view .LVU150
 381 018e 0390     		str	r0, [sp, #12]
 382              		.loc 1 139 24 view .LVU151
 383 0190 0493     		str	r3, [sp, #16]
 384 0192 4FF00008 		mov	r8, #0
 385 0196 4FE0     		b	.L27
 386              	.LVL31:
 387              	.L47:
 140:Drivers/lvgl/src/draw/sw/lv_draw_sw_polygon.c **** 
 141:Drivers/lvgl/src/draw/sw/lv_draw_sw_polygon.c ****     do {
 142:Drivers/lvgl/src/draw/sw/lv_draw_sw_polygon.c ****         if(!inv) {
 143:Drivers/lvgl/src/draw/sw/lv_draw_sw_polygon.c ****             i_next_left = i_prev_left - 1;
 388              		.loc 1 143 13 is_stmt 1 view .LVU152
 144:Drivers/lvgl/src/draw/sw/lv_draw_sw_polygon.c ****             if(i_next_left < 0) i_next_left = point_cnt + i_next_left;
 389              		.loc 1 144 13 view .LVU153
 390              		.loc 1 144 15 is_stmt 0 view .LVU154
 391 0198 BAF10109 		subs	r9, r10, #1
 392              	.LVL32:
 393              		.loc 1 144 33 is_stmt 1 view .LVU155
 145:Drivers/lvgl/src/draw/sw/lv_draw_sw_polygon.c **** 
 146:Drivers/lvgl/src/draw/sw/lv_draw_sw_polygon.c ****             i_next_right = i_prev_right + 1;
 394              		.loc 1 146 26 is_stmt 0 view .LVU156
 395 019c 06F10107 		add	r7, r6, #1
 144:Drivers/lvgl/src/draw/sw/lv_draw_sw_polygon.c ****             if(i_next_left < 0) i_next_left = point_cnt + i_next_left;
 396              		.loc 1 144 45 view .LVU157
 397 01a0 48BF     		it	mi
 398 01a2 A144     		addmi	r9, r9, r4
 399              	.LVL33:
 400              		.loc 1 146 13 is_stmt 1 view .LVU158
 147:Drivers/lvgl/src/draw/sw/lv_draw_sw_polygon.c ****             if(i_next_right > point_cnt - 1) i_next_right = 0;
 401              		.loc 1 147 13 view .LVU159
 402              		.loc 1 147 15 is_stmt 0 view .LVU160
 403 01a4 A742     		cmp	r7, r4
 148:Drivers/lvgl/src/draw/sw/lv_draw_sw_polygon.c ****         }
 149:Drivers/lvgl/src/draw/sw/lv_draw_sw_polygon.c ****         else {
 150:Drivers/lvgl/src/draw/sw/lv_draw_sw_polygon.c ****             i_next_left = i_prev_left + 1;
 151:Drivers/lvgl/src/draw/sw/lv_draw_sw_polygon.c ****             if(i_next_left > point_cnt - 1) i_next_left = 0;
 152:Drivers/lvgl/src/draw/sw/lv_draw_sw_polygon.c **** 
 153:Drivers/lvgl/src/draw/sw/lv_draw_sw_polygon.c ****             i_next_right = i_prev_right - 1;
 154:Drivers/lvgl/src/draw/sw/lv_draw_sw_polygon.c ****             if(i_next_right < 0) i_next_right = point_cnt + i_next_right;
 155:Drivers/lvgl/src/draw/sw/lv_draw_sw_polygon.c ****         }
ARM GAS  /var/folders/0z/tsy30v1j4xl4_7kw94k978ww0000gn/T//ccqei2dV.s 			page 12


 156:Drivers/lvgl/src/draw/sw/lv_draw_sw_polygon.c **** 
 157:Drivers/lvgl/src/draw/sw/lv_draw_sw_polygon.c ****         if(p[i_next_left].y >= p[i_prev_left].y) {
 404              		.loc 1 157 13 view .LVU161
 405 01a6 05EB8903 		add	r3, r5, r9, lsl #2
 147:Drivers/lvgl/src/draw/sw/lv_draw_sw_polygon.c ****             if(i_next_right > point_cnt - 1) i_next_right = 0;
 406              		.loc 1 147 15 view .LVU162
 407 01aa 00DB     		blt	.L20
 147:Drivers/lvgl/src/draw/sw/lv_draw_sw_polygon.c ****             if(i_next_right > point_cnt - 1) i_next_right = 0;
 408              		.loc 1 147 59 view .LVU163
 409 01ac 0027     		movs	r7, #0
 410              	.LVL34:
 411              	.L20:
 412              		.loc 1 157 9 is_stmt 1 view .LVU164
 413              		.loc 1 157 26 is_stmt 0 view .LVU165
 414 01ae B3F90200 		ldrsh	r0, [r3, #2]
 415              		.loc 1 157 11 view .LVU166
 416 01b2 9042     		cmp	r0, r2
 417 01b4 16DB     		blt	.L22
 158:Drivers/lvgl/src/draw/sw/lv_draw_sw_polygon.c ****             if(p[i_next_left].y != p[i_prev_left].y &&
 418              		.loc 1 158 13 is_stmt 1 view .LVU167
 419              		.loc 1 158 15 is_stmt 0 view .LVU168
 420 01b6 12D0     		beq	.L23
 159:Drivers/lvgl/src/draw/sw/lv_draw_sw_polygon.c ****                p[i_next_left].x != p[i_prev_left].x) {
 421              		.loc 1 159 30 discriminator 1 view .LVU169
 422 01b8 B3F90030 		ldrsh	r3, [r3]
 423              		.loc 1 159 50 discriminator 1 view .LVU170
 424 01bc 35F92A10 		ldrsh	r1, [r5, r10, lsl #2]
 158:Drivers/lvgl/src/draw/sw/lv_draw_sw_polygon.c ****             if(p[i_next_left].y != p[i_prev_left].y &&
 425              		.loc 1 158 53 discriminator 1 view .LVU171
 426 01c0 8B42     		cmp	r3, r1
 427 01c2 0CD0     		beq	.L23
 160:Drivers/lvgl/src/draw/sw/lv_draw_sw_polygon.c ****                 lv_draw_mask_line_points_init(mp_next, p[i_prev_left].x, p[i_prev_left].y,
 428              		.loc 1 160 17 is_stmt 1 view .LVU172
 429 01c4 0090     		str	r0, [sp]
 430 01c6 0120     		movs	r0, #1
 431 01c8 0190     		str	r0, [sp, #4]
 432 01ca 5846     		mov	r0, fp
 433 01cc FFF7FEFF 		bl	lv_draw_mask_line_points_init
 434              	.LVL35:
 161:Drivers/lvgl/src/draw/sw/lv_draw_sw_polygon.c ****                                               p[i_next_left].x, p[i_next_left].y,
 162:Drivers/lvgl/src/draw/sw/lv_draw_sw_polygon.c ****                                               LV_DRAW_MASK_LINE_SIDE_RIGHT);
 163:Drivers/lvgl/src/draw/sw/lv_draw_sw_polygon.c ****                 lv_draw_mask_add(mp_next, mp);
 435              		.loc 1 163 17 view .LVU173
 436 01d0 5846     		mov	r0, fp
 437 01d2 18EE101A 		vmov	r1, s16	@ int
 438 01d6 FFF7FEFF 		bl	lv_draw_mask_add
 439              	.LVL36:
 164:Drivers/lvgl/src/draw/sw/lv_draw_sw_polygon.c ****                 mp_next++;
 440              		.loc 1 164 17 view .LVU174
 441              		.loc 1 164 24 is_stmt 0 view .LVU175
 442 01da 0BF12C0B 		add	fp, fp, #44
 443              	.LVL37:
 444              	.L23:
 165:Drivers/lvgl/src/draw/sw/lv_draw_sw_polygon.c ****             }
 166:Drivers/lvgl/src/draw/sw/lv_draw_sw_polygon.c ****             mask_cnt++;
 445              		.loc 1 166 13 is_stmt 1 view .LVU176
 446              		.loc 1 166 21 is_stmt 0 view .LVU177
ARM GAS  /var/folders/0z/tsy30v1j4xl4_7kw94k978ww0000gn/T//ccqei2dV.s 			page 13


 447 01de 08F10108 		add	r8, r8, #1
 448              	.LVL38:
 167:Drivers/lvgl/src/draw/sw/lv_draw_sw_polygon.c ****             i_prev_left = i_next_left;
 449              		.loc 1 167 13 is_stmt 1 view .LVU178
 450              		.loc 1 167 25 is_stmt 0 view .LVU179
 451 01e2 CA46     		mov	r10, r9
 452              	.LVL39:
 453              	.L22:
 168:Drivers/lvgl/src/draw/sw/lv_draw_sw_polygon.c ****         }
 169:Drivers/lvgl/src/draw/sw/lv_draw_sw_polygon.c **** 
 170:Drivers/lvgl/src/draw/sw/lv_draw_sw_polygon.c ****         if(mask_cnt == point_cnt) break;
 454              		.loc 1 170 9 is_stmt 1 view .LVU180
 455              		.loc 1 170 11 is_stmt 0 view .LVU181
 456 01e4 4445     		cmp	r4, r8
 457 01e6 38D0     		beq	.L24
 171:Drivers/lvgl/src/draw/sw/lv_draw_sw_polygon.c **** 
 172:Drivers/lvgl/src/draw/sw/lv_draw_sw_polygon.c ****         if(p[i_next_right].y >= p[i_prev_right].y) {
 458              		.loc 1 172 9 is_stmt 1 view .LVU182
 459              		.loc 1 172 13 is_stmt 0 view .LVU183
 460 01e8 05EB8703 		add	r3, r5, r7, lsl #2
 461              		.loc 1 172 34 view .LVU184
 462 01ec B100     		lsls	r1, r6, #2
 463              		.loc 1 172 27 view .LVU185
 464 01ee B3F90200 		ldrsh	r0, [r3, #2]
 465              		.loc 1 172 34 view .LVU186
 466 01f2 05EB8603 		add	r3, r5, r6, lsl #2
 467              		.loc 1 172 48 view .LVU187
 468 01f6 B3F90220 		ldrsh	r2, [r3, #2]
 469              		.loc 1 172 11 view .LVU188
 470 01fa 9042     		cmp	r0, r2
 471              		.loc 1 172 13 view .LVU189
 472 01fc 4FEA8703 		lsl	r3, r7, #2
 473              		.loc 1 172 11 view .LVU190
 474 0200 14DB     		blt	.L25
 173:Drivers/lvgl/src/draw/sw/lv_draw_sw_polygon.c ****             if(p[i_next_right].y != p[i_prev_right].y &&
 475              		.loc 1 173 13 is_stmt 1 view .LVU191
 476              		.loc 1 173 15 is_stmt 0 view .LVU192
 477 0202 10D0     		beq	.L26
 174:Drivers/lvgl/src/draw/sw/lv_draw_sw_polygon.c ****                p[i_next_right].x != p[i_prev_right].x) {
 478              		.loc 1 174 31 discriminator 1 view .LVU193
 479 0204 EB5E     		ldrsh	r3, [r5, r3]
 480              		.loc 1 174 52 discriminator 1 view .LVU194
 481 0206 695E     		ldrsh	r1, [r5, r1]
 173:Drivers/lvgl/src/draw/sw/lv_draw_sw_polygon.c ****             if(p[i_next_right].y != p[i_prev_right].y &&
 482              		.loc 1 173 55 discriminator 1 view .LVU195
 483 0208 8B42     		cmp	r3, r1
 484 020a 0CD0     		beq	.L26
 175:Drivers/lvgl/src/draw/sw/lv_draw_sw_polygon.c **** 
 176:Drivers/lvgl/src/draw/sw/lv_draw_sw_polygon.c ****                 lv_draw_mask_line_points_init(mp_next, p[i_prev_right].x, p[i_prev_right].y,
 485              		.loc 1 176 17 is_stmt 1 view .LVU196
 486 020c 0090     		str	r0, [sp]
 487 020e 0020     		movs	r0, #0
 488 0210 0190     		str	r0, [sp, #4]
 489 0212 5846     		mov	r0, fp
 490 0214 FFF7FEFF 		bl	lv_draw_mask_line_points_init
 491              	.LVL40:
 177:Drivers/lvgl/src/draw/sw/lv_draw_sw_polygon.c ****                                               p[i_next_right].x, p[i_next_right].y,
ARM GAS  /var/folders/0z/tsy30v1j4xl4_7kw94k978ww0000gn/T//ccqei2dV.s 			page 14


 178:Drivers/lvgl/src/draw/sw/lv_draw_sw_polygon.c ****                                               LV_DRAW_MASK_LINE_SIDE_LEFT);
 179:Drivers/lvgl/src/draw/sw/lv_draw_sw_polygon.c ****                 lv_draw_mask_add(mp_next, mp);
 492              		.loc 1 179 17 view .LVU197
 493 0218 5846     		mov	r0, fp
 494 021a 18EE101A 		vmov	r1, s16	@ int
 495 021e FFF7FEFF 		bl	lv_draw_mask_add
 496              	.LVL41:
 180:Drivers/lvgl/src/draw/sw/lv_draw_sw_polygon.c ****                 mp_next++;
 497              		.loc 1 180 17 view .LVU198
 498              		.loc 1 180 24 is_stmt 0 view .LVU199
 499 0222 0BF12C0B 		add	fp, fp, #44
 500              	.LVL42:
 501              	.L26:
 181:Drivers/lvgl/src/draw/sw/lv_draw_sw_polygon.c ****             }
 182:Drivers/lvgl/src/draw/sw/lv_draw_sw_polygon.c ****             mask_cnt++;
 502              		.loc 1 182 13 is_stmt 1 view .LVU200
 503              		.loc 1 182 21 is_stmt 0 view .LVU201
 504 0226 08F10108 		add	r8, r8, #1
 505              	.LVL43:
 183:Drivers/lvgl/src/draw/sw/lv_draw_sw_polygon.c ****             i_prev_right = i_next_right;
 506              		.loc 1 183 13 is_stmt 1 view .LVU202
 507              		.loc 1 183 26 is_stmt 0 view .LVU203
 508 022a 3E46     		mov	r6, r7
 509              	.LVL44:
 510              	.L25:
 184:Drivers/lvgl/src/draw/sw/lv_draw_sw_polygon.c ****         }
 185:Drivers/lvgl/src/draw/sw/lv_draw_sw_polygon.c **** 
 186:Drivers/lvgl/src/draw/sw/lv_draw_sw_polygon.c ****     } while(mask_cnt < point_cnt);
 511              		.loc 1 186 22 is_stmt 1 view .LVU204
 512 022c 4445     		cmp	r4, r8
 513 022e 14D9     		bls	.L24
 157:Drivers/lvgl/src/draw/sw/lv_draw_sw_polygon.c ****             if(p[i_next_left].y != p[i_prev_left].y &&
 514              		.loc 1 157 46 is_stmt 0 view .LVU205
 515 0230 05EB8A03 		add	r3, r5, r10, lsl #2
 516 0234 B3F90220 		ldrsh	r2, [r3, #2]
 517              	.LVL45:
 518              	.L27:
 141:Drivers/lvgl/src/draw/sw/lv_draw_sw_polygon.c ****         if(!inv) {
 519              		.loc 1 141 5 is_stmt 1 view .LVU206
 142:Drivers/lvgl/src/draw/sw/lv_draw_sw_polygon.c ****             i_next_left = i_prev_left - 1;
 520              		.loc 1 142 9 view .LVU207
 142:Drivers/lvgl/src/draw/sw/lv_draw_sw_polygon.c ****             i_next_left = i_prev_left - 1;
 521              		.loc 1 142 11 is_stmt 0 view .LVU208
 522 0238 DDE90331 		ldrd	r3, r1, [sp, #12]
 523 023c 8B42     		cmp	r3, r1
 524 023e ABDA     		bge	.L47
 525              	.LVL46:
 150:Drivers/lvgl/src/draw/sw/lv_draw_sw_polygon.c ****             if(i_next_left > point_cnt - 1) i_next_left = 0;
 526              		.loc 1 150 13 is_stmt 1 view .LVU209
 150:Drivers/lvgl/src/draw/sw/lv_draw_sw_polygon.c ****             if(i_next_left > point_cnt - 1) i_next_left = 0;
 527              		.loc 1 150 25 is_stmt 0 view .LVU210
 528 0240 0AF10109 		add	r9, r10, #1
 529              	.LVL47:
 151:Drivers/lvgl/src/draw/sw/lv_draw_sw_polygon.c **** 
 530              		.loc 1 151 13 is_stmt 1 view .LVU211
 151:Drivers/lvgl/src/draw/sw/lv_draw_sw_polygon.c **** 
 531              		.loc 1 151 15 is_stmt 0 view .LVU212
ARM GAS  /var/folders/0z/tsy30v1j4xl4_7kw94k978ww0000gn/T//ccqei2dV.s 			page 15


 532 0244 A145     		cmp	r9, r4
 157:Drivers/lvgl/src/draw/sw/lv_draw_sw_polygon.c ****             if(p[i_next_left].y != p[i_prev_left].y &&
 533              		.loc 1 157 13 view .LVU213
 534 0246 B2BF     		itee	lt
 535 0248 05EB8903 		addlt	r3, r5, r9, lsl #2
 536 024c 2B46     		movge	r3, r5
 151:Drivers/lvgl/src/draw/sw/lv_draw_sw_polygon.c **** 
 537              		.loc 1 151 57 view .LVU214
 538 024e 4FF00009 		movge	r9, #0
 539              	.LVL48:
 153:Drivers/lvgl/src/draw/sw/lv_draw_sw_polygon.c ****             if(i_next_right < 0) i_next_right = point_cnt + i_next_right;
 540              		.loc 1 153 13 is_stmt 1 view .LVU215
 154:Drivers/lvgl/src/draw/sw/lv_draw_sw_polygon.c ****         }
 541              		.loc 1 154 13 view .LVU216
 154:Drivers/lvgl/src/draw/sw/lv_draw_sw_polygon.c ****         }
 542              		.loc 1 154 15 is_stmt 0 view .LVU217
 543 0252 771E     		subs	r7, r6, #1
 544              	.LVL49:
 154:Drivers/lvgl/src/draw/sw/lv_draw_sw_polygon.c ****         }
 545              		.loc 1 154 34 is_stmt 1 view .LVU218
 154:Drivers/lvgl/src/draw/sw/lv_draw_sw_polygon.c ****         }
 546              		.loc 1 154 47 is_stmt 0 view .LVU219
 547 0254 48BF     		it	mi
 548 0256 3F19     		addmi	r7, r7, r4
 549              	.LVL50:
 154:Drivers/lvgl/src/draw/sw/lv_draw_sw_polygon.c ****         }
 550              		.loc 1 154 47 view .LVU220
 551 0258 A9E7     		b	.L20
 552              	.LVL51:
 553              	.L24:
 187:Drivers/lvgl/src/draw/sw/lv_draw_sw_polygon.c **** 
 188:Drivers/lvgl/src/draw/sw/lv_draw_sw_polygon.c ****     lv_draw_rect(draw_ctx, draw_dsc, &poly_coords);
 554              		.loc 1 188 5 is_stmt 1 view .LVU221
 555 025a DDE90541 		ldrd	r4, r1, [sp, #20]
 556              	.LVL52:
 557              		.loc 1 188 5 is_stmt 0 view .LVU222
 558 025e 08AA     		add	r2, sp, #32
 559 0260 2046     		mov	r0, r4
 560 0262 FFF7FEFF 		bl	lv_draw_rect
 561              	.LVL53:
 189:Drivers/lvgl/src/draw/sw/lv_draw_sw_polygon.c **** 
 190:Drivers/lvgl/src/draw/sw/lv_draw_sw_polygon.c ****     lv_draw_mask_remove_custom(mp);
 562              		.loc 1 190 5 is_stmt 1 view .LVU223
 563 0266 18EE100A 		vmov	r0, s16	@ int
 564 026a FFF7FEFF 		bl	lv_draw_mask_remove_custom
 565              	.LVL54:
 191:Drivers/lvgl/src/draw/sw/lv_draw_sw_polygon.c **** 
 192:Drivers/lvgl/src/draw/sw/lv_draw_sw_polygon.c ****     lv_mem_buf_release(mp);
 566              		.loc 1 192 5 view .LVU224
 567 026e 18EE100A 		vmov	r0, s16	@ int
 568 0272 FFF7FEFF 		bl	lv_mem_buf_release
 569              	.LVL55:
 193:Drivers/lvgl/src/draw/sw/lv_draw_sw_polygon.c ****     lv_mem_buf_release(p);
 570              		.loc 1 193 5 view .LVU225
 571 0276 2846     		mov	r0, r5
 572 0278 FFF7FEFF 		bl	lv_mem_buf_release
 573              	.LVL56:
ARM GAS  /var/folders/0z/tsy30v1j4xl4_7kw94k978ww0000gn/T//ccqei2dV.s 			page 16


 194:Drivers/lvgl/src/draw/sw/lv_draw_sw_polygon.c **** 
 195:Drivers/lvgl/src/draw/sw/lv_draw_sw_polygon.c ****     draw_ctx->clip_area = clip_area_ori;
 574              		.loc 1 195 5 view .LVU226
 575              		.loc 1 195 25 is_stmt 0 view .LVU227
 576 027c 079A     		ldr	r2, [sp, #28]
 577 027e A260     		str	r2, [r4, #8]
 578              	.LVL57:
 579              	.L1:
 196:Drivers/lvgl/src/draw/sw/lv_draw_sw_polygon.c **** #else
 197:Drivers/lvgl/src/draw/sw/lv_draw_sw_polygon.c ****     LV_UNUSED(points);
 198:Drivers/lvgl/src/draw/sw/lv_draw_sw_polygon.c ****     LV_UNUSED(point_cnt);
 199:Drivers/lvgl/src/draw/sw/lv_draw_sw_polygon.c ****     LV_UNUSED(draw_ctx);
 200:Drivers/lvgl/src/draw/sw/lv_draw_sw_polygon.c ****     LV_UNUSED(draw_dsc);
 201:Drivers/lvgl/src/draw/sw/lv_draw_sw_polygon.c ****     LV_LOG_WARN("Can't draw polygon with LV_DRAW_COMPLEX == 0");
 202:Drivers/lvgl/src/draw/sw/lv_draw_sw_polygon.c **** #endif /*LV_DRAW_COMPLEX*/
 203:Drivers/lvgl/src/draw/sw/lv_draw_sw_polygon.c **** }
 580              		.loc 1 203 1 view .LVU228
 581 0280 0DB0     		add	sp, sp, #52
 582              		.cfi_remember_state
 583              		.cfi_def_cfa_offset 44
 584              		@ sp needed
 585 0282 BDEC028B 		vldm	sp!, {d8}
 586              		.cfi_restore 80
 587              		.cfi_restore 81
 588              		.cfi_def_cfa_offset 36
 589 0286 BDE8F08F 		pop	{r4, r5, r6, r7, r8, r9, r10, fp, pc}
 590              	.LVL58:
 591              	.L44:
 592              		.cfi_restore_state
  67:Drivers/lvgl/src/draw/sw/lv_draw_sw_polygon.c ****         p[pcnt] = points[point_cnt - 1];
 593              		.loc 1 67 47 discriminator 1 view .LVU229
 594 028a B1F90230 		ldrsh	r3, [r1, #2]
 595 028e B6F90220 		ldrsh	r2, [r6, #2]
 596 0292 9A42     		cmp	r2, r3
 597 0294 7FF4F8AE 		bne	.L6
 598 0298 FBE6     		b	.L7
 599              	.LVL59:
 600              	.L45:
  74:Drivers/lvgl/src/draw/sw/lv_draw_sw_polygon.c ****         return;
 601              		.loc 1 74 9 is_stmt 1 view .LVU230
 602 029a 2846     		mov	r0, r5
 603              		.loc 1 203 1 is_stmt 0 view .LVU231
 604 029c 0DB0     		add	sp, sp, #52
 605              		.cfi_remember_state
 606              		.cfi_def_cfa_offset 44
 607              		@ sp needed
 608 029e BDEC028B 		vldm	sp!, {d8}
 609              		.cfi_restore 80
 610              		.cfi_restore 81
 611              		.cfi_def_cfa_offset 36
 612 02a2 BDE8F04F 		pop	{r4, r5, r6, r7, r8, r9, r10, fp, lr}
 613              		.cfi_restore 14
 614              		.cfi_restore 11
 615              		.cfi_restore 10
 616              		.cfi_restore 9
 617              		.cfi_restore 8
 618              		.cfi_restore 7
ARM GAS  /var/folders/0z/tsy30v1j4xl4_7kw94k978ww0000gn/T//ccqei2dV.s 			page 17


 619              		.cfi_restore 6
 620              		.cfi_restore 5
 621              		.cfi_restore 4
 622              		.cfi_def_cfa_offset 0
 623              	.LVL60:
  74:Drivers/lvgl/src/draw/sw/lv_draw_sw_polygon.c ****         return;
 624              		.loc 1 74 9 view .LVU232
 625 02a6 FFF7FEBF 		b	lv_mem_buf_release
 626              	.LVL61:
 627              	.L46:
 628              		.cfi_restore_state
  91:Drivers/lvgl/src/draw/sw/lv_draw_sw_polygon.c ****         return;
 629              		.loc 1 91 9 is_stmt 1 view .LVU233
 630 02aa 2846     		mov	r0, r5
 631              	.LVL62:
  91:Drivers/lvgl/src/draw/sw/lv_draw_sw_polygon.c ****         return;
 632              		.loc 1 91 9 is_stmt 0 view .LVU234
 633 02ac FFF7FEFF 		bl	lv_mem_buf_release
 634              	.LVL63:
  92:Drivers/lvgl/src/draw/sw/lv_draw_sw_polygon.c ****     }
 635              		.loc 1 92 9 is_stmt 1 view .LVU235
 636 02b0 E6E7     		b	.L1
 637              	.L49:
 638 02b2 00BF     		.align	2
 639              	.L48:
 640 02b4 00000000 		.word	.LANCHOR0
 641 02b8 01E0FFFF 		.word	-8191
 642              		.cfi_endproc
 643              	.LFE56:
 645              		.section	.rodata
 646              		.align	2
 647              		.set	.LANCHOR0,. + 0
 648              	.LC0:
 649 0000 FF1F     		.short	8191
 650 0002 FF1F     		.short	8191
 651 0004 01E0     		.short	-8191
 652 0006 01E0     		.short	-8191
 653              		.text
 654              	.Letext0:
 655              		.file 2 "/Users/johannes/Library/Application Support/Code/User/globalStorage/bmd.stm32-for-vscode/
 656              		.file 3 "/Users/johannes/Library/Application Support/Code/User/globalStorage/bmd.stm32-for-vscode/
 657              		.file 4 "Drivers/lvgl/src/draw/sw/../../misc/lv_types.h"
 658              		.file 5 "/Users/johannes/Library/Application Support/Code/User/globalStorage/bmd.stm32-for-vscode/
 659              		.file 6 "Drivers/lvgl/src/draw/sw/../../misc/lv_color.h"
 660              		.file 7 "Drivers/lvgl/src/draw/sw/../../misc/lv_area.h"
 661              		.file 8 "Drivers/lvgl/src/draw/sw/../../misc/../font/lv_font.h"
 662              		.file 9 "Drivers/lvgl/src/draw/sw/../../misc/lv_txt.h"
 663              		.file 10 "Drivers/lvgl/src/draw/sw/../../misc/lv_bidi.h"
 664              		.file 11 "Drivers/lvgl/src/draw/sw/../../misc/lv_style.h"
 665              		.file 12 "Drivers/lvgl/src/draw/sw/../lv_draw_mask.h"
 666              		.file 13 "Drivers/lvgl/src/draw/sw/../lv_img_buf.h"
 667              		.file 14 "Drivers/lvgl/src/draw/sw/../lv_draw_rect.h"
 668              		.file 15 "Drivers/lvgl/src/draw/sw/../lv_draw_label.h"
 669              		.file 16 "Drivers/lvgl/src/draw/sw/../lv_draw_img.h"
 670              		.file 17 "Drivers/lvgl/src/draw/sw/../lv_draw_line.h"
 671              		.file 18 "Drivers/lvgl/src/draw/sw/../lv_draw_arc.h"
 672              		.file 19 "Drivers/lvgl/src/draw/sw/../lv_draw_layer.h"
ARM GAS  /var/folders/0z/tsy30v1j4xl4_7kw94k978ww0000gn/T//ccqei2dV.s 			page 18


 673              		.file 20 "Drivers/lvgl/src/draw/sw/../lv_draw.h"
 674              		.file 21 "Drivers/lvgl/src/draw/sw/../../misc/lv_mem.h"
ARM GAS  /var/folders/0z/tsy30v1j4xl4_7kw94k978ww0000gn/T//ccqei2dV.s 			page 19


DEFINED SYMBOLS
                            *ABS*:0000000000000000 lv_draw_sw_polygon.c
/var/folders/0z/tsy30v1j4xl4_7kw94k978ww0000gn/T//ccqei2dV.s:20     .text.lv_draw_sw_polygon:0000000000000000 $t
/var/folders/0z/tsy30v1j4xl4_7kw94k978ww0000gn/T//ccqei2dV.s:27     .text.lv_draw_sw_polygon:0000000000000000 lv_draw_sw_polygon
/var/folders/0z/tsy30v1j4xl4_7kw94k978ww0000gn/T//ccqei2dV.s:640    .text.lv_draw_sw_polygon:00000000000002b4 $d
/var/folders/0z/tsy30v1j4xl4_7kw94k978ww0000gn/T//ccqei2dV.s:646    .rodata:0000000000000000 $d

UNDEFINED SYMBOLS
lv_mem_buf_get
_lv_area_intersect
lv_draw_mask_line_points_init
lv_draw_mask_add
lv_draw_rect
lv_draw_mask_remove_custom
lv_mem_buf_release
