ARM GAS  /var/folders/lp/x54gwt890xv47sdkqj1k04q40000gn/T//ccuAnXe2.s 			page 1


   1              		.cpu cortex-m4
   2              		.arch armv7e-m
   3              		.fpu fpv4-sp-d16
   4              		.eabi_attribute 27, 1
   5              		.eabi_attribute 28, 1
   6              		.eabi_attribute 20, 1
   7              		.eabi_attribute 21, 1
   8              		.eabi_attribute 23, 3
   9              		.eabi_attribute 24, 1
  10              		.eabi_attribute 25, 1
  11              		.eabi_attribute 26, 1
  12              		.eabi_attribute 30, 2
  13              		.eabi_attribute 34, 1
  14              		.eabi_attribute 18, 4
  15              		.file	"lv_draw_arc.c"
  16              		.text
  17              	.Ltext0:
  18              		.cfi_sections	.debug_frame
  19              		.file 1 "Drivers/lvgl/src/draw/lv_draw_arc.c"
  20              		.section	.text.lv_draw_arc_dsc_init,"ax",%progbits
  21              		.align	1
  22              		.p2align 2,,3
  23              		.global	lv_draw_arc_dsc_init
  24              		.syntax unified
  25              		.thumb
  26              		.thumb_func
  28              	lv_draw_arc_dsc_init:
  29              	.LVL0:
  30              	.LFB55:
   1:Drivers/lvgl/src/draw/lv_draw_arc.c **** /**
   2:Drivers/lvgl/src/draw/lv_draw_arc.c ****  * @file lv_draw_arc.c
   3:Drivers/lvgl/src/draw/lv_draw_arc.c ****  *
   4:Drivers/lvgl/src/draw/lv_draw_arc.c ****  */
   5:Drivers/lvgl/src/draw/lv_draw_arc.c **** 
   6:Drivers/lvgl/src/draw/lv_draw_arc.c **** /*********************
   7:Drivers/lvgl/src/draw/lv_draw_arc.c ****  *      INCLUDES
   8:Drivers/lvgl/src/draw/lv_draw_arc.c ****  *********************/
   9:Drivers/lvgl/src/draw/lv_draw_arc.c **** #include "lv_draw.h"
  10:Drivers/lvgl/src/draw/lv_draw_arc.c **** #include "lv_draw_arc.h"
  11:Drivers/lvgl/src/draw/lv_draw_arc.c **** 
  12:Drivers/lvgl/src/draw/lv_draw_arc.c **** /*********************
  13:Drivers/lvgl/src/draw/lv_draw_arc.c ****  *      DEFINES
  14:Drivers/lvgl/src/draw/lv_draw_arc.c ****  *********************/
  15:Drivers/lvgl/src/draw/lv_draw_arc.c **** 
  16:Drivers/lvgl/src/draw/lv_draw_arc.c **** /**********************
  17:Drivers/lvgl/src/draw/lv_draw_arc.c ****  *      TYPEDEFS
  18:Drivers/lvgl/src/draw/lv_draw_arc.c ****  **********************/
  19:Drivers/lvgl/src/draw/lv_draw_arc.c **** 
  20:Drivers/lvgl/src/draw/lv_draw_arc.c **** /**********************
  21:Drivers/lvgl/src/draw/lv_draw_arc.c ****  *  STATIC PROTOTYPES
  22:Drivers/lvgl/src/draw/lv_draw_arc.c ****  **********************/
  23:Drivers/lvgl/src/draw/lv_draw_arc.c **** 
  24:Drivers/lvgl/src/draw/lv_draw_arc.c **** /**********************
  25:Drivers/lvgl/src/draw/lv_draw_arc.c ****  *  STATIC VARIABLES
  26:Drivers/lvgl/src/draw/lv_draw_arc.c ****  **********************/
  27:Drivers/lvgl/src/draw/lv_draw_arc.c **** 
  28:Drivers/lvgl/src/draw/lv_draw_arc.c **** /**********************
ARM GAS  /var/folders/lp/x54gwt890xv47sdkqj1k04q40000gn/T//ccuAnXe2.s 			page 2


  29:Drivers/lvgl/src/draw/lv_draw_arc.c ****  *      MACROS
  30:Drivers/lvgl/src/draw/lv_draw_arc.c ****  **********************/
  31:Drivers/lvgl/src/draw/lv_draw_arc.c **** 
  32:Drivers/lvgl/src/draw/lv_draw_arc.c **** /**********************
  33:Drivers/lvgl/src/draw/lv_draw_arc.c ****  *   GLOBAL FUNCTIONS
  34:Drivers/lvgl/src/draw/lv_draw_arc.c ****  **********************/
  35:Drivers/lvgl/src/draw/lv_draw_arc.c **** 
  36:Drivers/lvgl/src/draw/lv_draw_arc.c **** void lv_draw_arc_dsc_init(lv_draw_arc_dsc_t * dsc)
  37:Drivers/lvgl/src/draw/lv_draw_arc.c **** {
  31              		.loc 1 37 1 view -0
  32              		.cfi_startproc
  33              		@ args = 0, pretend = 0, frame = 0
  34              		@ frame_needed = 0, uses_anonymous_args = 0
  38:Drivers/lvgl/src/draw/lv_draw_arc.c ****     lv_memset_00(dsc, sizeof(lv_draw_arc_dsc_t));
  35              		.loc 1 38 5 view .LVU1
  37:Drivers/lvgl/src/draw/lv_draw_arc.c ****     lv_memset_00(dsc, sizeof(lv_draw_arc_dsc_t));
  36              		.loc 1 37 1 is_stmt 0 view .LVU2
  37 0000 10B5     		push	{r4, lr}
  38              		.cfi_def_cfa_offset 8
  39              		.cfi_offset 4, -8
  40              		.cfi_offset 14, -4
  41              		.loc 1 38 5 view .LVU3
  42 0002 1021     		movs	r1, #16
  37:Drivers/lvgl/src/draw/lv_draw_arc.c ****     lv_memset_00(dsc, sizeof(lv_draw_arc_dsc_t));
  43              		.loc 1 37 1 view .LVU4
  44 0004 0446     		mov	r4, r0
  45              		.loc 1 38 5 view .LVU5
  46 0006 FFF7FEFF 		bl	lv_memset_00
  47              	.LVL1:
  39:Drivers/lvgl/src/draw/lv_draw_arc.c ****     dsc->width = 1;
  48              		.loc 1 39 5 is_stmt 1 view .LVU6
  40:Drivers/lvgl/src/draw/lv_draw_arc.c ****     dsc->opa = LV_OPA_COVER;
  49              		.loc 1 40 5 view .LVU7
  50              		.loc 1 40 14 is_stmt 0 view .LVU8
  51 000a FF22     		movs	r2, #255
  41:Drivers/lvgl/src/draw/lv_draw_arc.c ****     dsc->color = lv_color_black();
  52              		.loc 1 41 18 view .LVU9
  53 000c 4FF48033 		mov	r3, #65536
  40:Drivers/lvgl/src/draw/lv_draw_arc.c ****     dsc->opa = LV_OPA_COVER;
  54              		.loc 1 40 14 view .LVU10
  55 0010 2273     		strb	r2, [r4, #12]
  56              		.loc 1 41 5 is_stmt 1 view .LVU11
  57              		.loc 1 41 18 is_stmt 0 view .LVU12
  58 0012 2360     		str	r3, [r4]
  42:Drivers/lvgl/src/draw/lv_draw_arc.c **** }
  59              		.loc 1 42 1 view .LVU13
  60 0014 10BD     		pop	{r4, pc}
  61              		.loc 1 42 1 view .LVU14
  62              		.cfi_endproc
  63              	.LFE55:
  65 0016 00BF     		.section	.text.lv_draw_arc,"ax",%progbits
  66              		.align	1
  67              		.p2align 2,,3
  68              		.global	lv_draw_arc
  69              		.syntax unified
  70              		.thumb
  71              		.thumb_func
ARM GAS  /var/folders/lp/x54gwt890xv47sdkqj1k04q40000gn/T//ccuAnXe2.s 			page 3


  73              	lv_draw_arc:
  74              	.LVL2:
  75              	.LFB56:
  43:Drivers/lvgl/src/draw/lv_draw_arc.c **** 
  44:Drivers/lvgl/src/draw/lv_draw_arc.c **** void lv_draw_arc(lv_draw_ctx_t * draw_ctx, const lv_draw_arc_dsc_t * dsc, const lv_point_t * center
  45:Drivers/lvgl/src/draw/lv_draw_arc.c ****                  uint16_t start_angle, uint16_t end_angle)
  46:Drivers/lvgl/src/draw/lv_draw_arc.c **** {
  76              		.loc 1 46 1 is_stmt 1 view -0
  77              		.cfi_startproc
  78              		@ args = 8, pretend = 0, frame = 0
  79              		@ frame_needed = 0, uses_anonymous_args = 0
  47:Drivers/lvgl/src/draw/lv_draw_arc.c ****     if(dsc->opa <= LV_OPA_MIN) return;
  80              		.loc 1 47 5 view .LVU16
  46:Drivers/lvgl/src/draw/lv_draw_arc.c ****     if(dsc->opa <= LV_OPA_MIN) return;
  81              		.loc 1 46 1 is_stmt 0 view .LVU17
  82 0000 70B5     		push	{r4, r5, r6, lr}
  83              		.cfi_def_cfa_offset 16
  84              		.cfi_offset 4, -16
  85              		.cfi_offset 5, -12
  86              		.cfi_offset 6, -8
  87              		.cfi_offset 14, -4
  88              		.loc 1 47 7 view .LVU18
  89 0002 0C7B     		ldrb	r4, [r1, #12]	@ zero_extendqisi2
  46:Drivers/lvgl/src/draw/lv_draw_arc.c ****     if(dsc->opa <= LV_OPA_MIN) return;
  90              		.loc 1 46 1 view .LVU19
  91 0004 BDF81050 		ldrh	r5, [sp, #16]
  92 0008 BDF81460 		ldrh	r6, [sp, #20]
  93              		.loc 1 47 7 view .LVU20
  94 000c 022C     		cmp	r4, #2
  95 000e 0BD9     		bls	.L4
  48:Drivers/lvgl/src/draw/lv_draw_arc.c ****     if(dsc->width == 0) return;
  96              		.loc 1 48 5 is_stmt 1 view .LVU21
  97              		.loc 1 48 7 is_stmt 0 view .LVU22
  98 0010 B1F90240 		ldrsh	r4, [r1, #2]
  99 0014 44B1     		cbz	r4, .L4
  49:Drivers/lvgl/src/draw/lv_draw_arc.c ****     if(start_angle == end_angle) return;
 100              		.loc 1 49 5 is_stmt 1 view .LVU23
 101              		.loc 1 49 7 is_stmt 0 view .LVU24
 102 0016 B542     		cmp	r5, r6
 103 0018 06D0     		beq	.L4
  50:Drivers/lvgl/src/draw/lv_draw_arc.c **** 
  51:Drivers/lvgl/src/draw/lv_draw_arc.c ****     draw_ctx->draw_arc(draw_ctx, dsc, center, radius, start_angle, end_angle);
 104              		.loc 1 51 5 is_stmt 1 view .LVU25
 105 001a 4469     		ldr	r4, [r0, #20]
 106 001c CDE90456 		strd	r5, r6, [sp, #16]
 107              	.LVL3:
 108              		.loc 1 51 5 is_stmt 0 view .LVU26
 109 0020 A446     		mov	ip, r4
  52:Drivers/lvgl/src/draw/lv_draw_arc.c **** 
  53:Drivers/lvgl/src/draw/lv_draw_arc.c ****     //    const lv_draw_backend_t * backend = lv_draw_backend_get();
  54:Drivers/lvgl/src/draw/lv_draw_arc.c ****     //    backend->draw_arc(center_x, center_y, radius, start_angle, end_angle, clip_area, dsc);
  55:Drivers/lvgl/src/draw/lv_draw_arc.c **** }
 110              		.loc 1 55 1 view .LVU27
 111 0022 BDE87040 		pop	{r4, r5, r6, lr}
 112              		.cfi_remember_state
 113              		.cfi_restore 14
 114              		.cfi_restore 6
ARM GAS  /var/folders/lp/x54gwt890xv47sdkqj1k04q40000gn/T//ccuAnXe2.s 			page 4


 115              		.cfi_restore 5
 116              		.cfi_restore 4
 117              		.cfi_def_cfa_offset 0
  51:Drivers/lvgl/src/draw/lv_draw_arc.c **** 
 118              		.loc 1 51 5 view .LVU28
 119 0026 6047     		bx	ip	@ indirect register sibling call
 120              	.LVL4:
 121              	.L4:
 122              		.cfi_restore_state
 123              		.loc 1 55 1 view .LVU29
 124 0028 70BD     		pop	{r4, r5, r6, pc}
 125              		.loc 1 55 1 view .LVU30
 126              		.cfi_endproc
 127              	.LFE56:
 129 002a 00BF     		.section	.text.lv_draw_arc_get_area,"ax",%progbits
 130              		.align	1
 131              		.p2align 2,,3
 132              		.global	lv_draw_arc_get_area
 133              		.syntax unified
 134              		.thumb
 135              		.thumb_func
 137              	lv_draw_arc_get_area:
 138              	.LVL5:
 139              	.LFB57:
  56:Drivers/lvgl/src/draw/lv_draw_arc.c **** 
  57:Drivers/lvgl/src/draw/lv_draw_arc.c **** void lv_draw_arc_get_area(lv_coord_t x, lv_coord_t y, uint16_t radius,  uint16_t start_angle, uint1
  58:Drivers/lvgl/src/draw/lv_draw_arc.c ****                           lv_coord_t w, bool rounded, lv_area_t * area)
  59:Drivers/lvgl/src/draw/lv_draw_arc.c **** {
 140              		.loc 1 59 1 is_stmt 1 view -0
 141              		.cfi_startproc
 142              		@ args = 16, pretend = 0, frame = 16
 143              		@ frame_needed = 0, uses_anonymous_args = 0
  60:Drivers/lvgl/src/draw/lv_draw_arc.c ****     lv_coord_t rout = radius;
 144              		.loc 1 60 5 view .LVU32
  59:Drivers/lvgl/src/draw/lv_draw_arc.c ****     lv_coord_t rout = radius;
 145              		.loc 1 59 1 is_stmt 0 view .LVU33
 146 0000 2DE9F04F 		push	{r4, r5, r6, r7, r8, r9, r10, fp, lr}
 147              		.cfi_def_cfa_offset 36
 148              		.cfi_offset 4, -36
 149              		.cfi_offset 5, -32
 150              		.cfi_offset 6, -28
 151              		.cfi_offset 7, -24
 152              		.cfi_offset 8, -20
 153              		.cfi_offset 9, -16
 154              		.cfi_offset 10, -12
 155              		.cfi_offset 11, -8
 156              		.cfi_offset 14, -4
 157 0004 85B0     		sub	sp, sp, #20
 158              		.cfi_def_cfa_offset 56
  59:Drivers/lvgl/src/draw/lv_draw_arc.c ****     lv_coord_t rout = radius;
 159              		.loc 1 59 1 view .LVU34
 160 0006 0D46     		mov	r5, r1
 161 0008 BDF83870 		ldrh	r7, [sp, #56]
 162 000c DDF84490 		ldr	r9, [sp, #68]
 163              	.LVL6:
  61:Drivers/lvgl/src/draw/lv_draw_arc.c **** 
  62:Drivers/lvgl/src/draw/lv_draw_arc.c ****     /*Special case: full arc invalidation */
ARM GAS  /var/folders/lp/x54gwt890xv47sdkqj1k04q40000gn/T//ccuAnXe2.s 			page 5


  63:Drivers/lvgl/src/draw/lv_draw_arc.c ****     if(end_angle == start_angle + 360) {
 164              		.loc 1 63 5 is_stmt 1 view .LVU35
 165              		.loc 1 63 33 is_stmt 0 view .LVU36
 166 0010 03F5B471 		add	r1, r3, #360
 167              	.LVL7:
 168              		.loc 1 63 7 view .LVU37
 169 0014 8F42     		cmp	r7, r1
  59:Drivers/lvgl/src/draw/lv_draw_arc.c ****     lv_coord_t rout = radius;
 170              		.loc 1 59 1 view .LVU38
 171 0016 1E46     		mov	r6, r3
 172 0018 0446     		mov	r4, r0
 173 001a BDF93C30 		ldrsh	r3, [sp, #60]
 174              	.LVL8:
  59:Drivers/lvgl/src/draw/lv_draw_arc.c ****     lv_coord_t rout = radius;
 175              		.loc 1 59 1 view .LVU39
 176 001e 9DF84000 		ldrb	r0, [sp, #64]	@ zero_extendqisi2
 177              	.LVL9:
 178              		.loc 1 63 7 view .LVU40
 179 0022 4DD0     		beq	.L47
  64:Drivers/lvgl/src/draw/lv_draw_arc.c ****         area->x1 = x - rout;
  65:Drivers/lvgl/src/draw/lv_draw_arc.c ****         area->y1 = y - rout;
  66:Drivers/lvgl/src/draw/lv_draw_arc.c ****         area->x2 = x + rout;
  67:Drivers/lvgl/src/draw/lv_draw_arc.c ****         area->y2 = y + rout;
  68:Drivers/lvgl/src/draw/lv_draw_arc.c ****         return;
  69:Drivers/lvgl/src/draw/lv_draw_arc.c ****     }
  70:Drivers/lvgl/src/draw/lv_draw_arc.c **** 
  71:Drivers/lvgl/src/draw/lv_draw_arc.c ****     if(start_angle > 360) start_angle -= 360;
 180              		.loc 1 71 7 view .LVU41
 181 0024 B6F5B47F 		cmp	r6, #360
 182              		.loc 1 71 39 discriminator 1 view .LVU42
 183 0028 84BF     		itt	hi
 184 002a A6F5B476 		subhi	r6, r6, #360
 185              	.LVL10:
 186              		.loc 1 71 39 discriminator 1 view .LVU43
 187 002e B6B2     		uxthhi	r6, r6
  72:Drivers/lvgl/src/draw/lv_draw_arc.c ****     if(end_angle > 360) end_angle -= 360;
 188              		.loc 1 72 7 view .LVU44
 189 0030 B7F5B47F 		cmp	r7, #360
 190              		.loc 1 72 35 discriminator 1 view .LVU45
 191 0034 88BF     		it	hi
 192 0036 A7F5B477 		subhi	r7, r7, #360
  73:Drivers/lvgl/src/draw/lv_draw_arc.c **** 
  74:Drivers/lvgl/src/draw/lv_draw_arc.c ****     lv_coord_t rin = radius - w;
 193              		.loc 1 74 29 view .LVU46
 194 003a A2EB030A 		sub	r10, r2, r3
 195 003e 0FFA82FB 		sxth	fp, r2
  71:Drivers/lvgl/src/draw/lv_draw_arc.c ****     if(end_angle > 360) end_angle -= 360;
 196              		.loc 1 71 5 is_stmt 1 view .LVU47
  71:Drivers/lvgl/src/draw/lv_draw_arc.c ****     if(end_angle > 360) end_angle -= 360;
 197              		.loc 1 71 27 discriminator 1 view .LVU48
 198              	.LVL11:
  72:Drivers/lvgl/src/draw/lv_draw_arc.c ****     if(end_angle > 360) end_angle -= 360;
 199              		.loc 1 72 5 view .LVU49
  72:Drivers/lvgl/src/draw/lv_draw_arc.c ****     if(end_angle > 360) end_angle -= 360;
 200              		.loc 1 72 25 discriminator 1 view .LVU50
  72:Drivers/lvgl/src/draw/lv_draw_arc.c ****     if(end_angle > 360) end_angle -= 360;
 201              		.loc 1 72 35 is_stmt 0 discriminator 1 view .LVU51
ARM GAS  /var/folders/lp/x54gwt890xv47sdkqj1k04q40000gn/T//ccuAnXe2.s 			page 6


 202 0042 88BF     		it	hi
 203 0044 BFB2     		uxthhi	r7, r7
 204              	.LVL12:
 205              		.loc 1 74 5 is_stmt 1 view .LVU52
 206              		.loc 1 74 16 is_stmt 0 view .LVU53
 207 0046 0FFA8AFA 		sxth	r10, r10
 208              	.LVL13:
  75:Drivers/lvgl/src/draw/lv_draw_arc.c ****     lv_coord_t extra_area = rounded ? w / 2 + 1 : 0;
 209              		.loc 1 75 5 is_stmt 1 view .LVU54
 210              		.loc 1 75 16 is_stmt 0 view .LVU55
 211 004a 90BB     		cbnz	r0, .L49
 212              		.loc 1 75 16 discriminator 2 view .LVU56
 213 004c 8046     		mov	r8, r0
 214              	.L15:
 215              	.LVL14:
  76:Drivers/lvgl/src/draw/lv_draw_arc.c ****     uint8_t start_quarter = start_angle / 90;
 216              		.loc 1 76 5 is_stmt 1 view .LVU57
 217              		.loc 1 76 13 is_stmt 0 view .LVU58
 218 004e C649     		ldr	r1, .L54
 219 0050 7308     		lsrs	r3, r6, #1
 220 0052 A1FB0303 		umull	r0, r3, r1, r3
 221 0056 C3F34713 		ubfx	r3, r3, #5, #8
 222              	.LVL15:
  77:Drivers/lvgl/src/draw/lv_draw_arc.c ****     uint8_t end_quarter = end_angle / 90;
 223              		.loc 1 77 5 is_stmt 1 view .LVU59
 224              		.loc 1 77 13 is_stmt 0 view .LVU60
 225 005a 4FEA570C 		lsr	ip, r7, #1
 226 005e A1FB0C1C 		umull	r1, ip, r1, ip
  78:Drivers/lvgl/src/draw/lv_draw_arc.c **** 
  79:Drivers/lvgl/src/draw/lv_draw_arc.c ****     /*360 deg still counts as quarter 3 (360 / 90 would be 4)*/
  80:Drivers/lvgl/src/draw/lv_draw_arc.c ****     if(start_quarter == 4) start_quarter = 3;
 227              		.loc 1 80 7 view .LVU61
 228 0062 042B     		cmp	r3, #4
  77:Drivers/lvgl/src/draw/lv_draw_arc.c ****     uint8_t end_quarter = end_angle / 90;
 229              		.loc 1 77 13 view .LVU62
 230 0064 CCF3471C 		ubfx	ip, ip, #5, #8
 231              	.LVL16:
 232              		.loc 1 80 5 is_stmt 1 view .LVU63
 233              		.loc 1 80 7 is_stmt 0 view .LVU64
 234 0068 2DD0     		beq	.L50
  81:Drivers/lvgl/src/draw/lv_draw_arc.c ****     if(end_quarter == 4) end_quarter = 3;
 235              		.loc 1 81 5 is_stmt 1 view .LVU65
 236              		.loc 1 81 7 is_stmt 0 view .LVU66
 237 006a BCF1040F 		cmp	ip, #4
 238 006e 00F02581 		beq	.L51
  82:Drivers/lvgl/src/draw/lv_draw_arc.c **** 
  83:Drivers/lvgl/src/draw/lv_draw_arc.c ****     if(start_quarter == end_quarter && start_angle <= end_angle) {
 239              		.loc 1 83 5 is_stmt 1 view .LVU67
 240              		.loc 1 83 7 is_stmt 0 view .LVU68
 241 0072 6345     		cmp	r3, ip
 242 0074 00F06681 		beq	.L52
 243              	.LVL17:
 244              	.L24:
  84:Drivers/lvgl/src/draw/lv_draw_arc.c ****         if(start_quarter == 0) {
  85:Drivers/lvgl/src/draw/lv_draw_arc.c ****             area->y1 = y + ((lv_trigo_sin(start_angle) * rin) >> LV_TRIGO_SHIFT) - extra_area;
  86:Drivers/lvgl/src/draw/lv_draw_arc.c ****             area->x2 = x + ((lv_trigo_sin(start_angle + 90) * rout) >> LV_TRIGO_SHIFT) + extra_area
  87:Drivers/lvgl/src/draw/lv_draw_arc.c **** 
ARM GAS  /var/folders/lp/x54gwt890xv47sdkqj1k04q40000gn/T//ccuAnXe2.s 			page 7


  88:Drivers/lvgl/src/draw/lv_draw_arc.c ****             area->y2 = y + ((lv_trigo_sin(end_angle) * rout) >> LV_TRIGO_SHIFT) + extra_area;
  89:Drivers/lvgl/src/draw/lv_draw_arc.c ****             area->x1 = x + ((lv_trigo_sin(end_angle + 90) * rin) >> LV_TRIGO_SHIFT) - extra_area;
  90:Drivers/lvgl/src/draw/lv_draw_arc.c ****         }
  91:Drivers/lvgl/src/draw/lv_draw_arc.c ****         else if(start_quarter == 1) {
  92:Drivers/lvgl/src/draw/lv_draw_arc.c ****             area->y2 = y + ((lv_trigo_sin(start_angle) * rout) >> LV_TRIGO_SHIFT) + extra_area;
  93:Drivers/lvgl/src/draw/lv_draw_arc.c ****             area->x2 = x + ((lv_trigo_sin(start_angle + 90) * rin) >> LV_TRIGO_SHIFT) + extra_area;
  94:Drivers/lvgl/src/draw/lv_draw_arc.c **** 
  95:Drivers/lvgl/src/draw/lv_draw_arc.c ****             area->y1 = y + ((lv_trigo_sin(end_angle) * rin) >> LV_TRIGO_SHIFT) - extra_area;
  96:Drivers/lvgl/src/draw/lv_draw_arc.c ****             area->x1 = x + ((lv_trigo_sin(end_angle + 90) * rout) >> LV_TRIGO_SHIFT) - extra_area;
  97:Drivers/lvgl/src/draw/lv_draw_arc.c ****         }
  98:Drivers/lvgl/src/draw/lv_draw_arc.c ****         else if(start_quarter == 2) {
  99:Drivers/lvgl/src/draw/lv_draw_arc.c ****             area->x1 = x + ((lv_trigo_sin(start_angle + 90) * rout) >> LV_TRIGO_SHIFT) - extra_area
 100:Drivers/lvgl/src/draw/lv_draw_arc.c ****             area->y2 = y + ((lv_trigo_sin(start_angle) * rin) >> LV_TRIGO_SHIFT) + extra_area;
 101:Drivers/lvgl/src/draw/lv_draw_arc.c **** 
 102:Drivers/lvgl/src/draw/lv_draw_arc.c ****             area->y1 = y + ((lv_trigo_sin(end_angle) * rout) >> LV_TRIGO_SHIFT) - extra_area;
 103:Drivers/lvgl/src/draw/lv_draw_arc.c ****             area->x2 = x + ((lv_trigo_sin(end_angle + 90) * rin) >> LV_TRIGO_SHIFT) + extra_area;
 104:Drivers/lvgl/src/draw/lv_draw_arc.c ****         }
 105:Drivers/lvgl/src/draw/lv_draw_arc.c ****         else if(start_quarter == 3) {
 106:Drivers/lvgl/src/draw/lv_draw_arc.c ****             area->x1 = x + ((lv_trigo_sin(start_angle + 90) * rin) >> LV_TRIGO_SHIFT) - extra_area;
 107:Drivers/lvgl/src/draw/lv_draw_arc.c ****             area->y1 = y + ((lv_trigo_sin(start_angle) * rout) >> LV_TRIGO_SHIFT) - extra_area;
 108:Drivers/lvgl/src/draw/lv_draw_arc.c **** 
 109:Drivers/lvgl/src/draw/lv_draw_arc.c ****             area->x2 = x + ((lv_trigo_sin(end_angle + 90) * rout) >> LV_TRIGO_SHIFT) + extra_area;
 110:Drivers/lvgl/src/draw/lv_draw_arc.c ****             area->y2 = y + ((lv_trigo_sin(end_angle) * rin) >> LV_TRIGO_SHIFT) + extra_area;
 111:Drivers/lvgl/src/draw/lv_draw_arc.c ****         }
 112:Drivers/lvgl/src/draw/lv_draw_arc.c ****     }
 113:Drivers/lvgl/src/draw/lv_draw_arc.c ****     else if(start_quarter == 0 && end_quarter == 1) {
 245              		.loc 1 113 10 is_stmt 1 view .LVU69
  64:Drivers/lvgl/src/draw/lv_draw_arc.c ****         area->y1 = y - rout;
 246              		.loc 1 64 22 is_stmt 0 view .LVU70
 247 0078 A4B2     		uxth	r4, r4
 248              	.LVL18:
  65:Drivers/lvgl/src/draw/lv_draw_arc.c ****         area->x2 = x + rout;
 249              		.loc 1 65 22 view .LVU71
 250 007a ADB2     		uxth	r5, r5
 251              	.LVL19:
 252              		.loc 1 113 12 view .LVU72
 253 007c 002B     		cmp	r3, #0
 254 007e 71D1     		bne	.L29
 255              		.loc 1 113 32 discriminator 1 view .LVU73
 256 0080 BCF1010F 		cmp	ip, #1
 257 0084 00F0DA80 		beq	.L53
 258              	.LVL20:
 259              	.L19:
  64:Drivers/lvgl/src/draw/lv_draw_arc.c ****         area->y1 = y - rout;
 260              		.loc 1 64 9 is_stmt 1 view .LVU74
  65:Drivers/lvgl/src/draw/lv_draw_arc.c ****         area->x2 = x + rout;
 261              		.loc 1 65 9 view .LVU75
  66:Drivers/lvgl/src/draw/lv_draw_arc.c ****         area->y2 = y + rout;
 262              		.loc 1 66 9 view .LVU76
  67:Drivers/lvgl/src/draw/lv_draw_arc.c ****         return;
 263              		.loc 1 67 9 view .LVU77
  64:Drivers/lvgl/src/draw/lv_draw_arc.c ****         area->y1 = y - rout;
 264              		.loc 1 64 22 is_stmt 0 view .LVU78
 265 0088 0023     		movs	r3, #0
 266 008a A01A     		subs	r0, r4, r2
 267 008c 1946     		mov	r1, r3
  66:Drivers/lvgl/src/draw/lv_draw_arc.c ****         area->y2 = y + rout;
ARM GAS  /var/folders/lp/x54gwt890xv47sdkqj1k04q40000gn/T//ccuAnXe2.s 			page 8


 268              		.loc 1 66 22 view .LVU79
 269 008e 1444     		add	r4, r4, r2
  64:Drivers/lvgl/src/draw/lv_draw_arc.c ****         area->y1 = y - rout;
 270              		.loc 1 64 22 view .LVU80
 271 0090 60F30F03 		bfi	r3, r0, #0, #16
 272 0094 64F30F01 		bfi	r1, r4, #0, #16
  65:Drivers/lvgl/src/draw/lv_draw_arc.c ****         area->x2 = x + rout;
 273              		.loc 1 65 22 view .LVU81
 274 0098 A81A     		subs	r0, r5, r2
  67:Drivers/lvgl/src/draw/lv_draw_arc.c ****         return;
 275              		.loc 1 67 22 view .LVU82
 276 009a 1544     		add	r5, r5, r2
  64:Drivers/lvgl/src/draw/lv_draw_arc.c ****         area->y1 = y - rout;
 277              		.loc 1 64 22 view .LVU83
 278 009c 60F31F43 		bfi	r3, r0, #16, #16
 279 00a0 65F31F41 		bfi	r1, r5, #16, #16
  64:Drivers/lvgl/src/draw/lv_draw_arc.c ****         area->y1 = y - rout;
 280              		.loc 1 64 18 view .LVU84
 281 00a4 C9F80030 		str	r3, [r9]	@ unaligned
 282 00a8 C9F80410 		str	r1, [r9, #4]	@ unaligned
  68:Drivers/lvgl/src/draw/lv_draw_arc.c ****     }
 283              		.loc 1 68 9 is_stmt 1 view .LVU85
 284              	.LVL21:
 285              	.L10:
 114:Drivers/lvgl/src/draw/lv_draw_arc.c ****         area->x1 = x + ((lv_trigo_sin(end_angle + 90) * rout) >> LV_TRIGO_SHIFT) - extra_area;
 115:Drivers/lvgl/src/draw/lv_draw_arc.c ****         area->y1 = y + ((LV_MIN(lv_trigo_sin(end_angle),
 116:Drivers/lvgl/src/draw/lv_draw_arc.c ****                                 lv_trigo_sin(start_angle))  * rin) >> LV_TRIGO_SHIFT) - extra_area;
 117:Drivers/lvgl/src/draw/lv_draw_arc.c ****         area->x2 = x + ((lv_trigo_sin(start_angle + 90) * rout) >> LV_TRIGO_SHIFT) + extra_area;
 118:Drivers/lvgl/src/draw/lv_draw_arc.c ****         area->y2 = y + rout + extra_area;
 119:Drivers/lvgl/src/draw/lv_draw_arc.c ****     }
 120:Drivers/lvgl/src/draw/lv_draw_arc.c ****     else if(start_quarter == 1 && end_quarter == 2) {
 121:Drivers/lvgl/src/draw/lv_draw_arc.c ****         area->x1 = x - rout - extra_area;
 122:Drivers/lvgl/src/draw/lv_draw_arc.c ****         area->y1 = y + ((lv_trigo_sin(end_angle) * rout) >> LV_TRIGO_SHIFT) - extra_area;
 123:Drivers/lvgl/src/draw/lv_draw_arc.c ****         area->x2 = x + ((LV_MAX(lv_trigo_sin(start_angle + 90),
 124:Drivers/lvgl/src/draw/lv_draw_arc.c ****                                 lv_trigo_sin(end_angle + 90)) * rin) >> LV_TRIGO_SHIFT) + extra_are
 125:Drivers/lvgl/src/draw/lv_draw_arc.c ****         area->y2 = y + ((lv_trigo_sin(start_angle) * rout) >> LV_TRIGO_SHIFT) + extra_area;
 126:Drivers/lvgl/src/draw/lv_draw_arc.c ****     }
 127:Drivers/lvgl/src/draw/lv_draw_arc.c ****     else if(start_quarter == 2 && end_quarter == 3) {
 128:Drivers/lvgl/src/draw/lv_draw_arc.c ****         area->x1 = x + ((lv_trigo_sin(start_angle + 90) * rout) >> LV_TRIGO_SHIFT) - extra_area;
 129:Drivers/lvgl/src/draw/lv_draw_arc.c ****         area->y1 = y - rout - extra_area;
 130:Drivers/lvgl/src/draw/lv_draw_arc.c ****         area->x2 = x + ((lv_trigo_sin(end_angle + 90) * rout) >> LV_TRIGO_SHIFT) + extra_area;
 131:Drivers/lvgl/src/draw/lv_draw_arc.c ****         area->y2 = y + (LV_MAX(lv_trigo_sin(end_angle) * rin,
 132:Drivers/lvgl/src/draw/lv_draw_arc.c ****                                lv_trigo_sin(start_angle) * rin) >> LV_TRIGO_SHIFT) + extra_area;
 133:Drivers/lvgl/src/draw/lv_draw_arc.c ****     }
 134:Drivers/lvgl/src/draw/lv_draw_arc.c ****     else if(start_quarter == 3 && end_quarter == 0) {
 135:Drivers/lvgl/src/draw/lv_draw_arc.c ****         area->x1 = x + ((LV_MIN(lv_trigo_sin(end_angle + 90),
 136:Drivers/lvgl/src/draw/lv_draw_arc.c ****                                 lv_trigo_sin(start_angle + 90)) * rin) >> LV_TRIGO_SHIFT) - extra_a
 137:Drivers/lvgl/src/draw/lv_draw_arc.c ****         area->y1 = y + ((lv_trigo_sin(start_angle) * rout) >> LV_TRIGO_SHIFT) - extra_area;
 138:Drivers/lvgl/src/draw/lv_draw_arc.c ****         area->x2 = x + rout + extra_area;
 139:Drivers/lvgl/src/draw/lv_draw_arc.c ****         area->y2 = y + ((lv_trigo_sin(end_angle) * rout) >> LV_TRIGO_SHIFT) + extra_area;
 140:Drivers/lvgl/src/draw/lv_draw_arc.c **** 
 141:Drivers/lvgl/src/draw/lv_draw_arc.c ****     }
 142:Drivers/lvgl/src/draw/lv_draw_arc.c ****     else {
 143:Drivers/lvgl/src/draw/lv_draw_arc.c ****         area->x1 = x - rout;
 144:Drivers/lvgl/src/draw/lv_draw_arc.c ****         area->y1 = y - rout;
 145:Drivers/lvgl/src/draw/lv_draw_arc.c ****         area->x2 = x + rout;
 146:Drivers/lvgl/src/draw/lv_draw_arc.c ****         area->y2 = y + rout;
ARM GAS  /var/folders/lp/x54gwt890xv47sdkqj1k04q40000gn/T//ccuAnXe2.s 			page 9


 147:Drivers/lvgl/src/draw/lv_draw_arc.c ****     }
 148:Drivers/lvgl/src/draw/lv_draw_arc.c **** }
 286              		.loc 1 148 1 is_stmt 0 view .LVU86
 287 00ac 05B0     		add	sp, sp, #20
 288              		.cfi_remember_state
 289              		.cfi_def_cfa_offset 36
 290              		@ sp needed
 291 00ae BDE8F08F 		pop	{r4, r5, r6, r7, r8, r9, r10, fp, pc}
 292              	.LVL22:
 293              	.L49:
 294              		.cfi_restore_state
  75:Drivers/lvgl/src/draw/lv_draw_arc.c ****     uint8_t start_quarter = start_angle / 90;
 295              		.loc 1 75 45 discriminator 1 view .LVU87
 296 00b2 03EBD373 		add	r3, r3, r3, lsr #31
 297 00b6 5B10     		asrs	r3, r3, #1
 298 00b8 0133     		adds	r3, r3, #1
  75:Drivers/lvgl/src/draw/lv_draw_arc.c ****     uint8_t start_quarter = start_angle / 90;
 299              		.loc 1 75 16 discriminator 1 view .LVU88
 300 00ba 0FFA83F8 		sxth	r8, r3
 301 00be C6E7     		b	.L15
 302              	.LVL23:
 303              	.L47:
  75:Drivers/lvgl/src/draw/lv_draw_arc.c ****     uint8_t start_quarter = start_angle / 90;
 304              		.loc 1 75 16 discriminator 1 view .LVU89
 305 00c0 A4B2     		uxth	r4, r4
 306 00c2 ADB2     		uxth	r5, r5
 307 00c4 E0E7     		b	.L19
 308              	.LVL24:
 309              	.L50:
  80:Drivers/lvgl/src/draw/lv_draw_arc.c ****     if(end_quarter == 4) end_quarter = 3;
 310              		.loc 1 80 28 is_stmt 1 discriminator 1 view .LVU90
  81:Drivers/lvgl/src/draw/lv_draw_arc.c **** 
 311              		.loc 1 81 5 view .LVU91
  81:Drivers/lvgl/src/draw/lv_draw_arc.c **** 
 312              		.loc 1 81 7 is_stmt 0 view .LVU92
 313 00c6 BCF1040F 		cmp	ip, #4
 314 00ca 00F08180 		beq	.L43
  83:Drivers/lvgl/src/draw/lv_draw_arc.c ****         if(start_quarter == 0) {
 315              		.loc 1 83 5 is_stmt 1 view .LVU93
  83:Drivers/lvgl/src/draw/lv_draw_arc.c ****         if(start_quarter == 0) {
 316              		.loc 1 83 7 is_stmt 0 view .LVU94
 317 00ce BCF1030F 		cmp	ip, #3
 318 00d2 7DD0     		beq	.L43
 319 00d4 A4B2     		uxth	r4, r4
 320 00d6 ADB2     		uxth	r5, r5
 321              	.LVL25:
 322              	.L23:
 134:Drivers/lvgl/src/draw/lv_draw_arc.c ****         area->x1 = x + ((LV_MIN(lv_trigo_sin(end_angle + 90),
 323              		.loc 1 134 32 discriminator 1 view .LVU95
 324 00d8 BCF1000F 		cmp	ip, #0
 325 00dc D4D1     		bne	.L19
 135:Drivers/lvgl/src/draw/lv_draw_arc.c ****                                 lv_trigo_sin(start_angle + 90)) * rin) >> LV_TRIGO_SHIFT) - extra_a
 326              		.loc 1 135 9 is_stmt 1 view .LVU96
 135:Drivers/lvgl/src/draw/lv_draw_arc.c ****                                 lv_trigo_sin(start_angle + 90)) * rin) >> LV_TRIGO_SHIFT) - extra_a
 327              		.loc 1 135 26 is_stmt 0 view .LVU97
 328 00de 07F15A01 		add	r1, r7, #90
 329 00e2 09B2     		sxth	r1, r1
ARM GAS  /var/folders/lp/x54gwt890xv47sdkqj1k04q40000gn/T//ccuAnXe2.s 			page 10


 330 00e4 0846     		mov	r0, r1
 331 00e6 0391     		str	r1, [sp, #12]
 332 00e8 0292     		str	r2, [sp, #8]
 333 00ea FFF7FEFF 		bl	lv_trigo_sin
 334              	.LVL26:
 135:Drivers/lvgl/src/draw/lv_draw_arc.c ****                                 lv_trigo_sin(start_angle + 90)) * rin) >> LV_TRIGO_SHIFT) - extra_a
 335              		.loc 1 135 26 discriminator 1 view .LVU98
 336 00ee 06F15A03 		add	r3, r6, #90
 337 00f2 1BB2     		sxth	r3, r3
 135:Drivers/lvgl/src/draw/lv_draw_arc.c ****                                 lv_trigo_sin(start_angle + 90)) * rin) >> LV_TRIGO_SHIFT) - extra_a
 338              		.loc 1 135 26 view .LVU99
 339 00f4 0090     		str	r0, [sp]
 135:Drivers/lvgl/src/draw/lv_draw_arc.c ****                                 lv_trigo_sin(start_angle + 90)) * rin) >> LV_TRIGO_SHIFT) - extra_a
 340              		.loc 1 135 26 discriminator 1 view .LVU100
 341 00f6 1846     		mov	r0, r3
 342 00f8 0193     		str	r3, [sp, #4]
 343 00fa FFF7FEFF 		bl	lv_trigo_sin
 344              	.LVL27:
 135:Drivers/lvgl/src/draw/lv_draw_arc.c ****                                 lv_trigo_sin(start_angle + 90)) * rin) >> LV_TRIGO_SHIFT) - extra_a
 345              		.loc 1 135 26 discriminator 2 view .LVU101
 346 00fe 009B     		ldr	r3, [sp]
 347 0100 8342     		cmp	r3, r0
 348 0102 DDE90132 		ldrd	r3, r2, [sp, #4]
 135:Drivers/lvgl/src/draw/lv_draw_arc.c ****                                 lv_trigo_sin(start_angle + 90)) * rin) >> LV_TRIGO_SHIFT) - extra_a
 349              		.loc 1 135 26 discriminator 1 view .LVU102
 350 0106 B8BF     		it	lt
 351 0108 0399     		ldrlt	r1, [sp, #12]
 352 010a 0092     		str	r2, [sp]
 135:Drivers/lvgl/src/draw/lv_draw_arc.c ****                                 lv_trigo_sin(start_angle + 90)) * rin) >> LV_TRIGO_SHIFT) - extra_a
 353              		.loc 1 135 26 discriminator 2 view .LVU103
 354 010c ACBF     		ite	ge
 355 010e 1846     		movge	r0, r3
 135:Drivers/lvgl/src/draw/lv_draw_arc.c ****                                 lv_trigo_sin(start_angle + 90)) * rin) >> LV_TRIGO_SHIFT) - extra_a
 356              		.loc 1 135 26 discriminator 1 view .LVU104
 357 0110 0846     		movlt	r0, r1
 135:Drivers/lvgl/src/draw/lv_draw_arc.c ****                                 lv_trigo_sin(start_angle + 90)) * rin) >> LV_TRIGO_SHIFT) - extra_a
 358              		.loc 1 135 26 discriminator 2 view .LVU105
 359 0112 FFF7FEFF 		bl	lv_trigo_sin
 360              	.LVL28:
 136:Drivers/lvgl/src/draw/lv_draw_arc.c ****         area->y1 = y + ((lv_trigo_sin(start_angle) * rout) >> LV_TRIGO_SHIFT) - extra_area;
 361              		.loc 1 136 91 view .LVU106
 362 0116 1FFA88F8 		uxth	r8, r8
 136:Drivers/lvgl/src/draw/lv_draw_arc.c ****         area->y1 = y + ((lv_trigo_sin(start_angle) * rout) >> LV_TRIGO_SHIFT) - extra_area;
 363              		.loc 1 136 65 view .LVU107
 364 011a 00FB0AFA 		mul	r10, r0, r10
 365              	.LVL29:
 136:Drivers/lvgl/src/draw/lv_draw_arc.c ****         area->y1 = y + ((lv_trigo_sin(start_angle) * rout) >> LV_TRIGO_SHIFT) - extra_area;
 366              		.loc 1 136 91 view .LVU108
 367 011e A4EB0803 		sub	r3, r4, r8
 368 0122 03EBEA33 		add	r3, r3, r10, asr #15
 135:Drivers/lvgl/src/draw/lv_draw_arc.c ****                                 lv_trigo_sin(start_angle + 90)) * rin) >> LV_TRIGO_SHIFT) - extra_a
 369              		.loc 1 135 26 discriminator 2 view .LVU109
 370 0126 009A     		ldr	r2, [sp]
 135:Drivers/lvgl/src/draw/lv_draw_arc.c ****                                 lv_trigo_sin(start_angle + 90)) * rin) >> LV_TRIGO_SHIFT) - extra_a
 371              		.loc 1 135 18 view .LVU110
 372 0128 A9F80030 		strh	r3, [r9]	@ movhi
 137:Drivers/lvgl/src/draw/lv_draw_arc.c ****         area->x2 = x + rout + extra_area;
ARM GAS  /var/folders/lp/x54gwt890xv47sdkqj1k04q40000gn/T//ccuAnXe2.s 			page 11


 373              		.loc 1 137 9 is_stmt 1 view .LVU111
 137:Drivers/lvgl/src/draw/lv_draw_arc.c ****         area->x2 = x + rout + extra_area;
 374              		.loc 1 137 26 is_stmt 0 view .LVU112
 375 012c 30B2     		sxth	r0, r6
 376 012e 0092     		str	r2, [sp]
 377 0130 FFF7FEFF 		bl	lv_trigo_sin
 378              	.LVL30:
 138:Drivers/lvgl/src/draw/lv_draw_arc.c ****         area->y2 = y + ((lv_trigo_sin(end_angle) * rout) >> LV_TRIGO_SHIFT) + extra_area;
 379              		.loc 1 138 22 view .LVU113
 380 0134 009A     		ldr	r2, [sp]
 137:Drivers/lvgl/src/draw/lv_draw_arc.c ****         area->x2 = x + rout + extra_area;
 381              		.loc 1 137 79 discriminator 1 view .LVU114
 382 0136 A5EB0803 		sub	r3, r5, r8
 138:Drivers/lvgl/src/draw/lv_draw_arc.c ****         area->y2 = y + ((lv_trigo_sin(end_angle) * rout) >> LV_TRIGO_SHIFT) + extra_area;
 383              		.loc 1 138 22 view .LVU115
 384 013a 1444     		add	r4, r4, r2
 137:Drivers/lvgl/src/draw/lv_draw_arc.c ****         area->x2 = x + rout + extra_area;
 385              		.loc 1 137 52 discriminator 1 view .LVU116
 386 013c 00FB0BF2 		mul	r2, r0, fp
 138:Drivers/lvgl/src/draw/lv_draw_arc.c ****         area->y2 = y + ((lv_trigo_sin(end_angle) * rout) >> LV_TRIGO_SHIFT) + extra_area;
 387              		.loc 1 138 29 view .LVU117
 388 0140 4444     		add	r4, r4, r8
 137:Drivers/lvgl/src/draw/lv_draw_arc.c ****         area->x2 = x + rout + extra_area;
 389              		.loc 1 137 79 discriminator 1 view .LVU118
 390 0142 03EBE233 		add	r3, r3, r2, asr #15
 138:Drivers/lvgl/src/draw/lv_draw_arc.c ****         area->y2 = y + ((lv_trigo_sin(end_angle) * rout) >> LV_TRIGO_SHIFT) + extra_area;
 391              		.loc 1 138 18 view .LVU119
 392 0146 A9F80440 		strh	r4, [r9, #4]	@ movhi
 139:Drivers/lvgl/src/draw/lv_draw_arc.c **** 
 393              		.loc 1 139 26 view .LVU120
 394 014a 38B2     		sxth	r0, r7
 137:Drivers/lvgl/src/draw/lv_draw_arc.c ****         area->x2 = x + rout + extra_area;
 395              		.loc 1 137 18 discriminator 1 view .LVU121
 396 014c A9F80230 		strh	r3, [r9, #2]	@ movhi
 397              	.LVL31:
 398              	.L48:
 138:Drivers/lvgl/src/draw/lv_draw_arc.c ****         area->y2 = y + ((lv_trigo_sin(end_angle) * rout) >> LV_TRIGO_SHIFT) + extra_area;
 399              		.loc 1 138 9 is_stmt 1 view .LVU122
 139:Drivers/lvgl/src/draw/lv_draw_arc.c **** 
 400              		.loc 1 139 9 view .LVU123
 139:Drivers/lvgl/src/draw/lv_draw_arc.c **** 
 401              		.loc 1 139 26 is_stmt 0 view .LVU124
 402 0150 FFF7FEFF 		bl	lv_trigo_sin
 403              	.LVL32:
 139:Drivers/lvgl/src/draw/lv_draw_arc.c **** 
 404              		.loc 1 139 77 discriminator 1 view .LVU125
 405 0154 A844     		add	r8, r8, r5
 139:Drivers/lvgl/src/draw/lv_draw_arc.c **** 
 406              		.loc 1 139 50 discriminator 1 view .LVU126
 407 0156 0BFB00F0 		mul	r0, fp, r0
 139:Drivers/lvgl/src/draw/lv_draw_arc.c **** 
 408              		.loc 1 139 77 discriminator 1 view .LVU127
 409 015a 08EBE038 		add	r8, r8, r0, asr #15
 139:Drivers/lvgl/src/draw/lv_draw_arc.c **** 
 410              		.loc 1 139 18 discriminator 1 view .LVU128
 411 015e A9F80680 		strh	r8, [r9, #6]	@ movhi
 139:Drivers/lvgl/src/draw/lv_draw_arc.c **** 
ARM GAS  /var/folders/lp/x54gwt890xv47sdkqj1k04q40000gn/T//ccuAnXe2.s 			page 12


 412              		.loc 1 139 18 view .LVU129
 413 0162 A3E7     		b	.L10
 414              	.LVL33:
 415              	.L29:
 120:Drivers/lvgl/src/draw/lv_draw_arc.c ****         area->x1 = x - rout - extra_area;
 416              		.loc 1 120 10 is_stmt 1 view .LVU130
 120:Drivers/lvgl/src/draw/lv_draw_arc.c ****         area->x1 = x - rout - extra_area;
 417              		.loc 1 120 12 is_stmt 0 view .LVU131
 418 0164 012B     		cmp	r3, #1
 419 0166 40F09E81 		bne	.L32
 120:Drivers/lvgl/src/draw/lv_draw_arc.c ****         area->x1 = x - rout - extra_area;
 420              		.loc 1 120 32 discriminator 1 view .LVU132
 421 016a BCF1020F 		cmp	ip, #2
 422 016e 8BD1     		bne	.L19
 121:Drivers/lvgl/src/draw/lv_draw_arc.c ****         area->y1 = y + ((lv_trigo_sin(end_angle) * rout) >> LV_TRIGO_SHIFT) - extra_area;
 423              		.loc 1 121 9 is_stmt 1 view .LVU133
 121:Drivers/lvgl/src/draw/lv_draw_arc.c ****         area->y1 = y + ((lv_trigo_sin(end_angle) * rout) >> LV_TRIGO_SHIFT) - extra_area;
 424              		.loc 1 121 29 is_stmt 0 view .LVU134
 425 0170 1FFA88F8 		uxth	r8, r8
 121:Drivers/lvgl/src/draw/lv_draw_arc.c ****         area->y1 = y + ((lv_trigo_sin(end_angle) * rout) >> LV_TRIGO_SHIFT) - extra_area;
 426              		.loc 1 121 22 view .LVU135
 427 0174 A21A     		subs	r2, r4, r2
 428              	.LVL34:
 121:Drivers/lvgl/src/draw/lv_draw_arc.c ****         area->y1 = y + ((lv_trigo_sin(end_angle) * rout) >> LV_TRIGO_SHIFT) - extra_area;
 429              		.loc 1 121 29 view .LVU136
 430 0176 A2EB0802 		sub	r2, r2, r8
 121:Drivers/lvgl/src/draw/lv_draw_arc.c ****         area->y1 = y + ((lv_trigo_sin(end_angle) * rout) >> LV_TRIGO_SHIFT) - extra_area;
 431              		.loc 1 121 18 view .LVU137
 432 017a A9F80020 		strh	r2, [r9]	@ movhi
 122:Drivers/lvgl/src/draw/lv_draw_arc.c ****         area->x2 = x + ((LV_MAX(lv_trigo_sin(start_angle + 90),
 433              		.loc 1 122 9 is_stmt 1 view .LVU138
 122:Drivers/lvgl/src/draw/lv_draw_arc.c ****         area->x2 = x + ((LV_MAX(lv_trigo_sin(start_angle + 90),
 434              		.loc 1 122 26 is_stmt 0 view .LVU139
 435 017e 38B2     		sxth	r0, r7
 436 0180 FFF7FEFF 		bl	lv_trigo_sin
 437              	.LVL35:
 122:Drivers/lvgl/src/draw/lv_draw_arc.c ****         area->x2 = x + ((LV_MAX(lv_trigo_sin(start_angle + 90),
 438              		.loc 1 122 77 discriminator 1 view .LVU140
 439 0184 A5EB0803 		sub	r3, r5, r8
 122:Drivers/lvgl/src/draw/lv_draw_arc.c ****         area->x2 = x + ((LV_MAX(lv_trigo_sin(start_angle + 90),
 440              		.loc 1 122 50 discriminator 1 view .LVU141
 441 0188 00FB0BF0 		mul	r0, r0, fp
 122:Drivers/lvgl/src/draw/lv_draw_arc.c ****         area->x2 = x + ((LV_MAX(lv_trigo_sin(start_angle + 90),
 442              		.loc 1 122 77 discriminator 1 view .LVU142
 443 018c 03EBE033 		add	r3, r3, r0, asr #15
 122:Drivers/lvgl/src/draw/lv_draw_arc.c ****         area->x2 = x + ((LV_MAX(lv_trigo_sin(start_angle + 90),
 444              		.loc 1 122 18 discriminator 1 view .LVU143
 445 0190 A9F80230 		strh	r3, [r9, #2]	@ movhi
 123:Drivers/lvgl/src/draw/lv_draw_arc.c ****                                 lv_trigo_sin(end_angle + 90)) * rin) >> LV_TRIGO_SHIFT) + extra_are
 446              		.loc 1 123 9 is_stmt 1 view .LVU144
 123:Drivers/lvgl/src/draw/lv_draw_arc.c ****                                 lv_trigo_sin(end_angle + 90)) * rin) >> LV_TRIGO_SHIFT) + extra_are
 447              		.loc 1 123 26 is_stmt 0 view .LVU145
 448 0194 06F15A03 		add	r3, r6, #90
 449 0198 1BB2     		sxth	r3, r3
 450 019a 1846     		mov	r0, r3
 451 019c 0193     		str	r3, [sp, #4]
 452 019e FFF7FEFF 		bl	lv_trigo_sin
ARM GAS  /var/folders/lp/x54gwt890xv47sdkqj1k04q40000gn/T//ccuAnXe2.s 			page 13


 453              	.LVL36:
 123:Drivers/lvgl/src/draw/lv_draw_arc.c ****                                 lv_trigo_sin(end_angle + 90)) * rin) >> LV_TRIGO_SHIFT) + extra_are
 454              		.loc 1 123 26 discriminator 1 view .LVU146
 455 01a2 5A37     		adds	r7, r7, #90
 456              	.LVL37:
 123:Drivers/lvgl/src/draw/lv_draw_arc.c ****                                 lv_trigo_sin(end_angle + 90)) * rin) >> LV_TRIGO_SHIFT) + extra_are
 457              		.loc 1 123 26 discriminator 1 view .LVU147
 458 01a4 3FB2     		sxth	r7, r7
 123:Drivers/lvgl/src/draw/lv_draw_arc.c ****                                 lv_trigo_sin(end_angle + 90)) * rin) >> LV_TRIGO_SHIFT) + extra_are
 459              		.loc 1 123 26 view .LVU148
 460 01a6 0090     		str	r0, [sp]
 123:Drivers/lvgl/src/draw/lv_draw_arc.c ****                                 lv_trigo_sin(end_angle + 90)) * rin) >> LV_TRIGO_SHIFT) + extra_are
 461              		.loc 1 123 26 discriminator 1 view .LVU149
 462 01a8 3846     		mov	r0, r7
 463 01aa FFF7FEFF 		bl	lv_trigo_sin
 464              	.LVL38:
 123:Drivers/lvgl/src/draw/lv_draw_arc.c ****                                 lv_trigo_sin(end_angle + 90)) * rin) >> LV_TRIGO_SHIFT) + extra_are
 465              		.loc 1 123 26 discriminator 2 view .LVU150
 466 01ae 009A     		ldr	r2, [sp]
 467 01b0 8242     		cmp	r2, r0
 123:Drivers/lvgl/src/draw/lv_draw_arc.c ****                                 lv_trigo_sin(end_angle + 90)) * rin) >> LV_TRIGO_SHIFT) + extra_are
 468              		.loc 1 123 26 discriminator 1 view .LVU151
 469 01b2 CABF     		itet	gt
 470 01b4 019B     		ldrgt	r3, [sp, #4]
 123:Drivers/lvgl/src/draw/lv_draw_arc.c ****                                 lv_trigo_sin(end_angle + 90)) * rin) >> LV_TRIGO_SHIFT) + extra_are
 471              		.loc 1 123 26 discriminator 2 view .LVU152
 472 01b6 3846     		movle	r0, r7
 123:Drivers/lvgl/src/draw/lv_draw_arc.c ****                                 lv_trigo_sin(end_angle + 90)) * rin) >> LV_TRIGO_SHIFT) + extra_are
 473              		.loc 1 123 26 discriminator 1 view .LVU153
 474 01b8 1846     		movgt	r0, r3
 123:Drivers/lvgl/src/draw/lv_draw_arc.c ****                                 lv_trigo_sin(end_angle + 90)) * rin) >> LV_TRIGO_SHIFT) + extra_are
 475              		.loc 1 123 26 discriminator 2 view .LVU154
 476 01ba FFF7FEFF 		bl	lv_trigo_sin
 477              	.LVL39:
 124:Drivers/lvgl/src/draw/lv_draw_arc.c ****         area->y2 = y + ((lv_trigo_sin(start_angle) * rout) >> LV_TRIGO_SHIFT) + extra_area;
 478              		.loc 1 124 89 view .LVU155
 479 01be 4444     		add	r4, r4, r8
 124:Drivers/lvgl/src/draw/lv_draw_arc.c ****         area->y2 = y + ((lv_trigo_sin(start_angle) * rout) >> LV_TRIGO_SHIFT) + extra_area;
 480              		.loc 1 124 63 view .LVU156
 481 01c0 00FB0AF3 		mul	r3, r0, r10
 124:Drivers/lvgl/src/draw/lv_draw_arc.c ****         area->y2 = y + ((lv_trigo_sin(start_angle) * rout) >> LV_TRIGO_SHIFT) + extra_area;
 482              		.loc 1 124 89 view .LVU157
 483 01c4 04EBE334 		add	r4, r4, r3, asr #15
 123:Drivers/lvgl/src/draw/lv_draw_arc.c ****                                 lv_trigo_sin(end_angle + 90)) * rin) >> LV_TRIGO_SHIFT) + extra_are
 484              		.loc 1 123 18 view .LVU158
 485 01c8 A9F80440 		strh	r4, [r9, #4]	@ movhi
 125:Drivers/lvgl/src/draw/lv_draw_arc.c ****     }
 486              		.loc 1 125 9 is_stmt 1 view .LVU159
 125:Drivers/lvgl/src/draw/lv_draw_arc.c ****     }
 487              		.loc 1 125 26 is_stmt 0 view .LVU160
 488 01cc 30B2     		sxth	r0, r6
 489 01ce BFE7     		b	.L48
 490              	.LVL40:
 491              	.L43:
  83:Drivers/lvgl/src/draw/lv_draw_arc.c ****         if(start_quarter == 0) {
 492              		.loc 1 83 37 discriminator 1 view .LVU161
 493 01d0 BE42     		cmp	r6, r7
ARM GAS  /var/folders/lp/x54gwt890xv47sdkqj1k04q40000gn/T//ccuAnXe2.s 			page 14


 494 01d2 3FF675AF 		bhi	.L47
 495              	.LVL41:
 496              	.L18:
 106:Drivers/lvgl/src/draw/lv_draw_arc.c ****             area->y1 = y + ((lv_trigo_sin(start_angle) * rout) >> LV_TRIGO_SHIFT) - extra_area;
 497              		.loc 1 106 13 is_stmt 1 view .LVU162
 106:Drivers/lvgl/src/draw/lv_draw_arc.c ****             area->y1 = y + ((lv_trigo_sin(start_angle) * rout) >> LV_TRIGO_SHIFT) - extra_area;
 498              		.loc 1 106 55 is_stmt 0 view .LVU163
 499 01d6 06F15A00 		add	r0, r6, #90
 106:Drivers/lvgl/src/draw/lv_draw_arc.c ****             area->y1 = y + ((lv_trigo_sin(start_angle) * rout) >> LV_TRIGO_SHIFT) - extra_area;
 500              		.loc 1 106 30 view .LVU164
 501 01da 00B2     		sxth	r0, r0
 502 01dc FFF7FEFF 		bl	lv_trigo_sin
 503              	.LVL42:
 106:Drivers/lvgl/src/draw/lv_draw_arc.c ****             area->y1 = y + ((lv_trigo_sin(start_angle) * rout) >> LV_TRIGO_SHIFT) - extra_area;
 504              		.loc 1 106 87 discriminator 1 view .LVU165
 505 01e0 1FFA88F8 		uxth	r8, r8
 106:Drivers/lvgl/src/draw/lv_draw_arc.c ****             area->y1 = y + ((lv_trigo_sin(start_angle) * rout) >> LV_TRIGO_SHIFT) - extra_area;
 506              		.loc 1 106 26 discriminator 1 view .LVU166
 507 01e4 A4B2     		uxth	r4, r4
 106:Drivers/lvgl/src/draw/lv_draw_arc.c ****             area->y1 = y + ((lv_trigo_sin(start_angle) * rout) >> LV_TRIGO_SHIFT) - extra_area;
 508              		.loc 1 106 61 discriminator 1 view .LVU167
 509 01e6 00FB0AF2 		mul	r2, r0, r10
 106:Drivers/lvgl/src/draw/lv_draw_arc.c ****             area->y1 = y + ((lv_trigo_sin(start_angle) * rout) >> LV_TRIGO_SHIFT) - extra_area;
 510              		.loc 1 106 87 discriminator 1 view .LVU168
 511 01ea A4EB0803 		sub	r3, r4, r8
 512 01ee 03EBE233 		add	r3, r3, r2, asr #15
 106:Drivers/lvgl/src/draw/lv_draw_arc.c ****             area->y1 = y + ((lv_trigo_sin(start_angle) * rout) >> LV_TRIGO_SHIFT) - extra_area;
 513              		.loc 1 106 22 discriminator 1 view .LVU169
 514 01f2 A9F80030 		strh	r3, [r9]	@ movhi
 107:Drivers/lvgl/src/draw/lv_draw_arc.c **** 
 515              		.loc 1 107 13 is_stmt 1 view .LVU170
 107:Drivers/lvgl/src/draw/lv_draw_arc.c **** 
 516              		.loc 1 107 30 is_stmt 0 view .LVU171
 517 01f6 30B2     		sxth	r0, r6
 518 01f8 FFF7FEFF 		bl	lv_trigo_sin
 519              	.LVL43:
 107:Drivers/lvgl/src/draw/lv_draw_arc.c **** 
 520              		.loc 1 107 26 discriminator 1 view .LVU172
 521 01fc ADB2     		uxth	r5, r5
 107:Drivers/lvgl/src/draw/lv_draw_arc.c **** 
 522              		.loc 1 107 56 discriminator 1 view .LVU173
 523 01fe 00FB0BF0 		mul	r0, r0, fp
 107:Drivers/lvgl/src/draw/lv_draw_arc.c **** 
 524              		.loc 1 107 83 discriminator 1 view .LVU174
 525 0202 A5EB0803 		sub	r3, r5, r8
 526 0206 03EBE033 		add	r3, r3, r0, asr #15
 109:Drivers/lvgl/src/draw/lv_draw_arc.c ****             area->y2 = y + ((lv_trigo_sin(end_angle) * rin) >> LV_TRIGO_SHIFT) + extra_area;
 527              		.loc 1 109 53 view .LVU175
 528 020a 07F15A00 		add	r0, r7, #90
 107:Drivers/lvgl/src/draw/lv_draw_arc.c **** 
 529              		.loc 1 107 22 discriminator 1 view .LVU176
 530 020e A9F80230 		strh	r3, [r9, #2]	@ movhi
 109:Drivers/lvgl/src/draw/lv_draw_arc.c ****             area->y2 = y + ((lv_trigo_sin(end_angle) * rin) >> LV_TRIGO_SHIFT) + extra_area;
 531              		.loc 1 109 13 is_stmt 1 view .LVU177
 109:Drivers/lvgl/src/draw/lv_draw_arc.c ****             area->y2 = y + ((lv_trigo_sin(end_angle) * rin) >> LV_TRIGO_SHIFT) + extra_area;
 532              		.loc 1 109 30 is_stmt 0 view .LVU178
 533 0212 00B2     		sxth	r0, r0
ARM GAS  /var/folders/lp/x54gwt890xv47sdkqj1k04q40000gn/T//ccuAnXe2.s 			page 15


 534 0214 FFF7FEFF 		bl	lv_trigo_sin
 535              	.LVL44:
 109:Drivers/lvgl/src/draw/lv_draw_arc.c ****             area->y2 = y + ((lv_trigo_sin(end_angle) * rin) >> LV_TRIGO_SHIFT) + extra_area;
 536              		.loc 1 109 86 discriminator 1 view .LVU179
 537 0218 4444     		add	r4, r4, r8
 109:Drivers/lvgl/src/draw/lv_draw_arc.c ****             area->y2 = y + ((lv_trigo_sin(end_angle) * rin) >> LV_TRIGO_SHIFT) + extra_area;
 538              		.loc 1 109 59 discriminator 1 view .LVU180
 539 021a 0BFB00F0 		mul	r0, fp, r0
 109:Drivers/lvgl/src/draw/lv_draw_arc.c ****             area->y2 = y + ((lv_trigo_sin(end_angle) * rin) >> LV_TRIGO_SHIFT) + extra_area;
 540              		.loc 1 109 86 discriminator 1 view .LVU181
 541 021e 04EBE034 		add	r4, r4, r0, asr #15
 109:Drivers/lvgl/src/draw/lv_draw_arc.c ****             area->y2 = y + ((lv_trigo_sin(end_angle) * rin) >> LV_TRIGO_SHIFT) + extra_area;
 542              		.loc 1 109 22 discriminator 1 view .LVU182
 543 0222 A9F80440 		strh	r4, [r9, #4]	@ movhi
 110:Drivers/lvgl/src/draw/lv_draw_arc.c ****         }
 544              		.loc 1 110 13 is_stmt 1 view .LVU183
 110:Drivers/lvgl/src/draw/lv_draw_arc.c ****         }
 545              		.loc 1 110 30 is_stmt 0 view .LVU184
 546 0226 38B2     		sxth	r0, r7
 547 0228 FFF7FEFF 		bl	lv_trigo_sin
 548              	.LVL45:
 110:Drivers/lvgl/src/draw/lv_draw_arc.c ****         }
 549              		.loc 1 110 80 discriminator 1 view .LVU185
 550 022c A844     		add	r8, r8, r5
 551              	.LVL46:
 110:Drivers/lvgl/src/draw/lv_draw_arc.c ****         }
 552              		.loc 1 110 54 discriminator 1 view .LVU186
 553 022e 0AFB00F0 		mul	r0, r10, r0
 110:Drivers/lvgl/src/draw/lv_draw_arc.c ****         }
 554              		.loc 1 110 80 discriminator 1 view .LVU187
 555 0232 08EBE038 		add	r8, r8, r0, asr #15
 110:Drivers/lvgl/src/draw/lv_draw_arc.c ****         }
 556              		.loc 1 110 22 discriminator 1 view .LVU188
 557 0236 A9F80680 		strh	r8, [r9, #6]	@ movhi
 558 023a 37E7     		b	.L10
 559              	.LVL47:
 560              	.L53:
 114:Drivers/lvgl/src/draw/lv_draw_arc.c ****         area->y1 = y + ((LV_MIN(lv_trigo_sin(end_angle),
 561              		.loc 1 114 9 is_stmt 1 view .LVU189
 114:Drivers/lvgl/src/draw/lv_draw_arc.c ****         area->y1 = y + ((LV_MIN(lv_trigo_sin(end_angle),
 562              		.loc 1 114 49 is_stmt 0 view .LVU190
 563 023c 07F15A00 		add	r0, r7, #90
 114:Drivers/lvgl/src/draw/lv_draw_arc.c ****         area->y1 = y + ((LV_MIN(lv_trigo_sin(end_angle),
 564              		.loc 1 114 26 view .LVU191
 565 0240 00B2     		sxth	r0, r0
 566 0242 0292     		str	r2, [sp, #8]
 567 0244 FFF7FEFF 		bl	lv_trigo_sin
 568              	.LVL48:
 114:Drivers/lvgl/src/draw/lv_draw_arc.c ****         area->y1 = y + ((LV_MIN(lv_trigo_sin(end_angle),
 569              		.loc 1 114 82 discriminator 1 view .LVU192
 570 0248 1FFA88F8 		uxth	r8, r8
 114:Drivers/lvgl/src/draw/lv_draw_arc.c ****         area->y1 = y + ((LV_MIN(lv_trigo_sin(end_angle),
 571              		.loc 1 114 82 discriminator 1 view .LVU193
 572 024c A4EB0803 		sub	r3, r4, r8
 114:Drivers/lvgl/src/draw/lv_draw_arc.c ****         area->y1 = y + ((LV_MIN(lv_trigo_sin(end_angle),
 573              		.loc 1 114 55 discriminator 1 view .LVU194
 574 0250 00FB0BF0 		mul	r0, r0, fp
ARM GAS  /var/folders/lp/x54gwt890xv47sdkqj1k04q40000gn/T//ccuAnXe2.s 			page 16


 114:Drivers/lvgl/src/draw/lv_draw_arc.c ****         area->y1 = y + ((LV_MIN(lv_trigo_sin(end_angle),
 575              		.loc 1 114 82 discriminator 1 view .LVU195
 576 0254 03EBE033 		add	r3, r3, r0, asr #15
 115:Drivers/lvgl/src/draw/lv_draw_arc.c ****                                 lv_trigo_sin(start_angle))  * rin) >> LV_TRIGO_SHIFT) - extra_area;
 577              		.loc 1 115 26 view .LVU196
 578 0258 3FB2     		sxth	r7, r7
 114:Drivers/lvgl/src/draw/lv_draw_arc.c ****         area->y1 = y + ((LV_MIN(lv_trigo_sin(end_angle),
 579              		.loc 1 114 18 discriminator 1 view .LVU197
 580 025a A9F80030 		strh	r3, [r9]	@ movhi
 115:Drivers/lvgl/src/draw/lv_draw_arc.c ****                                 lv_trigo_sin(start_angle))  * rin) >> LV_TRIGO_SHIFT) - extra_area;
 581              		.loc 1 115 9 is_stmt 1 view .LVU198
 115:Drivers/lvgl/src/draw/lv_draw_arc.c ****                                 lv_trigo_sin(start_angle))  * rin) >> LV_TRIGO_SHIFT) - extra_area;
 582              		.loc 1 115 26 is_stmt 0 view .LVU199
 583 025e 3846     		mov	r0, r7
 584 0260 FFF7FEFF 		bl	lv_trigo_sin
 585              	.LVL49:
 115:Drivers/lvgl/src/draw/lv_draw_arc.c ****                                 lv_trigo_sin(start_angle))  * rin) >> LV_TRIGO_SHIFT) - extra_area;
 586              		.loc 1 115 26 discriminator 1 view .LVU200
 587 0264 33B2     		sxth	r3, r6
 115:Drivers/lvgl/src/draw/lv_draw_arc.c ****                                 lv_trigo_sin(start_angle))  * rin) >> LV_TRIGO_SHIFT) - extra_area;
 588              		.loc 1 115 26 view .LVU201
 589 0266 0190     		str	r0, [sp, #4]
 115:Drivers/lvgl/src/draw/lv_draw_arc.c ****                                 lv_trigo_sin(start_angle))  * rin) >> LV_TRIGO_SHIFT) - extra_area;
 590              		.loc 1 115 26 discriminator 1 view .LVU202
 591 0268 1846     		mov	r0, r3
 592 026a 0093     		str	r3, [sp]
 593 026c FFF7FEFF 		bl	lv_trigo_sin
 594              	.LVL50:
 115:Drivers/lvgl/src/draw/lv_draw_arc.c ****                                 lv_trigo_sin(start_angle))  * rin) >> LV_TRIGO_SHIFT) - extra_area;
 595              		.loc 1 115 26 discriminator 2 view .LVU203
 596 0270 0199     		ldr	r1, [sp, #4]
 597 0272 009B     		ldr	r3, [sp]
 598 0274 029A     		ldr	r2, [sp, #8]
 599 0276 0092     		str	r2, [sp]
 600 0278 8142     		cmp	r1, r0
 601 027a ACBF     		ite	ge
 602 027c 1846     		movge	r0, r3
 115:Drivers/lvgl/src/draw/lv_draw_arc.c ****                                 lv_trigo_sin(start_angle))  * rin) >> LV_TRIGO_SHIFT) - extra_area;
 603              		.loc 1 115 26 discriminator 1 view .LVU204
 604 027e 3846     		movlt	r0, r7
 115:Drivers/lvgl/src/draw/lv_draw_arc.c ****                                 lv_trigo_sin(start_angle))  * rin) >> LV_TRIGO_SHIFT) - extra_area;
 605              		.loc 1 115 26 discriminator 2 view .LVU205
 606 0280 FFF7FEFF 		bl	lv_trigo_sin
 607              	.LVL51:
 116:Drivers/lvgl/src/draw/lv_draw_arc.c ****         area->x2 = x + ((lv_trigo_sin(start_angle + 90) * rout) >> LV_TRIGO_SHIFT) + extra_area;
 608              		.loc 1 116 87 view .LVU206
 609 0284 A5EB0801 		sub	r1, r5, r8
 116:Drivers/lvgl/src/draw/lv_draw_arc.c ****         area->x2 = x + ((lv_trigo_sin(start_angle + 90) * rout) >> LV_TRIGO_SHIFT) + extra_area;
 610              		.loc 1 116 61 view .LVU207
 611 0288 00FB0AF3 		mul	r3, r0, r10
 116:Drivers/lvgl/src/draw/lv_draw_arc.c ****         area->x2 = x + ((lv_trigo_sin(start_angle + 90) * rout) >> LV_TRIGO_SHIFT) + extra_area;
 612              		.loc 1 116 87 view .LVU208
 613 028c 01EBE333 		add	r3, r1, r3, asr #15
 117:Drivers/lvgl/src/draw/lv_draw_arc.c ****         area->y2 = y + rout + extra_area;
 614              		.loc 1 117 51 view .LVU209
 615 0290 06F15A00 		add	r0, r6, #90
 115:Drivers/lvgl/src/draw/lv_draw_arc.c ****                                 lv_trigo_sin(start_angle))  * rin) >> LV_TRIGO_SHIFT) - extra_area;
ARM GAS  /var/folders/lp/x54gwt890xv47sdkqj1k04q40000gn/T//ccuAnXe2.s 			page 17


 616              		.loc 1 115 26 discriminator 2 view .LVU210
 617 0294 009A     		ldr	r2, [sp]
 115:Drivers/lvgl/src/draw/lv_draw_arc.c ****                                 lv_trigo_sin(start_angle))  * rin) >> LV_TRIGO_SHIFT) - extra_area;
 618              		.loc 1 115 18 view .LVU211
 619 0296 A9F80230 		strh	r3, [r9, #2]	@ movhi
 117:Drivers/lvgl/src/draw/lv_draw_arc.c ****         area->y2 = y + rout + extra_area;
 620              		.loc 1 117 9 is_stmt 1 view .LVU212
 117:Drivers/lvgl/src/draw/lv_draw_arc.c ****         area->y2 = y + rout + extra_area;
 621              		.loc 1 117 26 is_stmt 0 view .LVU213
 622 029a 00B2     		sxth	r0, r0
 623 029c 0092     		str	r2, [sp]
 624 029e FFF7FEFF 		bl	lv_trigo_sin
 625              	.LVL52:
 118:Drivers/lvgl/src/draw/lv_draw_arc.c ****     }
 626              		.loc 1 118 22 view .LVU214
 627 02a2 009A     		ldr	r2, [sp]
 117:Drivers/lvgl/src/draw/lv_draw_arc.c ****         area->y2 = y + rout + extra_area;
 628              		.loc 1 117 84 discriminator 1 view .LVU215
 629 02a4 4444     		add	r4, r4, r8
 117:Drivers/lvgl/src/draw/lv_draw_arc.c ****         area->y2 = y + rout + extra_area;
 630              		.loc 1 117 57 discriminator 1 view .LVU216
 631 02a6 0BFB00F0 		mul	r0, fp, r0
 118:Drivers/lvgl/src/draw/lv_draw_arc.c ****     }
 632              		.loc 1 118 22 view .LVU217
 633 02aa 1544     		add	r5, r5, r2
 117:Drivers/lvgl/src/draw/lv_draw_arc.c ****         area->y2 = y + rout + extra_area;
 634              		.loc 1 117 84 discriminator 1 view .LVU218
 635 02ac 04EBE034 		add	r4, r4, r0, asr #15
 118:Drivers/lvgl/src/draw/lv_draw_arc.c ****     }
 636              		.loc 1 118 29 view .LVU219
 637 02b0 A844     		add	r8, r8, r5
 638              	.LVL53:
 117:Drivers/lvgl/src/draw/lv_draw_arc.c ****         area->y2 = y + rout + extra_area;
 639              		.loc 1 117 18 discriminator 1 view .LVU220
 640 02b2 A9F80440 		strh	r4, [r9, #4]	@ movhi
 118:Drivers/lvgl/src/draw/lv_draw_arc.c ****     }
 641              		.loc 1 118 9 is_stmt 1 view .LVU221
 118:Drivers/lvgl/src/draw/lv_draw_arc.c ****     }
 642              		.loc 1 118 18 is_stmt 0 view .LVU222
 643 02b6 A9F80680 		strh	r8, [r9, #6]	@ movhi
 644 02ba F7E6     		b	.L10
 645              	.LVL54:
 646              	.L51:
  81:Drivers/lvgl/src/draw/lv_draw_arc.c **** 
 647              		.loc 1 81 26 is_stmt 1 discriminator 1 view .LVU223
  83:Drivers/lvgl/src/draw/lv_draw_arc.c ****         if(start_quarter == 0) {
 648              		.loc 1 83 5 view .LVU224
  83:Drivers/lvgl/src/draw/lv_draw_arc.c ****         if(start_quarter == 0) {
 649              		.loc 1 83 7 is_stmt 0 view .LVU225
 650 02bc 032B     		cmp	r3, #3
 651 02be 87D0     		beq	.L43
 113:Drivers/lvgl/src/draw/lv_draw_arc.c ****         area->x1 = x + ((lv_trigo_sin(end_angle + 90) * rout) >> LV_TRIGO_SHIFT) - extra_area;
 652              		.loc 1 113 10 is_stmt 1 view .LVU226
 113:Drivers/lvgl/src/draw/lv_draw_arc.c ****         area->x1 = x + ((lv_trigo_sin(end_angle + 90) * rout) >> LV_TRIGO_SHIFT) - extra_area;
 653              		.loc 1 113 12 is_stmt 0 view .LVU227
 654 02c0 022B     		cmp	r3, #2
 655 02c2 7FF4FDAE 		bne	.L47
ARM GAS  /var/folders/lp/x54gwt890xv47sdkqj1k04q40000gn/T//ccuAnXe2.s 			page 18


 656 02c6 A4B2     		uxth	r4, r4
 657 02c8 ADB2     		uxth	r5, r5
 658              	.LVL55:
 659              	.L22:
 128:Drivers/lvgl/src/draw/lv_draw_arc.c ****         area->y1 = y - rout - extra_area;
 660              		.loc 1 128 9 is_stmt 1 view .LVU228
 128:Drivers/lvgl/src/draw/lv_draw_arc.c ****         area->y1 = y - rout - extra_area;
 661              		.loc 1 128 51 is_stmt 0 view .LVU229
 662 02ca 06F15A00 		add	r0, r6, #90
 128:Drivers/lvgl/src/draw/lv_draw_arc.c ****         area->y1 = y - rout - extra_area;
 663              		.loc 1 128 26 view .LVU230
 664 02ce 00B2     		sxth	r0, r0
 665 02d0 0092     		str	r2, [sp]
 666 02d2 FFF7FEFF 		bl	lv_trigo_sin
 667              	.LVL56:
 129:Drivers/lvgl/src/draw/lv_draw_arc.c ****         area->x2 = x + ((lv_trigo_sin(end_angle + 90) * rout) >> LV_TRIGO_SHIFT) + extra_area;
 668              		.loc 1 129 22 view .LVU231
 669 02d6 009A     		ldr	r2, [sp]
 128:Drivers/lvgl/src/draw/lv_draw_arc.c ****         area->y1 = y - rout - extra_area;
 670              		.loc 1 128 84 discriminator 1 view .LVU232
 671 02d8 1FFA88F8 		uxth	r8, r8
 128:Drivers/lvgl/src/draw/lv_draw_arc.c ****         area->y1 = y - rout - extra_area;
 672              		.loc 1 128 84 discriminator 1 view .LVU233
 673 02dc A4EB0803 		sub	r3, r4, r8
 128:Drivers/lvgl/src/draw/lv_draw_arc.c ****         area->y1 = y - rout - extra_area;
 674              		.loc 1 128 57 discriminator 1 view .LVU234
 675 02e0 00FB0BF0 		mul	r0, r0, fp
 129:Drivers/lvgl/src/draw/lv_draw_arc.c ****         area->x2 = x + ((lv_trigo_sin(end_angle + 90) * rout) >> LV_TRIGO_SHIFT) + extra_area;
 676              		.loc 1 129 22 view .LVU235
 677 02e4 AA1A     		subs	r2, r5, r2
 128:Drivers/lvgl/src/draw/lv_draw_arc.c ****         area->y1 = y - rout - extra_area;
 678              		.loc 1 128 84 discriminator 1 view .LVU236
 679 02e6 03EBE033 		add	r3, r3, r0, asr #15
 129:Drivers/lvgl/src/draw/lv_draw_arc.c ****         area->x2 = x + ((lv_trigo_sin(end_angle + 90) * rout) >> LV_TRIGO_SHIFT) + extra_area;
 680              		.loc 1 129 29 view .LVU237
 681 02ea A2EB0802 		sub	r2, r2, r8
 130:Drivers/lvgl/src/draw/lv_draw_arc.c ****         area->y2 = y + (LV_MAX(lv_trigo_sin(end_angle) * rin,
 682              		.loc 1 130 49 view .LVU238
 683 02ee 07F15A00 		add	r0, r7, #90
 128:Drivers/lvgl/src/draw/lv_draw_arc.c ****         area->y1 = y - rout - extra_area;
 684              		.loc 1 128 18 discriminator 1 view .LVU239
 685 02f2 A9F80030 		strh	r3, [r9]	@ movhi
 129:Drivers/lvgl/src/draw/lv_draw_arc.c ****         area->x2 = x + ((lv_trigo_sin(end_angle + 90) * rout) >> LV_TRIGO_SHIFT) + extra_area;
 686              		.loc 1 129 9 is_stmt 1 view .LVU240
 130:Drivers/lvgl/src/draw/lv_draw_arc.c ****         area->y2 = y + (LV_MAX(lv_trigo_sin(end_angle) * rin,
 687              		.loc 1 130 9 view .LVU241
 129:Drivers/lvgl/src/draw/lv_draw_arc.c ****         area->x2 = x + ((lv_trigo_sin(end_angle + 90) * rout) >> LV_TRIGO_SHIFT) + extra_area;
 688              		.loc 1 129 18 is_stmt 0 view .LVU242
 689 02f6 A9F80220 		strh	r2, [r9, #2]	@ movhi
 130:Drivers/lvgl/src/draw/lv_draw_arc.c ****         area->y2 = y + (LV_MAX(lv_trigo_sin(end_angle) * rin,
 690              		.loc 1 130 26 view .LVU243
 691 02fa 00B2     		sxth	r0, r0
 692 02fc FFF7FEFF 		bl	lv_trigo_sin
 693              	.LVL57:
 130:Drivers/lvgl/src/draw/lv_draw_arc.c ****         area->y2 = y + (LV_MAX(lv_trigo_sin(end_angle) * rin,
 694              		.loc 1 130 82 discriminator 1 view .LVU244
 695 0300 4444     		add	r4, r4, r8
ARM GAS  /var/folders/lp/x54gwt890xv47sdkqj1k04q40000gn/T//ccuAnXe2.s 			page 19


 130:Drivers/lvgl/src/draw/lv_draw_arc.c ****         area->y2 = y + (LV_MAX(lv_trigo_sin(end_angle) * rin,
 696              		.loc 1 130 55 discriminator 1 view .LVU245
 697 0302 0BFB00F0 		mul	r0, fp, r0
 130:Drivers/lvgl/src/draw/lv_draw_arc.c ****         area->y2 = y + (LV_MAX(lv_trigo_sin(end_angle) * rin,
 698              		.loc 1 130 82 discriminator 1 view .LVU246
 699 0306 04EBE034 		add	r4, r4, r0, asr #15
 131:Drivers/lvgl/src/draw/lv_draw_arc.c ****                                lv_trigo_sin(start_angle) * rin) >> LV_TRIGO_SHIFT) + extra_area;
 700              		.loc 1 131 25 view .LVU247
 701 030a 3FB2     		sxth	r7, r7
 130:Drivers/lvgl/src/draw/lv_draw_arc.c ****         area->y2 = y + (LV_MAX(lv_trigo_sin(end_angle) * rin,
 702              		.loc 1 130 18 discriminator 1 view .LVU248
 703 030c A9F80440 		strh	r4, [r9, #4]	@ movhi
 131:Drivers/lvgl/src/draw/lv_draw_arc.c ****                                lv_trigo_sin(start_angle) * rin) >> LV_TRIGO_SHIFT) + extra_area;
 704              		.loc 1 131 9 is_stmt 1 view .LVU249
 131:Drivers/lvgl/src/draw/lv_draw_arc.c ****                                lv_trigo_sin(start_angle) * rin) >> LV_TRIGO_SHIFT) + extra_area;
 705              		.loc 1 131 25 is_stmt 0 view .LVU250
 706 0310 3846     		mov	r0, r7
 707 0312 FFF7FEFF 		bl	lv_trigo_sin
 708              	.LVL58:
 131:Drivers/lvgl/src/draw/lv_draw_arc.c ****                                lv_trigo_sin(start_angle) * rin) >> LV_TRIGO_SHIFT) + extra_area;
 709              		.loc 1 131 25 discriminator 1 view .LVU251
 710 0316 36B2     		sxth	r6, r6
 711              	.LVL59:
 131:Drivers/lvgl/src/draw/lv_draw_arc.c ****                                lv_trigo_sin(start_angle) * rin) >> LV_TRIGO_SHIFT) + extra_area;
 712              		.loc 1 131 25 discriminator 1 view .LVU252
 713 0318 00FB0AF4 		mul	r4, r0, r10
 714 031c 3046     		mov	r0, r6
 715 031e FFF7FEFF 		bl	lv_trigo_sin
 716              	.LVL60:
 131:Drivers/lvgl/src/draw/lv_draw_arc.c ****                                lv_trigo_sin(start_angle) * rin) >> LV_TRIGO_SHIFT) + extra_area;
 717              		.loc 1 131 25 discriminator 2 view .LVU253
 718 0322 0AFB00F0 		mul	r0, r10, r0
 131:Drivers/lvgl/src/draw/lv_draw_arc.c ****                                lv_trigo_sin(start_angle) * rin) >> LV_TRIGO_SHIFT) + extra_area;
 719              		.loc 1 131 22 discriminator 2 view .LVU254
 720 0326 8442     		cmp	r4, r0
 131:Drivers/lvgl/src/draw/lv_draw_arc.c ****                                lv_trigo_sin(start_angle) * rin) >> LV_TRIGO_SHIFT) + extra_area;
 721              		.loc 1 131 25 discriminator 1 view .LVU255
 722 0328 CCBF     		ite	gt
 723 032a 3846     		movgt	r0, r7
 131:Drivers/lvgl/src/draw/lv_draw_arc.c ****                                lv_trigo_sin(start_angle) * rin) >> LV_TRIGO_SHIFT) + extra_area;
 724              		.loc 1 131 25 discriminator 2 view .LVU256
 725 032c 3046     		movle	r0, r6
 726 032e FFF7FEFF 		bl	lv_trigo_sin
 727              	.LVL61:
 131:Drivers/lvgl/src/draw/lv_draw_arc.c ****                                lv_trigo_sin(start_angle) * rin) >> LV_TRIGO_SHIFT) + extra_area;
 728              		.loc 1 131 25 discriminator 1 view .LVU257
 729 0332 0AFB00F3 		mul	r3, r10, r0
 131:Drivers/lvgl/src/draw/lv_draw_arc.c ****                                lv_trigo_sin(start_angle) * rin) >> LV_TRIGO_SHIFT) + extra_area;
 730              		.loc 1 131 22 discriminator 2 view .LVU258
 731 0336 C3F3CF33 		ubfx	r3, r3, #15, #16
 132:Drivers/lvgl/src/draw/lv_draw_arc.c ****     }
 732              		.loc 1 132 84 view .LVU259
 733 033a A844     		add	r8, r8, r5
 734              	.LVL62:
 132:Drivers/lvgl/src/draw/lv_draw_arc.c ****     }
 735              		.loc 1 132 84 view .LVU260
 736 033c 4344     		add	r3, r3, r8
ARM GAS  /var/folders/lp/x54gwt890xv47sdkqj1k04q40000gn/T//ccuAnXe2.s 			page 20


 131:Drivers/lvgl/src/draw/lv_draw_arc.c ****                                lv_trigo_sin(start_angle) * rin) >> LV_TRIGO_SHIFT) + extra_area;
 737              		.loc 1 131 18 discriminator 4 view .LVU261
 738 033e A9F80630 		strh	r3, [r9, #6]	@ movhi
 131:Drivers/lvgl/src/draw/lv_draw_arc.c ****                                lv_trigo_sin(start_angle) * rin) >> LV_TRIGO_SHIFT) + extra_area;
 739              		.loc 1 131 18 view .LVU262
 740 0342 B3E6     		b	.L10
 741              	.LVL63:
 742              	.L52:
  83:Drivers/lvgl/src/draw/lv_draw_arc.c ****         if(start_quarter == 0) {
 743              		.loc 1 83 37 discriminator 1 view .LVU263
 744 0344 BE42     		cmp	r6, r7
 745 0346 3FF697AE 		bhi	.L24
  84:Drivers/lvgl/src/draw/lv_draw_arc.c ****             area->y1 = y + ((lv_trigo_sin(start_angle) * rin) >> LV_TRIGO_SHIFT) - extra_area;
 746              		.loc 1 84 9 is_stmt 1 view .LVU264
 747 034a 032B     		cmp	r3, #3
 748 034c 3FF6AEAE 		bhi	.L10
 749 0350 01A2     		adr	r2, .L25
 750 0352 52F823F0 		ldr	pc, [r2, r3, lsl #2]
 751              	.LVL64:
 752 0356 00BF     		.p2align 2
 753              	.L25:
 754 0358 3F040000 		.word	.L28+1
 755 035c D5030000 		.word	.L27+1
 756 0360 6D030000 		.word	.L26+1
 757 0364 D7010000 		.word	.L18+1
 758              		.p2align 1
 759              	.L55:
  84:Drivers/lvgl/src/draw/lv_draw_arc.c ****             area->y1 = y + ((lv_trigo_sin(start_angle) * rin) >> LV_TRIGO_SHIFT) - extra_area;
 760              		.loc 1 84 9 is_stmt 0 view .LVU265
 761              		.align	2
 762              	.L54:
 763 0368 B7600BB6 		.word	-1240768329
 764              	.L26:
  99:Drivers/lvgl/src/draw/lv_draw_arc.c ****             area->y2 = y + ((lv_trigo_sin(start_angle) * rin) >> LV_TRIGO_SHIFT) + extra_area;
 765              		.loc 1 99 13 is_stmt 1 view .LVU266
  99:Drivers/lvgl/src/draw/lv_draw_arc.c ****             area->y2 = y + ((lv_trigo_sin(start_angle) * rin) >> LV_TRIGO_SHIFT) + extra_area;
 766              		.loc 1 99 55 is_stmt 0 view .LVU267
 767 036c 06F15A00 		add	r0, r6, #90
  99:Drivers/lvgl/src/draw/lv_draw_arc.c ****             area->y2 = y + ((lv_trigo_sin(start_angle) * rin) >> LV_TRIGO_SHIFT) + extra_area;
 768              		.loc 1 99 30 view .LVU268
 769 0370 00B2     		sxth	r0, r0
 770 0372 FFF7FEFF 		bl	lv_trigo_sin
 771              	.LVL65:
  99:Drivers/lvgl/src/draw/lv_draw_arc.c ****             area->y2 = y + ((lv_trigo_sin(start_angle) * rin) >> LV_TRIGO_SHIFT) + extra_area;
 772              		.loc 1 99 88 discriminator 1 view .LVU269
 773 0376 1FFA88F8 		uxth	r8, r8
  99:Drivers/lvgl/src/draw/lv_draw_arc.c ****             area->y2 = y + ((lv_trigo_sin(start_angle) * rin) >> LV_TRIGO_SHIFT) + extra_area;
 774              		.loc 1 99 26 discriminator 1 view .LVU270
 775 037a A4B2     		uxth	r4, r4
  99:Drivers/lvgl/src/draw/lv_draw_arc.c ****             area->y2 = y + ((lv_trigo_sin(start_angle) * rin) >> LV_TRIGO_SHIFT) + extra_area;
 776              		.loc 1 99 61 discriminator 1 view .LVU271
 777 037c 00FB0BF2 		mul	r2, r0, fp
  99:Drivers/lvgl/src/draw/lv_draw_arc.c ****             area->y2 = y + ((lv_trigo_sin(start_angle) * rin) >> LV_TRIGO_SHIFT) + extra_area;
 778              		.loc 1 99 88 discriminator 1 view .LVU272
 779 0380 A4EB0803 		sub	r3, r4, r8
 780 0384 03EBE233 		add	r3, r3, r2, asr #15
  99:Drivers/lvgl/src/draw/lv_draw_arc.c ****             area->y2 = y + ((lv_trigo_sin(start_angle) * rin) >> LV_TRIGO_SHIFT) + extra_area;
ARM GAS  /var/folders/lp/x54gwt890xv47sdkqj1k04q40000gn/T//ccuAnXe2.s 			page 21


 781              		.loc 1 99 22 discriminator 1 view .LVU273
 782 0388 A9F80030 		strh	r3, [r9]	@ movhi
 100:Drivers/lvgl/src/draw/lv_draw_arc.c **** 
 783              		.loc 1 100 13 is_stmt 1 view .LVU274
 100:Drivers/lvgl/src/draw/lv_draw_arc.c **** 
 784              		.loc 1 100 30 is_stmt 0 view .LVU275
 785 038c 30B2     		sxth	r0, r6
 786 038e FFF7FEFF 		bl	lv_trigo_sin
 787              	.LVL66:
 100:Drivers/lvgl/src/draw/lv_draw_arc.c **** 
 788              		.loc 1 100 26 discriminator 1 view .LVU276
 789 0392 ADB2     		uxth	r5, r5
 100:Drivers/lvgl/src/draw/lv_draw_arc.c **** 
 790              		.loc 1 100 56 discriminator 1 view .LVU277
 791 0394 00FB0AF0 		mul	r0, r0, r10
 100:Drivers/lvgl/src/draw/lv_draw_arc.c **** 
 792              		.loc 1 100 82 discriminator 1 view .LVU278
 793 0398 08EB0503 		add	r3, r8, r5
 794 039c 03EBE033 		add	r3, r3, r0, asr #15
 100:Drivers/lvgl/src/draw/lv_draw_arc.c **** 
 795              		.loc 1 100 22 discriminator 1 view .LVU279
 796 03a0 A9F80630 		strh	r3, [r9, #6]	@ movhi
 102:Drivers/lvgl/src/draw/lv_draw_arc.c ****             area->x2 = x + ((lv_trigo_sin(end_angle + 90) * rin) >> LV_TRIGO_SHIFT) + extra_area;
 797              		.loc 1 102 13 is_stmt 1 view .LVU280
 102:Drivers/lvgl/src/draw/lv_draw_arc.c ****             area->x2 = x + ((lv_trigo_sin(end_angle + 90) * rin) >> LV_TRIGO_SHIFT) + extra_area;
 798              		.loc 1 102 30 is_stmt 0 view .LVU281
 799 03a4 38B2     		sxth	r0, r7
 800 03a6 FFF7FEFF 		bl	lv_trigo_sin
 801              	.LVL67:
 102:Drivers/lvgl/src/draw/lv_draw_arc.c ****             area->x2 = x + ((lv_trigo_sin(end_angle + 90) * rin) >> LV_TRIGO_SHIFT) + extra_area;
 802              		.loc 1 102 81 discriminator 1 view .LVU282
 803 03aa A5EB0805 		sub	r5, r5, r8
 102:Drivers/lvgl/src/draw/lv_draw_arc.c ****             area->x2 = x + ((lv_trigo_sin(end_angle + 90) * rin) >> LV_TRIGO_SHIFT) + extra_area;
 804              		.loc 1 102 54 discriminator 1 view .LVU283
 805 03ae 0BFB00F0 		mul	r0, fp, r0
 102:Drivers/lvgl/src/draw/lv_draw_arc.c ****             area->x2 = x + ((lv_trigo_sin(end_angle + 90) * rin) >> LV_TRIGO_SHIFT) + extra_area;
 806              		.loc 1 102 81 discriminator 1 view .LVU284
 807 03b2 05EBE035 		add	r5, r5, r0, asr #15
 103:Drivers/lvgl/src/draw/lv_draw_arc.c ****         }
 808              		.loc 1 103 53 view .LVU285
 809 03b6 07F15A00 		add	r0, r7, #90
 102:Drivers/lvgl/src/draw/lv_draw_arc.c ****             area->x2 = x + ((lv_trigo_sin(end_angle + 90) * rin) >> LV_TRIGO_SHIFT) + extra_area;
 810              		.loc 1 102 22 discriminator 1 view .LVU286
 811 03ba A9F80250 		strh	r5, [r9, #2]	@ movhi
 103:Drivers/lvgl/src/draw/lv_draw_arc.c ****         }
 812              		.loc 1 103 13 is_stmt 1 view .LVU287
 103:Drivers/lvgl/src/draw/lv_draw_arc.c ****         }
 813              		.loc 1 103 30 is_stmt 0 view .LVU288
 814 03be 00B2     		sxth	r0, r0
 815 03c0 FFF7FEFF 		bl	lv_trigo_sin
 816              	.LVL68:
 103:Drivers/lvgl/src/draw/lv_draw_arc.c ****         }
 817              		.loc 1 103 85 discriminator 1 view .LVU289
 818 03c4 4444     		add	r4, r4, r8
 103:Drivers/lvgl/src/draw/lv_draw_arc.c ****         }
 819              		.loc 1 103 59 discriminator 1 view .LVU290
 820 03c6 0AFB00F0 		mul	r0, r10, r0
ARM GAS  /var/folders/lp/x54gwt890xv47sdkqj1k04q40000gn/T//ccuAnXe2.s 			page 22


 103:Drivers/lvgl/src/draw/lv_draw_arc.c ****         }
 821              		.loc 1 103 85 discriminator 1 view .LVU291
 822 03ca 04EBE034 		add	r4, r4, r0, asr #15
 103:Drivers/lvgl/src/draw/lv_draw_arc.c ****         }
 823              		.loc 1 103 22 discriminator 1 view .LVU292
 824 03ce A9F80440 		strh	r4, [r9, #4]	@ movhi
 825 03d2 6BE6     		b	.L10
 826              	.LVL69:
 827              	.L27:
  92:Drivers/lvgl/src/draw/lv_draw_arc.c ****             area->x2 = x + ((lv_trigo_sin(start_angle + 90) * rin) >> LV_TRIGO_SHIFT) + extra_area;
 828              		.loc 1 92 13 is_stmt 1 view .LVU293
  92:Drivers/lvgl/src/draw/lv_draw_arc.c ****             area->x2 = x + ((lv_trigo_sin(start_angle + 90) * rin) >> LV_TRIGO_SHIFT) + extra_area;
 829              		.loc 1 92 30 is_stmt 0 view .LVU294
 830 03d4 30B2     		sxth	r0, r6
 831 03d6 FFF7FEFF 		bl	lv_trigo_sin
 832              	.LVL70:
  92:Drivers/lvgl/src/draw/lv_draw_arc.c ****             area->x2 = x + ((lv_trigo_sin(start_angle + 90) * rin) >> LV_TRIGO_SHIFT) + extra_area;
 833              		.loc 1 92 83 discriminator 1 view .LVU295
 834 03da 1FFA88F8 		uxth	r8, r8
  92:Drivers/lvgl/src/draw/lv_draw_arc.c ****             area->x2 = x + ((lv_trigo_sin(start_angle + 90) * rin) >> LV_TRIGO_SHIFT) + extra_area;
 835              		.loc 1 92 26 discriminator 1 view .LVU296
 836 03de ADB2     		uxth	r5, r5
  92:Drivers/lvgl/src/draw/lv_draw_arc.c ****             area->x2 = x + ((lv_trigo_sin(start_angle + 90) * rin) >> LV_TRIGO_SHIFT) + extra_area;
 837              		.loc 1 92 56 discriminator 1 view .LVU297
 838 03e0 00FB0BF2 		mul	r2, r0, fp
  92:Drivers/lvgl/src/draw/lv_draw_arc.c ****             area->x2 = x + ((lv_trigo_sin(start_angle + 90) * rin) >> LV_TRIGO_SHIFT) + extra_area;
 839              		.loc 1 92 83 discriminator 1 view .LVU298
 840 03e4 05EB0803 		add	r3, r5, r8
 841 03e8 03EBE233 		add	r3, r3, r2, asr #15
  93:Drivers/lvgl/src/draw/lv_draw_arc.c **** 
 842              		.loc 1 93 55 view .LVU299
 843 03ec 06F15A00 		add	r0, r6, #90
  92:Drivers/lvgl/src/draw/lv_draw_arc.c ****             area->x2 = x + ((lv_trigo_sin(start_angle + 90) * rin) >> LV_TRIGO_SHIFT) + extra_area;
 844              		.loc 1 92 22 discriminator 1 view .LVU300
 845 03f0 A9F80630 		strh	r3, [r9, #6]	@ movhi
  93:Drivers/lvgl/src/draw/lv_draw_arc.c **** 
 846              		.loc 1 93 13 is_stmt 1 view .LVU301
  93:Drivers/lvgl/src/draw/lv_draw_arc.c **** 
 847              		.loc 1 93 30 is_stmt 0 view .LVU302
 848 03f4 00B2     		sxth	r0, r0
 849 03f6 FFF7FEFF 		bl	lv_trigo_sin
 850              	.LVL71:
  93:Drivers/lvgl/src/draw/lv_draw_arc.c **** 
 851              		.loc 1 93 26 discriminator 1 view .LVU303
 852 03fa A4B2     		uxth	r4, r4
  93:Drivers/lvgl/src/draw/lv_draw_arc.c **** 
 853              		.loc 1 93 61 discriminator 1 view .LVU304
 854 03fc 00FB0AF0 		mul	r0, r0, r10
  93:Drivers/lvgl/src/draw/lv_draw_arc.c **** 
 855              		.loc 1 93 87 discriminator 1 view .LVU305
 856 0400 08EB0403 		add	r3, r8, r4
 857 0404 03EBE033 		add	r3, r3, r0, asr #15
  93:Drivers/lvgl/src/draw/lv_draw_arc.c **** 
 858              		.loc 1 93 22 discriminator 1 view .LVU306
 859 0408 A9F80430 		strh	r3, [r9, #4]	@ movhi
  95:Drivers/lvgl/src/draw/lv_draw_arc.c ****             area->x1 = x + ((lv_trigo_sin(end_angle + 90) * rout) >> LV_TRIGO_SHIFT) - extra_area;
 860              		.loc 1 95 13 is_stmt 1 view .LVU307
ARM GAS  /var/folders/lp/x54gwt890xv47sdkqj1k04q40000gn/T//ccuAnXe2.s 			page 23


  95:Drivers/lvgl/src/draw/lv_draw_arc.c ****             area->x1 = x + ((lv_trigo_sin(end_angle + 90) * rout) >> LV_TRIGO_SHIFT) - extra_area;
 861              		.loc 1 95 30 is_stmt 0 view .LVU308
 862 040c 38B2     		sxth	r0, r7
 863 040e FFF7FEFF 		bl	lv_trigo_sin
 864              	.LVL72:
  95:Drivers/lvgl/src/draw/lv_draw_arc.c ****             area->x1 = x + ((lv_trigo_sin(end_angle + 90) * rout) >> LV_TRIGO_SHIFT) - extra_area;
 865              		.loc 1 95 80 discriminator 1 view .LVU309
 866 0412 A5EB0805 		sub	r5, r5, r8
  95:Drivers/lvgl/src/draw/lv_draw_arc.c ****             area->x1 = x + ((lv_trigo_sin(end_angle + 90) * rout) >> LV_TRIGO_SHIFT) - extra_area;
 867              		.loc 1 95 54 discriminator 1 view .LVU310
 868 0416 0AFB00F0 		mul	r0, r10, r0
  95:Drivers/lvgl/src/draw/lv_draw_arc.c ****             area->x1 = x + ((lv_trigo_sin(end_angle + 90) * rout) >> LV_TRIGO_SHIFT) - extra_area;
 869              		.loc 1 95 80 discriminator 1 view .LVU311
 870 041a 05EBE035 		add	r5, r5, r0, asr #15
  96:Drivers/lvgl/src/draw/lv_draw_arc.c ****         }
 871              		.loc 1 96 53 view .LVU312
 872 041e 07F15A00 		add	r0, r7, #90
  95:Drivers/lvgl/src/draw/lv_draw_arc.c ****             area->x1 = x + ((lv_trigo_sin(end_angle + 90) * rout) >> LV_TRIGO_SHIFT) - extra_area;
 873              		.loc 1 95 22 discriminator 1 view .LVU313
 874 0422 A9F80250 		strh	r5, [r9, #2]	@ movhi
  96:Drivers/lvgl/src/draw/lv_draw_arc.c ****         }
 875              		.loc 1 96 13 is_stmt 1 view .LVU314
  96:Drivers/lvgl/src/draw/lv_draw_arc.c ****         }
 876              		.loc 1 96 30 is_stmt 0 view .LVU315
 877 0426 00B2     		sxth	r0, r0
 878 0428 FFF7FEFF 		bl	lv_trigo_sin
 879              	.LVL73:
  96:Drivers/lvgl/src/draw/lv_draw_arc.c ****         }
 880              		.loc 1 96 86 discriminator 1 view .LVU316
 881 042c A4EB0804 		sub	r4, r4, r8
  96:Drivers/lvgl/src/draw/lv_draw_arc.c ****         }
 882              		.loc 1 96 59 discriminator 1 view .LVU317
 883 0430 0BFB00F0 		mul	r0, fp, r0
  96:Drivers/lvgl/src/draw/lv_draw_arc.c ****         }
 884              		.loc 1 96 86 discriminator 1 view .LVU318
 885 0434 04EBE034 		add	r4, r4, r0, asr #15
  96:Drivers/lvgl/src/draw/lv_draw_arc.c ****         }
 886              		.loc 1 96 22 discriminator 1 view .LVU319
 887 0438 A9F80040 		strh	r4, [r9]	@ movhi
 888 043c 36E6     		b	.L10
 889              	.LVL74:
 890              	.L28:
  85:Drivers/lvgl/src/draw/lv_draw_arc.c ****             area->x2 = x + ((lv_trigo_sin(start_angle + 90) * rout) >> LV_TRIGO_SHIFT) + extra_area
 891              		.loc 1 85 13 is_stmt 1 view .LVU320
  85:Drivers/lvgl/src/draw/lv_draw_arc.c ****             area->x2 = x + ((lv_trigo_sin(start_angle + 90) * rout) >> LV_TRIGO_SHIFT) + extra_area
 892              		.loc 1 85 30 is_stmt 0 view .LVU321
 893 043e 30B2     		sxth	r0, r6
 894 0440 FFF7FEFF 		bl	lv_trigo_sin
 895              	.LVL75:
  85:Drivers/lvgl/src/draw/lv_draw_arc.c ****             area->x2 = x + ((lv_trigo_sin(start_angle + 90) * rout) >> LV_TRIGO_SHIFT) + extra_area
 896              		.loc 1 85 82 discriminator 1 view .LVU322
 897 0444 1FFA88F8 		uxth	r8, r8
  85:Drivers/lvgl/src/draw/lv_draw_arc.c ****             area->x2 = x + ((lv_trigo_sin(start_angle + 90) * rout) >> LV_TRIGO_SHIFT) + extra_area
 898              		.loc 1 85 26 discriminator 1 view .LVU323
 899 0448 ADB2     		uxth	r5, r5
  85:Drivers/lvgl/src/draw/lv_draw_arc.c ****             area->x2 = x + ((lv_trigo_sin(start_angle + 90) * rout) >> LV_TRIGO_SHIFT) + extra_area
 900              		.loc 1 85 56 discriminator 1 view .LVU324
ARM GAS  /var/folders/lp/x54gwt890xv47sdkqj1k04q40000gn/T//ccuAnXe2.s 			page 24


 901 044a 00FB0AF2 		mul	r2, r0, r10
  85:Drivers/lvgl/src/draw/lv_draw_arc.c ****             area->x2 = x + ((lv_trigo_sin(start_angle + 90) * rout) >> LV_TRIGO_SHIFT) + extra_area
 902              		.loc 1 85 82 discriminator 1 view .LVU325
 903 044e A5EB0803 		sub	r3, r5, r8
 904 0452 03EBE233 		add	r3, r3, r2, asr #15
  86:Drivers/lvgl/src/draw/lv_draw_arc.c **** 
 905              		.loc 1 86 55 view .LVU326
 906 0456 06F15A00 		add	r0, r6, #90
  85:Drivers/lvgl/src/draw/lv_draw_arc.c ****             area->x2 = x + ((lv_trigo_sin(start_angle + 90) * rout) >> LV_TRIGO_SHIFT) + extra_area
 907              		.loc 1 85 22 discriminator 1 view .LVU327
 908 045a A9F80230 		strh	r3, [r9, #2]	@ movhi
  86:Drivers/lvgl/src/draw/lv_draw_arc.c **** 
 909              		.loc 1 86 13 is_stmt 1 view .LVU328
  86:Drivers/lvgl/src/draw/lv_draw_arc.c **** 
 910              		.loc 1 86 30 is_stmt 0 view .LVU329
 911 045e 00B2     		sxth	r0, r0
 912 0460 FFF7FEFF 		bl	lv_trigo_sin
 913              	.LVL76:
  86:Drivers/lvgl/src/draw/lv_draw_arc.c **** 
 914              		.loc 1 86 26 discriminator 1 view .LVU330
 915 0464 A4B2     		uxth	r4, r4
  86:Drivers/lvgl/src/draw/lv_draw_arc.c **** 
 916              		.loc 1 86 61 discriminator 1 view .LVU331
 917 0466 00FB0BF0 		mul	r0, r0, fp
  86:Drivers/lvgl/src/draw/lv_draw_arc.c **** 
 918              		.loc 1 86 88 discriminator 1 view .LVU332
 919 046a 08EB0403 		add	r3, r8, r4
 920 046e 03EBE033 		add	r3, r3, r0, asr #15
  86:Drivers/lvgl/src/draw/lv_draw_arc.c **** 
 921              		.loc 1 86 22 discriminator 1 view .LVU333
 922 0472 A9F80430 		strh	r3, [r9, #4]	@ movhi
  88:Drivers/lvgl/src/draw/lv_draw_arc.c ****             area->x1 = x + ((lv_trigo_sin(end_angle + 90) * rin) >> LV_TRIGO_SHIFT) - extra_area;
 923              		.loc 1 88 13 is_stmt 1 view .LVU334
  88:Drivers/lvgl/src/draw/lv_draw_arc.c ****             area->x1 = x + ((lv_trigo_sin(end_angle + 90) * rin) >> LV_TRIGO_SHIFT) - extra_area;
 924              		.loc 1 88 30 is_stmt 0 view .LVU335
 925 0476 38B2     		sxth	r0, r7
 926 0478 FFF7FEFF 		bl	lv_trigo_sin
 927              	.LVL77:
  88:Drivers/lvgl/src/draw/lv_draw_arc.c ****             area->x1 = x + ((lv_trigo_sin(end_angle + 90) * rin) >> LV_TRIGO_SHIFT) - extra_area;
 928              		.loc 1 88 81 discriminator 1 view .LVU336
 929 047c 4544     		add	r5, r5, r8
  88:Drivers/lvgl/src/draw/lv_draw_arc.c ****             area->x1 = x + ((lv_trigo_sin(end_angle + 90) * rin) >> LV_TRIGO_SHIFT) - extra_area;
 930              		.loc 1 88 54 discriminator 1 view .LVU337
 931 047e 0BFB00F0 		mul	r0, fp, r0
  88:Drivers/lvgl/src/draw/lv_draw_arc.c ****             area->x1 = x + ((lv_trigo_sin(end_angle + 90) * rin) >> LV_TRIGO_SHIFT) - extra_area;
 932              		.loc 1 88 81 discriminator 1 view .LVU338
 933 0482 05EBE035 		add	r5, r5, r0, asr #15
  89:Drivers/lvgl/src/draw/lv_draw_arc.c ****         }
 934              		.loc 1 89 53 view .LVU339
 935 0486 07F15A00 		add	r0, r7, #90
  88:Drivers/lvgl/src/draw/lv_draw_arc.c ****             area->x1 = x + ((lv_trigo_sin(end_angle + 90) * rin) >> LV_TRIGO_SHIFT) - extra_area;
 936              		.loc 1 88 22 discriminator 1 view .LVU340
 937 048a A9F80650 		strh	r5, [r9, #6]	@ movhi
  89:Drivers/lvgl/src/draw/lv_draw_arc.c ****         }
 938              		.loc 1 89 13 is_stmt 1 view .LVU341
  89:Drivers/lvgl/src/draw/lv_draw_arc.c ****         }
 939              		.loc 1 89 30 is_stmt 0 view .LVU342
ARM GAS  /var/folders/lp/x54gwt890xv47sdkqj1k04q40000gn/T//ccuAnXe2.s 			page 25


 940 048e 00B2     		sxth	r0, r0
 941 0490 FFF7FEFF 		bl	lv_trigo_sin
 942              	.LVL78:
  89:Drivers/lvgl/src/draw/lv_draw_arc.c ****         }
 943              		.loc 1 89 85 discriminator 1 view .LVU343
 944 0494 A4EB0804 		sub	r4, r4, r8
  89:Drivers/lvgl/src/draw/lv_draw_arc.c ****         }
 945              		.loc 1 89 59 discriminator 1 view .LVU344
 946 0498 0AFB00F0 		mul	r0, r10, r0
  89:Drivers/lvgl/src/draw/lv_draw_arc.c ****         }
 947              		.loc 1 89 85 discriminator 1 view .LVU345
 948 049c 04EBE034 		add	r4, r4, r0, asr #15
  89:Drivers/lvgl/src/draw/lv_draw_arc.c ****         }
 949              		.loc 1 89 22 discriminator 1 view .LVU346
 950 04a0 A9F80040 		strh	r4, [r9]	@ movhi
 951 04a4 02E6     		b	.L10
 952              	.LVL79:
 953              	.L32:
 127:Drivers/lvgl/src/draw/lv_draw_arc.c ****         area->x1 = x + ((lv_trigo_sin(start_angle + 90) * rout) >> LV_TRIGO_SHIFT) - extra_area;
 954              		.loc 1 127 10 is_stmt 1 view .LVU347
 127:Drivers/lvgl/src/draw/lv_draw_arc.c ****         area->x1 = x + ((lv_trigo_sin(start_angle + 90) * rout) >> LV_TRIGO_SHIFT) - extra_area;
 955              		.loc 1 127 12 is_stmt 0 view .LVU348
 956 04a6 022B     		cmp	r3, #2
 957 04a8 04D1     		bne	.L35
 127:Drivers/lvgl/src/draw/lv_draw_arc.c ****         area->x1 = x + ((lv_trigo_sin(start_angle + 90) * rout) >> LV_TRIGO_SHIFT) - extra_area;
 958              		.loc 1 127 32 discriminator 1 view .LVU349
 959 04aa BCF1030F 		cmp	ip, #3
 960 04ae 7FF4EBAD 		bne	.L19
 961 04b2 0AE7     		b	.L22
 962              	.L35:
 134:Drivers/lvgl/src/draw/lv_draw_arc.c ****         area->x1 = x + ((LV_MIN(lv_trigo_sin(end_angle + 90),
 963              		.loc 1 134 10 is_stmt 1 view .LVU350
 134:Drivers/lvgl/src/draw/lv_draw_arc.c ****         area->x1 = x + ((LV_MIN(lv_trigo_sin(end_angle + 90),
 964              		.loc 1 134 12 is_stmt 0 view .LVU351
 965 04b4 032B     		cmp	r3, #3
 966 04b6 7FF4E7AD 		bne	.L19
 967 04ba 0DE6     		b	.L23
 968              		.cfi_endproc
 969              	.LFE57:
 971              		.text
 972              	.Letext0:
 973              		.file 2 "/Users/jr/Library/Application Support/Code/User/globalStorage/bmd.stm32-for-vscode/@xpack
 974              		.file 3 "/Users/jr/Library/Application Support/Code/User/globalStorage/bmd.stm32-for-vscode/@xpack
 975              		.file 4 "/Users/jr/Library/Application Support/Code/User/globalStorage/bmd.stm32-for-vscode/@xpack
 976              		.file 5 "Drivers/lvgl/src/draw/../misc/../font/../misc/lv_area.h"
 977              		.file 6 "Drivers/lvgl/src/draw/../misc/../font/lv_font.h"
 978              		.file 7 "Drivers/lvgl/src/draw/../misc/lv_types.h"
 979              		.file 8 "Drivers/lvgl/src/draw/../misc/lv_color.h"
 980              		.file 9 "Drivers/lvgl/src/draw/../misc/lv_txt.h"
 981              		.file 10 "Drivers/lvgl/src/draw/../misc/lv_bidi.h"
 982              		.file 11 "Drivers/lvgl/src/draw/../misc/lv_style.h"
 983              		.file 12 "Drivers/lvgl/src/draw/lv_img_buf.h"
 984              		.file 13 "Drivers/lvgl/src/draw/lv_draw_rect.h"
 985              		.file 14 "Drivers/lvgl/src/draw/lv_draw_label.h"
 986              		.file 15 "Drivers/lvgl/src/draw/lv_draw_img.h"
 987              		.file 16 "Drivers/lvgl/src/draw/lv_draw_line.h"
 988              		.file 17 "Drivers/lvgl/src/draw/lv_draw_arc.h"
ARM GAS  /var/folders/lp/x54gwt890xv47sdkqj1k04q40000gn/T//ccuAnXe2.s 			page 26


 989              		.file 18 "Drivers/lvgl/src/draw/lv_draw_layer.h"
 990              		.file 19 "Drivers/lvgl/src/draw/lv_draw.h"
 991              		.file 20 "Drivers/lvgl/src/draw/../misc/lv_math.h"
 992              		.file 21 "Drivers/lvgl/src/draw/../misc/lv_mem.h"
ARM GAS  /var/folders/lp/x54gwt890xv47sdkqj1k04q40000gn/T//ccuAnXe2.s 			page 27

