ARM GAS  /var/folders/0z/tsy30v1j4xl4_7kw94k978ww0000gn/T//ccll9Ln5.s 			page 1


   1              		.cpu cortex-m4
   2              		.arch armv7e-m
   3              		.fpu fpv4-sp-d16
   4              		.eabi_attribute 27, 1
   5              		.eabi_attribute 28, 1
   6              		.eabi_attribute 20, 1
   7              		.eabi_attribute 21, 1
   8              		.eabi_attribute 23, 3
   9              		.eabi_attribute 24, 1
  10              		.eabi_attribute 25, 1
  11              		.eabi_attribute 26, 1
  12              		.eabi_attribute 30, 2
  13              		.eabi_attribute 34, 1
  14              		.eabi_attribute 18, 4
  15              		.file	"lv_draw_sw_blend.c"
  16              		.text
  17              	.Ltext0:
  18              		.cfi_sections	.debug_frame
  19              		.section	.text.color_blend_true_color_subtractive,"ax",%progbits
  20              		.align	1
  21              		.p2align 2,,3
  22              		.syntax unified
  23              		.thumb
  24              		.thumb_func
  26              	color_blend_true_color_subtractive:
  27              	.LVL0:
  28              	.LFB170:
  29              		.file 1 "Drivers/lvgl/src/draw/sw/lv_draw_sw_blend.c"
   1:Drivers/lvgl/src/draw/sw/lv_draw_sw_blend.c **** /**
   2:Drivers/lvgl/src/draw/sw/lv_draw_sw_blend.c ****  * @file lv_draw_sw_blend.c
   3:Drivers/lvgl/src/draw/sw/lv_draw_sw_blend.c ****  *
   4:Drivers/lvgl/src/draw/sw/lv_draw_sw_blend.c ****  */
   5:Drivers/lvgl/src/draw/sw/lv_draw_sw_blend.c **** 
   6:Drivers/lvgl/src/draw/sw/lv_draw_sw_blend.c **** /*********************
   7:Drivers/lvgl/src/draw/sw/lv_draw_sw_blend.c ****  *      INCLUDES
   8:Drivers/lvgl/src/draw/sw/lv_draw_sw_blend.c ****  *********************/
   9:Drivers/lvgl/src/draw/sw/lv_draw_sw_blend.c **** #include "lv_draw_sw.h"
  10:Drivers/lvgl/src/draw/sw/lv_draw_sw_blend.c **** #include "../../misc/lv_math.h"
  11:Drivers/lvgl/src/draw/sw/lv_draw_sw_blend.c **** #include "../../hal/lv_hal_disp.h"
  12:Drivers/lvgl/src/draw/sw/lv_draw_sw_blend.c **** #include "../../core/lv_refr.h"
  13:Drivers/lvgl/src/draw/sw/lv_draw_sw_blend.c **** 
  14:Drivers/lvgl/src/draw/sw/lv_draw_sw_blend.c **** /*********************
  15:Drivers/lvgl/src/draw/sw/lv_draw_sw_blend.c ****  *      DEFINES
  16:Drivers/lvgl/src/draw/sw/lv_draw_sw_blend.c ****  *********************/
  17:Drivers/lvgl/src/draw/sw/lv_draw_sw_blend.c **** 
  18:Drivers/lvgl/src/draw/sw/lv_draw_sw_blend.c **** /**********************
  19:Drivers/lvgl/src/draw/sw/lv_draw_sw_blend.c ****  *      TYPEDEFS
  20:Drivers/lvgl/src/draw/sw/lv_draw_sw_blend.c ****  **********************/
  21:Drivers/lvgl/src/draw/sw/lv_draw_sw_blend.c **** 
  22:Drivers/lvgl/src/draw/sw/lv_draw_sw_blend.c **** /**********************
  23:Drivers/lvgl/src/draw/sw/lv_draw_sw_blend.c ****  *  STATIC PROTOTYPES
  24:Drivers/lvgl/src/draw/sw/lv_draw_sw_blend.c ****  **********************/
  25:Drivers/lvgl/src/draw/sw/lv_draw_sw_blend.c **** 
  26:Drivers/lvgl/src/draw/sw/lv_draw_sw_blend.c **** static void fill_set_px(lv_color_t * dest_buf, const lv_area_t * blend_area, lv_coord_t dest_stride
  27:Drivers/lvgl/src/draw/sw/lv_draw_sw_blend.c ****                         lv_color_t color, lv_opa_t opa, const lv_opa_t * mask, lv_coord_t mask_stid
  28:Drivers/lvgl/src/draw/sw/lv_draw_sw_blend.c **** 
  29:Drivers/lvgl/src/draw/sw/lv_draw_sw_blend.c **** static void /* LV_ATTRIBUTE_FAST_MEM */ fill_normal(lv_color_t * dest_buf, const lv_area_t * dest_a
ARM GAS  /var/folders/0z/tsy30v1j4xl4_7kw94k978ww0000gn/T//ccll9Ln5.s 			page 2


  30:Drivers/lvgl/src/draw/sw/lv_draw_sw_blend.c ****                                                     lv_coord_t dest_stride, lv_color_t color, lv_op
  31:Drivers/lvgl/src/draw/sw/lv_draw_sw_blend.c ****                                                     const lv_opa_t * mask, lv_coord_t mask_stride);
  32:Drivers/lvgl/src/draw/sw/lv_draw_sw_blend.c **** 
  33:Drivers/lvgl/src/draw/sw/lv_draw_sw_blend.c **** 
  34:Drivers/lvgl/src/draw/sw/lv_draw_sw_blend.c **** #if LV_COLOR_SCREEN_TRANSP
  35:Drivers/lvgl/src/draw/sw/lv_draw_sw_blend.c **** static void /* LV_ATTRIBUTE_FAST_MEM */ fill_argb(lv_color_t * dest_buf, const lv_area_t * dest_are
  36:Drivers/lvgl/src/draw/sw/lv_draw_sw_blend.c ****                                                   lv_coord_t dest_stride, lv_color_t color, lv_opa_
  37:Drivers/lvgl/src/draw/sw/lv_draw_sw_blend.c ****                                                   const lv_opa_t * mask, lv_coord_t mask_stride);
  38:Drivers/lvgl/src/draw/sw/lv_draw_sw_blend.c **** #endif /*LV_COLOR_SCREEN_TRANSP*/
  39:Drivers/lvgl/src/draw/sw/lv_draw_sw_blend.c **** 
  40:Drivers/lvgl/src/draw/sw/lv_draw_sw_blend.c **** #if LV_DRAW_COMPLEX
  41:Drivers/lvgl/src/draw/sw/lv_draw_sw_blend.c **** static void fill_blended(lv_color_t * dest_buf, const lv_area_t * dest_area, lv_coord_t dest_stride
  42:Drivers/lvgl/src/draw/sw/lv_draw_sw_blend.c ****                          lv_opa_t opa, const lv_opa_t * mask, lv_coord_t mask_stride, lv_blend_mode
  43:Drivers/lvgl/src/draw/sw/lv_draw_sw_blend.c **** #endif  /*LV_DRAW_COMPLEX*/
  44:Drivers/lvgl/src/draw/sw/lv_draw_sw_blend.c **** 
  45:Drivers/lvgl/src/draw/sw/lv_draw_sw_blend.c **** static void map_set_px(lv_color_t * dest_buf, const lv_area_t * dest_area, lv_coord_t dest_stride,
  46:Drivers/lvgl/src/draw/sw/lv_draw_sw_blend.c ****                        const lv_color_t * src_buf, lv_coord_t src_stride, lv_opa_t opa,
  47:Drivers/lvgl/src/draw/sw/lv_draw_sw_blend.c ****                        const lv_opa_t * mask, lv_coord_t mask_stride);
  48:Drivers/lvgl/src/draw/sw/lv_draw_sw_blend.c **** 
  49:Drivers/lvgl/src/draw/sw/lv_draw_sw_blend.c **** static void /* LV_ATTRIBUTE_FAST_MEM */ map_normal(lv_color_t * dest_buf, const lv_area_t * dest_ar
  50:Drivers/lvgl/src/draw/sw/lv_draw_sw_blend.c ****                                                    lv_coord_t dest_stride, const lv_color_t * src_b
  51:Drivers/lvgl/src/draw/sw/lv_draw_sw_blend.c ****                                                    lv_coord_t src_stride, lv_opa_t opa, const lv_op
  52:Drivers/lvgl/src/draw/sw/lv_draw_sw_blend.c ****                                                    lv_coord_t mask_stride);
  53:Drivers/lvgl/src/draw/sw/lv_draw_sw_blend.c **** 
  54:Drivers/lvgl/src/draw/sw/lv_draw_sw_blend.c **** #if LV_COLOR_SCREEN_TRANSP
  55:Drivers/lvgl/src/draw/sw/lv_draw_sw_blend.c **** static void /* LV_ATTRIBUTE_FAST_MEM */ map_argb(lv_color_t * dest_buf, const lv_area_t * dest_area
  56:Drivers/lvgl/src/draw/sw/lv_draw_sw_blend.c ****                                                  lv_coord_t dest_stride, const lv_color_t * src_buf
  57:Drivers/lvgl/src/draw/sw/lv_draw_sw_blend.c ****                                                  lv_coord_t src_stride, lv_opa_t opa, const lv_opa_
  58:Drivers/lvgl/src/draw/sw/lv_draw_sw_blend.c ****                                                  lv_coord_t mask_stride, lv_blend_mode_t blend_mode
  59:Drivers/lvgl/src/draw/sw/lv_draw_sw_blend.c **** 
  60:Drivers/lvgl/src/draw/sw/lv_draw_sw_blend.c **** #endif /*LV_COLOR_SCREEN_TRANSP*/
  61:Drivers/lvgl/src/draw/sw/lv_draw_sw_blend.c **** 
  62:Drivers/lvgl/src/draw/sw/lv_draw_sw_blend.c **** #if LV_DRAW_COMPLEX
  63:Drivers/lvgl/src/draw/sw/lv_draw_sw_blend.c **** static void map_blended(lv_color_t * dest_buf, const lv_area_t * dest_area, lv_coord_t dest_stride,
  64:Drivers/lvgl/src/draw/sw/lv_draw_sw_blend.c ****                         const lv_color_t * src_buf, lv_coord_t src_stride, lv_opa_t opa,
  65:Drivers/lvgl/src/draw/sw/lv_draw_sw_blend.c ****                         const lv_opa_t * mask, lv_coord_t mask_stride, lv_blend_mode_t blend_mode);
  66:Drivers/lvgl/src/draw/sw/lv_draw_sw_blend.c **** 
  67:Drivers/lvgl/src/draw/sw/lv_draw_sw_blend.c **** static inline lv_color_t color_blend_true_color_additive(lv_color_t fg, lv_color_t bg, lv_opa_t opa
  68:Drivers/lvgl/src/draw/sw/lv_draw_sw_blend.c **** static inline lv_color_t color_blend_true_color_subtractive(lv_color_t fg, lv_color_t bg, lv_opa_t 
  69:Drivers/lvgl/src/draw/sw/lv_draw_sw_blend.c **** static inline lv_color_t color_blend_true_color_multiply(lv_color_t fg, lv_color_t bg, lv_opa_t opa
  70:Drivers/lvgl/src/draw/sw/lv_draw_sw_blend.c **** #endif /*LV_DRAW_COMPLEX*/
  71:Drivers/lvgl/src/draw/sw/lv_draw_sw_blend.c **** 
  72:Drivers/lvgl/src/draw/sw/lv_draw_sw_blend.c **** /**********************
  73:Drivers/lvgl/src/draw/sw/lv_draw_sw_blend.c ****  *  STATIC VARIABLES
  74:Drivers/lvgl/src/draw/sw/lv_draw_sw_blend.c ****  **********************/
  75:Drivers/lvgl/src/draw/sw/lv_draw_sw_blend.c **** 
  76:Drivers/lvgl/src/draw/sw/lv_draw_sw_blend.c **** /**********************
  77:Drivers/lvgl/src/draw/sw/lv_draw_sw_blend.c ****  *      MACROS
  78:Drivers/lvgl/src/draw/sw/lv_draw_sw_blend.c ****  **********************/
  79:Drivers/lvgl/src/draw/sw/lv_draw_sw_blend.c **** #define FILL_NORMAL_MASK_PX(color)                                                          \
  80:Drivers/lvgl/src/draw/sw/lv_draw_sw_blend.c ****     if(*mask == LV_OPA_COVER) *dest_buf = color;                                 \
  81:Drivers/lvgl/src/draw/sw/lv_draw_sw_blend.c ****     else *dest_buf = lv_color_mix(color, *dest_buf, *mask);            \
  82:Drivers/lvgl/src/draw/sw/lv_draw_sw_blend.c ****     mask++;                                                         \
  83:Drivers/lvgl/src/draw/sw/lv_draw_sw_blend.c ****     dest_buf++;
  84:Drivers/lvgl/src/draw/sw/lv_draw_sw_blend.c **** 
  85:Drivers/lvgl/src/draw/sw/lv_draw_sw_blend.c **** #define MAP_NORMAL_MASK_PX(x)                                                          \
  86:Drivers/lvgl/src/draw/sw/lv_draw_sw_blend.c ****     if(*mask_tmp_x) {          \
ARM GAS  /var/folders/0z/tsy30v1j4xl4_7kw94k978ww0000gn/T//ccll9Ln5.s 			page 3


  87:Drivers/lvgl/src/draw/sw/lv_draw_sw_blend.c ****         if(*mask_tmp_x == LV_OPA_COVER) dest_buf[x] = src_buf[x];                                 \
  88:Drivers/lvgl/src/draw/sw/lv_draw_sw_blend.c ****         else dest_buf[x] = lv_color_mix(src_buf[x], dest_buf[x], *mask_tmp_x);            \
  89:Drivers/lvgl/src/draw/sw/lv_draw_sw_blend.c ****     }                                                                                              
  90:Drivers/lvgl/src/draw/sw/lv_draw_sw_blend.c ****     mask_tmp_x++;
  91:Drivers/lvgl/src/draw/sw/lv_draw_sw_blend.c **** 
  92:Drivers/lvgl/src/draw/sw/lv_draw_sw_blend.c **** 
  93:Drivers/lvgl/src/draw/sw/lv_draw_sw_blend.c **** /**********************
  94:Drivers/lvgl/src/draw/sw/lv_draw_sw_blend.c ****  *   GLOBAL FUNCTIONS
  95:Drivers/lvgl/src/draw/sw/lv_draw_sw_blend.c ****  **********************/
  96:Drivers/lvgl/src/draw/sw/lv_draw_sw_blend.c **** 
  97:Drivers/lvgl/src/draw/sw/lv_draw_sw_blend.c **** void lv_draw_sw_blend(lv_draw_ctx_t * draw_ctx, const lv_draw_sw_blend_dsc_t * dsc)
  98:Drivers/lvgl/src/draw/sw/lv_draw_sw_blend.c **** {
  99:Drivers/lvgl/src/draw/sw/lv_draw_sw_blend.c ****     /*Do not draw transparent things*/
 100:Drivers/lvgl/src/draw/sw/lv_draw_sw_blend.c ****     if(dsc->opa <= LV_OPA_MIN) return;
 101:Drivers/lvgl/src/draw/sw/lv_draw_sw_blend.c **** 
 102:Drivers/lvgl/src/draw/sw/lv_draw_sw_blend.c ****     lv_area_t blend_area;
 103:Drivers/lvgl/src/draw/sw/lv_draw_sw_blend.c ****     if(!_lv_area_intersect(&blend_area, dsc->blend_area, draw_ctx->clip_area)) return;
 104:Drivers/lvgl/src/draw/sw/lv_draw_sw_blend.c **** 
 105:Drivers/lvgl/src/draw/sw/lv_draw_sw_blend.c ****     if(draw_ctx->wait_for_finish) draw_ctx->wait_for_finish(draw_ctx);
 106:Drivers/lvgl/src/draw/sw/lv_draw_sw_blend.c **** 
 107:Drivers/lvgl/src/draw/sw/lv_draw_sw_blend.c ****     ((lv_draw_sw_ctx_t *)draw_ctx)->blend(draw_ctx, dsc);
 108:Drivers/lvgl/src/draw/sw/lv_draw_sw_blend.c **** }
 109:Drivers/lvgl/src/draw/sw/lv_draw_sw_blend.c **** 
 110:Drivers/lvgl/src/draw/sw/lv_draw_sw_blend.c **** void LV_ATTRIBUTE_FAST_MEM lv_draw_sw_blend_basic(lv_draw_ctx_t * draw_ctx,
 111:Drivers/lvgl/src/draw/sw/lv_draw_sw_blend.c ****                                                   const lv_draw_sw_blend_dsc_t * dsc)
 112:Drivers/lvgl/src/draw/sw/lv_draw_sw_blend.c **** {
 113:Drivers/lvgl/src/draw/sw/lv_draw_sw_blend.c ****     lv_opa_t * mask;
 114:Drivers/lvgl/src/draw/sw/lv_draw_sw_blend.c ****     if(dsc->mask_buf == NULL) mask = NULL;
 115:Drivers/lvgl/src/draw/sw/lv_draw_sw_blend.c ****     if(dsc->mask_buf && dsc->mask_res == LV_DRAW_MASK_RES_TRANSP) return;
 116:Drivers/lvgl/src/draw/sw/lv_draw_sw_blend.c ****     else if(dsc->mask_res == LV_DRAW_MASK_RES_FULL_COVER) mask = NULL;
 117:Drivers/lvgl/src/draw/sw/lv_draw_sw_blend.c ****     else mask = dsc->mask_buf;
 118:Drivers/lvgl/src/draw/sw/lv_draw_sw_blend.c **** 
 119:Drivers/lvgl/src/draw/sw/lv_draw_sw_blend.c ****     lv_coord_t dest_stride = lv_area_get_width(draw_ctx->buf_area);
 120:Drivers/lvgl/src/draw/sw/lv_draw_sw_blend.c **** 
 121:Drivers/lvgl/src/draw/sw/lv_draw_sw_blend.c ****     lv_area_t blend_area;
 122:Drivers/lvgl/src/draw/sw/lv_draw_sw_blend.c ****     if(!_lv_area_intersect(&blend_area, dsc->blend_area, draw_ctx->clip_area)) return;
 123:Drivers/lvgl/src/draw/sw/lv_draw_sw_blend.c **** 
 124:Drivers/lvgl/src/draw/sw/lv_draw_sw_blend.c ****     lv_disp_t * disp = _lv_refr_get_disp_refreshing();
 125:Drivers/lvgl/src/draw/sw/lv_draw_sw_blend.c ****     lv_color_t * dest_buf = draw_ctx->buf;
 126:Drivers/lvgl/src/draw/sw/lv_draw_sw_blend.c ****     if(disp->driver->set_px_cb == NULL) {
 127:Drivers/lvgl/src/draw/sw/lv_draw_sw_blend.c ****         if(disp->driver->screen_transp == 0) {
 128:Drivers/lvgl/src/draw/sw/lv_draw_sw_blend.c ****             dest_buf += dest_stride * (blend_area.y1 - draw_ctx->buf_area->y1) + (blend_area.x1 - d
 129:Drivers/lvgl/src/draw/sw/lv_draw_sw_blend.c ****         }
 130:Drivers/lvgl/src/draw/sw/lv_draw_sw_blend.c ****         else {
 131:Drivers/lvgl/src/draw/sw/lv_draw_sw_blend.c ****             /*With LV_COLOR_DEPTH 16 it means ARGB8565 (3 bytes format)*/
 132:Drivers/lvgl/src/draw/sw/lv_draw_sw_blend.c ****             uint8_t * dest_buf8 = (uint8_t *) dest_buf;
 133:Drivers/lvgl/src/draw/sw/lv_draw_sw_blend.c ****             dest_buf8 += dest_stride * (blend_area.y1 - draw_ctx->buf_area->y1) * LV_IMG_PX_SIZE_AL
 134:Drivers/lvgl/src/draw/sw/lv_draw_sw_blend.c ****             dest_buf8 += (blend_area.x1 - draw_ctx->buf_area->x1) * LV_IMG_PX_SIZE_ALPHA_BYTE;
 135:Drivers/lvgl/src/draw/sw/lv_draw_sw_blend.c ****             dest_buf = (lv_color_t *)dest_buf8;
 136:Drivers/lvgl/src/draw/sw/lv_draw_sw_blend.c ****         }
 137:Drivers/lvgl/src/draw/sw/lv_draw_sw_blend.c ****     }
 138:Drivers/lvgl/src/draw/sw/lv_draw_sw_blend.c **** 
 139:Drivers/lvgl/src/draw/sw/lv_draw_sw_blend.c ****     const lv_color_t * src_buf = dsc->src_buf;
 140:Drivers/lvgl/src/draw/sw/lv_draw_sw_blend.c ****     lv_coord_t src_stride;
 141:Drivers/lvgl/src/draw/sw/lv_draw_sw_blend.c ****     if(src_buf) {
 142:Drivers/lvgl/src/draw/sw/lv_draw_sw_blend.c ****         src_stride = lv_area_get_width(dsc->blend_area);
 143:Drivers/lvgl/src/draw/sw/lv_draw_sw_blend.c ****         src_buf += src_stride * (blend_area.y1 - dsc->blend_area->y1) + (blend_area.x1 - dsc->blend
ARM GAS  /var/folders/0z/tsy30v1j4xl4_7kw94k978ww0000gn/T//ccll9Ln5.s 			page 4


 144:Drivers/lvgl/src/draw/sw/lv_draw_sw_blend.c ****     }
 145:Drivers/lvgl/src/draw/sw/lv_draw_sw_blend.c ****     else {
 146:Drivers/lvgl/src/draw/sw/lv_draw_sw_blend.c ****         src_stride = 0;
 147:Drivers/lvgl/src/draw/sw/lv_draw_sw_blend.c ****     }
 148:Drivers/lvgl/src/draw/sw/lv_draw_sw_blend.c **** 
 149:Drivers/lvgl/src/draw/sw/lv_draw_sw_blend.c ****     lv_coord_t mask_stride;
 150:Drivers/lvgl/src/draw/sw/lv_draw_sw_blend.c ****     if(mask) {
 151:Drivers/lvgl/src/draw/sw/lv_draw_sw_blend.c ****         /*Round the values in the mask if anti-aliasing is disabled*/
 152:Drivers/lvgl/src/draw/sw/lv_draw_sw_blend.c ****         if(disp->driver->antialiasing == 0) {
 153:Drivers/lvgl/src/draw/sw/lv_draw_sw_blend.c ****             int32_t mask_size = lv_area_get_size(dsc->mask_area);
 154:Drivers/lvgl/src/draw/sw/lv_draw_sw_blend.c ****             int32_t i;
 155:Drivers/lvgl/src/draw/sw/lv_draw_sw_blend.c ****             for(i = 0; i < mask_size; i++) {
 156:Drivers/lvgl/src/draw/sw/lv_draw_sw_blend.c ****                 mask[i] = mask[i] > 128 ? LV_OPA_COVER : LV_OPA_TRANSP;
 157:Drivers/lvgl/src/draw/sw/lv_draw_sw_blend.c ****             }
 158:Drivers/lvgl/src/draw/sw/lv_draw_sw_blend.c ****         }
 159:Drivers/lvgl/src/draw/sw/lv_draw_sw_blend.c **** 
 160:Drivers/lvgl/src/draw/sw/lv_draw_sw_blend.c ****         mask_stride = lv_area_get_width(dsc->mask_area);
 161:Drivers/lvgl/src/draw/sw/lv_draw_sw_blend.c ****         mask += mask_stride * (blend_area.y1 - dsc->mask_area->y1) + (blend_area.x1 - dsc->mask_are
 162:Drivers/lvgl/src/draw/sw/lv_draw_sw_blend.c **** 
 163:Drivers/lvgl/src/draw/sw/lv_draw_sw_blend.c ****     }
 164:Drivers/lvgl/src/draw/sw/lv_draw_sw_blend.c ****     else {
 165:Drivers/lvgl/src/draw/sw/lv_draw_sw_blend.c ****         mask_stride = 0;
 166:Drivers/lvgl/src/draw/sw/lv_draw_sw_blend.c ****     }
 167:Drivers/lvgl/src/draw/sw/lv_draw_sw_blend.c **** 
 168:Drivers/lvgl/src/draw/sw/lv_draw_sw_blend.c ****     lv_area_move(&blend_area, -draw_ctx->buf_area->x1, -draw_ctx->buf_area->y1);
 169:Drivers/lvgl/src/draw/sw/lv_draw_sw_blend.c **** 
 170:Drivers/lvgl/src/draw/sw/lv_draw_sw_blend.c **** 
 171:Drivers/lvgl/src/draw/sw/lv_draw_sw_blend.c ****     if(disp->driver->set_px_cb) {
 172:Drivers/lvgl/src/draw/sw/lv_draw_sw_blend.c ****         if(dsc->src_buf == NULL) {
 173:Drivers/lvgl/src/draw/sw/lv_draw_sw_blend.c ****             fill_set_px(dest_buf, &blend_area, dest_stride, dsc->color, dsc->opa, mask, mask_stride
 174:Drivers/lvgl/src/draw/sw/lv_draw_sw_blend.c ****         }
 175:Drivers/lvgl/src/draw/sw/lv_draw_sw_blend.c ****         else {
 176:Drivers/lvgl/src/draw/sw/lv_draw_sw_blend.c ****             map_set_px(dest_buf, &blend_area, dest_stride, src_buf, src_stride, dsc->opa, mask, mas
 177:Drivers/lvgl/src/draw/sw/lv_draw_sw_blend.c ****         }
 178:Drivers/lvgl/src/draw/sw/lv_draw_sw_blend.c ****     }
 179:Drivers/lvgl/src/draw/sw/lv_draw_sw_blend.c **** #if LV_COLOR_SCREEN_TRANSP
 180:Drivers/lvgl/src/draw/sw/lv_draw_sw_blend.c ****     else if(disp->driver->screen_transp) {
 181:Drivers/lvgl/src/draw/sw/lv_draw_sw_blend.c ****         if(dsc->src_buf == NULL) {
 182:Drivers/lvgl/src/draw/sw/lv_draw_sw_blend.c ****             fill_argb(dest_buf, &blend_area, dest_stride, dsc->color, dsc->opa, mask, mask_stride);
 183:Drivers/lvgl/src/draw/sw/lv_draw_sw_blend.c ****         }
 184:Drivers/lvgl/src/draw/sw/lv_draw_sw_blend.c ****         else {
 185:Drivers/lvgl/src/draw/sw/lv_draw_sw_blend.c ****             map_argb(dest_buf, &blend_area, dest_stride, src_buf, src_stride, dsc->opa, mask, mask_
 186:Drivers/lvgl/src/draw/sw/lv_draw_sw_blend.c ****         }
 187:Drivers/lvgl/src/draw/sw/lv_draw_sw_blend.c ****     }
 188:Drivers/lvgl/src/draw/sw/lv_draw_sw_blend.c **** #endif
 189:Drivers/lvgl/src/draw/sw/lv_draw_sw_blend.c ****     else if(dsc->blend_mode == LV_BLEND_MODE_NORMAL) {
 190:Drivers/lvgl/src/draw/sw/lv_draw_sw_blend.c ****         if(dsc->src_buf == NULL) {
 191:Drivers/lvgl/src/draw/sw/lv_draw_sw_blend.c ****             fill_normal(dest_buf, &blend_area, dest_stride, dsc->color, dsc->opa, mask, mask_stride
 192:Drivers/lvgl/src/draw/sw/lv_draw_sw_blend.c ****         }
 193:Drivers/lvgl/src/draw/sw/lv_draw_sw_blend.c ****         else {
 194:Drivers/lvgl/src/draw/sw/lv_draw_sw_blend.c ****             map_normal(dest_buf, &blend_area, dest_stride, src_buf, src_stride, dsc->opa, mask, mas
 195:Drivers/lvgl/src/draw/sw/lv_draw_sw_blend.c ****         }
 196:Drivers/lvgl/src/draw/sw/lv_draw_sw_blend.c ****     }
 197:Drivers/lvgl/src/draw/sw/lv_draw_sw_blend.c ****     else {
 198:Drivers/lvgl/src/draw/sw/lv_draw_sw_blend.c **** #if LV_DRAW_COMPLEX
 199:Drivers/lvgl/src/draw/sw/lv_draw_sw_blend.c ****         if(dsc->src_buf == NULL) {
 200:Drivers/lvgl/src/draw/sw/lv_draw_sw_blend.c ****             fill_blended(dest_buf, &blend_area, dest_stride, dsc->color, dsc->opa, mask, mask_strid
ARM GAS  /var/folders/0z/tsy30v1j4xl4_7kw94k978ww0000gn/T//ccll9Ln5.s 			page 5


 201:Drivers/lvgl/src/draw/sw/lv_draw_sw_blend.c ****         }
 202:Drivers/lvgl/src/draw/sw/lv_draw_sw_blend.c ****         else {
 203:Drivers/lvgl/src/draw/sw/lv_draw_sw_blend.c ****             map_blended(dest_buf, &blend_area, dest_stride, src_buf, src_stride, dsc->opa, mask, ma
 204:Drivers/lvgl/src/draw/sw/lv_draw_sw_blend.c ****         }
 205:Drivers/lvgl/src/draw/sw/lv_draw_sw_blend.c **** #endif
 206:Drivers/lvgl/src/draw/sw/lv_draw_sw_blend.c ****     }
 207:Drivers/lvgl/src/draw/sw/lv_draw_sw_blend.c **** }
 208:Drivers/lvgl/src/draw/sw/lv_draw_sw_blend.c **** 
 209:Drivers/lvgl/src/draw/sw/lv_draw_sw_blend.c **** 
 210:Drivers/lvgl/src/draw/sw/lv_draw_sw_blend.c **** /**********************
 211:Drivers/lvgl/src/draw/sw/lv_draw_sw_blend.c ****  *   STATIC FUNCTIONS
 212:Drivers/lvgl/src/draw/sw/lv_draw_sw_blend.c ****  **********************/
 213:Drivers/lvgl/src/draw/sw/lv_draw_sw_blend.c **** 
 214:Drivers/lvgl/src/draw/sw/lv_draw_sw_blend.c **** static void fill_set_px(lv_color_t * dest_buf, const lv_area_t * blend_area, lv_coord_t dest_stride
 215:Drivers/lvgl/src/draw/sw/lv_draw_sw_blend.c ****                         lv_color_t color, lv_opa_t opa, const lv_opa_t * mask, lv_coord_t mask_stid
 216:Drivers/lvgl/src/draw/sw/lv_draw_sw_blend.c **** {
 217:Drivers/lvgl/src/draw/sw/lv_draw_sw_blend.c ****     lv_disp_t * disp = _lv_refr_get_disp_refreshing();
 218:Drivers/lvgl/src/draw/sw/lv_draw_sw_blend.c **** 
 219:Drivers/lvgl/src/draw/sw/lv_draw_sw_blend.c ****     int32_t x;
 220:Drivers/lvgl/src/draw/sw/lv_draw_sw_blend.c ****     int32_t y;
 221:Drivers/lvgl/src/draw/sw/lv_draw_sw_blend.c **** 
 222:Drivers/lvgl/src/draw/sw/lv_draw_sw_blend.c ****     if(mask == NULL) {
 223:Drivers/lvgl/src/draw/sw/lv_draw_sw_blend.c ****         for(y = blend_area->y1; y <= blend_area->y2; y++) {
 224:Drivers/lvgl/src/draw/sw/lv_draw_sw_blend.c ****             for(x = blend_area->x1; x <= blend_area->x2; x++) {
 225:Drivers/lvgl/src/draw/sw/lv_draw_sw_blend.c ****                 disp->driver->set_px_cb(disp->driver, (void *)dest_buf, dest_stride, x, y, color, o
 226:Drivers/lvgl/src/draw/sw/lv_draw_sw_blend.c ****             }
 227:Drivers/lvgl/src/draw/sw/lv_draw_sw_blend.c ****         }
 228:Drivers/lvgl/src/draw/sw/lv_draw_sw_blend.c ****     }
 229:Drivers/lvgl/src/draw/sw/lv_draw_sw_blend.c ****     else {
 230:Drivers/lvgl/src/draw/sw/lv_draw_sw_blend.c ****         int32_t w = lv_area_get_width(blend_area);
 231:Drivers/lvgl/src/draw/sw/lv_draw_sw_blend.c ****         int32_t h = lv_area_get_height(blend_area);
 232:Drivers/lvgl/src/draw/sw/lv_draw_sw_blend.c **** 
 233:Drivers/lvgl/src/draw/sw/lv_draw_sw_blend.c ****         for(y = 0; y < h; y++) {
 234:Drivers/lvgl/src/draw/sw/lv_draw_sw_blend.c ****             for(x = 0; x < w; x++) {
 235:Drivers/lvgl/src/draw/sw/lv_draw_sw_blend.c ****                 if(mask[x]) {
 236:Drivers/lvgl/src/draw/sw/lv_draw_sw_blend.c **** 
 237:Drivers/lvgl/src/draw/sw/lv_draw_sw_blend.c **** 
 238:Drivers/lvgl/src/draw/sw/lv_draw_sw_blend.c ****                     disp->driver->set_px_cb(disp->driver, (void *)dest_buf, dest_stride, blend_area
 239:Drivers/lvgl/src/draw/sw/lv_draw_sw_blend.c ****                                             (uint32_t)((uint32_t)opa * mask[x]) >> 8);
 240:Drivers/lvgl/src/draw/sw/lv_draw_sw_blend.c ****                 }
 241:Drivers/lvgl/src/draw/sw/lv_draw_sw_blend.c ****             }
 242:Drivers/lvgl/src/draw/sw/lv_draw_sw_blend.c ****             mask += mask_stide;
 243:Drivers/lvgl/src/draw/sw/lv_draw_sw_blend.c ****         }
 244:Drivers/lvgl/src/draw/sw/lv_draw_sw_blend.c ****     }
 245:Drivers/lvgl/src/draw/sw/lv_draw_sw_blend.c **** }
 246:Drivers/lvgl/src/draw/sw/lv_draw_sw_blend.c **** 
 247:Drivers/lvgl/src/draw/sw/lv_draw_sw_blend.c **** static LV_ATTRIBUTE_FAST_MEM void fill_normal(lv_color_t * dest_buf, const lv_area_t * dest_area,
 248:Drivers/lvgl/src/draw/sw/lv_draw_sw_blend.c ****                                               lv_coord_t dest_stride, lv_color_t color, lv_opa_t op
 249:Drivers/lvgl/src/draw/sw/lv_draw_sw_blend.c ****                                               const lv_opa_t * mask, lv_coord_t mask_stride)
 250:Drivers/lvgl/src/draw/sw/lv_draw_sw_blend.c **** {
 251:Drivers/lvgl/src/draw/sw/lv_draw_sw_blend.c ****     int32_t w = lv_area_get_width(dest_area);
 252:Drivers/lvgl/src/draw/sw/lv_draw_sw_blend.c ****     int32_t h = lv_area_get_height(dest_area);
 253:Drivers/lvgl/src/draw/sw/lv_draw_sw_blend.c **** 
 254:Drivers/lvgl/src/draw/sw/lv_draw_sw_blend.c ****     int32_t x;
 255:Drivers/lvgl/src/draw/sw/lv_draw_sw_blend.c ****     int32_t y;
 256:Drivers/lvgl/src/draw/sw/lv_draw_sw_blend.c **** 
 257:Drivers/lvgl/src/draw/sw/lv_draw_sw_blend.c ****     /*No mask*/
ARM GAS  /var/folders/0z/tsy30v1j4xl4_7kw94k978ww0000gn/T//ccll9Ln5.s 			page 6


 258:Drivers/lvgl/src/draw/sw/lv_draw_sw_blend.c ****     if(mask == NULL) {
 259:Drivers/lvgl/src/draw/sw/lv_draw_sw_blend.c ****         if(opa >= LV_OPA_MAX) {
 260:Drivers/lvgl/src/draw/sw/lv_draw_sw_blend.c ****             for(y = 0; y < h; y++) {
 261:Drivers/lvgl/src/draw/sw/lv_draw_sw_blend.c ****                 lv_color_fill(dest_buf, color, w);
 262:Drivers/lvgl/src/draw/sw/lv_draw_sw_blend.c ****                 dest_buf += dest_stride;
 263:Drivers/lvgl/src/draw/sw/lv_draw_sw_blend.c ****             }
 264:Drivers/lvgl/src/draw/sw/lv_draw_sw_blend.c ****         }
 265:Drivers/lvgl/src/draw/sw/lv_draw_sw_blend.c ****         /*Has opacity*/
 266:Drivers/lvgl/src/draw/sw/lv_draw_sw_blend.c ****         else {
 267:Drivers/lvgl/src/draw/sw/lv_draw_sw_blend.c ****             lv_color_t last_dest_color = lv_color_black();
 268:Drivers/lvgl/src/draw/sw/lv_draw_sw_blend.c ****             lv_color_t last_res_color = lv_color_mix(color, last_dest_color, opa);
 269:Drivers/lvgl/src/draw/sw/lv_draw_sw_blend.c **** 
 270:Drivers/lvgl/src/draw/sw/lv_draw_sw_blend.c **** #if LV_COLOR_MIX_ROUND_OFS == 0 && LV_COLOR_DEPTH == 16
 271:Drivers/lvgl/src/draw/sw/lv_draw_sw_blend.c ****             /*lv_color_mix work with an optimized algorithm with 16 bit color depth.
 272:Drivers/lvgl/src/draw/sw/lv_draw_sw_blend.c ****              *However, it introduces some rounded error on opa.
 273:Drivers/lvgl/src/draw/sw/lv_draw_sw_blend.c ****              *Introduce the same error here too to make lv_color_premult produces the same result *
 274:Drivers/lvgl/src/draw/sw/lv_draw_sw_blend.c ****             opa = (uint32_t)((uint32_t)opa + 4) >> 3;
 275:Drivers/lvgl/src/draw/sw/lv_draw_sw_blend.c ****             opa = opa << 3;
 276:Drivers/lvgl/src/draw/sw/lv_draw_sw_blend.c **** #endif
 277:Drivers/lvgl/src/draw/sw/lv_draw_sw_blend.c **** 
 278:Drivers/lvgl/src/draw/sw/lv_draw_sw_blend.c ****             uint16_t color_premult[3];
 279:Drivers/lvgl/src/draw/sw/lv_draw_sw_blend.c ****             lv_color_premult(color, opa, color_premult);
 280:Drivers/lvgl/src/draw/sw/lv_draw_sw_blend.c ****             lv_opa_t opa_inv = 255 - opa;
 281:Drivers/lvgl/src/draw/sw/lv_draw_sw_blend.c **** 
 282:Drivers/lvgl/src/draw/sw/lv_draw_sw_blend.c ****             for(y = 0; y < h; y++) {
 283:Drivers/lvgl/src/draw/sw/lv_draw_sw_blend.c ****                 for(x = 0; x < w; x++) {
 284:Drivers/lvgl/src/draw/sw/lv_draw_sw_blend.c ****                     if(last_dest_color.full != dest_buf[x].full) {
 285:Drivers/lvgl/src/draw/sw/lv_draw_sw_blend.c ****                         last_dest_color = dest_buf[x];
 286:Drivers/lvgl/src/draw/sw/lv_draw_sw_blend.c ****                         last_res_color = lv_color_mix_premult(color_premult, dest_buf[x], opa_inv);
 287:Drivers/lvgl/src/draw/sw/lv_draw_sw_blend.c ****                     }
 288:Drivers/lvgl/src/draw/sw/lv_draw_sw_blend.c ****                     dest_buf[x] = last_res_color;
 289:Drivers/lvgl/src/draw/sw/lv_draw_sw_blend.c ****                 }
 290:Drivers/lvgl/src/draw/sw/lv_draw_sw_blend.c ****                 dest_buf += dest_stride;
 291:Drivers/lvgl/src/draw/sw/lv_draw_sw_blend.c ****             }
 292:Drivers/lvgl/src/draw/sw/lv_draw_sw_blend.c ****         }
 293:Drivers/lvgl/src/draw/sw/lv_draw_sw_blend.c ****     }
 294:Drivers/lvgl/src/draw/sw/lv_draw_sw_blend.c ****     /*Masked*/
 295:Drivers/lvgl/src/draw/sw/lv_draw_sw_blend.c ****     else {
 296:Drivers/lvgl/src/draw/sw/lv_draw_sw_blend.c **** #if LV_COLOR_DEPTH == 16
 297:Drivers/lvgl/src/draw/sw/lv_draw_sw_blend.c ****         uint32_t c32 = color.full + ((uint32_t)color.full << 16);
 298:Drivers/lvgl/src/draw/sw/lv_draw_sw_blend.c **** #endif
 299:Drivers/lvgl/src/draw/sw/lv_draw_sw_blend.c ****         /*Only the mask matters*/
 300:Drivers/lvgl/src/draw/sw/lv_draw_sw_blend.c ****         if(opa >= LV_OPA_MAX) {
 301:Drivers/lvgl/src/draw/sw/lv_draw_sw_blend.c ****             int32_t x_end4 = w - 4;
 302:Drivers/lvgl/src/draw/sw/lv_draw_sw_blend.c ****             for(y = 0; y < h; y++) {
 303:Drivers/lvgl/src/draw/sw/lv_draw_sw_blend.c ****                 for(x = 0; x < w && ((lv_uintptr_t)(mask) & 0x3); x++) {
 304:Drivers/lvgl/src/draw/sw/lv_draw_sw_blend.c ****                     FILL_NORMAL_MASK_PX(color)
 305:Drivers/lvgl/src/draw/sw/lv_draw_sw_blend.c ****                 }
 306:Drivers/lvgl/src/draw/sw/lv_draw_sw_blend.c **** 
 307:Drivers/lvgl/src/draw/sw/lv_draw_sw_blend.c ****                 for(; x <= x_end4; x += 4) {
 308:Drivers/lvgl/src/draw/sw/lv_draw_sw_blend.c ****                     uint32_t mask32 = *((uint32_t *)mask);
 309:Drivers/lvgl/src/draw/sw/lv_draw_sw_blend.c ****                     if(mask32 == 0xFFFFFFFF) {
 310:Drivers/lvgl/src/draw/sw/lv_draw_sw_blend.c **** #if LV_COLOR_DEPTH == 16
 311:Drivers/lvgl/src/draw/sw/lv_draw_sw_blend.c ****                         if((lv_uintptr_t)dest_buf & 0x3) {
 312:Drivers/lvgl/src/draw/sw/lv_draw_sw_blend.c ****                             *(dest_buf + 0) = color;
 313:Drivers/lvgl/src/draw/sw/lv_draw_sw_blend.c ****                             uint32_t * d = (uint32_t *)(dest_buf + 1);
 314:Drivers/lvgl/src/draw/sw/lv_draw_sw_blend.c ****                             *d = c32;
ARM GAS  /var/folders/0z/tsy30v1j4xl4_7kw94k978ww0000gn/T//ccll9Ln5.s 			page 7


 315:Drivers/lvgl/src/draw/sw/lv_draw_sw_blend.c ****                             *(dest_buf + 3) = color;
 316:Drivers/lvgl/src/draw/sw/lv_draw_sw_blend.c ****                         }
 317:Drivers/lvgl/src/draw/sw/lv_draw_sw_blend.c ****                         else {
 318:Drivers/lvgl/src/draw/sw/lv_draw_sw_blend.c ****                             uint32_t * d = (uint32_t *)dest_buf;
 319:Drivers/lvgl/src/draw/sw/lv_draw_sw_blend.c ****                             *d = c32;
 320:Drivers/lvgl/src/draw/sw/lv_draw_sw_blend.c ****                             *(d + 1) = c32;
 321:Drivers/lvgl/src/draw/sw/lv_draw_sw_blend.c ****                         }
 322:Drivers/lvgl/src/draw/sw/lv_draw_sw_blend.c **** #else
 323:Drivers/lvgl/src/draw/sw/lv_draw_sw_blend.c ****                         dest_buf[0] = color;
 324:Drivers/lvgl/src/draw/sw/lv_draw_sw_blend.c ****                         dest_buf[1] = color;
 325:Drivers/lvgl/src/draw/sw/lv_draw_sw_blend.c ****                         dest_buf[2] = color;
 326:Drivers/lvgl/src/draw/sw/lv_draw_sw_blend.c ****                         dest_buf[3] = color;
 327:Drivers/lvgl/src/draw/sw/lv_draw_sw_blend.c **** #endif
 328:Drivers/lvgl/src/draw/sw/lv_draw_sw_blend.c ****                         dest_buf += 4;
 329:Drivers/lvgl/src/draw/sw/lv_draw_sw_blend.c ****                         mask += 4;
 330:Drivers/lvgl/src/draw/sw/lv_draw_sw_blend.c ****                     }
 331:Drivers/lvgl/src/draw/sw/lv_draw_sw_blend.c ****                     else if(mask32) {
 332:Drivers/lvgl/src/draw/sw/lv_draw_sw_blend.c ****                         FILL_NORMAL_MASK_PX(color)
 333:Drivers/lvgl/src/draw/sw/lv_draw_sw_blend.c ****                         FILL_NORMAL_MASK_PX(color)
 334:Drivers/lvgl/src/draw/sw/lv_draw_sw_blend.c ****                         FILL_NORMAL_MASK_PX(color)
 335:Drivers/lvgl/src/draw/sw/lv_draw_sw_blend.c ****                         FILL_NORMAL_MASK_PX(color)
 336:Drivers/lvgl/src/draw/sw/lv_draw_sw_blend.c ****                     }
 337:Drivers/lvgl/src/draw/sw/lv_draw_sw_blend.c ****                     else {
 338:Drivers/lvgl/src/draw/sw/lv_draw_sw_blend.c ****                         mask += 4;
 339:Drivers/lvgl/src/draw/sw/lv_draw_sw_blend.c ****                         dest_buf += 4;
 340:Drivers/lvgl/src/draw/sw/lv_draw_sw_blend.c ****                     }
 341:Drivers/lvgl/src/draw/sw/lv_draw_sw_blend.c ****                 }
 342:Drivers/lvgl/src/draw/sw/lv_draw_sw_blend.c **** 
 343:Drivers/lvgl/src/draw/sw/lv_draw_sw_blend.c ****                 for(; x < w ; x++) {
 344:Drivers/lvgl/src/draw/sw/lv_draw_sw_blend.c ****                     FILL_NORMAL_MASK_PX(color)
 345:Drivers/lvgl/src/draw/sw/lv_draw_sw_blend.c ****                 }
 346:Drivers/lvgl/src/draw/sw/lv_draw_sw_blend.c ****                 dest_buf += (dest_stride - w);
 347:Drivers/lvgl/src/draw/sw/lv_draw_sw_blend.c ****                 mask += (mask_stride - w);
 348:Drivers/lvgl/src/draw/sw/lv_draw_sw_blend.c ****             }
 349:Drivers/lvgl/src/draw/sw/lv_draw_sw_blend.c ****         }
 350:Drivers/lvgl/src/draw/sw/lv_draw_sw_blend.c ****         /*With opacity*/
 351:Drivers/lvgl/src/draw/sw/lv_draw_sw_blend.c ****         else {
 352:Drivers/lvgl/src/draw/sw/lv_draw_sw_blend.c ****             /*Buffer the result color to avoid recalculating the same color*/
 353:Drivers/lvgl/src/draw/sw/lv_draw_sw_blend.c ****             lv_color_t last_dest_color;
 354:Drivers/lvgl/src/draw/sw/lv_draw_sw_blend.c ****             lv_color_t last_res_color;
 355:Drivers/lvgl/src/draw/sw/lv_draw_sw_blend.c ****             lv_opa_t last_mask = LV_OPA_TRANSP;
 356:Drivers/lvgl/src/draw/sw/lv_draw_sw_blend.c ****             last_dest_color.full = dest_buf[0].full;
 357:Drivers/lvgl/src/draw/sw/lv_draw_sw_blend.c ****             last_res_color.full = dest_buf[0].full;
 358:Drivers/lvgl/src/draw/sw/lv_draw_sw_blend.c ****             lv_opa_t opa_tmp = LV_OPA_TRANSP;
 359:Drivers/lvgl/src/draw/sw/lv_draw_sw_blend.c **** 
 360:Drivers/lvgl/src/draw/sw/lv_draw_sw_blend.c ****             for(y = 0; y < h; y++) {
 361:Drivers/lvgl/src/draw/sw/lv_draw_sw_blend.c ****                 for(x = 0; x < w; x++) {
 362:Drivers/lvgl/src/draw/sw/lv_draw_sw_blend.c ****                     if(*mask) {
 363:Drivers/lvgl/src/draw/sw/lv_draw_sw_blend.c ****                         if(*mask != last_mask) opa_tmp = *mask == LV_OPA_COVER ? opa :
 364:Drivers/lvgl/src/draw/sw/lv_draw_sw_blend.c ****                                                              (uint32_t)((uint32_t)(*mask) * opa) >>
 365:Drivers/lvgl/src/draw/sw/lv_draw_sw_blend.c ****                         if(*mask != last_mask || last_dest_color.full != dest_buf[x].full) {
 366:Drivers/lvgl/src/draw/sw/lv_draw_sw_blend.c ****                             if(opa_tmp == LV_OPA_COVER) last_res_color = color;
 367:Drivers/lvgl/src/draw/sw/lv_draw_sw_blend.c ****                             else last_res_color = lv_color_mix(color, dest_buf[x], opa_tmp);
 368:Drivers/lvgl/src/draw/sw/lv_draw_sw_blend.c ****                             last_mask = *mask;
 369:Drivers/lvgl/src/draw/sw/lv_draw_sw_blend.c ****                             last_dest_color.full = dest_buf[x].full;
 370:Drivers/lvgl/src/draw/sw/lv_draw_sw_blend.c ****                         }
 371:Drivers/lvgl/src/draw/sw/lv_draw_sw_blend.c ****                         dest_buf[x] = last_res_color;
ARM GAS  /var/folders/0z/tsy30v1j4xl4_7kw94k978ww0000gn/T//ccll9Ln5.s 			page 8


 372:Drivers/lvgl/src/draw/sw/lv_draw_sw_blend.c ****                     }
 373:Drivers/lvgl/src/draw/sw/lv_draw_sw_blend.c ****                     mask++;
 374:Drivers/lvgl/src/draw/sw/lv_draw_sw_blend.c ****                 }
 375:Drivers/lvgl/src/draw/sw/lv_draw_sw_blend.c ****                 dest_buf += dest_stride;
 376:Drivers/lvgl/src/draw/sw/lv_draw_sw_blend.c ****                 mask += (mask_stride - w);
 377:Drivers/lvgl/src/draw/sw/lv_draw_sw_blend.c ****             }
 378:Drivers/lvgl/src/draw/sw/lv_draw_sw_blend.c ****         }
 379:Drivers/lvgl/src/draw/sw/lv_draw_sw_blend.c ****     }
 380:Drivers/lvgl/src/draw/sw/lv_draw_sw_blend.c **** }
 381:Drivers/lvgl/src/draw/sw/lv_draw_sw_blend.c **** 
 382:Drivers/lvgl/src/draw/sw/lv_draw_sw_blend.c **** #if LV_COLOR_SCREEN_TRANSP
 383:Drivers/lvgl/src/draw/sw/lv_draw_sw_blend.c **** static inline void set_px_argb(uint8_t * buf, lv_color_t color, lv_opa_t opa)
 384:Drivers/lvgl/src/draw/sw/lv_draw_sw_blend.c **** {
 385:Drivers/lvgl/src/draw/sw/lv_draw_sw_blend.c ****     lv_color_t bg_color;
 386:Drivers/lvgl/src/draw/sw/lv_draw_sw_blend.c ****     lv_color_t res_color;
 387:Drivers/lvgl/src/draw/sw/lv_draw_sw_blend.c ****     lv_opa_t bg_opa = buf[LV_IMG_PX_SIZE_ALPHA_BYTE - 1];
 388:Drivers/lvgl/src/draw/sw/lv_draw_sw_blend.c **** #if LV_COLOR_DEPTH == 8
 389:Drivers/lvgl/src/draw/sw/lv_draw_sw_blend.c ****     bg_color.full = buf[0];
 390:Drivers/lvgl/src/draw/sw/lv_draw_sw_blend.c ****     lv_color_mix_with_alpha(bg_color, bg_opa, color, opa, &res_color, &buf[1]);
 391:Drivers/lvgl/src/draw/sw/lv_draw_sw_blend.c ****     if(buf[1] <= LV_OPA_MIN) return;
 392:Drivers/lvgl/src/draw/sw/lv_draw_sw_blend.c ****     buf[0] = res_color.full;
 393:Drivers/lvgl/src/draw/sw/lv_draw_sw_blend.c **** #elif LV_COLOR_DEPTH == 16
 394:Drivers/lvgl/src/draw/sw/lv_draw_sw_blend.c ****     bg_color.full = buf[0] + (buf[1] << 8);
 395:Drivers/lvgl/src/draw/sw/lv_draw_sw_blend.c ****     lv_color_mix_with_alpha(bg_color, bg_opa, color, opa, &res_color, &buf[2]);
 396:Drivers/lvgl/src/draw/sw/lv_draw_sw_blend.c ****     if(buf[2] <= LV_OPA_MIN) return;
 397:Drivers/lvgl/src/draw/sw/lv_draw_sw_blend.c ****     buf[0] = res_color.full & 0xff;
 398:Drivers/lvgl/src/draw/sw/lv_draw_sw_blend.c ****     buf[1] = res_color.full >> 8;
 399:Drivers/lvgl/src/draw/sw/lv_draw_sw_blend.c **** #elif LV_COLOR_DEPTH == 32
 400:Drivers/lvgl/src/draw/sw/lv_draw_sw_blend.c ****     bg_color = *((lv_color_t *)buf);
 401:Drivers/lvgl/src/draw/sw/lv_draw_sw_blend.c ****     lv_color_mix_with_alpha(bg_color, bg_opa, color, opa, &res_color, &buf[3]);
 402:Drivers/lvgl/src/draw/sw/lv_draw_sw_blend.c ****     if(buf[3] <= LV_OPA_MIN) return;
 403:Drivers/lvgl/src/draw/sw/lv_draw_sw_blend.c ****     buf[0] = res_color.ch.blue;
 404:Drivers/lvgl/src/draw/sw/lv_draw_sw_blend.c ****     buf[1] = res_color.ch.green;
 405:Drivers/lvgl/src/draw/sw/lv_draw_sw_blend.c ****     buf[2] = res_color.ch.red;
 406:Drivers/lvgl/src/draw/sw/lv_draw_sw_blend.c **** #endif
 407:Drivers/lvgl/src/draw/sw/lv_draw_sw_blend.c **** }
 408:Drivers/lvgl/src/draw/sw/lv_draw_sw_blend.c **** 
 409:Drivers/lvgl/src/draw/sw/lv_draw_sw_blend.c **** static inline void set_px_argb_blend(uint8_t * buf, lv_color_t color, lv_opa_t opa, lv_color_t (*bl
 410:Drivers/lvgl/src/draw/sw/lv_draw_sw_blend.c ****                                                                                                    
 411:Drivers/lvgl/src/draw/sw/lv_draw_sw_blend.c **** {
 412:Drivers/lvgl/src/draw/sw/lv_draw_sw_blend.c ****     static lv_color_t last_dest_color;
 413:Drivers/lvgl/src/draw/sw/lv_draw_sw_blend.c ****     static lv_color_t last_src_color;
 414:Drivers/lvgl/src/draw/sw/lv_draw_sw_blend.c ****     static lv_color_t last_res_color;
 415:Drivers/lvgl/src/draw/sw/lv_draw_sw_blend.c ****     static uint32_t last_opa = 0xffff; /*Set to an invalid value for first*/
 416:Drivers/lvgl/src/draw/sw/lv_draw_sw_blend.c **** 
 417:Drivers/lvgl/src/draw/sw/lv_draw_sw_blend.c ****     lv_color_t bg_color;
 418:Drivers/lvgl/src/draw/sw/lv_draw_sw_blend.c **** 
 419:Drivers/lvgl/src/draw/sw/lv_draw_sw_blend.c ****     /*Get the BG color*/
 420:Drivers/lvgl/src/draw/sw/lv_draw_sw_blend.c **** #if LV_COLOR_DEPTH == 8
 421:Drivers/lvgl/src/draw/sw/lv_draw_sw_blend.c ****     if(buf[1] <= LV_OPA_MIN) return;
 422:Drivers/lvgl/src/draw/sw/lv_draw_sw_blend.c ****     bg_color.full = buf[0];
 423:Drivers/lvgl/src/draw/sw/lv_draw_sw_blend.c **** #elif LV_COLOR_DEPTH == 16
 424:Drivers/lvgl/src/draw/sw/lv_draw_sw_blend.c ****     if(buf[2] <= LV_OPA_MIN) return;
 425:Drivers/lvgl/src/draw/sw/lv_draw_sw_blend.c ****     bg_color.full = buf[0] + (buf[1] << 8);
 426:Drivers/lvgl/src/draw/sw/lv_draw_sw_blend.c **** #elif LV_COLOR_DEPTH == 32
 427:Drivers/lvgl/src/draw/sw/lv_draw_sw_blend.c ****     if(buf[3] <= LV_OPA_MIN) return;
 428:Drivers/lvgl/src/draw/sw/lv_draw_sw_blend.c ****     bg_color = *((lv_color_t *)buf);
ARM GAS  /var/folders/0z/tsy30v1j4xl4_7kw94k978ww0000gn/T//ccll9Ln5.s 			page 9


 429:Drivers/lvgl/src/draw/sw/lv_draw_sw_blend.c **** #endif
 430:Drivers/lvgl/src/draw/sw/lv_draw_sw_blend.c **** 
 431:Drivers/lvgl/src/draw/sw/lv_draw_sw_blend.c ****     /*Get the result color*/
 432:Drivers/lvgl/src/draw/sw/lv_draw_sw_blend.c ****     if(last_dest_color.full != bg_color.full || last_src_color.full != color.full || last_opa != op
 433:Drivers/lvgl/src/draw/sw/lv_draw_sw_blend.c ****         last_dest_color = bg_color;
 434:Drivers/lvgl/src/draw/sw/lv_draw_sw_blend.c ****         last_src_color = color;
 435:Drivers/lvgl/src/draw/sw/lv_draw_sw_blend.c ****         last_opa = opa;
 436:Drivers/lvgl/src/draw/sw/lv_draw_sw_blend.c ****         last_res_color = blend_fp(last_src_color, last_dest_color, last_opa);
 437:Drivers/lvgl/src/draw/sw/lv_draw_sw_blend.c ****     }
 438:Drivers/lvgl/src/draw/sw/lv_draw_sw_blend.c **** 
 439:Drivers/lvgl/src/draw/sw/lv_draw_sw_blend.c ****     /*Set the result color*/
 440:Drivers/lvgl/src/draw/sw/lv_draw_sw_blend.c **** #if LV_COLOR_DEPTH == 8
 441:Drivers/lvgl/src/draw/sw/lv_draw_sw_blend.c ****     buf[0] = last_res_color.full;
 442:Drivers/lvgl/src/draw/sw/lv_draw_sw_blend.c **** #elif LV_COLOR_DEPTH == 16
 443:Drivers/lvgl/src/draw/sw/lv_draw_sw_blend.c ****     buf[0] = last_res_color.full & 0xff;
 444:Drivers/lvgl/src/draw/sw/lv_draw_sw_blend.c ****     buf[1] = last_res_color.full >> 8;
 445:Drivers/lvgl/src/draw/sw/lv_draw_sw_blend.c **** #elif LV_COLOR_DEPTH == 32
 446:Drivers/lvgl/src/draw/sw/lv_draw_sw_blend.c ****     buf[0] = last_res_color.ch.blue;
 447:Drivers/lvgl/src/draw/sw/lv_draw_sw_blend.c ****     buf[1] = last_res_color.ch.green;
 448:Drivers/lvgl/src/draw/sw/lv_draw_sw_blend.c ****     buf[2] = last_res_color.ch.red;
 449:Drivers/lvgl/src/draw/sw/lv_draw_sw_blend.c **** #endif
 450:Drivers/lvgl/src/draw/sw/lv_draw_sw_blend.c **** 
 451:Drivers/lvgl/src/draw/sw/lv_draw_sw_blend.c **** }
 452:Drivers/lvgl/src/draw/sw/lv_draw_sw_blend.c **** 
 453:Drivers/lvgl/src/draw/sw/lv_draw_sw_blend.c **** static void LV_ATTRIBUTE_FAST_MEM fill_argb(lv_color_t * dest_buf, const lv_area_t * dest_area,
 454:Drivers/lvgl/src/draw/sw/lv_draw_sw_blend.c ****                                             lv_coord_t dest_stride, lv_color_t color, lv_opa_t opa,
 455:Drivers/lvgl/src/draw/sw/lv_draw_sw_blend.c ****                                             const lv_opa_t * mask, lv_coord_t mask_stride)
 456:Drivers/lvgl/src/draw/sw/lv_draw_sw_blend.c **** {
 457:Drivers/lvgl/src/draw/sw/lv_draw_sw_blend.c ****     uint8_t * dest_buf8 = (uint8_t *) dest_buf;
 458:Drivers/lvgl/src/draw/sw/lv_draw_sw_blend.c ****     int32_t w = lv_area_get_width(dest_area);
 459:Drivers/lvgl/src/draw/sw/lv_draw_sw_blend.c ****     int32_t h = lv_area_get_height(dest_area);
 460:Drivers/lvgl/src/draw/sw/lv_draw_sw_blend.c **** 
 461:Drivers/lvgl/src/draw/sw/lv_draw_sw_blend.c ****     int32_t x;
 462:Drivers/lvgl/src/draw/sw/lv_draw_sw_blend.c ****     int32_t y;
 463:Drivers/lvgl/src/draw/sw/lv_draw_sw_blend.c **** 
 464:Drivers/lvgl/src/draw/sw/lv_draw_sw_blend.c ****     uint8_t ctmp[LV_IMG_PX_SIZE_ALPHA_BYTE];
 465:Drivers/lvgl/src/draw/sw/lv_draw_sw_blend.c ****     lv_memcpy(ctmp, &color, sizeof(lv_color_t));
 466:Drivers/lvgl/src/draw/sw/lv_draw_sw_blend.c ****     ctmp[LV_IMG_PX_SIZE_ALPHA_BYTE - 1] = opa;
 467:Drivers/lvgl/src/draw/sw/lv_draw_sw_blend.c **** 
 468:Drivers/lvgl/src/draw/sw/lv_draw_sw_blend.c ****     /*No mask*/
 469:Drivers/lvgl/src/draw/sw/lv_draw_sw_blend.c ****     if(mask == NULL) {
 470:Drivers/lvgl/src/draw/sw/lv_draw_sw_blend.c ****         if(opa >= LV_OPA_MAX) {
 471:Drivers/lvgl/src/draw/sw/lv_draw_sw_blend.c ****             for(x = 0; x < w; x++) {
 472:Drivers/lvgl/src/draw/sw/lv_draw_sw_blend.c ****                 lv_memcpy(dest_buf8, ctmp, LV_IMG_PX_SIZE_ALPHA_BYTE);
 473:Drivers/lvgl/src/draw/sw/lv_draw_sw_blend.c ****                 dest_buf8 += LV_IMG_PX_SIZE_ALPHA_BYTE;
 474:Drivers/lvgl/src/draw/sw/lv_draw_sw_blend.c ****             }
 475:Drivers/lvgl/src/draw/sw/lv_draw_sw_blend.c **** 
 476:Drivers/lvgl/src/draw/sw/lv_draw_sw_blend.c ****             dest_buf8 += (dest_stride - w) * LV_IMG_PX_SIZE_ALPHA_BYTE;
 477:Drivers/lvgl/src/draw/sw/lv_draw_sw_blend.c **** 
 478:Drivers/lvgl/src/draw/sw/lv_draw_sw_blend.c ****             for(y = 1; y < h; y++) {
 479:Drivers/lvgl/src/draw/sw/lv_draw_sw_blend.c ****                 lv_memcpy(dest_buf8, (uint8_t *) dest_buf, w * LV_IMG_PX_SIZE_ALPHA_BYTE);
 480:Drivers/lvgl/src/draw/sw/lv_draw_sw_blend.c ****                 dest_buf8 += dest_stride * LV_IMG_PX_SIZE_ALPHA_BYTE;
 481:Drivers/lvgl/src/draw/sw/lv_draw_sw_blend.c ****             }
 482:Drivers/lvgl/src/draw/sw/lv_draw_sw_blend.c ****         }
 483:Drivers/lvgl/src/draw/sw/lv_draw_sw_blend.c ****         /*Has opacity*/
 484:Drivers/lvgl/src/draw/sw/lv_draw_sw_blend.c ****         else {
 485:Drivers/lvgl/src/draw/sw/lv_draw_sw_blend.c ****             uint8_t * dest_buf8_row = dest_buf8;
ARM GAS  /var/folders/0z/tsy30v1j4xl4_7kw94k978ww0000gn/T//ccll9Ln5.s 			page 10


 486:Drivers/lvgl/src/draw/sw/lv_draw_sw_blend.c ****             for(y = 0; y < h; y++) {
 487:Drivers/lvgl/src/draw/sw/lv_draw_sw_blend.c ****                 for(x = 0; x < w; x++) {
 488:Drivers/lvgl/src/draw/sw/lv_draw_sw_blend.c ****                     set_px_argb(dest_buf8, color, opa);
 489:Drivers/lvgl/src/draw/sw/lv_draw_sw_blend.c ****                     dest_buf8 += LV_IMG_PX_SIZE_ALPHA_BYTE;
 490:Drivers/lvgl/src/draw/sw/lv_draw_sw_blend.c ****                 }
 491:Drivers/lvgl/src/draw/sw/lv_draw_sw_blend.c ****                 dest_buf8_row += dest_stride * LV_IMG_PX_SIZE_ALPHA_BYTE;
 492:Drivers/lvgl/src/draw/sw/lv_draw_sw_blend.c ****                 dest_buf8 = dest_buf8_row;
 493:Drivers/lvgl/src/draw/sw/lv_draw_sw_blend.c ****             }
 494:Drivers/lvgl/src/draw/sw/lv_draw_sw_blend.c ****         }
 495:Drivers/lvgl/src/draw/sw/lv_draw_sw_blend.c ****     }
 496:Drivers/lvgl/src/draw/sw/lv_draw_sw_blend.c ****     /*Masked*/
 497:Drivers/lvgl/src/draw/sw/lv_draw_sw_blend.c ****     else {
 498:Drivers/lvgl/src/draw/sw/lv_draw_sw_blend.c ****         /*Only the mask matters*/
 499:Drivers/lvgl/src/draw/sw/lv_draw_sw_blend.c ****         if(opa >= LV_OPA_MAX) {
 500:Drivers/lvgl/src/draw/sw/lv_draw_sw_blend.c ****             uint8_t * dest_buf8_row = dest_buf8;
 501:Drivers/lvgl/src/draw/sw/lv_draw_sw_blend.c ****             for(y = 0; y < h; y++) {
 502:Drivers/lvgl/src/draw/sw/lv_draw_sw_blend.c ****                 for(x = 0; x < w; x++) {
 503:Drivers/lvgl/src/draw/sw/lv_draw_sw_blend.c ****                     set_px_argb(dest_buf8, color,  *mask);
 504:Drivers/lvgl/src/draw/sw/lv_draw_sw_blend.c ****                     mask++;
 505:Drivers/lvgl/src/draw/sw/lv_draw_sw_blend.c ****                     dest_buf8 += LV_IMG_PX_SIZE_ALPHA_BYTE;
 506:Drivers/lvgl/src/draw/sw/lv_draw_sw_blend.c ****                 }
 507:Drivers/lvgl/src/draw/sw/lv_draw_sw_blend.c ****                 dest_buf8_row += dest_stride * LV_IMG_PX_SIZE_ALPHA_BYTE;
 508:Drivers/lvgl/src/draw/sw/lv_draw_sw_blend.c ****                 dest_buf8 = dest_buf8_row;
 509:Drivers/lvgl/src/draw/sw/lv_draw_sw_blend.c ****             }
 510:Drivers/lvgl/src/draw/sw/lv_draw_sw_blend.c ****         }
 511:Drivers/lvgl/src/draw/sw/lv_draw_sw_blend.c ****         /*With opacity*/
 512:Drivers/lvgl/src/draw/sw/lv_draw_sw_blend.c ****         else {
 513:Drivers/lvgl/src/draw/sw/lv_draw_sw_blend.c ****             /*Buffer the result color to avoid recalculating the same color*/
 514:Drivers/lvgl/src/draw/sw/lv_draw_sw_blend.c ****             lv_opa_t last_mask = LV_OPA_TRANSP;
 515:Drivers/lvgl/src/draw/sw/lv_draw_sw_blend.c ****             lv_opa_t opa_tmp = LV_OPA_TRANSP;
 516:Drivers/lvgl/src/draw/sw/lv_draw_sw_blend.c **** 
 517:Drivers/lvgl/src/draw/sw/lv_draw_sw_blend.c ****             uint8_t * dest_buf8_row = dest_buf8;
 518:Drivers/lvgl/src/draw/sw/lv_draw_sw_blend.c ****             for(y = 0; y < h; y++) {
 519:Drivers/lvgl/src/draw/sw/lv_draw_sw_blend.c ****                 for(x = 0; x < w; x++) {
 520:Drivers/lvgl/src/draw/sw/lv_draw_sw_blend.c ****                     if(*mask) {
 521:Drivers/lvgl/src/draw/sw/lv_draw_sw_blend.c ****                         if(*mask != last_mask) opa_tmp = *mask == LV_OPA_COVER ? opa :
 522:Drivers/lvgl/src/draw/sw/lv_draw_sw_blend.c ****                                                              (uint32_t)((uint32_t)(*mask) * opa) >>
 523:Drivers/lvgl/src/draw/sw/lv_draw_sw_blend.c **** 
 524:Drivers/lvgl/src/draw/sw/lv_draw_sw_blend.c ****                         set_px_argb(dest_buf8, color,  opa_tmp);
 525:Drivers/lvgl/src/draw/sw/lv_draw_sw_blend.c ****                     }
 526:Drivers/lvgl/src/draw/sw/lv_draw_sw_blend.c ****                     dest_buf8 += LV_IMG_PX_SIZE_ALPHA_BYTE;
 527:Drivers/lvgl/src/draw/sw/lv_draw_sw_blend.c ****                     mask++;
 528:Drivers/lvgl/src/draw/sw/lv_draw_sw_blend.c ****                 }
 529:Drivers/lvgl/src/draw/sw/lv_draw_sw_blend.c ****                 dest_buf8_row += dest_stride * LV_IMG_PX_SIZE_ALPHA_BYTE;
 530:Drivers/lvgl/src/draw/sw/lv_draw_sw_blend.c ****                 dest_buf8 = dest_buf8_row;
 531:Drivers/lvgl/src/draw/sw/lv_draw_sw_blend.c ****                 mask += (mask_stride - w);
 532:Drivers/lvgl/src/draw/sw/lv_draw_sw_blend.c ****             }
 533:Drivers/lvgl/src/draw/sw/lv_draw_sw_blend.c ****         }
 534:Drivers/lvgl/src/draw/sw/lv_draw_sw_blend.c ****     }
 535:Drivers/lvgl/src/draw/sw/lv_draw_sw_blend.c **** }
 536:Drivers/lvgl/src/draw/sw/lv_draw_sw_blend.c **** #endif
 537:Drivers/lvgl/src/draw/sw/lv_draw_sw_blend.c **** 
 538:Drivers/lvgl/src/draw/sw/lv_draw_sw_blend.c **** #if LV_DRAW_COMPLEX
 539:Drivers/lvgl/src/draw/sw/lv_draw_sw_blend.c **** static void fill_blended(lv_color_t * dest_buf, const lv_area_t * dest_area,
 540:Drivers/lvgl/src/draw/sw/lv_draw_sw_blend.c ****                          lv_coord_t dest_stride, lv_color_t color, lv_opa_t opa, const lv_opa_t * m
 541:Drivers/lvgl/src/draw/sw/lv_draw_sw_blend.c ****                          lv_blend_mode_t blend_mode)
 542:Drivers/lvgl/src/draw/sw/lv_draw_sw_blend.c **** {
ARM GAS  /var/folders/0z/tsy30v1j4xl4_7kw94k978ww0000gn/T//ccll9Ln5.s 			page 11


 543:Drivers/lvgl/src/draw/sw/lv_draw_sw_blend.c **** 
 544:Drivers/lvgl/src/draw/sw/lv_draw_sw_blend.c ****     int32_t w = lv_area_get_width(dest_area);
 545:Drivers/lvgl/src/draw/sw/lv_draw_sw_blend.c ****     int32_t h = lv_area_get_height(dest_area);
 546:Drivers/lvgl/src/draw/sw/lv_draw_sw_blend.c **** 
 547:Drivers/lvgl/src/draw/sw/lv_draw_sw_blend.c ****     int32_t x;
 548:Drivers/lvgl/src/draw/sw/lv_draw_sw_blend.c ****     int32_t y;
 549:Drivers/lvgl/src/draw/sw/lv_draw_sw_blend.c **** 
 550:Drivers/lvgl/src/draw/sw/lv_draw_sw_blend.c ****     lv_color_t (*blend_fp)(lv_color_t, lv_color_t, lv_opa_t);
 551:Drivers/lvgl/src/draw/sw/lv_draw_sw_blend.c ****     switch(blend_mode) {
 552:Drivers/lvgl/src/draw/sw/lv_draw_sw_blend.c ****         case LV_BLEND_MODE_ADDITIVE:
 553:Drivers/lvgl/src/draw/sw/lv_draw_sw_blend.c ****             blend_fp = color_blend_true_color_additive;
 554:Drivers/lvgl/src/draw/sw/lv_draw_sw_blend.c ****             break;
 555:Drivers/lvgl/src/draw/sw/lv_draw_sw_blend.c ****         case LV_BLEND_MODE_SUBTRACTIVE:
 556:Drivers/lvgl/src/draw/sw/lv_draw_sw_blend.c ****             blend_fp = color_blend_true_color_subtractive;
 557:Drivers/lvgl/src/draw/sw/lv_draw_sw_blend.c ****             break;
 558:Drivers/lvgl/src/draw/sw/lv_draw_sw_blend.c ****         case LV_BLEND_MODE_MULTIPLY:
 559:Drivers/lvgl/src/draw/sw/lv_draw_sw_blend.c ****             blend_fp = color_blend_true_color_multiply;
 560:Drivers/lvgl/src/draw/sw/lv_draw_sw_blend.c ****             break;
 561:Drivers/lvgl/src/draw/sw/lv_draw_sw_blend.c ****         default:
 562:Drivers/lvgl/src/draw/sw/lv_draw_sw_blend.c ****             LV_LOG_WARN("fill_blended: unsupported blend mode");
 563:Drivers/lvgl/src/draw/sw/lv_draw_sw_blend.c ****             return;
 564:Drivers/lvgl/src/draw/sw/lv_draw_sw_blend.c ****     }
 565:Drivers/lvgl/src/draw/sw/lv_draw_sw_blend.c **** 
 566:Drivers/lvgl/src/draw/sw/lv_draw_sw_blend.c ****     /*Simple fill (maybe with opacity), no masking*/
 567:Drivers/lvgl/src/draw/sw/lv_draw_sw_blend.c ****     if(mask == NULL) {
 568:Drivers/lvgl/src/draw/sw/lv_draw_sw_blend.c ****         lv_color_t last_dest_color = dest_buf[0];
 569:Drivers/lvgl/src/draw/sw/lv_draw_sw_blend.c ****         lv_color_t last_res_color = blend_fp(color, dest_buf[0], opa);
 570:Drivers/lvgl/src/draw/sw/lv_draw_sw_blend.c ****         for(y = 0; y < h; y++) {
 571:Drivers/lvgl/src/draw/sw/lv_draw_sw_blend.c ****             for(x = 0; x < w; x++) {
 572:Drivers/lvgl/src/draw/sw/lv_draw_sw_blend.c ****                 if(last_dest_color.full != dest_buf[x].full) {
 573:Drivers/lvgl/src/draw/sw/lv_draw_sw_blend.c ****                     last_dest_color = dest_buf[x];
 574:Drivers/lvgl/src/draw/sw/lv_draw_sw_blend.c ****                     last_res_color = blend_fp(color, dest_buf[x], opa);
 575:Drivers/lvgl/src/draw/sw/lv_draw_sw_blend.c ****                 }
 576:Drivers/lvgl/src/draw/sw/lv_draw_sw_blend.c ****                 dest_buf[x] = last_res_color;
 577:Drivers/lvgl/src/draw/sw/lv_draw_sw_blend.c ****             }
 578:Drivers/lvgl/src/draw/sw/lv_draw_sw_blend.c ****             dest_buf += dest_stride;
 579:Drivers/lvgl/src/draw/sw/lv_draw_sw_blend.c ****         }
 580:Drivers/lvgl/src/draw/sw/lv_draw_sw_blend.c ****     }
 581:Drivers/lvgl/src/draw/sw/lv_draw_sw_blend.c ****     /*Masked*/
 582:Drivers/lvgl/src/draw/sw/lv_draw_sw_blend.c ****     else {
 583:Drivers/lvgl/src/draw/sw/lv_draw_sw_blend.c ****         /*Buffer the result color to avoid recalculating the same color*/
 584:Drivers/lvgl/src/draw/sw/lv_draw_sw_blend.c ****         lv_color_t last_dest_color;
 585:Drivers/lvgl/src/draw/sw/lv_draw_sw_blend.c ****         lv_color_t last_res_color;
 586:Drivers/lvgl/src/draw/sw/lv_draw_sw_blend.c ****         lv_opa_t last_mask = LV_OPA_TRANSP;
 587:Drivers/lvgl/src/draw/sw/lv_draw_sw_blend.c ****         last_dest_color = dest_buf[0];
 588:Drivers/lvgl/src/draw/sw/lv_draw_sw_blend.c ****         lv_opa_t opa_tmp = mask[0] >= LV_OPA_MAX ? opa : (uint32_t)((uint32_t)mask[0] * opa) >> 8;
 589:Drivers/lvgl/src/draw/sw/lv_draw_sw_blend.c ****         last_res_color = blend_fp(color, last_dest_color, opa_tmp);
 590:Drivers/lvgl/src/draw/sw/lv_draw_sw_blend.c **** 
 591:Drivers/lvgl/src/draw/sw/lv_draw_sw_blend.c ****         for(y = 0; y < h; y++) {
 592:Drivers/lvgl/src/draw/sw/lv_draw_sw_blend.c ****             for(x = 0; x < w; x++) {
 593:Drivers/lvgl/src/draw/sw/lv_draw_sw_blend.c ****                 if(mask[x] == 0) continue;
 594:Drivers/lvgl/src/draw/sw/lv_draw_sw_blend.c ****                 if(mask[x] != last_mask || last_dest_color.full != dest_buf[x].full) {
 595:Drivers/lvgl/src/draw/sw/lv_draw_sw_blend.c ****                     opa_tmp = mask[x] >= LV_OPA_MAX ? opa : (uint32_t)((uint32_t)mask[x] * opa) >> 
 596:Drivers/lvgl/src/draw/sw/lv_draw_sw_blend.c **** 
 597:Drivers/lvgl/src/draw/sw/lv_draw_sw_blend.c ****                     last_res_color = blend_fp(color, dest_buf[x], opa_tmp);
 598:Drivers/lvgl/src/draw/sw/lv_draw_sw_blend.c ****                     last_mask = mask[x];
 599:Drivers/lvgl/src/draw/sw/lv_draw_sw_blend.c ****                     last_dest_color.full = dest_buf[x].full;
ARM GAS  /var/folders/0z/tsy30v1j4xl4_7kw94k978ww0000gn/T//ccll9Ln5.s 			page 12


 600:Drivers/lvgl/src/draw/sw/lv_draw_sw_blend.c ****                 }
 601:Drivers/lvgl/src/draw/sw/lv_draw_sw_blend.c ****                 dest_buf[x] = last_res_color;
 602:Drivers/lvgl/src/draw/sw/lv_draw_sw_blend.c ****             }
 603:Drivers/lvgl/src/draw/sw/lv_draw_sw_blend.c ****             dest_buf += dest_stride;
 604:Drivers/lvgl/src/draw/sw/lv_draw_sw_blend.c ****             mask += mask_stride;
 605:Drivers/lvgl/src/draw/sw/lv_draw_sw_blend.c ****         }
 606:Drivers/lvgl/src/draw/sw/lv_draw_sw_blend.c ****     }
 607:Drivers/lvgl/src/draw/sw/lv_draw_sw_blend.c **** }
 608:Drivers/lvgl/src/draw/sw/lv_draw_sw_blend.c **** #endif
 609:Drivers/lvgl/src/draw/sw/lv_draw_sw_blend.c **** 
 610:Drivers/lvgl/src/draw/sw/lv_draw_sw_blend.c **** static void map_set_px(lv_color_t * dest_buf, const lv_area_t * dest_area, lv_coord_t dest_stride,
 611:Drivers/lvgl/src/draw/sw/lv_draw_sw_blend.c ****                        const lv_color_t * src_buf, lv_coord_t src_stride, lv_opa_t opa,
 612:Drivers/lvgl/src/draw/sw/lv_draw_sw_blend.c ****                        const lv_opa_t * mask, lv_coord_t mask_stride)
 613:Drivers/lvgl/src/draw/sw/lv_draw_sw_blend.c **** 
 614:Drivers/lvgl/src/draw/sw/lv_draw_sw_blend.c **** {
 615:Drivers/lvgl/src/draw/sw/lv_draw_sw_blend.c ****     lv_disp_t * disp = _lv_refr_get_disp_refreshing();
 616:Drivers/lvgl/src/draw/sw/lv_draw_sw_blend.c **** 
 617:Drivers/lvgl/src/draw/sw/lv_draw_sw_blend.c ****     int32_t w = lv_area_get_width(dest_area);
 618:Drivers/lvgl/src/draw/sw/lv_draw_sw_blend.c ****     int32_t h = lv_area_get_height(dest_area);
 619:Drivers/lvgl/src/draw/sw/lv_draw_sw_blend.c **** 
 620:Drivers/lvgl/src/draw/sw/lv_draw_sw_blend.c ****     int32_t x;
 621:Drivers/lvgl/src/draw/sw/lv_draw_sw_blend.c ****     int32_t y;
 622:Drivers/lvgl/src/draw/sw/lv_draw_sw_blend.c **** 
 623:Drivers/lvgl/src/draw/sw/lv_draw_sw_blend.c ****     if(mask == NULL) {
 624:Drivers/lvgl/src/draw/sw/lv_draw_sw_blend.c ****         for(y = 0; y < h; y++) {
 625:Drivers/lvgl/src/draw/sw/lv_draw_sw_blend.c ****             for(x = 0; x < w; x++) {
 626:Drivers/lvgl/src/draw/sw/lv_draw_sw_blend.c ****                 disp->driver->set_px_cb(disp->driver, (void *)dest_buf, dest_stride, dest_area->x1 
 627:Drivers/lvgl/src/draw/sw/lv_draw_sw_blend.c ****                                         opa);
 628:Drivers/lvgl/src/draw/sw/lv_draw_sw_blend.c ****             }
 629:Drivers/lvgl/src/draw/sw/lv_draw_sw_blend.c ****             src_buf += src_stride;
 630:Drivers/lvgl/src/draw/sw/lv_draw_sw_blend.c ****         }
 631:Drivers/lvgl/src/draw/sw/lv_draw_sw_blend.c ****     }
 632:Drivers/lvgl/src/draw/sw/lv_draw_sw_blend.c ****     else {
 633:Drivers/lvgl/src/draw/sw/lv_draw_sw_blend.c ****         for(y = 0; y < h; y++) {
 634:Drivers/lvgl/src/draw/sw/lv_draw_sw_blend.c ****             for(x = 0; x < w; x++) {
 635:Drivers/lvgl/src/draw/sw/lv_draw_sw_blend.c ****                 if(mask[x]) {
 636:Drivers/lvgl/src/draw/sw/lv_draw_sw_blend.c ****                     disp->driver->set_px_cb(disp->driver, (void *)dest_buf, dest_stride, dest_area-
 637:Drivers/lvgl/src/draw/sw/lv_draw_sw_blend.c ****                                             (uint32_t)((uint32_t)opa * mask[x]) >> 8);
 638:Drivers/lvgl/src/draw/sw/lv_draw_sw_blend.c ****                 }
 639:Drivers/lvgl/src/draw/sw/lv_draw_sw_blend.c ****             }
 640:Drivers/lvgl/src/draw/sw/lv_draw_sw_blend.c ****             mask += mask_stride;
 641:Drivers/lvgl/src/draw/sw/lv_draw_sw_blend.c ****             src_buf += src_stride;
 642:Drivers/lvgl/src/draw/sw/lv_draw_sw_blend.c ****         }
 643:Drivers/lvgl/src/draw/sw/lv_draw_sw_blend.c ****     }
 644:Drivers/lvgl/src/draw/sw/lv_draw_sw_blend.c **** }
 645:Drivers/lvgl/src/draw/sw/lv_draw_sw_blend.c **** 
 646:Drivers/lvgl/src/draw/sw/lv_draw_sw_blend.c **** static void LV_ATTRIBUTE_FAST_MEM map_normal(lv_color_t * dest_buf, const lv_area_t * dest_area,
 647:Drivers/lvgl/src/draw/sw/lv_draw_sw_blend.c ****                                              lv_coord_t dest_stride, const lv_color_t * src_buf,
 648:Drivers/lvgl/src/draw/sw/lv_draw_sw_blend.c ****                                              lv_coord_t src_stride, lv_opa_t opa, const lv_opa_t * 
 649:Drivers/lvgl/src/draw/sw/lv_draw_sw_blend.c ****                                              lv_coord_t mask_stride)
 650:Drivers/lvgl/src/draw/sw/lv_draw_sw_blend.c **** 
 651:Drivers/lvgl/src/draw/sw/lv_draw_sw_blend.c **** {
 652:Drivers/lvgl/src/draw/sw/lv_draw_sw_blend.c ****     int32_t w = lv_area_get_width(dest_area);
 653:Drivers/lvgl/src/draw/sw/lv_draw_sw_blend.c ****     int32_t h = lv_area_get_height(dest_area);
 654:Drivers/lvgl/src/draw/sw/lv_draw_sw_blend.c **** 
 655:Drivers/lvgl/src/draw/sw/lv_draw_sw_blend.c ****     int32_t x;
 656:Drivers/lvgl/src/draw/sw/lv_draw_sw_blend.c ****     int32_t y;
ARM GAS  /var/folders/0z/tsy30v1j4xl4_7kw94k978ww0000gn/T//ccll9Ln5.s 			page 13


 657:Drivers/lvgl/src/draw/sw/lv_draw_sw_blend.c **** 
 658:Drivers/lvgl/src/draw/sw/lv_draw_sw_blend.c ****     /*Simple fill (maybe with opacity), no masking*/
 659:Drivers/lvgl/src/draw/sw/lv_draw_sw_blend.c ****     if(mask == NULL) {
 660:Drivers/lvgl/src/draw/sw/lv_draw_sw_blend.c ****         if(opa >= LV_OPA_MAX) {
 661:Drivers/lvgl/src/draw/sw/lv_draw_sw_blend.c ****             for(y = 0; y < h; y++) {
 662:Drivers/lvgl/src/draw/sw/lv_draw_sw_blend.c ****                 lv_memcpy(dest_buf, src_buf, w * sizeof(lv_color_t));
 663:Drivers/lvgl/src/draw/sw/lv_draw_sw_blend.c ****                 dest_buf += dest_stride;
 664:Drivers/lvgl/src/draw/sw/lv_draw_sw_blend.c ****                 src_buf += src_stride;
 665:Drivers/lvgl/src/draw/sw/lv_draw_sw_blend.c ****             }
 666:Drivers/lvgl/src/draw/sw/lv_draw_sw_blend.c ****         }
 667:Drivers/lvgl/src/draw/sw/lv_draw_sw_blend.c ****         else {
 668:Drivers/lvgl/src/draw/sw/lv_draw_sw_blend.c ****             for(y = 0; y < h; y++) {
 669:Drivers/lvgl/src/draw/sw/lv_draw_sw_blend.c ****                 for(x = 0; x < w; x++) {
 670:Drivers/lvgl/src/draw/sw/lv_draw_sw_blend.c ****                     dest_buf[x] = lv_color_mix(src_buf[x], dest_buf[x], opa);
 671:Drivers/lvgl/src/draw/sw/lv_draw_sw_blend.c ****                 }
 672:Drivers/lvgl/src/draw/sw/lv_draw_sw_blend.c ****                 dest_buf += dest_stride;
 673:Drivers/lvgl/src/draw/sw/lv_draw_sw_blend.c ****                 src_buf += src_stride;
 674:Drivers/lvgl/src/draw/sw/lv_draw_sw_blend.c ****             }
 675:Drivers/lvgl/src/draw/sw/lv_draw_sw_blend.c ****         }
 676:Drivers/lvgl/src/draw/sw/lv_draw_sw_blend.c ****     }
 677:Drivers/lvgl/src/draw/sw/lv_draw_sw_blend.c ****     /*Masked*/
 678:Drivers/lvgl/src/draw/sw/lv_draw_sw_blend.c ****     else {
 679:Drivers/lvgl/src/draw/sw/lv_draw_sw_blend.c ****         /*Only the mask matters*/
 680:Drivers/lvgl/src/draw/sw/lv_draw_sw_blend.c ****         if(opa > LV_OPA_MAX) {
 681:Drivers/lvgl/src/draw/sw/lv_draw_sw_blend.c ****             int32_t x_end4 = w - 4;
 682:Drivers/lvgl/src/draw/sw/lv_draw_sw_blend.c **** 
 683:Drivers/lvgl/src/draw/sw/lv_draw_sw_blend.c ****             for(y = 0; y < h; y++) {
 684:Drivers/lvgl/src/draw/sw/lv_draw_sw_blend.c ****                 const lv_opa_t * mask_tmp_x = mask;
 685:Drivers/lvgl/src/draw/sw/lv_draw_sw_blend.c **** #if 0
 686:Drivers/lvgl/src/draw/sw/lv_draw_sw_blend.c ****                 for(x = 0; x < w; x++) {
 687:Drivers/lvgl/src/draw/sw/lv_draw_sw_blend.c ****                     MAP_NORMAL_MASK_PX(x);
 688:Drivers/lvgl/src/draw/sw/lv_draw_sw_blend.c ****                 }
 689:Drivers/lvgl/src/draw/sw/lv_draw_sw_blend.c **** #else
 690:Drivers/lvgl/src/draw/sw/lv_draw_sw_blend.c ****                 for(x = 0; x < w && ((lv_uintptr_t)mask_tmp_x & 0x3); x++) {
 691:Drivers/lvgl/src/draw/sw/lv_draw_sw_blend.c ****                     MAP_NORMAL_MASK_PX(x)
 692:Drivers/lvgl/src/draw/sw/lv_draw_sw_blend.c ****                 }
 693:Drivers/lvgl/src/draw/sw/lv_draw_sw_blend.c **** 
 694:Drivers/lvgl/src/draw/sw/lv_draw_sw_blend.c ****                 uint32_t * mask32 = (uint32_t *)mask_tmp_x;
 695:Drivers/lvgl/src/draw/sw/lv_draw_sw_blend.c ****                 for(; x < x_end4; x += 4) {
 696:Drivers/lvgl/src/draw/sw/lv_draw_sw_blend.c ****                     if(*mask32) {
 697:Drivers/lvgl/src/draw/sw/lv_draw_sw_blend.c ****                         if((*mask32) == 0xFFFFFFFF) {
 698:Drivers/lvgl/src/draw/sw/lv_draw_sw_blend.c ****                             dest_buf[x] = src_buf[x];
 699:Drivers/lvgl/src/draw/sw/lv_draw_sw_blend.c ****                             dest_buf[x + 1] = src_buf[x + 1];
 700:Drivers/lvgl/src/draw/sw/lv_draw_sw_blend.c ****                             dest_buf[x + 2] = src_buf[x + 2];
 701:Drivers/lvgl/src/draw/sw/lv_draw_sw_blend.c ****                             dest_buf[x + 3] = src_buf[x + 3];
 702:Drivers/lvgl/src/draw/sw/lv_draw_sw_blend.c ****                         }
 703:Drivers/lvgl/src/draw/sw/lv_draw_sw_blend.c ****                         else {
 704:Drivers/lvgl/src/draw/sw/lv_draw_sw_blend.c ****                             mask_tmp_x = (const lv_opa_t *)mask32;
 705:Drivers/lvgl/src/draw/sw/lv_draw_sw_blend.c ****                             MAP_NORMAL_MASK_PX(x)
 706:Drivers/lvgl/src/draw/sw/lv_draw_sw_blend.c ****                             MAP_NORMAL_MASK_PX(x + 1)
 707:Drivers/lvgl/src/draw/sw/lv_draw_sw_blend.c ****                             MAP_NORMAL_MASK_PX(x + 2)
 708:Drivers/lvgl/src/draw/sw/lv_draw_sw_blend.c ****                             MAP_NORMAL_MASK_PX(x + 3)
 709:Drivers/lvgl/src/draw/sw/lv_draw_sw_blend.c ****                         }
 710:Drivers/lvgl/src/draw/sw/lv_draw_sw_blend.c ****                     }
 711:Drivers/lvgl/src/draw/sw/lv_draw_sw_blend.c ****                     mask32++;
 712:Drivers/lvgl/src/draw/sw/lv_draw_sw_blend.c ****                 }
 713:Drivers/lvgl/src/draw/sw/lv_draw_sw_blend.c **** 
ARM GAS  /var/folders/0z/tsy30v1j4xl4_7kw94k978ww0000gn/T//ccll9Ln5.s 			page 14


 714:Drivers/lvgl/src/draw/sw/lv_draw_sw_blend.c ****                 mask_tmp_x = (const lv_opa_t *)mask32;
 715:Drivers/lvgl/src/draw/sw/lv_draw_sw_blend.c ****                 for(; x < w ; x++) {
 716:Drivers/lvgl/src/draw/sw/lv_draw_sw_blend.c ****                     MAP_NORMAL_MASK_PX(x)
 717:Drivers/lvgl/src/draw/sw/lv_draw_sw_blend.c ****                 }
 718:Drivers/lvgl/src/draw/sw/lv_draw_sw_blend.c **** #endif
 719:Drivers/lvgl/src/draw/sw/lv_draw_sw_blend.c ****                 dest_buf += dest_stride;
 720:Drivers/lvgl/src/draw/sw/lv_draw_sw_blend.c ****                 src_buf += src_stride;
 721:Drivers/lvgl/src/draw/sw/lv_draw_sw_blend.c ****                 mask += mask_stride;
 722:Drivers/lvgl/src/draw/sw/lv_draw_sw_blend.c ****             }
 723:Drivers/lvgl/src/draw/sw/lv_draw_sw_blend.c ****         }
 724:Drivers/lvgl/src/draw/sw/lv_draw_sw_blend.c ****         /*Handle opa and mask values too*/
 725:Drivers/lvgl/src/draw/sw/lv_draw_sw_blend.c ****         else {
 726:Drivers/lvgl/src/draw/sw/lv_draw_sw_blend.c ****             for(y = 0; y < h; y++) {
 727:Drivers/lvgl/src/draw/sw/lv_draw_sw_blend.c ****                 for(x = 0; x < w; x++) {
 728:Drivers/lvgl/src/draw/sw/lv_draw_sw_blend.c ****                     if(mask[x]) {
 729:Drivers/lvgl/src/draw/sw/lv_draw_sw_blend.c ****                         lv_opa_t opa_tmp = mask[x] >= LV_OPA_MAX ? opa : ((opa * mask[x]) >> 8);
 730:Drivers/lvgl/src/draw/sw/lv_draw_sw_blend.c ****                         dest_buf[x] = lv_color_mix(src_buf[x], dest_buf[x], opa_tmp);
 731:Drivers/lvgl/src/draw/sw/lv_draw_sw_blend.c ****                     }
 732:Drivers/lvgl/src/draw/sw/lv_draw_sw_blend.c ****                 }
 733:Drivers/lvgl/src/draw/sw/lv_draw_sw_blend.c ****                 dest_buf += dest_stride;
 734:Drivers/lvgl/src/draw/sw/lv_draw_sw_blend.c ****                 src_buf += src_stride;
 735:Drivers/lvgl/src/draw/sw/lv_draw_sw_blend.c ****                 mask += mask_stride;
 736:Drivers/lvgl/src/draw/sw/lv_draw_sw_blend.c ****             }
 737:Drivers/lvgl/src/draw/sw/lv_draw_sw_blend.c ****         }
 738:Drivers/lvgl/src/draw/sw/lv_draw_sw_blend.c ****     }
 739:Drivers/lvgl/src/draw/sw/lv_draw_sw_blend.c **** }
 740:Drivers/lvgl/src/draw/sw/lv_draw_sw_blend.c **** 
 741:Drivers/lvgl/src/draw/sw/lv_draw_sw_blend.c **** 
 742:Drivers/lvgl/src/draw/sw/lv_draw_sw_blend.c **** 
 743:Drivers/lvgl/src/draw/sw/lv_draw_sw_blend.c **** #if LV_COLOR_SCREEN_TRANSP
 744:Drivers/lvgl/src/draw/sw/lv_draw_sw_blend.c **** static void LV_ATTRIBUTE_FAST_MEM map_argb(lv_color_t * dest_buf, const lv_area_t * dest_area,
 745:Drivers/lvgl/src/draw/sw/lv_draw_sw_blend.c ****                                            lv_coord_t dest_stride, const lv_color_t * src_buf,
 746:Drivers/lvgl/src/draw/sw/lv_draw_sw_blend.c ****                                            lv_coord_t src_stride, lv_opa_t opa, const lv_opa_t * ma
 747:Drivers/lvgl/src/draw/sw/lv_draw_sw_blend.c ****                                            lv_coord_t mask_stride, lv_blend_mode_t blend_mode)
 748:Drivers/lvgl/src/draw/sw/lv_draw_sw_blend.c **** 
 749:Drivers/lvgl/src/draw/sw/lv_draw_sw_blend.c **** {
 750:Drivers/lvgl/src/draw/sw/lv_draw_sw_blend.c ****     uint8_t * dest_buf8 = (uint8_t *) dest_buf;
 751:Drivers/lvgl/src/draw/sw/lv_draw_sw_blend.c **** 
 752:Drivers/lvgl/src/draw/sw/lv_draw_sw_blend.c ****     int32_t w = lv_area_get_width(dest_area);
 753:Drivers/lvgl/src/draw/sw/lv_draw_sw_blend.c ****     int32_t h = lv_area_get_height(dest_area);
 754:Drivers/lvgl/src/draw/sw/lv_draw_sw_blend.c **** 
 755:Drivers/lvgl/src/draw/sw/lv_draw_sw_blend.c ****     int32_t x;
 756:Drivers/lvgl/src/draw/sw/lv_draw_sw_blend.c ****     int32_t y;
 757:Drivers/lvgl/src/draw/sw/lv_draw_sw_blend.c **** 
 758:Drivers/lvgl/src/draw/sw/lv_draw_sw_blend.c ****     lv_color_t (*blend_fp)(lv_color_t, lv_color_t, lv_opa_t);
 759:Drivers/lvgl/src/draw/sw/lv_draw_sw_blend.c ****     switch(blend_mode) {
 760:Drivers/lvgl/src/draw/sw/lv_draw_sw_blend.c ****         case LV_BLEND_MODE_ADDITIVE:
 761:Drivers/lvgl/src/draw/sw/lv_draw_sw_blend.c ****             blend_fp = color_blend_true_color_additive;
 762:Drivers/lvgl/src/draw/sw/lv_draw_sw_blend.c ****             break;
 763:Drivers/lvgl/src/draw/sw/lv_draw_sw_blend.c ****         case LV_BLEND_MODE_SUBTRACTIVE:
 764:Drivers/lvgl/src/draw/sw/lv_draw_sw_blend.c ****             blend_fp = color_blend_true_color_subtractive;
 765:Drivers/lvgl/src/draw/sw/lv_draw_sw_blend.c ****             break;
 766:Drivers/lvgl/src/draw/sw/lv_draw_sw_blend.c ****         case LV_BLEND_MODE_MULTIPLY:
 767:Drivers/lvgl/src/draw/sw/lv_draw_sw_blend.c ****             blend_fp = color_blend_true_color_multiply;
 768:Drivers/lvgl/src/draw/sw/lv_draw_sw_blend.c ****             break;
 769:Drivers/lvgl/src/draw/sw/lv_draw_sw_blend.c ****         default:
 770:Drivers/lvgl/src/draw/sw/lv_draw_sw_blend.c ****             blend_fp = NULL;
ARM GAS  /var/folders/0z/tsy30v1j4xl4_7kw94k978ww0000gn/T//ccll9Ln5.s 			page 15


 771:Drivers/lvgl/src/draw/sw/lv_draw_sw_blend.c ****     }
 772:Drivers/lvgl/src/draw/sw/lv_draw_sw_blend.c **** 
 773:Drivers/lvgl/src/draw/sw/lv_draw_sw_blend.c ****     /*Simple fill (maybe with opacity), no masking*/
 774:Drivers/lvgl/src/draw/sw/lv_draw_sw_blend.c ****     if(mask == NULL) {
 775:Drivers/lvgl/src/draw/sw/lv_draw_sw_blend.c ****         if(opa >= LV_OPA_MAX) {
 776:Drivers/lvgl/src/draw/sw/lv_draw_sw_blend.c ****             if(blend_fp == NULL && LV_COLOR_DEPTH == 32) {
 777:Drivers/lvgl/src/draw/sw/lv_draw_sw_blend.c ****                 for(y = 0; y < h; y++) {
 778:Drivers/lvgl/src/draw/sw/lv_draw_sw_blend.c ****                     lv_memcpy(dest_buf, src_buf, w * sizeof(lv_color_t));
 779:Drivers/lvgl/src/draw/sw/lv_draw_sw_blend.c ****                     dest_buf += dest_stride;
 780:Drivers/lvgl/src/draw/sw/lv_draw_sw_blend.c ****                     src_buf += src_stride;
 781:Drivers/lvgl/src/draw/sw/lv_draw_sw_blend.c ****                 }
 782:Drivers/lvgl/src/draw/sw/lv_draw_sw_blend.c ****             }
 783:Drivers/lvgl/src/draw/sw/lv_draw_sw_blend.c ****             else {
 784:Drivers/lvgl/src/draw/sw/lv_draw_sw_blend.c ****                 uint8_t * dest_buf8_row = dest_buf8;
 785:Drivers/lvgl/src/draw/sw/lv_draw_sw_blend.c ****                 for(y = 0; y < h; y++) {
 786:Drivers/lvgl/src/draw/sw/lv_draw_sw_blend.c ****                     if(blend_fp == NULL) {
 787:Drivers/lvgl/src/draw/sw/lv_draw_sw_blend.c ****                         for(x = 0; x < w; x++) {
 788:Drivers/lvgl/src/draw/sw/lv_draw_sw_blend.c ****                             set_px_argb(dest_buf8, src_buf[x], LV_OPA_COVER);
 789:Drivers/lvgl/src/draw/sw/lv_draw_sw_blend.c ****                             dest_buf8 += LV_IMG_PX_SIZE_ALPHA_BYTE;
 790:Drivers/lvgl/src/draw/sw/lv_draw_sw_blend.c ****                         }
 791:Drivers/lvgl/src/draw/sw/lv_draw_sw_blend.c ****                     }
 792:Drivers/lvgl/src/draw/sw/lv_draw_sw_blend.c ****                     else {
 793:Drivers/lvgl/src/draw/sw/lv_draw_sw_blend.c ****                         for(x = 0; x < w; x++) {
 794:Drivers/lvgl/src/draw/sw/lv_draw_sw_blend.c ****                             set_px_argb_blend(dest_buf8, src_buf[x], LV_OPA_COVER, blend_fp);
 795:Drivers/lvgl/src/draw/sw/lv_draw_sw_blend.c ****                             dest_buf8 += LV_IMG_PX_SIZE_ALPHA_BYTE;
 796:Drivers/lvgl/src/draw/sw/lv_draw_sw_blend.c ****                         }
 797:Drivers/lvgl/src/draw/sw/lv_draw_sw_blend.c ****                     }
 798:Drivers/lvgl/src/draw/sw/lv_draw_sw_blend.c **** 
 799:Drivers/lvgl/src/draw/sw/lv_draw_sw_blend.c ****                     dest_buf8_row += dest_stride * LV_IMG_PX_SIZE_ALPHA_BYTE;
 800:Drivers/lvgl/src/draw/sw/lv_draw_sw_blend.c ****                     dest_buf8 = dest_buf8_row;
 801:Drivers/lvgl/src/draw/sw/lv_draw_sw_blend.c ****                     src_buf += src_stride;
 802:Drivers/lvgl/src/draw/sw/lv_draw_sw_blend.c ****                 }
 803:Drivers/lvgl/src/draw/sw/lv_draw_sw_blend.c ****             }
 804:Drivers/lvgl/src/draw/sw/lv_draw_sw_blend.c ****         }
 805:Drivers/lvgl/src/draw/sw/lv_draw_sw_blend.c ****         /*No mask but opacity*/
 806:Drivers/lvgl/src/draw/sw/lv_draw_sw_blend.c ****         else {
 807:Drivers/lvgl/src/draw/sw/lv_draw_sw_blend.c ****             uint8_t * dest_buf8_row = dest_buf8;
 808:Drivers/lvgl/src/draw/sw/lv_draw_sw_blend.c ****             for(y = 0; y < h; y++) {
 809:Drivers/lvgl/src/draw/sw/lv_draw_sw_blend.c ****                 if(blend_fp == NULL) {
 810:Drivers/lvgl/src/draw/sw/lv_draw_sw_blend.c ****                     for(x = 0; x < w; x++) {
 811:Drivers/lvgl/src/draw/sw/lv_draw_sw_blend.c ****                         set_px_argb(dest_buf8, src_buf[x], opa);
 812:Drivers/lvgl/src/draw/sw/lv_draw_sw_blend.c ****                         dest_buf8 += LV_IMG_PX_SIZE_ALPHA_BYTE;
 813:Drivers/lvgl/src/draw/sw/lv_draw_sw_blend.c ****                     }
 814:Drivers/lvgl/src/draw/sw/lv_draw_sw_blend.c ****                 }
 815:Drivers/lvgl/src/draw/sw/lv_draw_sw_blend.c ****                 else {
 816:Drivers/lvgl/src/draw/sw/lv_draw_sw_blend.c ****                     for(x = 0; x < w; x++) {
 817:Drivers/lvgl/src/draw/sw/lv_draw_sw_blend.c ****                         set_px_argb_blend(dest_buf8, src_buf[x], opa, blend_fp);
 818:Drivers/lvgl/src/draw/sw/lv_draw_sw_blend.c ****                         dest_buf8 += LV_IMG_PX_SIZE_ALPHA_BYTE;
 819:Drivers/lvgl/src/draw/sw/lv_draw_sw_blend.c ****                     }
 820:Drivers/lvgl/src/draw/sw/lv_draw_sw_blend.c ****                 }
 821:Drivers/lvgl/src/draw/sw/lv_draw_sw_blend.c **** 
 822:Drivers/lvgl/src/draw/sw/lv_draw_sw_blend.c ****                 dest_buf8_row += dest_stride * LV_IMG_PX_SIZE_ALPHA_BYTE;
 823:Drivers/lvgl/src/draw/sw/lv_draw_sw_blend.c ****                 dest_buf8 = dest_buf8_row;
 824:Drivers/lvgl/src/draw/sw/lv_draw_sw_blend.c ****                 src_buf += src_stride;
 825:Drivers/lvgl/src/draw/sw/lv_draw_sw_blend.c ****             }
 826:Drivers/lvgl/src/draw/sw/lv_draw_sw_blend.c ****         }
 827:Drivers/lvgl/src/draw/sw/lv_draw_sw_blend.c ****     }
ARM GAS  /var/folders/0z/tsy30v1j4xl4_7kw94k978ww0000gn/T//ccll9Ln5.s 			page 16


 828:Drivers/lvgl/src/draw/sw/lv_draw_sw_blend.c ****     /*Masked*/
 829:Drivers/lvgl/src/draw/sw/lv_draw_sw_blend.c ****     else {
 830:Drivers/lvgl/src/draw/sw/lv_draw_sw_blend.c ****         /*Only the mask matters*/
 831:Drivers/lvgl/src/draw/sw/lv_draw_sw_blend.c ****         if(opa > LV_OPA_MAX) {
 832:Drivers/lvgl/src/draw/sw/lv_draw_sw_blend.c ****             uint8_t * dest_buf8_row = dest_buf8;
 833:Drivers/lvgl/src/draw/sw/lv_draw_sw_blend.c ****             for(y = 0; y < h; y++) {
 834:Drivers/lvgl/src/draw/sw/lv_draw_sw_blend.c ****                 if(blend_fp == NULL) {
 835:Drivers/lvgl/src/draw/sw/lv_draw_sw_blend.c ****                     for(x = 0; x < w; x++) {
 836:Drivers/lvgl/src/draw/sw/lv_draw_sw_blend.c ****                         set_px_argb(dest_buf8, src_buf[x], mask[x]);
 837:Drivers/lvgl/src/draw/sw/lv_draw_sw_blend.c ****                         dest_buf8 += LV_IMG_PX_SIZE_ALPHA_BYTE;
 838:Drivers/lvgl/src/draw/sw/lv_draw_sw_blend.c ****                     }
 839:Drivers/lvgl/src/draw/sw/lv_draw_sw_blend.c ****                 }
 840:Drivers/lvgl/src/draw/sw/lv_draw_sw_blend.c ****                 else {
 841:Drivers/lvgl/src/draw/sw/lv_draw_sw_blend.c ****                     for(x = 0; x < w; x++) {
 842:Drivers/lvgl/src/draw/sw/lv_draw_sw_blend.c ****                         set_px_argb_blend(dest_buf8, src_buf[x], mask[x], blend_fp);
 843:Drivers/lvgl/src/draw/sw/lv_draw_sw_blend.c ****                         dest_buf8 += LV_IMG_PX_SIZE_ALPHA_BYTE;
 844:Drivers/lvgl/src/draw/sw/lv_draw_sw_blend.c ****                     }
 845:Drivers/lvgl/src/draw/sw/lv_draw_sw_blend.c ****                 }
 846:Drivers/lvgl/src/draw/sw/lv_draw_sw_blend.c ****                 dest_buf8_row += dest_stride * LV_IMG_PX_SIZE_ALPHA_BYTE;
 847:Drivers/lvgl/src/draw/sw/lv_draw_sw_blend.c ****                 dest_buf8 = dest_buf8_row;
 848:Drivers/lvgl/src/draw/sw/lv_draw_sw_blend.c ****                 src_buf += src_stride;
 849:Drivers/lvgl/src/draw/sw/lv_draw_sw_blend.c ****                 mask += mask_stride;
 850:Drivers/lvgl/src/draw/sw/lv_draw_sw_blend.c ****             }
 851:Drivers/lvgl/src/draw/sw/lv_draw_sw_blend.c ****         }
 852:Drivers/lvgl/src/draw/sw/lv_draw_sw_blend.c ****         /*Handle opa and mask values too*/
 853:Drivers/lvgl/src/draw/sw/lv_draw_sw_blend.c ****         else {
 854:Drivers/lvgl/src/draw/sw/lv_draw_sw_blend.c ****             uint8_t * dest_buf8_row = dest_buf8;
 855:Drivers/lvgl/src/draw/sw/lv_draw_sw_blend.c ****             for(y = 0; y < h; y++) {
 856:Drivers/lvgl/src/draw/sw/lv_draw_sw_blend.c ****                 if(blend_fp == NULL) {
 857:Drivers/lvgl/src/draw/sw/lv_draw_sw_blend.c ****                     for(x = 0; x < w; x++) {
 858:Drivers/lvgl/src/draw/sw/lv_draw_sw_blend.c ****                         if(mask[x]) {
 859:Drivers/lvgl/src/draw/sw/lv_draw_sw_blend.c ****                             lv_opa_t opa_tmp = mask[x] >= LV_OPA_MAX ? opa : ((opa * mask[x]) >> 8)
 860:Drivers/lvgl/src/draw/sw/lv_draw_sw_blend.c ****                             set_px_argb(dest_buf8, src_buf[x], opa_tmp);
 861:Drivers/lvgl/src/draw/sw/lv_draw_sw_blend.c ****                         }
 862:Drivers/lvgl/src/draw/sw/lv_draw_sw_blend.c ****                         dest_buf8 += LV_IMG_PX_SIZE_ALPHA_BYTE;
 863:Drivers/lvgl/src/draw/sw/lv_draw_sw_blend.c ****                     }
 864:Drivers/lvgl/src/draw/sw/lv_draw_sw_blend.c ****                 }
 865:Drivers/lvgl/src/draw/sw/lv_draw_sw_blend.c ****                 else {
 866:Drivers/lvgl/src/draw/sw/lv_draw_sw_blend.c ****                     for(x = 0; x < w; x++) {
 867:Drivers/lvgl/src/draw/sw/lv_draw_sw_blend.c ****                         if(mask[x]) {
 868:Drivers/lvgl/src/draw/sw/lv_draw_sw_blend.c ****                             lv_opa_t opa_tmp = mask[x] >= LV_OPA_MAX ? opa : ((opa * mask[x]) >> 8)
 869:Drivers/lvgl/src/draw/sw/lv_draw_sw_blend.c ****                             set_px_argb_blend(dest_buf8, src_buf[x], opa_tmp, blend_fp);
 870:Drivers/lvgl/src/draw/sw/lv_draw_sw_blend.c ****                         }
 871:Drivers/lvgl/src/draw/sw/lv_draw_sw_blend.c ****                         dest_buf8 += LV_IMG_PX_SIZE_ALPHA_BYTE;
 872:Drivers/lvgl/src/draw/sw/lv_draw_sw_blend.c ****                     }
 873:Drivers/lvgl/src/draw/sw/lv_draw_sw_blend.c ****                 }
 874:Drivers/lvgl/src/draw/sw/lv_draw_sw_blend.c ****                 dest_buf8_row += dest_stride * LV_IMG_PX_SIZE_ALPHA_BYTE;
 875:Drivers/lvgl/src/draw/sw/lv_draw_sw_blend.c ****                 dest_buf8 = dest_buf8_row;
 876:Drivers/lvgl/src/draw/sw/lv_draw_sw_blend.c ****                 src_buf += src_stride;
 877:Drivers/lvgl/src/draw/sw/lv_draw_sw_blend.c ****                 mask += mask_stride;
 878:Drivers/lvgl/src/draw/sw/lv_draw_sw_blend.c ****             }
 879:Drivers/lvgl/src/draw/sw/lv_draw_sw_blend.c ****         }
 880:Drivers/lvgl/src/draw/sw/lv_draw_sw_blend.c ****     }
 881:Drivers/lvgl/src/draw/sw/lv_draw_sw_blend.c **** }
 882:Drivers/lvgl/src/draw/sw/lv_draw_sw_blend.c **** #endif
 883:Drivers/lvgl/src/draw/sw/lv_draw_sw_blend.c **** 
 884:Drivers/lvgl/src/draw/sw/lv_draw_sw_blend.c **** 
ARM GAS  /var/folders/0z/tsy30v1j4xl4_7kw94k978ww0000gn/T//ccll9Ln5.s 			page 17


 885:Drivers/lvgl/src/draw/sw/lv_draw_sw_blend.c **** #if LV_DRAW_COMPLEX
 886:Drivers/lvgl/src/draw/sw/lv_draw_sw_blend.c **** static void map_blended(lv_color_t * dest_buf, const lv_area_t * dest_area, lv_coord_t dest_stride,
 887:Drivers/lvgl/src/draw/sw/lv_draw_sw_blend.c ****                         const lv_color_t * src_buf, lv_coord_t src_stride, lv_opa_t opa,
 888:Drivers/lvgl/src/draw/sw/lv_draw_sw_blend.c ****                         const lv_opa_t * mask, lv_coord_t mask_stride, lv_blend_mode_t blend_mode)
 889:Drivers/lvgl/src/draw/sw/lv_draw_sw_blend.c **** {
 890:Drivers/lvgl/src/draw/sw/lv_draw_sw_blend.c **** 
 891:Drivers/lvgl/src/draw/sw/lv_draw_sw_blend.c ****     int32_t w = lv_area_get_width(dest_area);
 892:Drivers/lvgl/src/draw/sw/lv_draw_sw_blend.c ****     int32_t h = lv_area_get_height(dest_area);
 893:Drivers/lvgl/src/draw/sw/lv_draw_sw_blend.c **** 
 894:Drivers/lvgl/src/draw/sw/lv_draw_sw_blend.c ****     int32_t x;
 895:Drivers/lvgl/src/draw/sw/lv_draw_sw_blend.c ****     int32_t y;
 896:Drivers/lvgl/src/draw/sw/lv_draw_sw_blend.c **** 
 897:Drivers/lvgl/src/draw/sw/lv_draw_sw_blend.c ****     lv_color_t (*blend_fp)(lv_color_t, lv_color_t, lv_opa_t);
 898:Drivers/lvgl/src/draw/sw/lv_draw_sw_blend.c ****     switch(blend_mode) {
 899:Drivers/lvgl/src/draw/sw/lv_draw_sw_blend.c ****         case LV_BLEND_MODE_ADDITIVE:
 900:Drivers/lvgl/src/draw/sw/lv_draw_sw_blend.c ****             blend_fp = color_blend_true_color_additive;
 901:Drivers/lvgl/src/draw/sw/lv_draw_sw_blend.c ****             break;
 902:Drivers/lvgl/src/draw/sw/lv_draw_sw_blend.c ****         case LV_BLEND_MODE_SUBTRACTIVE:
 903:Drivers/lvgl/src/draw/sw/lv_draw_sw_blend.c ****             blend_fp = color_blend_true_color_subtractive;
 904:Drivers/lvgl/src/draw/sw/lv_draw_sw_blend.c ****             break;
 905:Drivers/lvgl/src/draw/sw/lv_draw_sw_blend.c ****         case LV_BLEND_MODE_MULTIPLY:
 906:Drivers/lvgl/src/draw/sw/lv_draw_sw_blend.c ****             blend_fp = color_blend_true_color_multiply;
 907:Drivers/lvgl/src/draw/sw/lv_draw_sw_blend.c ****             break;
 908:Drivers/lvgl/src/draw/sw/lv_draw_sw_blend.c ****         default:
 909:Drivers/lvgl/src/draw/sw/lv_draw_sw_blend.c ****             LV_LOG_WARN("fill_blended: unsupported blend mode");
 910:Drivers/lvgl/src/draw/sw/lv_draw_sw_blend.c ****             return;
 911:Drivers/lvgl/src/draw/sw/lv_draw_sw_blend.c ****     }
 912:Drivers/lvgl/src/draw/sw/lv_draw_sw_blend.c **** 
 913:Drivers/lvgl/src/draw/sw/lv_draw_sw_blend.c ****     lv_color_t last_dest_color;
 914:Drivers/lvgl/src/draw/sw/lv_draw_sw_blend.c ****     lv_color_t last_src_color;
 915:Drivers/lvgl/src/draw/sw/lv_draw_sw_blend.c ****     /*Simple fill (maybe with opacity), no masking*/
 916:Drivers/lvgl/src/draw/sw/lv_draw_sw_blend.c ****     if(mask == NULL) {
 917:Drivers/lvgl/src/draw/sw/lv_draw_sw_blend.c ****         last_dest_color = dest_buf[0];
 918:Drivers/lvgl/src/draw/sw/lv_draw_sw_blend.c ****         last_src_color = src_buf[0];
 919:Drivers/lvgl/src/draw/sw/lv_draw_sw_blend.c ****         lv_color_t last_res_color = blend_fp(last_src_color, last_dest_color, opa);
 920:Drivers/lvgl/src/draw/sw/lv_draw_sw_blend.c ****         for(y = 0; y < h; y++) {
 921:Drivers/lvgl/src/draw/sw/lv_draw_sw_blend.c ****             for(x = 0; x < w; x++) {
 922:Drivers/lvgl/src/draw/sw/lv_draw_sw_blend.c ****                 if(last_src_color.full != src_buf[x].full || last_dest_color.full != dest_buf[x].fu
 923:Drivers/lvgl/src/draw/sw/lv_draw_sw_blend.c ****                     last_dest_color = dest_buf[x];
 924:Drivers/lvgl/src/draw/sw/lv_draw_sw_blend.c ****                     last_src_color = src_buf[x];
 925:Drivers/lvgl/src/draw/sw/lv_draw_sw_blend.c ****                     last_res_color = blend_fp(last_src_color, last_dest_color, opa);
 926:Drivers/lvgl/src/draw/sw/lv_draw_sw_blend.c ****                 }
 927:Drivers/lvgl/src/draw/sw/lv_draw_sw_blend.c ****                 dest_buf[x] = last_res_color;
 928:Drivers/lvgl/src/draw/sw/lv_draw_sw_blend.c ****             }
 929:Drivers/lvgl/src/draw/sw/lv_draw_sw_blend.c ****             dest_buf += dest_stride;
 930:Drivers/lvgl/src/draw/sw/lv_draw_sw_blend.c ****             src_buf += src_stride;
 931:Drivers/lvgl/src/draw/sw/lv_draw_sw_blend.c ****         }
 932:Drivers/lvgl/src/draw/sw/lv_draw_sw_blend.c ****     }
 933:Drivers/lvgl/src/draw/sw/lv_draw_sw_blend.c ****     /*Masked*/
 934:Drivers/lvgl/src/draw/sw/lv_draw_sw_blend.c ****     else {
 935:Drivers/lvgl/src/draw/sw/lv_draw_sw_blend.c ****         last_dest_color = dest_buf[0];
 936:Drivers/lvgl/src/draw/sw/lv_draw_sw_blend.c ****         last_src_color = src_buf[0];
 937:Drivers/lvgl/src/draw/sw/lv_draw_sw_blend.c ****         lv_opa_t last_opa = mask[0] >= LV_OPA_MAX ? opa : ((opa * mask[0]) >> 8);
 938:Drivers/lvgl/src/draw/sw/lv_draw_sw_blend.c ****         lv_color_t last_res_color = blend_fp(last_src_color, last_dest_color, last_opa);
 939:Drivers/lvgl/src/draw/sw/lv_draw_sw_blend.c ****         for(y = 0; y < h; y++) {
 940:Drivers/lvgl/src/draw/sw/lv_draw_sw_blend.c ****             for(x = 0; x < w; x++) {
 941:Drivers/lvgl/src/draw/sw/lv_draw_sw_blend.c ****                 if(mask[x] == 0) continue;
ARM GAS  /var/folders/0z/tsy30v1j4xl4_7kw94k978ww0000gn/T//ccll9Ln5.s 			page 18


 942:Drivers/lvgl/src/draw/sw/lv_draw_sw_blend.c ****                 lv_opa_t opa_tmp = mask[x] >= LV_OPA_MAX ? opa : ((opa * mask[x]) >> 8);
 943:Drivers/lvgl/src/draw/sw/lv_draw_sw_blend.c ****                 if(last_src_color.full != src_buf[x].full || last_dest_color.full != dest_buf[x].fu
 944:Drivers/lvgl/src/draw/sw/lv_draw_sw_blend.c ****                     last_dest_color = dest_buf[x];
 945:Drivers/lvgl/src/draw/sw/lv_draw_sw_blend.c ****                     last_src_color = src_buf[x];
 946:Drivers/lvgl/src/draw/sw/lv_draw_sw_blend.c ****                     last_opa = opa_tmp;
 947:Drivers/lvgl/src/draw/sw/lv_draw_sw_blend.c ****                     last_res_color = blend_fp(last_src_color, last_dest_color, last_opa);
 948:Drivers/lvgl/src/draw/sw/lv_draw_sw_blend.c ****                 }
 949:Drivers/lvgl/src/draw/sw/lv_draw_sw_blend.c ****                 dest_buf[x] = last_res_color;
 950:Drivers/lvgl/src/draw/sw/lv_draw_sw_blend.c ****             }
 951:Drivers/lvgl/src/draw/sw/lv_draw_sw_blend.c ****             dest_buf += dest_stride;
 952:Drivers/lvgl/src/draw/sw/lv_draw_sw_blend.c ****             src_buf += src_stride;
 953:Drivers/lvgl/src/draw/sw/lv_draw_sw_blend.c ****             mask += mask_stride;
 954:Drivers/lvgl/src/draw/sw/lv_draw_sw_blend.c ****         }
 955:Drivers/lvgl/src/draw/sw/lv_draw_sw_blend.c ****     }
 956:Drivers/lvgl/src/draw/sw/lv_draw_sw_blend.c **** }
 957:Drivers/lvgl/src/draw/sw/lv_draw_sw_blend.c **** 
 958:Drivers/lvgl/src/draw/sw/lv_draw_sw_blend.c **** static inline lv_color_t color_blend_true_color_additive(lv_color_t fg, lv_color_t bg, lv_opa_t opa
 959:Drivers/lvgl/src/draw/sw/lv_draw_sw_blend.c **** {
 960:Drivers/lvgl/src/draw/sw/lv_draw_sw_blend.c **** 
 961:Drivers/lvgl/src/draw/sw/lv_draw_sw_blend.c ****     if(opa <= LV_OPA_MIN) return bg;
 962:Drivers/lvgl/src/draw/sw/lv_draw_sw_blend.c **** 
 963:Drivers/lvgl/src/draw/sw/lv_draw_sw_blend.c ****     uint32_t tmp;
 964:Drivers/lvgl/src/draw/sw/lv_draw_sw_blend.c **** #if LV_COLOR_DEPTH == 1
 965:Drivers/lvgl/src/draw/sw/lv_draw_sw_blend.c ****     tmp = bg.full + fg.full;
 966:Drivers/lvgl/src/draw/sw/lv_draw_sw_blend.c ****     fg.full = LV_MIN(tmp, 1);
 967:Drivers/lvgl/src/draw/sw/lv_draw_sw_blend.c **** #else
 968:Drivers/lvgl/src/draw/sw/lv_draw_sw_blend.c ****     tmp = bg.ch.red + fg.ch.red;
 969:Drivers/lvgl/src/draw/sw/lv_draw_sw_blend.c **** #if LV_COLOR_DEPTH == 8
 970:Drivers/lvgl/src/draw/sw/lv_draw_sw_blend.c ****     fg.ch.red = LV_MIN(tmp, 7);
 971:Drivers/lvgl/src/draw/sw/lv_draw_sw_blend.c **** #elif LV_COLOR_DEPTH == 16
 972:Drivers/lvgl/src/draw/sw/lv_draw_sw_blend.c ****     fg.ch.red = LV_MIN(tmp, 31);
 973:Drivers/lvgl/src/draw/sw/lv_draw_sw_blend.c **** #elif LV_COLOR_DEPTH == 32
 974:Drivers/lvgl/src/draw/sw/lv_draw_sw_blend.c ****     fg.ch.red = LV_MIN(tmp, 255);
 975:Drivers/lvgl/src/draw/sw/lv_draw_sw_blend.c **** #endif
 976:Drivers/lvgl/src/draw/sw/lv_draw_sw_blend.c **** 
 977:Drivers/lvgl/src/draw/sw/lv_draw_sw_blend.c **** #if LV_COLOR_DEPTH == 8
 978:Drivers/lvgl/src/draw/sw/lv_draw_sw_blend.c ****     tmp = bg.ch.green + fg.ch.green;
 979:Drivers/lvgl/src/draw/sw/lv_draw_sw_blend.c ****     fg.ch.green = LV_MIN(tmp, 7);
 980:Drivers/lvgl/src/draw/sw/lv_draw_sw_blend.c **** #elif LV_COLOR_DEPTH == 16
 981:Drivers/lvgl/src/draw/sw/lv_draw_sw_blend.c **** #if LV_COLOR_16_SWAP == 0
 982:Drivers/lvgl/src/draw/sw/lv_draw_sw_blend.c ****     tmp = bg.ch.green + fg.ch.green;
 983:Drivers/lvgl/src/draw/sw/lv_draw_sw_blend.c ****     fg.ch.green = LV_MIN(tmp, 63);
 984:Drivers/lvgl/src/draw/sw/lv_draw_sw_blend.c **** #else
 985:Drivers/lvgl/src/draw/sw/lv_draw_sw_blend.c ****     tmp = (bg.ch.green_h << 3) + bg.ch.green_l + (fg.ch.green_h << 3) + fg.ch.green_l;
 986:Drivers/lvgl/src/draw/sw/lv_draw_sw_blend.c ****     tmp = LV_MIN(tmp, 63);
 987:Drivers/lvgl/src/draw/sw/lv_draw_sw_blend.c ****     fg.ch.green_h = tmp >> 3;
 988:Drivers/lvgl/src/draw/sw/lv_draw_sw_blend.c ****     fg.ch.green_l = tmp & 0x7;
 989:Drivers/lvgl/src/draw/sw/lv_draw_sw_blend.c **** #endif
 990:Drivers/lvgl/src/draw/sw/lv_draw_sw_blend.c **** 
 991:Drivers/lvgl/src/draw/sw/lv_draw_sw_blend.c **** #elif LV_COLOR_DEPTH == 32
 992:Drivers/lvgl/src/draw/sw/lv_draw_sw_blend.c ****     tmp = bg.ch.green + fg.ch.green;
 993:Drivers/lvgl/src/draw/sw/lv_draw_sw_blend.c ****     fg.ch.green = LV_MIN(tmp, 255);
 994:Drivers/lvgl/src/draw/sw/lv_draw_sw_blend.c **** #endif
 995:Drivers/lvgl/src/draw/sw/lv_draw_sw_blend.c **** 
 996:Drivers/lvgl/src/draw/sw/lv_draw_sw_blend.c ****     tmp = bg.ch.blue + fg.ch.blue;
 997:Drivers/lvgl/src/draw/sw/lv_draw_sw_blend.c **** #if LV_COLOR_DEPTH == 8
 998:Drivers/lvgl/src/draw/sw/lv_draw_sw_blend.c ****     fg.ch.blue = LV_MIN(tmp, 4);
ARM GAS  /var/folders/0z/tsy30v1j4xl4_7kw94k978ww0000gn/T//ccll9Ln5.s 			page 19


 999:Drivers/lvgl/src/draw/sw/lv_draw_sw_blend.c **** #elif LV_COLOR_DEPTH == 16
1000:Drivers/lvgl/src/draw/sw/lv_draw_sw_blend.c ****     fg.ch.blue = LV_MIN(tmp, 31);
1001:Drivers/lvgl/src/draw/sw/lv_draw_sw_blend.c **** #elif LV_COLOR_DEPTH == 32
1002:Drivers/lvgl/src/draw/sw/lv_draw_sw_blend.c ****     fg.ch.blue = LV_MIN(tmp, 255);
1003:Drivers/lvgl/src/draw/sw/lv_draw_sw_blend.c **** #endif
1004:Drivers/lvgl/src/draw/sw/lv_draw_sw_blend.c **** #endif
1005:Drivers/lvgl/src/draw/sw/lv_draw_sw_blend.c **** 
1006:Drivers/lvgl/src/draw/sw/lv_draw_sw_blend.c ****     if(opa == LV_OPA_COVER) return fg;
1007:Drivers/lvgl/src/draw/sw/lv_draw_sw_blend.c **** 
1008:Drivers/lvgl/src/draw/sw/lv_draw_sw_blend.c ****     return lv_color_mix(fg, bg, opa);
1009:Drivers/lvgl/src/draw/sw/lv_draw_sw_blend.c **** }
1010:Drivers/lvgl/src/draw/sw/lv_draw_sw_blend.c **** 
1011:Drivers/lvgl/src/draw/sw/lv_draw_sw_blend.c **** static inline lv_color_t color_blend_true_color_subtractive(lv_color_t fg, lv_color_t bg, lv_opa_t 
1012:Drivers/lvgl/src/draw/sw/lv_draw_sw_blend.c **** {
  30              		.loc 1 1012 1 view -0
  31              		.cfi_startproc
  32              		@ args = 0, pretend = 0, frame = 0
  33              		@ frame_needed = 0, uses_anonymous_args = 0
  34              		.loc 1 1012 1 is_stmt 0 view .LVU1
  35 0000 0346     		mov	r3, r0	@ movhi
  36              	.LVL1:
1013:Drivers/lvgl/src/draw/sw/lv_draw_sw_blend.c ****     if(opa <= LV_OPA_MIN) return bg;
  37              		.loc 1 1013 7 view .LVU2
  38 0002 022A     		cmp	r2, #2
1012:Drivers/lvgl/src/draw/sw/lv_draw_sw_blend.c ****     if(opa <= LV_OPA_MIN) return bg;
  39              		.loc 1 1012 1 view .LVU3
  40 0004 2DE9F041 		push	{r4, r5, r6, r7, r8, lr}
  41              		.cfi_def_cfa_offset 24
  42              		.cfi_offset 4, -24
  43              		.cfi_offset 5, -20
  44              		.cfi_offset 6, -16
  45              		.cfi_offset 7, -12
  46              		.cfi_offset 8, -8
  47              		.cfi_offset 14, -4
  48 0008 C1F3042C 		ubfx	ip, r1, #8, #5
  49 000c C3F3C407 		ubfx	r7, r3, #3, #5
  50              	.LVL2:
1012:Drivers/lvgl/src/draw/sw/lv_draw_sw_blend.c ****     if(opa <= LV_OPA_MIN) return bg;
  51              		.loc 1 1012 1 view .LVU4
  52 0010 C3F30425 		ubfx	r5, r3, #8, #5
  53              	.LVL3:
1012:Drivers/lvgl/src/draw/sw/lv_draw_sw_blend.c ****     if(opa <= LV_OPA_MIN) return bg;
  54              		.loc 1 1012 1 view .LVU5
  55 0014 C3F34234 		ubfx	r4, r3, #13, #3
  56              	.LVL4:
1012:Drivers/lvgl/src/draw/sw/lv_draw_sw_blend.c ****     if(opa <= LV_OPA_MIN) return bg;
  57              		.loc 1 1012 1 view .LVU6
  58 0018 C1F3C40E 		ubfx	lr, r1, #3, #5
  59              	.LVL5:
1012:Drivers/lvgl/src/draw/sw/lv_draw_sw_blend.c ****     if(opa <= LV_OPA_MIN) return bg;
  60              		.loc 1 1012 1 view .LVU7
  61 001c C1F34230 		ubfx	r0, r1, #13, #3
  62              	.LVL6:
  63              		.loc 1 1013 5 is_stmt 1 view .LVU8
  64              		.loc 1 1013 7 is_stmt 0 view .LVU9
  65 0020 3CD9     		bls	.L7
1014:Drivers/lvgl/src/draw/sw/lv_draw_sw_blend.c **** 
ARM GAS  /var/folders/0z/tsy30v1j4xl4_7kw94k978ww0000gn/T//ccll9Ln5.s 			page 20


1015:Drivers/lvgl/src/draw/sw/lv_draw_sw_blend.c ****     int32_t tmp;
  66              		.loc 1 1015 5 is_stmt 1 view .LVU10
1016:Drivers/lvgl/src/draw/sw/lv_draw_sw_blend.c ****     tmp = bg.ch.red - fg.ch.red;
  67              		.loc 1 1016 5 view .LVU11
  68              	.LVL7:
1017:Drivers/lvgl/src/draw/sw/lv_draw_sw_blend.c ****     fg.ch.red = LV_MAX(tmp, 0);
  69              		.loc 1 1017 5 view .LVU12
  70 0022 01F00708 		and	r8, r1, #7
  71 0026 03F00706 		and	r6, r3, #7
1018:Drivers/lvgl/src/draw/sw/lv_draw_sw_blend.c **** 
1019:Drivers/lvgl/src/draw/sw/lv_draw_sw_blend.c **** #if LV_COLOR_16_SWAP == 0
1020:Drivers/lvgl/src/draw/sw/lv_draw_sw_blend.c ****     tmp = bg.ch.green - fg.ch.green;
1021:Drivers/lvgl/src/draw/sw/lv_draw_sw_blend.c ****     fg.ch.green = LV_MAX(tmp, 0);
1022:Drivers/lvgl/src/draw/sw/lv_draw_sw_blend.c **** #else
1023:Drivers/lvgl/src/draw/sw/lv_draw_sw_blend.c ****     tmp = (bg.ch.green_h << 3) + bg.ch.green_l + (fg.ch.green_h << 3) + fg.ch.green_l;
  72              		.loc 1 1023 32 is_stmt 0 view .LVU13
  73 002a 00EBC800 		add	r0, r0, r8, lsl #3
1024:Drivers/lvgl/src/draw/sw/lv_draw_sw_blend.c ****     tmp = LV_MAX(tmp, 0);
1025:Drivers/lvgl/src/draw/sw/lv_draw_sw_blend.c ****     fg.ch.green_h = tmp >> 3;
1026:Drivers/lvgl/src/draw/sw/lv_draw_sw_blend.c ****     fg.ch.green_l = tmp & 0x7;
1027:Drivers/lvgl/src/draw/sw/lv_draw_sw_blend.c **** #endif
1028:Drivers/lvgl/src/draw/sw/lv_draw_sw_blend.c **** 
1029:Drivers/lvgl/src/draw/sw/lv_draw_sw_blend.c ****     tmp = bg.ch.blue - fg.ch.blue;
  74              		.loc 1 1029 9 view .LVU14
  75 002e ACEB050C 		sub	ip, ip, r5
1016:Drivers/lvgl/src/draw/sw/lv_draw_sw_blend.c ****     fg.ch.red = LV_MAX(tmp, 0);
  76              		.loc 1 1016 9 view .LVU15
  77 0032 AEEB070E 		sub	lr, lr, r7
1023:Drivers/lvgl/src/draw/sw/lv_draw_sw_blend.c ****     tmp = LV_MAX(tmp, 0);
  78              		.loc 1 1023 48 view .LVU16
  79 0036 00EBC600 		add	r0, r0, r6, lsl #3
1023:Drivers/lvgl/src/draw/sw/lv_draw_sw_blend.c ****     tmp = LV_MAX(tmp, 0);
  80              		.loc 1 1023 9 view .LVU17
  81 003a 2044     		add	r0, r0, r4
1017:Drivers/lvgl/src/draw/sw/lv_draw_sw_blend.c **** 
  82              		.loc 1 1017 17 view .LVU18
  83 003c 2EEAEE7E 		bic	lr, lr, lr, asr #31
1030:Drivers/lvgl/src/draw/sw/lv_draw_sw_blend.c ****     fg.ch.blue = LV_MAX(tmp, 0);
  84              		.loc 1 1030 18 view .LVU19
  85 0040 2CEAEC7C 		bic	ip, ip, ip, asr #31
1031:Drivers/lvgl/src/draw/sw/lv_draw_sw_blend.c **** 
1032:Drivers/lvgl/src/draw/sw/lv_draw_sw_blend.c ****     if(opa == LV_OPA_COVER) return fg;
  86              		.loc 1 1032 7 view .LVU20
  87 0044 FF2A     		cmp	r2, #255
1017:Drivers/lvgl/src/draw/sw/lv_draw_sw_blend.c **** 
  88              		.loc 1 1017 17 view .LVU21
  89 0046 0EF01F04 		and	r4, lr, #31
  90              	.LVL8:
1023:Drivers/lvgl/src/draw/sw/lv_draw_sw_blend.c ****     tmp = LV_MAX(tmp, 0);
  91              		.loc 1 1023 5 is_stmt 1 view .LVU22
1024:Drivers/lvgl/src/draw/sw/lv_draw_sw_blend.c ****     fg.ch.green_h = tmp >> 3;
  92              		.loc 1 1024 5 view .LVU23
1025:Drivers/lvgl/src/draw/sw/lv_draw_sw_blend.c ****     fg.ch.green_l = tmp & 0x7;
  93              		.loc 1 1025 5 view .LVU24
1025:Drivers/lvgl/src/draw/sw/lv_draw_sw_blend.c ****     fg.ch.green_l = tmp & 0x7;
  94              		.loc 1 1025 25 is_stmt 0 view .LVU25
  95 004a C0F3C205 		ubfx	r5, r0, #3, #3
ARM GAS  /var/folders/0z/tsy30v1j4xl4_7kw94k978ww0000gn/T//ccll9Ln5.s 			page 21


  96              	.LVL9:
1026:Drivers/lvgl/src/draw/sw/lv_draw_sw_blend.c **** #endif
  97              		.loc 1 1026 5 is_stmt 1 view .LVU26
1030:Drivers/lvgl/src/draw/sw/lv_draw_sw_blend.c **** 
  98              		.loc 1 1030 18 is_stmt 0 view .LVU27
  99 004e 0CF01F0E 		and	lr, ip, #31
1026:Drivers/lvgl/src/draw/sw/lv_draw_sw_blend.c **** #endif
 100              		.loc 1 1026 25 view .LVU28
 101 0052 00F0070C 		and	ip, r0, #7
 102              	.LVL10:
1029:Drivers/lvgl/src/draw/sw/lv_draw_sw_blend.c ****     fg.ch.blue = LV_MAX(tmp, 0);
 103              		.loc 1 1029 5 is_stmt 1 view .LVU29
1030:Drivers/lvgl/src/draw/sw/lv_draw_sw_blend.c **** 
 104              		.loc 1 1030 5 view .LVU30
 105              		.loc 1 1032 5 view .LVU31
 106              		.loc 1 1032 7 is_stmt 0 view .LVU32
 107 0056 24D0     		beq	.L8
1033:Drivers/lvgl/src/draw/sw/lv_draw_sw_blend.c **** 
1034:Drivers/lvgl/src/draw/sw/lv_draw_sw_blend.c ****     return lv_color_mix(fg, bg, opa);
 108              		.loc 1 1034 5 is_stmt 1 view .LVU33
 109              		.loc 1 1034 5 is_stmt 0 view .LVU34
 110 0058 65F30203 		bfi	r3, r5, #0, #3
 111              	.LVL11:
 112              		.loc 1 1034 5 view .LVU35
 113 005c 64F3C703 		bfi	r3, r4, #3, #5
 114              		.loc 1 1034 5 view .LVU36
 115 0060 6EF30C23 		bfi	r3, lr, #8, #5
 116              		.loc 1 1034 5 view .LVU37
 117 0064 6CF34F33 		bfi	r3, ip, #13, #3
 118              	.LVL12:
 119              	.LBB58:
 120              	.LBI58:
 121              		.file 2 "Drivers/lvgl/src/draw/sw/../../misc/lv_color.h"
   1:Drivers/lvgl/src/draw/sw/../../misc/lv_color.h **** /**
   2:Drivers/lvgl/src/draw/sw/../../misc/lv_color.h ****  * @file lv_color.h
   3:Drivers/lvgl/src/draw/sw/../../misc/lv_color.h ****  *
   4:Drivers/lvgl/src/draw/sw/../../misc/lv_color.h ****  */
   5:Drivers/lvgl/src/draw/sw/../../misc/lv_color.h **** 
   6:Drivers/lvgl/src/draw/sw/../../misc/lv_color.h **** #ifndef LV_COLOR_H
   7:Drivers/lvgl/src/draw/sw/../../misc/lv_color.h **** #define LV_COLOR_H
   8:Drivers/lvgl/src/draw/sw/../../misc/lv_color.h **** 
   9:Drivers/lvgl/src/draw/sw/../../misc/lv_color.h **** #ifdef __cplusplus
  10:Drivers/lvgl/src/draw/sw/../../misc/lv_color.h **** extern "C" {
  11:Drivers/lvgl/src/draw/sw/../../misc/lv_color.h **** #endif
  12:Drivers/lvgl/src/draw/sw/../../misc/lv_color.h **** 
  13:Drivers/lvgl/src/draw/sw/../../misc/lv_color.h **** /*********************
  14:Drivers/lvgl/src/draw/sw/../../misc/lv_color.h ****  *      INCLUDES
  15:Drivers/lvgl/src/draw/sw/../../misc/lv_color.h ****  *********************/
  16:Drivers/lvgl/src/draw/sw/../../misc/lv_color.h **** #include "../lv_conf_internal.h"
  17:Drivers/lvgl/src/draw/sw/../../misc/lv_color.h **** #include "lv_assert.h"
  18:Drivers/lvgl/src/draw/sw/../../misc/lv_color.h **** #include "lv_math.h"
  19:Drivers/lvgl/src/draw/sw/../../misc/lv_color.h **** #include "lv_types.h"
  20:Drivers/lvgl/src/draw/sw/../../misc/lv_color.h **** 
  21:Drivers/lvgl/src/draw/sw/../../misc/lv_color.h **** /*Error checking*/
  22:Drivers/lvgl/src/draw/sw/../../misc/lv_color.h **** #if LV_COLOR_DEPTH == 24
  23:Drivers/lvgl/src/draw/sw/../../misc/lv_color.h **** #error "LV_COLOR_DEPTH 24 is deprecated. Use LV_COLOR_DEPTH 32 instead (lv_conf.h)"
  24:Drivers/lvgl/src/draw/sw/../../misc/lv_color.h **** #endif
ARM GAS  /var/folders/0z/tsy30v1j4xl4_7kw94k978ww0000gn/T//ccll9Ln5.s 			page 22


  25:Drivers/lvgl/src/draw/sw/../../misc/lv_color.h **** 
  26:Drivers/lvgl/src/draw/sw/../../misc/lv_color.h **** #if LV_COLOR_DEPTH != 16 && LV_COLOR_16_SWAP != 0
  27:Drivers/lvgl/src/draw/sw/../../misc/lv_color.h **** #error "LV_COLOR_16_SWAP requires LV_COLOR_DEPTH == 16. Set it in lv_conf.h"
  28:Drivers/lvgl/src/draw/sw/../../misc/lv_color.h **** #endif
  29:Drivers/lvgl/src/draw/sw/../../misc/lv_color.h **** 
  30:Drivers/lvgl/src/draw/sw/../../misc/lv_color.h **** #include <stdint.h>
  31:Drivers/lvgl/src/draw/sw/../../misc/lv_color.h **** 
  32:Drivers/lvgl/src/draw/sw/../../misc/lv_color.h **** /*********************
  33:Drivers/lvgl/src/draw/sw/../../misc/lv_color.h ****  *      DEFINES
  34:Drivers/lvgl/src/draw/sw/../../misc/lv_color.h ****  *********************/
  35:Drivers/lvgl/src/draw/sw/../../misc/lv_color.h **** LV_EXPORT_CONST_INT(LV_COLOR_DEPTH);
  36:Drivers/lvgl/src/draw/sw/../../misc/lv_color.h **** LV_EXPORT_CONST_INT(LV_COLOR_16_SWAP);
  37:Drivers/lvgl/src/draw/sw/../../misc/lv_color.h **** 
  38:Drivers/lvgl/src/draw/sw/../../misc/lv_color.h **** /**
  39:Drivers/lvgl/src/draw/sw/../../misc/lv_color.h ****  * Opacity percentages.
  40:Drivers/lvgl/src/draw/sw/../../misc/lv_color.h ****  */
  41:Drivers/lvgl/src/draw/sw/../../misc/lv_color.h **** enum {
  42:Drivers/lvgl/src/draw/sw/../../misc/lv_color.h ****     LV_OPA_TRANSP = 0,
  43:Drivers/lvgl/src/draw/sw/../../misc/lv_color.h ****     LV_OPA_0      = 0,
  44:Drivers/lvgl/src/draw/sw/../../misc/lv_color.h ****     LV_OPA_10     = 25,
  45:Drivers/lvgl/src/draw/sw/../../misc/lv_color.h ****     LV_OPA_20     = 51,
  46:Drivers/lvgl/src/draw/sw/../../misc/lv_color.h ****     LV_OPA_30     = 76,
  47:Drivers/lvgl/src/draw/sw/../../misc/lv_color.h ****     LV_OPA_40     = 102,
  48:Drivers/lvgl/src/draw/sw/../../misc/lv_color.h ****     LV_OPA_50     = 127,
  49:Drivers/lvgl/src/draw/sw/../../misc/lv_color.h ****     LV_OPA_60     = 153,
  50:Drivers/lvgl/src/draw/sw/../../misc/lv_color.h ****     LV_OPA_70     = 178,
  51:Drivers/lvgl/src/draw/sw/../../misc/lv_color.h ****     LV_OPA_80     = 204,
  52:Drivers/lvgl/src/draw/sw/../../misc/lv_color.h ****     LV_OPA_90     = 229,
  53:Drivers/lvgl/src/draw/sw/../../misc/lv_color.h ****     LV_OPA_100    = 255,
  54:Drivers/lvgl/src/draw/sw/../../misc/lv_color.h ****     LV_OPA_COVER  = 255,
  55:Drivers/lvgl/src/draw/sw/../../misc/lv_color.h **** };
  56:Drivers/lvgl/src/draw/sw/../../misc/lv_color.h **** 
  57:Drivers/lvgl/src/draw/sw/../../misc/lv_color.h **** #define LV_OPA_MIN 2    /*Opacities below this will be transparent*/
  58:Drivers/lvgl/src/draw/sw/../../misc/lv_color.h **** #define LV_OPA_MAX 253  /*Opacities above this will fully cover*/
  59:Drivers/lvgl/src/draw/sw/../../misc/lv_color.h **** 
  60:Drivers/lvgl/src/draw/sw/../../misc/lv_color.h **** #if LV_COLOR_DEPTH == 1
  61:Drivers/lvgl/src/draw/sw/../../misc/lv_color.h **** #define LV_COLOR_SIZE 8
  62:Drivers/lvgl/src/draw/sw/../../misc/lv_color.h **** #elif LV_COLOR_DEPTH == 8
  63:Drivers/lvgl/src/draw/sw/../../misc/lv_color.h **** #define LV_COLOR_SIZE 8
  64:Drivers/lvgl/src/draw/sw/../../misc/lv_color.h **** #elif LV_COLOR_DEPTH == 16
  65:Drivers/lvgl/src/draw/sw/../../misc/lv_color.h **** #define LV_COLOR_SIZE 16
  66:Drivers/lvgl/src/draw/sw/../../misc/lv_color.h **** #elif LV_COLOR_DEPTH == 32
  67:Drivers/lvgl/src/draw/sw/../../misc/lv_color.h **** #define LV_COLOR_SIZE 32
  68:Drivers/lvgl/src/draw/sw/../../misc/lv_color.h **** #else
  69:Drivers/lvgl/src/draw/sw/../../misc/lv_color.h **** #error "Invalid LV_COLOR_DEPTH in lv_conf.h! Set it to 1, 8, 16 or 32!"
  70:Drivers/lvgl/src/draw/sw/../../misc/lv_color.h **** #endif
  71:Drivers/lvgl/src/draw/sw/../../misc/lv_color.h **** 
  72:Drivers/lvgl/src/draw/sw/../../misc/lv_color.h **** #if defined(__cplusplus) && !defined(_LV_COLOR_HAS_MODERN_CPP)
  73:Drivers/lvgl/src/draw/sw/../../misc/lv_color.h **** /**
  74:Drivers/lvgl/src/draw/sw/../../misc/lv_color.h **** * MSVC compiler's definition of the __cplusplus indicating 199711L regardless to C++ standard versi
  75:Drivers/lvgl/src/draw/sw/../../misc/lv_color.h **** * see https://devblogs.microsoft.com/cppblog/msvc-now-correctly-reports-cplusplus
  76:Drivers/lvgl/src/draw/sw/../../misc/lv_color.h **** * so we use _MSC_VER macro instead of __cplusplus
  77:Drivers/lvgl/src/draw/sw/../../misc/lv_color.h **** */
  78:Drivers/lvgl/src/draw/sw/../../misc/lv_color.h **** #ifdef _MSC_VER
  79:Drivers/lvgl/src/draw/sw/../../misc/lv_color.h **** #if _MSC_VER >= 1900 /*Visual Studio 2015*/
  80:Drivers/lvgl/src/draw/sw/../../misc/lv_color.h **** #define _LV_COLOR_HAS_MODERN_CPP 1
  81:Drivers/lvgl/src/draw/sw/../../misc/lv_color.h **** #endif
ARM GAS  /var/folders/0z/tsy30v1j4xl4_7kw94k978ww0000gn/T//ccll9Ln5.s 			page 23


  82:Drivers/lvgl/src/draw/sw/../../misc/lv_color.h **** #else
  83:Drivers/lvgl/src/draw/sw/../../misc/lv_color.h **** #if __cplusplus >= 201103L
  84:Drivers/lvgl/src/draw/sw/../../misc/lv_color.h **** #define _LV_COLOR_HAS_MODERN_CPP 1
  85:Drivers/lvgl/src/draw/sw/../../misc/lv_color.h **** #endif
  86:Drivers/lvgl/src/draw/sw/../../misc/lv_color.h **** #endif
  87:Drivers/lvgl/src/draw/sw/../../misc/lv_color.h **** #endif /*__cplusplus*/
  88:Drivers/lvgl/src/draw/sw/../../misc/lv_color.h **** 
  89:Drivers/lvgl/src/draw/sw/../../misc/lv_color.h **** #ifndef _LV_COLOR_HAS_MODERN_CPP
  90:Drivers/lvgl/src/draw/sw/../../misc/lv_color.h **** #define _LV_COLOR_HAS_MODERN_CPP 0
  91:Drivers/lvgl/src/draw/sw/../../misc/lv_color.h **** #endif
  92:Drivers/lvgl/src/draw/sw/../../misc/lv_color.h **** 
  93:Drivers/lvgl/src/draw/sw/../../misc/lv_color.h **** #if _LV_COLOR_HAS_MODERN_CPP
  94:Drivers/lvgl/src/draw/sw/../../misc/lv_color.h **** /*Fix msvc compiler error C4576 inside C++ code*/
  95:Drivers/lvgl/src/draw/sw/../../misc/lv_color.h **** #define _LV_COLOR_MAKE_TYPE_HELPER lv_color_t
  96:Drivers/lvgl/src/draw/sw/../../misc/lv_color.h **** #else
  97:Drivers/lvgl/src/draw/sw/../../misc/lv_color.h **** #define _LV_COLOR_MAKE_TYPE_HELPER (lv_color_t)
  98:Drivers/lvgl/src/draw/sw/../../misc/lv_color.h **** #endif
  99:Drivers/lvgl/src/draw/sw/../../misc/lv_color.h **** 
 100:Drivers/lvgl/src/draw/sw/../../misc/lv_color.h **** /*---------------------------------------
 101:Drivers/lvgl/src/draw/sw/../../misc/lv_color.h ****  * Macros for all existing color depths
 102:Drivers/lvgl/src/draw/sw/../../misc/lv_color.h ****  * to set/get values of the color channels
 103:Drivers/lvgl/src/draw/sw/../../misc/lv_color.h ****  *------------------------------------------*/
 104:Drivers/lvgl/src/draw/sw/../../misc/lv_color.h **** # define LV_COLOR_SET_R1(c, v) (c).ch.red = (uint8_t)((v) & 0x1)
 105:Drivers/lvgl/src/draw/sw/../../misc/lv_color.h **** # define LV_COLOR_SET_G1(c, v) (c).ch.green = (uint8_t)((v) & 0x1)
 106:Drivers/lvgl/src/draw/sw/../../misc/lv_color.h **** # define LV_COLOR_SET_B1(c, v) (c).ch.blue = (uint8_t)((v) & 0x1)
 107:Drivers/lvgl/src/draw/sw/../../misc/lv_color.h **** # define LV_COLOR_SET_A1(c, v) do {} while(0)
 108:Drivers/lvgl/src/draw/sw/../../misc/lv_color.h **** 
 109:Drivers/lvgl/src/draw/sw/../../misc/lv_color.h **** # define LV_COLOR_GET_R1(c) (c).ch.red
 110:Drivers/lvgl/src/draw/sw/../../misc/lv_color.h **** # define LV_COLOR_GET_G1(c) (c).ch.green
 111:Drivers/lvgl/src/draw/sw/../../misc/lv_color.h **** # define LV_COLOR_GET_B1(c) (c).ch.blue
 112:Drivers/lvgl/src/draw/sw/../../misc/lv_color.h **** # define LV_COLOR_GET_A1(c) 0xFF
 113:Drivers/lvgl/src/draw/sw/../../misc/lv_color.h **** 
 114:Drivers/lvgl/src/draw/sw/../../misc/lv_color.h **** # define _LV_COLOR_ZERO_INITIALIZER1 {0x00}
 115:Drivers/lvgl/src/draw/sw/../../misc/lv_color.h **** # define LV_COLOR_MAKE1(r8, g8, b8)  {(uint8_t)((b8 >> 7) | (g8 >> 7) | (r8 >> 7))}
 116:Drivers/lvgl/src/draw/sw/../../misc/lv_color.h **** 
 117:Drivers/lvgl/src/draw/sw/../../misc/lv_color.h **** # define LV_COLOR_SET_R8(c, v) (c).ch.red = (uint8_t)((v) & 0x7U)
 118:Drivers/lvgl/src/draw/sw/../../misc/lv_color.h **** # define LV_COLOR_SET_G8(c, v) (c).ch.green = (uint8_t)((v) & 0x7U)
 119:Drivers/lvgl/src/draw/sw/../../misc/lv_color.h **** # define LV_COLOR_SET_B8(c, v) (c).ch.blue = (uint8_t)((v) & 0x3U)
 120:Drivers/lvgl/src/draw/sw/../../misc/lv_color.h **** # define LV_COLOR_SET_A8(c, v) do {} while(0)
 121:Drivers/lvgl/src/draw/sw/../../misc/lv_color.h **** 
 122:Drivers/lvgl/src/draw/sw/../../misc/lv_color.h **** # define LV_COLOR_GET_R8(c) (c).ch.red
 123:Drivers/lvgl/src/draw/sw/../../misc/lv_color.h **** # define LV_COLOR_GET_G8(c) (c).ch.green
 124:Drivers/lvgl/src/draw/sw/../../misc/lv_color.h **** # define LV_COLOR_GET_B8(c) (c).ch.blue
 125:Drivers/lvgl/src/draw/sw/../../misc/lv_color.h **** # define LV_COLOR_GET_A8(c) 0xFF
 126:Drivers/lvgl/src/draw/sw/../../misc/lv_color.h **** 
 127:Drivers/lvgl/src/draw/sw/../../misc/lv_color.h **** # define _LV_COLOR_ZERO_INITIALIZER8 {{0x00, 0x00, 0x00}}
 128:Drivers/lvgl/src/draw/sw/../../misc/lv_color.h **** # define LV_COLOR_MAKE8(r8, g8, b8) {{(uint8_t)((b8 >> 6) & 0x3U), (uint8_t)((g8 >> 5) & 0x7U), (ui
 129:Drivers/lvgl/src/draw/sw/../../misc/lv_color.h **** 
 130:Drivers/lvgl/src/draw/sw/../../misc/lv_color.h **** # define LV_COLOR_SET_R16(c, v) (c).ch.red = (uint8_t)((v) & 0x1FU)
 131:Drivers/lvgl/src/draw/sw/../../misc/lv_color.h **** #if LV_COLOR_16_SWAP == 0
 132:Drivers/lvgl/src/draw/sw/../../misc/lv_color.h **** # define LV_COLOR_SET_G16(c, v) (c).ch.green = (uint8_t)((v) & 0x3FU)
 133:Drivers/lvgl/src/draw/sw/../../misc/lv_color.h **** #else
 134:Drivers/lvgl/src/draw/sw/../../misc/lv_color.h **** # define LV_COLOR_SET_G16(c, v) {(c).ch.green_h = (uint8_t)(((v) >> 3) & 0x7); (c).ch.green_l = (ui
 135:Drivers/lvgl/src/draw/sw/../../misc/lv_color.h **** #endif
 136:Drivers/lvgl/src/draw/sw/../../misc/lv_color.h **** # define LV_COLOR_SET_B16(c, v) (c).ch.blue = (uint8_t)((v) & 0x1FU)
 137:Drivers/lvgl/src/draw/sw/../../misc/lv_color.h **** # define LV_COLOR_SET_A16(c, v) do {} while(0)
 138:Drivers/lvgl/src/draw/sw/../../misc/lv_color.h **** 
ARM GAS  /var/folders/0z/tsy30v1j4xl4_7kw94k978ww0000gn/T//ccll9Ln5.s 			page 24


 139:Drivers/lvgl/src/draw/sw/../../misc/lv_color.h **** # define LV_COLOR_GET_R16(c) (c).ch.red
 140:Drivers/lvgl/src/draw/sw/../../misc/lv_color.h **** #if LV_COLOR_16_SWAP == 0
 141:Drivers/lvgl/src/draw/sw/../../misc/lv_color.h **** # define LV_COLOR_GET_G16(c) (c).ch.green
 142:Drivers/lvgl/src/draw/sw/../../misc/lv_color.h **** #else
 143:Drivers/lvgl/src/draw/sw/../../misc/lv_color.h **** # define LV_COLOR_GET_G16(c) (((c).ch.green_h << 3) + (c).ch.green_l)
 144:Drivers/lvgl/src/draw/sw/../../misc/lv_color.h **** #endif
 145:Drivers/lvgl/src/draw/sw/../../misc/lv_color.h **** # define LV_COLOR_GET_B16(c) (c).ch.blue
 146:Drivers/lvgl/src/draw/sw/../../misc/lv_color.h **** # define LV_COLOR_GET_A16(c) 0xFF
 147:Drivers/lvgl/src/draw/sw/../../misc/lv_color.h **** 
 148:Drivers/lvgl/src/draw/sw/../../misc/lv_color.h **** #if LV_COLOR_16_SWAP == 0
 149:Drivers/lvgl/src/draw/sw/../../misc/lv_color.h **** # define _LV_COLOR_ZERO_INITIALIZER16  {{0x00, 0x00, 0x00}}
 150:Drivers/lvgl/src/draw/sw/../../misc/lv_color.h **** # define LV_COLOR_MAKE16(r8, g8, b8) {{(uint8_t)((b8 >> 3) & 0x1FU), (uint8_t)((g8 >> 2) & 0x3FU), 
 151:Drivers/lvgl/src/draw/sw/../../misc/lv_color.h **** #else
 152:Drivers/lvgl/src/draw/sw/../../misc/lv_color.h **** # define _LV_COLOR_ZERO_INITIALIZER16 {{0x00, 0x00, 0x00, 0x00}}
 153:Drivers/lvgl/src/draw/sw/../../misc/lv_color.h **** # define LV_COLOR_MAKE16(r8, g8, b8) {{(uint8_t)((g8 >> 5) & 0x7U), (uint8_t)((r8 >> 3) & 0x1FU), (
 154:Drivers/lvgl/src/draw/sw/../../misc/lv_color.h **** #endif
 155:Drivers/lvgl/src/draw/sw/../../misc/lv_color.h **** 
 156:Drivers/lvgl/src/draw/sw/../../misc/lv_color.h **** # define LV_COLOR_SET_R32(c, v) (c).ch.red = (uint8_t)((v) & 0xFF)
 157:Drivers/lvgl/src/draw/sw/../../misc/lv_color.h **** # define LV_COLOR_SET_G32(c, v) (c).ch.green = (uint8_t)((v) & 0xFF)
 158:Drivers/lvgl/src/draw/sw/../../misc/lv_color.h **** # define LV_COLOR_SET_B32(c, v) (c).ch.blue = (uint8_t)((v) & 0xFF)
 159:Drivers/lvgl/src/draw/sw/../../misc/lv_color.h **** # define LV_COLOR_SET_A32(c, v) (c).ch.alpha = (uint8_t)((v) & 0xFF)
 160:Drivers/lvgl/src/draw/sw/../../misc/lv_color.h **** 
 161:Drivers/lvgl/src/draw/sw/../../misc/lv_color.h **** # define LV_COLOR_GET_R32(c) (c).ch.red
 162:Drivers/lvgl/src/draw/sw/../../misc/lv_color.h **** # define LV_COLOR_GET_G32(c) (c).ch.green
 163:Drivers/lvgl/src/draw/sw/../../misc/lv_color.h **** # define LV_COLOR_GET_B32(c) (c).ch.blue
 164:Drivers/lvgl/src/draw/sw/../../misc/lv_color.h **** # define LV_COLOR_GET_A32(c) (c).ch.alpha
 165:Drivers/lvgl/src/draw/sw/../../misc/lv_color.h **** 
 166:Drivers/lvgl/src/draw/sw/../../misc/lv_color.h **** # define _LV_COLOR_ZERO_INITIALIZER32  {{0x00, 0x00, 0x00, 0x00}}
 167:Drivers/lvgl/src/draw/sw/../../misc/lv_color.h **** # define LV_COLOR_MAKE32(r8, g8, b8) {{b8, g8, r8, 0xff}} /*Fix 0xff alpha*/
 168:Drivers/lvgl/src/draw/sw/../../misc/lv_color.h **** 
 169:Drivers/lvgl/src/draw/sw/../../misc/lv_color.h **** /*---------------------------------------
 170:Drivers/lvgl/src/draw/sw/../../misc/lv_color.h ****  * Macros for the current color depth
 171:Drivers/lvgl/src/draw/sw/../../misc/lv_color.h ****  * to set/get values of the color channels
 172:Drivers/lvgl/src/draw/sw/../../misc/lv_color.h ****  *------------------------------------------*/
 173:Drivers/lvgl/src/draw/sw/../../misc/lv_color.h **** #define LV_COLOR_SET_R(c, v) LV_CONCAT(LV_COLOR_SET_R, LV_COLOR_DEPTH)(c, v)
 174:Drivers/lvgl/src/draw/sw/../../misc/lv_color.h **** #define LV_COLOR_SET_G(c, v) LV_CONCAT(LV_COLOR_SET_G, LV_COLOR_DEPTH)(c, v)
 175:Drivers/lvgl/src/draw/sw/../../misc/lv_color.h **** #define LV_COLOR_SET_B(c, v) LV_CONCAT(LV_COLOR_SET_B, LV_COLOR_DEPTH)(c, v)
 176:Drivers/lvgl/src/draw/sw/../../misc/lv_color.h **** #define LV_COLOR_SET_A(c, v) LV_CONCAT(LV_COLOR_SET_A, LV_COLOR_DEPTH)(c, v)
 177:Drivers/lvgl/src/draw/sw/../../misc/lv_color.h **** 
 178:Drivers/lvgl/src/draw/sw/../../misc/lv_color.h **** #define LV_COLOR_GET_R(c) LV_CONCAT(LV_COLOR_GET_R, LV_COLOR_DEPTH)(c)
 179:Drivers/lvgl/src/draw/sw/../../misc/lv_color.h **** #define LV_COLOR_GET_G(c) LV_CONCAT(LV_COLOR_GET_G, LV_COLOR_DEPTH)(c)
 180:Drivers/lvgl/src/draw/sw/../../misc/lv_color.h **** #define LV_COLOR_GET_B(c) LV_CONCAT(LV_COLOR_GET_B, LV_COLOR_DEPTH)(c)
 181:Drivers/lvgl/src/draw/sw/../../misc/lv_color.h **** #define LV_COLOR_GET_A(c) LV_CONCAT(LV_COLOR_GET_A, LV_COLOR_DEPTH)(c)
 182:Drivers/lvgl/src/draw/sw/../../misc/lv_color.h **** 
 183:Drivers/lvgl/src/draw/sw/../../misc/lv_color.h **** #define _LV_COLOR_ZERO_INITIALIZER LV_CONCAT(_LV_COLOR_ZERO_INITIALIZER, LV_COLOR_DEPTH)
 184:Drivers/lvgl/src/draw/sw/../../misc/lv_color.h **** #define LV_COLOR_MAKE(r8, g8, b8) LV_CONCAT(LV_COLOR_MAKE, LV_COLOR_DEPTH)(r8, g8, b8)
 185:Drivers/lvgl/src/draw/sw/../../misc/lv_color.h **** 
 186:Drivers/lvgl/src/draw/sw/../../misc/lv_color.h **** /**********************
 187:Drivers/lvgl/src/draw/sw/../../misc/lv_color.h ****  *      TYPEDEFS
 188:Drivers/lvgl/src/draw/sw/../../misc/lv_color.h ****  **********************/
 189:Drivers/lvgl/src/draw/sw/../../misc/lv_color.h **** 
 190:Drivers/lvgl/src/draw/sw/../../misc/lv_color.h **** typedef union {
 191:Drivers/lvgl/src/draw/sw/../../misc/lv_color.h ****     uint8_t full; /*must be declared first to set all bits of byte via initializer list*/
 192:Drivers/lvgl/src/draw/sw/../../misc/lv_color.h ****     union {
 193:Drivers/lvgl/src/draw/sw/../../misc/lv_color.h ****         uint8_t blue : 1;
 194:Drivers/lvgl/src/draw/sw/../../misc/lv_color.h ****         uint8_t green : 1;
 195:Drivers/lvgl/src/draw/sw/../../misc/lv_color.h ****         uint8_t red : 1;
ARM GAS  /var/folders/0z/tsy30v1j4xl4_7kw94k978ww0000gn/T//ccll9Ln5.s 			page 25


 196:Drivers/lvgl/src/draw/sw/../../misc/lv_color.h ****     } ch;
 197:Drivers/lvgl/src/draw/sw/../../misc/lv_color.h **** } lv_color1_t;
 198:Drivers/lvgl/src/draw/sw/../../misc/lv_color.h **** 
 199:Drivers/lvgl/src/draw/sw/../../misc/lv_color.h **** typedef union {
 200:Drivers/lvgl/src/draw/sw/../../misc/lv_color.h ****     struct {
 201:Drivers/lvgl/src/draw/sw/../../misc/lv_color.h ****         uint8_t blue : 2;
 202:Drivers/lvgl/src/draw/sw/../../misc/lv_color.h ****         uint8_t green : 3;
 203:Drivers/lvgl/src/draw/sw/../../misc/lv_color.h ****         uint8_t red : 3;
 204:Drivers/lvgl/src/draw/sw/../../misc/lv_color.h ****     } ch;
 205:Drivers/lvgl/src/draw/sw/../../misc/lv_color.h ****     uint8_t full;
 206:Drivers/lvgl/src/draw/sw/../../misc/lv_color.h **** } lv_color8_t;
 207:Drivers/lvgl/src/draw/sw/../../misc/lv_color.h **** 
 208:Drivers/lvgl/src/draw/sw/../../misc/lv_color.h **** typedef union {
 209:Drivers/lvgl/src/draw/sw/../../misc/lv_color.h ****     struct {
 210:Drivers/lvgl/src/draw/sw/../../misc/lv_color.h **** #if LV_COLOR_16_SWAP == 0
 211:Drivers/lvgl/src/draw/sw/../../misc/lv_color.h ****         uint16_t blue : 5;
 212:Drivers/lvgl/src/draw/sw/../../misc/lv_color.h ****         uint16_t green : 6;
 213:Drivers/lvgl/src/draw/sw/../../misc/lv_color.h ****         uint16_t red : 5;
 214:Drivers/lvgl/src/draw/sw/../../misc/lv_color.h **** #else
 215:Drivers/lvgl/src/draw/sw/../../misc/lv_color.h ****         uint16_t green_h : 3;
 216:Drivers/lvgl/src/draw/sw/../../misc/lv_color.h ****         uint16_t red : 5;
 217:Drivers/lvgl/src/draw/sw/../../misc/lv_color.h ****         uint16_t blue : 5;
 218:Drivers/lvgl/src/draw/sw/../../misc/lv_color.h ****         uint16_t green_l : 3;
 219:Drivers/lvgl/src/draw/sw/../../misc/lv_color.h **** #endif
 220:Drivers/lvgl/src/draw/sw/../../misc/lv_color.h ****     } ch;
 221:Drivers/lvgl/src/draw/sw/../../misc/lv_color.h ****     uint16_t full;
 222:Drivers/lvgl/src/draw/sw/../../misc/lv_color.h **** } lv_color16_t;
 223:Drivers/lvgl/src/draw/sw/../../misc/lv_color.h **** 
 224:Drivers/lvgl/src/draw/sw/../../misc/lv_color.h **** typedef union {
 225:Drivers/lvgl/src/draw/sw/../../misc/lv_color.h ****     struct {
 226:Drivers/lvgl/src/draw/sw/../../misc/lv_color.h ****         uint8_t blue;
 227:Drivers/lvgl/src/draw/sw/../../misc/lv_color.h ****         uint8_t green;
 228:Drivers/lvgl/src/draw/sw/../../misc/lv_color.h ****         uint8_t red;
 229:Drivers/lvgl/src/draw/sw/../../misc/lv_color.h ****         uint8_t alpha;
 230:Drivers/lvgl/src/draw/sw/../../misc/lv_color.h ****     } ch;
 231:Drivers/lvgl/src/draw/sw/../../misc/lv_color.h ****     uint32_t full;
 232:Drivers/lvgl/src/draw/sw/../../misc/lv_color.h **** } lv_color32_t;
 233:Drivers/lvgl/src/draw/sw/../../misc/lv_color.h **** 
 234:Drivers/lvgl/src/draw/sw/../../misc/lv_color.h **** typedef LV_CONCAT3(uint, LV_COLOR_SIZE, _t) lv_color_int_t;
 235:Drivers/lvgl/src/draw/sw/../../misc/lv_color.h **** typedef LV_CONCAT3(lv_color, LV_COLOR_DEPTH, _t) lv_color_t;
 236:Drivers/lvgl/src/draw/sw/../../misc/lv_color.h **** 
 237:Drivers/lvgl/src/draw/sw/../../misc/lv_color.h **** typedef struct {
 238:Drivers/lvgl/src/draw/sw/../../misc/lv_color.h ****     uint16_t h;
 239:Drivers/lvgl/src/draw/sw/../../misc/lv_color.h ****     uint8_t s;
 240:Drivers/lvgl/src/draw/sw/../../misc/lv_color.h ****     uint8_t v;
 241:Drivers/lvgl/src/draw/sw/../../misc/lv_color.h **** } lv_color_hsv_t;
 242:Drivers/lvgl/src/draw/sw/../../misc/lv_color.h **** 
 243:Drivers/lvgl/src/draw/sw/../../misc/lv_color.h **** //! @cond Doxygen_Suppress
 244:Drivers/lvgl/src/draw/sw/../../misc/lv_color.h **** /*No idea where the guard is required but else throws warnings in the docs*/
 245:Drivers/lvgl/src/draw/sw/../../misc/lv_color.h **** typedef uint8_t lv_opa_t;
 246:Drivers/lvgl/src/draw/sw/../../misc/lv_color.h **** //! @endcond
 247:Drivers/lvgl/src/draw/sw/../../misc/lv_color.h **** 
 248:Drivers/lvgl/src/draw/sw/../../misc/lv_color.h **** struct _lv_color_filter_dsc_t;
 249:Drivers/lvgl/src/draw/sw/../../misc/lv_color.h **** 
 250:Drivers/lvgl/src/draw/sw/../../misc/lv_color.h **** typedef lv_color_t (*lv_color_filter_cb_t)(const struct _lv_color_filter_dsc_t *, lv_color_t, lv_op
 251:Drivers/lvgl/src/draw/sw/../../misc/lv_color.h **** 
 252:Drivers/lvgl/src/draw/sw/../../misc/lv_color.h **** typedef struct _lv_color_filter_dsc_t {
ARM GAS  /var/folders/0z/tsy30v1j4xl4_7kw94k978ww0000gn/T//ccll9Ln5.s 			page 26


 253:Drivers/lvgl/src/draw/sw/../../misc/lv_color.h ****     lv_color_filter_cb_t filter_cb;
 254:Drivers/lvgl/src/draw/sw/../../misc/lv_color.h ****     void * user_data;
 255:Drivers/lvgl/src/draw/sw/../../misc/lv_color.h **** } lv_color_filter_dsc_t;
 256:Drivers/lvgl/src/draw/sw/../../misc/lv_color.h **** 
 257:Drivers/lvgl/src/draw/sw/../../misc/lv_color.h **** 
 258:Drivers/lvgl/src/draw/sw/../../misc/lv_color.h **** typedef enum {
 259:Drivers/lvgl/src/draw/sw/../../misc/lv_color.h ****     LV_PALETTE_RED,
 260:Drivers/lvgl/src/draw/sw/../../misc/lv_color.h ****     LV_PALETTE_PINK,
 261:Drivers/lvgl/src/draw/sw/../../misc/lv_color.h ****     LV_PALETTE_PURPLE,
 262:Drivers/lvgl/src/draw/sw/../../misc/lv_color.h ****     LV_PALETTE_DEEP_PURPLE,
 263:Drivers/lvgl/src/draw/sw/../../misc/lv_color.h ****     LV_PALETTE_INDIGO,
 264:Drivers/lvgl/src/draw/sw/../../misc/lv_color.h ****     LV_PALETTE_BLUE,
 265:Drivers/lvgl/src/draw/sw/../../misc/lv_color.h ****     LV_PALETTE_LIGHT_BLUE,
 266:Drivers/lvgl/src/draw/sw/../../misc/lv_color.h ****     LV_PALETTE_CYAN,
 267:Drivers/lvgl/src/draw/sw/../../misc/lv_color.h ****     LV_PALETTE_TEAL,
 268:Drivers/lvgl/src/draw/sw/../../misc/lv_color.h ****     LV_PALETTE_GREEN,
 269:Drivers/lvgl/src/draw/sw/../../misc/lv_color.h ****     LV_PALETTE_LIGHT_GREEN,
 270:Drivers/lvgl/src/draw/sw/../../misc/lv_color.h ****     LV_PALETTE_LIME,
 271:Drivers/lvgl/src/draw/sw/../../misc/lv_color.h ****     LV_PALETTE_YELLOW,
 272:Drivers/lvgl/src/draw/sw/../../misc/lv_color.h ****     LV_PALETTE_AMBER,
 273:Drivers/lvgl/src/draw/sw/../../misc/lv_color.h ****     LV_PALETTE_ORANGE,
 274:Drivers/lvgl/src/draw/sw/../../misc/lv_color.h ****     LV_PALETTE_DEEP_ORANGE,
 275:Drivers/lvgl/src/draw/sw/../../misc/lv_color.h ****     LV_PALETTE_BROWN,
 276:Drivers/lvgl/src/draw/sw/../../misc/lv_color.h ****     LV_PALETTE_BLUE_GREY,
 277:Drivers/lvgl/src/draw/sw/../../misc/lv_color.h ****     LV_PALETTE_GREY,
 278:Drivers/lvgl/src/draw/sw/../../misc/lv_color.h ****     _LV_PALETTE_LAST,
 279:Drivers/lvgl/src/draw/sw/../../misc/lv_color.h ****     LV_PALETTE_NONE = 0xff,
 280:Drivers/lvgl/src/draw/sw/../../misc/lv_color.h **** } lv_palette_t;
 281:Drivers/lvgl/src/draw/sw/../../misc/lv_color.h **** 
 282:Drivers/lvgl/src/draw/sw/../../misc/lv_color.h **** /**********************
 283:Drivers/lvgl/src/draw/sw/../../misc/lv_color.h ****  * GLOBAL PROTOTYPES
 284:Drivers/lvgl/src/draw/sw/../../misc/lv_color.h ****  **********************/
 285:Drivers/lvgl/src/draw/sw/../../misc/lv_color.h **** 
 286:Drivers/lvgl/src/draw/sw/../../misc/lv_color.h **** /*In color conversations:
 287:Drivers/lvgl/src/draw/sw/../../misc/lv_color.h ****  * - When converting to bigger color type the LSB weight of 1 LSB is calculated
 288:Drivers/lvgl/src/draw/sw/../../misc/lv_color.h ****  *   E.g. 16 bit Red has 5 bits
 289:Drivers/lvgl/src/draw/sw/../../misc/lv_color.h ****  *         8 bit Red has 3 bits
 290:Drivers/lvgl/src/draw/sw/../../misc/lv_color.h ****  *        ----------------------
 291:Drivers/lvgl/src/draw/sw/../../misc/lv_color.h ****  *        8 bit red LSB = (2^5 - 1) / (2^3 - 1) = 31 / 7 = 4
 292:Drivers/lvgl/src/draw/sw/../../misc/lv_color.h ****  *
 293:Drivers/lvgl/src/draw/sw/../../misc/lv_color.h ****  * - When calculating to smaller color type simply shift out the LSBs
 294:Drivers/lvgl/src/draw/sw/../../misc/lv_color.h ****  *   E.g.  8 bit Red has 3 bits
 295:Drivers/lvgl/src/draw/sw/../../misc/lv_color.h ****  *        16 bit Red has 5 bits
 296:Drivers/lvgl/src/draw/sw/../../misc/lv_color.h ****  *        ----------------------
 297:Drivers/lvgl/src/draw/sw/../../misc/lv_color.h ****  *         Shift right with 5 - 3 = 2
 298:Drivers/lvgl/src/draw/sw/../../misc/lv_color.h ****  */
 299:Drivers/lvgl/src/draw/sw/../../misc/lv_color.h **** static inline uint8_t lv_color_to1(lv_color_t color)
 300:Drivers/lvgl/src/draw/sw/../../misc/lv_color.h **** {
 301:Drivers/lvgl/src/draw/sw/../../misc/lv_color.h **** #if LV_COLOR_DEPTH == 1
 302:Drivers/lvgl/src/draw/sw/../../misc/lv_color.h ****     return color.full;
 303:Drivers/lvgl/src/draw/sw/../../misc/lv_color.h **** #elif LV_COLOR_DEPTH == 8
 304:Drivers/lvgl/src/draw/sw/../../misc/lv_color.h ****     if((LV_COLOR_GET_R(color) & 0x4) || (LV_COLOR_GET_G(color) & 0x4) || (LV_COLOR_GET_B(color) & 0
 305:Drivers/lvgl/src/draw/sw/../../misc/lv_color.h ****         return 1;
 306:Drivers/lvgl/src/draw/sw/../../misc/lv_color.h ****     }
 307:Drivers/lvgl/src/draw/sw/../../misc/lv_color.h ****     else {
 308:Drivers/lvgl/src/draw/sw/../../misc/lv_color.h ****         return 0;
 309:Drivers/lvgl/src/draw/sw/../../misc/lv_color.h ****     }
ARM GAS  /var/folders/0z/tsy30v1j4xl4_7kw94k978ww0000gn/T//ccll9Ln5.s 			page 27


 310:Drivers/lvgl/src/draw/sw/../../misc/lv_color.h **** #elif LV_COLOR_DEPTH == 16
 311:Drivers/lvgl/src/draw/sw/../../misc/lv_color.h ****     if((LV_COLOR_GET_R(color) & 0x10) || (LV_COLOR_GET_G(color) & 0x20) || (LV_COLOR_GET_B(color) &
 312:Drivers/lvgl/src/draw/sw/../../misc/lv_color.h ****         return 1;
 313:Drivers/lvgl/src/draw/sw/../../misc/lv_color.h ****     }
 314:Drivers/lvgl/src/draw/sw/../../misc/lv_color.h ****     else {
 315:Drivers/lvgl/src/draw/sw/../../misc/lv_color.h ****         return 0;
 316:Drivers/lvgl/src/draw/sw/../../misc/lv_color.h ****     }
 317:Drivers/lvgl/src/draw/sw/../../misc/lv_color.h **** #elif LV_COLOR_DEPTH == 32
 318:Drivers/lvgl/src/draw/sw/../../misc/lv_color.h ****     if((LV_COLOR_GET_R(color) & 0x80) || (LV_COLOR_GET_G(color) & 0x80) || (LV_COLOR_GET_B(color) &
 319:Drivers/lvgl/src/draw/sw/../../misc/lv_color.h ****         return 1;
 320:Drivers/lvgl/src/draw/sw/../../misc/lv_color.h ****     }
 321:Drivers/lvgl/src/draw/sw/../../misc/lv_color.h ****     else {
 322:Drivers/lvgl/src/draw/sw/../../misc/lv_color.h ****         return 0;
 323:Drivers/lvgl/src/draw/sw/../../misc/lv_color.h ****     }
 324:Drivers/lvgl/src/draw/sw/../../misc/lv_color.h **** #endif
 325:Drivers/lvgl/src/draw/sw/../../misc/lv_color.h **** }
 326:Drivers/lvgl/src/draw/sw/../../misc/lv_color.h **** 
 327:Drivers/lvgl/src/draw/sw/../../misc/lv_color.h **** static inline uint8_t lv_color_to8(lv_color_t color)
 328:Drivers/lvgl/src/draw/sw/../../misc/lv_color.h **** {
 329:Drivers/lvgl/src/draw/sw/../../misc/lv_color.h **** #if LV_COLOR_DEPTH == 1
 330:Drivers/lvgl/src/draw/sw/../../misc/lv_color.h ****     if(color.full == 0)
 331:Drivers/lvgl/src/draw/sw/../../misc/lv_color.h ****         return 0;
 332:Drivers/lvgl/src/draw/sw/../../misc/lv_color.h ****     else
 333:Drivers/lvgl/src/draw/sw/../../misc/lv_color.h ****         return 0xFF;
 334:Drivers/lvgl/src/draw/sw/../../misc/lv_color.h **** #elif LV_COLOR_DEPTH == 8
 335:Drivers/lvgl/src/draw/sw/../../misc/lv_color.h ****     return color.full;
 336:Drivers/lvgl/src/draw/sw/../../misc/lv_color.h **** #elif LV_COLOR_DEPTH == 16
 337:Drivers/lvgl/src/draw/sw/../../misc/lv_color.h ****     lv_color8_t ret;
 338:Drivers/lvgl/src/draw/sw/../../misc/lv_color.h ****     LV_COLOR_SET_R8(ret, LV_COLOR_GET_R(color) >> 2); /*5 - 3  = 2*/
 339:Drivers/lvgl/src/draw/sw/../../misc/lv_color.h ****     LV_COLOR_SET_G8(ret, LV_COLOR_GET_G(color) >> 3); /*6 - 3  = 3*/
 340:Drivers/lvgl/src/draw/sw/../../misc/lv_color.h ****     LV_COLOR_SET_B8(ret, LV_COLOR_GET_B(color) >> 3); /*5 - 2  = 3*/
 341:Drivers/lvgl/src/draw/sw/../../misc/lv_color.h ****     return ret.full;
 342:Drivers/lvgl/src/draw/sw/../../misc/lv_color.h **** #elif LV_COLOR_DEPTH == 32
 343:Drivers/lvgl/src/draw/sw/../../misc/lv_color.h ****     lv_color8_t ret;
 344:Drivers/lvgl/src/draw/sw/../../misc/lv_color.h ****     LV_COLOR_SET_R8(ret, LV_COLOR_GET_R(color) >> 5); /*8 - 3  = 5*/
 345:Drivers/lvgl/src/draw/sw/../../misc/lv_color.h ****     LV_COLOR_SET_G8(ret, LV_COLOR_GET_G(color) >> 5); /*8 - 3  = 5*/
 346:Drivers/lvgl/src/draw/sw/../../misc/lv_color.h ****     LV_COLOR_SET_B8(ret, LV_COLOR_GET_B(color) >> 6); /*8 - 2  = 6*/
 347:Drivers/lvgl/src/draw/sw/../../misc/lv_color.h ****     return ret.full;
 348:Drivers/lvgl/src/draw/sw/../../misc/lv_color.h **** #endif
 349:Drivers/lvgl/src/draw/sw/../../misc/lv_color.h **** }
 350:Drivers/lvgl/src/draw/sw/../../misc/lv_color.h **** 
 351:Drivers/lvgl/src/draw/sw/../../misc/lv_color.h **** static inline uint16_t lv_color_to16(lv_color_t color)
 352:Drivers/lvgl/src/draw/sw/../../misc/lv_color.h **** {
 353:Drivers/lvgl/src/draw/sw/../../misc/lv_color.h **** #if LV_COLOR_DEPTH == 1
 354:Drivers/lvgl/src/draw/sw/../../misc/lv_color.h ****     if(color.full == 0)
 355:Drivers/lvgl/src/draw/sw/../../misc/lv_color.h ****         return 0;
 356:Drivers/lvgl/src/draw/sw/../../misc/lv_color.h ****     else
 357:Drivers/lvgl/src/draw/sw/../../misc/lv_color.h ****         return 0xFFFF;
 358:Drivers/lvgl/src/draw/sw/../../misc/lv_color.h **** #elif LV_COLOR_DEPTH == 8
 359:Drivers/lvgl/src/draw/sw/../../misc/lv_color.h ****     lv_color16_t ret;
 360:Drivers/lvgl/src/draw/sw/../../misc/lv_color.h ****     LV_COLOR_SET_R16(ret, LV_COLOR_GET_R(color) * 4);  /*(2^5 - 1)/(2^3 - 1) = 31/7 = 4*/
 361:Drivers/lvgl/src/draw/sw/../../misc/lv_color.h ****     LV_COLOR_SET_G16(ret, LV_COLOR_GET_G(color) * 9);  /*(2^6 - 1)/(2^3 - 1) = 63/7 = 9*/
 362:Drivers/lvgl/src/draw/sw/../../misc/lv_color.h ****     LV_COLOR_SET_B16(ret, LV_COLOR_GET_B(color) * 10); /*(2^5 - 1)/(2^2 - 1) = 31/3 = 10*/
 363:Drivers/lvgl/src/draw/sw/../../misc/lv_color.h ****     return ret.full;
 364:Drivers/lvgl/src/draw/sw/../../misc/lv_color.h **** #elif LV_COLOR_DEPTH == 16
 365:Drivers/lvgl/src/draw/sw/../../misc/lv_color.h ****     return color.full;
 366:Drivers/lvgl/src/draw/sw/../../misc/lv_color.h **** #elif LV_COLOR_DEPTH == 32
ARM GAS  /var/folders/0z/tsy30v1j4xl4_7kw94k978ww0000gn/T//ccll9Ln5.s 			page 28


 367:Drivers/lvgl/src/draw/sw/../../misc/lv_color.h ****     lv_color16_t ret;
 368:Drivers/lvgl/src/draw/sw/../../misc/lv_color.h ****     LV_COLOR_SET_R16(ret, LV_COLOR_GET_R(color) >> 3); /*8 - 5  = 3*/
 369:Drivers/lvgl/src/draw/sw/../../misc/lv_color.h ****     LV_COLOR_SET_G16(ret, LV_COLOR_GET_G(color) >> 2); /*8 - 6  = 2*/
 370:Drivers/lvgl/src/draw/sw/../../misc/lv_color.h ****     LV_COLOR_SET_B16(ret, LV_COLOR_GET_B(color) >> 3); /*8 - 5  = 3*/
 371:Drivers/lvgl/src/draw/sw/../../misc/lv_color.h ****     return ret.full;
 372:Drivers/lvgl/src/draw/sw/../../misc/lv_color.h **** #endif
 373:Drivers/lvgl/src/draw/sw/../../misc/lv_color.h **** }
 374:Drivers/lvgl/src/draw/sw/../../misc/lv_color.h **** 
 375:Drivers/lvgl/src/draw/sw/../../misc/lv_color.h **** static inline uint32_t lv_color_to32(lv_color_t color)
 376:Drivers/lvgl/src/draw/sw/../../misc/lv_color.h **** {
 377:Drivers/lvgl/src/draw/sw/../../misc/lv_color.h **** #if LV_COLOR_DEPTH == 1
 378:Drivers/lvgl/src/draw/sw/../../misc/lv_color.h ****     if(color.full == 0)
 379:Drivers/lvgl/src/draw/sw/../../misc/lv_color.h ****         return 0xFF000000;
 380:Drivers/lvgl/src/draw/sw/../../misc/lv_color.h ****     else
 381:Drivers/lvgl/src/draw/sw/../../misc/lv_color.h ****         return 0xFFFFFFFF;
 382:Drivers/lvgl/src/draw/sw/../../misc/lv_color.h **** #elif LV_COLOR_DEPTH == 8
 383:Drivers/lvgl/src/draw/sw/../../misc/lv_color.h ****     lv_color32_t ret;
 384:Drivers/lvgl/src/draw/sw/../../misc/lv_color.h ****     LV_COLOR_SET_R32(ret, LV_COLOR_GET_R(color) * 36); /*(2^8 - 1)/(2^3 - 1) = 255/7 = 36*/
 385:Drivers/lvgl/src/draw/sw/../../misc/lv_color.h ****     LV_COLOR_SET_G32(ret, LV_COLOR_GET_G(color) * 36); /*(2^8 - 1)/(2^3 - 1) = 255/7 = 36*/
 386:Drivers/lvgl/src/draw/sw/../../misc/lv_color.h ****     LV_COLOR_SET_B32(ret, LV_COLOR_GET_B(color) * 85); /*(2^8 - 1)/(2^2 - 1) = 255/3 = 85*/
 387:Drivers/lvgl/src/draw/sw/../../misc/lv_color.h ****     LV_COLOR_SET_A32(ret, 0xFF);
 388:Drivers/lvgl/src/draw/sw/../../misc/lv_color.h ****     return ret.full;
 389:Drivers/lvgl/src/draw/sw/../../misc/lv_color.h **** #elif LV_COLOR_DEPTH == 16
 390:Drivers/lvgl/src/draw/sw/../../misc/lv_color.h ****     /**
 391:Drivers/lvgl/src/draw/sw/../../misc/lv_color.h ****      * The floating point math for conversion is:
 392:Drivers/lvgl/src/draw/sw/../../misc/lv_color.h ****      *  valueto = valuefrom * ( (2^bitsto - 1) / (float)(2^bitsfrom - 1) )
 393:Drivers/lvgl/src/draw/sw/../../misc/lv_color.h ****      * The faster integer math for conversion is:
 394:Drivers/lvgl/src/draw/sw/../../misc/lv_color.h ****      *  valueto = ( valuefrom * multiplier + adder ) >> divisor
 395:Drivers/lvgl/src/draw/sw/../../misc/lv_color.h ****      *   multiplier = FLOOR( ( (2^bitsto - 1) << divisor ) / (float)(2^bitsfrom - 1) )
 396:Drivers/lvgl/src/draw/sw/../../misc/lv_color.h ****      *
 397:Drivers/lvgl/src/draw/sw/../../misc/lv_color.h ****      * Find the first divisor where ( adder >> divisor ) <= 0
 398:Drivers/lvgl/src/draw/sw/../../misc/lv_color.h ****      *
 399:Drivers/lvgl/src/draw/sw/../../misc/lv_color.h ****      * 5-bit to 8-bit: ( 31 * multiplier + adder ) >> divisor = 255
 400:Drivers/lvgl/src/draw/sw/../../misc/lv_color.h ****      * divisor  multiplier  adder  min (0)  max (31)
 401:Drivers/lvgl/src/draw/sw/../../misc/lv_color.h ****      *       0           8      7        7       255
 402:Drivers/lvgl/src/draw/sw/../../misc/lv_color.h ****      *       1          16     14        7       255
 403:Drivers/lvgl/src/draw/sw/../../misc/lv_color.h ****      *       2          32     28        7       255
 404:Drivers/lvgl/src/draw/sw/../../misc/lv_color.h ****      *       3          65     25        3       255
 405:Drivers/lvgl/src/draw/sw/../../misc/lv_color.h ****      *       4         131     19        1       255
 406:Drivers/lvgl/src/draw/sw/../../misc/lv_color.h ****      *       5         263      7        0       255
 407:Drivers/lvgl/src/draw/sw/../../misc/lv_color.h ****      *
 408:Drivers/lvgl/src/draw/sw/../../misc/lv_color.h ****      * 6-bit to 8-bit: 255 = ( 63 * multiplier + adder ) >> divisor
 409:Drivers/lvgl/src/draw/sw/../../misc/lv_color.h ****      * divisor  multiplier  adder  min (0)  max (63)
 410:Drivers/lvgl/src/draw/sw/../../misc/lv_color.h ****      *       0           4      3        3       255
 411:Drivers/lvgl/src/draw/sw/../../misc/lv_color.h ****      *       1           8      6        3       255
 412:Drivers/lvgl/src/draw/sw/../../misc/lv_color.h ****      *       2          16     12        3       255
 413:Drivers/lvgl/src/draw/sw/../../misc/lv_color.h ****      *       3          32     24        3       255
 414:Drivers/lvgl/src/draw/sw/../../misc/lv_color.h ****      *       4          64     48        3       255
 415:Drivers/lvgl/src/draw/sw/../../misc/lv_color.h ****      *       5         129     33        1       255
 416:Drivers/lvgl/src/draw/sw/../../misc/lv_color.h ****      *       6         259      3        0       255
 417:Drivers/lvgl/src/draw/sw/../../misc/lv_color.h ****      */
 418:Drivers/lvgl/src/draw/sw/../../misc/lv_color.h **** 
 419:Drivers/lvgl/src/draw/sw/../../misc/lv_color.h ****     lv_color32_t ret;
 420:Drivers/lvgl/src/draw/sw/../../misc/lv_color.h ****     LV_COLOR_SET_R32(ret, (LV_COLOR_GET_R(color) * 263 + 7) >> 5);
 421:Drivers/lvgl/src/draw/sw/../../misc/lv_color.h ****     LV_COLOR_SET_G32(ret, (LV_COLOR_GET_G(color) * 259 + 3) >> 6);
 422:Drivers/lvgl/src/draw/sw/../../misc/lv_color.h ****     LV_COLOR_SET_B32(ret, (LV_COLOR_GET_B(color) * 263 + 7) >> 5);
 423:Drivers/lvgl/src/draw/sw/../../misc/lv_color.h ****     LV_COLOR_SET_A32(ret, 0xFF);
ARM GAS  /var/folders/0z/tsy30v1j4xl4_7kw94k978ww0000gn/T//ccll9Ln5.s 			page 29


 424:Drivers/lvgl/src/draw/sw/../../misc/lv_color.h ****     return ret.full;
 425:Drivers/lvgl/src/draw/sw/../../misc/lv_color.h **** #elif LV_COLOR_DEPTH == 32
 426:Drivers/lvgl/src/draw/sw/../../misc/lv_color.h ****     return color.full;
 427:Drivers/lvgl/src/draw/sw/../../misc/lv_color.h **** #endif
 428:Drivers/lvgl/src/draw/sw/../../misc/lv_color.h **** }
 429:Drivers/lvgl/src/draw/sw/../../misc/lv_color.h **** 
 430:Drivers/lvgl/src/draw/sw/../../misc/lv_color.h **** //! @cond Doxygen_Suppress
 431:Drivers/lvgl/src/draw/sw/../../misc/lv_color.h **** 
 432:Drivers/lvgl/src/draw/sw/../../misc/lv_color.h **** /**
 433:Drivers/lvgl/src/draw/sw/../../misc/lv_color.h ****  * Mix two colors with a given ratio.
 434:Drivers/lvgl/src/draw/sw/../../misc/lv_color.h ****  * @param c1 the first color to mix (usually the foreground)
 435:Drivers/lvgl/src/draw/sw/../../misc/lv_color.h ****  * @param c2 the second color to mix (usually the background)
 436:Drivers/lvgl/src/draw/sw/../../misc/lv_color.h ****  * @param mix The ratio of the colors. 0: full `c2`, 255: full `c1`, 127: half `c1` and half`c2`
 437:Drivers/lvgl/src/draw/sw/../../misc/lv_color.h ****  * @return the mixed color
 438:Drivers/lvgl/src/draw/sw/../../misc/lv_color.h ****  */
 439:Drivers/lvgl/src/draw/sw/../../misc/lv_color.h **** static inline lv_color_t LV_ATTRIBUTE_FAST_MEM lv_color_mix(lv_color_t c1, lv_color_t c2, uint8_t m
 122              		.loc 2 439 48 is_stmt 1 view .LVU38
 123              	.LBB59:
 440:Drivers/lvgl/src/draw/sw/../../misc/lv_color.h **** {
 441:Drivers/lvgl/src/draw/sw/../../misc/lv_color.h ****     lv_color_t ret;
 124              		.loc 2 441 5 view .LVU39
 442:Drivers/lvgl/src/draw/sw/../../misc/lv_color.h **** 
 443:Drivers/lvgl/src/draw/sw/../../misc/lv_color.h **** #if LV_COLOR_DEPTH == 16 && LV_COLOR_MIX_ROUND_OFS == 0
 444:Drivers/lvgl/src/draw/sw/../../misc/lv_color.h **** #if LV_COLOR_16_SWAP == 1
 445:Drivers/lvgl/src/draw/sw/../../misc/lv_color.h ****     c1.full = c1.full << 8 | c1.full >> 8;
 125              		.loc 2 445 5 view .LVU40
 446:Drivers/lvgl/src/draw/sw/../../misc/lv_color.h ****     c2.full = c2.full << 8 | c2.full >> 8;
 126              		.loc 2 446 5 view .LVU41
 447:Drivers/lvgl/src/draw/sw/../../misc/lv_color.h **** #endif
 448:Drivers/lvgl/src/draw/sw/../../misc/lv_color.h ****     /*Source: https://stackoverflow.com/a/50012418/1999969*/
 449:Drivers/lvgl/src/draw/sw/../../misc/lv_color.h ****     mix = (uint32_t)((uint32_t)mix + 4) >> 3;
 127              		.loc 2 449 5 view .LVU42
 450:Drivers/lvgl/src/draw/sw/../../misc/lv_color.h ****     uint32_t bg = (uint32_t)((uint32_t)c2.full | ((uint32_t)c2.full << 16)) &
 128              		.loc 2 450 5 view .LVU43
 129              		.loc 2 450 30 is_stmt 0 view .LVU44
 130 0068 49BA     		rev16	r1, r1
 131              	.LVL13:
 451:Drivers/lvgl/src/draw/sw/../../misc/lv_color.h ****                   0x7E0F81F; /*0b00000111111000001111100000011111*/
 452:Drivers/lvgl/src/draw/sw/../../misc/lv_color.h ****     uint32_t fg = (uint32_t)((uint32_t)c1.full | ((uint32_t)c1.full << 16)) & 0x7E0F81F;
 132              		.loc 2 452 30 view .LVU45
 133 006a 5BBA     		rev16	r3, r3
 134              	.LVL14:
 450:Drivers/lvgl/src/draw/sw/../../misc/lv_color.h ****     uint32_t bg = (uint32_t)((uint32_t)c2.full | ((uint32_t)c2.full << 16)) &
 135              		.loc 2 450 30 view .LVU46
 136 006c 88B2     		uxth	r0, r1
 450:Drivers/lvgl/src/draw/sw/../../misc/lv_color.h ****     uint32_t bg = (uint32_t)((uint32_t)c2.full | ((uint32_t)c2.full << 16)) &
 137              		.loc 2 450 14 view .LVU47
 138 006e 134C     		ldr	r4, .L9
 139              	.LVL15:
 450:Drivers/lvgl/src/draw/sw/../../misc/lv_color.h ****     uint32_t bg = (uint32_t)((uint32_t)c2.full | ((uint32_t)c2.full << 16)) &
 140              		.loc 2 450 19 view .LVU48
 141 0070 40EA0141 		orr	r1, r0, r1, lsl #16
 142              		.loc 2 452 30 view .LVU49
 143 0074 98B2     		uxth	r0, r3
 144              		.loc 2 452 19 view .LVU50
 145 0076 40EA0340 		orr	r0, r0, r3, lsl #16
 449:Drivers/lvgl/src/draw/sw/../../misc/lv_color.h ****     uint32_t bg = (uint32_t)((uint32_t)c2.full | ((uint32_t)c2.full << 16)) &
ARM GAS  /var/folders/0z/tsy30v1j4xl4_7kw94k978ww0000gn/T//ccll9Ln5.s 			page 30


 146              		.loc 2 449 11 view .LVU51
 147 007a 0432     		adds	r2, r2, #4
 148              	.LVL16:
 450:Drivers/lvgl/src/draw/sw/../../misc/lv_color.h ****     uint32_t bg = (uint32_t)((uint32_t)c2.full | ((uint32_t)c2.full << 16)) &
 149              		.loc 2 450 14 view .LVU52
 150 007c 01EA0403 		and	r3, r1, r4
 151              	.LVL17:
 152              		.loc 2 452 5 is_stmt 1 view .LVU53
 453:Drivers/lvgl/src/draw/sw/../../misc/lv_color.h ****     uint32_t result = ((((fg - bg) * mix) >> 5) + bg) & 0x7E0F81F;
 153              		.loc 2 453 5 view .LVU54
 452:Drivers/lvgl/src/draw/sw/../../misc/lv_color.h ****     uint32_t result = ((((fg - bg) * mix) >> 5) + bg) & 0x7E0F81F;
 154              		.loc 2 452 14 is_stmt 0 view .LVU55
 155 0080 00EA0401 		and	r1, r0, r4
 156              		.loc 2 453 30 view .LVU56
 157 0084 C91A     		subs	r1, r1, r3
 449:Drivers/lvgl/src/draw/sw/../../misc/lv_color.h ****     uint32_t bg = (uint32_t)((uint32_t)c2.full | ((uint32_t)c2.full << 16)) &
 158              		.loc 2 449 41 view .LVU57
 159 0086 D208     		lsrs	r2, r2, #3
 160              		.loc 2 453 36 view .LVU58
 161 0088 01FB02F2 		mul	r2, r1, r2
 162              		.loc 2 453 49 view .LVU59
 163 008c 03EB5213 		add	r3, r3, r2, lsr #5
 164              	.LVL18:
 165              		.loc 2 453 14 view .LVU60
 166 0090 2340     		ands	r3, r3, r4
 167              	.LVL19:
 454:Drivers/lvgl/src/draw/sw/../../misc/lv_color.h ****     ret.full = (uint16_t)((result >> 16) | result);
 168              		.loc 2 454 5 is_stmt 1 view .LVU61
 455:Drivers/lvgl/src/draw/sw/../../misc/lv_color.h **** #if LV_COLOR_16_SWAP == 1
 456:Drivers/lvgl/src/draw/sw/../../misc/lv_color.h ****     ret.full = ret.full << 8 | ret.full >> 8;
 169              		.loc 2 456 5 view .LVU62
 457:Drivers/lvgl/src/draw/sw/../../misc/lv_color.h **** #endif
 458:Drivers/lvgl/src/draw/sw/../../misc/lv_color.h **** #elif LV_COLOR_DEPTH != 1
 459:Drivers/lvgl/src/draw/sw/../../misc/lv_color.h ****     /*LV_COLOR_DEPTH == 8, 16 or 32*/
 460:Drivers/lvgl/src/draw/sw/../../misc/lv_color.h ****     LV_COLOR_SET_R(ret, LV_UDIV255((uint16_t)LV_COLOR_GET_R(c1) * mix + LV_COLOR_GET_R(c2) *
 461:Drivers/lvgl/src/draw/sw/../../misc/lv_color.h ****                                    (255 - mix) + LV_COLOR_MIX_ROUND_OFS));
 462:Drivers/lvgl/src/draw/sw/../../misc/lv_color.h ****     LV_COLOR_SET_G(ret, LV_UDIV255((uint16_t)LV_COLOR_GET_G(c1) * mix + LV_COLOR_GET_G(c2) *
 463:Drivers/lvgl/src/draw/sw/../../misc/lv_color.h ****                                    (255 - mix) + LV_COLOR_MIX_ROUND_OFS));
 464:Drivers/lvgl/src/draw/sw/../../misc/lv_color.h ****     LV_COLOR_SET_B(ret, LV_UDIV255((uint16_t)LV_COLOR_GET_B(c1) * mix + LV_COLOR_GET_B(c2) *
 465:Drivers/lvgl/src/draw/sw/../../misc/lv_color.h ****                                    (255 - mix) + LV_COLOR_MIX_ROUND_OFS));
 466:Drivers/lvgl/src/draw/sw/../../misc/lv_color.h ****     LV_COLOR_SET_A(ret, 0xFF);
 467:Drivers/lvgl/src/draw/sw/../../misc/lv_color.h **** #else
 468:Drivers/lvgl/src/draw/sw/../../misc/lv_color.h ****     /*LV_COLOR_DEPTH == 1*/
 469:Drivers/lvgl/src/draw/sw/../../misc/lv_color.h ****     ret.full = mix > LV_OPA_50 ? c1.full : c2.full;
 470:Drivers/lvgl/src/draw/sw/../../misc/lv_color.h **** #endif
 471:Drivers/lvgl/src/draw/sw/../../misc/lv_color.h **** 
 472:Drivers/lvgl/src/draw/sw/../../misc/lv_color.h ****     return ret;
 170              		.loc 2 472 5 view .LVU63
 454:Drivers/lvgl/src/draw/sw/../../misc/lv_color.h **** #if LV_COLOR_16_SWAP == 1
 171              		.loc 2 454 16 is_stmt 0 view .LVU64
 172 0092 43EA1343 		orr	r3, r3, r3, lsr #16
 173              	.LVL20:
 454:Drivers/lvgl/src/draw/sw/../../misc/lv_color.h **** #if LV_COLOR_16_SWAP == 1
 174              		.loc 2 454 16 view .LVU65
 175 0096 58BA     		rev16	r0, r3
 176              	.LVL21:
 454:Drivers/lvgl/src/draw/sw/../../misc/lv_color.h **** #if LV_COLOR_16_SWAP == 1
ARM GAS  /var/folders/0z/tsy30v1j4xl4_7kw94k978ww0000gn/T//ccll9Ln5.s 			page 31


 177              		.loc 2 454 16 view .LVU66
 178              	.LBE59:
 179              	.LBE58:
1035:Drivers/lvgl/src/draw/sw/lv_draw_sw_blend.c **** }
 180              		.loc 1 1035 1 view .LVU67
 181 0098 BDE8F081 		pop	{r4, r5, r6, r7, r8, pc}
 182              	.LVL22:
 183              	.L7:
1013:Drivers/lvgl/src/draw/sw/lv_draw_sw_blend.c **** 
 184              		.loc 1 1013 27 is_stmt 1 discriminator 1 view .LVU68
1013:Drivers/lvgl/src/draw/sw/lv_draw_sw_blend.c **** 
 185              		.loc 1 1013 34 is_stmt 0 discriminator 1 view .LVU69
 186 009c 0846     		mov	r0, r1	@ movhi
 187              		.loc 1 1035 1 discriminator 1 view .LVU70
 188 009e BDE8F081 		pop	{r4, r5, r6, r7, r8, pc}
 189              	.LVL23:
 190              	.L8:
1032:Drivers/lvgl/src/draw/sw/lv_draw_sw_blend.c **** 
 191              		.loc 1 1032 29 is_stmt 1 discriminator 1 view .LVU71
1032:Drivers/lvgl/src/draw/sw/lv_draw_sw_blend.c **** 
 192              		.loc 1 1032 36 is_stmt 0 discriminator 1 view .LVU72
 193 00a2 4FF00000 		mov	r0, #0	@ movhi
 194 00a6 65F30200 		bfi	r0, r5, #0, #3
 195 00aa 64F3C700 		bfi	r0, r4, #3, #5
 196 00ae 6EF30C20 		bfi	r0, lr, #8, #5
 197 00b2 6CF34F30 		bfi	r0, ip, #13, #3
 198              		.loc 1 1035 1 discriminator 1 view .LVU73
 199 00b6 BDE8F081 		pop	{r4, r5, r6, r7, r8, pc}
 200              	.LVL24:
 201              	.L10:
 202              		.loc 1 1035 1 discriminator 1 view .LVU74
 203 00ba 00BF     		.align	2
 204              	.L9:
 205 00bc 1FF8E007 		.word	132184095
 206              		.cfi_endproc
 207              	.LFE170:
 209              		.section	.text.color_blend_true_color_additive,"ax",%progbits
 210              		.align	1
 211              		.p2align 2,,3
 212              		.syntax unified
 213              		.thumb
 214              		.thumb_func
 216              	color_blend_true_color_additive:
 217              	.LVL25:
 218              	.LFB169:
 959:Drivers/lvgl/src/draw/sw/lv_draw_sw_blend.c **** 
 219              		.loc 1 959 1 is_stmt 1 view -0
 220              		.cfi_startproc
 221              		@ args = 0, pretend = 0, frame = 0
 222              		@ frame_needed = 0, uses_anonymous_args = 0
 959:Drivers/lvgl/src/draw/sw/lv_draw_sw_blend.c **** 
 223              		.loc 1 959 1 is_stmt 0 view .LVU76
 224 0000 0346     		mov	r3, r0	@ movhi
 225              	.LVL26:
 961:Drivers/lvgl/src/draw/sw/lv_draw_sw_blend.c **** 
 226              		.loc 1 961 7 view .LVU77
 227 0002 022A     		cmp	r2, #2
ARM GAS  /var/folders/0z/tsy30v1j4xl4_7kw94k978ww0000gn/T//ccll9Ln5.s 			page 32


 959:Drivers/lvgl/src/draw/sw/lv_draw_sw_blend.c **** 
 228              		.loc 1 959 1 view .LVU78
 229 0004 2DE9F041 		push	{r4, r5, r6, r7, r8, lr}
 230              		.cfi_def_cfa_offset 24
 231              		.cfi_offset 4, -24
 232              		.cfi_offset 5, -20
 233              		.cfi_offset 6, -16
 234              		.cfi_offset 7, -12
 235              		.cfi_offset 8, -8
 236              		.cfi_offset 14, -4
 237 0008 C1F3423C 		ubfx	ip, r1, #13, #3
 238 000c C3F3C407 		ubfx	r7, r3, #3, #5
 239              	.LVL27:
 959:Drivers/lvgl/src/draw/sw/lv_draw_sw_blend.c **** 
 240              		.loc 1 959 1 view .LVU79
 241 0010 C3F30425 		ubfx	r5, r3, #8, #5
 242              	.LVL28:
 959:Drivers/lvgl/src/draw/sw/lv_draw_sw_blend.c **** 
 243              		.loc 1 959 1 view .LVU80
 244 0014 C3F34236 		ubfx	r6, r3, #13, #3
 245              	.LVL29:
 959:Drivers/lvgl/src/draw/sw/lv_draw_sw_blend.c **** 
 246              		.loc 1 959 1 view .LVU81
 247 0018 C1F3C404 		ubfx	r4, r1, #3, #5
 248              	.LVL30:
 959:Drivers/lvgl/src/draw/sw/lv_draw_sw_blend.c **** 
 249              		.loc 1 959 1 view .LVU82
 250 001c C1F3042E 		ubfx	lr, r1, #8, #5
 251              	.LVL31:
 961:Drivers/lvgl/src/draw/sw/lv_draw_sw_blend.c **** 
 252              		.loc 1 961 5 is_stmt 1 view .LVU83
 961:Drivers/lvgl/src/draw/sw/lv_draw_sw_blend.c **** 
 253              		.loc 1 961 7 is_stmt 0 view .LVU84
 254 0020 42D9     		bls	.L16
 963:Drivers/lvgl/src/draw/sw/lv_draw_sw_blend.c **** #if LV_COLOR_DEPTH == 1
 255              		.loc 1 963 5 is_stmt 1 view .LVU85
 968:Drivers/lvgl/src/draw/sw/lv_draw_sw_blend.c **** #if LV_COLOR_DEPTH == 8
 256              		.loc 1 968 5 view .LVU86
 257              	.LVL32:
 972:Drivers/lvgl/src/draw/sw/lv_draw_sw_blend.c **** #elif LV_COLOR_DEPTH == 32
 258              		.loc 1 972 5 view .LVU87
 259 0022 01F00700 		and	r0, r1, #7
 985:Drivers/lvgl/src/draw/sw/lv_draw_sw_blend.c ****     tmp = LV_MIN(tmp, 63);
 260              		.loc 1 985 32 is_stmt 0 view .LVU88
 261 0026 0CEBC000 		add	r0, ip, r0, lsl #3
 262 002a 03F00708 		and	r8, r3, #7
 985:Drivers/lvgl/src/draw/sw/lv_draw_sw_blend.c ****     tmp = LV_MIN(tmp, 63);
 263              		.loc 1 985 48 view .LVU89
 264 002e 00EBC800 		add	r0, r0, r8, lsl #3
 985:Drivers/lvgl/src/draw/sw/lv_draw_sw_blend.c ****     tmp = LV_MIN(tmp, 63);
 265              		.loc 1 985 71 view .LVU90
 266 0032 3044     		add	r0, r0, r6
 968:Drivers/lvgl/src/draw/sw/lv_draw_sw_blend.c **** #if LV_COLOR_DEPTH == 8
 267              		.loc 1 968 21 view .LVU91
 268 0034 3C44     		add	r4, r4, r7
 986:Drivers/lvgl/src/draw/sw/lv_draw_sw_blend.c ****     fg.ch.green_h = tmp >> 3;
 269              		.loc 1 986 9 view .LVU92
ARM GAS  /var/folders/0z/tsy30v1j4xl4_7kw94k978ww0000gn/T//ccll9Ln5.s 			page 33


 270 0036 3F28     		cmp	r0, #63
 996:Drivers/lvgl/src/draw/sw/lv_draw_sw_blend.c **** #if LV_COLOR_DEPTH == 8
 271              		.loc 1 996 22 view .LVU93
 272 0038 0EEB050C 		add	ip, lr, r5
 986:Drivers/lvgl/src/draw/sw/lv_draw_sw_blend.c ****     fg.ch.green_h = tmp >> 3;
 273              		.loc 1 986 9 view .LVU94
 274 003c 28BF     		it	cs
 275 003e 3F20     		movcs	r0, #63
 972:Drivers/lvgl/src/draw/sw/lv_draw_sw_blend.c **** #elif LV_COLOR_DEPTH == 32
 276              		.loc 1 972 17 view .LVU95
 277 0040 1F2C     		cmp	r4, #31
 278 0042 28BF     		it	cs
 279 0044 1F24     		movcs	r4, #31
1000:Drivers/lvgl/src/draw/sw/lv_draw_sw_blend.c **** #elif LV_COLOR_DEPTH == 32
 280              		.loc 1 1000 18 view .LVU96
 281 0046 BCF11F0F 		cmp	ip, #31
 282 004a 28BF     		it	cs
 283 004c 4FF01F0C 		movcs	ip, #31
1006:Drivers/lvgl/src/draw/sw/lv_draw_sw_blend.c **** 
 284              		.loc 1 1006 7 view .LVU97
 285 0050 FF2A     		cmp	r2, #255
1000:Drivers/lvgl/src/draw/sw/lv_draw_sw_blend.c **** #elif LV_COLOR_DEPTH == 32
 286              		.loc 1 1000 18 view .LVU98
 287 0052 0CF01F0E 		and	lr, ip, #31
 972:Drivers/lvgl/src/draw/sw/lv_draw_sw_blend.c **** #elif LV_COLOR_DEPTH == 32
 288              		.loc 1 972 17 view .LVU99
 289 0056 04F01F04 		and	r4, r4, #31
 290              	.LVL33:
 985:Drivers/lvgl/src/draw/sw/lv_draw_sw_blend.c ****     tmp = LV_MIN(tmp, 63);
 291              		.loc 1 985 5 is_stmt 1 view .LVU100
 986:Drivers/lvgl/src/draw/sw/lv_draw_sw_blend.c ****     fg.ch.green_h = tmp >> 3;
 292              		.loc 1 986 5 view .LVU101
 987:Drivers/lvgl/src/draw/sw/lv_draw_sw_blend.c ****     fg.ch.green_l = tmp & 0x7;
 293              		.loc 1 987 5 view .LVU102
 987:Drivers/lvgl/src/draw/sw/lv_draw_sw_blend.c ****     fg.ch.green_l = tmp & 0x7;
 294              		.loc 1 987 25 is_stmt 0 view .LVU103
 295 005a C0F3C205 		ubfx	r5, r0, #3, #3
 296              	.LVL34:
 988:Drivers/lvgl/src/draw/sw/lv_draw_sw_blend.c **** #endif
 297              		.loc 1 988 5 is_stmt 1 view .LVU104
 988:Drivers/lvgl/src/draw/sw/lv_draw_sw_blend.c **** #endif
 298              		.loc 1 988 25 is_stmt 0 view .LVU105
 299 005e 00F0070C 		and	ip, r0, #7
 300              	.LVL35:
 996:Drivers/lvgl/src/draw/sw/lv_draw_sw_blend.c **** #if LV_COLOR_DEPTH == 8
 301              		.loc 1 996 5 is_stmt 1 view .LVU106
1000:Drivers/lvgl/src/draw/sw/lv_draw_sw_blend.c **** #elif LV_COLOR_DEPTH == 32
 302              		.loc 1 1000 5 view .LVU107
1006:Drivers/lvgl/src/draw/sw/lv_draw_sw_blend.c **** 
 303              		.loc 1 1006 5 view .LVU108
1006:Drivers/lvgl/src/draw/sw/lv_draw_sw_blend.c **** 
 304              		.loc 1 1006 7 is_stmt 0 view .LVU109
 305 0062 24D0     		beq	.L17
1008:Drivers/lvgl/src/draw/sw/lv_draw_sw_blend.c **** }
 306              		.loc 1 1008 5 is_stmt 1 view .LVU110
1008:Drivers/lvgl/src/draw/sw/lv_draw_sw_blend.c **** }
 307              		.loc 1 1008 5 is_stmt 0 view .LVU111
ARM GAS  /var/folders/0z/tsy30v1j4xl4_7kw94k978ww0000gn/T//ccll9Ln5.s 			page 34


 308 0064 65F30203 		bfi	r3, r5, #0, #3
 309              	.LVL36:
1008:Drivers/lvgl/src/draw/sw/lv_draw_sw_blend.c **** }
 310              		.loc 1 1008 5 view .LVU112
 311 0068 64F3C703 		bfi	r3, r4, #3, #5
1008:Drivers/lvgl/src/draw/sw/lv_draw_sw_blend.c **** }
 312              		.loc 1 1008 5 view .LVU113
 313 006c 6EF30C23 		bfi	r3, lr, #8, #5
1008:Drivers/lvgl/src/draw/sw/lv_draw_sw_blend.c **** }
 314              		.loc 1 1008 5 view .LVU114
 315 0070 6CF34F33 		bfi	r3, ip, #13, #3
 316              	.LVL37:
 317              	.LBB62:
 318              	.LBI62:
 439:Drivers/lvgl/src/draw/sw/../../misc/lv_color.h **** {
 319              		.loc 2 439 48 is_stmt 1 view .LVU115
 320              	.LBB63:
 441:Drivers/lvgl/src/draw/sw/../../misc/lv_color.h **** 
 321              		.loc 2 441 5 view .LVU116
 445:Drivers/lvgl/src/draw/sw/../../misc/lv_color.h ****     c2.full = c2.full << 8 | c2.full >> 8;
 322              		.loc 2 445 5 view .LVU117
 446:Drivers/lvgl/src/draw/sw/../../misc/lv_color.h **** #endif
 323              		.loc 2 446 5 view .LVU118
 449:Drivers/lvgl/src/draw/sw/../../misc/lv_color.h ****     uint32_t bg = (uint32_t)((uint32_t)c2.full | ((uint32_t)c2.full << 16)) &
 324              		.loc 2 449 5 view .LVU119
 450:Drivers/lvgl/src/draw/sw/../../misc/lv_color.h ****                   0x7E0F81F; /*0b00000111111000001111100000011111*/
 325              		.loc 2 450 5 view .LVU120
 450:Drivers/lvgl/src/draw/sw/../../misc/lv_color.h ****                   0x7E0F81F; /*0b00000111111000001111100000011111*/
 326              		.loc 2 450 30 is_stmt 0 view .LVU121
 327 0074 49BA     		rev16	r1, r1
 328              	.LVL38:
 452:Drivers/lvgl/src/draw/sw/../../misc/lv_color.h ****     uint32_t result = ((((fg - bg) * mix) >> 5) + bg) & 0x7E0F81F;
 329              		.loc 2 452 30 view .LVU122
 330 0076 5BBA     		rev16	r3, r3
 331              	.LVL39:
 450:Drivers/lvgl/src/draw/sw/../../misc/lv_color.h ****                   0x7E0F81F; /*0b00000111111000001111100000011111*/
 332              		.loc 2 450 30 view .LVU123
 333 0078 88B2     		uxth	r0, r1
 450:Drivers/lvgl/src/draw/sw/../../misc/lv_color.h ****                   0x7E0F81F; /*0b00000111111000001111100000011111*/
 334              		.loc 2 450 14 view .LVU124
 335 007a 134C     		ldr	r4, .L18
 336              	.LVL40:
 450:Drivers/lvgl/src/draw/sw/../../misc/lv_color.h ****                   0x7E0F81F; /*0b00000111111000001111100000011111*/
 337              		.loc 2 450 19 view .LVU125
 338 007c 40EA0141 		orr	r1, r0, r1, lsl #16
 452:Drivers/lvgl/src/draw/sw/../../misc/lv_color.h ****     uint32_t result = ((((fg - bg) * mix) >> 5) + bg) & 0x7E0F81F;
 339              		.loc 2 452 30 view .LVU126
 340 0080 98B2     		uxth	r0, r3
 452:Drivers/lvgl/src/draw/sw/../../misc/lv_color.h ****     uint32_t result = ((((fg - bg) * mix) >> 5) + bg) & 0x7E0F81F;
 341              		.loc 2 452 19 view .LVU127
 342 0082 40EA0340 		orr	r0, r0, r3, lsl #16
 449:Drivers/lvgl/src/draw/sw/../../misc/lv_color.h ****     uint32_t bg = (uint32_t)((uint32_t)c2.full | ((uint32_t)c2.full << 16)) &
 343              		.loc 2 449 11 view .LVU128
 344 0086 0432     		adds	r2, r2, #4
 345              	.LVL41:
 450:Drivers/lvgl/src/draw/sw/../../misc/lv_color.h ****                   0x7E0F81F; /*0b00000111111000001111100000011111*/
 346              		.loc 2 450 14 view .LVU129
ARM GAS  /var/folders/0z/tsy30v1j4xl4_7kw94k978ww0000gn/T//ccll9Ln5.s 			page 35


 347 0088 01EA0403 		and	r3, r1, r4
 348              	.LVL42:
 452:Drivers/lvgl/src/draw/sw/../../misc/lv_color.h ****     uint32_t result = ((((fg - bg) * mix) >> 5) + bg) & 0x7E0F81F;
 349              		.loc 2 452 5 is_stmt 1 view .LVU130
 453:Drivers/lvgl/src/draw/sw/../../misc/lv_color.h ****     ret.full = (uint16_t)((result >> 16) | result);
 350              		.loc 2 453 5 view .LVU131
 452:Drivers/lvgl/src/draw/sw/../../misc/lv_color.h ****     uint32_t result = ((((fg - bg) * mix) >> 5) + bg) & 0x7E0F81F;
 351              		.loc 2 452 14 is_stmt 0 view .LVU132
 352 008c 00EA0401 		and	r1, r0, r4
 453:Drivers/lvgl/src/draw/sw/../../misc/lv_color.h ****     ret.full = (uint16_t)((result >> 16) | result);
 353              		.loc 2 453 30 view .LVU133
 354 0090 C91A     		subs	r1, r1, r3
 449:Drivers/lvgl/src/draw/sw/../../misc/lv_color.h ****     uint32_t bg = (uint32_t)((uint32_t)c2.full | ((uint32_t)c2.full << 16)) &
 355              		.loc 2 449 41 view .LVU134
 356 0092 D208     		lsrs	r2, r2, #3
 453:Drivers/lvgl/src/draw/sw/../../misc/lv_color.h ****     ret.full = (uint16_t)((result >> 16) | result);
 357              		.loc 2 453 36 view .LVU135
 358 0094 01FB02F2 		mul	r2, r1, r2
 453:Drivers/lvgl/src/draw/sw/../../misc/lv_color.h ****     ret.full = (uint16_t)((result >> 16) | result);
 359              		.loc 2 453 49 view .LVU136
 360 0098 03EB5213 		add	r3, r3, r2, lsr #5
 361              	.LVL43:
 453:Drivers/lvgl/src/draw/sw/../../misc/lv_color.h ****     ret.full = (uint16_t)((result >> 16) | result);
 362              		.loc 2 453 14 view .LVU137
 363 009c 2340     		ands	r3, r3, r4
 364              	.LVL44:
 454:Drivers/lvgl/src/draw/sw/../../misc/lv_color.h **** #if LV_COLOR_16_SWAP == 1
 365              		.loc 2 454 5 is_stmt 1 view .LVU138
 456:Drivers/lvgl/src/draw/sw/../../misc/lv_color.h **** #endif
 366              		.loc 2 456 5 view .LVU139
 367              		.loc 2 472 5 view .LVU140
 454:Drivers/lvgl/src/draw/sw/../../misc/lv_color.h **** #if LV_COLOR_16_SWAP == 1
 368              		.loc 2 454 16 is_stmt 0 view .LVU141
 369 009e 43EA1343 		orr	r3, r3, r3, lsr #16
 370              	.LVL45:
 454:Drivers/lvgl/src/draw/sw/../../misc/lv_color.h **** #if LV_COLOR_16_SWAP == 1
 371              		.loc 2 454 16 view .LVU142
 372 00a2 58BA     		rev16	r0, r3
 373              	.LVL46:
 454:Drivers/lvgl/src/draw/sw/../../misc/lv_color.h **** #if LV_COLOR_16_SWAP == 1
 374              		.loc 2 454 16 view .LVU143
 375              	.LBE63:
 376              	.LBE62:
1009:Drivers/lvgl/src/draw/sw/lv_draw_sw_blend.c **** 
 377              		.loc 1 1009 1 view .LVU144
 378 00a4 BDE8F081 		pop	{r4, r5, r6, r7, r8, pc}
 379              	.LVL47:
 380              	.L16:
 961:Drivers/lvgl/src/draw/sw/lv_draw_sw_blend.c **** 
 381              		.loc 1 961 27 is_stmt 1 discriminator 1 view .LVU145
 961:Drivers/lvgl/src/draw/sw/lv_draw_sw_blend.c **** 
 382              		.loc 1 961 34 is_stmt 0 discriminator 1 view .LVU146
 383 00a8 0846     		mov	r0, r1	@ movhi
1009:Drivers/lvgl/src/draw/sw/lv_draw_sw_blend.c **** 
 384              		.loc 1 1009 1 discriminator 1 view .LVU147
 385 00aa BDE8F081 		pop	{r4, r5, r6, r7, r8, pc}
 386              	.LVL48:
ARM GAS  /var/folders/0z/tsy30v1j4xl4_7kw94k978ww0000gn/T//ccll9Ln5.s 			page 36


 387              	.L17:
1006:Drivers/lvgl/src/draw/sw/lv_draw_sw_blend.c **** 
 388              		.loc 1 1006 29 is_stmt 1 discriminator 1 view .LVU148
1006:Drivers/lvgl/src/draw/sw/lv_draw_sw_blend.c **** 
 389              		.loc 1 1006 36 is_stmt 0 discriminator 1 view .LVU149
 390 00ae 4FF00000 		mov	r0, #0	@ movhi
 391 00b2 65F30200 		bfi	r0, r5, #0, #3
 392 00b6 64F3C700 		bfi	r0, r4, #3, #5
 393 00ba 6EF30C20 		bfi	r0, lr, #8, #5
 394 00be 6CF34F30 		bfi	r0, ip, #13, #3
1009:Drivers/lvgl/src/draw/sw/lv_draw_sw_blend.c **** 
 395              		.loc 1 1009 1 discriminator 1 view .LVU150
 396 00c2 BDE8F081 		pop	{r4, r5, r6, r7, r8, pc}
 397              	.LVL49:
 398              	.L19:
1009:Drivers/lvgl/src/draw/sw/lv_draw_sw_blend.c **** 
 399              		.loc 1 1009 1 discriminator 1 view .LVU151
 400 00c6 00BF     		.align	2
 401              	.L18:
 402 00c8 1FF8E007 		.word	132184095
 403              		.cfi_endproc
 404              	.LFE169:
 406              		.section	.text.color_blend_true_color_multiply,"ax",%progbits
 407              		.align	1
 408              		.p2align 2,,3
 409              		.syntax unified
 410              		.thumb
 411              		.thumb_func
 413              	color_blend_true_color_multiply:
 414              	.LVL50:
 415              	.LFB171:
1036:Drivers/lvgl/src/draw/sw/lv_draw_sw_blend.c **** 
1037:Drivers/lvgl/src/draw/sw/lv_draw_sw_blend.c **** static inline lv_color_t color_blend_true_color_multiply(lv_color_t fg, lv_color_t bg, lv_opa_t opa
1038:Drivers/lvgl/src/draw/sw/lv_draw_sw_blend.c **** {
 416              		.loc 1 1038 1 is_stmt 1 view -0
 417              		.cfi_startproc
 418              		@ args = 0, pretend = 0, frame = 0
 419              		@ frame_needed = 0, uses_anonymous_args = 0
 420              		.loc 1 1038 1 is_stmt 0 view .LVU153
 421 0000 0346     		mov	r3, r0	@ movhi
 422              	.LVL51:
1039:Drivers/lvgl/src/draw/sw/lv_draw_sw_blend.c ****     if(opa <= LV_OPA_MIN) return bg;
 423              		.loc 1 1039 7 view .LVU154
 424 0002 022A     		cmp	r2, #2
1038:Drivers/lvgl/src/draw/sw/lv_draw_sw_blend.c ****     if(opa <= LV_OPA_MIN) return bg;
 425              		.loc 1 1038 1 view .LVU155
 426 0004 2DE9F041 		push	{r4, r5, r6, r7, r8, lr}
 427              		.cfi_def_cfa_offset 24
 428              		.cfi_offset 4, -24
 429              		.cfi_offset 5, -20
 430              		.cfi_offset 6, -16
 431              		.cfi_offset 7, -12
 432              		.cfi_offset 8, -8
 433              		.cfi_offset 14, -4
 434 0008 C3F34230 		ubfx	r0, r3, #13, #3
 435 000c C3F3C40E 		ubfx	lr, r3, #3, #5
 436              	.LVL52:
ARM GAS  /var/folders/0z/tsy30v1j4xl4_7kw94k978ww0000gn/T//ccll9Ln5.s 			page 37


1038:Drivers/lvgl/src/draw/sw/lv_draw_sw_blend.c ****     if(opa <= LV_OPA_MIN) return bg;
 437              		.loc 1 1038 1 view .LVU156
 438 0010 C3F30424 		ubfx	r4, r3, #8, #5
 439              	.LVL53:
1038:Drivers/lvgl/src/draw/sw/lv_draw_sw_blend.c ****     if(opa <= LV_OPA_MIN) return bg;
 440              		.loc 1 1038 1 view .LVU157
 441 0014 C1F3C407 		ubfx	r7, r1, #3, #5
 442              	.LVL54:
1038:Drivers/lvgl/src/draw/sw/lv_draw_sw_blend.c ****     if(opa <= LV_OPA_MIN) return bg;
 443              		.loc 1 1038 1 view .LVU158
 444 0018 C1F30426 		ubfx	r6, r1, #8, #5
 445              	.LVL55:
1038:Drivers/lvgl/src/draw/sw/lv_draw_sw_blend.c ****     if(opa <= LV_OPA_MIN) return bg;
 446              		.loc 1 1038 1 view .LVU159
 447 001c C1F34235 		ubfx	r5, r1, #13, #3
 448              	.LVL56:
 449              		.loc 1 1039 5 is_stmt 1 view .LVU160
 450              		.loc 1 1039 7 is_stmt 0 view .LVU161
 451 0020 3FD9     		bls	.L25
1040:Drivers/lvgl/src/draw/sw/lv_draw_sw_blend.c **** 
1041:Drivers/lvgl/src/draw/sw/lv_draw_sw_blend.c **** #if LV_COLOR_DEPTH == 32
1042:Drivers/lvgl/src/draw/sw/lv_draw_sw_blend.c ****     fg.ch.red = (fg.ch.red * bg.ch.red) >> 8;
1043:Drivers/lvgl/src/draw/sw/lv_draw_sw_blend.c ****     fg.ch.green = (fg.ch.green * bg.ch.green) >> 8;
1044:Drivers/lvgl/src/draw/sw/lv_draw_sw_blend.c ****     fg.ch.blue = (fg.ch.blue * bg.ch.blue) >> 8;
1045:Drivers/lvgl/src/draw/sw/lv_draw_sw_blend.c **** #elif LV_COLOR_DEPTH == 16
1046:Drivers/lvgl/src/draw/sw/lv_draw_sw_blend.c ****     fg.ch.red = (fg.ch.red * bg.ch.red) >> 5;
 452              		.loc 1 1046 5 is_stmt 1 view .LVU162
 453 0022 03F0070C 		and	ip, r3, #7
 454 0026 01F00708 		and	r8, r1, #7
1047:Drivers/lvgl/src/draw/sw/lv_draw_sw_blend.c ****     fg.ch.blue = (fg.ch.blue * bg.ch.blue) >> 5;
1048:Drivers/lvgl/src/draw/sw/lv_draw_sw_blend.c ****     LV_COLOR_SET_G(fg, (LV_COLOR_GET_G(fg) * LV_COLOR_GET_G(bg)) >> 6);
 455              		.loc 1 1048 5 is_stmt 0 view .LVU163
 456 002a 05EBC805 		add	r5, r5, r8, lsl #3
 457 002e 00EBCC0C 		add	ip, r0, ip, lsl #3
 458 0032 05FB0CFC 		mul	ip, r5, ip
1046:Drivers/lvgl/src/draw/sw/lv_draw_sw_blend.c ****     fg.ch.blue = (fg.ch.blue * bg.ch.blue) >> 5;
 459              		.loc 1 1046 28 view .LVU164
 460 0036 1EFB07FE 		smulbb	lr, lr, r7
 461              		.loc 1 1048 5 view .LVU165
 462 003a 4FEA6C27 		asr	r7, ip, #9
 463 003e 00EBC700 		add	r0, r0, r7, lsl #3
1047:Drivers/lvgl/src/draw/sw/lv_draw_sw_blend.c ****     fg.ch.blue = (fg.ch.blue * bg.ch.blue) >> 5;
 464              		.loc 1 1047 30 view .LVU166
 465 0042 14FB06F4 		smulbb	r4, r4, r6
 466              		.loc 1 1048 5 view .LVU167
 467 0046 05FB00F0 		mul	r0, r5, r0
1049:Drivers/lvgl/src/draw/sw/lv_draw_sw_blend.c **** #elif LV_COLOR_DEPTH == 8
1050:Drivers/lvgl/src/draw/sw/lv_draw_sw_blend.c ****     fg.ch.red = (fg.ch.red * bg.ch.red) >> 3;
1051:Drivers/lvgl/src/draw/sw/lv_draw_sw_blend.c ****     fg.ch.green = (fg.ch.green * bg.ch.green) >> 3;
1052:Drivers/lvgl/src/draw/sw/lv_draw_sw_blend.c ****     fg.ch.blue = (fg.ch.blue * bg.ch.blue) >> 2;
1053:Drivers/lvgl/src/draw/sw/lv_draw_sw_blend.c **** #endif
1054:Drivers/lvgl/src/draw/sw/lv_draw_sw_blend.c **** 
1055:Drivers/lvgl/src/draw/sw/lv_draw_sw_blend.c ****     if(opa == LV_OPA_COVER) return fg;
 468              		.loc 1 1055 7 view .LVU168
 469 004a FF2A     		cmp	r2, #255
1046:Drivers/lvgl/src/draw/sw/lv_draw_sw_blend.c ****     fg.ch.blue = (fg.ch.blue * bg.ch.blue) >> 5;
 470              		.loc 1 1046 41 view .LVU169
ARM GAS  /var/folders/0z/tsy30v1j4xl4_7kw94k978ww0000gn/T//ccll9Ln5.s 			page 38


 471 004c 4FEA5E16 		lsr	r6, lr, #5
 472              	.LVL57:
1047:Drivers/lvgl/src/draw/sw/lv_draw_sw_blend.c ****     LV_COLOR_SET_G(fg, (LV_COLOR_GET_G(fg) * LV_COLOR_GET_G(bg)) >> 6);
 473              		.loc 1 1047 5 is_stmt 1 view .LVU170
1047:Drivers/lvgl/src/draw/sw/lv_draw_sw_blend.c ****     LV_COLOR_SET_G(fg, (LV_COLOR_GET_G(fg) * LV_COLOR_GET_G(bg)) >> 6);
 474              		.loc 1 1047 44 is_stmt 0 view .LVU171
 475 0050 4FEA5414 		lsr	r4, r4, #5
 476              	.LVL58:
1048:Drivers/lvgl/src/draw/sw/lv_draw_sw_blend.c **** #elif LV_COLOR_DEPTH == 8
 477              		.loc 1 1048 5 is_stmt 1 view .LVU172
 478 0054 CCF3422E 		ubfx	lr, ip, #9, #3
 479              	.LVL59:
1048:Drivers/lvgl/src/draw/sw/lv_draw_sw_blend.c **** #elif LV_COLOR_DEPTH == 8
 480              		.loc 1 1048 5 view .LVU173
 481 0058 C0F3821C 		ubfx	ip, r0, #6, #3
 482              	.LVL60:
1048:Drivers/lvgl/src/draw/sw/lv_draw_sw_blend.c **** #elif LV_COLOR_DEPTH == 8
 483              		.loc 1 1048 71 view .LVU174
 484              		.loc 1 1055 5 view .LVU175
 485              		.loc 1 1055 7 is_stmt 0 view .LVU176
 486 005c 24D0     		beq	.L26
1056:Drivers/lvgl/src/draw/sw/lv_draw_sw_blend.c **** 
1057:Drivers/lvgl/src/draw/sw/lv_draw_sw_blend.c ****     return lv_color_mix(fg, bg, opa);
 487              		.loc 1 1057 5 is_stmt 1 view .LVU177
 488              		.loc 1 1057 5 is_stmt 0 view .LVU178
 489 005e 6EF30203 		bfi	r3, lr, #0, #3
 490              	.LVL61:
 491              		.loc 1 1057 5 view .LVU179
 492 0062 66F3C703 		bfi	r3, r6, #3, #5
 493              		.loc 1 1057 5 view .LVU180
 494 0066 64F30C23 		bfi	r3, r4, #8, #5
 495              		.loc 1 1057 5 view .LVU181
 496 006a 6CF34F33 		bfi	r3, ip, #13, #3
 497              	.LVL62:
 498              	.LBB66:
 499              	.LBI66:
 439:Drivers/lvgl/src/draw/sw/../../misc/lv_color.h **** {
 500              		.loc 2 439 48 is_stmt 1 view .LVU182
 501              	.LBB67:
 441:Drivers/lvgl/src/draw/sw/../../misc/lv_color.h **** 
 502              		.loc 2 441 5 view .LVU183
 445:Drivers/lvgl/src/draw/sw/../../misc/lv_color.h ****     c2.full = c2.full << 8 | c2.full >> 8;
 503              		.loc 2 445 5 view .LVU184
 446:Drivers/lvgl/src/draw/sw/../../misc/lv_color.h **** #endif
 504              		.loc 2 446 5 view .LVU185
 449:Drivers/lvgl/src/draw/sw/../../misc/lv_color.h ****     uint32_t bg = (uint32_t)((uint32_t)c2.full | ((uint32_t)c2.full << 16)) &
 505              		.loc 2 449 5 view .LVU186
 450:Drivers/lvgl/src/draw/sw/../../misc/lv_color.h ****                   0x7E0F81F; /*0b00000111111000001111100000011111*/
 506              		.loc 2 450 5 view .LVU187
 450:Drivers/lvgl/src/draw/sw/../../misc/lv_color.h ****                   0x7E0F81F; /*0b00000111111000001111100000011111*/
 507              		.loc 2 450 30 is_stmt 0 view .LVU188
 508 006e 49BA     		rev16	r1, r1
 509              	.LVL63:
 452:Drivers/lvgl/src/draw/sw/../../misc/lv_color.h ****     uint32_t result = ((((fg - bg) * mix) >> 5) + bg) & 0x7E0F81F;
 510              		.loc 2 452 30 view .LVU189
 511 0070 5BBA     		rev16	r3, r3
 512              	.LVL64:
ARM GAS  /var/folders/0z/tsy30v1j4xl4_7kw94k978ww0000gn/T//ccll9Ln5.s 			page 39


 450:Drivers/lvgl/src/draw/sw/../../misc/lv_color.h ****                   0x7E0F81F; /*0b00000111111000001111100000011111*/
 513              		.loc 2 450 30 view .LVU190
 514 0072 88B2     		uxth	r0, r1
 450:Drivers/lvgl/src/draw/sw/../../misc/lv_color.h ****                   0x7E0F81F; /*0b00000111111000001111100000011111*/
 515              		.loc 2 450 14 view .LVU191
 516 0074 124C     		ldr	r4, .L27
 517              	.LVL65:
 450:Drivers/lvgl/src/draw/sw/../../misc/lv_color.h ****                   0x7E0F81F; /*0b00000111111000001111100000011111*/
 518              		.loc 2 450 19 view .LVU192
 519 0076 40EA0141 		orr	r1, r0, r1, lsl #16
 452:Drivers/lvgl/src/draw/sw/../../misc/lv_color.h ****     uint32_t result = ((((fg - bg) * mix) >> 5) + bg) & 0x7E0F81F;
 520              		.loc 2 452 30 view .LVU193
 521 007a 98B2     		uxth	r0, r3
 452:Drivers/lvgl/src/draw/sw/../../misc/lv_color.h ****     uint32_t result = ((((fg - bg) * mix) >> 5) + bg) & 0x7E0F81F;
 522              		.loc 2 452 19 view .LVU194
 523 007c 40EA0340 		orr	r0, r0, r3, lsl #16
 449:Drivers/lvgl/src/draw/sw/../../misc/lv_color.h ****     uint32_t bg = (uint32_t)((uint32_t)c2.full | ((uint32_t)c2.full << 16)) &
 524              		.loc 2 449 11 view .LVU195
 525 0080 0432     		adds	r2, r2, #4
 526              	.LVL66:
 450:Drivers/lvgl/src/draw/sw/../../misc/lv_color.h ****                   0x7E0F81F; /*0b00000111111000001111100000011111*/
 527              		.loc 2 450 14 view .LVU196
 528 0082 01EA0403 		and	r3, r1, r4
 529              	.LVL67:
 452:Drivers/lvgl/src/draw/sw/../../misc/lv_color.h ****     uint32_t result = ((((fg - bg) * mix) >> 5) + bg) & 0x7E0F81F;
 530              		.loc 2 452 5 is_stmt 1 view .LVU197
 453:Drivers/lvgl/src/draw/sw/../../misc/lv_color.h ****     ret.full = (uint16_t)((result >> 16) | result);
 531              		.loc 2 453 5 view .LVU198
 452:Drivers/lvgl/src/draw/sw/../../misc/lv_color.h ****     uint32_t result = ((((fg - bg) * mix) >> 5) + bg) & 0x7E0F81F;
 532              		.loc 2 452 14 is_stmt 0 view .LVU199
 533 0086 00EA0401 		and	r1, r0, r4
 453:Drivers/lvgl/src/draw/sw/../../misc/lv_color.h ****     ret.full = (uint16_t)((result >> 16) | result);
 534              		.loc 2 453 30 view .LVU200
 535 008a C91A     		subs	r1, r1, r3
 449:Drivers/lvgl/src/draw/sw/../../misc/lv_color.h ****     uint32_t bg = (uint32_t)((uint32_t)c2.full | ((uint32_t)c2.full << 16)) &
 536              		.loc 2 449 41 view .LVU201
 537 008c D208     		lsrs	r2, r2, #3
 453:Drivers/lvgl/src/draw/sw/../../misc/lv_color.h ****     ret.full = (uint16_t)((result >> 16) | result);
 538              		.loc 2 453 36 view .LVU202
 539 008e 01FB02F2 		mul	r2, r1, r2
 453:Drivers/lvgl/src/draw/sw/../../misc/lv_color.h ****     ret.full = (uint16_t)((result >> 16) | result);
 540              		.loc 2 453 49 view .LVU203
 541 0092 03EB5213 		add	r3, r3, r2, lsr #5
 542              	.LVL68:
 453:Drivers/lvgl/src/draw/sw/../../misc/lv_color.h ****     ret.full = (uint16_t)((result >> 16) | result);
 543              		.loc 2 453 14 view .LVU204
 544 0096 2340     		ands	r3, r3, r4
 545              	.LVL69:
 454:Drivers/lvgl/src/draw/sw/../../misc/lv_color.h **** #if LV_COLOR_16_SWAP == 1
 546              		.loc 2 454 5 is_stmt 1 view .LVU205
 456:Drivers/lvgl/src/draw/sw/../../misc/lv_color.h **** #endif
 547              		.loc 2 456 5 view .LVU206
 548              		.loc 2 472 5 view .LVU207
 454:Drivers/lvgl/src/draw/sw/../../misc/lv_color.h **** #if LV_COLOR_16_SWAP == 1
 549              		.loc 2 454 16 is_stmt 0 view .LVU208
 550 0098 43EA1343 		orr	r3, r3, r3, lsr #16
 551              	.LVL70:
ARM GAS  /var/folders/0z/tsy30v1j4xl4_7kw94k978ww0000gn/T//ccll9Ln5.s 			page 40


 454:Drivers/lvgl/src/draw/sw/../../misc/lv_color.h **** #if LV_COLOR_16_SWAP == 1
 552              		.loc 2 454 16 view .LVU209
 553 009c 58BA     		rev16	r0, r3
 554              	.LVL71:
 454:Drivers/lvgl/src/draw/sw/../../misc/lv_color.h **** #if LV_COLOR_16_SWAP == 1
 555              		.loc 2 454 16 view .LVU210
 556              	.LBE67:
 557              	.LBE66:
1058:Drivers/lvgl/src/draw/sw/lv_draw_sw_blend.c **** }
 558              		.loc 1 1058 1 view .LVU211
 559 009e BDE8F081 		pop	{r4, r5, r6, r7, r8, pc}
 560              	.LVL72:
 561              	.L25:
1039:Drivers/lvgl/src/draw/sw/lv_draw_sw_blend.c **** 
 562              		.loc 1 1039 27 is_stmt 1 discriminator 1 view .LVU212
1039:Drivers/lvgl/src/draw/sw/lv_draw_sw_blend.c **** 
 563              		.loc 1 1039 34 is_stmt 0 discriminator 1 view .LVU213
 564 00a2 0846     		mov	r0, r1	@ movhi
 565              		.loc 1 1058 1 discriminator 1 view .LVU214
 566 00a4 BDE8F081 		pop	{r4, r5, r6, r7, r8, pc}
 567              	.LVL73:
 568              	.L26:
1055:Drivers/lvgl/src/draw/sw/lv_draw_sw_blend.c **** 
 569              		.loc 1 1055 29 is_stmt 1 discriminator 1 view .LVU215
1055:Drivers/lvgl/src/draw/sw/lv_draw_sw_blend.c **** 
 570              		.loc 1 1055 36 is_stmt 0 discriminator 1 view .LVU216
 571 00a8 4FF00000 		mov	r0, #0	@ movhi
 572 00ac 6EF30200 		bfi	r0, lr, #0, #3
 573 00b0 66F3C700 		bfi	r0, r6, #3, #5
 574 00b4 64F30C20 		bfi	r0, r4, #8, #5
 575 00b8 6CF34F30 		bfi	r0, ip, #13, #3
 576              		.loc 1 1058 1 discriminator 1 view .LVU217
 577 00bc BDE8F081 		pop	{r4, r5, r6, r7, r8, pc}
 578              	.LVL74:
 579              	.L28:
 580              		.loc 1 1058 1 discriminator 1 view .LVU218
 581              		.align	2
 582              	.L27:
 583 00c0 1FF8E007 		.word	132184095
 584              		.cfi_endproc
 585              	.LFE171:
 587              		.section	.text.lv_draw_sw_blend,"ax",%progbits
 588              		.align	1
 589              		.p2align 2,,3
 590              		.global	lv_draw_sw_blend
 591              		.syntax unified
 592              		.thumb
 593              		.thumb_func
 595              	lv_draw_sw_blend:
 596              	.LVL75:
 597              	.LFB161:
  98:Drivers/lvgl/src/draw/sw/lv_draw_sw_blend.c ****     /*Do not draw transparent things*/
 598              		.loc 1 98 1 is_stmt 1 view -0
 599              		.cfi_startproc
 600              		@ args = 0, pretend = 0, frame = 8
 601              		@ frame_needed = 0, uses_anonymous_args = 0
 100:Drivers/lvgl/src/draw/sw/lv_draw_sw_blend.c **** 
ARM GAS  /var/folders/0z/tsy30v1j4xl4_7kw94k978ww0000gn/T//ccll9Ln5.s 			page 41


 602              		.loc 1 100 5 view .LVU220
 100:Drivers/lvgl/src/draw/sw/lv_draw_sw_blend.c **** 
 603              		.loc 1 100 7 is_stmt 0 view .LVU221
 604 0000 0B7E     		ldrb	r3, [r1, #24]	@ zero_extendqisi2
 605 0002 022B     		cmp	r3, #2
 606 0004 00D8     		bhi	.L43
 607 0006 7047     		bx	lr
 608              	.L43:
 102:Drivers/lvgl/src/draw/sw/lv_draw_sw_blend.c ****     if(!_lv_area_intersect(&blend_area, dsc->blend_area, draw_ctx->clip_area)) return;
 609              		.loc 1 102 5 is_stmt 1 view .LVU222
 103:Drivers/lvgl/src/draw/sw/lv_draw_sw_blend.c **** 
 610              		.loc 1 103 5 view .LVU223
  98:Drivers/lvgl/src/draw/sw/lv_draw_sw_blend.c ****     /*Do not draw transparent things*/
 611              		.loc 1 98 1 is_stmt 0 view .LVU224
 612 0008 30B5     		push	{r4, r5, lr}
 613              		.cfi_def_cfa_offset 12
 614              		.cfi_offset 4, -12
 615              		.cfi_offset 5, -8
 616              		.cfi_offset 14, -4
 617 000a 83B0     		sub	sp, sp, #12
 618              		.cfi_def_cfa_offset 24
 103:Drivers/lvgl/src/draw/sw/lv_draw_sw_blend.c **** 
 619              		.loc 1 103 9 view .LVU225
 620 000c 8268     		ldr	r2, [r0, #8]
 621 000e 0C46     		mov	r4, r1
 622 0010 0546     		mov	r5, r0
 623 0012 0968     		ldr	r1, [r1]
 624              	.LVL76:
 103:Drivers/lvgl/src/draw/sw/lv_draw_sw_blend.c **** 
 625              		.loc 1 103 9 view .LVU226
 626 0014 6846     		mov	r0, sp
 627              	.LVL77:
 103:Drivers/lvgl/src/draw/sw/lv_draw_sw_blend.c **** 
 628              		.loc 1 103 9 view .LVU227
 629 0016 FFF7FEFF 		bl	_lv_area_intersect
 630              	.LVL78:
 103:Drivers/lvgl/src/draw/sw/lv_draw_sw_blend.c **** 
 631              		.loc 1 103 7 view .LVU228
 632 001a 38B1     		cbz	r0, .L29
 105:Drivers/lvgl/src/draw/sw/lv_draw_sw_blend.c **** 
 633              		.loc 1 105 5 is_stmt 1 view .LVU229
 105:Drivers/lvgl/src/draw/sw/lv_draw_sw_blend.c **** 
 634              		.loc 1 105 16 is_stmt 0 view .LVU230
 635 001c 6B6B     		ldr	r3, [r5, #52]
 105:Drivers/lvgl/src/draw/sw/lv_draw_sw_blend.c **** 
 636              		.loc 1 105 7 view .LVU231
 637 001e 0BB1     		cbz	r3, .L31
 105:Drivers/lvgl/src/draw/sw/lv_draw_sw_blend.c **** 
 638              		.loc 1 105 35 is_stmt 1 discriminator 1 view .LVU232
 639 0020 2846     		mov	r0, r5
 640 0022 9847     		blx	r3
 641              	.LVL79:
 642              	.L31:
 107:Drivers/lvgl/src/draw/sw/lv_draw_sw_blend.c **** }
 643              		.loc 1 107 5 view .LVU233
 107:Drivers/lvgl/src/draw/sw/lv_draw_sw_blend.c **** }
 644              		.loc 1 107 6 is_stmt 0 view .LVU234
ARM GAS  /var/folders/0z/tsy30v1j4xl4_7kw94k978ww0000gn/T//ccll9Ln5.s 			page 42


 645 0024 6B6D     		ldr	r3, [r5, #84]
 646 0026 2146     		mov	r1, r4
 647 0028 2846     		mov	r0, r5
 648 002a 9847     		blx	r3
 649              	.LVL80:
 650              	.L29:
 108:Drivers/lvgl/src/draw/sw/lv_draw_sw_blend.c **** 
 651              		.loc 1 108 1 view .LVU235
 652 002c 03B0     		add	sp, sp, #12
 653              		.cfi_def_cfa_offset 12
 654              		@ sp needed
 655 002e 30BD     		pop	{r4, r5, pc}
 108:Drivers/lvgl/src/draw/sw/lv_draw_sw_blend.c **** 
 656              		.loc 1 108 1 view .LVU236
 657              		.cfi_endproc
 658              	.LFE161:
 660              		.section	.text.lv_draw_sw_blend_basic,"ax",%progbits
 661              		.align	1
 662              		.p2align 2,,3
 663              		.global	lv_draw_sw_blend_basic
 664              		.syntax unified
 665              		.thumb
 666              		.thumb_func
 668              	lv_draw_sw_blend_basic:
 669              	.LVL81:
 670              	.LFB162:
 112:Drivers/lvgl/src/draw/sw/lv_draw_sw_blend.c ****     lv_opa_t * mask;
 671              		.loc 1 112 1 is_stmt 1 view -0
 672              		.cfi_startproc
 673              		@ args = 0, pretend = 0, frame = 48
 674              		@ frame_needed = 0, uses_anonymous_args = 0
 113:Drivers/lvgl/src/draw/sw/lv_draw_sw_blend.c ****     if(dsc->mask_buf == NULL) mask = NULL;
 675              		.loc 1 113 5 view .LVU238
 114:Drivers/lvgl/src/draw/sw/lv_draw_sw_blend.c ****     if(dsc->mask_buf && dsc->mask_res == LV_DRAW_MASK_RES_TRANSP) return;
 676              		.loc 1 114 5 view .LVU239
 112:Drivers/lvgl/src/draw/sw/lv_draw_sw_blend.c ****     lv_opa_t * mask;
 677              		.loc 1 112 1 is_stmt 0 view .LVU240
 678 0000 2DE9F04F 		push	{r4, r5, r6, r7, r8, r9, r10, fp, lr}
 679              		.cfi_def_cfa_offset 36
 680              		.cfi_offset 4, -36
 681              		.cfi_offset 5, -32
 682              		.cfi_offset 6, -28
 683              		.cfi_offset 7, -24
 684              		.cfi_offset 8, -20
 685              		.cfi_offset 9, -16
 686              		.cfi_offset 10, -12
 687              		.cfi_offset 11, -8
 688              		.cfi_offset 14, -4
 689 0004 2DED028B 		vpush.64	{d8}
 690              		.cfi_def_cfa_offset 44
 691              		.cfi_offset 80, -44
 692              		.cfi_offset 81, -40
 114:Drivers/lvgl/src/draw/sw/lv_draw_sw_blend.c ****     if(dsc->mask_buf && dsc->mask_res == LV_DRAW_MASK_RES_TRANSP) return;
 693              		.loc 1 114 11 view .LVU241
 694 0008 CB68     		ldr	r3, [r1, #12]
 112:Drivers/lvgl/src/draw/sw/lv_draw_sw_blend.c ****     lv_opa_t * mask;
 695              		.loc 1 112 1 view .LVU242
ARM GAS  /var/folders/0z/tsy30v1j4xl4_7kw94k978ww0000gn/T//ccll9Ln5.s 			page 43


 696 000a 91B0     		sub	sp, sp, #68
 697              		.cfi_def_cfa_offset 112
 112:Drivers/lvgl/src/draw/sw/lv_draw_sw_blend.c ****     lv_opa_t * mask;
 698              		.loc 1 112 1 view .LVU243
 699 000c 8846     		mov	r8, r1
 114:Drivers/lvgl/src/draw/sw/lv_draw_sw_blend.c ****     if(dsc->mask_buf && dsc->mask_res == LV_DRAW_MASK_RES_TRANSP) return;
 700              		.loc 1 114 11 view .LVU244
 701 000e 0493     		str	r3, [sp, #16]
 115:Drivers/lvgl/src/draw/sw/lv_draw_sw_blend.c ****     else if(dsc->mask_res == LV_DRAW_MASK_RES_FULL_COVER) mask = NULL;
 702              		.loc 1 115 5 is_stmt 1 view .LVU245
 112:Drivers/lvgl/src/draw/sw/lv_draw_sw_blend.c ****     lv_opa_t * mask;
 703              		.loc 1 112 1 is_stmt 0 view .LVU246
 704 0010 0646     		mov	r6, r0
 115:Drivers/lvgl/src/draw/sw/lv_draw_sw_blend.c ****     else if(dsc->mask_res == LV_DRAW_MASK_RES_FULL_COVER) mask = NULL;
 705              		.loc 1 115 7 view .LVU247
 706 0012 002B     		cmp	r3, #0
 707 0014 00F0D080 		beq	.L293
 115:Drivers/lvgl/src/draw/sw/lv_draw_sw_blend.c ****     else if(dsc->mask_res == LV_DRAW_MASK_RES_FULL_COVER) mask = NULL;
 708              		.loc 1 115 28 discriminator 1 view .LVU248
 709 0018 0B7C     		ldrb	r3, [r1, #16]	@ zero_extendqisi2
 115:Drivers/lvgl/src/draw/sw/lv_draw_sw_blend.c ****     else if(dsc->mask_res == LV_DRAW_MASK_RES_FULL_COVER) mask = NULL;
 710              		.loc 1 115 22 discriminator 1 view .LVU249
 711 001a 83B1     		cbz	r3, .L44
 712              	.L46:
 116:Drivers/lvgl/src/draw/sw/lv_draw_sw_blend.c ****     else mask = dsc->mask_buf;
 713              		.loc 1 116 10 is_stmt 1 view .LVU250
 116:Drivers/lvgl/src/draw/sw/lv_draw_sw_blend.c ****     else mask = dsc->mask_buf;
 714              		.loc 1 116 64 is_stmt 0 view .LVU251
 715 001c 012B     		cmp	r3, #1
 119:Drivers/lvgl/src/draw/sw/lv_draw_sw_blend.c **** 
 716              		.loc 1 119 56 view .LVU252
 717 001e 7568     		ldr	r5, [r6, #4]
 116:Drivers/lvgl/src/draw/sw/lv_draw_sw_blend.c ****     else mask = dsc->mask_buf;
 718              		.loc 1 116 64 view .LVU253
 719 0020 049B     		ldr	r3, [sp, #16]
 122:Drivers/lvgl/src/draw/sw/lv_draw_sw_blend.c **** 
 720              		.loc 1 122 9 view .LVU254
 721 0022 B268     		ldr	r2, [r6, #8]
 722 0024 D8F80010 		ldr	r1, [r8]
 723              	.LVL82:
 724              	.LBB197:
 725              	.LBB198:
 726              		.file 3 "Drivers/lvgl/src/draw/sw/../../misc/lv_area.h"
   1:Drivers/lvgl/src/draw/sw/../../misc/lv_area.h **** /**
   2:Drivers/lvgl/src/draw/sw/../../misc/lv_area.h ****  * @file lv_area.h
   3:Drivers/lvgl/src/draw/sw/../../misc/lv_area.h ****  *
   4:Drivers/lvgl/src/draw/sw/../../misc/lv_area.h ****  */
   5:Drivers/lvgl/src/draw/sw/../../misc/lv_area.h **** 
   6:Drivers/lvgl/src/draw/sw/../../misc/lv_area.h **** #ifndef LV_AREA_H
   7:Drivers/lvgl/src/draw/sw/../../misc/lv_area.h **** #define LV_AREA_H
   8:Drivers/lvgl/src/draw/sw/../../misc/lv_area.h **** 
   9:Drivers/lvgl/src/draw/sw/../../misc/lv_area.h **** #ifdef __cplusplus
  10:Drivers/lvgl/src/draw/sw/../../misc/lv_area.h **** extern "C" {
  11:Drivers/lvgl/src/draw/sw/../../misc/lv_area.h **** #endif
  12:Drivers/lvgl/src/draw/sw/../../misc/lv_area.h **** 
  13:Drivers/lvgl/src/draw/sw/../../misc/lv_area.h **** /*********************
  14:Drivers/lvgl/src/draw/sw/../../misc/lv_area.h ****  *      INCLUDES
ARM GAS  /var/folders/0z/tsy30v1j4xl4_7kw94k978ww0000gn/T//ccll9Ln5.s 			page 44


  15:Drivers/lvgl/src/draw/sw/../../misc/lv_area.h ****  *********************/
  16:Drivers/lvgl/src/draw/sw/../../misc/lv_area.h **** #include "../lv_conf_internal.h"
  17:Drivers/lvgl/src/draw/sw/../../misc/lv_area.h **** #include <stdbool.h>
  18:Drivers/lvgl/src/draw/sw/../../misc/lv_area.h **** #include <stdint.h>
  19:Drivers/lvgl/src/draw/sw/../../misc/lv_area.h **** 
  20:Drivers/lvgl/src/draw/sw/../../misc/lv_area.h **** /*********************
  21:Drivers/lvgl/src/draw/sw/../../misc/lv_area.h ****  *      DEFINES
  22:Drivers/lvgl/src/draw/sw/../../misc/lv_area.h ****  *********************/
  23:Drivers/lvgl/src/draw/sw/../../misc/lv_area.h **** 
  24:Drivers/lvgl/src/draw/sw/../../misc/lv_area.h **** #if LV_USE_LARGE_COORD
  25:Drivers/lvgl/src/draw/sw/../../misc/lv_area.h **** typedef int32_t lv_coord_t;
  26:Drivers/lvgl/src/draw/sw/../../misc/lv_area.h **** #else
  27:Drivers/lvgl/src/draw/sw/../../misc/lv_area.h **** typedef int16_t lv_coord_t;
  28:Drivers/lvgl/src/draw/sw/../../misc/lv_area.h **** #endif
  29:Drivers/lvgl/src/draw/sw/../../misc/lv_area.h **** 
  30:Drivers/lvgl/src/draw/sw/../../misc/lv_area.h **** /**********************
  31:Drivers/lvgl/src/draw/sw/../../misc/lv_area.h ****  *      TYPEDEFS
  32:Drivers/lvgl/src/draw/sw/../../misc/lv_area.h ****  **********************/
  33:Drivers/lvgl/src/draw/sw/../../misc/lv_area.h **** 
  34:Drivers/lvgl/src/draw/sw/../../misc/lv_area.h **** /**
  35:Drivers/lvgl/src/draw/sw/../../misc/lv_area.h ****  * Represents a point on the screen.
  36:Drivers/lvgl/src/draw/sw/../../misc/lv_area.h ****  */
  37:Drivers/lvgl/src/draw/sw/../../misc/lv_area.h **** typedef struct {
  38:Drivers/lvgl/src/draw/sw/../../misc/lv_area.h ****     lv_coord_t x;
  39:Drivers/lvgl/src/draw/sw/../../misc/lv_area.h ****     lv_coord_t y;
  40:Drivers/lvgl/src/draw/sw/../../misc/lv_area.h **** } lv_point_t;
  41:Drivers/lvgl/src/draw/sw/../../misc/lv_area.h **** 
  42:Drivers/lvgl/src/draw/sw/../../misc/lv_area.h **** /** Represents an area of the screen.*/
  43:Drivers/lvgl/src/draw/sw/../../misc/lv_area.h **** typedef struct {
  44:Drivers/lvgl/src/draw/sw/../../misc/lv_area.h ****     lv_coord_t x1;
  45:Drivers/lvgl/src/draw/sw/../../misc/lv_area.h ****     lv_coord_t y1;
  46:Drivers/lvgl/src/draw/sw/../../misc/lv_area.h ****     lv_coord_t x2;
  47:Drivers/lvgl/src/draw/sw/../../misc/lv_area.h ****     lv_coord_t y2;
  48:Drivers/lvgl/src/draw/sw/../../misc/lv_area.h **** } lv_area_t;
  49:Drivers/lvgl/src/draw/sw/../../misc/lv_area.h **** 
  50:Drivers/lvgl/src/draw/sw/../../misc/lv_area.h **** /** Alignments*/
  51:Drivers/lvgl/src/draw/sw/../../misc/lv_area.h **** enum {
  52:Drivers/lvgl/src/draw/sw/../../misc/lv_area.h ****     LV_ALIGN_DEFAULT = 0,
  53:Drivers/lvgl/src/draw/sw/../../misc/lv_area.h ****     LV_ALIGN_TOP_LEFT,
  54:Drivers/lvgl/src/draw/sw/../../misc/lv_area.h ****     LV_ALIGN_TOP_MID,
  55:Drivers/lvgl/src/draw/sw/../../misc/lv_area.h ****     LV_ALIGN_TOP_RIGHT,
  56:Drivers/lvgl/src/draw/sw/../../misc/lv_area.h ****     LV_ALIGN_BOTTOM_LEFT,
  57:Drivers/lvgl/src/draw/sw/../../misc/lv_area.h ****     LV_ALIGN_BOTTOM_MID,
  58:Drivers/lvgl/src/draw/sw/../../misc/lv_area.h ****     LV_ALIGN_BOTTOM_RIGHT,
  59:Drivers/lvgl/src/draw/sw/../../misc/lv_area.h ****     LV_ALIGN_LEFT_MID,
  60:Drivers/lvgl/src/draw/sw/../../misc/lv_area.h ****     LV_ALIGN_RIGHT_MID,
  61:Drivers/lvgl/src/draw/sw/../../misc/lv_area.h ****     LV_ALIGN_CENTER,
  62:Drivers/lvgl/src/draw/sw/../../misc/lv_area.h **** 
  63:Drivers/lvgl/src/draw/sw/../../misc/lv_area.h ****     LV_ALIGN_OUT_TOP_LEFT,
  64:Drivers/lvgl/src/draw/sw/../../misc/lv_area.h ****     LV_ALIGN_OUT_TOP_MID,
  65:Drivers/lvgl/src/draw/sw/../../misc/lv_area.h ****     LV_ALIGN_OUT_TOP_RIGHT,
  66:Drivers/lvgl/src/draw/sw/../../misc/lv_area.h ****     LV_ALIGN_OUT_BOTTOM_LEFT,
  67:Drivers/lvgl/src/draw/sw/../../misc/lv_area.h ****     LV_ALIGN_OUT_BOTTOM_MID,
  68:Drivers/lvgl/src/draw/sw/../../misc/lv_area.h ****     LV_ALIGN_OUT_BOTTOM_RIGHT,
  69:Drivers/lvgl/src/draw/sw/../../misc/lv_area.h ****     LV_ALIGN_OUT_LEFT_TOP,
  70:Drivers/lvgl/src/draw/sw/../../misc/lv_area.h ****     LV_ALIGN_OUT_LEFT_MID,
  71:Drivers/lvgl/src/draw/sw/../../misc/lv_area.h ****     LV_ALIGN_OUT_LEFT_BOTTOM,
ARM GAS  /var/folders/0z/tsy30v1j4xl4_7kw94k978ww0000gn/T//ccll9Ln5.s 			page 45


  72:Drivers/lvgl/src/draw/sw/../../misc/lv_area.h ****     LV_ALIGN_OUT_RIGHT_TOP,
  73:Drivers/lvgl/src/draw/sw/../../misc/lv_area.h ****     LV_ALIGN_OUT_RIGHT_MID,
  74:Drivers/lvgl/src/draw/sw/../../misc/lv_area.h ****     LV_ALIGN_OUT_RIGHT_BOTTOM,
  75:Drivers/lvgl/src/draw/sw/../../misc/lv_area.h **** };
  76:Drivers/lvgl/src/draw/sw/../../misc/lv_area.h **** typedef uint8_t lv_align_t;
  77:Drivers/lvgl/src/draw/sw/../../misc/lv_area.h **** 
  78:Drivers/lvgl/src/draw/sw/../../misc/lv_area.h **** enum {
  79:Drivers/lvgl/src/draw/sw/../../misc/lv_area.h ****     LV_DIR_NONE     = 0x00,
  80:Drivers/lvgl/src/draw/sw/../../misc/lv_area.h ****     LV_DIR_LEFT     = (1 << 0),
  81:Drivers/lvgl/src/draw/sw/../../misc/lv_area.h ****     LV_DIR_RIGHT    = (1 << 1),
  82:Drivers/lvgl/src/draw/sw/../../misc/lv_area.h ****     LV_DIR_TOP      = (1 << 2),
  83:Drivers/lvgl/src/draw/sw/../../misc/lv_area.h ****     LV_DIR_BOTTOM   = (1 << 3),
  84:Drivers/lvgl/src/draw/sw/../../misc/lv_area.h ****     LV_DIR_HOR      = LV_DIR_LEFT | LV_DIR_RIGHT,
  85:Drivers/lvgl/src/draw/sw/../../misc/lv_area.h ****     LV_DIR_VER      = LV_DIR_TOP | LV_DIR_BOTTOM,
  86:Drivers/lvgl/src/draw/sw/../../misc/lv_area.h ****     LV_DIR_ALL      = LV_DIR_HOR | LV_DIR_VER,
  87:Drivers/lvgl/src/draw/sw/../../misc/lv_area.h **** };
  88:Drivers/lvgl/src/draw/sw/../../misc/lv_area.h **** 
  89:Drivers/lvgl/src/draw/sw/../../misc/lv_area.h **** typedef uint8_t lv_dir_t;
  90:Drivers/lvgl/src/draw/sw/../../misc/lv_area.h **** 
  91:Drivers/lvgl/src/draw/sw/../../misc/lv_area.h **** /**********************
  92:Drivers/lvgl/src/draw/sw/../../misc/lv_area.h ****  * GLOBAL PROTOTYPES
  93:Drivers/lvgl/src/draw/sw/../../misc/lv_area.h ****  **********************/
  94:Drivers/lvgl/src/draw/sw/../../misc/lv_area.h **** 
  95:Drivers/lvgl/src/draw/sw/../../misc/lv_area.h **** /**
  96:Drivers/lvgl/src/draw/sw/../../misc/lv_area.h ****  * Initialize an area
  97:Drivers/lvgl/src/draw/sw/../../misc/lv_area.h ****  * @param area_p pointer to an area
  98:Drivers/lvgl/src/draw/sw/../../misc/lv_area.h ****  * @param x1 left coordinate of the area
  99:Drivers/lvgl/src/draw/sw/../../misc/lv_area.h ****  * @param y1 top coordinate of the area
 100:Drivers/lvgl/src/draw/sw/../../misc/lv_area.h ****  * @param x2 right coordinate of the area
 101:Drivers/lvgl/src/draw/sw/../../misc/lv_area.h ****  * @param y2 bottom coordinate of the area
 102:Drivers/lvgl/src/draw/sw/../../misc/lv_area.h ****  */
 103:Drivers/lvgl/src/draw/sw/../../misc/lv_area.h **** void lv_area_set(lv_area_t * area_p, lv_coord_t x1, lv_coord_t y1, lv_coord_t x2, lv_coord_t y2);
 104:Drivers/lvgl/src/draw/sw/../../misc/lv_area.h **** 
 105:Drivers/lvgl/src/draw/sw/../../misc/lv_area.h **** /**
 106:Drivers/lvgl/src/draw/sw/../../misc/lv_area.h ****  * Copy an area
 107:Drivers/lvgl/src/draw/sw/../../misc/lv_area.h ****  * @param dest pointer to the destination area
 108:Drivers/lvgl/src/draw/sw/../../misc/lv_area.h ****  * @param src pointer to the source area
 109:Drivers/lvgl/src/draw/sw/../../misc/lv_area.h ****  */
 110:Drivers/lvgl/src/draw/sw/../../misc/lv_area.h **** inline static void lv_area_copy(lv_area_t * dest, const lv_area_t * src)
 111:Drivers/lvgl/src/draw/sw/../../misc/lv_area.h **** {
 112:Drivers/lvgl/src/draw/sw/../../misc/lv_area.h ****     dest->x1 = src->x1;
 113:Drivers/lvgl/src/draw/sw/../../misc/lv_area.h ****     dest->y1 = src->y1;
 114:Drivers/lvgl/src/draw/sw/../../misc/lv_area.h ****     dest->x2 = src->x2;
 115:Drivers/lvgl/src/draw/sw/../../misc/lv_area.h ****     dest->y2 = src->y2;
 116:Drivers/lvgl/src/draw/sw/../../misc/lv_area.h **** }
 117:Drivers/lvgl/src/draw/sw/../../misc/lv_area.h **** 
 118:Drivers/lvgl/src/draw/sw/../../misc/lv_area.h **** /**
 119:Drivers/lvgl/src/draw/sw/../../misc/lv_area.h ****  * Get the width of an area
 120:Drivers/lvgl/src/draw/sw/../../misc/lv_area.h ****  * @param area_p pointer to an area
 121:Drivers/lvgl/src/draw/sw/../../misc/lv_area.h ****  * @return the width of the area (if x1 == x2 -> width = 1)
 122:Drivers/lvgl/src/draw/sw/../../misc/lv_area.h ****  */
 123:Drivers/lvgl/src/draw/sw/../../misc/lv_area.h **** static inline lv_coord_t lv_area_get_width(const lv_area_t * area_p)
 124:Drivers/lvgl/src/draw/sw/../../misc/lv_area.h **** {
 125:Drivers/lvgl/src/draw/sw/../../misc/lv_area.h ****     return (lv_coord_t)(area_p->x2 - area_p->x1 + 1);
 727              		.loc 3 125 31 view .LVU255
 728 0028 B5F90440 		ldrsh	r4, [r5, #4]
 729              		.loc 3 125 44 view .LVU256
ARM GAS  /var/folders/0z/tsy30v1j4xl4_7kw94k978ww0000gn/T//ccll9Ln5.s 			page 46


 730 002c B5F90050 		ldrsh	r5, [r5]
 731              	.LBE198:
 732              	.LBE197:
 116:Drivers/lvgl/src/draw/sw/lv_draw_sw_blend.c ****     else mask = dsc->mask_buf;
 733              		.loc 1 116 64 view .LVU257
 734 0030 08BF     		it	eq
 735 0032 0023     		moveq	r3, #0
 122:Drivers/lvgl/src/draw/sw/lv_draw_sw_blend.c **** 
 736              		.loc 1 122 9 view .LVU258
 737 0034 0EA8     		add	r0, sp, #56
 738              	.LVL83:
 116:Drivers/lvgl/src/draw/sw/lv_draw_sw_blend.c ****     else mask = dsc->mask_buf;
 739              		.loc 1 116 64 view .LVU259
 740 0036 0493     		str	r3, [sp, #16]
 741              	.LVL84:
 119:Drivers/lvgl/src/draw/sw/lv_draw_sw_blend.c **** 
 742              		.loc 1 119 5 is_stmt 1 view .LVU260
 743              	.LBB201:
 744              	.LBI197:
 123:Drivers/lvgl/src/draw/sw/../../misc/lv_area.h **** {
 745              		.loc 3 123 26 view .LVU261
 746              	.LBB199:
 747              		.loc 3 125 5 view .LVU262
 748              		.loc 3 125 5 is_stmt 0 view .LVU263
 749              	.LBE199:
 750              	.LBE201:
 121:Drivers/lvgl/src/draw/sw/lv_draw_sw_blend.c ****     if(!_lv_area_intersect(&blend_area, dsc->blend_area, draw_ctx->clip_area)) return;
 751              		.loc 1 121 5 is_stmt 1 view .LVU264
 122:Drivers/lvgl/src/draw/sw/lv_draw_sw_blend.c **** 
 752              		.loc 1 122 5 view .LVU265
 122:Drivers/lvgl/src/draw/sw/lv_draw_sw_blend.c **** 
 753              		.loc 1 122 9 is_stmt 0 view .LVU266
 754 0038 FFF7FEFF 		bl	_lv_area_intersect
 755              	.LVL85:
 122:Drivers/lvgl/src/draw/sw/lv_draw_sw_blend.c **** 
 756              		.loc 1 122 7 view .LVU267
 757 003c 20B9     		cbnz	r0, .L294
 758              	.LVL86:
 759              	.L44:
 207:Drivers/lvgl/src/draw/sw/lv_draw_sw_blend.c **** 
 760              		.loc 1 207 1 view .LVU268
 761 003e 11B0     		add	sp, sp, #68
 762              		.cfi_remember_state
 763              		.cfi_def_cfa_offset 44
 764              		@ sp needed
 765 0040 BDEC028B 		vldm	sp!, {d8}
 766              		.cfi_restore 80
 767              		.cfi_restore 81
 768              		.cfi_def_cfa_offset 36
 769 0044 BDE8F08F 		pop	{r4, r5, r6, r7, r8, r9, r10, fp, pc}
 770              	.LVL87:
 771              	.L294:
 772              		.cfi_restore_state
 124:Drivers/lvgl/src/draw/sw/lv_draw_sw_blend.c ****     lv_color_t * dest_buf = draw_ctx->buf;
 773              		.loc 1 124 24 view .LVU269
 774 0048 FFF7FEFF 		bl	_lv_refr_get_disp_refreshing
 775              	.LVL88:
ARM GAS  /var/folders/0z/tsy30v1j4xl4_7kw94k978ww0000gn/T//ccll9Ln5.s 			page 47


 126:Drivers/lvgl/src/draw/sw/lv_draw_sw_blend.c ****         if(disp->driver->screen_transp == 0) {
 776              		.loc 1 126 12 view .LVU270
 777 004c 0268     		ldr	r2, [r0]
 125:Drivers/lvgl/src/draw/sw/lv_draw_sw_blend.c ****     if(disp->driver->set_px_cb == NULL) {
 778              		.loc 1 125 18 view .LVU271
 779 004e D6F800B0 		ldr	fp, [r6]
 126:Drivers/lvgl/src/draw/sw/lv_draw_sw_blend.c ****         if(disp->driver->screen_transp == 0) {
 780              		.loc 1 126 7 view .LVU272
 781 0052 D369     		ldr	r3, [r2, #28]
 782              	.LBB202:
 783              	.LBB200:
 784              		.loc 3 125 49 view .LVU273
 785 0054 0134     		adds	r4, r4, #1
 786 0056 641B     		subs	r4, r4, r5
 787              		.loc 3 125 12 view .LVU274
 788 0058 24B2     		sxth	r4, r4
 789              	.LBE200:
 790              	.LBE202:
 124:Drivers/lvgl/src/draw/sw/lv_draw_sw_blend.c ****     lv_color_t * dest_buf = draw_ctx->buf;
 791              		.loc 1 124 5 is_stmt 1 view .LVU275
 124:Drivers/lvgl/src/draw/sw/lv_draw_sw_blend.c ****     lv_color_t * dest_buf = draw_ctx->buf;
 792              		.loc 1 124 24 is_stmt 0 view .LVU276
 793 005a 0746     		mov	r7, r0
 794              	.LVL89:
 125:Drivers/lvgl/src/draw/sw/lv_draw_sw_blend.c ****     if(disp->driver->set_px_cb == NULL) {
 795              		.loc 1 125 5 is_stmt 1 view .LVU277
 126:Drivers/lvgl/src/draw/sw/lv_draw_sw_blend.c ****         if(disp->driver->screen_transp == 0) {
 796              		.loc 1 126 5 view .LVU278
 126:Drivers/lvgl/src/draw/sw/lv_draw_sw_blend.c ****         if(disp->driver->screen_transp == 0) {
 797              		.loc 1 126 7 is_stmt 0 view .LVU279
 798 005c 002B     		cmp	r3, #0
 799 005e 00F08E81 		beq	.L295
 800              	.LVL90:
 801              	.L49:
 139:Drivers/lvgl/src/draw/sw/lv_draw_sw_blend.c ****     lv_coord_t src_stride;
 802              		.loc 1 139 5 is_stmt 1 view .LVU280
 139:Drivers/lvgl/src/draw/sw/lv_draw_sw_blend.c ****     lv_coord_t src_stride;
 803              		.loc 1 139 24 is_stmt 0 view .LVU281
 804 0062 D8F80430 		ldr	r3, [r8, #4]
 805              	.LVL91:
 140:Drivers/lvgl/src/draw/sw/lv_draw_sw_blend.c ****     if(src_buf) {
 806              		.loc 1 140 5 is_stmt 1 view .LVU282
 141:Drivers/lvgl/src/draw/sw/lv_draw_sw_blend.c ****         src_stride = lv_area_get_width(dsc->blend_area);
 807              		.loc 1 141 5 view .LVU283
 141:Drivers/lvgl/src/draw/sw/lv_draw_sw_blend.c ****         src_stride = lv_area_get_width(dsc->blend_area);
 808              		.loc 1 141 7 is_stmt 0 view .LVU284
 809 0066 0693     		str	r3, [sp, #24]
 810 0068 002B     		cmp	r3, #0
 811 006a 00F08681 		beq	.L205
 142:Drivers/lvgl/src/draw/sw/lv_draw_sw_blend.c ****         src_buf += src_stride * (blend_area.y1 - dsc->blend_area->y1) + (blend_area.x1 - dsc->blend
 812              		.loc 1 142 9 is_stmt 1 view .LVU285
 142:Drivers/lvgl/src/draw/sw/lv_draw_sw_blend.c ****         src_buf += src_stride * (blend_area.y1 - dsc->blend_area->y1) + (blend_area.x1 - dsc->blend
 813              		.loc 1 142 43 is_stmt 0 view .LVU286
 814 006e D8F80030 		ldr	r3, [r8]
 815              	.LVL92:
 816              	.LBB203:
 817              	.LBI203:
ARM GAS  /var/folders/0z/tsy30v1j4xl4_7kw94k978ww0000gn/T//ccll9Ln5.s 			page 48


 123:Drivers/lvgl/src/draw/sw/../../misc/lv_area.h **** {
 818              		.loc 3 123 26 is_stmt 1 view .LVU287
 819              	.LBB204:
 820              		.loc 3 125 5 view .LVU288
 821              	.LBE204:
 822              	.LBE203:
 143:Drivers/lvgl/src/draw/sw/lv_draw_sw_blend.c ****     }
 823              		.loc 1 143 44 is_stmt 0 view .LVU289
 824 0072 BDF93A10 		ldrsh	r1, [sp, #58]
 825              	.LBB208:
 826              	.LBB205:
 827              		.loc 3 125 44 view .LVU290
 828 0076 B3F90000 		ldrsh	r0, [r3]
 829              		.loc 3 125 49 view .LVU291
 830 007a 9D88     		ldrh	r5, [r3, #4]
 831              	.LBE205:
 832              	.LBE208:
 143:Drivers/lvgl/src/draw/sw/lv_draw_sw_blend.c ****     }
 833              		.loc 1 143 65 view .LVU292
 834 007c B3F90230 		ldrsh	r3, [r3, #2]
 835              	.LVL93:
 836              	.LBB209:
 837              	.LBB206:
 838              		.loc 3 125 49 view .LVU293
 839 0080 0135     		adds	r5, r5, #1
 840              	.LBE206:
 841              	.LBE209:
 143:Drivers/lvgl/src/draw/sw/lv_draw_sw_blend.c ****     }
 842              		.loc 1 143 48 view .LVU294
 843 0082 C91A     		subs	r1, r1, r3
 143:Drivers/lvgl/src/draw/sw/lv_draw_sw_blend.c ****     }
 844              		.loc 1 143 84 view .LVU295
 845 0084 BDF93830 		ldrsh	r3, [sp, #56]
 846              	.LBB210:
 847              	.LBB207:
 848              		.loc 3 125 49 view .LVU296
 849 0088 2D1A     		subs	r5, r5, r0
 850              		.loc 3 125 12 view .LVU297
 851 008a 2DB2     		sxth	r5, r5
 852              	.LVL94:
 853              		.loc 3 125 12 view .LVU298
 854              	.LBE207:
 855              	.LBE210:
 143:Drivers/lvgl/src/draw/sw/lv_draw_sw_blend.c ****     }
 856              		.loc 1 143 9 is_stmt 1 view .LVU299
 143:Drivers/lvgl/src/draw/sw/lv_draw_sw_blend.c ****     }
 857              		.loc 1 143 88 is_stmt 0 view .LVU300
 858 008c 1B1A     		subs	r3, r3, r0
 143:Drivers/lvgl/src/draw/sw/lv_draw_sw_blend.c ****     }
 859              		.loc 1 143 71 view .LVU301
 860 008e 05FB0133 		mla	r3, r5, r1, r3
 143:Drivers/lvgl/src/draw/sw/lv_draw_sw_blend.c ****     }
 861              		.loc 1 143 17 view .LVU302
 862 0092 0699     		ldr	r1, [sp, #24]
 863 0094 01EB4303 		add	r3, r1, r3, lsl #1
 864 0098 0693     		str	r3, [sp, #24]
 865              	.LVL95:
ARM GAS  /var/folders/0z/tsy30v1j4xl4_7kw94k978ww0000gn/T//ccll9Ln5.s 			page 49


 866              	.L51:
 149:Drivers/lvgl/src/draw/sw/lv_draw_sw_blend.c ****     if(mask) {
 867              		.loc 1 149 5 is_stmt 1 view .LVU303
 150:Drivers/lvgl/src/draw/sw/lv_draw_sw_blend.c ****         /*Round the values in the mask if anti-aliasing is disabled*/
 868              		.loc 1 150 5 view .LVU304
 150:Drivers/lvgl/src/draw/sw/lv_draw_sw_blend.c ****         /*Round the values in the mask if anti-aliasing is disabled*/
 869              		.loc 1 150 7 is_stmt 0 view .LVU305
 870 009a 049B     		ldr	r3, [sp, #16]
 871 009c 002B     		cmp	r3, #0
 872 009e 00F06981 		beq	.L206
 152:Drivers/lvgl/src/draw/sw/lv_draw_sw_blend.c ****             int32_t mask_size = lv_area_get_size(dsc->mask_area);
 873              		.loc 1 152 9 is_stmt 1 view .LVU306
 152:Drivers/lvgl/src/draw/sw/lv_draw_sw_blend.c ****             int32_t mask_size = lv_area_get_size(dsc->mask_area);
 874              		.loc 1 152 39 is_stmt 0 view .LVU307
 875 00a2 137C     		ldrb	r3, [r2, #16]	@ zero_extendqisi2
 152:Drivers/lvgl/src/draw/sw/lv_draw_sw_blend.c ****             int32_t mask_size = lv_area_get_size(dsc->mask_area);
 876              		.loc 1 152 11 view .LVU308
 877 00a4 1A07     		lsls	r2, r3, #28
 878 00a6 40F18980 		bpl	.L53
 879              	.L54:
 160:Drivers/lvgl/src/draw/sw/lv_draw_sw_blend.c ****         mask += mask_stride * (blend_area.y1 - dsc->mask_area->y1) + (blend_area.x1 - dsc->mask_are
 880              		.loc 1 160 9 is_stmt 1 view .LVU309
 160:Drivers/lvgl/src/draw/sw/lv_draw_sw_blend.c ****         mask += mask_stride * (blend_area.y1 - dsc->mask_area->y1) + (blend_area.x1 - dsc->mask_are
 881              		.loc 1 160 44 is_stmt 0 view .LVU310
 882 00aa D8F81400 		ldr	r0, [r8, #20]
 883              	.LVL96:
 884              	.LBB211:
 885              	.LBI211:
 123:Drivers/lvgl/src/draw/sw/../../misc/lv_area.h **** {
 886              		.loc 3 123 26 is_stmt 1 view .LVU311
 887              	.LBB212:
 888              		.loc 3 125 5 view .LVU312
 889              	.LBE212:
 890              	.LBE211:
 161:Drivers/lvgl/src/draw/sw/lv_draw_sw_blend.c **** 
 891              		.loc 1 161 42 is_stmt 0 view .LVU313
 892 00ae BDF93A20 		ldrsh	r2, [sp, #58]
 893              	.LBB217:
 894              	.LBB213:
 895              		.loc 3 125 49 view .LVU314
 896 00b2 8388     		ldrh	r3, [r0, #4]
 897              		.loc 3 125 44 view .LVU315
 898 00b4 B0F90010 		ldrsh	r1, [r0]
 899              	.LBE213:
 900              	.LBE217:
 161:Drivers/lvgl/src/draw/sw/lv_draw_sw_blend.c **** 
 901              		.loc 1 161 62 view .LVU316
 902 00b8 B0F90200 		ldrsh	r0, [r0, #2]
 903              	.LVL97:
 904              	.LBB218:
 905              	.LBB214:
 906              		.loc 3 125 49 view .LVU317
 907 00bc 0133     		adds	r3, r3, #1
 908 00be 5B1A     		subs	r3, r3, r1
 909              	.LBE214:
 910              	.LBE218:
 161:Drivers/lvgl/src/draw/sw/lv_draw_sw_blend.c **** 
ARM GAS  /var/folders/0z/tsy30v1j4xl4_7kw94k978ww0000gn/T//ccll9Ln5.s 			page 50


 911              		.loc 1 161 46 view .LVU318
 912 00c0 121A     		subs	r2, r2, r0
 913              	.LBB219:
 914              	.LBB215:
 915              		.loc 3 125 12 view .LVU319
 916 00c2 18B2     		sxth	r0, r3
 917              	.LBE215:
 918              	.LBE219:
 161:Drivers/lvgl/src/draw/sw/lv_draw_sw_blend.c **** 
 919              		.loc 1 161 81 view .LVU320
 920 00c4 BDF93830 		ldrsh	r3, [sp, #56]
 921              	.LBB220:
 922              	.LBB216:
 923              		.loc 3 125 12 view .LVU321
 924 00c8 0890     		str	r0, [sp, #32]
 925              	.LVL98:
 926              		.loc 3 125 12 view .LVU322
 927              	.LBE216:
 928              	.LBE220:
 161:Drivers/lvgl/src/draw/sw/lv_draw_sw_blend.c **** 
 929              		.loc 1 161 9 is_stmt 1 view .LVU323
 161:Drivers/lvgl/src/draw/sw/lv_draw_sw_blend.c **** 
 930              		.loc 1 161 85 is_stmt 0 view .LVU324
 931 00ca 5B1A     		subs	r3, r3, r1
 161:Drivers/lvgl/src/draw/sw/lv_draw_sw_blend.c **** 
 932              		.loc 1 161 68 view .LVU325
 933 00cc 00FB0233 		mla	r3, r0, r2, r3
 934              	.LVL99:
 161:Drivers/lvgl/src/draw/sw/lv_draw_sw_blend.c **** 
 935              		.loc 1 161 14 view .LVU326
 936 00d0 049A     		ldr	r2, [sp, #16]
 937 00d2 1A44     		add	r2, r2, r3
 938              	.LVL100:
 161:Drivers/lvgl/src/draw/sw/lv_draw_sw_blend.c **** 
 939              		.loc 1 161 14 view .LVU327
 940 00d4 0492     		str	r2, [sp, #16]
 941              	.LVL101:
 942              	.L52:
 168:Drivers/lvgl/src/draw/sw/lv_draw_sw_blend.c **** 
 943              		.loc 1 168 5 is_stmt 1 view .LVU328
 168:Drivers/lvgl/src/draw/sw/lv_draw_sw_blend.c **** 
 944              		.loc 1 168 40 is_stmt 0 view .LVU329
 945 00d6 7368     		ldr	r3, [r6, #4]
 168:Drivers/lvgl/src/draw/sw/lv_draw_sw_blend.c **** 
 946              		.loc 1 168 5 view .LVU330
 947 00d8 5A88     		ldrh	r2, [r3, #2]
 948 00da 1988     		ldrh	r1, [r3]
 949 00dc 5242     		rsbs	r2, r2, #0
 950 00de 4942     		rsbs	r1, r1, #0
 951 00e0 0EA8     		add	r0, sp, #56
 952 00e2 12B2     		sxth	r2, r2
 953 00e4 09B2     		sxth	r1, r1
 954 00e6 FFF7FEFF 		bl	lv_area_move
 955              	.LVL102:
 171:Drivers/lvgl/src/draw/sw/lv_draw_sw_blend.c ****         if(dsc->src_buf == NULL) {
 956              		.loc 1 171 5 is_stmt 1 view .LVU331
 171:Drivers/lvgl/src/draw/sw/lv_draw_sw_blend.c ****         if(dsc->src_buf == NULL) {
ARM GAS  /var/folders/0z/tsy30v1j4xl4_7kw94k978ww0000gn/T//ccll9Ln5.s 			page 51


 957              		.loc 1 171 20 is_stmt 0 view .LVU332
 958 00ea 3B68     		ldr	r3, [r7]
 171:Drivers/lvgl/src/draw/sw/lv_draw_sw_blend.c ****         if(dsc->src_buf == NULL) {
 959              		.loc 1 171 7 view .LVU333
 960 00ec DB69     		ldr	r3, [r3, #28]
 961 00ee 002B     		cmp	r3, #0
 962 00f0 00F0CB80 		beq	.L56
 172:Drivers/lvgl/src/draw/sw/lv_draw_sw_blend.c ****             fill_set_px(dest_buf, &blend_area, dest_stride, dsc->color, dsc->opa, mask, mask_stride
 963              		.loc 1 172 9 is_stmt 1 view .LVU334
 172:Drivers/lvgl/src/draw/sw/lv_draw_sw_blend.c ****             fill_set_px(dest_buf, &blend_area, dest_stride, dsc->color, dsc->opa, mask, mask_stride
 964              		.loc 1 172 11 is_stmt 0 view .LVU335
 965 00f4 D8F80460 		ldr	r6, [r8, #4]
 966              	.LVL103:
 172:Drivers/lvgl/src/draw/sw/lv_draw_sw_blend.c ****             fill_set_px(dest_buf, &blend_area, dest_stride, dsc->color, dsc->opa, mask, mask_stride
 967              		.loc 1 172 11 view .LVU336
 968 00f8 002E     		cmp	r6, #0
 969 00fa 74D0     		beq	.L296
 176:Drivers/lvgl/src/draw/sw/lv_draw_sw_blend.c ****         }
 970              		.loc 1 176 13 is_stmt 1 view .LVU337
 176:Drivers/lvgl/src/draw/sw/lv_draw_sw_blend.c ****         }
 971              		.loc 1 176 84 is_stmt 0 view .LVU338
 972 00fc 98F81890 		ldrb	r9, [r8, #24]	@ zero_extendqisi2
 973              	.LVL104:
 974              	.LBB221:
 975              	.LBI221:
 610:Drivers/lvgl/src/draw/sw/lv_draw_sw_blend.c ****                        const lv_color_t * src_buf, lv_coord_t src_stride, lv_opa_t opa,
 976              		.loc 1 610 13 is_stmt 1 view .LVU339
 977              	.LBB222:
 615:Drivers/lvgl/src/draw/sw/lv_draw_sw_blend.c **** 
 978              		.loc 1 615 5 view .LVU340
 615:Drivers/lvgl/src/draw/sw/lv_draw_sw_blend.c **** 
 979              		.loc 1 615 24 is_stmt 0 view .LVU341
 980 0100 FFF7FEFF 		bl	_lv_refr_get_disp_refreshing
 981              	.LVL105:
 982              	.LBB223:
 983              	.LBB224:
 984              		.loc 3 125 49 view .LVU342
 985 0104 BDF83C80 		ldrh	r8, [sp, #60]
 986              	.LVL106:
 987              		.loc 3 125 49 view .LVU343
 988 0108 BDF83820 		ldrh	r2, [sp, #56]
 989              	.LBE224:
 990              	.LBE223:
 991              	.LBB226:
 992              	.LBB227:
 126:Drivers/lvgl/src/draw/sw/../../misc/lv_area.h **** }
 127:Drivers/lvgl/src/draw/sw/../../misc/lv_area.h **** 
 128:Drivers/lvgl/src/draw/sw/../../misc/lv_area.h **** /**
 129:Drivers/lvgl/src/draw/sw/../../misc/lv_area.h ****  * Get the height of an area
 130:Drivers/lvgl/src/draw/sw/../../misc/lv_area.h ****  * @param area_p pointer to an area
 131:Drivers/lvgl/src/draw/sw/../../misc/lv_area.h ****  * @return the height of the area (if y1 == y2 -> height = 1)
 132:Drivers/lvgl/src/draw/sw/../../misc/lv_area.h ****  */
 133:Drivers/lvgl/src/draw/sw/../../misc/lv_area.h **** static inline lv_coord_t lv_area_get_height(const lv_area_t * area_p)
 134:Drivers/lvgl/src/draw/sw/../../misc/lv_area.h **** {
 135:Drivers/lvgl/src/draw/sw/../../misc/lv_area.h ****     return (lv_coord_t)(area_p->y2 - area_p->y1 + 1);
 993              		.loc 3 135 49 view .LVU344
 994 010c BDF83E30 		ldrh	r3, [sp, #62]
ARM GAS  /var/folders/0z/tsy30v1j4xl4_7kw94k978ww0000gn/T//ccll9Ln5.s 			page 52


 995              	.LBE227:
 996              	.LBE226:
 615:Drivers/lvgl/src/draw/sw/lv_draw_sw_blend.c **** 
 997              		.loc 1 615 24 view .LVU345
 998 0110 0790     		str	r0, [sp, #28]
 999              	.LVL107:
 617:Drivers/lvgl/src/draw/sw/lv_draw_sw_blend.c ****     int32_t h = lv_area_get_height(dest_area);
 1000              		.loc 1 617 5 is_stmt 1 view .LVU346
 1001              	.LBB230:
 1002              	.LBI223:
 123:Drivers/lvgl/src/draw/sw/../../misc/lv_area.h **** {
 1003              		.loc 3 123 26 view .LVU347
 1004              	.LBB225:
 125:Drivers/lvgl/src/draw/sw/../../misc/lv_area.h **** }
 1005              		.loc 3 125 5 view .LVU348
 125:Drivers/lvgl/src/draw/sw/../../misc/lv_area.h **** }
 1006              		.loc 3 125 49 is_stmt 0 view .LVU349
 1007 0112 08F10108 		add	r8, r8, #1
 1008 0116 A8EB0208 		sub	r8, r8, r2
 1009              	.LBE225:
 1010              	.LBE230:
 1011              	.LBB231:
 1012              	.LBB228:
 1013              		.loc 3 135 49 view .LVU350
 1014 011a BDF83A20 		ldrh	r2, [sp, #58]
 1015 011e 0133     		adds	r3, r3, #1
 1016 0120 9B1A     		subs	r3, r3, r2
 1017              	.LBE228:
 1018              	.LBE231:
 623:Drivers/lvgl/src/draw/sw/lv_draw_sw_blend.c ****         for(y = 0; y < h; y++) {
 1019              		.loc 1 623 7 view .LVU351
 1020 0122 049A     		ldr	r2, [sp, #16]
 618:Drivers/lvgl/src/draw/sw/lv_draw_sw_blend.c **** 
 1021              		.loc 1 618 13 view .LVU352
 1022 0124 1BB2     		sxth	r3, r3
 617:Drivers/lvgl/src/draw/sw/lv_draw_sw_blend.c ****     int32_t h = lv_area_get_height(dest_area);
 1023              		.loc 1 617 13 view .LVU353
 1024 0126 0FFA88F8 		sxth	r8, r8
 1025              	.LVL108:
 618:Drivers/lvgl/src/draw/sw/lv_draw_sw_blend.c **** 
 1026              		.loc 1 618 5 is_stmt 1 view .LVU354
 1027              	.LBB232:
 1028              	.LBI226:
 133:Drivers/lvgl/src/draw/sw/../../misc/lv_area.h **** {
 1029              		.loc 3 133 26 view .LVU355
 1030              	.LBB229:
 1031              		.loc 3 135 5 view .LVU356
 1032              		.loc 3 135 5 is_stmt 0 view .LVU357
 1033              	.LBE229:
 1034              	.LBE232:
 618:Drivers/lvgl/src/draw/sw/lv_draw_sw_blend.c **** 
 1035              		.loc 1 618 13 view .LVU358
 1036 012a 0993     		str	r3, [sp, #36]
 1037              	.LVL109:
 620:Drivers/lvgl/src/draw/sw/lv_draw_sw_blend.c ****     int32_t y;
 1038              		.loc 1 620 5 is_stmt 1 view .LVU359
 621:Drivers/lvgl/src/draw/sw/lv_draw_sw_blend.c **** 
ARM GAS  /var/folders/0z/tsy30v1j4xl4_7kw94k978ww0000gn/T//ccll9Ln5.s 			page 53


 1039              		.loc 1 621 5 view .LVU360
 623:Drivers/lvgl/src/draw/sw/lv_draw_sw_blend.c ****         for(y = 0; y < h; y++) {
 1040              		.loc 1 623 5 view .LVU361
 623:Drivers/lvgl/src/draw/sw/lv_draw_sw_blend.c ****         for(y = 0; y < h; y++) {
 1041              		.loc 1 623 7 is_stmt 0 view .LVU362
 1042 012c 002A     		cmp	r2, #0
 1043 012e 00F0C581 		beq	.L70
 1044              	.LVL110:
 633:Drivers/lvgl/src/draw/sw/lv_draw_sw_blend.c ****             for(x = 0; x < w; x++) {
 1045              		.loc 1 633 22 is_stmt 1 view .LVU363
 1046 0132 002B     		cmp	r3, #0
 1047 0134 83DD     		ble	.L44
 641:Drivers/lvgl/src/draw/sw/lv_draw_sw_blend.c ****         }
 1048              		.loc 1 641 21 is_stmt 0 view .LVU364
 1049 0136 6B00     		lsls	r3, r5, #1
 1050              	.LVL111:
 641:Drivers/lvgl/src/draw/sw/lv_draw_sw_blend.c ****         }
 1051              		.loc 1 641 21 view .LVU365
 1052 0138 0A93     		str	r3, [sp, #40]
 633:Drivers/lvgl/src/draw/sw/lv_draw_sw_blend.c ****             for(x = 0; x < w; x++) {
 1053              		.loc 1 633 15 view .LVU366
 1054 013a 0023     		movs	r3, #0
 1055 013c 0593     		str	r3, [sp, #20]
 1056              	.LVL112:
 1057              	.L71:
 634:Drivers/lvgl/src/draw/sw/lv_draw_sw_blend.c ****                 if(mask[x]) {
 1058              		.loc 1 634 26 is_stmt 1 view .LVU367
 1059 013e B8F1000F 		cmp	r8, #0
 1060 0142 26DD     		ble	.L79
 1061 0144 049B     		ldr	r3, [sp, #16]
 1062 0146 069E     		ldr	r6, [sp, #24]
 1063 0148 5F1E     		subs	r7, r3, #1
 634:Drivers/lvgl/src/draw/sw/lv_draw_sw_blend.c ****                 if(mask[x]) {
 1064              		.loc 1 634 19 is_stmt 0 view .LVU368
 1065 014a 0025     		movs	r5, #0
 1066              	.LVL113:
 1067              	.L77:
 635:Drivers/lvgl/src/draw/sw/lv_draw_sw_blend.c ****                     disp->driver->set_px_cb(disp->driver, (void *)dest_buf, dest_stride, dest_area-
 1068              		.loc 1 635 17 is_stmt 1 view .LVU369
 636:Drivers/lvgl/src/draw/sw/lv_draw_sw_blend.c ****                                             (uint32_t)((uint32_t)opa * mask[x]) >> 8);
 1069              		.loc 1 636 21 view .LVU370
 635:Drivers/lvgl/src/draw/sw/lv_draw_sw_blend.c ****                     disp->driver->set_px_cb(disp->driver, (void *)dest_buf, dest_stride, dest_area-
 1070              		.loc 1 635 24 is_stmt 0 view .LVU371
 1071 014c 17F8010F 		ldrb	r0, [r7, #1]!	@ zero_extendqisi2
 637:Drivers/lvgl/src/draw/sw/lv_draw_sw_blend.c ****                 }
 1072              		.loc 1 637 45 view .LVU372
 1073 0150 19FB00F3 		smulbb	r3, r9, r0
 636:Drivers/lvgl/src/draw/sw/lv_draw_sw_blend.c ****                                             (uint32_t)((uint32_t)opa * mask[x]) >> 8);
 1074              		.loc 1 636 21 view .LVU373
 1075 0154 2246     		mov	r2, r4
 1076 0156 1B0A     		lsrs	r3, r3, #8
 1077 0158 5946     		mov	r1, fp
 635:Drivers/lvgl/src/draw/sw/lv_draw_sw_blend.c ****                     disp->driver->set_px_cb(disp->driver, (void *)dest_buf, dest_stride, dest_area-
 1078              		.loc 1 635 19 view .LVU374
 1079 015a A8B1     		cbz	r0, .L76
 1080              	.LVL114:
 636:Drivers/lvgl/src/draw/sw/lv_draw_sw_blend.c ****                                             (uint32_t)((uint32_t)opa * mask[x]) >> 8);
ARM GAS  /var/folders/0z/tsy30v1j4xl4_7kw94k978ww0000gn/T//ccll9Ln5.s 			page 54


 1081              		.loc 1 636 25 view .LVU375
 1082 015c 0798     		ldr	r0, [sp, #28]
 636:Drivers/lvgl/src/draw/sw/lv_draw_sw_blend.c ****                                             (uint32_t)((uint32_t)opa * mask[x]) >> 8);
 1083              		.loc 1 636 123 view .LVU376
 1084 015e BDF83AC0 		ldrh	ip, [sp, #58]
 636:Drivers/lvgl/src/draw/sw/lv_draw_sw_blend.c ****                                             (uint32_t)((uint32_t)opa * mask[x]) >> 8);
 1085              		.loc 1 636 25 view .LVU377
 1086 0162 0068     		ldr	r0, [r0]
 636:Drivers/lvgl/src/draw/sw/lv_draw_sw_blend.c ****                                             (uint32_t)((uint32_t)opa * mask[x]) >> 8);
 1087              		.loc 1 636 21 view .LVU378
 1088 0164 0293     		str	r3, [sp, #8]
 636:Drivers/lvgl/src/draw/sw/lv_draw_sw_blend.c ****                                             (uint32_t)((uint32_t)opa * mask[x]) >> 8);
 1089              		.loc 1 636 123 view .LVU379
 1090 0166 059B     		ldr	r3, [sp, #20]
 636:Drivers/lvgl/src/draw/sw/lv_draw_sw_blend.c ****                                             (uint32_t)((uint32_t)opa * mask[x]) >> 8);
 1091              		.loc 1 636 21 view .LVU380
 1092 0168 B6F800E0 		ldrh	lr, [r6]
 1093 016c ADF804E0 		strh	lr, [sp, #4]	@ movhi
 636:Drivers/lvgl/src/draw/sw/lv_draw_sw_blend.c ****                                             (uint32_t)((uint32_t)opa * mask[x]) >> 8);
 1094              		.loc 1 636 123 view .LVU381
 1095 0170 9C44     		add	ip, ip, r3
 636:Drivers/lvgl/src/draw/sw/lv_draw_sw_blend.c ****                                             (uint32_t)((uint32_t)opa * mask[x]) >> 8);
 1096              		.loc 1 636 104 view .LVU382
 1097 0172 BDF83830 		ldrh	r3, [sp, #56]
 636:Drivers/lvgl/src/draw/sw/lv_draw_sw_blend.c ****                                             (uint32_t)((uint32_t)opa * mask[x]) >> 8);
 1098              		.loc 1 636 21 view .LVU383
 1099 0176 0FFA8CFC 		sxth	ip, ip
 636:Drivers/lvgl/src/draw/sw/lv_draw_sw_blend.c ****                                             (uint32_t)((uint32_t)opa * mask[x]) >> 8);
 1100              		.loc 1 636 104 view .LVU384
 1101 017a 2B44     		add	r3, r3, r5
 636:Drivers/lvgl/src/draw/sw/lv_draw_sw_blend.c ****                                             (uint32_t)((uint32_t)opa * mask[x]) >> 8);
 1102              		.loc 1 636 21 view .LVU385
 1103 017c CDF800C0 		str	ip, [sp]
 1104 0180 D0F81CA0 		ldr	r10, [r0, #28]
 1105 0184 1BB2     		sxth	r3, r3
 1106 0186 D047     		blx	r10
 1107              	.LVL115:
 1108              	.L76:
 634:Drivers/lvgl/src/draw/sw/lv_draw_sw_blend.c ****                 if(mask[x]) {
 1109              		.loc 1 634 32 is_stmt 1 view .LVU386
 1110 0188 0135     		adds	r5, r5, #1
 1111              	.LVL116:
 634:Drivers/lvgl/src/draw/sw/lv_draw_sw_blend.c ****                 if(mask[x]) {
 1112              		.loc 1 634 26 view .LVU387
 1113 018a A845     		cmp	r8, r5
 1114 018c 06F10206 		add	r6, r6, #2
 1115 0190 DCD1     		bne	.L77
 1116              	.LVL117:
 1117              	.L79:
 640:Drivers/lvgl/src/draw/sw/lv_draw_sw_blend.c ****             src_buf += src_stride;
 1118              		.loc 1 640 13 view .LVU388
 640:Drivers/lvgl/src/draw/sw/lv_draw_sw_blend.c ****             src_buf += src_stride;
 1119              		.loc 1 640 18 is_stmt 0 view .LVU389
 1120 0192 049A     		ldr	r2, [sp, #16]
 1121 0194 0899     		ldr	r1, [sp, #32]
 633:Drivers/lvgl/src/draw/sw/lv_draw_sw_blend.c ****             for(x = 0; x < w; x++) {
 1122              		.loc 1 633 28 view .LVU390
ARM GAS  /var/folders/0z/tsy30v1j4xl4_7kw94k978ww0000gn/T//ccll9Ln5.s 			page 55


 1123 0196 059B     		ldr	r3, [sp, #20]
 640:Drivers/lvgl/src/draw/sw/lv_draw_sw_blend.c ****             src_buf += src_stride;
 1124              		.loc 1 640 18 view .LVU391
 1125 0198 0A44     		add	r2, r2, r1
 1126              	.LVL118:
 640:Drivers/lvgl/src/draw/sw/lv_draw_sw_blend.c ****             src_buf += src_stride;
 1127              		.loc 1 640 18 view .LVU392
 1128 019a 0492     		str	r2, [sp, #16]
 641:Drivers/lvgl/src/draw/sw/lv_draw_sw_blend.c ****         }
 1129              		.loc 1 641 13 is_stmt 1 view .LVU393
 641:Drivers/lvgl/src/draw/sw/lv_draw_sw_blend.c ****         }
 1130              		.loc 1 641 21 is_stmt 0 view .LVU394
 1131 019c 0A99     		ldr	r1, [sp, #40]
 1132 019e 069A     		ldr	r2, [sp, #24]
 1133              	.LVL119:
 641:Drivers/lvgl/src/draw/sw/lv_draw_sw_blend.c ****         }
 1134              		.loc 1 641 21 view .LVU395
 1135 01a0 0A44     		add	r2, r2, r1
 1136 01a2 0692     		str	r2, [sp, #24]
 1137              	.LVL120:
 633:Drivers/lvgl/src/draw/sw/lv_draw_sw_blend.c ****             for(x = 0; x < w; x++) {
 1138              		.loc 1 633 28 is_stmt 1 view .LVU396
 633:Drivers/lvgl/src/draw/sw/lv_draw_sw_blend.c ****             for(x = 0; x < w; x++) {
 1139              		.loc 1 633 22 is_stmt 0 view .LVU397
 1140 01a4 099A     		ldr	r2, [sp, #36]
 1141              	.LVL121:
 633:Drivers/lvgl/src/draw/sw/lv_draw_sw_blend.c ****             for(x = 0; x < w; x++) {
 1142              		.loc 1 633 28 view .LVU398
 1143 01a6 0133     		adds	r3, r3, #1
 1144              	.LVL122:
 633:Drivers/lvgl/src/draw/sw/lv_draw_sw_blend.c ****             for(x = 0; x < w; x++) {
 1145              		.loc 1 633 22 is_stmt 1 view .LVU399
 1146 01a8 9A42     		cmp	r2, r3
 633:Drivers/lvgl/src/draw/sw/lv_draw_sw_blend.c ****             for(x = 0; x < w; x++) {
 1147              		.loc 1 633 28 is_stmt 0 view .LVU400
 1148 01aa 0593     		str	r3, [sp, #20]
 633:Drivers/lvgl/src/draw/sw/lv_draw_sw_blend.c ****             for(x = 0; x < w; x++) {
 1149              		.loc 1 633 22 view .LVU401
 1150 01ac C7D1     		bne	.L71
 1151              	.LBE222:
 1152              	.LBE221:
 207:Drivers/lvgl/src/draw/sw/lv_draw_sw_blend.c **** 
 1153              		.loc 1 207 1 view .LVU402
 1154 01ae 11B0     		add	sp, sp, #68
 1155              		.cfi_remember_state
 1156              		.cfi_def_cfa_offset 44
 1157              		@ sp needed
 1158 01b0 BDEC028B 		vldm	sp!, {d8}
 1159              		.cfi_restore 80
 1160              		.cfi_restore 81
 1161              		.cfi_def_cfa_offset 36
 1162 01b4 BDE8F08F 		pop	{r4, r5, r6, r7, r8, r9, r10, fp, pc}
 1163              	.LVL123:
 1164              	.L293:
 1165              		.cfi_restore_state
 115:Drivers/lvgl/src/draw/sw/lv_draw_sw_blend.c ****     else if(dsc->mask_res == LV_DRAW_MASK_RES_FULL_COVER) mask = NULL;
 1166              		.loc 1 115 28 view .LVU403
ARM GAS  /var/folders/0z/tsy30v1j4xl4_7kw94k978ww0000gn/T//ccll9Ln5.s 			page 56


 1167 01b8 0B7C     		ldrb	r3, [r1, #16]	@ zero_extendqisi2
 1168 01ba 2FE7     		b	.L46
 1169              	.LVL124:
 1170              	.L53:
 1171              	.LBB234:
 153:Drivers/lvgl/src/draw/sw/lv_draw_sw_blend.c ****             int32_t i;
 1172              		.loc 1 153 13 is_stmt 1 view .LVU404
 153:Drivers/lvgl/src/draw/sw/lv_draw_sw_blend.c ****             int32_t i;
 1173              		.loc 1 153 33 is_stmt 0 view .LVU405
 1174 01bc D8F81400 		ldr	r0, [r8, #20]
 1175 01c0 FFF7FEFF 		bl	lv_area_get_size
 1176              	.LVL125:
 154:Drivers/lvgl/src/draw/sw/lv_draw_sw_blend.c ****             for(i = 0; i < mask_size; i++) {
 1177              		.loc 1 154 13 is_stmt 1 view .LVU406
 155:Drivers/lvgl/src/draw/sw/lv_draw_sw_blend.c ****                 mask[i] = mask[i] > 128 ? LV_OPA_COVER : LV_OPA_TRANSP;
 1178              		.loc 1 155 13 view .LVU407
 155:Drivers/lvgl/src/draw/sw/lv_draw_sw_blend.c ****                 mask[i] = mask[i] > 128 ? LV_OPA_COVER : LV_OPA_TRANSP;
 1179              		.loc 1 155 26 view .LVU408
 1180 01c4 011E     		subs	r1, r0, #0
 1181 01c6 7FF770AF 		ble	.L54
 1182 01ca 049B     		ldr	r3, [sp, #16]
 1183 01cc 013B     		subs	r3, r3, #1
 1184 01ce 1944     		add	r1, r1, r3
 1185              	.LVL126:
 1186              	.L55:
 156:Drivers/lvgl/src/draw/sw/lv_draw_sw_blend.c ****             }
 1187              		.loc 1 156 17 view .LVU409
 156:Drivers/lvgl/src/draw/sw/lv_draw_sw_blend.c ****             }
 1188              		.loc 1 156 25 is_stmt 0 view .LVU410
 1189 01d0 13F8012F 		ldrb	r2, [r3, #1]!	@ zero_extendqisi2
 156:Drivers/lvgl/src/draw/sw/lv_draw_sw_blend.c ****             }
 1190              		.loc 1 156 25 view .LVU411
 1191 01d4 802A     		cmp	r2, #128
 1192 01d6 4FF0FF32 		mov	r2, #-1
 1193 01da 98BF     		it	ls
 1194 01dc 0022     		movls	r2, #0
 155:Drivers/lvgl/src/draw/sw/lv_draw_sw_blend.c ****                 mask[i] = mask[i] > 128 ? LV_OPA_COVER : LV_OPA_TRANSP;
 1195              		.loc 1 155 26 view .LVU412
 1196 01de 9942     		cmp	r1, r3
 156:Drivers/lvgl/src/draw/sw/lv_draw_sw_blend.c ****             }
 1197              		.loc 1 156 25 view .LVU413
 1198 01e0 1A70     		strb	r2, [r3]
 155:Drivers/lvgl/src/draw/sw/lv_draw_sw_blend.c ****                 mask[i] = mask[i] > 128 ? LV_OPA_COVER : LV_OPA_TRANSP;
 1199              		.loc 1 155 40 is_stmt 1 view .LVU414
 155:Drivers/lvgl/src/draw/sw/lv_draw_sw_blend.c ****                 mask[i] = mask[i] > 128 ? LV_OPA_COVER : LV_OPA_TRANSP;
 1200              		.loc 1 155 26 view .LVU415
 1201 01e2 F5D1     		bne	.L55
 1202 01e4 61E7     		b	.L54
 1203              	.LVL127:
 1204              	.L296:
 155:Drivers/lvgl/src/draw/sw/lv_draw_sw_blend.c ****                 mask[i] = mask[i] > 128 ? LV_OPA_COVER : LV_OPA_TRANSP;
 1205              		.loc 1 155 26 is_stmt 0 view .LVU416
 1206              	.LBE234:
 173:Drivers/lvgl/src/draw/sw/lv_draw_sw_blend.c ****         }
 1207              		.loc 1 173 13 is_stmt 1 view .LVU417
 1208 01e6 B8F80830 		ldrh	r3, [r8, #8]
 173:Drivers/lvgl/src/draw/sw/lv_draw_sw_blend.c ****         }
ARM GAS  /var/folders/0z/tsy30v1j4xl4_7kw94k978ww0000gn/T//ccll9Ln5.s 			page 57


 1209              		.loc 1 173 76 is_stmt 0 view .LVU418
 1210 01ea 98F81870 		ldrb	r7, [r8, #24]	@ zero_extendqisi2
 1211              	.LVL128:
 173:Drivers/lvgl/src/draw/sw/lv_draw_sw_blend.c ****         }
 1212              		.loc 1 173 76 view .LVU419
 1213 01ee 1D46     		mov	r5, r3	@ movhi
 1214              	.LVL129:
 1215              	.LBB235:
 1216              	.LBI235:
 214:Drivers/lvgl/src/draw/sw/lv_draw_sw_blend.c ****                         lv_color_t color, lv_opa_t opa, const lv_opa_t * mask, lv_coord_t mask_stid
 1217              		.loc 1 214 13 is_stmt 1 view .LVU420
 1218              	.LBB236:
 217:Drivers/lvgl/src/draw/sw/lv_draw_sw_blend.c **** 
 1219              		.loc 1 217 5 view .LVU421
 217:Drivers/lvgl/src/draw/sw/lv_draw_sw_blend.c **** 
 1220              		.loc 1 217 24 is_stmt 0 view .LVU422
 1221 01f0 FFF7FEFF 		bl	_lv_refr_get_disp_refreshing
 1222              	.LVL130:
 222:Drivers/lvgl/src/draw/sw/lv_draw_sw_blend.c ****         for(y = blend_area->y1; y <= blend_area->y2; y++) {
 1223              		.loc 1 222 7 view .LVU423
 1224 01f4 049B     		ldr	r3, [sp, #16]
 217:Drivers/lvgl/src/draw/sw/lv_draw_sw_blend.c **** 
 1225              		.loc 1 217 24 view .LVU424
 1226 01f6 8246     		mov	r10, r0
 1227              	.LVL131:
 219:Drivers/lvgl/src/draw/sw/lv_draw_sw_blend.c ****     int32_t y;
 1228              		.loc 1 219 5 is_stmt 1 view .LVU425
 220:Drivers/lvgl/src/draw/sw/lv_draw_sw_blend.c **** 
 1229              		.loc 1 220 5 view .LVU426
 222:Drivers/lvgl/src/draw/sw/lv_draw_sw_blend.c ****         for(y = blend_area->y1; y <= blend_area->y2; y++) {
 1230              		.loc 1 222 5 view .LVU427
 222:Drivers/lvgl/src/draw/sw/lv_draw_sw_blend.c ****         for(y = blend_area->y1; y <= blend_area->y2; y++) {
 1231              		.loc 1 222 7 is_stmt 0 view .LVU428
 1232 01f8 002B     		cmp	r3, #0
 1233 01fa 00F07383 		beq	.L297
 1234              	.LBB237:
 230:Drivers/lvgl/src/draw/sw/lv_draw_sw_blend.c ****         int32_t h = lv_area_get_height(blend_area);
 1235              		.loc 1 230 9 is_stmt 1 view .LVU429
 1236              	.LVL132:
 1237              	.LBB238:
 1238              	.LBI238:
 123:Drivers/lvgl/src/draw/sw/../../misc/lv_area.h **** {
 1239              		.loc 3 123 26 view .LVU430
 1240              	.LBB239:
 125:Drivers/lvgl/src/draw/sw/../../misc/lv_area.h **** }
 1241              		.loc 3 125 5 view .LVU431
 125:Drivers/lvgl/src/draw/sw/../../misc/lv_area.h **** }
 1242              		.loc 3 125 5 is_stmt 0 view .LVU432
 1243              	.LBE239:
 1244              	.LBE238:
 1245              	.LBB243:
 1246              	.LBB244:
 1247              		.loc 3 135 49 view .LVU433
 1248 01fe BDF83E30 		ldrh	r3, [sp, #62]
 1249 0202 BDF83A20 		ldrh	r2, [sp, #58]
 1250              	.LBE244:
 1251              	.LBE243:
ARM GAS  /var/folders/0z/tsy30v1j4xl4_7kw94k978ww0000gn/T//ccll9Ln5.s 			page 58


 1252              	.LBB247:
 1253              	.LBB240:
 125:Drivers/lvgl/src/draw/sw/../../misc/lv_area.h **** }
 1254              		.loc 3 125 49 view .LVU434
 1255 0206 BDF83C80 		ldrh	r8, [sp, #60]
 1256              	.LVL133:
 125:Drivers/lvgl/src/draw/sw/../../misc/lv_area.h **** }
 1257              		.loc 3 125 49 view .LVU435
 1258              	.LBE240:
 1259              	.LBE247:
 1260              	.LBB248:
 1261              	.LBB245:
 1262              		.loc 3 135 49 view .LVU436
 1263 020a 0133     		adds	r3, r3, #1
 1264 020c 9B1A     		subs	r3, r3, r2
 1265              	.LBE245:
 1266              	.LBE248:
 231:Drivers/lvgl/src/draw/sw/lv_draw_sw_blend.c **** 
 1267              		.loc 1 231 17 view .LVU437
 1268 020e 1AB2     		sxth	r2, r3
 1269              	.LBB249:
 1270              	.LBB241:
 125:Drivers/lvgl/src/draw/sw/../../misc/lv_area.h **** }
 1271              		.loc 3 125 49 view .LVU438
 1272 0210 BDF83830 		ldrh	r3, [sp, #56]
 1273              	.LBE241:
 1274              	.LBE249:
 231:Drivers/lvgl/src/draw/sw/lv_draw_sw_blend.c **** 
 1275              		.loc 1 231 17 view .LVU439
 1276 0214 0792     		str	r2, [sp, #28]
 1277              	.LBB250:
 1278              	.LBB242:
 125:Drivers/lvgl/src/draw/sw/../../misc/lv_area.h **** }
 1279              		.loc 3 125 49 view .LVU440
 1280 0216 08F10108 		add	r8, r8, #1
 1281 021a A8EB0308 		sub	r8, r8, r3
 1282              	.LBE242:
 1283              	.LBE250:
 233:Drivers/lvgl/src/draw/sw/lv_draw_sw_blend.c ****             for(x = 0; x < w; x++) {
 1284              		.loc 1 233 22 view .LVU441
 1285 021e 002A     		cmp	r2, #0
 230:Drivers/lvgl/src/draw/sw/lv_draw_sw_blend.c ****         int32_t h = lv_area_get_height(blend_area);
 1286              		.loc 1 230 17 view .LVU442
 1287 0220 0FFA88F8 		sxth	r8, r8
 1288              	.LVL134:
 231:Drivers/lvgl/src/draw/sw/lv_draw_sw_blend.c **** 
 1289              		.loc 1 231 9 is_stmt 1 view .LVU443
 1290              	.LBB251:
 1291              	.LBI243:
 133:Drivers/lvgl/src/draw/sw/../../misc/lv_area.h **** {
 1292              		.loc 3 133 26 view .LVU444
 1293              	.LBB246:
 1294              		.loc 3 135 5 view .LVU445
 1295              		.loc 3 135 5 is_stmt 0 view .LVU446
 1296              	.LBE246:
 1297              	.LBE251:
 233:Drivers/lvgl/src/draw/sw/lv_draw_sw_blend.c ****             for(x = 0; x < w; x++) {
ARM GAS  /var/folders/0z/tsy30v1j4xl4_7kw94k978ww0000gn/T//ccll9Ln5.s 			page 59


 1298              		.loc 1 233 9 is_stmt 1 view .LVU447
 233:Drivers/lvgl/src/draw/sw/lv_draw_sw_blend.c ****             for(x = 0; x < w; x++) {
 1299              		.loc 1 233 22 view .LVU448
 1300 0224 7FF70BAF 		ble	.L44
 1301 0228 5946     		mov	r1, fp
 1302 022a 2246     		mov	r2, r4
 1303              	.LVL135:
 233:Drivers/lvgl/src/draw/sw/lv_draw_sw_blend.c ****             for(x = 0; x < w; x++) {
 1304              		.loc 1 233 22 is_stmt 0 view .LVU449
 1305 022c B146     		mov	r9, r6
 1306              	.LVL136:
 233:Drivers/lvgl/src/draw/sw/lv_draw_sw_blend.c ****             for(x = 0; x < w; x++) {
 1307              		.loc 1 233 22 view .LVU450
 1308 022e AB46     		mov	fp, r5	@ movhi
 1309              	.LVL137:
 1310              	.L64:
 234:Drivers/lvgl/src/draw/sw/lv_draw_sw_blend.c ****                 if(mask[x]) {
 1311              		.loc 1 234 26 is_stmt 1 view .LVU451
 1312 0230 B8F1000F 		cmp	r8, #0
 1313 0234 1FDD     		ble	.L68
 1314 0236 049B     		ldr	r3, [sp, #16]
 234:Drivers/lvgl/src/draw/sw/lv_draw_sw_blend.c ****                 if(mask[x]) {
 1315              		.loc 1 234 19 is_stmt 0 view .LVU452
 1316 0238 0025     		movs	r5, #0
 1317 023a 5E1E     		subs	r6, r3, #1
 1318              	.LVL138:
 1319              	.L66:
 235:Drivers/lvgl/src/draw/sw/lv_draw_sw_blend.c **** 
 1320              		.loc 1 235 17 is_stmt 1 view .LVU453
 238:Drivers/lvgl/src/draw/sw/lv_draw_sw_blend.c ****                                             (uint32_t)((uint32_t)opa * mask[x]) >> 8);
 1321              		.loc 1 238 21 view .LVU454
 235:Drivers/lvgl/src/draw/sw/lv_draw_sw_blend.c **** 
 1322              		.loc 1 235 24 is_stmt 0 view .LVU455
 1323 023c 16F8010F 		ldrb	r0, [r6, #1]!	@ zero_extendqisi2
 239:Drivers/lvgl/src/draw/sw/lv_draw_sw_blend.c ****                 }
 1324              		.loc 1 239 45 view .LVU456
 1325 0240 17FB00F3 		smulbb	r3, r7, r0
 238:Drivers/lvgl/src/draw/sw/lv_draw_sw_blend.c ****                                             (uint32_t)((uint32_t)opa * mask[x]) >> 8);
 1326              		.loc 1 238 21 view .LVU457
 1327 0244 1B0A     		lsrs	r3, r3, #8
 235:Drivers/lvgl/src/draw/sw/lv_draw_sw_blend.c **** 
 1328              		.loc 1 235 19 view .LVU458
 1329 0246 98B1     		cbz	r0, .L65
 238:Drivers/lvgl/src/draw/sw/lv_draw_sw_blend.c ****                                             (uint32_t)((uint32_t)opa * mask[x]) >> 8);
 1330              		.loc 1 238 25 view .LVU459
 1331 0248 DAF80000 		ldr	r0, [r10]
 238:Drivers/lvgl/src/draw/sw/lv_draw_sw_blend.c ****                                             (uint32_t)((uint32_t)opa * mask[x]) >> 8);
 1332              		.loc 1 238 21 view .LVU460
 1333 024c 0293     		str	r3, [sp, #8]
 238:Drivers/lvgl/src/draw/sw/lv_draw_sw_blend.c ****                                             (uint32_t)((uint32_t)opa * mask[x]) >> 8);
 1334              		.loc 1 238 125 view .LVU461
 1335 024e BDF83A30 		ldrh	r3, [sp, #58]
 238:Drivers/lvgl/src/draw/sw/lv_draw_sw_blend.c ****                                             (uint32_t)((uint32_t)opa * mask[x]) >> 8);
 1336              		.loc 1 238 21 view .LVU462
 1337 0252 ADF804B0 		strh	fp, [sp, #4]	@ movhi
 238:Drivers/lvgl/src/draw/sw/lv_draw_sw_blend.c ****                                             (uint32_t)((uint32_t)opa * mask[x]) >> 8);
 1338              		.loc 1 238 125 view .LVU463
ARM GAS  /var/folders/0z/tsy30v1j4xl4_7kw94k978ww0000gn/T//ccll9Ln5.s 			page 60


 1339 0256 4B44     		add	r3, r3, r9
 238:Drivers/lvgl/src/draw/sw/lv_draw_sw_blend.c ****                                             (uint32_t)((uint32_t)opa * mask[x]) >> 8);
 1340              		.loc 1 238 21 view .LVU464
 1341 0258 1BB2     		sxth	r3, r3
 1342 025a 0093     		str	r3, [sp]
 238:Drivers/lvgl/src/draw/sw/lv_draw_sw_blend.c ****                                             (uint32_t)((uint32_t)opa * mask[x]) >> 8);
 1343              		.loc 1 238 105 view .LVU465
 1344 025c BDF83830 		ldrh	r3, [sp, #56]
 238:Drivers/lvgl/src/draw/sw/lv_draw_sw_blend.c ****                                             (uint32_t)((uint32_t)opa * mask[x]) >> 8);
 1345              		.loc 1 238 21 view .LVU466
 1346 0260 C469     		ldr	r4, [r0, #28]
 238:Drivers/lvgl/src/draw/sw/lv_draw_sw_blend.c ****                                             (uint32_t)((uint32_t)opa * mask[x]) >> 8);
 1347              		.loc 1 238 105 view .LVU467
 1348 0262 2B44     		add	r3, r3, r5
 238:Drivers/lvgl/src/draw/sw/lv_draw_sw_blend.c ****                                             (uint32_t)((uint32_t)opa * mask[x]) >> 8);
 1349              		.loc 1 238 21 view .LVU468
 1350 0264 1BB2     		sxth	r3, r3
 1351 0266 CDE90512 		strd	r1, r2, [sp, #20]
 1352 026a A047     		blx	r4
 1353              	.LVL139:
 1354 026c DDE90512 		ldrd	r1, r2, [sp, #20]
 1355              	.L65:
 234:Drivers/lvgl/src/draw/sw/lv_draw_sw_blend.c ****                 if(mask[x]) {
 1356              		.loc 1 234 32 is_stmt 1 view .LVU469
 1357 0270 0135     		adds	r5, r5, #1
 1358              	.LVL140:
 234:Drivers/lvgl/src/draw/sw/lv_draw_sw_blend.c ****                 if(mask[x]) {
 1359              		.loc 1 234 26 view .LVU470
 1360 0272 A845     		cmp	r8, r5
 1361 0274 E2D1     		bne	.L66
 1362              	.LVL141:
 1363              	.L68:
 242:Drivers/lvgl/src/draw/sw/lv_draw_sw_blend.c ****         }
 1364              		.loc 1 242 13 view .LVU471
 242:Drivers/lvgl/src/draw/sw/lv_draw_sw_blend.c ****         }
 1365              		.loc 1 242 18 is_stmt 0 view .LVU472
 1366 0276 049B     		ldr	r3, [sp, #16]
 1367 0278 0898     		ldr	r0, [sp, #32]
 1368 027a 0344     		add	r3, r3, r0
 1369              	.LVL142:
 242:Drivers/lvgl/src/draw/sw/lv_draw_sw_blend.c ****         }
 1370              		.loc 1 242 18 view .LVU473
 1371 027c 0493     		str	r3, [sp, #16]
 233:Drivers/lvgl/src/draw/sw/lv_draw_sw_blend.c ****             for(x = 0; x < w; x++) {
 1372              		.loc 1 233 28 is_stmt 1 view .LVU474
 233:Drivers/lvgl/src/draw/sw/lv_draw_sw_blend.c ****             for(x = 0; x < w; x++) {
 1373              		.loc 1 233 22 is_stmt 0 view .LVU475
 1374 027e 079B     		ldr	r3, [sp, #28]
 1375              	.LVL143:
 233:Drivers/lvgl/src/draw/sw/lv_draw_sw_blend.c ****             for(x = 0; x < w; x++) {
 1376              		.loc 1 233 28 view .LVU476
 1377 0280 09F10109 		add	r9, r9, #1
 1378              	.LVL144:
 233:Drivers/lvgl/src/draw/sw/lv_draw_sw_blend.c ****             for(x = 0; x < w; x++) {
 1379              		.loc 1 233 22 is_stmt 1 view .LVU477
 1380 0284 4B45     		cmp	r3, r9
 1381 0286 D3D1     		bne	.L64
ARM GAS  /var/folders/0z/tsy30v1j4xl4_7kw94k978ww0000gn/T//ccll9Ln5.s 			page 61


 1382 0288 D9E6     		b	.L44
 1383              	.LVL145:
 1384              	.L56:
 233:Drivers/lvgl/src/draw/sw/lv_draw_sw_blend.c ****             for(x = 0; x < w; x++) {
 1385              		.loc 1 233 22 is_stmt 0 view .LVU478
 1386              	.LBE237:
 1387              	.LBE236:
 1388              	.LBE235:
 189:Drivers/lvgl/src/draw/sw/lv_draw_sw_blend.c ****         if(dsc->src_buf == NULL) {
 1389              		.loc 1 189 10 is_stmt 1 view .LVU479
 189:Drivers/lvgl/src/draw/sw/lv_draw_sw_blend.c ****         if(dsc->src_buf == NULL) {
 1390              		.loc 1 189 16 is_stmt 0 view .LVU480
 1391 028a 98F81920 		ldrb	r2, [r8, #25]	@ zero_extendqisi2
 190:Drivers/lvgl/src/draw/sw/lv_draw_sw_blend.c ****             fill_normal(dest_buf, &blend_area, dest_stride, dsc->color, dsc->opa, mask, mask_stride
 1392              		.loc 1 190 11 view .LVU481
 1393 028e D8F80430 		ldr	r3, [r8, #4]
 189:Drivers/lvgl/src/draw/sw/lv_draw_sw_blend.c ****         if(dsc->src_buf == NULL) {
 1394              		.loc 1 189 12 view .LVU482
 1395 0292 002A     		cmp	r2, #0
 1396 0294 40F08780 		bne	.L80
 190:Drivers/lvgl/src/draw/sw/lv_draw_sw_blend.c ****             fill_normal(dest_buf, &blend_area, dest_stride, dsc->color, dsc->opa, mask, mask_stride
 1397              		.loc 1 190 9 is_stmt 1 view .LVU483
 190:Drivers/lvgl/src/draw/sw/lv_draw_sw_blend.c ****             fill_normal(dest_buf, &blend_area, dest_stride, dsc->color, dsc->opa, mask, mask_stride
 1398              		.loc 1 190 11 is_stmt 0 view .LVU484
 1399 0298 002B     		cmp	r3, #0
 1400 029a 00F0A981 		beq	.L298
 194:Drivers/lvgl/src/draw/sw/lv_draw_sw_blend.c ****         }
 1401              		.loc 1 194 13 is_stmt 1 view .LVU485
 1402              	.LBB255:
 1403              	.LBB256:
 1404              	.LBB257:
 1405              	.LBB258:
 125:Drivers/lvgl/src/draw/sw/../../misc/lv_area.h **** }
 1406              		.loc 3 125 49 is_stmt 0 view .LVU486
 1407 029e BDF83C10 		ldrh	r1, [sp, #60]
 1408 02a2 BDF83800 		ldrh	r0, [sp, #56]
 1409              	.LBE258:
 1410              	.LBE257:
 1411              	.LBB260:
 1412              	.LBB261:
 1413              		.loc 3 135 49 view .LVU487
 1414 02a6 BDF83E30 		ldrh	r3, [sp, #62]
 1415              	.LBE261:
 1416              	.LBE260:
 1417              	.LBE256:
 1418              	.LBE255:
 194:Drivers/lvgl/src/draw/sw/lv_draw_sw_blend.c ****         }
 1419              		.loc 1 194 84 view .LVU488
 1420 02aa 98F81870 		ldrb	r7, [r8, #24]	@ zero_extendqisi2
 1421              	.LVL146:
 1422              	.LBB312:
 1423              	.LBI255:
 646:Drivers/lvgl/src/draw/sw/lv_draw_sw_blend.c ****                                              lv_coord_t dest_stride, const lv_color_t * src_buf,
 1424              		.loc 1 646 35 is_stmt 1 view .LVU489
 1425              	.LBB310:
 652:Drivers/lvgl/src/draw/sw/lv_draw_sw_blend.c ****     int32_t h = lv_area_get_height(dest_area);
 1426              		.loc 1 652 5 view .LVU490
ARM GAS  /var/folders/0z/tsy30v1j4xl4_7kw94k978ww0000gn/T//ccll9Ln5.s 			page 62


 1427              	.LBB263:
 1428              	.LBI257:
 123:Drivers/lvgl/src/draw/sw/../../misc/lv_area.h **** {
 1429              		.loc 3 123 26 view .LVU491
 1430              	.LBB259:
 125:Drivers/lvgl/src/draw/sw/../../misc/lv_area.h **** }
 1431              		.loc 3 125 5 view .LVU492
 125:Drivers/lvgl/src/draw/sw/../../misc/lv_area.h **** }
 1432              		.loc 3 125 49 is_stmt 0 view .LVU493
 1433 02ae 0131     		adds	r1, r1, #1
 1434 02b0 091A     		subs	r1, r1, r0
 125:Drivers/lvgl/src/draw/sw/../../misc/lv_area.h **** }
 1435              		.loc 3 125 12 view .LVU494
 1436 02b2 0FFA81F9 		sxth	r9, r1
 1437              	.LVL147:
 125:Drivers/lvgl/src/draw/sw/../../misc/lv_area.h **** }
 1438              		.loc 3 125 12 view .LVU495
 1439              	.LBE259:
 1440              	.LBE263:
 653:Drivers/lvgl/src/draw/sw/lv_draw_sw_blend.c **** 
 1441              		.loc 1 653 5 is_stmt 1 view .LVU496
 1442              	.LBB264:
 1443              	.LBI260:
 133:Drivers/lvgl/src/draw/sw/../../misc/lv_area.h **** {
 1444              		.loc 3 133 26 view .LVU497
 1445              	.LBB262:
 1446              		.loc 3 135 5 view .LVU498
 1447              		.loc 3 135 49 is_stmt 0 view .LVU499
 1448 02b6 BDF83A10 		ldrh	r1, [sp, #58]
 1449 02ba 0133     		adds	r3, r3, #1
 1450 02bc 5B1A     		subs	r3, r3, r1
 1451              	.LBE262:
 1452              	.LBE264:
 653:Drivers/lvgl/src/draw/sw/lv_draw_sw_blend.c **** 
 1453              		.loc 1 653 13 view .LVU500
 1454 02be 0FFA83FA 		sxth	r10, r3
 1455              	.LVL148:
 655:Drivers/lvgl/src/draw/sw/lv_draw_sw_blend.c ****     int32_t y;
 1456              		.loc 1 655 5 is_stmt 1 view .LVU501
 656:Drivers/lvgl/src/draw/sw/lv_draw_sw_blend.c **** 
 1457              		.loc 1 656 5 view .LVU502
 659:Drivers/lvgl/src/draw/sw/lv_draw_sw_blend.c ****         if(opa >= LV_OPA_MAX) {
 1458              		.loc 1 659 5 view .LVU503
 659:Drivers/lvgl/src/draw/sw/lv_draw_sw_blend.c ****         if(opa >= LV_OPA_MAX) {
 1459              		.loc 1 659 7 is_stmt 0 view .LVU504
 1460 02c2 049B     		ldr	r3, [sp, #16]
 1461 02c4 002B     		cmp	r3, #0
 1462 02c6 00F0A984 		beq	.L299
 680:Drivers/lvgl/src/draw/sw/lv_draw_sw_blend.c ****             int32_t x_end4 = w - 4;
 1463              		.loc 1 680 9 is_stmt 1 view .LVU505
 680:Drivers/lvgl/src/draw/sw/lv_draw_sw_blend.c ****             int32_t x_end4 = w - 4;
 1464              		.loc 1 680 11 is_stmt 0 view .LVU506
 1465 02ca FD2F     		cmp	r7, #253
 1466 02cc 00F24083 		bhi	.L129
 1467              	.LVL149:
 726:Drivers/lvgl/src/draw/sw/lv_draw_sw_blend.c ****                 for(x = 0; x < w; x++) {
 1468              		.loc 1 726 26 is_stmt 1 view .LVU507
ARM GAS  /var/folders/0z/tsy30v1j4xl4_7kw94k978ww0000gn/T//ccll9Ln5.s 			page 63


 1469 02d0 BAF1000F 		cmp	r10, #0
 1470 02d4 7FF7B3AE 		ble	.L44
 733:Drivers/lvgl/src/draw/sw/lv_draw_sw_blend.c ****                 src_buf += src_stride;
 1471              		.loc 1 733 26 is_stmt 0 view .LVU508
 1472 02d8 6300     		lsls	r3, r4, #1
 1473 02da 0593     		str	r3, [sp, #20]
 1474              	.LBB265:
 1475              	.LBB266:
 1476              	.LBB267:
 450:Drivers/lvgl/src/draw/sw/../../misc/lv_color.h ****                   0x7E0F81F; /*0b00000111111000001111100000011111*/
 1477              		.loc 2 450 14 view .LVU509
 1478 02dc B34E     		ldr	r6, .L318
 1479              	.LVL150:
 450:Drivers/lvgl/src/draw/sw/../../misc/lv_color.h ****                   0x7E0F81F; /*0b00000111111000001111100000011111*/
 1480              		.loc 2 450 14 view .LVU510
 1481 02de DDF81080 		ldr	r8, [sp, #16]
 1482              	.LVL151:
 450:Drivers/lvgl/src/draw/sw/../../misc/lv_color.h ****                   0x7E0F81F; /*0b00000111111000001111100000011111*/
 1483              		.loc 2 450 14 view .LVU511
 1484 02e2 CDF81090 		str	r9, [sp, #16]
 1485              	.LBE267:
 1486              	.LBE266:
 1487              	.LBE265:
 734:Drivers/lvgl/src/draw/sw/lv_draw_sw_blend.c ****                 mask += mask_stride;
 1488              		.loc 1 734 25 view .LVU512
 1489 02e6 6B00     		lsls	r3, r5, #1
 1490 02e8 0BEB490E 		add	lr, fp, r9, lsl #1
 1491 02ec 0793     		str	r3, [sp, #28]
 1492 02ee DDF81890 		ldr	r9, [sp, #24]
 1493              	.LVL152:
 734:Drivers/lvgl/src/draw/sw/lv_draw_sw_blend.c ****                 mask += mask_stride;
 1494              		.loc 1 734 25 view .LVU513
 1495 02f2 CDF818A0 		str	r10, [sp, #24]
 1496              	.LVL153:
 726:Drivers/lvgl/src/draw/sw/lv_draw_sw_blend.c ****                 for(x = 0; x < w; x++) {
 1497              		.loc 1 726 19 view .LVU514
 1498 02f6 9446     		mov	ip, r2
 1499              	.LVL154:
 1500              	.L130:
 727:Drivers/lvgl/src/draw/sw/lv_draw_sw_blend.c ****                     if(mask[x]) {
