ARM GAS  /var/folders/0z/tsy30v1j4xl4_7kw94k978ww0000gn/T//ccRgGdZF.s 			page 1


   1              		.cpu cortex-m4
   2              		.arch armv7e-m
   3              		.fpu fpv4-sp-d16
   4              		.eabi_attribute 27, 1
   5              		.eabi_attribute 28, 1
   6              		.eabi_attribute 23, 1
   7              		.eabi_attribute 24, 1
   8              		.eabi_attribute 25, 1
   9              		.eabi_attribute 26, 1
  10              		.eabi_attribute 30, 2
  11              		.eabi_attribute 34, 1
  12              		.eabi_attribute 18, 4
  13              		.file	"lv_draw_sw_img.c"
  14              		.text
  15              	.Ltext0:
  16              		.cfi_sections	.debug_frame
  17              		.section	.text.lv_draw_sw_img_decoded,"ax",%progbits
  18              		.align	1
  19              		.p2align 2,,3
  20              		.global	lv_draw_sw_img_decoded
  21              		.syntax unified
  22              		.thumb
  23              		.thumb_func
  25              	lv_draw_sw_img_decoded:
  26              	.LVL0:
  27              	.LFB161:
  28              		.file 1 "Drivers/lvgl/src/draw/sw/lv_draw_sw_img.c"
   1:Drivers/lvgl/src/draw/sw/lv_draw_sw_img.c **** /**
   2:Drivers/lvgl/src/draw/sw/lv_draw_sw_img.c ****  * @file lv_draw_img.c
   3:Drivers/lvgl/src/draw/sw/lv_draw_sw_img.c ****  *
   4:Drivers/lvgl/src/draw/sw/lv_draw_sw_img.c ****  */
   5:Drivers/lvgl/src/draw/sw/lv_draw_sw_img.c **** 
   6:Drivers/lvgl/src/draw/sw/lv_draw_sw_img.c **** /*********************
   7:Drivers/lvgl/src/draw/sw/lv_draw_sw_img.c ****  *      INCLUDES
   8:Drivers/lvgl/src/draw/sw/lv_draw_sw_img.c ****  *********************/
   9:Drivers/lvgl/src/draw/sw/lv_draw_sw_img.c **** #include "lv_draw_sw.h"
  10:Drivers/lvgl/src/draw/sw/lv_draw_sw_img.c **** #include "../lv_img_cache.h"
  11:Drivers/lvgl/src/draw/sw/lv_draw_sw_img.c **** #include "../../hal/lv_hal_disp.h"
  12:Drivers/lvgl/src/draw/sw/lv_draw_sw_img.c **** #include "../../misc/lv_log.h"
  13:Drivers/lvgl/src/draw/sw/lv_draw_sw_img.c **** #include "../../core/lv_refr.h"
  14:Drivers/lvgl/src/draw/sw/lv_draw_sw_img.c **** #include "../../misc/lv_mem.h"
  15:Drivers/lvgl/src/draw/sw/lv_draw_sw_img.c **** #include "../../misc/lv_math.h"
  16:Drivers/lvgl/src/draw/sw/lv_draw_sw_img.c **** 
  17:Drivers/lvgl/src/draw/sw/lv_draw_sw_img.c **** /*********************
  18:Drivers/lvgl/src/draw/sw/lv_draw_sw_img.c ****  *      DEFINES
  19:Drivers/lvgl/src/draw/sw/lv_draw_sw_img.c ****  *********************/
  20:Drivers/lvgl/src/draw/sw/lv_draw_sw_img.c **** #define MAX_BUF_SIZE (uint32_t) lv_disp_get_hor_res(_lv_refr_get_disp_refreshing())
  21:Drivers/lvgl/src/draw/sw/lv_draw_sw_img.c **** 
  22:Drivers/lvgl/src/draw/sw/lv_draw_sw_img.c **** /**********************
  23:Drivers/lvgl/src/draw/sw/lv_draw_sw_img.c ****  *      TYPEDEFS
  24:Drivers/lvgl/src/draw/sw/lv_draw_sw_img.c ****  **********************/
  25:Drivers/lvgl/src/draw/sw/lv_draw_sw_img.c **** 
  26:Drivers/lvgl/src/draw/sw/lv_draw_sw_img.c **** /**********************
  27:Drivers/lvgl/src/draw/sw/lv_draw_sw_img.c ****  *  STATIC PROTOTYPES
  28:Drivers/lvgl/src/draw/sw/lv_draw_sw_img.c ****  **********************/
  29:Drivers/lvgl/src/draw/sw/lv_draw_sw_img.c **** static void convert_cb(const lv_area_t * dest_area, const void * src_buf, lv_coord_t src_w, lv_coor
  30:Drivers/lvgl/src/draw/sw/lv_draw_sw_img.c ****                        lv_coord_t src_stride, const lv_draw_img_dsc_t * draw_dsc, lv_img_cf_t cf, l
ARM GAS  /var/folders/0z/tsy30v1j4xl4_7kw94k978ww0000gn/T//ccRgGdZF.s 			page 2


  31:Drivers/lvgl/src/draw/sw/lv_draw_sw_img.c **** 
  32:Drivers/lvgl/src/draw/sw/lv_draw_sw_img.c **** /**********************
  33:Drivers/lvgl/src/draw/sw/lv_draw_sw_img.c ****  *  STATIC VARIABLES
  34:Drivers/lvgl/src/draw/sw/lv_draw_sw_img.c ****  **********************/
  35:Drivers/lvgl/src/draw/sw/lv_draw_sw_img.c **** 
  36:Drivers/lvgl/src/draw/sw/lv_draw_sw_img.c **** /**********************
  37:Drivers/lvgl/src/draw/sw/lv_draw_sw_img.c ****  *      MACROS
  38:Drivers/lvgl/src/draw/sw/lv_draw_sw_img.c ****  **********************/
  39:Drivers/lvgl/src/draw/sw/lv_draw_sw_img.c **** 
  40:Drivers/lvgl/src/draw/sw/lv_draw_sw_img.c **** /**********************
  41:Drivers/lvgl/src/draw/sw/lv_draw_sw_img.c ****  *   GLOBAL FUNCTIONS
  42:Drivers/lvgl/src/draw/sw/lv_draw_sw_img.c ****  **********************/
  43:Drivers/lvgl/src/draw/sw/lv_draw_sw_img.c **** 
  44:Drivers/lvgl/src/draw/sw/lv_draw_sw_img.c **** 
  45:Drivers/lvgl/src/draw/sw/lv_draw_sw_img.c **** void LV_ATTRIBUTE_FAST_MEM lv_draw_sw_img_decoded(struct _lv_draw_ctx_t * draw_ctx,
  46:Drivers/lvgl/src/draw/sw/lv_draw_sw_img.c ****                                                   const lv_draw_img_dsc_t * draw_dsc,
  47:Drivers/lvgl/src/draw/sw/lv_draw_sw_img.c ****                                                   const lv_area_t * coords, const uint8_t * src_buf
  48:Drivers/lvgl/src/draw/sw/lv_draw_sw_img.c ****                                                   lv_img_cf_t cf)
  49:Drivers/lvgl/src/draw/sw/lv_draw_sw_img.c **** {
  29              		.loc 1 49 1 view -0
  30              		.cfi_startproc
  31              		@ args = 4, pretend = 0, frame = 128
  32              		@ frame_needed = 0, uses_anonymous_args = 0
  50:Drivers/lvgl/src/draw/sw/lv_draw_sw_img.c ****     /*Use the clip area as draw area*/
  51:Drivers/lvgl/src/draw/sw/lv_draw_sw_img.c ****     lv_area_t draw_area;
  33              		.loc 1 51 5 view .LVU1
  52:Drivers/lvgl/src/draw/sw/lv_draw_sw_img.c ****     lv_area_copy(&draw_area, draw_ctx->clip_area);
  34              		.loc 1 52 5 view .LVU2
  49:Drivers/lvgl/src/draw/sw/lv_draw_sw_img.c ****     /*Use the clip area as draw area*/
  35              		.loc 1 49 1 is_stmt 0 view .LVU3
  36 0000 2DE9F04F 		push	{r4, r5, r6, r7, r8, r9, r10, fp, lr}
  37              		.cfi_def_cfa_offset 36
  38              		.cfi_offset 4, -36
  39              		.cfi_offset 5, -32
  40              		.cfi_offset 6, -28
  41              		.cfi_offset 7, -24
  42              		.cfi_offset 8, -20
  43              		.cfi_offset 9, -16
  44              		.cfi_offset 10, -12
  45              		.cfi_offset 11, -8
  46              		.cfi_offset 14, -4
  47 0004 2DED028B 		vpush.64	{d8}
  48              		.cfi_def_cfa_offset 44
  49              		.cfi_offset 80, -44
  50              		.cfi_offset 81, -40
  51 0008 8146     		mov	r9, r0
  52 000a A7B0     		sub	sp, sp, #156
  53              		.cfi_def_cfa_offset 200
  49:Drivers/lvgl/src/draw/sw/lv_draw_sw_img.c ****     /*Use the clip area as draw area*/
  54              		.loc 1 49 1 view .LVU4
  55 000c 08EE103A 		vmov	s16, r3	@ int
  56 0010 9DF8C800 		ldrb	r0, [sp, #200]	@ zero_extendqisi2
  57              	.LVL1:
  58              		.loc 1 52 5 view .LVU5
  59 0014 D9F80830 		ldr	r3, [r9, #8]
  60              	.LVL2:
  61              	.LBB102:
ARM GAS  /var/folders/0z/tsy30v1j4xl4_7kw94k978ww0000gn/T//ccRgGdZF.s 			page 3


  62              	.LBI102:
  63              		.file 2 "Drivers/lvgl/src/draw/sw/../../misc/lv_area.h"
   1:Drivers/lvgl/src/draw/sw/../../misc/lv_area.h **** /**
   2:Drivers/lvgl/src/draw/sw/../../misc/lv_area.h ****  * @file lv_area.h
   3:Drivers/lvgl/src/draw/sw/../../misc/lv_area.h ****  *
   4:Drivers/lvgl/src/draw/sw/../../misc/lv_area.h ****  */
   5:Drivers/lvgl/src/draw/sw/../../misc/lv_area.h **** 
   6:Drivers/lvgl/src/draw/sw/../../misc/lv_area.h **** #ifndef LV_AREA_H
   7:Drivers/lvgl/src/draw/sw/../../misc/lv_area.h **** #define LV_AREA_H
   8:Drivers/lvgl/src/draw/sw/../../misc/lv_area.h **** 
   9:Drivers/lvgl/src/draw/sw/../../misc/lv_area.h **** #ifdef __cplusplus
  10:Drivers/lvgl/src/draw/sw/../../misc/lv_area.h **** extern "C" {
  11:Drivers/lvgl/src/draw/sw/../../misc/lv_area.h **** #endif
  12:Drivers/lvgl/src/draw/sw/../../misc/lv_area.h **** 
  13:Drivers/lvgl/src/draw/sw/../../misc/lv_area.h **** /*********************
  14:Drivers/lvgl/src/draw/sw/../../misc/lv_area.h ****  *      INCLUDES
  15:Drivers/lvgl/src/draw/sw/../../misc/lv_area.h ****  *********************/
  16:Drivers/lvgl/src/draw/sw/../../misc/lv_area.h **** #include "../lv_conf_internal.h"
  17:Drivers/lvgl/src/draw/sw/../../misc/lv_area.h **** #include <stdbool.h>
  18:Drivers/lvgl/src/draw/sw/../../misc/lv_area.h **** #include <stdint.h>
  19:Drivers/lvgl/src/draw/sw/../../misc/lv_area.h **** 
  20:Drivers/lvgl/src/draw/sw/../../misc/lv_area.h **** /*********************
  21:Drivers/lvgl/src/draw/sw/../../misc/lv_area.h ****  *      DEFINES
  22:Drivers/lvgl/src/draw/sw/../../misc/lv_area.h ****  *********************/
  23:Drivers/lvgl/src/draw/sw/../../misc/lv_area.h **** 
  24:Drivers/lvgl/src/draw/sw/../../misc/lv_area.h **** #if LV_USE_LARGE_COORD
  25:Drivers/lvgl/src/draw/sw/../../misc/lv_area.h **** typedef int32_t lv_coord_t;
  26:Drivers/lvgl/src/draw/sw/../../misc/lv_area.h **** #else
  27:Drivers/lvgl/src/draw/sw/../../misc/lv_area.h **** typedef int16_t lv_coord_t;
  28:Drivers/lvgl/src/draw/sw/../../misc/lv_area.h **** #endif
  29:Drivers/lvgl/src/draw/sw/../../misc/lv_area.h **** 
  30:Drivers/lvgl/src/draw/sw/../../misc/lv_area.h **** /**********************
  31:Drivers/lvgl/src/draw/sw/../../misc/lv_area.h ****  *      TYPEDEFS
  32:Drivers/lvgl/src/draw/sw/../../misc/lv_area.h ****  **********************/
  33:Drivers/lvgl/src/draw/sw/../../misc/lv_area.h **** 
  34:Drivers/lvgl/src/draw/sw/../../misc/lv_area.h **** /**
  35:Drivers/lvgl/src/draw/sw/../../misc/lv_area.h ****  * Represents a point on the screen.
  36:Drivers/lvgl/src/draw/sw/../../misc/lv_area.h ****  */
  37:Drivers/lvgl/src/draw/sw/../../misc/lv_area.h **** typedef struct {
  38:Drivers/lvgl/src/draw/sw/../../misc/lv_area.h ****     lv_coord_t x;
  39:Drivers/lvgl/src/draw/sw/../../misc/lv_area.h ****     lv_coord_t y;
  40:Drivers/lvgl/src/draw/sw/../../misc/lv_area.h **** } lv_point_t;
  41:Drivers/lvgl/src/draw/sw/../../misc/lv_area.h **** 
  42:Drivers/lvgl/src/draw/sw/../../misc/lv_area.h **** /** Represents an area of the screen.*/
  43:Drivers/lvgl/src/draw/sw/../../misc/lv_area.h **** typedef struct {
  44:Drivers/lvgl/src/draw/sw/../../misc/lv_area.h ****     lv_coord_t x1;
  45:Drivers/lvgl/src/draw/sw/../../misc/lv_area.h ****     lv_coord_t y1;
  46:Drivers/lvgl/src/draw/sw/../../misc/lv_area.h ****     lv_coord_t x2;
  47:Drivers/lvgl/src/draw/sw/../../misc/lv_area.h ****     lv_coord_t y2;
  48:Drivers/lvgl/src/draw/sw/../../misc/lv_area.h **** } lv_area_t;
  49:Drivers/lvgl/src/draw/sw/../../misc/lv_area.h **** 
  50:Drivers/lvgl/src/draw/sw/../../misc/lv_area.h **** /** Alignments*/
  51:Drivers/lvgl/src/draw/sw/../../misc/lv_area.h **** enum {
  52:Drivers/lvgl/src/draw/sw/../../misc/lv_area.h ****     LV_ALIGN_DEFAULT = 0,
  53:Drivers/lvgl/src/draw/sw/../../misc/lv_area.h ****     LV_ALIGN_TOP_LEFT,
  54:Drivers/lvgl/src/draw/sw/../../misc/lv_area.h ****     LV_ALIGN_TOP_MID,
  55:Drivers/lvgl/src/draw/sw/../../misc/lv_area.h ****     LV_ALIGN_TOP_RIGHT,
ARM GAS  /var/folders/0z/tsy30v1j4xl4_7kw94k978ww0000gn/T//ccRgGdZF.s 			page 4


  56:Drivers/lvgl/src/draw/sw/../../misc/lv_area.h ****     LV_ALIGN_BOTTOM_LEFT,
  57:Drivers/lvgl/src/draw/sw/../../misc/lv_area.h ****     LV_ALIGN_BOTTOM_MID,
  58:Drivers/lvgl/src/draw/sw/../../misc/lv_area.h ****     LV_ALIGN_BOTTOM_RIGHT,
  59:Drivers/lvgl/src/draw/sw/../../misc/lv_area.h ****     LV_ALIGN_LEFT_MID,
  60:Drivers/lvgl/src/draw/sw/../../misc/lv_area.h ****     LV_ALIGN_RIGHT_MID,
  61:Drivers/lvgl/src/draw/sw/../../misc/lv_area.h ****     LV_ALIGN_CENTER,
  62:Drivers/lvgl/src/draw/sw/../../misc/lv_area.h **** 
  63:Drivers/lvgl/src/draw/sw/../../misc/lv_area.h ****     LV_ALIGN_OUT_TOP_LEFT,
  64:Drivers/lvgl/src/draw/sw/../../misc/lv_area.h ****     LV_ALIGN_OUT_TOP_MID,
  65:Drivers/lvgl/src/draw/sw/../../misc/lv_area.h ****     LV_ALIGN_OUT_TOP_RIGHT,
  66:Drivers/lvgl/src/draw/sw/../../misc/lv_area.h ****     LV_ALIGN_OUT_BOTTOM_LEFT,
  67:Drivers/lvgl/src/draw/sw/../../misc/lv_area.h ****     LV_ALIGN_OUT_BOTTOM_MID,
  68:Drivers/lvgl/src/draw/sw/../../misc/lv_area.h ****     LV_ALIGN_OUT_BOTTOM_RIGHT,
  69:Drivers/lvgl/src/draw/sw/../../misc/lv_area.h ****     LV_ALIGN_OUT_LEFT_TOP,
  70:Drivers/lvgl/src/draw/sw/../../misc/lv_area.h ****     LV_ALIGN_OUT_LEFT_MID,
  71:Drivers/lvgl/src/draw/sw/../../misc/lv_area.h ****     LV_ALIGN_OUT_LEFT_BOTTOM,
  72:Drivers/lvgl/src/draw/sw/../../misc/lv_area.h ****     LV_ALIGN_OUT_RIGHT_TOP,
  73:Drivers/lvgl/src/draw/sw/../../misc/lv_area.h ****     LV_ALIGN_OUT_RIGHT_MID,
  74:Drivers/lvgl/src/draw/sw/../../misc/lv_area.h ****     LV_ALIGN_OUT_RIGHT_BOTTOM,
  75:Drivers/lvgl/src/draw/sw/../../misc/lv_area.h **** };
  76:Drivers/lvgl/src/draw/sw/../../misc/lv_area.h **** typedef uint8_t lv_align_t;
  77:Drivers/lvgl/src/draw/sw/../../misc/lv_area.h **** 
  78:Drivers/lvgl/src/draw/sw/../../misc/lv_area.h **** enum {
  79:Drivers/lvgl/src/draw/sw/../../misc/lv_area.h ****     LV_DIR_NONE     = 0x00,
  80:Drivers/lvgl/src/draw/sw/../../misc/lv_area.h ****     LV_DIR_LEFT     = (1 << 0),
  81:Drivers/lvgl/src/draw/sw/../../misc/lv_area.h ****     LV_DIR_RIGHT    = (1 << 1),
  82:Drivers/lvgl/src/draw/sw/../../misc/lv_area.h ****     LV_DIR_TOP      = (1 << 2),
  83:Drivers/lvgl/src/draw/sw/../../misc/lv_area.h ****     LV_DIR_BOTTOM   = (1 << 3),
  84:Drivers/lvgl/src/draw/sw/../../misc/lv_area.h ****     LV_DIR_HOR      = LV_DIR_LEFT | LV_DIR_RIGHT,
  85:Drivers/lvgl/src/draw/sw/../../misc/lv_area.h ****     LV_DIR_VER      = LV_DIR_TOP | LV_DIR_BOTTOM,
  86:Drivers/lvgl/src/draw/sw/../../misc/lv_area.h ****     LV_DIR_ALL      = LV_DIR_HOR | LV_DIR_VER,
  87:Drivers/lvgl/src/draw/sw/../../misc/lv_area.h **** };
  88:Drivers/lvgl/src/draw/sw/../../misc/lv_area.h **** 
  89:Drivers/lvgl/src/draw/sw/../../misc/lv_area.h **** typedef uint8_t lv_dir_t;
  90:Drivers/lvgl/src/draw/sw/../../misc/lv_area.h **** 
  91:Drivers/lvgl/src/draw/sw/../../misc/lv_area.h **** /**********************
  92:Drivers/lvgl/src/draw/sw/../../misc/lv_area.h ****  * GLOBAL PROTOTYPES
  93:Drivers/lvgl/src/draw/sw/../../misc/lv_area.h ****  **********************/
  94:Drivers/lvgl/src/draw/sw/../../misc/lv_area.h **** 
  95:Drivers/lvgl/src/draw/sw/../../misc/lv_area.h **** /**
  96:Drivers/lvgl/src/draw/sw/../../misc/lv_area.h ****  * Initialize an area
  97:Drivers/lvgl/src/draw/sw/../../misc/lv_area.h ****  * @param area_p pointer to an area
  98:Drivers/lvgl/src/draw/sw/../../misc/lv_area.h ****  * @param x1 left coordinate of the area
  99:Drivers/lvgl/src/draw/sw/../../misc/lv_area.h ****  * @param y1 top coordinate of the area
 100:Drivers/lvgl/src/draw/sw/../../misc/lv_area.h ****  * @param x2 right coordinate of the area
 101:Drivers/lvgl/src/draw/sw/../../misc/lv_area.h ****  * @param y2 bottom coordinate of the area
 102:Drivers/lvgl/src/draw/sw/../../misc/lv_area.h ****  */
 103:Drivers/lvgl/src/draw/sw/../../misc/lv_area.h **** void lv_area_set(lv_area_t * area_p, lv_coord_t x1, lv_coord_t y1, lv_coord_t x2, lv_coord_t y2);
 104:Drivers/lvgl/src/draw/sw/../../misc/lv_area.h **** 
 105:Drivers/lvgl/src/draw/sw/../../misc/lv_area.h **** /**
 106:Drivers/lvgl/src/draw/sw/../../misc/lv_area.h ****  * Copy an area
 107:Drivers/lvgl/src/draw/sw/../../misc/lv_area.h ****  * @param dest pointer to the destination area
 108:Drivers/lvgl/src/draw/sw/../../misc/lv_area.h ****  * @param src pointer to the source area
 109:Drivers/lvgl/src/draw/sw/../../misc/lv_area.h ****  */
 110:Drivers/lvgl/src/draw/sw/../../misc/lv_area.h **** inline static void lv_area_copy(lv_area_t * dest, const lv_area_t * src)
  64              		.loc 2 110 20 is_stmt 1 view .LVU6
  65              	.LBB103:
ARM GAS  /var/folders/0z/tsy30v1j4xl4_7kw94k978ww0000gn/T//ccRgGdZF.s 			page 5


 111:Drivers/lvgl/src/draw/sw/../../misc/lv_area.h **** {
 112:Drivers/lvgl/src/draw/sw/../../misc/lv_area.h ****     dest->x1 = src->x1;
  66              		.loc 2 112 5 view .LVU7
  67              	.LBE103:
  68              	.LBE102:
  49:Drivers/lvgl/src/draw/sw/lv_draw_sw_img.c ****     /*Use the clip area as draw area*/
  69              		.loc 1 49 1 is_stmt 0 view .LVU8
  70 0018 0791     		str	r1, [sp, #28]
  71 001a CDE90A02 		strd	r0, r2, [sp, #40]
  72              	.LBB106:
  73              	.LBB104:
  74              		.loc 2 112 19 view .LVU9
  75 001e 1A68     		ldr	r2, [r3]	@ unaligned
  76              	.LVL3:
  77              		.loc 2 112 19 view .LVU10
  78 0020 5B68     		ldr	r3, [r3, #4]	@ unaligned
  79              	.LVL4:
 113:Drivers/lvgl/src/draw/sw/../../misc/lv_area.h ****     dest->y1 = src->y1;
  80              		.loc 2 113 5 is_stmt 1 view .LVU11
 114:Drivers/lvgl/src/draw/sw/../../misc/lv_area.h ****     dest->x2 = src->x2;
  81              		.loc 2 114 5 view .LVU12
 115:Drivers/lvgl/src/draw/sw/../../misc/lv_area.h ****     dest->y2 = src->y2;
  82              		.loc 2 115 5 view .LVU13
 112:Drivers/lvgl/src/draw/sw/../../misc/lv_area.h ****     dest->y1 = src->y1;
  83              		.loc 2 112 14 is_stmt 0 view .LVU14
  84 0022 1A93     		str	r3, [sp, #104]
  85              	.LVL5:
 112:Drivers/lvgl/src/draw/sw/../../misc/lv_area.h ****     dest->y1 = src->y1;
  86              		.loc 2 112 14 view .LVU15
  87              	.LBE104:
  88              	.LBE106:
  53:Drivers/lvgl/src/draw/sw/lv_draw_sw_img.c **** 
  54:Drivers/lvgl/src/draw/sw/lv_draw_sw_img.c ****     bool mask_any = lv_draw_mask_is_any(&draw_area);
  89              		.loc 1 54 5 is_stmt 1 view .LVU16
  90              		.loc 1 54 21 is_stmt 0 view .LVU17
  91 0024 19A8     		add	r0, sp, #100
  49:Drivers/lvgl/src/draw/sw/lv_draw_sw_img.c ****     /*Use the clip area as draw area*/
  92              		.loc 1 49 1 view .LVU18
  93 0026 0C46     		mov	r4, r1
  94              	.LBB107:
  95              	.LBB105:
 112:Drivers/lvgl/src/draw/sw/../../misc/lv_area.h ****     dest->y1 = src->y1;
  96              		.loc 2 112 14 view .LVU19
  97 0028 1992     		str	r2, [sp, #100]
  98              	.LBE105:
  99              	.LBE107:
 100              		.loc 1 54 21 view .LVU20
 101 002a FFF7FEFF 		bl	lv_draw_mask_is_any
 102              	.LVL6:
  55:Drivers/lvgl/src/draw/sw/lv_draw_sw_img.c ****     bool transform = draw_dsc->angle != 0 || draw_dsc->zoom != LV_IMG_ZOOM_NONE ? true : false;
 103              		.loc 1 55 43 view .LVU21
 104 002e 2568     		ldr	r5, [r4]
  54:Drivers/lvgl/src/draw/sw/lv_draw_sw_img.c ****     bool transform = draw_dsc->angle != 0 || draw_dsc->zoom != LV_IMG_ZOOM_NONE ? true : false;
 105              		.loc 1 54 21 view .LVU22
 106 0030 0E90     		str	r0, [sp, #56]
 107 0032 0646     		mov	r6, r0
 108              	.LVL7:
ARM GAS  /var/folders/0z/tsy30v1j4xl4_7kw94k978ww0000gn/T//ccRgGdZF.s 			page 6


 109              		.loc 1 55 5 is_stmt 1 view .LVU23
  56:Drivers/lvgl/src/draw/sw/lv_draw_sw_img.c **** 
  57:Drivers/lvgl/src/draw/sw/lv_draw_sw_img.c ****     lv_area_t blend_area;
  58:Drivers/lvgl/src/draw/sw/lv_draw_sw_img.c ****     lv_draw_sw_blend_dsc_t blend_dsc;
  59:Drivers/lvgl/src/draw/sw/lv_draw_sw_img.c **** 
  60:Drivers/lvgl/src/draw/sw/lv_draw_sw_img.c ****     lv_memset_00(&blend_dsc, sizeof(lv_draw_sw_blend_dsc_t));
 110              		.loc 1 60 5 is_stmt 0 view .LVU24
 111 0034 1C21     		movs	r1, #28
 112 0036 1FA8     		add	r0, sp, #124
  55:Drivers/lvgl/src/draw/sw/lv_draw_sw_img.c **** 
 113              		.loc 1 55 43 view .LVU25
 114 0038 0F95     		str	r5, [sp, #60]
 115              	.LVL8:
  57:Drivers/lvgl/src/draw/sw/lv_draw_sw_img.c ****     lv_draw_sw_blend_dsc_t blend_dsc;
 116              		.loc 1 57 5 is_stmt 1 view .LVU26
  58:Drivers/lvgl/src/draw/sw/lv_draw_sw_img.c **** 
 117              		.loc 1 58 5 view .LVU27
 118              		.loc 1 60 5 view .LVU28
 119 003a FFF7FEFF 		bl	lv_memset_00
 120              	.LVL9:
  61:Drivers/lvgl/src/draw/sw/lv_draw_sw_img.c ****     blend_dsc.opa = draw_dsc->opa;
 121              		.loc 1 61 5 view .LVU29
  62:Drivers/lvgl/src/draw/sw/lv_draw_sw_img.c ****     blend_dsc.blend_mode = draw_dsc->blend_mode;
 122              		.loc 1 62 36 is_stmt 0 view .LVU30
 123 003e 237B     		ldrb	r3, [r4, #12]	@ zero_extendqisi2
 124 0040 C3F30303 		ubfx	r3, r3, #0, #4
 125              		.loc 1 62 26 view .LVU31
 126 0044 8DF89530 		strb	r3, [sp, #149]
  61:Drivers/lvgl/src/draw/sw/lv_draw_sw_img.c ****     blend_dsc.opa = draw_dsc->opa;
 127              		.loc 1 61 19 view .LVU32
 128 0048 E37A     		ldrb	r3, [r4, #11]	@ zero_extendqisi2
 129 004a 8DF89430 		strb	r3, [sp, #148]
 130              		.loc 1 62 5 is_stmt 1 view .LVU33
  63:Drivers/lvgl/src/draw/sw/lv_draw_sw_img.c ****     blend_dsc.blend_area = &blend_area;
 131              		.loc 1 63 5 view .LVU34
 132              		.loc 1 63 26 is_stmt 0 view .LVU35
 133 004e 1BAB     		add	r3, sp, #108
 134 0050 1F93     		str	r3, [sp, #124]
  64:Drivers/lvgl/src/draw/sw/lv_draw_sw_img.c **** 
  65:Drivers/lvgl/src/draw/sw/lv_draw_sw_img.c ****     /*The simplest case just copy the pixels into the draw_buf*/
  66:Drivers/lvgl/src/draw/sw/lv_draw_sw_img.c ****     if(!mask_any && !transform && cf == LV_IMG_CF_TRUE_COLOR && draw_dsc->recolor_opa == LV_OPA_TRA
 135              		.loc 1 66 5 is_stmt 1 view .LVU36
 136              		.loc 1 66 7 is_stmt 0 view .LVU37
 137 0052 1EB9     		cbnz	r6, .L2
 138              		.loc 1 66 18 discriminator 1 view .LVU38
 139 0054 B5F1807F 		cmp	r5, #16777216
 140 0058 00F07082 		beq	.L63
 141              	.L2:
 142              	.LBB108:
  67:Drivers/lvgl/src/draw/sw/lv_draw_sw_img.c ****         blend_dsc.src_buf = (const lv_color_t *)src_buf;
  68:Drivers/lvgl/src/draw/sw/lv_draw_sw_img.c **** 
  69:Drivers/lvgl/src/draw/sw/lv_draw_sw_img.c ****         blend_dsc.blend_area = coords;
  70:Drivers/lvgl/src/draw/sw/lv_draw_sw_img.c ****         lv_draw_sw_blend(draw_ctx, &blend_dsc);
  71:Drivers/lvgl/src/draw/sw/lv_draw_sw_img.c ****     }
  72:Drivers/lvgl/src/draw/sw/lv_draw_sw_img.c ****     else if(!mask_any && !transform && cf == LV_IMG_CF_ALPHA_8BIT) {
  73:Drivers/lvgl/src/draw/sw/lv_draw_sw_img.c ****         lv_area_t clipped_coords;
  74:Drivers/lvgl/src/draw/sw/lv_draw_sw_img.c ****         if(!_lv_area_intersect(&clipped_coords, coords, draw_ctx->clip_area)) return;
ARM GAS  /var/folders/0z/tsy30v1j4xl4_7kw94k978ww0000gn/T//ccRgGdZF.s 			page 7


  75:Drivers/lvgl/src/draw/sw/lv_draw_sw_img.c **** 
  76:Drivers/lvgl/src/draw/sw/lv_draw_sw_img.c ****         blend_dsc.mask_buf = (lv_opa_t *)src_buf;
  77:Drivers/lvgl/src/draw/sw/lv_draw_sw_img.c ****         blend_dsc.mask_area = coords;
  78:Drivers/lvgl/src/draw/sw/lv_draw_sw_img.c ****         blend_dsc.src_buf = NULL;
  79:Drivers/lvgl/src/draw/sw/lv_draw_sw_img.c ****         blend_dsc.color = draw_dsc->recolor;
  80:Drivers/lvgl/src/draw/sw/lv_draw_sw_img.c ****         blend_dsc.mask_res = LV_DRAW_MASK_RES_CHANGED;
  81:Drivers/lvgl/src/draw/sw/lv_draw_sw_img.c **** 
  82:Drivers/lvgl/src/draw/sw/lv_draw_sw_img.c ****         blend_dsc.blend_area = coords;
  83:Drivers/lvgl/src/draw/sw/lv_draw_sw_img.c ****         lv_draw_sw_blend(draw_ctx, &blend_dsc);
  84:Drivers/lvgl/src/draw/sw/lv_draw_sw_img.c ****     }
  85:Drivers/lvgl/src/draw/sw/lv_draw_sw_img.c **** #if LV_COLOR_DEPTH == 16
  86:Drivers/lvgl/src/draw/sw/lv_draw_sw_img.c ****     else if(!mask_any && !transform && cf == LV_IMG_CF_RGB565A8 && draw_dsc->recolor_opa == LV_OPA_
  87:Drivers/lvgl/src/draw/sw/lv_draw_sw_img.c ****         lv_coord_t src_w = lv_area_get_width(coords);
  88:Drivers/lvgl/src/draw/sw/lv_draw_sw_img.c ****         lv_coord_t src_h = lv_area_get_height(coords);
  89:Drivers/lvgl/src/draw/sw/lv_draw_sw_img.c ****         blend_dsc.src_buf = (const lv_color_t *)src_buf;
  90:Drivers/lvgl/src/draw/sw/lv_draw_sw_img.c ****         blend_dsc.mask_buf = (lv_opa_t *)src_buf;
  91:Drivers/lvgl/src/draw/sw/lv_draw_sw_img.c ****         blend_dsc.mask_buf += sizeof(lv_color_t) * src_w * src_h;
  92:Drivers/lvgl/src/draw/sw/lv_draw_sw_img.c ****         blend_dsc.blend_area = coords;
  93:Drivers/lvgl/src/draw/sw/lv_draw_sw_img.c ****         blend_dsc.mask_area = coords;
  94:Drivers/lvgl/src/draw/sw/lv_draw_sw_img.c ****         blend_dsc.mask_res = LV_DRAW_MASK_RES_CHANGED;
  95:Drivers/lvgl/src/draw/sw/lv_draw_sw_img.c ****         lv_draw_sw_blend(draw_ctx, &blend_dsc);
  96:Drivers/lvgl/src/draw/sw/lv_draw_sw_img.c ****     }
  97:Drivers/lvgl/src/draw/sw/lv_draw_sw_img.c **** #endif
  98:Drivers/lvgl/src/draw/sw/lv_draw_sw_img.c ****     /*In the other cases every pixel need to be checked one-by-one*/
  99:Drivers/lvgl/src/draw/sw/lv_draw_sw_img.c ****     else {
 100:Drivers/lvgl/src/draw/sw/lv_draw_sw_img.c ****         blend_area.x1 = draw_ctx->clip_area->x1;
 143              		.loc 1 100 9 is_stmt 1 view .LVU39
 144              	.LBB109:
 145              	.LBB110:
 116:Drivers/lvgl/src/draw/sw/../../misc/lv_area.h **** }
 117:Drivers/lvgl/src/draw/sw/../../misc/lv_area.h **** 
 118:Drivers/lvgl/src/draw/sw/../../misc/lv_area.h **** /**
 119:Drivers/lvgl/src/draw/sw/../../misc/lv_area.h ****  * Get the width of an area
 120:Drivers/lvgl/src/draw/sw/../../misc/lv_area.h ****  * @param area_p pointer to an area
 121:Drivers/lvgl/src/draw/sw/../../misc/lv_area.h ****  * @return the width of the area (if x1 == x2 -> width = 1)
 122:Drivers/lvgl/src/draw/sw/../../misc/lv_area.h ****  */
 123:Drivers/lvgl/src/draw/sw/../../misc/lv_area.h **** static inline lv_coord_t lv_area_get_width(const lv_area_t * area_p)
 124:Drivers/lvgl/src/draw/sw/../../misc/lv_area.h **** {
 125:Drivers/lvgl/src/draw/sw/../../misc/lv_area.h ****     return (lv_coord_t)(area_p->x2 - area_p->x1 + 1);
 146              		.loc 2 125 36 is_stmt 0 view .LVU40
 147 005c 0B98     		ldr	r0, [sp, #44]
 148              	.LBE110:
 149              	.LBE109:
 150              		.loc 1 100 33 view .LVU41
 151 005e D9F80820 		ldr	r2, [r9, #8]
 152              	.LBB116:
 153              	.LBB111:
 154              		.loc 2 125 36 view .LVU42
 155 0062 0188     		ldrh	r1, [r0]
 156 0064 8388     		ldrh	r3, [r0, #4]
 157              	.LBE111:
 158              	.LBE116:
 159              		.loc 1 100 44 view .LVU43
 160 0066 1568     		ldr	r5, [r2]	@ unaligned
 161              	.LVL10:
 162              		.loc 1 100 44 view .LVU44
 163 0068 5468     		ldr	r4, [r2, #4]	@ unaligned
ARM GAS  /var/folders/0z/tsy30v1j4xl4_7kw94k978ww0000gn/T//ccRgGdZF.s 			page 8


 164              	.LVL11:
 165              	.LBB117:
 166              	.LBB118:
 126:Drivers/lvgl/src/draw/sw/../../misc/lv_area.h **** }
 127:Drivers/lvgl/src/draw/sw/../../misc/lv_area.h **** 
 128:Drivers/lvgl/src/draw/sw/../../misc/lv_area.h **** /**
 129:Drivers/lvgl/src/draw/sw/../../misc/lv_area.h ****  * Get the height of an area
 130:Drivers/lvgl/src/draw/sw/../../misc/lv_area.h ****  * @param area_p pointer to an area
 131:Drivers/lvgl/src/draw/sw/../../misc/lv_area.h ****  * @return the height of the area (if y1 == y2 -> height = 1)
 132:Drivers/lvgl/src/draw/sw/../../misc/lv_area.h ****  */
 133:Drivers/lvgl/src/draw/sw/../../misc/lv_area.h **** static inline lv_coord_t lv_area_get_height(const lv_area_t * area_p)
 134:Drivers/lvgl/src/draw/sw/../../misc/lv_area.h **** {
 135:Drivers/lvgl/src/draw/sw/../../misc/lv_area.h ****     return (lv_coord_t)(area_p->y2 - area_p->y1 + 1);
 167              		.loc 2 135 49 view .LVU45
 168 006a 4288     		ldrh	r2, [r0, #2]
 169              	.LBE118:
 170              	.LBE117:
 171              	.LBB122:
 172              	.LBB112:
 125:Drivers/lvgl/src/draw/sw/../../misc/lv_area.h **** }
 173              		.loc 2 125 36 view .LVU46
 174 006c 5B1A     		subs	r3, r3, r1
 175 006e 99B2     		uxth	r1, r3
 176              	.LBE112:
 177              	.LBE122:
 178              	.LBB123:
 179              	.LBB119:
 180              		.loc 2 135 49 view .LVU47
 181 0070 C388     		ldrh	r3, [r0, #6]
 182              	.LBE119:
 183              	.LBE123:
 184              	.LBB124:
 185              	.LBB113:
 125:Drivers/lvgl/src/draw/sw/../../misc/lv_area.h **** }
 186              		.loc 2 125 36 view .LVU48
 187 0072 1491     		str	r1, [sp, #80]
 188              	.LBE113:
 189              	.LBE124:
 190              	.LBB125:
 191              	.LBB120:
 192              		.loc 2 135 49 view .LVU49
 193 0074 0133     		adds	r3, r3, #1
 194 0076 9B1A     		subs	r3, r3, r2
 195              		.loc 2 135 12 view .LVU50
 196 0078 1BB2     		sxth	r3, r3
 197 007a 1193     		str	r3, [sp, #68]
 198              	.LBE120:
 199              	.LBE125:
 200              	.LBB126:
 201              	.LBB127:
 125:Drivers/lvgl/src/draw/sw/../../misc/lv_area.h **** }
 202              		.loc 2 125 49 view .LVU51
 203 007c 631B     		subs	r3, r4, r5
 204 007e 0133     		adds	r3, r3, #1
 125:Drivers/lvgl/src/draw/sw/../../misc/lv_area.h **** }
 205              		.loc 2 125 12 view .LVU52
 206 0080 0FFA83FA 		sxth	r10, r3
ARM GAS  /var/folders/0z/tsy30v1j4xl4_7kw94k978ww0000gn/T//ccRgGdZF.s 			page 9


 207              	.LBE127:
 208              	.LBE126:
 209              	.LBB129:
 210              	.LBB114:
 125:Drivers/lvgl/src/draw/sw/../../misc/lv_area.h **** }
 211              		.loc 2 125 49 view .LVU53
 212 0084 4B1C     		adds	r3, r1, #1
 125:Drivers/lvgl/src/draw/sw/../../misc/lv_area.h **** }
 213              		.loc 2 125 12 view .LVU54
 214 0086 1BB2     		sxth	r3, r3
 215 0088 0D93     		str	r3, [sp, #52]
 216              	.LBE114:
 217              	.LBE129:
 218              		.loc 1 100 23 view .LVU55
 219 008a CDE91B54 		strd	r5, r4, [sp, #108]
 101:Drivers/lvgl/src/draw/sw/lv_draw_sw_img.c ****         blend_area.x2 = draw_ctx->clip_area->x2;
 102:Drivers/lvgl/src/draw/sw/lv_draw_sw_img.c ****         blend_area.y1 = draw_ctx->clip_area->y1;
 103:Drivers/lvgl/src/draw/sw/lv_draw_sw_img.c ****         blend_area.y2 = draw_ctx->clip_area->y2;
 104:Drivers/lvgl/src/draw/sw/lv_draw_sw_img.c **** 
 105:Drivers/lvgl/src/draw/sw/lv_draw_sw_img.c ****         lv_coord_t src_w = lv_area_get_width(coords);
 106:Drivers/lvgl/src/draw/sw/lv_draw_sw_img.c ****         lv_coord_t src_h = lv_area_get_height(coords);
 107:Drivers/lvgl/src/draw/sw/lv_draw_sw_img.c ****         lv_coord_t blend_h = lv_area_get_height(&blend_area);
 108:Drivers/lvgl/src/draw/sw/lv_draw_sw_img.c ****         lv_coord_t blend_w = lv_area_get_width(&blend_area);
 109:Drivers/lvgl/src/draw/sw/lv_draw_sw_img.c **** 
 110:Drivers/lvgl/src/draw/sw/lv_draw_sw_img.c ****         uint32_t max_buf_size = MAX_BUF_SIZE;
 220              		.loc 1 110 33 view .LVU56
 221 008e FFF7FEFF 		bl	_lv_refr_get_disp_refreshing
 222              	.LVL12:
 223 0092 FFF7FEFF 		bl	lv_disp_get_hor_res
 224              	.LVL13:
 225 0096 0646     		mov	r6, r0
 226              	.LVL14:
 111:Drivers/lvgl/src/draw/sw/lv_draw_sw_img.c ****         uint32_t blend_size = lv_area_get_size(&blend_area);
 227              		.loc 1 111 31 view .LVU57
 228 0098 1BA8     		add	r0, sp, #108
 229 009a FFF7FEFF 		bl	lv_area_get_size
 230              	.LVL15:
 231 009e 45F30F45 		sbfx	r5, r5, #16, #16
 112:Drivers/lvgl/src/draw/sw/lv_draw_sw_img.c ****         uint32_t buf_h;
 113:Drivers/lvgl/src/draw/sw/lv_draw_sw_img.c ****         uint32_t buf_w = blend_w;
 114:Drivers/lvgl/src/draw/sw/lv_draw_sw_img.c ****         if(blend_size <= max_buf_size) {
 232              		.loc 1 114 11 view .LVU58
 233 00a2 8642     		cmp	r6, r0
 234 00a4 44F30F44 		sbfx	r4, r4, #16, #16
 101:Drivers/lvgl/src/draw/sw/lv_draw_sw_img.c ****         blend_area.y1 = draw_ctx->clip_area->y1;
 235              		.loc 1 101 9 is_stmt 1 view .LVU59
 102:Drivers/lvgl/src/draw/sw/lv_draw_sw_img.c ****         blend_area.y2 = draw_ctx->clip_area->y2;
 236              		.loc 1 102 9 view .LVU60
 103:Drivers/lvgl/src/draw/sw/lv_draw_sw_img.c **** 
 237              		.loc 1 103 9 view .LVU61
 105:Drivers/lvgl/src/draw/sw/lv_draw_sw_img.c ****         lv_coord_t src_h = lv_area_get_height(coords);
 238              		.loc 1 105 9 view .LVU62
 239              	.LBB130:
 240              	.LBI109:
 123:Drivers/lvgl/src/draw/sw/../../misc/lv_area.h **** {
 241              		.loc 2 123 26 view .LVU63
 242              	.LBB115:
ARM GAS  /var/folders/0z/tsy30v1j4xl4_7kw94k978ww0000gn/T//ccRgGdZF.s 			page 10


 125:Drivers/lvgl/src/draw/sw/../../misc/lv_area.h **** }
 243              		.loc 2 125 5 view .LVU64
 244              	.LBE115:
 245              	.LBE130:
 106:Drivers/lvgl/src/draw/sw/lv_draw_sw_img.c ****         lv_coord_t blend_h = lv_area_get_height(&blend_area);
 246              		.loc 1 106 9 view .LVU65
 247              	.LBB131:
 248              	.LBI117:
 133:Drivers/lvgl/src/draw/sw/../../misc/lv_area.h **** {
 249              		.loc 2 133 26 view .LVU66
 250              	.LBB121:
 251              		.loc 2 135 5 view .LVU67
 252              	.LBE121:
 253              	.LBE131:
 107:Drivers/lvgl/src/draw/sw/lv_draw_sw_img.c ****         lv_coord_t blend_w = lv_area_get_width(&blend_area);
 254              		.loc 1 107 9 view .LVU68
 255              	.LVL16:
 256              	.LBB132:
 257              	.LBI132:
 133:Drivers/lvgl/src/draw/sw/../../misc/lv_area.h **** {
 258              		.loc 2 133 26 view .LVU69
 259              	.LBB133:
 260              		.loc 2 135 5 view .LVU70
 261              		.loc 2 135 5 is_stmt 0 view .LVU71
 262              	.LBE133:
 263              	.LBE132:
 108:Drivers/lvgl/src/draw/sw/lv_draw_sw_img.c **** 
 264              		.loc 1 108 9 is_stmt 1 view .LVU72
 265              	.LBB135:
 266              	.LBI126:
 123:Drivers/lvgl/src/draw/sw/../../misc/lv_area.h **** {
 267              		.loc 2 123 26 view .LVU73
 268              	.LBB128:
 125:Drivers/lvgl/src/draw/sw/../../misc/lv_area.h **** }
 269              		.loc 2 125 5 view .LVU74
 125:Drivers/lvgl/src/draw/sw/../../misc/lv_area.h **** }
 270              		.loc 2 125 5 is_stmt 0 view .LVU75
 271              	.LBE128:
 272              	.LBE135:
 110:Drivers/lvgl/src/draw/sw/lv_draw_sw_img.c ****         uint32_t blend_size = lv_area_get_size(&blend_area);
 273              		.loc 1 110 9 is_stmt 1 view .LVU76
 111:Drivers/lvgl/src/draw/sw/lv_draw_sw_img.c ****         uint32_t buf_h;
 274              		.loc 1 111 9 view .LVU77
 112:Drivers/lvgl/src/draw/sw/lv_draw_sw_img.c ****         uint32_t buf_w = blend_w;
 275              		.loc 1 112 9 view .LVU78
 113:Drivers/lvgl/src/draw/sw/lv_draw_sw_img.c ****         if(blend_size <= max_buf_size) {
 276              		.loc 1 113 9 view .LVU79
 277              		.loc 1 114 9 view .LVU80
 115:Drivers/lvgl/src/draw/sw/lv_draw_sw_img.c ****             buf_h = blend_h;
 278              		.loc 1 115 13 view .LVU81
 279              	.LBB136:
 280              	.LBB134:
 281              		.loc 2 135 49 is_stmt 0 view .LVU82
 282 00a8 23BF     		ittte	cs
 283 00aa 631B     		subcs	r3, r4, r5
 284 00ac 0133     		addcs	r3, r3, #1
 285              	.LBE134:
ARM GAS  /var/folders/0z/tsy30v1j4xl4_7kw94k978ww0000gn/T//ccRgGdZF.s 			page 11


 286              	.LBE136:
 287              		.loc 1 115 19 view .LVU83
 288 00ae 1BB2     		sxthcs	r3, r3
 289              	.LVL17:
 116:Drivers/lvgl/src/draw/sw/lv_draw_sw_img.c ****         }
 117:Drivers/lvgl/src/draw/sw/lv_draw_sw_img.c ****         else {
 118:Drivers/lvgl/src/draw/sw/lv_draw_sw_img.c ****             /*Round to full lines*/
 119:Drivers/lvgl/src/draw/sw/lv_draw_sw_img.c ****             buf_h = max_buf_size / blend_w;
 290              		.loc 1 119 13 is_stmt 1 view .LVU84
 291              		.loc 1 119 19 is_stmt 0 view .LVU85
 292 00b0 B6FBFAF3 		udivcc	r3, r6, r10
 293              	.LVL18:
 120:Drivers/lvgl/src/draw/sw/lv_draw_sw_img.c ****         }
 121:Drivers/lvgl/src/draw/sw/lv_draw_sw_img.c **** 
 122:Drivers/lvgl/src/draw/sw/lv_draw_sw_img.c ****         /*Create buffers and masks*/
 123:Drivers/lvgl/src/draw/sw/lv_draw_sw_img.c ****         uint32_t buf_size = buf_w * buf_h;
 294              		.loc 1 123 9 is_stmt 1 view .LVU86
 295              		.loc 1 123 18 is_stmt 0 view .LVU87
 296 00b4 0AFB03F2 		mul	r2, r10, r3
 124:Drivers/lvgl/src/draw/sw/lv_draw_sw_img.c **** 
 125:Drivers/lvgl/src/draw/sw/lv_draw_sw_img.c ****         lv_color_t * rgb_buf = lv_mem_buf_get(buf_size * sizeof(lv_color_t));
 297              		.loc 1 125 32 view .LVU88
 298 00b8 4FEA420B 		lsl	fp, r2, #1
 126:Drivers/lvgl/src/draw/sw/lv_draw_sw_img.c ****         lv_opa_t * mask_buf = lv_mem_buf_get(buf_size);
 127:Drivers/lvgl/src/draw/sw/lv_draw_sw_img.c ****         blend_dsc.mask_buf = mask_buf;
 128:Drivers/lvgl/src/draw/sw/lv_draw_sw_img.c ****         blend_dsc.mask_area = &blend_area;
 129:Drivers/lvgl/src/draw/sw/lv_draw_sw_img.c ****         blend_dsc.mask_res = LV_DRAW_MASK_RES_CHANGED;
 130:Drivers/lvgl/src/draw/sw/lv_draw_sw_img.c ****         blend_dsc.src_buf = rgb_buf;
 131:Drivers/lvgl/src/draw/sw/lv_draw_sw_img.c ****         lv_coord_t y_last = blend_area.y2;
 132:Drivers/lvgl/src/draw/sw/lv_draw_sw_img.c ****         blend_area.y2 = blend_area.y1 + buf_h - 1;
 299              		.loc 1 132 39 view .LVU89
 300 00bc 9DB2     		uxth	r5, r3
 125:Drivers/lvgl/src/draw/sw/lv_draw_sw_img.c ****         lv_opa_t * mask_buf = lv_mem_buf_get(buf_size);
 301              		.loc 1 125 32 view .LVU90
 302 00be 5846     		mov	r0, fp
 303              	.LVL19:
 123:Drivers/lvgl/src/draw/sw/lv_draw_sw_img.c **** 
 304              		.loc 1 123 18 view .LVU91
 305 00c0 1446     		mov	r4, r2
 306 00c2 1292     		str	r2, [sp, #72]
 307              	.LVL20:
 125:Drivers/lvgl/src/draw/sw/lv_draw_sw_img.c ****         lv_opa_t * mask_buf = lv_mem_buf_get(buf_size);
 308              		.loc 1 125 9 is_stmt 1 view .LVU92
 309              		.loc 1 132 39 is_stmt 0 view .LVU93
 310 00c4 1095     		str	r5, [sp, #64]
 125:Drivers/lvgl/src/draw/sw/lv_draw_sw_img.c ****         lv_opa_t * mask_buf = lv_mem_buf_get(buf_size);
 311              		.loc 1 125 32 view .LVU94
 312 00c6 FFF7FEFF 		bl	lv_mem_buf_get
 313              	.LVL21:
 125:Drivers/lvgl/src/draw/sw/lv_draw_sw_img.c ****         lv_opa_t * mask_buf = lv_mem_buf_get(buf_size);
 314              		.loc 1 125 32 view .LVU95
 315 00ca 0646     		mov	r6, r0
 316              	.LVL22:
 125:Drivers/lvgl/src/draw/sw/lv_draw_sw_img.c ****         lv_opa_t * mask_buf = lv_mem_buf_get(buf_size);
 317              		.loc 1 125 32 view .LVU96
 318 00cc 0890     		str	r0, [sp, #32]
 319              	.LVL23:
ARM GAS  /var/folders/0z/tsy30v1j4xl4_7kw94k978ww0000gn/T//ccRgGdZF.s 			page 12


 126:Drivers/lvgl/src/draw/sw/lv_draw_sw_img.c ****         lv_opa_t * mask_buf = lv_mem_buf_get(buf_size);
 320              		.loc 1 126 9 is_stmt 1 view .LVU97
 126:Drivers/lvgl/src/draw/sw/lv_draw_sw_img.c ****         lv_opa_t * mask_buf = lv_mem_buf_get(buf_size);
 321              		.loc 1 126 31 is_stmt 0 view .LVU98
 322 00ce 2046     		mov	r0, r4
 323              	.LVL24:
 126:Drivers/lvgl/src/draw/sw/lv_draw_sw_img.c ****         lv_opa_t * mask_buf = lv_mem_buf_get(buf_size);
 324              		.loc 1 126 31 view .LVU99
 325 00d0 FFF7FEFF 		bl	lv_mem_buf_get
 326              	.LVL25:
 128:Drivers/lvgl/src/draw/sw/lv_draw_sw_img.c ****         blend_dsc.mask_res = LV_DRAW_MASK_RES_CHANGED;
 327              		.loc 1 128 29 view .LVU100
 328 00d4 1BAB     		add	r3, sp, #108
 329 00d6 2493     		str	r3, [sp, #144]
 330              		.loc 1 132 35 view .LVU101
 331 00d8 BDF96E30 		ldrsh	r3, [sp, #110]
 131:Drivers/lvgl/src/draw/sw/lv_draw_sw_img.c ****         blend_area.y2 = blend_area.y1 + buf_h - 1;
 332              		.loc 1 131 20 view .LVU102
 333 00dc BDF97220 		ldrsh	r2, [sp, #114]
 133:Drivers/lvgl/src/draw/sw/lv_draw_sw_img.c **** 
 134:Drivers/lvgl/src/draw/sw/lv_draw_sw_img.c ****         lv_draw_mask_res_t mask_res_def = (cf != LV_IMG_CF_TRUE_COLOR || draw_dsc->angle ||
 334              		.loc 1 134 28 view .LVU103
 335 00e0 0A99     		ldr	r1, [sp, #40]
 131:Drivers/lvgl/src/draw/sw/lv_draw_sw_img.c ****         blend_area.y2 = blend_area.y1 + buf_h - 1;
 336              		.loc 1 131 20 view .LVU104
 337 00e2 0C92     		str	r2, [sp, #48]
 132:Drivers/lvgl/src/draw/sw/lv_draw_sw_img.c **** 
 338              		.loc 1 132 47 view .LVU105
 339 00e4 5A1E     		subs	r2, r3, #1
 340 00e6 2A44     		add	r2, r2, r5
 341 00e8 12B2     		sxth	r2, r2
 342              		.loc 1 134 28 view .LVU106
 343 00ea 0429     		cmp	r1, #4
 126:Drivers/lvgl/src/draw/sw/lv_draw_sw_img.c ****         blend_dsc.mask_buf = mask_buf;
 344              		.loc 1 126 31 view .LVU107
 345 00ec 0990     		str	r0, [sp, #36]
 346              	.LVL26:
 127:Drivers/lvgl/src/draw/sw/lv_draw_sw_img.c ****         blend_dsc.mask_area = &blend_area;
 347              		.loc 1 127 9 is_stmt 1 view .LVU108
 127:Drivers/lvgl/src/draw/sw/lv_draw_sw_img.c ****         blend_dsc.mask_area = &blend_area;
 348              		.loc 1 127 28 is_stmt 0 view .LVU109
 349 00ee 2290     		str	r0, [sp, #136]
 128:Drivers/lvgl/src/draw/sw/lv_draw_sw_img.c ****         blend_dsc.mask_res = LV_DRAW_MASK_RES_CHANGED;
 350              		.loc 1 128 9 is_stmt 1 view .LVU110
 129:Drivers/lvgl/src/draw/sw/lv_draw_sw_img.c ****         blend_dsc.src_buf = rgb_buf;
 351              		.loc 1 129 9 view .LVU111
 130:Drivers/lvgl/src/draw/sw/lv_draw_sw_img.c ****         lv_coord_t y_last = blend_area.y2;
 352              		.loc 1 130 9 view .LVU112
 130:Drivers/lvgl/src/draw/sw/lv_draw_sw_img.c ****         lv_coord_t y_last = blend_area.y2;
 353              		.loc 1 130 27 is_stmt 0 view .LVU113
 354 00f0 2096     		str	r6, [sp, #128]
 131:Drivers/lvgl/src/draw/sw/lv_draw_sw_img.c ****         blend_area.y2 = blend_area.y1 + buf_h - 1;
 355              		.loc 1 131 9 is_stmt 1 view .LVU114
 356              	.LVL27:
 132:Drivers/lvgl/src/draw/sw/lv_draw_sw_img.c **** 
 357              		.loc 1 132 9 view .LVU115
 132:Drivers/lvgl/src/draw/sw/lv_draw_sw_img.c **** 
ARM GAS  /var/folders/0z/tsy30v1j4xl4_7kw94k978ww0000gn/T//ccRgGdZF.s 			page 13


 358              		.loc 1 132 23 is_stmt 0 view .LVU116
 359 00f2 ADF87220 		strh	r2, [sp, #114]	@ movhi
 360              		.loc 1 134 9 is_stmt 1 view .LVU117
 361              		.loc 1 134 28 is_stmt 0 view .LVU118
 362 00f6 00F01982 		beq	.L64
 363 00fa 0221     		movs	r1, #2
 364              	.L10:
 365              	.LVL28:
 135:Drivers/lvgl/src/draw/sw/lv_draw_sw_img.c ****                                            draw_dsc->zoom != LV_IMG_ZOOM_NONE) ?
 136:Drivers/lvgl/src/draw/sw/lv_draw_sw_img.c ****                                           LV_DRAW_MASK_RES_CHANGED : LV_DRAW_MASK_RES_FULL_COVER;
 137:Drivers/lvgl/src/draw/sw/lv_draw_sw_img.c ****         blend_dsc.mask_res = mask_res_def;
 366              		.loc 1 137 9 is_stmt 1 discriminator 6 view .LVU119
 367              		.loc 1 137 28 is_stmt 0 discriminator 6 view .LVU120
 368 00fc 8DF88C10 		strb	r1, [sp, #140]
 138:Drivers/lvgl/src/draw/sw/lv_draw_sw_img.c **** 
 139:Drivers/lvgl/src/draw/sw/lv_draw_sw_img.c ****         while(blend_area.y1 <= y_last) {
 369              		.loc 1 139 9 is_stmt 1 discriminator 6 view .LVU121
 370              		.loc 1 139 29 discriminator 6 view .LVU122
 371 0100 0C99     		ldr	r1, [sp, #48]
 372              	.LVL29:
 373              		.loc 1 139 29 is_stmt 0 discriminator 6 view .LVU123
 374 0102 8B42     		cmp	r3, r1
 375 0104 00F30782 		bgt	.L38
 376 0108 0899     		ldr	r1, [sp, #32]
 377              	.LBB137:
 378              	.LBB138:
 379              	.LBB139:
 380              	.LBB140:
 140:Drivers/lvgl/src/draw/sw/lv_draw_sw_img.c ****             /*Apply transformations if any or separate the channels*/
 141:Drivers/lvgl/src/draw/sw/lv_draw_sw_img.c ****             lv_area_t transform_area;
 142:Drivers/lvgl/src/draw/sw/lv_draw_sw_img.c ****             lv_area_copy(&transform_area, &blend_area);
 143:Drivers/lvgl/src/draw/sw/lv_draw_sw_img.c ****             lv_area_move(&transform_area, -coords->x1, -coords->y1);
 144:Drivers/lvgl/src/draw/sw/lv_draw_sw_img.c ****             if(transform) {
 145:Drivers/lvgl/src/draw/sw/lv_draw_sw_img.c ****                 lv_draw_transform(draw_ctx, &transform_area, src_buf, src_w, src_h, src_w,
 146:Drivers/lvgl/src/draw/sw/lv_draw_sw_img.c ****                                   draw_dsc, cf, rgb_buf, mask_buf);
 147:Drivers/lvgl/src/draw/sw/lv_draw_sw_img.c ****             }
 148:Drivers/lvgl/src/draw/sw/lv_draw_sw_img.c ****             else {
 149:Drivers/lvgl/src/draw/sw/lv_draw_sw_img.c ****                 convert_cb(&transform_area, src_buf, src_w, src_h, src_w, draw_dsc, cf, rgb_buf, ma
 150:Drivers/lvgl/src/draw/sw/lv_draw_sw_img.c ****             }
 151:Drivers/lvgl/src/draw/sw/lv_draw_sw_img.c **** 
 152:Drivers/lvgl/src/draw/sw/lv_draw_sw_img.c ****             /*Apply recolor*/
 153:Drivers/lvgl/src/draw/sw/lv_draw_sw_img.c ****             if(draw_dsc->recolor_opa > LV_OPA_MIN) {
 154:Drivers/lvgl/src/draw/sw/lv_draw_sw_img.c ****                 uint16_t premult_v[3];
 155:Drivers/lvgl/src/draw/sw/lv_draw_sw_img.c ****                 lv_opa_t recolor_opa = draw_dsc->recolor_opa;
 156:Drivers/lvgl/src/draw/sw/lv_draw_sw_img.c ****                 lv_color_t recolor = draw_dsc->recolor;
 157:Drivers/lvgl/src/draw/sw/lv_draw_sw_img.c ****                 lv_color_premult(recolor, recolor_opa, premult_v);
 158:Drivers/lvgl/src/draw/sw/lv_draw_sw_img.c ****                 recolor_opa = 255 - recolor_opa;
 159:Drivers/lvgl/src/draw/sw/lv_draw_sw_img.c ****                 uint32_t i;
 160:Drivers/lvgl/src/draw/sw/lv_draw_sw_img.c ****                 for(i = 0; i < buf_size; i++) {
 161:Drivers/lvgl/src/draw/sw/lv_draw_sw_img.c ****                     rgb_buf[i] = lv_color_mix_premult(premult_v, rgb_buf[i], recolor_opa);
 162:Drivers/lvgl/src/draw/sw/lv_draw_sw_img.c ****                 }
 163:Drivers/lvgl/src/draw/sw/lv_draw_sw_img.c ****             }
 164:Drivers/lvgl/src/draw/sw/lv_draw_sw_img.c **** #if LV_DRAW_COMPLEX
 165:Drivers/lvgl/src/draw/sw/lv_draw_sw_img.c ****             /*Apply the masks if any*/
 166:Drivers/lvgl/src/draw/sw/lv_draw_sw_img.c ****             if(mask_any) {
 167:Drivers/lvgl/src/draw/sw/lv_draw_sw_img.c ****                 lv_coord_t y;
 168:Drivers/lvgl/src/draw/sw/lv_draw_sw_img.c ****                 lv_opa_t * mask_buf_tmp = mask_buf;
ARM GAS  /var/folders/0z/tsy30v1j4xl4_7kw94k978ww0000gn/T//ccRgGdZF.s 			page 14


 169:Drivers/lvgl/src/draw/sw/lv_draw_sw_img.c ****                 for(y = blend_area.y1; y <= blend_area.y2; y++) {
 170:Drivers/lvgl/src/draw/sw/lv_draw_sw_img.c ****                     lv_draw_mask_res_t mask_res_line;
 171:Drivers/lvgl/src/draw/sw/lv_draw_sw_img.c ****                     mask_res_line = lv_draw_mask_apply(mask_buf_tmp, blend_area.x1, y, blend_w);
 172:Drivers/lvgl/src/draw/sw/lv_draw_sw_img.c **** 
 173:Drivers/lvgl/src/draw/sw/lv_draw_sw_img.c ****                     if(mask_res_line == LV_DRAW_MASK_RES_TRANSP) {
 174:Drivers/lvgl/src/draw/sw/lv_draw_sw_img.c ****                         lv_memset_00(mask_buf_tmp, blend_w);
 175:Drivers/lvgl/src/draw/sw/lv_draw_sw_img.c ****                         blend_dsc.mask_res = LV_DRAW_MASK_RES_CHANGED;
 176:Drivers/lvgl/src/draw/sw/lv_draw_sw_img.c ****                     }
 177:Drivers/lvgl/src/draw/sw/lv_draw_sw_img.c ****                     else if(mask_res_line == LV_DRAW_MASK_RES_CHANGED) {
 178:Drivers/lvgl/src/draw/sw/lv_draw_sw_img.c ****                         blend_dsc.mask_res = LV_DRAW_MASK_RES_CHANGED;
 179:Drivers/lvgl/src/draw/sw/lv_draw_sw_img.c ****                     }
 180:Drivers/lvgl/src/draw/sw/lv_draw_sw_img.c ****                     mask_buf_tmp += blend_w;
 181:Drivers/lvgl/src/draw/sw/lv_draw_sw_img.c ****                 }
 182:Drivers/lvgl/src/draw/sw/lv_draw_sw_img.c ****             }
 183:Drivers/lvgl/src/draw/sw/lv_draw_sw_img.c **** #endif
 184:Drivers/lvgl/src/draw/sw/lv_draw_sw_img.c **** 
 185:Drivers/lvgl/src/draw/sw/lv_draw_sw_img.c ****             /*Blend*/
 186:Drivers/lvgl/src/draw/sw/lv_draw_sw_img.c ****             lv_draw_sw_blend(draw_ctx, &blend_dsc);
 187:Drivers/lvgl/src/draw/sw/lv_draw_sw_img.c **** 
 188:Drivers/lvgl/src/draw/sw/lv_draw_sw_img.c ****             /*Go the the next lines*/
 189:Drivers/lvgl/src/draw/sw/lv_draw_sw_img.c ****             blend_area.y1 = blend_area.y2 + 1;
 190:Drivers/lvgl/src/draw/sw/lv_draw_sw_img.c ****             blend_area.y2 = blend_area.y1 + buf_h - 1;
 191:Drivers/lvgl/src/draw/sw/lv_draw_sw_img.c ****             if(blend_area.y2 > y_last) blend_area.y2 = y_last;
 192:Drivers/lvgl/src/draw/sw/lv_draw_sw_img.c ****         }
 193:Drivers/lvgl/src/draw/sw/lv_draw_sw_img.c **** 
 194:Drivers/lvgl/src/draw/sw/lv_draw_sw_img.c ****         lv_mem_buf_release(mask_buf);
 195:Drivers/lvgl/src/draw/sw/lv_draw_sw_img.c ****         lv_mem_buf_release(rgb_buf);
 196:Drivers/lvgl/src/draw/sw/lv_draw_sw_img.c ****     }
 197:Drivers/lvgl/src/draw/sw/lv_draw_sw_img.c **** }
 198:Drivers/lvgl/src/draw/sw/lv_draw_sw_img.c **** 
 199:Drivers/lvgl/src/draw/sw/lv_draw_sw_img.c **** /**********************
 200:Drivers/lvgl/src/draw/sw/lv_draw_sw_img.c ****  *   STATIC FUNCTIONS
 201:Drivers/lvgl/src/draw/sw/lv_draw_sw_img.c ****  **********************/
 202:Drivers/lvgl/src/draw/sw/lv_draw_sw_img.c **** 
 203:Drivers/lvgl/src/draw/sw/lv_draw_sw_img.c **** /* Separate the image channels to RGB and Alpha to match LV_COLOR_DEPTH settings*/
 204:Drivers/lvgl/src/draw/sw/lv_draw_sw_img.c **** static void convert_cb(const lv_area_t * dest_area, const void * src_buf, lv_coord_t src_w, lv_coor
 205:Drivers/lvgl/src/draw/sw/lv_draw_sw_img.c ****                        lv_coord_t src_stride, const lv_draw_img_dsc_t * draw_dsc, lv_img_cf_t cf, l
 206:Drivers/lvgl/src/draw/sw/lv_draw_sw_img.c **** {
 207:Drivers/lvgl/src/draw/sw/lv_draw_sw_img.c ****     LV_UNUSED(draw_dsc);
 208:Drivers/lvgl/src/draw/sw/lv_draw_sw_img.c ****     LV_UNUSED(src_h);
 209:Drivers/lvgl/src/draw/sw/lv_draw_sw_img.c ****     LV_UNUSED(src_w);
 210:Drivers/lvgl/src/draw/sw/lv_draw_sw_img.c **** 
 211:Drivers/lvgl/src/draw/sw/lv_draw_sw_img.c ****     const uint8_t * src_tmp8 = (const uint8_t *)src_buf;
 212:Drivers/lvgl/src/draw/sw/lv_draw_sw_img.c ****     lv_coord_t y;
 213:Drivers/lvgl/src/draw/sw/lv_draw_sw_img.c ****     lv_coord_t x;
 214:Drivers/lvgl/src/draw/sw/lv_draw_sw_img.c **** 
 215:Drivers/lvgl/src/draw/sw/lv_draw_sw_img.c ****     if(cf == LV_IMG_CF_TRUE_COLOR || cf == LV_IMG_CF_TRUE_COLOR_CHROMA_KEYED) {
 216:Drivers/lvgl/src/draw/sw/lv_draw_sw_img.c ****         uint32_t px_cnt = lv_area_get_size(dest_area);
 217:Drivers/lvgl/src/draw/sw/lv_draw_sw_img.c ****         lv_memset_ff(abuf, px_cnt);
 218:Drivers/lvgl/src/draw/sw/lv_draw_sw_img.c **** 
 219:Drivers/lvgl/src/draw/sw/lv_draw_sw_img.c ****         src_tmp8 += (src_stride * dest_area->y1 * sizeof(lv_color_t)) + dest_area->x1 * sizeof(lv_c
 220:Drivers/lvgl/src/draw/sw/lv_draw_sw_img.c ****         uint32_t dest_w = lv_area_get_width(dest_area);
 221:Drivers/lvgl/src/draw/sw/lv_draw_sw_img.c ****         uint32_t dest_w_byte = dest_w * sizeof(lv_color_t);
 222:Drivers/lvgl/src/draw/sw/lv_draw_sw_img.c **** 
 223:Drivers/lvgl/src/draw/sw/lv_draw_sw_img.c ****         lv_coord_t src_stride_byte = src_stride * sizeof(lv_color_t);
 224:Drivers/lvgl/src/draw/sw/lv_draw_sw_img.c ****         lv_color_t * cbuf_tmp = cbuf;
 225:Drivers/lvgl/src/draw/sw/lv_draw_sw_img.c ****         for(y = dest_area->y1; y <= dest_area->y2; y++) {
ARM GAS  /var/folders/0z/tsy30v1j4xl4_7kw94k978ww0000gn/T//ccRgGdZF.s 			page 15


 226:Drivers/lvgl/src/draw/sw/lv_draw_sw_img.c ****             lv_memcpy(cbuf_tmp, src_tmp8, dest_w_byte);
 227:Drivers/lvgl/src/draw/sw/lv_draw_sw_img.c ****             src_tmp8 += src_stride_byte;
 228:Drivers/lvgl/src/draw/sw/lv_draw_sw_img.c ****             cbuf_tmp += dest_w;
 229:Drivers/lvgl/src/draw/sw/lv_draw_sw_img.c ****         }
 230:Drivers/lvgl/src/draw/sw/lv_draw_sw_img.c **** 
 231:Drivers/lvgl/src/draw/sw/lv_draw_sw_img.c ****         /*Make "holes" for with Chroma keying*/
 232:Drivers/lvgl/src/draw/sw/lv_draw_sw_img.c ****         if(cf == LV_IMG_CF_TRUE_COLOR_CHROMA_KEYED) {
 233:Drivers/lvgl/src/draw/sw/lv_draw_sw_img.c ****             uint32_t i;
 234:Drivers/lvgl/src/draw/sw/lv_draw_sw_img.c ****             lv_color_t chk = LV_COLOR_CHROMA_KEY;
 235:Drivers/lvgl/src/draw/sw/lv_draw_sw_img.c **** #if LV_COLOR_DEPTH == 8 || LV_COLOR_DEPTH == 1
 236:Drivers/lvgl/src/draw/sw/lv_draw_sw_img.c ****             uint8_t * cbuf_uint = (uint8_t *)cbuf;
 237:Drivers/lvgl/src/draw/sw/lv_draw_sw_img.c ****             uint8_t chk_v = chk.full;
 238:Drivers/lvgl/src/draw/sw/lv_draw_sw_img.c **** #elif LV_COLOR_DEPTH == 16
 239:Drivers/lvgl/src/draw/sw/lv_draw_sw_img.c ****             uint16_t * cbuf_uint = (uint16_t *)cbuf;
 240:Drivers/lvgl/src/draw/sw/lv_draw_sw_img.c ****             uint16_t chk_v = chk.full;
 241:Drivers/lvgl/src/draw/sw/lv_draw_sw_img.c **** #elif LV_COLOR_DEPTH == 32
 242:Drivers/lvgl/src/draw/sw/lv_draw_sw_img.c ****             uint32_t * cbuf_uint = (uint32_t *)cbuf;
 243:Drivers/lvgl/src/draw/sw/lv_draw_sw_img.c ****             uint32_t chk_v = chk.full;
 244:Drivers/lvgl/src/draw/sw/lv_draw_sw_img.c **** #endif
 245:Drivers/lvgl/src/draw/sw/lv_draw_sw_img.c ****             for(i = 0; i < px_cnt; i++) {
 246:Drivers/lvgl/src/draw/sw/lv_draw_sw_img.c ****                 if(chk_v == cbuf_uint[i]) abuf[i] = 0x00;
 247:Drivers/lvgl/src/draw/sw/lv_draw_sw_img.c ****             }
 248:Drivers/lvgl/src/draw/sw/lv_draw_sw_img.c ****         }
 249:Drivers/lvgl/src/draw/sw/lv_draw_sw_img.c ****     }
 250:Drivers/lvgl/src/draw/sw/lv_draw_sw_img.c ****     else if(cf == LV_IMG_CF_TRUE_COLOR_ALPHA) {
 251:Drivers/lvgl/src/draw/sw/lv_draw_sw_img.c ****         src_tmp8 += (src_stride * dest_area->y1 * LV_IMG_PX_SIZE_ALPHA_BYTE) + dest_area->x1 * LV_I
 252:Drivers/lvgl/src/draw/sw/lv_draw_sw_img.c **** 
 253:Drivers/lvgl/src/draw/sw/lv_draw_sw_img.c ****         lv_coord_t src_new_line_step_px = (src_stride - lv_area_get_width(dest_area));
 254:Drivers/lvgl/src/draw/sw/lv_draw_sw_img.c ****         lv_coord_t src_new_line_step_byte = src_new_line_step_px * LV_IMG_PX_SIZE_ALPHA_BYTE;
 255:Drivers/lvgl/src/draw/sw/lv_draw_sw_img.c **** 
 256:Drivers/lvgl/src/draw/sw/lv_draw_sw_img.c ****         lv_coord_t dest_h = lv_area_get_height(dest_area);
 257:Drivers/lvgl/src/draw/sw/lv_draw_sw_img.c ****         lv_coord_t dest_w = lv_area_get_width(dest_area);
 258:Drivers/lvgl/src/draw/sw/lv_draw_sw_img.c ****         for(y = 0; y < dest_h; y++) {
 259:Drivers/lvgl/src/draw/sw/lv_draw_sw_img.c ****             for(x = 0; x < dest_w; x++) {
 260:Drivers/lvgl/src/draw/sw/lv_draw_sw_img.c ****                 abuf[x] = src_tmp8[LV_IMG_PX_SIZE_ALPHA_BYTE - 1];
 261:Drivers/lvgl/src/draw/sw/lv_draw_sw_img.c **** #if LV_COLOR_DEPTH == 8 || LV_COLOR_DEPTH == 1
 262:Drivers/lvgl/src/draw/sw/lv_draw_sw_img.c ****                 cbuf[x].full = *src_tmp8;
 263:Drivers/lvgl/src/draw/sw/lv_draw_sw_img.c **** #elif LV_COLOR_DEPTH == 16
 264:Drivers/lvgl/src/draw/sw/lv_draw_sw_img.c ****                 cbuf[x].full = *src_tmp8 + ((*(src_tmp8 + 1)) << 8);
 265:Drivers/lvgl/src/draw/sw/lv_draw_sw_img.c **** #elif LV_COLOR_DEPTH == 32
 266:Drivers/lvgl/src/draw/sw/lv_draw_sw_img.c ****                 cbuf[x] = *((lv_color_t *) src_tmp8);
 267:Drivers/lvgl/src/draw/sw/lv_draw_sw_img.c ****                 cbuf[x].ch.alpha = 0xff;
 268:Drivers/lvgl/src/draw/sw/lv_draw_sw_img.c **** #endif
 269:Drivers/lvgl/src/draw/sw/lv_draw_sw_img.c ****                 src_tmp8 += LV_IMG_PX_SIZE_ALPHA_BYTE;
 270:Drivers/lvgl/src/draw/sw/lv_draw_sw_img.c **** 
 271:Drivers/lvgl/src/draw/sw/lv_draw_sw_img.c ****             }
 272:Drivers/lvgl/src/draw/sw/lv_draw_sw_img.c ****             cbuf += dest_w;
 273:Drivers/lvgl/src/draw/sw/lv_draw_sw_img.c ****             abuf += dest_w;
 274:Drivers/lvgl/src/draw/sw/lv_draw_sw_img.c ****             src_tmp8 += src_new_line_step_byte;
 275:Drivers/lvgl/src/draw/sw/lv_draw_sw_img.c ****         }
 276:Drivers/lvgl/src/draw/sw/lv_draw_sw_img.c ****     }
 277:Drivers/lvgl/src/draw/sw/lv_draw_sw_img.c ****     else if(cf == LV_IMG_CF_RGB565A8) {
 278:Drivers/lvgl/src/draw/sw/lv_draw_sw_img.c ****         src_tmp8 += (src_stride * dest_area->y1 * sizeof(lv_color_t)) + dest_area->x1 * sizeof(lv_c
 279:Drivers/lvgl/src/draw/sw/lv_draw_sw_img.c **** 
 280:Drivers/lvgl/src/draw/sw/lv_draw_sw_img.c ****         lv_coord_t src_stride_byte = src_stride * sizeof(lv_color_t);
 381              		.loc 1 280 20 view .LVU124
 382 010a 0D98     		ldr	r0, [sp, #52]
ARM GAS  /var/folders/0z/tsy30v1j4xl4_7kw94k978ww0000gn/T//ccRgGdZF.s 			page 16


 383              	.LVL30:
 384              		.loc 1 280 20 view .LVU125
 385 010c 8B44     		add	fp, fp, r1
 386 010e 4100     		lsls	r1, r0, #1
 387 0110 09B2     		sxth	r1, r1
 388 0112 1391     		str	r1, [sp, #76]
 281:Drivers/lvgl/src/draw/sw/lv_draw_sw_img.c **** 
 282:Drivers/lvgl/src/draw/sw/lv_draw_sw_img.c ****         lv_coord_t dest_h = lv_area_get_height(dest_area);
 283:Drivers/lvgl/src/draw/sw/lv_draw_sw_img.c ****         lv_coord_t dest_w = lv_area_get_width(dest_area);
 284:Drivers/lvgl/src/draw/sw/lv_draw_sw_img.c ****         for(y = 0; y < dest_h; y++) {
 285:Drivers/lvgl/src/draw/sw/lv_draw_sw_img.c ****             lv_memcpy(cbuf, src_tmp8, dest_w * sizeof(lv_color_t));
 286:Drivers/lvgl/src/draw/sw/lv_draw_sw_img.c ****             cbuf += dest_w;
 287:Drivers/lvgl/src/draw/sw/lv_draw_sw_img.c ****             src_tmp8 += src_stride_byte;
 288:Drivers/lvgl/src/draw/sw/lv_draw_sw_img.c ****         }
 289:Drivers/lvgl/src/draw/sw/lv_draw_sw_img.c **** 
 290:Drivers/lvgl/src/draw/sw/lv_draw_sw_img.c ****         src_tmp8 = (const uint8_t *)src_buf;
 291:Drivers/lvgl/src/draw/sw/lv_draw_sw_img.c ****         src_tmp8 += sizeof(lv_color_t) * src_w * src_h;
 389              		.loc 1 291 48 view .LVU126
 390 0114 1199     		ldr	r1, [sp, #68]
 391 0116 00FB01F1 		mul	r1, r0, r1
 392 011a 4900     		lsls	r1, r1, #1
 393 011c 1591     		str	r1, [sp, #84]
 394 011e 30E0     		b	.L37
 395              	.LVL31:
 396              	.L66:
 397              		.loc 1 291 48 view .LVU127
 398              	.LBE140:
 399              	.LBE139:
 400              	.LBE138:
 145:Drivers/lvgl/src/draw/sw/lv_draw_sw_img.c ****                                   draw_dsc, cf, rgb_buf, mask_buf);
 401              		.loc 1 145 17 is_stmt 1 view .LVU128
 402 0120 099B     		ldr	r3, [sp, #36]
 403 0122 0593     		str	r3, [sp, #20]
 404 0124 089B     		ldr	r3, [sp, #32]
 405 0126 0493     		str	r3, [sp, #16]
 406 0128 0A9B     		ldr	r3, [sp, #40]
 407 012a 0393     		str	r3, [sp, #12]
 408 012c 079B     		ldr	r3, [sp, #28]
 409 012e 119A     		ldr	r2, [sp, #68]
 410 0130 0293     		str	r3, [sp, #8]
 411 0132 0D9B     		ldr	r3, [sp, #52]
 412 0134 0092     		str	r2, [sp]
 413 0136 0193     		str	r3, [sp, #4]
 414 0138 18EE102A 		vmov	r2, s16	@ int
 415 013c 1DA9     		add	r1, sp, #116
 416 013e 4846     		mov	r0, r9
 417 0140 FFF7FEFF 		bl	lv_draw_transform
 418              	.LVL32:
 419              	.L13:
 153:Drivers/lvgl/src/draw/sw/lv_draw_sw_img.c ****                 uint16_t premult_v[3];
 420              		.loc 1 153 13 view .LVU129
 153:Drivers/lvgl/src/draw/sw/lv_draw_sw_img.c ****                 uint16_t premult_v[3];
 421              		.loc 1 153 24 is_stmt 0 view .LVU130
 422 0144 079B     		ldr	r3, [sp, #28]
 423 0146 997A     		ldrb	r1, [r3, #10]	@ zero_extendqisi2
 153:Drivers/lvgl/src/draw/sw/lv_draw_sw_img.c ****                 uint16_t premult_v[3];
 424              		.loc 1 153 15 view .LVU131
ARM GAS  /var/folders/0z/tsy30v1j4xl4_7kw94k978ww0000gn/T//ccRgGdZF.s 			page 17


 425 0148 0229     		cmp	r1, #2
 426 014a 00F2B080 		bhi	.L65
 427              	.L30:
 166:Drivers/lvgl/src/draw/sw/lv_draw_sw_img.c ****                 lv_coord_t y;
 428              		.loc 1 166 13 is_stmt 1 view .LVU132
 166:Drivers/lvgl/src/draw/sw/lv_draw_sw_img.c ****                 lv_coord_t y;
 429              		.loc 1 166 15 is_stmt 0 view .LVU133
 430 014e 0E9B     		ldr	r3, [sp, #56]
 431 0150 002B     		cmp	r3, #0
 432 0152 40F00681 		bne	.L36
 433              	.L39:
 186:Drivers/lvgl/src/draw/sw/lv_draw_sw_img.c **** 
 434              		.loc 1 186 13 is_stmt 1 view .LVU134
 435 0156 1FA9     		add	r1, sp, #124
 436 0158 4846     		mov	r0, r9
 437 015a FFF7FEFF 		bl	lv_draw_sw_blend
 438              	.LVL33:
 189:Drivers/lvgl/src/draw/sw/lv_draw_sw_img.c ****             blend_area.y2 = blend_area.y1 + buf_h - 1;
 439              		.loc 1 189 13 view .LVU135
 189:Drivers/lvgl/src/draw/sw/lv_draw_sw_img.c ****             blend_area.y2 = blend_area.y1 + buf_h - 1;
 440              		.loc 1 189 39 is_stmt 0 view .LVU136
 441 015e BDF87230 		ldrh	r3, [sp, #114]
 190:Drivers/lvgl/src/draw/sw/lv_draw_sw_img.c ****             if(blend_area.y2 > y_last) blend_area.y2 = y_last;
 442              		.loc 1 190 51 view .LVU137
 443 0162 109A     		ldr	r2, [sp, #64]
 444 0164 0C99     		ldr	r1, [sp, #48]
 445 0166 1A44     		add	r2, r2, r3
 446 0168 12B2     		sxth	r2, r2
 189:Drivers/lvgl/src/draw/sw/lv_draw_sw_img.c ****             blend_area.y2 = blend_area.y1 + buf_h - 1;
 447              		.loc 1 189 43 view .LVU138
 448 016a 0133     		adds	r3, r3, #1
 449 016c 1BB2     		sxth	r3, r3
 450 016e 8A42     		cmp	r2, r1
 451 0170 A8BF     		it	ge
 452 0172 0A46     		movge	r2, r1
 453              	.LBE137:
 139:Drivers/lvgl/src/draw/sw/lv_draw_sw_img.c ****             /*Apply transformations if any or separate the channels*/
 454              		.loc 1 139 29 view .LVU139
 455 0174 8B42     		cmp	r3, r1
 456              	.LBB228:
 189:Drivers/lvgl/src/draw/sw/lv_draw_sw_img.c ****             blend_area.y2 = blend_area.y1 + buf_h - 1;
 457              		.loc 1 189 27 view .LVU140
 458 0176 ADF86E30 		strh	r3, [sp, #110]	@ movhi
 190:Drivers/lvgl/src/draw/sw/lv_draw_sw_img.c ****             if(blend_area.y2 > y_last) blend_area.y2 = y_last;
 459              		.loc 1 190 13 is_stmt 1 view .LVU141
 191:Drivers/lvgl/src/draw/sw/lv_draw_sw_img.c ****         }
 460              		.loc 1 191 13 view .LVU142
 461 017a ADF87220 		strh	r2, [sp, #114]	@ movhi
 462              	.LBE228:
 139:Drivers/lvgl/src/draw/sw/lv_draw_sw_img.c ****             /*Apply transformations if any or separate the channels*/
 463              		.loc 1 139 29 view .LVU143
 464 017e 00F3CA81 		bgt	.L38
 465              	.L37:
 466              	.LBB229:
 141:Drivers/lvgl/src/draw/sw/lv_draw_sw_img.c ****             lv_area_copy(&transform_area, &blend_area);
 467              		.loc 1 141 13 view .LVU144
 142:Drivers/lvgl/src/draw/sw/lv_draw_sw_img.c ****             lv_area_move(&transform_area, -coords->x1, -coords->y1);
ARM GAS  /var/folders/0z/tsy30v1j4xl4_7kw94k978ww0000gn/T//ccRgGdZF.s 			page 18


 468              		.loc 1 142 13 view .LVU145
 469              	.LVL34:
 470              	.LBB193:
 471              	.LBI193:
 110:Drivers/lvgl/src/draw/sw/../../misc/lv_area.h **** {
 472              		.loc 2 110 20 view .LVU146
 473              	.LBB194:
 112:Drivers/lvgl/src/draw/sw/../../misc/lv_area.h ****     dest->y1 = src->y1;
 474              		.loc 2 112 5 view .LVU147
 113:Drivers/lvgl/src/draw/sw/../../misc/lv_area.h ****     dest->x2 = src->x2;
 475              		.loc 2 113 14 is_stmt 0 view .LVU148
 476 0182 ADF87630 		strh	r3, [sp, #118]	@ movhi
 477              	.LBE194:
 478              	.LBE193:
 143:Drivers/lvgl/src/draw/sw/lv_draw_sw_img.c ****             if(transform) {
 479              		.loc 1 143 13 view .LVU149
 480 0186 0B9B     		ldr	r3, [sp, #44]
 481              	.LBB198:
 482              	.LBB195:
 115:Drivers/lvgl/src/draw/sw/../../misc/lv_area.h **** }
 483              		.loc 2 115 14 view .LVU150
 484 0188 ADF87A20 		strh	r2, [sp, #122]	@ movhi
 485              	.LBE195:
 486              	.LBE198:
 143:Drivers/lvgl/src/draw/sw/lv_draw_sw_img.c ****             if(transform) {
 487              		.loc 1 143 13 view .LVU151
 488 018c 1988     		ldrh	r1, [r3]
 489 018e 5A88     		ldrh	r2, [r3, #2]
 490              	.LBB199:
 491              	.LBB196:
 112:Drivers/lvgl/src/draw/sw/../../misc/lv_area.h ****     dest->y1 = src->y1;
 492              		.loc 2 112 14 view .LVU152
 493 0190 BDF86C30 		ldrh	r3, [sp, #108]
 494 0194 ADF87430 		strh	r3, [sp, #116]	@ movhi
 113:Drivers/lvgl/src/draw/sw/../../misc/lv_area.h ****     dest->x2 = src->x2;
 495              		.loc 2 113 5 is_stmt 1 view .LVU153
 114:Drivers/lvgl/src/draw/sw/../../misc/lv_area.h ****     dest->y2 = src->y2;
 496              		.loc 2 114 5 view .LVU154
 497              	.LBE196:
 498              	.LBE199:
 143:Drivers/lvgl/src/draw/sw/lv_draw_sw_img.c ****             if(transform) {
 499              		.loc 1 143 13 is_stmt 0 view .LVU155
 500 0198 5242     		rsbs	r2, r2, #0
 501 019a 4942     		rsbs	r1, r1, #0
 502              	.LBB200:
 503              	.LBB197:
 114:Drivers/lvgl/src/draw/sw/../../misc/lv_area.h ****     dest->y2 = src->y2;
 504              		.loc 2 114 14 view .LVU156
 505 019c BDF87030 		ldrh	r3, [sp, #112]
 506 01a0 ADF87830 		strh	r3, [sp, #120]	@ movhi
 115:Drivers/lvgl/src/draw/sw/../../misc/lv_area.h **** }
 507              		.loc 2 115 5 is_stmt 1 view .LVU157
 508              	.LVL35:
 115:Drivers/lvgl/src/draw/sw/../../misc/lv_area.h **** }
 509              		.loc 2 115 5 is_stmt 0 view .LVU158
 510              	.LBE197:
 511              	.LBE200:
ARM GAS  /var/folders/0z/tsy30v1j4xl4_7kw94k978ww0000gn/T//ccRgGdZF.s 			page 19


 143:Drivers/lvgl/src/draw/sw/lv_draw_sw_img.c ****             if(transform) {
 512              		.loc 1 143 13 is_stmt 1 view .LVU159
 513 01a4 12B2     		sxth	r2, r2
 514 01a6 09B2     		sxth	r1, r1
 515 01a8 1DA8     		add	r0, sp, #116
 516 01aa FFF7FEFF 		bl	lv_area_move
 517              	.LVL36:
 144:Drivers/lvgl/src/draw/sw/lv_draw_sw_img.c ****                 lv_draw_transform(draw_ctx, &transform_area, src_buf, src_w, src_h, src_w,
 518              		.loc 1 144 13 view .LVU160
 144:Drivers/lvgl/src/draw/sw/lv_draw_sw_img.c ****                 lv_draw_transform(draw_ctx, &transform_area, src_buf, src_w, src_h, src_w,
 519              		.loc 1 144 15 is_stmt 0 view .LVU161
 520 01ae 0F9B     		ldr	r3, [sp, #60]
 521 01b0 B3F1807F 		cmp	r3, #16777216
 522 01b4 B4D1     		bne	.L66
 149:Drivers/lvgl/src/draw/sw/lv_draw_sw_img.c ****             }
 523              		.loc 1 149 17 is_stmt 1 view .LVU162
 524              	.LVL37:
 525              	.LBB201:
 526              	.LBI138:
 204:Drivers/lvgl/src/draw/sw/lv_draw_sw_img.c ****                        lv_coord_t src_stride, const lv_draw_img_dsc_t * draw_dsc, lv_img_cf_t cf, l
 527              		.loc 1 204 13 view .LVU163
 528              	.LBB191:
 207:Drivers/lvgl/src/draw/sw/lv_draw_sw_img.c ****     LV_UNUSED(src_h);
 529              		.loc 1 207 5 view .LVU164
 208:Drivers/lvgl/src/draw/sw/lv_draw_sw_img.c ****     LV_UNUSED(src_w);
 530              		.loc 1 208 5 view .LVU165
 209:Drivers/lvgl/src/draw/sw/lv_draw_sw_img.c **** 
 531              		.loc 1 209 5 view .LVU166
 211:Drivers/lvgl/src/draw/sw/lv_draw_sw_img.c ****     lv_coord_t y;
 532              		.loc 1 211 5 view .LVU167
 212:Drivers/lvgl/src/draw/sw/lv_draw_sw_img.c ****     lv_coord_t x;
 533              		.loc 1 212 5 view .LVU168
 213:Drivers/lvgl/src/draw/sw/lv_draw_sw_img.c **** 
 534              		.loc 1 213 5 view .LVU169
 215:Drivers/lvgl/src/draw/sw/lv_draw_sw_img.c ****         uint32_t px_cnt = lv_area_get_size(dest_area);
 535              		.loc 1 215 5 view .LVU170
 536 01b6 0A9B     		ldr	r3, [sp, #40]
 537 01b8 043B     		subs	r3, r3, #4
 538 01ba 102B     		cmp	r3, #16
 539 01bc C2D8     		bhi	.L13
 540 01be 01A2     		adr	r2, .L15
 541 01c0 52F823F0 		ldr	pc, [r2, r3, lsl #2]
 542              		.p2align 2
 543              	.L15:
 544 01c4 09020000 		.word	.L16+1
 545 01c8 51040000 		.word	.L17+1
 546 01cc 09020000 		.word	.L16+1
 547 01d0 45010000 		.word	.L13+1
 548 01d4 45010000 		.word	.L13+1
 549 01d8 45010000 		.word	.L13+1
 550 01dc 45010000 		.word	.L13+1
 551 01e0 45010000 		.word	.L13+1
 552 01e4 45010000 		.word	.L13+1
 553 01e8 45010000 		.word	.L13+1
 554 01ec 45010000 		.word	.L13+1
 555 01f0 45010000 		.word	.L13+1
 556 01f4 45010000 		.word	.L13+1
ARM GAS  /var/folders/0z/tsy30v1j4xl4_7kw94k978ww0000gn/T//ccRgGdZF.s 			page 20


 557 01f8 45010000 		.word	.L13+1
 558 01fc 45010000 		.word	.L13+1
 559 0200 45010000 		.word	.L13+1
 560 0204 AF030000 		.word	.L14+1
 561              		.p2align 1
 562              	.L16:
 563              	.LBB157:
 216:Drivers/lvgl/src/draw/sw/lv_draw_sw_img.c ****         lv_memset_ff(abuf, px_cnt);
 564              		.loc 1 216 9 view .LVU171
 216:Drivers/lvgl/src/draw/sw/lv_draw_sw_img.c ****         lv_memset_ff(abuf, px_cnt);
 565              		.loc 1 216 27 is_stmt 0 view .LVU172
 566 0208 1DA8     		add	r0, sp, #116
 567              	.LVL38:
 216:Drivers/lvgl/src/draw/sw/lv_draw_sw_img.c ****         lv_memset_ff(abuf, px_cnt);
 568              		.loc 1 216 27 view .LVU173
 569 020a FFF7FEFF 		bl	lv_area_get_size
 570              	.LVL39:
 217:Drivers/lvgl/src/draw/sw/lv_draw_sw_img.c **** 
 571              		.loc 1 217 9 view .LVU174
 572 020e 0146     		mov	r1, r0
 216:Drivers/lvgl/src/draw/sw/lv_draw_sw_img.c ****         lv_memset_ff(abuf, px_cnt);
 573              		.loc 1 216 27 view .LVU175
 574 0210 0646     		mov	r6, r0
 575              	.LVL40:
 217:Drivers/lvgl/src/draw/sw/lv_draw_sw_img.c **** 
 576              		.loc 1 217 9 is_stmt 1 view .LVU176
 577 0212 0998     		ldr	r0, [sp, #36]
 578              	.LVL41:
 217:Drivers/lvgl/src/draw/sw/lv_draw_sw_img.c **** 
 579              		.loc 1 217 9 is_stmt 0 view .LVU177
 580 0214 FFF7FEFF 		bl	lv_memset_ff
 581              	.LVL42:
 219:Drivers/lvgl/src/draw/sw/lv_draw_sw_img.c ****         uint32_t dest_w = lv_area_get_width(dest_area);
 582              		.loc 1 219 9 is_stmt 1 view .LVU178
 583              	.LBB158:
 584              	.LBB159:
 125:Drivers/lvgl/src/draw/sw/../../misc/lv_area.h **** }
 585              		.loc 2 125 49 is_stmt 0 view .LVU179
 586 0218 BDF87880 		ldrh	r8, [sp, #120]
 587              	.LBE159:
 588              	.LBE158:
 219:Drivers/lvgl/src/draw/sw/lv_draw_sw_img.c ****         uint32_t dest_w = lv_area_get_width(dest_area);
 589              		.loc 1 219 82 view .LVU180
 590 021c BDF97430 		ldrsh	r3, [sp, #116]
 219:Drivers/lvgl/src/draw/sw/lv_draw_sw_img.c ****         uint32_t dest_w = lv_area_get_width(dest_area);
 591              		.loc 1 219 44 view .LVU181
 592 0220 BDF97640 		ldrsh	r4, [sp, #118]
 219:Drivers/lvgl/src/draw/sw/lv_draw_sw_img.c ****         uint32_t dest_w = lv_area_get_width(dest_area);
 593              		.loc 1 219 71 view .LVU182
 594 0224 0D9A     		ldr	r2, [sp, #52]
 595              	.LBB162:
 596              	.LBB160:
 125:Drivers/lvgl/src/draw/sw/../../misc/lv_area.h **** }
 597              		.loc 2 125 49 view .LVU183
 598 0226 08F10108 		add	r8, r8, #1
 599 022a A8EB0308 		sub	r8, r8, r3
 600              	.LBE160:
ARM GAS  /var/folders/0z/tsy30v1j4xl4_7kw94k978ww0000gn/T//ccRgGdZF.s 			page 21


 601              	.LBE162:
 219:Drivers/lvgl/src/draw/sw/lv_draw_sw_img.c ****         uint32_t dest_w = lv_area_get_width(dest_area);
 602              		.loc 1 219 71 view .LVU184
 603 022e 02FB0433 		mla	r3, r2, r4, r3
 219:Drivers/lvgl/src/draw/sw/lv_draw_sw_img.c ****         uint32_t dest_w = lv_area_get_width(dest_area);
 604              		.loc 1 219 18 view .LVU185
 605 0232 18EE102A 		vmov	r2, s16	@ int
 606 0236 02EB4305 		add	r5, r2, r3, lsl #1
 607              	.LVL43:
 220:Drivers/lvgl/src/draw/sw/lv_draw_sw_img.c ****         uint32_t dest_w_byte = dest_w * sizeof(lv_color_t);
 608              		.loc 1 220 9 is_stmt 1 view .LVU186
 609              	.LBB163:
 610              	.LBI158:
 123:Drivers/lvgl/src/draw/sw/../../misc/lv_area.h **** {
 611              		.loc 2 123 26 view .LVU187
 612              	.LBB161:
 125:Drivers/lvgl/src/draw/sw/../../misc/lv_area.h **** }
 613              		.loc 2 125 5 view .LVU188
 125:Drivers/lvgl/src/draw/sw/../../misc/lv_area.h **** }
 614              		.loc 2 125 5 is_stmt 0 view .LVU189
 615              	.LBE161:
 616              	.LBE163:
 221:Drivers/lvgl/src/draw/sw/lv_draw_sw_img.c **** 
 617              		.loc 1 221 9 is_stmt 1 view .LVU190
 225:Drivers/lvgl/src/draw/sw/lv_draw_sw_img.c ****             lv_memcpy(cbuf_tmp, src_tmp8, dest_w_byte);
 618              		.loc 1 225 34 is_stmt 0 view .LVU191
 619 023a BDF97A30 		ldrsh	r3, [sp, #122]
 221:Drivers/lvgl/src/draw/sw/lv_draw_sw_img.c **** 
 620              		.loc 1 221 18 view .LVU192
 621 023e 0FFA88F8 		sxth	r8, r8
 225:Drivers/lvgl/src/draw/sw/lv_draw_sw_img.c ****             lv_memcpy(cbuf_tmp, src_tmp8, dest_w_byte);
 622              		.loc 1 225 34 view .LVU193
 623 0242 A342     		cmp	r3, r4
 221:Drivers/lvgl/src/draw/sw/lv_draw_sw_img.c **** 
 624              		.loc 1 221 18 view .LVU194
 625 0244 4FEA4808 		lsl	r8, r8, #1
 626              	.LVL44:
 223:Drivers/lvgl/src/draw/sw/lv_draw_sw_img.c ****         lv_color_t * cbuf_tmp = cbuf;
 627              		.loc 1 223 9 is_stmt 1 view .LVU195
 224:Drivers/lvgl/src/draw/sw/lv_draw_sw_img.c ****         for(y = dest_area->y1; y <= dest_area->y2; y++) {
 628              		.loc 1 224 9 view .LVU196
 225:Drivers/lvgl/src/draw/sw/lv_draw_sw_img.c ****             lv_memcpy(cbuf_tmp, src_tmp8, dest_w_byte);
 629              		.loc 1 225 9 view .LVU197
 225:Drivers/lvgl/src/draw/sw/lv_draw_sw_img.c ****             lv_memcpy(cbuf_tmp, src_tmp8, dest_w_byte);
 630              		.loc 1 225 34 view .LVU198
 631 0248 14DB     		blt	.L22
 632              	.LVL45:
 224:Drivers/lvgl/src/draw/sw/lv_draw_sw_img.c ****         for(y = dest_area->y1; y <= dest_area->y2; y++) {
 633              		.loc 1 224 22 is_stmt 0 view .LVU199
 634 024a 08EE909A 		vmov	s17, r9	@ int
 635 024e 089F     		ldr	r7, [sp, #32]
 636 0250 C146     		mov	r9, r8
 637              	.LVL46:
 224:Drivers/lvgl/src/draw/sw/lv_draw_sw_img.c ****         for(y = dest_area->y1; y <= dest_area->y2; y++) {
 638              		.loc 1 224 22 view .LVU200
 639 0252 DDF84C80 		ldr	r8, [sp, #76]
 640              	.LVL47:
ARM GAS  /var/folders/0z/tsy30v1j4xl4_7kw94k978ww0000gn/T//ccRgGdZF.s 			page 22


 641              	.L21:
 226:Drivers/lvgl/src/draw/sw/lv_draw_sw_img.c ****             src_tmp8 += src_stride_byte;
 642              		.loc 1 226 13 is_stmt 1 view .LVU201
 643 0256 2946     		mov	r1, r5
 644 0258 3846     		mov	r0, r7
 645 025a 4A46     		mov	r2, r9
 646 025c FFF7FEFF 		bl	lv_memcpy
 647              	.LVL48:
 227:Drivers/lvgl/src/draw/sw/lv_draw_sw_img.c ****             cbuf_tmp += dest_w;
 648              		.loc 1 227 13 view .LVU202
 649 0260 0134     		adds	r4, r4, #1
 650              	.LVL49:
 225:Drivers/lvgl/src/draw/sw/lv_draw_sw_img.c ****             lv_memcpy(cbuf_tmp, src_tmp8, dest_w_byte);
 651              		.loc 1 225 34 is_stmt 0 view .LVU203
 652 0262 BDF97A30 		ldrsh	r3, [sp, #122]
 653 0266 24B2     		sxth	r4, r4
 654 0268 A342     		cmp	r3, r4
 227:Drivers/lvgl/src/draw/sw/lv_draw_sw_img.c ****             cbuf_tmp += dest_w;
 655              		.loc 1 227 22 view .LVU204
 656 026a 4544     		add	r5, r5, r8
 657              	.LVL50:
 228:Drivers/lvgl/src/draw/sw/lv_draw_sw_img.c ****         }
 658              		.loc 1 228 13 is_stmt 1 view .LVU205
 228:Drivers/lvgl/src/draw/sw/lv_draw_sw_img.c ****         }
 659              		.loc 1 228 22 is_stmt 0 view .LVU206
 660 026c 4F44     		add	r7, r7, r9
 661              	.LVL51:
 225:Drivers/lvgl/src/draw/sw/lv_draw_sw_img.c ****             lv_memcpy(cbuf_tmp, src_tmp8, dest_w_byte);
 662              		.loc 1 225 53 is_stmt 1 view .LVU207
 225:Drivers/lvgl/src/draw/sw/lv_draw_sw_img.c ****             lv_memcpy(cbuf_tmp, src_tmp8, dest_w_byte);
 663              		.loc 1 225 34 view .LVU208
 664 026e F2DA     		bge	.L21
 665 0270 18EE909A 		vmov	r9, s17	@ int
 666              	.LVL52:
 667              	.L22:
 232:Drivers/lvgl/src/draw/sw/lv_draw_sw_img.c ****             uint32_t i;
 668              		.loc 1 232 9 view .LVU209
 232:Drivers/lvgl/src/draw/sw/lv_draw_sw_img.c ****             uint32_t i;
 669              		.loc 1 232 11 is_stmt 0 view .LVU210
 670 0274 0A9B     		ldr	r3, [sp, #40]
 671 0276 062B     		cmp	r3, #6
 672 0278 7FF464AF 		bne	.L13
 673              	.LVL53:
 674              	.LBB164:
 245:Drivers/lvgl/src/draw/sw/lv_draw_sw_img.c ****                 if(chk_v == cbuf_uint[i]) abuf[i] = 0x00;
 675              		.loc 1 245 26 is_stmt 1 view .LVU211
 676 027c 002E     		cmp	r6, #0
 677 027e 3FF461AF 		beq	.L13
 678 0282 089B     		ldr	r3, [sp, #32]
 679 0284 099A     		ldr	r2, [sp, #36]
 680 0286 023B     		subs	r3, r3, #2
 681 0288 03EB4606 		add	r6, r3, r6, lsl #1
 682              	.LVL54:
 246:Drivers/lvgl/src/draw/sw/lv_draw_sw_img.c ****             }
 683              		.loc 1 246 19 is_stmt 0 view .LVU212
 684 028c 4EF20700 		movw	r0, #57351
 685              	.LVL55:
ARM GAS  /var/folders/0z/tsy30v1j4xl4_7kw94k978ww0000gn/T//ccRgGdZF.s 			page 23


 686              	.L24:
 246:Drivers/lvgl/src/draw/sw/lv_draw_sw_img.c ****             }
 687              		.loc 1 246 17 is_stmt 1 view .LVU213
 245:Drivers/lvgl/src/draw/sw/lv_draw_sw_img.c ****                 if(chk_v == cbuf_uint[i]) abuf[i] = 0x00;
 688              		.loc 1 245 37 view .LVU214
 245:Drivers/lvgl/src/draw/sw/lv_draw_sw_img.c ****                 if(chk_v == cbuf_uint[i]) abuf[i] = 0x00;
 689              		.loc 1 245 26 view .LVU215
 246:Drivers/lvgl/src/draw/sw/lv_draw_sw_img.c ****             }
 690              		.loc 1 246 19 is_stmt 0 view .LVU216
 691 0290 33F8021F 		ldrh	r1, [r3, #2]!
 692 0294 8142     		cmp	r1, r0
 246:Drivers/lvgl/src/draw/sw/lv_draw_sw_img.c ****             }
 693              		.loc 1 246 43 is_stmt 1 view .LVU217
 246:Drivers/lvgl/src/draw/sw/lv_draw_sw_img.c ****             }
 694              		.loc 1 246 51 is_stmt 0 view .LVU218
 695 0296 04BF     		itt	eq
 696 0298 0021     		moveq	r1, #0
 697 029a 1170     		strbeq	r1, [r2]
 245:Drivers/lvgl/src/draw/sw/lv_draw_sw_img.c ****                 if(chk_v == cbuf_uint[i]) abuf[i] = 0x00;
 698              		.loc 1 245 26 view .LVU219
 699 029c B342     		cmp	r3, r6
 700 029e 02F10102 		add	r2, r2, #1
 701 02a2 F5D1     		bne	.L24
 702              	.LVL56:
 245:Drivers/lvgl/src/draw/sw/lv_draw_sw_img.c ****                 if(chk_v == cbuf_uint[i]) abuf[i] = 0x00;
 703              		.loc 1 245 26 view .LVU220
 704              	.LBE164:
 705              	.LBE157:
 706              	.LBE191:
 707              	.LBE201:
 153:Drivers/lvgl/src/draw/sw/lv_draw_sw_img.c ****                 uint16_t premult_v[3];
 708              		.loc 1 153 13 is_stmt 1 view .LVU221
 153:Drivers/lvgl/src/draw/sw/lv_draw_sw_img.c ****                 uint16_t premult_v[3];
 709              		.loc 1 153 24 is_stmt 0 view .LVU222
 710 02a4 079B     		ldr	r3, [sp, #28]
 711 02a6 997A     		ldrb	r1, [r3, #10]	@ zero_extendqisi2
 153:Drivers/lvgl/src/draw/sw/lv_draw_sw_img.c ****                 uint16_t premult_v[3];
 712              		.loc 1 153 15 view .LVU223
 713 02a8 0229     		cmp	r1, #2
 714 02aa 7FF650AF 		bls	.L30
 715              	.L65:
 716              	.LBB202:
 154:Drivers/lvgl/src/draw/sw/lv_draw_sw_img.c ****                 lv_opa_t recolor_opa = draw_dsc->recolor_opa;
 717              		.loc 1 154 17 is_stmt 1 view .LVU224
 155:Drivers/lvgl/src/draw/sw/lv_draw_sw_img.c ****                 lv_color_t recolor = draw_dsc->recolor;
 718              		.loc 1 155 17 view .LVU225
 719              	.LVL57:
 156:Drivers/lvgl/src/draw/sw/lv_draw_sw_img.c ****                 lv_color_premult(recolor, recolor_opa, premult_v);
 720              		.loc 1 156 17 view .LVU226
 157:Drivers/lvgl/src/draw/sw/lv_draw_sw_img.c ****                 recolor_opa = 255 - recolor_opa;
 721              		.loc 1 157 17 view .LVU227
 722              	.LBB203:
 723              	.LBI203:
 724              		.file 3 "Drivers/lvgl/src/draw/sw/../../misc/lv_color.h"
   1:Drivers/lvgl/src/draw/sw/../../misc/lv_color.h **** /**
   2:Drivers/lvgl/src/draw/sw/../../misc/lv_color.h ****  * @file lv_color.h
   3:Drivers/lvgl/src/draw/sw/../../misc/lv_color.h ****  *
ARM GAS  /var/folders/0z/tsy30v1j4xl4_7kw94k978ww0000gn/T//ccRgGdZF.s 			page 24


   4:Drivers/lvgl/src/draw/sw/../../misc/lv_color.h ****  */
   5:Drivers/lvgl/src/draw/sw/../../misc/lv_color.h **** 
   6:Drivers/lvgl/src/draw/sw/../../misc/lv_color.h **** #ifndef LV_COLOR_H
   7:Drivers/lvgl/src/draw/sw/../../misc/lv_color.h **** #define LV_COLOR_H
   8:Drivers/lvgl/src/draw/sw/../../misc/lv_color.h **** 
   9:Drivers/lvgl/src/draw/sw/../../misc/lv_color.h **** #ifdef __cplusplus
  10:Drivers/lvgl/src/draw/sw/../../misc/lv_color.h **** extern "C" {
  11:Drivers/lvgl/src/draw/sw/../../misc/lv_color.h **** #endif
  12:Drivers/lvgl/src/draw/sw/../../misc/lv_color.h **** 
  13:Drivers/lvgl/src/draw/sw/../../misc/lv_color.h **** /*********************
  14:Drivers/lvgl/src/draw/sw/../../misc/lv_color.h ****  *      INCLUDES
  15:Drivers/lvgl/src/draw/sw/../../misc/lv_color.h ****  *********************/
  16:Drivers/lvgl/src/draw/sw/../../misc/lv_color.h **** #include "../lv_conf_internal.h"
  17:Drivers/lvgl/src/draw/sw/../../misc/lv_color.h **** #include "lv_assert.h"
  18:Drivers/lvgl/src/draw/sw/../../misc/lv_color.h **** #include "lv_math.h"
  19:Drivers/lvgl/src/draw/sw/../../misc/lv_color.h **** #include "lv_types.h"
  20:Drivers/lvgl/src/draw/sw/../../misc/lv_color.h **** 
  21:Drivers/lvgl/src/draw/sw/../../misc/lv_color.h **** /*Error checking*/
  22:Drivers/lvgl/src/draw/sw/../../misc/lv_color.h **** #if LV_COLOR_DEPTH == 24
  23:Drivers/lvgl/src/draw/sw/../../misc/lv_color.h **** #error "LV_COLOR_DEPTH 24 is deprecated. Use LV_COLOR_DEPTH 32 instead (lv_conf.h)"
  24:Drivers/lvgl/src/draw/sw/../../misc/lv_color.h **** #endif
  25:Drivers/lvgl/src/draw/sw/../../misc/lv_color.h **** 
  26:Drivers/lvgl/src/draw/sw/../../misc/lv_color.h **** #if LV_COLOR_DEPTH != 16 && LV_COLOR_16_SWAP != 0
  27:Drivers/lvgl/src/draw/sw/../../misc/lv_color.h **** #error "LV_COLOR_16_SWAP requires LV_COLOR_DEPTH == 16. Set it in lv_conf.h"
  28:Drivers/lvgl/src/draw/sw/../../misc/lv_color.h **** #endif
  29:Drivers/lvgl/src/draw/sw/../../misc/lv_color.h **** 
  30:Drivers/lvgl/src/draw/sw/../../misc/lv_color.h **** #include <stdint.h>
  31:Drivers/lvgl/src/draw/sw/../../misc/lv_color.h **** 
  32:Drivers/lvgl/src/draw/sw/../../misc/lv_color.h **** /*********************
  33:Drivers/lvgl/src/draw/sw/../../misc/lv_color.h ****  *      DEFINES
  34:Drivers/lvgl/src/draw/sw/../../misc/lv_color.h ****  *********************/
  35:Drivers/lvgl/src/draw/sw/../../misc/lv_color.h **** LV_EXPORT_CONST_INT(LV_COLOR_DEPTH);
  36:Drivers/lvgl/src/draw/sw/../../misc/lv_color.h **** LV_EXPORT_CONST_INT(LV_COLOR_16_SWAP);
  37:Drivers/lvgl/src/draw/sw/../../misc/lv_color.h **** 
  38:Drivers/lvgl/src/draw/sw/../../misc/lv_color.h **** /**
  39:Drivers/lvgl/src/draw/sw/../../misc/lv_color.h ****  * Opacity percentages.
  40:Drivers/lvgl/src/draw/sw/../../misc/lv_color.h ****  */
  41:Drivers/lvgl/src/draw/sw/../../misc/lv_color.h **** enum {
  42:Drivers/lvgl/src/draw/sw/../../misc/lv_color.h ****     LV_OPA_TRANSP = 0,
  43:Drivers/lvgl/src/draw/sw/../../misc/lv_color.h ****     LV_OPA_0      = 0,
  44:Drivers/lvgl/src/draw/sw/../../misc/lv_color.h ****     LV_OPA_10     = 25,
  45:Drivers/lvgl/src/draw/sw/../../misc/lv_color.h ****     LV_OPA_20     = 51,
  46:Drivers/lvgl/src/draw/sw/../../misc/lv_color.h ****     LV_OPA_30     = 76,
  47:Drivers/lvgl/src/draw/sw/../../misc/lv_color.h ****     LV_OPA_40     = 102,
  48:Drivers/lvgl/src/draw/sw/../../misc/lv_color.h ****     LV_OPA_50     = 127,
  49:Drivers/lvgl/src/draw/sw/../../misc/lv_color.h ****     LV_OPA_60     = 153,
  50:Drivers/lvgl/src/draw/sw/../../misc/lv_color.h ****     LV_OPA_70     = 178,
  51:Drivers/lvgl/src/draw/sw/../../misc/lv_color.h ****     LV_OPA_80     = 204,
  52:Drivers/lvgl/src/draw/sw/../../misc/lv_color.h ****     LV_OPA_90     = 229,
  53:Drivers/lvgl/src/draw/sw/../../misc/lv_color.h ****     LV_OPA_100    = 255,
  54:Drivers/lvgl/src/draw/sw/../../misc/lv_color.h ****     LV_OPA_COVER  = 255,
  55:Drivers/lvgl/src/draw/sw/../../misc/lv_color.h **** };
  56:Drivers/lvgl/src/draw/sw/../../misc/lv_color.h **** 
  57:Drivers/lvgl/src/draw/sw/../../misc/lv_color.h **** #define LV_OPA_MIN 2    /*Opacities below this will be transparent*/
  58:Drivers/lvgl/src/draw/sw/../../misc/lv_color.h **** #define LV_OPA_MAX 253  /*Opacities above this will fully cover*/
  59:Drivers/lvgl/src/draw/sw/../../misc/lv_color.h **** 
  60:Drivers/lvgl/src/draw/sw/../../misc/lv_color.h **** #if LV_COLOR_DEPTH == 1
ARM GAS  /var/folders/0z/tsy30v1j4xl4_7kw94k978ww0000gn/T//ccRgGdZF.s 			page 25


  61:Drivers/lvgl/src/draw/sw/../../misc/lv_color.h **** #define LV_COLOR_SIZE 8
  62:Drivers/lvgl/src/draw/sw/../../misc/lv_color.h **** #elif LV_COLOR_DEPTH == 8
  63:Drivers/lvgl/src/draw/sw/../../misc/lv_color.h **** #define LV_COLOR_SIZE 8
  64:Drivers/lvgl/src/draw/sw/../../misc/lv_color.h **** #elif LV_COLOR_DEPTH == 16
  65:Drivers/lvgl/src/draw/sw/../../misc/lv_color.h **** #define LV_COLOR_SIZE 16
  66:Drivers/lvgl/src/draw/sw/../../misc/lv_color.h **** #elif LV_COLOR_DEPTH == 32
  67:Drivers/lvgl/src/draw/sw/../../misc/lv_color.h **** #define LV_COLOR_SIZE 32
  68:Drivers/lvgl/src/draw/sw/../../misc/lv_color.h **** #else
  69:Drivers/lvgl/src/draw/sw/../../misc/lv_color.h **** #error "Invalid LV_COLOR_DEPTH in lv_conf.h! Set it to 1, 8, 16 or 32!"
  70:Drivers/lvgl/src/draw/sw/../../misc/lv_color.h **** #endif
  71:Drivers/lvgl/src/draw/sw/../../misc/lv_color.h **** 
  72:Drivers/lvgl/src/draw/sw/../../misc/lv_color.h **** #if defined(__cplusplus) && !defined(_LV_COLOR_HAS_MODERN_CPP)
  73:Drivers/lvgl/src/draw/sw/../../misc/lv_color.h **** /**
  74:Drivers/lvgl/src/draw/sw/../../misc/lv_color.h **** * MSVC compiler's definition of the __cplusplus indicating 199711L regardless to C++ standard versi
  75:Drivers/lvgl/src/draw/sw/../../misc/lv_color.h **** * see https://devblogs.microsoft.com/cppblog/msvc-now-correctly-reports-cplusplus
  76:Drivers/lvgl/src/draw/sw/../../misc/lv_color.h **** * so we use _MSC_VER macro instead of __cplusplus
  77:Drivers/lvgl/src/draw/sw/../../misc/lv_color.h **** */
  78:Drivers/lvgl/src/draw/sw/../../misc/lv_color.h **** #ifdef _MSC_VER
  79:Drivers/lvgl/src/draw/sw/../../misc/lv_color.h **** #if _MSC_VER >= 1900 /*Visual Studio 2015*/
  80:Drivers/lvgl/src/draw/sw/../../misc/lv_color.h **** #define _LV_COLOR_HAS_MODERN_CPP 1
  81:Drivers/lvgl/src/draw/sw/../../misc/lv_color.h **** #endif
  82:Drivers/lvgl/src/draw/sw/../../misc/lv_color.h **** #else
  83:Drivers/lvgl/src/draw/sw/../../misc/lv_color.h **** #if __cplusplus >= 201103L
  84:Drivers/lvgl/src/draw/sw/../../misc/lv_color.h **** #define _LV_COLOR_HAS_MODERN_CPP 1
  85:Drivers/lvgl/src/draw/sw/../../misc/lv_color.h **** #endif
  86:Drivers/lvgl/src/draw/sw/../../misc/lv_color.h **** #endif
  87:Drivers/lvgl/src/draw/sw/../../misc/lv_color.h **** #endif /*__cplusplus*/
  88:Drivers/lvgl/src/draw/sw/../../misc/lv_color.h **** 
  89:Drivers/lvgl/src/draw/sw/../../misc/lv_color.h **** #ifndef _LV_COLOR_HAS_MODERN_CPP
  90:Drivers/lvgl/src/draw/sw/../../misc/lv_color.h **** #define _LV_COLOR_HAS_MODERN_CPP 0
  91:Drivers/lvgl/src/draw/sw/../../misc/lv_color.h **** #endif
  92:Drivers/lvgl/src/draw/sw/../../misc/lv_color.h **** 
  93:Drivers/lvgl/src/draw/sw/../../misc/lv_color.h **** #if _LV_COLOR_HAS_MODERN_CPP
  94:Drivers/lvgl/src/draw/sw/../../misc/lv_color.h **** /*Fix msvc compiler error C4576 inside C++ code*/
  95:Drivers/lvgl/src/draw/sw/../../misc/lv_color.h **** #define _LV_COLOR_MAKE_TYPE_HELPER lv_color_t
  96:Drivers/lvgl/src/draw/sw/../../misc/lv_color.h **** #else
  97:Drivers/lvgl/src/draw/sw/../../misc/lv_color.h **** #define _LV_COLOR_MAKE_TYPE_HELPER (lv_color_t)
  98:Drivers/lvgl/src/draw/sw/../../misc/lv_color.h **** #endif
  99:Drivers/lvgl/src/draw/sw/../../misc/lv_color.h **** 
 100:Drivers/lvgl/src/draw/sw/../../misc/lv_color.h **** /*---------------------------------------
 101:Drivers/lvgl/src/draw/sw/../../misc/lv_color.h ****  * Macros for all existing color depths
 102:Drivers/lvgl/src/draw/sw/../../misc/lv_color.h ****  * to set/get values of the color channels
 103:Drivers/lvgl/src/draw/sw/../../misc/lv_color.h ****  *------------------------------------------*/
 104:Drivers/lvgl/src/draw/sw/../../misc/lv_color.h **** # define LV_COLOR_SET_R1(c, v) (c).ch.red = (uint8_t)((v) & 0x1)
 105:Drivers/lvgl/src/draw/sw/../../misc/lv_color.h **** # define LV_COLOR_SET_G1(c, v) (c).ch.green = (uint8_t)((v) & 0x1)
 106:Drivers/lvgl/src/draw/sw/../../misc/lv_color.h **** # define LV_COLOR_SET_B1(c, v) (c).ch.blue = (uint8_t)((v) & 0x1)
 107:Drivers/lvgl/src/draw/sw/../../misc/lv_color.h **** # define LV_COLOR_SET_A1(c, v) do {} while(0)
 108:Drivers/lvgl/src/draw/sw/../../misc/lv_color.h **** 
 109:Drivers/lvgl/src/draw/sw/../../misc/lv_color.h **** # define LV_COLOR_GET_R1(c) (c).ch.red
 110:Drivers/lvgl/src/draw/sw/../../misc/lv_color.h **** # define LV_COLOR_GET_G1(c) (c).ch.green
 111:Drivers/lvgl/src/draw/sw/../../misc/lv_color.h **** # define LV_COLOR_GET_B1(c) (c).ch.blue
 112:Drivers/lvgl/src/draw/sw/../../misc/lv_color.h **** # define LV_COLOR_GET_A1(c) 0xFF
 113:Drivers/lvgl/src/draw/sw/../../misc/lv_color.h **** 
 114:Drivers/lvgl/src/draw/sw/../../misc/lv_color.h **** # define _LV_COLOR_ZERO_INITIALIZER1 {0x00}
 115:Drivers/lvgl/src/draw/sw/../../misc/lv_color.h **** # define LV_COLOR_MAKE1(r8, g8, b8)  {(uint8_t)((b8 >> 7) | (g8 >> 7) | (r8 >> 7))}
 116:Drivers/lvgl/src/draw/sw/../../misc/lv_color.h **** 
 117:Drivers/lvgl/src/draw/sw/../../misc/lv_color.h **** # define LV_COLOR_SET_R8(c, v) (c).ch.red = (uint8_t)((v) & 0x7U)
ARM GAS  /var/folders/0z/tsy30v1j4xl4_7kw94k978ww0000gn/T//ccRgGdZF.s 			page 26


 118:Drivers/lvgl/src/draw/sw/../../misc/lv_color.h **** # define LV_COLOR_SET_G8(c, v) (c).ch.green = (uint8_t)((v) & 0x7U)
 119:Drivers/lvgl/src/draw/sw/../../misc/lv_color.h **** # define LV_COLOR_SET_B8(c, v) (c).ch.blue = (uint8_t)((v) & 0x3U)
 120:Drivers/lvgl/src/draw/sw/../../misc/lv_color.h **** # define LV_COLOR_SET_A8(c, v) do {} while(0)
 121:Drivers/lvgl/src/draw/sw/../../misc/lv_color.h **** 
 122:Drivers/lvgl/src/draw/sw/../../misc/lv_color.h **** # define LV_COLOR_GET_R8(c) (c).ch.red
 123:Drivers/lvgl/src/draw/sw/../../misc/lv_color.h **** # define LV_COLOR_GET_G8(c) (c).ch.green
 124:Drivers/lvgl/src/draw/sw/../../misc/lv_color.h **** # define LV_COLOR_GET_B8(c) (c).ch.blue
 125:Drivers/lvgl/src/draw/sw/../../misc/lv_color.h **** # define LV_COLOR_GET_A8(c) 0xFF
 126:Drivers/lvgl/src/draw/sw/../../misc/lv_color.h **** 
 127:Drivers/lvgl/src/draw/sw/../../misc/lv_color.h **** # define _LV_COLOR_ZERO_INITIALIZER8 {{0x00, 0x00, 0x00}}
 128:Drivers/lvgl/src/draw/sw/../../misc/lv_color.h **** # define LV_COLOR_MAKE8(r8, g8, b8) {{(uint8_t)((b8 >> 6) & 0x3U), (uint8_t)((g8 >> 5) & 0x7U), (ui
 129:Drivers/lvgl/src/draw/sw/../../misc/lv_color.h **** 
 130:Drivers/lvgl/src/draw/sw/../../misc/lv_color.h **** # define LV_COLOR_SET_R16(c, v) (c).ch.red = (uint8_t)((v) & 0x1FU)
 131:Drivers/lvgl/src/draw/sw/../../misc/lv_color.h **** #if LV_COLOR_16_SWAP == 0
 132:Drivers/lvgl/src/draw/sw/../../misc/lv_color.h **** # define LV_COLOR_SET_G16(c, v) (c).ch.green = (uint8_t)((v) & 0x3FU)
 133:Drivers/lvgl/src/draw/sw/../../misc/lv_color.h **** #else
 134:Drivers/lvgl/src/draw/sw/../../misc/lv_color.h **** # define LV_COLOR_SET_G16(c, v) {(c).ch.green_h = (uint8_t)(((v) >> 3) & 0x7); (c).ch.green_l = (ui
 135:Drivers/lvgl/src/draw/sw/../../misc/lv_color.h **** #endif
 136:Drivers/lvgl/src/draw/sw/../../misc/lv_color.h **** # define LV_COLOR_SET_B16(c, v) (c).ch.blue = (uint8_t)((v) & 0x1FU)
 137:Drivers/lvgl/src/draw/sw/../../misc/lv_color.h **** # define LV_COLOR_SET_A16(c, v) do {} while(0)
 138:Drivers/lvgl/src/draw/sw/../../misc/lv_color.h **** 
 139:Drivers/lvgl/src/draw/sw/../../misc/lv_color.h **** # define LV_COLOR_GET_R16(c) (c).ch.red
 140:Drivers/lvgl/src/draw/sw/../../misc/lv_color.h **** #if LV_COLOR_16_SWAP == 0
 141:Drivers/lvgl/src/draw/sw/../../misc/lv_color.h **** # define LV_COLOR_GET_G16(c) (c).ch.green
 142:Drivers/lvgl/src/draw/sw/../../misc/lv_color.h **** #else
 143:Drivers/lvgl/src/draw/sw/../../misc/lv_color.h **** # define LV_COLOR_GET_G16(c) (((c).ch.green_h << 3) + (c).ch.green_l)
 144:Drivers/lvgl/src/draw/sw/../../misc/lv_color.h **** #endif
 145:Drivers/lvgl/src/draw/sw/../../misc/lv_color.h **** # define LV_COLOR_GET_B16(c) (c).ch.blue
 146:Drivers/lvgl/src/draw/sw/../../misc/lv_color.h **** # define LV_COLOR_GET_A16(c) 0xFF
 147:Drivers/lvgl/src/draw/sw/../../misc/lv_color.h **** 
 148:Drivers/lvgl/src/draw/sw/../../misc/lv_color.h **** #if LV_COLOR_16_SWAP == 0
 149:Drivers/lvgl/src/draw/sw/../../misc/lv_color.h **** # define _LV_COLOR_ZERO_INITIALIZER16  {{0x00, 0x00, 0x00}}
 150:Drivers/lvgl/src/draw/sw/../../misc/lv_color.h **** # define LV_COLOR_MAKE16(r8, g8, b8) {{(uint8_t)((b8 >> 3) & 0x1FU), (uint8_t)((g8 >> 2) & 0x3FU), 
 151:Drivers/lvgl/src/draw/sw/../../misc/lv_color.h **** #else
 152:Drivers/lvgl/src/draw/sw/../../misc/lv_color.h **** # define _LV_COLOR_ZERO_INITIALIZER16 {{0x00, 0x00, 0x00, 0x00}}
 153:Drivers/lvgl/src/draw/sw/../../misc/lv_color.h **** # define LV_COLOR_MAKE16(r8, g8, b8) {{(uint8_t)((g8 >> 5) & 0x7U), (uint8_t)((r8 >> 3) & 0x1FU), (
 154:Drivers/lvgl/src/draw/sw/../../misc/lv_color.h **** #endif
 155:Drivers/lvgl/src/draw/sw/../../misc/lv_color.h **** 
 156:Drivers/lvgl/src/draw/sw/../../misc/lv_color.h **** # define LV_COLOR_SET_R32(c, v) (c).ch.red = (uint8_t)((v) & 0xFF)
 157:Drivers/lvgl/src/draw/sw/../../misc/lv_color.h **** # define LV_COLOR_SET_G32(c, v) (c).ch.green = (uint8_t)((v) & 0xFF)
 158:Drivers/lvgl/src/draw/sw/../../misc/lv_color.h **** # define LV_COLOR_SET_B32(c, v) (c).ch.blue = (uint8_t)((v) & 0xFF)
 159:Drivers/lvgl/src/draw/sw/../../misc/lv_color.h **** # define LV_COLOR_SET_A32(c, v) (c).ch.alpha = (uint8_t)((v) & 0xFF)
 160:Drivers/lvgl/src/draw/sw/../../misc/lv_color.h **** 
 161:Drivers/lvgl/src/draw/sw/../../misc/lv_color.h **** # define LV_COLOR_GET_R32(c) (c).ch.red
 162:Drivers/lvgl/src/draw/sw/../../misc/lv_color.h **** # define LV_COLOR_GET_G32(c) (c).ch.green
 163:Drivers/lvgl/src/draw/sw/../../misc/lv_color.h **** # define LV_COLOR_GET_B32(c) (c).ch.blue
 164:Drivers/lvgl/src/draw/sw/../../misc/lv_color.h **** # define LV_COLOR_GET_A32(c) (c).ch.alpha
 165:Drivers/lvgl/src/draw/sw/../../misc/lv_color.h **** 
 166:Drivers/lvgl/src/draw/sw/../../misc/lv_color.h **** # define _LV_COLOR_ZERO_INITIALIZER32  {{0x00, 0x00, 0x00, 0x00}}
 167:Drivers/lvgl/src/draw/sw/../../misc/lv_color.h **** # define LV_COLOR_MAKE32(r8, g8, b8) {{b8, g8, r8, 0xff}} /*Fix 0xff alpha*/
 168:Drivers/lvgl/src/draw/sw/../../misc/lv_color.h **** 
 169:Drivers/lvgl/src/draw/sw/../../misc/lv_color.h **** /*---------------------------------------
 170:Drivers/lvgl/src/draw/sw/../../misc/lv_color.h ****  * Macros for the current color depth
 171:Drivers/lvgl/src/draw/sw/../../misc/lv_color.h ****  * to set/get values of the color channels
 172:Drivers/lvgl/src/draw/sw/../../misc/lv_color.h ****  *------------------------------------------*/
 173:Drivers/lvgl/src/draw/sw/../../misc/lv_color.h **** #define LV_COLOR_SET_R(c, v) LV_CONCAT(LV_COLOR_SET_R, LV_COLOR_DEPTH)(c, v)
 174:Drivers/lvgl/src/draw/sw/../../misc/lv_color.h **** #define LV_COLOR_SET_G(c, v) LV_CONCAT(LV_COLOR_SET_G, LV_COLOR_DEPTH)(c, v)
ARM GAS  /var/folders/0z/tsy30v1j4xl4_7kw94k978ww0000gn/T//ccRgGdZF.s 			page 27


 175:Drivers/lvgl/src/draw/sw/../../misc/lv_color.h **** #define LV_COLOR_SET_B(c, v) LV_CONCAT(LV_COLOR_SET_B, LV_COLOR_DEPTH)(c, v)
 176:Drivers/lvgl/src/draw/sw/../../misc/lv_color.h **** #define LV_COLOR_SET_A(c, v) LV_CONCAT(LV_COLOR_SET_A, LV_COLOR_DEPTH)(c, v)
 177:Drivers/lvgl/src/draw/sw/../../misc/lv_color.h **** 
 178:Drivers/lvgl/src/draw/sw/../../misc/lv_color.h **** #define LV_COLOR_GET_R(c) LV_CONCAT(LV_COLOR_GET_R, LV_COLOR_DEPTH)(c)
 179:Drivers/lvgl/src/draw/sw/../../misc/lv_color.h **** #define LV_COLOR_GET_G(c) LV_CONCAT(LV_COLOR_GET_G, LV_COLOR_DEPTH)(c)
 180:Drivers/lvgl/src/draw/sw/../../misc/lv_color.h **** #define LV_COLOR_GET_B(c) LV_CONCAT(LV_COLOR_GET_B, LV_COLOR_DEPTH)(c)
 181:Drivers/lvgl/src/draw/sw/../../misc/lv_color.h **** #define LV_COLOR_GET_A(c) LV_CONCAT(LV_COLOR_GET_A, LV_COLOR_DEPTH)(c)
 182:Drivers/lvgl/src/draw/sw/../../misc/lv_color.h **** 
 183:Drivers/lvgl/src/draw/sw/../../misc/lv_color.h **** #define _LV_COLOR_ZERO_INITIALIZER LV_CONCAT(_LV_COLOR_ZERO_INITIALIZER, LV_COLOR_DEPTH)
 184:Drivers/lvgl/src/draw/sw/../../misc/lv_color.h **** #define LV_COLOR_MAKE(r8, g8, b8) LV_CONCAT(LV_COLOR_MAKE, LV_COLOR_DEPTH)(r8, g8, b8)
 185:Drivers/lvgl/src/draw/sw/../../misc/lv_color.h **** 
 186:Drivers/lvgl/src/draw/sw/../../misc/lv_color.h **** /**********************
 187:Drivers/lvgl/src/draw/sw/../../misc/lv_color.h ****  *      TYPEDEFS
 188:Drivers/lvgl/src/draw/sw/../../misc/lv_color.h ****  **********************/
 189:Drivers/lvgl/src/draw/sw/../../misc/lv_color.h **** 
 190:Drivers/lvgl/src/draw/sw/../../misc/lv_color.h **** typedef union {
 191:Drivers/lvgl/src/draw/sw/../../misc/lv_color.h ****     uint8_t full; /*must be declared first to set all bits of byte via initializer list*/
 192:Drivers/lvgl/src/draw/sw/../../misc/lv_color.h ****     union {
 193:Drivers/lvgl/src/draw/sw/../../misc/lv_color.h ****         uint8_t blue : 1;
 194:Drivers/lvgl/src/draw/sw/../../misc/lv_color.h ****         uint8_t green : 1;
 195:Drivers/lvgl/src/draw/sw/../../misc/lv_color.h ****         uint8_t red : 1;
 196:Drivers/lvgl/src/draw/sw/../../misc/lv_color.h ****     } ch;
 197:Drivers/lvgl/src/draw/sw/../../misc/lv_color.h **** } lv_color1_t;
 198:Drivers/lvgl/src/draw/sw/../../misc/lv_color.h **** 
 199:Drivers/lvgl/src/draw/sw/../../misc/lv_color.h **** typedef union {
 200:Drivers/lvgl/src/draw/sw/../../misc/lv_color.h ****     struct {
 201:Drivers/lvgl/src/draw/sw/../../misc/lv_color.h ****         uint8_t blue : 2;
 202:Drivers/lvgl/src/draw/sw/../../misc/lv_color.h ****         uint8_t green : 3;
 203:Drivers/lvgl/src/draw/sw/../../misc/lv_color.h ****         uint8_t red : 3;
 204:Drivers/lvgl/src/draw/sw/../../misc/lv_color.h ****     } ch;
 205:Drivers/lvgl/src/draw/sw/../../misc/lv_color.h ****     uint8_t full;
 206:Drivers/lvgl/src/draw/sw/../../misc/lv_color.h **** } lv_color8_t;
 207:Drivers/lvgl/src/draw/sw/../../misc/lv_color.h **** 
 208:Drivers/lvgl/src/draw/sw/../../misc/lv_color.h **** typedef union {
 209:Drivers/lvgl/src/draw/sw/../../misc/lv_color.h ****     struct {
 210:Drivers/lvgl/src/draw/sw/../../misc/lv_color.h **** #if LV_COLOR_16_SWAP == 0
 211:Drivers/lvgl/src/draw/sw/../../misc/lv_color.h ****         uint16_t blue : 5;
 212:Drivers/lvgl/src/draw/sw/../../misc/lv_color.h ****         uint16_t green : 6;
 213:Drivers/lvgl/src/draw/sw/../../misc/lv_color.h ****         uint16_t red : 5;
 214:Drivers/lvgl/src/draw/sw/../../misc/lv_color.h **** #else
 215:Drivers/lvgl/src/draw/sw/../../misc/lv_color.h ****         uint16_t green_h : 3;
 216:Drivers/lvgl/src/draw/sw/../../misc/lv_color.h ****         uint16_t red : 5;
 217:Drivers/lvgl/src/draw/sw/../../misc/lv_color.h ****         uint16_t blue : 5;
 218:Drivers/lvgl/src/draw/sw/../../misc/lv_color.h ****         uint16_t green_l : 3;
 219:Drivers/lvgl/src/draw/sw/../../misc/lv_color.h **** #endif
 220:Drivers/lvgl/src/draw/sw/../../misc/lv_color.h ****     } ch;
 221:Drivers/lvgl/src/draw/sw/../../misc/lv_color.h ****     uint16_t full;
 222:Drivers/lvgl/src/draw/sw/../../misc/lv_color.h **** } lv_color16_t;
 223:Drivers/lvgl/src/draw/sw/../../misc/lv_color.h **** 
 224:Drivers/lvgl/src/draw/sw/../../misc/lv_color.h **** typedef union {
 225:Drivers/lvgl/src/draw/sw/../../misc/lv_color.h ****     struct {
 226:Drivers/lvgl/src/draw/sw/../../misc/lv_color.h ****         uint8_t blue;
 227:Drivers/lvgl/src/draw/sw/../../misc/lv_color.h ****         uint8_t green;
 228:Drivers/lvgl/src/draw/sw/../../misc/lv_color.h ****         uint8_t red;
 229:Drivers/lvgl/src/draw/sw/../../misc/lv_color.h ****         uint8_t alpha;
 230:Drivers/lvgl/src/draw/sw/../../misc/lv_color.h ****     } ch;
 231:Drivers/lvgl/src/draw/sw/../../misc/lv_color.h ****     uint32_t full;
ARM GAS  /var/folders/0z/tsy30v1j4xl4_7kw94k978ww0000gn/T//ccRgGdZF.s 			page 28


 232:Drivers/lvgl/src/draw/sw/../../misc/lv_color.h **** } lv_color32_t;
 233:Drivers/lvgl/src/draw/sw/../../misc/lv_color.h **** 
 234:Drivers/lvgl/src/draw/sw/../../misc/lv_color.h **** typedef LV_CONCAT3(uint, LV_COLOR_SIZE, _t) lv_color_int_t;
 235:Drivers/lvgl/src/draw/sw/../../misc/lv_color.h **** typedef LV_CONCAT3(lv_color, LV_COLOR_DEPTH, _t) lv_color_t;
 236:Drivers/lvgl/src/draw/sw/../../misc/lv_color.h **** 
 237:Drivers/lvgl/src/draw/sw/../../misc/lv_color.h **** typedef struct {
 238:Drivers/lvgl/src/draw/sw/../../misc/lv_color.h ****     uint16_t h;
 239:Drivers/lvgl/src/draw/sw/../../misc/lv_color.h ****     uint8_t s;
 240:Drivers/lvgl/src/draw/sw/../../misc/lv_color.h ****     uint8_t v;
 241:Drivers/lvgl/src/draw/sw/../../misc/lv_color.h **** } lv_color_hsv_t;
 242:Drivers/lvgl/src/draw/sw/../../misc/lv_color.h **** 
 243:Drivers/lvgl/src/draw/sw/../../misc/lv_color.h **** //! @cond Doxygen_Suppress
 244:Drivers/lvgl/src/draw/sw/../../misc/lv_color.h **** /*No idea where the guard is required but else throws warnings in the docs*/
 245:Drivers/lvgl/src/draw/sw/../../misc/lv_color.h **** typedef uint8_t lv_opa_t;
 246:Drivers/lvgl/src/draw/sw/../../misc/lv_color.h **** //! @endcond
 247:Drivers/lvgl/src/draw/sw/../../misc/lv_color.h **** 
 248:Drivers/lvgl/src/draw/sw/../../misc/lv_color.h **** struct _lv_color_filter_dsc_t;
 249:Drivers/lvgl/src/draw/sw/../../misc/lv_color.h **** 
 250:Drivers/lvgl/src/draw/sw/../../misc/lv_color.h **** typedef lv_color_t (*lv_color_filter_cb_t)(const struct _lv_color_filter_dsc_t *, lv_color_t, lv_op
 251:Drivers/lvgl/src/draw/sw/../../misc/lv_color.h **** 
 252:Drivers/lvgl/src/draw/sw/../../misc/lv_color.h **** typedef struct _lv_color_filter_dsc_t {
 253:Drivers/lvgl/src/draw/sw/../../misc/lv_color.h ****     lv_color_filter_cb_t filter_cb;
 254:Drivers/lvgl/src/draw/sw/../../misc/lv_color.h ****     void * user_data;
 255:Drivers/lvgl/src/draw/sw/../../misc/lv_color.h **** } lv_color_filter_dsc_t;
 256:Drivers/lvgl/src/draw/sw/../../misc/lv_color.h **** 
 257:Drivers/lvgl/src/draw/sw/../../misc/lv_color.h **** 
 258:Drivers/lvgl/src/draw/sw/../../misc/lv_color.h **** typedef enum {
 259:Drivers/lvgl/src/draw/sw/../../misc/lv_color.h ****     LV_PALETTE_RED,
 260:Drivers/lvgl/src/draw/sw/../../misc/lv_color.h ****     LV_PALETTE_PINK,
 261:Drivers/lvgl/src/draw/sw/../../misc/lv_color.h ****     LV_PALETTE_PURPLE,
 262:Drivers/lvgl/src/draw/sw/../../misc/lv_color.h ****     LV_PALETTE_DEEP_PURPLE,
 263:Drivers/lvgl/src/draw/sw/../../misc/lv_color.h ****     LV_PALETTE_INDIGO,
 264:Drivers/lvgl/src/draw/sw/../../misc/lv_color.h ****     LV_PALETTE_BLUE,
 265:Drivers/lvgl/src/draw/sw/../../misc/lv_color.h ****     LV_PALETTE_LIGHT_BLUE,
 266:Drivers/lvgl/src/draw/sw/../../misc/lv_color.h ****     LV_PALETTE_CYAN,
 267:Drivers/lvgl/src/draw/sw/../../misc/lv_color.h ****     LV_PALETTE_TEAL,
 268:Drivers/lvgl/src/draw/sw/../../misc/lv_color.h ****     LV_PALETTE_GREEN,
 269:Drivers/lvgl/src/draw/sw/../../misc/lv_color.h ****     LV_PALETTE_LIGHT_GREEN,
 270:Drivers/lvgl/src/draw/sw/../../misc/lv_color.h ****     LV_PALETTE_LIME,
 271:Drivers/lvgl/src/draw/sw/../../misc/lv_color.h ****     LV_PALETTE_YELLOW,
 272:Drivers/lvgl/src/draw/sw/../../misc/lv_color.h ****     LV_PALETTE_AMBER,
 273:Drivers/lvgl/src/draw/sw/../../misc/lv_color.h ****     LV_PALETTE_ORANGE,
 274:Drivers/lvgl/src/draw/sw/../../misc/lv_color.h ****     LV_PALETTE_DEEP_ORANGE,
 275:Drivers/lvgl/src/draw/sw/../../misc/lv_color.h ****     LV_PALETTE_BROWN,
 276:Drivers/lvgl/src/draw/sw/../../misc/lv_color.h ****     LV_PALETTE_BLUE_GREY,
 277:Drivers/lvgl/src/draw/sw/../../misc/lv_color.h ****     LV_PALETTE_GREY,
 278:Drivers/lvgl/src/draw/sw/../../misc/lv_color.h ****     _LV_PALETTE_LAST,
 279:Drivers/lvgl/src/draw/sw/../../misc/lv_color.h ****     LV_PALETTE_NONE = 0xff,
 280:Drivers/lvgl/src/draw/sw/../../misc/lv_color.h **** } lv_palette_t;
 281:Drivers/lvgl/src/draw/sw/../../misc/lv_color.h **** 
 282:Drivers/lvgl/src/draw/sw/../../misc/lv_color.h **** /**********************
 283:Drivers/lvgl/src/draw/sw/../../misc/lv_color.h ****  * GLOBAL PROTOTYPES
 284:Drivers/lvgl/src/draw/sw/../../misc/lv_color.h ****  **********************/
 285:Drivers/lvgl/src/draw/sw/../../misc/lv_color.h **** 
 286:Drivers/lvgl/src/draw/sw/../../misc/lv_color.h **** /*In color conversations:
 287:Drivers/lvgl/src/draw/sw/../../misc/lv_color.h ****  * - When converting to bigger color type the LSB weight of 1 LSB is calculated
 288:Drivers/lvgl/src/draw/sw/../../misc/lv_color.h ****  *   E.g. 16 bit Red has 5 bits
ARM GAS  /var/folders/0z/tsy30v1j4xl4_7kw94k978ww0000gn/T//ccRgGdZF.s 			page 29


 289:Drivers/lvgl/src/draw/sw/../../misc/lv_color.h ****  *         8 bit Red has 3 bits
 290:Drivers/lvgl/src/draw/sw/../../misc/lv_color.h ****  *        ----------------------
 291:Drivers/lvgl/src/draw/sw/../../misc/lv_color.h ****  *        8 bit red LSB = (2^5 - 1) / (2^3 - 1) = 31 / 7 = 4
 292:Drivers/lvgl/src/draw/sw/../../misc/lv_color.h ****  *
 293:Drivers/lvgl/src/draw/sw/../../misc/lv_color.h ****  * - When calculating to smaller color type simply shift out the LSBs
 294:Drivers/lvgl/src/draw/sw/../../misc/lv_color.h ****  *   E.g.  8 bit Red has 3 bits
 295:Drivers/lvgl/src/draw/sw/../../misc/lv_color.h ****  *        16 bit Red has 5 bits
 296:Drivers/lvgl/src/draw/sw/../../misc/lv_color.h ****  *        ----------------------
 297:Drivers/lvgl/src/draw/sw/../../misc/lv_color.h ****  *         Shift right with 5 - 3 = 2
 298:Drivers/lvgl/src/draw/sw/../../misc/lv_color.h ****  */
 299:Drivers/lvgl/src/draw/sw/../../misc/lv_color.h **** static inline uint8_t lv_color_to1(lv_color_t color)
 300:Drivers/lvgl/src/draw/sw/../../misc/lv_color.h **** {
 301:Drivers/lvgl/src/draw/sw/../../misc/lv_color.h **** #if LV_COLOR_DEPTH == 1
 302:Drivers/lvgl/src/draw/sw/../../misc/lv_color.h ****     return color.full;
 303:Drivers/lvgl/src/draw/sw/../../misc/lv_color.h **** #elif LV_COLOR_DEPTH == 8
 304:Drivers/lvgl/src/draw/sw/../../misc/lv_color.h ****     if((LV_COLOR_GET_R(color) & 0x4) || (LV_COLOR_GET_G(color) & 0x4) || (LV_COLOR_GET_B(color) & 0
 305:Drivers/lvgl/src/draw/sw/../../misc/lv_color.h ****         return 1;
 306:Drivers/lvgl/src/draw/sw/../../misc/lv_color.h ****     }
 307:Drivers/lvgl/src/draw/sw/../../misc/lv_color.h ****     else {
 308:Drivers/lvgl/src/draw/sw/../../misc/lv_color.h ****         return 0;
 309:Drivers/lvgl/src/draw/sw/../../misc/lv_color.h ****     }
 310:Drivers/lvgl/src/draw/sw/../../misc/lv_color.h **** #elif LV_COLOR_DEPTH == 16
 311:Drivers/lvgl/src/draw/sw/../../misc/lv_color.h ****     if((LV_COLOR_GET_R(color) & 0x10) || (LV_COLOR_GET_G(color) & 0x20) || (LV_COLOR_GET_B(color) &
 312:Drivers/lvgl/src/draw/sw/../../misc/lv_color.h ****         return 1;
 313:Drivers/lvgl/src/draw/sw/../../misc/lv_color.h ****     }
 314:Drivers/lvgl/src/draw/sw/../../misc/lv_color.h ****     else {
 315:Drivers/lvgl/src/draw/sw/../../misc/lv_color.h ****         return 0;
 316:Drivers/lvgl/src/draw/sw/../../misc/lv_color.h ****     }
 317:Drivers/lvgl/src/draw/sw/../../misc/lv_color.h **** #elif LV_COLOR_DEPTH == 32
 318:Drivers/lvgl/src/draw/sw/../../misc/lv_color.h ****     if((LV_COLOR_GET_R(color) & 0x80) || (LV_COLOR_GET_G(color) & 0x80) || (LV_COLOR_GET_B(color) &
 319:Drivers/lvgl/src/draw/sw/../../misc/lv_color.h ****         return 1;
 320:Drivers/lvgl/src/draw/sw/../../misc/lv_color.h ****     }
 321:Drivers/lvgl/src/draw/sw/../../misc/lv_color.h ****     else {
 322:Drivers/lvgl/src/draw/sw/../../misc/lv_color.h ****         return 0;
 323:Drivers/lvgl/src/draw/sw/../../misc/lv_color.h ****     }
 324:Drivers/lvgl/src/draw/sw/../../misc/lv_color.h **** #endif
 325:Drivers/lvgl/src/draw/sw/../../misc/lv_color.h **** }
 326:Drivers/lvgl/src/draw/sw/../../misc/lv_color.h **** 
 327:Drivers/lvgl/src/draw/sw/../../misc/lv_color.h **** static inline uint8_t lv_color_to8(lv_color_t color)
 328:Drivers/lvgl/src/draw/sw/../../misc/lv_color.h **** {
 329:Drivers/lvgl/src/draw/sw/../../misc/lv_color.h **** #if LV_COLOR_DEPTH == 1
 330:Drivers/lvgl/src/draw/sw/../../misc/lv_color.h ****     if(color.full == 0)
 331:Drivers/lvgl/src/draw/sw/../../misc/lv_color.h ****         return 0;
 332:Drivers/lvgl/src/draw/sw/../../misc/lv_color.h ****     else
 333:Drivers/lvgl/src/draw/sw/../../misc/lv_color.h ****         return 0xFF;
 334:Drivers/lvgl/src/draw/sw/../../misc/lv_color.h **** #elif LV_COLOR_DEPTH == 8
 335:Drivers/lvgl/src/draw/sw/../../misc/lv_color.h ****     return color.full;
 336:Drivers/lvgl/src/draw/sw/../../misc/lv_color.h **** #elif LV_COLOR_DEPTH == 16
 337:Drivers/lvgl/src/draw/sw/../../misc/lv_color.h ****     lv_color8_t ret;
 338:Drivers/lvgl/src/draw/sw/../../misc/lv_color.h ****     LV_COLOR_SET_R8(ret, LV_COLOR_GET_R(color) >> 2); /*5 - 3  = 2*/
 339:Drivers/lvgl/src/draw/sw/../../misc/lv_color.h ****     LV_COLOR_SET_G8(ret, LV_COLOR_GET_G(color) >> 3); /*6 - 3  = 3*/
 340:Drivers/lvgl/src/draw/sw/../../misc/lv_color.h ****     LV_COLOR_SET_B8(ret, LV_COLOR_GET_B(color) >> 3); /*5 - 2  = 3*/
 341:Drivers/lvgl/src/draw/sw/../../misc/lv_color.h ****     return ret.full;
 342:Drivers/lvgl/src/draw/sw/../../misc/lv_color.h **** #elif LV_COLOR_DEPTH == 32
 343:Drivers/lvgl/src/draw/sw/../../misc/lv_color.h ****     lv_color8_t ret;
 344:Drivers/lvgl/src/draw/sw/../../misc/lv_color.h ****     LV_COLOR_SET_R8(ret, LV_COLOR_GET_R(color) >> 5); /*8 - 3  = 5*/
 345:Drivers/lvgl/src/draw/sw/../../misc/lv_color.h ****     LV_COLOR_SET_G8(ret, LV_COLOR_GET_G(color) >> 5); /*8 - 3  = 5*/
ARM GAS  /var/folders/0z/tsy30v1j4xl4_7kw94k978ww0000gn/T//ccRgGdZF.s 			page 30


 346:Drivers/lvgl/src/draw/sw/../../misc/lv_color.h ****     LV_COLOR_SET_B8(ret, LV_COLOR_GET_B(color) >> 6); /*8 - 2  = 6*/
 347:Drivers/lvgl/src/draw/sw/../../misc/lv_color.h ****     return ret.full;
 348:Drivers/lvgl/src/draw/sw/../../misc/lv_color.h **** #endif
 349:Drivers/lvgl/src/draw/sw/../../misc/lv_color.h **** }
 350:Drivers/lvgl/src/draw/sw/../../misc/lv_color.h **** 
 351:Drivers/lvgl/src/draw/sw/../../misc/lv_color.h **** static inline uint16_t lv_color_to16(lv_color_t color)
 352:Drivers/lvgl/src/draw/sw/../../misc/lv_color.h **** {
 353:Drivers/lvgl/src/draw/sw/../../misc/lv_color.h **** #if LV_COLOR_DEPTH == 1
 354:Drivers/lvgl/src/draw/sw/../../misc/lv_color.h ****     if(color.full == 0)
 355:Drivers/lvgl/src/draw/sw/../../misc/lv_color.h ****         return 0;
 356:Drivers/lvgl/src/draw/sw/../../misc/lv_color.h ****     else
 357:Drivers/lvgl/src/draw/sw/../../misc/lv_color.h ****         return 0xFFFF;
 358:Drivers/lvgl/src/draw/sw/../../misc/lv_color.h **** #elif LV_COLOR_DEPTH == 8
 359:Drivers/lvgl/src/draw/sw/../../misc/lv_color.h ****     lv_color16_t ret;
 360:Drivers/lvgl/src/draw/sw/../../misc/lv_color.h ****     LV_COLOR_SET_R16(ret, LV_COLOR_GET_R(color) * 4);  /*(2^5 - 1)/(2^3 - 1) = 31/7 = 4*/
 361:Drivers/lvgl/src/draw/sw/../../misc/lv_color.h ****     LV_COLOR_SET_G16(ret, LV_COLOR_GET_G(color) * 9);  /*(2^6 - 1)/(2^3 - 1) = 63/7 = 9*/
 362:Drivers/lvgl/src/draw/sw/../../misc/lv_color.h ****     LV_COLOR_SET_B16(ret, LV_COLOR_GET_B(color) * 10); /*(2^5 - 1)/(2^2 - 1) = 31/3 = 10*/
 363:Drivers/lvgl/src/draw/sw/../../misc/lv_color.h ****     return ret.full;
 364:Drivers/lvgl/src/draw/sw/../../misc/lv_color.h **** #elif LV_COLOR_DEPTH == 16
 365:Drivers/lvgl/src/draw/sw/../../misc/lv_color.h ****     return color.full;
 366:Drivers/lvgl/src/draw/sw/../../misc/lv_color.h **** #elif LV_COLOR_DEPTH == 32
 367:Drivers/lvgl/src/draw/sw/../../misc/lv_color.h ****     lv_color16_t ret;
 368:Drivers/lvgl/src/draw/sw/../../misc/lv_color.h ****     LV_COLOR_SET_R16(ret, LV_COLOR_GET_R(color) >> 3); /*8 - 5  = 3*/
 369:Drivers/lvgl/src/draw/sw/../../misc/lv_color.h ****     LV_COLOR_SET_G16(ret, LV_COLOR_GET_G(color) >> 2); /*8 - 6  = 2*/
 370:Drivers/lvgl/src/draw/sw/../../misc/lv_color.h ****     LV_COLOR_SET_B16(ret, LV_COLOR_GET_B(color) >> 3); /*8 - 5  = 3*/
 371:Drivers/lvgl/src/draw/sw/../../misc/lv_color.h ****     return ret.full;
 372:Drivers/lvgl/src/draw/sw/../../misc/lv_color.h **** #endif
 373:Drivers/lvgl/src/draw/sw/../../misc/lv_color.h **** }
 374:Drivers/lvgl/src/draw/sw/../../misc/lv_color.h **** 
 375:Drivers/lvgl/src/draw/sw/../../misc/lv_color.h **** static inline uint32_t lv_color_to32(lv_color_t color)
 376:Drivers/lvgl/src/draw/sw/../../misc/lv_color.h **** {
 377:Drivers/lvgl/src/draw/sw/../../misc/lv_color.h **** #if LV_COLOR_DEPTH == 1
 378:Drivers/lvgl/src/draw/sw/../../misc/lv_color.h ****     if(color.full == 0)
 379:Drivers/lvgl/src/draw/sw/../../misc/lv_color.h ****         return 0xFF000000;
 380:Drivers/lvgl/src/draw/sw/../../misc/lv_color.h ****     else
 381:Drivers/lvgl/src/draw/sw/../../misc/lv_color.h ****         return 0xFFFFFFFF;
 382:Drivers/lvgl/src/draw/sw/../../misc/lv_color.h **** #elif LV_COLOR_DEPTH == 8
 383:Drivers/lvgl/src/draw/sw/../../misc/lv_color.h ****     lv_color32_t ret;
 384:Drivers/lvgl/src/draw/sw/../../misc/lv_color.h ****     LV_COLOR_SET_R32(ret, LV_COLOR_GET_R(color) * 36); /*(2^8 - 1)/(2^3 - 1) = 255/7 = 36*/
 385:Drivers/lvgl/src/draw/sw/../../misc/lv_color.h ****     LV_COLOR_SET_G32(ret, LV_COLOR_GET_G(color) * 36); /*(2^8 - 1)/(2^3 - 1) = 255/7 = 36*/
 386:Drivers/lvgl/src/draw/sw/../../misc/lv_color.h ****     LV_COLOR_SET_B32(ret, LV_COLOR_GET_B(color) * 85); /*(2^8 - 1)/(2^2 - 1) = 255/3 = 85*/
 387:Drivers/lvgl/src/draw/sw/../../misc/lv_color.h ****     LV_COLOR_SET_A32(ret, 0xFF);
 388:Drivers/lvgl/src/draw/sw/../../misc/lv_color.h ****     return ret.full;
 389:Drivers/lvgl/src/draw/sw/../../misc/lv_color.h **** #elif LV_COLOR_DEPTH == 16
 390:Drivers/lvgl/src/draw/sw/../../misc/lv_color.h ****     /**
 391:Drivers/lvgl/src/draw/sw/../../misc/lv_color.h ****      * The floating point math for conversion is:
 392:Drivers/lvgl/src/draw/sw/../../misc/lv_color.h ****      *  valueto = valuefrom * ( (2^bitsto - 1) / (float)(2^bitsfrom - 1) )
 393:Drivers/lvgl/src/draw/sw/../../misc/lv_color.h ****      * The faster integer math for conversion is:
 394:Drivers/lvgl/src/draw/sw/../../misc/lv_color.h ****      *  valueto = ( valuefrom * multiplier + adder ) >> divisor
 395:Drivers/lvgl/src/draw/sw/../../misc/lv_color.h ****      *   multiplier = FLOOR( ( (2^bitsto - 1) << divisor ) / (float)(2^bitsfrom - 1) )
 396:Drivers/lvgl/src/draw/sw/../../misc/lv_color.h ****      *
 397:Drivers/lvgl/src/draw/sw/../../misc/lv_color.h ****      * Find the first divisor where ( adder >> divisor ) <= 0
 398:Drivers/lvgl/src/draw/sw/../../misc/lv_color.h ****      *
 399:Drivers/lvgl/src/draw/sw/../../misc/lv_color.h ****      * 5-bit to 8-bit: ( 31 * multiplier + adder ) >> divisor = 255
 400:Drivers/lvgl/src/draw/sw/../../misc/lv_color.h ****      * divisor  multiplier  adder  min (0)  max (31)
 401:Drivers/lvgl/src/draw/sw/../../misc/lv_color.h ****      *       0           8      7        7       255
 402:Drivers/lvgl/src/draw/sw/../../misc/lv_color.h ****      *       1          16     14        7       255
ARM GAS  /var/folders/0z/tsy30v1j4xl4_7kw94k978ww0000gn/T//ccRgGdZF.s 			page 31


 403:Drivers/lvgl/src/draw/sw/../../misc/lv_color.h ****      *       2          32     28        7       255
 404:Drivers/lvgl/src/draw/sw/../../misc/lv_color.h ****      *       3          65     25        3       255
 405:Drivers/lvgl/src/draw/sw/../../misc/lv_color.h ****      *       4         131     19        1       255
 406:Drivers/lvgl/src/draw/sw/../../misc/lv_color.h ****      *       5         263      7        0       255
 407:Drivers/lvgl/src/draw/sw/../../misc/lv_color.h ****      *
 408:Drivers/lvgl/src/draw/sw/../../misc/lv_color.h ****      * 6-bit to 8-bit: 255 = ( 63 * multiplier + adder ) >> divisor
 409:Drivers/lvgl/src/draw/sw/../../misc/lv_color.h ****      * divisor  multiplier  adder  min (0)  max (63)
 410:Drivers/lvgl/src/draw/sw/../../misc/lv_color.h ****      *       0           4      3        3       255
 411:Drivers/lvgl/src/draw/sw/../../misc/lv_color.h ****      *       1           8      6        3       255
 412:Drivers/lvgl/src/draw/sw/../../misc/lv_color.h ****      *       2          16     12        3       255
 413:Drivers/lvgl/src/draw/sw/../../misc/lv_color.h ****      *       3          32     24        3       255
 414:Drivers/lvgl/src/draw/sw/../../misc/lv_color.h ****      *       4          64     48        3       255
 415:Drivers/lvgl/src/draw/sw/../../misc/lv_color.h ****      *       5         129     33        1       255
 416:Drivers/lvgl/src/draw/sw/../../misc/lv_color.h ****      *       6         259      3        0       255
 417:Drivers/lvgl/src/draw/sw/../../misc/lv_color.h ****      */
 418:Drivers/lvgl/src/draw/sw/../../misc/lv_color.h **** 
 419:Drivers/lvgl/src/draw/sw/../../misc/lv_color.h ****     lv_color32_t ret;
 420:Drivers/lvgl/src/draw/sw/../../misc/lv_color.h ****     LV_COLOR_SET_R32(ret, (LV_COLOR_GET_R(color) * 263 + 7) >> 5);
 421:Drivers/lvgl/src/draw/sw/../../misc/lv_color.h ****     LV_COLOR_SET_G32(ret, (LV_COLOR_GET_G(color) * 259 + 3) >> 6);
 422:Drivers/lvgl/src/draw/sw/../../misc/lv_color.h ****     LV_COLOR_SET_B32(ret, (LV_COLOR_GET_B(color) * 263 + 7) >> 5);
 423:Drivers/lvgl/src/draw/sw/../../misc/lv_color.h ****     LV_COLOR_SET_A32(ret, 0xFF);
 424:Drivers/lvgl/src/draw/sw/../../misc/lv_color.h ****     return ret.full;
 425:Drivers/lvgl/src/draw/sw/../../misc/lv_color.h **** #elif LV_COLOR_DEPTH == 32
 426:Drivers/lvgl/src/draw/sw/../../misc/lv_color.h ****     return color.full;
 427:Drivers/lvgl/src/draw/sw/../../misc/lv_color.h **** #endif
 428:Drivers/lvgl/src/draw/sw/../../misc/lv_color.h **** }
 429:Drivers/lvgl/src/draw/sw/../../misc/lv_color.h **** 
 430:Drivers/lvgl/src/draw/sw/../../misc/lv_color.h **** //! @cond Doxygen_Suppress
 431:Drivers/lvgl/src/draw/sw/../../misc/lv_color.h **** 
 432:Drivers/lvgl/src/draw/sw/../../misc/lv_color.h **** /**
 433:Drivers/lvgl/src/draw/sw/../../misc/lv_color.h ****  * Mix two colors with a given ratio.
 434:Drivers/lvgl/src/draw/sw/../../misc/lv_color.h ****  * @param c1 the first color to mix (usually the foreground)
 435:Drivers/lvgl/src/draw/sw/../../misc/lv_color.h ****  * @param c2 the second color to mix (usually the background)
 436:Drivers/lvgl/src/draw/sw/../../misc/lv_color.h ****  * @param mix The ratio of the colors. 0: full `c2`, 255: full `c1`, 127: half `c1` and half`c2`
 437:Drivers/lvgl/src/draw/sw/../../misc/lv_color.h ****  * @return the mixed color
 438:Drivers/lvgl/src/draw/sw/../../misc/lv_color.h ****  */
 439:Drivers/lvgl/src/draw/sw/../../misc/lv_color.h **** static inline lv_color_t LV_ATTRIBUTE_FAST_MEM lv_color_mix(lv_color_t c1, lv_color_t c2, uint8_t m
 440:Drivers/lvgl/src/draw/sw/../../misc/lv_color.h **** {
 441:Drivers/lvgl/src/draw/sw/../../misc/lv_color.h ****     lv_color_t ret;
 442:Drivers/lvgl/src/draw/sw/../../misc/lv_color.h **** 
 443:Drivers/lvgl/src/draw/sw/../../misc/lv_color.h **** #if LV_COLOR_DEPTH == 16 && LV_COLOR_MIX_ROUND_OFS == 0
 444:Drivers/lvgl/src/draw/sw/../../misc/lv_color.h **** #if LV_COLOR_16_SWAP == 1
 445:Drivers/lvgl/src/draw/sw/../../misc/lv_color.h ****     c1.full = c1.full << 8 | c1.full >> 8;
 446:Drivers/lvgl/src/draw/sw/../../misc/lv_color.h ****     c2.full = c2.full << 8 | c2.full >> 8;
 447:Drivers/lvgl/src/draw/sw/../../misc/lv_color.h **** #endif
 448:Drivers/lvgl/src/draw/sw/../../misc/lv_color.h ****     /*Source: https://stackoverflow.com/a/50012418/1999969*/
 449:Drivers/lvgl/src/draw/sw/../../misc/lv_color.h ****     mix = (uint32_t)((uint32_t)mix + 4) >> 3;
 450:Drivers/lvgl/src/draw/sw/../../misc/lv_color.h ****     uint32_t bg = (uint32_t)((uint32_t)c2.full | ((uint32_t)c2.full << 16)) &
 451:Drivers/lvgl/src/draw/sw/../../misc/lv_color.h ****                   0x7E0F81F; /*0b00000111111000001111100000011111*/
 452:Drivers/lvgl/src/draw/sw/../../misc/lv_color.h ****     uint32_t fg = (uint32_t)((uint32_t)c1.full | ((uint32_t)c1.full << 16)) & 0x7E0F81F;
 453:Drivers/lvgl/src/draw/sw/../../misc/lv_color.h ****     uint32_t result = ((((fg - bg) * mix) >> 5) + bg) & 0x7E0F81F;
 454:Drivers/lvgl/src/draw/sw/../../misc/lv_color.h ****     ret.full = (uint16_t)((result >> 16) | result);
 455:Drivers/lvgl/src/draw/sw/../../misc/lv_color.h **** #if LV_COLOR_16_SWAP == 1
 456:Drivers/lvgl/src/draw/sw/../../misc/lv_color.h ****     ret.full = ret.full << 8 | ret.full >> 8;
 457:Drivers/lvgl/src/draw/sw/../../misc/lv_color.h **** #endif
 458:Drivers/lvgl/src/draw/sw/../../misc/lv_color.h **** #elif LV_COLOR_DEPTH != 1
 459:Drivers/lvgl/src/draw/sw/../../misc/lv_color.h ****     /*LV_COLOR_DEPTH == 8, 16 or 32*/
ARM GAS  /var/folders/0z/tsy30v1j4xl4_7kw94k978ww0000gn/T//ccRgGdZF.s 			page 32


 460:Drivers/lvgl/src/draw/sw/../../misc/lv_color.h ****     LV_COLOR_SET_R(ret, LV_UDIV255((uint16_t)LV_COLOR_GET_R(c1) * mix + LV_COLOR_GET_R(c2) *
 461:Drivers/lvgl/src/draw/sw/../../misc/lv_color.h ****                                    (255 - mix) + LV_COLOR_MIX_ROUND_OFS));
 462:Drivers/lvgl/src/draw/sw/../../misc/lv_color.h ****     LV_COLOR_SET_G(ret, LV_UDIV255((uint16_t)LV_COLOR_GET_G(c1) * mix + LV_COLOR_GET_G(c2) *
 463:Drivers/lvgl/src/draw/sw/../../misc/lv_color.h ****                                    (255 - mix) + LV_COLOR_MIX_ROUND_OFS));
 464:Drivers/lvgl/src/draw/sw/../../misc/lv_color.h ****     LV_COLOR_SET_B(ret, LV_UDIV255((uint16_t)LV_COLOR_GET_B(c1) * mix + LV_COLOR_GET_B(c2) *
 465:Drivers/lvgl/src/draw/sw/../../misc/lv_color.h ****                                    (255 - mix) + LV_COLOR_MIX_ROUND_OFS));
 466:Drivers/lvgl/src/draw/sw/../../misc/lv_color.h ****     LV_COLOR_SET_A(ret, 0xFF);
 467:Drivers/lvgl/src/draw/sw/../../misc/lv_color.h **** #else
 468:Drivers/lvgl/src/draw/sw/../../misc/lv_color.h ****     /*LV_COLOR_DEPTH == 1*/
 469:Drivers/lvgl/src/draw/sw/../../misc/lv_color.h ****     ret.full = mix > LV_OPA_50 ? c1.full : c2.full;
 470:Drivers/lvgl/src/draw/sw/../../misc/lv_color.h **** #endif
 471:Drivers/lvgl/src/draw/sw/../../misc/lv_color.h **** 
 472:Drivers/lvgl/src/draw/sw/../../misc/lv_color.h ****     return ret;
 473:Drivers/lvgl/src/draw/sw/../../misc/lv_color.h **** }
 474:Drivers/lvgl/src/draw/sw/../../misc/lv_color.h **** 
 475:Drivers/lvgl/src/draw/sw/../../misc/lv_color.h **** static inline void LV_ATTRIBUTE_FAST_MEM lv_color_premult(lv_color_t c, uint8_t mix, uint16_t * out
 725              		.loc 3 475 42 view .LVU228
 726              	.LBB204:
 476:Drivers/lvgl/src/draw/sw/../../misc/lv_color.h **** {
 477:Drivers/lvgl/src/draw/sw/../../misc/lv_color.h **** #if LV_COLOR_DEPTH != 1
 478:Drivers/lvgl/src/draw/sw/../../misc/lv_color.h ****     out[0] = (uint16_t)LV_COLOR_GET_R(c) * mix;
 727              		.loc 3 478 5 view .LVU229
 728              	.LBE204:
 729              	.LBE203:
 156:Drivers/lvgl/src/draw/sw/lv_draw_sw_img.c ****                 lv_color_premult(recolor, recolor_opa, premult_v);
 730              		.loc 1 156 28 is_stmt 0 view .LVU230
 731 02ae 5E7A     		ldrb	r6, [r3, #9]	@ zero_extendqisi2
 732 02b0 1F7A     		ldrb	r7, [r3, #8]	@ zero_extendqisi2
 733              	.LBB208:
 734              	.LBB205:
 479:Drivers/lvgl/src/draw/sw/../../misc/lv_color.h ****     out[1] = (uint16_t)LV_COLOR_GET_G(c) * mix;
 735              		.loc 3 479 24 view .LVU231
 736 02b2 7509     		lsrs	r5, r6, #5
 737 02b4 07F00703 		and	r3, r7, #7
 738              		.loc 3 479 14 view .LVU232
 739 02b8 05EBC305 		add	r5, r5, r3, lsl #3
 478:Drivers/lvgl/src/draw/sw/../../misc/lv_color.h ****     out[1] = (uint16_t)LV_COLOR_GET_G(c) * mix;
 740              		.loc 3 478 42 view .LVU233
 741 02bc FF08     		lsrs	r7, r7, #3
 480:Drivers/lvgl/src/draw/sw/../../misc/lv_color.h ****     out[2] = (uint16_t)LV_COLOR_GET_B(c) * mix;
 742              		.loc 3 480 24 view .LVU234
 743 02be 06F01F06 		and	r6, r6, #31
 744              	.LBE205:
 745              	.LBE208:
 160:Drivers/lvgl/src/draw/sw/lv_draw_sw_img.c ****                     rgb_buf[i] = lv_color_mix_premult(premult_v, rgb_buf[i], recolor_opa);
 746              		.loc 1 160 30 view .LVU235
 747 02c2 129B     		ldr	r3, [sp, #72]
 748              	.LBB209:
 749              	.LBB206:
 479:Drivers/lvgl/src/draw/sw/../../misc/lv_color.h ****     out[2] = (uint16_t)LV_COLOR_GET_B(c) * mix;
 750              		.loc 3 479 42 view .LVU236
 751 02c4 01FB05F5 		mul	r5, r1, r5
 478:Drivers/lvgl/src/draw/sw/../../misc/lv_color.h ****     out[1] = (uint16_t)LV_COLOR_GET_G(c) * mix;
 752              		.loc 3 478 42 view .LVU237
 753 02c8 01FB07F7 		mul	r7, r1, r7
 479:Drivers/lvgl/src/draw/sw/../../misc/lv_color.h ****     out[2] = (uint16_t)LV_COLOR_GET_B(c) * mix;
 754              		.loc 3 479 5 is_stmt 1 view .LVU238
ARM GAS  /var/folders/0z/tsy30v1j4xl4_7kw94k978ww0000gn/T//ccRgGdZF.s 			page 33


 755              		.loc 3 480 42 is_stmt 0 view .LVU239
 756 02cc 01FB06F6 		mul	r6, r1, r6
 757              	.LBE206:
 758              	.LBE209:
 158:Drivers/lvgl/src/draw/sw/lv_draw_sw_img.c ****                 uint32_t i;
 759              		.loc 1 158 29 view .LVU240
 760 02d0 C943     		mvns	r1, r1
 761              	.LVL58:
 762              	.LBB210:
 763              	.LBB207:
 479:Drivers/lvgl/src/draw/sw/../../misc/lv_color.h ****     out[2] = (uint16_t)LV_COLOR_GET_B(c) * mix;
 764              		.loc 3 479 42 view .LVU241
 765 02d2 ADB2     		uxth	r5, r5
 766              		.loc 3 480 5 is_stmt 1 view .LVU242
 767              	.LVL59:
 768              		.loc 3 480 5 is_stmt 0 view .LVU243
 769              	.LBE207:
 770              	.LBE210:
 158:Drivers/lvgl/src/draw/sw/lv_draw_sw_img.c ****                 uint32_t i;
 771              		.loc 1 158 17 is_stmt 1 view .LVU244
 158:Drivers/lvgl/src/draw/sw/lv_draw_sw_img.c ****                 uint32_t i;
 772              		.loc 1 158 29 is_stmt 0 view .LVU245
 773 02d4 C9B2     		uxtb	r1, r1
 774              	.LVL60:
 159:Drivers/lvgl/src/draw/sw/lv_draw_sw_img.c ****                 for(i = 0; i < buf_size; i++) {
 775              		.loc 1 159 17 is_stmt 1 view .LVU246
 160:Drivers/lvgl/src/draw/sw/lv_draw_sw_img.c ****                     rgb_buf[i] = lv_color_mix_premult(premult_v, rgb_buf[i], recolor_opa);
 776              		.loc 1 160 17 view .LVU247
 160:Drivers/lvgl/src/draw/sw/lv_draw_sw_img.c ****                     rgb_buf[i] = lv_color_mix_premult(premult_v, rgb_buf[i], recolor_opa);
 777              		.loc 1 160 30 view .LVU248
 778 02d6 002B     		cmp	r3, #0
 779 02d8 3FF439AF 		beq	.L30
 780              	.LBB211:
 781              	.LBB212:
 481:Drivers/lvgl/src/draw/sw/../../misc/lv_color.h **** #else
 482:Drivers/lvgl/src/draw/sw/../../misc/lv_color.h ****     (void) mix;
 483:Drivers/lvgl/src/draw/sw/../../misc/lv_color.h ****     /*Pre-multiplication can't be used with 1 bpp*/
 484:Drivers/lvgl/src/draw/sw/../../misc/lv_color.h ****     out[0] = LV_COLOR_GET_R(c);
 485:Drivers/lvgl/src/draw/sw/../../misc/lv_color.h ****     out[1] = LV_COLOR_GET_G(c);
 486:Drivers/lvgl/src/draw/sw/../../misc/lv_color.h ****     out[2] = LV_COLOR_GET_B(c);
 487:Drivers/lvgl/src/draw/sw/../../misc/lv_color.h **** #endif
 488:Drivers/lvgl/src/draw/sw/../../misc/lv_color.h **** 
 489:Drivers/lvgl/src/draw/sw/../../misc/lv_color.h **** }
 490:Drivers/lvgl/src/draw/sw/../../misc/lv_color.h **** 
 491:Drivers/lvgl/src/draw/sw/../../misc/lv_color.h **** /**
 492:Drivers/lvgl/src/draw/sw/../../misc/lv_color.h ****  * Mix two colors with a given ratio. It runs faster then `lv_color_mix` but requires some pre comp
 493:Drivers/lvgl/src/draw/sw/../../misc/lv_color.h ****  * @param premult_c1 The first color. Should be preprocessed with `lv_color_premult(c1)`
 494:Drivers/lvgl/src/draw/sw/../../misc/lv_color.h ****  * @param c2 The second color. As it is no pre computation required on it
 495:Drivers/lvgl/src/draw/sw/../../misc/lv_color.h ****  * @param mix The ratio of the colors. 0: full `c1`, 255: full `c2`, 127: half `c1` and half `c2`.
 496:Drivers/lvgl/src/draw/sw/../../misc/lv_color.h ****  *            Should be modified like mix = `255 - mix`
 497:Drivers/lvgl/src/draw/sw/../../misc/lv_color.h ****  * @return the mixed color
 498:Drivers/lvgl/src/draw/sw/../../misc/lv_color.h ****  * @note 255 won't give clearly `c1`.
 499:Drivers/lvgl/src/draw/sw/../../misc/lv_color.h ****  */
 500:Drivers/lvgl/src/draw/sw/../../misc/lv_color.h **** static inline lv_color_t LV_ATTRIBUTE_FAST_MEM lv_color_mix_premult(uint16_t * premult_c1, lv_color
 501:Drivers/lvgl/src/draw/sw/../../misc/lv_color.h **** {
 502:Drivers/lvgl/src/draw/sw/../../misc/lv_color.h ****     lv_color_t ret;
 503:Drivers/lvgl/src/draw/sw/../../misc/lv_color.h **** #if LV_COLOR_DEPTH != 1
ARM GAS  /var/folders/0z/tsy30v1j4xl4_7kw94k978ww0000gn/T//ccRgGdZF.s 			page 34


 504:Drivers/lvgl/src/draw/sw/../../misc/lv_color.h ****     /*LV_COLOR_DEPTH == 8 or 32*/
 505:Drivers/lvgl/src/draw/sw/../../misc/lv_color.h ****     LV_COLOR_SET_R(ret, LV_UDIV255(premult_c1[0] + LV_COLOR_GET_R(c2) * mix + LV_COLOR_MIX_ROUND_OF
 506:Drivers/lvgl/src/draw/sw/../../misc/lv_color.h ****     LV_COLOR_SET_G(ret, LV_UDIV255(premult_c1[1] + LV_COLOR_GET_G(c2) * mix + LV_COLOR_MIX_ROUND_OF
 507:Drivers/lvgl/src/draw/sw/../../misc/lv_color.h ****     LV_COLOR_SET_B(ret, LV_UDIV255(premult_c1[2] + LV_COLOR_GET_B(c2) * mix + LV_COLOR_MIX_ROUND_OF
 782              		.loc 3 507 5 is_stmt 0 view .LVU249
 783 02dc 089A     		ldr	r2, [sp, #32]
 784              	.LBE212:
 785              	.LBE211:
 161:Drivers/lvgl/src/draw/sw/lv_draw_sw_img.c ****                 }
 786              		.loc 1 161 34 view .LVU250
 787 02de 41F6F87C 		movw	ip, #8184
 788              	.LVL61:
 789              	.L32:
 161:Drivers/lvgl/src/draw/sw/lv_draw_sw_img.c ****                 }
 790              		.loc 1 161 21 is_stmt 1 view .LVU251
 791              	.LBB218:
 792              	.LBI211:
 500:Drivers/lvgl/src/draw/sw/../../misc/lv_color.h **** {
 793              		.loc 3 500 48 view .LVU252
 794              	.LBB213:
 502:Drivers/lvgl/src/draw/sw/../../misc/lv_color.h **** #if LV_COLOR_DEPTH != 1
 795              		.loc 3 502 5 view .LVU253
 505:Drivers/lvgl/src/draw/sw/../../misc/lv_color.h ****     LV_COLOR_SET_G(ret, LV_UDIV255(premult_c1[1] + LV_COLOR_GET_G(c2) * mix + LV_COLOR_MIX_ROUND_OF
 796              		.loc 3 505 5 view .LVU254
 506:Drivers/lvgl/src/draw/sw/../../misc/lv_color.h ****     LV_COLOR_SET_B(ret, LV_UDIV255(premult_c1[2] + LV_COLOR_GET_B(c2) * mix + LV_COLOR_MIX_ROUND_OF
 797              		.loc 3 506 5 view .LVU255
 798 02e2 1078     		ldrb	r0, [r2]	@ zero_extendqisi2
 799 02e4 5378     		ldrb	r3, [r2, #1]	@ zero_extendqisi2
 800 02e6 00F00700 		and	r0, r0, #7
 801 02ea 5B09     		lsrs	r3, r3, #5
 802 02ec 03EBC003 		add	r3, r3, r0, lsl #3
 803 02f0 01FB0353 		mla	r3, r1, r3, r5
 804 02f4 03EB0320 		add	r0, r3, r3, lsl #8
 805 02f8 03EBC013 		add	r3, r3, r0, lsl #7
 806              	.LVL62:
 506:Drivers/lvgl/src/draw/sw/../../misc/lv_color.h ****     LV_COLOR_SET_B(ret, LV_UDIV255(premult_c1[2] + LV_COLOR_GET_B(c2) * mix + LV_COLOR_MIX_ROUND_OF
 807              		.loc 3 506 5 view .LVU256
 506:Drivers/lvgl/src/draw/sw/../../misc/lv_color.h ****     LV_COLOR_SET_B(ret, LV_UDIV255(premult_c1[2] + LV_COLOR_GET_B(c2) * mix + LV_COLOR_MIX_ROUND_OF
 808              		.loc 3 506 103 view .LVU257
 809              		.loc 3 507 5 view .LVU258
 508:Drivers/lvgl/src/draw/sw/../../misc/lv_color.h ****     LV_COLOR_SET_A(ret, 0xFF);
 810              		.loc 3 508 5 view .LVU259
 811              		.loc 3 508 5 view .LVU260
 812              		.loc 3 508 5 view .LVU261
 509:Drivers/lvgl/src/draw/sw/../../misc/lv_color.h **** #else
 510:Drivers/lvgl/src/draw/sw/../../misc/lv_color.h ****     /*LV_COLOR_DEPTH == 1*/
 511:Drivers/lvgl/src/draw/sw/../../misc/lv_color.h ****     /*Restore color1*/
 512:Drivers/lvgl/src/draw/sw/../../misc/lv_color.h ****     lv_color_t c1;
 513:Drivers/lvgl/src/draw/sw/../../misc/lv_color.h ****     LV_COLOR_SET_R(c1, premult_c1[0]);
 514:Drivers/lvgl/src/draw/sw/../../misc/lv_color.h ****     LV_COLOR_SET_G(c1, premult_c1[1]);
 515:Drivers/lvgl/src/draw/sw/../../misc/lv_color.h ****     LV_COLOR_SET_B(c1, premult_c1[2]);
 516:Drivers/lvgl/src/draw/sw/../../misc/lv_color.h ****     ret.full = mix > LV_OPA_50 ? c2.full : c1.full;
 517:Drivers/lvgl/src/draw/sw/../../misc/lv_color.h **** #endif
 518:Drivers/lvgl/src/draw/sw/../../misc/lv_color.h **** 
 519:Drivers/lvgl/src/draw/sw/../../misc/lv_color.h ****     return ret;
 813              		.loc 3 519 5 view .LVU262
 814              		.loc 3 519 5 is_stmt 0 view .LVU263
ARM GAS  /var/folders/0z/tsy30v1j4xl4_7kw94k978ww0000gn/T//ccRgGdZF.s 			page 35


 815              	.LBE213:
 816              	.LBE218:
 161:Drivers/lvgl/src/draw/sw/lv_draw_sw_img.c ****                 }
 817              		.loc 1 161 34 view .LVU264
 818 02fc 1088     		ldrh	r0, [r2]
 819              	.LBB219:
 820              	.LBB214:
 506:Drivers/lvgl/src/draw/sw/../../misc/lv_color.h ****     LV_COLOR_SET_B(ret, LV_UDIV255(premult_c1[2] + LV_COLOR_GET_B(c2) * mix + LV_COLOR_MIX_ROUND_OF
 821              		.loc 3 506 5 view .LVU265
 822 02fe DC0D     		lsrs	r4, r3, #23
 823              	.LBE214:
 824              	.LBE219:
 161:Drivers/lvgl/src/draw/sw/lv_draw_sw_img.c ****                 }
 825              		.loc 1 161 34 view .LVU266
 826 0300 C3F38263 		ubfx	r3, r3, #26, #3
 827 0304 0CEA0000 		and	r0, ip, r0
 828 0308 43EA4433 		orr	r3, r3, r4, lsl #13
 829 030c 0343     		orrs	r3, r3, r0
 830 030e 22F8023B 		strh	r3, [r2], #2	@ movhi
 160:Drivers/lvgl/src/draw/sw/lv_draw_sw_img.c ****                     rgb_buf[i] = lv_color_mix_premult(premult_v, rgb_buf[i], recolor_opa);
 831              		.loc 1 160 43 is_stmt 1 view .LVU267
 160:Drivers/lvgl/src/draw/sw/lv_draw_sw_img.c ****                     rgb_buf[i] = lv_color_mix_premult(premult_v, rgb_buf[i], recolor_opa);
 832              		.loc 1 160 30 view .LVU268
 833 0312 5A45     		cmp	r2, fp
 834 0314 E5D1     		bne	.L32
 835 0316 0898     		ldr	r0, [sp, #32]
 836              	.L33:
 161:Drivers/lvgl/src/draw/sw/lv_draw_sw_img.c ****                 }
 837              		.loc 1 161 21 view .LVU269
 838              	.LVL63:
 839              	.LBB220:
 500:Drivers/lvgl/src/draw/sw/../../misc/lv_color.h **** {
 840              		.loc 3 500 48 view .LVU270
 841              	.LBB215:
 502:Drivers/lvgl/src/draw/sw/../../misc/lv_color.h **** #if LV_COLOR_DEPTH != 1
 842              		.loc 3 502 5 view .LVU271
 505:Drivers/lvgl/src/draw/sw/../../misc/lv_color.h ****     LV_COLOR_SET_G(ret, LV_UDIV255(premult_c1[1] + LV_COLOR_GET_G(c2) * mix + LV_COLOR_MIX_ROUND_OF
 843              		.loc 3 505 5 view .LVU272
 506:Drivers/lvgl/src/draw/sw/../../misc/lv_color.h ****     LV_COLOR_SET_B(ret, LV_UDIV255(premult_c1[2] + LV_COLOR_GET_B(c2) * mix + LV_COLOR_MIX_ROUND_OF
 844              		.loc 3 506 5 view .LVU273
 506:Drivers/lvgl/src/draw/sw/../../misc/lv_color.h ****     LV_COLOR_SET_B(ret, LV_UDIV255(premult_c1[2] + LV_COLOR_GET_B(c2) * mix + LV_COLOR_MIX_ROUND_OF
 845              		.loc 3 506 5 view .LVU274
 506:Drivers/lvgl/src/draw/sw/../../misc/lv_color.h ****     LV_COLOR_SET_B(ret, LV_UDIV255(premult_c1[2] + LV_COLOR_GET_B(c2) * mix + LV_COLOR_MIX_ROUND_OF
 846              		.loc 3 506 103 view .LVU275
 507:Drivers/lvgl/src/draw/sw/../../misc/lv_color.h ****     LV_COLOR_SET_A(ret, 0xFF);
 847              		.loc 3 507 5 view .LVU276
 508:Drivers/lvgl/src/draw/sw/../../misc/lv_color.h **** #else
 848              		.loc 3 508 5 view .LVU277
 508:Drivers/lvgl/src/draw/sw/../../misc/lv_color.h **** #else
 849              		.loc 3 508 5 view .LVU278
 508:Drivers/lvgl/src/draw/sw/../../misc/lv_color.h **** #else
 850              		.loc 3 508 5 view .LVU279
 851              		.loc 3 519 5 view .LVU280
 505:Drivers/lvgl/src/draw/sw/../../misc/lv_color.h ****     LV_COLOR_SET_G(ret, LV_UDIV255(premult_c1[1] + LV_COLOR_GET_G(c2) * mix + LV_COLOR_MIX_ROUND_OF
 852              		.loc 3 505 5 is_stmt 0 view .LVU281
 853 0318 0278     		ldrb	r2, [r0]	@ zero_extendqisi2
 854 031a D308     		lsrs	r3, r2, #3
ARM GAS  /var/folders/0z/tsy30v1j4xl4_7kw94k978ww0000gn/T//ccRgGdZF.s 			page 36


 855 031c 03FB0173 		mla	r3, r3, r1, r7
 856 0320 03EB0324 		add	r4, r3, r3, lsl #8
 857 0324 03EBC413 		add	r3, r3, r4, lsl #7
 858 0328 DB0D     		lsrs	r3, r3, #23
 859              	.LBE215:
 860              	.LBE220:
 161:Drivers/lvgl/src/draw/sw/lv_draw_sw_img.c ****                 }
 861              		.loc 1 161 34 view .LVU282
 862 032a 63F3C702 		bfi	r2, r3, #3, #5
 863 032e 00F8022B 		strb	r2, [r0], #2
 160:Drivers/lvgl/src/draw/sw/lv_draw_sw_img.c ****                     rgb_buf[i] = lv_color_mix_premult(premult_v, rgb_buf[i], recolor_opa);
 864              		.loc 1 160 43 is_stmt 1 view .LVU283
 160:Drivers/lvgl/src/draw/sw/lv_draw_sw_img.c ****                     rgb_buf[i] = lv_color_mix_premult(premult_v, rgb_buf[i], recolor_opa);
 865              		.loc 1 160 30 view .LVU284
 866 0332 8345     		cmp	fp, r0
 867 0334 F0D1     		bne	.L33
 868 0336 0898     		ldr	r0, [sp, #32]
 869              	.L34:
 161:Drivers/lvgl/src/draw/sw/lv_draw_sw_img.c ****                 }
 870              		.loc 1 161 21 discriminator 3 view .LVU285
 871              	.LVL64:
 872              	.LBB221:
 500:Drivers/lvgl/src/draw/sw/../../misc/lv_color.h **** {
 873              		.loc 3 500 48 discriminator 3 view .LVU286
 874              	.LBB216:
 502:Drivers/lvgl/src/draw/sw/../../misc/lv_color.h **** #if LV_COLOR_DEPTH != 1
 875              		.loc 3 502 5 discriminator 3 view .LVU287
 505:Drivers/lvgl/src/draw/sw/../../misc/lv_color.h ****     LV_COLOR_SET_G(ret, LV_UDIV255(premult_c1[1] + LV_COLOR_GET_G(c2) * mix + LV_COLOR_MIX_ROUND_OF
 876              		.loc 3 505 5 discriminator 3 view .LVU288
 506:Drivers/lvgl/src/draw/sw/../../misc/lv_color.h ****     LV_COLOR_SET_B(ret, LV_UDIV255(premult_c1[2] + LV_COLOR_GET_B(c2) * mix + LV_COLOR_MIX_ROUND_OF
 877              		.loc 3 506 5 discriminator 3 view .LVU289
 506:Drivers/lvgl/src/draw/sw/../../misc/lv_color.h ****     LV_COLOR_SET_B(ret, LV_UDIV255(premult_c1[2] + LV_COLOR_GET_B(c2) * mix + LV_COLOR_MIX_ROUND_OF
 878              		.loc 3 506 5 discriminator 3 view .LVU290
 506:Drivers/lvgl/src/draw/sw/../../misc/lv_color.h ****     LV_COLOR_SET_B(ret, LV_UDIV255(premult_c1[2] + LV_COLOR_GET_B(c2) * mix + LV_COLOR_MIX_ROUND_OF
 879              		.loc 3 506 103 discriminator 3 view .LVU291
 507:Drivers/lvgl/src/draw/sw/../../misc/lv_color.h ****     LV_COLOR_SET_A(ret, 0xFF);
 880              		.loc 3 507 5 discriminator 3 view .LVU292
 508:Drivers/lvgl/src/draw/sw/../../misc/lv_color.h **** #else
 881              		.loc 3 508 5 discriminator 3 view .LVU293
 508:Drivers/lvgl/src/draw/sw/../../misc/lv_color.h **** #else
 882              		.loc 3 508 5 discriminator 3 view .LVU294
 508:Drivers/lvgl/src/draw/sw/../../misc/lv_color.h **** #else
 883              		.loc 3 508 5 discriminator 3 view .LVU295
 884              		.loc 3 519 5 discriminator 3 view .LVU296
 507:Drivers/lvgl/src/draw/sw/../../misc/lv_color.h ****     LV_COLOR_SET_A(ret, 0xFF);
 885              		.loc 3 507 5 is_stmt 0 discriminator 3 view .LVU297
 886 0338 4278     		ldrb	r2, [r0, #1]	@ zero_extendqisi2
 887 033a 02F01F03 		and	r3, r2, #31
 888 033e 03FB0163 		mla	r3, r3, r1, r6
 889 0342 03EB0324 		add	r4, r3, r3, lsl #8
 890 0346 03EBC413 		add	r3, r3, r4, lsl #7
 891              	.LBE216:
 892              	.LBE221:
 160:Drivers/lvgl/src/draw/sw/lv_draw_sw_img.c ****                     rgb_buf[i] = lv_color_mix_premult(premult_v, rgb_buf[i], recolor_opa);
 893              		.loc 1 160 30 discriminator 3 view .LVU298
 894 034a 0230     		adds	r0, r0, #2
 895              	.LBB222:
ARM GAS  /var/folders/0z/tsy30v1j4xl4_7kw94k978ww0000gn/T//ccRgGdZF.s 			page 37


 896              	.LBB217:
 507:Drivers/lvgl/src/draw/sw/../../misc/lv_color.h ****     LV_COLOR_SET_A(ret, 0xFF);
 897              		.loc 3 507 5 discriminator 3 view .LVU299
 898 034c DB0D     		lsrs	r3, r3, #23
 899              	.LBE217:
 900              	.LBE222:
 161:Drivers/lvgl/src/draw/sw/lv_draw_sw_img.c ****                 }
 901              		.loc 1 161 34 discriminator 3 view .LVU300
 902 034e 63F30402 		bfi	r2, r3, #0, #5
 160:Drivers/lvgl/src/draw/sw/lv_draw_sw_img.c ****                     rgb_buf[i] = lv_color_mix_premult(premult_v, rgb_buf[i], recolor_opa);
 903              		.loc 1 160 30 discriminator 3 view .LVU301
 904 0352 8345     		cmp	fp, r0
 161:Drivers/lvgl/src/draw/sw/lv_draw_sw_img.c ****                 }
 905              		.loc 1 161 34 discriminator 3 view .LVU302
 906 0354 00F8012C 		strb	r2, [r0, #-1]
 160:Drivers/lvgl/src/draw/sw/lv_draw_sw_img.c ****                     rgb_buf[i] = lv_color_mix_premult(premult_v, rgb_buf[i], recolor_opa);
 907              		.loc 1 160 43 is_stmt 1 discriminator 3 view .LVU303
 160:Drivers/lvgl/src/draw/sw/lv_draw_sw_img.c ****                     rgb_buf[i] = lv_color_mix_premult(premult_v, rgb_buf[i], recolor_opa);
 908              		.loc 1 160 30 discriminator 3 view .LVU304
 909 0358 EED1     		bne	.L34
 910              	.LBE202:
 166:Drivers/lvgl/src/draw/sw/lv_draw_sw_img.c ****                 lv_coord_t y;
 911              		.loc 1 166 13 view .LVU305
 166:Drivers/lvgl/src/draw/sw/lv_draw_sw_img.c ****                 lv_coord_t y;
 912              		.loc 1 166 15 is_stmt 0 view .LVU306
 913 035a 0E9B     		ldr	r3, [sp, #56]
 914 035c 002B     		cmp	r3, #0
 915 035e 3FF4FAAE 		beq	.L39
 916              	.LVL65:
 917              	.L36:
 918              	.LBB223:
 167:Drivers/lvgl/src/draw/sw/lv_draw_sw_img.c ****                 lv_opa_t * mask_buf_tmp = mask_buf;
 919              		.loc 1 167 17 is_stmt 1 view .LVU307
 168:Drivers/lvgl/src/draw/sw/lv_draw_sw_img.c ****                 for(y = blend_area.y1; y <= blend_area.y2; y++) {
 920              		.loc 1 168 17 view .LVU308
 169:Drivers/lvgl/src/draw/sw/lv_draw_sw_img.c ****                     lv_draw_mask_res_t mask_res_line;
 921              		.loc 1 169 17 view .LVU309
 169:Drivers/lvgl/src/draw/sw/lv_draw_sw_img.c ****                     lv_draw_mask_res_t mask_res_line;
 922              		.loc 1 169 23 is_stmt 0 view .LVU310
 923 0362 BDF96E60 		ldrsh	r6, [sp, #110]
 924              	.LVL66:
 169:Drivers/lvgl/src/draw/sw/lv_draw_sw_img.c ****                     lv_draw_mask_res_t mask_res_line;
 925              		.loc 1 169 42 is_stmt 1 view .LVU311
 926 0366 BDF97230 		ldrsh	r3, [sp, #114]
 927 036a B342     		cmp	r3, r6
 928 036c FFF6F3AE 		blt	.L39
 168:Drivers/lvgl/src/draw/sw/lv_draw_sw_img.c ****                 for(y = blend_area.y1; y <= blend_area.y2; y++) {
 929              		.loc 1 168 28 is_stmt 0 view .LVU312
 930 0370 099C     		ldr	r4, [sp, #36]
 931              	.LBB224:
 175:Drivers/lvgl/src/draw/sw/lv_draw_sw_img.c ****                     }
 932              		.loc 1 175 44 view .LVU313
 933 0372 0225     		movs	r5, #2
 934 0374 0BE0     		b	.L42
 935              	.LVL67:
 936              	.L40:
 177:Drivers/lvgl/src/draw/sw/lv_draw_sw_img.c ****                         blend_dsc.mask_res = LV_DRAW_MASK_RES_CHANGED;
ARM GAS  /var/folders/0z/tsy30v1j4xl4_7kw94k978ww0000gn/T//ccRgGdZF.s 			page 38


 937              		.loc 1 177 28 view .LVU314
 938 0376 0228     		cmp	r0, #2
 178:Drivers/lvgl/src/draw/sw/lv_draw_sw_img.c ****                     }
 939              		.loc 1 178 25 is_stmt 1 view .LVU315
 178:Drivers/lvgl/src/draw/sw/lv_draw_sw_img.c ****                     }
 940              		.loc 1 178 44 is_stmt 0 view .LVU316
 941 0378 08BF     		it	eq
 942 037a 8DF88C00 		strbeq	r0, [sp, #140]
 943              	.LVL68:
 944              	.L41:
 180:Drivers/lvgl/src/draw/sw/lv_draw_sw_img.c ****                 }
 945              		.loc 1 180 21 is_stmt 1 discriminator 2 view .LVU317
 946              	.LBE224:
 169:Drivers/lvgl/src/draw/sw/lv_draw_sw_img.c ****                     lv_draw_mask_res_t mask_res_line;
 947              		.loc 1 169 42 is_stmt 0 discriminator 2 view .LVU318
 948 037e BDF97230 		ldrsh	r3, [sp, #114]
 949 0382 0136     		adds	r6, r6, #1
 950              	.LVL69:
 169:Drivers/lvgl/src/draw/sw/lv_draw_sw_img.c ****                     lv_draw_mask_res_t mask_res_line;
 951              		.loc 1 169 42 discriminator 2 view .LVU319
 952 0384 36B2     		sxth	r6, r6
 953 0386 B342     		cmp	r3, r6
 954              	.LBB225:
 180:Drivers/lvgl/src/draw/sw/lv_draw_sw_img.c ****                 }
 955              		.loc 1 180 34 discriminator 2 view .LVU320
 956 0388 5444     		add	r4, r4, r10
 957              	.LVL70:
 180:Drivers/lvgl/src/draw/sw/lv_draw_sw_img.c ****                 }
 958              		.loc 1 180 34 discriminator 2 view .LVU321
 959              	.LBE225:
 169:Drivers/lvgl/src/draw/sw/lv_draw_sw_img.c ****                     lv_draw_mask_res_t mask_res_line;
 960              		.loc 1 169 61 is_stmt 1 discriminator 2 view .LVU322
 169:Drivers/lvgl/src/draw/sw/lv_draw_sw_img.c ****                     lv_draw_mask_res_t mask_res_line;
 961              		.loc 1 169 42 discriminator 2 view .LVU323
 962 038a FFF6E4AE 		blt	.L39
 963              	.LVL71:
 964              	.L42:
 965              	.LBB226:
 170:Drivers/lvgl/src/draw/sw/lv_draw_sw_img.c ****                     mask_res_line = lv_draw_mask_apply(mask_buf_tmp, blend_area.x1, y, blend_w);
 966              		.loc 1 170 21 view .LVU324
 171:Drivers/lvgl/src/draw/sw/lv_draw_sw_img.c **** 
 967              		.loc 1 171 21 view .LVU325
 171:Drivers/lvgl/src/draw/sw/lv_draw_sw_img.c **** 
 968              		.loc 1 171 37 is_stmt 0 view .LVU326
 969 038e BDF96C10 		ldrsh	r1, [sp, #108]
 970 0392 3246     		mov	r2, r6
 971 0394 5346     		mov	r3, r10
 972 0396 2046     		mov	r0, r4
 973 0398 FFF7FEFF 		bl	lv_draw_mask_apply
 974              	.LVL72:
 177:Drivers/lvgl/src/draw/sw/lv_draw_sw_img.c ****                         blend_dsc.mask_res = LV_DRAW_MASK_RES_CHANGED;
 975              		.loc 1 177 26 is_stmt 1 view .LVU327
 173:Drivers/lvgl/src/draw/sw/lv_draw_sw_img.c ****                         lv_memset_00(mask_buf_tmp, blend_w);
 976              		.loc 1 173 21 view .LVU328
 173:Drivers/lvgl/src/draw/sw/lv_draw_sw_img.c ****                         lv_memset_00(mask_buf_tmp, blend_w);
 977              		.loc 1 173 23 is_stmt 0 view .LVU329
 978 039c 0028     		cmp	r0, #0
ARM GAS  /var/folders/0z/tsy30v1j4xl4_7kw94k978ww0000gn/T//ccRgGdZF.s 			page 39


 979 039e EAD1     		bne	.L40
 174:Drivers/lvgl/src/draw/sw/lv_draw_sw_img.c ****                         blend_dsc.mask_res = LV_DRAW_MASK_RES_CHANGED;
 980              		.loc 1 174 25 is_stmt 1 view .LVU330
 981 03a0 5146     		mov	r1, r10
 982 03a2 2046     		mov	r0, r4
 983              	.LVL73:
 174:Drivers/lvgl/src/draw/sw/lv_draw_sw_img.c ****                         blend_dsc.mask_res = LV_DRAW_MASK_RES_CHANGED;
 984              		.loc 1 174 25 is_stmt 0 view .LVU331
 985 03a4 FFF7FEFF 		bl	lv_memset_00
 986              	.LVL74:
 175:Drivers/lvgl/src/draw/sw/lv_draw_sw_img.c ****                     }
 987              		.loc 1 175 25 is_stmt 1 view .LVU332
 175:Drivers/lvgl/src/draw/sw/lv_draw_sw_img.c ****                     }
 988              		.loc 1 175 44 is_stmt 0 view .LVU333
 989 03a8 8DF88C50 		strb	r5, [sp, #140]
 990 03ac E7E7     		b	.L41
 991              	.LVL75:
 992              	.L14:
 175:Drivers/lvgl/src/draw/sw/lv_draw_sw_img.c ****                     }
 993              		.loc 1 175 44 view .LVU334
 994              	.LBE226:
 995              	.LBE223:
 996              	.LBB227:
 997              	.LBB192:
 998              	.LBB165:
 278:Drivers/lvgl/src/draw/sw/lv_draw_sw_img.c **** 
 999              		.loc 1 278 9 is_stmt 1 view .LVU335
 1000              	.LBB141:
 1001              	.LBB142:
 1002              		.loc 2 135 49 is_stmt 0 view .LVU336
 1003 03ae BDF87A50 		ldrh	r5, [sp, #122]
 1004              	.LBE142:
 1005              	.LBE141:
 278:Drivers/lvgl/src/draw/sw/lv_draw_sw_img.c **** 
 1006              		.loc 1 278 44 view .LVU337
 1007 03b2 BDF97630 		ldrsh	r3, [sp, #118]
 1008              	.LBB146:
 1009              	.LBB147:
 125:Drivers/lvgl/src/draw/sw/../../misc/lv_area.h **** }
 1010              		.loc 2 125 49 view .LVU338
 1011 03b6 BDF87860 		ldrh	r6, [sp, #120]
 1012              	.LBE147:
 1013              	.LBE146:
 278:Drivers/lvgl/src/draw/sw/lv_draw_sw_img.c **** 
 1014              		.loc 1 278 82 view .LVU339
 1015 03ba BDF97420 		ldrsh	r2, [sp, #116]
 278:Drivers/lvgl/src/draw/sw/lv_draw_sw_img.c **** 
 1016              		.loc 1 278 71 view .LVU340
 1017 03be 0D99     		ldr	r1, [sp, #52]
 1018              	.LBB151:
 1019              	.LBB143:
 1020              		.loc 2 135 49 view .LVU341
 1021 03c0 0135     		adds	r5, r5, #1
 1022 03c2 ED1A     		subs	r5, r5, r3
 1023              	.LBE143:
 1024              	.LBE151:
 1025              	.LBB152:
ARM GAS  /var/folders/0z/tsy30v1j4xl4_7kw94k978ww0000gn/T//ccRgGdZF.s 			page 40


 1026              	.LBB148:
 125:Drivers/lvgl/src/draw/sw/../../misc/lv_area.h **** }
 1027              		.loc 2 125 49 view .LVU342
 1028 03c4 0136     		adds	r6, r6, #1
 1029              	.LBE148:
 1030              	.LBE152:
 278:Drivers/lvgl/src/draw/sw/lv_draw_sw_img.c **** 
 1031              		.loc 1 278 71 view .LVU343
 1032 03c6 01FB0323 		mla	r3, r1, r3, r2
 1033              	.LBB153:
 1034              	.LBB149:
 125:Drivers/lvgl/src/draw/sw/../../misc/lv_area.h **** }
 1035              		.loc 2 125 49 view .LVU344
 1036 03ca B61A     		subs	r6, r6, r2
 1037              	.LBE149:
 1038              	.LBE153:
 1039              	.LBB154:
 1040              	.LBB144:
 1041              		.loc 2 135 12 view .LVU345
 1042 03cc 2DB2     		sxth	r5, r5
 1043              	.LBE144:
 1044              	.LBE154:
 278:Drivers/lvgl/src/draw/sw/lv_draw_sw_img.c **** 
 1045              		.loc 1 278 18 view .LVU346
 1046 03ce 18EE102A 		vmov	r2, s16	@ int
 284:Drivers/lvgl/src/draw/sw/lv_draw_sw_img.c ****             lv_memcpy(cbuf, src_tmp8, dest_w * sizeof(lv_color_t));
 1047              		.loc 1 284 22 view .LVU347
 1048 03d2 002D     		cmp	r5, #0
 278:Drivers/lvgl/src/draw/sw/lv_draw_sw_img.c **** 
 1049              		.loc 1 278 18 view .LVU348
 1050 03d4 02EB4304 		add	r4, r2, r3, lsl #1
 1051              	.LVL76:
 280:Drivers/lvgl/src/draw/sw/lv_draw_sw_img.c **** 
 1052              		.loc 1 280 9 is_stmt 1 view .LVU349
 282:Drivers/lvgl/src/draw/sw/lv_draw_sw_img.c ****         lv_coord_t dest_w = lv_area_get_width(dest_area);
 1053              		.loc 1 282 9 view .LVU350
 1054              	.LBB155:
 1055              	.LBI141:
 133:Drivers/lvgl/src/draw/sw/../../misc/lv_area.h **** {
 1056              		.loc 2 133 26 view .LVU351
 1057              	.LBB145:
 1058              		.loc 2 135 5 view .LVU352
 1059              		.loc 2 135 5 is_stmt 0 view .LVU353
 1060              	.LBE145:
 1061              	.LBE155:
 283:Drivers/lvgl/src/draw/sw/lv_draw_sw_img.c ****         for(y = 0; y < dest_h; y++) {
 1062              		.loc 1 283 9 is_stmt 1 view .LVU354
 1063              	.LBB156:
 1064              	.LBI146:
 123:Drivers/lvgl/src/draw/sw/../../misc/lv_area.h **** {
 1065              		.loc 2 123 26 view .LVU355
 1066              	.LBB150:
 125:Drivers/lvgl/src/draw/sw/../../misc/lv_area.h **** }
 1067              		.loc 2 125 5 view .LVU356
 125:Drivers/lvgl/src/draw/sw/../../misc/lv_area.h **** }
 1068              		.loc 2 125 12 is_stmt 0 view .LVU357
 1069 03d8 36B2     		sxth	r6, r6
ARM GAS  /var/folders/0z/tsy30v1j4xl4_7kw94k978ww0000gn/T//ccRgGdZF.s 			page 41


 1070              	.LVL77:
 125:Drivers/lvgl/src/draw/sw/../../misc/lv_area.h **** }
 1071              		.loc 2 125 12 view .LVU358
 1072              	.LBE150:
 1073              	.LBE156:
 284:Drivers/lvgl/src/draw/sw/lv_draw_sw_img.c ****             lv_memcpy(cbuf, src_tmp8, dest_w * sizeof(lv_color_t));
 1074              		.loc 1 284 9 is_stmt 1 view .LVU359
 284:Drivers/lvgl/src/draw/sw/lv_draw_sw_img.c ****             lv_memcpy(cbuf, src_tmp8, dest_w * sizeof(lv_color_t));
 1075              		.loc 1 284 22 view .LVU360
 1076 03da 7FF7B3AE 		ble	.L13
 1077              	.LVL78:
 285:Drivers/lvgl/src/draw/sw/lv_draw_sw_img.c ****             cbuf += dest_w;
 1078              		.loc 1 285 13 is_stmt 0 view .LVU361
 1079 03de 7200     		lsls	r2, r6, #1
 1080              	.LVL79:
 285:Drivers/lvgl/src/draw/sw/lv_draw_sw_img.c ****             cbuf += dest_w;
 1081              		.loc 1 285 13 view .LVU362
 1082              	.LBE165:
 1083              	.LBB166:
 227:Drivers/lvgl/src/draw/sw/lv_draw_sw_img.c ****             cbuf_tmp += dest_w;
 1084              		.loc 1 227 22 view .LVU363
 1085 03e0 1696     		str	r6, [sp, #88]
 1086 03e2 DDF82080 		ldr	r8, [sp, #32]
 1087 03e6 139E     		ldr	r6, [sp, #76]
 1088              	.LVL80:
 227:Drivers/lvgl/src/draw/sw/lv_draw_sw_img.c ****             cbuf_tmp += dest_w;
 1089              		.loc 1 227 22 view .LVU364
 1090 03e8 CDF85CB0 		str	fp, [sp, #92]
 1091 03ec 0027     		movs	r7, #0
 1092 03ee AB46     		mov	fp, r5
 1093 03f0 1546     		mov	r5, r2
 1094              	.LVL81:
 1095              	.L27:
 227:Drivers/lvgl/src/draw/sw/lv_draw_sw_img.c ****             cbuf_tmp += dest_w;
 1096              		.loc 1 227 22 view .LVU365
 1097              	.LBE166:
 1098              	.LBB167:
 285:Drivers/lvgl/src/draw/sw/lv_draw_sw_img.c ****             cbuf += dest_w;
 1099              		.loc 1 285 13 is_stmt 1 view .LVU366
 1100 03f2 2146     		mov	r1, r4
 1101 03f4 4046     		mov	r0, r8
 284:Drivers/lvgl/src/draw/sw/lv_draw_sw_img.c ****             lv_memcpy(cbuf, src_tmp8, dest_w * sizeof(lv_color_t));
 1102              		.loc 1 284 22 is_stmt 0 view .LVU367
 1103 03f6 0137     		adds	r7, r7, #1
 1104              	.LVL82:
 285:Drivers/lvgl/src/draw/sw/lv_draw_sw_img.c ****             cbuf += dest_w;
 1105              		.loc 1 285 13 view .LVU368
 1106 03f8 2A46     		mov	r2, r5
 1107 03fa FFF7FEFF 		bl	lv_memcpy
 1108              	.LVL83:
 286:Drivers/lvgl/src/draw/sw/lv_draw_sw_img.c ****             src_tmp8 += src_stride_byte;
 1109              		.loc 1 286 13 is_stmt 1 view .LVU369
 284:Drivers/lvgl/src/draw/sw/lv_draw_sw_img.c ****             lv_memcpy(cbuf, src_tmp8, dest_w * sizeof(lv_color_t));
 1110              		.loc 1 284 22 is_stmt 0 view .LVU370
 1111 03fe 3BB2     		sxth	r3, r7
 1112 0400 9B45     		cmp	fp, r3
 287:Drivers/lvgl/src/draw/sw/lv_draw_sw_img.c ****         }
ARM GAS  /var/folders/0z/tsy30v1j4xl4_7kw94k978ww0000gn/T//ccRgGdZF.s 			page 42


 1113              		.loc 1 287 22 view .LVU371
 1114 0402 3444     		add	r4, r4, r6
 1115              	.LVL84:
 286:Drivers/lvgl/src/draw/sw/lv_draw_sw_img.c ****             src_tmp8 += src_stride_byte;
 1116              		.loc 1 286 18 view .LVU372
 1117 0404 A844     		add	r8, r8, r5
 1118              	.LVL85:
 287:Drivers/lvgl/src/draw/sw/lv_draw_sw_img.c ****         }
 1119              		.loc 1 287 13 is_stmt 1 view .LVU373
 284:Drivers/lvgl/src/draw/sw/lv_draw_sw_img.c ****             lv_memcpy(cbuf, src_tmp8, dest_w * sizeof(lv_color_t));
 1120              		.loc 1 284 33 view .LVU374
 284:Drivers/lvgl/src/draw/sw/lv_draw_sw_img.c ****             lv_memcpy(cbuf, src_tmp8, dest_w * sizeof(lv_color_t));
 1121              		.loc 1 284 22 view .LVU375
 1122 0406 F4DC     		bgt	.L27
 292:Drivers/lvgl/src/draw/sw/lv_draw_sw_img.c ****         src_tmp8 += src_stride * dest_area->y1 + dest_area->x1;
 1123              		.loc 1 292 48 is_stmt 0 view .LVU376
 1124 0408 BDF97430 		ldrsh	r3, [sp, #116]
 1125 040c 0D9A     		ldr	r2, [sp, #52]
 1126 040e BDF87640 		ldrh	r4, [sp, #118]
 1127              	.LVL86:
 1128              		.loc 1 292 18 view .LVU377
 1129 0412 DDF82480 		ldr	r8, [sp, #36]
 1130              	.LVL87:
 1131              		.loc 1 292 48 view .LVU378
 1132 0416 12FB0434 		smlabb	r4, r2, r4, r3
 1133              		.loc 1 292 18 view .LVU379
 1134 041a 159B     		ldr	r3, [sp, #84]
 1135 041c 5D46     		mov	r5, fp
 1136 041e DDE9166B 		ldrd	r6, fp, [sp, #88]
 1137              	.LVL88:
 290:Drivers/lvgl/src/draw/sw/lv_draw_sw_img.c ****         src_tmp8 += sizeof(lv_color_t) * src_w * src_h;
 1138              		.loc 1 290 9 is_stmt 1 view .LVU380
 291:Drivers/lvgl/src/draw/sw/lv_draw_sw_img.c ****         src_tmp8 += src_stride * dest_area->y1 + dest_area->x1;
 1139              		.loc 1 291 9 view .LVU381
 1140              		.loc 1 292 9 view .LVU382
 1141              		.loc 1 292 18 is_stmt 0 view .LVU383
 1142 0422 1C44     		add	r4, r4, r3
 1143 0424 18EE103A 		vmov	r3, s16	@ int
 1144 0428 CDF858B0 		str	fp, [sp, #88]
 1145              	.LVL89:
 1146              		.loc 1 292 18 view .LVU384
 1147 042c 1C44     		add	r4, r4, r3
 1148              	.LVL90:
 293:Drivers/lvgl/src/draw/sw/lv_draw_sw_img.c ****         for(y = 0; y < dest_h; y++) {
 1149              		.loc 1 293 9 is_stmt 1 view .LVU385
 1150              		.loc 1 293 22 view .LVU386
 1151 042e AB46     		mov	fp, r5
 292:Drivers/lvgl/src/draw/sw/lv_draw_sw_img.c ****         for(y = 0; y < dest_h; y++) {
 1152              		.loc 1 292 18 is_stmt 0 view .LVU387
 1153 0430 0027     		movs	r7, #0
 1154 0432 1546     		mov	r5, r2
 1155              	.LVL91:
 1156              	.L29:
 294:Drivers/lvgl/src/draw/sw/lv_draw_sw_img.c ****             lv_memcpy(abuf, src_tmp8, dest_w);
 1157              		.loc 1 294 13 is_stmt 1 view .LVU388
 1158 0434 2146     		mov	r1, r4
 1159 0436 4046     		mov	r0, r8
ARM GAS  /var/folders/0z/tsy30v1j4xl4_7kw94k978ww0000gn/T//ccRgGdZF.s 			page 43


 293:Drivers/lvgl/src/draw/sw/lv_draw_sw_img.c ****         for(y = 0; y < dest_h; y++) {
 1160              		.loc 1 293 22 is_stmt 0 view .LVU389
 1161 0438 0137     		adds	r7, r7, #1
 1162              	.LVL92:
 1163              		.loc 1 294 13 view .LVU390
 1164 043a 3246     		mov	r2, r6
 1165 043c FFF7FEFF 		bl	lv_memcpy
 1166              	.LVL93:
 295:Drivers/lvgl/src/draw/sw/lv_draw_sw_img.c ****             abuf += dest_w;
 1167              		.loc 1 295 13 is_stmt 1 view .LVU391
 293:Drivers/lvgl/src/draw/sw/lv_draw_sw_img.c ****             lv_memcpy(abuf, src_tmp8, dest_w);
 1168              		.loc 1 293 22 is_stmt 0 view .LVU392
 1169 0440 3BB2     		sxth	r3, r7
 1170 0442 9B45     		cmp	fp, r3
 296:Drivers/lvgl/src/draw/sw/lv_draw_sw_img.c ****             src_tmp8 += src_stride;
 1171              		.loc 1 296 22 view .LVU393
 1172 0444 2C44     		add	r4, r4, r5
 1173              	.LVL94:
 295:Drivers/lvgl/src/draw/sw/lv_draw_sw_img.c ****             abuf += dest_w;
 1174              		.loc 1 295 18 view .LVU394
 1175 0446 B044     		add	r8, r8, r6
 1176              	.LVL95:
 1177              		.loc 1 296 13 is_stmt 1 view .LVU395
 293:Drivers/lvgl/src/draw/sw/lv_draw_sw_img.c ****             lv_memcpy(abuf, src_tmp8, dest_w);
 1178              		.loc 1 293 33 view .LVU396
 293:Drivers/lvgl/src/draw/sw/lv_draw_sw_img.c ****             lv_memcpy(abuf, src_tmp8, dest_w);
 1179              		.loc 1 293 22 view .LVU397
 1180 0448 F4DC     		bgt	.L29
 1181 044a DDF858B0 		ldr	fp, [sp, #88]
 1182              	.LVL96:
 293:Drivers/lvgl/src/draw/sw/lv_draw_sw_img.c ****             lv_memcpy(abuf, src_tmp8, dest_w);
 1183              		.loc 1 293 22 is_stmt 0 view .LVU398
 1184 044e 79E6     		b	.L13
 1185              	.LVL97:
 1186              	.L17:
 293:Drivers/lvgl/src/draw/sw/lv_draw_sw_img.c ****             lv_memcpy(abuf, src_tmp8, dest_w);
 1187              		.loc 1 293 22 view .LVU399
 1188              	.LBE167:
 1189              	.LBB168:
 251:Drivers/lvgl/src/draw/sw/lv_draw_sw_img.c **** 
 1190              		.loc 1 251 9 is_stmt 1 view .LVU400
 1191              	.LBB169:
 1192              	.LBB170:
 1193              		.loc 2 135 49 is_stmt 0 view .LVU401
 1194 0450 BDF87A30 		ldrh	r3, [sp, #122]
 1195              	.LBE170:
 1196              	.LBE169:
 251:Drivers/lvgl/src/draw/sw/lv_draw_sw_img.c **** 
 1197              		.loc 1 251 44 view .LVU402
 1198 0454 BDF97660 		ldrsh	r6, [sp, #118]
 251:Drivers/lvgl/src/draw/sw/lv_draw_sw_img.c **** 
 1199              		.loc 1 251 89 view .LVU403
 1200 0458 BDF97410 		ldrsh	r1, [sp, #116]
 251:Drivers/lvgl/src/draw/sw/lv_draw_sw_img.c **** 
 1201              		.loc 1 251 78 view .LVU404
 1202 045c 0D98     		ldr	r0, [sp, #52]
 1203              	.LBB174:
ARM GAS  /var/folders/0z/tsy30v1j4xl4_7kw94k978ww0000gn/T//ccRgGdZF.s 			page 44


 1204              	.LBB175:
 125:Drivers/lvgl/src/draw/sw/../../misc/lv_area.h **** }
 1205              		.loc 2 125 31 view .LVU405
 1206 045e BDF87820 		ldrh	r2, [sp, #120]
 1207              	.LBE175:
 1208              	.LBE174:
 1209              	.LBB182:
 1210              	.LBB171:
 1211              		.loc 2 135 49 view .LVU406
 1212 0462 0133     		adds	r3, r3, #1
 1213 0464 9B1B     		subs	r3, r3, r6
 1214              	.LBE171:
 1215              	.LBE182:
 251:Drivers/lvgl/src/draw/sw/lv_draw_sw_img.c **** 
 1216              		.loc 1 251 78 view .LVU407
 1217 0466 00FB0616 		mla	r6, r0, r6, r1
 1218              	.LBB183:
 1219              	.LBB172:
 1220              		.loc 2 135 12 view .LVU408
 1221 046a 18B2     		sxth	r0, r3
 1222              	.LBE172:
 1223              	.LBE183:
 251:Drivers/lvgl/src/draw/sw/lv_draw_sw_img.c **** 
 1224              		.loc 1 251 18 view .LVU409
 1225 046c 18EE103A 		vmov	r3, s16	@ int
 1226              	.LBB184:
 1227              	.LBB176:
 125:Drivers/lvgl/src/draw/sw/../../misc/lv_area.h **** }
 1228              		.loc 2 125 44 view .LVU410
 1229 0470 89B2     		uxth	r1, r1
 1230              	.LBE176:
 1231              	.LBE184:
 251:Drivers/lvgl/src/draw/sw/lv_draw_sw_img.c **** 
 1232              		.loc 1 251 78 view .LVU411
 1233 0472 06EB4606 		add	r6, r6, r6, lsl #1
 1234              	.LBB185:
 1235              	.LBB177:
 125:Drivers/lvgl/src/draw/sw/../../misc/lv_area.h **** }
 1236              		.loc 2 125 49 view .LVU412
 1237 0476 571C     		adds	r7, r2, #1
 1238              	.LBE177:
 1239              	.LBE185:
 251:Drivers/lvgl/src/draw/sw/lv_draw_sw_img.c **** 
 1240              		.loc 1 251 18 view .LVU413
 1241 0478 1E44     		add	r6, r6, r3
 1242              	.LVL98:
 253:Drivers/lvgl/src/draw/sw/lv_draw_sw_img.c ****         lv_coord_t src_new_line_step_byte = src_new_line_step_px * LV_IMG_PX_SIZE_ALPHA_BYTE;
 1243              		.loc 1 253 9 is_stmt 1 view .LVU414
 1244              	.LBB186:
 1245              	.LBI174:
 123:Drivers/lvgl/src/draw/sw/../../misc/lv_area.h **** {
 1246              		.loc 2 123 26 view .LVU415
 1247              	.LBB178:
 125:Drivers/lvgl/src/draw/sw/../../misc/lv_area.h **** }
 1248              		.loc 2 125 5 view .LVU416
 1249              	.LBE178:
 1250              	.LBE186:
ARM GAS  /var/folders/0z/tsy30v1j4xl4_7kw94k978ww0000gn/T//ccRgGdZF.s 			page 45


 253:Drivers/lvgl/src/draw/sw/lv_draw_sw_img.c ****         lv_coord_t src_new_line_step_byte = src_new_line_step_px * LV_IMG_PX_SIZE_ALPHA_BYTE;
 1251              		.loc 1 253 55 is_stmt 0 view .LVU417
 1252 047a 8B1A     		subs	r3, r1, r2
 1253 047c 149A     		ldr	r2, [sp, #80]
 1254 047e 1344     		add	r3, r3, r2
 1255              	.LBB187:
 1256              	.LBB179:
 125:Drivers/lvgl/src/draw/sw/../../misc/lv_area.h **** }
 1257              		.loc 2 125 49 view .LVU418
 1258 0480 7F1A     		subs	r7, r7, r1
 1259              	.LBE179:
 1260              	.LBE187:
 254:Drivers/lvgl/src/draw/sw/lv_draw_sw_img.c **** 
 1261              		.loc 1 254 66 view .LVU419
 1262 0482 03EB4303 		add	r3, r3, r3, lsl #1
 258:Drivers/lvgl/src/draw/sw/lv_draw_sw_img.c ****             for(x = 0; x < dest_w; x++) {
 1263              		.loc 1 258 22 view .LVU420
 1264 0486 0028     		cmp	r0, #0
 1265              	.LBB188:
 1266              	.LBB180:
 125:Drivers/lvgl/src/draw/sw/../../misc/lv_area.h **** }
 1267              		.loc 2 125 49 view .LVU421
 1268 0488 BAB2     		uxth	r2, r7
 1269              	.LBE180:
 1270              	.LBE188:
 254:Drivers/lvgl/src/draw/sw/lv_draw_sw_img.c **** 
 1271              		.loc 1 254 20 view .LVU422
 1272 048a 1BB2     		sxth	r3, r3
 1273              	.LBB189:
 1274              	.LBB181:
 125:Drivers/lvgl/src/draw/sw/../../misc/lv_area.h **** }
 1275              		.loc 2 125 12 view .LVU423
 1276 048c 3FB2     		sxth	r7, r7
 1277              	.LVL99:
 125:Drivers/lvgl/src/draw/sw/../../misc/lv_area.h **** }
 1278              		.loc 2 125 12 view .LVU424
 1279              	.LBE181:
 1280              	.LBE189:
 254:Drivers/lvgl/src/draw/sw/lv_draw_sw_img.c **** 
 1281              		.loc 1 254 9 is_stmt 1 view .LVU425
 256:Drivers/lvgl/src/draw/sw/lv_draw_sw_img.c ****         lv_coord_t dest_w = lv_area_get_width(dest_area);
 1282              		.loc 1 256 9 view .LVU426
 1283              	.LBB190:
 1284              	.LBI169:
 133:Drivers/lvgl/src/draw/sw/../../misc/lv_area.h **** {
 1285              		.loc 2 133 26 view .LVU427
 1286              	.LBB173:
 1287              		.loc 2 135 5 view .LVU428
 1288              		.loc 2 135 5 is_stmt 0 view .LVU429
 1289              	.LBE173:
 1290              	.LBE190:
 257:Drivers/lvgl/src/draw/sw/lv_draw_sw_img.c ****         for(y = 0; y < dest_h; y++) {
 1291              		.loc 1 257 9 is_stmt 1 view .LVU430
 258:Drivers/lvgl/src/draw/sw/lv_draw_sw_img.c ****             for(x = 0; x < dest_w; x++) {
 1292              		.loc 1 258 9 view .LVU431
 258:Drivers/lvgl/src/draw/sw/lv_draw_sw_img.c ****             for(x = 0; x < dest_w; x++) {
 1293              		.loc 1 258 22 view .LVU432
ARM GAS  /var/folders/0z/tsy30v1j4xl4_7kw94k978ww0000gn/T//ccRgGdZF.s 			page 46


 1294 048e 0146     		mov	r1, r0
 1295              	.LVL100:
 258:Drivers/lvgl/src/draw/sw/lv_draw_sw_img.c ****             for(x = 0; x < dest_w; x++) {
 1296              		.loc 1 258 22 is_stmt 0 view .LVU433
 1297 0490 7FF758AE 		ble	.L13
 1298 0494 002F     		cmp	r7, #0
 272:Drivers/lvgl/src/draw/sw/lv_draw_sw_img.c ****             abuf += dest_w;
 1299              		.loc 1 272 18 view .LVU434
 1300 0496 4FEA4700 		lsl	r0, r7, #1
 1301              	.LVL101:
 272:Drivers/lvgl/src/draw/sw/lv_draw_sw_img.c ****             abuf += dest_w;
 1302              		.loc 1 272 18 view .LVU435
 1303 049a 7FF753AE 		ble	.L13
 1304 049e 551E     		subs	r5, r2, #1
 1305 04a0 ADB2     		uxth	r5, r5
 1306 04a2 05EB4502 		add	r2, r5, r5, lsl #1
 1307 04a6 1344     		add	r3, r3, r2
 1308              	.LVL102:
 272:Drivers/lvgl/src/draw/sw/lv_draw_sw_img.c ****             abuf += dest_w;
 1309              		.loc 1 272 18 view .LVU436
 1310 04a8 099A     		ldr	r2, [sp, #36]
 274:Drivers/lvgl/src/draw/sw/lv_draw_sw_img.c ****         }
 1311              		.loc 1 274 22 view .LVU437
 1312 04aa DDF82080 		ldr	r8, [sp, #32]
 1313 04ae CDF858B0 		str	fp, [sp, #88]
 1314 04b2 0333     		adds	r3, r3, #3
 1315 04b4 07EE90AA 		vmov	s15, r10	@ int
 1316 04b8 07EE109A 		vmov	s14, r9	@ int
 1317 04bc 1544     		add	r5, r5, r2
 1318 04be 9646     		mov	lr, r2
 1319 04c0 4FF0000C 		mov	ip, #0
 1320 04c4 8B46     		mov	fp, r1
 1321 04c6 8146     		mov	r9, r0
 1322              	.LVL103:
 274:Drivers/lvgl/src/draw/sw/lv_draw_sw_img.c ****         }
 1323              		.loc 1 274 22 view .LVU438
 1324 04c8 9A46     		mov	r10, r3
 1325              	.LVL104:
 1326              	.L25:
 259:Drivers/lvgl/src/draw/sw/lv_draw_sw_img.c ****                 abuf[x] = src_tmp8[LV_IMG_PX_SIZE_ALPHA_BYTE - 1];
 1327              		.loc 1 259 26 is_stmt 1 view .LVU439
 1328 04ca F31C     		adds	r3, r6, #3
 1329 04cc 0EF1FF31 		add	r1, lr, #-1
 1330 04d0 A8F10200 		sub	r0, r8, #2
 1331              	.LVL105:
 1332              	.L26:
 260:Drivers/lvgl/src/draw/sw/lv_draw_sw_img.c **** #if LV_COLOR_DEPTH == 8 || LV_COLOR_DEPTH == 1
 1333              		.loc 1 260 17 view .LVU440
 260:Drivers/lvgl/src/draw/sw/lv_draw_sw_img.c **** #if LV_COLOR_DEPTH == 8 || LV_COLOR_DEPTH == 1
 1334              		.loc 1 260 35 is_stmt 0 view .LVU441
 1335 04d4 13F8012C 		ldrb	r2, [r3, #-1]	@ zero_extendqisi2
 260:Drivers/lvgl/src/draw/sw/lv_draw_sw_img.c **** #if LV_COLOR_DEPTH == 8 || LV_COLOR_DEPTH == 1
 1336              		.loc 1 260 25 view .LVU442
 1337 04d8 01F8012F 		strb	r2, [r1, #1]!
 264:Drivers/lvgl/src/draw/sw/lv_draw_sw_img.c **** #elif LV_COLOR_DEPTH == 32
 1338              		.loc 1 264 17 is_stmt 1 view .LVU443
 264:Drivers/lvgl/src/draw/sw/lv_draw_sw_img.c **** #elif LV_COLOR_DEPTH == 32
ARM GAS  /var/folders/0z/tsy30v1j4xl4_7kw94k978ww0000gn/T//ccRgGdZF.s 			page 47


 1339              		.loc 1 264 46 is_stmt 0 view .LVU444
 1340 04dc 13F8024C 		ldrb	r4, [r3, #-2]	@ zero_extendqisi2
 264:Drivers/lvgl/src/draw/sw/lv_draw_sw_img.c **** #elif LV_COLOR_DEPTH == 32
 1341              		.loc 1 264 32 view .LVU445
 1342 04e0 13F8032C 		ldrb	r2, [r3, #-3]	@ zero_extendqisi2
 259:Drivers/lvgl/src/draw/sw/lv_draw_sw_img.c ****                 abuf[x] = src_tmp8[LV_IMG_PX_SIZE_ALPHA_BYTE - 1];
 1343              		.loc 1 259 26 view .LVU446
 1344 04e4 A942     		cmp	r1, r5
 264:Drivers/lvgl/src/draw/sw/lv_draw_sw_img.c **** #elif LV_COLOR_DEPTH == 32
 1345              		.loc 1 264 42 view .LVU447
 1346 04e6 02EB0422 		add	r2, r2, r4, lsl #8
 259:Drivers/lvgl/src/draw/sw/lv_draw_sw_img.c ****                 abuf[x] = src_tmp8[LV_IMG_PX_SIZE_ALPHA_BYTE - 1];
 1347              		.loc 1 259 26 view .LVU448
 1348 04ea 03F10303 		add	r3, r3, #3
 1349              	.LVL106:
 264:Drivers/lvgl/src/draw/sw/lv_draw_sw_img.c **** #elif LV_COLOR_DEPTH == 32
 1350              		.loc 1 264 30 view .LVU449
 1351 04ee 20F8022F 		strh	r2, [r0, #2]!	@ movhi
 269:Drivers/lvgl/src/draw/sw/lv_draw_sw_img.c **** 
 1352              		.loc 1 269 17 is_stmt 1 view .LVU450
 1353              	.LVL107:
 259:Drivers/lvgl/src/draw/sw/lv_draw_sw_img.c ****                 abuf[x] = src_tmp8[LV_IMG_PX_SIZE_ALPHA_BYTE - 1];
 1354              		.loc 1 259 37 view .LVU451
 259:Drivers/lvgl/src/draw/sw/lv_draw_sw_img.c ****                 abuf[x] = src_tmp8[LV_IMG_PX_SIZE_ALPHA_BYTE - 1];
 1355              		.loc 1 259 26 view .LVU452
 1356 04f2 EFD1     		bne	.L26
 272:Drivers/lvgl/src/draw/sw/lv_draw_sw_img.c ****             abuf += dest_w;
 1357              		.loc 1 272 13 view .LVU453
 258:Drivers/lvgl/src/draw/sw/lv_draw_sw_img.c ****             for(x = 0; x < dest_w; x++) {
 1358              		.loc 1 258 22 is_stmt 0 view .LVU454
 1359 04f4 0CF1010C 		add	ip, ip, #1
 1360              	.LVL108:
 258:Drivers/lvgl/src/draw/sw/lv_draw_sw_img.c ****             for(x = 0; x < dest_w; x++) {
 1361              		.loc 1 258 22 view .LVU455
 1362 04f8 0FFA8CF3 		sxth	r3, ip
 1363 04fc 9B45     		cmp	fp, r3
 272:Drivers/lvgl/src/draw/sw/lv_draw_sw_img.c ****             abuf += dest_w;
 1364              		.loc 1 272 18 view .LVU456
 1365 04fe C844     		add	r8, r8, r9
 1366              	.LVL109:
 273:Drivers/lvgl/src/draw/sw/lv_draw_sw_img.c ****             src_tmp8 += src_new_line_step_byte;
 1367              		.loc 1 273 13 is_stmt 1 view .LVU457
 273:Drivers/lvgl/src/draw/sw/lv_draw_sw_img.c ****             src_tmp8 += src_new_line_step_byte;
 1368              		.loc 1 273 18 is_stmt 0 view .LVU458
 1369 0500 BE44     		add	lr, lr, r7
 1370              	.LVL110:
 274:Drivers/lvgl/src/draw/sw/lv_draw_sw_img.c ****         }
 1371              		.loc 1 274 13 is_stmt 1 view .LVU459
 1372 0502 5644     		add	r6, r6, r10
 1373              	.LVL111:
 258:Drivers/lvgl/src/draw/sw/lv_draw_sw_img.c ****             for(x = 0; x < dest_w; x++) {
 1374              		.loc 1 258 33 view .LVU460
 258:Drivers/lvgl/src/draw/sw/lv_draw_sw_img.c ****             for(x = 0; x < dest_w; x++) {
 1375              		.loc 1 258 22 view .LVU461
 1376 0504 3D44     		add	r5, r5, r7
 1377 0506 E0DC     		bgt	.L25
 1378 0508 17EE90AA 		vmov	r10, s15	@ int
ARM GAS  /var/folders/0z/tsy30v1j4xl4_7kw94k978ww0000gn/T//ccRgGdZF.s 			page 48


 1379 050c DDF858B0 		ldr	fp, [sp, #88]
 1380              	.LVL112:
 258:Drivers/lvgl/src/draw/sw/lv_draw_sw_img.c ****             for(x = 0; x < dest_w; x++) {
 1381              		.loc 1 258 22 is_stmt 0 view .LVU462
 1382 0510 17EE109A 		vmov	r9, s14	@ int
 1383 0514 16E6     		b	.L13
 1384              	.LVL113:
 1385              	.L38:
 258:Drivers/lvgl/src/draw/sw/lv_draw_sw_img.c ****             for(x = 0; x < dest_w; x++) {
 1386              		.loc 1 258 22 view .LVU463
 1387              	.LBE168:
 1388              	.LBE192:
 1389              	.LBE227:
 1390              	.LBE229:
 194:Drivers/lvgl/src/draw/sw/lv_draw_sw_img.c ****         lv_mem_buf_release(rgb_buf);
 1391              		.loc 1 194 9 is_stmt 1 view .LVU464
 1392 0516 0998     		ldr	r0, [sp, #36]
 1393 0518 FFF7FEFF 		bl	lv_mem_buf_release
 1394              	.LVL114:
 195:Drivers/lvgl/src/draw/sw/lv_draw_sw_img.c ****     }
 1395              		.loc 1 195 9 view .LVU465
 1396 051c 0898     		ldr	r0, [sp, #32]
 1397 051e FFF7FEFF 		bl	lv_mem_buf_release
 1398              	.LVL115:
 1399              	.L1:
 195:Drivers/lvgl/src/draw/sw/lv_draw_sw_img.c ****     }
 1400              		.loc 1 195 9 is_stmt 0 view .LVU466
 1401              	.LBE108:
 197:Drivers/lvgl/src/draw/sw/lv_draw_sw_img.c **** 
 1402              		.loc 1 197 1 view .LVU467
 1403 0522 27B0     		add	sp, sp, #156
 1404              		.cfi_remember_state
 1405              		.cfi_def_cfa_offset 44
 1406              		@ sp needed
 1407 0524 BDEC028B 		vldm	sp!, {d8}
 1408              		.cfi_restore 80
 1409              		.cfi_restore 81
 1410              		.cfi_def_cfa_offset 36
 1411              	.LVL116:
 197:Drivers/lvgl/src/draw/sw/lv_draw_sw_img.c **** 
 1412              		.loc 1 197 1 view .LVU468
 1413 0528 BDE8F08F 		pop	{r4, r5, r6, r7, r8, r9, r10, fp, pc}
 1414              	.LVL117:
 1415              	.L64:
 1416              		.cfi_restore_state
 1417              	.LBB230:
 134:Drivers/lvgl/src/draw/sw/lv_draw_sw_img.c ****                                            draw_dsc->zoom != LV_IMG_ZOOM_NONE) ?
 1418              		.loc 1 134 90 discriminator 2 view .LVU469
 1419 052c 0799     		ldr	r1, [sp, #28]
 1420 052e 0968     		ldr	r1, [r1]
 134:Drivers/lvgl/src/draw/sw/lv_draw_sw_img.c ****                                            draw_dsc->zoom != LV_IMG_ZOOM_NONE) ?
 1421              		.loc 1 134 28 discriminator 2 view .LVU470
 1422 0530 B1F1807F 		cmp	r1, #16777216
 1423 0534 14BF     		ite	ne
 1424 0536 0221     		movne	r1, #2
 1425 0538 0121     		moveq	r1, #1
 1426 053a DFE5     		b	.L10
ARM GAS  /var/folders/0z/tsy30v1j4xl4_7kw94k978ww0000gn/T//ccRgGdZF.s 			page 49


 1427              	.LVL118:
 1428              	.L63:
 134:Drivers/lvgl/src/draw/sw/lv_draw_sw_img.c ****                                            draw_dsc->zoom != LV_IMG_ZOOM_NONE) ?
 1429              		.loc 1 134 28 discriminator 2 view .LVU471
 1430              	.LBE230:
  66:Drivers/lvgl/src/draw/sw/lv_draw_sw_img.c ****         blend_dsc.src_buf = (const lv_color_t *)src_buf;
 1431              		.loc 1 66 32 discriminator 2 view .LVU472
 1432 053c 0A9B     		ldr	r3, [sp, #40]
 1433 053e 042B     		cmp	r3, #4
 1434 0540 24D0     		beq	.L67
  72:Drivers/lvgl/src/draw/sw/lv_draw_sw_img.c ****         lv_area_t clipped_coords;
 1435              		.loc 1 72 10 is_stmt 1 discriminator 2 view .LVU473
  72:Drivers/lvgl/src/draw/sw/lv_draw_sw_img.c ****         lv_area_t clipped_coords;
 1436              		.loc 1 72 37 is_stmt 0 discriminator 2 view .LVU474
 1437 0542 0E2B     		cmp	r3, #14
 1438 0544 30D0     		beq	.L68
  86:Drivers/lvgl/src/draw/sw/lv_draw_sw_img.c ****         lv_coord_t src_w = lv_area_get_width(coords);
 1439              		.loc 1 86 10 is_stmt 1 discriminator 2 view .LVU475
  86:Drivers/lvgl/src/draw/sw/lv_draw_sw_img.c ****         lv_coord_t src_w = lv_area_get_width(coords);
 1440              		.loc 1 86 37 is_stmt 0 discriminator 2 view .LVU476
 1441 0546 142B     		cmp	r3, #20
 1442 0548 7FF488AD 		bne	.L2
  86:Drivers/lvgl/src/draw/sw/lv_draw_sw_img.c ****         lv_coord_t src_w = lv_area_get_width(coords);
 1443              		.loc 1 86 65 discriminator 3 view .LVU477
 1444 054c 079B     		ldr	r3, [sp, #28]
 1445 054e 9B7A     		ldrb	r3, [r3, #10]	@ zero_extendqisi2
 1446 0550 002B     		cmp	r3, #0
 1447 0552 7FF483AD 		bne	.L2
 1448              	.LBB231:
  87:Drivers/lvgl/src/draw/sw/lv_draw_sw_img.c ****         lv_coord_t src_h = lv_area_get_height(coords);
 1449              		.loc 1 87 9 is_stmt 1 view .LVU478
 1450              	.LVL119:
 1451              	.LBB232:
 1452              	.LBI232:
 123:Drivers/lvgl/src/draw/sw/../../misc/lv_area.h **** {
 1453              		.loc 2 123 26 view .LVU479
 1454              	.LBB233:
 125:Drivers/lvgl/src/draw/sw/../../misc/lv_area.h **** }
 1455              		.loc 2 125 5 view .LVU480
 125:Drivers/lvgl/src/draw/sw/../../misc/lv_area.h **** }
 1456              		.loc 2 125 49 is_stmt 0 view .LVU481
 1457 0556 0B9D     		ldr	r5, [sp, #44]
 1458              	.LVL120:
 125:Drivers/lvgl/src/draw/sw/../../misc/lv_area.h **** }
 1459              		.loc 2 125 49 view .LVU482
 1460              	.LBE233:
 1461              	.LBE232:
  93:Drivers/lvgl/src/draw/sw/lv_draw_sw_img.c ****         blend_dsc.mask_res = LV_DRAW_MASK_RES_CHANGED;
 1462              		.loc 1 93 29 view .LVU483
 1463 0558 2495     		str	r5, [sp, #144]
 1464              	.LBB236:
 1465              	.LBB234:
 125:Drivers/lvgl/src/draw/sw/../../misc/lv_area.h **** }
 1466              		.loc 2 125 49 view .LVU484
 1467 055a AA88     		ldrh	r2, [r5, #4]
 1468 055c 2C88     		ldrh	r4, [r5]
 1469              	.LVL121:
ARM GAS  /var/folders/0z/tsy30v1j4xl4_7kw94k978ww0000gn/T//ccRgGdZF.s 			page 50


 125:Drivers/lvgl/src/draw/sw/../../misc/lv_area.h **** }
 1470              		.loc 2 125 49 view .LVU485
 1471              	.LBE234:
 1472              	.LBE236:
 1473              	.LBB237:
 1474              	.LBB238:
 1475              		.loc 2 135 49 view .LVU486
 1476 055e EB88     		ldrh	r3, [r5, #6]
 1477              	.LBE238:
 1478              	.LBE237:
 1479              	.LBB241:
 1480              	.LBB235:
 125:Drivers/lvgl/src/draw/sw/../../misc/lv_area.h **** }
 1481              		.loc 2 125 49 view .LVU487
 1482 0560 0132     		adds	r2, r2, #1
 1483 0562 121B     		subs	r2, r2, r4
 1484              	.LVL122:
 125:Drivers/lvgl/src/draw/sw/../../misc/lv_area.h **** }
 1485              		.loc 2 125 49 view .LVU488
 1486              	.LBE235:
 1487              	.LBE241:
  88:Drivers/lvgl/src/draw/sw/lv_draw_sw_img.c ****         blend_dsc.src_buf = (const lv_color_t *)src_buf;
 1488              		.loc 1 88 9 is_stmt 1 view .LVU489
 1489              	.LBB242:
 1490              	.LBI237:
 133:Drivers/lvgl/src/draw/sw/../../misc/lv_area.h **** {
 1491              		.loc 2 133 26 view .LVU490
 1492              	.LBB239:
 1493              		.loc 2 135 5 view .LVU491
 1494              		.loc 2 135 49 is_stmt 0 view .LVU492
 1495 0564 6C88     		ldrh	r4, [r5, #2]
 1496 0566 0133     		adds	r3, r3, #1
 1497              	.LBE239:
 1498              	.LBE242:
  89:Drivers/lvgl/src/draw/sw/lv_draw_sw_img.c ****         blend_dsc.mask_buf = (lv_opa_t *)src_buf;
 1499              		.loc 1 89 27 view .LVU493
 1500 0568 18EE106A 		vmov	r6, s16	@ int
 1501              	.LVL123:
 1502              	.LBB243:
 1503              	.LBB240:
 1504              		.loc 2 135 49 view .LVU494
 1505 056c 1B1B     		subs	r3, r3, r4
 1506              	.LVL124:
 1507              		.loc 2 135 49 view .LVU495
 1508              	.LBE240:
 1509              	.LBE243:
  89:Drivers/lvgl/src/draw/sw/lv_draw_sw_img.c ****         blend_dsc.mask_buf = (lv_opa_t *)src_buf;
 1510              		.loc 1 89 9 is_stmt 1 view .LVU496
  90:Drivers/lvgl/src/draw/sw/lv_draw_sw_img.c ****         blend_dsc.mask_buf += sizeof(lv_color_t) * src_w * src_h;
 1511              		.loc 1 90 9 view .LVU497
  91:Drivers/lvgl/src/draw/sw/lv_draw_sw_img.c ****         blend_dsc.blend_area = coords;
 1512              		.loc 1 91 9 view .LVU498
  91:Drivers/lvgl/src/draw/sw/lv_draw_sw_img.c ****         blend_dsc.blend_area = coords;
 1513              		.loc 1 91 58 is_stmt 0 view .LVU499
 1514 056e 13FB02F3 		smulbb	r3, r3, r2
 1515              	.LVL125:
  91:Drivers/lvgl/src/draw/sw/lv_draw_sw_img.c ****         blend_dsc.blend_area = coords;
ARM GAS  /var/folders/0z/tsy30v1j4xl4_7kw94k978ww0000gn/T//ccRgGdZF.s 			page 51


 1516              		.loc 1 91 28 view .LVU500
 1517 0572 06EB4303 		add	r3, r6, r3, lsl #1
  94:Drivers/lvgl/src/draw/sw/lv_draw_sw_img.c ****         lv_draw_sw_blend(draw_ctx, &blend_dsc);
 1518              		.loc 1 94 28 view .LVU501
 1519 0576 0222     		movs	r2, #2
 1520              	.LVL126:
  95:Drivers/lvgl/src/draw/sw/lv_draw_sw_img.c ****     }
 1521              		.loc 1 95 9 view .LVU502
 1522 0578 1FA9     		add	r1, sp, #124
 1523 057a 4846     		mov	r0, r9
  92:Drivers/lvgl/src/draw/sw/lv_draw_sw_img.c ****         blend_dsc.mask_area = coords;
 1524              		.loc 1 92 30 view .LVU503
 1525 057c CDE91F56 		strd	r5, r6, [sp, #124]
  91:Drivers/lvgl/src/draw/sw/lv_draw_sw_img.c ****         blend_dsc.blend_area = coords;
 1526              		.loc 1 91 28 view .LVU504
 1527 0580 2293     		str	r3, [sp, #136]
  92:Drivers/lvgl/src/draw/sw/lv_draw_sw_img.c ****         blend_dsc.mask_area = coords;
 1528              		.loc 1 92 9 is_stmt 1 view .LVU505
  93:Drivers/lvgl/src/draw/sw/lv_draw_sw_img.c ****         blend_dsc.mask_res = LV_DRAW_MASK_RES_CHANGED;
 1529              		.loc 1 93 9 view .LVU506
  94:Drivers/lvgl/src/draw/sw/lv_draw_sw_img.c ****         lv_draw_sw_blend(draw_ctx, &blend_dsc);
 1530              		.loc 1 94 9 view .LVU507
  94:Drivers/lvgl/src/draw/sw/lv_draw_sw_img.c ****         lv_draw_sw_blend(draw_ctx, &blend_dsc);
 1531              		.loc 1 94 28 is_stmt 0 view .LVU508
 1532 0582 8DF88C20 		strb	r2, [sp, #140]
  95:Drivers/lvgl/src/draw/sw/lv_draw_sw_img.c ****     }
 1533              		.loc 1 95 9 is_stmt 1 view .LVU509
 1534 0586 FFF7FEFF 		bl	lv_draw_sw_blend
 1535              	.LVL127:
  95:Drivers/lvgl/src/draw/sw/lv_draw_sw_img.c ****     }
 1536              		.loc 1 95 9 is_stmt 0 view .LVU510
 1537              	.LBE231:
  86:Drivers/lvgl/src/draw/sw/lv_draw_sw_img.c ****         lv_coord_t src_w = lv_area_get_width(coords);
 1538              		.loc 1 86 108 view .LVU511
 1539 058a CAE7     		b	.L1
 1540              	.LVL128:
 1541              	.L67:
  66:Drivers/lvgl/src/draw/sw/lv_draw_sw_img.c ****         blend_dsc.src_buf = (const lv_color_t *)src_buf;
 1542              		.loc 1 66 62 discriminator 3 view .LVU512
 1543 058c 079B     		ldr	r3, [sp, #28]
 1544 058e 9B7A     		ldrb	r3, [r3, #10]	@ zero_extendqisi2
 1545 0590 002B     		cmp	r3, #0
 1546 0592 7FF463AD 		bne	.L2
  67:Drivers/lvgl/src/draw/sw/lv_draw_sw_img.c **** 
 1547              		.loc 1 67 9 is_stmt 1 view .LVU513
  69:Drivers/lvgl/src/draw/sw/lv_draw_sw_img.c ****         lv_draw_sw_blend(draw_ctx, &blend_dsc);
 1548              		.loc 1 69 30 is_stmt 0 view .LVU514
 1549 0596 0B9B     		ldr	r3, [sp, #44]
  67:Drivers/lvgl/src/draw/sw/lv_draw_sw_img.c **** 
 1550              		.loc 1 67 27 view .LVU515
 1551 0598 8DED208A 		vstr.32	s16, [sp, #128]	@ int
  69:Drivers/lvgl/src/draw/sw/lv_draw_sw_img.c ****         lv_draw_sw_blend(draw_ctx, &blend_dsc);
 1552              		.loc 1 69 9 is_stmt 1 view .LVU516
  70:Drivers/lvgl/src/draw/sw/lv_draw_sw_img.c ****     }
 1553              		.loc 1 70 9 is_stmt 0 view .LVU517
 1554 059c 1FA9     		add	r1, sp, #124
 1555 059e 4846     		mov	r0, r9
ARM GAS  /var/folders/0z/tsy30v1j4xl4_7kw94k978ww0000gn/T//ccRgGdZF.s 			page 52


  69:Drivers/lvgl/src/draw/sw/lv_draw_sw_img.c ****         lv_draw_sw_blend(draw_ctx, &blend_dsc);
 1556              		.loc 1 69 30 view .LVU518
 1557 05a0 1F93     		str	r3, [sp, #124]
  70:Drivers/lvgl/src/draw/sw/lv_draw_sw_img.c ****     }
 1558              		.loc 1 70 9 is_stmt 1 view .LVU519
 1559 05a2 FFF7FEFF 		bl	lv_draw_sw_blend
 1560              	.LVL129:
 1561 05a6 BCE7     		b	.L1
 1562              	.L68:
 1563              	.LBB244:
  73:Drivers/lvgl/src/draw/sw/lv_draw_sw_img.c ****         if(!_lv_area_intersect(&clipped_coords, coords, draw_ctx->clip_area)) return;
 1564              		.loc 1 73 9 view .LVU520
  74:Drivers/lvgl/src/draw/sw/lv_draw_sw_img.c **** 
 1565              		.loc 1 74 9 view .LVU521
  74:Drivers/lvgl/src/draw/sw/lv_draw_sw_img.c **** 
 1566              		.loc 1 74 13 is_stmt 0 view .LVU522
 1567 05a8 0B9C     		ldr	r4, [sp, #44]
 1568              	.LVL130:
  74:Drivers/lvgl/src/draw/sw/lv_draw_sw_img.c **** 
 1569              		.loc 1 74 13 view .LVU523
 1570 05aa D9F80820 		ldr	r2, [r9, #8]
 1571 05ae 2146     		mov	r1, r4
 1572 05b0 1DA8     		add	r0, sp, #116
 1573 05b2 FFF7FEFF 		bl	_lv_area_intersect
 1574              	.LVL131:
  74:Drivers/lvgl/src/draw/sw/lv_draw_sw_img.c **** 
 1575              		.loc 1 74 11 view .LVU524
 1576 05b6 0028     		cmp	r0, #0
 1577 05b8 B3D0     		beq	.L1
  76:Drivers/lvgl/src/draw/sw/lv_draw_sw_img.c ****         blend_dsc.mask_area = coords;
 1578              		.loc 1 76 9 is_stmt 1 view .LVU525
  79:Drivers/lvgl/src/draw/sw/lv_draw_sw_img.c ****         blend_dsc.mask_res = LV_DRAW_MASK_RES_CHANGED;
 1579              		.loc 1 79 25 is_stmt 0 view .LVU526
 1580 05ba 079B     		ldr	r3, [sp, #28]
  76:Drivers/lvgl/src/draw/sw/lv_draw_sw_img.c ****         blend_dsc.mask_area = coords;
 1581              		.loc 1 76 28 view .LVU527
 1582 05bc 8DED228A 		vstr.32	s16, [sp, #136]	@ int
  77:Drivers/lvgl/src/draw/sw/lv_draw_sw_img.c ****         blend_dsc.src_buf = NULL;
 1583              		.loc 1 77 9 is_stmt 1 view .LVU528
  79:Drivers/lvgl/src/draw/sw/lv_draw_sw_img.c ****         blend_dsc.mask_res = LV_DRAW_MASK_RES_CHANGED;
 1584              		.loc 1 79 25 is_stmt 0 view .LVU529
 1585 05c0 1A89     		ldrh	r2, [r3, #8]
  78:Drivers/lvgl/src/draw/sw/lv_draw_sw_img.c ****         blend_dsc.color = draw_dsc->recolor;
 1586              		.loc 1 78 27 view .LVU530
 1587 05c2 0E9B     		ldr	r3, [sp, #56]
 1588 05c4 2093     		str	r3, [sp, #128]
  83:Drivers/lvgl/src/draw/sw/lv_draw_sw_img.c ****     }
 1589              		.loc 1 83 9 view .LVU531
 1590 05c6 1FA9     		add	r1, sp, #124
  80:Drivers/lvgl/src/draw/sw/lv_draw_sw_img.c **** 
 1591              		.loc 1 80 28 view .LVU532
 1592 05c8 0223     		movs	r3, #2
  83:Drivers/lvgl/src/draw/sw/lv_draw_sw_img.c ****     }
 1593              		.loc 1 83 9 view .LVU533
 1594 05ca 4846     		mov	r0, r9
  77:Drivers/lvgl/src/draw/sw/lv_draw_sw_img.c ****         blend_dsc.src_buf = NULL;
 1595              		.loc 1 77 29 view .LVU534
ARM GAS  /var/folders/0z/tsy30v1j4xl4_7kw94k978ww0000gn/T//ccRgGdZF.s 			page 53


 1596 05cc 2494     		str	r4, [sp, #144]
  78:Drivers/lvgl/src/draw/sw/lv_draw_sw_img.c ****         blend_dsc.color = draw_dsc->recolor;
 1597              		.loc 1 78 9 is_stmt 1 view .LVU535
  79:Drivers/lvgl/src/draw/sw/lv_draw_sw_img.c ****         blend_dsc.mask_res = LV_DRAW_MASK_RES_CHANGED;
 1598              		.loc 1 79 9 view .LVU536
  79:Drivers/lvgl/src/draw/sw/lv_draw_sw_img.c ****         blend_dsc.mask_res = LV_DRAW_MASK_RES_CHANGED;
 1599              		.loc 1 79 25 is_stmt 0 view .LVU537
 1600 05ce ADF88420 		strh	r2, [sp, #132]	@ movhi
  80:Drivers/lvgl/src/draw/sw/lv_draw_sw_img.c **** 
 1601              		.loc 1 80 9 is_stmt 1 view .LVU538
  80:Drivers/lvgl/src/draw/sw/lv_draw_sw_img.c **** 
 1602              		.loc 1 80 28 is_stmt 0 view .LVU539
 1603 05d2 8DF88C30 		strb	r3, [sp, #140]
  82:Drivers/lvgl/src/draw/sw/lv_draw_sw_img.c ****         lv_draw_sw_blend(draw_ctx, &blend_dsc);
 1604              		.loc 1 82 9 is_stmt 1 view .LVU540
  82:Drivers/lvgl/src/draw/sw/lv_draw_sw_img.c ****         lv_draw_sw_blend(draw_ctx, &blend_dsc);
 1605              		.loc 1 82 30 is_stmt 0 view .LVU541
 1606 05d6 1F94     		str	r4, [sp, #124]
  83:Drivers/lvgl/src/draw/sw/lv_draw_sw_img.c ****     }
 1607              		.loc 1 83 9 is_stmt 1 view .LVU542
 1608 05d8 FFF7FEFF 		bl	lv_draw_sw_blend
 1609              	.LVL132:
 1610              	.LBE244:
  72:Drivers/lvgl/src/draw/sw/lv_draw_sw_img.c ****         lv_area_t clipped_coords;
 1611              		.loc 1 72 68 is_stmt 0 view .LVU543
 1612 05dc A1E7     		b	.L1
 1613              		.cfi_endproc
 1614              	.LFE161:
 1616 05de 00BF     		.text
 1617              	.Letext0:
 1618              		.file 4 "/Users/johannes/Library/Application Support/Code/User/globalStorage/bmd.stm32-for-vscode/
 1619              		.file 5 "/Users/johannes/Library/Application Support/Code/User/globalStorage/bmd.stm32-for-vscode/
 1620              		.file 6 "Drivers/lvgl/src/draw/sw/../../misc/lv_types.h"
 1621              		.file 7 "/Users/johannes/Library/Application Support/Code/User/globalStorage/bmd.stm32-for-vscode/
 1622              		.file 8 "Drivers/lvgl/src/draw/sw/../../misc/../font/lv_font.h"
 1623              		.file 9 "Drivers/lvgl/src/draw/sw/../../misc/lv_txt.h"
 1624              		.file 10 "Drivers/lvgl/src/draw/sw/../../misc/lv_bidi.h"
 1625              		.file 11 "Drivers/lvgl/src/draw/sw/../../misc/lv_style.h"
 1626              		.file 12 "Drivers/lvgl/src/draw/sw/../lv_draw_mask.h"
 1627              		.file 13 "Drivers/lvgl/src/draw/sw/lv_draw_sw_blend.h"
 1628              		.file 14 "Drivers/lvgl/src/draw/sw/../lv_img_buf.h"
 1629              		.file 15 "Drivers/lvgl/src/draw/sw/../../core/lv_obj.h"
 1630              		.file 16 "Drivers/lvgl/src/draw/sw/../lv_draw_rect.h"
 1631              		.file 17 "Drivers/lvgl/src/draw/sw/../lv_draw_label.h"
 1632              		.file 18 "Drivers/lvgl/src/draw/sw/../lv_draw_img.h"
 1633              		.file 19 "Drivers/lvgl/src/draw/sw/../lv_draw_line.h"
 1634              		.file 20 "Drivers/lvgl/src/draw/sw/../lv_draw_arc.h"
 1635              		.file 21 "Drivers/lvgl/src/draw/sw/../lv_draw_layer.h"
 1636              		.file 22 "Drivers/lvgl/src/draw/sw/../lv_draw.h"
 1637              		.file 23 "Drivers/lvgl/src/draw/sw/../../hal/../misc/lv_timer.h"
 1638              		.file 24 "Drivers/lvgl/src/draw/sw/../../hal/lv_hal_disp.h"
 1639              		.file 25 "Drivers/lvgl/src/draw/sw/../../core/lv_group.h"
 1640              		.file 26 "Drivers/lvgl/src/draw/sw/../../hal/../misc/lv_ll.h"
 1641              		.file 27 "Drivers/lvgl/src/draw/sw/../../core/lv_obj_scroll.h"
 1642              		.file 28 "Drivers/lvgl/src/draw/sw/../../core/lv_obj_style.h"
 1643              		.file 29 "Drivers/lvgl/src/draw/sw/../../core/lv_obj_class.h"
 1644              		.file 30 "Drivers/lvgl/src/draw/sw/../../core/lv_event.h"
ARM GAS  /var/folders/0z/tsy30v1j4xl4_7kw94k978ww0000gn/T//ccRgGdZF.s 			page 54


 1645              		.file 31 "Drivers/lvgl/src/draw/sw/../../misc/lv_mem.h"
 1646              		.file 32 "Drivers/lvgl/src/draw/sw/../lv_draw_transform.h"
 1647              		.file 33 "Drivers/lvgl/src/draw/sw/../../core/lv_refr.h"
ARM GAS  /var/folders/0z/tsy30v1j4xl4_7kw94k978ww0000gn/T//ccRgGdZF.s 			page 55

