ARM GAS  /var/folders/0z/tsy30v1j4xl4_7kw94k978ww0000gn/T//ccaFEAkC.s 			page 1


   1              		.cpu cortex-m4
   2              		.arch armv7e-m
   3              		.fpu fpv4-sp-d16
   4              		.eabi_attribute 27, 1
   5              		.eabi_attribute 28, 1
   6              		.eabi_attribute 20, 1
   7              		.eabi_attribute 21, 1
   8              		.eabi_attribute 23, 3
   9              		.eabi_attribute 24, 1
  10              		.eabi_attribute 25, 1
  11              		.eabi_attribute 26, 1
  12              		.eabi_attribute 30, 2
  13              		.eabi_attribute 34, 1
  14              		.eabi_attribute 18, 4
  15              		.file	"lv_extra.c"
  16              		.text
  17              	.Ltext0:
  18              		.cfi_sections	.debug_frame
  19              		.section	.text.lv_extra_init,"ax",%progbits
  20              		.align	1
  21              		.p2align 2,,3
  22              		.global	lv_extra_init
  23              		.syntax unified
  24              		.thumb
  25              		.thumb_func
  27              	lv_extra_init:
  28              	.LFB204:
  29              		.file 1 "Drivers/lvgl/src/extra/lv_extra.c"
   1:Drivers/lvgl/src/extra/lv_extra.c **** /**
   2:Drivers/lvgl/src/extra/lv_extra.c ****  * @file lv_extra.c
   3:Drivers/lvgl/src/extra/lv_extra.c ****  *
   4:Drivers/lvgl/src/extra/lv_extra.c ****  */
   5:Drivers/lvgl/src/extra/lv_extra.c **** 
   6:Drivers/lvgl/src/extra/lv_extra.c **** /*********************
   7:Drivers/lvgl/src/extra/lv_extra.c ****  *      INCLUDES
   8:Drivers/lvgl/src/extra/lv_extra.c ****  *********************/
   9:Drivers/lvgl/src/extra/lv_extra.c **** #include "../lvgl.h"
  10:Drivers/lvgl/src/extra/lv_extra.c **** 
  11:Drivers/lvgl/src/extra/lv_extra.c **** /*********************
  12:Drivers/lvgl/src/extra/lv_extra.c ****  *      DEFINES
  13:Drivers/lvgl/src/extra/lv_extra.c ****  *********************/
  14:Drivers/lvgl/src/extra/lv_extra.c **** 
  15:Drivers/lvgl/src/extra/lv_extra.c **** /**********************
  16:Drivers/lvgl/src/extra/lv_extra.c ****  *      TYPEDEFS
  17:Drivers/lvgl/src/extra/lv_extra.c ****  **********************/
  18:Drivers/lvgl/src/extra/lv_extra.c **** 
  19:Drivers/lvgl/src/extra/lv_extra.c **** /**********************
  20:Drivers/lvgl/src/extra/lv_extra.c ****  *  STATIC PROTOTYPES
  21:Drivers/lvgl/src/extra/lv_extra.c ****  **********************/
  22:Drivers/lvgl/src/extra/lv_extra.c **** 
  23:Drivers/lvgl/src/extra/lv_extra.c **** /**********************
  24:Drivers/lvgl/src/extra/lv_extra.c ****  *  STATIC VARIABLES
  25:Drivers/lvgl/src/extra/lv_extra.c ****  **********************/
  26:Drivers/lvgl/src/extra/lv_extra.c **** 
  27:Drivers/lvgl/src/extra/lv_extra.c **** /**********************
  28:Drivers/lvgl/src/extra/lv_extra.c ****  *      MACROS
  29:Drivers/lvgl/src/extra/lv_extra.c ****  **********************/
ARM GAS  /var/folders/0z/tsy30v1j4xl4_7kw94k978ww0000gn/T//ccaFEAkC.s 			page 2


  30:Drivers/lvgl/src/extra/lv_extra.c **** 
  31:Drivers/lvgl/src/extra/lv_extra.c **** /**********************
  32:Drivers/lvgl/src/extra/lv_extra.c ****  *   GLOBAL FUNCTIONS
  33:Drivers/lvgl/src/extra/lv_extra.c ****  **********************/
  34:Drivers/lvgl/src/extra/lv_extra.c **** 
  35:Drivers/lvgl/src/extra/lv_extra.c **** void lv_extra_init(void)
  36:Drivers/lvgl/src/extra/lv_extra.c **** {
  30              		.loc 1 36 1 view -0
  31              		.cfi_startproc
  32              		@ args = 0, pretend = 0, frame = 0
  33              		@ frame_needed = 0, uses_anonymous_args = 0
  37:Drivers/lvgl/src/extra/lv_extra.c **** #if LV_USE_FLEX
  38:Drivers/lvgl/src/extra/lv_extra.c ****     lv_flex_init();
  34              		.loc 1 38 5 view .LVU1
  36:Drivers/lvgl/src/extra/lv_extra.c **** #if LV_USE_FLEX
  35              		.loc 1 36 1 is_stmt 0 view .LVU2
  36 0000 08B5     		push	{r3, lr}
  37              		.cfi_def_cfa_offset 8
  38              		.cfi_offset 3, -8
  39              		.cfi_offset 14, -4
  40              		.loc 1 38 5 view .LVU3
  41 0002 FFF7FEFF 		bl	lv_flex_init
  42              	.LVL0:
  39:Drivers/lvgl/src/extra/lv_extra.c **** #endif
  40:Drivers/lvgl/src/extra/lv_extra.c **** 
  41:Drivers/lvgl/src/extra/lv_extra.c **** #if LV_USE_GRID
  42:Drivers/lvgl/src/extra/lv_extra.c ****     lv_grid_init();
  43              		.loc 1 42 5 is_stmt 1 view .LVU4
  43:Drivers/lvgl/src/extra/lv_extra.c **** #endif
  44:Drivers/lvgl/src/extra/lv_extra.c **** 
  45:Drivers/lvgl/src/extra/lv_extra.c **** #if LV_USE_MSG
  46:Drivers/lvgl/src/extra/lv_extra.c ****     lv_msg_init();
  47:Drivers/lvgl/src/extra/lv_extra.c **** #endif
  48:Drivers/lvgl/src/extra/lv_extra.c **** 
  49:Drivers/lvgl/src/extra/lv_extra.c **** #if LV_USE_FS_FATFS != '\0'
  50:Drivers/lvgl/src/extra/lv_extra.c ****     lv_fs_fatfs_init();
  51:Drivers/lvgl/src/extra/lv_extra.c **** #endif
  52:Drivers/lvgl/src/extra/lv_extra.c **** 
  53:Drivers/lvgl/src/extra/lv_extra.c **** #if LV_USE_FS_LITTLEFS != '\0'
  54:Drivers/lvgl/src/extra/lv_extra.c ****     lv_fs_littlefs_init();
  55:Drivers/lvgl/src/extra/lv_extra.c **** #endif
  56:Drivers/lvgl/src/extra/lv_extra.c **** 
  57:Drivers/lvgl/src/extra/lv_extra.c **** #if LV_USE_FS_STDIO != '\0'
  58:Drivers/lvgl/src/extra/lv_extra.c ****     lv_fs_stdio_init();
  59:Drivers/lvgl/src/extra/lv_extra.c **** #endif
  60:Drivers/lvgl/src/extra/lv_extra.c **** 
  61:Drivers/lvgl/src/extra/lv_extra.c **** #if LV_USE_FS_POSIX != '\0'
  62:Drivers/lvgl/src/extra/lv_extra.c ****     lv_fs_posix_init();
  63:Drivers/lvgl/src/extra/lv_extra.c **** #endif
  64:Drivers/lvgl/src/extra/lv_extra.c **** 
  65:Drivers/lvgl/src/extra/lv_extra.c **** #if LV_USE_FS_WIN32 != '\0'
  66:Drivers/lvgl/src/extra/lv_extra.c ****     lv_fs_win32_init();
  67:Drivers/lvgl/src/extra/lv_extra.c **** #endif
  68:Drivers/lvgl/src/extra/lv_extra.c **** 
  69:Drivers/lvgl/src/extra/lv_extra.c **** #if LV_USE_FFMPEG
  70:Drivers/lvgl/src/extra/lv_extra.c ****     lv_ffmpeg_init();
  71:Drivers/lvgl/src/extra/lv_extra.c **** #endif
ARM GAS  /var/folders/0z/tsy30v1j4xl4_7kw94k978ww0000gn/T//ccaFEAkC.s 			page 3


  72:Drivers/lvgl/src/extra/lv_extra.c **** 
  73:Drivers/lvgl/src/extra/lv_extra.c **** #if LV_USE_PNG
  74:Drivers/lvgl/src/extra/lv_extra.c ****     lv_png_init();
  75:Drivers/lvgl/src/extra/lv_extra.c **** #endif
  76:Drivers/lvgl/src/extra/lv_extra.c **** 
  77:Drivers/lvgl/src/extra/lv_extra.c **** #if LV_USE_SJPG
  78:Drivers/lvgl/src/extra/lv_extra.c ****     lv_split_jpeg_init();
  79:Drivers/lvgl/src/extra/lv_extra.c **** #endif
  80:Drivers/lvgl/src/extra/lv_extra.c **** 
  81:Drivers/lvgl/src/extra/lv_extra.c **** #if LV_USE_BMP
  82:Drivers/lvgl/src/extra/lv_extra.c ****     lv_bmp_init();
  83:Drivers/lvgl/src/extra/lv_extra.c **** #endif
  84:Drivers/lvgl/src/extra/lv_extra.c **** 
  85:Drivers/lvgl/src/extra/lv_extra.c **** #if LV_USE_FREETYPE
  86:Drivers/lvgl/src/extra/lv_extra.c ****     /*Init freetype library*/
  87:Drivers/lvgl/src/extra/lv_extra.c **** #  if LV_FREETYPE_CACHE_SIZE >= 0
  88:Drivers/lvgl/src/extra/lv_extra.c ****     lv_freetype_init(LV_FREETYPE_CACHE_FT_FACES, LV_FREETYPE_CACHE_FT_SIZES, LV_FREETYPE_CACHE_SIZE
  89:Drivers/lvgl/src/extra/lv_extra.c **** #  else
  90:Drivers/lvgl/src/extra/lv_extra.c ****     lv_freetype_init(0, 0, 0);
  91:Drivers/lvgl/src/extra/lv_extra.c **** #  endif
  92:Drivers/lvgl/src/extra/lv_extra.c **** #endif
  93:Drivers/lvgl/src/extra/lv_extra.c **** }
  44              		.loc 1 93 1 is_stmt 0 view .LVU5
  45 0006 BDE80840 		pop	{r3, lr}
  46              		.cfi_restore 14
  47              		.cfi_restore 3
  48              		.cfi_def_cfa_offset 0
  42:Drivers/lvgl/src/extra/lv_extra.c **** #endif
  49              		.loc 1 42 5 view .LVU6
  50 000a FFF7FEBF 		b	lv_grid_init
  51              	.LVL1:
  52              		.cfi_endproc
  53              	.LFE204:
  55 000e 00BF     		.text
  56              	.Letext0:
  57              		.file 2 "Drivers/lvgl/src/extra/../../src/extra/layouts/grid/lv_grid.h"
  58              		.file 3 "Drivers/lvgl/src/extra/../../src/extra/layouts/flex/lv_flex.h"
ARM GAS  /var/folders/0z/tsy30v1j4xl4_7kw94k978ww0000gn/T//ccaFEAkC.s 			page 4

