ARM GAS  /var/folders/lp/x54gwt890xv47sdkqj1k04q40000gn/T//cc0ANnJ5.s 			page 1


   1              		.cpu cortex-m4
   2              		.arch armv7e-m
   3              		.fpu fpv4-sp-d16
   4              		.eabi_attribute 27, 1
   5              		.eabi_attribute 28, 1
   6              		.eabi_attribute 20, 1
   7              		.eabi_attribute 21, 1
   8              		.eabi_attribute 23, 3
   9              		.eabi_attribute 24, 1
  10              		.eabi_attribute 25, 1
  11              		.eabi_attribute 26, 1
  12              		.eabi_attribute 30, 2
  13              		.eabi_attribute 34, 1
  14              		.eabi_attribute 18, 4
  15              		.file	"lv_font_fmt_txt.c"
  16              		.text
  17              	.Ltext0:
  18              		.cfi_sections	.debug_frame
  19              		.file 1 "Drivers/lvgl/src/font/lv_font_fmt_txt.c"
  20              		.section	.text.kern_pair_8_compare,"ax",%progbits
  21              		.align	1
  22              		.p2align 2,,3
  23              		.syntax unified
  24              		.thumb
  25              		.thumb_func
  27              	kern_pair_8_compare:
  28              	.LVL0:
  29              	.LFB31:
   1:Drivers/lvgl/src/font/lv_font_fmt_txt.c **** /**
   2:Drivers/lvgl/src/font/lv_font_fmt_txt.c ****  * @file lv_font_fmt_txt.c
   3:Drivers/lvgl/src/font/lv_font_fmt_txt.c ****  *
   4:Drivers/lvgl/src/font/lv_font_fmt_txt.c ****  */
   5:Drivers/lvgl/src/font/lv_font_fmt_txt.c **** 
   6:Drivers/lvgl/src/font/lv_font_fmt_txt.c **** /*********************
   7:Drivers/lvgl/src/font/lv_font_fmt_txt.c ****  *      INCLUDES
   8:Drivers/lvgl/src/font/lv_font_fmt_txt.c ****  *********************/
   9:Drivers/lvgl/src/font/lv_font_fmt_txt.c **** #include "lv_font.h"
  10:Drivers/lvgl/src/font/lv_font_fmt_txt.c **** #include "lv_font_fmt_txt.h"
  11:Drivers/lvgl/src/font/lv_font_fmt_txt.c **** #include "../misc/lv_assert.h"
  12:Drivers/lvgl/src/font/lv_font_fmt_txt.c **** #include "../misc/lv_types.h"
  13:Drivers/lvgl/src/font/lv_font_fmt_txt.c **** #include "../misc/lv_gc.h"
  14:Drivers/lvgl/src/font/lv_font_fmt_txt.c **** #include "../misc/lv_log.h"
  15:Drivers/lvgl/src/font/lv_font_fmt_txt.c **** #include "../misc/lv_utils.h"
  16:Drivers/lvgl/src/font/lv_font_fmt_txt.c **** #include "../misc/lv_mem.h"
  17:Drivers/lvgl/src/font/lv_font_fmt_txt.c **** 
  18:Drivers/lvgl/src/font/lv_font_fmt_txt.c **** /*********************
  19:Drivers/lvgl/src/font/lv_font_fmt_txt.c ****  *      DEFINES
  20:Drivers/lvgl/src/font/lv_font_fmt_txt.c ****  *********************/
  21:Drivers/lvgl/src/font/lv_font_fmt_txt.c **** 
  22:Drivers/lvgl/src/font/lv_font_fmt_txt.c **** /**********************
  23:Drivers/lvgl/src/font/lv_font_fmt_txt.c ****  *      TYPEDEFS
  24:Drivers/lvgl/src/font/lv_font_fmt_txt.c ****  **********************/
  25:Drivers/lvgl/src/font/lv_font_fmt_txt.c **** typedef enum {
  26:Drivers/lvgl/src/font/lv_font_fmt_txt.c ****     RLE_STATE_SINGLE = 0,
  27:Drivers/lvgl/src/font/lv_font_fmt_txt.c ****     RLE_STATE_REPEATE,
  28:Drivers/lvgl/src/font/lv_font_fmt_txt.c ****     RLE_STATE_COUNTER,
  29:Drivers/lvgl/src/font/lv_font_fmt_txt.c **** } rle_state_t;
ARM GAS  /var/folders/lp/x54gwt890xv47sdkqj1k04q40000gn/T//cc0ANnJ5.s 			page 2


  30:Drivers/lvgl/src/font/lv_font_fmt_txt.c **** 
  31:Drivers/lvgl/src/font/lv_font_fmt_txt.c **** /**********************
  32:Drivers/lvgl/src/font/lv_font_fmt_txt.c ****  *  STATIC PROTOTYPES
  33:Drivers/lvgl/src/font/lv_font_fmt_txt.c ****  **********************/
  34:Drivers/lvgl/src/font/lv_font_fmt_txt.c **** static uint32_t get_glyph_dsc_id(const lv_font_t * font, uint32_t letter);
  35:Drivers/lvgl/src/font/lv_font_fmt_txt.c **** static int8_t get_kern_value(const lv_font_t * font, uint32_t gid_left, uint32_t gid_right);
  36:Drivers/lvgl/src/font/lv_font_fmt_txt.c **** static int32_t unicode_list_compare(const void * ref, const void * element);
  37:Drivers/lvgl/src/font/lv_font_fmt_txt.c **** static int32_t kern_pair_8_compare(const void * ref, const void * element);
  38:Drivers/lvgl/src/font/lv_font_fmt_txt.c **** static int32_t kern_pair_16_compare(const void * ref, const void * element);
  39:Drivers/lvgl/src/font/lv_font_fmt_txt.c **** 
  40:Drivers/lvgl/src/font/lv_font_fmt_txt.c **** #if LV_USE_FONT_COMPRESSED
  41:Drivers/lvgl/src/font/lv_font_fmt_txt.c ****     static void decompress(const uint8_t * in, uint8_t * out, lv_coord_t w, lv_coord_t h, uint8_t b
  42:Drivers/lvgl/src/font/lv_font_fmt_txt.c ****     static inline void decompress_line(uint8_t * out, lv_coord_t w);
  43:Drivers/lvgl/src/font/lv_font_fmt_txt.c ****     static inline uint8_t get_bits(const uint8_t * in, uint32_t bit_pos, uint8_t len);
  44:Drivers/lvgl/src/font/lv_font_fmt_txt.c ****     static inline void bits_write(uint8_t * out, uint32_t bit_pos, uint8_t val, uint8_t len);
  45:Drivers/lvgl/src/font/lv_font_fmt_txt.c ****     static inline void rle_init(const uint8_t * in,  uint8_t bpp);
  46:Drivers/lvgl/src/font/lv_font_fmt_txt.c ****     static inline uint8_t rle_next(void);
  47:Drivers/lvgl/src/font/lv_font_fmt_txt.c **** #endif /*LV_USE_FONT_COMPRESSED*/
  48:Drivers/lvgl/src/font/lv_font_fmt_txt.c **** 
  49:Drivers/lvgl/src/font/lv_font_fmt_txt.c **** /**********************
  50:Drivers/lvgl/src/font/lv_font_fmt_txt.c ****  *  STATIC VARIABLES
  51:Drivers/lvgl/src/font/lv_font_fmt_txt.c ****  **********************/
  52:Drivers/lvgl/src/font/lv_font_fmt_txt.c **** #if LV_USE_FONT_COMPRESSED
  53:Drivers/lvgl/src/font/lv_font_fmt_txt.c ****     static uint32_t rle_rdp;
  54:Drivers/lvgl/src/font/lv_font_fmt_txt.c ****     static const uint8_t * rle_in;
  55:Drivers/lvgl/src/font/lv_font_fmt_txt.c ****     static uint8_t rle_bpp;
  56:Drivers/lvgl/src/font/lv_font_fmt_txt.c ****     static uint8_t rle_prev_v;
  57:Drivers/lvgl/src/font/lv_font_fmt_txt.c ****     static uint8_t rle_cnt;
  58:Drivers/lvgl/src/font/lv_font_fmt_txt.c ****     static rle_state_t rle_state;
  59:Drivers/lvgl/src/font/lv_font_fmt_txt.c **** #endif /*LV_USE_FONT_COMPRESSED*/
  60:Drivers/lvgl/src/font/lv_font_fmt_txt.c **** 
  61:Drivers/lvgl/src/font/lv_font_fmt_txt.c **** /**********************
  62:Drivers/lvgl/src/font/lv_font_fmt_txt.c ****  * GLOBAL PROTOTYPES
  63:Drivers/lvgl/src/font/lv_font_fmt_txt.c ****  **********************/
  64:Drivers/lvgl/src/font/lv_font_fmt_txt.c **** 
  65:Drivers/lvgl/src/font/lv_font_fmt_txt.c **** /**********************
  66:Drivers/lvgl/src/font/lv_font_fmt_txt.c ****  *      MACROS
  67:Drivers/lvgl/src/font/lv_font_fmt_txt.c ****  **********************/
  68:Drivers/lvgl/src/font/lv_font_fmt_txt.c **** 
  69:Drivers/lvgl/src/font/lv_font_fmt_txt.c **** /**********************
  70:Drivers/lvgl/src/font/lv_font_fmt_txt.c ****  *   GLOBAL FUNCTIONS
  71:Drivers/lvgl/src/font/lv_font_fmt_txt.c ****  **********************/
  72:Drivers/lvgl/src/font/lv_font_fmt_txt.c **** 
  73:Drivers/lvgl/src/font/lv_font_fmt_txt.c **** /**
  74:Drivers/lvgl/src/font/lv_font_fmt_txt.c ****  * Used as `get_glyph_bitmap` callback in LittelvGL's native font format if the font is uncompresse
  75:Drivers/lvgl/src/font/lv_font_fmt_txt.c ****  * @param font pointer to font
  76:Drivers/lvgl/src/font/lv_font_fmt_txt.c ****  * @param unicode_letter a unicode letter which bitmap should be get
  77:Drivers/lvgl/src/font/lv_font_fmt_txt.c ****  * @return pointer to the bitmap or NULL if not found
  78:Drivers/lvgl/src/font/lv_font_fmt_txt.c ****  */
  79:Drivers/lvgl/src/font/lv_font_fmt_txt.c **** const uint8_t * lv_font_get_bitmap_fmt_txt(const lv_font_t * font, uint32_t unicode_letter)
  80:Drivers/lvgl/src/font/lv_font_fmt_txt.c **** {
  81:Drivers/lvgl/src/font/lv_font_fmt_txt.c ****     if(unicode_letter == '\t') unicode_letter = ' ';
  82:Drivers/lvgl/src/font/lv_font_fmt_txt.c **** 
  83:Drivers/lvgl/src/font/lv_font_fmt_txt.c ****     lv_font_fmt_txt_dsc_t * fdsc = (lv_font_fmt_txt_dsc_t *)font->dsc;
  84:Drivers/lvgl/src/font/lv_font_fmt_txt.c ****     uint32_t gid = get_glyph_dsc_id(font, unicode_letter);
  85:Drivers/lvgl/src/font/lv_font_fmt_txt.c ****     if(!gid) return NULL;
  86:Drivers/lvgl/src/font/lv_font_fmt_txt.c **** 
ARM GAS  /var/folders/lp/x54gwt890xv47sdkqj1k04q40000gn/T//cc0ANnJ5.s 			page 3


  87:Drivers/lvgl/src/font/lv_font_fmt_txt.c ****     const lv_font_fmt_txt_glyph_dsc_t * gdsc = &fdsc->glyph_dsc[gid];
  88:Drivers/lvgl/src/font/lv_font_fmt_txt.c **** 
  89:Drivers/lvgl/src/font/lv_font_fmt_txt.c ****     if(fdsc->bitmap_format == LV_FONT_FMT_TXT_PLAIN) {
  90:Drivers/lvgl/src/font/lv_font_fmt_txt.c ****         return &fdsc->glyph_bitmap[gdsc->bitmap_index];
  91:Drivers/lvgl/src/font/lv_font_fmt_txt.c ****     }
  92:Drivers/lvgl/src/font/lv_font_fmt_txt.c ****     /*Handle compressed bitmap*/
  93:Drivers/lvgl/src/font/lv_font_fmt_txt.c ****     else {
  94:Drivers/lvgl/src/font/lv_font_fmt_txt.c **** #if LV_USE_FONT_COMPRESSED
  95:Drivers/lvgl/src/font/lv_font_fmt_txt.c ****         static size_t last_buf_size = 0;
  96:Drivers/lvgl/src/font/lv_font_fmt_txt.c ****         if(LV_GC_ROOT(_lv_font_decompr_buf) == NULL) last_buf_size = 0;
  97:Drivers/lvgl/src/font/lv_font_fmt_txt.c **** 
  98:Drivers/lvgl/src/font/lv_font_fmt_txt.c ****         uint32_t gsize = gdsc->box_w * gdsc->box_h;
  99:Drivers/lvgl/src/font/lv_font_fmt_txt.c ****         if(gsize == 0) return NULL;
 100:Drivers/lvgl/src/font/lv_font_fmt_txt.c **** 
 101:Drivers/lvgl/src/font/lv_font_fmt_txt.c ****         uint32_t buf_size = gsize;
 102:Drivers/lvgl/src/font/lv_font_fmt_txt.c ****         /*Compute memory size needed to hold decompressed glyph, rounding up*/
 103:Drivers/lvgl/src/font/lv_font_fmt_txt.c ****         switch(fdsc->bpp) {
 104:Drivers/lvgl/src/font/lv_font_fmt_txt.c ****             case 1:
 105:Drivers/lvgl/src/font/lv_font_fmt_txt.c ****                 buf_size = (gsize + 7) >> 3;
 106:Drivers/lvgl/src/font/lv_font_fmt_txt.c ****                 break;
 107:Drivers/lvgl/src/font/lv_font_fmt_txt.c ****             case 2:
 108:Drivers/lvgl/src/font/lv_font_fmt_txt.c ****                 buf_size = (gsize + 3) >> 2;
 109:Drivers/lvgl/src/font/lv_font_fmt_txt.c ****                 break;
 110:Drivers/lvgl/src/font/lv_font_fmt_txt.c ****             case 3:
 111:Drivers/lvgl/src/font/lv_font_fmt_txt.c ****                 buf_size = (gsize + 1) >> 1;
 112:Drivers/lvgl/src/font/lv_font_fmt_txt.c ****                 break;
 113:Drivers/lvgl/src/font/lv_font_fmt_txt.c ****             case 4:
 114:Drivers/lvgl/src/font/lv_font_fmt_txt.c ****                 buf_size = (gsize + 1) >> 1;
 115:Drivers/lvgl/src/font/lv_font_fmt_txt.c ****                 break;
 116:Drivers/lvgl/src/font/lv_font_fmt_txt.c ****         }
 117:Drivers/lvgl/src/font/lv_font_fmt_txt.c **** 
 118:Drivers/lvgl/src/font/lv_font_fmt_txt.c ****         if(last_buf_size < buf_size) {
 119:Drivers/lvgl/src/font/lv_font_fmt_txt.c ****             uint8_t * tmp = lv_mem_realloc(LV_GC_ROOT(_lv_font_decompr_buf), buf_size);
 120:Drivers/lvgl/src/font/lv_font_fmt_txt.c ****             LV_ASSERT_MALLOC(tmp);
 121:Drivers/lvgl/src/font/lv_font_fmt_txt.c ****             if(tmp == NULL) return NULL;
 122:Drivers/lvgl/src/font/lv_font_fmt_txt.c ****             LV_GC_ROOT(_lv_font_decompr_buf) = tmp;
 123:Drivers/lvgl/src/font/lv_font_fmt_txt.c ****             last_buf_size = buf_size;
 124:Drivers/lvgl/src/font/lv_font_fmt_txt.c ****         }
 125:Drivers/lvgl/src/font/lv_font_fmt_txt.c **** 
 126:Drivers/lvgl/src/font/lv_font_fmt_txt.c ****         bool prefilter = fdsc->bitmap_format == LV_FONT_FMT_TXT_COMPRESSED ? true : false;
 127:Drivers/lvgl/src/font/lv_font_fmt_txt.c ****         decompress(&fdsc->glyph_bitmap[gdsc->bitmap_index], LV_GC_ROOT(_lv_font_decompr_buf), gdsc-
 128:Drivers/lvgl/src/font/lv_font_fmt_txt.c ****                    (uint8_t)fdsc->bpp, prefilter);
 129:Drivers/lvgl/src/font/lv_font_fmt_txt.c ****         return LV_GC_ROOT(_lv_font_decompr_buf);
 130:Drivers/lvgl/src/font/lv_font_fmt_txt.c **** #else /*!LV_USE_FONT_COMPRESSED*/
 131:Drivers/lvgl/src/font/lv_font_fmt_txt.c ****         LV_LOG_WARN("Compressed fonts is used but LV_USE_FONT_COMPRESSED is not enabled in lv_conf.
 132:Drivers/lvgl/src/font/lv_font_fmt_txt.c ****         return NULL;
 133:Drivers/lvgl/src/font/lv_font_fmt_txt.c **** #endif
 134:Drivers/lvgl/src/font/lv_font_fmt_txt.c ****     }
 135:Drivers/lvgl/src/font/lv_font_fmt_txt.c **** 
 136:Drivers/lvgl/src/font/lv_font_fmt_txt.c ****     /*If not returned earlier then the letter is not found in this font*/
 137:Drivers/lvgl/src/font/lv_font_fmt_txt.c ****     return NULL;
 138:Drivers/lvgl/src/font/lv_font_fmt_txt.c **** }
 139:Drivers/lvgl/src/font/lv_font_fmt_txt.c **** 
 140:Drivers/lvgl/src/font/lv_font_fmt_txt.c **** /**
 141:Drivers/lvgl/src/font/lv_font_fmt_txt.c ****  * Used as `get_glyph_dsc` callback in LittelvGL's native font format if the font is uncompressed.
 142:Drivers/lvgl/src/font/lv_font_fmt_txt.c ****  * @param font_p pointer to font
 143:Drivers/lvgl/src/font/lv_font_fmt_txt.c ****  * @param dsc_out store the result descriptor here
ARM GAS  /var/folders/lp/x54gwt890xv47sdkqj1k04q40000gn/T//cc0ANnJ5.s 			page 4


 144:Drivers/lvgl/src/font/lv_font_fmt_txt.c ****  * @param letter a UNICODE letter code
 145:Drivers/lvgl/src/font/lv_font_fmt_txt.c ****  * @return true: descriptor is successfully loaded into `dsc_out`.
 146:Drivers/lvgl/src/font/lv_font_fmt_txt.c ****  *         false: the letter was not found, no data is loaded to `dsc_out`
 147:Drivers/lvgl/src/font/lv_font_fmt_txt.c ****  */
 148:Drivers/lvgl/src/font/lv_font_fmt_txt.c **** bool lv_font_get_glyph_dsc_fmt_txt(const lv_font_t * font, lv_font_glyph_dsc_t * dsc_out, uint32_t 
 149:Drivers/lvgl/src/font/lv_font_fmt_txt.c ****                                    uint32_t unicode_letter_next)
 150:Drivers/lvgl/src/font/lv_font_fmt_txt.c **** {
 151:Drivers/lvgl/src/font/lv_font_fmt_txt.c ****     /*It fixes a strange compiler optimization issue: https://github.com/lvgl/lvgl/issues/4370*/
 152:Drivers/lvgl/src/font/lv_font_fmt_txt.c ****     bool is_tab = unicode_letter == '\t';
 153:Drivers/lvgl/src/font/lv_font_fmt_txt.c ****     if(is_tab) {
 154:Drivers/lvgl/src/font/lv_font_fmt_txt.c ****         unicode_letter = ' ';
 155:Drivers/lvgl/src/font/lv_font_fmt_txt.c ****     }
 156:Drivers/lvgl/src/font/lv_font_fmt_txt.c ****     lv_font_fmt_txt_dsc_t * fdsc = (lv_font_fmt_txt_dsc_t *)font->dsc;
 157:Drivers/lvgl/src/font/lv_font_fmt_txt.c ****     uint32_t gid = get_glyph_dsc_id(font, unicode_letter);
 158:Drivers/lvgl/src/font/lv_font_fmt_txt.c ****     if(!gid) return false;
 159:Drivers/lvgl/src/font/lv_font_fmt_txt.c **** 
 160:Drivers/lvgl/src/font/lv_font_fmt_txt.c ****     int8_t kvalue = 0;
 161:Drivers/lvgl/src/font/lv_font_fmt_txt.c ****     if(fdsc->kern_dsc) {
 162:Drivers/lvgl/src/font/lv_font_fmt_txt.c ****         uint32_t gid_next = get_glyph_dsc_id(font, unicode_letter_next);
 163:Drivers/lvgl/src/font/lv_font_fmt_txt.c ****         if(gid_next) {
 164:Drivers/lvgl/src/font/lv_font_fmt_txt.c ****             kvalue = get_kern_value(font, gid, gid_next);
 165:Drivers/lvgl/src/font/lv_font_fmt_txt.c ****         }
 166:Drivers/lvgl/src/font/lv_font_fmt_txt.c ****     }
 167:Drivers/lvgl/src/font/lv_font_fmt_txt.c **** 
 168:Drivers/lvgl/src/font/lv_font_fmt_txt.c ****     /*Put together a glyph dsc*/
 169:Drivers/lvgl/src/font/lv_font_fmt_txt.c ****     const lv_font_fmt_txt_glyph_dsc_t * gdsc = &fdsc->glyph_dsc[gid];
 170:Drivers/lvgl/src/font/lv_font_fmt_txt.c **** 
 171:Drivers/lvgl/src/font/lv_font_fmt_txt.c ****     int32_t kv = ((int32_t)((int32_t)kvalue * fdsc->kern_scale) >> 4);
 172:Drivers/lvgl/src/font/lv_font_fmt_txt.c **** 
 173:Drivers/lvgl/src/font/lv_font_fmt_txt.c ****     uint32_t adv_w = gdsc->adv_w;
 174:Drivers/lvgl/src/font/lv_font_fmt_txt.c ****     if(is_tab) adv_w *= 2;
 175:Drivers/lvgl/src/font/lv_font_fmt_txt.c **** 
 176:Drivers/lvgl/src/font/lv_font_fmt_txt.c ****     adv_w += kv;
 177:Drivers/lvgl/src/font/lv_font_fmt_txt.c ****     adv_w  = (adv_w + (1 << 3)) >> 4;
 178:Drivers/lvgl/src/font/lv_font_fmt_txt.c **** 
 179:Drivers/lvgl/src/font/lv_font_fmt_txt.c ****     dsc_out->adv_w = adv_w;
 180:Drivers/lvgl/src/font/lv_font_fmt_txt.c ****     dsc_out->box_h = gdsc->box_h;
 181:Drivers/lvgl/src/font/lv_font_fmt_txt.c ****     dsc_out->box_w = gdsc->box_w;
 182:Drivers/lvgl/src/font/lv_font_fmt_txt.c ****     dsc_out->ofs_x = gdsc->ofs_x;
 183:Drivers/lvgl/src/font/lv_font_fmt_txt.c ****     dsc_out->ofs_y = gdsc->ofs_y;
 184:Drivers/lvgl/src/font/lv_font_fmt_txt.c ****     dsc_out->bpp   = (uint8_t)fdsc->bpp;
 185:Drivers/lvgl/src/font/lv_font_fmt_txt.c ****     dsc_out->is_placeholder = false;
 186:Drivers/lvgl/src/font/lv_font_fmt_txt.c **** 
 187:Drivers/lvgl/src/font/lv_font_fmt_txt.c ****     if(is_tab) dsc_out->box_w = dsc_out->box_w * 2;
 188:Drivers/lvgl/src/font/lv_font_fmt_txt.c **** 
 189:Drivers/lvgl/src/font/lv_font_fmt_txt.c ****     return true;
 190:Drivers/lvgl/src/font/lv_font_fmt_txt.c **** }
 191:Drivers/lvgl/src/font/lv_font_fmt_txt.c **** 
 192:Drivers/lvgl/src/font/lv_font_fmt_txt.c **** /**
 193:Drivers/lvgl/src/font/lv_font_fmt_txt.c ****  * Free the allocated memories.
 194:Drivers/lvgl/src/font/lv_font_fmt_txt.c ****  */
 195:Drivers/lvgl/src/font/lv_font_fmt_txt.c **** void _lv_font_clean_up_fmt_txt(void)
 196:Drivers/lvgl/src/font/lv_font_fmt_txt.c **** {
 197:Drivers/lvgl/src/font/lv_font_fmt_txt.c **** #if LV_USE_FONT_COMPRESSED
 198:Drivers/lvgl/src/font/lv_font_fmt_txt.c ****     if(LV_GC_ROOT(_lv_font_decompr_buf)) {
 199:Drivers/lvgl/src/font/lv_font_fmt_txt.c ****         lv_mem_free(LV_GC_ROOT(_lv_font_decompr_buf));
 200:Drivers/lvgl/src/font/lv_font_fmt_txt.c ****         LV_GC_ROOT(_lv_font_decompr_buf) = NULL;
ARM GAS  /var/folders/lp/x54gwt890xv47sdkqj1k04q40000gn/T//cc0ANnJ5.s 			page 5


 201:Drivers/lvgl/src/font/lv_font_fmt_txt.c ****     }
 202:Drivers/lvgl/src/font/lv_font_fmt_txt.c **** #endif
 203:Drivers/lvgl/src/font/lv_font_fmt_txt.c **** }
 204:Drivers/lvgl/src/font/lv_font_fmt_txt.c **** 
 205:Drivers/lvgl/src/font/lv_font_fmt_txt.c **** /**********************
 206:Drivers/lvgl/src/font/lv_font_fmt_txt.c ****  *   STATIC FUNCTIONS
 207:Drivers/lvgl/src/font/lv_font_fmt_txt.c ****  **********************/
 208:Drivers/lvgl/src/font/lv_font_fmt_txt.c **** 
 209:Drivers/lvgl/src/font/lv_font_fmt_txt.c **** static uint32_t get_glyph_dsc_id(const lv_font_t * font, uint32_t letter)
 210:Drivers/lvgl/src/font/lv_font_fmt_txt.c **** {
 211:Drivers/lvgl/src/font/lv_font_fmt_txt.c ****     if(letter == '\0') return 0;
 212:Drivers/lvgl/src/font/lv_font_fmt_txt.c **** 
 213:Drivers/lvgl/src/font/lv_font_fmt_txt.c ****     lv_font_fmt_txt_dsc_t * fdsc = (lv_font_fmt_txt_dsc_t *)font->dsc;
 214:Drivers/lvgl/src/font/lv_font_fmt_txt.c **** 
 215:Drivers/lvgl/src/font/lv_font_fmt_txt.c ****     /*Check the cache first*/
 216:Drivers/lvgl/src/font/lv_font_fmt_txt.c ****     if(fdsc->cache && letter == fdsc->cache->last_letter) return fdsc->cache->last_glyph_id;
 217:Drivers/lvgl/src/font/lv_font_fmt_txt.c **** 
 218:Drivers/lvgl/src/font/lv_font_fmt_txt.c ****     uint16_t i;
 219:Drivers/lvgl/src/font/lv_font_fmt_txt.c ****     for(i = 0; i < fdsc->cmap_num; i++) {
 220:Drivers/lvgl/src/font/lv_font_fmt_txt.c **** 
 221:Drivers/lvgl/src/font/lv_font_fmt_txt.c ****         /*Relative code point*/
 222:Drivers/lvgl/src/font/lv_font_fmt_txt.c ****         uint32_t rcp = letter - fdsc->cmaps[i].range_start;
 223:Drivers/lvgl/src/font/lv_font_fmt_txt.c ****         if(rcp > fdsc->cmaps[i].range_length) continue;
 224:Drivers/lvgl/src/font/lv_font_fmt_txt.c ****         uint32_t glyph_id = 0;
 225:Drivers/lvgl/src/font/lv_font_fmt_txt.c ****         if(fdsc->cmaps[i].type == LV_FONT_FMT_TXT_CMAP_FORMAT0_TINY) {
 226:Drivers/lvgl/src/font/lv_font_fmt_txt.c ****             glyph_id = fdsc->cmaps[i].glyph_id_start + rcp;
 227:Drivers/lvgl/src/font/lv_font_fmt_txt.c ****         }
 228:Drivers/lvgl/src/font/lv_font_fmt_txt.c ****         else if(fdsc->cmaps[i].type == LV_FONT_FMT_TXT_CMAP_FORMAT0_FULL) {
 229:Drivers/lvgl/src/font/lv_font_fmt_txt.c ****             const uint8_t * gid_ofs_8 = fdsc->cmaps[i].glyph_id_ofs_list;
 230:Drivers/lvgl/src/font/lv_font_fmt_txt.c ****             glyph_id = fdsc->cmaps[i].glyph_id_start + gid_ofs_8[rcp];
 231:Drivers/lvgl/src/font/lv_font_fmt_txt.c ****         }
 232:Drivers/lvgl/src/font/lv_font_fmt_txt.c ****         else if(fdsc->cmaps[i].type == LV_FONT_FMT_TXT_CMAP_SPARSE_TINY) {
 233:Drivers/lvgl/src/font/lv_font_fmt_txt.c ****             uint16_t key = rcp;
 234:Drivers/lvgl/src/font/lv_font_fmt_txt.c ****             uint16_t * p = _lv_utils_bsearch(&key, fdsc->cmaps[i].unicode_list, fdsc->cmaps[i].list
 235:Drivers/lvgl/src/font/lv_font_fmt_txt.c ****                                              sizeof(fdsc->cmaps[i].unicode_list[0]), unicode_list_c
 236:Drivers/lvgl/src/font/lv_font_fmt_txt.c **** 
 237:Drivers/lvgl/src/font/lv_font_fmt_txt.c ****             if(p) {
 238:Drivers/lvgl/src/font/lv_font_fmt_txt.c ****                 lv_uintptr_t ofs = p - fdsc->cmaps[i].unicode_list;
 239:Drivers/lvgl/src/font/lv_font_fmt_txt.c ****                 glyph_id = fdsc->cmaps[i].glyph_id_start + ofs;
 240:Drivers/lvgl/src/font/lv_font_fmt_txt.c ****             }
 241:Drivers/lvgl/src/font/lv_font_fmt_txt.c ****         }
 242:Drivers/lvgl/src/font/lv_font_fmt_txt.c ****         else if(fdsc->cmaps[i].type == LV_FONT_FMT_TXT_CMAP_SPARSE_FULL) {
 243:Drivers/lvgl/src/font/lv_font_fmt_txt.c ****             uint16_t key = rcp;
 244:Drivers/lvgl/src/font/lv_font_fmt_txt.c ****             uint16_t * p = _lv_utils_bsearch(&key, fdsc->cmaps[i].unicode_list, fdsc->cmaps[i].list
 245:Drivers/lvgl/src/font/lv_font_fmt_txt.c ****                                              sizeof(fdsc->cmaps[i].unicode_list[0]), unicode_list_c
 246:Drivers/lvgl/src/font/lv_font_fmt_txt.c **** 
 247:Drivers/lvgl/src/font/lv_font_fmt_txt.c ****             if(p) {
 248:Drivers/lvgl/src/font/lv_font_fmt_txt.c ****                 lv_uintptr_t ofs = p - fdsc->cmaps[i].unicode_list;
 249:Drivers/lvgl/src/font/lv_font_fmt_txt.c ****                 const uint16_t * gid_ofs_16 = fdsc->cmaps[i].glyph_id_ofs_list;
 250:Drivers/lvgl/src/font/lv_font_fmt_txt.c ****                 glyph_id = fdsc->cmaps[i].glyph_id_start + gid_ofs_16[ofs];
 251:Drivers/lvgl/src/font/lv_font_fmt_txt.c ****             }
 252:Drivers/lvgl/src/font/lv_font_fmt_txt.c ****         }
 253:Drivers/lvgl/src/font/lv_font_fmt_txt.c **** 
 254:Drivers/lvgl/src/font/lv_font_fmt_txt.c ****         /*Update the cache*/
 255:Drivers/lvgl/src/font/lv_font_fmt_txt.c ****         if(fdsc->cache) {
 256:Drivers/lvgl/src/font/lv_font_fmt_txt.c ****             fdsc->cache->last_letter = letter;
 257:Drivers/lvgl/src/font/lv_font_fmt_txt.c ****             fdsc->cache->last_glyph_id = glyph_id;
ARM GAS  /var/folders/lp/x54gwt890xv47sdkqj1k04q40000gn/T//cc0ANnJ5.s 			page 6


 258:Drivers/lvgl/src/font/lv_font_fmt_txt.c ****         }
 259:Drivers/lvgl/src/font/lv_font_fmt_txt.c ****         return glyph_id;
 260:Drivers/lvgl/src/font/lv_font_fmt_txt.c ****     }
 261:Drivers/lvgl/src/font/lv_font_fmt_txt.c **** 
 262:Drivers/lvgl/src/font/lv_font_fmt_txt.c ****     if(fdsc->cache) {
 263:Drivers/lvgl/src/font/lv_font_fmt_txt.c ****         fdsc->cache->last_letter = letter;
 264:Drivers/lvgl/src/font/lv_font_fmt_txt.c ****         fdsc->cache->last_glyph_id = 0;
 265:Drivers/lvgl/src/font/lv_font_fmt_txt.c ****     }
 266:Drivers/lvgl/src/font/lv_font_fmt_txt.c ****     return 0;
 267:Drivers/lvgl/src/font/lv_font_fmt_txt.c **** 
 268:Drivers/lvgl/src/font/lv_font_fmt_txt.c **** }
 269:Drivers/lvgl/src/font/lv_font_fmt_txt.c **** 
 270:Drivers/lvgl/src/font/lv_font_fmt_txt.c **** static int8_t get_kern_value(const lv_font_t * font, uint32_t gid_left, uint32_t gid_right)
 271:Drivers/lvgl/src/font/lv_font_fmt_txt.c **** {
 272:Drivers/lvgl/src/font/lv_font_fmt_txt.c ****     lv_font_fmt_txt_dsc_t * fdsc = (lv_font_fmt_txt_dsc_t *)font->dsc;
 273:Drivers/lvgl/src/font/lv_font_fmt_txt.c **** 
 274:Drivers/lvgl/src/font/lv_font_fmt_txt.c ****     int8_t value = 0;
 275:Drivers/lvgl/src/font/lv_font_fmt_txt.c **** 
 276:Drivers/lvgl/src/font/lv_font_fmt_txt.c ****     if(fdsc->kern_classes == 0) {
 277:Drivers/lvgl/src/font/lv_font_fmt_txt.c ****         /*Kern pairs*/
 278:Drivers/lvgl/src/font/lv_font_fmt_txt.c ****         const lv_font_fmt_txt_kern_pair_t * kdsc = fdsc->kern_dsc;
 279:Drivers/lvgl/src/font/lv_font_fmt_txt.c ****         if(kdsc->glyph_ids_size == 0) {
 280:Drivers/lvgl/src/font/lv_font_fmt_txt.c ****             /*Use binary search to find the kern value.
 281:Drivers/lvgl/src/font/lv_font_fmt_txt.c ****              *The pairs are ordered left_id first, then right_id secondly.*/
 282:Drivers/lvgl/src/font/lv_font_fmt_txt.c ****             const uint16_t * g_ids = kdsc->glyph_ids;
 283:Drivers/lvgl/src/font/lv_font_fmt_txt.c ****             uint16_t g_id_both = (gid_right << 8) + gid_left; /*Create one number from the ids*/
 284:Drivers/lvgl/src/font/lv_font_fmt_txt.c ****             uint16_t * kid_p = _lv_utils_bsearch(&g_id_both, g_ids, kdsc->pair_cnt, 2, kern_pair_8_
 285:Drivers/lvgl/src/font/lv_font_fmt_txt.c **** 
 286:Drivers/lvgl/src/font/lv_font_fmt_txt.c ****             /*If the `g_id_both` were found get its index from the pointer*/
 287:Drivers/lvgl/src/font/lv_font_fmt_txt.c ****             if(kid_p) {
 288:Drivers/lvgl/src/font/lv_font_fmt_txt.c ****                 lv_uintptr_t ofs = kid_p - g_ids;
 289:Drivers/lvgl/src/font/lv_font_fmt_txt.c ****                 value = kdsc->values[ofs];
 290:Drivers/lvgl/src/font/lv_font_fmt_txt.c ****             }
 291:Drivers/lvgl/src/font/lv_font_fmt_txt.c ****         }
 292:Drivers/lvgl/src/font/lv_font_fmt_txt.c ****         else if(kdsc->glyph_ids_size == 1) {
 293:Drivers/lvgl/src/font/lv_font_fmt_txt.c ****             /*Use binary search to find the kern value.
 294:Drivers/lvgl/src/font/lv_font_fmt_txt.c ****              *The pairs are ordered left_id first, then right_id secondly.*/
 295:Drivers/lvgl/src/font/lv_font_fmt_txt.c ****             const uint32_t * g_ids = kdsc->glyph_ids;
 296:Drivers/lvgl/src/font/lv_font_fmt_txt.c ****             uint32_t g_id_both = (gid_right << 16) + gid_left; /*Create one number from the ids*/
 297:Drivers/lvgl/src/font/lv_font_fmt_txt.c ****             uint32_t * kid_p = _lv_utils_bsearch(&g_id_both, g_ids, kdsc->pair_cnt, 4, kern_pair_16
 298:Drivers/lvgl/src/font/lv_font_fmt_txt.c **** 
 299:Drivers/lvgl/src/font/lv_font_fmt_txt.c ****             /*If the `g_id_both` were found get its index from the pointer*/
 300:Drivers/lvgl/src/font/lv_font_fmt_txt.c ****             if(kid_p) {
 301:Drivers/lvgl/src/font/lv_font_fmt_txt.c ****                 lv_uintptr_t ofs = kid_p - g_ids;
 302:Drivers/lvgl/src/font/lv_font_fmt_txt.c ****                 value = kdsc->values[ofs];
 303:Drivers/lvgl/src/font/lv_font_fmt_txt.c ****             }
 304:Drivers/lvgl/src/font/lv_font_fmt_txt.c **** 
 305:Drivers/lvgl/src/font/lv_font_fmt_txt.c ****         }
 306:Drivers/lvgl/src/font/lv_font_fmt_txt.c ****         else {
 307:Drivers/lvgl/src/font/lv_font_fmt_txt.c ****             /*Invalid value*/
 308:Drivers/lvgl/src/font/lv_font_fmt_txt.c ****         }
 309:Drivers/lvgl/src/font/lv_font_fmt_txt.c ****     }
 310:Drivers/lvgl/src/font/lv_font_fmt_txt.c ****     else {
 311:Drivers/lvgl/src/font/lv_font_fmt_txt.c ****         /*Kern classes*/
 312:Drivers/lvgl/src/font/lv_font_fmt_txt.c ****         const lv_font_fmt_txt_kern_classes_t * kdsc = fdsc->kern_dsc;
 313:Drivers/lvgl/src/font/lv_font_fmt_txt.c ****         uint8_t left_class = kdsc->left_class_mapping[gid_left];
 314:Drivers/lvgl/src/font/lv_font_fmt_txt.c ****         uint8_t right_class = kdsc->right_class_mapping[gid_right];
ARM GAS  /var/folders/lp/x54gwt890xv47sdkqj1k04q40000gn/T//cc0ANnJ5.s 			page 7


 315:Drivers/lvgl/src/font/lv_font_fmt_txt.c **** 
 316:Drivers/lvgl/src/font/lv_font_fmt_txt.c ****         /*If class = 0, kerning not exist for that glyph
 317:Drivers/lvgl/src/font/lv_font_fmt_txt.c ****          *else got the value form `class_pair_values` 2D array*/
 318:Drivers/lvgl/src/font/lv_font_fmt_txt.c ****         if(left_class > 0 && right_class > 0) {
 319:Drivers/lvgl/src/font/lv_font_fmt_txt.c ****             value = kdsc->class_pair_values[(left_class - 1) * kdsc->right_class_cnt + (right_class
 320:Drivers/lvgl/src/font/lv_font_fmt_txt.c ****         }
 321:Drivers/lvgl/src/font/lv_font_fmt_txt.c **** 
 322:Drivers/lvgl/src/font/lv_font_fmt_txt.c ****     }
 323:Drivers/lvgl/src/font/lv_font_fmt_txt.c ****     return value;
 324:Drivers/lvgl/src/font/lv_font_fmt_txt.c **** }
 325:Drivers/lvgl/src/font/lv_font_fmt_txt.c **** 
 326:Drivers/lvgl/src/font/lv_font_fmt_txt.c **** static int32_t kern_pair_8_compare(const void * ref, const void * element)
 327:Drivers/lvgl/src/font/lv_font_fmt_txt.c **** {
  30              		.loc 1 327 1 view -0
  31              		.cfi_startproc
  32              		@ args = 0, pretend = 0, frame = 0
  33              		@ frame_needed = 0, uses_anonymous_args = 0
  34              		@ link register save eliminated.
 328:Drivers/lvgl/src/font/lv_font_fmt_txt.c ****     const uint8_t * ref8_p = ref;
  35              		.loc 1 328 5 view .LVU1
 329:Drivers/lvgl/src/font/lv_font_fmt_txt.c ****     const uint8_t * element8_p = element;
  36              		.loc 1 329 5 view .LVU2
 330:Drivers/lvgl/src/font/lv_font_fmt_txt.c **** 
 331:Drivers/lvgl/src/font/lv_font_fmt_txt.c ****     /*If the MSB is different it will matter. If not return the diff. of the LSB*/
 332:Drivers/lvgl/src/font/lv_font_fmt_txt.c ****     if(ref8_p[0] != element8_p[0]) return (int32_t)ref8_p[0] - element8_p[0];
  37              		.loc 1 332 5 view .LVU3
  38              		.loc 1 332 14 is_stmt 0 view .LVU4
  39 0000 0378     		ldrb	r3, [r0]	@ zero_extendqisi2
  40              		.loc 1 332 31 view .LVU5
  41 0002 0A78     		ldrb	r2, [r1]	@ zero_extendqisi2
  42              		.loc 1 332 7 view .LVU6
  43 0004 9342     		cmp	r3, r2
  44              		.loc 1 332 36 is_stmt 1 discriminator 1 view .LVU7
 333:Drivers/lvgl/src/font/lv_font_fmt_txt.c ****     else return (int32_t) ref8_p[1] - element8_p[1];
  45              		.loc 1 333 49 is_stmt 0 view .LVU8
  46 0006 09BF     		itett	eq
  47 0008 4B78     		ldrbeq	r3, [r1, #1]	@ zero_extendqisi2
 332:Drivers/lvgl/src/font/lv_font_fmt_txt.c ****     else return (int32_t) ref8_p[1] - element8_p[1];
  48              		.loc 1 332 62 discriminator 1 view .LVU9
  49 000a 981A     		subne	r0, r3, r2
  50              	.LVL1:
  51              		.loc 1 333 10 is_stmt 1 view .LVU10
  52              		.loc 1 333 17 is_stmt 0 view .LVU11
  53 000c 4078     		ldrbeq	r0, [r0, #1]	@ zero_extendqisi2
  54              		.loc 1 333 37 view .LVU12
  55 000e C01A     		subeq	r0, r0, r3
 334:Drivers/lvgl/src/font/lv_font_fmt_txt.c **** 
 335:Drivers/lvgl/src/font/lv_font_fmt_txt.c **** }
  56              		.loc 1 335 1 view .LVU13
  57 0010 7047     		bx	lr
  58              		.cfi_endproc
  59              	.LFE31:
  61 0012 00BF     		.section	.text.kern_pair_16_compare,"ax",%progbits
  62              		.align	1
  63              		.p2align 2,,3
  64              		.syntax unified
  65              		.thumb
ARM GAS  /var/folders/lp/x54gwt890xv47sdkqj1k04q40000gn/T//cc0ANnJ5.s 			page 8


  66              		.thumb_func
  68              	kern_pair_16_compare:
  69              	.LVL2:
  70              	.LFB32:
 336:Drivers/lvgl/src/font/lv_font_fmt_txt.c **** 
 337:Drivers/lvgl/src/font/lv_font_fmt_txt.c **** static int32_t kern_pair_16_compare(const void * ref, const void * element)
 338:Drivers/lvgl/src/font/lv_font_fmt_txt.c **** {
  71              		.loc 1 338 1 is_stmt 1 view -0
  72              		.cfi_startproc
  73              		@ args = 0, pretend = 0, frame = 0
  74              		@ frame_needed = 0, uses_anonymous_args = 0
  75              		@ link register save eliminated.
 339:Drivers/lvgl/src/font/lv_font_fmt_txt.c ****     const uint16_t * ref16_p = ref;
  76              		.loc 1 339 5 view .LVU15
 340:Drivers/lvgl/src/font/lv_font_fmt_txt.c ****     const uint16_t * element16_p = element;
  77              		.loc 1 340 5 view .LVU16
 341:Drivers/lvgl/src/font/lv_font_fmt_txt.c **** 
 342:Drivers/lvgl/src/font/lv_font_fmt_txt.c ****     /*If the MSB is different it will matter. If not return the diff. of the LSB*/
 343:Drivers/lvgl/src/font/lv_font_fmt_txt.c ****     if(ref16_p[0] != element16_p[0]) return (int32_t)ref16_p[0] - element16_p[0];
  78              		.loc 1 343 5 view .LVU17
  79              		.loc 1 343 15 is_stmt 0 view .LVU18
  80 0000 0388     		ldrh	r3, [r0]
  81              		.loc 1 343 33 view .LVU19
  82 0002 0A88     		ldrh	r2, [r1]
  83              		.loc 1 343 7 view .LVU20
  84 0004 9342     		cmp	r3, r2
  85              		.loc 1 343 38 is_stmt 1 discriminator 1 view .LVU21
 344:Drivers/lvgl/src/font/lv_font_fmt_txt.c ****     else return (int32_t) ref16_p[1] - element16_p[1];
  86              		.loc 1 344 51 is_stmt 0 view .LVU22
  87 0006 09BF     		itett	eq
  88 0008 4B88     		ldrheq	r3, [r1, #2]
 343:Drivers/lvgl/src/font/lv_font_fmt_txt.c ****     else return (int32_t) ref16_p[1] - element16_p[1];
  89              		.loc 1 343 65 discriminator 1 view .LVU23
  90 000a 981A     		subne	r0, r3, r2
  91              	.LVL3:
  92              		.loc 1 344 10 is_stmt 1 view .LVU24
  93              		.loc 1 344 17 is_stmt 0 view .LVU25
  94 000c 4088     		ldrheq	r0, [r0, #2]
  95              		.loc 1 344 38 view .LVU26
  96 000e C01A     		subeq	r0, r0, r3
 345:Drivers/lvgl/src/font/lv_font_fmt_txt.c **** }
  97              		.loc 1 345 1 view .LVU27
  98 0010 7047     		bx	lr
  99              		.cfi_endproc
 100              	.LFE32:
 102 0012 00BF     		.section	.text.unicode_list_compare,"ax",%progbits
 103              		.align	1
 104              		.p2align 2,,3
 105              		.syntax unified
 106              		.thumb
 107              		.thumb_func
 109              	unicode_list_compare:
 110              	.LVL4:
 111              	.LFB33:
 346:Drivers/lvgl/src/font/lv_font_fmt_txt.c **** 
 347:Drivers/lvgl/src/font/lv_font_fmt_txt.c **** #if LV_USE_FONT_COMPRESSED
 348:Drivers/lvgl/src/font/lv_font_fmt_txt.c **** /**
ARM GAS  /var/folders/lp/x54gwt890xv47sdkqj1k04q40000gn/T//cc0ANnJ5.s 			page 9


 349:Drivers/lvgl/src/font/lv_font_fmt_txt.c ****  * The compress a glyph's bitmap
 350:Drivers/lvgl/src/font/lv_font_fmt_txt.c ****  * @param in the compressed bitmap
 351:Drivers/lvgl/src/font/lv_font_fmt_txt.c ****  * @param out buffer to store the result
 352:Drivers/lvgl/src/font/lv_font_fmt_txt.c ****  * @param px_num number of pixels in the glyph (width * height)
 353:Drivers/lvgl/src/font/lv_font_fmt_txt.c ****  * @param bpp bit per pixel (bpp = 3 will be converted to bpp = 4)
 354:Drivers/lvgl/src/font/lv_font_fmt_txt.c ****  * @param prefilter true: the lines are XORed
 355:Drivers/lvgl/src/font/lv_font_fmt_txt.c ****  */
 356:Drivers/lvgl/src/font/lv_font_fmt_txt.c **** static void decompress(const uint8_t * in, uint8_t * out, lv_coord_t w, lv_coord_t h, uint8_t bpp, 
 357:Drivers/lvgl/src/font/lv_font_fmt_txt.c **** {
 358:Drivers/lvgl/src/font/lv_font_fmt_txt.c ****     uint32_t wrp = 0;
 359:Drivers/lvgl/src/font/lv_font_fmt_txt.c ****     uint8_t wr_size = bpp;
 360:Drivers/lvgl/src/font/lv_font_fmt_txt.c ****     if(bpp == 3) wr_size = 4;
 361:Drivers/lvgl/src/font/lv_font_fmt_txt.c **** 
 362:Drivers/lvgl/src/font/lv_font_fmt_txt.c ****     rle_init(in, bpp);
 363:Drivers/lvgl/src/font/lv_font_fmt_txt.c **** 
 364:Drivers/lvgl/src/font/lv_font_fmt_txt.c ****     uint8_t * line_buf1 = lv_mem_buf_get(w);
 365:Drivers/lvgl/src/font/lv_font_fmt_txt.c **** 
 366:Drivers/lvgl/src/font/lv_font_fmt_txt.c ****     uint8_t * line_buf2 = NULL;
 367:Drivers/lvgl/src/font/lv_font_fmt_txt.c **** 
 368:Drivers/lvgl/src/font/lv_font_fmt_txt.c ****     if(prefilter) {
 369:Drivers/lvgl/src/font/lv_font_fmt_txt.c ****         line_buf2 = lv_mem_buf_get(w);
 370:Drivers/lvgl/src/font/lv_font_fmt_txt.c ****     }
 371:Drivers/lvgl/src/font/lv_font_fmt_txt.c **** 
 372:Drivers/lvgl/src/font/lv_font_fmt_txt.c ****     decompress_line(line_buf1, w);
 373:Drivers/lvgl/src/font/lv_font_fmt_txt.c **** 
 374:Drivers/lvgl/src/font/lv_font_fmt_txt.c ****     lv_coord_t y;
 375:Drivers/lvgl/src/font/lv_font_fmt_txt.c ****     lv_coord_t x;
 376:Drivers/lvgl/src/font/lv_font_fmt_txt.c **** 
 377:Drivers/lvgl/src/font/lv_font_fmt_txt.c ****     for(x = 0; x < w; x++) {
 378:Drivers/lvgl/src/font/lv_font_fmt_txt.c ****         bits_write(out, wrp, line_buf1[x], bpp);
 379:Drivers/lvgl/src/font/lv_font_fmt_txt.c ****         wrp += wr_size;
 380:Drivers/lvgl/src/font/lv_font_fmt_txt.c ****     }
 381:Drivers/lvgl/src/font/lv_font_fmt_txt.c **** 
 382:Drivers/lvgl/src/font/lv_font_fmt_txt.c ****     for(y = 1; y < h; y++) {
 383:Drivers/lvgl/src/font/lv_font_fmt_txt.c ****         if(prefilter) {
 384:Drivers/lvgl/src/font/lv_font_fmt_txt.c ****             decompress_line(line_buf2, w);
 385:Drivers/lvgl/src/font/lv_font_fmt_txt.c **** 
 386:Drivers/lvgl/src/font/lv_font_fmt_txt.c ****             for(x = 0; x < w; x++) {
 387:Drivers/lvgl/src/font/lv_font_fmt_txt.c ****                 line_buf1[x] = line_buf2[x] ^ line_buf1[x];
 388:Drivers/lvgl/src/font/lv_font_fmt_txt.c ****                 bits_write(out, wrp, line_buf1[x], bpp);
 389:Drivers/lvgl/src/font/lv_font_fmt_txt.c ****                 wrp += wr_size;
 390:Drivers/lvgl/src/font/lv_font_fmt_txt.c ****             }
 391:Drivers/lvgl/src/font/lv_font_fmt_txt.c ****         }
 392:Drivers/lvgl/src/font/lv_font_fmt_txt.c ****         else {
 393:Drivers/lvgl/src/font/lv_font_fmt_txt.c ****             decompress_line(line_buf1, w);
 394:Drivers/lvgl/src/font/lv_font_fmt_txt.c **** 
 395:Drivers/lvgl/src/font/lv_font_fmt_txt.c ****             for(x = 0; x < w; x++) {
 396:Drivers/lvgl/src/font/lv_font_fmt_txt.c ****                 bits_write(out, wrp, line_buf1[x], bpp);
 397:Drivers/lvgl/src/font/lv_font_fmt_txt.c ****                 wrp += wr_size;
 398:Drivers/lvgl/src/font/lv_font_fmt_txt.c ****             }
 399:Drivers/lvgl/src/font/lv_font_fmt_txt.c ****         }
 400:Drivers/lvgl/src/font/lv_font_fmt_txt.c ****     }
 401:Drivers/lvgl/src/font/lv_font_fmt_txt.c **** 
 402:Drivers/lvgl/src/font/lv_font_fmt_txt.c ****     lv_mem_buf_release(line_buf1);
 403:Drivers/lvgl/src/font/lv_font_fmt_txt.c ****     lv_mem_buf_release(line_buf2);
 404:Drivers/lvgl/src/font/lv_font_fmt_txt.c **** }
 405:Drivers/lvgl/src/font/lv_font_fmt_txt.c **** 
ARM GAS  /var/folders/lp/x54gwt890xv47sdkqj1k04q40000gn/T//cc0ANnJ5.s 			page 10


 406:Drivers/lvgl/src/font/lv_font_fmt_txt.c **** /**
 407:Drivers/lvgl/src/font/lv_font_fmt_txt.c ****  * Decompress one line. Store one pixel per byte
 408:Drivers/lvgl/src/font/lv_font_fmt_txt.c ****  * @param out output buffer
 409:Drivers/lvgl/src/font/lv_font_fmt_txt.c ****  * @param w width of the line in pixel count
 410:Drivers/lvgl/src/font/lv_font_fmt_txt.c ****  */
 411:Drivers/lvgl/src/font/lv_font_fmt_txt.c **** static inline void decompress_line(uint8_t * out, lv_coord_t w)
 412:Drivers/lvgl/src/font/lv_font_fmt_txt.c **** {
 413:Drivers/lvgl/src/font/lv_font_fmt_txt.c ****     lv_coord_t i;
 414:Drivers/lvgl/src/font/lv_font_fmt_txt.c ****     for(i = 0; i < w; i++) {
 415:Drivers/lvgl/src/font/lv_font_fmt_txt.c ****         out[i] = rle_next();
 416:Drivers/lvgl/src/font/lv_font_fmt_txt.c ****     }
 417:Drivers/lvgl/src/font/lv_font_fmt_txt.c **** }
 418:Drivers/lvgl/src/font/lv_font_fmt_txt.c **** 
 419:Drivers/lvgl/src/font/lv_font_fmt_txt.c **** /**
 420:Drivers/lvgl/src/font/lv_font_fmt_txt.c ****  * Read bits from an input buffer. The read can cross byte boundary.
 421:Drivers/lvgl/src/font/lv_font_fmt_txt.c ****  * @param in the input buffer to read from.
 422:Drivers/lvgl/src/font/lv_font_fmt_txt.c ****  * @param bit_pos index of the first bit to read.
 423:Drivers/lvgl/src/font/lv_font_fmt_txt.c ****  * @param len number of bits to read (must be <= 8).
 424:Drivers/lvgl/src/font/lv_font_fmt_txt.c ****  * @return the read bits
 425:Drivers/lvgl/src/font/lv_font_fmt_txt.c ****  */
 426:Drivers/lvgl/src/font/lv_font_fmt_txt.c **** static inline uint8_t get_bits(const uint8_t * in, uint32_t bit_pos, uint8_t len)
 427:Drivers/lvgl/src/font/lv_font_fmt_txt.c **** {
 428:Drivers/lvgl/src/font/lv_font_fmt_txt.c ****     uint8_t bit_mask;
 429:Drivers/lvgl/src/font/lv_font_fmt_txt.c ****     switch(len) {
 430:Drivers/lvgl/src/font/lv_font_fmt_txt.c ****         case 1:
 431:Drivers/lvgl/src/font/lv_font_fmt_txt.c ****             bit_mask = 0x1;
 432:Drivers/lvgl/src/font/lv_font_fmt_txt.c ****             break;
 433:Drivers/lvgl/src/font/lv_font_fmt_txt.c ****         case 2:
 434:Drivers/lvgl/src/font/lv_font_fmt_txt.c ****             bit_mask = 0x3;
 435:Drivers/lvgl/src/font/lv_font_fmt_txt.c ****             break;
 436:Drivers/lvgl/src/font/lv_font_fmt_txt.c ****         case 3:
 437:Drivers/lvgl/src/font/lv_font_fmt_txt.c ****             bit_mask = 0x7;
 438:Drivers/lvgl/src/font/lv_font_fmt_txt.c ****             break;
 439:Drivers/lvgl/src/font/lv_font_fmt_txt.c ****         case 4:
 440:Drivers/lvgl/src/font/lv_font_fmt_txt.c ****             bit_mask = 0xF;
 441:Drivers/lvgl/src/font/lv_font_fmt_txt.c ****             break;
 442:Drivers/lvgl/src/font/lv_font_fmt_txt.c ****         case 8:
 443:Drivers/lvgl/src/font/lv_font_fmt_txt.c ****             bit_mask = 0xFF;
 444:Drivers/lvgl/src/font/lv_font_fmt_txt.c ****             break;
 445:Drivers/lvgl/src/font/lv_font_fmt_txt.c ****         default:
 446:Drivers/lvgl/src/font/lv_font_fmt_txt.c ****             bit_mask = (uint16_t)((uint16_t) 1 << len) - 1;
 447:Drivers/lvgl/src/font/lv_font_fmt_txt.c ****     }
 448:Drivers/lvgl/src/font/lv_font_fmt_txt.c **** 
 449:Drivers/lvgl/src/font/lv_font_fmt_txt.c ****     uint32_t byte_pos = bit_pos >> 3;
 450:Drivers/lvgl/src/font/lv_font_fmt_txt.c ****     bit_pos = bit_pos & 0x7;
 451:Drivers/lvgl/src/font/lv_font_fmt_txt.c **** 
 452:Drivers/lvgl/src/font/lv_font_fmt_txt.c ****     if(bit_pos + len >= 8) {
 453:Drivers/lvgl/src/font/lv_font_fmt_txt.c ****         uint16_t in16 = (in[byte_pos] << 8) + in[byte_pos + 1];
 454:Drivers/lvgl/src/font/lv_font_fmt_txt.c ****         return (in16 >> (16 - bit_pos - len)) & bit_mask;
 455:Drivers/lvgl/src/font/lv_font_fmt_txt.c ****     }
 456:Drivers/lvgl/src/font/lv_font_fmt_txt.c ****     else {
 457:Drivers/lvgl/src/font/lv_font_fmt_txt.c ****         return (in[byte_pos] >> (8 - bit_pos - len)) & bit_mask;
 458:Drivers/lvgl/src/font/lv_font_fmt_txt.c ****     }
 459:Drivers/lvgl/src/font/lv_font_fmt_txt.c **** }
 460:Drivers/lvgl/src/font/lv_font_fmt_txt.c **** 
 461:Drivers/lvgl/src/font/lv_font_fmt_txt.c **** /**
 462:Drivers/lvgl/src/font/lv_font_fmt_txt.c ****  * Write `val` data to `bit_pos` position of `out`. The write can NOT cross byte boundary.
ARM GAS  /var/folders/lp/x54gwt890xv47sdkqj1k04q40000gn/T//cc0ANnJ5.s 			page 11


 463:Drivers/lvgl/src/font/lv_font_fmt_txt.c ****  * @param out buffer where to write
 464:Drivers/lvgl/src/font/lv_font_fmt_txt.c ****  * @param bit_pos bit index to write
 465:Drivers/lvgl/src/font/lv_font_fmt_txt.c ****  * @param val value to write
 466:Drivers/lvgl/src/font/lv_font_fmt_txt.c ****  * @param len length of bits to write from `val`. (Counted from the LSB).
 467:Drivers/lvgl/src/font/lv_font_fmt_txt.c ****  * @note `len == 3` will be converted to `len = 4` and `val` will be upscaled too
 468:Drivers/lvgl/src/font/lv_font_fmt_txt.c ****  */
 469:Drivers/lvgl/src/font/lv_font_fmt_txt.c **** static inline void bits_write(uint8_t * out, uint32_t bit_pos, uint8_t val, uint8_t len)
 470:Drivers/lvgl/src/font/lv_font_fmt_txt.c **** {
 471:Drivers/lvgl/src/font/lv_font_fmt_txt.c ****     if(len == 3) {
 472:Drivers/lvgl/src/font/lv_font_fmt_txt.c ****         len = 4;
 473:Drivers/lvgl/src/font/lv_font_fmt_txt.c ****         switch(val) {
 474:Drivers/lvgl/src/font/lv_font_fmt_txt.c ****             case 0:
 475:Drivers/lvgl/src/font/lv_font_fmt_txt.c ****                 val = 0;
 476:Drivers/lvgl/src/font/lv_font_fmt_txt.c ****                 break;
 477:Drivers/lvgl/src/font/lv_font_fmt_txt.c ****             case 1:
 478:Drivers/lvgl/src/font/lv_font_fmt_txt.c ****                 val = 2;
 479:Drivers/lvgl/src/font/lv_font_fmt_txt.c ****                 break;
 480:Drivers/lvgl/src/font/lv_font_fmt_txt.c ****             case 2:
 481:Drivers/lvgl/src/font/lv_font_fmt_txt.c ****                 val = 4;
 482:Drivers/lvgl/src/font/lv_font_fmt_txt.c ****                 break;
 483:Drivers/lvgl/src/font/lv_font_fmt_txt.c ****             case 3:
 484:Drivers/lvgl/src/font/lv_font_fmt_txt.c ****                 val = 6;
 485:Drivers/lvgl/src/font/lv_font_fmt_txt.c ****                 break;
 486:Drivers/lvgl/src/font/lv_font_fmt_txt.c ****             case 4:
 487:Drivers/lvgl/src/font/lv_font_fmt_txt.c ****                 val = 9;
 488:Drivers/lvgl/src/font/lv_font_fmt_txt.c ****                 break;
 489:Drivers/lvgl/src/font/lv_font_fmt_txt.c ****             case 5:
 490:Drivers/lvgl/src/font/lv_font_fmt_txt.c ****                 val = 11;
 491:Drivers/lvgl/src/font/lv_font_fmt_txt.c ****                 break;
 492:Drivers/lvgl/src/font/lv_font_fmt_txt.c ****             case 6:
 493:Drivers/lvgl/src/font/lv_font_fmt_txt.c ****                 val = 13;
 494:Drivers/lvgl/src/font/lv_font_fmt_txt.c ****                 break;
 495:Drivers/lvgl/src/font/lv_font_fmt_txt.c ****             case 7:
 496:Drivers/lvgl/src/font/lv_font_fmt_txt.c ****                 val = 15;
 497:Drivers/lvgl/src/font/lv_font_fmt_txt.c ****                 break;
 498:Drivers/lvgl/src/font/lv_font_fmt_txt.c ****         }
 499:Drivers/lvgl/src/font/lv_font_fmt_txt.c ****     }
 500:Drivers/lvgl/src/font/lv_font_fmt_txt.c **** 
 501:Drivers/lvgl/src/font/lv_font_fmt_txt.c ****     uint16_t byte_pos = bit_pos >> 3;
 502:Drivers/lvgl/src/font/lv_font_fmt_txt.c ****     bit_pos = bit_pos & 0x7;
 503:Drivers/lvgl/src/font/lv_font_fmt_txt.c ****     bit_pos = 8 - bit_pos - len;
 504:Drivers/lvgl/src/font/lv_font_fmt_txt.c **** 
 505:Drivers/lvgl/src/font/lv_font_fmt_txt.c ****     uint8_t bit_mask = (uint16_t)((uint16_t) 1 << len) - 1;
 506:Drivers/lvgl/src/font/lv_font_fmt_txt.c ****     out[byte_pos] &= ((~bit_mask) << bit_pos);
 507:Drivers/lvgl/src/font/lv_font_fmt_txt.c ****     out[byte_pos] |= (val << bit_pos);
 508:Drivers/lvgl/src/font/lv_font_fmt_txt.c **** }
 509:Drivers/lvgl/src/font/lv_font_fmt_txt.c **** 
 510:Drivers/lvgl/src/font/lv_font_fmt_txt.c **** static inline void rle_init(const uint8_t * in,  uint8_t bpp)
 511:Drivers/lvgl/src/font/lv_font_fmt_txt.c **** {
 512:Drivers/lvgl/src/font/lv_font_fmt_txt.c ****     rle_in = in;
 513:Drivers/lvgl/src/font/lv_font_fmt_txt.c ****     rle_bpp = bpp;
 514:Drivers/lvgl/src/font/lv_font_fmt_txt.c ****     rle_state = RLE_STATE_SINGLE;
 515:Drivers/lvgl/src/font/lv_font_fmt_txt.c ****     rle_rdp = 0;
 516:Drivers/lvgl/src/font/lv_font_fmt_txt.c ****     rle_prev_v = 0;
 517:Drivers/lvgl/src/font/lv_font_fmt_txt.c ****     rle_cnt = 0;
 518:Drivers/lvgl/src/font/lv_font_fmt_txt.c **** }
 519:Drivers/lvgl/src/font/lv_font_fmt_txt.c **** 
ARM GAS  /var/folders/lp/x54gwt890xv47sdkqj1k04q40000gn/T//cc0ANnJ5.s 			page 12


 520:Drivers/lvgl/src/font/lv_font_fmt_txt.c **** static inline uint8_t rle_next(void)
 521:Drivers/lvgl/src/font/lv_font_fmt_txt.c **** {
 522:Drivers/lvgl/src/font/lv_font_fmt_txt.c ****     uint8_t v = 0;
 523:Drivers/lvgl/src/font/lv_font_fmt_txt.c ****     uint8_t ret = 0;
 524:Drivers/lvgl/src/font/lv_font_fmt_txt.c **** 
 525:Drivers/lvgl/src/font/lv_font_fmt_txt.c ****     if(rle_state == RLE_STATE_SINGLE) {
 526:Drivers/lvgl/src/font/lv_font_fmt_txt.c ****         ret = get_bits(rle_in, rle_rdp, rle_bpp);
 527:Drivers/lvgl/src/font/lv_font_fmt_txt.c ****         if(rle_rdp != 0 && rle_prev_v == ret) {
 528:Drivers/lvgl/src/font/lv_font_fmt_txt.c ****             rle_cnt = 0;
 529:Drivers/lvgl/src/font/lv_font_fmt_txt.c ****             rle_state = RLE_STATE_REPEATE;
 530:Drivers/lvgl/src/font/lv_font_fmt_txt.c ****         }
 531:Drivers/lvgl/src/font/lv_font_fmt_txt.c **** 
 532:Drivers/lvgl/src/font/lv_font_fmt_txt.c ****         rle_prev_v = ret;
 533:Drivers/lvgl/src/font/lv_font_fmt_txt.c ****         rle_rdp += rle_bpp;
 534:Drivers/lvgl/src/font/lv_font_fmt_txt.c ****     }
 535:Drivers/lvgl/src/font/lv_font_fmt_txt.c ****     else if(rle_state == RLE_STATE_REPEATE) {
 536:Drivers/lvgl/src/font/lv_font_fmt_txt.c ****         v = get_bits(rle_in, rle_rdp, 1);
 537:Drivers/lvgl/src/font/lv_font_fmt_txt.c ****         rle_cnt++;
 538:Drivers/lvgl/src/font/lv_font_fmt_txt.c ****         rle_rdp += 1;
 539:Drivers/lvgl/src/font/lv_font_fmt_txt.c ****         if(v == 1) {
 540:Drivers/lvgl/src/font/lv_font_fmt_txt.c ****             ret = rle_prev_v;
 541:Drivers/lvgl/src/font/lv_font_fmt_txt.c ****             if(rle_cnt == 11) {
 542:Drivers/lvgl/src/font/lv_font_fmt_txt.c ****                 rle_cnt = get_bits(rle_in, rle_rdp, 6);
 543:Drivers/lvgl/src/font/lv_font_fmt_txt.c ****                 rle_rdp += 6;
 544:Drivers/lvgl/src/font/lv_font_fmt_txt.c ****                 if(rle_cnt != 0) {
 545:Drivers/lvgl/src/font/lv_font_fmt_txt.c ****                     rle_state = RLE_STATE_COUNTER;
 546:Drivers/lvgl/src/font/lv_font_fmt_txt.c ****                 }
 547:Drivers/lvgl/src/font/lv_font_fmt_txt.c ****                 else {
 548:Drivers/lvgl/src/font/lv_font_fmt_txt.c ****                     ret = get_bits(rle_in, rle_rdp, rle_bpp);
 549:Drivers/lvgl/src/font/lv_font_fmt_txt.c ****                     rle_prev_v = ret;
 550:Drivers/lvgl/src/font/lv_font_fmt_txt.c ****                     rle_rdp += rle_bpp;
 551:Drivers/lvgl/src/font/lv_font_fmt_txt.c ****                     rle_state = RLE_STATE_SINGLE;
 552:Drivers/lvgl/src/font/lv_font_fmt_txt.c ****                 }
 553:Drivers/lvgl/src/font/lv_font_fmt_txt.c ****             }
 554:Drivers/lvgl/src/font/lv_font_fmt_txt.c ****         }
 555:Drivers/lvgl/src/font/lv_font_fmt_txt.c ****         else {
 556:Drivers/lvgl/src/font/lv_font_fmt_txt.c ****             ret = get_bits(rle_in, rle_rdp, rle_bpp);
 557:Drivers/lvgl/src/font/lv_font_fmt_txt.c ****             rle_prev_v = ret;
 558:Drivers/lvgl/src/font/lv_font_fmt_txt.c ****             rle_rdp += rle_bpp;
 559:Drivers/lvgl/src/font/lv_font_fmt_txt.c ****             rle_state = RLE_STATE_SINGLE;
 560:Drivers/lvgl/src/font/lv_font_fmt_txt.c ****         }
 561:Drivers/lvgl/src/font/lv_font_fmt_txt.c **** 
 562:Drivers/lvgl/src/font/lv_font_fmt_txt.c ****     }
 563:Drivers/lvgl/src/font/lv_font_fmt_txt.c ****     else if(rle_state == RLE_STATE_COUNTER) {
 564:Drivers/lvgl/src/font/lv_font_fmt_txt.c ****         ret = rle_prev_v;
 565:Drivers/lvgl/src/font/lv_font_fmt_txt.c ****         rle_cnt--;
 566:Drivers/lvgl/src/font/lv_font_fmt_txt.c ****         if(rle_cnt == 0) {
 567:Drivers/lvgl/src/font/lv_font_fmt_txt.c ****             ret = get_bits(rle_in, rle_rdp, rle_bpp);
 568:Drivers/lvgl/src/font/lv_font_fmt_txt.c ****             rle_prev_v = ret;
 569:Drivers/lvgl/src/font/lv_font_fmt_txt.c ****             rle_rdp += rle_bpp;
 570:Drivers/lvgl/src/font/lv_font_fmt_txt.c ****             rle_state = RLE_STATE_SINGLE;
 571:Drivers/lvgl/src/font/lv_font_fmt_txt.c ****         }
 572:Drivers/lvgl/src/font/lv_font_fmt_txt.c ****     }
 573:Drivers/lvgl/src/font/lv_font_fmt_txt.c **** 
 574:Drivers/lvgl/src/font/lv_font_fmt_txt.c ****     return ret;
 575:Drivers/lvgl/src/font/lv_font_fmt_txt.c **** }
 576:Drivers/lvgl/src/font/lv_font_fmt_txt.c **** #endif /*LV_USE_FONT_COMPRESSED*/
ARM GAS  /var/folders/lp/x54gwt890xv47sdkqj1k04q40000gn/T//cc0ANnJ5.s 			page 13


 577:Drivers/lvgl/src/font/lv_font_fmt_txt.c **** 
 578:Drivers/lvgl/src/font/lv_font_fmt_txt.c **** /** Code Comparator.
 579:Drivers/lvgl/src/font/lv_font_fmt_txt.c ****  *
 580:Drivers/lvgl/src/font/lv_font_fmt_txt.c ****  *  Compares the value of both input arguments.
 581:Drivers/lvgl/src/font/lv_font_fmt_txt.c ****  *
 582:Drivers/lvgl/src/font/lv_font_fmt_txt.c ****  *  @param[in]  pRef        Pointer to the reference.
 583:Drivers/lvgl/src/font/lv_font_fmt_txt.c ****  *  @param[in]  pElement    Pointer to the element to compare.
 584:Drivers/lvgl/src/font/lv_font_fmt_txt.c ****  *
 585:Drivers/lvgl/src/font/lv_font_fmt_txt.c ****  *  @return Result of comparison.
 586:Drivers/lvgl/src/font/lv_font_fmt_txt.c ****  *  @retval < 0   Reference is less than element.
 587:Drivers/lvgl/src/font/lv_font_fmt_txt.c ****  *  @retval = 0   Reference is equal to element.
 588:Drivers/lvgl/src/font/lv_font_fmt_txt.c ****  *  @retval > 0   Reference is greater than element.
 589:Drivers/lvgl/src/font/lv_font_fmt_txt.c ****  *
 590:Drivers/lvgl/src/font/lv_font_fmt_txt.c ****  */
 591:Drivers/lvgl/src/font/lv_font_fmt_txt.c **** static int32_t unicode_list_compare(const void * ref, const void * element)
 592:Drivers/lvgl/src/font/lv_font_fmt_txt.c **** {
 112              		.loc 1 592 1 is_stmt 1 view -0
 113              		.cfi_startproc
 114              		@ args = 0, pretend = 0, frame = 0
 115              		@ frame_needed = 0, uses_anonymous_args = 0
 116              		@ link register save eliminated.
 593:Drivers/lvgl/src/font/lv_font_fmt_txt.c ****     return ((int32_t)(*(uint16_t *)ref)) - ((int32_t)(*(uint16_t *)element));
 117              		.loc 1 593 5 view .LVU29
 118              		.loc 1 593 13 is_stmt 0 view .LVU30
 119 0000 0088     		ldrh	r0, [r0]
 120              	.LVL5:
 121              		.loc 1 593 45 view .LVU31
 122 0002 0B88     		ldrh	r3, [r1]
 594:Drivers/lvgl/src/font/lv_font_fmt_txt.c **** }
 123              		.loc 1 594 1 view .LVU32
 124 0004 C01A     		subs	r0, r0, r3
 125 0006 7047     		bx	lr
 126              		.cfi_endproc
 127              	.LFE33:
 129              		.section	.text.get_glyph_dsc_id,"ax",%progbits
 130              		.align	1
 131              		.p2align 2,,3
 132              		.syntax unified
 133              		.thumb
 134              		.thumb_func
 136              	get_glyph_dsc_id:
 137              	.LVL6:
 138              	.LFB29:
 210:Drivers/lvgl/src/font/lv_font_fmt_txt.c ****     if(letter == '\0') return 0;
 139              		.loc 1 210 1 is_stmt 1 view -0
 140              		.cfi_startproc
 141              		@ args = 0, pretend = 0, frame = 8
 142              		@ frame_needed = 0, uses_anonymous_args = 0
 211:Drivers/lvgl/src/font/lv_font_fmt_txt.c **** 
 143              		.loc 1 211 5 view .LVU34
 211:Drivers/lvgl/src/font/lv_font_fmt_txt.c **** 
 144              		.loc 1 211 7 is_stmt 0 view .LVU35
 145 0000 0029     		cmp	r1, #0
 146 0002 6FD0     		beq	.L41
 213:Drivers/lvgl/src/font/lv_font_fmt_txt.c **** 
 147              		.loc 1 213 5 is_stmt 1 view .LVU36
 210:Drivers/lvgl/src/font/lv_font_fmt_txt.c ****     if(letter == '\0') return 0;
ARM GAS  /var/folders/lp/x54gwt890xv47sdkqj1k04q40000gn/T//cc0ANnJ5.s 			page 14


 148              		.loc 1 210 1 is_stmt 0 view .LVU37
 149 0004 F0B5     		push	{r4, r5, r6, r7, lr}
 150              		.cfi_def_cfa_offset 20
 151              		.cfi_offset 4, -20
 152              		.cfi_offset 5, -16
 153              		.cfi_offset 6, -12
 154              		.cfi_offset 7, -8
 155              		.cfi_offset 14, -4
 213:Drivers/lvgl/src/font/lv_font_fmt_txt.c **** 
 156              		.loc 1 213 29 view .LVU38
 157 0006 0569     		ldr	r5, [r0, #16]
 158              	.LVL7:
 216:Drivers/lvgl/src/font/lv_font_fmt_txt.c **** 
 159              		.loc 1 216 5 is_stmt 1 view .LVU39
 216:Drivers/lvgl/src/font/lv_font_fmt_txt.c **** 
 160              		.loc 1 216 12 is_stmt 0 view .LVU40
 161 0008 6B69     		ldr	r3, [r5, #20]
 210:Drivers/lvgl/src/font/lv_font_fmt_txt.c ****     if(letter == '\0') return 0;
 162              		.loc 1 210 1 view .LVU41
 163 000a 85B0     		sub	sp, sp, #20
 164              		.cfi_def_cfa_offset 40
 165 000c 0C46     		mov	r4, r1
 216:Drivers/lvgl/src/font/lv_font_fmt_txt.c **** 
 166              		.loc 1 216 7 view .LVU42
 167 000e 4BB3     		cbz	r3, .L45
 216:Drivers/lvgl/src/font/lv_font_fmt_txt.c **** 
 168              		.loc 1 216 20 discriminator 1 view .LVU43
 169 0010 1A68     		ldr	r2, [r3]
 170 0012 8A42     		cmp	r2, r1
 171 0014 64D0     		beq	.L46
 172              	.LVL8:
 219:Drivers/lvgl/src/font/lv_font_fmt_txt.c **** 
 173              		.loc 1 219 18 is_stmt 1 discriminator 1 view .LVU44
 219:Drivers/lvgl/src/font/lv_font_fmt_txt.c **** 
 174              		.loc 1 219 24 is_stmt 0 discriminator 1 view .LVU45
 175 0016 B5F812E0 		ldrh	lr, [r5, #18]
 219:Drivers/lvgl/src/font/lv_font_fmt_txt.c **** 
 176              		.loc 1 219 18 discriminator 1 view .LVU46
 177 001a CEF30802 		ubfx	r2, lr, #0, #9
 178 001e E2B1     		cbz	r2, .L13
 179              	.L12:
 180              	.LBB2:
 222:Drivers/lvgl/src/font/lv_font_fmt_txt.c ****         if(rcp > fdsc->cmaps[i].range_length) continue;
 181              		.loc 1 222 37 view .LVU47
 182 0020 A868     		ldr	r0, [r5, #8]
 183              	.LVL9:
 222:Drivers/lvgl/src/font/lv_font_fmt_txt.c ****         if(rcp > fdsc->cmaps[i].range_length) continue;
 184              		.loc 1 222 37 view .LVU48
 185 0022 0026     		movs	r6, #0
 186 0024 0146     		mov	r1, r0
 187              	.LVL10:
 222:Drivers/lvgl/src/font/lv_font_fmt_txt.c ****         if(rcp > fdsc->cmaps[i].range_length) continue;
 188              		.loc 1 222 37 view .LVU49
 189 0026 3746     		mov	r7, r6
 190              	.LVL11:
 191              	.L17:
 222:Drivers/lvgl/src/font/lv_font_fmt_txt.c ****         if(rcp > fdsc->cmaps[i].range_length) continue;
ARM GAS  /var/folders/lp/x54gwt890xv47sdkqj1k04q40000gn/T//cc0ANnJ5.s 			page 15


 192              		.loc 1 222 9 is_stmt 1 view .LVU50
 222:Drivers/lvgl/src/font/lv_font_fmt_txt.c ****         if(rcp > fdsc->cmaps[i].range_length) continue;
 193              		.loc 1 222 18 is_stmt 0 view .LVU51
 194 0028 8259     		ldr	r2, [r0, r6]
 223:Drivers/lvgl/src/font/lv_font_fmt_txt.c ****         uint32_t glyph_id = 0;
 195              		.loc 1 223 32 view .LVU52
 196 002a B1F804C0 		ldrh	ip, [r1, #4]
 222:Drivers/lvgl/src/font/lv_font_fmt_txt.c ****         if(rcp > fdsc->cmaps[i].range_length) continue;
 197              		.loc 1 222 18 view .LVU53
 198 002e A21A     		subs	r2, r4, r2
 199              	.LVL12:
 223:Drivers/lvgl/src/font/lv_font_fmt_txt.c ****         uint32_t glyph_id = 0;
 200              		.loc 1 223 9 is_stmt 1 view .LVU54
 223:Drivers/lvgl/src/font/lv_font_fmt_txt.c ****         uint32_t glyph_id = 0;
 201              		.loc 1 223 11 is_stmt 0 view .LVU55
 202 0030 9445     		cmp	ip, r2
 203 0032 06D3     		bcc	.L47
 224:Drivers/lvgl/src/font/lv_font_fmt_txt.c ****         if(fdsc->cmaps[i].type == LV_FONT_FMT_TXT_CMAP_FORMAT0_TINY) {
 204              		.loc 1 224 9 is_stmt 1 view .LVU56
 205              	.LVL13:
 225:Drivers/lvgl/src/font/lv_font_fmt_txt.c ****             glyph_id = fdsc->cmaps[i].glyph_id_start + rcp;
 206              		.loc 1 225 9 view .LVU57
 207 0034 887C     		ldrb	r0, [r1, #18]	@ zero_extendqisi2
 208 0036 0328     		cmp	r0, #3
 209 0038 56D8     		bhi	.L29
 210 003a DFE800F0 		tbb	[pc, r0]
 211              	.LVL14:
 212              	.L21:
 213 003e 4C       		.byte	(.L24-.L21)/2
 214 003f 36       		.byte	(.L23-.L21)/2
 215 0040 33       		.byte	(.L22-.L21)/2
 216 0041 1A       		.byte	(.L20-.L21)/2
 217              		.p2align 1
 218              	.L47:
 223:Drivers/lvgl/src/font/lv_font_fmt_txt.c ****         uint32_t glyph_id = 0;
 219              		.loc 1 223 47 discriminator 1 view .LVU58
 220              	.LBE2:
 219:Drivers/lvgl/src/font/lv_font_fmt_txt.c **** 
 221              		.loc 1 219 37 discriminator 2 view .LVU59
 219:Drivers/lvgl/src/font/lv_font_fmt_txt.c **** 
 222              		.loc 1 219 18 discriminator 1 view .LVU60
 223 0042 0137     		adds	r7, r7, #1
 224              	.LVL15:
 219:Drivers/lvgl/src/font/lv_font_fmt_txt.c **** 
 225              		.loc 1 219 18 is_stmt 0 discriminator 1 view .LVU61
 226 0044 CEF30802 		ubfx	r2, lr, #0, #9
 227              	.LVL16:
 219:Drivers/lvgl/src/font/lv_font_fmt_txt.c **** 
 228              		.loc 1 219 18 discriminator 1 view .LVU62
 229 0048 1FFA87FC 		uxth	ip, r7
 230 004c 6245     		cmp	r2, ip
 231 004e 06F11406 		add	r6, r6, #20
 232              	.LVL17:
 219:Drivers/lvgl/src/font/lv_font_fmt_txt.c **** 
 233              		.loc 1 219 18 discriminator 1 view .LVU63
 234 0052 01F11401 		add	r1, r1, #20
 235 0056 E7D8     		bhi	.L17
ARM GAS  /var/folders/lp/x54gwt890xv47sdkqj1k04q40000gn/T//cc0ANnJ5.s 			page 16


 262:Drivers/lvgl/src/font/lv_font_fmt_txt.c ****         fdsc->cache->last_letter = letter;
 236              		.loc 1 262 5 is_stmt 1 view .LVU64
 262:Drivers/lvgl/src/font/lv_font_fmt_txt.c ****         fdsc->cache->last_letter = letter;
 237              		.loc 1 262 7 is_stmt 0 view .LVU65
 238 0058 13B1     		cbz	r3, .L10
 239              	.LVL18:
 240              	.L13:
 263:Drivers/lvgl/src/font/lv_font_fmt_txt.c ****         fdsc->cache->last_glyph_id = 0;
 241              		.loc 1 263 9 is_stmt 1 view .LVU66
 264:Drivers/lvgl/src/font/lv_font_fmt_txt.c ****     }
 242              		.loc 1 264 36 is_stmt 0 view .LVU67
 243 005a 0022     		movs	r2, #0
 244 005c C3E90042 		strd	r4, r2, [r3]
 245              	.L10:
 211:Drivers/lvgl/src/font/lv_font_fmt_txt.c **** 
 246              		.loc 1 211 31 discriminator 1 view .LVU68
 247 0060 0020     		movs	r0, #0
 248 0062 1DE0     		b	.L9
 249              	.LVL19:
 250              	.L45:
 219:Drivers/lvgl/src/font/lv_font_fmt_txt.c **** 
 251              		.loc 1 219 18 is_stmt 1 discriminator 1 view .LVU69
 219:Drivers/lvgl/src/font/lv_font_fmt_txt.c **** 
 252              		.loc 1 219 24 is_stmt 0 discriminator 1 view .LVU70
 253 0064 B5F812E0 		ldrh	lr, [r5, #18]
 219:Drivers/lvgl/src/font/lv_font_fmt_txt.c **** 
 254              		.loc 1 219 18 discriminator 1 view .LVU71
 255 0068 CEF30802 		ubfx	r2, lr, #0, #9
 256 006c 002A     		cmp	r2, #0
 257 006e D7D1     		bne	.L12
 258 0070 F6E7     		b	.L10
 259              	.LVL20:
 260              	.L20:
 261              	.LBB8:
 262              	.LBB3:
 233:Drivers/lvgl/src/font/lv_font_fmt_txt.c ****             uint16_t * p = _lv_utils_bsearch(&key, fdsc->cmaps[i].unicode_list, fdsc->cmaps[i].list
 263              		.loc 1 233 13 is_stmt 1 view .LVU72
 234:Drivers/lvgl/src/font/lv_font_fmt_txt.c ****                                              sizeof(fdsc->cmaps[i].unicode_list[0]), unicode_list_c
 264              		.loc 1 234 28 is_stmt 0 view .LVU73
 265 0072 1E4B     		ldr	r3, .L48
 233:Drivers/lvgl/src/font/lv_font_fmt_txt.c ****             uint16_t * p = _lv_utils_bsearch(&key, fdsc->cmaps[i].unicode_list, fdsc->cmaps[i].list
 266              		.loc 1 233 22 view .LVU74
 267 0074 ADF80E20 		strh	r2, [sp, #14]	@ movhi
 234:Drivers/lvgl/src/font/lv_font_fmt_txt.c ****                                              sizeof(fdsc->cmaps[i].unicode_list[0]), unicode_list_c
 268              		.loc 1 234 13 is_stmt 1 view .LVU75
 234:Drivers/lvgl/src/font/lv_font_fmt_txt.c ****                                              sizeof(fdsc->cmaps[i].unicode_list[0]), unicode_list_c
 269              		.loc 1 234 28 is_stmt 0 view .LVU76
 270 0078 0A8A     		ldrh	r2, [r1, #16]
 271              	.LVL21:
 234:Drivers/lvgl/src/font/lv_font_fmt_txt.c ****                                              sizeof(fdsc->cmaps[i].unicode_list[0]), unicode_list_c
 272              		.loc 1 234 28 view .LVU77
 273 007a 8968     		ldr	r1, [r1, #8]
 274 007c 0093     		str	r3, [sp]
 275              	.LVL22:
 234:Drivers/lvgl/src/font/lv_font_fmt_txt.c ****                                              sizeof(fdsc->cmaps[i].unicode_list[0]), unicode_list_c
 276              		.loc 1 234 28 view .LVU78
 277 007e 0DF10E00 		add	r0, sp, #14
ARM GAS  /var/folders/lp/x54gwt890xv47sdkqj1k04q40000gn/T//cc0ANnJ5.s 			page 17


 278 0082 0223     		movs	r3, #2
 279 0084 FFF7FEFF 		bl	_lv_utils_bsearch
 280              	.LVL23:
 237:Drivers/lvgl/src/font/lv_font_fmt_txt.c ****                 lv_uintptr_t ofs = p - fdsc->cmaps[i].unicode_list;
 281              		.loc 1 237 13 is_stmt 1 view .LVU79
 237:Drivers/lvgl/src/font/lv_font_fmt_txt.c ****                 lv_uintptr_t ofs = p - fdsc->cmaps[i].unicode_list;
 282              		.loc 1 237 15 is_stmt 0 view .LVU80
 283 0088 30B1     		cbz	r0, .L26
 284              	.LBB4:
 238:Drivers/lvgl/src/font/lv_font_fmt_txt.c ****                 glyph_id = fdsc->cmaps[i].glyph_id_start + ofs;
 285              		.loc 1 238 17 is_stmt 1 view .LVU81
 238:Drivers/lvgl/src/font/lv_font_fmt_txt.c ****                 glyph_id = fdsc->cmaps[i].glyph_id_start + ofs;
 286              		.loc 1 238 51 is_stmt 0 view .LVU82
 287 008a AB68     		ldr	r3, [r5, #8]
 288 008c 3344     		add	r3, r3, r6
 289              	.LVL24:
 239:Drivers/lvgl/src/font/lv_font_fmt_txt.c ****             }
 290              		.loc 1 239 17 is_stmt 1 view .LVU83
 238:Drivers/lvgl/src/font/lv_font_fmt_txt.c ****                 glyph_id = fdsc->cmaps[i].glyph_id_start + ofs;
 291              		.loc 1 238 38 is_stmt 0 view .LVU84
 292 008e 9A68     		ldr	r2, [r3, #8]
 239:Drivers/lvgl/src/font/lv_font_fmt_txt.c ****             }
 293              		.loc 1 239 42 view .LVU85
 294 0090 DB88     		ldrh	r3, [r3, #6]
 295              	.LVL25:
 238:Drivers/lvgl/src/font/lv_font_fmt_txt.c ****                 glyph_id = fdsc->cmaps[i].glyph_id_start + ofs;
 296              		.loc 1 238 38 view .LVU86
 297 0092 801A     		subs	r0, r0, r2
 298              	.LVL26:
 239:Drivers/lvgl/src/font/lv_font_fmt_txt.c ****             }
 299              		.loc 1 239 26 view .LVU87
 300 0094 03EB6000 		add	r0, r3, r0, asr #1
 301              	.LVL27:
 302              	.L26:
 239:Drivers/lvgl/src/font/lv_font_fmt_txt.c ****             }
 303              		.loc 1 239 26 view .LVU88
 304              	.LBE4:
 305              	.LBE3:
 255:Drivers/lvgl/src/font/lv_font_fmt_txt.c ****             fdsc->cache->last_letter = letter;
 306              		.loc 1 255 16 view .LVU89
 307 0098 6B69     		ldr	r3, [r5, #20]
 308              	.LVL28:
 309              	.L19:
 255:Drivers/lvgl/src/font/lv_font_fmt_txt.c ****             fdsc->cache->last_letter = letter;
 310              		.loc 1 255 9 is_stmt 1 view .LVU90
 255:Drivers/lvgl/src/font/lv_font_fmt_txt.c ****             fdsc->cache->last_letter = letter;
 311              		.loc 1 255 11 is_stmt 0 view .LVU91
 312 009a 0BB1     		cbz	r3, .L9
 256:Drivers/lvgl/src/font/lv_font_fmt_txt.c ****             fdsc->cache->last_glyph_id = glyph_id;
 313              		.loc 1 256 13 is_stmt 1 view .LVU92
 257:Drivers/lvgl/src/font/lv_font_fmt_txt.c ****         }
 314              		.loc 1 257 40 is_stmt 0 view .LVU93
 315 009c C3E90040 		strd	r4, r0, [r3]
 316              	.LVL29:
 317              	.L9:
 257:Drivers/lvgl/src/font/lv_font_fmt_txt.c ****         }
 318              		.loc 1 257 40 view .LVU94
ARM GAS  /var/folders/lp/x54gwt890xv47sdkqj1k04q40000gn/T//cc0ANnJ5.s 			page 18


 319              	.LBE8:
 268:Drivers/lvgl/src/font/lv_font_fmt_txt.c **** 
 320              		.loc 1 268 1 view .LVU95
 321 00a0 05B0     		add	sp, sp, #20
 322              		.cfi_remember_state
 323              		.cfi_def_cfa_offset 20
 324              		@ sp needed
 325 00a2 F0BD     		pop	{r4, r5, r6, r7, pc}
 326              	.LVL30:
 327              	.L22:
 328              		.cfi_restore_state
 329              	.LBB9:
 226:Drivers/lvgl/src/font/lv_font_fmt_txt.c ****         }
 330              		.loc 1 226 13 is_stmt 1 view .LVU96
 226:Drivers/lvgl/src/font/lv_font_fmt_txt.c ****         }
 331              		.loc 1 226 38 is_stmt 0 view .LVU97
 332 00a4 C888     		ldrh	r0, [r1, #6]
 226:Drivers/lvgl/src/font/lv_font_fmt_txt.c ****         }
 333              		.loc 1 226 22 view .LVU98
 334 00a6 1044     		add	r0, r0, r2
 335              	.LVL31:
 226:Drivers/lvgl/src/font/lv_font_fmt_txt.c ****         }
 336              		.loc 1 226 22 view .LVU99
 337 00a8 F7E7     		b	.L19
 338              	.LVL32:
 339              	.L23:
 340              	.LBB5:
 243:Drivers/lvgl/src/font/lv_font_fmt_txt.c ****             uint16_t * p = _lv_utils_bsearch(&key, fdsc->cmaps[i].unicode_list, fdsc->cmaps[i].list
 341              		.loc 1 243 13 is_stmt 1 view .LVU100
 244:Drivers/lvgl/src/font/lv_font_fmt_txt.c ****                                              sizeof(fdsc->cmaps[i].unicode_list[0]), unicode_list_c
 342              		.loc 1 244 28 is_stmt 0 view .LVU101
 343 00aa 104B     		ldr	r3, .L48
 243:Drivers/lvgl/src/font/lv_font_fmt_txt.c ****             uint16_t * p = _lv_utils_bsearch(&key, fdsc->cmaps[i].unicode_list, fdsc->cmaps[i].list
 344              		.loc 1 243 22 view .LVU102
 345 00ac ADF80E20 		strh	r2, [sp, #14]	@ movhi
 244:Drivers/lvgl/src/font/lv_font_fmt_txt.c ****                                              sizeof(fdsc->cmaps[i].unicode_list[0]), unicode_list_c
 346              		.loc 1 244 13 is_stmt 1 view .LVU103
 244:Drivers/lvgl/src/font/lv_font_fmt_txt.c ****                                              sizeof(fdsc->cmaps[i].unicode_list[0]), unicode_list_c
 347              		.loc 1 244 28 is_stmt 0 view .LVU104
 348 00b0 0A8A     		ldrh	r2, [r1, #16]
 349              	.LVL33:
 244:Drivers/lvgl/src/font/lv_font_fmt_txt.c ****                                              sizeof(fdsc->cmaps[i].unicode_list[0]), unicode_list_c
 350              		.loc 1 244 28 view .LVU105
 351 00b2 8968     		ldr	r1, [r1, #8]
 352 00b4 0093     		str	r3, [sp]
 353              	.LVL34:
 244:Drivers/lvgl/src/font/lv_font_fmt_txt.c ****                                              sizeof(fdsc->cmaps[i].unicode_list[0]), unicode_list_c
 354              		.loc 1 244 28 view .LVU106
 355 00b6 0DF10E00 		add	r0, sp, #14
 356 00ba 0223     		movs	r3, #2
 357 00bc FFF7FEFF 		bl	_lv_utils_bsearch
 358              	.LVL35:
 247:Drivers/lvgl/src/font/lv_font_fmt_txt.c ****                 lv_uintptr_t ofs = p - fdsc->cmaps[i].unicode_list;
 359              		.loc 1 247 13 is_stmt 1 view .LVU107
 247:Drivers/lvgl/src/font/lv_font_fmt_txt.c ****                 lv_uintptr_t ofs = p - fdsc->cmaps[i].unicode_list;
 360              		.loc 1 247 15 is_stmt 0 view .LVU108
 361 00c0 0028     		cmp	r0, #0
ARM GAS  /var/folders/lp/x54gwt890xv47sdkqj1k04q40000gn/T//cc0ANnJ5.s 			page 19


 362 00c2 E9D0     		beq	.L26
 363              	.LBB6:
 248:Drivers/lvgl/src/font/lv_font_fmt_txt.c ****                 const uint16_t * gid_ofs_16 = fdsc->cmaps[i].glyph_id_ofs_list;
 364              		.loc 1 248 17 is_stmt 1 view .LVU109
 248:Drivers/lvgl/src/font/lv_font_fmt_txt.c ****                 const uint16_t * gid_ofs_16 = fdsc->cmaps[i].glyph_id_ofs_list;
 365              		.loc 1 248 51 is_stmt 0 view .LVU110
 366 00c4 AB68     		ldr	r3, [r5, #8]
 367 00c6 3344     		add	r3, r3, r6
 368              	.LVL36:
 249:Drivers/lvgl/src/font/lv_font_fmt_txt.c ****                 glyph_id = fdsc->cmaps[i].glyph_id_start + gid_ofs_16[ofs];
 369              		.loc 1 249 17 is_stmt 1 view .LVU111
 250:Drivers/lvgl/src/font/lv_font_fmt_txt.c ****             }
 370              		.loc 1 250 17 view .LVU112
 248:Drivers/lvgl/src/font/lv_font_fmt_txt.c ****                 const uint16_t * gid_ofs_16 = fdsc->cmaps[i].glyph_id_ofs_list;
 371              		.loc 1 248 38 is_stmt 0 view .LVU113
 372 00c8 9A68     		ldr	r2, [r3, #8]
 373 00ca 801A     		subs	r0, r0, r2
 374              	.LVL37:
 250:Drivers/lvgl/src/font/lv_font_fmt_txt.c ****             }
 375              		.loc 1 250 70 view .LVU114
 376 00cc DA68     		ldr	r2, [r3, #12]
 250:Drivers/lvgl/src/font/lv_font_fmt_txt.c ****             }
 377              		.loc 1 250 42 view .LVU115
 378 00ce DB88     		ldrh	r3, [r3, #6]
 379              	.LVL38:
 250:Drivers/lvgl/src/font/lv_font_fmt_txt.c ****             }
 380              		.loc 1 250 70 view .LVU116
 381 00d0 105A     		ldrh	r0, [r2, r0]
 250:Drivers/lvgl/src/font/lv_font_fmt_txt.c ****             }
 382              		.loc 1 250 58 view .LVU117
 383 00d2 1844     		add	r0, r0, r3
 384              	.LVL39:
 250:Drivers/lvgl/src/font/lv_font_fmt_txt.c ****             }
 385              		.loc 1 250 58 view .LVU118
 386 00d4 E0E7     		b	.L26
 387              	.LVL40:
 388              	.L24:
 250:Drivers/lvgl/src/font/lv_font_fmt_txt.c ****             }
 389              		.loc 1 250 58 view .LVU119
 390              	.LBE6:
 391              	.LBE5:
 392              	.LBB7:
 229:Drivers/lvgl/src/font/lv_font_fmt_txt.c ****             glyph_id = fdsc->cmaps[i].glyph_id_start + gid_ofs_8[rcp];
 393              		.loc 1 229 13 is_stmt 1 view .LVU120
 230:Drivers/lvgl/src/font/lv_font_fmt_txt.c ****         }
 394              		.loc 1 230 13 view .LVU121
 230:Drivers/lvgl/src/font/lv_font_fmt_txt.c ****         }
 395              		.loc 1 230 65 is_stmt 0 view .LVU122
 396 00d6 C868     		ldr	r0, [r1, #12]
 230:Drivers/lvgl/src/font/lv_font_fmt_txt.c ****         }
 397              		.loc 1 230 38 view .LVU123
 398 00d8 C988     		ldrh	r1, [r1, #6]
 399              	.LVL41:
 230:Drivers/lvgl/src/font/lv_font_fmt_txt.c ****         }
 400              		.loc 1 230 65 view .LVU124
 401 00da 805C     		ldrb	r0, [r0, r2]	@ zero_extendqisi2
 402              	.LVL42:
ARM GAS  /var/folders/lp/x54gwt890xv47sdkqj1k04q40000gn/T//cc0ANnJ5.s 			page 20


 230:Drivers/lvgl/src/font/lv_font_fmt_txt.c ****         }
 403              		.loc 1 230 54 view .LVU125
 404 00dc 0844     		add	r0, r0, r1
 405              	.LVL43:
 230:Drivers/lvgl/src/font/lv_font_fmt_txt.c ****         }
 406              		.loc 1 230 54 view .LVU126
 407              	.LBE7:
 408 00de DCE7     		b	.L19
 409              	.LVL44:
 410              	.L46:
 230:Drivers/lvgl/src/font/lv_font_fmt_txt.c ****         }
 411              		.loc 1 230 54 view .LVU127
 412              	.LBE9:
 216:Drivers/lvgl/src/font/lv_font_fmt_txt.c **** 
 413              		.loc 1 216 59 is_stmt 1 discriminator 2 view .LVU128
 216:Drivers/lvgl/src/font/lv_font_fmt_txt.c **** 
 414              		.loc 1 216 77 is_stmt 0 discriminator 2 view .LVU129
 415 00e0 5868     		ldr	r0, [r3, #4]
 416              	.LVL45:
 216:Drivers/lvgl/src/font/lv_font_fmt_txt.c **** 
 417              		.loc 1 216 77 view .LVU130
 418 00e2 DDE7     		b	.L9
 419              	.LVL46:
 420              	.L41:
 421              		.cfi_def_cfa_offset 0
 422              		.cfi_restore 4
 423              		.cfi_restore 5
 424              		.cfi_restore 6
 425              		.cfi_restore 7
 426              		.cfi_restore 14
 211:Drivers/lvgl/src/font/lv_font_fmt_txt.c **** 
 427              		.loc 1 211 31 discriminator 1 view .LVU131
 428 00e4 0020     		movs	r0, #0
 429              	.LVL47:
 268:Drivers/lvgl/src/font/lv_font_fmt_txt.c **** 
 430              		.loc 1 268 1 view .LVU132
 431 00e6 7047     		bx	lr
 432              	.LVL48:
 433              	.L29:
 434              		.cfi_def_cfa_offset 40
 435              		.cfi_offset 4, -20
 436              		.cfi_offset 5, -16
 437              		.cfi_offset 6, -12
 438              		.cfi_offset 7, -8
 439              		.cfi_offset 14, -4
 440              	.LBB10:
 225:Drivers/lvgl/src/font/lv_font_fmt_txt.c ****             glyph_id = fdsc->cmaps[i].glyph_id_start + rcp;
 441              		.loc 1 225 26 view .LVU133
 442 00e8 0020     		movs	r0, #0
 443 00ea D6E7     		b	.L19
 444              	.L49:
 445              		.align	2
 446              	.L48:
 447 00ec 00000000 		.word	unicode_list_compare
 448              	.LBE10:
 449              		.cfi_endproc
 450              	.LFE29:
ARM GAS  /var/folders/lp/x54gwt890xv47sdkqj1k04q40000gn/T//cc0ANnJ5.s 			page 21


 452              		.section	.text.lv_font_get_bitmap_fmt_txt,"ax",%progbits
 453              		.align	1
 454              		.p2align 2,,3
 455              		.global	lv_font_get_bitmap_fmt_txt
 456              		.syntax unified
 457              		.thumb
 458              		.thumb_func
 460              	lv_font_get_bitmap_fmt_txt:
 461              	.LVL49:
 462              	.LFB26:
  80:Drivers/lvgl/src/font/lv_font_fmt_txt.c ****     if(unicode_letter == '\t') unicode_letter = ' ';
 463              		.loc 1 80 1 is_stmt 1 view -0
 464              		.cfi_startproc
 465              		@ args = 0, pretend = 0, frame = 0
 466              		@ frame_needed = 0, uses_anonymous_args = 0
  81:Drivers/lvgl/src/font/lv_font_fmt_txt.c **** 
 467              		.loc 1 81 5 view .LVU135
  81:Drivers/lvgl/src/font/lv_font_fmt_txt.c **** 
 468              		.loc 1 81 47 is_stmt 0 discriminator 1 view .LVU136
 469 0000 0929     		cmp	r1, #9
 470              	.LVL50:
  83:Drivers/lvgl/src/font/lv_font_fmt_txt.c ****     uint32_t gid = get_glyph_dsc_id(font, unicode_letter);
 471              		.loc 1 83 5 is_stmt 1 view .LVU137
  80:Drivers/lvgl/src/font/lv_font_fmt_txt.c ****     if(unicode_letter == '\t') unicode_letter = ' ';
 472              		.loc 1 80 1 is_stmt 0 view .LVU138
 473 0002 10B5     		push	{r4, lr}
 474              		.cfi_def_cfa_offset 8
 475              		.cfi_offset 4, -8
 476              		.cfi_offset 14, -4
  84:Drivers/lvgl/src/font/lv_font_fmt_txt.c ****     if(!gid) return NULL;
 477              		.loc 1 84 20 view .LVU139
 478 0004 08BF     		it	eq
 479 0006 2021     		moveq	r1, #32
 480              	.LVL51:
  83:Drivers/lvgl/src/font/lv_font_fmt_txt.c ****     uint32_t gid = get_glyph_dsc_id(font, unicode_letter);
 481              		.loc 1 83 29 view .LVU140
 482 0008 0469     		ldr	r4, [r0, #16]
 483              	.LVL52:
  84:Drivers/lvgl/src/font/lv_font_fmt_txt.c ****     if(!gid) return NULL;
 484              		.loc 1 84 5 is_stmt 1 view .LVU141
  84:Drivers/lvgl/src/font/lv_font_fmt_txt.c ****     if(!gid) return NULL;
 485              		.loc 1 84 20 is_stmt 0 view .LVU142
 486 000a FFF7FEFF 		bl	get_glyph_dsc_id
 487              	.LVL53:
  85:Drivers/lvgl/src/font/lv_font_fmt_txt.c **** 
 488              		.loc 1 85 5 is_stmt 1 view .LVU143
  85:Drivers/lvgl/src/font/lv_font_fmt_txt.c **** 
 489              		.loc 1 85 7 is_stmt 0 view .LVU144
 490 000e 48B1     		cbz	r0, .L50
  87:Drivers/lvgl/src/font/lv_font_fmt_txt.c **** 
 491              		.loc 1 87 5 is_stmt 1 view .LVU145
 492              	.LVL54:
  89:Drivers/lvgl/src/font/lv_font_fmt_txt.c ****         return &fdsc->glyph_bitmap[gdsc->bitmap_index];
 493              		.loc 1 89 5 view .LVU146
  89:Drivers/lvgl/src/font/lv_font_fmt_txt.c ****         return &fdsc->glyph_bitmap[gdsc->bitmap_index];
 494              		.loc 1 89 7 is_stmt 0 view .LVU147
 495 0010 E37C     		ldrb	r3, [r4, #19]	@ zero_extendqisi2
ARM GAS  /var/folders/lp/x54gwt890xv47sdkqj1k04q40000gn/T//cc0ANnJ5.s 			page 22


 496 0012 3F2B     		cmp	r3, #63
 497 0014 07D8     		bhi	.L55
  90:Drivers/lvgl/src/font/lv_font_fmt_txt.c ****     }
 498              		.loc 1 90 9 is_stmt 1 view .LVU148
  90:Drivers/lvgl/src/font/lv_font_fmt_txt.c ****     }
 499              		.loc 1 90 16 is_stmt 0 view .LVU149
 500 0016 D4E90032 		ldrd	r3, r2, [r4]
  90:Drivers/lvgl/src/font/lv_font_fmt_txt.c ****     }
 501              		.loc 1 90 40 view .LVU150
 502 001a 52F83000 		ldr	r0, [r2, r0, lsl #3]
 503              	.LVL55:
  90:Drivers/lvgl/src/font/lv_font_fmt_txt.c ****     }
 504              		.loc 1 90 40 view .LVU151
 505 001e C0F31300 		ubfx	r0, r0, #0, #20
  90:Drivers/lvgl/src/font/lv_font_fmt_txt.c ****     }
 506              		.loc 1 90 16 view .LVU152
 507 0022 1844     		add	r0, r0, r3
 508              	.LVL56:
 509              	.L50:
 138:Drivers/lvgl/src/font/lv_font_fmt_txt.c **** 
 510              		.loc 1 138 1 view .LVU153
 511 0024 10BD     		pop	{r4, pc}
 512              	.LVL57:
 513              	.L55:
  85:Drivers/lvgl/src/font/lv_font_fmt_txt.c **** 
 514              		.loc 1 85 21 discriminator 1 view .LVU154
 515 0026 0020     		movs	r0, #0
 516              	.LVL58:
 138:Drivers/lvgl/src/font/lv_font_fmt_txt.c **** 
 517              		.loc 1 138 1 view .LVU155
 518 0028 10BD     		pop	{r4, pc}
 138:Drivers/lvgl/src/font/lv_font_fmt_txt.c **** 
 519              		.loc 1 138 1 view .LVU156
 520              		.cfi_endproc
 521              	.LFE26:
 523 002a 00BF     		.section	.text.lv_font_get_glyph_dsc_fmt_txt,"ax",%progbits
 524              		.align	1
 525              		.p2align 2,,3
 526              		.global	lv_font_get_glyph_dsc_fmt_txt
 527              		.syntax unified
 528              		.thumb
 529              		.thumb_func
 531              	lv_font_get_glyph_dsc_fmt_txt:
 532              	.LVL59:
 533              	.LFB27:
 150:Drivers/lvgl/src/font/lv_font_fmt_txt.c ****     /*It fixes a strange compiler optimization issue: https://github.com/lvgl/lvgl/issues/4370*/
 534              		.loc 1 150 1 is_stmt 1 view -0
 535              		.cfi_startproc
 536              		@ args = 0, pretend = 0, frame = 8
 537              		@ frame_needed = 0, uses_anonymous_args = 0
 152:Drivers/lvgl/src/font/lv_font_fmt_txt.c ****     if(is_tab) {
 538              		.loc 1 152 5 view .LVU158
 150:Drivers/lvgl/src/font/lv_font_fmt_txt.c ****     /*It fixes a strange compiler optimization issue: https://github.com/lvgl/lvgl/issues/4370*/
 539              		.loc 1 150 1 is_stmt 0 view .LVU159
 540 0000 2DE9F043 		push	{r4, r5, r6, r7, r8, r9, lr}
 541              		.cfi_def_cfa_offset 28
 542              		.cfi_offset 4, -28
ARM GAS  /var/folders/lp/x54gwt890xv47sdkqj1k04q40000gn/T//cc0ANnJ5.s 			page 23


 543              		.cfi_offset 5, -24
 544              		.cfi_offset 6, -20
 545              		.cfi_offset 7, -16
 546              		.cfi_offset 8, -12
 547              		.cfi_offset 9, -8
 548              		.cfi_offset 14, -4
 153:Drivers/lvgl/src/font/lv_font_fmt_txt.c ****         unicode_letter = ' ';
 549              		.loc 1 153 7 view .LVU160
 550 0004 092A     		cmp	r2, #9
 150:Drivers/lvgl/src/font/lv_font_fmt_txt.c ****     /*It fixes a strange compiler optimization issue: https://github.com/lvgl/lvgl/issues/4370*/
 551              		.loc 1 150 1 view .LVU161
 552 0006 0C46     		mov	r4, r1
 553 0008 85B0     		sub	sp, sp, #20
 554              		.cfi_def_cfa_offset 48
 157:Drivers/lvgl/src/font/lv_font_fmt_txt.c ****     if(!gid) return false;
 555              		.loc 1 157 20 view .LVU162
 556 000a 14BF     		ite	ne
 557 000c 1146     		movne	r1, r2
 558              	.LVL60:
 157:Drivers/lvgl/src/font/lv_font_fmt_txt.c ****     if(!gid) return false;
 559              		.loc 1 157 20 view .LVU163
 560 000e 2021     		moveq	r1, #32
 156:Drivers/lvgl/src/font/lv_font_fmt_txt.c ****     uint32_t gid = get_glyph_dsc_id(font, unicode_letter);
 561              		.loc 1 156 29 view .LVU164
 562 0010 0669     		ldr	r6, [r0, #16]
 150:Drivers/lvgl/src/font/lv_font_fmt_txt.c ****     /*It fixes a strange compiler optimization issue: https://github.com/lvgl/lvgl/issues/4370*/
 563              		.loc 1 150 1 view .LVU165
 564 0012 1546     		mov	r5, r2
 565              	.LVL61:
 153:Drivers/lvgl/src/font/lv_font_fmt_txt.c ****         unicode_letter = ' ';
 566              		.loc 1 153 5 is_stmt 1 view .LVU166
 156:Drivers/lvgl/src/font/lv_font_fmt_txt.c ****     uint32_t gid = get_glyph_dsc_id(font, unicode_letter);
 567              		.loc 1 156 5 view .LVU167
 157:Drivers/lvgl/src/font/lv_font_fmt_txt.c ****     if(!gid) return false;
 568              		.loc 1 157 5 view .LVU168
 150:Drivers/lvgl/src/font/lv_font_fmt_txt.c ****     /*It fixes a strange compiler optimization issue: https://github.com/lvgl/lvgl/issues/4370*/
 569              		.loc 1 150 1 is_stmt 0 view .LVU169
 570 0014 8146     		mov	r9, r0
 571 0016 9846     		mov	r8, r3
 157:Drivers/lvgl/src/font/lv_font_fmt_txt.c ****     if(!gid) return false;
 572              		.loc 1 157 20 view .LVU170
 573 0018 FFF7FEFF 		bl	get_glyph_dsc_id
 574              	.LVL62:
 158:Drivers/lvgl/src/font/lv_font_fmt_txt.c **** 
 575              		.loc 1 158 5 is_stmt 1 view .LVU171
 158:Drivers/lvgl/src/font/lv_font_fmt_txt.c **** 
 576              		.loc 1 158 7 is_stmt 0 view .LVU172
 577 001c 0746     		mov	r7, r0
 578 001e 0028     		cmp	r0, #0
 579 0020 31D0     		beq	.L59
 160:Drivers/lvgl/src/font/lv_font_fmt_txt.c ****     if(fdsc->kern_dsc) {
 580              		.loc 1 160 5 is_stmt 1 view .LVU173
 581              	.LVL63:
 161:Drivers/lvgl/src/font/lv_font_fmt_txt.c ****         uint32_t gid_next = get_glyph_dsc_id(font, unicode_letter_next);
 582              		.loc 1 161 5 view .LVU174
 161:Drivers/lvgl/src/font/lv_font_fmt_txt.c ****         uint32_t gid_next = get_glyph_dsc_id(font, unicode_letter_next);
 583              		.loc 1 161 7 is_stmt 0 view .LVU175
ARM GAS  /var/folders/lp/x54gwt890xv47sdkqj1k04q40000gn/T//cc0ANnJ5.s 			page 24


 584 0022 F368     		ldr	r3, [r6, #12]
 585 0024 2BB1     		cbz	r3, .L62
 586              	.LBB26:
 162:Drivers/lvgl/src/font/lv_font_fmt_txt.c ****         if(gid_next) {
 587              		.loc 1 162 9 is_stmt 1 view .LVU176
 162:Drivers/lvgl/src/font/lv_font_fmt_txt.c ****         if(gid_next) {
 588              		.loc 1 162 29 is_stmt 0 view .LVU177
 589 0026 4146     		mov	r1, r8
 590 0028 4846     		mov	r0, r9
 591              	.LVL64:
 162:Drivers/lvgl/src/font/lv_font_fmt_txt.c ****         if(gid_next) {
 592              		.loc 1 162 29 view .LVU178
 593 002a FFF7FEFF 		bl	get_glyph_dsc_id
 594              	.LVL65:
 163:Drivers/lvgl/src/font/lv_font_fmt_txt.c ****             kvalue = get_kern_value(font, gid, gid_next);
 595              		.loc 1 163 9 is_stmt 1 view .LVU179
 163:Drivers/lvgl/src/font/lv_font_fmt_txt.c ****             kvalue = get_kern_value(font, gid, gid_next);
 596              		.loc 1 163 11 is_stmt 0 view .LVU180
 597 002e 0028     		cmp	r0, #0
 598 0030 30D1     		bne	.L84
 599              	.LVL66:
 600              	.L62:
 601              	.LBB27:
 602              	.LBB28:
 603              	.LBB29:
 604              	.LBB30:
 163:Drivers/lvgl/src/font/lv_font_fmt_txt.c ****             kvalue = get_kern_value(font, gid, gid_next);
 605              		.loc 1 163 11 view .LVU181
 606 0032 0021     		movs	r1, #0
 607              	.L61:
 608              	.LVL67:
 163:Drivers/lvgl/src/font/lv_font_fmt_txt.c ****             kvalue = get_kern_value(font, gid, gid_next);
 609              		.loc 1 163 11 view .LVU182
 610              	.LBE30:
 611              	.LBE29:
 612              	.LBE28:
 613              	.LBE27:
 614              	.LBE26:
 169:Drivers/lvgl/src/font/lv_font_fmt_txt.c **** 
 615              		.loc 1 169 5 is_stmt 1 view .LVU183
 169:Drivers/lvgl/src/font/lv_font_fmt_txt.c **** 
 616              		.loc 1 169 41 is_stmt 0 view .LVU184
 617 0034 7268     		ldr	r2, [r6, #4]
 171:Drivers/lvgl/src/font/lv_font_fmt_txt.c **** 
 618              		.loc 1 171 51 view .LVU185
 619 0036 338A     		ldrh	r3, [r6, #16]
 169:Drivers/lvgl/src/font/lv_font_fmt_txt.c **** 
 620              		.loc 1 169 41 view .LVU186
 621 0038 02EBC702 		add	r2, r2, r7, lsl #3
 622              	.LVL68:
 171:Drivers/lvgl/src/font/lv_font_fmt_txt.c **** 
 623              		.loc 1 171 5 is_stmt 1 view .LVU187
 171:Drivers/lvgl/src/font/lv_font_fmt_txt.c **** 
 624              		.loc 1 171 19 is_stmt 0 view .LVU188
 625 003c 01FB03F3 		mul	r3, r1, r3
 173:Drivers/lvgl/src/font/lv_font_fmt_txt.c ****     if(is_tab) adv_w *= 2;
 626              		.loc 1 173 26 view .LVU189
ARM GAS  /var/folders/lp/x54gwt890xv47sdkqj1k04q40000gn/T//cc0ANnJ5.s 			page 25


 627 0040 5188     		ldrh	r1, [r2, #2]
 174:Drivers/lvgl/src/font/lv_font_fmt_txt.c **** 
 628              		.loc 1 174 7 view .LVU190
 629 0042 092D     		cmp	r5, #9
 173:Drivers/lvgl/src/font/lv_font_fmt_txt.c ****     if(is_tab) adv_w *= 2;
 630              		.loc 1 173 26 view .LVU191
 631 0044 C1F30B10 		ubfx	r0, r1, #4, #12
 632 0048 0146     		mov	r1, r0
 171:Drivers/lvgl/src/font/lv_font_fmt_txt.c **** 
 633              		.loc 1 171 13 view .LVU192
 634 004a 4FEA2313 		asr	r3, r3, #4
 635              	.LVL69:
 173:Drivers/lvgl/src/font/lv_font_fmt_txt.c ****     if(is_tab) adv_w *= 2;
 636              		.loc 1 173 5 is_stmt 1 view .LVU193
 174:Drivers/lvgl/src/font/lv_font_fmt_txt.c **** 
 637              		.loc 1 174 5 view .LVU194
 174:Drivers/lvgl/src/font/lv_font_fmt_txt.c **** 
 638              		.loc 1 174 16 discriminator 1 view .LVU195
 174:Drivers/lvgl/src/font/lv_font_fmt_txt.c **** 
 639              		.loc 1 174 22 is_stmt 0 discriminator 1 view .LVU196
 640 004e 04BF     		itt	eq
 641 0050 00B2     		sxtheq	r0, r0
 642              	.LVL70:
 174:Drivers/lvgl/src/font/lv_font_fmt_txt.c **** 
 643              		.loc 1 174 22 discriminator 1 view .LVU197
 644 0052 4100     		lsleq	r1, r0, #1
 645              	.LVL71:
 176:Drivers/lvgl/src/font/lv_font_fmt_txt.c ****     adv_w  = (adv_w + (1 << 3)) >> 4;
 646              		.loc 1 176 5 is_stmt 1 view .LVU198
 177:Drivers/lvgl/src/font/lv_font_fmt_txt.c **** 
 647              		.loc 1 177 5 view .LVU199
 177:Drivers/lvgl/src/font/lv_font_fmt_txt.c **** 
 648              		.loc 1 177 21 is_stmt 0 view .LVU200
 649 0054 0833     		adds	r3, r3, #8
 650              	.LVL72:
 177:Drivers/lvgl/src/font/lv_font_fmt_txt.c **** 
 651              		.loc 1 177 21 view .LVU201
 652 0056 0B44     		add	r3, r3, r1
 653              	.LVL73:
 179:Drivers/lvgl/src/font/lv_font_fmt_txt.c ****     dsc_out->box_h = gdsc->box_h;
 654              		.loc 1 179 5 is_stmt 1 view .LVU202
 177:Drivers/lvgl/src/font/lv_font_fmt_txt.c **** 
 655              		.loc 1 177 12 is_stmt 0 view .LVU203
 656 0058 1B09     		lsrs	r3, r3, #4
 657              	.LVL74:
 179:Drivers/lvgl/src/font/lv_font_fmt_txt.c ****     dsc_out->box_h = gdsc->box_h;
 658              		.loc 1 179 20 view .LVU204
 659 005a A380     		strh	r3, [r4, #4]	@ movhi
 180:Drivers/lvgl/src/font/lv_font_fmt_txt.c ****     dsc_out->box_w = gdsc->box_w;
 660              		.loc 1 180 5 is_stmt 1 view .LVU205
 180:Drivers/lvgl/src/font/lv_font_fmt_txt.c ****     dsc_out->box_w = gdsc->box_w;
 661              		.loc 1 180 26 is_stmt 0 view .LVU206
 662 005c 5379     		ldrb	r3, [r2, #5]	@ zero_extendqisi2
 663              	.LVL75:
 184:Drivers/lvgl/src/font/lv_font_fmt_txt.c ****     dsc_out->is_placeholder = false;
 664              		.loc 1 184 35 view .LVU207
 665 005e F17C     		ldrb	r1, [r6, #19]	@ zero_extendqisi2
ARM GAS  /var/folders/lp/x54gwt890xv47sdkqj1k04q40000gn/T//cc0ANnJ5.s 			page 26


 180:Drivers/lvgl/src/font/lv_font_fmt_txt.c ****     dsc_out->box_w = gdsc->box_w;
 666              		.loc 1 180 26 view .LVU208
 667 0060 2381     		strh	r3, [r4, #8]	@ movhi
 181:Drivers/lvgl/src/font/lv_font_fmt_txt.c ****     dsc_out->ofs_x = gdsc->ofs_x;
 668              		.loc 1 181 5 is_stmt 1 view .LVU209
 184:Drivers/lvgl/src/font/lv_font_fmt_txt.c ****     dsc_out->is_placeholder = false;
 669              		.loc 1 184 20 is_stmt 0 view .LVU210
 670 0062 A37B     		ldrb	r3, [r4, #14]	@ zero_extendqisi2
 181:Drivers/lvgl/src/font/lv_font_fmt_txt.c ****     dsc_out->ofs_x = gdsc->ofs_x;
 671              		.loc 1 181 26 view .LVU211
 672 0064 1079     		ldrb	r0, [r2, #4]	@ zero_extendqisi2
 181:Drivers/lvgl/src/font/lv_font_fmt_txt.c ****     dsc_out->ofs_x = gdsc->ofs_x;
 673              		.loc 1 181 20 view .LVU212
 674 0066 E080     		strh	r0, [r4, #6]	@ movhi
 182:Drivers/lvgl/src/font/lv_font_fmt_txt.c ****     dsc_out->ofs_y = gdsc->ofs_y;
 675              		.loc 1 182 5 is_stmt 1 view .LVU213
 184:Drivers/lvgl/src/font/lv_font_fmt_txt.c ****     dsc_out->is_placeholder = false;
 676              		.loc 1 184 20 is_stmt 0 view .LVU214
 677 0068 C1F34301 		ubfx	r1, r1, #1, #4
 678 006c 23F01F03 		bic	r3, r3, #31
 679 0070 0B43     		orrs	r3, r3, r1
 182:Drivers/lvgl/src/font/lv_font_fmt_txt.c ****     dsc_out->ofs_y = gdsc->ofs_y;
 680              		.loc 1 182 26 view .LVU215
 681 0072 92F90610 		ldrsb	r1, [r2, #6]
 682 0076 6181     		strh	r1, [r4, #10]	@ movhi
 183:Drivers/lvgl/src/font/lv_font_fmt_txt.c ****     dsc_out->bpp   = (uint8_t)fdsc->bpp;
 683              		.loc 1 183 5 is_stmt 1 view .LVU216
 183:Drivers/lvgl/src/font/lv_font_fmt_txt.c ****     dsc_out->bpp   = (uint8_t)fdsc->bpp;
 684              		.loc 1 183 26 is_stmt 0 view .LVU217
 685 0078 92F90720 		ldrsb	r2, [r2, #7]
 686              	.LVL76:
 183:Drivers/lvgl/src/font/lv_font_fmt_txt.c ****     dsc_out->bpp   = (uint8_t)fdsc->bpp;
 687              		.loc 1 183 26 view .LVU218
 688 007c A281     		strh	r2, [r4, #12]	@ movhi
 184:Drivers/lvgl/src/font/lv_font_fmt_txt.c ****     dsc_out->is_placeholder = false;
 689              		.loc 1 184 5 is_stmt 1 view .LVU219
 185:Drivers/lvgl/src/font/lv_font_fmt_txt.c **** 
 690              		.loc 1 185 5 view .LVU220
 187:Drivers/lvgl/src/font/lv_font_fmt_txt.c **** 
 691              		.loc 1 187 7 is_stmt 0 view .LVU221
 692 007e 092D     		cmp	r5, #9
 184:Drivers/lvgl/src/font/lv_font_fmt_txt.c ****     dsc_out->is_placeholder = false;
 693              		.loc 1 184 20 view .LVU222
 694 0080 A373     		strb	r3, [r4, #14]
 187:Drivers/lvgl/src/font/lv_font_fmt_txt.c **** 
 695              		.loc 1 187 5 is_stmt 1 view .LVU223
 187:Drivers/lvgl/src/font/lv_font_fmt_txt.c **** 
 696              		.loc 1 187 7 is_stmt 0 view .LVU224
 697 0082 03D0     		beq	.L68
 189:Drivers/lvgl/src/font/lv_font_fmt_txt.c **** }
 698              		.loc 1 189 12 view .LVU225
 699 0084 0120     		movs	r0, #1
 700              	.LVL77:
 701              	.L59:
 190:Drivers/lvgl/src/font/lv_font_fmt_txt.c **** 
 702              		.loc 1 190 1 view .LVU226
 703 0086 05B0     		add	sp, sp, #20
ARM GAS  /var/folders/lp/x54gwt890xv47sdkqj1k04q40000gn/T//cc0ANnJ5.s 			page 27


 704              		.cfi_remember_state
 705              		.cfi_def_cfa_offset 28
 706              		@ sp needed
 707 0088 BDE8F083 		pop	{r4, r5, r6, r7, r8, r9, pc}
 708              	.LVL78:
 709              	.L68:
 710              		.cfi_restore_state
 187:Drivers/lvgl/src/font/lv_font_fmt_txt.c **** 
 711              		.loc 1 187 16 is_stmt 1 discriminator 1 view .LVU227
 187:Drivers/lvgl/src/font/lv_font_fmt_txt.c **** 
 712              		.loc 1 187 31 is_stmt 0 discriminator 1 view .LVU228
 713 008c 4000     		lsls	r0, r0, #1
 714 008e E080     		strh	r0, [r4, #6]	@ movhi
 189:Drivers/lvgl/src/font/lv_font_fmt_txt.c **** }
 715              		.loc 1 189 12 view .LVU229
 716 0090 0120     		movs	r0, #1
 717 0092 F8E7     		b	.L59
 718              	.LVL79:
 719              	.L84:
 720              	.LBB45:
 164:Drivers/lvgl/src/font/lv_font_fmt_txt.c ****         }
 721              		.loc 1 164 13 is_stmt 1 view .LVU230
 722 0094 D9F81030 		ldr	r3, [r9, #16]
 723              	.LVL80:
 724              	.LBB42:
 725              	.LBI27:
 270:Drivers/lvgl/src/font/lv_font_fmt_txt.c **** {
 726              		.loc 1 270 15 view .LVU231
 727              	.LBB39:
 272:Drivers/lvgl/src/font/lv_font_fmt_txt.c **** 
 728              		.loc 1 272 5 view .LVU232
 274:Drivers/lvgl/src/font/lv_font_fmt_txt.c **** 
 729              		.loc 1 274 5 view .LVU233
 276:Drivers/lvgl/src/font/lv_font_fmt_txt.c ****         /*Kern pairs*/
 730              		.loc 1 276 5 view .LVU234
 276:Drivers/lvgl/src/font/lv_font_fmt_txt.c ****         /*Kern pairs*/
 731              		.loc 1 276 27 is_stmt 0 view .LVU235
 732 0098 DA7C     		ldrb	r2, [r3, #19]	@ zero_extendqisi2
 733              	.LBB35:
 278:Drivers/lvgl/src/font/lv_font_fmt_txt.c ****         if(kdsc->glyph_ids_size == 0) {
 734              		.loc 1 278 45 view .LVU236
 735 009a D3F80C80 		ldr	r8, [r3, #12]
 736              	.LVL81:
 278:Drivers/lvgl/src/font/lv_font_fmt_txt.c ****         if(kdsc->glyph_ids_size == 0) {
 737              		.loc 1 278 45 view .LVU237
 738              	.LBE35:
 276:Drivers/lvgl/src/font/lv_font_fmt_txt.c ****         /*Kern pairs*/
 739              		.loc 1 276 7 view .LVU238
 740 009e 9306     		lsls	r3, r2, #26
 741 00a0 20D4     		bmi	.L63
 742              	.LBB36:
 278:Drivers/lvgl/src/font/lv_font_fmt_txt.c ****         if(kdsc->glyph_ids_size == 0) {
 743              		.loc 1 278 9 is_stmt 1 view .LVU239
 744              	.LVL82:
 279:Drivers/lvgl/src/font/lv_font_fmt_txt.c ****             /*Use binary search to find the kern value.
 745              		.loc 1 279 9 view .LVU240
 279:Drivers/lvgl/src/font/lv_font_fmt_txt.c ****             /*Use binary search to find the kern value.
ARM GAS  /var/folders/lp/x54gwt890xv47sdkqj1k04q40000gn/T//cc0ANnJ5.s 			page 28


 746              		.loc 1 279 33 is_stmt 0 view .LVU241
 747 00a2 98F80B30 		ldrb	r3, [r8, #11]	@ zero_extendqisi2
 279:Drivers/lvgl/src/font/lv_font_fmt_txt.c ****             /*Use binary search to find the kern value.
 748              		.loc 1 279 11 view .LVU242
 749 00a6 3F2B     		cmp	r3, #63
 750 00a8 31D9     		bls	.L85
 292:Drivers/lvgl/src/font/lv_font_fmt_txt.c ****             /*Use binary search to find the kern value.
 751              		.loc 1 292 14 is_stmt 1 view .LVU243
 292:Drivers/lvgl/src/font/lv_font_fmt_txt.c ****             /*Use binary search to find the kern value.
 752              		.loc 1 292 16 is_stmt 0 view .LVU244
 753 00aa 03F0C003 		and	r3, r3, #192
 754 00ae 402B     		cmp	r3, #64
 755 00b0 BFD1     		bne	.L62
 756              	.LBB32:
 295:Drivers/lvgl/src/font/lv_font_fmt_txt.c ****             uint32_t g_id_both = (gid_right << 16) + gid_left; /*Create one number from the ids*/
 757              		.loc 1 295 13 is_stmt 1 view .LVU245
 295:Drivers/lvgl/src/font/lv_font_fmt_txt.c ****             uint32_t g_id_both = (gid_right << 16) + gid_left; /*Create one number from the ids*/
 758              		.loc 1 295 30 is_stmt 0 view .LVU246
 759 00b2 D8F80090 		ldr	r9, [r8]
 760              	.LVL83:
 296:Drivers/lvgl/src/font/lv_font_fmt_txt.c ****             uint32_t * kid_p = _lv_utils_bsearch(&g_id_both, g_ids, kdsc->pair_cnt, 4, kern_pair_16
 761              		.loc 1 296 13 is_stmt 1 view .LVU247
 297:Drivers/lvgl/src/font/lv_font_fmt_txt.c **** 
 762              		.loc 1 297 73 is_stmt 0 view .LVU248
 763 00b6 D8F80820 		ldr	r2, [r8, #8]
 297:Drivers/lvgl/src/font/lv_font_fmt_txt.c **** 
 764              		.loc 1 297 32 view .LVU249
 765 00ba 224B     		ldr	r3, .L86
 766 00bc 0093     		str	r3, [sp]
 767              	.LVL84:
 296:Drivers/lvgl/src/font/lv_font_fmt_txt.c ****             uint32_t * kid_p = _lv_utils_bsearch(&g_id_both, g_ids, kdsc->pair_cnt, 4, kern_pair_16
 768              		.loc 1 296 52 view .LVU250
 769 00be 07EB0040 		add	r0, r7, r0, lsl #16
 770              	.LVL85:
 296:Drivers/lvgl/src/font/lv_font_fmt_txt.c ****             uint32_t * kid_p = _lv_utils_bsearch(&g_id_both, g_ids, kdsc->pair_cnt, 4, kern_pair_16
 771              		.loc 1 296 22 view .LVU251
 772 00c2 0390     		str	r0, [sp, #12]
 297:Drivers/lvgl/src/font/lv_font_fmt_txt.c **** 
 773              		.loc 1 297 13 is_stmt 1 view .LVU252
 297:Drivers/lvgl/src/font/lv_font_fmt_txt.c **** 
 774              		.loc 1 297 32 is_stmt 0 view .LVU253
 775 00c4 22F04042 		bic	r2, r2, #-1073741824
 776 00c8 0423     		movs	r3, #4
 777 00ca 4946     		mov	r1, r9
 778 00cc 03A8     		add	r0, sp, #12
 779 00ce FFF7FEFF 		bl	_lv_utils_bsearch
 780              	.LVL86:
 300:Drivers/lvgl/src/font/lv_font_fmt_txt.c ****                 lv_uintptr_t ofs = kid_p - g_ids;
 781              		.loc 1 300 13 is_stmt 1 view .LVU254
 300:Drivers/lvgl/src/font/lv_font_fmt_txt.c ****                 lv_uintptr_t ofs = kid_p - g_ids;
 782              		.loc 1 300 15 is_stmt 0 view .LVU255
 783 00d2 0028     		cmp	r0, #0
 784 00d4 ADD0     		beq	.L62
 785              	.LBB31:
 301:Drivers/lvgl/src/font/lv_font_fmt_txt.c ****                 value = kdsc->values[ofs];
 786              		.loc 1 301 17 is_stmt 1 view .LVU256
 787              	.LVL87:
ARM GAS  /var/folders/lp/x54gwt890xv47sdkqj1k04q40000gn/T//cc0ANnJ5.s 			page 29


 302:Drivers/lvgl/src/font/lv_font_fmt_txt.c ****             }
 788              		.loc 1 302 17 view .LVU257
 301:Drivers/lvgl/src/font/lv_font_fmt_txt.c ****                 value = kdsc->values[ofs];
 789              		.loc 1 301 42 is_stmt 0 view .LVU258
 790 00d6 A0EB0903 		sub	r3, r0, r9
 302:Drivers/lvgl/src/font/lv_font_fmt_txt.c ****             }
 791              		.loc 1 302 23 view .LVU259
 792 00da D8F80420 		ldr	r2, [r8, #4]
 301:Drivers/lvgl/src/font/lv_font_fmt_txt.c ****                 value = kdsc->values[ofs];
 793              		.loc 1 301 42 view .LVU260
 794 00de 9B10     		asrs	r3, r3, #2
 795              	.LBE31:
 796              	.LBE32:
 797              	.LBE36:
 798              	.LBE39:
 799              	.LBE42:
 800              	.LBE45:
 171:Drivers/lvgl/src/font/lv_font_fmt_txt.c **** 
 801              		.loc 1 171 29 view .LVU261
 802 00e0 D156     		ldrsb	r1, [r2, r3]
 803 00e2 A7E7     		b	.L61
 804              	.LVL88:
 805              	.L63:
 806              	.LBB46:
 807              	.LBB43:
 808              	.LBB40:
 809              	.LBB37:
 312:Drivers/lvgl/src/font/lv_font_fmt_txt.c ****         uint8_t left_class = kdsc->left_class_mapping[gid_left];
 810              		.loc 1 312 9 is_stmt 1 view .LVU262
 313:Drivers/lvgl/src/font/lv_font_fmt_txt.c ****         uint8_t right_class = kdsc->right_class_mapping[gid_right];
 811              		.loc 1 313 9 view .LVU263
 313:Drivers/lvgl/src/font/lv_font_fmt_txt.c ****         uint8_t right_class = kdsc->right_class_mapping[gid_right];
 812              		.loc 1 313 17 is_stmt 0 view .LVU264
 813 00e4 D8F80430 		ldr	r3, [r8, #4]
 314:Drivers/lvgl/src/font/lv_font_fmt_txt.c **** 
 814              		.loc 1 314 17 view .LVU265
 815 00e8 D8F80820 		ldr	r2, [r8, #8]
 313:Drivers/lvgl/src/font/lv_font_fmt_txt.c ****         uint8_t right_class = kdsc->right_class_mapping[gid_right];
 816              		.loc 1 313 17 view .LVU266
 817 00ec DB5D     		ldrb	r3, [r3, r7]	@ zero_extendqisi2
 818              	.LVL89:
 314:Drivers/lvgl/src/font/lv_font_fmt_txt.c **** 
 819              		.loc 1 314 9 is_stmt 1 view .LVU267
 314:Drivers/lvgl/src/font/lv_font_fmt_txt.c **** 
 820              		.loc 1 314 17 is_stmt 0 view .LVU268
 821 00ee 125C     		ldrb	r2, [r2, r0]	@ zero_extendqisi2
 822              	.LVL90:
 318:Drivers/lvgl/src/font/lv_font_fmt_txt.c ****             value = kdsc->class_pair_values[(left_class - 1) * kdsc->right_class_cnt + (right_class
 823              		.loc 1 318 9 is_stmt 1 view .LVU269
 318:Drivers/lvgl/src/font/lv_font_fmt_txt.c ****             value = kdsc->class_pair_values[(left_class - 1) * kdsc->right_class_cnt + (right_class
 824              		.loc 1 318 11 is_stmt 0 view .LVU270
 825 00f0 002B     		cmp	r3, #0
 826 00f2 9ED0     		beq	.L62
 318:Drivers/lvgl/src/font/lv_font_fmt_txt.c ****             value = kdsc->class_pair_values[(left_class - 1) * kdsc->right_class_cnt + (right_class
 827              		.loc 1 318 27 discriminator 1 view .LVU271
 828 00f4 002A     		cmp	r2, #0
 829 00f6 9CD0     		beq	.L62
ARM GAS  /var/folders/lp/x54gwt890xv47sdkqj1k04q40000gn/T//cc0ANnJ5.s 			page 30


 319:Drivers/lvgl/src/font/lv_font_fmt_txt.c ****         }
 830              		.loc 1 319 13 is_stmt 1 view .LVU272
 831              	.LVL91:
 319:Drivers/lvgl/src/font/lv_font_fmt_txt.c ****         }
 832              		.loc 1 319 19 is_stmt 0 view .LVU273
 833 00f8 D8F80010 		ldr	r1, [r8]
 834 00fc 1144     		add	r1, r1, r2
 319:Drivers/lvgl/src/font/lv_font_fmt_txt.c ****         }
 835              		.loc 1 319 68 view .LVU274
 836 00fe 98F80D20 		ldrb	r2, [r8, #13]	@ zero_extendqisi2
 837              	.LVL92:
 319:Drivers/lvgl/src/font/lv_font_fmt_txt.c ****         }
 838              		.loc 1 319 57 view .LVU275
 839 0102 013B     		subs	r3, r3, #1
 840              	.LVL93:
 319:Drivers/lvgl/src/font/lv_font_fmt_txt.c ****         }
 841              		.loc 1 319 19 view .LVU276
 842 0104 02FB0313 		mla	r3, r2, r3, r1
 843              	.LVL94:
 319:Drivers/lvgl/src/font/lv_font_fmt_txt.c ****         }
 844              		.loc 1 319 19 view .LVU277
 845              	.LBE37:
 846              	.LBE40:
 847              	.LBE43:
 848              	.LBE46:
 171:Drivers/lvgl/src/font/lv_font_fmt_txt.c **** 
 849              		.loc 1 171 29 view .LVU278
 850 0108 13F9011C 		ldrsb	r1, [r3, #-1]
 851 010c 92E7     		b	.L61
 852              	.LVL95:
 853              	.L85:
 854              	.LBB47:
 855              	.LBB44:
 856              	.LBB41:
 857              	.LBB38:
 858              	.LBB33:
 282:Drivers/lvgl/src/font/lv_font_fmt_txt.c ****             uint16_t g_id_both = (gid_right << 8) + gid_left; /*Create one number from the ids*/
 859              		.loc 1 282 13 is_stmt 1 view .LVU279
 282:Drivers/lvgl/src/font/lv_font_fmt_txt.c ****             uint16_t g_id_both = (gid_right << 8) + gid_left; /*Create one number from the ids*/
 860              		.loc 1 282 30 is_stmt 0 view .LVU280
 861 010e D8F80090 		ldr	r9, [r8]
 862              	.LVL96:
 283:Drivers/lvgl/src/font/lv_font_fmt_txt.c ****             uint16_t * kid_p = _lv_utils_bsearch(&g_id_both, g_ids, kdsc->pair_cnt, 2, kern_pair_8_
 863              		.loc 1 283 13 is_stmt 1 view .LVU281
 284:Drivers/lvgl/src/font/lv_font_fmt_txt.c **** 
 864              		.loc 1 284 73 is_stmt 0 view .LVU282
 865 0112 D8F80820 		ldr	r2, [r8, #8]
 284:Drivers/lvgl/src/font/lv_font_fmt_txt.c **** 
 866              		.loc 1 284 32 view .LVU283
 867 0116 0C4B     		ldr	r3, .L86+4
 868 0118 0093     		str	r3, [sp]
 869              	.LVL97:
 283:Drivers/lvgl/src/font/lv_font_fmt_txt.c ****             uint16_t * kid_p = _lv_utils_bsearch(&g_id_both, g_ids, kdsc->pair_cnt, 2, kern_pair_8_
 870              		.loc 1 283 51 view .LVU284
 871 011a 07EB0020 		add	r0, r7, r0, lsl #8
 872              	.LVL98:
 283:Drivers/lvgl/src/font/lv_font_fmt_txt.c ****             uint16_t * kid_p = _lv_utils_bsearch(&g_id_both, g_ids, kdsc->pair_cnt, 2, kern_pair_8_
ARM GAS  /var/folders/lp/x54gwt890xv47sdkqj1k04q40000gn/T//cc0ANnJ5.s 			page 31


 873              		.loc 1 283 22 view .LVU285
 874 011e ADF80C00 		strh	r0, [sp, #12]	@ movhi
 284:Drivers/lvgl/src/font/lv_font_fmt_txt.c **** 
 875              		.loc 1 284 13 is_stmt 1 view .LVU286
 284:Drivers/lvgl/src/font/lv_font_fmt_txt.c **** 
 876              		.loc 1 284 32 is_stmt 0 view .LVU287
 877 0122 22F04042 		bic	r2, r2, #-1073741824
 878 0126 0223     		movs	r3, #2
 879 0128 4946     		mov	r1, r9
 880 012a 03A8     		add	r0, sp, #12
 881 012c FFF7FEFF 		bl	_lv_utils_bsearch
 882              	.LVL99:
 287:Drivers/lvgl/src/font/lv_font_fmt_txt.c ****                 lv_uintptr_t ofs = kid_p - g_ids;
 883              		.loc 1 287 13 is_stmt 1 view .LVU288
 287:Drivers/lvgl/src/font/lv_font_fmt_txt.c ****                 lv_uintptr_t ofs = kid_p - g_ids;
 884              		.loc 1 287 15 is_stmt 0 view .LVU289
 885 0130 0028     		cmp	r0, #0
 886 0132 3FF47EAF 		beq	.L62
 887              	.LBB34:
 288:Drivers/lvgl/src/font/lv_font_fmt_txt.c ****                 value = kdsc->values[ofs];
 888              		.loc 1 288 17 is_stmt 1 view .LVU290
 889              	.LVL100:
 289:Drivers/lvgl/src/font/lv_font_fmt_txt.c ****             }
 890              		.loc 1 289 17 view .LVU291
 288:Drivers/lvgl/src/font/lv_font_fmt_txt.c ****                 value = kdsc->values[ofs];
 891              		.loc 1 288 42 is_stmt 0 view .LVU292
 892 0136 A0EB0903 		sub	r3, r0, r9
 289:Drivers/lvgl/src/font/lv_font_fmt_txt.c ****             }
 893              		.loc 1 289 23 view .LVU293
 894 013a D8F80420 		ldr	r2, [r8, #4]
 288:Drivers/lvgl/src/font/lv_font_fmt_txt.c ****                 value = kdsc->values[ofs];
 895              		.loc 1 288 42 view .LVU294
 896 013e 5B10     		asrs	r3, r3, #1
 897              	.LBE34:
 898              	.LBE33:
 899              	.LBE38:
 900              	.LBE41:
 901              	.LBE44:
 902              	.LBE47:
 171:Drivers/lvgl/src/font/lv_font_fmt_txt.c **** 
 903              		.loc 1 171 29 view .LVU295
 904 0140 D156     		ldrsb	r1, [r2, r3]
 905 0142 77E7     		b	.L61
 906              	.L87:
 907              		.align	2
 908              	.L86:
 909 0144 00000000 		.word	kern_pair_16_compare
 910 0148 00000000 		.word	kern_pair_8_compare
 911              		.cfi_endproc
 912              	.LFE27:
 914              		.section	.text._lv_font_clean_up_fmt_txt,"ax",%progbits
 915              		.align	1
 916              		.p2align 2,,3
 917              		.global	_lv_font_clean_up_fmt_txt
 918              		.syntax unified
 919              		.thumb
 920              		.thumb_func
ARM GAS  /var/folders/lp/x54gwt890xv47sdkqj1k04q40000gn/T//cc0ANnJ5.s 			page 32


 922              	_lv_font_clean_up_fmt_txt:
 923              	.LFB28:
 196:Drivers/lvgl/src/font/lv_font_fmt_txt.c **** #if LV_USE_FONT_COMPRESSED
 924              		.loc 1 196 1 is_stmt 1 view -0
 925              		.cfi_startproc
 926              		@ args = 0, pretend = 0, frame = 0
 927              		@ frame_needed = 0, uses_anonymous_args = 0
 928              		@ link register save eliminated.
 203:Drivers/lvgl/src/font/lv_font_fmt_txt.c **** 
 929              		.loc 1 203 1 view .LVU297
 930 0000 7047     		bx	lr
 931              		.cfi_endproc
 932              	.LFE28:
 934 0002 00BF     		.text
 935              	.Letext0:
 936              		.file 2 "/Users/jr/Library/Application Support/Code/User/globalStorage/bmd.stm32-for-vscode/@xpack
 937              		.file 3 "/Users/jr/Library/Application Support/Code/User/globalStorage/bmd.stm32-for-vscode/@xpack
 938              		.file 4 "Drivers/lvgl/src/font/../misc/lv_area.h"
 939              		.file 5 "Drivers/lvgl/src/font/lv_font.h"
 940              		.file 6 "Drivers/lvgl/src/font/lv_font_fmt_txt.h"
 941              		.file 7 "Drivers/lvgl/src/font/../misc/lv_types.h"
 942              		.file 8 "Drivers/lvgl/src/font/../misc/lv_utils.h"
ARM GAS  /var/folders/lp/x54gwt890xv47sdkqj1k04q40000gn/T//cc0ANnJ5.s 			page 33

