ARM GAS  /var/folders/0z/tsy30v1j4xl4_7kw94k978ww0000gn/T//ccOlCxDD.s 			page 1


   1              		.cpu cortex-m4
   2              		.arch armv7e-m
   3              		.fpu fpv4-sp-d16
   4              		.eabi_attribute 27, 1
   5              		.eabi_attribute 28, 1
   6              		.eabi_attribute 23, 1
   7              		.eabi_attribute 24, 1
   8              		.eabi_attribute 25, 1
   9              		.eabi_attribute 26, 1
  10              		.eabi_attribute 30, 2
  11              		.eabi_attribute 34, 1
  12              		.eabi_attribute 18, 4
  13              		.file	"lv_font_loader.c"
  14              		.text
  15              	.Ltext0:
  16              		.cfi_sections	.debug_frame
  17              		.section	.text.lv_font_free,"ax",%progbits
  18              		.align	1
  19              		.p2align 2,,3
  20              		.global	lv_font_free
  21              		.syntax unified
  22              		.thumb
  23              		.thumb_func
  25              	lv_font_free:
  26              	.LVL0:
  27              	.LFB205:
  28              		.file 1 "Drivers/lvgl/src/font/lv_font_loader.c"
   1:Drivers/lvgl/src/font/lv_font_loader.c **** /**
   2:Drivers/lvgl/src/font/lv_font_loader.c ****  * @file lv_font_loader.c
   3:Drivers/lvgl/src/font/lv_font_loader.c ****  *
   4:Drivers/lvgl/src/font/lv_font_loader.c ****  */
   5:Drivers/lvgl/src/font/lv_font_loader.c **** 
   6:Drivers/lvgl/src/font/lv_font_loader.c **** /*********************
   7:Drivers/lvgl/src/font/lv_font_loader.c ****  *      INCLUDES
   8:Drivers/lvgl/src/font/lv_font_loader.c ****  *********************/
   9:Drivers/lvgl/src/font/lv_font_loader.c **** 
  10:Drivers/lvgl/src/font/lv_font_loader.c **** #include <stdint.h>
  11:Drivers/lvgl/src/font/lv_font_loader.c **** #include <stdbool.h>
  12:Drivers/lvgl/src/font/lv_font_loader.c **** 
  13:Drivers/lvgl/src/font/lv_font_loader.c **** #include "../lvgl.h"
  14:Drivers/lvgl/src/font/lv_font_loader.c **** #include "../misc/lv_fs.h"
  15:Drivers/lvgl/src/font/lv_font_loader.c **** #include "lv_font_loader.h"
  16:Drivers/lvgl/src/font/lv_font_loader.c **** 
  17:Drivers/lvgl/src/font/lv_font_loader.c **** /**********************
  18:Drivers/lvgl/src/font/lv_font_loader.c ****  *      TYPEDEFS
  19:Drivers/lvgl/src/font/lv_font_loader.c ****  **********************/
  20:Drivers/lvgl/src/font/lv_font_loader.c **** typedef struct {
  21:Drivers/lvgl/src/font/lv_font_loader.c ****     lv_fs_file_t * fp;
  22:Drivers/lvgl/src/font/lv_font_loader.c ****     int8_t bit_pos;
  23:Drivers/lvgl/src/font/lv_font_loader.c ****     uint8_t byte_value;
  24:Drivers/lvgl/src/font/lv_font_loader.c **** } bit_iterator_t;
  25:Drivers/lvgl/src/font/lv_font_loader.c **** 
  26:Drivers/lvgl/src/font/lv_font_loader.c **** typedef struct font_header_bin {
  27:Drivers/lvgl/src/font/lv_font_loader.c ****     uint32_t version;
  28:Drivers/lvgl/src/font/lv_font_loader.c ****     uint16_t tables_count;
  29:Drivers/lvgl/src/font/lv_font_loader.c ****     uint16_t font_size;
  30:Drivers/lvgl/src/font/lv_font_loader.c ****     uint16_t ascent;
ARM GAS  /var/folders/0z/tsy30v1j4xl4_7kw94k978ww0000gn/T//ccOlCxDD.s 			page 2


  31:Drivers/lvgl/src/font/lv_font_loader.c ****     int16_t descent;
  32:Drivers/lvgl/src/font/lv_font_loader.c ****     uint16_t typo_ascent;
  33:Drivers/lvgl/src/font/lv_font_loader.c ****     int16_t typo_descent;
  34:Drivers/lvgl/src/font/lv_font_loader.c ****     uint16_t typo_line_gap;
  35:Drivers/lvgl/src/font/lv_font_loader.c ****     int16_t min_y;
  36:Drivers/lvgl/src/font/lv_font_loader.c ****     int16_t max_y;
  37:Drivers/lvgl/src/font/lv_font_loader.c ****     uint16_t default_advance_width;
  38:Drivers/lvgl/src/font/lv_font_loader.c ****     uint16_t kerning_scale;
  39:Drivers/lvgl/src/font/lv_font_loader.c ****     uint8_t index_to_loc_format;
  40:Drivers/lvgl/src/font/lv_font_loader.c ****     uint8_t glyph_id_format;
  41:Drivers/lvgl/src/font/lv_font_loader.c ****     uint8_t advance_width_format;
  42:Drivers/lvgl/src/font/lv_font_loader.c ****     uint8_t bits_per_pixel;
  43:Drivers/lvgl/src/font/lv_font_loader.c ****     uint8_t xy_bits;
  44:Drivers/lvgl/src/font/lv_font_loader.c ****     uint8_t wh_bits;
  45:Drivers/lvgl/src/font/lv_font_loader.c ****     uint8_t advance_width_bits;
  46:Drivers/lvgl/src/font/lv_font_loader.c ****     uint8_t compression_id;
  47:Drivers/lvgl/src/font/lv_font_loader.c ****     uint8_t subpixels_mode;
  48:Drivers/lvgl/src/font/lv_font_loader.c ****     uint8_t padding;
  49:Drivers/lvgl/src/font/lv_font_loader.c ****     int16_t underline_position;
  50:Drivers/lvgl/src/font/lv_font_loader.c ****     uint16_t underline_thickness;
  51:Drivers/lvgl/src/font/lv_font_loader.c **** } font_header_bin_t;
  52:Drivers/lvgl/src/font/lv_font_loader.c **** 
  53:Drivers/lvgl/src/font/lv_font_loader.c **** typedef struct cmap_table_bin {
  54:Drivers/lvgl/src/font/lv_font_loader.c ****     uint32_t data_offset;
  55:Drivers/lvgl/src/font/lv_font_loader.c ****     uint32_t range_start;
  56:Drivers/lvgl/src/font/lv_font_loader.c ****     uint16_t range_length;
  57:Drivers/lvgl/src/font/lv_font_loader.c ****     uint16_t glyph_id_start;
  58:Drivers/lvgl/src/font/lv_font_loader.c ****     uint16_t data_entries_count;
  59:Drivers/lvgl/src/font/lv_font_loader.c ****     uint8_t format_type;
  60:Drivers/lvgl/src/font/lv_font_loader.c ****     uint8_t padding;
  61:Drivers/lvgl/src/font/lv_font_loader.c **** } cmap_table_bin_t;
  62:Drivers/lvgl/src/font/lv_font_loader.c **** 
  63:Drivers/lvgl/src/font/lv_font_loader.c **** /**********************
  64:Drivers/lvgl/src/font/lv_font_loader.c ****  *  STATIC PROTOTYPES
  65:Drivers/lvgl/src/font/lv_font_loader.c ****  **********************/
  66:Drivers/lvgl/src/font/lv_font_loader.c **** static bit_iterator_t init_bit_iterator(lv_fs_file_t * fp);
  67:Drivers/lvgl/src/font/lv_font_loader.c **** static bool lvgl_load_font(lv_fs_file_t * fp, lv_font_t * font);
  68:Drivers/lvgl/src/font/lv_font_loader.c **** int32_t load_kern(lv_fs_file_t * fp, lv_font_fmt_txt_dsc_t * font_dsc, uint8_t format, uint32_t sta
  69:Drivers/lvgl/src/font/lv_font_loader.c **** 
  70:Drivers/lvgl/src/font/lv_font_loader.c **** static int read_bits_signed(bit_iterator_t * it, int n_bits, lv_fs_res_t * res);
  71:Drivers/lvgl/src/font/lv_font_loader.c **** static unsigned int read_bits(bit_iterator_t * it, int n_bits, lv_fs_res_t * res);
  72:Drivers/lvgl/src/font/lv_font_loader.c **** 
  73:Drivers/lvgl/src/font/lv_font_loader.c **** /**********************
  74:Drivers/lvgl/src/font/lv_font_loader.c ****  *      MACROS
  75:Drivers/lvgl/src/font/lv_font_loader.c ****  **********************/
  76:Drivers/lvgl/src/font/lv_font_loader.c **** 
  77:Drivers/lvgl/src/font/lv_font_loader.c **** /**********************
  78:Drivers/lvgl/src/font/lv_font_loader.c ****  *   GLOBAL FUNCTIONS
  79:Drivers/lvgl/src/font/lv_font_loader.c ****  **********************/
  80:Drivers/lvgl/src/font/lv_font_loader.c **** 
  81:Drivers/lvgl/src/font/lv_font_loader.c **** /**
  82:Drivers/lvgl/src/font/lv_font_loader.c ****  * Loads a `lv_font_t` object from a binary font file
  83:Drivers/lvgl/src/font/lv_font_loader.c ****  * @param font_name filename where the font file is located
  84:Drivers/lvgl/src/font/lv_font_loader.c ****  * @return a pointer to the font or NULL in case of error
  85:Drivers/lvgl/src/font/lv_font_loader.c ****  */
  86:Drivers/lvgl/src/font/lv_font_loader.c **** lv_font_t * lv_font_load(const char * font_name)
  87:Drivers/lvgl/src/font/lv_font_loader.c **** {
ARM GAS  /var/folders/0z/tsy30v1j4xl4_7kw94k978ww0000gn/T//ccOlCxDD.s 			page 3


  88:Drivers/lvgl/src/font/lv_font_loader.c ****     lv_fs_file_t file;
  89:Drivers/lvgl/src/font/lv_font_loader.c ****     lv_fs_res_t res = lv_fs_open(&file, font_name, LV_FS_MODE_RD);
  90:Drivers/lvgl/src/font/lv_font_loader.c ****     if(res != LV_FS_RES_OK)
  91:Drivers/lvgl/src/font/lv_font_loader.c ****         return NULL;
  92:Drivers/lvgl/src/font/lv_font_loader.c **** 
  93:Drivers/lvgl/src/font/lv_font_loader.c ****     lv_font_t * font = lv_mem_alloc(sizeof(lv_font_t));
  94:Drivers/lvgl/src/font/lv_font_loader.c ****     if(font) {
  95:Drivers/lvgl/src/font/lv_font_loader.c ****         memset(font, 0, sizeof(lv_font_t));
  96:Drivers/lvgl/src/font/lv_font_loader.c ****         if(!lvgl_load_font(&file, font)) {
  97:Drivers/lvgl/src/font/lv_font_loader.c ****             LV_LOG_WARN("Error loading font file: %s\n", font_name);
  98:Drivers/lvgl/src/font/lv_font_loader.c ****             /*
  99:Drivers/lvgl/src/font/lv_font_loader.c ****             * When `lvgl_load_font` fails it can leak some pointers.
 100:Drivers/lvgl/src/font/lv_font_loader.c ****             * All non-null pointers can be assumed as allocated and
 101:Drivers/lvgl/src/font/lv_font_loader.c ****             * `lv_font_free` should free them correctly.
 102:Drivers/lvgl/src/font/lv_font_loader.c ****             */
 103:Drivers/lvgl/src/font/lv_font_loader.c ****             lv_font_free(font);
 104:Drivers/lvgl/src/font/lv_font_loader.c ****             font = NULL;
 105:Drivers/lvgl/src/font/lv_font_loader.c ****         }
 106:Drivers/lvgl/src/font/lv_font_loader.c ****     }
 107:Drivers/lvgl/src/font/lv_font_loader.c **** 
 108:Drivers/lvgl/src/font/lv_font_loader.c ****     lv_fs_close(&file);
 109:Drivers/lvgl/src/font/lv_font_loader.c **** 
 110:Drivers/lvgl/src/font/lv_font_loader.c ****     return font;
 111:Drivers/lvgl/src/font/lv_font_loader.c **** }
 112:Drivers/lvgl/src/font/lv_font_loader.c **** 
 113:Drivers/lvgl/src/font/lv_font_loader.c **** /**
 114:Drivers/lvgl/src/font/lv_font_loader.c ****  * Frees the memory allocated by the `lv_font_load()` function
 115:Drivers/lvgl/src/font/lv_font_loader.c ****  * @param font lv_font_t object created by the lv_font_load function
 116:Drivers/lvgl/src/font/lv_font_loader.c ****  */
 117:Drivers/lvgl/src/font/lv_font_loader.c **** void lv_font_free(lv_font_t * font)
 118:Drivers/lvgl/src/font/lv_font_loader.c **** {
  29              		.loc 1 118 1 view -0
  30              		.cfi_startproc
  31              		@ args = 0, pretend = 0, frame = 0
  32              		@ frame_needed = 0, uses_anonymous_args = 0
 119:Drivers/lvgl/src/font/lv_font_loader.c ****     if(NULL != font) {
  33              		.loc 1 119 5 view .LVU1
  34              		.loc 1 119 7 is_stmt 0 view .LVU2
  35 0000 0028     		cmp	r0, #0
  36 0002 58D0     		beq	.L1
  37              	.LBB15:
 120:Drivers/lvgl/src/font/lv_font_loader.c ****         lv_font_fmt_txt_dsc_t * dsc = (lv_font_fmt_txt_dsc_t *)font->dsc;
  38              		.loc 1 120 9 is_stmt 1 view .LVU3
  39              	.LBE15:
 118:Drivers/lvgl/src/font/lv_font_loader.c ****     if(NULL != font) {
  40              		.loc 1 118 1 is_stmt 0 view .LVU4
  41 0004 2DE9F041 		push	{r4, r5, r6, r7, r8, lr}
  42              		.cfi_def_cfa_offset 24
  43              		.cfi_offset 4, -24
  44              		.cfi_offset 5, -20
  45              		.cfi_offset 6, -16
  46              		.cfi_offset 7, -12
  47              		.cfi_offset 8, -8
  48              		.cfi_offset 14, -4
  49              	.LBB23:
  50              		.loc 1 120 33 view .LVU5
  51 0008 0669     		ldr	r6, [r0, #16]
ARM GAS  /var/folders/0z/tsy30v1j4xl4_7kw94k978ww0000gn/T//ccOlCxDD.s 			page 4


  52              	.LVL1:
 121:Drivers/lvgl/src/font/lv_font_loader.c **** 
 122:Drivers/lvgl/src/font/lv_font_loader.c ****         if(NULL != dsc) {
  53              		.loc 1 122 9 is_stmt 1 view .LVU6
  54 000a 0746     		mov	r7, r0
  55              		.loc 1 122 11 is_stmt 0 view .LVU7
  56 000c 002E     		cmp	r6, #0
  57 000e 44D0     		beq	.L3
  58              	.LBB16:
 123:Drivers/lvgl/src/font/lv_font_loader.c **** 
 124:Drivers/lvgl/src/font/lv_font_loader.c ****             if(dsc->kern_classes == 0) {
  59              		.loc 1 124 13 is_stmt 1 view .LVU8
  60              		.loc 1 124 34 is_stmt 0 view .LVU9
  61 0010 F37C     		ldrb	r3, [r6, #19]	@ zero_extendqisi2
  62              	.LBB17:
 125:Drivers/lvgl/src/font/lv_font_loader.c ****                 lv_font_fmt_txt_kern_pair_t * kern_dsc =
  63              		.loc 1 125 47 view .LVU10
  64 0012 F468     		ldr	r4, [r6, #12]
  65              	.LBE17:
 124:Drivers/lvgl/src/font/lv_font_loader.c ****                 lv_font_fmt_txt_kern_pair_t * kern_dsc =
  66              		.loc 1 124 15 view .LVU11
  67 0014 9B06     		lsls	r3, r3, #26
  68 0016 07D4     		bmi	.L4
  69              	.LBB18:
  70              		.loc 1 125 17 is_stmt 1 view .LVU12
  71              	.LVL2:
 126:Drivers/lvgl/src/font/lv_font_loader.c ****                     (lv_font_fmt_txt_kern_pair_t *)dsc->kern_dsc;
 127:Drivers/lvgl/src/font/lv_font_loader.c **** 
 128:Drivers/lvgl/src/font/lv_font_loader.c ****                 if(NULL != kern_dsc) {
  72              		.loc 1 128 17 view .LVU13
  73              		.loc 1 128 19 is_stmt 0 view .LVU14
  74 0018 B4B1     		cbz	r4, .L5
 129:Drivers/lvgl/src/font/lv_font_loader.c ****                     if(kern_dsc->glyph_ids)
  75              		.loc 1 129 21 is_stmt 1 view .LVU15
  76              		.loc 1 129 32 is_stmt 0 view .LVU16
  77 001a 2068     		ldr	r0, [r4]
  78              	.LVL3:
  79              		.loc 1 129 23 view .LVU17
  80 001c 08B1     		cbz	r0, .L6
 130:Drivers/lvgl/src/font/lv_font_loader.c ****                         lv_mem_free((void *)kern_dsc->glyph_ids);
  81              		.loc 1 130 25 is_stmt 1 view .LVU18
  82 001e FFF7FEFF 		bl	lv_mem_free
  83              	.LVL4:
  84              	.L6:
 131:Drivers/lvgl/src/font/lv_font_loader.c **** 
 132:Drivers/lvgl/src/font/lv_font_loader.c ****                     if(kern_dsc->values)
  85              		.loc 1 132 21 view .LVU19
  86              		.loc 1 132 32 is_stmt 0 view .LVU20
  87 0022 6068     		ldr	r0, [r4, #4]
  88              		.loc 1 132 23 view .LVU21
  89 0024 58B9     		cbnz	r0, .L61
  90 0026 0CE0     		b	.L10
  91              	.LVL5:
  92              	.L4:
  93              		.loc 1 132 23 view .LVU22
  94              	.LBE18:
  95              	.LBB19:
ARM GAS  /var/folders/0z/tsy30v1j4xl4_7kw94k978ww0000gn/T//ccOlCxDD.s 			page 5


 133:Drivers/lvgl/src/font/lv_font_loader.c ****                         lv_mem_free((void *)kern_dsc->values);
 134:Drivers/lvgl/src/font/lv_font_loader.c **** 
 135:Drivers/lvgl/src/font/lv_font_loader.c ****                     lv_mem_free((void *)kern_dsc);
 136:Drivers/lvgl/src/font/lv_font_loader.c ****                 }
 137:Drivers/lvgl/src/font/lv_font_loader.c ****             }
 138:Drivers/lvgl/src/font/lv_font_loader.c ****             else {
 139:Drivers/lvgl/src/font/lv_font_loader.c ****                 lv_font_fmt_txt_kern_classes_t * kern_dsc =
  96              		.loc 1 139 17 is_stmt 1 view .LVU23
 140:Drivers/lvgl/src/font/lv_font_loader.c ****                     (lv_font_fmt_txt_kern_classes_t *)dsc->kern_dsc;
 141:Drivers/lvgl/src/font/lv_font_loader.c **** 
 142:Drivers/lvgl/src/font/lv_font_loader.c ****                 if(NULL != kern_dsc) {
  97              		.loc 1 142 17 view .LVU24
  98              		.loc 1 142 19 is_stmt 0 view .LVU25
  99 0028 74B1     		cbz	r4, .L5
 143:Drivers/lvgl/src/font/lv_font_loader.c ****                     if(kern_dsc->class_pair_values)
 100              		.loc 1 143 21 is_stmt 1 view .LVU26
 101              		.loc 1 143 32 is_stmt 0 view .LVU27
 102 002a 2068     		ldr	r0, [r4]
 103              	.LVL6:
 104              		.loc 1 143 23 view .LVU28
 105 002c 08B1     		cbz	r0, .L8
 144:Drivers/lvgl/src/font/lv_font_loader.c ****                         lv_mem_free((void *)kern_dsc->class_pair_values);
 106              		.loc 1 144 25 is_stmt 1 view .LVU29
 107 002e FFF7FEFF 		bl	lv_mem_free
 108              	.LVL7:
 109              	.L8:
 145:Drivers/lvgl/src/font/lv_font_loader.c **** 
 146:Drivers/lvgl/src/font/lv_font_loader.c ****                     if(kern_dsc->left_class_mapping)
 110              		.loc 1 146 21 view .LVU30
 111              		.loc 1 146 32 is_stmt 0 view .LVU31
 112 0032 6068     		ldr	r0, [r4, #4]
 113              		.loc 1 146 23 view .LVU32
 114 0034 08B1     		cbz	r0, .L9
 147:Drivers/lvgl/src/font/lv_font_loader.c ****                         lv_mem_free((void *)kern_dsc->left_class_mapping);
 115              		.loc 1 147 25 is_stmt 1 view .LVU33
 116 0036 FFF7FEFF 		bl	lv_mem_free
 117              	.LVL8:
 118              	.L9:
 148:Drivers/lvgl/src/font/lv_font_loader.c **** 
 149:Drivers/lvgl/src/font/lv_font_loader.c ****                     if(kern_dsc->right_class_mapping)
 119              		.loc 1 149 21 view .LVU34
 120              		.loc 1 149 32 is_stmt 0 view .LVU35
 121 003a A068     		ldr	r0, [r4, #8]
 122              		.loc 1 149 23 view .LVU36
 123 003c 08B1     		cbz	r0, .L10
 124              	.LVL9:
 125              	.L61:
 150:Drivers/lvgl/src/font/lv_font_loader.c ****                         lv_mem_free((void *)kern_dsc->right_class_mapping);
 126              		.loc 1 150 25 is_stmt 1 view .LVU37
 127 003e FFF7FEFF 		bl	lv_mem_free
 128              	.LVL10:
 129              	.L10:
 151:Drivers/lvgl/src/font/lv_font_loader.c **** 
 152:Drivers/lvgl/src/font/lv_font_loader.c ****                     lv_mem_free((void *)kern_dsc);
 130              		.loc 1 152 21 view .LVU38
 131 0042 2046     		mov	r0, r4
 132 0044 FFF7FEFF 		bl	lv_mem_free
ARM GAS  /var/folders/0z/tsy30v1j4xl4_7kw94k978ww0000gn/T//ccOlCxDD.s 			page 6


 133              	.LVL11:
 134              	.L5:
 135              	.LBE19:
 153:Drivers/lvgl/src/font/lv_font_loader.c ****                 }
 154:Drivers/lvgl/src/font/lv_font_loader.c ****             }
 155:Drivers/lvgl/src/font/lv_font_loader.c **** 
 156:Drivers/lvgl/src/font/lv_font_loader.c ****             lv_font_fmt_txt_cmap_t * cmaps =
 136              		.loc 1 156 13 view .LVU39
 137              		.loc 1 156 38 is_stmt 0 view .LVU40
 138 0048 D6F80880 		ldr	r8, [r6, #8]
 139              	.LVL12:
 157:Drivers/lvgl/src/font/lv_font_loader.c ****                 (lv_font_fmt_txt_cmap_t *)dsc->cmaps;
 158:Drivers/lvgl/src/font/lv_font_loader.c **** 
 159:Drivers/lvgl/src/font/lv_font_loader.c ****             if(NULL != cmaps) {
 140              		.loc 1 159 13 is_stmt 1 view .LVU41
 141              		.loc 1 159 15 is_stmt 0 view .LVU42
 142 004c B8F1000F 		cmp	r8, #0
 143 0050 18D0     		beq	.L11
 144              	.LVL13:
 145              	.LBB20:
 160:Drivers/lvgl/src/font/lv_font_loader.c ****                 for(int i = 0; i < dsc->cmap_num; ++i) {
 146              		.loc 1 160 34 is_stmt 1 view .LVU43
 147              		.loc 1 160 39 is_stmt 0 view .LVU44
 148 0052 738A     		ldrh	r3, [r6, #18]
 149              		.loc 1 160 34 view .LVU45
 150 0054 C3F30803 		ubfx	r3, r3, #0, #9
 151 0058 8BB1     		cbz	r3, .L12
 152 005a 4446     		mov	r4, r8
 153              		.loc 1 160 25 view .LVU46
 154 005c 0025     		movs	r5, #0
 155              	.LVL14:
 156              	.L16:
 161:Drivers/lvgl/src/font/lv_font_loader.c ****                     if(NULL != cmaps[i].glyph_id_ofs_list)
 157              		.loc 1 161 21 is_stmt 1 view .LVU47
 162:Drivers/lvgl/src/font/lv_font_loader.c ****                         lv_mem_free((void *)cmaps[i].glyph_id_ofs_list);
 158              		.loc 1 162 25 view .LVU48
 161:Drivers/lvgl/src/font/lv_font_loader.c ****                     if(NULL != cmaps[i].glyph_id_ofs_list)
 159              		.loc 1 161 40 is_stmt 0 view .LVU49
 160 005e E068     		ldr	r0, [r4, #12]
 161:Drivers/lvgl/src/font/lv_font_loader.c ****                     if(NULL != cmaps[i].glyph_id_ofs_list)
 161              		.loc 1 161 23 view .LVU50
 162 0060 08B1     		cbz	r0, .L13
 163              		.loc 1 162 25 view .LVU51
 164 0062 FFF7FEFF 		bl	lv_mem_free
 165              	.LVL15:
 166              	.L13:
 163:Drivers/lvgl/src/font/lv_font_loader.c ****                     if(NULL != cmaps[i].unicode_list)
 167              		.loc 1 163 21 is_stmt 1 view .LVU52
 164:Drivers/lvgl/src/font/lv_font_loader.c ****                         lv_mem_free((void *)cmaps[i].unicode_list);
 168              		.loc 1 164 25 view .LVU53
 160:Drivers/lvgl/src/font/lv_font_loader.c ****                     if(NULL != cmaps[i].glyph_id_ofs_list)
 169              		.loc 1 160 51 view .LVU54
 163:Drivers/lvgl/src/font/lv_font_loader.c ****                     if(NULL != cmaps[i].unicode_list)
 170              		.loc 1 163 40 is_stmt 0 view .LVU55
 171 0066 A068     		ldr	r0, [r4, #8]
 163:Drivers/lvgl/src/font/lv_font_loader.c ****                     if(NULL != cmaps[i].unicode_list)
 172              		.loc 1 163 23 view .LVU56
ARM GAS  /var/folders/0z/tsy30v1j4xl4_7kw94k978ww0000gn/T//ccOlCxDD.s 			page 7


 173 0068 E0B1     		cbz	r0, .L14
 174              		.loc 1 164 25 view .LVU57
 175 006a FFF7FEFF 		bl	lv_mem_free
 176              	.LVL16:
 160:Drivers/lvgl/src/font/lv_font_loader.c ****                     if(NULL != cmaps[i].glyph_id_ofs_list)
 177              		.loc 1 160 51 is_stmt 1 view .LVU58
 160:Drivers/lvgl/src/font/lv_font_loader.c ****                     if(NULL != cmaps[i].glyph_id_ofs_list)
 178              		.loc 1 160 39 is_stmt 0 view .LVU59
 179 006e 738A     		ldrh	r3, [r6, #18]
 160:Drivers/lvgl/src/font/lv_font_loader.c ****                     if(NULL != cmaps[i].glyph_id_ofs_list)
 180              		.loc 1 160 51 view .LVU60
 181 0070 0135     		adds	r5, r5, #1
 182              	.LVL17:
 160:Drivers/lvgl/src/font/lv_font_loader.c ****                     if(NULL != cmaps[i].glyph_id_ofs_list)
 183              		.loc 1 160 34 is_stmt 1 view .LVU61
 160:Drivers/lvgl/src/font/lv_font_loader.c ****                     if(NULL != cmaps[i].glyph_id_ofs_list)
 184              		.loc 1 160 39 is_stmt 0 view .LVU62
 185 0072 C3F30803 		ubfx	r3, r3, #0, #9
 160:Drivers/lvgl/src/font/lv_font_loader.c ****                     if(NULL != cmaps[i].glyph_id_ofs_list)
 186              		.loc 1 160 34 view .LVU63
 187 0076 9D42     		cmp	r5, r3
 188 0078 04F11404 		add	r4, r4, #20
 189 007c EFDB     		blt	.L16
 190              	.LVL18:
 191              	.L12:
 160:Drivers/lvgl/src/font/lv_font_loader.c ****                     if(NULL != cmaps[i].glyph_id_ofs_list)
 192              		.loc 1 160 34 view .LVU64
 193              	.LBE20:
 165:Drivers/lvgl/src/font/lv_font_loader.c ****                 }
 166:Drivers/lvgl/src/font/lv_font_loader.c ****                 lv_mem_free(cmaps);
 194              		.loc 1 166 17 is_stmt 1 view .LVU65
 195 007e 4046     		mov	r0, r8
 196 0080 FFF7FEFF 		bl	lv_mem_free
 197              	.LVL19:
 198              	.L11:
 167:Drivers/lvgl/src/font/lv_font_loader.c ****             }
 168:Drivers/lvgl/src/font/lv_font_loader.c **** 
 169:Drivers/lvgl/src/font/lv_font_loader.c ****             if(NULL != dsc->glyph_bitmap) {
 199              		.loc 1 169 13 view .LVU66
 200              		.loc 1 169 27 is_stmt 0 view .LVU67
 201 0084 3068     		ldr	r0, [r6]
 202              		.loc 1 169 15 view .LVU68
 203 0086 08B1     		cbz	r0, .L17
 170:Drivers/lvgl/src/font/lv_font_loader.c ****                 lv_mem_free((void *)dsc->glyph_bitmap);
 204              		.loc 1 170 17 is_stmt 1 view .LVU69
 205 0088 FFF7FEFF 		bl	lv_mem_free
 206              	.LVL20:
 207              	.L17:
 171:Drivers/lvgl/src/font/lv_font_loader.c ****             }
 172:Drivers/lvgl/src/font/lv_font_loader.c ****             if(NULL != dsc->glyph_dsc) {
 208              		.loc 1 172 13 view .LVU70
 209              		.loc 1 172 27 is_stmt 0 view .LVU71
 210 008c 7068     		ldr	r0, [r6, #4]
 211              		.loc 1 172 15 view .LVU72
 212 008e 08B1     		cbz	r0, .L18
 173:Drivers/lvgl/src/font/lv_font_loader.c ****                 lv_mem_free((void *)dsc->glyph_dsc);
 213              		.loc 1 173 17 is_stmt 1 view .LVU73
ARM GAS  /var/folders/0z/tsy30v1j4xl4_7kw94k978ww0000gn/T//ccOlCxDD.s 			page 8


 214 0090 FFF7FEFF 		bl	lv_mem_free
 215              	.LVL21:
 216              	.L18:
 174:Drivers/lvgl/src/font/lv_font_loader.c ****             }
 175:Drivers/lvgl/src/font/lv_font_loader.c ****             lv_mem_free(dsc);
 217              		.loc 1 175 13 view .LVU74
 218 0094 3046     		mov	r0, r6
 219 0096 FFF7FEFF 		bl	lv_mem_free
 220              	.LVL22:
 221              	.L3:
 222              		.loc 1 175 13 is_stmt 0 view .LVU75
 223              	.LBE16:
 176:Drivers/lvgl/src/font/lv_font_loader.c ****         }
 177:Drivers/lvgl/src/font/lv_font_loader.c ****         lv_mem_free(font);
 224              		.loc 1 177 9 is_stmt 1 view .LVU76
 225 009a 3846     		mov	r0, r7
 226              	.LBE23:
 178:Drivers/lvgl/src/font/lv_font_loader.c ****     }
 179:Drivers/lvgl/src/font/lv_font_loader.c **** }
 227              		.loc 1 179 1 is_stmt 0 view .LVU77
 228 009c BDE8F041 		pop	{r4, r5, r6, r7, r8, lr}
 229              		.cfi_remember_state
 230              		.cfi_restore 14
 231              		.cfi_restore 8
 232              		.cfi_restore 7
 233              		.cfi_restore 6
 234              		.cfi_restore 5
 235              		.cfi_restore 4
 236              		.cfi_def_cfa_offset 0
 237              	.LVL23:
 238              	.LBB24:
 177:Drivers/lvgl/src/font/lv_font_loader.c ****     }
 239              		.loc 1 177 9 view .LVU78
 240 00a0 FFF7FEBF 		b	lv_mem_free
 241              	.LVL24:
 242              	.L14:
 243              		.cfi_restore_state
 244              	.LBB22:
 245              	.LBB21:
 160:Drivers/lvgl/src/font/lv_font_loader.c ****                     if(NULL != cmaps[i].glyph_id_ofs_list)
 246              		.loc 1 160 39 discriminator 2 view .LVU79
 247 00a4 738A     		ldrh	r3, [r6, #18]
 160:Drivers/lvgl/src/font/lv_font_loader.c ****                     if(NULL != cmaps[i].glyph_id_ofs_list)
 248              		.loc 1 160 51 discriminator 2 view .LVU80
 249 00a6 0135     		adds	r5, r5, #1
 250              	.LVL25:
 160:Drivers/lvgl/src/font/lv_font_loader.c ****                     if(NULL != cmaps[i].glyph_id_ofs_list)
 251              		.loc 1 160 34 is_stmt 1 discriminator 2 view .LVU81
 160:Drivers/lvgl/src/font/lv_font_loader.c ****                     if(NULL != cmaps[i].glyph_id_ofs_list)
 252              		.loc 1 160 39 is_stmt 0 discriminator 2 view .LVU82
 253 00a8 C3F30803 		ubfx	r3, r3, #0, #9
 160:Drivers/lvgl/src/font/lv_font_loader.c ****                     if(NULL != cmaps[i].glyph_id_ofs_list)
 254              		.loc 1 160 34 discriminator 2 view .LVU83
 255 00ac AB42     		cmp	r3, r5
 256 00ae 04F11404 		add	r4, r4, #20
 257 00b2 D4DC     		bgt	.L16
 258 00b4 E3E7     		b	.L12
ARM GAS  /var/folders/0z/tsy30v1j4xl4_7kw94k978ww0000gn/T//ccOlCxDD.s 			page 9


 259              	.LVL26:
 260              	.L1:
 261              		.cfi_def_cfa_offset 0
 262              		.cfi_restore 4
 263              		.cfi_restore 5
 264              		.cfi_restore 6
 265              		.cfi_restore 7
 266              		.cfi_restore 8
 267              		.cfi_restore 14
 160:Drivers/lvgl/src/font/lv_font_loader.c ****                     if(NULL != cmaps[i].glyph_id_ofs_list)
 268              		.loc 1 160 34 discriminator 2 view .LVU84
 269 00b6 7047     		bx	lr
 270              	.LBE21:
 271              	.LBE22:
 272              	.LBE24:
 273              		.cfi_endproc
 274              	.LFE205:
 276              		.section	.text.load_kern,"ax",%progbits
 277              		.align	1
 278              		.p2align 2,,3
 279              		.global	load_kern
 280              		.syntax unified
 281              		.thumb
 282              		.thumb_func
 284              	load_kern:
 285              	.LVL27:
 286              	.LFB214:
 180:Drivers/lvgl/src/font/lv_font_loader.c **** 
 181:Drivers/lvgl/src/font/lv_font_loader.c **** /**********************
 182:Drivers/lvgl/src/font/lv_font_loader.c ****  *   STATIC FUNCTIONS
 183:Drivers/lvgl/src/font/lv_font_loader.c ****  **********************/
 184:Drivers/lvgl/src/font/lv_font_loader.c **** 
 185:Drivers/lvgl/src/font/lv_font_loader.c **** static bit_iterator_t init_bit_iterator(lv_fs_file_t * fp)
 186:Drivers/lvgl/src/font/lv_font_loader.c **** {
 187:Drivers/lvgl/src/font/lv_font_loader.c ****     bit_iterator_t it;
 188:Drivers/lvgl/src/font/lv_font_loader.c ****     it.fp = fp;
 189:Drivers/lvgl/src/font/lv_font_loader.c ****     it.bit_pos = -1;
 190:Drivers/lvgl/src/font/lv_font_loader.c ****     it.byte_value = 0;
 191:Drivers/lvgl/src/font/lv_font_loader.c ****     return it;
 192:Drivers/lvgl/src/font/lv_font_loader.c **** }
 193:Drivers/lvgl/src/font/lv_font_loader.c **** 
 194:Drivers/lvgl/src/font/lv_font_loader.c **** static unsigned int read_bits(bit_iterator_t * it, int n_bits, lv_fs_res_t * res)
 195:Drivers/lvgl/src/font/lv_font_loader.c **** {
 196:Drivers/lvgl/src/font/lv_font_loader.c ****     unsigned int value = 0;
 197:Drivers/lvgl/src/font/lv_font_loader.c ****     while(n_bits--) {
 198:Drivers/lvgl/src/font/lv_font_loader.c ****         it->byte_value = it->byte_value << 1;
 199:Drivers/lvgl/src/font/lv_font_loader.c ****         it->bit_pos--;
 200:Drivers/lvgl/src/font/lv_font_loader.c **** 
 201:Drivers/lvgl/src/font/lv_font_loader.c ****         if(it->bit_pos < 0) {
 202:Drivers/lvgl/src/font/lv_font_loader.c ****             it->bit_pos = 7;
 203:Drivers/lvgl/src/font/lv_font_loader.c ****             *res = lv_fs_read(it->fp, &(it->byte_value), 1, NULL);
 204:Drivers/lvgl/src/font/lv_font_loader.c ****             if(*res != LV_FS_RES_OK) {
 205:Drivers/lvgl/src/font/lv_font_loader.c ****                 return 0;
 206:Drivers/lvgl/src/font/lv_font_loader.c ****             }
 207:Drivers/lvgl/src/font/lv_font_loader.c ****         }
 208:Drivers/lvgl/src/font/lv_font_loader.c ****         int8_t bit = (it->byte_value & 0x80) ? 1 : 0;
 209:Drivers/lvgl/src/font/lv_font_loader.c **** 
ARM GAS  /var/folders/0z/tsy30v1j4xl4_7kw94k978ww0000gn/T//ccOlCxDD.s 			page 10


 210:Drivers/lvgl/src/font/lv_font_loader.c ****         value |= (bit << n_bits);
 211:Drivers/lvgl/src/font/lv_font_loader.c ****     }
 212:Drivers/lvgl/src/font/lv_font_loader.c ****     *res = LV_FS_RES_OK;
 213:Drivers/lvgl/src/font/lv_font_loader.c ****     return value;
 214:Drivers/lvgl/src/font/lv_font_loader.c **** }
 215:Drivers/lvgl/src/font/lv_font_loader.c **** 
 216:Drivers/lvgl/src/font/lv_font_loader.c **** static int read_bits_signed(bit_iterator_t * it, int n_bits, lv_fs_res_t * res)
 217:Drivers/lvgl/src/font/lv_font_loader.c **** {
 218:Drivers/lvgl/src/font/lv_font_loader.c ****     unsigned int value = read_bits(it, n_bits, res);
 219:Drivers/lvgl/src/font/lv_font_loader.c ****     if(value & (1 << (n_bits - 1))) {
 220:Drivers/lvgl/src/font/lv_font_loader.c ****         value |= ~0u << n_bits;
 221:Drivers/lvgl/src/font/lv_font_loader.c ****     }
 222:Drivers/lvgl/src/font/lv_font_loader.c ****     return value;
 223:Drivers/lvgl/src/font/lv_font_loader.c **** }
 224:Drivers/lvgl/src/font/lv_font_loader.c **** 
 225:Drivers/lvgl/src/font/lv_font_loader.c **** static int read_label(lv_fs_file_t * fp, int start, const char * label)
 226:Drivers/lvgl/src/font/lv_font_loader.c **** {
 227:Drivers/lvgl/src/font/lv_font_loader.c ****     lv_fs_seek(fp, start, LV_FS_SEEK_SET);
 228:Drivers/lvgl/src/font/lv_font_loader.c **** 
 229:Drivers/lvgl/src/font/lv_font_loader.c ****     uint32_t length;
 230:Drivers/lvgl/src/font/lv_font_loader.c ****     char buf[4];
 231:Drivers/lvgl/src/font/lv_font_loader.c **** 
 232:Drivers/lvgl/src/font/lv_font_loader.c ****     if(lv_fs_read(fp, &length, 4, NULL) != LV_FS_RES_OK
 233:Drivers/lvgl/src/font/lv_font_loader.c ****        || lv_fs_read(fp, buf, 4, NULL) != LV_FS_RES_OK
 234:Drivers/lvgl/src/font/lv_font_loader.c ****        || memcmp(label, buf, 4) != 0) {
 235:Drivers/lvgl/src/font/lv_font_loader.c ****         LV_LOG_WARN("Error reading '%s' label.", label);
 236:Drivers/lvgl/src/font/lv_font_loader.c ****         return -1;
 237:Drivers/lvgl/src/font/lv_font_loader.c ****     }
 238:Drivers/lvgl/src/font/lv_font_loader.c **** 
 239:Drivers/lvgl/src/font/lv_font_loader.c ****     return length;
 240:Drivers/lvgl/src/font/lv_font_loader.c **** }
 241:Drivers/lvgl/src/font/lv_font_loader.c **** 
 242:Drivers/lvgl/src/font/lv_font_loader.c **** static bool load_cmaps_tables(lv_fs_file_t * fp, lv_font_fmt_txt_dsc_t * font_dsc,
 243:Drivers/lvgl/src/font/lv_font_loader.c ****                               uint32_t cmaps_start, cmap_table_bin_t * cmap_table)
 244:Drivers/lvgl/src/font/lv_font_loader.c **** {
 245:Drivers/lvgl/src/font/lv_font_loader.c ****     if(lv_fs_read(fp, cmap_table, font_dsc->cmap_num * sizeof(cmap_table_bin_t), NULL) != LV_FS_RES
 246:Drivers/lvgl/src/font/lv_font_loader.c ****         return false;
 247:Drivers/lvgl/src/font/lv_font_loader.c ****     }
 248:Drivers/lvgl/src/font/lv_font_loader.c **** 
 249:Drivers/lvgl/src/font/lv_font_loader.c ****     for(unsigned int i = 0; i < font_dsc->cmap_num; ++i) {
 250:Drivers/lvgl/src/font/lv_font_loader.c ****         lv_fs_res_t res = lv_fs_seek(fp, cmaps_start + cmap_table[i].data_offset, LV_FS_SEEK_SET);
 251:Drivers/lvgl/src/font/lv_font_loader.c ****         if(res != LV_FS_RES_OK) {
 252:Drivers/lvgl/src/font/lv_font_loader.c ****             return false;
 253:Drivers/lvgl/src/font/lv_font_loader.c ****         }
 254:Drivers/lvgl/src/font/lv_font_loader.c **** 
 255:Drivers/lvgl/src/font/lv_font_loader.c ****         lv_font_fmt_txt_cmap_t * cmap = (lv_font_fmt_txt_cmap_t *) & (font_dsc->cmaps[i]);
 256:Drivers/lvgl/src/font/lv_font_loader.c **** 
 257:Drivers/lvgl/src/font/lv_font_loader.c ****         cmap->range_start = cmap_table[i].range_start;
 258:Drivers/lvgl/src/font/lv_font_loader.c ****         cmap->range_length = cmap_table[i].range_length;
 259:Drivers/lvgl/src/font/lv_font_loader.c ****         cmap->glyph_id_start = cmap_table[i].glyph_id_start;
 260:Drivers/lvgl/src/font/lv_font_loader.c ****         cmap->type = cmap_table[i].format_type;
 261:Drivers/lvgl/src/font/lv_font_loader.c **** 
 262:Drivers/lvgl/src/font/lv_font_loader.c ****         switch(cmap_table[i].format_type) {
 263:Drivers/lvgl/src/font/lv_font_loader.c ****             case LV_FONT_FMT_TXT_CMAP_FORMAT0_FULL: {
 264:Drivers/lvgl/src/font/lv_font_loader.c ****                     uint8_t ids_size = sizeof(uint8_t) * cmap_table[i].data_entries_count;
 265:Drivers/lvgl/src/font/lv_font_loader.c ****                     uint8_t * glyph_id_ofs_list = lv_mem_alloc(ids_size);
 266:Drivers/lvgl/src/font/lv_font_loader.c **** 
ARM GAS  /var/folders/0z/tsy30v1j4xl4_7kw94k978ww0000gn/T//ccOlCxDD.s 			page 11


 267:Drivers/lvgl/src/font/lv_font_loader.c ****                     cmap->glyph_id_ofs_list = glyph_id_ofs_list;
 268:Drivers/lvgl/src/font/lv_font_loader.c **** 
 269:Drivers/lvgl/src/font/lv_font_loader.c ****                     if(lv_fs_read(fp, glyph_id_ofs_list, ids_size, NULL) != LV_FS_RES_OK) {
 270:Drivers/lvgl/src/font/lv_font_loader.c ****                         return false;
 271:Drivers/lvgl/src/font/lv_font_loader.c ****                     }
 272:Drivers/lvgl/src/font/lv_font_loader.c **** 
 273:Drivers/lvgl/src/font/lv_font_loader.c ****                     cmap->list_length = cmap->range_length;
 274:Drivers/lvgl/src/font/lv_font_loader.c ****                     break;
 275:Drivers/lvgl/src/font/lv_font_loader.c ****                 }
 276:Drivers/lvgl/src/font/lv_font_loader.c ****             case LV_FONT_FMT_TXT_CMAP_FORMAT0_TINY:
 277:Drivers/lvgl/src/font/lv_font_loader.c ****                 break;
 278:Drivers/lvgl/src/font/lv_font_loader.c ****             case LV_FONT_FMT_TXT_CMAP_SPARSE_FULL:
 279:Drivers/lvgl/src/font/lv_font_loader.c ****             case LV_FONT_FMT_TXT_CMAP_SPARSE_TINY: {
 280:Drivers/lvgl/src/font/lv_font_loader.c ****                     uint32_t list_size = sizeof(uint16_t) * cmap_table[i].data_entries_count;
 281:Drivers/lvgl/src/font/lv_font_loader.c ****                     uint16_t * unicode_list = (uint16_t *)lv_mem_alloc(list_size);
 282:Drivers/lvgl/src/font/lv_font_loader.c **** 
 283:Drivers/lvgl/src/font/lv_font_loader.c ****                     cmap->unicode_list = unicode_list;
 284:Drivers/lvgl/src/font/lv_font_loader.c ****                     cmap->list_length = cmap_table[i].data_entries_count;
 285:Drivers/lvgl/src/font/lv_font_loader.c **** 
 286:Drivers/lvgl/src/font/lv_font_loader.c ****                     if(lv_fs_read(fp, unicode_list, list_size, NULL) != LV_FS_RES_OK) {
 287:Drivers/lvgl/src/font/lv_font_loader.c ****                         return false;
 288:Drivers/lvgl/src/font/lv_font_loader.c ****                     }
 289:Drivers/lvgl/src/font/lv_font_loader.c **** 
 290:Drivers/lvgl/src/font/lv_font_loader.c ****                     if(cmap_table[i].format_type == LV_FONT_FMT_TXT_CMAP_SPARSE_FULL) {
 291:Drivers/lvgl/src/font/lv_font_loader.c ****                         uint16_t * buf = lv_mem_alloc(sizeof(uint16_t) * cmap->list_length);
 292:Drivers/lvgl/src/font/lv_font_loader.c **** 
 293:Drivers/lvgl/src/font/lv_font_loader.c ****                         cmap->glyph_id_ofs_list = buf;
 294:Drivers/lvgl/src/font/lv_font_loader.c **** 
 295:Drivers/lvgl/src/font/lv_font_loader.c ****                         if(lv_fs_read(fp, buf, sizeof(uint16_t) * cmap->list_length, NULL) != LV_FS
 296:Drivers/lvgl/src/font/lv_font_loader.c ****                             return false;
 297:Drivers/lvgl/src/font/lv_font_loader.c ****                         }
 298:Drivers/lvgl/src/font/lv_font_loader.c ****                     }
 299:Drivers/lvgl/src/font/lv_font_loader.c ****                     break;
 300:Drivers/lvgl/src/font/lv_font_loader.c ****                 }
 301:Drivers/lvgl/src/font/lv_font_loader.c ****             default:
 302:Drivers/lvgl/src/font/lv_font_loader.c ****                 LV_LOG_WARN("Unknown cmaps format type %d.", cmap_table[i].format_type);
 303:Drivers/lvgl/src/font/lv_font_loader.c ****                 return false;
 304:Drivers/lvgl/src/font/lv_font_loader.c ****         }
 305:Drivers/lvgl/src/font/lv_font_loader.c ****     }
 306:Drivers/lvgl/src/font/lv_font_loader.c ****     return true;
 307:Drivers/lvgl/src/font/lv_font_loader.c **** }
 308:Drivers/lvgl/src/font/lv_font_loader.c **** 
 309:Drivers/lvgl/src/font/lv_font_loader.c **** static int32_t load_cmaps(lv_fs_file_t * fp, lv_font_fmt_txt_dsc_t * font_dsc, uint32_t cmaps_start
 310:Drivers/lvgl/src/font/lv_font_loader.c **** {
 311:Drivers/lvgl/src/font/lv_font_loader.c ****     int32_t cmaps_length = read_label(fp, cmaps_start, "cmap");
 312:Drivers/lvgl/src/font/lv_font_loader.c ****     if(cmaps_length < 0) {
 313:Drivers/lvgl/src/font/lv_font_loader.c ****         return -1;
 314:Drivers/lvgl/src/font/lv_font_loader.c ****     }
 315:Drivers/lvgl/src/font/lv_font_loader.c **** 
 316:Drivers/lvgl/src/font/lv_font_loader.c ****     uint32_t cmaps_subtables_count;
 317:Drivers/lvgl/src/font/lv_font_loader.c ****     if(lv_fs_read(fp, &cmaps_subtables_count, sizeof(uint32_t), NULL) != LV_FS_RES_OK) {
 318:Drivers/lvgl/src/font/lv_font_loader.c ****         return -1;
 319:Drivers/lvgl/src/font/lv_font_loader.c ****     }
 320:Drivers/lvgl/src/font/lv_font_loader.c **** 
 321:Drivers/lvgl/src/font/lv_font_loader.c ****     lv_font_fmt_txt_cmap_t * cmaps =
 322:Drivers/lvgl/src/font/lv_font_loader.c ****         lv_mem_alloc(cmaps_subtables_count * sizeof(lv_font_fmt_txt_cmap_t));
 323:Drivers/lvgl/src/font/lv_font_loader.c **** 
ARM GAS  /var/folders/0z/tsy30v1j4xl4_7kw94k978ww0000gn/T//ccOlCxDD.s 			page 12


 324:Drivers/lvgl/src/font/lv_font_loader.c ****     memset(cmaps, 0, cmaps_subtables_count * sizeof(lv_font_fmt_txt_cmap_t));
 325:Drivers/lvgl/src/font/lv_font_loader.c **** 
 326:Drivers/lvgl/src/font/lv_font_loader.c ****     font_dsc->cmaps = cmaps;
 327:Drivers/lvgl/src/font/lv_font_loader.c ****     font_dsc->cmap_num = cmaps_subtables_count;
 328:Drivers/lvgl/src/font/lv_font_loader.c **** 
 329:Drivers/lvgl/src/font/lv_font_loader.c ****     cmap_table_bin_t * cmaps_tables = lv_mem_alloc(sizeof(cmap_table_bin_t) * font_dsc->cmap_num);
 330:Drivers/lvgl/src/font/lv_font_loader.c **** 
 331:Drivers/lvgl/src/font/lv_font_loader.c ****     bool success = load_cmaps_tables(fp, font_dsc, cmaps_start, cmaps_tables);
 332:Drivers/lvgl/src/font/lv_font_loader.c **** 
 333:Drivers/lvgl/src/font/lv_font_loader.c ****     lv_mem_free(cmaps_tables);
 334:Drivers/lvgl/src/font/lv_font_loader.c **** 
 335:Drivers/lvgl/src/font/lv_font_loader.c ****     return success ? cmaps_length : -1;
 336:Drivers/lvgl/src/font/lv_font_loader.c **** }
 337:Drivers/lvgl/src/font/lv_font_loader.c **** 
 338:Drivers/lvgl/src/font/lv_font_loader.c **** static int32_t load_glyph(lv_fs_file_t * fp, lv_font_fmt_txt_dsc_t * font_dsc,
 339:Drivers/lvgl/src/font/lv_font_loader.c ****                           uint32_t start, uint32_t * glyph_offset, uint32_t loca_count, font_header
 340:Drivers/lvgl/src/font/lv_font_loader.c **** {
 341:Drivers/lvgl/src/font/lv_font_loader.c ****     int32_t glyph_length = read_label(fp, start, "glyf");
 342:Drivers/lvgl/src/font/lv_font_loader.c ****     if(glyph_length < 0) {
 343:Drivers/lvgl/src/font/lv_font_loader.c ****         return -1;
 344:Drivers/lvgl/src/font/lv_font_loader.c ****     }
 345:Drivers/lvgl/src/font/lv_font_loader.c **** 
 346:Drivers/lvgl/src/font/lv_font_loader.c ****     lv_font_fmt_txt_glyph_dsc_t * glyph_dsc = (lv_font_fmt_txt_glyph_dsc_t *)
 347:Drivers/lvgl/src/font/lv_font_loader.c ****                                               lv_mem_alloc(loca_count * sizeof(lv_font_fmt_txt_glyp
 348:Drivers/lvgl/src/font/lv_font_loader.c **** 
 349:Drivers/lvgl/src/font/lv_font_loader.c ****     memset(glyph_dsc, 0, loca_count * sizeof(lv_font_fmt_txt_glyph_dsc_t));
 350:Drivers/lvgl/src/font/lv_font_loader.c **** 
 351:Drivers/lvgl/src/font/lv_font_loader.c ****     font_dsc->glyph_dsc = glyph_dsc;
 352:Drivers/lvgl/src/font/lv_font_loader.c **** 
 353:Drivers/lvgl/src/font/lv_font_loader.c ****     int cur_bmp_size = 0;
 354:Drivers/lvgl/src/font/lv_font_loader.c **** 
 355:Drivers/lvgl/src/font/lv_font_loader.c ****     for(unsigned int i = 0; i < loca_count; ++i) {
 356:Drivers/lvgl/src/font/lv_font_loader.c ****         lv_font_fmt_txt_glyph_dsc_t * gdsc = &glyph_dsc[i];
 357:Drivers/lvgl/src/font/lv_font_loader.c **** 
 358:Drivers/lvgl/src/font/lv_font_loader.c ****         lv_fs_res_t res = lv_fs_seek(fp, start + glyph_offset[i], LV_FS_SEEK_SET);
 359:Drivers/lvgl/src/font/lv_font_loader.c ****         if(res != LV_FS_RES_OK) {
 360:Drivers/lvgl/src/font/lv_font_loader.c ****             return -1;
 361:Drivers/lvgl/src/font/lv_font_loader.c ****         }
 362:Drivers/lvgl/src/font/lv_font_loader.c **** 
 363:Drivers/lvgl/src/font/lv_font_loader.c ****         bit_iterator_t bit_it = init_bit_iterator(fp);
 364:Drivers/lvgl/src/font/lv_font_loader.c **** 
 365:Drivers/lvgl/src/font/lv_font_loader.c ****         if(header->advance_width_bits == 0) {
 366:Drivers/lvgl/src/font/lv_font_loader.c ****             gdsc->adv_w = header->default_advance_width;
 367:Drivers/lvgl/src/font/lv_font_loader.c ****         }
 368:Drivers/lvgl/src/font/lv_font_loader.c ****         else {
 369:Drivers/lvgl/src/font/lv_font_loader.c ****             gdsc->adv_w = read_bits(&bit_it, header->advance_width_bits, &res);
 370:Drivers/lvgl/src/font/lv_font_loader.c ****             if(res != LV_FS_RES_OK) {
 371:Drivers/lvgl/src/font/lv_font_loader.c ****                 return -1;
 372:Drivers/lvgl/src/font/lv_font_loader.c ****             }
 373:Drivers/lvgl/src/font/lv_font_loader.c ****         }
 374:Drivers/lvgl/src/font/lv_font_loader.c **** 
 375:Drivers/lvgl/src/font/lv_font_loader.c ****         if(header->advance_width_format == 0) {
 376:Drivers/lvgl/src/font/lv_font_loader.c ****             gdsc->adv_w *= 16;
 377:Drivers/lvgl/src/font/lv_font_loader.c ****         }
 378:Drivers/lvgl/src/font/lv_font_loader.c **** 
 379:Drivers/lvgl/src/font/lv_font_loader.c ****         gdsc->ofs_x = read_bits_signed(&bit_it, header->xy_bits, &res);
 380:Drivers/lvgl/src/font/lv_font_loader.c ****         if(res != LV_FS_RES_OK) {
ARM GAS  /var/folders/0z/tsy30v1j4xl4_7kw94k978ww0000gn/T//ccOlCxDD.s 			page 13


 381:Drivers/lvgl/src/font/lv_font_loader.c ****             return -1;
 382:Drivers/lvgl/src/font/lv_font_loader.c ****         }
 383:Drivers/lvgl/src/font/lv_font_loader.c **** 
 384:Drivers/lvgl/src/font/lv_font_loader.c ****         gdsc->ofs_y = read_bits_signed(&bit_it, header->xy_bits, &res);
 385:Drivers/lvgl/src/font/lv_font_loader.c ****         if(res != LV_FS_RES_OK) {
 386:Drivers/lvgl/src/font/lv_font_loader.c ****             return -1;
 387:Drivers/lvgl/src/font/lv_font_loader.c ****         }
 388:Drivers/lvgl/src/font/lv_font_loader.c **** 
 389:Drivers/lvgl/src/font/lv_font_loader.c ****         gdsc->box_w = read_bits(&bit_it, header->wh_bits, &res);
 390:Drivers/lvgl/src/font/lv_font_loader.c ****         if(res != LV_FS_RES_OK) {
 391:Drivers/lvgl/src/font/lv_font_loader.c ****             return -1;
 392:Drivers/lvgl/src/font/lv_font_loader.c ****         }
 393:Drivers/lvgl/src/font/lv_font_loader.c **** 
 394:Drivers/lvgl/src/font/lv_font_loader.c ****         gdsc->box_h = read_bits(&bit_it, header->wh_bits, &res);
 395:Drivers/lvgl/src/font/lv_font_loader.c ****         if(res != LV_FS_RES_OK) {
 396:Drivers/lvgl/src/font/lv_font_loader.c ****             return -1;
 397:Drivers/lvgl/src/font/lv_font_loader.c ****         }
 398:Drivers/lvgl/src/font/lv_font_loader.c **** 
 399:Drivers/lvgl/src/font/lv_font_loader.c ****         int nbits = header->advance_width_bits + 2 * header->xy_bits + 2 * header->wh_bits;
 400:Drivers/lvgl/src/font/lv_font_loader.c ****         int next_offset = (i < loca_count - 1) ? glyph_offset[i + 1] : (uint32_t)glyph_length;
 401:Drivers/lvgl/src/font/lv_font_loader.c ****         int bmp_size = next_offset - glyph_offset[i] - nbits / 8;
 402:Drivers/lvgl/src/font/lv_font_loader.c **** 
 403:Drivers/lvgl/src/font/lv_font_loader.c ****         if(i == 0) {
 404:Drivers/lvgl/src/font/lv_font_loader.c ****             gdsc->adv_w = 0;
 405:Drivers/lvgl/src/font/lv_font_loader.c ****             gdsc->box_w = 0;
 406:Drivers/lvgl/src/font/lv_font_loader.c ****             gdsc->box_h = 0;
 407:Drivers/lvgl/src/font/lv_font_loader.c ****             gdsc->ofs_x = 0;
 408:Drivers/lvgl/src/font/lv_font_loader.c ****             gdsc->ofs_y = 0;
 409:Drivers/lvgl/src/font/lv_font_loader.c ****         }
 410:Drivers/lvgl/src/font/lv_font_loader.c **** 
 411:Drivers/lvgl/src/font/lv_font_loader.c ****         gdsc->bitmap_index = cur_bmp_size;
 412:Drivers/lvgl/src/font/lv_font_loader.c ****         if(gdsc->box_w * gdsc->box_h != 0) {
 413:Drivers/lvgl/src/font/lv_font_loader.c ****             cur_bmp_size += bmp_size;
 414:Drivers/lvgl/src/font/lv_font_loader.c ****         }
 415:Drivers/lvgl/src/font/lv_font_loader.c ****     }
 416:Drivers/lvgl/src/font/lv_font_loader.c **** 
 417:Drivers/lvgl/src/font/lv_font_loader.c ****     uint8_t * glyph_bmp = (uint8_t *)lv_mem_alloc(sizeof(uint8_t) * cur_bmp_size);
 418:Drivers/lvgl/src/font/lv_font_loader.c **** 
 419:Drivers/lvgl/src/font/lv_font_loader.c ****     font_dsc->glyph_bitmap = glyph_bmp;
 420:Drivers/lvgl/src/font/lv_font_loader.c **** 
 421:Drivers/lvgl/src/font/lv_font_loader.c ****     cur_bmp_size = 0;
 422:Drivers/lvgl/src/font/lv_font_loader.c **** 
 423:Drivers/lvgl/src/font/lv_font_loader.c ****     for(unsigned int i = 1; i < loca_count; ++i) {
 424:Drivers/lvgl/src/font/lv_font_loader.c ****         lv_fs_res_t res = lv_fs_seek(fp, start + glyph_offset[i], LV_FS_SEEK_SET);
 425:Drivers/lvgl/src/font/lv_font_loader.c ****         if(res != LV_FS_RES_OK) {
 426:Drivers/lvgl/src/font/lv_font_loader.c ****             return -1;
 427:Drivers/lvgl/src/font/lv_font_loader.c ****         }
 428:Drivers/lvgl/src/font/lv_font_loader.c ****         bit_iterator_t bit_it = init_bit_iterator(fp);
 429:Drivers/lvgl/src/font/lv_font_loader.c **** 
 430:Drivers/lvgl/src/font/lv_font_loader.c ****         int nbits = header->advance_width_bits + 2 * header->xy_bits + 2 * header->wh_bits;
 431:Drivers/lvgl/src/font/lv_font_loader.c **** 
 432:Drivers/lvgl/src/font/lv_font_loader.c ****         read_bits(&bit_it, nbits, &res);
 433:Drivers/lvgl/src/font/lv_font_loader.c ****         if(res != LV_FS_RES_OK) {
 434:Drivers/lvgl/src/font/lv_font_loader.c ****             return -1;
 435:Drivers/lvgl/src/font/lv_font_loader.c ****         }
 436:Drivers/lvgl/src/font/lv_font_loader.c **** 
 437:Drivers/lvgl/src/font/lv_font_loader.c ****         if(glyph_dsc[i].box_w * glyph_dsc[i].box_h == 0) {
ARM GAS  /var/folders/0z/tsy30v1j4xl4_7kw94k978ww0000gn/T//ccOlCxDD.s 			page 14


 438:Drivers/lvgl/src/font/lv_font_loader.c ****             continue;
 439:Drivers/lvgl/src/font/lv_font_loader.c ****         }
 440:Drivers/lvgl/src/font/lv_font_loader.c **** 
 441:Drivers/lvgl/src/font/lv_font_loader.c ****         int next_offset = (i < loca_count - 1) ? glyph_offset[i + 1] : (uint32_t)glyph_length;
 442:Drivers/lvgl/src/font/lv_font_loader.c ****         int bmp_size = next_offset - glyph_offset[i] - nbits / 8;
 443:Drivers/lvgl/src/font/lv_font_loader.c **** 
 444:Drivers/lvgl/src/font/lv_font_loader.c ****         if(nbits % 8 == 0) {  /*Fast path*/
 445:Drivers/lvgl/src/font/lv_font_loader.c ****             if(lv_fs_read(fp, &glyph_bmp[cur_bmp_size], bmp_size, NULL) != LV_FS_RES_OK) {
 446:Drivers/lvgl/src/font/lv_font_loader.c ****                 return -1;
 447:Drivers/lvgl/src/font/lv_font_loader.c ****             }
 448:Drivers/lvgl/src/font/lv_font_loader.c ****         }
 449:Drivers/lvgl/src/font/lv_font_loader.c ****         else {
 450:Drivers/lvgl/src/font/lv_font_loader.c ****             for(int k = 0; k < bmp_size - 1; ++k) {
 451:Drivers/lvgl/src/font/lv_font_loader.c ****                 glyph_bmp[cur_bmp_size + k] = read_bits(&bit_it, 8, &res);
 452:Drivers/lvgl/src/font/lv_font_loader.c ****                 if(res != LV_FS_RES_OK) {
 453:Drivers/lvgl/src/font/lv_font_loader.c ****                     return -1;
 454:Drivers/lvgl/src/font/lv_font_loader.c ****                 }
 455:Drivers/lvgl/src/font/lv_font_loader.c ****             }
 456:Drivers/lvgl/src/font/lv_font_loader.c ****             glyph_bmp[cur_bmp_size + bmp_size - 1] = read_bits(&bit_it, 8 - nbits % 8, &res);
 457:Drivers/lvgl/src/font/lv_font_loader.c ****             if(res != LV_FS_RES_OK) {
 458:Drivers/lvgl/src/font/lv_font_loader.c ****                 return -1;
 459:Drivers/lvgl/src/font/lv_font_loader.c ****             }
 460:Drivers/lvgl/src/font/lv_font_loader.c **** 
 461:Drivers/lvgl/src/font/lv_font_loader.c ****             /*The last fragment should be on the MSB but read_bits() will place it to the LSB*/
 462:Drivers/lvgl/src/font/lv_font_loader.c ****             glyph_bmp[cur_bmp_size + bmp_size - 1] = glyph_bmp[cur_bmp_size + bmp_size - 1] << (nbi
 463:Drivers/lvgl/src/font/lv_font_loader.c **** 
 464:Drivers/lvgl/src/font/lv_font_loader.c ****         }
 465:Drivers/lvgl/src/font/lv_font_loader.c **** 
 466:Drivers/lvgl/src/font/lv_font_loader.c ****         cur_bmp_size += bmp_size;
 467:Drivers/lvgl/src/font/lv_font_loader.c ****     }
 468:Drivers/lvgl/src/font/lv_font_loader.c ****     return glyph_length;
 469:Drivers/lvgl/src/font/lv_font_loader.c **** }
 470:Drivers/lvgl/src/font/lv_font_loader.c **** 
 471:Drivers/lvgl/src/font/lv_font_loader.c **** /*
 472:Drivers/lvgl/src/font/lv_font_loader.c ****  * Loads a `lv_font_t` from a binary file, given a `lv_fs_file_t`.
 473:Drivers/lvgl/src/font/lv_font_loader.c ****  *
 474:Drivers/lvgl/src/font/lv_font_loader.c ****  * Memory allocations on `lvgl_load_font` should be immediately zeroed and
 475:Drivers/lvgl/src/font/lv_font_loader.c ****  * the pointer should be set on the `lv_font_t` data before any possible return.
 476:Drivers/lvgl/src/font/lv_font_loader.c ****  *
 477:Drivers/lvgl/src/font/lv_font_loader.c ****  * When something fails, it returns `false` and the memory on the `lv_font_t`
 478:Drivers/lvgl/src/font/lv_font_loader.c ****  * still needs to be freed using `lv_font_free`.
 479:Drivers/lvgl/src/font/lv_font_loader.c ****  *
 480:Drivers/lvgl/src/font/lv_font_loader.c ****  * `lv_font_free` will assume that all non-null pointers are allocated and
 481:Drivers/lvgl/src/font/lv_font_loader.c ****  * should be freed.
 482:Drivers/lvgl/src/font/lv_font_loader.c ****  */
 483:Drivers/lvgl/src/font/lv_font_loader.c **** static bool lvgl_load_font(lv_fs_file_t * fp, lv_font_t * font)
 484:Drivers/lvgl/src/font/lv_font_loader.c **** {
 485:Drivers/lvgl/src/font/lv_font_loader.c ****     lv_font_fmt_txt_dsc_t * font_dsc = (lv_font_fmt_txt_dsc_t *)
 486:Drivers/lvgl/src/font/lv_font_loader.c ****                                        lv_mem_alloc(sizeof(lv_font_fmt_txt_dsc_t));
 487:Drivers/lvgl/src/font/lv_font_loader.c **** 
 488:Drivers/lvgl/src/font/lv_font_loader.c ****     memset(font_dsc, 0, sizeof(lv_font_fmt_txt_dsc_t));
 489:Drivers/lvgl/src/font/lv_font_loader.c **** 
 490:Drivers/lvgl/src/font/lv_font_loader.c ****     font->dsc = font_dsc;
 491:Drivers/lvgl/src/font/lv_font_loader.c **** 
 492:Drivers/lvgl/src/font/lv_font_loader.c ****     /*header*/
 493:Drivers/lvgl/src/font/lv_font_loader.c ****     int32_t header_length = read_label(fp, 0, "head");
 494:Drivers/lvgl/src/font/lv_font_loader.c ****     if(header_length < 0) {
ARM GAS  /var/folders/0z/tsy30v1j4xl4_7kw94k978ww0000gn/T//ccOlCxDD.s 			page 15


 495:Drivers/lvgl/src/font/lv_font_loader.c ****         return false;
 496:Drivers/lvgl/src/font/lv_font_loader.c ****     }
 497:Drivers/lvgl/src/font/lv_font_loader.c **** 
 498:Drivers/lvgl/src/font/lv_font_loader.c ****     font_header_bin_t font_header;
 499:Drivers/lvgl/src/font/lv_font_loader.c ****     if(lv_fs_read(fp, &font_header, sizeof(font_header_bin_t), NULL) != LV_FS_RES_OK) {
 500:Drivers/lvgl/src/font/lv_font_loader.c ****         return false;
 501:Drivers/lvgl/src/font/lv_font_loader.c ****     }
 502:Drivers/lvgl/src/font/lv_font_loader.c **** 
 503:Drivers/lvgl/src/font/lv_font_loader.c ****     font->base_line = -font_header.descent;
 504:Drivers/lvgl/src/font/lv_font_loader.c ****     font->line_height = font_header.ascent - font_header.descent;
 505:Drivers/lvgl/src/font/lv_font_loader.c ****     font->get_glyph_dsc = lv_font_get_glyph_dsc_fmt_txt;
 506:Drivers/lvgl/src/font/lv_font_loader.c ****     font->get_glyph_bitmap = lv_font_get_bitmap_fmt_txt;
 507:Drivers/lvgl/src/font/lv_font_loader.c ****     font->subpx = font_header.subpixels_mode;
 508:Drivers/lvgl/src/font/lv_font_loader.c ****     font->underline_position = font_header.underline_position;
 509:Drivers/lvgl/src/font/lv_font_loader.c ****     font->underline_thickness = font_header.underline_thickness;
 510:Drivers/lvgl/src/font/lv_font_loader.c **** 
 511:Drivers/lvgl/src/font/lv_font_loader.c ****     font_dsc->bpp = font_header.bits_per_pixel;
 512:Drivers/lvgl/src/font/lv_font_loader.c ****     font_dsc->kern_scale = font_header.kerning_scale;
 513:Drivers/lvgl/src/font/lv_font_loader.c ****     font_dsc->bitmap_format = font_header.compression_id;
 514:Drivers/lvgl/src/font/lv_font_loader.c **** 
 515:Drivers/lvgl/src/font/lv_font_loader.c ****     /*cmaps*/
 516:Drivers/lvgl/src/font/lv_font_loader.c ****     uint32_t cmaps_start = header_length;
 517:Drivers/lvgl/src/font/lv_font_loader.c ****     int32_t cmaps_length = load_cmaps(fp, font_dsc, cmaps_start);
 518:Drivers/lvgl/src/font/lv_font_loader.c ****     if(cmaps_length < 0) {
 519:Drivers/lvgl/src/font/lv_font_loader.c ****         return false;
 520:Drivers/lvgl/src/font/lv_font_loader.c ****     }
 521:Drivers/lvgl/src/font/lv_font_loader.c **** 
 522:Drivers/lvgl/src/font/lv_font_loader.c ****     /*loca*/
 523:Drivers/lvgl/src/font/lv_font_loader.c ****     uint32_t loca_start = cmaps_start + cmaps_length;
 524:Drivers/lvgl/src/font/lv_font_loader.c ****     int32_t loca_length = read_label(fp, loca_start, "loca");
 525:Drivers/lvgl/src/font/lv_font_loader.c ****     if(loca_length < 0) {
 526:Drivers/lvgl/src/font/lv_font_loader.c ****         return false;
 527:Drivers/lvgl/src/font/lv_font_loader.c ****     }
 528:Drivers/lvgl/src/font/lv_font_loader.c **** 
 529:Drivers/lvgl/src/font/lv_font_loader.c ****     uint32_t loca_count;
 530:Drivers/lvgl/src/font/lv_font_loader.c ****     if(lv_fs_read(fp, &loca_count, sizeof(uint32_t), NULL) != LV_FS_RES_OK) {
 531:Drivers/lvgl/src/font/lv_font_loader.c ****         return false;
 532:Drivers/lvgl/src/font/lv_font_loader.c ****     }
 533:Drivers/lvgl/src/font/lv_font_loader.c **** 
 534:Drivers/lvgl/src/font/lv_font_loader.c ****     bool failed = false;
 535:Drivers/lvgl/src/font/lv_font_loader.c ****     uint32_t * glyph_offset = lv_mem_alloc(sizeof(uint32_t) * (loca_count + 1));
 536:Drivers/lvgl/src/font/lv_font_loader.c **** 
 537:Drivers/lvgl/src/font/lv_font_loader.c ****     if(font_header.index_to_loc_format == 0) {
 538:Drivers/lvgl/src/font/lv_font_loader.c ****         for(unsigned int i = 0; i < loca_count; ++i) {
 539:Drivers/lvgl/src/font/lv_font_loader.c ****             uint16_t offset;
 540:Drivers/lvgl/src/font/lv_font_loader.c ****             if(lv_fs_read(fp, &offset, sizeof(uint16_t), NULL) != LV_FS_RES_OK) {
 541:Drivers/lvgl/src/font/lv_font_loader.c ****                 failed = true;
 542:Drivers/lvgl/src/font/lv_font_loader.c ****                 break;
 543:Drivers/lvgl/src/font/lv_font_loader.c ****             }
 544:Drivers/lvgl/src/font/lv_font_loader.c ****             glyph_offset[i] = offset;
 545:Drivers/lvgl/src/font/lv_font_loader.c ****         }
 546:Drivers/lvgl/src/font/lv_font_loader.c ****     }
 547:Drivers/lvgl/src/font/lv_font_loader.c ****     else if(font_header.index_to_loc_format == 1) {
 548:Drivers/lvgl/src/font/lv_font_loader.c ****         if(lv_fs_read(fp, glyph_offset, loca_count * sizeof(uint32_t), NULL) != LV_FS_RES_OK) {
 549:Drivers/lvgl/src/font/lv_font_loader.c ****             failed = true;
 550:Drivers/lvgl/src/font/lv_font_loader.c ****         }
 551:Drivers/lvgl/src/font/lv_font_loader.c ****     }
ARM GAS  /var/folders/0z/tsy30v1j4xl4_7kw94k978ww0000gn/T//ccOlCxDD.s 			page 16


 552:Drivers/lvgl/src/font/lv_font_loader.c ****     else {
 553:Drivers/lvgl/src/font/lv_font_loader.c ****         LV_LOG_WARN("Unknown index_to_loc_format: %d.", font_header.index_to_loc_format);
 554:Drivers/lvgl/src/font/lv_font_loader.c ****         failed = true;
 555:Drivers/lvgl/src/font/lv_font_loader.c ****     }
 556:Drivers/lvgl/src/font/lv_font_loader.c **** 
 557:Drivers/lvgl/src/font/lv_font_loader.c ****     if(failed) {
 558:Drivers/lvgl/src/font/lv_font_loader.c ****         lv_mem_free(glyph_offset);
 559:Drivers/lvgl/src/font/lv_font_loader.c ****         return false;
 560:Drivers/lvgl/src/font/lv_font_loader.c ****     }
 561:Drivers/lvgl/src/font/lv_font_loader.c **** 
 562:Drivers/lvgl/src/font/lv_font_loader.c ****     /*glyph*/
 563:Drivers/lvgl/src/font/lv_font_loader.c ****     uint32_t glyph_start = loca_start + loca_length;
 564:Drivers/lvgl/src/font/lv_font_loader.c ****     int32_t glyph_length = load_glyph(
 565:Drivers/lvgl/src/font/lv_font_loader.c ****                                fp, font_dsc, glyph_start, glyph_offset, loca_count, &font_header);
 566:Drivers/lvgl/src/font/lv_font_loader.c **** 
 567:Drivers/lvgl/src/font/lv_font_loader.c ****     lv_mem_free(glyph_offset);
 568:Drivers/lvgl/src/font/lv_font_loader.c **** 
 569:Drivers/lvgl/src/font/lv_font_loader.c ****     if(glyph_length < 0) {
 570:Drivers/lvgl/src/font/lv_font_loader.c ****         return false;
 571:Drivers/lvgl/src/font/lv_font_loader.c ****     }
 572:Drivers/lvgl/src/font/lv_font_loader.c **** 
 573:Drivers/lvgl/src/font/lv_font_loader.c ****     if(font_header.tables_count < 4) {
 574:Drivers/lvgl/src/font/lv_font_loader.c ****         font_dsc->kern_dsc = NULL;
 575:Drivers/lvgl/src/font/lv_font_loader.c ****         font_dsc->kern_classes = 0;
 576:Drivers/lvgl/src/font/lv_font_loader.c ****         font_dsc->kern_scale = 0;
 577:Drivers/lvgl/src/font/lv_font_loader.c ****         return true;
 578:Drivers/lvgl/src/font/lv_font_loader.c ****     }
 579:Drivers/lvgl/src/font/lv_font_loader.c **** 
 580:Drivers/lvgl/src/font/lv_font_loader.c ****     uint32_t kern_start = glyph_start + glyph_length;
 581:Drivers/lvgl/src/font/lv_font_loader.c **** 
 582:Drivers/lvgl/src/font/lv_font_loader.c ****     int32_t kern_length = load_kern(fp, font_dsc, font_header.glyph_id_format, kern_start);
 583:Drivers/lvgl/src/font/lv_font_loader.c **** 
 584:Drivers/lvgl/src/font/lv_font_loader.c ****     return kern_length >= 0;
 585:Drivers/lvgl/src/font/lv_font_loader.c **** }
 586:Drivers/lvgl/src/font/lv_font_loader.c **** 
 587:Drivers/lvgl/src/font/lv_font_loader.c **** int32_t load_kern(lv_fs_file_t * fp, lv_font_fmt_txt_dsc_t * font_dsc, uint8_t format, uint32_t sta
 588:Drivers/lvgl/src/font/lv_font_loader.c **** {
 287              		.loc 1 588 1 is_stmt 1 view -0
 288              		.cfi_startproc
 289              		@ args = 0, pretend = 0, frame = 24
 290              		@ frame_needed = 0, uses_anonymous_args = 0
 589:Drivers/lvgl/src/font/lv_font_loader.c ****     int32_t kern_length = read_label(fp, start, "kern");
 291              		.loc 1 589 5 view .LVU86
 588:Drivers/lvgl/src/font/lv_font_loader.c ****     int32_t kern_length = read_label(fp, start, "kern");
 292              		.loc 1 588 1 is_stmt 0 view .LVU87
 293 0000 2DE9F04F 		push	{r4, r5, r6, r7, r8, r9, r10, fp, lr}
 294              		.cfi_def_cfa_offset 36
 295              		.cfi_offset 4, -36
 296              		.cfi_offset 5, -32
 297              		.cfi_offset 6, -28
 298              		.cfi_offset 7, -24
 299              		.cfi_offset 8, -20
 300              		.cfi_offset 9, -16
 301              		.cfi_offset 10, -12
 302              		.cfi_offset 11, -8
 303              		.cfi_offset 14, -4
 304 0004 0446     		mov	r4, r0
ARM GAS  /var/folders/0z/tsy30v1j4xl4_7kw94k978ww0000gn/T//ccOlCxDD.s 			page 17


 305              	.LVL28:
 306              	.LBB29:
 307              	.LBI29:
 225:Drivers/lvgl/src/font/lv_font_loader.c **** {
 308              		.loc 1 225 12 is_stmt 1 view .LVU88
 309              	.LBB30:
 227:Drivers/lvgl/src/font/lv_font_loader.c **** 
 310              		.loc 1 227 5 view .LVU89
 311              	.LBE30:
 312              	.LBE29:
 588:Drivers/lvgl/src/font/lv_font_loader.c ****     int32_t kern_length = read_label(fp, start, "kern");
 313              		.loc 1 588 1 is_stmt 0 view .LVU90
 314 0006 87B0     		sub	sp, sp, #28
 315              		.cfi_def_cfa_offset 64
 588:Drivers/lvgl/src/font/lv_font_loader.c ****     int32_t kern_length = read_label(fp, start, "kern");
 316              		.loc 1 588 1 view .LVU91
 317 0008 0F46     		mov	r7, r1
 318 000a 1546     		mov	r5, r2
 319              	.LBB32:
 320              	.LBB31:
 227:Drivers/lvgl/src/font/lv_font_loader.c **** 
 321              		.loc 1 227 5 view .LVU92
 322 000c 1946     		mov	r1, r3
 323              	.LVL29:
 227:Drivers/lvgl/src/font/lv_font_loader.c **** 
 324              		.loc 1 227 5 view .LVU93
 325 000e 0022     		movs	r2, #0
 326              	.LVL30:
 227:Drivers/lvgl/src/font/lv_font_loader.c **** 
 327              		.loc 1 227 5 view .LVU94
 328 0010 FFF7FEFF 		bl	lv_fs_seek
 329              	.LVL31:
 229:Drivers/lvgl/src/font/lv_font_loader.c ****     char buf[4];
 330              		.loc 1 229 5 is_stmt 1 view .LVU95
 230:Drivers/lvgl/src/font/lv_font_loader.c **** 
 331              		.loc 1 230 5 view .LVU96
 232:Drivers/lvgl/src/font/lv_font_loader.c ****        || lv_fs_read(fp, buf, 4, NULL) != LV_FS_RES_OK
 332              		.loc 1 232 5 view .LVU97
 232:Drivers/lvgl/src/font/lv_font_loader.c ****        || lv_fs_read(fp, buf, 4, NULL) != LV_FS_RES_OK
 333              		.loc 1 232 8 is_stmt 0 view .LVU98
 334 0014 0023     		movs	r3, #0
 335 0016 0422     		movs	r2, #4
 336 0018 04A9     		add	r1, sp, #16
 337 001a 2046     		mov	r0, r4
 338 001c FFF7FEFF 		bl	lv_fs_read
 339              	.LVL32:
 232:Drivers/lvgl/src/font/lv_font_loader.c ****        || lv_fs_read(fp, buf, 4, NULL) != LV_FS_RES_OK
 340              		.loc 1 232 7 view .LVU99
 341 0020 0028     		cmp	r0, #0
 342 0022 40F0CF80 		bne	.L73
 343 0026 0346     		mov	r3, r0
 233:Drivers/lvgl/src/font/lv_font_loader.c ****        || memcmp(label, buf, 4) != 0) {
 344              		.loc 1 233 11 view .LVU100
 345 0028 0422     		movs	r2, #4
 346 002a 05A9     		add	r1, sp, #20
 347 002c 2046     		mov	r0, r4
 348 002e FFF7FEFF 		bl	lv_fs_read
ARM GAS  /var/folders/0z/tsy30v1j4xl4_7kw94k978ww0000gn/T//ccOlCxDD.s 			page 18


 349              	.LVL33:
 233:Drivers/lvgl/src/font/lv_font_loader.c ****        || memcmp(label, buf, 4) != 0) {
 350              		.loc 1 233 8 view .LVU101
 351 0032 0346     		mov	r3, r0
 352 0034 0028     		cmp	r0, #0
 353 0036 40F0C580 		bne	.L73
 234:Drivers/lvgl/src/font/lv_font_loader.c ****         LV_LOG_WARN("Error reading '%s' label.", label);
 354              		.loc 1 234 8 view .LVU102
 355 003a 664A     		ldr	r2, .L77
 356 003c 0599     		ldr	r1, [sp, #20]
 357 003e 9142     		cmp	r1, r2
 358 0040 40F0C080 		bne	.L73
 239:Drivers/lvgl/src/font/lv_font_loader.c **** }
 359              		.loc 1 239 5 is_stmt 1 view .LVU103
 239:Drivers/lvgl/src/font/lv_font_loader.c **** }
 360              		.loc 1 239 12 is_stmt 0 view .LVU104
 361 0044 DDF81080 		ldr	r8, [sp, #16]
 362              	.LVL34:
 239:Drivers/lvgl/src/font/lv_font_loader.c **** }
 363              		.loc 1 239 12 view .LVU105
 364              	.LBE31:
 365              	.LBE32:
 590:Drivers/lvgl/src/font/lv_font_loader.c ****     if(kern_length < 0) {
 366              		.loc 1 590 5 is_stmt 1 view .LVU106
 367              		.loc 1 590 7 is_stmt 0 view .LVU107
 368 0048 B8F1000F 		cmp	r8, #0
 369 004c C0F2BA80 		blt	.L73
 591:Drivers/lvgl/src/font/lv_font_loader.c ****         return -1;
 592:Drivers/lvgl/src/font/lv_font_loader.c ****     }
 593:Drivers/lvgl/src/font/lv_font_loader.c **** 
 594:Drivers/lvgl/src/font/lv_font_loader.c ****     uint8_t kern_format_type;
 370              		.loc 1 594 5 is_stmt 1 view .LVU108
 595:Drivers/lvgl/src/font/lv_font_loader.c ****     int32_t padding;
 371              		.loc 1 595 5 view .LVU109
 596:Drivers/lvgl/src/font/lv_font_loader.c ****     if(lv_fs_read(fp, &kern_format_type, sizeof(uint8_t), NULL) != LV_FS_RES_OK ||
 372              		.loc 1 596 5 view .LVU110
 373              		.loc 1 596 8 is_stmt 0 view .LVU111
 374 0050 0122     		movs	r2, #1
 375 0052 0DF10D01 		add	r1, sp, #13
 376 0056 2046     		mov	r0, r4
 377 0058 FFF7FEFF 		bl	lv_fs_read
 378              	.LVL35:
 379              		.loc 1 596 7 view .LVU112
 380 005c 0346     		mov	r3, r0
 381 005e 0028     		cmp	r0, #0
 382 0060 40F0B080 		bne	.L73
 597:Drivers/lvgl/src/font/lv_font_loader.c ****        lv_fs_read(fp, &padding, 3 * sizeof(uint8_t), NULL) != LV_FS_RES_OK) {
 383              		.loc 1 597 8 discriminator 1 view .LVU113
 384 0064 04A9     		add	r1, sp, #16
 385 0066 0322     		movs	r2, #3
 386 0068 2046     		mov	r0, r4
 387 006a FFF7FEFF 		bl	lv_fs_read
 388              	.LVL36:
 596:Drivers/lvgl/src/font/lv_font_loader.c ****     if(lv_fs_read(fp, &kern_format_type, sizeof(uint8_t), NULL) != LV_FS_RES_OK ||
 389              		.loc 1 596 81 discriminator 1 view .LVU114
 390 006e 0646     		mov	r6, r0
 391 0070 0028     		cmp	r0, #0
ARM GAS  /var/folders/0z/tsy30v1j4xl4_7kw94k978ww0000gn/T//ccOlCxDD.s 			page 19


 392 0072 40F0A780 		bne	.L73
 598:Drivers/lvgl/src/font/lv_font_loader.c ****         return -1;
 599:Drivers/lvgl/src/font/lv_font_loader.c ****     }
 600:Drivers/lvgl/src/font/lv_font_loader.c **** 
 601:Drivers/lvgl/src/font/lv_font_loader.c ****     if(0 == kern_format_type) { /*sorted pairs*/
 393              		.loc 1 601 5 is_stmt 1 view .LVU115
 394              		.loc 1 601 10 is_stmt 0 view .LVU116
 395 0076 9DF80D90 		ldrb	r9, [sp, #13]	@ zero_extendqisi2
 396              		.loc 1 601 7 view .LVU117
 397 007a B9F1000F 		cmp	r9, #0
 398 007e 67D0     		beq	.L75
 602:Drivers/lvgl/src/font/lv_font_loader.c ****         lv_font_fmt_txt_kern_pair_t * kern_pair = lv_mem_alloc(sizeof(lv_font_fmt_txt_kern_pair_t))
 603:Drivers/lvgl/src/font/lv_font_loader.c **** 
 604:Drivers/lvgl/src/font/lv_font_loader.c ****         memset(kern_pair, 0, sizeof(lv_font_fmt_txt_kern_pair_t));
 605:Drivers/lvgl/src/font/lv_font_loader.c **** 
 606:Drivers/lvgl/src/font/lv_font_loader.c ****         font_dsc->kern_dsc = kern_pair;
 607:Drivers/lvgl/src/font/lv_font_loader.c ****         font_dsc->kern_classes = 0;
 608:Drivers/lvgl/src/font/lv_font_loader.c **** 
 609:Drivers/lvgl/src/font/lv_font_loader.c ****         uint32_t glyph_entries;
 610:Drivers/lvgl/src/font/lv_font_loader.c ****         if(lv_fs_read(fp, &glyph_entries, sizeof(uint32_t), NULL) != LV_FS_RES_OK) {
 611:Drivers/lvgl/src/font/lv_font_loader.c ****             return -1;
 612:Drivers/lvgl/src/font/lv_font_loader.c ****         }
 613:Drivers/lvgl/src/font/lv_font_loader.c **** 
 614:Drivers/lvgl/src/font/lv_font_loader.c ****         int ids_size;
 615:Drivers/lvgl/src/font/lv_font_loader.c ****         if(format == 0) {
 616:Drivers/lvgl/src/font/lv_font_loader.c ****             ids_size = sizeof(int8_t) * 2 * glyph_entries;
 617:Drivers/lvgl/src/font/lv_font_loader.c ****         }
 618:Drivers/lvgl/src/font/lv_font_loader.c ****         else {
 619:Drivers/lvgl/src/font/lv_font_loader.c ****             ids_size = sizeof(int16_t) * 2 * glyph_entries;
 620:Drivers/lvgl/src/font/lv_font_loader.c ****         }
 621:Drivers/lvgl/src/font/lv_font_loader.c **** 
 622:Drivers/lvgl/src/font/lv_font_loader.c ****         uint8_t * glyph_ids = lv_mem_alloc(ids_size);
 623:Drivers/lvgl/src/font/lv_font_loader.c ****         int8_t * values = lv_mem_alloc(glyph_entries);
 624:Drivers/lvgl/src/font/lv_font_loader.c **** 
 625:Drivers/lvgl/src/font/lv_font_loader.c ****         kern_pair->glyph_ids_size = format;
 626:Drivers/lvgl/src/font/lv_font_loader.c ****         kern_pair->pair_cnt = glyph_entries;
 627:Drivers/lvgl/src/font/lv_font_loader.c ****         kern_pair->glyph_ids = glyph_ids;
 628:Drivers/lvgl/src/font/lv_font_loader.c ****         kern_pair->values = values;
 629:Drivers/lvgl/src/font/lv_font_loader.c **** 
 630:Drivers/lvgl/src/font/lv_font_loader.c ****         if(lv_fs_read(fp, glyph_ids, ids_size, NULL) != LV_FS_RES_OK) {
 631:Drivers/lvgl/src/font/lv_font_loader.c ****             return -1;
 632:Drivers/lvgl/src/font/lv_font_loader.c ****         }
 633:Drivers/lvgl/src/font/lv_font_loader.c **** 
 634:Drivers/lvgl/src/font/lv_font_loader.c ****         if(lv_fs_read(fp, values, glyph_entries, NULL) != LV_FS_RES_OK) {
 635:Drivers/lvgl/src/font/lv_font_loader.c ****             return -1;
 636:Drivers/lvgl/src/font/lv_font_loader.c ****         }
 637:Drivers/lvgl/src/font/lv_font_loader.c ****     }
 638:Drivers/lvgl/src/font/lv_font_loader.c ****     else if(3 == kern_format_type) { /*array M*N of classes*/
 399              		.loc 1 638 10 is_stmt 1 view .LVU118
 400              		.loc 1 638 12 is_stmt 0 view .LVU119
 401 0080 B9F1030F 		cmp	r9, #3
 402 0084 40F09E80 		bne	.L73
 403              	.LBB33:
 639:Drivers/lvgl/src/font/lv_font_loader.c **** 
 640:Drivers/lvgl/src/font/lv_font_loader.c ****         lv_font_fmt_txt_kern_classes_t * kern_classes = lv_mem_alloc(sizeof(lv_font_fmt_txt_kern_cl
 404              		.loc 1 640 9 is_stmt 1 view .LVU120
 405              		.loc 1 640 57 is_stmt 0 view .LVU121
ARM GAS  /var/folders/0z/tsy30v1j4xl4_7kw94k978ww0000gn/T//ccOlCxDD.s 			page 20


 406 0088 1020     		movs	r0, #16
 407 008a FFF7FEFF 		bl	lv_mem_alloc
 408              	.LVL37:
 641:Drivers/lvgl/src/font/lv_font_loader.c **** 
 642:Drivers/lvgl/src/font/lv_font_loader.c ****         memset(kern_classes, 0, sizeof(lv_font_fmt_txt_kern_classes_t));
 409              		.loc 1 642 9 view .LVU122
 410 008e 0660     		str	r6, [r0]	@ unaligned
 411 0090 4660     		str	r6, [r0, #4]	@ unaligned
 412 0092 8660     		str	r6, [r0, #8]	@ unaligned
 413 0094 C660     		str	r6, [r0, #12]	@ unaligned
 643:Drivers/lvgl/src/font/lv_font_loader.c **** 
 644:Drivers/lvgl/src/font/lv_font_loader.c ****         font_dsc->kern_dsc = kern_classes;
 645:Drivers/lvgl/src/font/lv_font_loader.c ****         font_dsc->kern_classes = 1;
 414              		.loc 1 645 32 view .LVU123
 415 0096 FA7C     		ldrb	r2, [r7, #19]	@ zero_extendqisi2
 644:Drivers/lvgl/src/font/lv_font_loader.c ****         font_dsc->kern_classes = 1;
 416              		.loc 1 644 28 view .LVU124
 417 0098 F860     		str	r0, [r7, #12]
 418              		.loc 1 645 32 view .LVU125
 419 009a 42F02002 		orr	r2, r2, #32
 646:Drivers/lvgl/src/font/lv_font_loader.c **** 
 647:Drivers/lvgl/src/font/lv_font_loader.c ****         uint16_t kern_class_mapping_length;
 648:Drivers/lvgl/src/font/lv_font_loader.c ****         uint8_t kern_table_rows;
 649:Drivers/lvgl/src/font/lv_font_loader.c ****         uint8_t kern_table_cols;
 650:Drivers/lvgl/src/font/lv_font_loader.c **** 
 651:Drivers/lvgl/src/font/lv_font_loader.c ****         if(lv_fs_read(fp, &kern_class_mapping_length, sizeof(uint16_t), NULL) != LV_FS_RES_OK ||
 420              		.loc 1 651 12 view .LVU126
 421 009e 3346     		mov	r3, r6
 645:Drivers/lvgl/src/font/lv_font_loader.c **** 
 422              		.loc 1 645 32 view .LVU127
 423 00a0 FA74     		strb	r2, [r7, #19]
 640:Drivers/lvgl/src/font/lv_font_loader.c **** 
 424              		.loc 1 640 57 view .LVU128
 425 00a2 0546     		mov	r5, r0
 426              	.LVL38:
 642:Drivers/lvgl/src/font/lv_font_loader.c **** 
 427              		.loc 1 642 9 is_stmt 1 view .LVU129
 644:Drivers/lvgl/src/font/lv_font_loader.c ****         font_dsc->kern_classes = 1;
 428              		.loc 1 644 9 view .LVU130
 645:Drivers/lvgl/src/font/lv_font_loader.c **** 
 429              		.loc 1 645 9 view .LVU131
 647:Drivers/lvgl/src/font/lv_font_loader.c ****         uint8_t kern_table_rows;
 430              		.loc 1 647 9 view .LVU132
 648:Drivers/lvgl/src/font/lv_font_loader.c ****         uint8_t kern_table_cols;
 431              		.loc 1 648 9 view .LVU133
 649:Drivers/lvgl/src/font/lv_font_loader.c **** 
 432              		.loc 1 649 9 view .LVU134
 433              		.loc 1 651 9 view .LVU135
 434              		.loc 1 651 12 is_stmt 0 view .LVU136
 435 00a4 05A9     		add	r1, sp, #20
 436 00a6 0222     		movs	r2, #2
 437 00a8 2046     		mov	r0, r4
 438              	.LVL39:
 439              		.loc 1 651 12 view .LVU137
 440 00aa FFF7FEFF 		bl	lv_fs_read
 441              	.LVL40:
 442              		.loc 1 651 11 view .LVU138
ARM GAS  /var/folders/0z/tsy30v1j4xl4_7kw94k978ww0000gn/T//ccOlCxDD.s 			page 21


 443 00ae 0346     		mov	r3, r0
 444 00b0 0028     		cmp	r0, #0
 445 00b2 40F08780 		bne	.L73
 652:Drivers/lvgl/src/font/lv_font_loader.c ****            lv_fs_read(fp, &kern_table_rows, sizeof(uint8_t), NULL) != LV_FS_RES_OK ||
 446              		.loc 1 652 12 discriminator 1 view .LVU139
 447 00b6 0122     		movs	r2, #1
 448 00b8 0DF10E01 		add	r1, sp, #14
 449 00bc 2046     		mov	r0, r4
 450 00be FFF7FEFF 		bl	lv_fs_read
 451              	.LVL41:
 651:Drivers/lvgl/src/font/lv_font_loader.c ****            lv_fs_read(fp, &kern_table_rows, sizeof(uint8_t), NULL) != LV_FS_RES_OK ||
 452              		.loc 1 651 95 discriminator 1 view .LVU140
 453 00c2 0028     		cmp	r0, #0
 454 00c4 7ED1     		bne	.L73
 653:Drivers/lvgl/src/font/lv_font_loader.c ****            lv_fs_read(fp, &kern_table_cols, sizeof(uint8_t), NULL) != LV_FS_RES_OK) {
 455              		.loc 1 653 12 view .LVU141
 456 00c6 0023     		movs	r3, #0
 457 00c8 0122     		movs	r2, #1
 458 00ca 0DF10F01 		add	r1, sp, #15
 459 00ce 2046     		mov	r0, r4
 460 00d0 FFF7FEFF 		bl	lv_fs_read
 461              	.LVL42:
 652:Drivers/lvgl/src/font/lv_font_loader.c ****            lv_fs_read(fp, &kern_table_rows, sizeof(uint8_t), NULL) != LV_FS_RES_OK ||
 462              		.loc 1 652 84 view .LVU142
 463 00d4 0646     		mov	r6, r0
 464 00d6 0028     		cmp	r0, #0
 465 00d8 74D1     		bne	.L73
 654:Drivers/lvgl/src/font/lv_font_loader.c ****             return -1;
 655:Drivers/lvgl/src/font/lv_font_loader.c ****         }
 656:Drivers/lvgl/src/font/lv_font_loader.c **** 
 657:Drivers/lvgl/src/font/lv_font_loader.c ****         int kern_values_length = sizeof(int8_t) * kern_table_rows * kern_table_cols;
 466              		.loc 1 657 9 is_stmt 1 view .LVU143
 467              		.loc 1 657 67 is_stmt 0 view .LVU144
 468 00da 9DF80F30 		ldrb	r3, [sp, #15]	@ zero_extendqisi2
 469 00de 9DF80EA0 		ldrb	r10, [sp, #14]	@ zero_extendqisi2
 658:Drivers/lvgl/src/font/lv_font_loader.c **** 
 659:Drivers/lvgl/src/font/lv_font_loader.c ****         uint8_t * kern_left = lv_mem_alloc(kern_class_mapping_length);
 470              		.loc 1 659 31 view .LVU145
 471 00e2 BDF81400 		ldrh	r0, [sp, #20]
 657:Drivers/lvgl/src/font/lv_font_loader.c **** 
 472              		.loc 1 657 67 view .LVU146
 473 00e6 1AFB03FA 		smulbb	r10, r10, r3
 474              	.LVL43:
 475              		.loc 1 659 9 is_stmt 1 view .LVU147
 476              		.loc 1 659 31 is_stmt 0 view .LVU148
 477 00ea FFF7FEFF 		bl	lv_mem_alloc
 478              	.LVL44:
 479 00ee 0746     		mov	r7, r0
 480              	.LVL45:
 660:Drivers/lvgl/src/font/lv_font_loader.c ****         uint8_t * kern_right = lv_mem_alloc(kern_class_mapping_length);
 481              		.loc 1 660 9 is_stmt 1 view .LVU149
 482              		.loc 1 660 32 is_stmt 0 view .LVU150
 483 00f0 BDF81400 		ldrh	r0, [sp, #20]
 484              	.LVL46:
 485              		.loc 1 660 32 view .LVU151
 486 00f4 FFF7FEFF 		bl	lv_mem_alloc
 487              	.LVL47:
ARM GAS  /var/folders/0z/tsy30v1j4xl4_7kw94k978ww0000gn/T//ccOlCxDD.s 			page 22


 488 00f8 8146     		mov	r9, r0
 489              	.LVL48:
 661:Drivers/lvgl/src/font/lv_font_loader.c ****         int8_t * kern_values = lv_mem_alloc(kern_values_length);
 490              		.loc 1 661 9 is_stmt 1 view .LVU152
 491              		.loc 1 661 32 is_stmt 0 view .LVU153
 492 00fa 5046     		mov	r0, r10
 493              	.LVL49:
 494              		.loc 1 661 32 view .LVU154
 495 00fc FFF7FEFF 		bl	lv_mem_alloc
 496              	.LVL50:
 662:Drivers/lvgl/src/font/lv_font_loader.c **** 
 663:Drivers/lvgl/src/font/lv_font_loader.c ****         kern_classes->left_class_mapping  = kern_left;
 664:Drivers/lvgl/src/font/lv_font_loader.c ****         kern_classes->right_class_mapping = kern_right;
 665:Drivers/lvgl/src/font/lv_font_loader.c ****         kern_classes->left_class_cnt = kern_table_rows;
 497              		.loc 1 665 38 view .LVU155
 498 0100 9DF80E20 		ldrb	r2, [sp, #14]	@ zero_extendqisi2
 499 0104 2A73     		strb	r2, [r5, #12]
 666:Drivers/lvgl/src/font/lv_font_loader.c ****         kern_classes->right_class_cnt = kern_table_cols;
 500              		.loc 1 666 39 view .LVU156
 501 0106 9DF80F20 		ldrb	r2, [sp, #15]	@ zero_extendqisi2
 502 010a 6A73     		strb	r2, [r5, #13]
 667:Drivers/lvgl/src/font/lv_font_loader.c ****         kern_classes->class_pair_values = kern_values;
 668:Drivers/lvgl/src/font/lv_font_loader.c **** 
 669:Drivers/lvgl/src/font/lv_font_loader.c ****         if(lv_fs_read(fp, kern_left, kern_class_mapping_length, NULL) != LV_FS_RES_OK ||
 503              		.loc 1 669 12 view .LVU157
 504 010c 3346     		mov	r3, r6
 667:Drivers/lvgl/src/font/lv_font_loader.c ****         kern_classes->class_pair_values = kern_values;
 505              		.loc 1 667 41 view .LVU158
 506 010e 2860     		str	r0, [r5]
 664:Drivers/lvgl/src/font/lv_font_loader.c ****         kern_classes->left_class_cnt = kern_table_rows;
 507              		.loc 1 664 43 view .LVU159
 508 0110 C5E90179 		strd	r7, r9, [r5, #4]
 509              		.loc 1 669 12 view .LVU160
 510 0114 BDF81420 		ldrh	r2, [sp, #20]
 661:Drivers/lvgl/src/font/lv_font_loader.c **** 
 511              		.loc 1 661 32 view .LVU161
 512 0118 8346     		mov	fp, r0
 513              	.LVL51:
 663:Drivers/lvgl/src/font/lv_font_loader.c ****         kern_classes->right_class_mapping = kern_right;
 514              		.loc 1 663 9 is_stmt 1 view .LVU162
 665:Drivers/lvgl/src/font/lv_font_loader.c ****         kern_classes->right_class_cnt = kern_table_cols;
 515              		.loc 1 665 9 view .LVU163
 666:Drivers/lvgl/src/font/lv_font_loader.c ****         kern_classes->class_pair_values = kern_values;
 516              		.loc 1 666 9 view .LVU164
 667:Drivers/lvgl/src/font/lv_font_loader.c **** 
 517              		.loc 1 667 9 view .LVU165
 518              		.loc 1 669 9 view .LVU166
 519              		.loc 1 669 12 is_stmt 0 view .LVU167
 520 011a 3946     		mov	r1, r7
 521 011c 2046     		mov	r0, r4
 522              	.LVL52:
 523              		.loc 1 669 12 view .LVU168
 524 011e FFF7FEFF 		bl	lv_fs_read
 525              	.LVL53:
 526              		.loc 1 669 11 view .LVU169
 527 0122 0346     		mov	r3, r0
 528 0124 0028     		cmp	r0, #0
ARM GAS  /var/folders/0z/tsy30v1j4xl4_7kw94k978ww0000gn/T//ccOlCxDD.s 			page 23


 529 0126 4DD1     		bne	.L73
 670:Drivers/lvgl/src/font/lv_font_loader.c ****            lv_fs_read(fp, kern_right, kern_class_mapping_length, NULL) != LV_FS_RES_OK ||
 530              		.loc 1 670 12 discriminator 1 view .LVU170
 531 0128 BDF81420 		ldrh	r2, [sp, #20]
 532 012c 4946     		mov	r1, r9
 533 012e 2046     		mov	r0, r4
 534 0130 FFF7FEFF 		bl	lv_fs_read
 535              	.LVL54:
 669:Drivers/lvgl/src/font/lv_font_loader.c ****            lv_fs_read(fp, kern_right, kern_class_mapping_length, NULL) != LV_FS_RES_OK ||
 536              		.loc 1 669 87 discriminator 1 view .LVU171
 537 0134 0346     		mov	r3, r0
 538 0136 0028     		cmp	r0, #0
 539 0138 44D1     		bne	.L73
 671:Drivers/lvgl/src/font/lv_font_loader.c ****            lv_fs_read(fp, kern_values, kern_values_length, NULL) != LV_FS_RES_OK) {
 540              		.loc 1 671 12 view .LVU172
 541 013a 5246     		mov	r2, r10
 542 013c 5946     		mov	r1, fp
 543 013e 2046     		mov	r0, r4
 544 0140 FFF7FEFF 		bl	lv_fs_read
 545              	.LVL55:
 670:Drivers/lvgl/src/font/lv_font_loader.c ****            lv_fs_read(fp, kern_right, kern_class_mapping_length, NULL) != LV_FS_RES_OK ||
 546              		.loc 1 670 88 view .LVU173
 547 0144 0028     		cmp	r0, #0
 548 0146 3DD1     		bne	.L73
 549              	.LVL56:
 550              	.L63:
 670:Drivers/lvgl/src/font/lv_font_loader.c ****            lv_fs_read(fp, kern_right, kern_class_mapping_length, NULL) != LV_FS_RES_OK ||
 551              		.loc 1 670 88 view .LVU174
 552              	.LBE33:
 672:Drivers/lvgl/src/font/lv_font_loader.c ****             return -1;
 673:Drivers/lvgl/src/font/lv_font_loader.c ****         }
 674:Drivers/lvgl/src/font/lv_font_loader.c ****     }
 675:Drivers/lvgl/src/font/lv_font_loader.c ****     else {
 676:Drivers/lvgl/src/font/lv_font_loader.c ****         LV_LOG_WARN("Unknown kern_format_type: %d", kern_format_type);
 677:Drivers/lvgl/src/font/lv_font_loader.c ****         return -1;
 678:Drivers/lvgl/src/font/lv_font_loader.c ****     }
 679:Drivers/lvgl/src/font/lv_font_loader.c **** 
 680:Drivers/lvgl/src/font/lv_font_loader.c ****     return kern_length;
 681:Drivers/lvgl/src/font/lv_font_loader.c **** }
 553              		.loc 1 681 1 view .LVU175
 554 0148 4046     		mov	r0, r8
 555 014a 07B0     		add	sp, sp, #28
 556              		.cfi_remember_state
 557              		.cfi_def_cfa_offset 36
 558              		@ sp needed
 559 014c BDE8F08F 		pop	{r4, r5, r6, r7, r8, r9, r10, fp, pc}
 560              	.LVL57:
 561              	.L75:
 562              		.cfi_restore_state
 563              	.LBB34:
 602:Drivers/lvgl/src/font/lv_font_loader.c **** 
 564              		.loc 1 602 9 is_stmt 1 view .LVU176
 602:Drivers/lvgl/src/font/lv_font_loader.c **** 
 565              		.loc 1 602 51 is_stmt 0 view .LVU177
 566 0150 0C20     		movs	r0, #12
 567 0152 FFF7FEFF 		bl	lv_mem_alloc
 568              	.LVL58:
ARM GAS  /var/folders/0z/tsy30v1j4xl4_7kw94k978ww0000gn/T//ccOlCxDD.s 			page 24


 604:Drivers/lvgl/src/font/lv_font_loader.c **** 
 569              		.loc 1 604 9 view .LVU178
 570 0156 C0F80090 		str	r9, [r0]	@ unaligned
 571 015a C0F80490 		str	r9, [r0, #4]	@ unaligned
 572 015e C0F80890 		str	r9, [r0, #8]	@ unaligned
 607:Drivers/lvgl/src/font/lv_font_loader.c **** 
 573              		.loc 1 607 32 view .LVU179
 574 0162 FB7C     		ldrb	r3, [r7, #19]	@ zero_extendqisi2
 606:Drivers/lvgl/src/font/lv_font_loader.c ****         font_dsc->kern_classes = 0;
 575              		.loc 1 606 28 view .LVU180
 576 0164 F860     		str	r0, [r7, #12]
 607:Drivers/lvgl/src/font/lv_font_loader.c **** 
 577              		.loc 1 607 32 view .LVU181
 578 0166 69F34513 		bfi	r3, r9, #5, #1
 602:Drivers/lvgl/src/font/lv_font_loader.c **** 
 579              		.loc 1 602 51 view .LVU182
 580 016a 0646     		mov	r6, r0
 581              	.LVL59:
 604:Drivers/lvgl/src/font/lv_font_loader.c **** 
 582              		.loc 1 604 9 is_stmt 1 view .LVU183
 606:Drivers/lvgl/src/font/lv_font_loader.c ****         font_dsc->kern_classes = 0;
 583              		.loc 1 606 9 view .LVU184
 607:Drivers/lvgl/src/font/lv_font_loader.c **** 
 584              		.loc 1 607 9 view .LVU185
 607:Drivers/lvgl/src/font/lv_font_loader.c **** 
 585              		.loc 1 607 32 is_stmt 0 view .LVU186
 586 016c FB74     		strb	r3, [r7, #19]
 609:Drivers/lvgl/src/font/lv_font_loader.c ****         if(lv_fs_read(fp, &glyph_entries, sizeof(uint32_t), NULL) != LV_FS_RES_OK) {
 587              		.loc 1 609 9 is_stmt 1 view .LVU187
 610:Drivers/lvgl/src/font/lv_font_loader.c ****             return -1;
 588              		.loc 1 610 9 view .LVU188
 610:Drivers/lvgl/src/font/lv_font_loader.c ****             return -1;
 589              		.loc 1 610 12 is_stmt 0 view .LVU189
 590 016e 05A9     		add	r1, sp, #20
 591 0170 4B46     		mov	r3, r9
 592 0172 0422     		movs	r2, #4
 593 0174 2046     		mov	r0, r4
 594              	.LVL60:
 610:Drivers/lvgl/src/font/lv_font_loader.c ****             return -1;
 595              		.loc 1 610 12 view .LVU190
 596 0176 FFF7FEFF 		bl	lv_fs_read
 597              	.LVL61:
 610:Drivers/lvgl/src/font/lv_font_loader.c ****             return -1;
 598              		.loc 1 610 11 view .LVU191
 599 017a 18BB     		cbnz	r0, .L73
 614:Drivers/lvgl/src/font/lv_font_loader.c ****         if(format == 0) {
 600              		.loc 1 614 9 is_stmt 1 view .LVU192
 615:Drivers/lvgl/src/font/lv_font_loader.c ****             ids_size = sizeof(int8_t) * 2 * glyph_entries;
 601              		.loc 1 615 9 view .LVU193
 616:Drivers/lvgl/src/font/lv_font_loader.c ****         }
 602              		.loc 1 616 43 is_stmt 0 view .LVU194
 603 017c 059A     		ldr	r2, [sp, #20]
 615:Drivers/lvgl/src/font/lv_font_loader.c ****             ids_size = sizeof(int8_t) * 2 * glyph_entries;
 604              		.loc 1 615 11 view .LVU195
 605 017e 3DB3     		cbz	r5, .L76
 619:Drivers/lvgl/src/font/lv_font_loader.c ****         }
 606              		.loc 1 619 13 is_stmt 1 view .LVU196
ARM GAS  /var/folders/0z/tsy30v1j4xl4_7kw94k978ww0000gn/T//ccOlCxDD.s 			page 25


 619:Drivers/lvgl/src/font/lv_font_loader.c ****         }
 607              		.loc 1 619 44 is_stmt 0 view .LVU197
 608 0180 9200     		lsls	r2, r2, #2
 609              	.LVL62:
 610              	.L72:
 622:Drivers/lvgl/src/font/lv_font_loader.c ****         int8_t * values = lv_mem_alloc(glyph_entries);
 611              		.loc 1 622 9 is_stmt 1 view .LVU198
 622:Drivers/lvgl/src/font/lv_font_loader.c ****         int8_t * values = lv_mem_alloc(glyph_entries);
 612              		.loc 1 622 31 is_stmt 0 view .LVU199
 613 0182 1046     		mov	r0, r2
 614 0184 0192     		str	r2, [sp, #4]
 615 0186 FFF7FEFF 		bl	lv_mem_alloc
 616              	.LVL63:
 617 018a 8146     		mov	r9, r0
 618              	.LVL64:
 623:Drivers/lvgl/src/font/lv_font_loader.c **** 
 619              		.loc 1 623 9 is_stmt 1 view .LVU200
 623:Drivers/lvgl/src/font/lv_font_loader.c **** 
 620              		.loc 1 623 27 is_stmt 0 view .LVU201
 621 018c 0598     		ldr	r0, [sp, #20]
 622              	.LVL65:
 623:Drivers/lvgl/src/font/lv_font_loader.c **** 
 623              		.loc 1 623 27 view .LVU202
 624 018e FFF7FEFF 		bl	lv_mem_alloc
 625              	.LVL66:
 626:Drivers/lvgl/src/font/lv_font_loader.c ****         kern_pair->glyph_ids = glyph_ids;
 626              		.loc 1 626 29 view .LVU203
 627 0192 059B     		ldr	r3, [sp, #20]
 630:Drivers/lvgl/src/font/lv_font_loader.c ****             return -1;
 628              		.loc 1 630 12 view .LVU204
 629 0194 019A     		ldr	r2, [sp, #4]
 627:Drivers/lvgl/src/font/lv_font_loader.c ****         kern_pair->values = values;
 630              		.loc 1 627 30 view .LVU205
 631 0196 C6F80090 		str	r9, [r6]
 626:Drivers/lvgl/src/font/lv_font_loader.c ****         kern_pair->glyph_ids = glyph_ids;
 632              		.loc 1 626 29 view .LVU206
 633 019a 23F04043 		bic	r3, r3, #-1073741824
 634 019e 43EA8573 		orr	r3, r3, r5, lsl #30
 628:Drivers/lvgl/src/font/lv_font_loader.c **** 
 635              		.loc 1 628 27 view .LVU207
 636 01a2 C6E90103 		strd	r0, r3, [r6, #4]
 623:Drivers/lvgl/src/font/lv_font_loader.c **** 
 637              		.loc 1 623 27 view .LVU208
 638 01a6 0746     		mov	r7, r0
 639              	.LVL67:
 625:Drivers/lvgl/src/font/lv_font_loader.c ****         kern_pair->pair_cnt = glyph_entries;
 640              		.loc 1 625 9 is_stmt 1 view .LVU209
 626:Drivers/lvgl/src/font/lv_font_loader.c ****         kern_pair->glyph_ids = glyph_ids;
 641              		.loc 1 626 9 view .LVU210
 630:Drivers/lvgl/src/font/lv_font_loader.c ****             return -1;
 642              		.loc 1 630 9 view .LVU211
 630:Drivers/lvgl/src/font/lv_font_loader.c ****             return -1;
 643              		.loc 1 630 12 is_stmt 0 view .LVU212
 644 01a8 0023     		movs	r3, #0
 645 01aa 4946     		mov	r1, r9
 646 01ac 2046     		mov	r0, r4
 647              	.LVL68:
ARM GAS  /var/folders/0z/tsy30v1j4xl4_7kw94k978ww0000gn/T//ccOlCxDD.s 			page 26


 630:Drivers/lvgl/src/font/lv_font_loader.c ****             return -1;
 648              		.loc 1 630 12 view .LVU213
 649 01ae FFF7FEFF 		bl	lv_fs_read
 650              	.LVL69:
 630:Drivers/lvgl/src/font/lv_font_loader.c ****             return -1;
 651              		.loc 1 630 11 view .LVU214
 652 01b2 0346     		mov	r3, r0
 653 01b4 30B9     		cbnz	r0, .L73
 634:Drivers/lvgl/src/font/lv_font_loader.c ****             return -1;
 654              		.loc 1 634 9 is_stmt 1 view .LVU215
 634:Drivers/lvgl/src/font/lv_font_loader.c ****             return -1;
 655              		.loc 1 634 12 is_stmt 0 view .LVU216
 656 01b6 059A     		ldr	r2, [sp, #20]
 657 01b8 3946     		mov	r1, r7
 658 01ba 2046     		mov	r0, r4
 659 01bc FFF7FEFF 		bl	lv_fs_read
 660              	.LVL70:
 634:Drivers/lvgl/src/font/lv_font_loader.c ****             return -1;
 661              		.loc 1 634 11 view .LVU217
 662 01c0 0028     		cmp	r0, #0
 663 01c2 C1D0     		beq	.L63
 664              	.LVL71:
 665              	.L73:
 634:Drivers/lvgl/src/font/lv_font_loader.c ****             return -1;
 666              		.loc 1 634 11 view .LVU218
 667              	.LBE34:
 668              	.LBB35:
 654:Drivers/lvgl/src/font/lv_font_loader.c ****         }
 669              		.loc 1 654 20 view .LVU219
 670 01c4 4FF0FF38 		mov	r8, #-1
 671              	.LBE35:
 672              		.loc 1 681 1 view .LVU220
 673 01c8 4046     		mov	r0, r8
 674 01ca 07B0     		add	sp, sp, #28
 675              		.cfi_remember_state
 676              		.cfi_def_cfa_offset 36
 677              		@ sp needed
 678 01cc BDE8F08F 		pop	{r4, r5, r6, r7, r8, r9, r10, fp, pc}
 679              	.LVL72:
 680              	.L76:
 681              		.cfi_restore_state
 682              	.LBB36:
 616:Drivers/lvgl/src/font/lv_font_loader.c ****         }
 683              		.loc 1 616 13 is_stmt 1 view .LVU221
 616:Drivers/lvgl/src/font/lv_font_loader.c ****         }
 684              		.loc 1 616 43 is_stmt 0 view .LVU222
 685 01d0 5200     		lsls	r2, r2, #1
 686              	.LVL73:
 616:Drivers/lvgl/src/font/lv_font_loader.c ****         }
 687              		.loc 1 616 43 view .LVU223
 688 01d2 D6E7     		b	.L72
 689              	.L78:
 690              		.align	2
 691              	.L77:
 692 01d4 6B65726E 		.word	1852990827
 693              	.LBE36:
 694              		.cfi_endproc
ARM GAS  /var/folders/0z/tsy30v1j4xl4_7kw94k978ww0000gn/T//ccOlCxDD.s 			page 27


 695              	.LFE214:
 697              		.section	.text.lv_font_load,"ax",%progbits
 698              		.align	1
 699              		.p2align 2,,3
 700              		.global	lv_font_load
 701              		.syntax unified
 702              		.thumb
 703              		.thumb_func
 705              	lv_font_load:
 706              	.LVL74:
 707              	.LFB204:
  87:Drivers/lvgl/src/font/lv_font_loader.c ****     lv_fs_file_t file;
 708              		.loc 1 87 1 is_stmt 1 view -0
 709              		.cfi_startproc
 710              		@ args = 0, pretend = 0, frame = 120
 711              		@ frame_needed = 0, uses_anonymous_args = 0
  88:Drivers/lvgl/src/font/lv_font_loader.c ****     lv_fs_res_t res = lv_fs_open(&file, font_name, LV_FS_MODE_RD);
 712              		.loc 1 88 5 view .LVU225
  89:Drivers/lvgl/src/font/lv_font_loader.c ****     if(res != LV_FS_RES_OK)
 713              		.loc 1 89 5 view .LVU226
  87:Drivers/lvgl/src/font/lv_font_loader.c ****     lv_fs_file_t file;
 714              		.loc 1 87 1 is_stmt 0 view .LVU227
 715 0000 2DE9F04F 		push	{r4, r5, r6, r7, r8, r9, r10, fp, lr}
 716              		.cfi_def_cfa_offset 36
 717              		.cfi_offset 4, -36
 718              		.cfi_offset 5, -32
 719              		.cfi_offset 6, -28
 720              		.cfi_offset 7, -24
 721              		.cfi_offset 8, -20
 722              		.cfi_offset 9, -16
 723              		.cfi_offset 10, -12
 724              		.cfi_offset 11, -8
 725              		.cfi_offset 14, -4
 726 0004 9FB0     		sub	sp, sp, #124
 727              		.cfi_def_cfa_offset 160
  87:Drivers/lvgl/src/font/lv_font_loader.c ****     lv_fs_file_t file;
 728              		.loc 1 87 1 view .LVU228
 729 0006 0146     		mov	r1, r0
  89:Drivers/lvgl/src/font/lv_font_loader.c ****     if(res != LV_FS_RES_OK)
 730              		.loc 1 89 23 view .LVU229
 731 0008 0222     		movs	r2, #2
 732 000a 11A8     		add	r0, sp, #68
 733              	.LVL75:
  89:Drivers/lvgl/src/font/lv_font_loader.c ****     if(res != LV_FS_RES_OK)
 734              		.loc 1 89 23 view .LVU230
 735 000c FFF7FEFF 		bl	lv_fs_open
 736              	.LVL76:
  90:Drivers/lvgl/src/font/lv_font_loader.c ****         return NULL;
 737              		.loc 1 90 5 is_stmt 1 view .LVU231
  90:Drivers/lvgl/src/font/lv_font_loader.c ****         return NULL;
 738              		.loc 1 90 7 is_stmt 0 view .LVU232
 739 0010 0028     		cmp	r0, #0
 740 0012 47D1     		bne	.L208
  93:Drivers/lvgl/src/font/lv_font_loader.c ****     if(font) {
 741              		.loc 1 93 5 is_stmt 1 view .LVU233
 742 0014 0646     		mov	r6, r0
  93:Drivers/lvgl/src/font/lv_font_loader.c ****     if(font) {
ARM GAS  /var/folders/0z/tsy30v1j4xl4_7kw94k978ww0000gn/T//ccOlCxDD.s 			page 28


 743              		.loc 1 93 24 is_stmt 0 view .LVU234
 744 0016 1C20     		movs	r0, #28
 745              	.LVL77:
  93:Drivers/lvgl/src/font/lv_font_loader.c ****     if(font) {
 746              		.loc 1 93 24 view .LVU235
 747 0018 FFF7FEFF 		bl	lv_mem_alloc
 748              	.LVL78:
  94:Drivers/lvgl/src/font/lv_font_loader.c ****         memset(font, 0, sizeof(lv_font_t));
 749              		.loc 1 94 5 is_stmt 1 view .LVU236
  94:Drivers/lvgl/src/font/lv_font_loader.c ****         memset(font, 0, sizeof(lv_font_t));
 750              		.loc 1 94 7 is_stmt 0 view .LVU237
 751 001c 0446     		mov	r4, r0
 752 001e 0028     		cmp	r0, #0
 753 0020 39D0     		beq	.L81
  95:Drivers/lvgl/src/font/lv_font_loader.c ****         if(!lvgl_load_font(&file, font)) {
 754              		.loc 1 95 9 is_stmt 1 view .LVU238
 755 0022 0660     		str	r6, [r0]	@ unaligned
 756 0024 4660     		str	r6, [r0, #4]	@ unaligned
 757 0026 8660     		str	r6, [r0, #8]	@ unaligned
 758 0028 C660     		str	r6, [r0, #12]	@ unaligned
 759 002a 0661     		str	r6, [r0, #16]	@ unaligned
 760 002c 4661     		str	r6, [r0, #20]	@ unaligned
 761 002e 8661     		str	r6, [r0, #24]	@ unaligned
  96:Drivers/lvgl/src/font/lv_font_loader.c ****             LV_LOG_WARN("Error loading font file: %s\n", font_name);
 762              		.loc 1 96 9 view .LVU239
 763              	.LVL79:
 764              	.LBB98:
 765              	.LBI98:
 483:Drivers/lvgl/src/font/lv_font_loader.c **** {
 766              		.loc 1 483 13 view .LVU240
 767              	.LBB99:
 485:Drivers/lvgl/src/font/lv_font_loader.c ****                                        lv_mem_alloc(sizeof(lv_font_fmt_txt_dsc_t));
 768              		.loc 1 485 5 view .LVU241
 486:Drivers/lvgl/src/font/lv_font_loader.c **** 
 769              		.loc 1 486 40 is_stmt 0 view .LVU242
 770 0030 1820     		movs	r0, #24
 771              	.LVL80:
 486:Drivers/lvgl/src/font/lv_font_loader.c **** 
 772              		.loc 1 486 40 view .LVU243
 773 0032 FFF7FEFF 		bl	lv_mem_alloc
 774              	.LVL81:
 775              	.LBB100:
 776              	.LBB101:
 227:Drivers/lvgl/src/font/lv_font_loader.c **** 
 777              		.loc 1 227 5 view .LVU244
 778 0036 3246     		mov	r2, r6
 779              	.LBE101:
 780              	.LBE100:
 488:Drivers/lvgl/src/font/lv_font_loader.c **** 
 781              		.loc 1 488 5 view .LVU245
 782 0038 0660     		str	r6, [r0]	@ unaligned
 783 003a 4660     		str	r6, [r0, #4]	@ unaligned
 784 003c 8660     		str	r6, [r0, #8]	@ unaligned
 785 003e C660     		str	r6, [r0, #12]	@ unaligned
 786 0040 0661     		str	r6, [r0, #16]	@ unaligned
 787 0042 4661     		str	r6, [r0, #20]	@ unaligned
 788              	.LBB104:
ARM GAS  /var/folders/0z/tsy30v1j4xl4_7kw94k978ww0000gn/T//ccOlCxDD.s 			page 29


 789              	.LBB102:
 227:Drivers/lvgl/src/font/lv_font_loader.c **** 
 790              		.loc 1 227 5 view .LVU246
 791 0044 3146     		mov	r1, r6
 792              	.LBE102:
 793              	.LBE104:
 490:Drivers/lvgl/src/font/lv_font_loader.c **** 
 794              		.loc 1 490 15 view .LVU247
 795 0046 2061     		str	r0, [r4, #16]
 486:Drivers/lvgl/src/font/lv_font_loader.c **** 
 796              		.loc 1 486 40 view .LVU248
 797 0048 0546     		mov	r5, r0
 798              	.LVL82:
 488:Drivers/lvgl/src/font/lv_font_loader.c **** 
 799              		.loc 1 488 5 is_stmt 1 view .LVU249
 490:Drivers/lvgl/src/font/lv_font_loader.c **** 
 800              		.loc 1 490 5 view .LVU250
 493:Drivers/lvgl/src/font/lv_font_loader.c ****     if(header_length < 0) {
 801              		.loc 1 493 5 view .LVU251
 802              	.LBB105:
 803              	.LBI100:
 225:Drivers/lvgl/src/font/lv_font_loader.c **** {
 804              		.loc 1 225 12 view .LVU252
 805              	.LBB103:
 227:Drivers/lvgl/src/font/lv_font_loader.c **** 
 806              		.loc 1 227 5 view .LVU253
 807 004a 11A8     		add	r0, sp, #68
 808              	.LVL83:
 227:Drivers/lvgl/src/font/lv_font_loader.c **** 
 809              		.loc 1 227 5 is_stmt 0 view .LVU254
 810 004c FFF7FEFF 		bl	lv_fs_seek
 811              	.LVL84:
 229:Drivers/lvgl/src/font/lv_font_loader.c ****     char buf[4];
 812              		.loc 1 229 5 is_stmt 1 view .LVU255
 230:Drivers/lvgl/src/font/lv_font_loader.c **** 
 813              		.loc 1 230 5 view .LVU256
 232:Drivers/lvgl/src/font/lv_font_loader.c ****        || lv_fs_read(fp, buf, 4, NULL) != LV_FS_RES_OK
 814              		.loc 1 232 5 view .LVU257
 232:Drivers/lvgl/src/font/lv_font_loader.c ****        || lv_fs_read(fp, buf, 4, NULL) != LV_FS_RES_OK
 815              		.loc 1 232 8 is_stmt 0 view .LVU258
 816 0050 3346     		mov	r3, r6
 817 0052 0422     		movs	r2, #4
 818 0054 0FA9     		add	r1, sp, #60
 819 0056 11A8     		add	r0, sp, #68
 820              	.LVL85:
 232:Drivers/lvgl/src/font/lv_font_loader.c ****        || lv_fs_read(fp, buf, 4, NULL) != LV_FS_RES_OK
 821              		.loc 1 232 8 view .LVU259
 822 0058 FFF7FEFF 		bl	lv_fs_read
 823              	.LVL86:
 232:Drivers/lvgl/src/font/lv_font_loader.c ****        || lv_fs_read(fp, buf, 4, NULL) != LV_FS_RES_OK
 824              		.loc 1 232 7 view .LVU260
 825 005c 0346     		mov	r3, r0
 826 005e B0B9     		cbnz	r0, .L85
 233:Drivers/lvgl/src/font/lv_font_loader.c ****        || memcmp(label, buf, 4) != 0) {
 827              		.loc 1 233 11 view .LVU261
 828 0060 0422     		movs	r2, #4
 829 0062 14A9     		add	r1, sp, #80
ARM GAS  /var/folders/0z/tsy30v1j4xl4_7kw94k978ww0000gn/T//ccOlCxDD.s 			page 30


 830 0064 11A8     		add	r0, sp, #68
 831              	.LVL87:
 233:Drivers/lvgl/src/font/lv_font_loader.c ****        || memcmp(label, buf, 4) != 0) {
 832              		.loc 1 233 11 view .LVU262
 833 0066 FFF7FEFF 		bl	lv_fs_read
 834              	.LVL88:
 233:Drivers/lvgl/src/font/lv_font_loader.c ****        || memcmp(label, buf, 4) != 0) {
 835              		.loc 1 233 8 view .LVU263
 836 006a 80B9     		cbnz	r0, .L85
 234:Drivers/lvgl/src/font/lv_font_loader.c ****         LV_LOG_WARN("Error reading '%s' label.", label);
 837              		.loc 1 234 8 view .LVU264
 838 006c A64B     		ldr	r3, .L289
 839 006e 149A     		ldr	r2, [sp, #80]
 840 0070 9A42     		cmp	r2, r3
 841 0072 0CD1     		bne	.L85
 239:Drivers/lvgl/src/font/lv_font_loader.c **** }
 842              		.loc 1 239 5 is_stmt 1 view .LVU265
 239:Drivers/lvgl/src/font/lv_font_loader.c **** }
 843              		.loc 1 239 12 is_stmt 0 view .LVU266
 844 0074 DDF83C90 		ldr	r9, [sp, #60]
 845              	.LVL89:
 239:Drivers/lvgl/src/font/lv_font_loader.c **** }
 846              		.loc 1 239 12 view .LVU267
 847              	.LBE103:
 848              	.LBE105:
 494:Drivers/lvgl/src/font/lv_font_loader.c ****         return false;
 849              		.loc 1 494 5 is_stmt 1 view .LVU268
 494:Drivers/lvgl/src/font/lv_font_loader.c ****         return false;
 850              		.loc 1 494 7 is_stmt 0 view .LVU269
 851 0078 B9F1000F 		cmp	r9, #0
 852 007c 07DB     		blt	.L85
 498:Drivers/lvgl/src/font/lv_font_loader.c ****     if(lv_fs_read(fp, &font_header, sizeof(font_header_bin_t), NULL) != LV_FS_RES_OK) {
 853              		.loc 1 498 5 is_stmt 1 view .LVU270
 499:Drivers/lvgl/src/font/lv_font_loader.c ****         return false;
 854              		.loc 1 499 5 view .LVU271
 499:Drivers/lvgl/src/font/lv_font_loader.c ****         return false;
 855              		.loc 1 499 8 is_stmt 0 view .LVU272
 856 007e 0346     		mov	r3, r0
 857 0080 14A9     		add	r1, sp, #80
 858 0082 2822     		movs	r2, #40
 859 0084 11A8     		add	r0, sp, #68
 860              	.LVL90:
 499:Drivers/lvgl/src/font/lv_font_loader.c ****         return false;
 861              		.loc 1 499 8 view .LVU273
 862 0086 FFF7FEFF 		bl	lv_fs_read
 863              	.LVL91:
 499:Drivers/lvgl/src/font/lv_font_loader.c ****         return false;
 864              		.loc 1 499 7 view .LVU274
 865 008a 0646     		mov	r6, r0
 866 008c 78B1     		cbz	r0, .L266
 867              	.LVL92:
 868              	.L85:
 499:Drivers/lvgl/src/font/lv_font_loader.c ****         return false;
 869              		.loc 1 499 7 view .LVU275
 870              	.LBE99:
 871              	.LBE98:
  97:Drivers/lvgl/src/font/lv_font_loader.c ****             /*
ARM GAS  /var/folders/0z/tsy30v1j4xl4_7kw94k978ww0000gn/T//ccOlCxDD.s 			page 31


 872              		.loc 1 97 13 is_stmt 1 view .LVU276
  97:Drivers/lvgl/src/font/lv_font_loader.c ****             /*
 873              		.loc 1 97 13 view .LVU277
  97:Drivers/lvgl/src/font/lv_font_loader.c ****             /*
 874              		.loc 1 97 13 view .LVU278
 103:Drivers/lvgl/src/font/lv_font_loader.c ****             font = NULL;
 875              		.loc 1 103 13 view .LVU279
 876 008e 2046     		mov	r0, r4
 877 0090 FFF7FEFF 		bl	lv_font_free
 878              	.LVL93:
 104:Drivers/lvgl/src/font/lv_font_loader.c ****         }
 879              		.loc 1 104 13 view .LVU280
 104:Drivers/lvgl/src/font/lv_font_loader.c ****         }
 880              		.loc 1 104 18 is_stmt 0 view .LVU281
 881 0094 0024     		movs	r4, #0
 882              	.LVL94:
 883              	.L81:
 108:Drivers/lvgl/src/font/lv_font_loader.c **** 
 884              		.loc 1 108 5 is_stmt 1 view .LVU282
 885 0096 11A8     		add	r0, sp, #68
 886 0098 FFF7FEFF 		bl	lv_fs_close
 887              	.LVL95:
 110:Drivers/lvgl/src/font/lv_font_loader.c **** }
 888              		.loc 1 110 5 view .LVU283
 111:Drivers/lvgl/src/font/lv_font_loader.c **** 
 889              		.loc 1 111 1 is_stmt 0 view .LVU284
 890 009c 2046     		mov	r0, r4
 891 009e 1FB0     		add	sp, sp, #124
 892              		.cfi_remember_state
 893              		.cfi_def_cfa_offset 36
 894              		@ sp needed
 895 00a0 BDE8F08F 		pop	{r4, r5, r6, r7, r8, r9, r10, fp, pc}
 896              	.LVL96:
 897              	.L208:
 898              		.cfi_restore_state
  91:Drivers/lvgl/src/font/lv_font_loader.c **** 
 899              		.loc 1 91 16 view .LVU285
 900 00a4 0024     		movs	r4, #0
 111:Drivers/lvgl/src/font/lv_font_loader.c **** 
 901              		.loc 1 111 1 view .LVU286
 902 00a6 2046     		mov	r0, r4
 903              	.LVL97:
 111:Drivers/lvgl/src/font/lv_font_loader.c **** 
 904              		.loc 1 111 1 view .LVU287
 905 00a8 1FB0     		add	sp, sp, #124
 906              		.cfi_remember_state
 907              		.cfi_def_cfa_offset 36
 908              		@ sp needed
 909 00aa BDE8F08F 		pop	{r4, r5, r6, r7, r8, r9, r10, fp, pc}
 910              	.LVL98:
 911              	.L266:
 912              		.cfi_restore_state
 913              	.LBB290:
 914              	.LBB288:
 503:Drivers/lvgl/src/font/lv_font_loader.c ****     font->line_height = font_header.ascent - font_header.descent;
 915              		.loc 1 503 5 is_stmt 1 view .LVU288
 503:Drivers/lvgl/src/font/lv_font_loader.c ****     font->line_height = font_header.ascent - font_header.descent;
ARM GAS  /var/folders/0z/tsy30v1j4xl4_7kw94k978ww0000gn/T//ccOlCxDD.s 			page 32


 916              		.loc 1 503 35 is_stmt 0 view .LVU289
 917 00ae BDF85A30 		ldrh	r3, [sp, #90]
 504:Drivers/lvgl/src/font/lv_font_loader.c ****     font->get_glyph_dsc = lv_font_get_glyph_dsc_fmt_txt;
 918              		.loc 1 504 44 view .LVU290
 919 00b2 BDF85820 		ldrh	r2, [sp, #88]
 920 00b6 D21A     		subs	r2, r2, r3
 503:Drivers/lvgl/src/font/lv_font_loader.c ****     font->line_height = font_header.ascent - font_header.descent;
 921              		.loc 1 503 21 view .LVU291
 922 00b8 5B42     		rsbs	r3, r3, #0
 923 00ba 6381     		strh	r3, [r4, #10]	@ movhi
 504:Drivers/lvgl/src/font/lv_font_loader.c ****     font->get_glyph_dsc = lv_font_get_glyph_dsc_fmt_txt;
 924              		.loc 1 504 5 is_stmt 1 view .LVU292
 505:Drivers/lvgl/src/font/lv_font_loader.c ****     font->get_glyph_bitmap = lv_font_get_bitmap_fmt_txt;
 925              		.loc 1 505 5 view .LVU293
 505:Drivers/lvgl/src/font/lv_font_loader.c ****     font->get_glyph_bitmap = lv_font_get_bitmap_fmt_txt;
 926              		.loc 1 505 25 is_stmt 0 view .LVU294
 927 00bc 934B     		ldr	r3, .L289+4
 928 00be 2360     		str	r3, [r4]
 506:Drivers/lvgl/src/font/lv_font_loader.c ****     font->subpx = font_header.subpixels_mode;
 929              		.loc 1 506 5 is_stmt 1 view .LVU295
 506:Drivers/lvgl/src/font/lv_font_loader.c ****     font->subpx = font_header.subpixels_mode;
 930              		.loc 1 506 28 is_stmt 0 view .LVU296
 931 00c0 934B     		ldr	r3, .L289+8
 932 00c2 6360     		str	r3, [r4, #4]
 507:Drivers/lvgl/src/font/lv_font_loader.c ****     font->underline_position = font_header.underline_position;
 933              		.loc 1 507 5 is_stmt 1 view .LVU297
 504:Drivers/lvgl/src/font/lv_font_loader.c ****     font->get_glyph_dsc = lv_font_get_glyph_dsc_fmt_txt;
 934              		.loc 1 504 23 is_stmt 0 view .LVU298
 935 00c4 2281     		strh	r2, [r4, #8]	@ movhi
 507:Drivers/lvgl/src/font/lv_font_loader.c ****     font->underline_position = font_header.underline_position;
 936              		.loc 1 507 17 view .LVU299
 937 00c6 9DF87220 		ldrb	r2, [sp, #114]	@ zero_extendqisi2
 938 00ca 237B     		ldrb	r3, [r4, #12]	@ zero_extendqisi2
 939 00cc 62F30103 		bfi	r3, r2, #0, #2
 940 00d0 2373     		strb	r3, [r4, #12]
 508:Drivers/lvgl/src/font/lv_font_loader.c ****     font->underline_thickness = font_header.underline_thickness;
 941              		.loc 1 508 5 is_stmt 1 view .LVU300
 508:Drivers/lvgl/src/font/lv_font_loader.c ****     font->underline_thickness = font_header.underline_thickness;
 942              		.loc 1 508 30 is_stmt 0 view .LVU301
 943 00d2 BDF87430 		ldrh	r3, [sp, #116]
 944 00d6 6373     		strb	r3, [r4, #13]
 509:Drivers/lvgl/src/font/lv_font_loader.c **** 
 945              		.loc 1 509 5 is_stmt 1 view .LVU302
 509:Drivers/lvgl/src/font/lv_font_loader.c **** 
 946              		.loc 1 509 31 is_stmt 0 view .LVU303
 947 00d8 BDF87630 		ldrh	r3, [sp, #118]
 948 00dc A373     		strb	r3, [r4, #14]
 511:Drivers/lvgl/src/font/lv_font_loader.c ****     font_dsc->kern_scale = font_header.kerning_scale;
 949              		.loc 1 511 5 is_stmt 1 view .LVU304
 511:Drivers/lvgl/src/font/lv_font_loader.c ****     font_dsc->kern_scale = font_header.kerning_scale;
 950              		.loc 1 511 32 is_stmt 0 view .LVU305
 951 00de 9DF86D30 		ldrb	r3, [sp, #109]	@ zero_extendqisi2
 512:Drivers/lvgl/src/font/lv_font_loader.c ****     font_dsc->bitmap_format = font_header.compression_id;
 952              		.loc 1 512 5 is_stmt 1 view .LVU306
 512:Drivers/lvgl/src/font/lv_font_loader.c ****     font_dsc->bitmap_format = font_header.compression_id;
 953              		.loc 1 512 26 is_stmt 0 view .LVU307
 954 00e2 BDF86820 		ldrh	r2, [sp, #104]
ARM GAS  /var/folders/0z/tsy30v1j4xl4_7kw94k978ww0000gn/T//ccOlCxDD.s 			page 33


 955 00e6 2A82     		strh	r2, [r5, #16]	@ movhi
 513:Drivers/lvgl/src/font/lv_font_loader.c **** 
 956              		.loc 1 513 5 is_stmt 1 view .LVU308
 511:Drivers/lvgl/src/font/lv_font_loader.c ****     font_dsc->kern_scale = font_header.kerning_scale;
 957              		.loc 1 511 19 is_stmt 0 view .LVU309
 958 00e8 9DF87120 		ldrb	r2, [sp, #113]	@ zero_extendqisi2
 959 00ec 5B00     		lsls	r3, r3, #1
 960 00ee 03F01E03 		and	r3, r3, #30
 961 00f2 43EA8213 		orr	r3, r3, r2, lsl #6
 962 00f6 EA7C     		ldrb	r2, [r5, #19]	@ zero_extendqisi2
 963 00f8 02F02102 		and	r2, r2, #33
 964 00fc 1343     		orrs	r3, r3, r2
 965 00fe EB74     		strb	r3, [r5, #19]
 516:Drivers/lvgl/src/font/lv_font_loader.c ****     int32_t cmaps_length = load_cmaps(fp, font_dsc, cmaps_start);
 966              		.loc 1 516 5 is_stmt 1 view .LVU310
 967              	.LVL99:
 517:Drivers/lvgl/src/font/lv_font_loader.c ****     if(cmaps_length < 0) {
 968              		.loc 1 517 5 view .LVU311
 969              	.LBB106:
 970              	.LBI106:
 309:Drivers/lvgl/src/font/lv_font_loader.c **** {
 971              		.loc 1 309 16 view .LVU312
 972              	.LBB107:
 311:Drivers/lvgl/src/font/lv_font_loader.c ****     if(cmaps_length < 0) {
 973              		.loc 1 311 5 view .LVU313
 974              	.LBB108:
 975              	.LBI108:
 225:Drivers/lvgl/src/font/lv_font_loader.c **** {
 976              		.loc 1 225 12 view .LVU314
 977              	.LBB109:
 227:Drivers/lvgl/src/font/lv_font_loader.c **** 
 978              		.loc 1 227 5 view .LVU315
 979 0100 0246     		mov	r2, r0
 980 0102 4946     		mov	r1, r9
 981 0104 11A8     		add	r0, sp, #68
 982              	.LVL100:
 227:Drivers/lvgl/src/font/lv_font_loader.c **** 
 983              		.loc 1 227 5 is_stmt 0 view .LVU316
 984 0106 FFF7FEFF 		bl	lv_fs_seek
 985              	.LVL101:
 229:Drivers/lvgl/src/font/lv_font_loader.c ****     char buf[4];
 986              		.loc 1 229 5 is_stmt 1 view .LVU317
 230:Drivers/lvgl/src/font/lv_font_loader.c **** 
 987              		.loc 1 230 5 view .LVU318
 232:Drivers/lvgl/src/font/lv_font_loader.c ****        || lv_fs_read(fp, buf, 4, NULL) != LV_FS_RES_OK
 988              		.loc 1 232 5 view .LVU319
 232:Drivers/lvgl/src/font/lv_font_loader.c ****        || lv_fs_read(fp, buf, 4, NULL) != LV_FS_RES_OK
 989              		.loc 1 232 8 is_stmt 0 view .LVU320
 990 010a 3346     		mov	r3, r6
 991 010c 0422     		movs	r2, #4
 992 010e 0EA9     		add	r1, sp, #56
 993 0110 11A8     		add	r0, sp, #68
 994              	.LVL102:
 232:Drivers/lvgl/src/font/lv_font_loader.c ****        || lv_fs_read(fp, buf, 4, NULL) != LV_FS_RES_OK
 995              		.loc 1 232 8 view .LVU321
 996 0112 FFF7FEFF 		bl	lv_fs_read
 997              	.LVL103:
ARM GAS  /var/folders/0z/tsy30v1j4xl4_7kw94k978ww0000gn/T//ccOlCxDD.s 			page 34


 232:Drivers/lvgl/src/font/lv_font_loader.c ****        || lv_fs_read(fp, buf, 4, NULL) != LV_FS_RES_OK
 998              		.loc 1 232 7 view .LVU322
 999 0116 0346     		mov	r3, r0
 1000 0118 0028     		cmp	r0, #0
 1001 011a B8D1     		bne	.L85
 233:Drivers/lvgl/src/font/lv_font_loader.c ****        || memcmp(label, buf, 4) != 0) {
 1002              		.loc 1 233 11 view .LVU323
 1003 011c 0422     		movs	r2, #4
 1004 011e 0FA9     		add	r1, sp, #60
 1005 0120 11A8     		add	r0, sp, #68
 1006              	.LVL104:
 233:Drivers/lvgl/src/font/lv_font_loader.c ****        || memcmp(label, buf, 4) != 0) {
 1007              		.loc 1 233 11 view .LVU324
 1008 0122 FFF7FEFF 		bl	lv_fs_read
 1009              	.LVL105:
 233:Drivers/lvgl/src/font/lv_font_loader.c ****        || memcmp(label, buf, 4) != 0) {
 1010              		.loc 1 233 8 view .LVU325
 1011 0126 0028     		cmp	r0, #0
 1012 0128 B1D1     		bne	.L85
 234:Drivers/lvgl/src/font/lv_font_loader.c ****         LV_LOG_WARN("Error reading '%s' label.", label);
 1013              		.loc 1 234 8 view .LVU326
 1014 012a 7A4B     		ldr	r3, .L289+12
 1015 012c 0F9A     		ldr	r2, [sp, #60]
 1016 012e 9A42     		cmp	r2, r3
 1017 0130 ADD1     		bne	.L85
 239:Drivers/lvgl/src/font/lv_font_loader.c **** }
 1018              		.loc 1 239 5 is_stmt 1 view .LVU327
 239:Drivers/lvgl/src/font/lv_font_loader.c **** }
 1019              		.loc 1 239 12 is_stmt 0 view .LVU328
 1020 0132 DDF838B0 		ldr	fp, [sp, #56]
 1021              	.LVL106:
 239:Drivers/lvgl/src/font/lv_font_loader.c **** }
 1022              		.loc 1 239 12 view .LVU329
 1023              	.LBE109:
 1024              	.LBE108:
 312:Drivers/lvgl/src/font/lv_font_loader.c ****         return -1;
 1025              		.loc 1 312 5 is_stmt 1 view .LVU330
 312:Drivers/lvgl/src/font/lv_font_loader.c ****         return -1;
 1026              		.loc 1 312 7 is_stmt 0 view .LVU331
 1027 0136 BBF1000F 		cmp	fp, #0
 1028 013a A8DB     		blt	.L85
 316:Drivers/lvgl/src/font/lv_font_loader.c ****     if(lv_fs_read(fp, &cmaps_subtables_count, sizeof(uint32_t), NULL) != LV_FS_RES_OK) {
 1029              		.loc 1 316 5 is_stmt 1 view .LVU332
 317:Drivers/lvgl/src/font/lv_font_loader.c ****         return -1;
 1030              		.loc 1 317 5 view .LVU333
 317:Drivers/lvgl/src/font/lv_font_loader.c ****         return -1;
 1031              		.loc 1 317 8 is_stmt 0 view .LVU334
 1032 013c 0023     		movs	r3, #0
 1033 013e 0422     		movs	r2, #4
 1034 0140 0FA9     		add	r1, sp, #60
 1035 0142 11A8     		add	r0, sp, #68
 1036              	.LVL107:
 317:Drivers/lvgl/src/font/lv_font_loader.c ****         return -1;
 1037              		.loc 1 317 8 view .LVU335
 1038 0144 FFF7FEFF 		bl	lv_fs_read
 1039              	.LVL108:
 317:Drivers/lvgl/src/font/lv_font_loader.c ****         return -1;
ARM GAS  /var/folders/0z/tsy30v1j4xl4_7kw94k978ww0000gn/T//ccOlCxDD.s 			page 35


 1040              		.loc 1 317 7 view .LVU336
 1041 0148 0646     		mov	r6, r0
 1042 014a 0028     		cmp	r0, #0
 1043 014c 9FD1     		bne	.L85
 321:Drivers/lvgl/src/font/lv_font_loader.c ****         lv_mem_alloc(cmaps_subtables_count * sizeof(lv_font_fmt_txt_cmap_t));
 1044              		.loc 1 321 5 is_stmt 1 view .LVU337
 322:Drivers/lvgl/src/font/lv_font_loader.c **** 
 1045              		.loc 1 322 44 is_stmt 0 view .LVU338
 1046 014e 0F98     		ldr	r0, [sp, #60]
 1047 0150 00EB8000 		add	r0, r0, r0, lsl #2
 322:Drivers/lvgl/src/font/lv_font_loader.c **** 
 1048              		.loc 1 322 9 view .LVU339
 1049 0154 8000     		lsls	r0, r0, #2
 1050 0156 FFF7FEFF 		bl	lv_mem_alloc
 1051              	.LVL109:
 324:Drivers/lvgl/src/font/lv_font_loader.c **** 
 1052              		.loc 1 324 44 view .LVU340
 1053 015a 0F9A     		ldr	r2, [sp, #60]
 1054 015c 02EB8202 		add	r2, r2, r2, lsl #2
 324:Drivers/lvgl/src/font/lv_font_loader.c **** 
 1055              		.loc 1 324 5 view .LVU341
 1056 0160 9200     		lsls	r2, r2, #2
 1057 0162 3146     		mov	r1, r6
 322:Drivers/lvgl/src/font/lv_font_loader.c **** 
 1058              		.loc 1 322 9 view .LVU342
 1059 0164 0746     		mov	r7, r0
 1060              	.LVL110:
 324:Drivers/lvgl/src/font/lv_font_loader.c **** 
 1061              		.loc 1 324 5 is_stmt 1 view .LVU343
 1062 0166 FFF7FEFF 		bl	memset
 1063              	.LVL111:
 326:Drivers/lvgl/src/font/lv_font_loader.c ****     font_dsc->cmap_num = cmaps_subtables_count;
 1064              		.loc 1 326 5 view .LVU344
 327:Drivers/lvgl/src/font/lv_font_loader.c **** 
 1065              		.loc 1 327 24 is_stmt 0 view .LVU345
 1066 016a 0F98     		ldr	r0, [sp, #60]
 1067 016c 6B8A     		ldrh	r3, [r5, #18]
 326:Drivers/lvgl/src/font/lv_font_loader.c ****     font_dsc->cmap_num = cmaps_subtables_count;
 1068              		.loc 1 326 21 view .LVU346
 1069 016e AF60     		str	r7, [r5, #8]
 327:Drivers/lvgl/src/font/lv_font_loader.c **** 
 1070              		.loc 1 327 5 is_stmt 1 view .LVU347
 327:Drivers/lvgl/src/font/lv_font_loader.c **** 
 1071              		.loc 1 327 24 is_stmt 0 view .LVU348
 1072 0170 60F30803 		bfi	r3, r0, #0, #9
 329:Drivers/lvgl/src/font/lv_font_loader.c **** 
 1073              		.loc 1 329 39 view .LVU349
 1074 0174 C0F30800 		ubfx	r0, r0, #0, #9
 327:Drivers/lvgl/src/font/lv_font_loader.c **** 
 1075              		.loc 1 327 24 view .LVU350
 1076 0178 6B82     		strh	r3, [r5, #18]	@ movhi
 329:Drivers/lvgl/src/font/lv_font_loader.c **** 
 1077              		.loc 1 329 5 is_stmt 1 view .LVU351
 329:Drivers/lvgl/src/font/lv_font_loader.c **** 
 1078              		.loc 1 329 39 is_stmt 0 view .LVU352
 1079 017a 0001     		lsls	r0, r0, #4
 1080 017c FFF7FEFF 		bl	lv_mem_alloc
ARM GAS  /var/folders/0z/tsy30v1j4xl4_7kw94k978ww0000gn/T//ccOlCxDD.s 			page 36


 1081              	.LVL112:
 1082              	.LBB110:
 1083              	.LBB111:
 245:Drivers/lvgl/src/font/lv_font_loader.c ****         return false;
 1084              		.loc 1 245 43 view .LVU353
 1085 0180 6A8A     		ldrh	r2, [r5, #18]
 245:Drivers/lvgl/src/font/lv_font_loader.c ****         return false;
 1086              		.loc 1 245 54 view .LVU354
 1087 0182 C2F30802 		ubfx	r2, r2, #0, #9
 1088              	.LBE111:
 1089              	.LBE110:
 329:Drivers/lvgl/src/font/lv_font_loader.c **** 
 1090              		.loc 1 329 39 view .LVU355
 1091 0186 8246     		mov	r10, r0
 1092              	.LVL113:
 331:Drivers/lvgl/src/font/lv_font_loader.c **** 
 1093              		.loc 1 331 5 is_stmt 1 view .LVU356
 1094              	.LBB122:
 1095              	.LBI110:
 242:Drivers/lvgl/src/font/lv_font_loader.c ****                               uint32_t cmaps_start, cmap_table_bin_t * cmap_table)
 1096              		.loc 1 242 13 view .LVU357
 1097              	.LBB120:
 245:Drivers/lvgl/src/font/lv_font_loader.c ****         return false;
 1098              		.loc 1 245 5 view .LVU358
 245:Drivers/lvgl/src/font/lv_font_loader.c ****         return false;
 1099              		.loc 1 245 8 is_stmt 0 view .LVU359
 1100 0188 0146     		mov	r1, r0
 1101 018a 3346     		mov	r3, r6
 1102 018c 1201     		lsls	r2, r2, #4
 1103 018e 11A8     		add	r0, sp, #68
 1104              	.LVL114:
 245:Drivers/lvgl/src/font/lv_font_loader.c ****         return false;
 1105              		.loc 1 245 8 view .LVU360
 1106 0190 FFF7FEFF 		bl	lv_fs_read
 1107              	.LVL115:
 245:Drivers/lvgl/src/font/lv_font_loader.c ****         return false;
 1108              		.loc 1 245 7 view .LVU361
 1109 0194 0028     		cmp	r0, #0
 1110 0196 40F0B280 		bne	.L94
 1111              	.LVL116:
 1112              	.LBB112:
 249:Drivers/lvgl/src/font/lv_font_loader.c ****         lv_fs_res_t res = lv_fs_seek(fp, cmaps_start + cmap_table[i].data_offset, LV_FS_SEEK_SET);
 1113              		.loc 1 249 31 is_stmt 1 view .LVU362
 249:Drivers/lvgl/src/font/lv_font_loader.c ****         lv_fs_res_t res = lv_fs_seek(fp, cmaps_start + cmap_table[i].data_offset, LV_FS_SEEK_SET);
 1114              		.loc 1 249 41 is_stmt 0 view .LVU363
 1115 019a 6B8A     		ldrh	r3, [r5, #18]
 249:Drivers/lvgl/src/font/lv_font_loader.c ****         lv_fs_res_t res = lv_fs_seek(fp, cmaps_start + cmap_table[i].data_offset, LV_FS_SEEK_SET);
 1116              		.loc 1 249 31 view .LVU364
 1117 019c C3F30803 		ubfx	r3, r3, #0, #9
 1118 01a0 002B     		cmp	r3, #0
 1119 01a2 3AD0     		beq	.L93
 249:Drivers/lvgl/src/font/lv_font_loader.c ****         lv_fs_res_t res = lv_fs_seek(fp, cmaps_start + cmap_table[i].data_offset, LV_FS_SEEK_SET);
 1120              		.loc 1 249 22 view .LVU365
 1121 01a4 8046     		mov	r8, r0
 1122 01a6 5746     		mov	r7, r10
 1123              	.LVL117:
 1124              	.L102:
ARM GAS  /var/folders/0z/tsy30v1j4xl4_7kw94k978ww0000gn/T//ccOlCxDD.s 			page 37


 1125              	.LBB113:
 250:Drivers/lvgl/src/font/lv_font_loader.c ****         if(res != LV_FS_RES_OK) {
 1126              		.loc 1 250 9 is_stmt 1 view .LVU366
 250:Drivers/lvgl/src/font/lv_font_loader.c ****         if(res != LV_FS_RES_OK) {
 1127              		.loc 1 250 27 is_stmt 0 view .LVU367
 1128 01a8 3968     		ldr	r1, [r7]
 1129 01aa 0022     		movs	r2, #0
 1130 01ac 4944     		add	r1, r1, r9
 1131 01ae 11A8     		add	r0, sp, #68
 1132              	.LVL118:
 250:Drivers/lvgl/src/font/lv_font_loader.c ****         if(res != LV_FS_RES_OK) {
 1133              		.loc 1 250 27 view .LVU368
 1134 01b0 FFF7FEFF 		bl	lv_fs_seek
 1135              	.LVL119:
 255:Drivers/lvgl/src/font/lv_font_loader.c **** 
 1136              		.loc 1 255 9 is_stmt 1 view .LVU369
 251:Drivers/lvgl/src/font/lv_font_loader.c ****             return false;
 1137              		.loc 1 251 9 view .LVU370
 255:Drivers/lvgl/src/font/lv_font_loader.c **** 
 1138              		.loc 1 255 34 is_stmt 0 view .LVU371
 1139 01b4 08EB8803 		add	r3, r8, r8, lsl #2
 251:Drivers/lvgl/src/font/lv_font_loader.c ****             return false;
 1140              		.loc 1 251 11 view .LVU372
 1141 01b8 0028     		cmp	r0, #0
 1142 01ba 40F0A080 		bne	.L94
 255:Drivers/lvgl/src/font/lv_font_loader.c **** 
 1143              		.loc 1 255 34 view .LVU373
 1144 01be AE68     		ldr	r6, [r5, #8]
 257:Drivers/lvgl/src/font/lv_font_loader.c ****         cmap->range_length = cmap_table[i].range_length;
 1145              		.loc 1 257 42 view .LVU374
 1146 01c0 7A68     		ldr	r2, [r7, #4]
 257:Drivers/lvgl/src/font/lv_font_loader.c ****         cmap->range_length = cmap_table[i].range_length;
 1147              		.loc 1 257 27 view .LVU375
 1148 01c2 46F82320 		str	r2, [r6, r3, lsl #2]
 255:Drivers/lvgl/src/font/lv_font_loader.c **** 
 1149              		.loc 1 255 34 view .LVU376
 1150 01c6 06EB8306 		add	r6, r6, r3, lsl #2
 1151              	.LVL120:
 257:Drivers/lvgl/src/font/lv_font_loader.c ****         cmap->range_length = cmap_table[i].range_length;
 1152              		.loc 1 257 9 is_stmt 1 view .LVU377
 258:Drivers/lvgl/src/font/lv_font_loader.c ****         cmap->glyph_id_start = cmap_table[i].glyph_id_start;
 1153              		.loc 1 258 9 view .LVU378
 258:Drivers/lvgl/src/font/lv_font_loader.c ****         cmap->glyph_id_start = cmap_table[i].glyph_id_start;
 1154              		.loc 1 258 43 is_stmt 0 view .LVU379
 1155 01ca BB68     		ldr	r3, [r7, #8]
 259:Drivers/lvgl/src/font/lv_font_loader.c ****         cmap->type = cmap_table[i].format_type;
 1156              		.loc 1 259 9 is_stmt 1 view .LVU380
 258:Drivers/lvgl/src/font/lv_font_loader.c ****         cmap->glyph_id_start = cmap_table[i].glyph_id_start;
 1157              		.loc 1 258 28 is_stmt 0 view .LVU381
 1158 01cc 7360     		str	r3, [r6, #4]
 260:Drivers/lvgl/src/font/lv_font_loader.c **** 
 1159              		.loc 1 260 9 is_stmt 1 view .LVU382
 260:Drivers/lvgl/src/font/lv_font_loader.c **** 
 1160              		.loc 1 260 35 is_stmt 0 view .LVU383
 1161 01ce BB7B     		ldrb	r3, [r7, #14]	@ zero_extendqisi2
 260:Drivers/lvgl/src/font/lv_font_loader.c **** 
 1162              		.loc 1 260 20 view .LVU384
ARM GAS  /var/folders/0z/tsy30v1j4xl4_7kw94k978ww0000gn/T//ccOlCxDD.s 			page 38


 1163 01d0 B374     		strb	r3, [r6, #18]
 262:Drivers/lvgl/src/font/lv_font_loader.c ****             case LV_FONT_FMT_TXT_CMAP_FORMAT0_FULL: {
 1164              		.loc 1 262 9 is_stmt 1 view .LVU385
 1165 01d2 032B     		cmp	r3, #3
 1166 01d4 00F29380 		bhi	.L94
 1167 01d8 DFE803F0 		tbb	[pc, r3]
 1168              	.L97:
 1169 01dc 72       		.byte	(.L99-.L97)/2
 1170 01dd 02       		.byte	(.L96-.L97)/2
 1171 01de 16       		.byte	(.L98-.L97)/2
 1172 01df 02       		.byte	(.L96-.L97)/2
 1173              		.p2align 1
 1174              	.L96:
 1175              	.LBB114:
 280:Drivers/lvgl/src/font/lv_font_loader.c ****                     uint16_t * unicode_list = (uint16_t *)lv_mem_alloc(list_size);
 1176              		.loc 1 280 21 view .LVU386
 280:Drivers/lvgl/src/font/lv_font_loader.c ****                     uint16_t * unicode_list = (uint16_t *)lv_mem_alloc(list_size);
 1177              		.loc 1 280 74 is_stmt 0 view .LVU387
 1178 01e0 BA89     		ldrh	r2, [r7, #12]
 280:Drivers/lvgl/src/font/lv_font_loader.c ****                     uint16_t * unicode_list = (uint16_t *)lv_mem_alloc(list_size);
 1179              		.loc 1 280 30 view .LVU388
 1180 01e2 5200     		lsls	r2, r2, #1
 1181              	.LVL121:
 281:Drivers/lvgl/src/font/lv_font_loader.c **** 
 1182              		.loc 1 281 21 is_stmt 1 view .LVU389
 281:Drivers/lvgl/src/font/lv_font_loader.c **** 
 1183              		.loc 1 281 59 is_stmt 0 view .LVU390
 1184 01e4 1046     		mov	r0, r2
 1185              	.LVL122:
 281:Drivers/lvgl/src/font/lv_font_loader.c **** 
 1186              		.loc 1 281 59 view .LVU391
 1187 01e6 0192     		str	r2, [sp, #4]
 1188 01e8 FFF7FEFF 		bl	lv_mem_alloc
 1189              	.LVL123:
 284:Drivers/lvgl/src/font/lv_font_loader.c **** 
 1190              		.loc 1 284 54 view .LVU392
 1191 01ec BB89     		ldrh	r3, [r7, #12]
 283:Drivers/lvgl/src/font/lv_font_loader.c ****                     cmap->list_length = cmap_table[i].data_entries_count;
 1192              		.loc 1 283 40 view .LVU393
 1193 01ee B060     		str	r0, [r6, #8]
 281:Drivers/lvgl/src/font/lv_font_loader.c **** 
 1194              		.loc 1 281 59 view .LVU394
 1195 01f0 0146     		mov	r1, r0
 1196              	.LVL124:
 283:Drivers/lvgl/src/font/lv_font_loader.c ****                     cmap->list_length = cmap_table[i].data_entries_count;
 1197              		.loc 1 283 21 is_stmt 1 view .LVU395
 284:Drivers/lvgl/src/font/lv_font_loader.c **** 
 1198              		.loc 1 284 21 view .LVU396
 284:Drivers/lvgl/src/font/lv_font_loader.c **** 
 1199              		.loc 1 284 39 is_stmt 0 view .LVU397
 1200 01f2 3382     		strh	r3, [r6, #16]	@ movhi
 286:Drivers/lvgl/src/font/lv_font_loader.c ****                         return false;
 1201              		.loc 1 286 21 is_stmt 1 view .LVU398
 286:Drivers/lvgl/src/font/lv_font_loader.c ****                         return false;
 1202              		.loc 1 286 24 is_stmt 0 view .LVU399
 1203 01f4 019A     		ldr	r2, [sp, #4]
 1204 01f6 0023     		movs	r3, #0
ARM GAS  /var/folders/0z/tsy30v1j4xl4_7kw94k978ww0000gn/T//ccOlCxDD.s 			page 39


 1205 01f8 11A8     		add	r0, sp, #68
 1206              	.LVL125:
 286:Drivers/lvgl/src/font/lv_font_loader.c ****                         return false;
 1207              		.loc 1 286 24 view .LVU400
 1208 01fa FFF7FEFF 		bl	lv_fs_read
 1209              	.LVL126:
 290:Drivers/lvgl/src/font/lv_font_loader.c ****                         uint16_t * buf = lv_mem_alloc(sizeof(uint16_t) * cmap->list_length);
 1210              		.loc 1 290 21 is_stmt 1 view .LVU401
 286:Drivers/lvgl/src/font/lv_font_loader.c ****                         return false;
 1211              		.loc 1 286 23 is_stmt 0 view .LVU402
 1212 01fe 0028     		cmp	r0, #0
 1213 0200 7DD1     		bne	.L94
 290:Drivers/lvgl/src/font/lv_font_loader.c ****                         uint16_t * buf = lv_mem_alloc(sizeof(uint16_t) * cmap->list_length);
 1214              		.loc 1 290 23 view .LVU403
 1215 0202 BA7B     		ldrb	r2, [r7, #14]	@ zero_extendqisi2
 1216 0204 012A     		cmp	r2, #1
 1217 0206 6BD0     		beq	.L267
 1218              	.LVL127:
 1219              	.L98:
 290:Drivers/lvgl/src/font/lv_font_loader.c ****                         uint16_t * buf = lv_mem_alloc(sizeof(uint16_t) * cmap->list_length);
 1220              		.loc 1 290 23 view .LVU404
 1221              	.LBE114:
 1222              	.LBE113:
 249:Drivers/lvgl/src/font/lv_font_loader.c ****         lv_fs_res_t res = lv_fs_seek(fp, cmaps_start + cmap_table[i].data_offset, LV_FS_SEEK_SET);
 1223              		.loc 1 249 53 is_stmt 1 view .LVU405
 249:Drivers/lvgl/src/font/lv_font_loader.c ****         lv_fs_res_t res = lv_fs_seek(fp, cmaps_start + cmap_table[i].data_offset, LV_FS_SEEK_SET);
 1224              		.loc 1 249 41 is_stmt 0 view .LVU406
 1225 0208 6B8A     		ldrh	r3, [r5, #18]
 249:Drivers/lvgl/src/font/lv_font_loader.c ****         lv_fs_res_t res = lv_fs_seek(fp, cmaps_start + cmap_table[i].data_offset, LV_FS_SEEK_SET);
 1226              		.loc 1 249 53 view .LVU407
 1227 020a 08F10108 		add	r8, r8, #1
 1228              	.LVL128:
 249:Drivers/lvgl/src/font/lv_font_loader.c ****         lv_fs_res_t res = lv_fs_seek(fp, cmaps_start + cmap_table[i].data_offset, LV_FS_SEEK_SET);
 1229              		.loc 1 249 31 is_stmt 1 view .LVU408
 249:Drivers/lvgl/src/font/lv_font_loader.c ****         lv_fs_res_t res = lv_fs_seek(fp, cmaps_start + cmap_table[i].data_offset, LV_FS_SEEK_SET);
 1230              		.loc 1 249 41 is_stmt 0 view .LVU409
 1231 020e C3F30803 		ubfx	r3, r3, #0, #9
 249:Drivers/lvgl/src/font/lv_font_loader.c ****         lv_fs_res_t res = lv_fs_seek(fp, cmaps_start + cmap_table[i].data_offset, LV_FS_SEEK_SET);
 1232              		.loc 1 249 31 view .LVU410
 1233 0212 9845     		cmp	r8, r3
 1234 0214 07F11007 		add	r7, r7, #16
 1235 0218 C6D3     		bcc	.L102
 1236              	.LVL129:
 1237              	.L93:
 249:Drivers/lvgl/src/font/lv_font_loader.c ****         lv_fs_res_t res = lv_fs_seek(fp, cmaps_start + cmap_table[i].data_offset, LV_FS_SEEK_SET);
 1238              		.loc 1 249 31 view .LVU411
 1239              	.LBE112:
 1240              	.LBE120:
 1241              	.LBE122:
 333:Drivers/lvgl/src/font/lv_font_loader.c **** 
 1242              		.loc 1 333 5 is_stmt 1 view .LVU412
 1243 021a 5046     		mov	r0, r10
 1244              	.LBE107:
 1245              	.LBE106:
 523:Drivers/lvgl/src/font/lv_font_loader.c ****     int32_t loca_length = read_label(fp, loca_start, "loca");
 1246              		.loc 1 523 14 is_stmt 0 view .LVU413
 1247 021c CB44     		add	fp, fp, r9
ARM GAS  /var/folders/0z/tsy30v1j4xl4_7kw94k978ww0000gn/T//ccOlCxDD.s 			page 40


 1248              	.LVL130:
 1249              	.LBB126:
 1250              	.LBB124:
 333:Drivers/lvgl/src/font/lv_font_loader.c **** 
 1251              		.loc 1 333 5 view .LVU414
 1252 021e FFF7FEFF 		bl	lv_mem_free
 1253              	.LVL131:
 335:Drivers/lvgl/src/font/lv_font_loader.c **** }
 1254              		.loc 1 335 5 is_stmt 1 view .LVU415
 335:Drivers/lvgl/src/font/lv_font_loader.c **** }
 1255              		.loc 1 335 5 is_stmt 0 view .LVU416
 1256              	.LBE124:
 1257              	.LBE126:
 518:Drivers/lvgl/src/font/lv_font_loader.c ****         return false;
 1258              		.loc 1 518 5 is_stmt 1 view .LVU417
 523:Drivers/lvgl/src/font/lv_font_loader.c ****     int32_t loca_length = read_label(fp, loca_start, "loca");
 1259              		.loc 1 523 5 view .LVU418
 524:Drivers/lvgl/src/font/lv_font_loader.c ****     if(loca_length < 0) {
 1260              		.loc 1 524 5 view .LVU419
 1261              	.LBB127:
 1262              	.LBI127:
 225:Drivers/lvgl/src/font/lv_font_loader.c **** {
 1263              		.loc 1 225 12 view .LVU420
 1264              	.LBB128:
 227:Drivers/lvgl/src/font/lv_font_loader.c **** 
 1265              		.loc 1 227 5 view .LVU421
 1266 0222 0022     		movs	r2, #0
 1267 0224 5946     		mov	r1, fp
 1268 0226 11A8     		add	r0, sp, #68
 1269              	.LVL132:
 227:Drivers/lvgl/src/font/lv_font_loader.c **** 
 1270              		.loc 1 227 5 is_stmt 0 view .LVU422
 1271 0228 FFF7FEFF 		bl	lv_fs_seek
 1272              	.LVL133:
 229:Drivers/lvgl/src/font/lv_font_loader.c ****     char buf[4];
 1273              		.loc 1 229 5 is_stmt 1 view .LVU423
 230:Drivers/lvgl/src/font/lv_font_loader.c **** 
 1274              		.loc 1 230 5 view .LVU424
 232:Drivers/lvgl/src/font/lv_font_loader.c ****        || lv_fs_read(fp, buf, 4, NULL) != LV_FS_RES_OK
 1275              		.loc 1 232 5 view .LVU425
 232:Drivers/lvgl/src/font/lv_font_loader.c ****        || lv_fs_read(fp, buf, 4, NULL) != LV_FS_RES_OK
 1276              		.loc 1 232 8 is_stmt 0 view .LVU426
 1277 022c 0023     		movs	r3, #0
 1278 022e 0422     		movs	r2, #4
 1279 0230 0EA9     		add	r1, sp, #56
 1280 0232 11A8     		add	r0, sp, #68
 1281              	.LVL134:
 232:Drivers/lvgl/src/font/lv_font_loader.c ****        || lv_fs_read(fp, buf, 4, NULL) != LV_FS_RES_OK
 1282              		.loc 1 232 8 view .LVU427
 1283 0234 FFF7FEFF 		bl	lv_fs_read
 1284              	.LVL135:
 232:Drivers/lvgl/src/font/lv_font_loader.c ****        || lv_fs_read(fp, buf, 4, NULL) != LV_FS_RES_OK
 1285              		.loc 1 232 7 view .LVU428
 1286 0238 0346     		mov	r3, r0
 1287 023a 0028     		cmp	r0, #0
 1288 023c 7FF427AF 		bne	.L85
 233:Drivers/lvgl/src/font/lv_font_loader.c ****        || memcmp(label, buf, 4) != 0) {
ARM GAS  /var/folders/0z/tsy30v1j4xl4_7kw94k978ww0000gn/T//ccOlCxDD.s 			page 41


 1289              		.loc 1 233 11 view .LVU429
 1290 0240 0422     		movs	r2, #4
 1291 0242 0FA9     		add	r1, sp, #60
 1292 0244 11A8     		add	r0, sp, #68
 1293              	.LVL136:
 233:Drivers/lvgl/src/font/lv_font_loader.c ****        || memcmp(label, buf, 4) != 0) {
 1294              		.loc 1 233 11 view .LVU430
 1295 0246 FFF7FEFF 		bl	lv_fs_read
 1296              	.LVL137:
 233:Drivers/lvgl/src/font/lv_font_loader.c ****        || memcmp(label, buf, 4) != 0) {
 1297              		.loc 1 233 8 view .LVU431
 1298 024a 0028     		cmp	r0, #0
 1299 024c 7FF41FAF 		bne	.L85
 234:Drivers/lvgl/src/font/lv_font_loader.c ****         LV_LOG_WARN("Error reading '%s' label.", label);
 1300              		.loc 1 234 8 view .LVU432
 1301 0250 314B     		ldr	r3, .L289+16
 1302 0252 0F9A     		ldr	r2, [sp, #60]
 1303 0254 9A42     		cmp	r2, r3
 1304 0256 7FF41AAF 		bne	.L85
 239:Drivers/lvgl/src/font/lv_font_loader.c **** }
 1305              		.loc 1 239 5 is_stmt 1 view .LVU433
 239:Drivers/lvgl/src/font/lv_font_loader.c **** }
 1306              		.loc 1 239 12 is_stmt 0 view .LVU434
 1307 025a 0E9F     		ldr	r7, [sp, #56]
 1308              	.LVL138:
 239:Drivers/lvgl/src/font/lv_font_loader.c **** }
 1309              		.loc 1 239 12 view .LVU435
 1310              	.LBE128:
 1311              	.LBE127:
 525:Drivers/lvgl/src/font/lv_font_loader.c ****         return false;
 1312              		.loc 1 525 5 is_stmt 1 view .LVU436
 525:Drivers/lvgl/src/font/lv_font_loader.c ****         return false;
 1313              		.loc 1 525 7 is_stmt 0 view .LVU437
 1314 025c 002F     		cmp	r7, #0
 1315 025e FFF616AF 		blt	.L85
 529:Drivers/lvgl/src/font/lv_font_loader.c ****     if(lv_fs_read(fp, &loca_count, sizeof(uint32_t), NULL) != LV_FS_RES_OK) {
 1316              		.loc 1 529 5 is_stmt 1 view .LVU438
 530:Drivers/lvgl/src/font/lv_font_loader.c ****         return false;
 1317              		.loc 1 530 5 view .LVU439
 530:Drivers/lvgl/src/font/lv_font_loader.c ****         return false;
 1318              		.loc 1 530 8 is_stmt 0 view .LVU440
 1319 0262 0346     		mov	r3, r0
 1320 0264 0422     		movs	r2, #4
 1321 0266 0DA9     		add	r1, sp, #52
 1322 0268 11A8     		add	r0, sp, #68
 1323              	.LVL139:
 530:Drivers/lvgl/src/font/lv_font_loader.c ****         return false;
 1324              		.loc 1 530 8 view .LVU441
 1325 026a FFF7FEFF 		bl	lv_fs_read
 1326              	.LVL140:
 530:Drivers/lvgl/src/font/lv_font_loader.c ****         return false;
 1327              		.loc 1 530 7 view .LVU442
 1328 026e 8046     		mov	r8, r0
 1329 0270 0028     		cmp	r0, #0
 1330 0272 7FF40CAF 		bne	.L85
 534:Drivers/lvgl/src/font/lv_font_loader.c ****     uint32_t * glyph_offset = lv_mem_alloc(sizeof(uint32_t) * (loca_count + 1));
 1331              		.loc 1 534 5 is_stmt 1 view .LVU443
ARM GAS  /var/folders/0z/tsy30v1j4xl4_7kw94k978ww0000gn/T//ccOlCxDD.s 			page 42


 1332              	.LVL141:
 535:Drivers/lvgl/src/font/lv_font_loader.c **** 
 1333              		.loc 1 535 5 view .LVU444
 535:Drivers/lvgl/src/font/lv_font_loader.c **** 
 1334              		.loc 1 535 75 is_stmt 0 view .LVU445
 1335 0276 0D98     		ldr	r0, [sp, #52]
 1336 0278 0130     		adds	r0, r0, #1
 535:Drivers/lvgl/src/font/lv_font_loader.c **** 
 1337              		.loc 1 535 31 view .LVU446
 1338 027a 8000     		lsls	r0, r0, #2
 1339 027c FFF7FEFF 		bl	lv_mem_alloc
 1340              	.LVL142:
 537:Drivers/lvgl/src/font/lv_font_loader.c ****         for(unsigned int i = 0; i < loca_count; ++i) {
 1341              		.loc 1 537 19 view .LVU447
 1342 0280 9DF86A60 		ldrb	r6, [sp, #106]	@ zero_extendqisi2
 535:Drivers/lvgl/src/font/lv_font_loader.c **** 
 1343              		.loc 1 535 31 view .LVU448
 1344 0284 0590     		str	r0, [sp, #20]
 1345              	.LVL143:
 537:Drivers/lvgl/src/font/lv_font_loader.c ****         for(unsigned int i = 0; i < loca_count; ++i) {
 1346              		.loc 1 537 5 is_stmt 1 view .LVU449
 537:Drivers/lvgl/src/font/lv_font_loader.c ****         for(unsigned int i = 0; i < loca_count; ++i) {
 1347              		.loc 1 537 7 is_stmt 0 view .LVU450
 1348 0286 002E     		cmp	r6, #0
 1349 0288 48D1     		bne	.L105
 1350              	.LVL144:
 1351              	.LBB129:
 538:Drivers/lvgl/src/font/lv_font_loader.c ****             uint16_t offset;
 1352              		.loc 1 538 35 is_stmt 1 view .LVU451
 1353 028a 0D9B     		ldr	r3, [sp, #52]
 1354 028c 0293     		str	r3, [sp, #8]
 1355 028e 002B     		cmp	r3, #0
 1356 0290 51D0     		beq	.L106
 1357 0292 A0F10408 		sub	r8, r0, #4
 1358 0296 06E0     		b	.L109
 1359              	.LVL145:
 1360              	.L268:
 1361              	.LBB130:
 544:Drivers/lvgl/src/font/lv_font_loader.c ****         }
 1362              		.loc 1 544 29 is_stmt 0 view .LVU452
 1363 0298 BDF83C30 		ldrh	r3, [sp, #60]
 1364 029c 48F8043F 		str	r3, [r8, #4]!
 1365              	.LBE130:
 538:Drivers/lvgl/src/font/lv_font_loader.c ****             uint16_t offset;
 1366              		.loc 1 538 49 is_stmt 1 view .LVU453
 1367              	.LVL146:
 538:Drivers/lvgl/src/font/lv_font_loader.c ****             uint16_t offset;
 1368              		.loc 1 538 35 view .LVU454
 1369 02a0 0D9B     		ldr	r3, [sp, #52]
 1370 02a2 9E42     		cmp	r6, r3
 1371 02a4 46D2     		bcs	.L265
 1372              	.LVL147:
 1373              	.L109:
 1374              	.LBB131:
 539:Drivers/lvgl/src/font/lv_font_loader.c ****             if(lv_fs_read(fp, &offset, sizeof(uint16_t), NULL) != LV_FS_RES_OK) {
 1375              		.loc 1 539 13 view .LVU455
 540:Drivers/lvgl/src/font/lv_font_loader.c ****                 failed = true;
ARM GAS  /var/folders/0z/tsy30v1j4xl4_7kw94k978ww0000gn/T//ccOlCxDD.s 			page 43


 1376              		.loc 1 540 13 view .LVU456
 540:Drivers/lvgl/src/font/lv_font_loader.c ****                 failed = true;
 1377              		.loc 1 540 16 is_stmt 0 view .LVU457
 1378 02a6 0023     		movs	r3, #0
 1379 02a8 0222     		movs	r2, #2
 1380 02aa 0FA9     		add	r1, sp, #60
 1381 02ac 11A8     		add	r0, sp, #68
 1382              	.LVL148:
 540:Drivers/lvgl/src/font/lv_font_loader.c ****                 failed = true;
 1383              		.loc 1 540 16 view .LVU458
 1384              	.LBE131:
 538:Drivers/lvgl/src/font/lv_font_loader.c ****             uint16_t offset;
 1385              		.loc 1 538 49 view .LVU459
 1386 02ae 0136     		adds	r6, r6, #1
 1387              	.LVL149:
 1388              	.LBB132:
 540:Drivers/lvgl/src/font/lv_font_loader.c ****                 failed = true;
 1389              		.loc 1 540 16 view .LVU460
 1390 02b0 FFF7FEFF 		bl	lv_fs_read
 1391              	.LVL150:
 544:Drivers/lvgl/src/font/lv_font_loader.c ****         }
 1392              		.loc 1 544 13 is_stmt 1 view .LVU461
 540:Drivers/lvgl/src/font/lv_font_loader.c ****                 failed = true;
 1393              		.loc 1 540 15 is_stmt 0 view .LVU462
 1394 02b4 0028     		cmp	r0, #0
 1395 02b6 EFD0     		beq	.L268
 1396              	.LVL151:
 1397              	.L205:
 540:Drivers/lvgl/src/font/lv_font_loader.c ****                 failed = true;
 1398              		.loc 1 540 15 view .LVU463
 1399              	.LBE132:
 1400              	.LBE129:
 567:Drivers/lvgl/src/font/lv_font_loader.c **** 
 1401              		.loc 1 567 5 is_stmt 1 view .LVU464
 1402 02b8 0598     		ldr	r0, [sp, #20]
 1403 02ba FFF7FEFF 		bl	lv_mem_free
 1404              	.LVL152:
 569:Drivers/lvgl/src/font/lv_font_loader.c ****         return false;
 1405              		.loc 1 569 5 view .LVU465
 1406 02be E6E6     		b	.L85
 1407              	.LVL153:
 1408              	.L99:
 1409              	.LBB133:
 1410              	.LBB125:
 1411              	.LBB123:
 1412              	.LBB121:
 1413              	.LBB119:
 1414              	.LBB118:
 1415              	.LBB116:
 264:Drivers/lvgl/src/font/lv_font_loader.c ****                     uint8_t * glyph_id_ofs_list = lv_mem_alloc(ids_size);
 1416              		.loc 1 264 21 view .LVU466
 265:Drivers/lvgl/src/font/lv_font_loader.c **** 
 1417              		.loc 1 265 21 view .LVU467
 265:Drivers/lvgl/src/font/lv_font_loader.c **** 
 1418              		.loc 1 265 51 is_stmt 0 view .LVU468
 1419 02c0 3A7B     		ldrb	r2, [r7, #12]	@ zero_extendqisi2
 1420 02c2 0192     		str	r2, [sp, #4]
ARM GAS  /var/folders/0z/tsy30v1j4xl4_7kw94k978ww0000gn/T//ccOlCxDD.s 			page 44


 1421 02c4 1046     		mov	r0, r2
 1422              	.LVL154:
 265:Drivers/lvgl/src/font/lv_font_loader.c **** 
 1423              		.loc 1 265 51 view .LVU469
 1424 02c6 FFF7FEFF 		bl	lv_mem_alloc
 1425              	.LVL155:
 269:Drivers/lvgl/src/font/lv_font_loader.c ****                         return false;
 1426              		.loc 1 269 24 view .LVU470
 1427 02ca 019A     		ldr	r2, [sp, #4]
 267:Drivers/lvgl/src/font/lv_font_loader.c **** 
 1428              		.loc 1 267 45 view .LVU471
 1429 02cc F060     		str	r0, [r6, #12]
 265:Drivers/lvgl/src/font/lv_font_loader.c **** 
 1430              		.loc 1 265 51 view .LVU472
 1431 02ce 0146     		mov	r1, r0
 1432              	.LVL156:
 267:Drivers/lvgl/src/font/lv_font_loader.c **** 
 1433              		.loc 1 267 21 is_stmt 1 view .LVU473
 269:Drivers/lvgl/src/font/lv_font_loader.c ****                         return false;
 1434              		.loc 1 269 21 view .LVU474
 269:Drivers/lvgl/src/font/lv_font_loader.c ****                         return false;
 1435              		.loc 1 269 24 is_stmt 0 view .LVU475
 1436 02d0 0023     		movs	r3, #0
 1437 02d2 11A8     		add	r0, sp, #68
 1438              	.LVL157:
 269:Drivers/lvgl/src/font/lv_font_loader.c ****                         return false;
 1439              		.loc 1 269 24 view .LVU476
 1440 02d4 FFF7FEFF 		bl	lv_fs_read
 1441              	.LVL158:
 273:Drivers/lvgl/src/font/lv_font_loader.c ****                     break;
 1442              		.loc 1 273 21 is_stmt 1 view .LVU477
 269:Drivers/lvgl/src/font/lv_font_loader.c ****                         return false;
 1443              		.loc 1 269 23 is_stmt 0 view .LVU478
 1444 02d8 88B9     		cbnz	r0, .L94
 273:Drivers/lvgl/src/font/lv_font_loader.c ****                     break;
 1445              		.loc 1 273 39 view .LVU479
 1446 02da B388     		ldrh	r3, [r6, #4]
 1447 02dc 3382     		strh	r3, [r6, #16]	@ movhi
 274:Drivers/lvgl/src/font/lv_font_loader.c ****                 }
 1448              		.loc 1 274 21 is_stmt 1 view .LVU480
 1449 02de 93E7     		b	.L98
 1450              	.LVL159:
 1451              	.L267:
 274:Drivers/lvgl/src/font/lv_font_loader.c ****                 }
 1452              		.loc 1 274 21 is_stmt 0 view .LVU481
 1453              	.LBE116:
 1454              	.LBB117:
 1455              	.LBB115:
 291:Drivers/lvgl/src/font/lv_font_loader.c **** 
 1456              		.loc 1 291 25 is_stmt 1 view .LVU482
 1457 02e0 0190     		str	r0, [sp, #4]
 1458              	.LVL160:
 291:Drivers/lvgl/src/font/lv_font_loader.c **** 
 1459              		.loc 1 291 78 is_stmt 0 view .LVU483
 1460 02e2 308A     		ldrh	r0, [r6, #16]
 291:Drivers/lvgl/src/font/lv_font_loader.c **** 
 1461              		.loc 1 291 42 view .LVU484
ARM GAS  /var/folders/0z/tsy30v1j4xl4_7kw94k978ww0000gn/T//ccOlCxDD.s 			page 45


 1462 02e4 4000     		lsls	r0, r0, #1
 1463 02e6 FFF7FEFF 		bl	lv_mem_alloc
 1464              	.LVL161:
 295:Drivers/lvgl/src/font/lv_font_loader.c ****                             return false;
 1465              		.loc 1 295 71 view .LVU485
 1466 02ea 328A     		ldrh	r2, [r6, #16]
 293:Drivers/lvgl/src/font/lv_font_loader.c **** 
 1467              		.loc 1 293 49 view .LVU486
 1468 02ec F060     		str	r0, [r6, #12]
 291:Drivers/lvgl/src/font/lv_font_loader.c **** 
 1469              		.loc 1 291 42 view .LVU487
 1470 02ee 0146     		mov	r1, r0
 1471              	.LVL162:
 293:Drivers/lvgl/src/font/lv_font_loader.c **** 
 1472              		.loc 1 293 25 is_stmt 1 view .LVU488
 295:Drivers/lvgl/src/font/lv_font_loader.c ****                             return false;
 1473              		.loc 1 295 25 view .LVU489
 295:Drivers/lvgl/src/font/lv_font_loader.c ****                             return false;
 1474              		.loc 1 295 28 is_stmt 0 view .LVU490
 1475 02f0 019B     		ldr	r3, [sp, #4]
 1476 02f2 5200     		lsls	r2, r2, #1
 1477 02f4 11A8     		add	r0, sp, #68
 1478              	.LVL163:
 295:Drivers/lvgl/src/font/lv_font_loader.c ****                             return false;
 1479              		.loc 1 295 28 view .LVU491
 1480 02f6 FFF7FEFF 		bl	lv_fs_read
 1481              	.LVL164:
 295:Drivers/lvgl/src/font/lv_font_loader.c ****                             return false;
 1482              		.loc 1 295 27 view .LVU492
 1483 02fa 0028     		cmp	r0, #0
 1484 02fc 84D0     		beq	.L98
 1485              	.LVL165:
 1486              	.L94:
 295:Drivers/lvgl/src/font/lv_font_loader.c ****                             return false;
 1487              		.loc 1 295 27 view .LVU493
 1488              	.LBE115:
 1489              	.LBE117:
 1490              	.LBE118:
 1491              	.LBE119:
 1492              	.LBE121:
 1493              	.LBE123:
 333:Drivers/lvgl/src/font/lv_font_loader.c **** 
 1494              		.loc 1 333 5 is_stmt 1 view .LVU494
 1495 02fe 5046     		mov	r0, r10
 1496 0300 FFF7FEFF 		bl	lv_mem_free
 1497              	.LVL166:
 335:Drivers/lvgl/src/font/lv_font_loader.c **** }
 1498              		.loc 1 335 5 view .LVU495
 1499 0304 C3E6     		b	.L85
 1500              	.L290:
 1501 0306 00BF     		.align	2
 1502              	.L289:
 1503 0308 68656164 		.word	1684104552
 1504 030c 00000000 		.word	lv_font_get_glyph_dsc_fmt_txt
 1505 0310 00000000 		.word	lv_font_get_bitmap_fmt_txt
 1506 0314 636D6170 		.word	1885433187
 1507 0318 6C6F6361 		.word	1633906540
ARM GAS  /var/folders/0z/tsy30v1j4xl4_7kw94k978ww0000gn/T//ccOlCxDD.s 			page 46


 1508              	.LVL167:
 1509              	.L105:
 335:Drivers/lvgl/src/font/lv_font_loader.c **** }
 1510              		.loc 1 335 5 is_stmt 0 view .LVU496
 1511              	.LBE125:
 1512              	.LBE133:
 547:Drivers/lvgl/src/font/lv_font_loader.c ****         if(lv_fs_read(fp, glyph_offset, loca_count * sizeof(uint32_t), NULL) != LV_FS_RES_OK) {
 1513              		.loc 1 547 10 is_stmt 1 view .LVU497
 547:Drivers/lvgl/src/font/lv_font_loader.c ****         if(lv_fs_read(fp, glyph_offset, loca_count * sizeof(uint32_t), NULL) != LV_FS_RES_OK) {
 1514              		.loc 1 547 12 is_stmt 0 view .LVU498
 1515 031c 012E     		cmp	r6, #1
 1516 031e CBD1     		bne	.L205
 548:Drivers/lvgl/src/font/lv_font_loader.c ****             failed = true;
 1517              		.loc 1 548 9 is_stmt 1 view .LVU499
 548:Drivers/lvgl/src/font/lv_font_loader.c ****             failed = true;
 1518              		.loc 1 548 12 is_stmt 0 view .LVU500
 1519 0320 0D9A     		ldr	r2, [sp, #52]
 1520 0322 0146     		mov	r1, r0
 1521 0324 4346     		mov	r3, r8
 1522 0326 9200     		lsls	r2, r2, #2
 1523 0328 11A8     		add	r0, sp, #68
 1524              	.LVL168:
 548:Drivers/lvgl/src/font/lv_font_loader.c ****             failed = true;
 1525              		.loc 1 548 12 view .LVU501
 1526 032a FFF7FEFF 		bl	lv_fs_read
 1527              	.LVL169:
 548:Drivers/lvgl/src/font/lv_font_loader.c ****             failed = true;
 1528              		.loc 1 548 11 view .LVU502
 1529 032e 0028     		cmp	r0, #0
 1530 0330 C2D1     		bne	.L205
 564:Drivers/lvgl/src/font/lv_font_loader.c ****                                fp, font_dsc, glyph_start, glyph_offset, loca_count, &font_header);
 1531              		.loc 1 564 28 view .LVU503
 1532 0332 0D9B     		ldr	r3, [sp, #52]
 1533              	.L265:
 564:Drivers/lvgl/src/font/lv_font_loader.c ****                                fp, font_dsc, glyph_start, glyph_offset, loca_count, &font_header);
 1534              		.loc 1 564 28 view .LVU504
 1535 0334 0293     		str	r3, [sp, #8]
 1536              	.L106:
 1537              	.LVL170:
 563:Drivers/lvgl/src/font/lv_font_loader.c ****     int32_t glyph_length = load_glyph(
 1538              		.loc 1 563 5 is_stmt 1 view .LVU505
 563:Drivers/lvgl/src/font/lv_font_loader.c ****     int32_t glyph_length = load_glyph(
 1539              		.loc 1 563 14 is_stmt 0 view .LVU506
 1540 0336 0BEB0703 		add	r3, fp, r7
 1541              	.LBB134:
 1542              	.LBB135:
 1543              	.LBB136:
 1544              	.LBB137:
 227:Drivers/lvgl/src/font/lv_font_loader.c **** 
 1545              		.loc 1 227 5 view .LVU507
 1546 033a 1946     		mov	r1, r3
 1547 033c 0022     		movs	r2, #0
 1548 033e 11A8     		add	r0, sp, #68
 1549              	.LVL171:
 227:Drivers/lvgl/src/font/lv_font_loader.c **** 
 1550              		.loc 1 227 5 view .LVU508
 1551              	.LBE137:
ARM GAS  /var/folders/0z/tsy30v1j4xl4_7kw94k978ww0000gn/T//ccOlCxDD.s 			page 47


 1552              	.LBE136:
 1553              	.LBE135:
 1554              	.LBE134:
 563:Drivers/lvgl/src/font/lv_font_loader.c ****     int32_t glyph_length = load_glyph(
 1555              		.loc 1 563 14 view .LVU509
 1556 0340 0493     		str	r3, [sp, #16]
 1557              	.LVL172:
 564:Drivers/lvgl/src/font/lv_font_loader.c ****                                fp, font_dsc, glyph_start, glyph_offset, loca_count, &font_header);
 1558              		.loc 1 564 5 is_stmt 1 view .LVU510
 1559              	.LBB285:
 1560              	.LBI134:
 338:Drivers/lvgl/src/font/lv_font_loader.c ****                           uint32_t start, uint32_t * glyph_offset, uint32_t loca_count, font_header
 1561              		.loc 1 338 16 view .LVU511
 1562              	.LBB282:
 341:Drivers/lvgl/src/font/lv_font_loader.c ****     if(glyph_length < 0) {
 1563              		.loc 1 341 5 view .LVU512
 1564              	.LBB139:
 1565              	.LBI136:
 225:Drivers/lvgl/src/font/lv_font_loader.c **** {
 1566              		.loc 1 225 12 view .LVU513
 1567              	.LBB138:
 227:Drivers/lvgl/src/font/lv_font_loader.c **** 
 1568              		.loc 1 227 5 view .LVU514
 1569 0342 FFF7FEFF 		bl	lv_fs_seek
 1570              	.LVL173:
 229:Drivers/lvgl/src/font/lv_font_loader.c ****     char buf[4];
 1571              		.loc 1 229 5 view .LVU515
 230:Drivers/lvgl/src/font/lv_font_loader.c **** 
 1572              		.loc 1 230 5 view .LVU516
 232:Drivers/lvgl/src/font/lv_font_loader.c ****        || lv_fs_read(fp, buf, 4, NULL) != LV_FS_RES_OK
 1573              		.loc 1 232 5 view .LVU517
 232:Drivers/lvgl/src/font/lv_font_loader.c ****        || lv_fs_read(fp, buf, 4, NULL) != LV_FS_RES_OK
 1574              		.loc 1 232 8 is_stmt 0 view .LVU518
 1575 0346 0023     		movs	r3, #0
 1576 0348 0EA9     		add	r1, sp, #56
 1577 034a 0422     		movs	r2, #4
 1578 034c 11A8     		add	r0, sp, #68
 1579              	.LVL174:
 232:Drivers/lvgl/src/font/lv_font_loader.c ****        || lv_fs_read(fp, buf, 4, NULL) != LV_FS_RES_OK
 1580              		.loc 1 232 8 view .LVU519
 1581 034e FFF7FEFF 		bl	lv_fs_read
 1582              	.LVL175:
 232:Drivers/lvgl/src/font/lv_font_loader.c ****        || lv_fs_read(fp, buf, 4, NULL) != LV_FS_RES_OK
 1583              		.loc 1 232 7 view .LVU520
 1584 0352 0346     		mov	r3, r0
 1585 0354 0028     		cmp	r0, #0
 1586 0356 AFD1     		bne	.L205
 233:Drivers/lvgl/src/font/lv_font_loader.c ****        || memcmp(label, buf, 4) != 0) {
 1587              		.loc 1 233 11 view .LVU521
 1588 0358 0FA9     		add	r1, sp, #60
 1589 035a 0422     		movs	r2, #4
 1590 035c 11A8     		add	r0, sp, #68
 1591              	.LVL176:
 233:Drivers/lvgl/src/font/lv_font_loader.c ****        || memcmp(label, buf, 4) != 0) {
 1592              		.loc 1 233 11 view .LVU522
 1593 035e FFF7FEFF 		bl	lv_fs_read
 1594              	.LVL177:
ARM GAS  /var/folders/0z/tsy30v1j4xl4_7kw94k978ww0000gn/T//ccOlCxDD.s 			page 48


 233:Drivers/lvgl/src/font/lv_font_loader.c ****        || memcmp(label, buf, 4) != 0) {
 1595              		.loc 1 233 8 view .LVU523
 1596 0362 0646     		mov	r6, r0
 1597 0364 0028     		cmp	r0, #0
 1598 0366 A7D1     		bne	.L205
 234:Drivers/lvgl/src/font/lv_font_loader.c ****         LV_LOG_WARN("Error reading '%s' label.", label);
 1599              		.loc 1 234 8 view .LVU524
 1600 0368 C14B     		ldr	r3, .L291
 1601 036a 0F9A     		ldr	r2, [sp, #60]
 1602 036c 9A42     		cmp	r2, r3
 1603 036e A3D1     		bne	.L205
 239:Drivers/lvgl/src/font/lv_font_loader.c **** }
 1604              		.loc 1 239 5 is_stmt 1 view .LVU525
 239:Drivers/lvgl/src/font/lv_font_loader.c **** }
 1605              		.loc 1 239 12 is_stmt 0 view .LVU526
 1606 0370 0E9B     		ldr	r3, [sp, #56]
 1607 0372 0693     		str	r3, [sp, #24]
 1608              	.LVL178:
 239:Drivers/lvgl/src/font/lv_font_loader.c **** }
 1609              		.loc 1 239 12 view .LVU527
 1610              	.LBE138:
 1611              	.LBE139:
 342:Drivers/lvgl/src/font/lv_font_loader.c ****         return -1;
 1612              		.loc 1 342 5 is_stmt 1 view .LVU528
 342:Drivers/lvgl/src/font/lv_font_loader.c ****         return -1;
 1613              		.loc 1 342 7 is_stmt 0 view .LVU529
 1614 0374 002B     		cmp	r3, #0
 1615 0376 9FDB     		blt	.L205
 346:Drivers/lvgl/src/font/lv_font_loader.c ****                                               lv_mem_alloc(loca_count * sizeof(lv_font_fmt_txt_glyp
 1616              		.loc 1 346 5 is_stmt 1 view .LVU530
 347:Drivers/lvgl/src/font/lv_font_loader.c **** 
 1617              		.loc 1 347 71 is_stmt 0 view .LVU531
 1618 0378 029B     		ldr	r3, [sp, #8]
 1619              	.LVL179:
 347:Drivers/lvgl/src/font/lv_font_loader.c **** 
 1620              		.loc 1 347 71 view .LVU532
 1621 037a DA00     		lsls	r2, r3, #3
 347:Drivers/lvgl/src/font/lv_font_loader.c **** 
 1622              		.loc 1 347 47 view .LVU533
 1623 037c 1046     		mov	r0, r2
 1624 037e 0192     		str	r2, [sp, #4]
 1625 0380 FFF7FEFF 		bl	lv_mem_alloc
 1626              	.LVL180:
 349:Drivers/lvgl/src/font/lv_font_loader.c **** 
 1627              		.loc 1 349 5 view .LVU534
 1628 0384 019A     		ldr	r2, [sp, #4]
 1629 0386 3146     		mov	r1, r6
 347:Drivers/lvgl/src/font/lv_font_loader.c **** 
 1630              		.loc 1 347 47 view .LVU535
 1631 0388 0746     		mov	r7, r0
 1632              	.LVL181:
 349:Drivers/lvgl/src/font/lv_font_loader.c **** 
 1633              		.loc 1 349 5 is_stmt 1 view .LVU536
 1634 038a FFF7FEFF 		bl	memset
 1635              	.LVL182:
 351:Drivers/lvgl/src/font/lv_font_loader.c **** 
 1636              		.loc 1 351 5 view .LVU537
ARM GAS  /var/folders/0z/tsy30v1j4xl4_7kw94k978ww0000gn/T//ccOlCxDD.s 			page 49


 1637              	.LBB140:
 355:Drivers/lvgl/src/font/lv_font_loader.c ****         lv_font_fmt_txt_glyph_dsc_t * gdsc = &glyph_dsc[i];
 1638              		.loc 1 355 31 is_stmt 0 view .LVU538
 1639 038e 029B     		ldr	r3, [sp, #8]
 1640              	.LBE140:
 351:Drivers/lvgl/src/font/lv_font_loader.c **** 
 1641              		.loc 1 351 25 view .LVU539
 1642 0390 6F60     		str	r7, [r5, #4]
 353:Drivers/lvgl/src/font/lv_font_loader.c **** 
 1643              		.loc 1 353 5 is_stmt 1 view .LVU540
 1644              	.LVL183:
 355:Drivers/lvgl/src/font/lv_font_loader.c ****         lv_font_fmt_txt_glyph_dsc_t * gdsc = &glyph_dsc[i];
 1645              		.loc 1 355 5 view .LVU541
 1646              	.LBB212:
 355:Drivers/lvgl/src/font/lv_font_loader.c ****         lv_font_fmt_txt_glyph_dsc_t * gdsc = &glyph_dsc[i];
 1647              		.loc 1 355 9 view .LVU542
 355:Drivers/lvgl/src/font/lv_font_loader.c ****         lv_font_fmt_txt_glyph_dsc_t * gdsc = &glyph_dsc[i];
 1648              		.loc 1 355 31 view .LVU543
 1649 0392 002B     		cmp	r3, #0
 1650 0394 00F04084 		beq	.L115
 1651 0398 059A     		ldr	r2, [sp, #20]
 1652 039a 0897     		str	r7, [sp, #32]
 1653 039c 0192     		str	r2, [sp, #4]
 1654 039e BB46     		mov	fp, r7
 1655              	.LVL184:
 355:Drivers/lvgl/src/font/lv_font_loader.c ****         lv_font_fmt_txt_glyph_dsc_t * gdsc = &glyph_dsc[i];
 1656              		.loc 1 355 31 is_stmt 0 view .LVU544
 1657              	.LBE212:
 353:Drivers/lvgl/src/font/lv_font_loader.c **** 
 1658              		.loc 1 353 9 view .LVU545
 1659 03a0 0396     		str	r6, [sp, #12]
 1660              	.LBB213:
 1661              	.LBB141:
 1662              	.LBB142:
 1663              	.LBB143:
 1664              	.LBB144:
 202:Drivers/lvgl/src/font/lv_font_loader.c ****             *res = lv_fs_read(it->fp, &(it->byte_value), 1, NULL);
 1665              		.loc 1 202 25 view .LVU546
 1666 03a2 4FF0070A 		mov	r10, #7
 1667 03a6 0995     		str	r5, [sp, #36]
 1668 03a8 B046     		mov	r8, r6
 1669 03aa 0794     		str	r4, [sp, #28]
 1670              	.LVL185:
 1671              	.L153:
 202:Drivers/lvgl/src/font/lv_font_loader.c ****             *res = lv_fs_read(it->fp, &(it->byte_value), 1, NULL);
 1672              		.loc 1 202 25 view .LVU547
 1673              	.LBE144:
 1674              	.LBE143:
 1675              	.LBE142:
 356:Drivers/lvgl/src/font/lv_font_loader.c **** 
 1676              		.loc 1 356 9 is_stmt 1 view .LVU548
 358:Drivers/lvgl/src/font/lv_font_loader.c ****         if(res != LV_FS_RES_OK) {
 1677              		.loc 1 358 9 view .LVU549
 358:Drivers/lvgl/src/font/lv_font_loader.c ****         if(res != LV_FS_RES_OK) {
 1678              		.loc 1 358 62 is_stmt 0 view .LVU550
 1679 03ac 019B     		ldr	r3, [sp, #4]
 1680 03ae 53F8041B 		ldr	r1, [r3], #4
ARM GAS  /var/folders/0z/tsy30v1j4xl4_7kw94k978ww0000gn/T//ccOlCxDD.s 			page 50


 1681 03b2 0193     		str	r3, [sp, #4]
 358:Drivers/lvgl/src/font/lv_font_loader.c ****         if(res != LV_FS_RES_OK) {
 1682              		.loc 1 358 27 view .LVU551
 1683 03b4 049B     		ldr	r3, [sp, #16]
 1684 03b6 0022     		movs	r2, #0
 1685 03b8 1944     		add	r1, r1, r3
 1686 03ba 11A8     		add	r0, sp, #68
 1687              	.LVL186:
 358:Drivers/lvgl/src/font/lv_font_loader.c ****         if(res != LV_FS_RES_OK) {
 1688              		.loc 1 358 27 view .LVU552
 1689 03bc FFF7FEFF 		bl	lv_fs_seek
 1690              	.LVL187:
 359:Drivers/lvgl/src/font/lv_font_loader.c ****             return -1;
 1691              		.loc 1 359 9 is_stmt 1 view .LVU553
 359:Drivers/lvgl/src/font/lv_font_loader.c ****             return -1;
 1692              		.loc 1 359 11 is_stmt 0 view .LVU554
 1693 03c0 0646     		mov	r6, r0
 1694 03c2 0028     		cmp	r0, #0
 1695 03c4 40F07481 		bne	.L261
 363:Drivers/lvgl/src/font/lv_font_loader.c **** 
 1696              		.loc 1 363 9 is_stmt 1 view .LVU555
 1697              	.LVL188:
 1698              	.LBB148:
 1699              	.LBI148:
 185:Drivers/lvgl/src/font/lv_font_loader.c **** {
 1700              		.loc 1 185 23 view .LVU556
 1701              	.LBB149:
 187:Drivers/lvgl/src/font/lv_font_loader.c ****     it.fp = fp;
 1702              		.loc 1 187 5 view .LVU557
 188:Drivers/lvgl/src/font/lv_font_loader.c ****     it.bit_pos = -1;
 1703              		.loc 1 188 5 view .LVU558
 189:Drivers/lvgl/src/font/lv_font_loader.c ****     it.byte_value = 0;
 1704              		.loc 1 189 5 view .LVU559
 190:Drivers/lvgl/src/font/lv_font_loader.c ****     return it;
 1705              		.loc 1 190 5 view .LVU560
 191:Drivers/lvgl/src/font/lv_font_loader.c **** }
 1706              		.loc 1 191 5 view .LVU561
 191:Drivers/lvgl/src/font/lv_font_loader.c **** }
 1707              		.loc 1 191 12 is_stmt 0 view .LVU562
 1708 03c8 11AB     		add	r3, sp, #68
 1709              	.LVL189:
 191:Drivers/lvgl/src/font/lv_font_loader.c **** }
 1710              		.loc 1 191 12 view .LVU563
 1711              	.LBE149:
 1712              	.LBE148:
 365:Drivers/lvgl/src/font/lv_font_loader.c ****             gdsc->adv_w = header->default_advance_width;
 1713              		.loc 1 365 18 view .LVU564
 1714 03ca 9DF87040 		ldrb	r4, [sp, #112]	@ zero_extendqisi2
 1715              	.LBB151:
 1716              	.LBB150:
 191:Drivers/lvgl/src/font/lv_font_loader.c **** }
 1717              		.loc 1 191 12 view .LVU565
 1718 03ce 0F93     		str	r3, [sp, #60]
 1719 03d0 FF23     		movs	r3, #255
 1720              	.LVL190:
 191:Drivers/lvgl/src/font/lv_font_loader.c **** }
 1721              		.loc 1 191 12 view .LVU566
ARM GAS  /var/folders/0z/tsy30v1j4xl4_7kw94k978ww0000gn/T//ccOlCxDD.s 			page 51


 1722 03d2 ADF84030 		strh	r3, [sp, #64]	@ movhi
 1723              	.LVL191:
 191:Drivers/lvgl/src/font/lv_font_loader.c **** }
 1724              		.loc 1 191 12 view .LVU567
 1725              	.LBE150:
 1726              	.LBE151:
 365:Drivers/lvgl/src/font/lv_font_loader.c ****             gdsc->adv_w = header->default_advance_width;
 1727              		.loc 1 365 9 is_stmt 1 view .LVU568
 365:Drivers/lvgl/src/font/lv_font_loader.c ****             gdsc->adv_w = header->default_advance_width;
 1728              		.loc 1 365 11 is_stmt 0 view .LVU569
 1729 03d6 002C     		cmp	r4, #0
 1730 03d8 40F02181 		bne	.L117
 366:Drivers/lvgl/src/font/lv_font_loader.c ****         }
 1731              		.loc 1 366 13 is_stmt 1 view .LVU570
 366:Drivers/lvgl/src/font/lv_font_loader.c ****         }
 1732              		.loc 1 366 33 is_stmt 0 view .LVU571
 1733 03dc BDF86650 		ldrh	r5, [sp, #102]
 1734 03e0 C5F30B05 		ubfx	r5, r5, #0, #12
 1735              	.LVL192:
 1736              	.L118:
 366:Drivers/lvgl/src/font/lv_font_loader.c ****         }
 1737              		.loc 1 366 25 view .LVU572
 1738 03e4 BBF80230 		ldrh	r3, [fp, #2]
 1739 03e8 65F30F13 		bfi	r3, r5, #4, #12
 1740 03ec ABF80230 		strh	r3, [fp, #2]	@ movhi
 375:Drivers/lvgl/src/font/lv_font_loader.c ****             gdsc->adv_w *= 16;
 1741              		.loc 1 375 9 is_stmt 1 view .LVU573
 375:Drivers/lvgl/src/font/lv_font_loader.c ****             gdsc->adv_w *= 16;
 1742              		.loc 1 375 11 is_stmt 0 view .LVU574
 1743 03f0 9DF86C20 		ldrb	r2, [sp, #108]	@ zero_extendqisi2
 1744 03f4 32B9     		cbnz	r2, .L124
 376:Drivers/lvgl/src/font/lv_font_loader.c ****         }
 1745              		.loc 1 376 13 is_stmt 1 view .LVU575
 376:Drivers/lvgl/src/font/lv_font_loader.c ****         }
 1746              		.loc 1 376 25 is_stmt 0 view .LVU576
 1747 03f6 2D01     		lsls	r5, r5, #4
 1748 03f8 C5F30B05 		ubfx	r5, r5, #0, #12
 1749 03fc 65F30F13 		bfi	r3, r5, #4, #12
 1750 0400 ABF80230 		strh	r3, [fp, #2]	@ movhi
 1751              	.L124:
 379:Drivers/lvgl/src/font/lv_font_loader.c ****         if(res != LV_FS_RES_OK) {
 1752              		.loc 1 379 9 is_stmt 1 view .LVU577
 379:Drivers/lvgl/src/font/lv_font_loader.c ****         if(res != LV_FS_RES_OK) {
 1753              		.loc 1 379 23 is_stmt 0 view .LVU578
 1754 0404 9DF86E40 		ldrb	r4, [sp, #110]	@ zero_extendqisi2
 1755              	.LVL193:
 1756              	.LBB152:
 1757              	.LBI152:
 216:Drivers/lvgl/src/font/lv_font_loader.c **** {
 1758              		.loc 1 216 12 is_stmt 1 view .LVU579
 1759              	.LBB153:
 218:Drivers/lvgl/src/font/lv_font_loader.c ****     if(value & (1 << (n_bits - 1))) {
 1760              		.loc 1 218 5 view .LVU580
 1761              	.LBB154:
 1762              	.LBI154:
 194:Drivers/lvgl/src/font/lv_font_loader.c **** {
 1763              		.loc 1 194 21 view .LVU581
ARM GAS  /var/folders/0z/tsy30v1j4xl4_7kw94k978ww0000gn/T//ccOlCxDD.s 			page 52


 1764              	.LBB155:
 196:Drivers/lvgl/src/font/lv_font_loader.c ****     while(n_bits--) {
 1765              		.loc 1 196 5 view .LVU582
 197:Drivers/lvgl/src/font/lv_font_loader.c ****         it->byte_value = it->byte_value << 1;
 1766              		.loc 1 197 5 view .LVU583
 197:Drivers/lvgl/src/font/lv_font_loader.c ****         it->byte_value = it->byte_value << 1;
 1767              		.loc 1 197 11 view .LVU584
 197:Drivers/lvgl/src/font/lv_font_loader.c ****         it->byte_value = it->byte_value << 1;
 1768              		.loc 1 197 17 is_stmt 0 view .LVU585
 1769 0408 04F1FF39 		add	r9, r4, #-1
 1770              	.LVL194:
 197:Drivers/lvgl/src/font/lv_font_loader.c ****         it->byte_value = it->byte_value << 1;
 1771              		.loc 1 197 11 view .LVU586
 1772 040c 002C     		cmp	r4, #0
 1773 040e 00F04481 		beq	.L125
 1774              	.LBB156:
 198:Drivers/lvgl/src/font/lv_font_loader.c ****         it->bit_pos--;
 1775              		.loc 1 198 28 view .LVU587
 1776 0412 9DF84120 		ldrb	r2, [sp, #65]	@ zero_extendqisi2
 1777 0416 4D46     		mov	r5, r9
 1778              	.LBE156:
 196:Drivers/lvgl/src/font/lv_font_loader.c ****     while(n_bits--) {
 1779              		.loc 1 196 18 view .LVU588
 1780 0418 0027     		movs	r7, #0
 1781 041a 08E0     		b	.L129
 1782              	.LVL195:
 1783              	.L270:
 1784              	.LBB157:
 199:Drivers/lvgl/src/font/lv_font_loader.c **** 
 1785              		.loc 1 199 20 view .LVU589
 1786 041c 8DF84030 		strb	r3, [sp, #64]
 1787              	.L127:
 208:Drivers/lvgl/src/font/lv_font_loader.c **** 
 1788              		.loc 1 208 9 is_stmt 1 view .LVU590
 1789              	.LVL196:
 210:Drivers/lvgl/src/font/lv_font_loader.c ****     }
 1790              		.loc 1 210 9 view .LVU591
 210:Drivers/lvgl/src/font/lv_font_loader.c ****     }
 1791              		.loc 1 210 23 is_stmt 0 view .LVU592
 1792 0420 D309     		lsrs	r3, r2, #7
 1793 0422 AB40     		lsls	r3, r3, r5
 1794              	.LBE157:
 197:Drivers/lvgl/src/font/lv_font_loader.c ****         it->byte_value = it->byte_value << 1;
 1795              		.loc 1 197 17 view .LVU593
 1796 0424 013D     		subs	r5, r5, #1
 1797              	.LVL197:
 197:Drivers/lvgl/src/font/lv_font_loader.c ****         it->byte_value = it->byte_value << 1;
 1798              		.loc 1 197 11 view .LVU594
 1799 0426 681C     		adds	r0, r5, #1
 1800              	.LBB158:
 210:Drivers/lvgl/src/font/lv_font_loader.c ****     }
 1801              		.loc 1 210 15 view .LVU595
 1802 0428 47EA0307 		orr	r7, r7, r3
 1803              	.LVL198:
 210:Drivers/lvgl/src/font/lv_font_loader.c ****     }
 1804              		.loc 1 210 15 view .LVU596
 1805              	.LBE158:
ARM GAS  /var/folders/0z/tsy30v1j4xl4_7kw94k978ww0000gn/T//ccOlCxDD.s 			page 53


 197:Drivers/lvgl/src/font/lv_font_loader.c ****         it->byte_value = it->byte_value << 1;
 1806              		.loc 1 197 11 is_stmt 1 view .LVU597
 197:Drivers/lvgl/src/font/lv_font_loader.c ****         it->byte_value = it->byte_value << 1;
 1807              		.loc 1 197 11 is_stmt 0 view .LVU598
 1808 042c 18D0     		beq	.L269
 1809              	.LVL199:
 1810              	.L129:
 1811              	.LBB159:
 198:Drivers/lvgl/src/font/lv_font_loader.c ****         it->bit_pos--;
 1812              		.loc 1 198 9 is_stmt 1 view .LVU599
 199:Drivers/lvgl/src/font/lv_font_loader.c **** 
 1813              		.loc 1 199 20 is_stmt 0 view .LVU600
 1814 042e 9DF84030 		ldrb	r3, [sp, #64]	@ zero_extendqisi2
 1815 0432 013B     		subs	r3, r3, #1
 198:Drivers/lvgl/src/font/lv_font_loader.c ****         it->bit_pos--;
 1816              		.loc 1 198 41 view .LVU601
 1817 0434 5200     		lsls	r2, r2, #1
 199:Drivers/lvgl/src/font/lv_font_loader.c **** 
 1818              		.loc 1 199 20 view .LVU602
 1819 0436 5BB2     		sxtb	r3, r3
 198:Drivers/lvgl/src/font/lv_font_loader.c ****         it->bit_pos--;
 1820              		.loc 1 198 41 view .LVU603
 1821 0438 D2B2     		uxtb	r2, r2
 201:Drivers/lvgl/src/font/lv_font_loader.c ****             it->bit_pos = 7;
 1822              		.loc 1 201 11 view .LVU604
 1823 043a 002B     		cmp	r3, #0
 198:Drivers/lvgl/src/font/lv_font_loader.c ****         it->bit_pos--;
 1824              		.loc 1 198 24 view .LVU605
 1825 043c 8DF84120 		strb	r2, [sp, #65]
 199:Drivers/lvgl/src/font/lv_font_loader.c **** 
 1826              		.loc 1 199 9 is_stmt 1 view .LVU606
 201:Drivers/lvgl/src/font/lv_font_loader.c ****             it->bit_pos = 7;
 1827              		.loc 1 201 9 view .LVU607
 201:Drivers/lvgl/src/font/lv_font_loader.c ****             it->bit_pos = 7;
 1828              		.loc 1 201 11 is_stmt 0 view .LVU608
 1829 0440 ECDA     		bge	.L270
 202:Drivers/lvgl/src/font/lv_font_loader.c ****             *res = lv_fs_read(it->fp, &(it->byte_value), 1, NULL);
 1830              		.loc 1 202 13 is_stmt 1 view .LVU609
 203:Drivers/lvgl/src/font/lv_font_loader.c ****             if(*res != LV_FS_RES_OK) {
 1831              		.loc 1 203 20 is_stmt 0 view .LVU610
 1832 0442 0F98     		ldr	r0, [sp, #60]
 202:Drivers/lvgl/src/font/lv_font_loader.c ****             *res = lv_fs_read(it->fp, &(it->byte_value), 1, NULL);
 1833              		.loc 1 202 25 view .LVU611
 1834 0444 8DF840A0 		strb	r10, [sp, #64]
 203:Drivers/lvgl/src/font/lv_font_loader.c ****             if(*res != LV_FS_RES_OK) {
 1835              		.loc 1 203 13 is_stmt 1 view .LVU612
 203:Drivers/lvgl/src/font/lv_font_loader.c ****             if(*res != LV_FS_RES_OK) {
 1836              		.loc 1 203 20 is_stmt 0 view .LVU613
 1837 0448 0023     		movs	r3, #0
 1838 044a 0122     		movs	r2, #1
 1839 044c 0DF14101 		add	r1, sp, #65
 1840 0450 FFF7FEFF 		bl	lv_fs_read
 1841              	.LVL200:
 204:Drivers/lvgl/src/font/lv_font_loader.c ****                 return 0;
 1842              		.loc 1 204 13 is_stmt 1 view .LVU614
 204:Drivers/lvgl/src/font/lv_font_loader.c ****                 return 0;
 1843              		.loc 1 204 15 is_stmt 0 view .LVU615
ARM GAS  /var/folders/0z/tsy30v1j4xl4_7kw94k978ww0000gn/T//ccOlCxDD.s 			page 54


 1844 0454 0028     		cmp	r0, #0
 1845 0456 40F01681 		bne	.L128
 208:Drivers/lvgl/src/font/lv_font_loader.c **** 
 1846              		.loc 1 208 25 view .LVU616
 1847 045a 9DF84120 		ldrb	r2, [sp, #65]	@ zero_extendqisi2
 1848 045e DFE7     		b	.L127
 1849              	.LVL201:
 1850              	.L269:
 208:Drivers/lvgl/src/font/lv_font_loader.c **** 
 1851              		.loc 1 208 25 view .LVU617
 1852              	.LBE159:
 1853              	.LBE155:
 1854              	.LBE154:
 219:Drivers/lvgl/src/font/lv_font_loader.c ****         value |= ~0u << n_bits;
 1855              		.loc 1 219 5 is_stmt 1 view .LVU618
 219:Drivers/lvgl/src/font/lv_font_loader.c ****         value |= ~0u << n_bits;
 1856              		.loc 1 219 19 is_stmt 0 view .LVU619
 1857 0460 0123     		movs	r3, #1
 1858 0462 03FA09F3 		lsl	r3, r3, r9
 219:Drivers/lvgl/src/font/lv_font_loader.c ****         value |= ~0u << n_bits;
 1859              		.loc 1 219 7 view .LVU620
 1860 0466 3B42     		tst	r3, r7
 1861 0468 00F00481 		beq	.L271
 220:Drivers/lvgl/src/font/lv_font_loader.c ****     }
 1862              		.loc 1 220 9 is_stmt 1 view .LVU621
 1863              	.LVL202:
 222:Drivers/lvgl/src/font/lv_font_loader.c **** }
 1864              		.loc 1 222 5 view .LVU622
 220:Drivers/lvgl/src/font/lv_font_loader.c ****     }
 1865              		.loc 1 220 22 is_stmt 0 view .LVU623
 1866 046c 05FA04F4 		lsl	r4, r5, r4
 220:Drivers/lvgl/src/font/lv_font_loader.c ****     }
 1867              		.loc 1 220 15 view .LVU624
 1868 0470 3C43     		orrs	r4, r4, r7
 1869              	.LBE153:
 1870              	.LBE152:
 379:Drivers/lvgl/src/font/lv_font_loader.c ****         if(res != LV_FS_RES_OK) {
 1871              		.loc 1 379 21 view .LVU625
 1872 0472 8BF80640 		strb	r4, [fp, #6]
 380:Drivers/lvgl/src/font/lv_font_loader.c ****             return -1;
 1873              		.loc 1 380 9 is_stmt 1 view .LVU626
 384:Drivers/lvgl/src/font/lv_font_loader.c ****         if(res != LV_FS_RES_OK) {
 1874              		.loc 1 384 23 is_stmt 0 view .LVU627
 1875 0476 9DF86E90 		ldrb	r9, [sp, #110]	@ zero_extendqisi2
 1876              	.LBB163:
 1877              	.LBB164:
 1878              	.LBB165:
 1879              	.LBB166:
 197:Drivers/lvgl/src/font/lv_font_loader.c ****         it->byte_value = it->byte_value << 1;
 1880              		.loc 1 197 17 view .LVU628
 1881 047a 09F1FF37 		add	r7, r9, #-1
 1882              	.L131:
 197:Drivers/lvgl/src/font/lv_font_loader.c ****         it->byte_value = it->byte_value << 1;
 1883              		.loc 1 197 17 view .LVU629
 1884              	.LBE166:
 1885              	.LBE165:
 1886              	.LBE164:
ARM GAS  /var/folders/0z/tsy30v1j4xl4_7kw94k978ww0000gn/T//ccOlCxDD.s 			page 55


 1887              	.LBE163:
 384:Drivers/lvgl/src/font/lv_font_loader.c ****         if(res != LV_FS_RES_OK) {
 1888              		.loc 1 384 9 is_stmt 1 view .LVU630
 1889              	.LVL203:
 1890              	.LBB184:
 1891              	.LBI163:
 216:Drivers/lvgl/src/font/lv_font_loader.c **** {
 1892              		.loc 1 216 12 view .LVU631
 1893              	.LBB179:
 218:Drivers/lvgl/src/font/lv_font_loader.c ****     if(value & (1 << (n_bits - 1))) {
 1894              		.loc 1 218 5 view .LVU632
 1895              	.LBB175:
 1896              	.LBI165:
 194:Drivers/lvgl/src/font/lv_font_loader.c **** {
 1897              		.loc 1 194 21 view .LVU633
 1898              	.LBB171:
 196:Drivers/lvgl/src/font/lv_font_loader.c ****     while(n_bits--) {
 1899              		.loc 1 196 5 view .LVU634
 197:Drivers/lvgl/src/font/lv_font_loader.c ****         it->byte_value = it->byte_value << 1;
 1900              		.loc 1 197 5 view .LVU635
 197:Drivers/lvgl/src/font/lv_font_loader.c ****         it->byte_value = it->byte_value << 1;
 1901              		.loc 1 197 11 view .LVU636
 197:Drivers/lvgl/src/font/lv_font_loader.c ****         it->byte_value = it->byte_value << 1;
 1902              		.loc 1 197 11 is_stmt 0 view .LVU637
 1903 047e B9F1000F 		cmp	r9, #0
 1904 0482 00F04883 		beq	.L209
 1905              	.LBB167:
 198:Drivers/lvgl/src/font/lv_font_loader.c ****         it->bit_pos--;
 1906              		.loc 1 198 28 view .LVU638
 1907 0486 9DF84120 		ldrb	r2, [sp, #65]	@ zero_extendqisi2
 1908              	.LVL204:
 198:Drivers/lvgl/src/font/lv_font_loader.c ****         it->bit_pos--;
 1909              		.loc 1 198 28 view .LVU639
 1910 048a 3C46     		mov	r4, r7
 1911              	.LBE167:
 196:Drivers/lvgl/src/font/lv_font_loader.c ****     while(n_bits--) {
 1912              		.loc 1 196 18 view .LVU640
 1913 048c 0025     		movs	r5, #0
 1914 048e 08E0     		b	.L136
 1915              	.LVL205:
 1916              	.L273:
 1917              	.LBB168:
 199:Drivers/lvgl/src/font/lv_font_loader.c **** 
 1918              		.loc 1 199 20 view .LVU641
 1919 0490 8DF84030 		strb	r3, [sp, #64]
 1920              	.L134:
 208:Drivers/lvgl/src/font/lv_font_loader.c **** 
 1921              		.loc 1 208 9 is_stmt 1 view .LVU642
 1922              	.LVL206:
 210:Drivers/lvgl/src/font/lv_font_loader.c ****     }
 1923              		.loc 1 210 9 view .LVU643
 210:Drivers/lvgl/src/font/lv_font_loader.c ****     }
 1924              		.loc 1 210 23 is_stmt 0 view .LVU644
 1925 0494 D309     		lsrs	r3, r2, #7
 1926 0496 A340     		lsls	r3, r3, r4
 1927              	.LBE168:
 197:Drivers/lvgl/src/font/lv_font_loader.c ****         it->byte_value = it->byte_value << 1;
ARM GAS  /var/folders/0z/tsy30v1j4xl4_7kw94k978ww0000gn/T//ccOlCxDD.s 			page 56


 1928              		.loc 1 197 17 view .LVU645
 1929 0498 013C     		subs	r4, r4, #1
 1930              	.LVL207:
 197:Drivers/lvgl/src/font/lv_font_loader.c ****         it->byte_value = it->byte_value << 1;
 1931              		.loc 1 197 11 view .LVU646
 1932 049a 611C     		adds	r1, r4, #1
 1933              	.LBB169:
 210:Drivers/lvgl/src/font/lv_font_loader.c ****     }
 1934              		.loc 1 210 15 view .LVU647
 1935 049c 45EA0305 		orr	r5, r5, r3
 1936              	.LVL208:
 210:Drivers/lvgl/src/font/lv_font_loader.c ****     }
 1937              		.loc 1 210 15 view .LVU648
 1938              	.LBE169:
 197:Drivers/lvgl/src/font/lv_font_loader.c ****         it->byte_value = it->byte_value << 1;
 1939              		.loc 1 197 11 is_stmt 1 view .LVU649
 197:Drivers/lvgl/src/font/lv_font_loader.c ****         it->byte_value = it->byte_value << 1;
 1940              		.loc 1 197 11 is_stmt 0 view .LVU650
 1941 04a0 18D0     		beq	.L272
 1942              	.LVL209:
 1943              	.L136:
 1944              	.LBB170:
 198:Drivers/lvgl/src/font/lv_font_loader.c ****         it->bit_pos--;
 1945              		.loc 1 198 9 is_stmt 1 view .LVU651
 199:Drivers/lvgl/src/font/lv_font_loader.c **** 
 1946              		.loc 1 199 20 is_stmt 0 view .LVU652
 1947 04a2 9DF84030 		ldrb	r3, [sp, #64]	@ zero_extendqisi2
 1948 04a6 013B     		subs	r3, r3, #1
 198:Drivers/lvgl/src/font/lv_font_loader.c ****         it->bit_pos--;
 1949              		.loc 1 198 41 view .LVU653
 1950 04a8 5200     		lsls	r2, r2, #1
 199:Drivers/lvgl/src/font/lv_font_loader.c **** 
 1951              		.loc 1 199 20 view .LVU654
 1952 04aa 5BB2     		sxtb	r3, r3
 198:Drivers/lvgl/src/font/lv_font_loader.c ****         it->bit_pos--;
 1953              		.loc 1 198 41 view .LVU655
 1954 04ac D2B2     		uxtb	r2, r2
 201:Drivers/lvgl/src/font/lv_font_loader.c ****             it->bit_pos = 7;
 1955              		.loc 1 201 11 view .LVU656
 1956 04ae 002B     		cmp	r3, #0
 198:Drivers/lvgl/src/font/lv_font_loader.c ****         it->bit_pos--;
 1957              		.loc 1 198 24 view .LVU657
 1958 04b0 8DF84120 		strb	r2, [sp, #65]
 199:Drivers/lvgl/src/font/lv_font_loader.c **** 
 1959              		.loc 1 199 9 is_stmt 1 view .LVU658
 201:Drivers/lvgl/src/font/lv_font_loader.c ****             it->bit_pos = 7;
 1960              		.loc 1 201 9 view .LVU659
 201:Drivers/lvgl/src/font/lv_font_loader.c ****             it->bit_pos = 7;
 1961              		.loc 1 201 11 is_stmt 0 view .LVU660
 1962 04b4 ECDA     		bge	.L273
 202:Drivers/lvgl/src/font/lv_font_loader.c ****             *res = lv_fs_read(it->fp, &(it->byte_value), 1, NULL);
 1963              		.loc 1 202 13 is_stmt 1 view .LVU661
 203:Drivers/lvgl/src/font/lv_font_loader.c ****             if(*res != LV_FS_RES_OK) {
 1964              		.loc 1 203 20 is_stmt 0 view .LVU662
 1965 04b6 0F98     		ldr	r0, [sp, #60]
 202:Drivers/lvgl/src/font/lv_font_loader.c ****             *res = lv_fs_read(it->fp, &(it->byte_value), 1, NULL);
 1966              		.loc 1 202 25 view .LVU663
ARM GAS  /var/folders/0z/tsy30v1j4xl4_7kw94k978ww0000gn/T//ccOlCxDD.s 			page 57


 1967 04b8 8DF840A0 		strb	r10, [sp, #64]
 203:Drivers/lvgl/src/font/lv_font_loader.c ****             if(*res != LV_FS_RES_OK) {
 1968              		.loc 1 203 13 is_stmt 1 view .LVU664
 203:Drivers/lvgl/src/font/lv_font_loader.c ****             if(*res != LV_FS_RES_OK) {
 1969              		.loc 1 203 20 is_stmt 0 view .LVU665
 1970 04bc 0023     		movs	r3, #0
 1971 04be 0122     		movs	r2, #1
 1972 04c0 0DF14101 		add	r1, sp, #65
 1973 04c4 FFF7FEFF 		bl	lv_fs_read
 1974              	.LVL210:
 204:Drivers/lvgl/src/font/lv_font_loader.c ****                 return 0;
 1975              		.loc 1 204 13 is_stmt 1 view .LVU666
 204:Drivers/lvgl/src/font/lv_font_loader.c ****                 return 0;
 1976              		.loc 1 204 15 is_stmt 0 view .LVU667
 1977 04c8 0028     		cmp	r0, #0
 1978 04ca 40F0E180 		bne	.L135
 208:Drivers/lvgl/src/font/lv_font_loader.c **** 
 1979              		.loc 1 208 25 view .LVU668
 1980 04ce 9DF84120 		ldrb	r2, [sp, #65]	@ zero_extendqisi2
 1981 04d2 DFE7     		b	.L134
 1982              	.LVL211:
 1983              	.L272:
 208:Drivers/lvgl/src/font/lv_font_loader.c **** 
 1984              		.loc 1 208 25 view .LVU669
 1985              	.LBE170:
 1986              	.LBE171:
 1987              	.LBE175:
 219:Drivers/lvgl/src/font/lv_font_loader.c ****         value |= ~0u << n_bits;
 1988              		.loc 1 219 5 is_stmt 1 view .LVU670
 219:Drivers/lvgl/src/font/lv_font_loader.c ****         value |= ~0u << n_bits;
 1989              		.loc 1 219 19 is_stmt 0 view .LVU671
 1990 04d4 0123     		movs	r3, #1
 1991 04d6 BB40     		lsls	r3, r3, r7
 219:Drivers/lvgl/src/font/lv_font_loader.c ****         value |= ~0u << n_bits;
 1992              		.loc 1 219 7 view .LVU672
 1993 04d8 2B42     		tst	r3, r5
 1994 04da 00F0D280 		beq	.L274
 220:Drivers/lvgl/src/font/lv_font_loader.c ****     }
 1995              		.loc 1 220 9 is_stmt 1 view .LVU673
 1996              	.LVL212:
 222:Drivers/lvgl/src/font/lv_font_loader.c **** }
 1997              		.loc 1 222 5 view .LVU674
 220:Drivers/lvgl/src/font/lv_font_loader.c ****     }
 1998              		.loc 1 220 22 is_stmt 0 view .LVU675
 1999 04de 04FA09F4 		lsl	r4, r4, r9
 220:Drivers/lvgl/src/font/lv_font_loader.c ****     }
 2000              		.loc 1 220 15 view .LVU676
 2001 04e2 2C43     		orrs	r4, r4, r5
 2002              	.LBE179:
 2003              	.LBE184:
 384:Drivers/lvgl/src/font/lv_font_loader.c ****         if(res != LV_FS_RES_OK) {
 2004              		.loc 1 384 21 view .LVU677
 2005 04e4 64B2     		sxtb	r4, r4
 385:Drivers/lvgl/src/font/lv_font_loader.c ****             return -1;
 2006              		.loc 1 385 9 is_stmt 1 view .LVU678
 2007              	.LVL213:
 2008              	.L138:
ARM GAS  /var/folders/0z/tsy30v1j4xl4_7kw94k978ww0000gn/T//ccOlCxDD.s 			page 58


 384:Drivers/lvgl/src/font/lv_font_loader.c ****         if(res != LV_FS_RES_OK) {
 2009              		.loc 1 384 21 is_stmt 0 view .LVU679
 2010 04e6 8BF80740 		strb	r4, [fp, #7]
 389:Drivers/lvgl/src/font/lv_font_loader.c ****         if(res != LV_FS_RES_OK) {
 2011              		.loc 1 389 9 is_stmt 1 view .LVU680
 389:Drivers/lvgl/src/font/lv_font_loader.c ****         if(res != LV_FS_RES_OK) {
 2012              		.loc 1 389 23 is_stmt 0 view .LVU681
 2013 04ea 9DF86F30 		ldrb	r3, [sp, #111]	@ zero_extendqisi2
 2014              	.LVL214:
 2015              	.LBB185:
 2016              	.LBI185:
 194:Drivers/lvgl/src/font/lv_font_loader.c **** {
 2017              		.loc 1 194 21 is_stmt 1 view .LVU682
 2018              	.LBB186:
 196:Drivers/lvgl/src/font/lv_font_loader.c ****     while(n_bits--) {
 2019              		.loc 1 196 5 view .LVU683
 197:Drivers/lvgl/src/font/lv_font_loader.c ****         it->byte_value = it->byte_value << 1;
 2020              		.loc 1 197 5 view .LVU684
 197:Drivers/lvgl/src/font/lv_font_loader.c ****         it->byte_value = it->byte_value << 1;
 2021              		.loc 1 197 11 view .LVU685
 197:Drivers/lvgl/src/font/lv_font_loader.c ****         it->byte_value = it->byte_value << 1;
 2022              		.loc 1 197 17 is_stmt 0 view .LVU686
 2023 04ee 5C1E     		subs	r4, r3, #1
 2024              	.LVL215:
 197:Drivers/lvgl/src/font/lv_font_loader.c ****         it->byte_value = it->byte_value << 1;
 2025              		.loc 1 197 11 view .LVU687
 2026 04f0 002B     		cmp	r3, #0
 2027 04f2 00F0D580 		beq	.L139
 2028              	.LBB187:
 198:Drivers/lvgl/src/font/lv_font_loader.c ****         it->bit_pos--;
 2029              		.loc 1 198 28 view .LVU688
 2030 04f6 9DF84120 		ldrb	r2, [sp, #65]	@ zero_extendqisi2
 2031              	.LBE187:
 196:Drivers/lvgl/src/font/lv_font_loader.c ****     while(n_bits--) {
 2032              		.loc 1 196 18 view .LVU689
 2033 04fa 0025     		movs	r5, #0
 2034 04fc 07E0     		b	.L143
 2035              	.LVL216:
 2036              	.L276:
 2037              	.LBB188:
 199:Drivers/lvgl/src/font/lv_font_loader.c **** 
 2038              		.loc 1 199 20 view .LVU690
 2039 04fe 8DF84030 		strb	r3, [sp, #64]
 2040              	.L141:
 208:Drivers/lvgl/src/font/lv_font_loader.c **** 
 2041              		.loc 1 208 9 is_stmt 1 view .LVU691
 2042              	.LVL217:
 210:Drivers/lvgl/src/font/lv_font_loader.c ****     }
 2043              		.loc 1 210 9 view .LVU692
 210:Drivers/lvgl/src/font/lv_font_loader.c ****     }
 2044              		.loc 1 210 23 is_stmt 0 view .LVU693
 2045 0502 D309     		lsrs	r3, r2, #7
 2046 0504 A340     		lsls	r3, r3, r4
 2047              	.LBE188:
 197:Drivers/lvgl/src/font/lv_font_loader.c ****         it->byte_value = it->byte_value << 1;
 2048              		.loc 1 197 17 view .LVU694
 2049 0506 013C     		subs	r4, r4, #1
ARM GAS  /var/folders/0z/tsy30v1j4xl4_7kw94k978ww0000gn/T//ccOlCxDD.s 			page 59


 2050              	.LVL218:
 2051              	.LBB189:
 210:Drivers/lvgl/src/font/lv_font_loader.c ****     }
 2052              		.loc 1 210 15 view .LVU695
 2053 0508 1D43     		orrs	r5, r5, r3
 2054              	.LVL219:
 210:Drivers/lvgl/src/font/lv_font_loader.c ****     }
 2055              		.loc 1 210 15 view .LVU696
 2056              	.LBE189:
 197:Drivers/lvgl/src/font/lv_font_loader.c ****         it->byte_value = it->byte_value << 1;
 2057              		.loc 1 197 11 is_stmt 1 view .LVU697
 197:Drivers/lvgl/src/font/lv_font_loader.c ****         it->byte_value = it->byte_value << 1;
 2058              		.loc 1 197 11 is_stmt 0 view .LVU698
 2059 050a 631C     		adds	r3, r4, #1
 2060 050c 18D0     		beq	.L275
 2061              	.LVL220:
 2062              	.L143:
 2063              	.LBB190:
 198:Drivers/lvgl/src/font/lv_font_loader.c ****         it->bit_pos--;
 2064              		.loc 1 198 9 is_stmt 1 view .LVU699
 199:Drivers/lvgl/src/font/lv_font_loader.c **** 
 2065              		.loc 1 199 20 is_stmt 0 view .LVU700
 2066 050e 9DF84030 		ldrb	r3, [sp, #64]	@ zero_extendqisi2
 2067 0512 013B     		subs	r3, r3, #1
 198:Drivers/lvgl/src/font/lv_font_loader.c ****         it->bit_pos--;
 2068              		.loc 1 198 41 view .LVU701
 2069 0514 5200     		lsls	r2, r2, #1
 199:Drivers/lvgl/src/font/lv_font_loader.c **** 
 2070              		.loc 1 199 20 view .LVU702
 2071 0516 5BB2     		sxtb	r3, r3
 198:Drivers/lvgl/src/font/lv_font_loader.c ****         it->bit_pos--;
 2072              		.loc 1 198 41 view .LVU703
 2073 0518 D2B2     		uxtb	r2, r2
 201:Drivers/lvgl/src/font/lv_font_loader.c ****             it->bit_pos = 7;
 2074              		.loc 1 201 11 view .LVU704
 2075 051a 002B     		cmp	r3, #0
 198:Drivers/lvgl/src/font/lv_font_loader.c ****         it->bit_pos--;
 2076              		.loc 1 198 24 view .LVU705
 2077 051c 8DF84120 		strb	r2, [sp, #65]
 199:Drivers/lvgl/src/font/lv_font_loader.c **** 
 2078              		.loc 1 199 9 is_stmt 1 view .LVU706
 201:Drivers/lvgl/src/font/lv_font_loader.c ****             it->bit_pos = 7;
 2079              		.loc 1 201 9 view .LVU707
 201:Drivers/lvgl/src/font/lv_font_loader.c ****             it->bit_pos = 7;
 2080              		.loc 1 201 11 is_stmt 0 view .LVU708
 2081 0520 EDDA     		bge	.L276
 202:Drivers/lvgl/src/font/lv_font_loader.c ****             *res = lv_fs_read(it->fp, &(it->byte_value), 1, NULL);
 2082              		.loc 1 202 13 is_stmt 1 view .LVU709
 203:Drivers/lvgl/src/font/lv_font_loader.c ****             if(*res != LV_FS_RES_OK) {
 2083              		.loc 1 203 20 is_stmt 0 view .LVU710
 2084 0522 0F98     		ldr	r0, [sp, #60]
 202:Drivers/lvgl/src/font/lv_font_loader.c ****             *res = lv_fs_read(it->fp, &(it->byte_value), 1, NULL);
 2085              		.loc 1 202 25 view .LVU711
 2086 0524 8DF840A0 		strb	r10, [sp, #64]
 203:Drivers/lvgl/src/font/lv_font_loader.c ****             if(*res != LV_FS_RES_OK) {
 2087              		.loc 1 203 13 is_stmt 1 view .LVU712
 203:Drivers/lvgl/src/font/lv_font_loader.c ****             if(*res != LV_FS_RES_OK) {
ARM GAS  /var/folders/0z/tsy30v1j4xl4_7kw94k978ww0000gn/T//ccOlCxDD.s 			page 60


 2088              		.loc 1 203 20 is_stmt 0 view .LVU713
 2089 0528 0023     		movs	r3, #0
 2090 052a 0122     		movs	r2, #1
 2091 052c 0DF14101 		add	r1, sp, #65
 2092 0530 FFF7FEFF 		bl	lv_fs_read
 2093              	.LVL221:
 204:Drivers/lvgl/src/font/lv_font_loader.c ****                 return 0;
 2094              		.loc 1 204 13 is_stmt 1 view .LVU714
 204:Drivers/lvgl/src/font/lv_font_loader.c ****                 return 0;
 2095              		.loc 1 204 15 is_stmt 0 view .LVU715
 2096 0534 0028     		cmp	r0, #0
 2097 0536 40F0B680 		bne	.L142
 208:Drivers/lvgl/src/font/lv_font_loader.c **** 
 2098              		.loc 1 208 25 view .LVU716
 2099 053a 9DF84120 		ldrb	r2, [sp, #65]	@ zero_extendqisi2
 2100 053e E0E7     		b	.L141
 2101              	.LVL222:
 2102              	.L275:
 208:Drivers/lvgl/src/font/lv_font_loader.c **** 
 2103              		.loc 1 208 25 view .LVU717
 2104              	.LBE190:
 2105              	.LBE186:
 2106              	.LBE185:
 394:Drivers/lvgl/src/font/lv_font_loader.c ****         if(res != LV_FS_RES_OK) {
 2107              		.loc 1 394 23 view .LVU718
 2108 0540 9DF86F30 		ldrb	r3, [sp, #111]	@ zero_extendqisi2
 389:Drivers/lvgl/src/font/lv_font_loader.c ****         if(res != LV_FS_RES_OK) {
 2109              		.loc 1 389 21 view .LVU719
 2110 0544 8BF80450 		strb	r5, [fp, #4]
 2111              	.LBB191:
 2112              	.LBB192:
 197:Drivers/lvgl/src/font/lv_font_loader.c ****         it->byte_value = it->byte_value << 1;
 2113              		.loc 1 197 17 view .LVU720
 2114 0548 5C1E     		subs	r4, r3, #1
 2115              	.LVL223:
 197:Drivers/lvgl/src/font/lv_font_loader.c ****         it->byte_value = it->byte_value << 1;
 2116              		.loc 1 197 17 view .LVU721
 2117              	.LBE192:
 2118              	.LBE191:
 390:Drivers/lvgl/src/font/lv_font_loader.c ****             return -1;
 2119              		.loc 1 390 9 is_stmt 1 view .LVU722
 394:Drivers/lvgl/src/font/lv_font_loader.c ****         if(res != LV_FS_RES_OK) {
 2120              		.loc 1 394 9 view .LVU723
 2121              	.LBB199:
 2122              	.LBI191:
 194:Drivers/lvgl/src/font/lv_font_loader.c **** {
 2123              		.loc 1 194 21 view .LVU724
 2124              	.LBB197:
 196:Drivers/lvgl/src/font/lv_font_loader.c ****     while(n_bits--) {
 2125              		.loc 1 196 5 view .LVU725
 197:Drivers/lvgl/src/font/lv_font_loader.c ****         it->byte_value = it->byte_value << 1;
 2126              		.loc 1 197 5 view .LVU726
 197:Drivers/lvgl/src/font/lv_font_loader.c ****         it->byte_value = it->byte_value << 1;
 2127              		.loc 1 197 11 view .LVU727
 197:Drivers/lvgl/src/font/lv_font_loader.c ****         it->byte_value = it->byte_value << 1;
 2128              		.loc 1 197 11 is_stmt 0 view .LVU728
 2129 054a 43B3     		cbz	r3, .L144
ARM GAS  /var/folders/0z/tsy30v1j4xl4_7kw94k978ww0000gn/T//ccOlCxDD.s 			page 61


 2130              	.LBB193:
 198:Drivers/lvgl/src/font/lv_font_loader.c ****         it->bit_pos--;
 2131              		.loc 1 198 28 view .LVU729
 2132 054c 9DF84120 		ldrb	r2, [sp, #65]	@ zero_extendqisi2
 2133              	.LVL224:
 198:Drivers/lvgl/src/font/lv_font_loader.c ****         it->bit_pos--;
 2134              		.loc 1 198 28 view .LVU730
 2135              	.LBE193:
 196:Drivers/lvgl/src/font/lv_font_loader.c ****     while(n_bits--) {
 2136              		.loc 1 196 18 view .LVU731
 2137 0550 0026     		movs	r6, #0
 2138 0552 08E0     		b	.L148
 2139              	.LVL225:
 2140              	.L278:
 2141              	.LBB194:
 199:Drivers/lvgl/src/font/lv_font_loader.c **** 
 2142              		.loc 1 199 20 view .LVU732
 2143 0554 8DF84030 		strb	r3, [sp, #64]
 2144              	.L146:
 208:Drivers/lvgl/src/font/lv_font_loader.c **** 
 2145              		.loc 1 208 9 is_stmt 1 view .LVU733
 2146              	.LVL226:
 210:Drivers/lvgl/src/font/lv_font_loader.c ****     }
 2147              		.loc 1 210 9 view .LVU734
 210:Drivers/lvgl/src/font/lv_font_loader.c ****     }
 2148              		.loc 1 210 23 is_stmt 0 view .LVU735
 2149 0558 D309     		lsrs	r3, r2, #7
 2150 055a A340     		lsls	r3, r3, r4
 2151              	.LBE194:
 197:Drivers/lvgl/src/font/lv_font_loader.c ****         it->byte_value = it->byte_value << 1;
 2152              		.loc 1 197 17 view .LVU736
 2153 055c 013C     		subs	r4, r4, #1
 2154              	.LVL227:
 197:Drivers/lvgl/src/font/lv_font_loader.c ****         it->byte_value = it->byte_value << 1;
 2155              		.loc 1 197 11 view .LVU737
 2156 055e 671C     		adds	r7, r4, #1
 2157              	.LBB195:
 210:Drivers/lvgl/src/font/lv_font_loader.c ****     }
 2158              		.loc 1 210 15 view .LVU738
 2159 0560 46EA0306 		orr	r6, r6, r3
 2160              	.LVL228:
 210:Drivers/lvgl/src/font/lv_font_loader.c ****     }
 2161              		.loc 1 210 15 view .LVU739
 2162              	.LBE195:
 197:Drivers/lvgl/src/font/lv_font_loader.c ****         it->byte_value = it->byte_value << 1;
 2163              		.loc 1 197 11 is_stmt 1 view .LVU740
 197:Drivers/lvgl/src/font/lv_font_loader.c ****         it->byte_value = it->byte_value << 1;
 2164              		.loc 1 197 11 is_stmt 0 view .LVU741
 2165 0564 18D0     		beq	.L277
 2166              	.LVL229:
 2167              	.L148:
 2168              	.LBB196:
 198:Drivers/lvgl/src/font/lv_font_loader.c ****         it->bit_pos--;
 2169              		.loc 1 198 9 is_stmt 1 view .LVU742
 199:Drivers/lvgl/src/font/lv_font_loader.c **** 
 2170              		.loc 1 199 20 is_stmt 0 view .LVU743
 2171 0566 9DF84030 		ldrb	r3, [sp, #64]	@ zero_extendqisi2
ARM GAS  /var/folders/0z/tsy30v1j4xl4_7kw94k978ww0000gn/T//ccOlCxDD.s 			page 62


 2172 056a 013B     		subs	r3, r3, #1
 198:Drivers/lvgl/src/font/lv_font_loader.c ****         it->bit_pos--;
 2173              		.loc 1 198 41 view .LVU744
 2174 056c 5200     		lsls	r2, r2, #1
 199:Drivers/lvgl/src/font/lv_font_loader.c **** 
 2175              		.loc 1 199 20 view .LVU745
 2176 056e 5BB2     		sxtb	r3, r3
 198:Drivers/lvgl/src/font/lv_font_loader.c ****         it->bit_pos--;
 2177              		.loc 1 198 41 view .LVU746
 2178 0570 D2B2     		uxtb	r2, r2
 201:Drivers/lvgl/src/font/lv_font_loader.c ****             it->bit_pos = 7;
 2179              		.loc 1 201 11 view .LVU747
 2180 0572 002B     		cmp	r3, #0
 198:Drivers/lvgl/src/font/lv_font_loader.c ****         it->bit_pos--;
 2181              		.loc 1 198 24 view .LVU748
 2182 0574 8DF84120 		strb	r2, [sp, #65]
 199:Drivers/lvgl/src/font/lv_font_loader.c **** 
 2183              		.loc 1 199 9 is_stmt 1 view .LVU749
 201:Drivers/lvgl/src/font/lv_font_loader.c ****             it->bit_pos = 7;
 2184              		.loc 1 201 9 view .LVU750
 201:Drivers/lvgl/src/font/lv_font_loader.c ****             it->bit_pos = 7;
 2185              		.loc 1 201 11 is_stmt 0 view .LVU751
 2186 0578 ECDA     		bge	.L278
 202:Drivers/lvgl/src/font/lv_font_loader.c ****             *res = lv_fs_read(it->fp, &(it->byte_value), 1, NULL);
 2187              		.loc 1 202 13 is_stmt 1 view .LVU752
 203:Drivers/lvgl/src/font/lv_font_loader.c ****             if(*res != LV_FS_RES_OK) {
 2188              		.loc 1 203 20 is_stmt 0 view .LVU753
 2189 057a 0F98     		ldr	r0, [sp, #60]
 202:Drivers/lvgl/src/font/lv_font_loader.c ****             *res = lv_fs_read(it->fp, &(it->byte_value), 1, NULL);
 2190              		.loc 1 202 25 view .LVU754
 2191 057c 8DF840A0 		strb	r10, [sp, #64]
 203:Drivers/lvgl/src/font/lv_font_loader.c ****             if(*res != LV_FS_RES_OK) {
 2192              		.loc 1 203 13 is_stmt 1 view .LVU755
 203:Drivers/lvgl/src/font/lv_font_loader.c ****             if(*res != LV_FS_RES_OK) {
 2193              		.loc 1 203 20 is_stmt 0 view .LVU756
 2194 0580 0023     		movs	r3, #0
 2195 0582 0122     		movs	r2, #1
 2196 0584 0DF14101 		add	r1, sp, #65
 2197 0588 FFF7FEFF 		bl	lv_fs_read
 2198              	.LVL230:
 204:Drivers/lvgl/src/font/lv_font_loader.c ****                 return 0;
 2199              		.loc 1 204 13 is_stmt 1 view .LVU757
 204:Drivers/lvgl/src/font/lv_font_loader.c ****                 return 0;
 2200              		.loc 1 204 15 is_stmt 0 view .LVU758
 2201 058c 0028     		cmp	r0, #0
 2202 058e 40F02082 		bne	.L147
 208:Drivers/lvgl/src/font/lv_font_loader.c **** 
 2203              		.loc 1 208 25 view .LVU759
 2204 0592 9DF84120 		ldrb	r2, [sp, #65]	@ zero_extendqisi2
 2205 0596 DFE7     		b	.L146
 2206              	.LVL231:
 2207              	.L277:
 208:Drivers/lvgl/src/font/lv_font_loader.c **** 
 2208              		.loc 1 208 25 view .LVU760
 2209              	.LBE196:
 2210              	.LBE197:
 2211              	.LBE199:
ARM GAS  /var/folders/0z/tsy30v1j4xl4_7kw94k978ww0000gn/T//ccOlCxDD.s 			page 63


 399:Drivers/lvgl/src/font/lv_font_loader.c ****         int next_offset = (i < loca_count - 1) ? glyph_offset[i + 1] : (uint32_t)glyph_length;
 2212              		.loc 1 399 82 view .LVU761
 2213 0598 9DF86F30 		ldrb	r3, [sp, #111]	@ zero_extendqisi2
 394:Drivers/lvgl/src/font/lv_font_loader.c ****         if(res != LV_FS_RES_OK) {
 2214              		.loc 1 394 21 view .LVU762
 2215 059c F6B2     		uxtb	r6, r6
 2216              	.LVL232:
 2217              	.L144:
 400:Drivers/lvgl/src/font/lv_font_loader.c ****         int bmp_size = next_offset - glyph_offset[i] - nbits / 8;
 2218              		.loc 1 400 43 view .LVU763
 2219 059e 029A     		ldr	r2, [sp, #8]
 394:Drivers/lvgl/src/font/lv_font_loader.c ****         if(res != LV_FS_RES_OK) {
 2220              		.loc 1 394 21 view .LVU764
 2221 05a0 8BF80560 		strb	r6, [fp, #5]
 395:Drivers/lvgl/src/font/lv_font_loader.c ****             return -1;
 2222              		.loc 1 395 9 is_stmt 1 view .LVU765
 399:Drivers/lvgl/src/font/lv_font_loader.c ****         int next_offset = (i < loca_count - 1) ? glyph_offset[i + 1] : (uint32_t)glyph_length;
 2223              		.loc 1 399 9 view .LVU766
 400:Drivers/lvgl/src/font/lv_font_loader.c ****         int bmp_size = next_offset - glyph_offset[i] - nbits / 8;
 2224              		.loc 1 400 43 is_stmt 0 view .LVU767
 2225 05a4 02F1FF39 		add	r9, r2, #-1
 400:Drivers/lvgl/src/font/lv_font_loader.c ****         int bmp_size = next_offset - glyph_offset[i] - nbits / 8;
 2226              		.loc 1 400 70 view .LVU768
 2227 05a8 C145     		cmp	r9, r8
 399:Drivers/lvgl/src/font/lv_font_loader.c ****         int next_offset = (i < loca_count - 1) ? glyph_offset[i + 1] : (uint32_t)glyph_length;
 2228              		.loc 1 399 27 view .LVU769
 2229 05aa 9DF870C0 		ldrb	ip, [sp, #112]	@ zero_extendqisi2
 399:Drivers/lvgl/src/font/lv_font_loader.c ****         int next_offset = (i < loca_count - 1) ? glyph_offset[i + 1] : (uint32_t)glyph_length;
 2230              		.loc 1 399 60 view .LVU770
 2231 05ae 9DF86E50 		ldrb	r5, [sp, #110]	@ zero_extendqisi2
 2232              	.LVL233:
 400:Drivers/lvgl/src/font/lv_font_loader.c ****         int bmp_size = next_offset - glyph_offset[i] - nbits / 8;
 2233              		.loc 1 400 9 is_stmt 1 view .LVU771
 400:Drivers/lvgl/src/font/lv_font_loader.c ****         int bmp_size = next_offset - glyph_offset[i] - nbits / 8;
 2234              		.loc 1 400 70 is_stmt 0 view .LVU772
 2235 05b2 25D8     		bhi	.L201
 2236 05b4 069C     		ldr	r4, [sp, #24]
 2237 05b6 08F10100 		add	r0, r8, #1
 2238              	.L202:
 401:Drivers/lvgl/src/font/lv_font_loader.c **** 
 2239              		.loc 1 401 9 is_stmt 1 view .LVU773
 401:Drivers/lvgl/src/font/lv_font_loader.c **** 
 2240              		.loc 1 401 50 is_stmt 0 view .LVU774
 2241 05ba 0199     		ldr	r1, [sp, #4]
 2242 05bc 51F8041C 		ldr	r1, [r1, #-4]
 2243              	.LVL234:
 403:Drivers/lvgl/src/font/lv_font_loader.c ****             gdsc->adv_w = 0;
 2244              		.loc 1 403 9 is_stmt 1 view .LVU775
 403:Drivers/lvgl/src/font/lv_font_loader.c ****             gdsc->adv_w = 0;
 2245              		.loc 1 403 11 is_stmt 0 view .LVU776
 2246 05c0 B8F1000F 		cmp	r8, #0
 2247 05c4 21D0     		beq	.L150
 411:Drivers/lvgl/src/font/lv_font_loader.c ****         if(gdsc->box_w * gdsc->box_h != 0) {
 2248              		.loc 1 411 28 view .LVU777
 2249 05c6 DBF80070 		ldr	r7, [fp]
 2250 05ca 039A     		ldr	r2, [sp, #12]
 2251 05cc 62F31307 		bfi	r7, r2, #0, #20
ARM GAS  /var/folders/0z/tsy30v1j4xl4_7kw94k978ww0000gn/T//ccOlCxDD.s 			page 64


 2252              	.LVL235:
 411:Drivers/lvgl/src/font/lv_font_loader.c ****         if(gdsc->box_w * gdsc->box_h != 0) {
 2253              		.loc 1 411 28 view .LVU778
 2254 05d0 CBF80070 		str	r7, [fp]
 412:Drivers/lvgl/src/font/lv_font_loader.c ****             cur_bmp_size += bmp_size;
 2255              		.loc 1 412 24 view .LVU779
 2256 05d4 9BF80470 		ldrb	r7, [fp, #4]	@ zero_extendqisi2
 2257 05d8 17FB06F7 		smulbb	r7, r7, r6
 411:Drivers/lvgl/src/font/lv_font_loader.c ****         if(gdsc->box_w * gdsc->box_h != 0) {
 2258              		.loc 1 411 9 is_stmt 1 view .LVU780
 412:Drivers/lvgl/src/font/lv_font_loader.c ****             cur_bmp_size += bmp_size;
 2259              		.loc 1 412 9 view .LVU781
 412:Drivers/lvgl/src/font/lv_font_loader.c ****             cur_bmp_size += bmp_size;
 2260              		.loc 1 412 11 is_stmt 0 view .LVU782
 2261 05dc 4FB1     		cbz	r7, .L152
 413:Drivers/lvgl/src/font/lv_font_loader.c ****         }
 2262              		.loc 1 413 13 is_stmt 1 view .LVU783
 399:Drivers/lvgl/src/font/lv_font_loader.c ****         int next_offset = (i < loca_count - 1) ? glyph_offset[i + 1] : (uint32_t)glyph_length;
 2263              		.loc 1 399 48 is_stmt 0 view .LVU784
 2264 05de 0CEB4502 		add	r2, ip, r5, lsl #1
 399:Drivers/lvgl/src/font/lv_font_loader.c ****         int next_offset = (i < loca_count - 1) ? glyph_offset[i + 1] : (uint32_t)glyph_length;
 2265              		.loc 1 399 13 view .LVU785
 2266 05e2 02EB4302 		add	r2, r2, r3, lsl #1
 401:Drivers/lvgl/src/font/lv_font_loader.c **** 
 2267              		.loc 1 401 54 view .LVU786
 2268 05e6 01EBE201 		add	r1, r1, r2, asr #3
 2269              	.LVL236:
 413:Drivers/lvgl/src/font/lv_font_loader.c ****         }
 2270              		.loc 1 413 26 view .LVU787
 2271 05ea 039B     		ldr	r3, [sp, #12]
 2272              	.LVL237:
 401:Drivers/lvgl/src/font/lv_font_loader.c **** 
 2273              		.loc 1 401 54 view .LVU788
 2274 05ec 611A     		subs	r1, r4, r1
 413:Drivers/lvgl/src/font/lv_font_loader.c ****         }
 2275              		.loc 1 413 26 view .LVU789
 2276 05ee 0B44     		add	r3, r3, r1
 2277 05f0 0393     		str	r3, [sp, #12]
 2278              	.LVL238:
 2279              	.L152:
 413:Drivers/lvgl/src/font/lv_font_loader.c ****         }
 2280              		.loc 1 413 26 view .LVU790
 2281              	.LBE141:
 355:Drivers/lvgl/src/font/lv_font_loader.c ****         lv_font_fmt_txt_glyph_dsc_t * gdsc = &glyph_dsc[i];
 2282              		.loc 1 355 45 is_stmt 1 view .LVU791
 355:Drivers/lvgl/src/font/lv_font_loader.c ****         lv_font_fmt_txt_glyph_dsc_t * gdsc = &glyph_dsc[i];
 2283              		.loc 1 355 31 view .LVU792
 2284 05f2 029B     		ldr	r3, [sp, #8]
 2285 05f4 8342     		cmp	r3, r0
 2286 05f6 0BF1080B 		add	fp, fp, #8
 2287              	.LVL239:
 355:Drivers/lvgl/src/font/lv_font_loader.c ****         lv_font_fmt_txt_glyph_dsc_t * gdsc = &glyph_dsc[i];
 2288              		.loc 1 355 31 is_stmt 0 view .LVU793
 2289 05fa 5BD9     		bls	.L279
 2290 05fc 8046     		mov	r8, r0
 2291              	.LVL240:
 355:Drivers/lvgl/src/font/lv_font_loader.c ****         lv_font_fmt_txt_glyph_dsc_t * gdsc = &glyph_dsc[i];
ARM GAS  /var/folders/0z/tsy30v1j4xl4_7kw94k978ww0000gn/T//ccOlCxDD.s 			page 65


 2292              		.loc 1 355 31 view .LVU794
 2293 05fe D5E6     		b	.L153
 2294              	.LVL241:
 2295              	.L201:
 2296              	.LBB209:
 400:Drivers/lvgl/src/font/lv_font_loader.c ****         int bmp_size = next_offset - glyph_offset[i] - nbits / 8;
 2297              		.loc 1 400 62 view .LVU795
 2298 0600 019A     		ldr	r2, [sp, #4]
 2299 0602 08F10100 		add	r0, r8, #1
 2300 0606 1468     		ldr	r4, [r2]
 2301 0608 D7E7     		b	.L202
 2302              	.LVL242:
 2303              	.L150:
 404:Drivers/lvgl/src/font/lv_font_loader.c ****             gdsc->box_w = 0;
 2304              		.loc 1 404 13 is_stmt 1 view .LVU796
 405:Drivers/lvgl/src/font/lv_font_loader.c ****             gdsc->box_h = 0;
 2305              		.loc 1 405 13 view .LVU797
 406:Drivers/lvgl/src/font/lv_font_loader.c ****             gdsc->ofs_x = 0;
 2306              		.loc 1 406 13 view .LVU798
 411:Drivers/lvgl/src/font/lv_font_loader.c ****         if(gdsc->box_w * gdsc->box_h != 0) {
 2307              		.loc 1 411 28 is_stmt 0 view .LVU799
 2308 060a 039B     		ldr	r3, [sp, #12]
 2309              	.LVL243:
 405:Drivers/lvgl/src/font/lv_font_loader.c ****             gdsc->box_h = 0;
 2310              		.loc 1 405 25 view .LVU800
 2311 060c ABF80480 		strh	r8, [fp, #4]	@ movhi
 407:Drivers/lvgl/src/font/lv_font_loader.c ****             gdsc->ofs_y = 0;
 2312              		.loc 1 407 13 is_stmt 1 view .LVU801
 408:Drivers/lvgl/src/font/lv_font_loader.c ****         }
 2313              		.loc 1 408 13 view .LVU802
 411:Drivers/lvgl/src/font/lv_font_loader.c ****         if(gdsc->box_w * gdsc->box_h != 0) {
 2314              		.loc 1 411 28 is_stmt 0 view .LVU803
 2315 0610 C3F31303 		ubfx	r3, r3, #0, #20
 407:Drivers/lvgl/src/font/lv_font_loader.c ****             gdsc->ofs_y = 0;
 2316              		.loc 1 407 25 view .LVU804
 2317 0614 ABF80680 		strh	r8, [fp, #6]	@ movhi
 411:Drivers/lvgl/src/font/lv_font_loader.c ****         if(gdsc->box_w * gdsc->box_h != 0) {
 2318              		.loc 1 411 9 is_stmt 1 view .LVU805
 411:Drivers/lvgl/src/font/lv_font_loader.c ****         if(gdsc->box_w * gdsc->box_h != 0) {
 2319              		.loc 1 411 28 is_stmt 0 view .LVU806
 2320 0618 CBF80030 		str	r3, [fp]
 412:Drivers/lvgl/src/font/lv_font_loader.c ****             cur_bmp_size += bmp_size;
 2321              		.loc 1 412 9 is_stmt 1 view .LVU807
 2322 061c E9E7     		b	.L152
 2323              	.LVL244:
 2324              	.L117:
 369:Drivers/lvgl/src/font/lv_font_loader.c ****             if(res != LV_FS_RES_OK) {
 2325              		.loc 1 369 13 view .LVU808
 2326              	.LBB200:
 2327              	.LBI142:
 194:Drivers/lvgl/src/font/lv_font_loader.c **** {
 2328              		.loc 1 194 21 view .LVU809
 2329              	.LBB147:
 196:Drivers/lvgl/src/font/lv_font_loader.c ****     while(n_bits--) {
 2330              		.loc 1 196 5 view .LVU810
 197:Drivers/lvgl/src/font/lv_font_loader.c ****         it->byte_value = it->byte_value << 1;
 2331              		.loc 1 197 5 view .LVU811
ARM GAS  /var/folders/0z/tsy30v1j4xl4_7kw94k978ww0000gn/T//ccOlCxDD.s 			page 66


 197:Drivers/lvgl/src/font/lv_font_loader.c ****         it->byte_value = it->byte_value << 1;
 2332              		.loc 1 197 11 view .LVU812
 197:Drivers/lvgl/src/font/lv_font_loader.c ****         it->byte_value = it->byte_value << 1;
 2333              		.loc 1 197 17 is_stmt 0 view .LVU813
 2334 061e 013C     		subs	r4, r4, #1
 2335              	.LVL245:
 197:Drivers/lvgl/src/font/lv_font_loader.c ****         it->byte_value = it->byte_value << 1;
 2336              		.loc 1 197 17 view .LVU814
 2337 0620 0246     		mov	r2, r0
 2338 0622 4FF0FF33 		mov	r3, #-1
 196:Drivers/lvgl/src/font/lv_font_loader.c ****     while(n_bits--) {
 2339              		.loc 1 196 18 view .LVU815
 2340 0626 0546     		mov	r5, r0
 2341 0628 08E0     		b	.L123
 2342              	.LVL246:
 2343              	.L280:
 2344              	.LBB145:
 199:Drivers/lvgl/src/font/lv_font_loader.c **** 
 2345              		.loc 1 199 20 view .LVU816
 2346 062a 8DF84030 		strb	r3, [sp, #64]
 2347              	.L120:
 208:Drivers/lvgl/src/font/lv_font_loader.c **** 
 2348              		.loc 1 208 9 is_stmt 1 view .LVU817
 2349              	.LVL247:
 210:Drivers/lvgl/src/font/lv_font_loader.c ****     }
 2350              		.loc 1 210 9 view .LVU818
 210:Drivers/lvgl/src/font/lv_font_loader.c ****     }
 2351              		.loc 1 210 23 is_stmt 0 view .LVU819
 2352 062e D309     		lsrs	r3, r2, #7
 2353 0630 A340     		lsls	r3, r3, r4
 210:Drivers/lvgl/src/font/lv_font_loader.c ****     }
 2354              		.loc 1 210 15 view .LVU820
 2355 0632 1D43     		orrs	r5, r5, r3
 2356              	.LVL248:
 210:Drivers/lvgl/src/font/lv_font_loader.c ****     }
 2357              		.loc 1 210 15 view .LVU821
 2358              	.LBE145:
 197:Drivers/lvgl/src/font/lv_font_loader.c ****         it->byte_value = it->byte_value << 1;
 2359              		.loc 1 197 11 is_stmt 1 view .LVU822
 197:Drivers/lvgl/src/font/lv_font_loader.c ****         it->byte_value = it->byte_value << 1;
 2360              		.loc 1 197 11 is_stmt 0 view .LVU823
 2361 0634 CCB1     		cbz	r4, .L122
 2362              	.LBB146:
 199:Drivers/lvgl/src/font/lv_font_loader.c **** 
 2363              		.loc 1 199 11 view .LVU824
 2364 0636 9DF94030 		ldrsb	r3, [sp, #64]
 2365 063a 013C     		subs	r4, r4, #1
 2366              	.LVL249:
 2367              	.L123:
 198:Drivers/lvgl/src/font/lv_font_loader.c ****         it->bit_pos--;
 2368              		.loc 1 198 9 is_stmt 1 view .LVU825
 199:Drivers/lvgl/src/font/lv_font_loader.c **** 
 2369              		.loc 1 199 20 is_stmt 0 view .LVU826
 2370 063c 013B     		subs	r3, r3, #1
 198:Drivers/lvgl/src/font/lv_font_loader.c ****         it->bit_pos--;
 2371              		.loc 1 198 41 view .LVU827
 2372 063e 5200     		lsls	r2, r2, #1
ARM GAS  /var/folders/0z/tsy30v1j4xl4_7kw94k978ww0000gn/T//ccOlCxDD.s 			page 67


 199:Drivers/lvgl/src/font/lv_font_loader.c **** 
 2373              		.loc 1 199 20 view .LVU828
 2374 0640 5BB2     		sxtb	r3, r3
 198:Drivers/lvgl/src/font/lv_font_loader.c ****         it->bit_pos--;
 2375              		.loc 1 198 41 view .LVU829
 2376 0642 D2B2     		uxtb	r2, r2
 201:Drivers/lvgl/src/font/lv_font_loader.c ****             it->bit_pos = 7;
 2377              		.loc 1 201 11 view .LVU830
 2378 0644 002B     		cmp	r3, #0
 198:Drivers/lvgl/src/font/lv_font_loader.c ****         it->bit_pos--;
 2379              		.loc 1 198 24 view .LVU831
 2380 0646 8DF84120 		strb	r2, [sp, #65]
 199:Drivers/lvgl/src/font/lv_font_loader.c **** 
 2381              		.loc 1 199 9 is_stmt 1 view .LVU832
 201:Drivers/lvgl/src/font/lv_font_loader.c ****             it->bit_pos = 7;
 2382              		.loc 1 201 9 view .LVU833
 201:Drivers/lvgl/src/font/lv_font_loader.c ****             it->bit_pos = 7;
 2383              		.loc 1 201 11 is_stmt 0 view .LVU834
 2384 064a EEDA     		bge	.L280
 202:Drivers/lvgl/src/font/lv_font_loader.c ****             *res = lv_fs_read(it->fp, &(it->byte_value), 1, NULL);
 2385              		.loc 1 202 13 is_stmt 1 view .LVU835
 203:Drivers/lvgl/src/font/lv_font_loader.c ****             if(*res != LV_FS_RES_OK) {
 2386              		.loc 1 203 20 is_stmt 0 view .LVU836
 2387 064c 0F98     		ldr	r0, [sp, #60]
 202:Drivers/lvgl/src/font/lv_font_loader.c ****             *res = lv_fs_read(it->fp, &(it->byte_value), 1, NULL);
 2388              		.loc 1 202 25 view .LVU837
 2389 064e 8DF840A0 		strb	r10, [sp, #64]
 203:Drivers/lvgl/src/font/lv_font_loader.c ****             if(*res != LV_FS_RES_OK) {
 2390              		.loc 1 203 13 is_stmt 1 view .LVU838
 203:Drivers/lvgl/src/font/lv_font_loader.c ****             if(*res != LV_FS_RES_OK) {
 2391              		.loc 1 203 20 is_stmt 0 view .LVU839
 2392 0652 0023     		movs	r3, #0
 2393 0654 0122     		movs	r2, #1
 2394 0656 0DF14101 		add	r1, sp, #65
 2395 065a FFF7FEFF 		bl	lv_fs_read
 2396              	.LVL250:
 204:Drivers/lvgl/src/font/lv_font_loader.c ****                 return 0;
 2397              		.loc 1 204 13 is_stmt 1 view .LVU840
 204:Drivers/lvgl/src/font/lv_font_loader.c ****                 return 0;
 2398              		.loc 1 204 15 is_stmt 0 view .LVU841
 2399 065e 0028     		cmp	r0, #0
 2400 0660 40F05B82 		bne	.L121
 208:Drivers/lvgl/src/font/lv_font_loader.c **** 
 2401              		.loc 1 208 25 view .LVU842
 2402 0664 9DF84120 		ldrb	r2, [sp, #65]	@ zero_extendqisi2
 2403 0668 E1E7     		b	.L120
 2404              	.LVL251:
 2405              	.L122:
 208:Drivers/lvgl/src/font/lv_font_loader.c **** 
 2406              		.loc 1 208 25 view .LVU843
 2407              	.LBE146:
 2408              	.LBE147:
 2409              	.LBE200:
 369:Drivers/lvgl/src/font/lv_font_loader.c ****             if(res != LV_FS_RES_OK) {
 2410              		.loc 1 369 27 view .LVU844
 2411 066a C5F30B05 		ubfx	r5, r5, #0, #12
 370:Drivers/lvgl/src/font/lv_font_loader.c ****                 return -1;
ARM GAS  /var/folders/0z/tsy30v1j4xl4_7kw94k978ww0000gn/T//ccOlCxDD.s 			page 68


 2412              		.loc 1 370 13 is_stmt 1 view .LVU845
 2413 066e B9E6     		b	.L118
 2414              	.L292:
 2415              		.align	2
 2416              	.L291:
 2417 0670 676C7966 		.word	1719233639
 2418              	.LVL252:
 2419              	.L271:
 384:Drivers/lvgl/src/font/lv_font_loader.c ****         if(res != LV_FS_RES_OK) {
 2420              		.loc 1 384 23 is_stmt 0 view .LVU846
 2421 0674 9DF86E90 		ldrb	r9, [sp, #110]	@ zero_extendqisi2
 379:Drivers/lvgl/src/font/lv_font_loader.c ****         if(res != LV_FS_RES_OK) {
 2422              		.loc 1 379 21 view .LVU847
 2423 0678 8BF80670 		strb	r7, [fp, #6]
 2424              	.LBB201:
 2425              	.LBB180:
 2426              	.LBB176:
 2427              	.LBB172:
 197:Drivers/lvgl/src/font/lv_font_loader.c ****         it->byte_value = it->byte_value << 1;
 2428              		.loc 1 197 17 view .LVU848
 2429 067c 09F1FF37 		add	r7, r9, #-1
 2430              	.LVL253:
 197:Drivers/lvgl/src/font/lv_font_loader.c ****         it->byte_value = it->byte_value << 1;
 2431              		.loc 1 197 17 view .LVU849
 2432              	.LBE172:
 2433              	.LBE176:
 2434              	.LBE180:
 2435              	.LBE201:
 2436              	.LBB202:
 2437              	.LBB160:
 222:Drivers/lvgl/src/font/lv_font_loader.c **** }
 2438              		.loc 1 222 5 is_stmt 1 view .LVU850
 222:Drivers/lvgl/src/font/lv_font_loader.c **** }
 2439              		.loc 1 222 5 is_stmt 0 view .LVU851
 2440              	.LBE160:
 2441              	.LBE202:
 380:Drivers/lvgl/src/font/lv_font_loader.c ****             return -1;
 2442              		.loc 1 380 9 is_stmt 1 view .LVU852
 2443 0680 FDE6     		b	.L131
 2444              	.LVL254:
 2445              	.L274:
 384:Drivers/lvgl/src/font/lv_font_loader.c ****         if(res != LV_FS_RES_OK) {
 2446              		.loc 1 384 21 is_stmt 0 view .LVU853
 2447 0682 6CB2     		sxtb	r4, r5
 2448 0684 2FE7     		b	.L138
 2449              	.LVL255:
 2450              	.L128:
 379:Drivers/lvgl/src/font/lv_font_loader.c ****         if(res != LV_FS_RES_OK) {
 2451              		.loc 1 379 21 view .LVU854
 2452 0686 0023     		movs	r3, #0
 2453 0688 079C     		ldr	r4, [sp, #28]
 2454              	.LVL256:
 2455              	.LBB203:
 2456              	.LBB161:
 222:Drivers/lvgl/src/font/lv_font_loader.c **** }
 2457              		.loc 1 222 5 is_stmt 1 view .LVU855
 222:Drivers/lvgl/src/font/lv_font_loader.c **** }
ARM GAS  /var/folders/0z/tsy30v1j4xl4_7kw94k978ww0000gn/T//ccOlCxDD.s 			page 69


 2458              		.loc 1 222 5 is_stmt 0 view .LVU856
 2459              	.LBE161:
 2460              	.LBE203:
 379:Drivers/lvgl/src/font/lv_font_loader.c ****         if(res != LV_FS_RES_OK) {
 2461              		.loc 1 379 21 view .LVU857
 2462 068a 8BF80630 		strb	r3, [fp, #6]
 380:Drivers/lvgl/src/font/lv_font_loader.c ****             return -1;
 2463              		.loc 1 380 9 is_stmt 1 view .LVU858
 2464 068e 13E6     		b	.L205
 2465              	.LVL257:
 2466              	.L135:
 384:Drivers/lvgl/src/font/lv_font_loader.c ****         if(res != LV_FS_RES_OK) {
 2467              		.loc 1 384 21 is_stmt 0 view .LVU859
 2468 0690 0023     		movs	r3, #0
 2469 0692 079C     		ldr	r4, [sp, #28]
 2470              	.LVL258:
 2471              	.LBB204:
 2472              	.LBB181:
 222:Drivers/lvgl/src/font/lv_font_loader.c **** }
 2473              		.loc 1 222 5 is_stmt 1 view .LVU860
 222:Drivers/lvgl/src/font/lv_font_loader.c **** }
 2474              		.loc 1 222 5 is_stmt 0 view .LVU861
 2475              	.LBE181:
 2476              	.LBE204:
 384:Drivers/lvgl/src/font/lv_font_loader.c ****         if(res != LV_FS_RES_OK) {
 2477              		.loc 1 384 21 view .LVU862
 2478 0694 8BF80730 		strb	r3, [fp, #7]
 385:Drivers/lvgl/src/font/lv_font_loader.c ****             return -1;
 2479              		.loc 1 385 9 is_stmt 1 view .LVU863
 2480 0698 0EE6     		b	.L205
 2481              	.LVL259:
 2482              	.L125:
 2483              	.LBB205:
 2484              	.LBB162:
 222:Drivers/lvgl/src/font/lv_font_loader.c **** }
 2485              		.loc 1 222 5 view .LVU864
 222:Drivers/lvgl/src/font/lv_font_loader.c **** }
 2486              		.loc 1 222 5 is_stmt 0 view .LVU865
 2487              	.LBE162:
 2488              	.LBE205:
 379:Drivers/lvgl/src/font/lv_font_loader.c ****         if(res != LV_FS_RES_OK) {
 2489              		.loc 1 379 21 view .LVU866
 2490 069a 8BF80640 		strb	r4, [fp, #6]
 380:Drivers/lvgl/src/font/lv_font_loader.c ****             return -1;
 2491              		.loc 1 380 9 is_stmt 1 view .LVU867
 384:Drivers/lvgl/src/font/lv_font_loader.c ****         if(res != LV_FS_RES_OK) {
 2492              		.loc 1 384 9 view .LVU868
 2493              	.LVL260:
 2494              	.LBB206:
 216:Drivers/lvgl/src/font/lv_font_loader.c **** {
 2495              		.loc 1 216 12 view .LVU869
 2496              	.LBB182:
 218:Drivers/lvgl/src/font/lv_font_loader.c ****     if(value & (1 << (n_bits - 1))) {
 2497              		.loc 1 218 5 view .LVU870
 2498              	.LBB177:
 194:Drivers/lvgl/src/font/lv_font_loader.c **** {
 2499              		.loc 1 194 21 view .LVU871
ARM GAS  /var/folders/0z/tsy30v1j4xl4_7kw94k978ww0000gn/T//ccOlCxDD.s 			page 70


 2500              	.LBB173:
 196:Drivers/lvgl/src/font/lv_font_loader.c ****     while(n_bits--) {
 2501              		.loc 1 196 5 view .LVU872
 197:Drivers/lvgl/src/font/lv_font_loader.c ****         it->byte_value = it->byte_value << 1;
 2502              		.loc 1 197 5 view .LVU873
 197:Drivers/lvgl/src/font/lv_font_loader.c ****         it->byte_value = it->byte_value << 1;
 2503              		.loc 1 197 11 view .LVU874
 197:Drivers/lvgl/src/font/lv_font_loader.c ****         it->byte_value = it->byte_value << 1;
 2504              		.loc 1 197 11 is_stmt 0 view .LVU875
 2505 069e 22E7     		b	.L138
 2506              	.LVL261:
 2507              	.L139:
 197:Drivers/lvgl/src/font/lv_font_loader.c ****         it->byte_value = it->byte_value << 1;
 2508              		.loc 1 197 11 view .LVU876
 2509              	.LBE173:
 2510              	.LBE177:
 2511              	.LBE182:
 2512              	.LBE206:
 389:Drivers/lvgl/src/font/lv_font_loader.c ****         if(res != LV_FS_RES_OK) {
 2513              		.loc 1 389 21 view .LVU877
 2514 06a0 8BF80430 		strb	r3, [fp, #4]
 390:Drivers/lvgl/src/font/lv_font_loader.c ****             return -1;
 2515              		.loc 1 390 9 is_stmt 1 view .LVU878
 394:Drivers/lvgl/src/font/lv_font_loader.c ****         if(res != LV_FS_RES_OK) {
 2516              		.loc 1 394 9 view .LVU879
 2517              	.LVL262:
 2518              	.LBB207:
 194:Drivers/lvgl/src/font/lv_font_loader.c **** {
 2519              		.loc 1 194 21 view .LVU880
 2520              	.LBB198:
 196:Drivers/lvgl/src/font/lv_font_loader.c ****     while(n_bits--) {
 2521              		.loc 1 196 5 view .LVU881
 197:Drivers/lvgl/src/font/lv_font_loader.c ****         it->byte_value = it->byte_value << 1;
 2522              		.loc 1 197 5 view .LVU882
 197:Drivers/lvgl/src/font/lv_font_loader.c ****         it->byte_value = it->byte_value << 1;
 2523              		.loc 1 197 11 view .LVU883
 197:Drivers/lvgl/src/font/lv_font_loader.c ****         it->byte_value = it->byte_value << 1;
 2524              		.loc 1 197 11 is_stmt 0 view .LVU884
 2525 06a4 7BE7     		b	.L144
 2526              	.LVL263:
 2527              	.L142:
 197:Drivers/lvgl/src/font/lv_font_loader.c ****         it->byte_value = it->byte_value << 1;
 2528              		.loc 1 197 11 view .LVU885
 2529              	.LBE198:
 2530              	.LBE207:
 389:Drivers/lvgl/src/font/lv_font_loader.c ****         if(res != LV_FS_RES_OK) {
 2531              		.loc 1 389 21 view .LVU886
 2532 06a6 0023     		movs	r3, #0
 2533 06a8 079C     		ldr	r4, [sp, #28]
 2534              	.LVL264:
 389:Drivers/lvgl/src/font/lv_font_loader.c ****         if(res != LV_FS_RES_OK) {
 2535              		.loc 1 389 21 view .LVU887
 2536 06aa 8BF80430 		strb	r3, [fp, #4]
 390:Drivers/lvgl/src/font/lv_font_loader.c ****             return -1;
 2537              		.loc 1 390 9 is_stmt 1 view .LVU888
 2538 06ae 03E6     		b	.L205
 2539              	.L261:
ARM GAS  /var/folders/0z/tsy30v1j4xl4_7kw94k978ww0000gn/T//ccOlCxDD.s 			page 71


 390:Drivers/lvgl/src/font/lv_font_loader.c ****             return -1;
 2540              		.loc 1 390 9 is_stmt 0 view .LVU889
 2541 06b0 079C     		ldr	r4, [sp, #28]
 2542              	.LVL265:
 390:Drivers/lvgl/src/font/lv_font_loader.c ****             return -1;
 2543              		.loc 1 390 9 view .LVU890
 2544              	.LBE209:
 2545              	.LBE213:
 2546              	.LBE282:
 2547              	.LBE285:
 567:Drivers/lvgl/src/font/lv_font_loader.c **** 
 2548              		.loc 1 567 5 is_stmt 1 view .LVU891
 2549 06b2 01E6     		b	.L205
 2550              	.LVL266:
 2551              	.L279:
 2552              	.LBB286:
 2553              	.LBB283:
 417:Drivers/lvgl/src/font/lv_font_loader.c **** 
 2554              		.loc 1 417 38 is_stmt 0 view .LVU892
 2555 06b4 0398     		ldr	r0, [sp, #12]
 2556              	.LBB214:
 2557 06b6 099D     		ldr	r5, [sp, #36]
 417:Drivers/lvgl/src/font/lv_font_loader.c **** 
 2558              		.loc 1 417 38 view .LVU893
 2559 06b8 079C     		ldr	r4, [sp, #28]
 417:Drivers/lvgl/src/font/lv_font_loader.c **** 
 2560              		.loc 1 417 38 view .LVU894
 2561              	.LBE214:
 417:Drivers/lvgl/src/font/lv_font_loader.c **** 
 2562              		.loc 1 417 5 is_stmt 1 view .LVU895
 417:Drivers/lvgl/src/font/lv_font_loader.c **** 
 2563              		.loc 1 417 38 is_stmt 0 view .LVU896
 2564 06ba FFF7FEFF 		bl	lv_mem_alloc
 2565              	.LVL267:
 2566              	.LBB215:
 423:Drivers/lvgl/src/font/lv_font_loader.c ****         lv_fs_res_t res = lv_fs_seek(fp, start + glyph_offset[i], LV_FS_SEEK_SET);
 2567              		.loc 1 423 31 view .LVU897
 2568 06be 029B     		ldr	r3, [sp, #8]
 2569              	.LBE215:
 417:Drivers/lvgl/src/font/lv_font_loader.c **** 
 2570              		.loc 1 417 38 view .LVU898
 2571 06c0 0990     		str	r0, [sp, #36]
 2572              	.LVL268:
 419:Drivers/lvgl/src/font/lv_font_loader.c **** 
 2573              		.loc 1 419 5 is_stmt 1 view .LVU899
 2574              	.LBB273:
 423:Drivers/lvgl/src/font/lv_font_loader.c ****         lv_fs_res_t res = lv_fs_seek(fp, start + glyph_offset[i], LV_FS_SEEK_SET);
 2575              		.loc 1 423 31 is_stmt 0 view .LVU900
 2576 06c2 012B     		cmp	r3, #1
 2577              	.LBE273:
 419:Drivers/lvgl/src/font/lv_font_loader.c **** 
 2578              		.loc 1 419 28 view .LVU901
 2579 06c4 2860     		str	r0, [r5]
 421:Drivers/lvgl/src/font/lv_font_loader.c **** 
 2580              		.loc 1 421 5 is_stmt 1 view .LVU902
 2581              	.LVL269:
 423:Drivers/lvgl/src/font/lv_font_loader.c ****         lv_fs_res_t res = lv_fs_seek(fp, start + glyph_offset[i], LV_FS_SEEK_SET);
ARM GAS  /var/folders/0z/tsy30v1j4xl4_7kw94k978ww0000gn/T//ccOlCxDD.s 			page 72


 2582              		.loc 1 423 5 view .LVU903
 2583              	.LBB274:
 423:Drivers/lvgl/src/font/lv_font_loader.c ****         lv_fs_res_t res = lv_fs_seek(fp, start + glyph_offset[i], LV_FS_SEEK_SET);
 2584              		.loc 1 423 9 view .LVU904
 423:Drivers/lvgl/src/font/lv_font_loader.c ****         lv_fs_res_t res = lv_fs_seek(fp, start + glyph_offset[i], LV_FS_SEEK_SET);
 2585              		.loc 1 423 31 view .LVU905
 2586 06c6 78D0     		beq	.L156
 2587 06c8 059B     		ldr	r3, [sp, #20]
 2588              	.LBB216:
 2589              	.LBB217:
 2590              	.LBB218:
 2591              	.LBB219:
 202:Drivers/lvgl/src/font/lv_font_loader.c ****             *res = lv_fs_read(it->fp, &(it->byte_value), 1, NULL);
 2592              		.loc 1 202 25 is_stmt 0 view .LVU906
 2593 06ca DDF82080 		ldr	r8, [sp, #32]
 2594              	.LVL270:
 202:Drivers/lvgl/src/font/lv_font_loader.c ****             *res = lv_fs_read(it->fp, &(it->byte_value), 1, NULL);
 2595              		.loc 1 202 25 view .LVU907
 2596 06ce 0894     		str	r4, [sp, #32]
 2597              	.LBE219:
 2598              	.LBE218:
 2599              	.LBE217:
 2600              	.LBE216:
 2601              	.LBE274:
 421:Drivers/lvgl/src/font/lv_font_loader.c **** 
 2602              		.loc 1 421 18 view .LVU908
 2603 06d0 0022     		movs	r2, #0
 2604 06d2 0433     		adds	r3, r3, #4
 2605 06d4 0392     		str	r2, [sp, #12]
 2606              	.LBB275:
 423:Drivers/lvgl/src/font/lv_font_loader.c ****         lv_fs_res_t res = lv_fs_seek(fp, start + glyph_offset[i], LV_FS_SEEK_SET);
 2607              		.loc 1 423 22 view .LVU909
 2608 06d6 0122     		movs	r2, #1
 2609              	.LBB268:
 2610              	.LBB228:
 2611              	.LBB225:
 2612              	.LBB220:
 202:Drivers/lvgl/src/font/lv_font_loader.c ****             *res = lv_fs_read(it->fp, &(it->byte_value), 1, NULL);
 2613              		.loc 1 202 25 view .LVU910
 2614 06d8 CDE90A95 		strd	r9, r5, [sp, #40]
 2615              	.LBE220:
 2616              	.LBE225:
 2617              	.LBE228:
 2618              	.LBE268:
 423:Drivers/lvgl/src/font/lv_font_loader.c ****         lv_fs_res_t res = lv_fs_seek(fp, start + glyph_offset[i], LV_FS_SEEK_SET);
 2619              		.loc 1 423 22 view .LVU911
 2620 06dc 0192     		str	r2, [sp, #4]
 2621              	.LBB269:
 2622              	.LBB229:
 2623              	.LBB226:
 2624              	.LBB221:
 202:Drivers/lvgl/src/font/lv_font_loader.c ****             *res = lv_fs_read(it->fp, &(it->byte_value), 1, NULL);
 2625              		.loc 1 202 25 view .LVU912
 2626 06de 4FF0070A 		mov	r10, #7
 2627 06e2 9946     		mov	r9, r3
 2628              	.LVL271:
 2629              	.L198:
ARM GAS  /var/folders/0z/tsy30v1j4xl4_7kw94k978ww0000gn/T//ccOlCxDD.s 			page 73


 202:Drivers/lvgl/src/font/lv_font_loader.c ****             *res = lv_fs_read(it->fp, &(it->byte_value), 1, NULL);
 2630              		.loc 1 202 25 view .LVU913
 2631              	.LBE221:
 2632              	.LBE226:
 2633              	.LBE229:
 424:Drivers/lvgl/src/font/lv_font_loader.c ****         if(res != LV_FS_RES_OK) {
 2634              		.loc 1 424 9 is_stmt 1 view .LVU914
 424:Drivers/lvgl/src/font/lv_font_loader.c ****         if(res != LV_FS_RES_OK) {
 2635              		.loc 1 424 62 is_stmt 0 view .LVU915
 2636 06e4 59F8041B 		ldr	r1, [r9], #4
 424:Drivers/lvgl/src/font/lv_font_loader.c ****         if(res != LV_FS_RES_OK) {
 2637              		.loc 1 424 27 view .LVU916
 2638 06e8 049B     		ldr	r3, [sp, #16]
 2639 06ea 0022     		movs	r2, #0
 2640 06ec 1944     		add	r1, r1, r3
 2641 06ee 11A8     		add	r0, sp, #68
 2642              	.LVL272:
 424:Drivers/lvgl/src/font/lv_font_loader.c ****         if(res != LV_FS_RES_OK) {
 2643              		.loc 1 424 27 view .LVU917
 2644 06f0 FFF7FEFF 		bl	lv_fs_seek
 2645              	.LVL273:
 425:Drivers/lvgl/src/font/lv_font_loader.c ****             return -1;
 2646              		.loc 1 425 9 is_stmt 1 view .LVU918
 425:Drivers/lvgl/src/font/lv_font_loader.c ****             return -1;
 2647              		.loc 1 425 11 is_stmt 0 view .LVU919
 2648 06f4 88BB     		cbnz	r0, .L262
 428:Drivers/lvgl/src/font/lv_font_loader.c **** 
 2649              		.loc 1 428 9 is_stmt 1 view .LVU920
 2650              	.LVL274:
 2651              	.LBB230:
 2652              	.LBI230:
 185:Drivers/lvgl/src/font/lv_font_loader.c **** {
 2653              		.loc 1 185 23 view .LVU921
 2654              	.LBB231:
 187:Drivers/lvgl/src/font/lv_font_loader.c ****     it.fp = fp;
 2655              		.loc 1 187 5 view .LVU922
 188:Drivers/lvgl/src/font/lv_font_loader.c ****     it.bit_pos = -1;
 2656              		.loc 1 188 5 view .LVU923
 189:Drivers/lvgl/src/font/lv_font_loader.c ****     it.byte_value = 0;
 2657              		.loc 1 189 5 view .LVU924
 190:Drivers/lvgl/src/font/lv_font_loader.c ****     return it;
 2658              		.loc 1 190 5 view .LVU925
 191:Drivers/lvgl/src/font/lv_font_loader.c **** }
 2659              		.loc 1 191 5 view .LVU926
 191:Drivers/lvgl/src/font/lv_font_loader.c **** }
 2660              		.loc 1 191 12 is_stmt 0 view .LVU927
 2661 06f6 11AB     		add	r3, sp, #68
 2662              	.LVL275:
 191:Drivers/lvgl/src/font/lv_font_loader.c **** }
 2663              		.loc 1 191 12 view .LVU928
 2664              	.LBE231:
 2665              	.LBE230:
 430:Drivers/lvgl/src/font/lv_font_loader.c **** 
 2666              		.loc 1 430 48 view .LVU929
 2667 06f8 9DF87020 		ldrb	r2, [sp, #112]	@ zero_extendqisi2
 2668              	.LBB234:
 2669              	.LBB232:
ARM GAS  /var/folders/0z/tsy30v1j4xl4_7kw94k978ww0000gn/T//ccOlCxDD.s 			page 74


 191:Drivers/lvgl/src/font/lv_font_loader.c **** }
 2670              		.loc 1 191 12 view .LVU930
 2671 06fc 0F93     		str	r3, [sp, #60]
 2672              	.LBE232:
 2673              	.LBE234:
 430:Drivers/lvgl/src/font/lv_font_loader.c **** 
 2674              		.loc 1 430 48 view .LVU931
 2675 06fe 9DF86E30 		ldrb	r3, [sp, #110]	@ zero_extendqisi2
 2676              	.LVL276:
 430:Drivers/lvgl/src/font/lv_font_loader.c **** 
 2677              		.loc 1 430 48 view .LVU932
 2678 0702 0225     		movs	r5, #2
 2679 0704 15FB0323 		smlabb	r3, r5, r3, r2
 430:Drivers/lvgl/src/font/lv_font_loader.c **** 
 2680              		.loc 1 430 13 view .LVU933
 2681 0708 9DF86F20 		ldrb	r2, [sp, #111]	@ zero_extendqisi2
 2682 070c 15FB0235 		smlabb	r5, r5, r2, r3
 2683              	.LBB235:
 2684              	.LBB233:
 191:Drivers/lvgl/src/font/lv_font_loader.c **** }
 2685              		.loc 1 191 12 view .LVU934
 2686 0710 FF23     		movs	r3, #255
 2687 0712 ADF84030 		strh	r3, [sp, #64]	@ movhi
 2688              	.LVL277:
 191:Drivers/lvgl/src/font/lv_font_loader.c **** }
 2689              		.loc 1 191 12 view .LVU935
 2690              	.LBE233:
 2691              	.LBE235:
 430:Drivers/lvgl/src/font/lv_font_loader.c **** 
 2692              		.loc 1 430 9 is_stmt 1 view .LVU936
 432:Drivers/lvgl/src/font/lv_font_loader.c ****         if(res != LV_FS_RES_OK) {
 2693              		.loc 1 432 9 view .LVU937
 2694              	.LBB236:
 2695              	.LBI217:
 194:Drivers/lvgl/src/font/lv_font_loader.c **** {
 2696              		.loc 1 194 21 view .LVU938
 2697              	.LBB227:
 196:Drivers/lvgl/src/font/lv_font_loader.c ****     while(n_bits--) {
 2698              		.loc 1 196 5 view .LVU939
 197:Drivers/lvgl/src/font/lv_font_loader.c ****         it->byte_value = it->byte_value << 1;
 2699              		.loc 1 197 5 view .LVU940
 197:Drivers/lvgl/src/font/lv_font_loader.c ****         it->byte_value = it->byte_value << 1;
 2700              		.loc 1 197 11 view .LVU941
 197:Drivers/lvgl/src/font/lv_font_loader.c ****         it->byte_value = it->byte_value << 1;
 2701              		.loc 1 197 17 is_stmt 0 view .LVU942
 2702 0716 6C1E     		subs	r4, r5, #1
 2703              	.LVL278:
 197:Drivers/lvgl/src/font/lv_font_loader.c ****         it->byte_value = it->byte_value << 1;
 2704              		.loc 1 197 11 view .LVU943
 2705 0718 0DB3     		cbz	r5, .L158
 2706 071a 4FF0FF33 		mov	r3, #-1
 2707              	.LBB222:
 203:Drivers/lvgl/src/font/lv_font_loader.c ****             if(*res != LV_FS_RES_OK) {
 2708              		.loc 1 203 20 view .LVU944
 2709 071e 0246     		mov	r2, r0
 2710 0720 07E0     		b	.L162
 2711              	.LVL279:
ARM GAS  /var/folders/0z/tsy30v1j4xl4_7kw94k978ww0000gn/T//ccOlCxDD.s 			page 75


 2712              	.L281:
 199:Drivers/lvgl/src/font/lv_font_loader.c **** 
 2713              		.loc 1 199 20 view .LVU945
 2714 0722 8DF84030 		strb	r3, [sp, #64]
 2715              	.LVL280:
 2716              	.L161:
 199:Drivers/lvgl/src/font/lv_font_loader.c **** 
 2717              		.loc 1 199 20 view .LVU946
 2718              	.LBE222:
 197:Drivers/lvgl/src/font/lv_font_loader.c ****         it->byte_value = it->byte_value << 1;
 2719              		.loc 1 197 11 is_stmt 1 view .LVU947
 197:Drivers/lvgl/src/font/lv_font_loader.c ****         it->byte_value = it->byte_value << 1;
 2720              		.loc 1 197 11 is_stmt 0 view .LVU948
 2721 0726 601C     		adds	r0, r4, #1
 2722 0728 19D0     		beq	.L158
 2723              	.LBB223:
 198:Drivers/lvgl/src/font/lv_font_loader.c ****         it->bit_pos--;
 2724              		.loc 1 198 28 view .LVU949
 2725 072a 9DF84120 		ldrb	r2, [sp, #65]	@ zero_extendqisi2
 199:Drivers/lvgl/src/font/lv_font_loader.c **** 
 2726              		.loc 1 199 11 view .LVU950
 2727 072e 9DF94030 		ldrsb	r3, [sp, #64]
 2728              	.L162:
 198:Drivers/lvgl/src/font/lv_font_loader.c ****         it->bit_pos--;
 2729              		.loc 1 198 9 is_stmt 1 view .LVU951
 199:Drivers/lvgl/src/font/lv_font_loader.c **** 
 2730              		.loc 1 199 20 is_stmt 0 view .LVU952
 2731 0732 013B     		subs	r3, r3, #1
 2732 0734 5BB2     		sxtb	r3, r3
 198:Drivers/lvgl/src/font/lv_font_loader.c ****         it->bit_pos--;
 2733              		.loc 1 198 41 view .LVU953
 2734 0736 5200     		lsls	r2, r2, #1
 201:Drivers/lvgl/src/font/lv_font_loader.c ****             it->bit_pos = 7;
 2735              		.loc 1 201 11 view .LVU954
 2736 0738 002B     		cmp	r3, #0
 2737              	.LBE223:
 197:Drivers/lvgl/src/font/lv_font_loader.c ****         it->byte_value = it->byte_value << 1;
 2738              		.loc 1 197 17 view .LVU955
 2739 073a 04F1FF34 		add	r4, r4, #-1
 2740              	.LVL281:
 2741              	.LBB224:
 198:Drivers/lvgl/src/font/lv_font_loader.c ****         it->bit_pos--;
 2742              		.loc 1 198 24 view .LVU956
 2743 073e 8DF84120 		strb	r2, [sp, #65]
 199:Drivers/lvgl/src/font/lv_font_loader.c **** 
 2744              		.loc 1 199 9 is_stmt 1 view .LVU957
 201:Drivers/lvgl/src/font/lv_font_loader.c ****             it->bit_pos = 7;
 2745              		.loc 1 201 9 view .LVU958
 201:Drivers/lvgl/src/font/lv_font_loader.c ****             it->bit_pos = 7;
 2746              		.loc 1 201 11 is_stmt 0 view .LVU959
 2747 0742 EEDA     		bge	.L281
 2748              	.LVL282:
 202:Drivers/lvgl/src/font/lv_font_loader.c ****             *res = lv_fs_read(it->fp, &(it->byte_value), 1, NULL);
 2749              		.loc 1 202 13 is_stmt 1 view .LVU960
 203:Drivers/lvgl/src/font/lv_font_loader.c ****             if(*res != LV_FS_RES_OK) {
 2750              		.loc 1 203 20 is_stmt 0 view .LVU961
 2751 0744 0F98     		ldr	r0, [sp, #60]
ARM GAS  /var/folders/0z/tsy30v1j4xl4_7kw94k978ww0000gn/T//ccOlCxDD.s 			page 76


 202:Drivers/lvgl/src/font/lv_font_loader.c ****             *res = lv_fs_read(it->fp, &(it->byte_value), 1, NULL);
 2752              		.loc 1 202 25 view .LVU962
 2753 0746 8DF840A0 		strb	r10, [sp, #64]
 203:Drivers/lvgl/src/font/lv_font_loader.c ****             if(*res != LV_FS_RES_OK) {
 2754              		.loc 1 203 13 is_stmt 1 view .LVU963
 203:Drivers/lvgl/src/font/lv_font_loader.c ****             if(*res != LV_FS_RES_OK) {
 2755              		.loc 1 203 20 is_stmt 0 view .LVU964
 2756 074a 0023     		movs	r3, #0
 2757 074c 0122     		movs	r2, #1
 2758 074e 0DF14101 		add	r1, sp, #65
 2759 0752 FFF7FEFF 		bl	lv_fs_read
 2760              	.LVL283:
 204:Drivers/lvgl/src/font/lv_font_loader.c ****                 return 0;
 2761              		.loc 1 204 13 is_stmt 1 view .LVU965
 204:Drivers/lvgl/src/font/lv_font_loader.c ****                 return 0;
 2762              		.loc 1 204 15 is_stmt 0 view .LVU966
 2763 0756 0028     		cmp	r0, #0
 2764 0758 E5D0     		beq	.L161
 2765              	.LVL284:
 2766              	.L262:
 204:Drivers/lvgl/src/font/lv_font_loader.c ****                 return 0;
 2767              		.loc 1 204 15 view .LVU967
 2768 075a 089C     		ldr	r4, [sp, #32]
 2769 075c ACE5     		b	.L205
 2770              	.LVL285:
 2771              	.L158:
 204:Drivers/lvgl/src/font/lv_font_loader.c ****                 return 0;
 2772              		.loc 1 204 15 view .LVU968
 2773              	.LBE224:
 2774              	.LBE227:
 2775              	.LBE236:
 433:Drivers/lvgl/src/font/lv_font_loader.c ****             return -1;
 2776              		.loc 1 433 9 is_stmt 1 view .LVU969
 437:Drivers/lvgl/src/font/lv_font_loader.c ****             continue;
 2777              		.loc 1 437 9 view .LVU970
 437:Drivers/lvgl/src/font/lv_font_loader.c ****             continue;
 2778              		.loc 1 437 31 is_stmt 0 view .LVU971
 2779 075e 98F80C30 		ldrb	r3, [r8, #12]	@ zero_extendqisi2
 2780 0762 98F80D20 		ldrb	r2, [r8, #13]	@ zero_extendqisi2
 2781 0766 13FB02F3 		smulbb	r3, r3, r2
 437:Drivers/lvgl/src/font/lv_font_loader.c ****             continue;
 2782              		.loc 1 437 11 view .LVU972
 2783 076a E3B1     		cbz	r3, .L197
 441:Drivers/lvgl/src/font/lv_font_loader.c ****         int bmp_size = next_offset - glyph_offset[i] - nbits / 8;
 2784              		.loc 1 441 9 is_stmt 1 view .LVU973
 442:Drivers/lvgl/src/font/lv_font_loader.c **** 
 2785              		.loc 1 442 9 view .LVU974
 441:Drivers/lvgl/src/font/lv_font_loader.c ****         int bmp_size = next_offset - glyph_offset[i] - nbits / 8;
 2786              		.loc 1 441 70 is_stmt 0 view .LVU975
 2787 076c 019A     		ldr	r2, [sp, #4]
 2788 076e 0A9B     		ldr	r3, [sp, #40]
 2789 0770 9342     		cmp	r3, r2
 442:Drivers/lvgl/src/font/lv_font_loader.c **** 
 2790              		.loc 1 442 54 view .LVU976
 2791 0772 59F8043C 		ldr	r3, [r9, #-4]
 441:Drivers/lvgl/src/font/lv_font_loader.c ****         int bmp_size = next_offset - glyph_offset[i] - nbits / 8;
 2792              		.loc 1 441 62 view .LVU977
ARM GAS  /var/folders/0z/tsy30v1j4xl4_7kw94k978ww0000gn/T//ccOlCxDD.s 			page 77


 2793 0776 8CBF     		ite	hi
 2794 0778 D9F80020 		ldrhi	r2, [r9]
 2795 077c 069A     		ldrls	r2, [sp, #24]
 442:Drivers/lvgl/src/font/lv_font_loader.c **** 
 2796              		.loc 1 442 54 view .LVU978
 2797 077e 03EBD503 		add	r3, r3, r5, lsr #3
 2798 0782 D21A     		subs	r2, r2, r3
 444:Drivers/lvgl/src/font/lv_font_loader.c ****             if(lv_fs_read(fp, &glyph_bmp[cur_bmp_size], bmp_size, NULL) != LV_FS_RES_OK) {
 2799              		.loc 1 444 11 view .LVU979
 2800 0784 15F00705 		ands	r5, r5, #7
 2801              	.LVL286:
 442:Drivers/lvgl/src/font/lv_font_loader.c **** 
 2802              		.loc 1 442 54 view .LVU980
 2803 0788 0792     		str	r2, [sp, #28]
 2804              	.LVL287:
 444:Drivers/lvgl/src/font/lv_font_loader.c ****             if(lv_fs_read(fp, &glyph_bmp[cur_bmp_size], bmp_size, NULL) != LV_FS_RES_OK) {
 2805              		.loc 1 444 9 is_stmt 1 view .LVU981
 444:Drivers/lvgl/src/font/lv_font_loader.c ****             if(lv_fs_read(fp, &glyph_bmp[cur_bmp_size], bmp_size, NULL) != LV_FS_RES_OK) {
 2806              		.loc 1 444 11 is_stmt 0 view .LVU982
 2807 078a 31D1     		bne	.L164
 445:Drivers/lvgl/src/font/lv_font_loader.c ****                 return -1;
 2808              		.loc 1 445 13 is_stmt 1 view .LVU983
 445:Drivers/lvgl/src/font/lv_font_loader.c ****                 return -1;
 2809              		.loc 1 445 16 is_stmt 0 view .LVU984
 2810 078c 0398     		ldr	r0, [sp, #12]
 2811 078e 0999     		ldr	r1, [sp, #36]
 2812 0790 2B46     		mov	r3, r5
 2813 0792 0144     		add	r1, r1, r0
 2814 0794 11A8     		add	r0, sp, #68
 2815              	.LVL288:
 445:Drivers/lvgl/src/font/lv_font_loader.c ****                 return -1;
 2816              		.loc 1 445 16 view .LVU985
 2817 0796 FFF7FEFF 		bl	lv_fs_read
 2818              	.LVL289:
 445:Drivers/lvgl/src/font/lv_font_loader.c ****                 return -1;
 2819              		.loc 1 445 15 view .LVU986
 2820 079a 0028     		cmp	r0, #0
 2821 079c DDD1     		bne	.L262
 2822              	.L165:
 466:Drivers/lvgl/src/font/lv_font_loader.c ****     }
 2823              		.loc 1 466 9 is_stmt 1 view .LVU987
 466:Drivers/lvgl/src/font/lv_font_loader.c ****     }
 2824              		.loc 1 466 22 is_stmt 0 view .LVU988
 2825 079e 039B     		ldr	r3, [sp, #12]
 2826 07a0 079A     		ldr	r2, [sp, #28]
 2827 07a2 1344     		add	r3, r3, r2
 2828 07a4 0393     		str	r3, [sp, #12]
 2829              	.LVL290:
 2830              	.L197:
 466:Drivers/lvgl/src/font/lv_font_loader.c ****     }
 2831              		.loc 1 466 22 view .LVU989
 2832              	.LBE269:
 423:Drivers/lvgl/src/font/lv_font_loader.c ****         lv_fs_res_t res = lv_fs_seek(fp, start + glyph_offset[i], LV_FS_SEEK_SET);
 2833              		.loc 1 423 45 is_stmt 1 view .LVU990
 2834 07a6 019B     		ldr	r3, [sp, #4]
 423:Drivers/lvgl/src/font/lv_font_loader.c ****         lv_fs_res_t res = lv_fs_seek(fp, start + glyph_offset[i], LV_FS_SEEK_SET);
 2835              		.loc 1 423 31 is_stmt 0 view .LVU991
ARM GAS  /var/folders/0z/tsy30v1j4xl4_7kw94k978ww0000gn/T//ccOlCxDD.s 			page 78


 2836 07a8 029A     		ldr	r2, [sp, #8]
 423:Drivers/lvgl/src/font/lv_font_loader.c ****         lv_fs_res_t res = lv_fs_seek(fp, start + glyph_offset[i], LV_FS_SEEK_SET);
 2837              		.loc 1 423 45 view .LVU992
 2838 07aa 0133     		adds	r3, r3, #1
 423:Drivers/lvgl/src/font/lv_font_loader.c ****         lv_fs_res_t res = lv_fs_seek(fp, start + glyph_offset[i], LV_FS_SEEK_SET);
 2839              		.loc 1 423 31 view .LVU993
 2840 07ac 9342     		cmp	r3, r2
 423:Drivers/lvgl/src/font/lv_font_loader.c ****         lv_fs_res_t res = lv_fs_seek(fp, start + glyph_offset[i], LV_FS_SEEK_SET);
 2841              		.loc 1 423 45 view .LVU994
 2842 07ae 0193     		str	r3, [sp, #4]
 2843              	.LVL291:
 423:Drivers/lvgl/src/font/lv_font_loader.c ****         lv_fs_res_t res = lv_fs_seek(fp, start + glyph_offset[i], LV_FS_SEEK_SET);
 2844              		.loc 1 423 31 is_stmt 1 view .LVU995
 2845 07b0 08F10808 		add	r8, r8, #8
 2846 07b4 96D1     		bne	.L198
 2847 07b6 0B9D     		ldr	r5, [sp, #44]
 2848 07b8 089C     		ldr	r4, [sp, #32]
 2849              	.LVL292:
 2850              	.L156:
 423:Drivers/lvgl/src/font/lv_font_loader.c ****         lv_fs_res_t res = lv_fs_seek(fp, start + glyph_offset[i], LV_FS_SEEK_SET);
 2851              		.loc 1 423 31 is_stmt 0 view .LVU996
 2852              	.LBE275:
 2853              	.LBE283:
 2854              	.LBE286:
 567:Drivers/lvgl/src/font/lv_font_loader.c **** 
 2855              		.loc 1 567 5 is_stmt 1 view .LVU997
 2856 07ba 0598     		ldr	r0, [sp, #20]
 2857 07bc FFF7FEFF 		bl	lv_mem_free
 2858              	.LVL293:
 569:Drivers/lvgl/src/font/lv_font_loader.c ****         return false;
 2859              		.loc 1 569 5 view .LVU998
 573:Drivers/lvgl/src/font/lv_font_loader.c ****         font_dsc->kern_dsc = NULL;
 2860              		.loc 1 573 5 view .LVU999
 573:Drivers/lvgl/src/font/lv_font_loader.c ****         font_dsc->kern_dsc = NULL;
 2861              		.loc 1 573 7 is_stmt 0 view .LVU1000
 2862 07c0 BDF85430 		ldrh	r3, [sp, #84]
 2863 07c4 032B     		cmp	r3, #3
 2864 07c6 06D8     		bhi	.L200
 574:Drivers/lvgl/src/font/lv_font_loader.c ****         font_dsc->kern_classes = 0;
 2865              		.loc 1 574 9 is_stmt 1 view .LVU1001
 575:Drivers/lvgl/src/font/lv_font_loader.c ****         font_dsc->kern_scale = 0;
 2866              		.loc 1 575 9 view .LVU1002
 576:Drivers/lvgl/src/font/lv_font_loader.c ****         return true;
 2867              		.loc 1 576 9 view .LVU1003
 576:Drivers/lvgl/src/font/lv_font_loader.c ****         return true;
 2868              		.loc 1 576 30 is_stmt 0 view .LVU1004
 2869 07c8 2969     		ldr	r1, [r5, #16]
 2870 07ca 844B     		ldr	r3, .L293
 574:Drivers/lvgl/src/font/lv_font_loader.c ****         font_dsc->kern_classes = 0;
 2871              		.loc 1 574 28 view .LVU1005
 2872 07cc 0022     		movs	r2, #0
 576:Drivers/lvgl/src/font/lv_font_loader.c ****         return true;
 2873              		.loc 1 576 30 view .LVU1006
 2874 07ce 0B40     		ands	r3, r3, r1
 2875 07d0 C5E90323 		strd	r2, r3, [r5, #12]
 577:Drivers/lvgl/src/font/lv_font_loader.c ****     }
 2876              		.loc 1 577 9 is_stmt 1 view .LVU1007
ARM GAS  /var/folders/0z/tsy30v1j4xl4_7kw94k978ww0000gn/T//ccOlCxDD.s 			page 79


 2877              	.LVL294:
 577:Drivers/lvgl/src/font/lv_font_loader.c ****     }
 2878              		.loc 1 577 9 is_stmt 0 view .LVU1008
 2879 07d4 5FE4     		b	.L81
 2880              	.LVL295:
 2881              	.L200:
 580:Drivers/lvgl/src/font/lv_font_loader.c **** 
 2882              		.loc 1 580 5 is_stmt 1 view .LVU1009
 582:Drivers/lvgl/src/font/lv_font_loader.c **** 
 2883              		.loc 1 582 5 view .LVU1010
 582:Drivers/lvgl/src/font/lv_font_loader.c **** 
 2884              		.loc 1 582 27 is_stmt 0 view .LVU1011
 2885 07d6 069A     		ldr	r2, [sp, #24]
 2886 07d8 049B     		ldr	r3, [sp, #16]
 2887 07da 2946     		mov	r1, r5
 2888 07dc 1344     		add	r3, r3, r2
 2889              	.LVL296:
 582:Drivers/lvgl/src/font/lv_font_loader.c **** 
 2890              		.loc 1 582 27 view .LVU1012
 2891 07de 11A8     		add	r0, sp, #68
 2892              	.LVL297:
 582:Drivers/lvgl/src/font/lv_font_loader.c **** 
 2893              		.loc 1 582 27 view .LVU1013
 2894 07e0 9DF86B20 		ldrb	r2, [sp, #107]	@ zero_extendqisi2
 2895 07e4 FFF7FEFF 		bl	load_kern
 2896              	.LVL298:
 584:Drivers/lvgl/src/font/lv_font_loader.c **** }
 2897              		.loc 1 584 5 is_stmt 1 view .LVU1014
 584:Drivers/lvgl/src/font/lv_font_loader.c **** }
 2898              		.loc 1 584 5 is_stmt 0 view .LVU1015
 2899              	.LBE288:
 2900              	.LBE290:
  96:Drivers/lvgl/src/font/lv_font_loader.c ****             LV_LOG_WARN("Error loading font file: %s\n", font_name);
 2901              		.loc 1 96 11 view .LVU1016
 2902 07e8 0028     		cmp	r0, #0
 2903 07ea BFF654AC 		bge	.L81
 2904 07ee 4EE4     		b	.L85
 2905              	.LVL299:
 2906              	.L164:
 2907              	.LBB291:
 2908              	.LBB289:
 2909              	.LBB287:
 2910              	.LBB284:
 2911              	.LBB276:
 2912              	.LBB270:
 2913              	.LBB237:
 450:Drivers/lvgl/src/font/lv_font_loader.c ****                 glyph_bmp[cur_bmp_size + k] = read_bits(&bit_it, 8, &res);
 2914              		.loc 1 450 30 is_stmt 1 view .LVU1017
 450:Drivers/lvgl/src/font/lv_font_loader.c ****                 glyph_bmp[cur_bmp_size + k] = read_bits(&bit_it, 8, &res);
 2915              		.loc 1 450 41 is_stmt 0 view .LVU1018
 2916 07f0 02F1FF3B 		add	fp, r2, #-1
 450:Drivers/lvgl/src/font/lv_font_loader.c ****                 glyph_bmp[cur_bmp_size + k] = read_bits(&bit_it, 8, &res);
 2917              		.loc 1 450 30 view .LVU1019
 2918 07f4 BBF1000F 		cmp	fp, #0
 2919 07f8 40F3F280 		ble	.L195
 2920 07fc 039B     		ldr	r3, [sp, #12]
