ARM GAS  /var/folders/0z/tsy30v1j4xl4_7kw94k978ww0000gn/T//ccxKMfKW.s 			page 1


   1              		.cpu cortex-m4
   2              		.arch armv7e-m
   3              		.fpu fpv4-sp-d16
   4              		.eabi_attribute 27, 1
   5              		.eabi_attribute 28, 1
   6              		.eabi_attribute 23, 1
   7              		.eabi_attribute 24, 1
   8              		.eabi_attribute 25, 1
   9              		.eabi_attribute 26, 1
  10              		.eabi_attribute 30, 2
  11              		.eabi_attribute 34, 1
  12              		.eabi_attribute 18, 4
  13              		.file	"lv_font_fmt_txt.c"
  14              		.text
  15              	.Ltext0:
  16              		.cfi_sections	.debug_frame
  17              		.section	.text.kern_pair_8_compare,"ax",%progbits
  18              		.align	1
  19              		.p2align 2,,3
  20              		.syntax unified
  21              		.thumb
  22              		.thumb_func
  24              	kern_pair_8_compare:
  25              	.LVL0:
  26              	.LFB31:
  27              		.file 1 "Drivers/lvgl/src/font/lv_font_fmt_txt.c"
   1:Drivers/lvgl/src/font/lv_font_fmt_txt.c **** /**
   2:Drivers/lvgl/src/font/lv_font_fmt_txt.c ****  * @file lv_font_fmt_txt.c
   3:Drivers/lvgl/src/font/lv_font_fmt_txt.c ****  *
   4:Drivers/lvgl/src/font/lv_font_fmt_txt.c ****  */
   5:Drivers/lvgl/src/font/lv_font_fmt_txt.c **** 
   6:Drivers/lvgl/src/font/lv_font_fmt_txt.c **** /*********************
   7:Drivers/lvgl/src/font/lv_font_fmt_txt.c ****  *      INCLUDES
   8:Drivers/lvgl/src/font/lv_font_fmt_txt.c ****  *********************/
   9:Drivers/lvgl/src/font/lv_font_fmt_txt.c **** #include "lv_font.h"
  10:Drivers/lvgl/src/font/lv_font_fmt_txt.c **** #include "lv_font_fmt_txt.h"
  11:Drivers/lvgl/src/font/lv_font_fmt_txt.c **** #include "../misc/lv_assert.h"
  12:Drivers/lvgl/src/font/lv_font_fmt_txt.c **** #include "../misc/lv_types.h"
  13:Drivers/lvgl/src/font/lv_font_fmt_txt.c **** #include "../misc/lv_gc.h"
  14:Drivers/lvgl/src/font/lv_font_fmt_txt.c **** #include "../misc/lv_log.h"
  15:Drivers/lvgl/src/font/lv_font_fmt_txt.c **** #include "../misc/lv_utils.h"
  16:Drivers/lvgl/src/font/lv_font_fmt_txt.c **** #include "../misc/lv_mem.h"
  17:Drivers/lvgl/src/font/lv_font_fmt_txt.c **** 
  18:Drivers/lvgl/src/font/lv_font_fmt_txt.c **** /*********************
  19:Drivers/lvgl/src/font/lv_font_fmt_txt.c ****  *      DEFINES
  20:Drivers/lvgl/src/font/lv_font_fmt_txt.c ****  *********************/
  21:Drivers/lvgl/src/font/lv_font_fmt_txt.c **** 
  22:Drivers/lvgl/src/font/lv_font_fmt_txt.c **** /**********************
  23:Drivers/lvgl/src/font/lv_font_fmt_txt.c ****  *      TYPEDEFS
  24:Drivers/lvgl/src/font/lv_font_fmt_txt.c ****  **********************/
  25:Drivers/lvgl/src/font/lv_font_fmt_txt.c **** typedef enum {
  26:Drivers/lvgl/src/font/lv_font_fmt_txt.c ****     RLE_STATE_SINGLE = 0,
  27:Drivers/lvgl/src/font/lv_font_fmt_txt.c ****     RLE_STATE_REPEATE,
  28:Drivers/lvgl/src/font/lv_font_fmt_txt.c ****     RLE_STATE_COUNTER,
  29:Drivers/lvgl/src/font/lv_font_fmt_txt.c **** } rle_state_t;
  30:Drivers/lvgl/src/font/lv_font_fmt_txt.c **** 
  31:Drivers/lvgl/src/font/lv_font_fmt_txt.c **** /**********************
ARM GAS  /var/folders/0z/tsy30v1j4xl4_7kw94k978ww0000gn/T//ccxKMfKW.s 			page 2


  32:Drivers/lvgl/src/font/lv_font_fmt_txt.c ****  *  STATIC PROTOTYPES
  33:Drivers/lvgl/src/font/lv_font_fmt_txt.c ****  **********************/
  34:Drivers/lvgl/src/font/lv_font_fmt_txt.c **** static uint32_t get_glyph_dsc_id(const lv_font_t * font, uint32_t letter);
  35:Drivers/lvgl/src/font/lv_font_fmt_txt.c **** static int8_t get_kern_value(const lv_font_t * font, uint32_t gid_left, uint32_t gid_right);
  36:Drivers/lvgl/src/font/lv_font_fmt_txt.c **** static int32_t unicode_list_compare(const void * ref, const void * element);
  37:Drivers/lvgl/src/font/lv_font_fmt_txt.c **** static int32_t kern_pair_8_compare(const void * ref, const void * element);
  38:Drivers/lvgl/src/font/lv_font_fmt_txt.c **** static int32_t kern_pair_16_compare(const void * ref, const void * element);
  39:Drivers/lvgl/src/font/lv_font_fmt_txt.c **** 
  40:Drivers/lvgl/src/font/lv_font_fmt_txt.c **** #if LV_USE_FONT_COMPRESSED
  41:Drivers/lvgl/src/font/lv_font_fmt_txt.c ****     static void decompress(const uint8_t * in, uint8_t * out, lv_coord_t w, lv_coord_t h, uint8_t b
  42:Drivers/lvgl/src/font/lv_font_fmt_txt.c ****     static inline void decompress_line(uint8_t * out, lv_coord_t w);
  43:Drivers/lvgl/src/font/lv_font_fmt_txt.c ****     static inline uint8_t get_bits(const uint8_t * in, uint32_t bit_pos, uint8_t len);
  44:Drivers/lvgl/src/font/lv_font_fmt_txt.c ****     static inline void bits_write(uint8_t * out, uint32_t bit_pos, uint8_t val, uint8_t len);
  45:Drivers/lvgl/src/font/lv_font_fmt_txt.c ****     static inline void rle_init(const uint8_t * in,  uint8_t bpp);
  46:Drivers/lvgl/src/font/lv_font_fmt_txt.c ****     static inline uint8_t rle_next(void);
  47:Drivers/lvgl/src/font/lv_font_fmt_txt.c **** #endif /*LV_USE_FONT_COMPRESSED*/
  48:Drivers/lvgl/src/font/lv_font_fmt_txt.c **** 
  49:Drivers/lvgl/src/font/lv_font_fmt_txt.c **** /**********************
  50:Drivers/lvgl/src/font/lv_font_fmt_txt.c ****  *  STATIC VARIABLES
  51:Drivers/lvgl/src/font/lv_font_fmt_txt.c ****  **********************/
  52:Drivers/lvgl/src/font/lv_font_fmt_txt.c **** #if LV_USE_FONT_COMPRESSED
  53:Drivers/lvgl/src/font/lv_font_fmt_txt.c ****     static uint32_t rle_rdp;
  54:Drivers/lvgl/src/font/lv_font_fmt_txt.c ****     static const uint8_t * rle_in;
  55:Drivers/lvgl/src/font/lv_font_fmt_txt.c ****     static uint8_t rle_bpp;
  56:Drivers/lvgl/src/font/lv_font_fmt_txt.c ****     static uint8_t rle_prev_v;
  57:Drivers/lvgl/src/font/lv_font_fmt_txt.c ****     static uint8_t rle_cnt;
  58:Drivers/lvgl/src/font/lv_font_fmt_txt.c ****     static rle_state_t rle_state;
  59:Drivers/lvgl/src/font/lv_font_fmt_txt.c **** #endif /*LV_USE_FONT_COMPRESSED*/
  60:Drivers/lvgl/src/font/lv_font_fmt_txt.c **** 
  61:Drivers/lvgl/src/font/lv_font_fmt_txt.c **** /**********************
  62:Drivers/lvgl/src/font/lv_font_fmt_txt.c ****  * GLOBAL PROTOTYPES
  63:Drivers/lvgl/src/font/lv_font_fmt_txt.c ****  **********************/
  64:Drivers/lvgl/src/font/lv_font_fmt_txt.c **** 
  65:Drivers/lvgl/src/font/lv_font_fmt_txt.c **** /**********************
  66:Drivers/lvgl/src/font/lv_font_fmt_txt.c ****  *      MACROS
  67:Drivers/lvgl/src/font/lv_font_fmt_txt.c ****  **********************/
  68:Drivers/lvgl/src/font/lv_font_fmt_txt.c **** 
  69:Drivers/lvgl/src/font/lv_font_fmt_txt.c **** /**********************
  70:Drivers/lvgl/src/font/lv_font_fmt_txt.c ****  *   GLOBAL FUNCTIONS
  71:Drivers/lvgl/src/font/lv_font_fmt_txt.c ****  **********************/
  72:Drivers/lvgl/src/font/lv_font_fmt_txt.c **** 
  73:Drivers/lvgl/src/font/lv_font_fmt_txt.c **** /**
  74:Drivers/lvgl/src/font/lv_font_fmt_txt.c ****  * Used as `get_glyph_bitmap` callback in LittelvGL's native font format if the font is uncompresse
  75:Drivers/lvgl/src/font/lv_font_fmt_txt.c ****  * @param font pointer to font
  76:Drivers/lvgl/src/font/lv_font_fmt_txt.c ****  * @param unicode_letter a unicode letter which bitmap should be get
  77:Drivers/lvgl/src/font/lv_font_fmt_txt.c ****  * @return pointer to the bitmap or NULL if not found
  78:Drivers/lvgl/src/font/lv_font_fmt_txt.c ****  */
  79:Drivers/lvgl/src/font/lv_font_fmt_txt.c **** const uint8_t * lv_font_get_bitmap_fmt_txt(const lv_font_t * font, uint32_t unicode_letter)
  80:Drivers/lvgl/src/font/lv_font_fmt_txt.c **** {
  81:Drivers/lvgl/src/font/lv_font_fmt_txt.c ****     if(unicode_letter == '\t') unicode_letter = ' ';
  82:Drivers/lvgl/src/font/lv_font_fmt_txt.c **** 
  83:Drivers/lvgl/src/font/lv_font_fmt_txt.c ****     lv_font_fmt_txt_dsc_t * fdsc = (lv_font_fmt_txt_dsc_t *)font->dsc;
  84:Drivers/lvgl/src/font/lv_font_fmt_txt.c ****     uint32_t gid = get_glyph_dsc_id(font, unicode_letter);
  85:Drivers/lvgl/src/font/lv_font_fmt_txt.c ****     if(!gid) return NULL;
  86:Drivers/lvgl/src/font/lv_font_fmt_txt.c **** 
  87:Drivers/lvgl/src/font/lv_font_fmt_txt.c ****     const lv_font_fmt_txt_glyph_dsc_t * gdsc = &fdsc->glyph_dsc[gid];
  88:Drivers/lvgl/src/font/lv_font_fmt_txt.c **** 
ARM GAS  /var/folders/0z/tsy30v1j4xl4_7kw94k978ww0000gn/T//ccxKMfKW.s 			page 3


  89:Drivers/lvgl/src/font/lv_font_fmt_txt.c ****     if(fdsc->bitmap_format == LV_FONT_FMT_TXT_PLAIN) {
  90:Drivers/lvgl/src/font/lv_font_fmt_txt.c ****         return &fdsc->glyph_bitmap[gdsc->bitmap_index];
  91:Drivers/lvgl/src/font/lv_font_fmt_txt.c ****     }
  92:Drivers/lvgl/src/font/lv_font_fmt_txt.c ****     /*Handle compressed bitmap*/
  93:Drivers/lvgl/src/font/lv_font_fmt_txt.c ****     else {
  94:Drivers/lvgl/src/font/lv_font_fmt_txt.c **** #if LV_USE_FONT_COMPRESSED
  95:Drivers/lvgl/src/font/lv_font_fmt_txt.c ****         static size_t last_buf_size = 0;
  96:Drivers/lvgl/src/font/lv_font_fmt_txt.c ****         if(LV_GC_ROOT(_lv_font_decompr_buf) == NULL) last_buf_size = 0;
  97:Drivers/lvgl/src/font/lv_font_fmt_txt.c **** 
  98:Drivers/lvgl/src/font/lv_font_fmt_txt.c ****         uint32_t gsize = gdsc->box_w * gdsc->box_h;
  99:Drivers/lvgl/src/font/lv_font_fmt_txt.c ****         if(gsize == 0) return NULL;
 100:Drivers/lvgl/src/font/lv_font_fmt_txt.c **** 
 101:Drivers/lvgl/src/font/lv_font_fmt_txt.c ****         uint32_t buf_size = gsize;
 102:Drivers/lvgl/src/font/lv_font_fmt_txt.c ****         /*Compute memory size needed to hold decompressed glyph, rounding up*/
 103:Drivers/lvgl/src/font/lv_font_fmt_txt.c ****         switch(fdsc->bpp) {
 104:Drivers/lvgl/src/font/lv_font_fmt_txt.c ****             case 1:
 105:Drivers/lvgl/src/font/lv_font_fmt_txt.c ****                 buf_size = (gsize + 7) >> 3;
 106:Drivers/lvgl/src/font/lv_font_fmt_txt.c ****                 break;
 107:Drivers/lvgl/src/font/lv_font_fmt_txt.c ****             case 2:
 108:Drivers/lvgl/src/font/lv_font_fmt_txt.c ****                 buf_size = (gsize + 3) >> 2;
 109:Drivers/lvgl/src/font/lv_font_fmt_txt.c ****                 break;
 110:Drivers/lvgl/src/font/lv_font_fmt_txt.c ****             case 3:
 111:Drivers/lvgl/src/font/lv_font_fmt_txt.c ****                 buf_size = (gsize + 1) >> 1;
 112:Drivers/lvgl/src/font/lv_font_fmt_txt.c ****                 break;
 113:Drivers/lvgl/src/font/lv_font_fmt_txt.c ****             case 4:
 114:Drivers/lvgl/src/font/lv_font_fmt_txt.c ****                 buf_size = (gsize + 1) >> 1;
 115:Drivers/lvgl/src/font/lv_font_fmt_txt.c ****                 break;
 116:Drivers/lvgl/src/font/lv_font_fmt_txt.c ****         }
 117:Drivers/lvgl/src/font/lv_font_fmt_txt.c **** 
 118:Drivers/lvgl/src/font/lv_font_fmt_txt.c ****         if(last_buf_size < buf_size) {
 119:Drivers/lvgl/src/font/lv_font_fmt_txt.c ****             uint8_t * tmp = lv_mem_realloc(LV_GC_ROOT(_lv_font_decompr_buf), buf_size);
 120:Drivers/lvgl/src/font/lv_font_fmt_txt.c ****             LV_ASSERT_MALLOC(tmp);
 121:Drivers/lvgl/src/font/lv_font_fmt_txt.c ****             if(tmp == NULL) return NULL;
 122:Drivers/lvgl/src/font/lv_font_fmt_txt.c ****             LV_GC_ROOT(_lv_font_decompr_buf) = tmp;
 123:Drivers/lvgl/src/font/lv_font_fmt_txt.c ****             last_buf_size = buf_size;
 124:Drivers/lvgl/src/font/lv_font_fmt_txt.c ****         }
 125:Drivers/lvgl/src/font/lv_font_fmt_txt.c **** 
 126:Drivers/lvgl/src/font/lv_font_fmt_txt.c ****         bool prefilter = fdsc->bitmap_format == LV_FONT_FMT_TXT_COMPRESSED ? true : false;
 127:Drivers/lvgl/src/font/lv_font_fmt_txt.c ****         decompress(&fdsc->glyph_bitmap[gdsc->bitmap_index], LV_GC_ROOT(_lv_font_decompr_buf), gdsc-
 128:Drivers/lvgl/src/font/lv_font_fmt_txt.c ****                    (uint8_t)fdsc->bpp, prefilter);
 129:Drivers/lvgl/src/font/lv_font_fmt_txt.c ****         return LV_GC_ROOT(_lv_font_decompr_buf);
 130:Drivers/lvgl/src/font/lv_font_fmt_txt.c **** #else /*!LV_USE_FONT_COMPRESSED*/
 131:Drivers/lvgl/src/font/lv_font_fmt_txt.c ****         LV_LOG_WARN("Compressed fonts is used but LV_USE_FONT_COMPRESSED is not enabled in lv_conf.
 132:Drivers/lvgl/src/font/lv_font_fmt_txt.c ****         return NULL;
 133:Drivers/lvgl/src/font/lv_font_fmt_txt.c **** #endif
 134:Drivers/lvgl/src/font/lv_font_fmt_txt.c ****     }
 135:Drivers/lvgl/src/font/lv_font_fmt_txt.c **** 
 136:Drivers/lvgl/src/font/lv_font_fmt_txt.c ****     /*If not returned earlier then the letter is not found in this font*/
 137:Drivers/lvgl/src/font/lv_font_fmt_txt.c ****     return NULL;
 138:Drivers/lvgl/src/font/lv_font_fmt_txt.c **** }
 139:Drivers/lvgl/src/font/lv_font_fmt_txt.c **** 
 140:Drivers/lvgl/src/font/lv_font_fmt_txt.c **** /**
 141:Drivers/lvgl/src/font/lv_font_fmt_txt.c ****  * Used as `get_glyph_dsc` callback in LittelvGL's native font format if the font is uncompressed.
 142:Drivers/lvgl/src/font/lv_font_fmt_txt.c ****  * @param font_p pointer to font
 143:Drivers/lvgl/src/font/lv_font_fmt_txt.c ****  * @param dsc_out store the result descriptor here
 144:Drivers/lvgl/src/font/lv_font_fmt_txt.c ****  * @param letter a UNICODE letter code
 145:Drivers/lvgl/src/font/lv_font_fmt_txt.c ****  * @return true: descriptor is successfully loaded into `dsc_out`.
ARM GAS  /var/folders/0z/tsy30v1j4xl4_7kw94k978ww0000gn/T//ccxKMfKW.s 			page 4


 146:Drivers/lvgl/src/font/lv_font_fmt_txt.c ****  *         false: the letter was not found, no data is loaded to `dsc_out`
 147:Drivers/lvgl/src/font/lv_font_fmt_txt.c ****  */
 148:Drivers/lvgl/src/font/lv_font_fmt_txt.c **** bool lv_font_get_glyph_dsc_fmt_txt(const lv_font_t * font, lv_font_glyph_dsc_t * dsc_out, uint32_t 
 149:Drivers/lvgl/src/font/lv_font_fmt_txt.c ****                                    uint32_t unicode_letter_next)
 150:Drivers/lvgl/src/font/lv_font_fmt_txt.c **** {
 151:Drivers/lvgl/src/font/lv_font_fmt_txt.c ****     /*It fixes a strange compiler optimization issue: https://github.com/lvgl/lvgl/issues/4370*/
 152:Drivers/lvgl/src/font/lv_font_fmt_txt.c ****     bool is_tab = unicode_letter == '\t';
 153:Drivers/lvgl/src/font/lv_font_fmt_txt.c ****     if(is_tab) {
 154:Drivers/lvgl/src/font/lv_font_fmt_txt.c ****         unicode_letter = ' ';
 155:Drivers/lvgl/src/font/lv_font_fmt_txt.c ****     }
 156:Drivers/lvgl/src/font/lv_font_fmt_txt.c ****     lv_font_fmt_txt_dsc_t * fdsc = (lv_font_fmt_txt_dsc_t *)font->dsc;
 157:Drivers/lvgl/src/font/lv_font_fmt_txt.c ****     uint32_t gid = get_glyph_dsc_id(font, unicode_letter);
 158:Drivers/lvgl/src/font/lv_font_fmt_txt.c ****     if(!gid) return false;
 159:Drivers/lvgl/src/font/lv_font_fmt_txt.c **** 
 160:Drivers/lvgl/src/font/lv_font_fmt_txt.c ****     int8_t kvalue = 0;
 161:Drivers/lvgl/src/font/lv_font_fmt_txt.c ****     if(fdsc->kern_dsc) {
 162:Drivers/lvgl/src/font/lv_font_fmt_txt.c ****         uint32_t gid_next = get_glyph_dsc_id(font, unicode_letter_next);
 163:Drivers/lvgl/src/font/lv_font_fmt_txt.c ****         if(gid_next) {
 164:Drivers/lvgl/src/font/lv_font_fmt_txt.c ****             kvalue = get_kern_value(font, gid, gid_next);
 165:Drivers/lvgl/src/font/lv_font_fmt_txt.c ****         }
 166:Drivers/lvgl/src/font/lv_font_fmt_txt.c ****     }
 167:Drivers/lvgl/src/font/lv_font_fmt_txt.c **** 
 168:Drivers/lvgl/src/font/lv_font_fmt_txt.c ****     /*Put together a glyph dsc*/
 169:Drivers/lvgl/src/font/lv_font_fmt_txt.c ****     const lv_font_fmt_txt_glyph_dsc_t * gdsc = &fdsc->glyph_dsc[gid];
 170:Drivers/lvgl/src/font/lv_font_fmt_txt.c **** 
 171:Drivers/lvgl/src/font/lv_font_fmt_txt.c ****     int32_t kv = ((int32_t)((int32_t)kvalue * fdsc->kern_scale) >> 4);
 172:Drivers/lvgl/src/font/lv_font_fmt_txt.c **** 
 173:Drivers/lvgl/src/font/lv_font_fmt_txt.c ****     uint32_t adv_w = gdsc->adv_w;
 174:Drivers/lvgl/src/font/lv_font_fmt_txt.c ****     if(is_tab) adv_w *= 2;
 175:Drivers/lvgl/src/font/lv_font_fmt_txt.c **** 
 176:Drivers/lvgl/src/font/lv_font_fmt_txt.c ****     adv_w += kv;
 177:Drivers/lvgl/src/font/lv_font_fmt_txt.c ****     adv_w  = (adv_w + (1 << 3)) >> 4;
 178:Drivers/lvgl/src/font/lv_font_fmt_txt.c **** 
 179:Drivers/lvgl/src/font/lv_font_fmt_txt.c ****     dsc_out->adv_w = adv_w;
 180:Drivers/lvgl/src/font/lv_font_fmt_txt.c ****     dsc_out->box_h = gdsc->box_h;
 181:Drivers/lvgl/src/font/lv_font_fmt_txt.c ****     dsc_out->box_w = gdsc->box_w;
 182:Drivers/lvgl/src/font/lv_font_fmt_txt.c ****     dsc_out->ofs_x = gdsc->ofs_x;
 183:Drivers/lvgl/src/font/lv_font_fmt_txt.c ****     dsc_out->ofs_y = gdsc->ofs_y;
 184:Drivers/lvgl/src/font/lv_font_fmt_txt.c ****     dsc_out->bpp   = (uint8_t)fdsc->bpp;
 185:Drivers/lvgl/src/font/lv_font_fmt_txt.c ****     dsc_out->is_placeholder = false;
 186:Drivers/lvgl/src/font/lv_font_fmt_txt.c **** 
 187:Drivers/lvgl/src/font/lv_font_fmt_txt.c ****     if(is_tab) dsc_out->box_w = dsc_out->box_w * 2;
 188:Drivers/lvgl/src/font/lv_font_fmt_txt.c **** 
 189:Drivers/lvgl/src/font/lv_font_fmt_txt.c ****     return true;
 190:Drivers/lvgl/src/font/lv_font_fmt_txt.c **** }
 191:Drivers/lvgl/src/font/lv_font_fmt_txt.c **** 
 192:Drivers/lvgl/src/font/lv_font_fmt_txt.c **** /**
 193:Drivers/lvgl/src/font/lv_font_fmt_txt.c ****  * Free the allocated memories.
 194:Drivers/lvgl/src/font/lv_font_fmt_txt.c ****  */
 195:Drivers/lvgl/src/font/lv_font_fmt_txt.c **** void _lv_font_clean_up_fmt_txt(void)
 196:Drivers/lvgl/src/font/lv_font_fmt_txt.c **** {
 197:Drivers/lvgl/src/font/lv_font_fmt_txt.c **** #if LV_USE_FONT_COMPRESSED
 198:Drivers/lvgl/src/font/lv_font_fmt_txt.c ****     if(LV_GC_ROOT(_lv_font_decompr_buf)) {
 199:Drivers/lvgl/src/font/lv_font_fmt_txt.c ****         lv_mem_free(LV_GC_ROOT(_lv_font_decompr_buf));
 200:Drivers/lvgl/src/font/lv_font_fmt_txt.c ****         LV_GC_ROOT(_lv_font_decompr_buf) = NULL;
 201:Drivers/lvgl/src/font/lv_font_fmt_txt.c ****     }
 202:Drivers/lvgl/src/font/lv_font_fmt_txt.c **** #endif
ARM GAS  /var/folders/0z/tsy30v1j4xl4_7kw94k978ww0000gn/T//ccxKMfKW.s 			page 5


 203:Drivers/lvgl/src/font/lv_font_fmt_txt.c **** }
 204:Drivers/lvgl/src/font/lv_font_fmt_txt.c **** 
 205:Drivers/lvgl/src/font/lv_font_fmt_txt.c **** /**********************
 206:Drivers/lvgl/src/font/lv_font_fmt_txt.c ****  *   STATIC FUNCTIONS
 207:Drivers/lvgl/src/font/lv_font_fmt_txt.c ****  **********************/
 208:Drivers/lvgl/src/font/lv_font_fmt_txt.c **** 
 209:Drivers/lvgl/src/font/lv_font_fmt_txt.c **** static uint32_t get_glyph_dsc_id(const lv_font_t * font, uint32_t letter)
 210:Drivers/lvgl/src/font/lv_font_fmt_txt.c **** {
 211:Drivers/lvgl/src/font/lv_font_fmt_txt.c ****     if(letter == '\0') return 0;
 212:Drivers/lvgl/src/font/lv_font_fmt_txt.c **** 
 213:Drivers/lvgl/src/font/lv_font_fmt_txt.c ****     lv_font_fmt_txt_dsc_t * fdsc = (lv_font_fmt_txt_dsc_t *)font->dsc;
 214:Drivers/lvgl/src/font/lv_font_fmt_txt.c **** 
 215:Drivers/lvgl/src/font/lv_font_fmt_txt.c ****     /*Check the cache first*/
 216:Drivers/lvgl/src/font/lv_font_fmt_txt.c ****     if(fdsc->cache && letter == fdsc->cache->last_letter) return fdsc->cache->last_glyph_id;
 217:Drivers/lvgl/src/font/lv_font_fmt_txt.c **** 
 218:Drivers/lvgl/src/font/lv_font_fmt_txt.c ****     uint16_t i;
 219:Drivers/lvgl/src/font/lv_font_fmt_txt.c ****     for(i = 0; i < fdsc->cmap_num; i++) {
 220:Drivers/lvgl/src/font/lv_font_fmt_txt.c **** 
 221:Drivers/lvgl/src/font/lv_font_fmt_txt.c ****         /*Relative code point*/
 222:Drivers/lvgl/src/font/lv_font_fmt_txt.c ****         uint32_t rcp = letter - fdsc->cmaps[i].range_start;
 223:Drivers/lvgl/src/font/lv_font_fmt_txt.c ****         if(rcp > fdsc->cmaps[i].range_length) continue;
 224:Drivers/lvgl/src/font/lv_font_fmt_txt.c ****         uint32_t glyph_id = 0;
 225:Drivers/lvgl/src/font/lv_font_fmt_txt.c ****         if(fdsc->cmaps[i].type == LV_FONT_FMT_TXT_CMAP_FORMAT0_TINY) {
 226:Drivers/lvgl/src/font/lv_font_fmt_txt.c ****             glyph_id = fdsc->cmaps[i].glyph_id_start + rcp;
 227:Drivers/lvgl/src/font/lv_font_fmt_txt.c ****         }
 228:Drivers/lvgl/src/font/lv_font_fmt_txt.c ****         else if(fdsc->cmaps[i].type == LV_FONT_FMT_TXT_CMAP_FORMAT0_FULL) {
 229:Drivers/lvgl/src/font/lv_font_fmt_txt.c ****             const uint8_t * gid_ofs_8 = fdsc->cmaps[i].glyph_id_ofs_list;
 230:Drivers/lvgl/src/font/lv_font_fmt_txt.c ****             glyph_id = fdsc->cmaps[i].glyph_id_start + gid_ofs_8[rcp];
 231:Drivers/lvgl/src/font/lv_font_fmt_txt.c ****         }
 232:Drivers/lvgl/src/font/lv_font_fmt_txt.c ****         else if(fdsc->cmaps[i].type == LV_FONT_FMT_TXT_CMAP_SPARSE_TINY) {
 233:Drivers/lvgl/src/font/lv_font_fmt_txt.c ****             uint16_t key = rcp;
 234:Drivers/lvgl/src/font/lv_font_fmt_txt.c ****             uint16_t * p = _lv_utils_bsearch(&key, fdsc->cmaps[i].unicode_list, fdsc->cmaps[i].list
 235:Drivers/lvgl/src/font/lv_font_fmt_txt.c ****                                              sizeof(fdsc->cmaps[i].unicode_list[0]), unicode_list_c
 236:Drivers/lvgl/src/font/lv_font_fmt_txt.c **** 
 237:Drivers/lvgl/src/font/lv_font_fmt_txt.c ****             if(p) {
 238:Drivers/lvgl/src/font/lv_font_fmt_txt.c ****                 lv_uintptr_t ofs = p - fdsc->cmaps[i].unicode_list;
 239:Drivers/lvgl/src/font/lv_font_fmt_txt.c ****                 glyph_id = fdsc->cmaps[i].glyph_id_start + ofs;
 240:Drivers/lvgl/src/font/lv_font_fmt_txt.c ****             }
 241:Drivers/lvgl/src/font/lv_font_fmt_txt.c ****         }
 242:Drivers/lvgl/src/font/lv_font_fmt_txt.c ****         else if(fdsc->cmaps[i].type == LV_FONT_FMT_TXT_CMAP_SPARSE_FULL) {
 243:Drivers/lvgl/src/font/lv_font_fmt_txt.c ****             uint16_t key = rcp;
 244:Drivers/lvgl/src/font/lv_font_fmt_txt.c ****             uint16_t * p = _lv_utils_bsearch(&key, fdsc->cmaps[i].unicode_list, fdsc->cmaps[i].list
 245:Drivers/lvgl/src/font/lv_font_fmt_txt.c ****                                              sizeof(fdsc->cmaps[i].unicode_list[0]), unicode_list_c
 246:Drivers/lvgl/src/font/lv_font_fmt_txt.c **** 
 247:Drivers/lvgl/src/font/lv_font_fmt_txt.c ****             if(p) {
 248:Drivers/lvgl/src/font/lv_font_fmt_txt.c ****                 lv_uintptr_t ofs = p - fdsc->cmaps[i].unicode_list;
 249:Drivers/lvgl/src/font/lv_font_fmt_txt.c ****                 const uint16_t * gid_ofs_16 = fdsc->cmaps[i].glyph_id_ofs_list;
 250:Drivers/lvgl/src/font/lv_font_fmt_txt.c ****                 glyph_id = fdsc->cmaps[i].glyph_id_start + gid_ofs_16[ofs];
 251:Drivers/lvgl/src/font/lv_font_fmt_txt.c ****             }
 252:Drivers/lvgl/src/font/lv_font_fmt_txt.c ****         }
 253:Drivers/lvgl/src/font/lv_font_fmt_txt.c **** 
 254:Drivers/lvgl/src/font/lv_font_fmt_txt.c ****         /*Update the cache*/
 255:Drivers/lvgl/src/font/lv_font_fmt_txt.c ****         if(fdsc->cache) {
 256:Drivers/lvgl/src/font/lv_font_fmt_txt.c ****             fdsc->cache->last_letter = letter;
 257:Drivers/lvgl/src/font/lv_font_fmt_txt.c ****             fdsc->cache->last_glyph_id = glyph_id;
 258:Drivers/lvgl/src/font/lv_font_fmt_txt.c ****         }
 259:Drivers/lvgl/src/font/lv_font_fmt_txt.c ****         return glyph_id;
ARM GAS  /var/folders/0z/tsy30v1j4xl4_7kw94k978ww0000gn/T//ccxKMfKW.s 			page 6


 260:Drivers/lvgl/src/font/lv_font_fmt_txt.c ****     }
 261:Drivers/lvgl/src/font/lv_font_fmt_txt.c **** 
 262:Drivers/lvgl/src/font/lv_font_fmt_txt.c ****     if(fdsc->cache) {
 263:Drivers/lvgl/src/font/lv_font_fmt_txt.c ****         fdsc->cache->last_letter = letter;
 264:Drivers/lvgl/src/font/lv_font_fmt_txt.c ****         fdsc->cache->last_glyph_id = 0;
 265:Drivers/lvgl/src/font/lv_font_fmt_txt.c ****     }
 266:Drivers/lvgl/src/font/lv_font_fmt_txt.c ****     return 0;
 267:Drivers/lvgl/src/font/lv_font_fmt_txt.c **** 
 268:Drivers/lvgl/src/font/lv_font_fmt_txt.c **** }
 269:Drivers/lvgl/src/font/lv_font_fmt_txt.c **** 
 270:Drivers/lvgl/src/font/lv_font_fmt_txt.c **** static int8_t get_kern_value(const lv_font_t * font, uint32_t gid_left, uint32_t gid_right)
 271:Drivers/lvgl/src/font/lv_font_fmt_txt.c **** {
 272:Drivers/lvgl/src/font/lv_font_fmt_txt.c ****     lv_font_fmt_txt_dsc_t * fdsc = (lv_font_fmt_txt_dsc_t *)font->dsc;
 273:Drivers/lvgl/src/font/lv_font_fmt_txt.c **** 
 274:Drivers/lvgl/src/font/lv_font_fmt_txt.c ****     int8_t value = 0;
 275:Drivers/lvgl/src/font/lv_font_fmt_txt.c **** 
 276:Drivers/lvgl/src/font/lv_font_fmt_txt.c ****     if(fdsc->kern_classes == 0) {
 277:Drivers/lvgl/src/font/lv_font_fmt_txt.c ****         /*Kern pairs*/
 278:Drivers/lvgl/src/font/lv_font_fmt_txt.c ****         const lv_font_fmt_txt_kern_pair_t * kdsc = fdsc->kern_dsc;
 279:Drivers/lvgl/src/font/lv_font_fmt_txt.c ****         if(kdsc->glyph_ids_size == 0) {
 280:Drivers/lvgl/src/font/lv_font_fmt_txt.c ****             /*Use binary search to find the kern value.
 281:Drivers/lvgl/src/font/lv_font_fmt_txt.c ****              *The pairs are ordered left_id first, then right_id secondly.*/
 282:Drivers/lvgl/src/font/lv_font_fmt_txt.c ****             const uint16_t * g_ids = kdsc->glyph_ids;
 283:Drivers/lvgl/src/font/lv_font_fmt_txt.c ****             uint16_t g_id_both = (gid_right << 8) + gid_left; /*Create one number from the ids*/
 284:Drivers/lvgl/src/font/lv_font_fmt_txt.c ****             uint16_t * kid_p = _lv_utils_bsearch(&g_id_both, g_ids, kdsc->pair_cnt, 2, kern_pair_8_
 285:Drivers/lvgl/src/font/lv_font_fmt_txt.c **** 
 286:Drivers/lvgl/src/font/lv_font_fmt_txt.c ****             /*If the `g_id_both` were found get its index from the pointer*/
 287:Drivers/lvgl/src/font/lv_font_fmt_txt.c ****             if(kid_p) {
 288:Drivers/lvgl/src/font/lv_font_fmt_txt.c ****                 lv_uintptr_t ofs = kid_p - g_ids;
 289:Drivers/lvgl/src/font/lv_font_fmt_txt.c ****                 value = kdsc->values[ofs];
 290:Drivers/lvgl/src/font/lv_font_fmt_txt.c ****             }
 291:Drivers/lvgl/src/font/lv_font_fmt_txt.c ****         }
 292:Drivers/lvgl/src/font/lv_font_fmt_txt.c ****         else if(kdsc->glyph_ids_size == 1) {
 293:Drivers/lvgl/src/font/lv_font_fmt_txt.c ****             /*Use binary search to find the kern value.
 294:Drivers/lvgl/src/font/lv_font_fmt_txt.c ****              *The pairs are ordered left_id first, then right_id secondly.*/
 295:Drivers/lvgl/src/font/lv_font_fmt_txt.c ****             const uint32_t * g_ids = kdsc->glyph_ids;
 296:Drivers/lvgl/src/font/lv_font_fmt_txt.c ****             uint32_t g_id_both = (gid_right << 16) + gid_left; /*Create one number from the ids*/
 297:Drivers/lvgl/src/font/lv_font_fmt_txt.c ****             uint32_t * kid_p = _lv_utils_bsearch(&g_id_both, g_ids, kdsc->pair_cnt, 4, kern_pair_16
 298:Drivers/lvgl/src/font/lv_font_fmt_txt.c **** 
 299:Drivers/lvgl/src/font/lv_font_fmt_txt.c ****             /*If the `g_id_both` were found get its index from the pointer*/
 300:Drivers/lvgl/src/font/lv_font_fmt_txt.c ****             if(kid_p) {
 301:Drivers/lvgl/src/font/lv_font_fmt_txt.c ****                 lv_uintptr_t ofs = kid_p - g_ids;
 302:Drivers/lvgl/src/font/lv_font_fmt_txt.c ****                 value = kdsc->values[ofs];
 303:Drivers/lvgl/src/font/lv_font_fmt_txt.c ****             }
 304:Drivers/lvgl/src/font/lv_font_fmt_txt.c **** 
 305:Drivers/lvgl/src/font/lv_font_fmt_txt.c ****         }
 306:Drivers/lvgl/src/font/lv_font_fmt_txt.c ****         else {
 307:Drivers/lvgl/src/font/lv_font_fmt_txt.c ****             /*Invalid value*/
 308:Drivers/lvgl/src/font/lv_font_fmt_txt.c ****         }
 309:Drivers/lvgl/src/font/lv_font_fmt_txt.c ****     }
 310:Drivers/lvgl/src/font/lv_font_fmt_txt.c ****     else {
 311:Drivers/lvgl/src/font/lv_font_fmt_txt.c ****         /*Kern classes*/
 312:Drivers/lvgl/src/font/lv_font_fmt_txt.c ****         const lv_font_fmt_txt_kern_classes_t * kdsc = fdsc->kern_dsc;
 313:Drivers/lvgl/src/font/lv_font_fmt_txt.c ****         uint8_t left_class = kdsc->left_class_mapping[gid_left];
 314:Drivers/lvgl/src/font/lv_font_fmt_txt.c ****         uint8_t right_class = kdsc->right_class_mapping[gid_right];
 315:Drivers/lvgl/src/font/lv_font_fmt_txt.c **** 
 316:Drivers/lvgl/src/font/lv_font_fmt_txt.c ****         /*If class = 0, kerning not exist for that glyph
ARM GAS  /var/folders/0z/tsy30v1j4xl4_7kw94k978ww0000gn/T//ccxKMfKW.s 			page 7


 317:Drivers/lvgl/src/font/lv_font_fmt_txt.c ****          *else got the value form `class_pair_values` 2D array*/
 318:Drivers/lvgl/src/font/lv_font_fmt_txt.c ****         if(left_class > 0 && right_class > 0) {
 319:Drivers/lvgl/src/font/lv_font_fmt_txt.c ****             value = kdsc->class_pair_values[(left_class - 1) * kdsc->right_class_cnt + (right_class
 320:Drivers/lvgl/src/font/lv_font_fmt_txt.c ****         }
 321:Drivers/lvgl/src/font/lv_font_fmt_txt.c **** 
 322:Drivers/lvgl/src/font/lv_font_fmt_txt.c ****     }
 323:Drivers/lvgl/src/font/lv_font_fmt_txt.c ****     return value;
 324:Drivers/lvgl/src/font/lv_font_fmt_txt.c **** }
 325:Drivers/lvgl/src/font/lv_font_fmt_txt.c **** 
 326:Drivers/lvgl/src/font/lv_font_fmt_txt.c **** static int32_t kern_pair_8_compare(const void * ref, const void * element)
 327:Drivers/lvgl/src/font/lv_font_fmt_txt.c **** {
  28              		.loc 1 327 1 view -0
  29              		.cfi_startproc
  30              		@ args = 0, pretend = 0, frame = 0
  31              		@ frame_needed = 0, uses_anonymous_args = 0
  32              		@ link register save eliminated.
 328:Drivers/lvgl/src/font/lv_font_fmt_txt.c ****     const uint8_t * ref8_p = ref;
  33              		.loc 1 328 5 view .LVU1
 329:Drivers/lvgl/src/font/lv_font_fmt_txt.c ****     const uint8_t * element8_p = element;
  34              		.loc 1 329 5 view .LVU2
 330:Drivers/lvgl/src/font/lv_font_fmt_txt.c **** 
 331:Drivers/lvgl/src/font/lv_font_fmt_txt.c ****     /*If the MSB is different it will matter. If not return the diff. of the LSB*/
 332:Drivers/lvgl/src/font/lv_font_fmt_txt.c ****     if(ref8_p[0] != element8_p[0]) return (int32_t)ref8_p[0] - element8_p[0];
  35              		.loc 1 332 5 view .LVU3
  36              		.loc 1 332 14 is_stmt 0 view .LVU4
  37 0000 0378     		ldrb	r3, [r0]	@ zero_extendqisi2
  38              		.loc 1 332 31 view .LVU5
  39 0002 0A78     		ldrb	r2, [r1]	@ zero_extendqisi2
  40              		.loc 1 332 7 view .LVU6
  41 0004 9342     		cmp	r3, r2
  42              		.loc 1 332 36 is_stmt 1 view .LVU7
 333:Drivers/lvgl/src/font/lv_font_fmt_txt.c ****     else return (int32_t) ref8_p[1] - element8_p[1];
  43              		.loc 1 333 49 is_stmt 0 view .LVU8
  44 0006 09BF     		itett	eq
  45 0008 4B78     		ldrbeq	r3, [r1, #1]	@ zero_extendqisi2
 332:Drivers/lvgl/src/font/lv_font_fmt_txt.c ****     else return (int32_t) ref8_p[1] - element8_p[1];
  46              		.loc 1 332 62 view .LVU9
  47 000a 981A     		subne	r0, r3, r2
  48              	.LVL1:
  49              		.loc 1 333 10 is_stmt 1 view .LVU10
  50              		.loc 1 333 17 is_stmt 0 view .LVU11
  51 000c 4078     		ldrbeq	r0, [r0, #1]	@ zero_extendqisi2
  52              		.loc 1 333 37 view .LVU12
  53 000e C01A     		subeq	r0, r0, r3
 334:Drivers/lvgl/src/font/lv_font_fmt_txt.c **** 
 335:Drivers/lvgl/src/font/lv_font_fmt_txt.c **** }
  54              		.loc 1 335 1 view .LVU13
  55 0010 7047     		bx	lr
  56              		.cfi_endproc
  57              	.LFE31:
  59 0012 00BF     		.section	.text.kern_pair_16_compare,"ax",%progbits
  60              		.align	1
  61              		.p2align 2,,3
  62              		.syntax unified
  63              		.thumb
  64              		.thumb_func
  66              	kern_pair_16_compare:
ARM GAS  /var/folders/0z/tsy30v1j4xl4_7kw94k978ww0000gn/T//ccxKMfKW.s 			page 8


  67              	.LVL2:
  68              	.LFB32:
 336:Drivers/lvgl/src/font/lv_font_fmt_txt.c **** 
 337:Drivers/lvgl/src/font/lv_font_fmt_txt.c **** static int32_t kern_pair_16_compare(const void * ref, const void * element)
 338:Drivers/lvgl/src/font/lv_font_fmt_txt.c **** {
  69              		.loc 1 338 1 is_stmt 1 view -0
  70              		.cfi_startproc
  71              		@ args = 0, pretend = 0, frame = 0
  72              		@ frame_needed = 0, uses_anonymous_args = 0
  73              		@ link register save eliminated.
 339:Drivers/lvgl/src/font/lv_font_fmt_txt.c ****     const uint16_t * ref16_p = ref;
  74              		.loc 1 339 5 view .LVU15
 340:Drivers/lvgl/src/font/lv_font_fmt_txt.c ****     const uint16_t * element16_p = element;
  75              		.loc 1 340 5 view .LVU16
 341:Drivers/lvgl/src/font/lv_font_fmt_txt.c **** 
 342:Drivers/lvgl/src/font/lv_font_fmt_txt.c ****     /*If the MSB is different it will matter. If not return the diff. of the LSB*/
 343:Drivers/lvgl/src/font/lv_font_fmt_txt.c ****     if(ref16_p[0] != element16_p[0]) return (int32_t)ref16_p[0] - element16_p[0];
  76              		.loc 1 343 5 view .LVU17
  77              		.loc 1 343 15 is_stmt 0 view .LVU18
  78 0000 0388     		ldrh	r3, [r0]
  79              		.loc 1 343 33 view .LVU19
  80 0002 0A88     		ldrh	r2, [r1]
  81              		.loc 1 343 7 view .LVU20
  82 0004 9342     		cmp	r3, r2
  83              		.loc 1 343 38 is_stmt 1 view .LVU21
 344:Drivers/lvgl/src/font/lv_font_fmt_txt.c ****     else return (int32_t) ref16_p[1] - element16_p[1];
  84              		.loc 1 344 51 is_stmt 0 view .LVU22
  85 0006 09BF     		itett	eq
  86 0008 4B88     		ldrheq	r3, [r1, #2]
 343:Drivers/lvgl/src/font/lv_font_fmt_txt.c ****     else return (int32_t) ref16_p[1] - element16_p[1];
  87              		.loc 1 343 65 view .LVU23
  88 000a 981A     		subne	r0, r3, r2
  89              	.LVL3:
  90              		.loc 1 344 10 is_stmt 1 view .LVU24
  91              		.loc 1 344 17 is_stmt 0 view .LVU25
  92 000c 4088     		ldrheq	r0, [r0, #2]
  93              		.loc 1 344 38 view .LVU26
  94 000e C01A     		subeq	r0, r0, r3
 345:Drivers/lvgl/src/font/lv_font_fmt_txt.c **** }
  95              		.loc 1 345 1 view .LVU27
  96 0010 7047     		bx	lr
  97              		.cfi_endproc
  98              	.LFE32:
 100 0012 00BF     		.section	.text.unicode_list_compare,"ax",%progbits
 101              		.align	1
 102              		.p2align 2,,3
 103              		.syntax unified
 104              		.thumb
 105              		.thumb_func
 107              	unicode_list_compare:
 108              	.LVL4:
 109              	.LFB33:
 346:Drivers/lvgl/src/font/lv_font_fmt_txt.c **** 
 347:Drivers/lvgl/src/font/lv_font_fmt_txt.c **** #if LV_USE_FONT_COMPRESSED
 348:Drivers/lvgl/src/font/lv_font_fmt_txt.c **** /**
 349:Drivers/lvgl/src/font/lv_font_fmt_txt.c ****  * The compress a glyph's bitmap
 350:Drivers/lvgl/src/font/lv_font_fmt_txt.c ****  * @param in the compressed bitmap
ARM GAS  /var/folders/0z/tsy30v1j4xl4_7kw94k978ww0000gn/T//ccxKMfKW.s 			page 9


 351:Drivers/lvgl/src/font/lv_font_fmt_txt.c ****  * @param out buffer to store the result
 352:Drivers/lvgl/src/font/lv_font_fmt_txt.c ****  * @param px_num number of pixels in the glyph (width * height)
 353:Drivers/lvgl/src/font/lv_font_fmt_txt.c ****  * @param bpp bit per pixel (bpp = 3 will be converted to bpp = 4)
 354:Drivers/lvgl/src/font/lv_font_fmt_txt.c ****  * @param prefilter true: the lines are XORed
 355:Drivers/lvgl/src/font/lv_font_fmt_txt.c ****  */
 356:Drivers/lvgl/src/font/lv_font_fmt_txt.c **** static void decompress(const uint8_t * in, uint8_t * out, lv_coord_t w, lv_coord_t h, uint8_t bpp, 
 357:Drivers/lvgl/src/font/lv_font_fmt_txt.c **** {
 358:Drivers/lvgl/src/font/lv_font_fmt_txt.c ****     uint32_t wrp = 0;
 359:Drivers/lvgl/src/font/lv_font_fmt_txt.c ****     uint8_t wr_size = bpp;
 360:Drivers/lvgl/src/font/lv_font_fmt_txt.c ****     if(bpp == 3) wr_size = 4;
 361:Drivers/lvgl/src/font/lv_font_fmt_txt.c **** 
 362:Drivers/lvgl/src/font/lv_font_fmt_txt.c ****     rle_init(in, bpp);
 363:Drivers/lvgl/src/font/lv_font_fmt_txt.c **** 
 364:Drivers/lvgl/src/font/lv_font_fmt_txt.c ****     uint8_t * line_buf1 = lv_mem_buf_get(w);
 365:Drivers/lvgl/src/font/lv_font_fmt_txt.c **** 
 366:Drivers/lvgl/src/font/lv_font_fmt_txt.c ****     uint8_t * line_buf2 = NULL;
 367:Drivers/lvgl/src/font/lv_font_fmt_txt.c **** 
 368:Drivers/lvgl/src/font/lv_font_fmt_txt.c ****     if(prefilter) {
 369:Drivers/lvgl/src/font/lv_font_fmt_txt.c ****         line_buf2 = lv_mem_buf_get(w);
 370:Drivers/lvgl/src/font/lv_font_fmt_txt.c ****     }
 371:Drivers/lvgl/src/font/lv_font_fmt_txt.c **** 
 372:Drivers/lvgl/src/font/lv_font_fmt_txt.c ****     decompress_line(line_buf1, w);
 373:Drivers/lvgl/src/font/lv_font_fmt_txt.c **** 
 374:Drivers/lvgl/src/font/lv_font_fmt_txt.c ****     lv_coord_t y;
 375:Drivers/lvgl/src/font/lv_font_fmt_txt.c ****     lv_coord_t x;
 376:Drivers/lvgl/src/font/lv_font_fmt_txt.c **** 
 377:Drivers/lvgl/src/font/lv_font_fmt_txt.c ****     for(x = 0; x < w; x++) {
 378:Drivers/lvgl/src/font/lv_font_fmt_txt.c ****         bits_write(out, wrp, line_buf1[x], bpp);
 379:Drivers/lvgl/src/font/lv_font_fmt_txt.c ****         wrp += wr_size;
 380:Drivers/lvgl/src/font/lv_font_fmt_txt.c ****     }
 381:Drivers/lvgl/src/font/lv_font_fmt_txt.c **** 
 382:Drivers/lvgl/src/font/lv_font_fmt_txt.c ****     for(y = 1; y < h; y++) {
 383:Drivers/lvgl/src/font/lv_font_fmt_txt.c ****         if(prefilter) {
 384:Drivers/lvgl/src/font/lv_font_fmt_txt.c ****             decompress_line(line_buf2, w);
 385:Drivers/lvgl/src/font/lv_font_fmt_txt.c **** 
 386:Drivers/lvgl/src/font/lv_font_fmt_txt.c ****             for(x = 0; x < w; x++) {
 387:Drivers/lvgl/src/font/lv_font_fmt_txt.c ****                 line_buf1[x] = line_buf2[x] ^ line_buf1[x];
 388:Drivers/lvgl/src/font/lv_font_fmt_txt.c ****                 bits_write(out, wrp, line_buf1[x], bpp);
 389:Drivers/lvgl/src/font/lv_font_fmt_txt.c ****                 wrp += wr_size;
 390:Drivers/lvgl/src/font/lv_font_fmt_txt.c ****             }
 391:Drivers/lvgl/src/font/lv_font_fmt_txt.c ****         }
 392:Drivers/lvgl/src/font/lv_font_fmt_txt.c ****         else {
 393:Drivers/lvgl/src/font/lv_font_fmt_txt.c ****             decompress_line(line_buf1, w);
 394:Drivers/lvgl/src/font/lv_font_fmt_txt.c **** 
 395:Drivers/lvgl/src/font/lv_font_fmt_txt.c ****             for(x = 0; x < w; x++) {
 396:Drivers/lvgl/src/font/lv_font_fmt_txt.c ****                 bits_write(out, wrp, line_buf1[x], bpp);
 397:Drivers/lvgl/src/font/lv_font_fmt_txt.c ****                 wrp += wr_size;
 398:Drivers/lvgl/src/font/lv_font_fmt_txt.c ****             }
 399:Drivers/lvgl/src/font/lv_font_fmt_txt.c ****         }
 400:Drivers/lvgl/src/font/lv_font_fmt_txt.c ****     }
 401:Drivers/lvgl/src/font/lv_font_fmt_txt.c **** 
 402:Drivers/lvgl/src/font/lv_font_fmt_txt.c ****     lv_mem_buf_release(line_buf1);
 403:Drivers/lvgl/src/font/lv_font_fmt_txt.c ****     lv_mem_buf_release(line_buf2);
 404:Drivers/lvgl/src/font/lv_font_fmt_txt.c **** }
 405:Drivers/lvgl/src/font/lv_font_fmt_txt.c **** 
 406:Drivers/lvgl/src/font/lv_font_fmt_txt.c **** /**
 407:Drivers/lvgl/src/font/lv_font_fmt_txt.c ****  * Decompress one line. Store one pixel per byte
ARM GAS  /var/folders/0z/tsy30v1j4xl4_7kw94k978ww0000gn/T//ccxKMfKW.s 			page 10


 408:Drivers/lvgl/src/font/lv_font_fmt_txt.c ****  * @param out output buffer
 409:Drivers/lvgl/src/font/lv_font_fmt_txt.c ****  * @param w width of the line in pixel count
 410:Drivers/lvgl/src/font/lv_font_fmt_txt.c ****  */
 411:Drivers/lvgl/src/font/lv_font_fmt_txt.c **** static inline void decompress_line(uint8_t * out, lv_coord_t w)
 412:Drivers/lvgl/src/font/lv_font_fmt_txt.c **** {
 413:Drivers/lvgl/src/font/lv_font_fmt_txt.c ****     lv_coord_t i;
 414:Drivers/lvgl/src/font/lv_font_fmt_txt.c ****     for(i = 0; i < w; i++) {
 415:Drivers/lvgl/src/font/lv_font_fmt_txt.c ****         out[i] = rle_next();
 416:Drivers/lvgl/src/font/lv_font_fmt_txt.c ****     }
 417:Drivers/lvgl/src/font/lv_font_fmt_txt.c **** }
 418:Drivers/lvgl/src/font/lv_font_fmt_txt.c **** 
 419:Drivers/lvgl/src/font/lv_font_fmt_txt.c **** /**
 420:Drivers/lvgl/src/font/lv_font_fmt_txt.c ****  * Read bits from an input buffer. The read can cross byte boundary.
 421:Drivers/lvgl/src/font/lv_font_fmt_txt.c ****  * @param in the input buffer to read from.
 422:Drivers/lvgl/src/font/lv_font_fmt_txt.c ****  * @param bit_pos index of the first bit to read.
 423:Drivers/lvgl/src/font/lv_font_fmt_txt.c ****  * @param len number of bits to read (must be <= 8).
 424:Drivers/lvgl/src/font/lv_font_fmt_txt.c ****  * @return the read bits
 425:Drivers/lvgl/src/font/lv_font_fmt_txt.c ****  */
 426:Drivers/lvgl/src/font/lv_font_fmt_txt.c **** static inline uint8_t get_bits(const uint8_t * in, uint32_t bit_pos, uint8_t len)
 427:Drivers/lvgl/src/font/lv_font_fmt_txt.c **** {
 428:Drivers/lvgl/src/font/lv_font_fmt_txt.c ****     uint8_t bit_mask;
 429:Drivers/lvgl/src/font/lv_font_fmt_txt.c ****     switch(len) {
 430:Drivers/lvgl/src/font/lv_font_fmt_txt.c ****         case 1:
 431:Drivers/lvgl/src/font/lv_font_fmt_txt.c ****             bit_mask = 0x1;
 432:Drivers/lvgl/src/font/lv_font_fmt_txt.c ****             break;
 433:Drivers/lvgl/src/font/lv_font_fmt_txt.c ****         case 2:
 434:Drivers/lvgl/src/font/lv_font_fmt_txt.c ****             bit_mask = 0x3;
 435:Drivers/lvgl/src/font/lv_font_fmt_txt.c ****             break;
 436:Drivers/lvgl/src/font/lv_font_fmt_txt.c ****         case 3:
 437:Drivers/lvgl/src/font/lv_font_fmt_txt.c ****             bit_mask = 0x7;
 438:Drivers/lvgl/src/font/lv_font_fmt_txt.c ****             break;
 439:Drivers/lvgl/src/font/lv_font_fmt_txt.c ****         case 4:
 440:Drivers/lvgl/src/font/lv_font_fmt_txt.c ****             bit_mask = 0xF;
 441:Drivers/lvgl/src/font/lv_font_fmt_txt.c ****             break;
 442:Drivers/lvgl/src/font/lv_font_fmt_txt.c ****         case 8:
 443:Drivers/lvgl/src/font/lv_font_fmt_txt.c ****             bit_mask = 0xFF;
 444:Drivers/lvgl/src/font/lv_font_fmt_txt.c ****             break;
 445:Drivers/lvgl/src/font/lv_font_fmt_txt.c ****         default:
 446:Drivers/lvgl/src/font/lv_font_fmt_txt.c ****             bit_mask = (uint16_t)((uint16_t) 1 << len) - 1;
 447:Drivers/lvgl/src/font/lv_font_fmt_txt.c ****     }
 448:Drivers/lvgl/src/font/lv_font_fmt_txt.c **** 
 449:Drivers/lvgl/src/font/lv_font_fmt_txt.c ****     uint32_t byte_pos = bit_pos >> 3;
 450:Drivers/lvgl/src/font/lv_font_fmt_txt.c ****     bit_pos = bit_pos & 0x7;
 451:Drivers/lvgl/src/font/lv_font_fmt_txt.c **** 
 452:Drivers/lvgl/src/font/lv_font_fmt_txt.c ****     if(bit_pos + len >= 8) {
 453:Drivers/lvgl/src/font/lv_font_fmt_txt.c ****         uint16_t in16 = (in[byte_pos] << 8) + in[byte_pos + 1];
 454:Drivers/lvgl/src/font/lv_font_fmt_txt.c ****         return (in16 >> (16 - bit_pos - len)) & bit_mask;
 455:Drivers/lvgl/src/font/lv_font_fmt_txt.c ****     }
 456:Drivers/lvgl/src/font/lv_font_fmt_txt.c ****     else {
 457:Drivers/lvgl/src/font/lv_font_fmt_txt.c ****         return (in[byte_pos] >> (8 - bit_pos - len)) & bit_mask;
 458:Drivers/lvgl/src/font/lv_font_fmt_txt.c ****     }
 459:Drivers/lvgl/src/font/lv_font_fmt_txt.c **** }
 460:Drivers/lvgl/src/font/lv_font_fmt_txt.c **** 
 461:Drivers/lvgl/src/font/lv_font_fmt_txt.c **** /**
 462:Drivers/lvgl/src/font/lv_font_fmt_txt.c ****  * Write `val` data to `bit_pos` position of `out`. The write can NOT cross byte boundary.
 463:Drivers/lvgl/src/font/lv_font_fmt_txt.c ****  * @param out buffer where to write
 464:Drivers/lvgl/src/font/lv_font_fmt_txt.c ****  * @param bit_pos bit index to write
ARM GAS  /var/folders/0z/tsy30v1j4xl4_7kw94k978ww0000gn/T//ccxKMfKW.s 			page 11


 465:Drivers/lvgl/src/font/lv_font_fmt_txt.c ****  * @param val value to write
 466:Drivers/lvgl/src/font/lv_font_fmt_txt.c ****  * @param len length of bits to write from `val`. (Counted from the LSB).
 467:Drivers/lvgl/src/font/lv_font_fmt_txt.c ****  * @note `len == 3` will be converted to `len = 4` and `val` will be upscaled too
 468:Drivers/lvgl/src/font/lv_font_fmt_txt.c ****  */
 469:Drivers/lvgl/src/font/lv_font_fmt_txt.c **** static inline void bits_write(uint8_t * out, uint32_t bit_pos, uint8_t val, uint8_t len)
 470:Drivers/lvgl/src/font/lv_font_fmt_txt.c **** {
 471:Drivers/lvgl/src/font/lv_font_fmt_txt.c ****     if(len == 3) {
 472:Drivers/lvgl/src/font/lv_font_fmt_txt.c ****         len = 4;
 473:Drivers/lvgl/src/font/lv_font_fmt_txt.c ****         switch(val) {
 474:Drivers/lvgl/src/font/lv_font_fmt_txt.c ****             case 0:
 475:Drivers/lvgl/src/font/lv_font_fmt_txt.c ****                 val = 0;
 476:Drivers/lvgl/src/font/lv_font_fmt_txt.c ****                 break;
 477:Drivers/lvgl/src/font/lv_font_fmt_txt.c ****             case 1:
 478:Drivers/lvgl/src/font/lv_font_fmt_txt.c ****                 val = 2;
 479:Drivers/lvgl/src/font/lv_font_fmt_txt.c ****                 break;
 480:Drivers/lvgl/src/font/lv_font_fmt_txt.c ****             case 2:
 481:Drivers/lvgl/src/font/lv_font_fmt_txt.c ****                 val = 4;
 482:Drivers/lvgl/src/font/lv_font_fmt_txt.c ****                 break;
 483:Drivers/lvgl/src/font/lv_font_fmt_txt.c ****             case 3:
 484:Drivers/lvgl/src/font/lv_font_fmt_txt.c ****                 val = 6;
 485:Drivers/lvgl/src/font/lv_font_fmt_txt.c ****                 break;
 486:Drivers/lvgl/src/font/lv_font_fmt_txt.c ****             case 4:
 487:Drivers/lvgl/src/font/lv_font_fmt_txt.c ****                 val = 9;
 488:Drivers/lvgl/src/font/lv_font_fmt_txt.c ****                 break;
 489:Drivers/lvgl/src/font/lv_font_fmt_txt.c ****             case 5:
 490:Drivers/lvgl/src/font/lv_font_fmt_txt.c ****                 val = 11;
 491:Drivers/lvgl/src/font/lv_font_fmt_txt.c ****                 break;
 492:Drivers/lvgl/src/font/lv_font_fmt_txt.c ****             case 6:
 493:Drivers/lvgl/src/font/lv_font_fmt_txt.c ****                 val = 13;
 494:Drivers/lvgl/src/font/lv_font_fmt_txt.c ****                 break;
 495:Drivers/lvgl/src/font/lv_font_fmt_txt.c ****             case 7:
 496:Drivers/lvgl/src/font/lv_font_fmt_txt.c ****                 val = 15;
 497:Drivers/lvgl/src/font/lv_font_fmt_txt.c ****                 break;
 498:Drivers/lvgl/src/font/lv_font_fmt_txt.c ****         }
 499:Drivers/lvgl/src/font/lv_font_fmt_txt.c ****     }
 500:Drivers/lvgl/src/font/lv_font_fmt_txt.c **** 
 501:Drivers/lvgl/src/font/lv_font_fmt_txt.c ****     uint16_t byte_pos = bit_pos >> 3;
 502:Drivers/lvgl/src/font/lv_font_fmt_txt.c ****     bit_pos = bit_pos & 0x7;
 503:Drivers/lvgl/src/font/lv_font_fmt_txt.c ****     bit_pos = 8 - bit_pos - len;
 504:Drivers/lvgl/src/font/lv_font_fmt_txt.c **** 
 505:Drivers/lvgl/src/font/lv_font_fmt_txt.c ****     uint8_t bit_mask = (uint16_t)((uint16_t) 1 << len) - 1;
 506:Drivers/lvgl/src/font/lv_font_fmt_txt.c ****     out[byte_pos] &= ((~bit_mask) << bit_pos);
 507:Drivers/lvgl/src/font/lv_font_fmt_txt.c ****     out[byte_pos] |= (val << bit_pos);
 508:Drivers/lvgl/src/font/lv_font_fmt_txt.c **** }
 509:Drivers/lvgl/src/font/lv_font_fmt_txt.c **** 
 510:Drivers/lvgl/src/font/lv_font_fmt_txt.c **** static inline void rle_init(const uint8_t * in,  uint8_t bpp)
 511:Drivers/lvgl/src/font/lv_font_fmt_txt.c **** {
 512:Drivers/lvgl/src/font/lv_font_fmt_txt.c ****     rle_in = in;
 513:Drivers/lvgl/src/font/lv_font_fmt_txt.c ****     rle_bpp = bpp;
 514:Drivers/lvgl/src/font/lv_font_fmt_txt.c ****     rle_state = RLE_STATE_SINGLE;
 515:Drivers/lvgl/src/font/lv_font_fmt_txt.c ****     rle_rdp = 0;
 516:Drivers/lvgl/src/font/lv_font_fmt_txt.c ****     rle_prev_v = 0;
 517:Drivers/lvgl/src/font/lv_font_fmt_txt.c ****     rle_cnt = 0;
 518:Drivers/lvgl/src/font/lv_font_fmt_txt.c **** }
 519:Drivers/lvgl/src/font/lv_font_fmt_txt.c **** 
 520:Drivers/lvgl/src/font/lv_font_fmt_txt.c **** static inline uint8_t rle_next(void)
 521:Drivers/lvgl/src/font/lv_font_fmt_txt.c **** {
ARM GAS  /var/folders/0z/tsy30v1j4xl4_7kw94k978ww0000gn/T//ccxKMfKW.s 			page 12


 522:Drivers/lvgl/src/font/lv_font_fmt_txt.c ****     uint8_t v = 0;
 523:Drivers/lvgl/src/font/lv_font_fmt_txt.c ****     uint8_t ret = 0;
 524:Drivers/lvgl/src/font/lv_font_fmt_txt.c **** 
 525:Drivers/lvgl/src/font/lv_font_fmt_txt.c ****     if(rle_state == RLE_STATE_SINGLE) {
 526:Drivers/lvgl/src/font/lv_font_fmt_txt.c ****         ret = get_bits(rle_in, rle_rdp, rle_bpp);
 527:Drivers/lvgl/src/font/lv_font_fmt_txt.c ****         if(rle_rdp != 0 && rle_prev_v == ret) {
 528:Drivers/lvgl/src/font/lv_font_fmt_txt.c ****             rle_cnt = 0;
 529:Drivers/lvgl/src/font/lv_font_fmt_txt.c ****             rle_state = RLE_STATE_REPEATE;
 530:Drivers/lvgl/src/font/lv_font_fmt_txt.c ****         }
 531:Drivers/lvgl/src/font/lv_font_fmt_txt.c **** 
 532:Drivers/lvgl/src/font/lv_font_fmt_txt.c ****         rle_prev_v = ret;
 533:Drivers/lvgl/src/font/lv_font_fmt_txt.c ****         rle_rdp += rle_bpp;
 534:Drivers/lvgl/src/font/lv_font_fmt_txt.c ****     }
 535:Drivers/lvgl/src/font/lv_font_fmt_txt.c ****     else if(rle_state == RLE_STATE_REPEATE) {
 536:Drivers/lvgl/src/font/lv_font_fmt_txt.c ****         v = get_bits(rle_in, rle_rdp, 1);
 537:Drivers/lvgl/src/font/lv_font_fmt_txt.c ****         rle_cnt++;
 538:Drivers/lvgl/src/font/lv_font_fmt_txt.c ****         rle_rdp += 1;
 539:Drivers/lvgl/src/font/lv_font_fmt_txt.c ****         if(v == 1) {
 540:Drivers/lvgl/src/font/lv_font_fmt_txt.c ****             ret = rle_prev_v;
 541:Drivers/lvgl/src/font/lv_font_fmt_txt.c ****             if(rle_cnt == 11) {
 542:Drivers/lvgl/src/font/lv_font_fmt_txt.c ****                 rle_cnt = get_bits(rle_in, rle_rdp, 6);
 543:Drivers/lvgl/src/font/lv_font_fmt_txt.c ****                 rle_rdp += 6;
 544:Drivers/lvgl/src/font/lv_font_fmt_txt.c ****                 if(rle_cnt != 0) {
 545:Drivers/lvgl/src/font/lv_font_fmt_txt.c ****                     rle_state = RLE_STATE_COUNTER;
 546:Drivers/lvgl/src/font/lv_font_fmt_txt.c ****                 }
 547:Drivers/lvgl/src/font/lv_font_fmt_txt.c ****                 else {
 548:Drivers/lvgl/src/font/lv_font_fmt_txt.c ****                     ret = get_bits(rle_in, rle_rdp, rle_bpp);
 549:Drivers/lvgl/src/font/lv_font_fmt_txt.c ****                     rle_prev_v = ret;
 550:Drivers/lvgl/src/font/lv_font_fmt_txt.c ****                     rle_rdp += rle_bpp;
 551:Drivers/lvgl/src/font/lv_font_fmt_txt.c ****                     rle_state = RLE_STATE_SINGLE;
 552:Drivers/lvgl/src/font/lv_font_fmt_txt.c ****                 }
 553:Drivers/lvgl/src/font/lv_font_fmt_txt.c ****             }
 554:Drivers/lvgl/src/font/lv_font_fmt_txt.c ****         }
 555:Drivers/lvgl/src/font/lv_font_fmt_txt.c ****         else {
 556:Drivers/lvgl/src/font/lv_font_fmt_txt.c ****             ret = get_bits(rle_in, rle_rdp, rle_bpp);
 557:Drivers/lvgl/src/font/lv_font_fmt_txt.c ****             rle_prev_v = ret;
 558:Drivers/lvgl/src/font/lv_font_fmt_txt.c ****             rle_rdp += rle_bpp;
 559:Drivers/lvgl/src/font/lv_font_fmt_txt.c ****             rle_state = RLE_STATE_SINGLE;
 560:Drivers/lvgl/src/font/lv_font_fmt_txt.c ****         }
 561:Drivers/lvgl/src/font/lv_font_fmt_txt.c **** 
 562:Drivers/lvgl/src/font/lv_font_fmt_txt.c ****     }
 563:Drivers/lvgl/src/font/lv_font_fmt_txt.c ****     else if(rle_state == RLE_STATE_COUNTER) {
 564:Drivers/lvgl/src/font/lv_font_fmt_txt.c ****         ret = rle_prev_v;
 565:Drivers/lvgl/src/font/lv_font_fmt_txt.c ****         rle_cnt--;
 566:Drivers/lvgl/src/font/lv_font_fmt_txt.c ****         if(rle_cnt == 0) {
 567:Drivers/lvgl/src/font/lv_font_fmt_txt.c ****             ret = get_bits(rle_in, rle_rdp, rle_bpp);
 568:Drivers/lvgl/src/font/lv_font_fmt_txt.c ****             rle_prev_v = ret;
 569:Drivers/lvgl/src/font/lv_font_fmt_txt.c ****             rle_rdp += rle_bpp;
 570:Drivers/lvgl/src/font/lv_font_fmt_txt.c ****             rle_state = RLE_STATE_SINGLE;
 571:Drivers/lvgl/src/font/lv_font_fmt_txt.c ****         }
 572:Drivers/lvgl/src/font/lv_font_fmt_txt.c ****     }
 573:Drivers/lvgl/src/font/lv_font_fmt_txt.c **** 
 574:Drivers/lvgl/src/font/lv_font_fmt_txt.c ****     return ret;
 575:Drivers/lvgl/src/font/lv_font_fmt_txt.c **** }
 576:Drivers/lvgl/src/font/lv_font_fmt_txt.c **** #endif /*LV_USE_FONT_COMPRESSED*/
 577:Drivers/lvgl/src/font/lv_font_fmt_txt.c **** 
 578:Drivers/lvgl/src/font/lv_font_fmt_txt.c **** /** Code Comparator.
ARM GAS  /var/folders/0z/tsy30v1j4xl4_7kw94k978ww0000gn/T//ccxKMfKW.s 			page 13


 579:Drivers/lvgl/src/font/lv_font_fmt_txt.c ****  *
 580:Drivers/lvgl/src/font/lv_font_fmt_txt.c ****  *  Compares the value of both input arguments.
 581:Drivers/lvgl/src/font/lv_font_fmt_txt.c ****  *
 582:Drivers/lvgl/src/font/lv_font_fmt_txt.c ****  *  @param[in]  pRef        Pointer to the reference.
 583:Drivers/lvgl/src/font/lv_font_fmt_txt.c ****  *  @param[in]  pElement    Pointer to the element to compare.
 584:Drivers/lvgl/src/font/lv_font_fmt_txt.c ****  *
 585:Drivers/lvgl/src/font/lv_font_fmt_txt.c ****  *  @return Result of comparison.
 586:Drivers/lvgl/src/font/lv_font_fmt_txt.c ****  *  @retval < 0   Reference is less than element.
 587:Drivers/lvgl/src/font/lv_font_fmt_txt.c ****  *  @retval = 0   Reference is equal to element.
 588:Drivers/lvgl/src/font/lv_font_fmt_txt.c ****  *  @retval > 0   Reference is greater than element.
 589:Drivers/lvgl/src/font/lv_font_fmt_txt.c ****  *
 590:Drivers/lvgl/src/font/lv_font_fmt_txt.c ****  */
 591:Drivers/lvgl/src/font/lv_font_fmt_txt.c **** static int32_t unicode_list_compare(const void * ref, const void * element)
 592:Drivers/lvgl/src/font/lv_font_fmt_txt.c **** {
 110              		.loc 1 592 1 is_stmt 1 view -0
 111              		.cfi_startproc
 112              		@ args = 0, pretend = 0, frame = 0
 113              		@ frame_needed = 0, uses_anonymous_args = 0
 114              		@ link register save eliminated.
 593:Drivers/lvgl/src/font/lv_font_fmt_txt.c ****     return ((int32_t)(*(uint16_t *)ref)) - ((int32_t)(*(uint16_t *)element));
 115              		.loc 1 593 5 view .LVU29
 116              		.loc 1 593 13 is_stmt 0 view .LVU30
 117 0000 0088     		ldrh	r0, [r0]
 118              	.LVL5:
 119              		.loc 1 593 45 view .LVU31
 120 0002 0B88     		ldrh	r3, [r1]
 594:Drivers/lvgl/src/font/lv_font_fmt_txt.c **** }
 121              		.loc 1 594 1 view .LVU32
 122 0004 C01A     		subs	r0, r0, r3
 123 0006 7047     		bx	lr
 124              		.cfi_endproc
 125              	.LFE33:
 127              		.section	.text.lv_font_get_bitmap_fmt_txt,"ax",%progbits
 128              		.align	1
 129              		.p2align 2,,3
 130              		.global	lv_font_get_bitmap_fmt_txt
 131              		.syntax unified
 132              		.thumb
 133              		.thumb_func
 135              	lv_font_get_bitmap_fmt_txt:
 136              	.LVL6:
 137              	.LFB26:
  80:Drivers/lvgl/src/font/lv_font_fmt_txt.c ****     if(unicode_letter == '\t') unicode_letter = ' ';
 138              		.loc 1 80 1 is_stmt 1 view -0
 139              		.cfi_startproc
 140              		@ args = 0, pretend = 0, frame = 8
 141              		@ frame_needed = 0, uses_anonymous_args = 0
  81:Drivers/lvgl/src/font/lv_font_fmt_txt.c **** 
 142              		.loc 1 81 5 view .LVU34
  80:Drivers/lvgl/src/font/lv_font_fmt_txt.c ****     if(unicode_letter == '\t') unicode_letter = ' ';
 143              		.loc 1 80 1 is_stmt 0 view .LVU35
 144 0000 F0B5     		push	{r4, r5, r6, r7, lr}
 145              		.cfi_def_cfa_offset 20
 146              		.cfi_offset 4, -20
 147              		.cfi_offset 5, -16
 148              		.cfi_offset 6, -12
 149              		.cfi_offset 7, -8
ARM GAS  /var/folders/0z/tsy30v1j4xl4_7kw94k978ww0000gn/T//ccxKMfKW.s 			page 14


 150              		.cfi_offset 14, -4
  81:Drivers/lvgl/src/font/lv_font_fmt_txt.c **** 
 151              		.loc 1 81 7 view .LVU36
 152 0002 0929     		cmp	r1, #9
  80:Drivers/lvgl/src/font/lv_font_fmt_txt.c ****     if(unicode_letter == '\t') unicode_letter = ' ';
 153              		.loc 1 80 1 view .LVU37
 154 0004 85B0     		sub	sp, sp, #20
 155              		.cfi_def_cfa_offset 40
  81:Drivers/lvgl/src/font/lv_font_fmt_txt.c **** 
 156              		.loc 1 81 7 view .LVU38
 157 0006 38D0     		beq	.L55
  83:Drivers/lvgl/src/font/lv_font_fmt_txt.c ****     uint32_t gid = get_glyph_dsc_id(font, unicode_letter);
 158              		.loc 1 83 5 is_stmt 1 view .LVU39
  83:Drivers/lvgl/src/font/lv_font_fmt_txt.c ****     uint32_t gid = get_glyph_dsc_id(font, unicode_letter);
 159              		.loc 1 83 29 is_stmt 0 view .LVU40
 160 0008 0569     		ldr	r5, [r0, #16]
 161              	.LVL7:
  84:Drivers/lvgl/src/font/lv_font_fmt_txt.c ****     if(!gid) return NULL;
 162              		.loc 1 84 5 is_stmt 1 view .LVU41
 163              	.LBB31:
 164              	.LBI31:
 209:Drivers/lvgl/src/font/lv_font_fmt_txt.c **** {
 165              		.loc 1 209 17 view .LVU42
 166              	.LBB32:
 211:Drivers/lvgl/src/font/lv_font_fmt_txt.c **** 
 167              		.loc 1 211 5 view .LVU43
 168 000a 0C46     		mov	r4, r1
 211:Drivers/lvgl/src/font/lv_font_fmt_txt.c **** 
 169              		.loc 1 211 7 is_stmt 0 view .LVU44
 170 000c 0029     		cmp	r1, #0
 171 000e 31D0     		beq	.L24
 172              	.LVL8:
 173              	.L11:
 174              	.LBB33:
 175              	.LBI33:
 209:Drivers/lvgl/src/font/lv_font_fmt_txt.c **** {
 176              		.loc 1 209 17 is_stmt 1 view .LVU45
 177              	.LBB34:
 213:Drivers/lvgl/src/font/lv_font_fmt_txt.c **** 
 178              		.loc 1 213 5 view .LVU46
 216:Drivers/lvgl/src/font/lv_font_fmt_txt.c **** 
 179              		.loc 1 216 5 view .LVU47
 216:Drivers/lvgl/src/font/lv_font_fmt_txt.c **** 
 180              		.loc 1 216 12 is_stmt 0 view .LVU48
 181 0010 6A69     		ldr	r2, [r5, #20]
 216:Drivers/lvgl/src/font/lv_font_fmt_txt.c **** 
 182              		.loc 1 216 7 view .LVU49
 183 0012 52B3     		cbz	r2, .L13
 216:Drivers/lvgl/src/font/lv_font_fmt_txt.c **** 
 184              		.loc 1 216 20 view .LVU50
 185 0014 1368     		ldr	r3, [r2]
 186 0016 9C42     		cmp	r4, r3
 187 0018 5DD0     		beq	.L56
 188              	.LVL9:
 219:Drivers/lvgl/src/font/lv_font_fmt_txt.c **** 
 189              		.loc 1 219 18 is_stmt 1 view .LVU51
 219:Drivers/lvgl/src/font/lv_font_fmt_txt.c **** 
ARM GAS  /var/folders/0z/tsy30v1j4xl4_7kw94k978ww0000gn/T//ccxKMfKW.s 			page 15


 190              		.loc 1 219 24 is_stmt 0 view .LVU52
 191 001a 688A     		ldrh	r0, [r5, #18]
 192              	.LVL10:
 219:Drivers/lvgl/src/font/lv_font_fmt_txt.c **** 
 193              		.loc 1 219 18 view .LVU53
 194 001c C0F30800 		ubfx	r0, r0, #0, #9
 195 0020 0028     		cmp	r0, #0
 196 0022 39D0     		beq	.L28
 197              	.L27:
 198              	.LBB35:
 222:Drivers/lvgl/src/font/lv_font_fmt_txt.c ****         if(rcp > fdsc->cmaps[i].range_length) continue;
 199              		.loc 1 222 37 view .LVU54
 200 0024 AF68     		ldr	r7, [r5, #8]
 201 0026 0026     		movs	r6, #0
 202 0028 3946     		mov	r1, r7
 203 002a B646     		mov	lr, r6
 204              	.LVL11:
 205              	.L17:
 222:Drivers/lvgl/src/font/lv_font_fmt_txt.c ****         if(rcp > fdsc->cmaps[i].range_length) continue;
 206              		.loc 1 222 9 is_stmt 1 view .LVU55
 222:Drivers/lvgl/src/font/lv_font_fmt_txt.c ****         if(rcp > fdsc->cmaps[i].range_length) continue;
 207              		.loc 1 222 18 is_stmt 0 view .LVU56
 208 002c BB59     		ldr	r3, [r7, r6]
 223:Drivers/lvgl/src/font/lv_font_fmt_txt.c ****         uint32_t glyph_id = 0;
 209              		.loc 1 223 32 view .LVU57
 210 002e B1F804C0 		ldrh	ip, [r1, #4]
 222:Drivers/lvgl/src/font/lv_font_fmt_txt.c ****         if(rcp > fdsc->cmaps[i].range_length) continue;
 211              		.loc 1 222 18 view .LVU58
 212 0032 E31A     		subs	r3, r4, r3
 213              	.LVL12:
 223:Drivers/lvgl/src/font/lv_font_fmt_txt.c ****         uint32_t glyph_id = 0;
 214              		.loc 1 223 9 is_stmt 1 view .LVU59
 223:Drivers/lvgl/src/font/lv_font_fmt_txt.c ****         uint32_t glyph_id = 0;
 215              		.loc 1 223 11 is_stmt 0 view .LVU60
 216 0034 6345     		cmp	r3, ip
 217 0036 23D8     		bhi	.L57
 224:Drivers/lvgl/src/font/lv_font_fmt_txt.c ****         if(fdsc->cmaps[i].type == LV_FONT_FMT_TXT_CMAP_FORMAT0_TINY) {
 218              		.loc 1 224 9 is_stmt 1 view .LVU61
 219              	.LVL13:
 225:Drivers/lvgl/src/font/lv_font_fmt_txt.c ****             glyph_id = fdsc->cmaps[i].glyph_id_start + rcp;
 220              		.loc 1 225 9 view .LVU62
 225:Drivers/lvgl/src/font/lv_font_fmt_txt.c ****             glyph_id = fdsc->cmaps[i].glyph_id_start + rcp;
 221              		.loc 1 225 26 is_stmt 0 view .LVU63
 222 0038 887C     		ldrb	r0, [r1, #18]	@ zero_extendqisi2
 225:Drivers/lvgl/src/font/lv_font_fmt_txt.c ****             glyph_id = fdsc->cmaps[i].glyph_id_start + rcp;
 223              		.loc 1 225 11 view .LVU64
 224 003a 0228     		cmp	r0, #2
 225 003c 02D0     		beq	.L50
 228:Drivers/lvgl/src/font/lv_font_fmt_txt.c ****             const uint8_t * gid_ofs_8 = fdsc->cmaps[i].glyph_id_ofs_list;
 226              		.loc 1 228 14 is_stmt 1 view .LVU65
 228:Drivers/lvgl/src/font/lv_font_fmt_txt.c ****             const uint8_t * gid_ofs_8 = fdsc->cmaps[i].glyph_id_ofs_list;
 227              		.loc 1 228 16 is_stmt 0 view .LVU66
 228 003e 80BB     		cbnz	r0, .L21
 229              	.LBB36:
 229:Drivers/lvgl/src/font/lv_font_fmt_txt.c ****             glyph_id = fdsc->cmaps[i].glyph_id_start + gid_ofs_8[rcp];
 230              		.loc 1 229 13 is_stmt 1 view .LVU67
 231              	.LVL14:
ARM GAS  /var/folders/0z/tsy30v1j4xl4_7kw94k978ww0000gn/T//ccxKMfKW.s 			page 16


 230:Drivers/lvgl/src/font/lv_font_fmt_txt.c ****         }
 232              		.loc 1 230 13 view .LVU68
 230:Drivers/lvgl/src/font/lv_font_fmt_txt.c ****         }
 233              		.loc 1 230 65 is_stmt 0 view .LVU69
 234 0040 C868     		ldr	r0, [r1, #12]
 235 0042 C35C     		ldrb	r3, [r0, r3]	@ zero_extendqisi2
 236              	.LVL15:
 237              	.L50:
 230:Drivers/lvgl/src/font/lv_font_fmt_txt.c ****         }
 238              		.loc 1 230 38 view .LVU70
 239 0044 C988     		ldrh	r1, [r1, #6]
 230:Drivers/lvgl/src/font/lv_font_fmt_txt.c ****         }
 240              		.loc 1 230 54 view .LVU71
 241 0046 0B44     		add	r3, r3, r1
 242              	.LVL16:
 243              	.L20:
 230:Drivers/lvgl/src/font/lv_font_fmt_txt.c ****         }
 244              		.loc 1 230 54 view .LVU72
 245              	.LBE36:
 255:Drivers/lvgl/src/font/lv_font_fmt_txt.c ****             fdsc->cache->last_letter = letter;
 246              		.loc 1 255 9 is_stmt 1 view .LVU73
 255:Drivers/lvgl/src/font/lv_font_fmt_txt.c ****             fdsc->cache->last_letter = letter;
 247              		.loc 1 255 11 is_stmt 0 view .LVU74
 248 0048 0AB1     		cbz	r2, .L15
 256:Drivers/lvgl/src/font/lv_font_fmt_txt.c ****             fdsc->cache->last_glyph_id = glyph_id;
 249              		.loc 1 256 13 is_stmt 1 view .LVU75
 257:Drivers/lvgl/src/font/lv_font_fmt_txt.c ****         }
 250              		.loc 1 257 40 is_stmt 0 view .LVU76
 251 004a C2E90043 		strd	r4, r3, [r2]
 252              	.LVL17:
 253              	.L15:
 257:Drivers/lvgl/src/font/lv_font_fmt_txt.c ****         }
 254              		.loc 1 257 40 view .LVU77
 255              	.LBE35:
 256              	.LBE34:
 257              	.LBE33:
 258              	.LBE32:
 259              	.LBE31:
  85:Drivers/lvgl/src/font/lv_font_fmt_txt.c **** 
 260              		.loc 1 85 5 is_stmt 1 view .LVU78
  85:Drivers/lvgl/src/font/lv_font_fmt_txt.c **** 
 261              		.loc 1 85 7 is_stmt 0 view .LVU79
 262 004e 8BB1     		cbz	r3, .L24
  87:Drivers/lvgl/src/font/lv_font_fmt_txt.c **** 
 263              		.loc 1 87 5 is_stmt 1 view .LVU80
  89:Drivers/lvgl/src/font/lv_font_fmt_txt.c ****         return &fdsc->glyph_bitmap[gdsc->bitmap_index];
 264              		.loc 1 89 28 is_stmt 0 view .LVU81
 265 0050 EA7C     		ldrb	r2, [r5, #19]	@ zero_extendqisi2
  87:Drivers/lvgl/src/font/lv_font_fmt_txt.c **** 
 266              		.loc 1 87 53 view .LVU82
 267 0052 6968     		ldr	r1, [r5, #4]
 268              	.LVL18:
  89:Drivers/lvgl/src/font/lv_font_fmt_txt.c ****         return &fdsc->glyph_bitmap[gdsc->bitmap_index];
 269              		.loc 1 89 5 is_stmt 1 view .LVU83
  89:Drivers/lvgl/src/font/lv_font_fmt_txt.c ****         return &fdsc->glyph_bitmap[gdsc->bitmap_index];
 270              		.loc 1 89 7 is_stmt 0 view .LVU84
 271 0054 12F0C00F 		tst	r2, #192
ARM GAS  /var/folders/0z/tsy30v1j4xl4_7kw94k978ww0000gn/T//ccxKMfKW.s 			page 17


 272 0058 0CD1     		bne	.L24
  90:Drivers/lvgl/src/font/lv_font_fmt_txt.c ****     }
 273              		.loc 1 90 9 is_stmt 1 view .LVU85
  90:Drivers/lvgl/src/font/lv_font_fmt_txt.c ****     }
 274              		.loc 1 90 40 is_stmt 0 view .LVU86
 275 005a 51F83330 		ldr	r3, [r1, r3, lsl #3]
 276              	.LVL19:
  90:Drivers/lvgl/src/font/lv_font_fmt_txt.c ****     }
 277              		.loc 1 90 16 view .LVU87
 278 005e 2868     		ldr	r0, [r5]
  90:Drivers/lvgl/src/font/lv_font_fmt_txt.c ****     }
 279              		.loc 1 90 40 view .LVU88
 280 0060 C3F31303 		ubfx	r3, r3, #0, #20
  90:Drivers/lvgl/src/font/lv_font_fmt_txt.c ****     }
 281              		.loc 1 90 16 view .LVU89
 282 0064 1844     		add	r0, r0, r3
 283              	.L9:
 138:Drivers/lvgl/src/font/lv_font_fmt_txt.c **** 
 284              		.loc 1 138 1 view .LVU90
 285 0066 05B0     		add	sp, sp, #20
 286              		.cfi_remember_state
 287              		.cfi_def_cfa_offset 20
 288              		@ sp needed
 289 0068 F0BD     		pop	{r4, r5, r6, r7, pc}
 290              	.LVL20:
 291              	.L13:
 292              		.cfi_restore_state
 293              	.LBB56:
 294              	.LBB52:
 295              	.LBB49:
 296              	.LBB46:
 219:Drivers/lvgl/src/font/lv_font_fmt_txt.c **** 
 297              		.loc 1 219 18 is_stmt 1 view .LVU91
 219:Drivers/lvgl/src/font/lv_font_fmt_txt.c **** 
 298              		.loc 1 219 24 is_stmt 0 view .LVU92
 299 006a 688A     		ldrh	r0, [r5, #18]
 300              	.LVL21:
 219:Drivers/lvgl/src/font/lv_font_fmt_txt.c **** 
 301              		.loc 1 219 18 view .LVU93
 302 006c C0F30800 		ubfx	r0, r0, #0, #9
 303 0070 0028     		cmp	r0, #0
 304 0072 D7D1     		bne	.L27
 305              	.LVL22:
 306              	.L24:
 219:Drivers/lvgl/src/font/lv_font_fmt_txt.c **** 
 307              		.loc 1 219 18 view .LVU94
 308              	.LBE46:
 309              	.LBE49:
 310              	.LBE52:
 311              	.LBE56:
  85:Drivers/lvgl/src/font/lv_font_fmt_txt.c **** 
 312              		.loc 1 85 21 view .LVU95
 313 0074 0020     		movs	r0, #0
 138:Drivers/lvgl/src/font/lv_font_fmt_txt.c **** 
 314              		.loc 1 138 1 view .LVU96
 315 0076 05B0     		add	sp, sp, #20
 316              		.cfi_remember_state
ARM GAS  /var/folders/0z/tsy30v1j4xl4_7kw94k978ww0000gn/T//ccxKMfKW.s 			page 18


 317              		.cfi_def_cfa_offset 20
 318              		@ sp needed
 319 0078 F0BD     		pop	{r4, r5, r6, r7, pc}
 320              	.LVL23:
 321              	.L55:
 322              		.cfi_restore_state
  81:Drivers/lvgl/src/font/lv_font_fmt_txt.c **** 
 323              		.loc 1 81 32 is_stmt 1 view .LVU97
  83:Drivers/lvgl/src/font/lv_font_fmt_txt.c ****     uint32_t gid = get_glyph_dsc_id(font, unicode_letter);
 324              		.loc 1 83 5 view .LVU98
  83:Drivers/lvgl/src/font/lv_font_fmt_txt.c ****     uint32_t gid = get_glyph_dsc_id(font, unicode_letter);
 325              		.loc 1 83 29 is_stmt 0 view .LVU99
 326 007a 0569     		ldr	r5, [r0, #16]
 327              	.LVL24:
  84:Drivers/lvgl/src/font/lv_font_fmt_txt.c ****     if(!gid) return NULL;
 328              		.loc 1 84 5 is_stmt 1 view .LVU100
 329              	.LBB57:
 209:Drivers/lvgl/src/font/lv_font_fmt_txt.c **** {
 330              		.loc 1 209 17 view .LVU101
 331              	.LBB53:
 211:Drivers/lvgl/src/font/lv_font_fmt_txt.c **** 
 332              		.loc 1 211 5 view .LVU102
 333              	.LBE53:
 334              	.LBE57:
  81:Drivers/lvgl/src/font/lv_font_fmt_txt.c **** 
 335              		.loc 1 81 47 is_stmt 0 view .LVU103
 336 007c 2024     		movs	r4, #32
 337 007e C7E7     		b	.L11
 338              	.LVL25:
 339              	.L57:
 340              	.LBB58:
 341              	.LBB54:
 342              	.LBB50:
 343              	.LBB47:
 344              	.LBB43:
 223:Drivers/lvgl/src/font/lv_font_fmt_txt.c ****         uint32_t glyph_id = 0;
 345              		.loc 1 223 47 is_stmt 1 view .LVU104
 346              	.LBE43:
 219:Drivers/lvgl/src/font/lv_font_fmt_txt.c **** 
 347              		.loc 1 219 37 view .LVU105
 219:Drivers/lvgl/src/font/lv_font_fmt_txt.c **** 
 348              		.loc 1 219 18 view .LVU106
 349 0080 0EF1010E 		add	lr, lr, #1
 350              	.LVL26:
 219:Drivers/lvgl/src/font/lv_font_fmt_txt.c **** 
 351              		.loc 1 219 18 is_stmt 0 view .LVU107
 352 0084 1FFA8EF3 		uxth	r3, lr
 353              	.LVL27:
 219:Drivers/lvgl/src/font/lv_font_fmt_txt.c **** 
 354              		.loc 1 219 18 view .LVU108
 355 0088 9842     		cmp	r0, r3
 356 008a 06F11406 		add	r6, r6, #20
 357              	.LVL28:
 219:Drivers/lvgl/src/font/lv_font_fmt_txt.c **** 
 358              		.loc 1 219 18 view .LVU109
 359 008e 01F11401 		add	r1, r1, #20
 360 0092 CBD8     		bhi	.L17
ARM GAS  /var/folders/0z/tsy30v1j4xl4_7kw94k978ww0000gn/T//ccxKMfKW.s 			page 19


 361              	.LVL29:
 362              	.L48:
 262:Drivers/lvgl/src/font/lv_font_fmt_txt.c ****         fdsc->cache->last_letter = letter;
 363              		.loc 1 262 5 is_stmt 1 view .LVU110
 262:Drivers/lvgl/src/font/lv_font_fmt_txt.c ****         fdsc->cache->last_letter = letter;
 364              		.loc 1 262 7 is_stmt 0 view .LVU111
 365 0094 002A     		cmp	r2, #0
 366 0096 EDD0     		beq	.L24
 367              	.L28:
 263:Drivers/lvgl/src/font/lv_font_fmt_txt.c ****         fdsc->cache->last_glyph_id = 0;
 368              		.loc 1 263 9 is_stmt 1 view .LVU112
 264:Drivers/lvgl/src/font/lv_font_fmt_txt.c ****     }
 369              		.loc 1 264 36 is_stmt 0 view .LVU113
 370 0098 0020     		movs	r0, #0
 371 009a C2E90040 		strd	r4, r0, [r2]
 372              	.LVL30:
 264:Drivers/lvgl/src/font/lv_font_fmt_txt.c ****     }
 373              		.loc 1 264 36 view .LVU114
 374              	.LBE47:
 375              	.LBE50:
 376              	.LBE54:
 377              	.LBE58:
  85:Drivers/lvgl/src/font/lv_font_fmt_txt.c **** 
 378              		.loc 1 85 5 is_stmt 1 view .LVU115
 138:Drivers/lvgl/src/font/lv_font_fmt_txt.c **** 
 379              		.loc 1 138 1 is_stmt 0 view .LVU116
 380 009e 05B0     		add	sp, sp, #20
 381              		.cfi_remember_state
 382              		.cfi_def_cfa_offset 20
 383              		@ sp needed
 384 00a0 F0BD     		pop	{r4, r5, r6, r7, pc}
 385              	.LVL31:
 386              	.L21:
 387              		.cfi_restore_state
 388              	.LBB59:
 389              	.LBB55:
 390              	.LBB51:
 391              	.LBB48:
 392              	.LBB44:
 232:Drivers/lvgl/src/font/lv_font_fmt_txt.c ****             uint16_t key = rcp;
 393              		.loc 1 232 14 is_stmt 1 view .LVU117
 232:Drivers/lvgl/src/font/lv_font_fmt_txt.c ****             uint16_t key = rcp;
 394              		.loc 1 232 16 is_stmt 0 view .LVU118
 395 00a2 0328     		cmp	r0, #3
 396 00a4 19D0     		beq	.L58
 242:Drivers/lvgl/src/font/lv_font_fmt_txt.c ****             uint16_t key = rcp;
 397              		.loc 1 242 14 is_stmt 1 view .LVU119
 242:Drivers/lvgl/src/font/lv_font_fmt_txt.c ****             uint16_t key = rcp;
 398              		.loc 1 242 16 is_stmt 0 view .LVU120
 399 00a6 0128     		cmp	r0, #1
 400 00a8 F4D1     		bne	.L48
 401              	.LBB37:
 243:Drivers/lvgl/src/font/lv_font_fmt_txt.c ****             uint16_t * p = _lv_utils_bsearch(&key, fdsc->cmaps[i].unicode_list, fdsc->cmaps[i].list
 402              		.loc 1 243 13 is_stmt 1 view .LVU121
 243:Drivers/lvgl/src/font/lv_font_fmt_txt.c ****             uint16_t * p = _lv_utils_bsearch(&key, fdsc->cmaps[i].unicode_list, fdsc->cmaps[i].list
 403              		.loc 1 243 22 is_stmt 0 view .LVU122
 404 00aa ADF80E30 		strh	r3, [sp, #14]	@ movhi
ARM GAS  /var/folders/0z/tsy30v1j4xl4_7kw94k978ww0000gn/T//ccxKMfKW.s 			page 20


 244:Drivers/lvgl/src/font/lv_font_fmt_txt.c ****                                              sizeof(fdsc->cmaps[i].unicode_list[0]), unicode_list_c
 405              		.loc 1 244 13 is_stmt 1 view .LVU123
 244:Drivers/lvgl/src/font/lv_font_fmt_txt.c ****                                              sizeof(fdsc->cmaps[i].unicode_list[0]), unicode_list_c
 406              		.loc 1 244 28 is_stmt 0 view .LVU124
 407 00ae 184B     		ldr	r3, .L59
 408              	.LVL32:
 244:Drivers/lvgl/src/font/lv_font_fmt_txt.c ****                                              sizeof(fdsc->cmaps[i].unicode_list[0]), unicode_list_c
 409              		.loc 1 244 28 view .LVU125
 410 00b0 0A8A     		ldrh	r2, [r1, #16]
 411 00b2 8968     		ldr	r1, [r1, #8]
 412 00b4 0093     		str	r3, [sp]
 413              	.LVL33:
 244:Drivers/lvgl/src/font/lv_font_fmt_txt.c ****                                              sizeof(fdsc->cmaps[i].unicode_list[0]), unicode_list_c
 414              		.loc 1 244 28 view .LVU126
 415 00b6 0DF10E00 		add	r0, sp, #14
 416 00ba 0223     		movs	r3, #2
 417 00bc FFF7FEFF 		bl	_lv_utils_bsearch
 418              	.LVL34:
 247:Drivers/lvgl/src/font/lv_font_fmt_txt.c ****                 lv_uintptr_t ofs = p - fdsc->cmaps[i].unicode_list;
 419              		.loc 1 247 13 is_stmt 1 view .LVU127
 247:Drivers/lvgl/src/font/lv_font_fmt_txt.c ****                 lv_uintptr_t ofs = p - fdsc->cmaps[i].unicode_list;
 420              		.loc 1 247 15 is_stmt 0 view .LVU128
 421 00c0 00B3     		cbz	r0, .L53
 422              	.LBB38:
 248:Drivers/lvgl/src/font/lv_font_fmt_txt.c ****                 const uint16_t * gid_ofs_16 = fdsc->cmaps[i].glyph_id_ofs_list;
 423              		.loc 1 248 17 is_stmt 1 view .LVU129
 248:Drivers/lvgl/src/font/lv_font_fmt_txt.c ****                 const uint16_t * gid_ofs_16 = fdsc->cmaps[i].glyph_id_ofs_list;
 424              		.loc 1 248 51 is_stmt 0 view .LVU130
 425 00c2 AB68     		ldr	r3, [r5, #8]
 426 00c4 3344     		add	r3, r3, r6
 427              	.LVL35:
 249:Drivers/lvgl/src/font/lv_font_fmt_txt.c ****                 glyph_id = fdsc->cmaps[i].glyph_id_start + gid_ofs_16[ofs];
 428              		.loc 1 249 17 is_stmt 1 view .LVU131
 250:Drivers/lvgl/src/font/lv_font_fmt_txt.c ****             }
 429              		.loc 1 250 17 view .LVU132
 248:Drivers/lvgl/src/font/lv_font_fmt_txt.c ****                 const uint16_t * gid_ofs_16 = fdsc->cmaps[i].glyph_id_ofs_list;
 430              		.loc 1 248 38 is_stmt 0 view .LVU133
 431 00c6 9A68     		ldr	r2, [r3, #8]
 250:Drivers/lvgl/src/font/lv_font_fmt_txt.c ****             }
 432              		.loc 1 250 42 view .LVU134
 433 00c8 D988     		ldrh	r1, [r3, #6]
 248:Drivers/lvgl/src/font/lv_font_fmt_txt.c ****                 const uint16_t * gid_ofs_16 = fdsc->cmaps[i].glyph_id_ofs_list;
 434              		.loc 1 248 38 view .LVU135
 435 00ca 801A     		subs	r0, r0, r2
 436              	.LVL36:
 250:Drivers/lvgl/src/font/lv_font_fmt_txt.c ****             }
 437              		.loc 1 250 70 view .LVU136
 438 00cc DA68     		ldr	r2, [r3, #12]
 439 00ce 135A     		ldrh	r3, [r2, r0]
 440              	.LVL37:
 250:Drivers/lvgl/src/font/lv_font_fmt_txt.c ****             }
 441              		.loc 1 250 70 view .LVU137
 442              	.LBE38:
 443              	.LBE37:
 255:Drivers/lvgl/src/font/lv_font_fmt_txt.c ****             fdsc->cache->last_letter = letter;
 444              		.loc 1 255 16 view .LVU138
 445 00d0 6A69     		ldr	r2, [r5, #20]
ARM GAS  /var/folders/0z/tsy30v1j4xl4_7kw94k978ww0000gn/T//ccxKMfKW.s 			page 21


 446              	.LVL38:
 447              	.LBB40:
 448              	.LBB39:
 250:Drivers/lvgl/src/font/lv_font_fmt_txt.c ****             }
 449              		.loc 1 250 58 view .LVU139
 450 00d2 0B44     		add	r3, r3, r1
 451              	.LVL39:
 250:Drivers/lvgl/src/font/lv_font_fmt_txt.c ****             }
 452              		.loc 1 250 58 view .LVU140
 453 00d4 B8E7     		b	.L20
 454              	.LVL40:
 455              	.L56:
 250:Drivers/lvgl/src/font/lv_font_fmt_txt.c ****             }
 456              		.loc 1 250 58 view .LVU141
 457              	.LBE39:
 458              	.LBE40:
 459              	.LBE44:
 216:Drivers/lvgl/src/font/lv_font_fmt_txt.c **** 
 460              		.loc 1 216 59 is_stmt 1 view .LVU142
 216:Drivers/lvgl/src/font/lv_font_fmt_txt.c **** 
 461              		.loc 1 216 77 is_stmt 0 view .LVU143
 462 00d6 5368     		ldr	r3, [r2, #4]
 463 00d8 B9E7     		b	.L15
 464              	.LVL41:
 465              	.L58:
 466              	.LBB45:
 467              	.LBB41:
 233:Drivers/lvgl/src/font/lv_font_fmt_txt.c ****             uint16_t * p = _lv_utils_bsearch(&key, fdsc->cmaps[i].unicode_list, fdsc->cmaps[i].list
 468              		.loc 1 233 13 is_stmt 1 view .LVU144
 233:Drivers/lvgl/src/font/lv_font_fmt_txt.c ****             uint16_t * p = _lv_utils_bsearch(&key, fdsc->cmaps[i].unicode_list, fdsc->cmaps[i].list
 469              		.loc 1 233 22 is_stmt 0 view .LVU145
 470 00da ADF80E30 		strh	r3, [sp, #14]	@ movhi
 234:Drivers/lvgl/src/font/lv_font_fmt_txt.c ****                                              sizeof(fdsc->cmaps[i].unicode_list[0]), unicode_list_c
 471              		.loc 1 234 13 is_stmt 1 view .LVU146
 234:Drivers/lvgl/src/font/lv_font_fmt_txt.c ****                                              sizeof(fdsc->cmaps[i].unicode_list[0]), unicode_list_c
 472              		.loc 1 234 28 is_stmt 0 view .LVU147
 473 00de 0C4B     		ldr	r3, .L59
 474              	.LVL42:
 234:Drivers/lvgl/src/font/lv_font_fmt_txt.c ****                                              sizeof(fdsc->cmaps[i].unicode_list[0]), unicode_list_c
 475              		.loc 1 234 28 view .LVU148
 476 00e0 0A8A     		ldrh	r2, [r1, #16]
 477 00e2 8968     		ldr	r1, [r1, #8]
 478 00e4 0093     		str	r3, [sp]
 479              	.LVL43:
 234:Drivers/lvgl/src/font/lv_font_fmt_txt.c ****                                              sizeof(fdsc->cmaps[i].unicode_list[0]), unicode_list_c
 480              		.loc 1 234 28 view .LVU149
 481 00e6 0DF10E00 		add	r0, sp, #14
 482 00ea 0223     		movs	r3, #2
 483 00ec FFF7FEFF 		bl	_lv_utils_bsearch
 484              	.LVL44:
 237:Drivers/lvgl/src/font/lv_font_fmt_txt.c ****                 lv_uintptr_t ofs = p - fdsc->cmaps[i].unicode_list;
 485              		.loc 1 237 13 is_stmt 1 view .LVU150
 237:Drivers/lvgl/src/font/lv_font_fmt_txt.c ****                 lv_uintptr_t ofs = p - fdsc->cmaps[i].unicode_list;
 486              		.loc 1 237 15 is_stmt 0 view .LVU151
 487 00f0 40B1     		cbz	r0, .L53
 488              	.LBB42:
 238:Drivers/lvgl/src/font/lv_font_fmt_txt.c ****                 glyph_id = fdsc->cmaps[i].glyph_id_start + ofs;
ARM GAS  /var/folders/0z/tsy30v1j4xl4_7kw94k978ww0000gn/T//ccxKMfKW.s 			page 22


 489              		.loc 1 238 17 is_stmt 1 view .LVU152
 238:Drivers/lvgl/src/font/lv_font_fmt_txt.c ****                 glyph_id = fdsc->cmaps[i].glyph_id_start + ofs;
 490              		.loc 1 238 51 is_stmt 0 view .LVU153
 491 00f2 AB68     		ldr	r3, [r5, #8]
 492 00f4 3344     		add	r3, r3, r6
 493              	.LVL45:
 239:Drivers/lvgl/src/font/lv_font_fmt_txt.c ****             }
 494              		.loc 1 239 17 is_stmt 1 view .LVU154
 238:Drivers/lvgl/src/font/lv_font_fmt_txt.c ****                 glyph_id = fdsc->cmaps[i].glyph_id_start + ofs;
 495              		.loc 1 238 38 is_stmt 0 view .LVU155
 496 00f6 9A68     		ldr	r2, [r3, #8]
 239:Drivers/lvgl/src/font/lv_font_fmt_txt.c ****             }
 497              		.loc 1 239 42 view .LVU156
 498 00f8 DB88     		ldrh	r3, [r3, #6]
 499              	.LVL46:
 238:Drivers/lvgl/src/font/lv_font_fmt_txt.c ****                 glyph_id = fdsc->cmaps[i].glyph_id_start + ofs;
 500              		.loc 1 238 38 view .LVU157
 501 00fa 801A     		subs	r0, r0, r2
 502              	.LVL47:
 239:Drivers/lvgl/src/font/lv_font_fmt_txt.c ****             }
 503              		.loc 1 239 26 view .LVU158
 504 00fc 03EB6003 		add	r3, r3, r0, asr #1
 505              	.LVL48:
 239:Drivers/lvgl/src/font/lv_font_fmt_txt.c ****             }
 506              		.loc 1 239 26 view .LVU159
 507              	.LBE42:
 508              	.LBE41:
 255:Drivers/lvgl/src/font/lv_font_fmt_txt.c ****             fdsc->cache->last_letter = letter;
 509              		.loc 1 255 16 view .LVU160
 510 0100 6A69     		ldr	r2, [r5, #20]
 511 0102 A1E7     		b	.L20
 512              	.LVL49:
 513              	.L53:
 255:Drivers/lvgl/src/font/lv_font_fmt_txt.c ****             fdsc->cache->last_letter = letter;
 514              		.loc 1 255 9 is_stmt 1 view .LVU161
 255:Drivers/lvgl/src/font/lv_font_fmt_txt.c ****             fdsc->cache->last_letter = letter;
 515              		.loc 1 255 16 is_stmt 0 view .LVU162
 516 0104 6B69     		ldr	r3, [r5, #20]
 255:Drivers/lvgl/src/font/lv_font_fmt_txt.c ****             fdsc->cache->last_letter = letter;
 517              		.loc 1 255 11 view .LVU163
 518 0106 002B     		cmp	r3, #0
 519 0108 B4D0     		beq	.L24
 256:Drivers/lvgl/src/font/lv_font_fmt_txt.c ****             fdsc->cache->last_glyph_id = glyph_id;
 520              		.loc 1 256 13 is_stmt 1 view .LVU164
 257:Drivers/lvgl/src/font/lv_font_fmt_txt.c ****         }
 521              		.loc 1 257 40 is_stmt 0 view .LVU165
 522 010a C3E90040 		strd	r4, r0, [r3]
 523              	.LVL50:
 257:Drivers/lvgl/src/font/lv_font_fmt_txt.c ****         }
 524              		.loc 1 257 40 view .LVU166
 525              	.LBE45:
 526              	.LBE48:
 527              	.LBE51:
 528              	.LBE55:
 529              	.LBE59:
  85:Drivers/lvgl/src/font/lv_font_fmt_txt.c **** 
 530              		.loc 1 85 5 is_stmt 1 view .LVU167
ARM GAS  /var/folders/0z/tsy30v1j4xl4_7kw94k978ww0000gn/T//ccxKMfKW.s 			page 23


 531 010e AAE7     		b	.L9
 532              	.L60:
 533              		.align	2
 534              	.L59:
 535 0110 00000000 		.word	unicode_list_compare
 536              		.cfi_endproc
 537              	.LFE26:
 539              		.section	.text.lv_font_get_glyph_dsc_fmt_txt,"ax",%progbits
 540              		.align	1
 541              		.p2align 2,,3
 542              		.global	lv_font_get_glyph_dsc_fmt_txt
 543              		.syntax unified
 544              		.thumb
 545              		.thumb_func
 547              	lv_font_get_glyph_dsc_fmt_txt:
 548              	.LVL51:
 549              	.LFB27:
 150:Drivers/lvgl/src/font/lv_font_fmt_txt.c ****     /*It fixes a strange compiler optimization issue: https://github.com/lvgl/lvgl/issues/4370*/
 550              		.loc 1 150 1 view -0
 551              		.cfi_startproc
 552              		@ args = 0, pretend = 0, frame = 16
 553              		@ frame_needed = 0, uses_anonymous_args = 0
 152:Drivers/lvgl/src/font/lv_font_fmt_txt.c ****     if(is_tab) {
 554              		.loc 1 152 5 view .LVU169
 150:Drivers/lvgl/src/font/lv_font_fmt_txt.c ****     /*It fixes a strange compiler optimization issue: https://github.com/lvgl/lvgl/issues/4370*/
 555              		.loc 1 150 1 is_stmt 0 view .LVU170
 556 0000 2DE9F04F 		push	{r4, r5, r6, r7, r8, r9, r10, fp, lr}
 557              		.cfi_def_cfa_offset 36
 558              		.cfi_offset 4, -36
 559              		.cfi_offset 5, -32
 560              		.cfi_offset 6, -28
 561              		.cfi_offset 7, -24
 562              		.cfi_offset 8, -20
 563              		.cfi_offset 9, -16
 564              		.cfi_offset 10, -12
 565              		.cfi_offset 11, -8
 566              		.cfi_offset 14, -4
 153:Drivers/lvgl/src/font/lv_font_fmt_txt.c ****         unicode_letter = ' ';
 567              		.loc 1 153 7 view .LVU171
 568 0004 092A     		cmp	r2, #9
 156:Drivers/lvgl/src/font/lv_font_fmt_txt.c ****     uint32_t gid = get_glyph_dsc_id(font, unicode_letter);
 569              		.loc 1 156 29 view .LVU172
 570 0006 0669     		ldr	r6, [r0, #16]
 150:Drivers/lvgl/src/font/lv_font_fmt_txt.c ****     /*It fixes a strange compiler optimization issue: https://github.com/lvgl/lvgl/issues/4370*/
 571              		.loc 1 150 1 view .LVU173
 572 0008 87B0     		sub	sp, sp, #28
 573              		.cfi_def_cfa_offset 64
 150:Drivers/lvgl/src/font/lv_font_fmt_txt.c ****     /*It fixes a strange compiler optimization issue: https://github.com/lvgl/lvgl/issues/4370*/
 574              		.loc 1 150 1 view .LVU174
 575 000a 1546     		mov	r5, r2
 576              	.LVL52:
 153:Drivers/lvgl/src/font/lv_font_fmt_txt.c ****         unicode_letter = ' ';
 577              		.loc 1 153 5 is_stmt 1 view .LVU175
 150:Drivers/lvgl/src/font/lv_font_fmt_txt.c ****     /*It fixes a strange compiler optimization issue: https://github.com/lvgl/lvgl/issues/4370*/
 578              		.loc 1 150 1 is_stmt 0 view .LVU176
 579 000c 0746     		mov	r7, r0
 580 000e 0C46     		mov	r4, r1
ARM GAS  /var/folders/0z/tsy30v1j4xl4_7kw94k978ww0000gn/T//ccxKMfKW.s 			page 24


 581 0010 9846     		mov	r8, r3
 153:Drivers/lvgl/src/font/lv_font_fmt_txt.c ****         unicode_letter = ' ';
 582              		.loc 1 153 7 view .LVU177
 583 0012 00F0CA80 		beq	.L168
 156:Drivers/lvgl/src/font/lv_font_fmt_txt.c ****     uint32_t gid = get_glyph_dsc_id(font, unicode_letter);
 584              		.loc 1 156 5 is_stmt 1 view .LVU178
 585              	.LVL53:
 157:Drivers/lvgl/src/font/lv_font_fmt_txt.c ****     if(!gid) return false;
 586              		.loc 1 157 5 view .LVU179
 587              	.LBB95:
 588              	.LBI95:
 209:Drivers/lvgl/src/font/lv_font_fmt_txt.c **** {
 589              		.loc 1 209 17 view .LVU180
 590              	.LBB96:
 211:Drivers/lvgl/src/font/lv_font_fmt_txt.c **** 
 591              		.loc 1 211 5 view .LVU181
 211:Drivers/lvgl/src/font/lv_font_fmt_txt.c **** 
 592              		.loc 1 211 7 is_stmt 0 view .LVU182
 593 0016 002A     		cmp	r2, #0
 594 0018 00F08E80 		beq	.L76
 595 001c 9246     		mov	r10, r2
 596              	.LVL54:
 597              	.L63:
 598              	.LBB97:
 599              	.LBI97:
 209:Drivers/lvgl/src/font/lv_font_fmt_txt.c **** {
 600              		.loc 1 209 17 is_stmt 1 view .LVU183
 601              	.LBB98:
 213:Drivers/lvgl/src/font/lv_font_fmt_txt.c **** 
 602              		.loc 1 213 5 view .LVU184
 216:Drivers/lvgl/src/font/lv_font_fmt_txt.c **** 
 603              		.loc 1 216 5 view .LVU185
 216:Drivers/lvgl/src/font/lv_font_fmt_txt.c **** 
 604              		.loc 1 216 12 is_stmt 0 view .LVU186
 605 001e 7369     		ldr	r3, [r6, #20]
 606              	.LVL55:
 216:Drivers/lvgl/src/font/lv_font_fmt_txt.c **** 
 607              		.loc 1 216 7 view .LVU187
 608 0020 002B     		cmp	r3, #0
 609 0022 00F08480 		beq	.L65
 216:Drivers/lvgl/src/font/lv_font_fmt_txt.c **** 
 610              		.loc 1 216 20 view .LVU188
 611 0026 1A68     		ldr	r2, [r3]
 612              	.LVL56:
 216:Drivers/lvgl/src/font/lv_font_fmt_txt.c **** 
 613              		.loc 1 216 20 view .LVU189
 614 0028 9245     		cmp	r10, r2
 615 002a 00F0F480 		beq	.L169
 616              	.LVL57:
 219:Drivers/lvgl/src/font/lv_font_fmt_txt.c **** 
 617              		.loc 1 219 18 is_stmt 1 view .LVU190
 219:Drivers/lvgl/src/font/lv_font_fmt_txt.c **** 
 618              		.loc 1 219 24 is_stmt 0 view .LVU191
 619 002e 728A     		ldrh	r2, [r6, #18]
 219:Drivers/lvgl/src/font/lv_font_fmt_txt.c **** 
 620              		.loc 1 219 18 view .LVU192
 621 0030 C2F30802 		ubfx	r2, r2, #0, #9
ARM GAS  /var/folders/0z/tsy30v1j4xl4_7kw94k978ww0000gn/T//ccxKMfKW.s 			page 25


 622 0034 002A     		cmp	r2, #0
 623 0036 00F0C880 		beq	.L103
 624              	.L102:
 625              	.LBB99:
 222:Drivers/lvgl/src/font/lv_font_fmt_txt.c ****         if(rcp > fdsc->cmaps[i].range_length) continue;
 626              		.loc 1 222 37 view .LVU193
 627 003a D6F808C0 		ldr	ip, [r6, #8]
 628 003e 4FF00009 		mov	r9, #0
 629 0042 6146     		mov	r1, ip
 630              	.LVL58:
 222:Drivers/lvgl/src/font/lv_font_fmt_txt.c ****         if(rcp > fdsc->cmaps[i].range_length) continue;
 631              		.loc 1 222 37 view .LVU194
 632 0044 CE46     		mov	lr, r9
 633              	.LVL59:
 634              	.L69:
 222:Drivers/lvgl/src/font/lv_font_fmt_txt.c ****         if(rcp > fdsc->cmaps[i].range_length) continue;
 635              		.loc 1 222 9 is_stmt 1 view .LVU195
 222:Drivers/lvgl/src/font/lv_font_fmt_txt.c ****         if(rcp > fdsc->cmaps[i].range_length) continue;
 636              		.loc 1 222 18 is_stmt 0 view .LVU196
 637 0046 5CF80900 		ldr	r0, [ip, r9]
 223:Drivers/lvgl/src/font/lv_font_fmt_txt.c ****         uint32_t glyph_id = 0;
 638              		.loc 1 223 32 view .LVU197
 639 004a B1F804B0 		ldrh	fp, [r1, #4]
 222:Drivers/lvgl/src/font/lv_font_fmt_txt.c ****         if(rcp > fdsc->cmaps[i].range_length) continue;
 640              		.loc 1 222 18 view .LVU198
 641 004e AAEB0000 		sub	r0, r10, r0
 642              	.LVL60:
 223:Drivers/lvgl/src/font/lv_font_fmt_txt.c ****         uint32_t glyph_id = 0;
 643              		.loc 1 223 9 is_stmt 1 view .LVU199
 223:Drivers/lvgl/src/font/lv_font_fmt_txt.c ****         uint32_t glyph_id = 0;
 644              		.loc 1 223 11 is_stmt 0 view .LVU200
 645 0052 5845     		cmp	r0, fp
 646 0054 00F2AC80 		bhi	.L170
 224:Drivers/lvgl/src/font/lv_font_fmt_txt.c ****         if(fdsc->cmaps[i].type == LV_FONT_FMT_TXT_CMAP_FORMAT0_TINY) {
 647              		.loc 1 224 9 is_stmt 1 view .LVU201
 648              	.LVL61:
 225:Drivers/lvgl/src/font/lv_font_fmt_txt.c ****             glyph_id = fdsc->cmaps[i].glyph_id_start + rcp;
 649              		.loc 1 225 9 view .LVU202
 225:Drivers/lvgl/src/font/lv_font_fmt_txt.c ****             glyph_id = fdsc->cmaps[i].glyph_id_start + rcp;
 650              		.loc 1 225 26 is_stmt 0 view .LVU203
 651 0058 8A7C     		ldrb	r2, [r1, #18]	@ zero_extendqisi2
 225:Drivers/lvgl/src/font/lv_font_fmt_txt.c ****             glyph_id = fdsc->cmaps[i].glyph_id_start + rcp;
 652              		.loc 1 225 11 view .LVU204
 653 005a 022A     		cmp	r2, #2
 654 005c 00F0BB80 		beq	.L171
 228:Drivers/lvgl/src/font/lv_font_fmt_txt.c ****             const uint8_t * gid_ofs_8 = fdsc->cmaps[i].glyph_id_ofs_list;
 655              		.loc 1 228 14 is_stmt 1 view .LVU205
 228:Drivers/lvgl/src/font/lv_font_fmt_txt.c ****             const uint8_t * gid_ofs_8 = fdsc->cmaps[i].glyph_id_ofs_list;
 656              		.loc 1 228 16 is_stmt 0 view .LVU206
 657 0060 002A     		cmp	r2, #0
 658 0062 40F0BC80 		bne	.L73
 659              	.LBB100:
 229:Drivers/lvgl/src/font/lv_font_fmt_txt.c ****             glyph_id = fdsc->cmaps[i].glyph_id_start + gid_ofs_8[rcp];
 660              		.loc 1 229 13 is_stmt 1 view .LVU207
 661              	.LVL62:
 230:Drivers/lvgl/src/font/lv_font_fmt_txt.c ****         }
 662              		.loc 1 230 13 view .LVU208
ARM GAS  /var/folders/0z/tsy30v1j4xl4_7kw94k978ww0000gn/T//ccxKMfKW.s 			page 26


 230:Drivers/lvgl/src/font/lv_font_fmt_txt.c ****         }
 663              		.loc 1 230 65 is_stmt 0 view .LVU209
 664 0066 CA68     		ldr	r2, [r1, #12]
 665 0068 12F80090 		ldrb	r9, [r2, r0]	@ zero_extendqisi2
 230:Drivers/lvgl/src/font/lv_font_fmt_txt.c ****         }
 666              		.loc 1 230 38 view .LVU210
 667 006c CA88     		ldrh	r2, [r1, #6]
 230:Drivers/lvgl/src/font/lv_font_fmt_txt.c ****         }
 668              		.loc 1 230 54 view .LVU211
 669 006e 9144     		add	r9, r9, r2
 670              	.LVL63:
 671              	.L72:
 230:Drivers/lvgl/src/font/lv_font_fmt_txt.c ****         }
 672              		.loc 1 230 54 view .LVU212
 673              	.LBE100:
 255:Drivers/lvgl/src/font/lv_font_fmt_txt.c ****             fdsc->cache->last_letter = letter;
 674              		.loc 1 255 9 is_stmt 1 view .LVU213
 255:Drivers/lvgl/src/font/lv_font_fmt_txt.c ****             fdsc->cache->last_letter = letter;
 675              		.loc 1 255 11 is_stmt 0 view .LVU214
 676 0070 0BB1     		cbz	r3, .L67
 256:Drivers/lvgl/src/font/lv_font_fmt_txt.c ****             fdsc->cache->last_glyph_id = glyph_id;
 677              		.loc 1 256 13 is_stmt 1 view .LVU215
 257:Drivers/lvgl/src/font/lv_font_fmt_txt.c ****         }
 678              		.loc 1 257 40 is_stmt 0 view .LVU216
 679 0072 C3E900A9 		strd	r10, r9, [r3]
 680              	.LVL64:
 681              	.L67:
 257:Drivers/lvgl/src/font/lv_font_fmt_txt.c ****         }
 682              		.loc 1 257 40 view .LVU217
 683              	.LBE99:
 684              	.LBE98:
 685              	.LBE97:
 686              	.LBE96:
 687              	.LBE95:
 158:Drivers/lvgl/src/font/lv_font_fmt_txt.c **** 
 688              		.loc 1 158 5 is_stmt 1 view .LVU218
 158:Drivers/lvgl/src/font/lv_font_fmt_txt.c **** 
 689              		.loc 1 158 7 is_stmt 0 view .LVU219
 690 0076 B9F1000F 		cmp	r9, #0
 691 007a 5DD0     		beq	.L76
 160:Drivers/lvgl/src/font/lv_font_fmt_txt.c ****     if(fdsc->kern_dsc) {
 692              		.loc 1 160 5 is_stmt 1 view .LVU220
 693              	.LVL65:
 161:Drivers/lvgl/src/font/lv_font_fmt_txt.c ****         uint32_t gid_next = get_glyph_dsc_id(font, unicode_letter_next);
 694              		.loc 1 161 5 view .LVU221
 161:Drivers/lvgl/src/font/lv_font_fmt_txt.c ****         uint32_t gid_next = get_glyph_dsc_id(font, unicode_letter_next);
 695              		.loc 1 161 7 is_stmt 0 view .LVU222
 696 007c F368     		ldr	r3, [r6, #12]
 697 007e 002B     		cmp	r3, #0
 698 0080 64D0     		beq	.L81
 699              	.LBB129:
 162:Drivers/lvgl/src/font/lv_font_fmt_txt.c ****         if(gid_next) {
 700              		.loc 1 162 9 is_stmt 1 view .LVU223
 701              	.LVL66:
 702              	.LBB130:
 703              	.LBI130:
 209:Drivers/lvgl/src/font/lv_font_fmt_txt.c **** {
ARM GAS  /var/folders/0z/tsy30v1j4xl4_7kw94k978ww0000gn/T//ccxKMfKW.s 			page 27


 704              		.loc 1 209 17 view .LVU224
 705              	.LBB131:
 211:Drivers/lvgl/src/font/lv_font_fmt_txt.c **** 
 706              		.loc 1 211 5 view .LVU225
 211:Drivers/lvgl/src/font/lv_font_fmt_txt.c **** 
 707              		.loc 1 211 7 is_stmt 0 view .LVU226
 708 0082 B8F1000F 		cmp	r8, #0
 709 0086 61D0     		beq	.L81
 710 0088 D7F810A0 		ldr	r10, [r7, #16]
 711              	.LVL67:
 712              	.LBB132:
 713              	.LBI132:
 209:Drivers/lvgl/src/font/lv_font_fmt_txt.c **** {
 714              		.loc 1 209 17 is_stmt 1 view .LVU227
 715              	.LBB133:
 213:Drivers/lvgl/src/font/lv_font_fmt_txt.c **** 
 716              		.loc 1 213 5 view .LVU228
 216:Drivers/lvgl/src/font/lv_font_fmt_txt.c **** 
 717              		.loc 1 216 5 view .LVU229
 216:Drivers/lvgl/src/font/lv_font_fmt_txt.c **** 
 718              		.loc 1 216 12 is_stmt 0 view .LVU230
 719 008c DAF81420 		ldr	r2, [r10, #20]
 216:Drivers/lvgl/src/font/lv_font_fmt_txt.c **** 
 720              		.loc 1 216 7 view .LVU231
 721 0090 002A     		cmp	r2, #0
 722 0092 55D0     		beq	.L82
 216:Drivers/lvgl/src/font/lv_font_fmt_txt.c **** 
 723              		.loc 1 216 20 view .LVU232
 724 0094 1368     		ldr	r3, [r2]
 725 0096 9845     		cmp	r8, r3
 726 0098 00F03381 		beq	.L172
 727              	.LVL68:
 219:Drivers/lvgl/src/font/lv_font_fmt_txt.c **** 
 728              		.loc 1 219 18 is_stmt 1 view .LVU233
 219:Drivers/lvgl/src/font/lv_font_fmt_txt.c **** 
 729              		.loc 1 219 24 is_stmt 0 view .LVU234
 730 009c BAF81200 		ldrh	r0, [r10, #18]
 219:Drivers/lvgl/src/font/lv_font_fmt_txt.c **** 
 731              		.loc 1 219 18 view .LVU235
 732 00a0 C0F30800 		ubfx	r0, r0, #0, #9
 733 00a4 0028     		cmp	r0, #0
 734 00a6 00F0C680 		beq	.L101
 735              	.L100:
 736              	.LBB134:
 222:Drivers/lvgl/src/font/lv_font_fmt_txt.c ****         if(rcp > fdsc->cmaps[i].range_length) continue;
 737              		.loc 1 222 37 view .LVU236
 738 00aa DAF808C0 		ldr	ip, [r10, #8]
 739 00ae 4FF0000B 		mov	fp, #0
 740 00b2 6146     		mov	r1, ip
 741 00b4 CDF80CB0 		str	fp, [sp, #12]
 742              	.LVL69:
 743              	.L86:
 222:Drivers/lvgl/src/font/lv_font_fmt_txt.c ****         if(rcp > fdsc->cmaps[i].range_length) continue;
 744              		.loc 1 222 9 is_stmt 1 view .LVU237
 222:Drivers/lvgl/src/font/lv_font_fmt_txt.c ****         if(rcp > fdsc->cmaps[i].range_length) continue;
 745              		.loc 1 222 18 is_stmt 0 view .LVU238
 746 00b8 5CF80B30 		ldr	r3, [ip, fp]
ARM GAS  /var/folders/0z/tsy30v1j4xl4_7kw94k978ww0000gn/T//ccxKMfKW.s 			page 28


 223:Drivers/lvgl/src/font/lv_font_fmt_txt.c ****         uint32_t glyph_id = 0;
 747              		.loc 1 223 32 view .LVU239
 748 00bc B1F804E0 		ldrh	lr, [r1, #4]
 222:Drivers/lvgl/src/font/lv_font_fmt_txt.c ****         if(rcp > fdsc->cmaps[i].range_length) continue;
 749              		.loc 1 222 18 view .LVU240
 750 00c0 A8EB0303 		sub	r3, r8, r3
 751              	.LVL70:
 223:Drivers/lvgl/src/font/lv_font_fmt_txt.c ****         uint32_t glyph_id = 0;
 752              		.loc 1 223 9 is_stmt 1 view .LVU241
 223:Drivers/lvgl/src/font/lv_font_fmt_txt.c ****         uint32_t glyph_id = 0;
 753              		.loc 1 223 11 is_stmt 0 view .LVU242
 754 00c4 7345     		cmp	r3, lr
 755 00c6 00F2A980 		bhi	.L173
 224:Drivers/lvgl/src/font/lv_font_fmt_txt.c ****         if(fdsc->cmaps[i].type == LV_FONT_FMT_TXT_CMAP_FORMAT0_TINY) {
 756              		.loc 1 224 9 is_stmt 1 view .LVU243
 757              	.LVL71:
 225:Drivers/lvgl/src/font/lv_font_fmt_txt.c ****             glyph_id = fdsc->cmaps[i].glyph_id_start + rcp;
 758              		.loc 1 225 9 view .LVU244
 225:Drivers/lvgl/src/font/lv_font_fmt_txt.c ****             glyph_id = fdsc->cmaps[i].glyph_id_start + rcp;
 759              		.loc 1 225 26 is_stmt 0 view .LVU245
 760 00ca 887C     		ldrb	r0, [r1, #18]	@ zero_extendqisi2
 225:Drivers/lvgl/src/font/lv_font_fmt_txt.c ****             glyph_id = fdsc->cmaps[i].glyph_id_start + rcp;
 761              		.loc 1 225 11 view .LVU246
 762 00cc 0228     		cmp	r0, #2
 763 00ce 04D0     		beq	.L159
 228:Drivers/lvgl/src/font/lv_font_fmt_txt.c ****             const uint8_t * gid_ofs_8 = fdsc->cmaps[i].glyph_id_ofs_list;
 764              		.loc 1 228 14 is_stmt 1 view .LVU247
 228:Drivers/lvgl/src/font/lv_font_fmt_txt.c ****             const uint8_t * gid_ofs_8 = fdsc->cmaps[i].glyph_id_ofs_list;
 765              		.loc 1 228 16 is_stmt 0 view .LVU248
 766 00d0 0028     		cmp	r0, #0
 767 00d2 40F0B580 		bne	.L90
 768              	.LBB135:
 229:Drivers/lvgl/src/font/lv_font_fmt_txt.c ****             glyph_id = fdsc->cmaps[i].glyph_id_start + gid_ofs_8[rcp];
 769              		.loc 1 229 13 is_stmt 1 view .LVU249
 770              	.LVL72:
 230:Drivers/lvgl/src/font/lv_font_fmt_txt.c ****         }
 771              		.loc 1 230 13 view .LVU250
 230:Drivers/lvgl/src/font/lv_font_fmt_txt.c ****         }
 772              		.loc 1 230 65 is_stmt 0 view .LVU251
 773 00d6 C868     		ldr	r0, [r1, #12]
 774 00d8 C35C     		ldrb	r3, [r0, r3]	@ zero_extendqisi2
 775              	.LVL73:
 776              	.L159:
 230:Drivers/lvgl/src/font/lv_font_fmt_txt.c ****         }
 777              		.loc 1 230 38 view .LVU252
 778 00da C988     		ldrh	r1, [r1, #6]
 230:Drivers/lvgl/src/font/lv_font_fmt_txt.c ****         }
 779              		.loc 1 230 54 view .LVU253
 780 00dc 0B44     		add	r3, r3, r1
 781              	.LVL74:
 782              	.L89:
 230:Drivers/lvgl/src/font/lv_font_fmt_txt.c ****         }
 783              		.loc 1 230 54 view .LVU254
 784              	.LBE135:
 255:Drivers/lvgl/src/font/lv_font_fmt_txt.c ****             fdsc->cache->last_letter = letter;
 785              		.loc 1 255 9 is_stmt 1 view .LVU255
 255:Drivers/lvgl/src/font/lv_font_fmt_txt.c ****             fdsc->cache->last_letter = letter;
ARM GAS  /var/folders/0z/tsy30v1j4xl4_7kw94k978ww0000gn/T//ccxKMfKW.s 			page 29


 786              		.loc 1 255 11 is_stmt 0 view .LVU256
 787 00de 0AB1     		cbz	r2, .L84
 256:Drivers/lvgl/src/font/lv_font_fmt_txt.c ****             fdsc->cache->last_glyph_id = glyph_id;
 788              		.loc 1 256 13 is_stmt 1 view .LVU257
 257:Drivers/lvgl/src/font/lv_font_fmt_txt.c ****         }
 789              		.loc 1 257 40 is_stmt 0 view .LVU258
 790 00e0 C2E90083 		strd	r8, r3, [r2]
 791              	.LVL75:
 792              	.L84:
 257:Drivers/lvgl/src/font/lv_font_fmt_txt.c ****         }
 793              		.loc 1 257 40 view .LVU259
 794              	.LBE134:
 795              	.LBE133:
 796              	.LBE132:
 797              	.LBE131:
 798              	.LBE130:
 163:Drivers/lvgl/src/font/lv_font_fmt_txt.c ****             kvalue = get_kern_value(font, gid, gid_next);
 799              		.loc 1 163 9 is_stmt 1 view .LVU260
 163:Drivers/lvgl/src/font/lv_font_fmt_txt.c ****             kvalue = get_kern_value(font, gid, gid_next);
 800              		.loc 1 163 11 is_stmt 0 view .LVU261
 801 00e4 002B     		cmp	r3, #0
 802 00e6 31D0     		beq	.L81
 164:Drivers/lvgl/src/font/lv_font_fmt_txt.c ****         }
 803              		.loc 1 164 13 is_stmt 1 view .LVU262
 804 00e8 3A69     		ldr	r2, [r7, #16]
 805              	.LVL76:
 806              	.LBB167:
 807              	.LBI167:
 270:Drivers/lvgl/src/font/lv_font_fmt_txt.c **** {
 808              		.loc 1 270 15 view .LVU263
 809              	.LBB168:
 272:Drivers/lvgl/src/font/lv_font_fmt_txt.c **** 
 810              		.loc 1 272 5 view .LVU264
 274:Drivers/lvgl/src/font/lv_font_fmt_txt.c **** 
 811              		.loc 1 274 5 view .LVU265
 276:Drivers/lvgl/src/font/lv_font_fmt_txt.c ****         /*Kern pairs*/
 812              		.loc 1 276 5 view .LVU266
 276:Drivers/lvgl/src/font/lv_font_fmt_txt.c ****         /*Kern pairs*/
 813              		.loc 1 276 27 is_stmt 0 view .LVU267
 814 00ea D17C     		ldrb	r1, [r2, #19]	@ zero_extendqisi2
 276:Drivers/lvgl/src/font/lv_font_fmt_txt.c ****         /*Kern pairs*/
 815              		.loc 1 276 7 view .LVU268
 816 00ec 8906     		lsls	r1, r1, #26
 817 00ee 00F1DD80 		bmi	.L95
 818              	.LBB169:
 278:Drivers/lvgl/src/font/lv_font_fmt_txt.c ****         if(kdsc->glyph_ids_size == 0) {
 819              		.loc 1 278 9 is_stmt 1 view .LVU269
 278:Drivers/lvgl/src/font/lv_font_fmt_txt.c ****         if(kdsc->glyph_ids_size == 0) {
 820              		.loc 1 278 45 is_stmt 0 view .LVU270
 821 00f2 D768     		ldr	r7, [r2, #12]
 822              	.LVL77:
 279:Drivers/lvgl/src/font/lv_font_fmt_txt.c ****             /*Use binary search to find the kern value.
 823              		.loc 1 279 9 is_stmt 1 view .LVU271
 279:Drivers/lvgl/src/font/lv_font_fmt_txt.c ****             /*Use binary search to find the kern value.
 824              		.loc 1 279 33 is_stmt 0 view .LVU272
 825 00f4 FA7A     		ldrb	r2, [r7, #11]	@ zero_extendqisi2
 826              	.LVL78:
ARM GAS  /var/folders/0z/tsy30v1j4xl4_7kw94k978ww0000gn/T//ccxKMfKW.s 			page 30


 279:Drivers/lvgl/src/font/lv_font_fmt_txt.c ****             /*Use binary search to find the kern value.
 827              		.loc 1 279 11 view .LVU273
 828 00f6 12F0C002 		ands	r2, r2, #192
 829 00fa 00F00981 		beq	.L174
 292:Drivers/lvgl/src/font/lv_font_fmt_txt.c ****             /*Use binary search to find the kern value.
 830              		.loc 1 292 14 is_stmt 1 view .LVU274
 292:Drivers/lvgl/src/font/lv_font_fmt_txt.c ****             /*Use binary search to find the kern value.
 831              		.loc 1 292 16 is_stmt 0 view .LVU275
 832 00fe 402A     		cmp	r2, #64
 833 0100 24D1     		bne	.L81
 834              	.LBB170:
 295:Drivers/lvgl/src/font/lv_font_fmt_txt.c ****             uint32_t g_id_both = (gid_right << 16) + gid_left; /*Create one number from the ids*/
 835              		.loc 1 295 13 is_stmt 1 view .LVU276
 295:Drivers/lvgl/src/font/lv_font_fmt_txt.c ****             uint32_t g_id_both = (gid_right << 16) + gid_left; /*Create one number from the ids*/
 836              		.loc 1 295 30 is_stmt 0 view .LVU277
 837 0102 D7F80080 		ldr	r8, [r7]
 838              	.LVL79:
 296:Drivers/lvgl/src/font/lv_font_fmt_txt.c ****             uint32_t * kid_p = _lv_utils_bsearch(&g_id_both, g_ids, kdsc->pair_cnt, 4, kern_pair_16
 839              		.loc 1 296 13 is_stmt 1 view .LVU278
 297:Drivers/lvgl/src/font/lv_font_fmt_txt.c **** 
 840              		.loc 1 297 73 is_stmt 0 view .LVU279
 841 0106 BA68     		ldr	r2, [r7, #8]
 296:Drivers/lvgl/src/font/lv_font_fmt_txt.c ****             uint32_t * kid_p = _lv_utils_bsearch(&g_id_both, g_ids, kdsc->pair_cnt, 4, kern_pair_16
 842              		.loc 1 296 52 view .LVU280
 843 0108 09EB0343 		add	r3, r9, r3, lsl #16
 844              	.LVL80:
 296:Drivers/lvgl/src/font/lv_font_fmt_txt.c ****             uint32_t * kid_p = _lv_utils_bsearch(&g_id_both, g_ids, kdsc->pair_cnt, 4, kern_pair_16
 845              		.loc 1 296 22 view .LVU281
 846 010c 0593     		str	r3, [sp, #20]
 297:Drivers/lvgl/src/font/lv_font_fmt_txt.c **** 
 847              		.loc 1 297 13 is_stmt 1 view .LVU282
 297:Drivers/lvgl/src/font/lv_font_fmt_txt.c **** 
 848              		.loc 1 297 32 is_stmt 0 view .LVU283
 849 010e 914B     		ldr	r3, .L177
 850 0110 0093     		str	r3, [sp]
 851              	.LVL81:
 297:Drivers/lvgl/src/font/lv_font_fmt_txt.c **** 
 852              		.loc 1 297 32 view .LVU284
 853 0112 22F04042 		bic	r2, r2, #-1073741824
 854 0116 0423     		movs	r3, #4
 855 0118 4146     		mov	r1, r8
 856 011a 05A8     		add	r0, sp, #20
 857 011c FFF7FEFF 		bl	_lv_utils_bsearch
 858              	.LVL82:
 300:Drivers/lvgl/src/font/lv_font_fmt_txt.c ****                 lv_uintptr_t ofs = kid_p - g_ids;
 859              		.loc 1 300 13 is_stmt 1 view .LVU285
 300:Drivers/lvgl/src/font/lv_font_fmt_txt.c ****                 lv_uintptr_t ofs = kid_p - g_ids;
 860              		.loc 1 300 15 is_stmt 0 view .LVU286
 861 0120 A0B1     		cbz	r0, .L81
 862              	.LBB171:
 301:Drivers/lvgl/src/font/lv_font_fmt_txt.c ****                 value = kdsc->values[ofs];
 863              		.loc 1 301 17 is_stmt 1 view .LVU287
 864              	.LVL83:
 302:Drivers/lvgl/src/font/lv_font_fmt_txt.c ****             }
 865              		.loc 1 302 17 view .LVU288
 301:Drivers/lvgl/src/font/lv_font_fmt_txt.c ****                 value = kdsc->values[ofs];
 866              		.loc 1 301 42 is_stmt 0 view .LVU289
ARM GAS  /var/folders/0z/tsy30v1j4xl4_7kw94k978ww0000gn/T//ccxKMfKW.s 			page 31


 867 0122 A0EB0803 		sub	r3, r0, r8
 302:Drivers/lvgl/src/font/lv_font_fmt_txt.c ****             }
 868              		.loc 1 302 23 view .LVU290
 869 0126 7A68     		ldr	r2, [r7, #4]
 301:Drivers/lvgl/src/font/lv_font_fmt_txt.c ****                 value = kdsc->values[ofs];
 870              		.loc 1 301 42 view .LVU291
 871 0128 9B10     		asrs	r3, r3, #2
 872              	.LBE171:
 873              	.LBE170:
 874              	.LBE169:
 875              	.LBE168:
 876              	.LBE167:
 877              	.LBE129:
 171:Drivers/lvgl/src/font/lv_font_fmt_txt.c **** 
 878              		.loc 1 171 29 view .LVU292
 879 012a D156     		ldrsb	r1, [r2, r3]
 880 012c 0FE0     		b	.L80
 881              	.LVL84:
 882              	.L65:
 883              	.LBB190:
 884              	.LBB123:
 885              	.LBB118:
 886              	.LBB113:
 219:Drivers/lvgl/src/font/lv_font_fmt_txt.c **** 
 887              		.loc 1 219 18 is_stmt 1 view .LVU293
 219:Drivers/lvgl/src/font/lv_font_fmt_txt.c **** 
 888              		.loc 1 219 24 is_stmt 0 view .LVU294
 889 012e 728A     		ldrh	r2, [r6, #18]
 890              	.LVL85:
 219:Drivers/lvgl/src/font/lv_font_fmt_txt.c **** 
 891              		.loc 1 219 18 view .LVU295
 892 0130 C2F30802 		ubfx	r2, r2, #0, #9
 893 0134 002A     		cmp	r2, #0
 894 0136 80D1     		bne	.L102
 895              	.LVL86:
 896              	.L76:
 219:Drivers/lvgl/src/font/lv_font_fmt_txt.c **** 
 897              		.loc 1 219 18 view .LVU296
 898              	.LBE113:
 899              	.LBE118:
 900              	.LBE123:
 901              	.LBE190:
 158:Drivers/lvgl/src/font/lv_font_fmt_txt.c **** 
 902              		.loc 1 158 21 view .LVU297
 903 0138 0020     		movs	r0, #0
 190:Drivers/lvgl/src/font/lv_font_fmt_txt.c **** 
 904              		.loc 1 190 1 view .LVU298
 905 013a 07B0     		add	sp, sp, #28
 906              		.cfi_remember_state
 907              		.cfi_def_cfa_offset 36
 908              		@ sp needed
 909 013c BDE8F08F 		pop	{r4, r5, r6, r7, r8, r9, r10, fp, pc}
 910              	.LVL87:
 911              	.L82:
 912              		.cfi_restore_state
 913              	.LBB191:
 914              	.LBB181:
ARM GAS  /var/folders/0z/tsy30v1j4xl4_7kw94k978ww0000gn/T//ccxKMfKW.s 			page 32


 915              	.LBB161:
 916              	.LBB155:
 917              	.LBB149:
 219:Drivers/lvgl/src/font/lv_font_fmt_txt.c **** 
 918              		.loc 1 219 18 is_stmt 1 view .LVU299
 219:Drivers/lvgl/src/font/lv_font_fmt_txt.c **** 
 919              		.loc 1 219 24 is_stmt 0 view .LVU300
 920 0140 BAF81200 		ldrh	r0, [r10, #18]
 219:Drivers/lvgl/src/font/lv_font_fmt_txt.c **** 
 921              		.loc 1 219 18 view .LVU301
 922 0144 C0F30800 		ubfx	r0, r0, #0, #9
 923 0148 0028     		cmp	r0, #0
 924 014a AED1     		bne	.L100
 925              	.LVL88:
 926              	.L81:
 219:Drivers/lvgl/src/font/lv_font_fmt_txt.c **** 
 927              		.loc 1 219 18 view .LVU302
 928              	.LBE149:
 929              	.LBE155:
 930              	.LBE161:
 931              	.LBE181:
 932              	.LBB182:
 933              	.LBB178:
 934              	.LBB175:
 935              	.LBB172:
 936 014c 0021     		movs	r1, #0
 937              	.L80:
 938              	.LVL89:
 219:Drivers/lvgl/src/font/lv_font_fmt_txt.c **** 
 939              		.loc 1 219 18 view .LVU303
 940              	.LBE172:
 941              	.LBE175:
 942              	.LBE178:
 943              	.LBE182:
 944              	.LBE191:
 169:Drivers/lvgl/src/font/lv_font_fmt_txt.c **** 
 945              		.loc 1 169 5 is_stmt 1 view .LVU304
 169:Drivers/lvgl/src/font/lv_font_fmt_txt.c **** 
 946              		.loc 1 169 41 is_stmt 0 view .LVU305
 947 014e 7268     		ldr	r2, [r6, #4]
 171:Drivers/lvgl/src/font/lv_font_fmt_txt.c **** 
 948              		.loc 1 171 51 view .LVU306
 949 0150 338A     		ldrh	r3, [r6, #16]
 169:Drivers/lvgl/src/font/lv_font_fmt_txt.c **** 
 950              		.loc 1 169 41 view .LVU307
 951 0152 02EBC902 		add	r2, r2, r9, lsl #3
 952              	.LVL90:
 171:Drivers/lvgl/src/font/lv_font_fmt_txt.c **** 
 953              		.loc 1 171 5 is_stmt 1 view .LVU308
 171:Drivers/lvgl/src/font/lv_font_fmt_txt.c **** 
 954              		.loc 1 171 19 is_stmt 0 view .LVU309
 955 0156 01FB03F3 		mul	r3, r1, r3
 173:Drivers/lvgl/src/font/lv_font_fmt_txt.c ****     if(is_tab) adv_w *= 2;
 956              		.loc 1 173 26 view .LVU310
 957 015a 5188     		ldrh	r1, [r2, #2]
 174:Drivers/lvgl/src/font/lv_font_fmt_txt.c **** 
 958              		.loc 1 174 7 view .LVU311
ARM GAS  /var/folders/0z/tsy30v1j4xl4_7kw94k978ww0000gn/T//ccxKMfKW.s 			page 33


 959 015c 092D     		cmp	r5, #9
 173:Drivers/lvgl/src/font/lv_font_fmt_txt.c ****     if(is_tab) adv_w *= 2;
 960              		.loc 1 173 26 view .LVU312
 961 015e C1F30B10 		ubfx	r0, r1, #4, #12
 962 0162 0146     		mov	r1, r0
 171:Drivers/lvgl/src/font/lv_font_fmt_txt.c **** 
 963              		.loc 1 171 13 view .LVU313
 964 0164 4FEA2313 		asr	r3, r3, #4
 965              	.LVL91:
 173:Drivers/lvgl/src/font/lv_font_fmt_txt.c ****     if(is_tab) adv_w *= 2;
 966              		.loc 1 173 5 is_stmt 1 view .LVU314
 174:Drivers/lvgl/src/font/lv_font_fmt_txt.c **** 
 967              		.loc 1 174 5 view .LVU315
 174:Drivers/lvgl/src/font/lv_font_fmt_txt.c **** 
 968              		.loc 1 174 16 view .LVU316
 174:Drivers/lvgl/src/font/lv_font_fmt_txt.c **** 
 969              		.loc 1 174 22 is_stmt 0 view .LVU317
 970 0168 04BF     		itt	eq
 971 016a 00B2     		sxtheq	r0, r0
 972              	.LVL92:
 174:Drivers/lvgl/src/font/lv_font_fmt_txt.c **** 
 973              		.loc 1 174 22 view .LVU318
 974 016c 4100     		lsleq	r1, r0, #1
 975              	.LVL93:
 176:Drivers/lvgl/src/font/lv_font_fmt_txt.c ****     adv_w  = (adv_w + (1 << 3)) >> 4;
 976              		.loc 1 176 5 is_stmt 1 view .LVU319
 177:Drivers/lvgl/src/font/lv_font_fmt_txt.c **** 
 977              		.loc 1 177 5 view .LVU320
 177:Drivers/lvgl/src/font/lv_font_fmt_txt.c **** 
 978              		.loc 1 177 21 is_stmt 0 view .LVU321
 979 016e 0833     		adds	r3, r3, #8
 980              	.LVL94:
 177:Drivers/lvgl/src/font/lv_font_fmt_txt.c **** 
 981              		.loc 1 177 21 view .LVU322
 982 0170 0B44     		add	r3, r3, r1
 983              	.LVL95:
 179:Drivers/lvgl/src/font/lv_font_fmt_txt.c ****     dsc_out->box_h = gdsc->box_h;
 984              		.loc 1 179 5 is_stmt 1 view .LVU323
 177:Drivers/lvgl/src/font/lv_font_fmt_txt.c **** 
 985              		.loc 1 177 12 is_stmt 0 view .LVU324
 986 0172 1B09     		lsrs	r3, r3, #4
 987              	.LVL96:
 179:Drivers/lvgl/src/font/lv_font_fmt_txt.c ****     dsc_out->box_h = gdsc->box_h;
 988              		.loc 1 179 20 view .LVU325
 989 0174 A380     		strh	r3, [r4, #4]	@ movhi
 180:Drivers/lvgl/src/font/lv_font_fmt_txt.c ****     dsc_out->box_w = gdsc->box_w;
 990              		.loc 1 180 5 is_stmt 1 view .LVU326
 180:Drivers/lvgl/src/font/lv_font_fmt_txt.c ****     dsc_out->box_w = gdsc->box_w;
 991              		.loc 1 180 26 is_stmt 0 view .LVU327
 992 0176 5379     		ldrb	r3, [r2, #5]	@ zero_extendqisi2
 993              	.LVL97:
 184:Drivers/lvgl/src/font/lv_font_fmt_txt.c ****     dsc_out->is_placeholder = false;
 994              		.loc 1 184 35 view .LVU328
 995 0178 F17C     		ldrb	r1, [r6, #19]	@ zero_extendqisi2
 180:Drivers/lvgl/src/font/lv_font_fmt_txt.c ****     dsc_out->box_w = gdsc->box_w;
 996              		.loc 1 180 26 view .LVU329
 997 017a 2381     		strh	r3, [r4, #8]	@ movhi
ARM GAS  /var/folders/0z/tsy30v1j4xl4_7kw94k978ww0000gn/T//ccxKMfKW.s 			page 34


 181:Drivers/lvgl/src/font/lv_font_fmt_txt.c ****     dsc_out->ofs_x = gdsc->ofs_x;
 998              		.loc 1 181 5 is_stmt 1 view .LVU330
 184:Drivers/lvgl/src/font/lv_font_fmt_txt.c ****     dsc_out->is_placeholder = false;
 999              		.loc 1 184 20 is_stmt 0 view .LVU331
 1000 017c A37B     		ldrb	r3, [r4, #14]	@ zero_extendqisi2
 181:Drivers/lvgl/src/font/lv_font_fmt_txt.c ****     dsc_out->ofs_x = gdsc->ofs_x;
 1001              		.loc 1 181 26 view .LVU332
 1002 017e 1079     		ldrb	r0, [r2, #4]	@ zero_extendqisi2
 181:Drivers/lvgl/src/font/lv_font_fmt_txt.c ****     dsc_out->ofs_x = gdsc->ofs_x;
 1003              		.loc 1 181 20 view .LVU333
 1004 0180 E080     		strh	r0, [r4, #6]	@ movhi
 182:Drivers/lvgl/src/font/lv_font_fmt_txt.c ****     dsc_out->ofs_y = gdsc->ofs_y;
 1005              		.loc 1 182 5 is_stmt 1 view .LVU334
 184:Drivers/lvgl/src/font/lv_font_fmt_txt.c ****     dsc_out->is_placeholder = false;
 1006              		.loc 1 184 20 is_stmt 0 view .LVU335
 1007 0182 C1F34301 		ubfx	r1, r1, #1, #4
 1008 0186 23F01F03 		bic	r3, r3, #31
 1009 018a 0B43     		orrs	r3, r3, r1
 182:Drivers/lvgl/src/font/lv_font_fmt_txt.c ****     dsc_out->ofs_y = gdsc->ofs_y;
 1010              		.loc 1 182 26 view .LVU336
 1011 018c 92F90610 		ldrsb	r1, [r2, #6]
 1012 0190 6181     		strh	r1, [r4, #10]	@ movhi
 183:Drivers/lvgl/src/font/lv_font_fmt_txt.c ****     dsc_out->bpp   = (uint8_t)fdsc->bpp;
 1013              		.loc 1 183 5 is_stmt 1 view .LVU337
 187:Drivers/lvgl/src/font/lv_font_fmt_txt.c **** 
 1014              		.loc 1 187 7 is_stmt 0 view .LVU338
 1015 0192 092D     		cmp	r5, #9
 183:Drivers/lvgl/src/font/lv_font_fmt_txt.c ****     dsc_out->bpp   = (uint8_t)fdsc->bpp;
 1016              		.loc 1 183 26 view .LVU339
 1017 0194 92F90720 		ldrsb	r2, [r2, #7]
 1018              	.LVL98:
 183:Drivers/lvgl/src/font/lv_font_fmt_txt.c ****     dsc_out->bpp   = (uint8_t)fdsc->bpp;
 1019              		.loc 1 183 26 view .LVU340
 1020 0198 A281     		strh	r2, [r4, #12]	@ movhi
 184:Drivers/lvgl/src/font/lv_font_fmt_txt.c ****     dsc_out->is_placeholder = false;
 1021              		.loc 1 184 5 is_stmt 1 view .LVU341
 185:Drivers/lvgl/src/font/lv_font_fmt_txt.c **** 
 1022              		.loc 1 185 5 view .LVU342
 187:Drivers/lvgl/src/font/lv_font_fmt_txt.c **** 
 1023              		.loc 1 187 31 is_stmt 0 view .LVU343
 1024 019a 04BF     		itt	eq
 1025 019c 4000     		lsleq	r0, r0, #1
 1026 019e E080     		strheq	r0, [r4, #6]	@ movhi
 189:Drivers/lvgl/src/font/lv_font_fmt_txt.c **** }
 1027              		.loc 1 189 12 view .LVU344
 1028 01a0 0120     		movs	r0, #1
 184:Drivers/lvgl/src/font/lv_font_fmt_txt.c ****     dsc_out->is_placeholder = false;
 1029              		.loc 1 184 20 view .LVU345
 1030 01a2 A373     		strb	r3, [r4, #14]
 187:Drivers/lvgl/src/font/lv_font_fmt_txt.c **** 
 1031              		.loc 1 187 5 is_stmt 1 view .LVU346
 187:Drivers/lvgl/src/font/lv_font_fmt_txt.c **** 
 1032              		.loc 1 187 16 view .LVU347
 1033              	.LVL99:
 190:Drivers/lvgl/src/font/lv_font_fmt_txt.c **** 
 1034              		.loc 1 190 1 is_stmt 0 view .LVU348
 1035 01a4 07B0     		add	sp, sp, #28
ARM GAS  /var/folders/0z/tsy30v1j4xl4_7kw94k978ww0000gn/T//ccxKMfKW.s 			page 35


 1036              		.cfi_remember_state
 1037              		.cfi_def_cfa_offset 36
 1038              		@ sp needed
 1039 01a6 BDE8F08F 		pop	{r4, r5, r6, r7, r8, r9, r10, fp, pc}
 1040              	.LVL100:
 1041              	.L168:
 1042              		.cfi_restore_state
 154:Drivers/lvgl/src/font/lv_font_fmt_txt.c ****     }
 1043              		.loc 1 154 9 is_stmt 1 view .LVU349
 156:Drivers/lvgl/src/font/lv_font_fmt_txt.c ****     uint32_t gid = get_glyph_dsc_id(font, unicode_letter);
 1044              		.loc 1 156 5 view .LVU350
 157:Drivers/lvgl/src/font/lv_font_fmt_txt.c ****     if(!gid) return false;
 1045              		.loc 1 157 5 view .LVU351
 1046              	.LBB192:
 209:Drivers/lvgl/src/font/lv_font_fmt_txt.c **** {
 1047              		.loc 1 209 17 view .LVU352
 1048              	.LBB124:
 211:Drivers/lvgl/src/font/lv_font_fmt_txt.c **** 
 1049              		.loc 1 211 5 view .LVU353
 1050              	.LBE124:
 1051              	.LBE192:
 154:Drivers/lvgl/src/font/lv_font_fmt_txt.c ****     }
 1052              		.loc 1 154 24 is_stmt 0 view .LVU354
 1053 01aa 4FF0200A 		mov	r10, #32
 1054 01ae 36E7     		b	.L63
 1055              	.LVL101:
 1056              	.L170:
 1057              	.LBB193:
 1058              	.LBB125:
 1059              	.LBB119:
 1060              	.LBB114:
 1061              	.LBB109:
 223:Drivers/lvgl/src/font/lv_font_fmt_txt.c ****         uint32_t glyph_id = 0;
 1062              		.loc 1 223 47 is_stmt 1 view .LVU355
 1063              	.LBE109:
 219:Drivers/lvgl/src/font/lv_font_fmt_txt.c **** 
 1064              		.loc 1 219 37 view .LVU356
 219:Drivers/lvgl/src/font/lv_font_fmt_txt.c **** 
 1065              		.loc 1 219 18 view .LVU357
 1066 01b0 0EF1010E 		add	lr, lr, #1
 1067              	.LVL102:
 219:Drivers/lvgl/src/font/lv_font_fmt_txt.c **** 
 1068              		.loc 1 219 18 is_stmt 0 view .LVU358
 1069 01b4 1FFA8EF0 		uxth	r0, lr
 1070              	.LVL103:
 219:Drivers/lvgl/src/font/lv_font_fmt_txt.c **** 
 1071              		.loc 1 219 18 view .LVU359
 1072 01b8 8242     		cmp	r2, r0
 1073 01ba 09F11409 		add	r9, r9, #20
 1074              	.LVL104:
 219:Drivers/lvgl/src/font/lv_font_fmt_txt.c **** 
 1075              		.loc 1 219 18 view .LVU360
 1076 01be 01F11401 		add	r1, r1, #20
 1077 01c2 3FF640AF 		bhi	.L69
 1078              	.LVL105:
 1079              	.L156:
 262:Drivers/lvgl/src/font/lv_font_fmt_txt.c ****         fdsc->cache->last_letter = letter;
ARM GAS  /var/folders/0z/tsy30v1j4xl4_7kw94k978ww0000gn/T//ccxKMfKW.s 			page 36


 1080              		.loc 1 262 5 is_stmt 1 view .LVU361
 262:Drivers/lvgl/src/font/lv_font_fmt_txt.c ****         fdsc->cache->last_letter = letter;
 1081              		.loc 1 262 7 is_stmt 0 view .LVU362
 1082 01c6 002B     		cmp	r3, #0
 1083 01c8 B6D0     		beq	.L76
 1084              	.L103:
 263:Drivers/lvgl/src/font/lv_font_fmt_txt.c ****         fdsc->cache->last_glyph_id = 0;
 1085              		.loc 1 263 9 is_stmt 1 view .LVU363
 264:Drivers/lvgl/src/font/lv_font_fmt_txt.c ****     }
 1086              		.loc 1 264 36 is_stmt 0 view .LVU364
 1087 01ca 0020     		movs	r0, #0
 1088              	.L161:
 264:Drivers/lvgl/src/font/lv_font_fmt_txt.c ****     }
 1089              		.loc 1 264 36 view .LVU365
 1090 01cc C3E900A0 		strd	r10, r0, [r3]
 1091              	.LVL106:
 264:Drivers/lvgl/src/font/lv_font_fmt_txt.c ****     }
 1092              		.loc 1 264 36 view .LVU366
 1093              	.LBE114:
 1094              	.LBE119:
 1095              	.LBE125:
 1096              	.LBE193:
 158:Drivers/lvgl/src/font/lv_font_fmt_txt.c **** 
 1097              		.loc 1 158 5 is_stmt 1 view .LVU367
 190:Drivers/lvgl/src/font/lv_font_fmt_txt.c **** 
 1098              		.loc 1 190 1 is_stmt 0 view .LVU368
 1099 01d0 07B0     		add	sp, sp, #28
 1100              		.cfi_remember_state
 1101              		.cfi_def_cfa_offset 36
 1102              		@ sp needed
 1103 01d2 BDE8F08F 		pop	{r4, r5, r6, r7, r8, r9, r10, fp, pc}
 1104              	.LVL107:
 1105              	.L171:
 1106              		.cfi_restore_state
 1107              	.LBB194:
 1108              	.LBB126:
 1109              	.LBB120:
 1110              	.LBB115:
 1111              	.LBB110:
 226:Drivers/lvgl/src/font/lv_font_fmt_txt.c ****         }
 1112              		.loc 1 226 13 is_stmt 1 view .LVU369
 226:Drivers/lvgl/src/font/lv_font_fmt_txt.c ****         }
 1113              		.loc 1 226 38 is_stmt 0 view .LVU370
 1114 01d6 B1F80690 		ldrh	r9, [r1, #6]
 226:Drivers/lvgl/src/font/lv_font_fmt_txt.c ****         }
 1115              		.loc 1 226 22 view .LVU371
 1116 01da 8144     		add	r9, r9, r0
 1117              	.LVL108:
 226:Drivers/lvgl/src/font/lv_font_fmt_txt.c ****         }
 1118              		.loc 1 226 22 view .LVU372
 1119 01dc 48E7     		b	.L72
 1120              	.LVL109:
 1121              	.L73:
 232:Drivers/lvgl/src/font/lv_font_fmt_txt.c ****             uint16_t key = rcp;
 1122              		.loc 1 232 14 is_stmt 1 view .LVU373
 232:Drivers/lvgl/src/font/lv_font_fmt_txt.c ****             uint16_t key = rcp;
 1123              		.loc 1 232 16 is_stmt 0 view .LVU374
ARM GAS  /var/folders/0z/tsy30v1j4xl4_7kw94k978ww0000gn/T//ccxKMfKW.s 			page 37


 1124 01de 032A     		cmp	r2, #3
 1125 01e0 4ED0     		beq	.L175
 242:Drivers/lvgl/src/font/lv_font_fmt_txt.c ****             uint16_t key = rcp;
 1126              		.loc 1 242 14 is_stmt 1 view .LVU375
 242:Drivers/lvgl/src/font/lv_font_fmt_txt.c ****             uint16_t key = rcp;
 1127              		.loc 1 242 16 is_stmt 0 view .LVU376
 1128 01e2 012A     		cmp	r2, #1
 1129 01e4 EFD1     		bne	.L156
 1130              	.LBB101:
 243:Drivers/lvgl/src/font/lv_font_fmt_txt.c ****             uint16_t * p = _lv_utils_bsearch(&key, fdsc->cmaps[i].unicode_list, fdsc->cmaps[i].list
 1131              		.loc 1 243 13 is_stmt 1 view .LVU377
 244:Drivers/lvgl/src/font/lv_font_fmt_txt.c ****                                              sizeof(fdsc->cmaps[i].unicode_list[0]), unicode_list_c
 1132              		.loc 1 244 28 is_stmt 0 view .LVU378
 1133 01e6 5C4B     		ldr	r3, .L177+4
 243:Drivers/lvgl/src/font/lv_font_fmt_txt.c ****             uint16_t * p = _lv_utils_bsearch(&key, fdsc->cmaps[i].unicode_list, fdsc->cmaps[i].list
 1134              		.loc 1 243 22 view .LVU379
 1135 01e8 ADF81400 		strh	r0, [sp, #20]	@ movhi
 244:Drivers/lvgl/src/font/lv_font_fmt_txt.c ****                                              sizeof(fdsc->cmaps[i].unicode_list[0]), unicode_list_c
 1136              		.loc 1 244 13 is_stmt 1 view .LVU380
 244:Drivers/lvgl/src/font/lv_font_fmt_txt.c ****                                              sizeof(fdsc->cmaps[i].unicode_list[0]), unicode_list_c
 1137              		.loc 1 244 28 is_stmt 0 view .LVU381
 1138 01ec 0A8A     		ldrh	r2, [r1, #16]
 1139 01ee 8968     		ldr	r1, [r1, #8]
 1140 01f0 0093     		str	r3, [sp]
 1141 01f2 05A8     		add	r0, sp, #20
 1142              	.LVL110:
 244:Drivers/lvgl/src/font/lv_font_fmt_txt.c ****                                              sizeof(fdsc->cmaps[i].unicode_list[0]), unicode_list_c
 1143              		.loc 1 244 28 view .LVU382
 1144 01f4 0223     		movs	r3, #2
 1145 01f6 FFF7FEFF 		bl	_lv_utils_bsearch
 1146              	.LVL111:
 247:Drivers/lvgl/src/font/lv_font_fmt_txt.c ****                 lv_uintptr_t ofs = p - fdsc->cmaps[i].unicode_list;
 1147              		.loc 1 247 13 is_stmt 1 view .LVU383
 247:Drivers/lvgl/src/font/lv_font_fmt_txt.c ****                 lv_uintptr_t ofs = p - fdsc->cmaps[i].unicode_list;
 1148              		.loc 1 247 15 is_stmt 0 view .LVU384
 1149 01fa 0028     		cmp	r0, #0
 1150 01fc 00F08380 		beq	.L164
 1151              	.LBB102:
 248:Drivers/lvgl/src/font/lv_font_fmt_txt.c ****                 const uint16_t * gid_ofs_16 = fdsc->cmaps[i].glyph_id_ofs_list;
 1152              		.loc 1 248 17 is_stmt 1 view .LVU385
 248:Drivers/lvgl/src/font/lv_font_fmt_txt.c ****                 const uint16_t * gid_ofs_16 = fdsc->cmaps[i].glyph_id_ofs_list;
 1153              		.loc 1 248 51 is_stmt 0 view .LVU386
 1154 0200 B268     		ldr	r2, [r6, #8]
 1155              	.LBE102:
 1156              	.LBE101:
 255:Drivers/lvgl/src/font/lv_font_fmt_txt.c ****             fdsc->cache->last_letter = letter;
 1157              		.loc 1 255 16 view .LVU387
 1158 0202 7369     		ldr	r3, [r6, #20]
 1159              	.LBB104:
 1160              	.LBB103:
 248:Drivers/lvgl/src/font/lv_font_fmt_txt.c ****                 const uint16_t * gid_ofs_16 = fdsc->cmaps[i].glyph_id_ofs_list;
 1161              		.loc 1 248 51 view .LVU388
 1162 0204 4A44     		add	r2, r2, r9
 1163              	.LVL112:
 249:Drivers/lvgl/src/font/lv_font_fmt_txt.c ****                 glyph_id = fdsc->cmaps[i].glyph_id_start + gid_ofs_16[ofs];
 1164              		.loc 1 249 17 is_stmt 1 view .LVU389
 250:Drivers/lvgl/src/font/lv_font_fmt_txt.c ****             }
ARM GAS  /var/folders/0z/tsy30v1j4xl4_7kw94k978ww0000gn/T//ccxKMfKW.s 			page 38


 1165              		.loc 1 250 17 view .LVU390
 248:Drivers/lvgl/src/font/lv_font_fmt_txt.c ****                 const uint16_t * gid_ofs_16 = fdsc->cmaps[i].glyph_id_ofs_list;
 1166              		.loc 1 248 38 is_stmt 0 view .LVU391
 1167 0206 9168     		ldr	r1, [r2, #8]
 1168 0208 401A     		subs	r0, r0, r1
 1169              	.LVL113:
 250:Drivers/lvgl/src/font/lv_font_fmt_txt.c ****             }
 1170              		.loc 1 250 70 view .LVU392
 1171 020a D168     		ldr	r1, [r2, #12]
 250:Drivers/lvgl/src/font/lv_font_fmt_txt.c ****             }
 1172              		.loc 1 250 42 view .LVU393
 1173 020c D288     		ldrh	r2, [r2, #6]
 1174              	.LVL114:
 250:Drivers/lvgl/src/font/lv_font_fmt_txt.c ****             }
 1175              		.loc 1 250 70 view .LVU394
 1176 020e 31F80090 		ldrh	r9, [r1, r0]
 250:Drivers/lvgl/src/font/lv_font_fmt_txt.c ****             }
 1177              		.loc 1 250 58 view .LVU395
 1178 0212 9144     		add	r9, r9, r2
 1179              	.LVL115:
 250:Drivers/lvgl/src/font/lv_font_fmt_txt.c ****             }
 1180              		.loc 1 250 58 view .LVU396
 1181 0214 2CE7     		b	.L72
 1182              	.LVL116:
 1183              	.L169:
 250:Drivers/lvgl/src/font/lv_font_fmt_txt.c ****             }
 1184              		.loc 1 250 58 view .LVU397
 1185              	.LBE103:
 1186              	.LBE104:
 1187              	.LBE110:
 216:Drivers/lvgl/src/font/lv_font_fmt_txt.c **** 
 1188              		.loc 1 216 59 is_stmt 1 view .LVU398
 216:Drivers/lvgl/src/font/lv_font_fmt_txt.c **** 
 1189              		.loc 1 216 77 is_stmt 0 view .LVU399
 1190 0216 D3F80490 		ldr	r9, [r3, #4]
 1191 021a 2CE7     		b	.L67
 1192              	.LVL117:
 1193              	.L173:
 216:Drivers/lvgl/src/font/lv_font_fmt_txt.c **** 
 1194              		.loc 1 216 77 view .LVU400
 1195              	.LBE115:
 1196              	.LBE120:
 1197              	.LBE126:
 1198              	.LBE194:
 1199              	.LBB195:
 1200              	.LBB183:
 1201              	.LBB162:
 1202              	.LBB156:
 1203              	.LBB150:
 1204              	.LBB144:
 223:Drivers/lvgl/src/font/lv_font_fmt_txt.c ****         uint32_t glyph_id = 0;
 1205              		.loc 1 223 47 is_stmt 1 view .LVU401
 1206              	.LBE144:
 219:Drivers/lvgl/src/font/lv_font_fmt_txt.c **** 
 1207              		.loc 1 219 37 view .LVU402
 219:Drivers/lvgl/src/font/lv_font_fmt_txt.c **** 
 1208              		.loc 1 219 18 view .LVU403
ARM GAS  /var/folders/0z/tsy30v1j4xl4_7kw94k978ww0000gn/T//ccxKMfKW.s 			page 39


 1209 021c 039B     		ldr	r3, [sp, #12]
 1210              	.LVL118:
 219:Drivers/lvgl/src/font/lv_font_fmt_txt.c **** 
 1211              		.loc 1 219 18 is_stmt 0 view .LVU404
 1212 021e 0133     		adds	r3, r3, #1
 1213 0220 0393     		str	r3, [sp, #12]
 1214              	.LVL119:
 219:Drivers/lvgl/src/font/lv_font_fmt_txt.c **** 
 1215              		.loc 1 219 18 view .LVU405
 1216 0222 9BB2     		uxth	r3, r3
 1217 0224 9842     		cmp	r0, r3
 1218 0226 0BF1140B 		add	fp, fp, #20
 1219              	.LVL120:
 219:Drivers/lvgl/src/font/lv_font_fmt_txt.c **** 
 1220              		.loc 1 219 18 view .LVU406
 1221 022a 01F11401 		add	r1, r1, #20
 1222 022e 3FF643AF 		bhi	.L86
 1223              	.LVL121:
 1224              	.L157:
 262:Drivers/lvgl/src/font/lv_font_fmt_txt.c ****         fdsc->cache->last_letter = letter;
 1225              		.loc 1 262 5 is_stmt 1 view .LVU407
 262:Drivers/lvgl/src/font/lv_font_fmt_txt.c ****         fdsc->cache->last_letter = letter;
 1226              		.loc 1 262 7 is_stmt 0 view .LVU408
 1227 0232 002A     		cmp	r2, #0
 1228 0234 8AD0     		beq	.L81
 1229              	.L101:
 263:Drivers/lvgl/src/font/lv_font_fmt_txt.c ****         fdsc->cache->last_glyph_id = 0;
 1230              		.loc 1 263 9 is_stmt 1 view .LVU409
 264:Drivers/lvgl/src/font/lv_font_fmt_txt.c ****     }
 1231              		.loc 1 264 36 is_stmt 0 view .LVU410
 1232 0236 0021     		movs	r1, #0
 263:Drivers/lvgl/src/font/lv_font_fmt_txt.c ****         fdsc->cache->last_glyph_id = 0;
 1233              		.loc 1 263 34 view .LVU411
 1234 0238 C2F80080 		str	r8, [r2]
 264:Drivers/lvgl/src/font/lv_font_fmt_txt.c ****     }
 1235              		.loc 1 264 9 is_stmt 1 view .LVU412
 264:Drivers/lvgl/src/font/lv_font_fmt_txt.c ****     }
 1236              		.loc 1 264 36 is_stmt 0 view .LVU413
 1237 023c 5160     		str	r1, [r2, #4]
 1238              	.LVL122:
 264:Drivers/lvgl/src/font/lv_font_fmt_txt.c ****     }
 1239              		.loc 1 264 36 view .LVU414
 1240              	.LBE150:
 1241              	.LBE156:
 1242              	.LBE162:
 1243              	.LBE183:
 163:Drivers/lvgl/src/font/lv_font_fmt_txt.c ****             kvalue = get_kern_value(font, gid, gid_next);
 1244              		.loc 1 163 9 is_stmt 1 view .LVU415
 1245 023e 86E7     		b	.L80
 1246              	.LVL123:
 1247              	.L90:
 1248              	.LBB184:
 1249              	.LBB163:
 1250              	.LBB157:
 1251              	.LBB151:
 1252              	.LBB145:
 232:Drivers/lvgl/src/font/lv_font_fmt_txt.c ****             uint16_t key = rcp;
ARM GAS  /var/folders/0z/tsy30v1j4xl4_7kw94k978ww0000gn/T//ccxKMfKW.s 			page 40


 1253              		.loc 1 232 14 view .LVU416
 232:Drivers/lvgl/src/font/lv_font_fmt_txt.c ****             uint16_t key = rcp;
 1254              		.loc 1 232 16 is_stmt 0 view .LVU417
 1255 0240 0328     		cmp	r0, #3
 1256 0242 48D0     		beq	.L176
 242:Drivers/lvgl/src/font/lv_font_fmt_txt.c ****             uint16_t key = rcp;
 1257              		.loc 1 242 14 is_stmt 1 view .LVU418
 242:Drivers/lvgl/src/font/lv_font_fmt_txt.c ****             uint16_t key = rcp;
 1258              		.loc 1 242 16 is_stmt 0 view .LVU419
 1259 0244 0128     		cmp	r0, #1
 1260 0246 F4D1     		bne	.L157
 1261              	.LBB136:
 243:Drivers/lvgl/src/font/lv_font_fmt_txt.c ****             uint16_t * p = _lv_utils_bsearch(&key, fdsc->cmaps[i].unicode_list, fdsc->cmaps[i].list
 1262              		.loc 1 243 13 is_stmt 1 view .LVU420
 243:Drivers/lvgl/src/font/lv_font_fmt_txt.c ****             uint16_t * p = _lv_utils_bsearch(&key, fdsc->cmaps[i].unicode_list, fdsc->cmaps[i].list
 1263              		.loc 1 243 22 is_stmt 0 view .LVU421
 1264 0248 ADF81430 		strh	r3, [sp, #20]	@ movhi
 244:Drivers/lvgl/src/font/lv_font_fmt_txt.c ****                                              sizeof(fdsc->cmaps[i].unicode_list[0]), unicode_list_c
 1265              		.loc 1 244 13 is_stmt 1 view .LVU422
 244:Drivers/lvgl/src/font/lv_font_fmt_txt.c ****                                              sizeof(fdsc->cmaps[i].unicode_list[0]), unicode_list_c
 1266              		.loc 1 244 28 is_stmt 0 view .LVU423
 1267 024c 424B     		ldr	r3, .L177+4
 1268              	.LVL124:
 244:Drivers/lvgl/src/font/lv_font_fmt_txt.c ****                                              sizeof(fdsc->cmaps[i].unicode_list[0]), unicode_list_c
 1269              		.loc 1 244 28 view .LVU424
 1270 024e 0A8A     		ldrh	r2, [r1, #16]
 1271 0250 8968     		ldr	r1, [r1, #8]
 1272 0252 0093     		str	r3, [sp]
 1273              	.LVL125:
 244:Drivers/lvgl/src/font/lv_font_fmt_txt.c ****                                              sizeof(fdsc->cmaps[i].unicode_list[0]), unicode_list_c
 1274              		.loc 1 244 28 view .LVU425
 1275 0254 05A8     		add	r0, sp, #20
 1276 0256 0223     		movs	r3, #2
 1277 0258 FFF7FEFF 		bl	_lv_utils_bsearch
 1278              	.LVL126:
 247:Drivers/lvgl/src/font/lv_font_fmt_txt.c ****                 lv_uintptr_t ofs = p - fdsc->cmaps[i].unicode_list;
 1279              		.loc 1 247 13 is_stmt 1 view .LVU426
 247:Drivers/lvgl/src/font/lv_font_fmt_txt.c ****                 lv_uintptr_t ofs = p - fdsc->cmaps[i].unicode_list;
 1280              		.loc 1 247 15 is_stmt 0 view .LVU427
 1281 025c 0028     		cmp	r0, #0
 1282 025e 70D0     		beq	.L166
 1283              	.LBB137:
 248:Drivers/lvgl/src/font/lv_font_fmt_txt.c ****                 const uint16_t * gid_ofs_16 = fdsc->cmaps[i].glyph_id_ofs_list;
 1284              		.loc 1 248 17 is_stmt 1 view .LVU428
 248:Drivers/lvgl/src/font/lv_font_fmt_txt.c ****                 const uint16_t * gid_ofs_16 = fdsc->cmaps[i].glyph_id_ofs_list;
 1285              		.loc 1 248 51 is_stmt 0 view .LVU429
 1286 0260 DAF80830 		ldr	r3, [r10, #8]
 1287              	.LBE137:
 1288              	.LBE136:
 255:Drivers/lvgl/src/font/lv_font_fmt_txt.c ****             fdsc->cache->last_letter = letter;
 1289              		.loc 1 255 16 view .LVU430
 1290 0264 DAF81420 		ldr	r2, [r10, #20]
 1291              	.LBB139:
 1292              	.LBB138:
 248:Drivers/lvgl/src/font/lv_font_fmt_txt.c ****                 const uint16_t * gid_ofs_16 = fdsc->cmaps[i].glyph_id_ofs_list;
 1293              		.loc 1 248 51 view .LVU431
 1294 0268 03EB0B0C 		add	ip, r3, fp
ARM GAS  /var/folders/0z/tsy30v1j4xl4_7kw94k978ww0000gn/T//ccxKMfKW.s 			page 41


 1295              	.LVL127:
 249:Drivers/lvgl/src/font/lv_font_fmt_txt.c ****                 glyph_id = fdsc->cmaps[i].glyph_id_start + gid_ofs_16[ofs];
 1296              		.loc 1 249 17 is_stmt 1 view .LVU432
 250:Drivers/lvgl/src/font/lv_font_fmt_txt.c ****             }
 1297              		.loc 1 250 17 view .LVU433
 248:Drivers/lvgl/src/font/lv_font_fmt_txt.c ****                 const uint16_t * gid_ofs_16 = fdsc->cmaps[i].glyph_id_ofs_list;
 1298              		.loc 1 248 38 is_stmt 0 view .LVU434
 1299 026c DCF80830 		ldr	r3, [ip, #8]
 1300 0270 C11A     		subs	r1, r0, r3
 250:Drivers/lvgl/src/font/lv_font_fmt_txt.c ****             }
 1301              		.loc 1 250 70 view .LVU435
 1302 0272 DCF80C30 		ldr	r3, [ip, #12]
 1303 0276 5B5A     		ldrh	r3, [r3, r1]
 250:Drivers/lvgl/src/font/lv_font_fmt_txt.c ****             }
 1304              		.loc 1 250 42 view .LVU436
 1305 0278 BCF80610 		ldrh	r1, [ip, #6]
 250:Drivers/lvgl/src/font/lv_font_fmt_txt.c ****             }
 1306              		.loc 1 250 58 view .LVU437
 1307 027c 0B44     		add	r3, r3, r1
 1308              	.LVL128:
 250:Drivers/lvgl/src/font/lv_font_fmt_txt.c ****             }
 1309              		.loc 1 250 58 view .LVU438
 1310 027e 2EE7     		b	.L89
 1311              	.LVL129:
 1312              	.L175:
 250:Drivers/lvgl/src/font/lv_font_fmt_txt.c ****             }
 1313              		.loc 1 250 58 view .LVU439
 1314              	.LBE138:
 1315              	.LBE139:
 1316              	.LBE145:
 1317              	.LBE151:
 1318              	.LBE157:
 1319              	.LBE163:
 1320              	.LBE184:
 1321              	.LBE195:
 1322              	.LBB196:
 1323              	.LBB127:
 1324              	.LBB121:
 1325              	.LBB116:
 1326              	.LBB111:
 1327              	.LBB105:
 233:Drivers/lvgl/src/font/lv_font_fmt_txt.c ****             uint16_t * p = _lv_utils_bsearch(&key, fdsc->cmaps[i].unicode_list, fdsc->cmaps[i].list
 1328              		.loc 1 233 13 is_stmt 1 view .LVU440
 234:Drivers/lvgl/src/font/lv_font_fmt_txt.c ****                                              sizeof(fdsc->cmaps[i].unicode_list[0]), unicode_list_c
 1329              		.loc 1 234 28 is_stmt 0 view .LVU441
 1330 0280 354B     		ldr	r3, .L177+4
 233:Drivers/lvgl/src/font/lv_font_fmt_txt.c ****             uint16_t * p = _lv_utils_bsearch(&key, fdsc->cmaps[i].unicode_list, fdsc->cmaps[i].list
 1331              		.loc 1 233 22 view .LVU442
 1332 0282 ADF81400 		strh	r0, [sp, #20]	@ movhi
 234:Drivers/lvgl/src/font/lv_font_fmt_txt.c ****                                              sizeof(fdsc->cmaps[i].unicode_list[0]), unicode_list_c
 1333              		.loc 1 234 13 is_stmt 1 view .LVU443
 234:Drivers/lvgl/src/font/lv_font_fmt_txt.c ****                                              sizeof(fdsc->cmaps[i].unicode_list[0]), unicode_list_c
 1334              		.loc 1 234 28 is_stmt 0 view .LVU444
 1335 0286 0A8A     		ldrh	r2, [r1, #16]
 1336 0288 8968     		ldr	r1, [r1, #8]
 1337 028a 0093     		str	r3, [sp]
 1338 028c 05A8     		add	r0, sp, #20
ARM GAS  /var/folders/0z/tsy30v1j4xl4_7kw94k978ww0000gn/T//ccxKMfKW.s 			page 42


 1339              	.LVL130:
 234:Drivers/lvgl/src/font/lv_font_fmt_txt.c ****                                              sizeof(fdsc->cmaps[i].unicode_list[0]), unicode_list_c
 1340              		.loc 1 234 28 view .LVU445
 1341 028e 0223     		movs	r3, #2
 1342 0290 FFF7FEFF 		bl	_lv_utils_bsearch
 1343              	.LVL131:
 237:Drivers/lvgl/src/font/lv_font_fmt_txt.c ****                 lv_uintptr_t ofs = p - fdsc->cmaps[i].unicode_list;
 1344              		.loc 1 237 13 is_stmt 1 view .LVU446
 237:Drivers/lvgl/src/font/lv_font_fmt_txt.c ****                 lv_uintptr_t ofs = p - fdsc->cmaps[i].unicode_list;
 1345              		.loc 1 237 15 is_stmt 0 view .LVU447
 1346 0294 0028     		cmp	r0, #0
 1347 0296 36D0     		beq	.L164
 1348              	.LBB106:
 238:Drivers/lvgl/src/font/lv_font_fmt_txt.c ****                 glyph_id = fdsc->cmaps[i].glyph_id_start + ofs;
 1349              		.loc 1 238 17 is_stmt 1 view .LVU448
 238:Drivers/lvgl/src/font/lv_font_fmt_txt.c ****                 glyph_id = fdsc->cmaps[i].glyph_id_start + ofs;
 1350              		.loc 1 238 51 is_stmt 0 view .LVU449
 1351 0298 B268     		ldr	r2, [r6, #8]
 1352              	.LBE106:
 1353              	.LBE105:
 255:Drivers/lvgl/src/font/lv_font_fmt_txt.c ****             fdsc->cache->last_letter = letter;
 1354              		.loc 1 255 16 view .LVU450
 1355 029a 7369     		ldr	r3, [r6, #20]
 1356              	.LBB108:
 1357              	.LBB107:
 238:Drivers/lvgl/src/font/lv_font_fmt_txt.c ****                 glyph_id = fdsc->cmaps[i].glyph_id_start + ofs;
 1358              		.loc 1 238 51 view .LVU451
 1359 029c 4A44     		add	r2, r2, r9
 1360              	.LVL132:
 239:Drivers/lvgl/src/font/lv_font_fmt_txt.c ****             }
 1361              		.loc 1 239 17 is_stmt 1 view .LVU452
 238:Drivers/lvgl/src/font/lv_font_fmt_txt.c ****                 glyph_id = fdsc->cmaps[i].glyph_id_start + ofs;
 1362              		.loc 1 238 38 is_stmt 0 view .LVU453
 1363 029e 9168     		ldr	r1, [r2, #8]
 239:Drivers/lvgl/src/font/lv_font_fmt_txt.c ****             }
 1364              		.loc 1 239 42 view .LVU454
 1365 02a0 B2F80690 		ldrh	r9, [r2, #6]
 238:Drivers/lvgl/src/font/lv_font_fmt_txt.c ****                 glyph_id = fdsc->cmaps[i].glyph_id_start + ofs;
 1366              		.loc 1 238 38 view .LVU455
 1367 02a4 401A     		subs	r0, r0, r1
 1368              	.LVL133:
 239:Drivers/lvgl/src/font/lv_font_fmt_txt.c ****             }
 1369              		.loc 1 239 26 view .LVU456
 1370 02a6 09EB6009 		add	r9, r9, r0, asr #1
 1371              	.LVL134:
 239:Drivers/lvgl/src/font/lv_font_fmt_txt.c ****             }
 1372              		.loc 1 239 26 view .LVU457
 1373              	.LBE107:
 1374              	.LBE108:
 1375 02aa E1E6     		b	.L72
 1376              	.LVL135:
 1377              	.L95:
 239:Drivers/lvgl/src/font/lv_font_fmt_txt.c ****             }
 1378              		.loc 1 239 26 view .LVU458
 1379              	.LBE111:
 1380              	.LBE116:
 1381              	.LBE121:
ARM GAS  /var/folders/0z/tsy30v1j4xl4_7kw94k978ww0000gn/T//ccxKMfKW.s 			page 43


 1382              	.LBE127:
 1383              	.LBE196:
 1384              	.LBB197:
 1385              	.LBB185:
 1386              	.LBB179:
 1387              	.LBB176:
 312:Drivers/lvgl/src/font/lv_font_fmt_txt.c ****         uint8_t left_class = kdsc->left_class_mapping[gid_left];
 1388              		.loc 1 312 9 is_stmt 1 view .LVU459
 312:Drivers/lvgl/src/font/lv_font_fmt_txt.c ****         uint8_t left_class = kdsc->left_class_mapping[gid_left];
 1389              		.loc 1 312 48 is_stmt 0 view .LVU460
 1390 02ac D268     		ldr	r2, [r2, #12]
 1391              	.LVL136:
 313:Drivers/lvgl/src/font/lv_font_fmt_txt.c ****         uint8_t right_class = kdsc->right_class_mapping[gid_right];
 1392              		.loc 1 313 9 is_stmt 1 view .LVU461
 313:Drivers/lvgl/src/font/lv_font_fmt_txt.c ****         uint8_t right_class = kdsc->right_class_mapping[gid_right];
 1393              		.loc 1 313 17 is_stmt 0 view .LVU462
 1394 02ae 5168     		ldr	r1, [r2, #4]
 314:Drivers/lvgl/src/font/lv_font_fmt_txt.c **** 
 1395              		.loc 1 314 17 view .LVU463
 1396 02b0 9068     		ldr	r0, [r2, #8]
 313:Drivers/lvgl/src/font/lv_font_fmt_txt.c ****         uint8_t right_class = kdsc->right_class_mapping[gid_right];
 1397              		.loc 1 313 17 view .LVU464
 1398 02b2 11F80910 		ldrb	r1, [r1, r9]	@ zero_extendqisi2
 1399              	.LVL137:
 314:Drivers/lvgl/src/font/lv_font_fmt_txt.c **** 
 1400              		.loc 1 314 9 is_stmt 1 view .LVU465
 314:Drivers/lvgl/src/font/lv_font_fmt_txt.c **** 
 1401              		.loc 1 314 17 is_stmt 0 view .LVU466
 1402 02b6 C35C     		ldrb	r3, [r0, r3]	@ zero_extendqisi2
 1403              	.LVL138:
 318:Drivers/lvgl/src/font/lv_font_fmt_txt.c ****             value = kdsc->class_pair_values[(left_class - 1) * kdsc->right_class_cnt + (right_class
 1404              		.loc 1 318 9 is_stmt 1 view .LVU467
 318:Drivers/lvgl/src/font/lv_font_fmt_txt.c ****             value = kdsc->class_pair_values[(left_class - 1) * kdsc->right_class_cnt + (right_class
 1405              		.loc 1 318 11 is_stmt 0 view .LVU468
 1406 02b8 0029     		cmp	r1, #0
 1407 02ba 3FF447AF 		beq	.L81
 318:Drivers/lvgl/src/font/lv_font_fmt_txt.c ****             value = kdsc->class_pair_values[(left_class - 1) * kdsc->right_class_cnt + (right_class
 1408              		.loc 1 318 27 view .LVU469
 1409 02be 002B     		cmp	r3, #0
 1410 02c0 3FF444AF 		beq	.L81
 319:Drivers/lvgl/src/font/lv_font_fmt_txt.c ****         }
 1411              		.loc 1 319 13 is_stmt 1 view .LVU470
 1412              	.LVL139:
 319:Drivers/lvgl/src/font/lv_font_fmt_txt.c ****         }
 1413              		.loc 1 319 19 is_stmt 0 view .LVU471
 1414 02c4 1068     		ldr	r0, [r2]
 319:Drivers/lvgl/src/font/lv_font_fmt_txt.c ****         }
 1415              		.loc 1 319 68 view .LVU472
 1416 02c6 527B     		ldrb	r2, [r2, #13]	@ zero_extendqisi2
 1417              	.LVL140:
 319:Drivers/lvgl/src/font/lv_font_fmt_txt.c ****         }
 1418              		.loc 1 319 57 view .LVU473
 1419 02c8 0139     		subs	r1, r1, #1
 1420              	.LVL141:
 319:Drivers/lvgl/src/font/lv_font_fmt_txt.c ****         }
 1421              		.loc 1 319 19 view .LVU474
 1422 02ca 0344     		add	r3, r3, r0
ARM GAS  /var/folders/0z/tsy30v1j4xl4_7kw94k978ww0000gn/T//ccxKMfKW.s 			page 44


 1423              	.LVL142:
 319:Drivers/lvgl/src/font/lv_font_fmt_txt.c ****         }
 1424              		.loc 1 319 19 view .LVU475
 1425 02cc 02FB0133 		mla	r3, r2, r1, r3
 1426              	.LBE176:
 1427              	.LBE179:
 1428              	.LBE185:
 1429              	.LBE197:
 171:Drivers/lvgl/src/font/lv_font_fmt_txt.c **** 
 1430              		.loc 1 171 29 view .LVU476
 1431 02d0 13F9011C 		ldrsb	r1, [r3, #-1]
 1432              	.LVL143:
 171:Drivers/lvgl/src/font/lv_font_fmt_txt.c **** 
 1433              		.loc 1 171 29 view .LVU477
 1434 02d4 3BE7     		b	.L80
 1435              	.LVL144:
 1436              	.L176:
 1437              	.LBB198:
 1438              	.LBB186:
 1439              	.LBB164:
 1440              	.LBB158:
 1441              	.LBB152:
 1442              	.LBB146:
 1443              	.LBB140:
 233:Drivers/lvgl/src/font/lv_font_fmt_txt.c ****             uint16_t * p = _lv_utils_bsearch(&key, fdsc->cmaps[i].unicode_list, fdsc->cmaps[i].list
 1444              		.loc 1 233 13 is_stmt 1 view .LVU478
 233:Drivers/lvgl/src/font/lv_font_fmt_txt.c ****             uint16_t * p = _lv_utils_bsearch(&key, fdsc->cmaps[i].unicode_list, fdsc->cmaps[i].list
 1445              		.loc 1 233 22 is_stmt 0 view .LVU479
 1446 02d6 ADF81430 		strh	r3, [sp, #20]	@ movhi
 234:Drivers/lvgl/src/font/lv_font_fmt_txt.c ****                                              sizeof(fdsc->cmaps[i].unicode_list[0]), unicode_list_c
 1447              		.loc 1 234 13 is_stmt 1 view .LVU480
 234:Drivers/lvgl/src/font/lv_font_fmt_txt.c ****                                              sizeof(fdsc->cmaps[i].unicode_list[0]), unicode_list_c
 1448              		.loc 1 234 28 is_stmt 0 view .LVU481
 1449 02da 1F4B     		ldr	r3, .L177+4
 1450              	.LVL145:
 234:Drivers/lvgl/src/font/lv_font_fmt_txt.c ****                                              sizeof(fdsc->cmaps[i].unicode_list[0]), unicode_list_c
 1451              		.loc 1 234 28 view .LVU482
 1452 02dc 0A8A     		ldrh	r2, [r1, #16]
 1453 02de 8968     		ldr	r1, [r1, #8]
 1454 02e0 0093     		str	r3, [sp]
 1455              	.LVL146:
 234:Drivers/lvgl/src/font/lv_font_fmt_txt.c ****                                              sizeof(fdsc->cmaps[i].unicode_list[0]), unicode_list_c
 1456              		.loc 1 234 28 view .LVU483
 1457 02e2 05A8     		add	r0, sp, #20
 1458 02e4 0223     		movs	r3, #2
 1459 02e6 FFF7FEFF 		bl	_lv_utils_bsearch
 1460              	.LVL147:
 237:Drivers/lvgl/src/font/lv_font_fmt_txt.c ****                 lv_uintptr_t ofs = p - fdsc->cmaps[i].unicode_list;
 1461              		.loc 1 237 13 is_stmt 1 view .LVU484
 237:Drivers/lvgl/src/font/lv_font_fmt_txt.c ****                 lv_uintptr_t ofs = p - fdsc->cmaps[i].unicode_list;
 1462              		.loc 1 237 15 is_stmt 0 view .LVU485
 1463 02ea 50B3     		cbz	r0, .L166
 1464              	.LBB141:
 238:Drivers/lvgl/src/font/lv_font_fmt_txt.c ****                 glyph_id = fdsc->cmaps[i].glyph_id_start + ofs;
 1465              		.loc 1 238 17 is_stmt 1 view .LVU486
 238:Drivers/lvgl/src/font/lv_font_fmt_txt.c ****                 glyph_id = fdsc->cmaps[i].glyph_id_start + ofs;
 1466              		.loc 1 238 51 is_stmt 0 view .LVU487
ARM GAS  /var/folders/0z/tsy30v1j4xl4_7kw94k978ww0000gn/T//ccxKMfKW.s 			page 45


 1467 02ec DAF80830 		ldr	r3, [r10, #8]
 1468              	.LBE141:
 1469              	.LBE140:
 255:Drivers/lvgl/src/font/lv_font_fmt_txt.c ****             fdsc->cache->last_letter = letter;
 1470              		.loc 1 255 16 view .LVU488
 1471 02f0 DAF81420 		ldr	r2, [r10, #20]
 1472              	.LBB143:
 1473              	.LBB142:
 238:Drivers/lvgl/src/font/lv_font_fmt_txt.c ****                 glyph_id = fdsc->cmaps[i].glyph_id_start + ofs;
 1474              		.loc 1 238 51 view .LVU489
 1475 02f4 5B44     		add	r3, r3, fp
 1476              	.LVL148:
 239:Drivers/lvgl/src/font/lv_font_fmt_txt.c ****             }
 1477              		.loc 1 239 17 is_stmt 1 view .LVU490
 238:Drivers/lvgl/src/font/lv_font_fmt_txt.c ****                 glyph_id = fdsc->cmaps[i].glyph_id_start + ofs;
 1478              		.loc 1 238 38 is_stmt 0 view .LVU491
 1479 02f6 9968     		ldr	r1, [r3, #8]
 239:Drivers/lvgl/src/font/lv_font_fmt_txt.c ****             }
 1480              		.loc 1 239 42 view .LVU492
 1481 02f8 DB88     		ldrh	r3, [r3, #6]
 1482              	.LVL149:
 238:Drivers/lvgl/src/font/lv_font_fmt_txt.c ****                 glyph_id = fdsc->cmaps[i].glyph_id_start + ofs;
 1483              		.loc 1 238 38 view .LVU493
 1484 02fa 411A     		subs	r1, r0, r1
 1485              	.LVL150:
 239:Drivers/lvgl/src/font/lv_font_fmt_txt.c ****             }
 1486              		.loc 1 239 26 view .LVU494
 1487 02fc 03EB6103 		add	r3, r3, r1, asr #1
 1488              	.LVL151:
 239:Drivers/lvgl/src/font/lv_font_fmt_txt.c ****             }
 1489              		.loc 1 239 26 view .LVU495
 1490              	.LBE142:
 1491              	.LBE143:
 1492 0300 EDE6     		b	.L89
 1493              	.LVL152:
 1494              	.L172:
 239:Drivers/lvgl/src/font/lv_font_fmt_txt.c ****             }
 1495              		.loc 1 239 26 view .LVU496
 1496              	.LBE146:
 216:Drivers/lvgl/src/font/lv_font_fmt_txt.c **** 
 1497              		.loc 1 216 59 is_stmt 1 view .LVU497
 216:Drivers/lvgl/src/font/lv_font_fmt_txt.c **** 
 1498              		.loc 1 216 77 is_stmt 0 view .LVU498
 1499 0302 5368     		ldr	r3, [r2, #4]
 1500 0304 EEE6     		b	.L84
 1501              	.LVL153:
 1502              	.L164:
 216:Drivers/lvgl/src/font/lv_font_fmt_txt.c **** 
 1503              		.loc 1 216 77 view .LVU499
 1504              	.LBE152:
 1505              	.LBE158:
 1506              	.LBE164:
 1507              	.LBE186:
 1508              	.LBE198:
 1509              	.LBB199:
 1510              	.LBB128:
 1511              	.LBB122:
ARM GAS  /var/folders/0z/tsy30v1j4xl4_7kw94k978ww0000gn/T//ccxKMfKW.s 			page 46


 1512              	.LBB117:
 1513              	.LBB112:
 255:Drivers/lvgl/src/font/lv_font_fmt_txt.c ****             fdsc->cache->last_letter = letter;
 1514              		.loc 1 255 9 is_stmt 1 view .LVU500
 255:Drivers/lvgl/src/font/lv_font_fmt_txt.c ****             fdsc->cache->last_letter = letter;
 1515              		.loc 1 255 16 is_stmt 0 view .LVU501
 1516 0306 7369     		ldr	r3, [r6, #20]
 255:Drivers/lvgl/src/font/lv_font_fmt_txt.c ****             fdsc->cache->last_letter = letter;
 1517              		.loc 1 255 11 view .LVU502
 1518 0308 002B     		cmp	r3, #0
 1519 030a 7FF45FAF 		bne	.L161
 1520 030e 13E7     		b	.L76
 1521              	.LVL154:
 1522              	.L174:
 255:Drivers/lvgl/src/font/lv_font_fmt_txt.c ****             fdsc->cache->last_letter = letter;
 1523              		.loc 1 255 11 view .LVU503
 1524              	.LBE112:
 1525              	.LBE117:
 1526              	.LBE122:
 1527              	.LBE128:
 1528              	.LBE199:
 1529              	.LBB200:
 1530              	.LBB187:
 1531              	.LBB180:
 1532              	.LBB177:
 1533              	.LBB173:
 282:Drivers/lvgl/src/font/lv_font_fmt_txt.c ****             uint16_t g_id_both = (gid_right << 8) + gid_left; /*Create one number from the ids*/
 1534              		.loc 1 282 13 is_stmt 1 view .LVU504
 282:Drivers/lvgl/src/font/lv_font_fmt_txt.c ****             uint16_t g_id_both = (gid_right << 8) + gid_left; /*Create one number from the ids*/
 1535              		.loc 1 282 30 is_stmt 0 view .LVU505
 1536 0310 D7F80080 		ldr	r8, [r7]
 1537              	.LVL155:
 283:Drivers/lvgl/src/font/lv_font_fmt_txt.c ****             uint16_t * kid_p = _lv_utils_bsearch(&g_id_both, g_ids, kdsc->pair_cnt, 2, kern_pair_8_
 1538              		.loc 1 283 13 is_stmt 1 view .LVU506
 284:Drivers/lvgl/src/font/lv_font_fmt_txt.c **** 
 1539              		.loc 1 284 73 is_stmt 0 view .LVU507
 1540 0314 BA68     		ldr	r2, [r7, #8]
 283:Drivers/lvgl/src/font/lv_font_fmt_txt.c ****             uint16_t * kid_p = _lv_utils_bsearch(&g_id_both, g_ids, kdsc->pair_cnt, 2, kern_pair_8_
 1541              		.loc 1 283 51 view .LVU508
 1542 0316 09EB0323 		add	r3, r9, r3, lsl #8
 1543              	.LVL156:
 283:Drivers/lvgl/src/font/lv_font_fmt_txt.c ****             uint16_t * kid_p = _lv_utils_bsearch(&g_id_both, g_ids, kdsc->pair_cnt, 2, kern_pair_8_
 1544              		.loc 1 283 22 view .LVU509
 1545 031a ADF81430 		strh	r3, [sp, #20]	@ movhi
 284:Drivers/lvgl/src/font/lv_font_fmt_txt.c **** 
 1546              		.loc 1 284 13 is_stmt 1 view .LVU510
 284:Drivers/lvgl/src/font/lv_font_fmt_txt.c **** 
 1547              		.loc 1 284 32 is_stmt 0 view .LVU511
 1548 031e 0F4B     		ldr	r3, .L177+8
 1549 0320 0093     		str	r3, [sp]
 1550              	.LVL157:
 284:Drivers/lvgl/src/font/lv_font_fmt_txt.c **** 
 1551              		.loc 1 284 32 view .LVU512
 1552 0322 22F04042 		bic	r2, r2, #-1073741824
 1553 0326 0223     		movs	r3, #2
 1554 0328 4146     		mov	r1, r8
 1555 032a 05A8     		add	r0, sp, #20
ARM GAS  /var/folders/0z/tsy30v1j4xl4_7kw94k978ww0000gn/T//ccxKMfKW.s 			page 47


 1556 032c FFF7FEFF 		bl	_lv_utils_bsearch
 1557              	.LVL158:
 287:Drivers/lvgl/src/font/lv_font_fmt_txt.c ****                 lv_uintptr_t ofs = kid_p - g_ids;
 1558              		.loc 1 287 13 is_stmt 1 view .LVU513
 287:Drivers/lvgl/src/font/lv_font_fmt_txt.c ****                 lv_uintptr_t ofs = kid_p - g_ids;
 1559              		.loc 1 287 15 is_stmt 0 view .LVU514
 1560 0330 0028     		cmp	r0, #0
 1561 0332 3FF40BAF 		beq	.L81
 1562              	.LBB174:
 288:Drivers/lvgl/src/font/lv_font_fmt_txt.c ****                 value = kdsc->values[ofs];
 1563              		.loc 1 288 17 is_stmt 1 view .LVU515
 1564              	.LVL159:
 289:Drivers/lvgl/src/font/lv_font_fmt_txt.c ****             }
 1565              		.loc 1 289 17 view .LVU516
 288:Drivers/lvgl/src/font/lv_font_fmt_txt.c ****                 value = kdsc->values[ofs];
 1566              		.loc 1 288 42 is_stmt 0 view .LVU517
 1567 0336 A0EB0803 		sub	r3, r0, r8
 289:Drivers/lvgl/src/font/lv_font_fmt_txt.c ****             }
 1568              		.loc 1 289 23 view .LVU518
 1569 033a 7A68     		ldr	r2, [r7, #4]
 288:Drivers/lvgl/src/font/lv_font_fmt_txt.c ****                 value = kdsc->values[ofs];
 1570              		.loc 1 288 42 view .LVU519
 1571 033c 5B10     		asrs	r3, r3, #1
 1572              	.LBE174:
 1573              	.LBE173:
 1574              	.LBE177:
 1575              	.LBE180:
 1576              	.LBE187:
 1577              	.LBE200:
 171:Drivers/lvgl/src/font/lv_font_fmt_txt.c **** 
 1578              		.loc 1 171 29 view .LVU520
 1579 033e D156     		ldrsb	r1, [r2, r3]
 1580 0340 05E7     		b	.L80
 1581              	.LVL160:
 1582              	.L166:
 1583              	.LBB201:
 1584              	.LBB188:
 1585              	.LBB165:
 1586              	.LBB159:
 1587              	.LBB153:
 1588              	.LBB147:
 255:Drivers/lvgl/src/font/lv_font_fmt_txt.c ****             fdsc->cache->last_letter = letter;
 1589              		.loc 1 255 9 is_stmt 1 view .LVU521
 255:Drivers/lvgl/src/font/lv_font_fmt_txt.c ****             fdsc->cache->last_letter = letter;
 1590              		.loc 1 255 16 is_stmt 0 view .LVU522
 1591 0342 DAF81430 		ldr	r3, [r10, #20]
 255:Drivers/lvgl/src/font/lv_font_fmt_txt.c ****             fdsc->cache->last_letter = letter;
 1592              		.loc 1 255 11 view .LVU523
 1593 0346 002B     		cmp	r3, #0
 1594 0348 3FF400AF 		beq	.L81
 256:Drivers/lvgl/src/font/lv_font_fmt_txt.c ****             fdsc->cache->last_glyph_id = glyph_id;
 1595              		.loc 1 256 13 is_stmt 1 view .LVU524
 257:Drivers/lvgl/src/font/lv_font_fmt_txt.c ****         }
 1596              		.loc 1 257 40 is_stmt 0 view .LVU525
 1597 034c C3E90080 		strd	r8, r0, [r3]
 1598              	.LVL161:
 257:Drivers/lvgl/src/font/lv_font_fmt_txt.c ****         }
ARM GAS  /var/folders/0z/tsy30v1j4xl4_7kw94k978ww0000gn/T//ccxKMfKW.s 			page 48


 1599              		.loc 1 257 40 view .LVU526
 1600              	.LBE147:
 1601              	.LBE153:
 1602              	.LBE159:
 1603              	.LBE165:
 1604              	.LBE188:
 163:Drivers/lvgl/src/font/lv_font_fmt_txt.c ****             kvalue = get_kern_value(font, gid, gid_next);
 1605              		.loc 1 163 9 is_stmt 1 view .LVU527
 1606              	.LBB189:
 1607              	.LBB166:
 1608              	.LBB160:
 1609              	.LBB154:
 1610              	.LBB148:
 257:Drivers/lvgl/src/font/lv_font_fmt_txt.c ****         }
 1611              		.loc 1 257 40 is_stmt 0 view .LVU528
 1612 0350 0146     		mov	r1, r0
 1613 0352 FCE6     		b	.L80
 1614              	.L178:
 1615              		.align	2
 1616              	.L177:
 1617 0354 00000000 		.word	kern_pair_16_compare
 1618 0358 00000000 		.word	unicode_list_compare
 1619 035c 00000000 		.word	kern_pair_8_compare
 1620              	.LBE148:
 1621              	.LBE154:
 1622              	.LBE160:
 1623              	.LBE166:
 1624              	.LBE189:
 1625              	.LBE201:
 1626              		.cfi_endproc
 1627              	.LFE27:
 1629              		.section	.text._lv_font_clean_up_fmt_txt,"ax",%progbits
 1630              		.align	1
 1631              		.p2align 2,,3
 1632              		.global	_lv_font_clean_up_fmt_txt
 1633              		.syntax unified
 1634              		.thumb
 1635              		.thumb_func
 1637              	_lv_font_clean_up_fmt_txt:
 1638              	.LFB28:
 196:Drivers/lvgl/src/font/lv_font_fmt_txt.c **** #if LV_USE_FONT_COMPRESSED
 1639              		.loc 1 196 1 is_stmt 1 view -0
 1640              		.cfi_startproc
 1641              		@ args = 0, pretend = 0, frame = 0
 1642              		@ frame_needed = 0, uses_anonymous_args = 0
 1643              		@ link register save eliminated.
 203:Drivers/lvgl/src/font/lv_font_fmt_txt.c **** 
 1644              		.loc 1 203 1 view .LVU530
 1645 0000 7047     		bx	lr
 1646              		.cfi_endproc
 1647              	.LFE28:
 1649 0002 00BF     		.text
 1650              	.Letext0:
 1651              		.file 2 "/Users/johannes/Library/Application Support/Code/User/globalStorage/bmd.stm32-for-vscode/
 1652              		.file 3 "/Users/johannes/Library/Application Support/Code/User/globalStorage/bmd.stm32-for-vscode/
 1653              		.file 4 "Drivers/lvgl/src/font/../misc/lv_area.h"
 1654              		.file 5 "Drivers/lvgl/src/font/lv_font.h"
ARM GAS  /var/folders/0z/tsy30v1j4xl4_7kw94k978ww0000gn/T//ccxKMfKW.s 			page 49


 1655              		.file 6 "Drivers/lvgl/src/font/lv_font_fmt_txt.h"
 1656              		.file 7 "Drivers/lvgl/src/font/../misc/lv_types.h"
 1657              		.file 8 "Drivers/lvgl/src/font/../misc/lv_utils.h"
ARM GAS  /var/folders/0z/tsy30v1j4xl4_7kw94k978ww0000gn/T//ccxKMfKW.s 			page 50


DEFINED SYMBOLS
                            *ABS*:0000000000000000 lv_font_fmt_txt.c
/var/folders/0z/tsy30v1j4xl4_7kw94k978ww0000gn/T//ccxKMfKW.s:18     .text.kern_pair_8_compare:0000000000000000 $t
/var/folders/0z/tsy30v1j4xl4_7kw94k978ww0000gn/T//ccxKMfKW.s:24     .text.kern_pair_8_compare:0000000000000000 kern_pair_8_compare
/var/folders/0z/tsy30v1j4xl4_7kw94k978ww0000gn/T//ccxKMfKW.s:60     .text.kern_pair_16_compare:0000000000000000 $t
/var/folders/0z/tsy30v1j4xl4_7kw94k978ww0000gn/T//ccxKMfKW.s:66     .text.kern_pair_16_compare:0000000000000000 kern_pair_16_compare
/var/folders/0z/tsy30v1j4xl4_7kw94k978ww0000gn/T//ccxKMfKW.s:101    .text.unicode_list_compare:0000000000000000 $t
/var/folders/0z/tsy30v1j4xl4_7kw94k978ww0000gn/T//ccxKMfKW.s:107    .text.unicode_list_compare:0000000000000000 unicode_list_compare
/var/folders/0z/tsy30v1j4xl4_7kw94k978ww0000gn/T//ccxKMfKW.s:128    .text.lv_font_get_bitmap_fmt_txt:0000000000000000 $t
/var/folders/0z/tsy30v1j4xl4_7kw94k978ww0000gn/T//ccxKMfKW.s:135    .text.lv_font_get_bitmap_fmt_txt:0000000000000000 lv_font_get_bitmap_fmt_txt
/var/folders/0z/tsy30v1j4xl4_7kw94k978ww0000gn/T//ccxKMfKW.s:535    .text.lv_font_get_bitmap_fmt_txt:0000000000000110 $d
/var/folders/0z/tsy30v1j4xl4_7kw94k978ww0000gn/T//ccxKMfKW.s:540    .text.lv_font_get_glyph_dsc_fmt_txt:0000000000000000 $t
/var/folders/0z/tsy30v1j4xl4_7kw94k978ww0000gn/T//ccxKMfKW.s:547    .text.lv_font_get_glyph_dsc_fmt_txt:0000000000000000 lv_font_get_glyph_dsc_fmt_txt
/var/folders/0z/tsy30v1j4xl4_7kw94k978ww0000gn/T//ccxKMfKW.s:1617   .text.lv_font_get_glyph_dsc_fmt_txt:0000000000000354 $d
/var/folders/0z/tsy30v1j4xl4_7kw94k978ww0000gn/T//ccxKMfKW.s:1630   .text._lv_font_clean_up_fmt_txt:0000000000000000 $t
/var/folders/0z/tsy30v1j4xl4_7kw94k978ww0000gn/T//ccxKMfKW.s:1637   .text._lv_font_clean_up_fmt_txt:0000000000000000 _lv_font_clean_up_fmt_txt

UNDEFINED SYMBOLS
_lv_utils_bsearch
