ARM GAS  /var/folders/0z/tsy30v1j4xl4_7kw94k978ww0000gn/T//cc7dhRUt.s 			page 1


   1              		.cpu cortex-m4
   2              		.arch armv7e-m
   3              		.fpu fpv4-sp-d16
   4              		.eabi_attribute 27, 1
   5              		.eabi_attribute 28, 1
   6              		.eabi_attribute 20, 1
   7              		.eabi_attribute 21, 1
   8              		.eabi_attribute 23, 3
   9              		.eabi_attribute 24, 1
  10              		.eabi_attribute 25, 1
  11              		.eabi_attribute 26, 1
  12              		.eabi_attribute 30, 2
  13              		.eabi_attribute 34, 1
  14              		.eabi_attribute 18, 4
  15              		.file	"lv_font_fmt_txt.c"
  16              		.text
  17              	.Ltext0:
  18              		.cfi_sections	.debug_frame
  19              		.section	.text.kern_pair_8_compare,"ax",%progbits
  20              		.align	1
  21              		.p2align 2,,3
  22              		.syntax unified
  23              		.thumb
  24              		.thumb_func
  26              	kern_pair_8_compare:
  27              	.LVL0:
  28              	.LFB31:
  29              		.file 1 "Drivers/lvgl/src/font/lv_font_fmt_txt.c"
   1:Drivers/lvgl/src/font/lv_font_fmt_txt.c **** /**
   2:Drivers/lvgl/src/font/lv_font_fmt_txt.c ****  * @file lv_font_fmt_txt.c
   3:Drivers/lvgl/src/font/lv_font_fmt_txt.c ****  *
   4:Drivers/lvgl/src/font/lv_font_fmt_txt.c ****  */
   5:Drivers/lvgl/src/font/lv_font_fmt_txt.c **** 
   6:Drivers/lvgl/src/font/lv_font_fmt_txt.c **** /*********************
   7:Drivers/lvgl/src/font/lv_font_fmt_txt.c ****  *      INCLUDES
   8:Drivers/lvgl/src/font/lv_font_fmt_txt.c ****  *********************/
   9:Drivers/lvgl/src/font/lv_font_fmt_txt.c **** #include "lv_font.h"
  10:Drivers/lvgl/src/font/lv_font_fmt_txt.c **** #include "lv_font_fmt_txt.h"
  11:Drivers/lvgl/src/font/lv_font_fmt_txt.c **** #include "../misc/lv_assert.h"
  12:Drivers/lvgl/src/font/lv_font_fmt_txt.c **** #include "../misc/lv_types.h"
  13:Drivers/lvgl/src/font/lv_font_fmt_txt.c **** #include "../misc/lv_gc.h"
  14:Drivers/lvgl/src/font/lv_font_fmt_txt.c **** #include "../misc/lv_log.h"
  15:Drivers/lvgl/src/font/lv_font_fmt_txt.c **** #include "../misc/lv_utils.h"
  16:Drivers/lvgl/src/font/lv_font_fmt_txt.c **** #include "../misc/lv_mem.h"
  17:Drivers/lvgl/src/font/lv_font_fmt_txt.c **** 
  18:Drivers/lvgl/src/font/lv_font_fmt_txt.c **** /*********************
  19:Drivers/lvgl/src/font/lv_font_fmt_txt.c ****  *      DEFINES
  20:Drivers/lvgl/src/font/lv_font_fmt_txt.c ****  *********************/
  21:Drivers/lvgl/src/font/lv_font_fmt_txt.c **** 
  22:Drivers/lvgl/src/font/lv_font_fmt_txt.c **** /**********************
  23:Drivers/lvgl/src/font/lv_font_fmt_txt.c ****  *      TYPEDEFS
  24:Drivers/lvgl/src/font/lv_font_fmt_txt.c ****  **********************/
  25:Drivers/lvgl/src/font/lv_font_fmt_txt.c **** typedef enum {
  26:Drivers/lvgl/src/font/lv_font_fmt_txt.c ****     RLE_STATE_SINGLE = 0,
  27:Drivers/lvgl/src/font/lv_font_fmt_txt.c ****     RLE_STATE_REPEATE,
  28:Drivers/lvgl/src/font/lv_font_fmt_txt.c ****     RLE_STATE_COUNTER,
  29:Drivers/lvgl/src/font/lv_font_fmt_txt.c **** } rle_state_t;
ARM GAS  /var/folders/0z/tsy30v1j4xl4_7kw94k978ww0000gn/T//cc7dhRUt.s 			page 2


  30:Drivers/lvgl/src/font/lv_font_fmt_txt.c **** 
  31:Drivers/lvgl/src/font/lv_font_fmt_txt.c **** /**********************
  32:Drivers/lvgl/src/font/lv_font_fmt_txt.c ****  *  STATIC PROTOTYPES
  33:Drivers/lvgl/src/font/lv_font_fmt_txt.c ****  **********************/
  34:Drivers/lvgl/src/font/lv_font_fmt_txt.c **** static uint32_t get_glyph_dsc_id(const lv_font_t * font, uint32_t letter);
  35:Drivers/lvgl/src/font/lv_font_fmt_txt.c **** static int8_t get_kern_value(const lv_font_t * font, uint32_t gid_left, uint32_t gid_right);
  36:Drivers/lvgl/src/font/lv_font_fmt_txt.c **** static int32_t unicode_list_compare(const void * ref, const void * element);
  37:Drivers/lvgl/src/font/lv_font_fmt_txt.c **** static int32_t kern_pair_8_compare(const void * ref, const void * element);
  38:Drivers/lvgl/src/font/lv_font_fmt_txt.c **** static int32_t kern_pair_16_compare(const void * ref, const void * element);
  39:Drivers/lvgl/src/font/lv_font_fmt_txt.c **** 
  40:Drivers/lvgl/src/font/lv_font_fmt_txt.c **** #if LV_USE_FONT_COMPRESSED
  41:Drivers/lvgl/src/font/lv_font_fmt_txt.c ****     static void decompress(const uint8_t * in, uint8_t * out, lv_coord_t w, lv_coord_t h, uint8_t b
  42:Drivers/lvgl/src/font/lv_font_fmt_txt.c ****     static inline void decompress_line(uint8_t * out, lv_coord_t w);
  43:Drivers/lvgl/src/font/lv_font_fmt_txt.c ****     static inline uint8_t get_bits(const uint8_t * in, uint32_t bit_pos, uint8_t len);
  44:Drivers/lvgl/src/font/lv_font_fmt_txt.c ****     static inline void bits_write(uint8_t * out, uint32_t bit_pos, uint8_t val, uint8_t len);
  45:Drivers/lvgl/src/font/lv_font_fmt_txt.c ****     static inline void rle_init(const uint8_t * in,  uint8_t bpp);
  46:Drivers/lvgl/src/font/lv_font_fmt_txt.c ****     static inline uint8_t rle_next(void);
  47:Drivers/lvgl/src/font/lv_font_fmt_txt.c **** #endif /*LV_USE_FONT_COMPRESSED*/
  48:Drivers/lvgl/src/font/lv_font_fmt_txt.c **** 
  49:Drivers/lvgl/src/font/lv_font_fmt_txt.c **** /**********************
  50:Drivers/lvgl/src/font/lv_font_fmt_txt.c ****  *  STATIC VARIABLES
  51:Drivers/lvgl/src/font/lv_font_fmt_txt.c ****  **********************/
  52:Drivers/lvgl/src/font/lv_font_fmt_txt.c **** #if LV_USE_FONT_COMPRESSED
  53:Drivers/lvgl/src/font/lv_font_fmt_txt.c ****     static uint32_t rle_rdp;
  54:Drivers/lvgl/src/font/lv_font_fmt_txt.c ****     static const uint8_t * rle_in;
  55:Drivers/lvgl/src/font/lv_font_fmt_txt.c ****     static uint8_t rle_bpp;
  56:Drivers/lvgl/src/font/lv_font_fmt_txt.c ****     static uint8_t rle_prev_v;
  57:Drivers/lvgl/src/font/lv_font_fmt_txt.c ****     static uint8_t rle_cnt;
  58:Drivers/lvgl/src/font/lv_font_fmt_txt.c ****     static rle_state_t rle_state;
  59:Drivers/lvgl/src/font/lv_font_fmt_txt.c **** #endif /*LV_USE_FONT_COMPRESSED*/
  60:Drivers/lvgl/src/font/lv_font_fmt_txt.c **** 
  61:Drivers/lvgl/src/font/lv_font_fmt_txt.c **** /**********************
  62:Drivers/lvgl/src/font/lv_font_fmt_txt.c ****  * GLOBAL PROTOTYPES
  63:Drivers/lvgl/src/font/lv_font_fmt_txt.c ****  **********************/
  64:Drivers/lvgl/src/font/lv_font_fmt_txt.c **** 
  65:Drivers/lvgl/src/font/lv_font_fmt_txt.c **** /**********************
  66:Drivers/lvgl/src/font/lv_font_fmt_txt.c ****  *      MACROS
  67:Drivers/lvgl/src/font/lv_font_fmt_txt.c ****  **********************/
  68:Drivers/lvgl/src/font/lv_font_fmt_txt.c **** 
  69:Drivers/lvgl/src/font/lv_font_fmt_txt.c **** /**********************
  70:Drivers/lvgl/src/font/lv_font_fmt_txt.c ****  *   GLOBAL FUNCTIONS
  71:Drivers/lvgl/src/font/lv_font_fmt_txt.c ****  **********************/
  72:Drivers/lvgl/src/font/lv_font_fmt_txt.c **** 
  73:Drivers/lvgl/src/font/lv_font_fmt_txt.c **** /**
  74:Drivers/lvgl/src/font/lv_font_fmt_txt.c ****  * Used as `get_glyph_bitmap` callback in LittelvGL's native font format if the font is uncompresse
  75:Drivers/lvgl/src/font/lv_font_fmt_txt.c ****  * @param font pointer to font
  76:Drivers/lvgl/src/font/lv_font_fmt_txt.c ****  * @param unicode_letter a unicode letter which bitmap should be get
  77:Drivers/lvgl/src/font/lv_font_fmt_txt.c ****  * @return pointer to the bitmap or NULL if not found
  78:Drivers/lvgl/src/font/lv_font_fmt_txt.c ****  */
  79:Drivers/lvgl/src/font/lv_font_fmt_txt.c **** const uint8_t * lv_font_get_bitmap_fmt_txt(const lv_font_t * font, uint32_t unicode_letter)
  80:Drivers/lvgl/src/font/lv_font_fmt_txt.c **** {
  81:Drivers/lvgl/src/font/lv_font_fmt_txt.c ****     if(unicode_letter == '\t') unicode_letter = ' ';
  82:Drivers/lvgl/src/font/lv_font_fmt_txt.c **** 
  83:Drivers/lvgl/src/font/lv_font_fmt_txt.c ****     lv_font_fmt_txt_dsc_t * fdsc = (lv_font_fmt_txt_dsc_t *)font->dsc;
  84:Drivers/lvgl/src/font/lv_font_fmt_txt.c ****     uint32_t gid = get_glyph_dsc_id(font, unicode_letter);
  85:Drivers/lvgl/src/font/lv_font_fmt_txt.c ****     if(!gid) return NULL;
  86:Drivers/lvgl/src/font/lv_font_fmt_txt.c **** 
ARM GAS  /var/folders/0z/tsy30v1j4xl4_7kw94k978ww0000gn/T//cc7dhRUt.s 			page 3


  87:Drivers/lvgl/src/font/lv_font_fmt_txt.c ****     const lv_font_fmt_txt_glyph_dsc_t * gdsc = &fdsc->glyph_dsc[gid];
  88:Drivers/lvgl/src/font/lv_font_fmt_txt.c **** 
  89:Drivers/lvgl/src/font/lv_font_fmt_txt.c ****     if(fdsc->bitmap_format == LV_FONT_FMT_TXT_PLAIN) {
  90:Drivers/lvgl/src/font/lv_font_fmt_txt.c ****         return &fdsc->glyph_bitmap[gdsc->bitmap_index];
  91:Drivers/lvgl/src/font/lv_font_fmt_txt.c ****     }
  92:Drivers/lvgl/src/font/lv_font_fmt_txt.c ****     /*Handle compressed bitmap*/
  93:Drivers/lvgl/src/font/lv_font_fmt_txt.c ****     else {
  94:Drivers/lvgl/src/font/lv_font_fmt_txt.c **** #if LV_USE_FONT_COMPRESSED
  95:Drivers/lvgl/src/font/lv_font_fmt_txt.c ****         static size_t last_buf_size = 0;
  96:Drivers/lvgl/src/font/lv_font_fmt_txt.c ****         if(LV_GC_ROOT(_lv_font_decompr_buf) == NULL) last_buf_size = 0;
  97:Drivers/lvgl/src/font/lv_font_fmt_txt.c **** 
  98:Drivers/lvgl/src/font/lv_font_fmt_txt.c ****         uint32_t gsize = gdsc->box_w * gdsc->box_h;
  99:Drivers/lvgl/src/font/lv_font_fmt_txt.c ****         if(gsize == 0) return NULL;
 100:Drivers/lvgl/src/font/lv_font_fmt_txt.c **** 
 101:Drivers/lvgl/src/font/lv_font_fmt_txt.c ****         uint32_t buf_size = gsize;
 102:Drivers/lvgl/src/font/lv_font_fmt_txt.c ****         /*Compute memory size needed to hold decompressed glyph, rounding up*/
 103:Drivers/lvgl/src/font/lv_font_fmt_txt.c ****         switch(fdsc->bpp) {
 104:Drivers/lvgl/src/font/lv_font_fmt_txt.c ****             case 1:
 105:Drivers/lvgl/src/font/lv_font_fmt_txt.c ****                 buf_size = (gsize + 7) >> 3;
 106:Drivers/lvgl/src/font/lv_font_fmt_txt.c ****                 break;
 107:Drivers/lvgl/src/font/lv_font_fmt_txt.c ****             case 2:
 108:Drivers/lvgl/src/font/lv_font_fmt_txt.c ****                 buf_size = (gsize + 3) >> 2;
 109:Drivers/lvgl/src/font/lv_font_fmt_txt.c ****                 break;
 110:Drivers/lvgl/src/font/lv_font_fmt_txt.c ****             case 3:
 111:Drivers/lvgl/src/font/lv_font_fmt_txt.c ****                 buf_size = (gsize + 1) >> 1;
 112:Drivers/lvgl/src/font/lv_font_fmt_txt.c ****                 break;
 113:Drivers/lvgl/src/font/lv_font_fmt_txt.c ****             case 4:
 114:Drivers/lvgl/src/font/lv_font_fmt_txt.c ****                 buf_size = (gsize + 1) >> 1;
 115:Drivers/lvgl/src/font/lv_font_fmt_txt.c ****                 break;
 116:Drivers/lvgl/src/font/lv_font_fmt_txt.c ****         }
 117:Drivers/lvgl/src/font/lv_font_fmt_txt.c **** 
 118:Drivers/lvgl/src/font/lv_font_fmt_txt.c ****         if(last_buf_size < buf_size) {
 119:Drivers/lvgl/src/font/lv_font_fmt_txt.c ****             uint8_t * tmp = lv_mem_realloc(LV_GC_ROOT(_lv_font_decompr_buf), buf_size);
 120:Drivers/lvgl/src/font/lv_font_fmt_txt.c ****             LV_ASSERT_MALLOC(tmp);
 121:Drivers/lvgl/src/font/lv_font_fmt_txt.c ****             if(tmp == NULL) return NULL;
 122:Drivers/lvgl/src/font/lv_font_fmt_txt.c ****             LV_GC_ROOT(_lv_font_decompr_buf) = tmp;
 123:Drivers/lvgl/src/font/lv_font_fmt_txt.c ****             last_buf_size = buf_size;
 124:Drivers/lvgl/src/font/lv_font_fmt_txt.c ****         }
 125:Drivers/lvgl/src/font/lv_font_fmt_txt.c **** 
 126:Drivers/lvgl/src/font/lv_font_fmt_txt.c ****         bool prefilter = fdsc->bitmap_format == LV_FONT_FMT_TXT_COMPRESSED ? true : false;
 127:Drivers/lvgl/src/font/lv_font_fmt_txt.c ****         decompress(&fdsc->glyph_bitmap[gdsc->bitmap_index], LV_GC_ROOT(_lv_font_decompr_buf), gdsc-
 128:Drivers/lvgl/src/font/lv_font_fmt_txt.c ****                    (uint8_t)fdsc->bpp, prefilter);
 129:Drivers/lvgl/src/font/lv_font_fmt_txt.c ****         return LV_GC_ROOT(_lv_font_decompr_buf);
 130:Drivers/lvgl/src/font/lv_font_fmt_txt.c **** #else /*!LV_USE_FONT_COMPRESSED*/
 131:Drivers/lvgl/src/font/lv_font_fmt_txt.c ****         LV_LOG_WARN("Compressed fonts is used but LV_USE_FONT_COMPRESSED is not enabled in lv_conf.
 132:Drivers/lvgl/src/font/lv_font_fmt_txt.c ****         return NULL;
 133:Drivers/lvgl/src/font/lv_font_fmt_txt.c **** #endif
 134:Drivers/lvgl/src/font/lv_font_fmt_txt.c ****     }
 135:Drivers/lvgl/src/font/lv_font_fmt_txt.c **** 
 136:Drivers/lvgl/src/font/lv_font_fmt_txt.c ****     /*If not returned earlier then the letter is not found in this font*/
 137:Drivers/lvgl/src/font/lv_font_fmt_txt.c ****     return NULL;
 138:Drivers/lvgl/src/font/lv_font_fmt_txt.c **** }
 139:Drivers/lvgl/src/font/lv_font_fmt_txt.c **** 
 140:Drivers/lvgl/src/font/lv_font_fmt_txt.c **** /**
 141:Drivers/lvgl/src/font/lv_font_fmt_txt.c ****  * Used as `get_glyph_dsc` callback in LittelvGL's native font format if the font is uncompressed.
 142:Drivers/lvgl/src/font/lv_font_fmt_txt.c ****  * @param font_p pointer to font
 143:Drivers/lvgl/src/font/lv_font_fmt_txt.c ****  * @param dsc_out store the result descriptor here
ARM GAS  /var/folders/0z/tsy30v1j4xl4_7kw94k978ww0000gn/T//cc7dhRUt.s 			page 4


 144:Drivers/lvgl/src/font/lv_font_fmt_txt.c ****  * @param letter a UNICODE letter code
 145:Drivers/lvgl/src/font/lv_font_fmt_txt.c ****  * @return true: descriptor is successfully loaded into `dsc_out`.
 146:Drivers/lvgl/src/font/lv_font_fmt_txt.c ****  *         false: the letter was not found, no data is loaded to `dsc_out`
 147:Drivers/lvgl/src/font/lv_font_fmt_txt.c ****  */
 148:Drivers/lvgl/src/font/lv_font_fmt_txt.c **** bool lv_font_get_glyph_dsc_fmt_txt(const lv_font_t * font, lv_font_glyph_dsc_t * dsc_out, uint32_t 
 149:Drivers/lvgl/src/font/lv_font_fmt_txt.c ****                                    uint32_t unicode_letter_next)
 150:Drivers/lvgl/src/font/lv_font_fmt_txt.c **** {
 151:Drivers/lvgl/src/font/lv_font_fmt_txt.c ****     /*It fixes a strange compiler optimization issue: https://github.com/lvgl/lvgl/issues/4370*/
 152:Drivers/lvgl/src/font/lv_font_fmt_txt.c ****     bool is_tab = unicode_letter == '\t';
 153:Drivers/lvgl/src/font/lv_font_fmt_txt.c ****     if(is_tab) {
 154:Drivers/lvgl/src/font/lv_font_fmt_txt.c ****         unicode_letter = ' ';
 155:Drivers/lvgl/src/font/lv_font_fmt_txt.c ****     }
 156:Drivers/lvgl/src/font/lv_font_fmt_txt.c ****     lv_font_fmt_txt_dsc_t * fdsc = (lv_font_fmt_txt_dsc_t *)font->dsc;
 157:Drivers/lvgl/src/font/lv_font_fmt_txt.c ****     uint32_t gid = get_glyph_dsc_id(font, unicode_letter);
 158:Drivers/lvgl/src/font/lv_font_fmt_txt.c ****     if(!gid) return false;
 159:Drivers/lvgl/src/font/lv_font_fmt_txt.c **** 
 160:Drivers/lvgl/src/font/lv_font_fmt_txt.c ****     int8_t kvalue = 0;
 161:Drivers/lvgl/src/font/lv_font_fmt_txt.c ****     if(fdsc->kern_dsc) {
 162:Drivers/lvgl/src/font/lv_font_fmt_txt.c ****         uint32_t gid_next = get_glyph_dsc_id(font, unicode_letter_next);
 163:Drivers/lvgl/src/font/lv_font_fmt_txt.c ****         if(gid_next) {
 164:Drivers/lvgl/src/font/lv_font_fmt_txt.c ****             kvalue = get_kern_value(font, gid, gid_next);
 165:Drivers/lvgl/src/font/lv_font_fmt_txt.c ****         }
 166:Drivers/lvgl/src/font/lv_font_fmt_txt.c ****     }
 167:Drivers/lvgl/src/font/lv_font_fmt_txt.c **** 
 168:Drivers/lvgl/src/font/lv_font_fmt_txt.c ****     /*Put together a glyph dsc*/
 169:Drivers/lvgl/src/font/lv_font_fmt_txt.c ****     const lv_font_fmt_txt_glyph_dsc_t * gdsc = &fdsc->glyph_dsc[gid];
 170:Drivers/lvgl/src/font/lv_font_fmt_txt.c **** 
 171:Drivers/lvgl/src/font/lv_font_fmt_txt.c ****     int32_t kv = ((int32_t)((int32_t)kvalue * fdsc->kern_scale) >> 4);
 172:Drivers/lvgl/src/font/lv_font_fmt_txt.c **** 
 173:Drivers/lvgl/src/font/lv_font_fmt_txt.c ****     uint32_t adv_w = gdsc->adv_w;
 174:Drivers/lvgl/src/font/lv_font_fmt_txt.c ****     if(is_tab) adv_w *= 2;
 175:Drivers/lvgl/src/font/lv_font_fmt_txt.c **** 
 176:Drivers/lvgl/src/font/lv_font_fmt_txt.c ****     adv_w += kv;
 177:Drivers/lvgl/src/font/lv_font_fmt_txt.c ****     adv_w  = (adv_w + (1 << 3)) >> 4;
 178:Drivers/lvgl/src/font/lv_font_fmt_txt.c **** 
 179:Drivers/lvgl/src/font/lv_font_fmt_txt.c ****     dsc_out->adv_w = adv_w;
 180:Drivers/lvgl/src/font/lv_font_fmt_txt.c ****     dsc_out->box_h = gdsc->box_h;
 181:Drivers/lvgl/src/font/lv_font_fmt_txt.c ****     dsc_out->box_w = gdsc->box_w;
 182:Drivers/lvgl/src/font/lv_font_fmt_txt.c ****     dsc_out->ofs_x = gdsc->ofs_x;
 183:Drivers/lvgl/src/font/lv_font_fmt_txt.c ****     dsc_out->ofs_y = gdsc->ofs_y;
 184:Drivers/lvgl/src/font/lv_font_fmt_txt.c ****     dsc_out->bpp   = (uint8_t)fdsc->bpp;
 185:Drivers/lvgl/src/font/lv_font_fmt_txt.c ****     dsc_out->is_placeholder = false;
 186:Drivers/lvgl/src/font/lv_font_fmt_txt.c **** 
 187:Drivers/lvgl/src/font/lv_font_fmt_txt.c ****     if(is_tab) dsc_out->box_w = dsc_out->box_w * 2;
 188:Drivers/lvgl/src/font/lv_font_fmt_txt.c **** 
 189:Drivers/lvgl/src/font/lv_font_fmt_txt.c ****     return true;
 190:Drivers/lvgl/src/font/lv_font_fmt_txt.c **** }
 191:Drivers/lvgl/src/font/lv_font_fmt_txt.c **** 
 192:Drivers/lvgl/src/font/lv_font_fmt_txt.c **** /**
 193:Drivers/lvgl/src/font/lv_font_fmt_txt.c ****  * Free the allocated memories.
 194:Drivers/lvgl/src/font/lv_font_fmt_txt.c ****  */
 195:Drivers/lvgl/src/font/lv_font_fmt_txt.c **** void _lv_font_clean_up_fmt_txt(void)
 196:Drivers/lvgl/src/font/lv_font_fmt_txt.c **** {
 197:Drivers/lvgl/src/font/lv_font_fmt_txt.c **** #if LV_USE_FONT_COMPRESSED
 198:Drivers/lvgl/src/font/lv_font_fmt_txt.c ****     if(LV_GC_ROOT(_lv_font_decompr_buf)) {
 199:Drivers/lvgl/src/font/lv_font_fmt_txt.c ****         lv_mem_free(LV_GC_ROOT(_lv_font_decompr_buf));
 200:Drivers/lvgl/src/font/lv_font_fmt_txt.c ****         LV_GC_ROOT(_lv_font_decompr_buf) = NULL;
ARM GAS  /var/folders/0z/tsy30v1j4xl4_7kw94k978ww0000gn/T//cc7dhRUt.s 			page 5


 201:Drivers/lvgl/src/font/lv_font_fmt_txt.c ****     }
 202:Drivers/lvgl/src/font/lv_font_fmt_txt.c **** #endif
 203:Drivers/lvgl/src/font/lv_font_fmt_txt.c **** }
 204:Drivers/lvgl/src/font/lv_font_fmt_txt.c **** 
 205:Drivers/lvgl/src/font/lv_font_fmt_txt.c **** /**********************
 206:Drivers/lvgl/src/font/lv_font_fmt_txt.c ****  *   STATIC FUNCTIONS
 207:Drivers/lvgl/src/font/lv_font_fmt_txt.c ****  **********************/
 208:Drivers/lvgl/src/font/lv_font_fmt_txt.c **** 
 209:Drivers/lvgl/src/font/lv_font_fmt_txt.c **** static uint32_t get_glyph_dsc_id(const lv_font_t * font, uint32_t letter)
 210:Drivers/lvgl/src/font/lv_font_fmt_txt.c **** {
 211:Drivers/lvgl/src/font/lv_font_fmt_txt.c ****     if(letter == '\0') return 0;
 212:Drivers/lvgl/src/font/lv_font_fmt_txt.c **** 
 213:Drivers/lvgl/src/font/lv_font_fmt_txt.c ****     lv_font_fmt_txt_dsc_t * fdsc = (lv_font_fmt_txt_dsc_t *)font->dsc;
 214:Drivers/lvgl/src/font/lv_font_fmt_txt.c **** 
 215:Drivers/lvgl/src/font/lv_font_fmt_txt.c ****     /*Check the cache first*/
 216:Drivers/lvgl/src/font/lv_font_fmt_txt.c ****     if(fdsc->cache && letter == fdsc->cache->last_letter) return fdsc->cache->last_glyph_id;
 217:Drivers/lvgl/src/font/lv_font_fmt_txt.c **** 
 218:Drivers/lvgl/src/font/lv_font_fmt_txt.c ****     uint16_t i;
 219:Drivers/lvgl/src/font/lv_font_fmt_txt.c ****     for(i = 0; i < fdsc->cmap_num; i++) {
 220:Drivers/lvgl/src/font/lv_font_fmt_txt.c **** 
 221:Drivers/lvgl/src/font/lv_font_fmt_txt.c ****         /*Relative code point*/
 222:Drivers/lvgl/src/font/lv_font_fmt_txt.c ****         uint32_t rcp = letter - fdsc->cmaps[i].range_start;
 223:Drivers/lvgl/src/font/lv_font_fmt_txt.c ****         if(rcp > fdsc->cmaps[i].range_length) continue;
 224:Drivers/lvgl/src/font/lv_font_fmt_txt.c ****         uint32_t glyph_id = 0;
 225:Drivers/lvgl/src/font/lv_font_fmt_txt.c ****         if(fdsc->cmaps[i].type == LV_FONT_FMT_TXT_CMAP_FORMAT0_TINY) {
 226:Drivers/lvgl/src/font/lv_font_fmt_txt.c ****             glyph_id = fdsc->cmaps[i].glyph_id_start + rcp;
 227:Drivers/lvgl/src/font/lv_font_fmt_txt.c ****         }
 228:Drivers/lvgl/src/font/lv_font_fmt_txt.c ****         else if(fdsc->cmaps[i].type == LV_FONT_FMT_TXT_CMAP_FORMAT0_FULL) {
 229:Drivers/lvgl/src/font/lv_font_fmt_txt.c ****             const uint8_t * gid_ofs_8 = fdsc->cmaps[i].glyph_id_ofs_list;
 230:Drivers/lvgl/src/font/lv_font_fmt_txt.c ****             glyph_id = fdsc->cmaps[i].glyph_id_start + gid_ofs_8[rcp];
 231:Drivers/lvgl/src/font/lv_font_fmt_txt.c ****         }
 232:Drivers/lvgl/src/font/lv_font_fmt_txt.c ****         else if(fdsc->cmaps[i].type == LV_FONT_FMT_TXT_CMAP_SPARSE_TINY) {
 233:Drivers/lvgl/src/font/lv_font_fmt_txt.c ****             uint16_t key = rcp;
 234:Drivers/lvgl/src/font/lv_font_fmt_txt.c ****             uint16_t * p = _lv_utils_bsearch(&key, fdsc->cmaps[i].unicode_list, fdsc->cmaps[i].list
 235:Drivers/lvgl/src/font/lv_font_fmt_txt.c ****                                              sizeof(fdsc->cmaps[i].unicode_list[0]), unicode_list_c
 236:Drivers/lvgl/src/font/lv_font_fmt_txt.c **** 
 237:Drivers/lvgl/src/font/lv_font_fmt_txt.c ****             if(p) {
 238:Drivers/lvgl/src/font/lv_font_fmt_txt.c ****                 lv_uintptr_t ofs = p - fdsc->cmaps[i].unicode_list;
 239:Drivers/lvgl/src/font/lv_font_fmt_txt.c ****                 glyph_id = fdsc->cmaps[i].glyph_id_start + ofs;
 240:Drivers/lvgl/src/font/lv_font_fmt_txt.c ****             }
 241:Drivers/lvgl/src/font/lv_font_fmt_txt.c ****         }
 242:Drivers/lvgl/src/font/lv_font_fmt_txt.c ****         else if(fdsc->cmaps[i].type == LV_FONT_FMT_TXT_CMAP_SPARSE_FULL) {
 243:Drivers/lvgl/src/font/lv_font_fmt_txt.c ****             uint16_t key = rcp;
 244:Drivers/lvgl/src/font/lv_font_fmt_txt.c ****             uint16_t * p = _lv_utils_bsearch(&key, fdsc->cmaps[i].unicode_list, fdsc->cmaps[i].list
 245:Drivers/lvgl/src/font/lv_font_fmt_txt.c ****                                              sizeof(fdsc->cmaps[i].unicode_list[0]), unicode_list_c
 246:Drivers/lvgl/src/font/lv_font_fmt_txt.c **** 
 247:Drivers/lvgl/src/font/lv_font_fmt_txt.c ****             if(p) {
 248:Drivers/lvgl/src/font/lv_font_fmt_txt.c ****                 lv_uintptr_t ofs = p - fdsc->cmaps[i].unicode_list;
 249:Drivers/lvgl/src/font/lv_font_fmt_txt.c ****                 const uint16_t * gid_ofs_16 = fdsc->cmaps[i].glyph_id_ofs_list;
 250:Drivers/lvgl/src/font/lv_font_fmt_txt.c ****                 glyph_id = fdsc->cmaps[i].glyph_id_start + gid_ofs_16[ofs];
 251:Drivers/lvgl/src/font/lv_font_fmt_txt.c ****             }
 252:Drivers/lvgl/src/font/lv_font_fmt_txt.c ****         }
 253:Drivers/lvgl/src/font/lv_font_fmt_txt.c **** 
 254:Drivers/lvgl/src/font/lv_font_fmt_txt.c ****         /*Update the cache*/
 255:Drivers/lvgl/src/font/lv_font_fmt_txt.c ****         if(fdsc->cache) {
 256:Drivers/lvgl/src/font/lv_font_fmt_txt.c ****             fdsc->cache->last_letter = letter;
 257:Drivers/lvgl/src/font/lv_font_fmt_txt.c ****             fdsc->cache->last_glyph_id = glyph_id;
ARM GAS  /var/folders/0z/tsy30v1j4xl4_7kw94k978ww0000gn/T//cc7dhRUt.s 			page 6


 258:Drivers/lvgl/src/font/lv_font_fmt_txt.c ****         }
 259:Drivers/lvgl/src/font/lv_font_fmt_txt.c ****         return glyph_id;
 260:Drivers/lvgl/src/font/lv_font_fmt_txt.c ****     }
 261:Drivers/lvgl/src/font/lv_font_fmt_txt.c **** 
 262:Drivers/lvgl/src/font/lv_font_fmt_txt.c ****     if(fdsc->cache) {
 263:Drivers/lvgl/src/font/lv_font_fmt_txt.c ****         fdsc->cache->last_letter = letter;
 264:Drivers/lvgl/src/font/lv_font_fmt_txt.c ****         fdsc->cache->last_glyph_id = 0;
 265:Drivers/lvgl/src/font/lv_font_fmt_txt.c ****     }
 266:Drivers/lvgl/src/font/lv_font_fmt_txt.c ****     return 0;
 267:Drivers/lvgl/src/font/lv_font_fmt_txt.c **** 
 268:Drivers/lvgl/src/font/lv_font_fmt_txt.c **** }
 269:Drivers/lvgl/src/font/lv_font_fmt_txt.c **** 
 270:Drivers/lvgl/src/font/lv_font_fmt_txt.c **** static int8_t get_kern_value(const lv_font_t * font, uint32_t gid_left, uint32_t gid_right)
 271:Drivers/lvgl/src/font/lv_font_fmt_txt.c **** {
 272:Drivers/lvgl/src/font/lv_font_fmt_txt.c ****     lv_font_fmt_txt_dsc_t * fdsc = (lv_font_fmt_txt_dsc_t *)font->dsc;
 273:Drivers/lvgl/src/font/lv_font_fmt_txt.c **** 
 274:Drivers/lvgl/src/font/lv_font_fmt_txt.c ****     int8_t value = 0;
 275:Drivers/lvgl/src/font/lv_font_fmt_txt.c **** 
 276:Drivers/lvgl/src/font/lv_font_fmt_txt.c ****     if(fdsc->kern_classes == 0) {
 277:Drivers/lvgl/src/font/lv_font_fmt_txt.c ****         /*Kern pairs*/
 278:Drivers/lvgl/src/font/lv_font_fmt_txt.c ****         const lv_font_fmt_txt_kern_pair_t * kdsc = fdsc->kern_dsc;
 279:Drivers/lvgl/src/font/lv_font_fmt_txt.c ****         if(kdsc->glyph_ids_size == 0) {
 280:Drivers/lvgl/src/font/lv_font_fmt_txt.c ****             /*Use binary search to find the kern value.
 281:Drivers/lvgl/src/font/lv_font_fmt_txt.c ****              *The pairs are ordered left_id first, then right_id secondly.*/
 282:Drivers/lvgl/src/font/lv_font_fmt_txt.c ****             const uint16_t * g_ids = kdsc->glyph_ids;
 283:Drivers/lvgl/src/font/lv_font_fmt_txt.c ****             uint16_t g_id_both = (gid_right << 8) + gid_left; /*Create one number from the ids*/
 284:Drivers/lvgl/src/font/lv_font_fmt_txt.c ****             uint16_t * kid_p = _lv_utils_bsearch(&g_id_both, g_ids, kdsc->pair_cnt, 2, kern_pair_8_
 285:Drivers/lvgl/src/font/lv_font_fmt_txt.c **** 
 286:Drivers/lvgl/src/font/lv_font_fmt_txt.c ****             /*If the `g_id_both` were found get its index from the pointer*/
 287:Drivers/lvgl/src/font/lv_font_fmt_txt.c ****             if(kid_p) {
 288:Drivers/lvgl/src/font/lv_font_fmt_txt.c ****                 lv_uintptr_t ofs = kid_p - g_ids;
 289:Drivers/lvgl/src/font/lv_font_fmt_txt.c ****                 value = kdsc->values[ofs];
 290:Drivers/lvgl/src/font/lv_font_fmt_txt.c ****             }
 291:Drivers/lvgl/src/font/lv_font_fmt_txt.c ****         }
 292:Drivers/lvgl/src/font/lv_font_fmt_txt.c ****         else if(kdsc->glyph_ids_size == 1) {
 293:Drivers/lvgl/src/font/lv_font_fmt_txt.c ****             /*Use binary search to find the kern value.
 294:Drivers/lvgl/src/font/lv_font_fmt_txt.c ****              *The pairs are ordered left_id first, then right_id secondly.*/
 295:Drivers/lvgl/src/font/lv_font_fmt_txt.c ****             const uint32_t * g_ids = kdsc->glyph_ids;
 296:Drivers/lvgl/src/font/lv_font_fmt_txt.c ****             uint32_t g_id_both = (gid_right << 16) + gid_left; /*Create one number from the ids*/
 297:Drivers/lvgl/src/font/lv_font_fmt_txt.c ****             uint32_t * kid_p = _lv_utils_bsearch(&g_id_both, g_ids, kdsc->pair_cnt, 4, kern_pair_16
 298:Drivers/lvgl/src/font/lv_font_fmt_txt.c **** 
 299:Drivers/lvgl/src/font/lv_font_fmt_txt.c ****             /*If the `g_id_both` were found get its index from the pointer*/
 300:Drivers/lvgl/src/font/lv_font_fmt_txt.c ****             if(kid_p) {
 301:Drivers/lvgl/src/font/lv_font_fmt_txt.c ****                 lv_uintptr_t ofs = kid_p - g_ids;
 302:Drivers/lvgl/src/font/lv_font_fmt_txt.c ****                 value = kdsc->values[ofs];
 303:Drivers/lvgl/src/font/lv_font_fmt_txt.c ****             }
 304:Drivers/lvgl/src/font/lv_font_fmt_txt.c **** 
 305:Drivers/lvgl/src/font/lv_font_fmt_txt.c ****         }
 306:Drivers/lvgl/src/font/lv_font_fmt_txt.c ****         else {
 307:Drivers/lvgl/src/font/lv_font_fmt_txt.c ****             /*Invalid value*/
 308:Drivers/lvgl/src/font/lv_font_fmt_txt.c ****         }
 309:Drivers/lvgl/src/font/lv_font_fmt_txt.c ****     }
 310:Drivers/lvgl/src/font/lv_font_fmt_txt.c ****     else {
 311:Drivers/lvgl/src/font/lv_font_fmt_txt.c ****         /*Kern classes*/
 312:Drivers/lvgl/src/font/lv_font_fmt_txt.c ****         const lv_font_fmt_txt_kern_classes_t * kdsc = fdsc->kern_dsc;
 313:Drivers/lvgl/src/font/lv_font_fmt_txt.c ****         uint8_t left_class = kdsc->left_class_mapping[gid_left];
 314:Drivers/lvgl/src/font/lv_font_fmt_txt.c ****         uint8_t right_class = kdsc->right_class_mapping[gid_right];
ARM GAS  /var/folders/0z/tsy30v1j4xl4_7kw94k978ww0000gn/T//cc7dhRUt.s 			page 7


 315:Drivers/lvgl/src/font/lv_font_fmt_txt.c **** 
 316:Drivers/lvgl/src/font/lv_font_fmt_txt.c ****         /*If class = 0, kerning not exist for that glyph
 317:Drivers/lvgl/src/font/lv_font_fmt_txt.c ****          *else got the value form `class_pair_values` 2D array*/
 318:Drivers/lvgl/src/font/lv_font_fmt_txt.c ****         if(left_class > 0 && right_class > 0) {
 319:Drivers/lvgl/src/font/lv_font_fmt_txt.c ****             value = kdsc->class_pair_values[(left_class - 1) * kdsc->right_class_cnt + (right_class
 320:Drivers/lvgl/src/font/lv_font_fmt_txt.c ****         }
 321:Drivers/lvgl/src/font/lv_font_fmt_txt.c **** 
 322:Drivers/lvgl/src/font/lv_font_fmt_txt.c ****     }
 323:Drivers/lvgl/src/font/lv_font_fmt_txt.c ****     return value;
 324:Drivers/lvgl/src/font/lv_font_fmt_txt.c **** }
 325:Drivers/lvgl/src/font/lv_font_fmt_txt.c **** 
 326:Drivers/lvgl/src/font/lv_font_fmt_txt.c **** static int32_t kern_pair_8_compare(const void * ref, const void * element)
 327:Drivers/lvgl/src/font/lv_font_fmt_txt.c **** {
  30              		.loc 1 327 1 view -0
  31              		.cfi_startproc
  32              		@ args = 0, pretend = 0, frame = 0
  33              		@ frame_needed = 0, uses_anonymous_args = 0
  34              		@ link register save eliminated.
 328:Drivers/lvgl/src/font/lv_font_fmt_txt.c ****     const uint8_t * ref8_p = ref;
  35              		.loc 1 328 5 view .LVU1
 329:Drivers/lvgl/src/font/lv_font_fmt_txt.c ****     const uint8_t * element8_p = element;
  36              		.loc 1 329 5 view .LVU2
 330:Drivers/lvgl/src/font/lv_font_fmt_txt.c **** 
 331:Drivers/lvgl/src/font/lv_font_fmt_txt.c ****     /*If the MSB is different it will matter. If not return the diff. of the LSB*/
 332:Drivers/lvgl/src/font/lv_font_fmt_txt.c ****     if(ref8_p[0] != element8_p[0]) return (int32_t)ref8_p[0] - element8_p[0];
  37              		.loc 1 332 5 view .LVU3
  38              		.loc 1 332 14 is_stmt 0 view .LVU4
  39 0000 0378     		ldrb	r3, [r0]	@ zero_extendqisi2
  40              		.loc 1 332 31 view .LVU5
  41 0002 0A78     		ldrb	r2, [r1]	@ zero_extendqisi2
  42              		.loc 1 332 7 view .LVU6
  43 0004 9342     		cmp	r3, r2
  44              		.loc 1 332 36 is_stmt 1 view .LVU7
 333:Drivers/lvgl/src/font/lv_font_fmt_txt.c ****     else return (int32_t) ref8_p[1] - element8_p[1];
  45              		.loc 1 333 49 is_stmt 0 view .LVU8
  46 0006 09BF     		itett	eq
  47 0008 4B78     		ldrbeq	r3, [r1, #1]	@ zero_extendqisi2
 332:Drivers/lvgl/src/font/lv_font_fmt_txt.c ****     else return (int32_t) ref8_p[1] - element8_p[1];
  48              		.loc 1 332 62 view .LVU9
  49 000a 981A     		subne	r0, r3, r2
  50              	.LVL1:
  51              		.loc 1 333 10 is_stmt 1 view .LVU10
  52              		.loc 1 333 17 is_stmt 0 view .LVU11
  53 000c 4078     		ldrbeq	r0, [r0, #1]	@ zero_extendqisi2
  54              		.loc 1 333 37 view .LVU12
  55 000e C01A     		subeq	r0, r0, r3
 334:Drivers/lvgl/src/font/lv_font_fmt_txt.c **** 
 335:Drivers/lvgl/src/font/lv_font_fmt_txt.c **** }
  56              		.loc 1 335 1 view .LVU13
  57 0010 7047     		bx	lr
  58              		.cfi_endproc
  59              	.LFE31:
  61 0012 00BF     		.section	.text.kern_pair_16_compare,"ax",%progbits
  62              		.align	1
  63              		.p2align 2,,3
  64              		.syntax unified
  65              		.thumb
ARM GAS  /var/folders/0z/tsy30v1j4xl4_7kw94k978ww0000gn/T//cc7dhRUt.s 			page 8


  66              		.thumb_func
  68              	kern_pair_16_compare:
  69              	.LVL2:
  70              	.LFB32:
 336:Drivers/lvgl/src/font/lv_font_fmt_txt.c **** 
 337:Drivers/lvgl/src/font/lv_font_fmt_txt.c **** static int32_t kern_pair_16_compare(const void * ref, const void * element)
 338:Drivers/lvgl/src/font/lv_font_fmt_txt.c **** {
  71              		.loc 1 338 1 is_stmt 1 view -0
  72              		.cfi_startproc
  73              		@ args = 0, pretend = 0, frame = 0
  74              		@ frame_needed = 0, uses_anonymous_args = 0
  75              		@ link register save eliminated.
 339:Drivers/lvgl/src/font/lv_font_fmt_txt.c ****     const uint16_t * ref16_p = ref;
  76              		.loc 1 339 5 view .LVU15
 340:Drivers/lvgl/src/font/lv_font_fmt_txt.c ****     const uint16_t * element16_p = element;
  77              		.loc 1 340 5 view .LVU16
 341:Drivers/lvgl/src/font/lv_font_fmt_txt.c **** 
 342:Drivers/lvgl/src/font/lv_font_fmt_txt.c ****     /*If the MSB is different it will matter. If not return the diff. of the LSB*/
 343:Drivers/lvgl/src/font/lv_font_fmt_txt.c ****     if(ref16_p[0] != element16_p[0]) return (int32_t)ref16_p[0] - element16_p[0];
  78              		.loc 1 343 5 view .LVU17
  79              		.loc 1 343 15 is_stmt 0 view .LVU18
  80 0000 0388     		ldrh	r3, [r0]
  81              		.loc 1 343 33 view .LVU19
  82 0002 0A88     		ldrh	r2, [r1]
  83              		.loc 1 343 7 view .LVU20
  84 0004 9342     		cmp	r3, r2
  85              		.loc 1 343 38 is_stmt 1 view .LVU21
 344:Drivers/lvgl/src/font/lv_font_fmt_txt.c ****     else return (int32_t) ref16_p[1] - element16_p[1];
  86              		.loc 1 344 51 is_stmt 0 view .LVU22
  87 0006 09BF     		itett	eq
  88 0008 4B88     		ldrheq	r3, [r1, #2]
 343:Drivers/lvgl/src/font/lv_font_fmt_txt.c ****     else return (int32_t) ref16_p[1] - element16_p[1];
  89              		.loc 1 343 65 view .LVU23
  90 000a 981A     		subne	r0, r3, r2
  91              	.LVL3:
  92              		.loc 1 344 10 is_stmt 1 view .LVU24
  93              		.loc 1 344 17 is_stmt 0 view .LVU25
  94 000c 4088     		ldrheq	r0, [r0, #2]
  95              		.loc 1 344 38 view .LVU26
  96 000e C01A     		subeq	r0, r0, r3
 345:Drivers/lvgl/src/font/lv_font_fmt_txt.c **** }
  97              		.loc 1 345 1 view .LVU27
  98 0010 7047     		bx	lr
  99              		.cfi_endproc
 100              	.LFE32:
 102 0012 00BF     		.section	.text.unicode_list_compare,"ax",%progbits
 103              		.align	1
 104              		.p2align 2,,3
 105              		.syntax unified
 106              		.thumb
 107              		.thumb_func
 109              	unicode_list_compare:
 110              	.LVL4:
 111              	.LFB33:
 346:Drivers/lvgl/src/font/lv_font_fmt_txt.c **** 
 347:Drivers/lvgl/src/font/lv_font_fmt_txt.c **** #if LV_USE_FONT_COMPRESSED
 348:Drivers/lvgl/src/font/lv_font_fmt_txt.c **** /**
ARM GAS  /var/folders/0z/tsy30v1j4xl4_7kw94k978ww0000gn/T//cc7dhRUt.s 			page 9


 349:Drivers/lvgl/src/font/lv_font_fmt_txt.c ****  * The compress a glyph's bitmap
 350:Drivers/lvgl/src/font/lv_font_fmt_txt.c ****  * @param in the compressed bitmap
 351:Drivers/lvgl/src/font/lv_font_fmt_txt.c ****  * @param out buffer to store the result
 352:Drivers/lvgl/src/font/lv_font_fmt_txt.c ****  * @param px_num number of pixels in the glyph (width * height)
 353:Drivers/lvgl/src/font/lv_font_fmt_txt.c ****  * @param bpp bit per pixel (bpp = 3 will be converted to bpp = 4)
 354:Drivers/lvgl/src/font/lv_font_fmt_txt.c ****  * @param prefilter true: the lines are XORed
 355:Drivers/lvgl/src/font/lv_font_fmt_txt.c ****  */
 356:Drivers/lvgl/src/font/lv_font_fmt_txt.c **** static void decompress(const uint8_t * in, uint8_t * out, lv_coord_t w, lv_coord_t h, uint8_t bpp, 
 357:Drivers/lvgl/src/font/lv_font_fmt_txt.c **** {
 358:Drivers/lvgl/src/font/lv_font_fmt_txt.c ****     uint32_t wrp = 0;
 359:Drivers/lvgl/src/font/lv_font_fmt_txt.c ****     uint8_t wr_size = bpp;
 360:Drivers/lvgl/src/font/lv_font_fmt_txt.c ****     if(bpp == 3) wr_size = 4;
 361:Drivers/lvgl/src/font/lv_font_fmt_txt.c **** 
 362:Drivers/lvgl/src/font/lv_font_fmt_txt.c ****     rle_init(in, bpp);
 363:Drivers/lvgl/src/font/lv_font_fmt_txt.c **** 
 364:Drivers/lvgl/src/font/lv_font_fmt_txt.c ****     uint8_t * line_buf1 = lv_mem_buf_get(w);
 365:Drivers/lvgl/src/font/lv_font_fmt_txt.c **** 
 366:Drivers/lvgl/src/font/lv_font_fmt_txt.c ****     uint8_t * line_buf2 = NULL;
 367:Drivers/lvgl/src/font/lv_font_fmt_txt.c **** 
 368:Drivers/lvgl/src/font/lv_font_fmt_txt.c ****     if(prefilter) {
 369:Drivers/lvgl/src/font/lv_font_fmt_txt.c ****         line_buf2 = lv_mem_buf_get(w);
 370:Drivers/lvgl/src/font/lv_font_fmt_txt.c ****     }
 371:Drivers/lvgl/src/font/lv_font_fmt_txt.c **** 
 372:Drivers/lvgl/src/font/lv_font_fmt_txt.c ****     decompress_line(line_buf1, w);
 373:Drivers/lvgl/src/font/lv_font_fmt_txt.c **** 
 374:Drivers/lvgl/src/font/lv_font_fmt_txt.c ****     lv_coord_t y;
 375:Drivers/lvgl/src/font/lv_font_fmt_txt.c ****     lv_coord_t x;
 376:Drivers/lvgl/src/font/lv_font_fmt_txt.c **** 
 377:Drivers/lvgl/src/font/lv_font_fmt_txt.c ****     for(x = 0; x < w; x++) {
 378:Drivers/lvgl/src/font/lv_font_fmt_txt.c ****         bits_write(out, wrp, line_buf1[x], bpp);
 379:Drivers/lvgl/src/font/lv_font_fmt_txt.c ****         wrp += wr_size;
 380:Drivers/lvgl/src/font/lv_font_fmt_txt.c ****     }
 381:Drivers/lvgl/src/font/lv_font_fmt_txt.c **** 
 382:Drivers/lvgl/src/font/lv_font_fmt_txt.c ****     for(y = 1; y < h; y++) {
 383:Drivers/lvgl/src/font/lv_font_fmt_txt.c ****         if(prefilter) {
 384:Drivers/lvgl/src/font/lv_font_fmt_txt.c ****             decompress_line(line_buf2, w);
 385:Drivers/lvgl/src/font/lv_font_fmt_txt.c **** 
 386:Drivers/lvgl/src/font/lv_font_fmt_txt.c ****             for(x = 0; x < w; x++) {
 387:Drivers/lvgl/src/font/lv_font_fmt_txt.c ****                 line_buf1[x] = line_buf2[x] ^ line_buf1[x];
 388:Drivers/lvgl/src/font/lv_font_fmt_txt.c ****                 bits_write(out, wrp, line_buf1[x], bpp);
 389:Drivers/lvgl/src/font/lv_font_fmt_txt.c ****                 wrp += wr_size;
 390:Drivers/lvgl/src/font/lv_font_fmt_txt.c ****             }
 391:Drivers/lvgl/src/font/lv_font_fmt_txt.c ****         }
 392:Drivers/lvgl/src/font/lv_font_fmt_txt.c ****         else {
 393:Drivers/lvgl/src/font/lv_font_fmt_txt.c ****             decompress_line(line_buf1, w);
 394:Drivers/lvgl/src/font/lv_font_fmt_txt.c **** 
 395:Drivers/lvgl/src/font/lv_font_fmt_txt.c ****             for(x = 0; x < w; x++) {
 396:Drivers/lvgl/src/font/lv_font_fmt_txt.c ****                 bits_write(out, wrp, line_buf1[x], bpp);
 397:Drivers/lvgl/src/font/lv_font_fmt_txt.c ****                 wrp += wr_size;
 398:Drivers/lvgl/src/font/lv_font_fmt_txt.c ****             }
 399:Drivers/lvgl/src/font/lv_font_fmt_txt.c ****         }
 400:Drivers/lvgl/src/font/lv_font_fmt_txt.c ****     }
 401:Drivers/lvgl/src/font/lv_font_fmt_txt.c **** 
 402:Drivers/lvgl/src/font/lv_font_fmt_txt.c ****     lv_mem_buf_release(line_buf1);
 403:Drivers/lvgl/src/font/lv_font_fmt_txt.c ****     lv_mem_buf_release(line_buf2);
 404:Drivers/lvgl/src/font/lv_font_fmt_txt.c **** }
 405:Drivers/lvgl/src/font/lv_font_fmt_txt.c **** 
ARM GAS  /var/folders/0z/tsy30v1j4xl4_7kw94k978ww0000gn/T//cc7dhRUt.s 			page 10


 406:Drivers/lvgl/src/font/lv_font_fmt_txt.c **** /**
 407:Drivers/lvgl/src/font/lv_font_fmt_txt.c ****  * Decompress one line. Store one pixel per byte
 408:Drivers/lvgl/src/font/lv_font_fmt_txt.c ****  * @param out output buffer
 409:Drivers/lvgl/src/font/lv_font_fmt_txt.c ****  * @param w width of the line in pixel count
 410:Drivers/lvgl/src/font/lv_font_fmt_txt.c ****  */
 411:Drivers/lvgl/src/font/lv_font_fmt_txt.c **** static inline void decompress_line(uint8_t * out, lv_coord_t w)
 412:Drivers/lvgl/src/font/lv_font_fmt_txt.c **** {
 413:Drivers/lvgl/src/font/lv_font_fmt_txt.c ****     lv_coord_t i;
 414:Drivers/lvgl/src/font/lv_font_fmt_txt.c ****     for(i = 0; i < w; i++) {
 415:Drivers/lvgl/src/font/lv_font_fmt_txt.c ****         out[i] = rle_next();
 416:Drivers/lvgl/src/font/lv_font_fmt_txt.c ****     }
 417:Drivers/lvgl/src/font/lv_font_fmt_txt.c **** }
 418:Drivers/lvgl/src/font/lv_font_fmt_txt.c **** 
 419:Drivers/lvgl/src/font/lv_font_fmt_txt.c **** /**
 420:Drivers/lvgl/src/font/lv_font_fmt_txt.c ****  * Read bits from an input buffer. The read can cross byte boundary.
 421:Drivers/lvgl/src/font/lv_font_fmt_txt.c ****  * @param in the input buffer to read from.
 422:Drivers/lvgl/src/font/lv_font_fmt_txt.c ****  * @param bit_pos index of the first bit to read.
 423:Drivers/lvgl/src/font/lv_font_fmt_txt.c ****  * @param len number of bits to read (must be <= 8).
 424:Drivers/lvgl/src/font/lv_font_fmt_txt.c ****  * @return the read bits
 425:Drivers/lvgl/src/font/lv_font_fmt_txt.c ****  */
 426:Drivers/lvgl/src/font/lv_font_fmt_txt.c **** static inline uint8_t get_bits(const uint8_t * in, uint32_t bit_pos, uint8_t len)
 427:Drivers/lvgl/src/font/lv_font_fmt_txt.c **** {
 428:Drivers/lvgl/src/font/lv_font_fmt_txt.c ****     uint8_t bit_mask;
 429:Drivers/lvgl/src/font/lv_font_fmt_txt.c ****     switch(len) {
 430:Drivers/lvgl/src/font/lv_font_fmt_txt.c ****         case 1:
 431:Drivers/lvgl/src/font/lv_font_fmt_txt.c ****             bit_mask = 0x1;
 432:Drivers/lvgl/src/font/lv_font_fmt_txt.c ****             break;
 433:Drivers/lvgl/src/font/lv_font_fmt_txt.c ****         case 2:
 434:Drivers/lvgl/src/font/lv_font_fmt_txt.c ****             bit_mask = 0x3;
 435:Drivers/lvgl/src/font/lv_font_fmt_txt.c ****             break;
 436:Drivers/lvgl/src/font/lv_font_fmt_txt.c ****         case 3:
 437:Drivers/lvgl/src/font/lv_font_fmt_txt.c ****             bit_mask = 0x7;
 438:Drivers/lvgl/src/font/lv_font_fmt_txt.c ****             break;
 439:Drivers/lvgl/src/font/lv_font_fmt_txt.c ****         case 4:
 440:Drivers/lvgl/src/font/lv_font_fmt_txt.c ****             bit_mask = 0xF;
 441:Drivers/lvgl/src/font/lv_font_fmt_txt.c ****             break;
 442:Drivers/lvgl/src/font/lv_font_fmt_txt.c ****         case 8:
 443:Drivers/lvgl/src/font/lv_font_fmt_txt.c ****             bit_mask = 0xFF;
 444:Drivers/lvgl/src/font/lv_font_fmt_txt.c ****             break;
 445:Drivers/lvgl/src/font/lv_font_fmt_txt.c ****         default:
 446:Drivers/lvgl/src/font/lv_font_fmt_txt.c ****             bit_mask = (uint16_t)((uint16_t) 1 << len) - 1;
 447:Drivers/lvgl/src/font/lv_font_fmt_txt.c ****     }
 448:Drivers/lvgl/src/font/lv_font_fmt_txt.c **** 
 449:Drivers/lvgl/src/font/lv_font_fmt_txt.c ****     uint32_t byte_pos = bit_pos >> 3;
 450:Drivers/lvgl/src/font/lv_font_fmt_txt.c ****     bit_pos = bit_pos & 0x7;
 451:Drivers/lvgl/src/font/lv_font_fmt_txt.c **** 
 452:Drivers/lvgl/src/font/lv_font_fmt_txt.c ****     if(bit_pos + len >= 8) {
 453:Drivers/lvgl/src/font/lv_font_fmt_txt.c ****         uint16_t in16 = (in[byte_pos] << 8) + in[byte_pos + 1];
 454:Drivers/lvgl/src/font/lv_font_fmt_txt.c ****         return (in16 >> (16 - bit_pos - len)) & bit_mask;
 455:Drivers/lvgl/src/font/lv_font_fmt_txt.c ****     }
 456:Drivers/lvgl/src/font/lv_font_fmt_txt.c ****     else {
 457:Drivers/lvgl/src/font/lv_font_fmt_txt.c ****         return (in[byte_pos] >> (8 - bit_pos - len)) & bit_mask;
 458:Drivers/lvgl/src/font/lv_font_fmt_txt.c ****     }
 459:Drivers/lvgl/src/font/lv_font_fmt_txt.c **** }
 460:Drivers/lvgl/src/font/lv_font_fmt_txt.c **** 
 461:Drivers/lvgl/src/font/lv_font_fmt_txt.c **** /**
 462:Drivers/lvgl/src/font/lv_font_fmt_txt.c ****  * Write `val` data to `bit_pos` position of `out`. The write can NOT cross byte boundary.
ARM GAS  /var/folders/0z/tsy30v1j4xl4_7kw94k978ww0000gn/T//cc7dhRUt.s 			page 11


 463:Drivers/lvgl/src/font/lv_font_fmt_txt.c ****  * @param out buffer where to write
 464:Drivers/lvgl/src/font/lv_font_fmt_txt.c ****  * @param bit_pos bit index to write
 465:Drivers/lvgl/src/font/lv_font_fmt_txt.c ****  * @param val value to write
 466:Drivers/lvgl/src/font/lv_font_fmt_txt.c ****  * @param len length of bits to write from `val`. (Counted from the LSB).
 467:Drivers/lvgl/src/font/lv_font_fmt_txt.c ****  * @note `len == 3` will be converted to `len = 4` and `val` will be upscaled too
 468:Drivers/lvgl/src/font/lv_font_fmt_txt.c ****  */
 469:Drivers/lvgl/src/font/lv_font_fmt_txt.c **** static inline void bits_write(uint8_t * out, uint32_t bit_pos, uint8_t val, uint8_t len)
 470:Drivers/lvgl/src/font/lv_font_fmt_txt.c **** {
 471:Drivers/lvgl/src/font/lv_font_fmt_txt.c ****     if(len == 3) {
 472:Drivers/lvgl/src/font/lv_font_fmt_txt.c ****         len = 4;
 473:Drivers/lvgl/src/font/lv_font_fmt_txt.c ****         switch(val) {
 474:Drivers/lvgl/src/font/lv_font_fmt_txt.c ****             case 0:
 475:Drivers/lvgl/src/font/lv_font_fmt_txt.c ****                 val = 0;
 476:Drivers/lvgl/src/font/lv_font_fmt_txt.c ****                 break;
 477:Drivers/lvgl/src/font/lv_font_fmt_txt.c ****             case 1:
 478:Drivers/lvgl/src/font/lv_font_fmt_txt.c ****                 val = 2;
 479:Drivers/lvgl/src/font/lv_font_fmt_txt.c ****                 break;
 480:Drivers/lvgl/src/font/lv_font_fmt_txt.c ****             case 2:
 481:Drivers/lvgl/src/font/lv_font_fmt_txt.c ****                 val = 4;
 482:Drivers/lvgl/src/font/lv_font_fmt_txt.c ****                 break;
 483:Drivers/lvgl/src/font/lv_font_fmt_txt.c ****             case 3:
 484:Drivers/lvgl/src/font/lv_font_fmt_txt.c ****                 val = 6;
 485:Drivers/lvgl/src/font/lv_font_fmt_txt.c ****                 break;
 486:Drivers/lvgl/src/font/lv_font_fmt_txt.c ****             case 4:
 487:Drivers/lvgl/src/font/lv_font_fmt_txt.c ****                 val = 9;
 488:Drivers/lvgl/src/font/lv_font_fmt_txt.c ****                 break;
 489:Drivers/lvgl/src/font/lv_font_fmt_txt.c ****             case 5:
 490:Drivers/lvgl/src/font/lv_font_fmt_txt.c ****                 val = 11;
 491:Drivers/lvgl/src/font/lv_font_fmt_txt.c ****                 break;
 492:Drivers/lvgl/src/font/lv_font_fmt_txt.c ****             case 6:
 493:Drivers/lvgl/src/font/lv_font_fmt_txt.c ****                 val = 13;
 494:Drivers/lvgl/src/font/lv_font_fmt_txt.c ****                 break;
 495:Drivers/lvgl/src/font/lv_font_fmt_txt.c ****             case 7:
 496:Drivers/lvgl/src/font/lv_font_fmt_txt.c ****                 val = 15;
 497:Drivers/lvgl/src/font/lv_font_fmt_txt.c ****                 break;
 498:Drivers/lvgl/src/font/lv_font_fmt_txt.c ****         }
 499:Drivers/lvgl/src/font/lv_font_fmt_txt.c ****     }
 500:Drivers/lvgl/src/font/lv_font_fmt_txt.c **** 
 501:Drivers/lvgl/src/font/lv_font_fmt_txt.c ****     uint16_t byte_pos = bit_pos >> 3;
 502:Drivers/lvgl/src/font/lv_font_fmt_txt.c ****     bit_pos = bit_pos & 0x7;
 503:Drivers/lvgl/src/font/lv_font_fmt_txt.c ****     bit_pos = 8 - bit_pos - len;
 504:Drivers/lvgl/src/font/lv_font_fmt_txt.c **** 
 505:Drivers/lvgl/src/font/lv_font_fmt_txt.c ****     uint8_t bit_mask = (uint16_t)((uint16_t) 1 << len) - 1;
 506:Drivers/lvgl/src/font/lv_font_fmt_txt.c ****     out[byte_pos] &= ((~bit_mask) << bit_pos);
 507:Drivers/lvgl/src/font/lv_font_fmt_txt.c ****     out[byte_pos] |= (val << bit_pos);
 508:Drivers/lvgl/src/font/lv_font_fmt_txt.c **** }
 509:Drivers/lvgl/src/font/lv_font_fmt_txt.c **** 
 510:Drivers/lvgl/src/font/lv_font_fmt_txt.c **** static inline void rle_init(const uint8_t * in,  uint8_t bpp)
 511:Drivers/lvgl/src/font/lv_font_fmt_txt.c **** {
 512:Drivers/lvgl/src/font/lv_font_fmt_txt.c ****     rle_in = in;
 513:Drivers/lvgl/src/font/lv_font_fmt_txt.c ****     rle_bpp = bpp;
 514:Drivers/lvgl/src/font/lv_font_fmt_txt.c ****     rle_state = RLE_STATE_SINGLE;
 515:Drivers/lvgl/src/font/lv_font_fmt_txt.c ****     rle_rdp = 0;
 516:Drivers/lvgl/src/font/lv_font_fmt_txt.c ****     rle_prev_v = 0;
 517:Drivers/lvgl/src/font/lv_font_fmt_txt.c ****     rle_cnt = 0;
 518:Drivers/lvgl/src/font/lv_font_fmt_txt.c **** }
 519:Drivers/lvgl/src/font/lv_font_fmt_txt.c **** 
ARM GAS  /var/folders/0z/tsy30v1j4xl4_7kw94k978ww0000gn/T//cc7dhRUt.s 			page 12


 520:Drivers/lvgl/src/font/lv_font_fmt_txt.c **** static inline uint8_t rle_next(void)
 521:Drivers/lvgl/src/font/lv_font_fmt_txt.c **** {
 522:Drivers/lvgl/src/font/lv_font_fmt_txt.c ****     uint8_t v = 0;
 523:Drivers/lvgl/src/font/lv_font_fmt_txt.c ****     uint8_t ret = 0;
 524:Drivers/lvgl/src/font/lv_font_fmt_txt.c **** 
 525:Drivers/lvgl/src/font/lv_font_fmt_txt.c ****     if(rle_state == RLE_STATE_SINGLE) {
 526:Drivers/lvgl/src/font/lv_font_fmt_txt.c ****         ret = get_bits(rle_in, rle_rdp, rle_bpp);
 527:Drivers/lvgl/src/font/lv_font_fmt_txt.c ****         if(rle_rdp != 0 && rle_prev_v == ret) {
 528:Drivers/lvgl/src/font/lv_font_fmt_txt.c ****             rle_cnt = 0;
 529:Drivers/lvgl/src/font/lv_font_fmt_txt.c ****             rle_state = RLE_STATE_REPEATE;
 530:Drivers/lvgl/src/font/lv_font_fmt_txt.c ****         }
 531:Drivers/lvgl/src/font/lv_font_fmt_txt.c **** 
 532:Drivers/lvgl/src/font/lv_font_fmt_txt.c ****         rle_prev_v = ret;
 533:Drivers/lvgl/src/font/lv_font_fmt_txt.c ****         rle_rdp += rle_bpp;
 534:Drivers/lvgl/src/font/lv_font_fmt_txt.c ****     }
 535:Drivers/lvgl/src/font/lv_font_fmt_txt.c ****     else if(rle_state == RLE_STATE_REPEATE) {
 536:Drivers/lvgl/src/font/lv_font_fmt_txt.c ****         v = get_bits(rle_in, rle_rdp, 1);
 537:Drivers/lvgl/src/font/lv_font_fmt_txt.c ****         rle_cnt++;
 538:Drivers/lvgl/src/font/lv_font_fmt_txt.c ****         rle_rdp += 1;
 539:Drivers/lvgl/src/font/lv_font_fmt_txt.c ****         if(v == 1) {
 540:Drivers/lvgl/src/font/lv_font_fmt_txt.c ****             ret = rle_prev_v;
 541:Drivers/lvgl/src/font/lv_font_fmt_txt.c ****             if(rle_cnt == 11) {
 542:Drivers/lvgl/src/font/lv_font_fmt_txt.c ****                 rle_cnt = get_bits(rle_in, rle_rdp, 6);
 543:Drivers/lvgl/src/font/lv_font_fmt_txt.c ****                 rle_rdp += 6;
 544:Drivers/lvgl/src/font/lv_font_fmt_txt.c ****                 if(rle_cnt != 0) {
 545:Drivers/lvgl/src/font/lv_font_fmt_txt.c ****                     rle_state = RLE_STATE_COUNTER;
 546:Drivers/lvgl/src/font/lv_font_fmt_txt.c ****                 }
 547:Drivers/lvgl/src/font/lv_font_fmt_txt.c ****                 else {
 548:Drivers/lvgl/src/font/lv_font_fmt_txt.c ****                     ret = get_bits(rle_in, rle_rdp, rle_bpp);
 549:Drivers/lvgl/src/font/lv_font_fmt_txt.c ****                     rle_prev_v = ret;
 550:Drivers/lvgl/src/font/lv_font_fmt_txt.c ****                     rle_rdp += rle_bpp;
 551:Drivers/lvgl/src/font/lv_font_fmt_txt.c ****                     rle_state = RLE_STATE_SINGLE;
 552:Drivers/lvgl/src/font/lv_font_fmt_txt.c ****                 }
 553:Drivers/lvgl/src/font/lv_font_fmt_txt.c ****             }
 554:Drivers/lvgl/src/font/lv_font_fmt_txt.c ****         }
 555:Drivers/lvgl/src/font/lv_font_fmt_txt.c ****         else {
 556:Drivers/lvgl/src/font/lv_font_fmt_txt.c ****             ret = get_bits(rle_in, rle_rdp, rle_bpp);
 557:Drivers/lvgl/src/font/lv_font_fmt_txt.c ****             rle_prev_v = ret;
 558:Drivers/lvgl/src/font/lv_font_fmt_txt.c ****             rle_rdp += rle_bpp;
 559:Drivers/lvgl/src/font/lv_font_fmt_txt.c ****             rle_state = RLE_STATE_SINGLE;
 560:Drivers/lvgl/src/font/lv_font_fmt_txt.c ****         }
 561:Drivers/lvgl/src/font/lv_font_fmt_txt.c **** 
 562:Drivers/lvgl/src/font/lv_font_fmt_txt.c ****     }
 563:Drivers/lvgl/src/font/lv_font_fmt_txt.c ****     else if(rle_state == RLE_STATE_COUNTER) {
 564:Drivers/lvgl/src/font/lv_font_fmt_txt.c ****         ret = rle_prev_v;
 565:Drivers/lvgl/src/font/lv_font_fmt_txt.c ****         rle_cnt--;
 566:Drivers/lvgl/src/font/lv_font_fmt_txt.c ****         if(rle_cnt == 0) {
 567:Drivers/lvgl/src/font/lv_font_fmt_txt.c ****             ret = get_bits(rle_in, rle_rdp, rle_bpp);
 568:Drivers/lvgl/src/font/lv_font_fmt_txt.c ****             rle_prev_v = ret;
 569:Drivers/lvgl/src/font/lv_font_fmt_txt.c ****             rle_rdp += rle_bpp;
 570:Drivers/lvgl/src/font/lv_font_fmt_txt.c ****             rle_state = RLE_STATE_SINGLE;
 571:Drivers/lvgl/src/font/lv_font_fmt_txt.c ****         }
 572:Drivers/lvgl/src/font/lv_font_fmt_txt.c ****     }
 573:Drivers/lvgl/src/font/lv_font_fmt_txt.c **** 
 574:Drivers/lvgl/src/font/lv_font_fmt_txt.c ****     return ret;
 575:Drivers/lvgl/src/font/lv_font_fmt_txt.c **** }
 576:Drivers/lvgl/src/font/lv_font_fmt_txt.c **** #endif /*LV_USE_FONT_COMPRESSED*/
ARM GAS  /var/folders/0z/tsy30v1j4xl4_7kw94k978ww0000gn/T//cc7dhRUt.s 			page 13


 577:Drivers/lvgl/src/font/lv_font_fmt_txt.c **** 
 578:Drivers/lvgl/src/font/lv_font_fmt_txt.c **** /** Code Comparator.
 579:Drivers/lvgl/src/font/lv_font_fmt_txt.c ****  *
 580:Drivers/lvgl/src/font/lv_font_fmt_txt.c ****  *  Compares the value of both input arguments.
 581:Drivers/lvgl/src/font/lv_font_fmt_txt.c ****  *
 582:Drivers/lvgl/src/font/lv_font_fmt_txt.c ****  *  @param[in]  pRef        Pointer to the reference.
 583:Drivers/lvgl/src/font/lv_font_fmt_txt.c ****  *  @param[in]  pElement    Pointer to the element to compare.
 584:Drivers/lvgl/src/font/lv_font_fmt_txt.c ****  *
 585:Drivers/lvgl/src/font/lv_font_fmt_txt.c ****  *  @return Result of comparison.
 586:Drivers/lvgl/src/font/lv_font_fmt_txt.c ****  *  @retval < 0   Reference is less than element.
 587:Drivers/lvgl/src/font/lv_font_fmt_txt.c ****  *  @retval = 0   Reference is equal to element.
 588:Drivers/lvgl/src/font/lv_font_fmt_txt.c ****  *  @retval > 0   Reference is greater than element.
 589:Drivers/lvgl/src/font/lv_font_fmt_txt.c ****  *
 590:Drivers/lvgl/src/font/lv_font_fmt_txt.c ****  */
 591:Drivers/lvgl/src/font/lv_font_fmt_txt.c **** static int32_t unicode_list_compare(const void * ref, const void * element)
 592:Drivers/lvgl/src/font/lv_font_fmt_txt.c **** {
 112              		.loc 1 592 1 is_stmt 1 view -0
 113              		.cfi_startproc
 114              		@ args = 0, pretend = 0, frame = 0
 115              		@ frame_needed = 0, uses_anonymous_args = 0
 116              		@ link register save eliminated.
 593:Drivers/lvgl/src/font/lv_font_fmt_txt.c ****     return ((int32_t)(*(uint16_t *)ref)) - ((int32_t)(*(uint16_t *)element));
 117              		.loc 1 593 5 view .LVU29
 118              		.loc 1 593 13 is_stmt 0 view .LVU30
 119 0000 0088     		ldrh	r0, [r0]
 120              	.LVL5:
 121              		.loc 1 593 45 view .LVU31
 122 0002 0B88     		ldrh	r3, [r1]
 594:Drivers/lvgl/src/font/lv_font_fmt_txt.c **** }
 123              		.loc 1 594 1 view .LVU32
 124 0004 C01A     		subs	r0, r0, r3
 125 0006 7047     		bx	lr
 126              		.cfi_endproc
 127              	.LFE33:
 129              		.section	.text.get_glyph_dsc_id.part.0.isra.0,"ax",%progbits
 130              		.align	1
 131              		.p2align 2,,3
 132              		.syntax unified
 133              		.thumb
 134              		.thumb_func
 136              	get_glyph_dsc_id.part.0.isra.0:
 137              	.LVL6:
 138              	.LFB35:
 209:Drivers/lvgl/src/font/lv_font_fmt_txt.c **** {
 139              		.loc 1 209 17 is_stmt 1 view -0
 140              		.cfi_startproc
 141              		@ args = 0, pretend = 0, frame = 8
 142              		@ frame_needed = 0, uses_anonymous_args = 0
 213:Drivers/lvgl/src/font/lv_font_fmt_txt.c **** 
 143              		.loc 1 213 5 view .LVU34
 209:Drivers/lvgl/src/font/lv_font_fmt_txt.c **** {
 144              		.loc 1 209 17 is_stmt 0 view .LVU35
 145 0000 F0B5     		push	{r4, r5, r6, r7, lr}
 146              		.cfi_def_cfa_offset 20
 147              		.cfi_offset 4, -20
 148              		.cfi_offset 5, -16
 149              		.cfi_offset 6, -12
ARM GAS  /var/folders/0z/tsy30v1j4xl4_7kw94k978ww0000gn/T//cc7dhRUt.s 			page 14


 150              		.cfi_offset 7, -8
 151              		.cfi_offset 14, -4
 216:Drivers/lvgl/src/font/lv_font_fmt_txt.c **** 
 152              		.loc 1 216 12 view .LVU36
 153 0002 4769     		ldr	r7, [r0, #20]
 209:Drivers/lvgl/src/font/lv_font_fmt_txt.c **** {
 154              		.loc 1 209 17 view .LVU37
 155 0004 85B0     		sub	sp, sp, #20
 156              		.cfi_def_cfa_offset 40
 209:Drivers/lvgl/src/font/lv_font_fmt_txt.c **** {
 157              		.loc 1 209 17 view .LVU38
 158 0006 0546     		mov	r5, r0
 159              	.LVL7:
 216:Drivers/lvgl/src/font/lv_font_fmt_txt.c **** 
 160              		.loc 1 216 5 is_stmt 1 view .LVU39
 209:Drivers/lvgl/src/font/lv_font_fmt_txt.c **** {
 161              		.loc 1 209 17 is_stmt 0 view .LVU40
 162 0008 0C46     		mov	r4, r1
 216:Drivers/lvgl/src/font/lv_font_fmt_txt.c **** 
 163              		.loc 1 216 7 view .LVU41
 164 000a 8FB3     		cbz	r7, .L10
 216:Drivers/lvgl/src/font/lv_font_fmt_txt.c **** 
 165              		.loc 1 216 20 view .LVU42
 166 000c 3B68     		ldr	r3, [r7]
 167 000e 8B42     		cmp	r3, r1
 168 0010 38D0     		beq	.L35
 169              	.LVL8:
 219:Drivers/lvgl/src/font/lv_font_fmt_txt.c **** 
 170              		.loc 1 219 18 is_stmt 1 view .LVU43
 219:Drivers/lvgl/src/font/lv_font_fmt_txt.c **** 
 171              		.loc 1 219 24 is_stmt 0 view .LVU44
 172 0012 438A     		ldrh	r3, [r0, #18]
 219:Drivers/lvgl/src/font/lv_font_fmt_txt.c **** 
 173              		.loc 1 219 18 view .LVU45
 174 0014 C3F30803 		ubfx	r3, r3, #0, #9
 175 0018 43B3     		cbz	r3, .L23
 176              	.L22:
 177              	.LBB21:
 222:Drivers/lvgl/src/font/lv_font_fmt_txt.c ****         if(rcp > fdsc->cmaps[i].range_length) continue;
 178              		.loc 1 222 37 view .LVU46
 179 001a A868     		ldr	r0, [r5, #8]
 180              	.LVL9:
 222:Drivers/lvgl/src/font/lv_font_fmt_txt.c ****         if(rcp > fdsc->cmaps[i].range_length) continue;
 181              		.loc 1 222 37 view .LVU47
 182 001c 0026     		movs	r6, #0
 183 001e 0146     		mov	r1, r0
 184              	.LVL10:
 222:Drivers/lvgl/src/font/lv_font_fmt_txt.c ****         if(rcp > fdsc->cmaps[i].range_length) continue;
 185              		.loc 1 222 37 view .LVU48
 186 0020 B646     		mov	lr, r6
 187              	.LVL11:
 188              	.L14:
 222:Drivers/lvgl/src/font/lv_font_fmt_txt.c ****         if(rcp > fdsc->cmaps[i].range_length) continue;
 189              		.loc 1 222 9 is_stmt 1 view .LVU49
 222:Drivers/lvgl/src/font/lv_font_fmt_txt.c ****         if(rcp > fdsc->cmaps[i].range_length) continue;
 190              		.loc 1 222 18 is_stmt 0 view .LVU50
 191 0022 8259     		ldr	r2, [r0, r6]
ARM GAS  /var/folders/0z/tsy30v1j4xl4_7kw94k978ww0000gn/T//cc7dhRUt.s 			page 15


 223:Drivers/lvgl/src/font/lv_font_fmt_txt.c ****         uint32_t glyph_id = 0;
 192              		.loc 1 223 32 view .LVU51
 193 0024 B1F804C0 		ldrh	ip, [r1, #4]
 222:Drivers/lvgl/src/font/lv_font_fmt_txt.c ****         if(rcp > fdsc->cmaps[i].range_length) continue;
 194              		.loc 1 222 18 view .LVU52
 195 0028 A21A     		subs	r2, r4, r2
 196              	.LVL12:
 223:Drivers/lvgl/src/font/lv_font_fmt_txt.c ****         uint32_t glyph_id = 0;
 197              		.loc 1 223 9 is_stmt 1 view .LVU53
 223:Drivers/lvgl/src/font/lv_font_fmt_txt.c ****         uint32_t glyph_id = 0;
 198              		.loc 1 223 11 is_stmt 0 view .LVU54
 199 002a 6245     		cmp	r2, ip
 200 002c 12D8     		bhi	.L36
 224:Drivers/lvgl/src/font/lv_font_fmt_txt.c ****         if(fdsc->cmaps[i].type == LV_FONT_FMT_TXT_CMAP_FORMAT0_TINY) {
 201              		.loc 1 224 9 is_stmt 1 view .LVU55
 202              	.LVL13:
 225:Drivers/lvgl/src/font/lv_font_fmt_txt.c ****             glyph_id = fdsc->cmaps[i].glyph_id_start + rcp;
 203              		.loc 1 225 9 view .LVU56
 225:Drivers/lvgl/src/font/lv_font_fmt_txt.c ****             glyph_id = fdsc->cmaps[i].glyph_id_start + rcp;
 204              		.loc 1 225 26 is_stmt 0 view .LVU57
 205 002e 8B7C     		ldrb	r3, [r1, #18]	@ zero_extendqisi2
 225:Drivers/lvgl/src/font/lv_font_fmt_txt.c ****             glyph_id = fdsc->cmaps[i].glyph_id_start + rcp;
 206              		.loc 1 225 11 view .LVU58
 207 0030 022B     		cmp	r3, #2
 208 0032 24D0     		beq	.L37
 228:Drivers/lvgl/src/font/lv_font_fmt_txt.c ****             const uint8_t * gid_ofs_8 = fdsc->cmaps[i].glyph_id_ofs_list;
 209              		.loc 1 228 14 is_stmt 1 view .LVU59
 228:Drivers/lvgl/src/font/lv_font_fmt_txt.c ****             const uint8_t * gid_ofs_8 = fdsc->cmaps[i].glyph_id_ofs_list;
 210              		.loc 1 228 16 is_stmt 0 view .LVU60
 211 0034 4BB1     		cbz	r3, .L38
 232:Drivers/lvgl/src/font/lv_font_fmt_txt.c ****             uint16_t key = rcp;
 212              		.loc 1 232 14 is_stmt 1 view .LVU61
 232:Drivers/lvgl/src/font/lv_font_fmt_txt.c ****             uint16_t key = rcp;
 213              		.loc 1 232 16 is_stmt 0 view .LVU62
 214 0036 032B     		cmp	r3, #3
 215 0038 27D0     		beq	.L39
 242:Drivers/lvgl/src/font/lv_font_fmt_txt.c ****             uint16_t key = rcp;
 216              		.loc 1 242 14 is_stmt 1 view .LVU63
 242:Drivers/lvgl/src/font/lv_font_fmt_txt.c ****             uint16_t key = rcp;
 217              		.loc 1 242 16 is_stmt 0 view .LVU64
 218 003a 012B     		cmp	r3, #1
 219 003c 3AD0     		beq	.L40
 224:Drivers/lvgl/src/font/lv_font_fmt_txt.c ****         if(fdsc->cmaps[i].type == LV_FONT_FMT_TXT_CMAP_FORMAT0_TINY) {
 220              		.loc 1 224 18 view .LVU65
 221 003e 0020     		movs	r0, #0
 222              	.LVL14:
 223              	.L17:
 255:Drivers/lvgl/src/font/lv_font_fmt_txt.c ****             fdsc->cache->last_letter = letter;
 224              		.loc 1 255 9 is_stmt 1 view .LVU66
 255:Drivers/lvgl/src/font/lv_font_fmt_txt.c ****             fdsc->cache->last_letter = letter;
 225              		.loc 1 255 11 is_stmt 0 view .LVU67
 226 0040 0FB1     		cbz	r7, .L9
 227              	.LVL15:
 228              	.L34:
 255:Drivers/lvgl/src/font/lv_font_fmt_txt.c ****             fdsc->cache->last_letter = letter;
 229              		.loc 1 255 11 view .LVU68
 230              	.LBE21:
ARM GAS  /var/folders/0z/tsy30v1j4xl4_7kw94k978ww0000gn/T//cc7dhRUt.s 			page 16


 264:Drivers/lvgl/src/font/lv_font_fmt_txt.c ****     }
 231              		.loc 1 264 36 view .LVU69
 232 0042 C7E90040 		strd	r4, r0, [r7]
 233              	.L9:
 268:Drivers/lvgl/src/font/lv_font_fmt_txt.c **** 
 234              		.loc 1 268 1 view .LVU70
 235 0046 05B0     		add	sp, sp, #20
 236              		.cfi_remember_state
 237              		.cfi_def_cfa_offset 20
 238              		@ sp needed
 239 0048 F0BD     		pop	{r4, r5, r6, r7, pc}
 240              	.LVL16:
 241              	.L38:
 242              		.cfi_restore_state
 243              	.LBB27:
 244              	.LBB22:
 229:Drivers/lvgl/src/font/lv_font_fmt_txt.c ****             glyph_id = fdsc->cmaps[i].glyph_id_start + gid_ofs_8[rcp];
 245              		.loc 1 229 13 is_stmt 1 view .LVU71
 230:Drivers/lvgl/src/font/lv_font_fmt_txt.c ****         }
 246              		.loc 1 230 13 view .LVU72
 230:Drivers/lvgl/src/font/lv_font_fmt_txt.c ****         }
 247              		.loc 1 230 65 is_stmt 0 view .LVU73
 248 004a C868     		ldr	r0, [r1, #12]
 230:Drivers/lvgl/src/font/lv_font_fmt_txt.c ****         }
 249              		.loc 1 230 38 view .LVU74
 250 004c CB88     		ldrh	r3, [r1, #6]
 230:Drivers/lvgl/src/font/lv_font_fmt_txt.c ****         }
 251              		.loc 1 230 65 view .LVU75
 252 004e 805C     		ldrb	r0, [r0, r2]	@ zero_extendqisi2
 230:Drivers/lvgl/src/font/lv_font_fmt_txt.c ****         }
 253              		.loc 1 230 54 view .LVU76
 254 0050 1844     		add	r0, r0, r3
 255              	.LVL17:
 230:Drivers/lvgl/src/font/lv_font_fmt_txt.c ****         }
 256              		.loc 1 230 54 view .LVU77
 257              	.LBE22:
 258 0052 F5E7     		b	.L17
 259              	.LVL18:
 260              	.L36:
 223:Drivers/lvgl/src/font/lv_font_fmt_txt.c ****         uint32_t glyph_id = 0;
 261              		.loc 1 223 47 is_stmt 1 view .LVU78
 262              	.LBE27:
 219:Drivers/lvgl/src/font/lv_font_fmt_txt.c **** 
 263              		.loc 1 219 37 view .LVU79
 219:Drivers/lvgl/src/font/lv_font_fmt_txt.c **** 
 264              		.loc 1 219 18 view .LVU80
 265 0054 0EF1010E 		add	lr, lr, #1
 266              	.LVL19:
 219:Drivers/lvgl/src/font/lv_font_fmt_txt.c **** 
 267              		.loc 1 219 18 is_stmt 0 view .LVU81
 268 0058 1FFA8EF2 		uxth	r2, lr
 269              	.LVL20:
 219:Drivers/lvgl/src/font/lv_font_fmt_txt.c **** 
 270              		.loc 1 219 18 view .LVU82
 271 005c 9342     		cmp	r3, r2
 272 005e 06F11406 		add	r6, r6, #20
 273              	.LVL21:
ARM GAS  /var/folders/0z/tsy30v1j4xl4_7kw94k978ww0000gn/T//cc7dhRUt.s 			page 17


 219:Drivers/lvgl/src/font/lv_font_fmt_txt.c **** 
 274              		.loc 1 219 18 view .LVU83
 275 0062 01F11401 		add	r1, r1, #20
 276 0066 DCD8     		bhi	.L14
 262:Drivers/lvgl/src/font/lv_font_fmt_txt.c ****         fdsc->cache->last_letter = letter;
 277              		.loc 1 262 5 is_stmt 1 view .LVU84
 262:Drivers/lvgl/src/font/lv_font_fmt_txt.c ****         fdsc->cache->last_letter = letter;
 278              		.loc 1 262 7 is_stmt 0 view .LVU85
 279 0068 002F     		cmp	r7, #0
 280 006a 3CD0     		beq	.L27
 281              	.LVL22:
 282              	.L23:
 263:Drivers/lvgl/src/font/lv_font_fmt_txt.c ****         fdsc->cache->last_glyph_id = 0;
 283              		.loc 1 263 9 is_stmt 1 view .LVU86
 264:Drivers/lvgl/src/font/lv_font_fmt_txt.c ****     }
 284              		.loc 1 264 36 is_stmt 0 view .LVU87
 285 006c 0020     		movs	r0, #0
 286 006e E8E7     		b	.L34
 287              	.LVL23:
 288              	.L10:
 219:Drivers/lvgl/src/font/lv_font_fmt_txt.c **** 
 289              		.loc 1 219 18 is_stmt 1 view .LVU88
 219:Drivers/lvgl/src/font/lv_font_fmt_txt.c **** 
 290              		.loc 1 219 24 is_stmt 0 view .LVU89
 291 0070 438A     		ldrh	r3, [r0, #18]
 219:Drivers/lvgl/src/font/lv_font_fmt_txt.c **** 
 292              		.loc 1 219 18 view .LVU90
 293 0072 C3F30803 		ubfx	r3, r3, #0, #9
 294 0076 002B     		cmp	r3, #0
 295 0078 CFD1     		bne	.L22
 266:Drivers/lvgl/src/font/lv_font_fmt_txt.c **** 
 296              		.loc 1 266 12 view .LVU91
 297 007a 1846     		mov	r0, r3
 298              	.LVL24:
 266:Drivers/lvgl/src/font/lv_font_fmt_txt.c **** 
 299              		.loc 1 266 12 view .LVU92
 300 007c E3E7     		b	.L9
 301              	.LVL25:
 302              	.L37:
 303              	.LBB28:
 226:Drivers/lvgl/src/font/lv_font_fmt_txt.c ****         }
 304              		.loc 1 226 13 is_stmt 1 view .LVU93
 226:Drivers/lvgl/src/font/lv_font_fmt_txt.c ****         }
 305              		.loc 1 226 38 is_stmt 0 view .LVU94
 306 007e C888     		ldrh	r0, [r1, #6]
 226:Drivers/lvgl/src/font/lv_font_fmt_txt.c ****         }
 307              		.loc 1 226 22 view .LVU95
 308 0080 1044     		add	r0, r0, r2
 309              	.LVL26:
 226:Drivers/lvgl/src/font/lv_font_fmt_txt.c ****         }
 310              		.loc 1 226 22 view .LVU96
 311 0082 DDE7     		b	.L17
 312              	.LVL27:
 313              	.L35:
 226:Drivers/lvgl/src/font/lv_font_fmt_txt.c ****         }
 314              		.loc 1 226 22 view .LVU97
 315              	.LBE28:
ARM GAS  /var/folders/0z/tsy30v1j4xl4_7kw94k978ww0000gn/T//cc7dhRUt.s 			page 18


 216:Drivers/lvgl/src/font/lv_font_fmt_txt.c **** 
 316              		.loc 1 216 59 is_stmt 1 view .LVU98
 216:Drivers/lvgl/src/font/lv_font_fmt_txt.c **** 
 317              		.loc 1 216 77 is_stmt 0 view .LVU99
 318 0084 7868     		ldr	r0, [r7, #4]
 319              	.LVL28:
 268:Drivers/lvgl/src/font/lv_font_fmt_txt.c **** 
 320              		.loc 1 268 1 view .LVU100
 321 0086 05B0     		add	sp, sp, #20
 322              		.cfi_remember_state
 323              		.cfi_def_cfa_offset 20
 324              		@ sp needed
 325 0088 F0BD     		pop	{r4, r5, r6, r7, pc}
 326              	.LVL29:
 327              	.L39:
 328              		.cfi_restore_state
 329              	.LBB29:
 330              	.LBB23:
 233:Drivers/lvgl/src/font/lv_font_fmt_txt.c ****             uint16_t * p = _lv_utils_bsearch(&key, fdsc->cmaps[i].unicode_list, fdsc->cmaps[i].list
 331              		.loc 1 233 13 is_stmt 1 view .LVU101
 234:Drivers/lvgl/src/font/lv_font_fmt_txt.c ****                                              sizeof(fdsc->cmaps[i].unicode_list[0]), unicode_list_c
 332              		.loc 1 234 28 is_stmt 0 view .LVU102
 333 008a 184B     		ldr	r3, .L41
 233:Drivers/lvgl/src/font/lv_font_fmt_txt.c ****             uint16_t * p = _lv_utils_bsearch(&key, fdsc->cmaps[i].unicode_list, fdsc->cmaps[i].list
 334              		.loc 1 233 22 view .LVU103
 335 008c ADF80E20 		strh	r2, [sp, #14]	@ movhi
 234:Drivers/lvgl/src/font/lv_font_fmt_txt.c ****                                              sizeof(fdsc->cmaps[i].unicode_list[0]), unicode_list_c
 336              		.loc 1 234 13 is_stmt 1 view .LVU104
 234:Drivers/lvgl/src/font/lv_font_fmt_txt.c ****                                              sizeof(fdsc->cmaps[i].unicode_list[0]), unicode_list_c
 337              		.loc 1 234 28 is_stmt 0 view .LVU105
 338 0090 0A8A     		ldrh	r2, [r1, #16]
 339              	.LVL30:
 234:Drivers/lvgl/src/font/lv_font_fmt_txt.c ****                                              sizeof(fdsc->cmaps[i].unicode_list[0]), unicode_list_c
 340              		.loc 1 234 28 view .LVU106
 341 0092 8968     		ldr	r1, [r1, #8]
 342 0094 0093     		str	r3, [sp]
 343              	.LVL31:
 234:Drivers/lvgl/src/font/lv_font_fmt_txt.c ****                                              sizeof(fdsc->cmaps[i].unicode_list[0]), unicode_list_c
 344              		.loc 1 234 28 view .LVU107
 345 0096 0DF10E00 		add	r0, sp, #14
 346 009a 0223     		movs	r3, #2
 347 009c FFF7FEFF 		bl	_lv_utils_bsearch
 348              	.LVL32:
 237:Drivers/lvgl/src/font/lv_font_fmt_txt.c ****                 lv_uintptr_t ofs = p - fdsc->cmaps[i].unicode_list;
 349              		.loc 1 237 13 is_stmt 1 view .LVU108
 237:Drivers/lvgl/src/font/lv_font_fmt_txt.c ****                 lv_uintptr_t ofs = p - fdsc->cmaps[i].unicode_list;
 350              		.loc 1 237 15 is_stmt 0 view .LVU109
 351 00a0 0346     		mov	r3, r0
 352 00a2 F0B1     		cbz	r0, .L26
 353              	.LBB24:
 238:Drivers/lvgl/src/font/lv_font_fmt_txt.c ****                 glyph_id = fdsc->cmaps[i].glyph_id_start + ofs;
 354              		.loc 1 238 17 is_stmt 1 view .LVU110
 238:Drivers/lvgl/src/font/lv_font_fmt_txt.c ****                 glyph_id = fdsc->cmaps[i].glyph_id_start + ofs;
 355              		.loc 1 238 51 is_stmt 0 view .LVU111
 356 00a4 AA68     		ldr	r2, [r5, #8]
 357 00a6 3244     		add	r2, r2, r6
 358              	.LVL33:
ARM GAS  /var/folders/0z/tsy30v1j4xl4_7kw94k978ww0000gn/T//cc7dhRUt.s 			page 19


 239:Drivers/lvgl/src/font/lv_font_fmt_txt.c ****             }
 359              		.loc 1 239 17 is_stmt 1 view .LVU112
 238:Drivers/lvgl/src/font/lv_font_fmt_txt.c ****                 glyph_id = fdsc->cmaps[i].glyph_id_start + ofs;
 360              		.loc 1 238 38 is_stmt 0 view .LVU113
 361 00a8 9068     		ldr	r0, [r2, #8]
 362              	.LVL34:
 239:Drivers/lvgl/src/font/lv_font_fmt_txt.c ****             }
 363              		.loc 1 239 42 view .LVU114
 364 00aa D288     		ldrh	r2, [r2, #6]
 365              	.LVL35:
 238:Drivers/lvgl/src/font/lv_font_fmt_txt.c ****                 glyph_id = fdsc->cmaps[i].glyph_id_start + ofs;
 366              		.loc 1 238 38 view .LVU115
 367 00ac 181A     		subs	r0, r3, r0
 368              	.LVL36:
 239:Drivers/lvgl/src/font/lv_font_fmt_txt.c ****             }
 369              		.loc 1 239 26 view .LVU116
 370 00ae 02EB6000 		add	r0, r2, r0, asr #1
 371              	.LVL37:
 239:Drivers/lvgl/src/font/lv_font_fmt_txt.c ****             }
 372              		.loc 1 239 26 view .LVU117
 373 00b2 14E0     		b	.L21
 374              	.LVL38:
 375              	.L40:
 239:Drivers/lvgl/src/font/lv_font_fmt_txt.c ****             }
 376              		.loc 1 239 26 view .LVU118
 377              	.LBE24:
 378              	.LBE23:
 379              	.LBB25:
 243:Drivers/lvgl/src/font/lv_font_fmt_txt.c ****             uint16_t * p = _lv_utils_bsearch(&key, fdsc->cmaps[i].unicode_list, fdsc->cmaps[i].list
 380              		.loc 1 243 13 is_stmt 1 view .LVU119
 244:Drivers/lvgl/src/font/lv_font_fmt_txt.c ****                                              sizeof(fdsc->cmaps[i].unicode_list[0]), unicode_list_c
 381              		.loc 1 244 28 is_stmt 0 view .LVU120
 382 00b4 0D4B     		ldr	r3, .L41
 243:Drivers/lvgl/src/font/lv_font_fmt_txt.c ****             uint16_t * p = _lv_utils_bsearch(&key, fdsc->cmaps[i].unicode_list, fdsc->cmaps[i].list
 383              		.loc 1 243 22 view .LVU121
 384 00b6 ADF80E20 		strh	r2, [sp, #14]	@ movhi
 244:Drivers/lvgl/src/font/lv_font_fmt_txt.c ****                                              sizeof(fdsc->cmaps[i].unicode_list[0]), unicode_list_c
 385              		.loc 1 244 13 is_stmt 1 view .LVU122
 244:Drivers/lvgl/src/font/lv_font_fmt_txt.c ****                                              sizeof(fdsc->cmaps[i].unicode_list[0]), unicode_list_c
 386              		.loc 1 244 28 is_stmt 0 view .LVU123
 387 00ba 0A8A     		ldrh	r2, [r1, #16]
 388              	.LVL39:
 244:Drivers/lvgl/src/font/lv_font_fmt_txt.c ****                                              sizeof(fdsc->cmaps[i].unicode_list[0]), unicode_list_c
 389              		.loc 1 244 28 view .LVU124
 390 00bc 8968     		ldr	r1, [r1, #8]
 391 00be 0093     		str	r3, [sp]
 392              	.LVL40:
 244:Drivers/lvgl/src/font/lv_font_fmt_txt.c ****                                              sizeof(fdsc->cmaps[i].unicode_list[0]), unicode_list_c
 393              		.loc 1 244 28 view .LVU125
 394 00c0 0DF10E00 		add	r0, sp, #14
 395 00c4 0223     		movs	r3, #2
 396 00c6 FFF7FEFF 		bl	_lv_utils_bsearch
 397              	.LVL41:
 247:Drivers/lvgl/src/font/lv_font_fmt_txt.c ****                 lv_uintptr_t ofs = p - fdsc->cmaps[i].unicode_list;
 398              		.loc 1 247 13 is_stmt 1 view .LVU126
 247:Drivers/lvgl/src/font/lv_font_fmt_txt.c ****                 lv_uintptr_t ofs = p - fdsc->cmaps[i].unicode_list;
 399              		.loc 1 247 15 is_stmt 0 view .LVU127
ARM GAS  /var/folders/0z/tsy30v1j4xl4_7kw94k978ww0000gn/T//cc7dhRUt.s 			page 20


 400 00ca 0346     		mov	r3, r0
 401 00cc 48B1     		cbz	r0, .L26
 402              	.LBB26:
 248:Drivers/lvgl/src/font/lv_font_fmt_txt.c ****                 const uint16_t * gid_ofs_16 = fdsc->cmaps[i].glyph_id_ofs_list;
 403              		.loc 1 248 17 is_stmt 1 view .LVU128
 248:Drivers/lvgl/src/font/lv_font_fmt_txt.c ****                 const uint16_t * gid_ofs_16 = fdsc->cmaps[i].glyph_id_ofs_list;
 404              		.loc 1 248 51 is_stmt 0 view .LVU129
 405 00ce AA68     		ldr	r2, [r5, #8]
 406 00d0 3244     		add	r2, r2, r6
 407              	.LVL42:
 249:Drivers/lvgl/src/font/lv_font_fmt_txt.c ****                 glyph_id = fdsc->cmaps[i].glyph_id_start + gid_ofs_16[ofs];
 408              		.loc 1 249 17 is_stmt 1 view .LVU130
 250:Drivers/lvgl/src/font/lv_font_fmt_txt.c ****             }
 409              		.loc 1 250 17 view .LVU131
 248:Drivers/lvgl/src/font/lv_font_fmt_txt.c ****                 const uint16_t * gid_ofs_16 = fdsc->cmaps[i].glyph_id_ofs_list;
 410              		.loc 1 248 38 is_stmt 0 view .LVU132
 411 00d2 9168     		ldr	r1, [r2, #8]
 250:Drivers/lvgl/src/font/lv_font_fmt_txt.c ****             }
 412              		.loc 1 250 42 view .LVU133
 413 00d4 D388     		ldrh	r3, [r2, #6]
 248:Drivers/lvgl/src/font/lv_font_fmt_txt.c ****                 const uint16_t * gid_ofs_16 = fdsc->cmaps[i].glyph_id_ofs_list;
 414              		.loc 1 248 38 view .LVU134
 415 00d6 401A     		subs	r0, r0, r1
 416              	.LVL43:
 250:Drivers/lvgl/src/font/lv_font_fmt_txt.c ****             }
 417              		.loc 1 250 70 view .LVU135
 418 00d8 D168     		ldr	r1, [r2, #12]
 419 00da 085A     		ldrh	r0, [r1, r0]
 250:Drivers/lvgl/src/font/lv_font_fmt_txt.c ****             }
 420              		.loc 1 250 58 view .LVU136
 421 00dc 1844     		add	r0, r0, r3
 422              	.LVL44:
 423              	.L21:
 250:Drivers/lvgl/src/font/lv_font_fmt_txt.c ****             }
 424              		.loc 1 250 58 view .LVU137
 425              	.LBE26:
 426              	.LBE25:
 255:Drivers/lvgl/src/font/lv_font_fmt_txt.c ****             fdsc->cache->last_letter = letter;
 427              		.loc 1 255 16 view .LVU138
 428 00de 6F69     		ldr	r7, [r5, #20]
 429 00e0 AEE7     		b	.L17
 430              	.LVL45:
 431              	.L26:
 224:Drivers/lvgl/src/font/lv_font_fmt_txt.c ****         if(fdsc->cmaps[i].type == LV_FONT_FMT_TXT_CMAP_FORMAT0_TINY) {
 432              		.loc 1 224 18 view .LVU139
 433 00e2 1846     		mov	r0, r3
 434 00e4 FBE7     		b	.L21
 435              	.LVL46:
 436              	.L27:
 224:Drivers/lvgl/src/font/lv_font_fmt_txt.c ****         if(fdsc->cmaps[i].type == LV_FONT_FMT_TXT_CMAP_FORMAT0_TINY) {
 437              		.loc 1 224 18 view .LVU140
 438              	.LBE29:
 266:Drivers/lvgl/src/font/lv_font_fmt_txt.c **** 
 439              		.loc 1 266 12 view .LVU141
 440 00e6 3846     		mov	r0, r7
 441              	.LVL47:
 266:Drivers/lvgl/src/font/lv_font_fmt_txt.c **** 
ARM GAS  /var/folders/0z/tsy30v1j4xl4_7kw94k978ww0000gn/T//cc7dhRUt.s 			page 21


 442              		.loc 1 266 12 view .LVU142
 443 00e8 ADE7     		b	.L9
 444              	.L42:
 445 00ea 00BF     		.align	2
 446              	.L41:
 447 00ec 00000000 		.word	unicode_list_compare
 448              		.cfi_endproc
 449              	.LFE35:
 451              		.section	.text.lv_font_get_bitmap_fmt_txt,"ax",%progbits
 452              		.align	1
 453              		.p2align 2,,3
 454              		.global	lv_font_get_bitmap_fmt_txt
 455              		.syntax unified
 456              		.thumb
 457              		.thumb_func
 459              	lv_font_get_bitmap_fmt_txt:
 460              	.LVL48:
 461              	.LFB26:
  80:Drivers/lvgl/src/font/lv_font_fmt_txt.c ****     if(unicode_letter == '\t') unicode_letter = ' ';
 462              		.loc 1 80 1 is_stmt 1 view -0
 463              		.cfi_startproc
 464              		@ args = 0, pretend = 0, frame = 0
 465              		@ frame_needed = 0, uses_anonymous_args = 0
  81:Drivers/lvgl/src/font/lv_font_fmt_txt.c **** 
 466              		.loc 1 81 5 view .LVU144
  81:Drivers/lvgl/src/font/lv_font_fmt_txt.c **** 
 467              		.loc 1 81 7 is_stmt 0 view .LVU145
 468 0000 0929     		cmp	r1, #9
  80:Drivers/lvgl/src/font/lv_font_fmt_txt.c ****     if(unicode_letter == '\t') unicode_letter = ' ';
 469              		.loc 1 80 1 view .LVU146
 470 0002 10B5     		push	{r4, lr}
 471              		.cfi_def_cfa_offset 8
 472              		.cfi_offset 4, -8
 473              		.cfi_offset 14, -4
  83:Drivers/lvgl/src/font/lv_font_fmt_txt.c ****     uint32_t gid = get_glyph_dsc_id(font, unicode_letter);
 474              		.loc 1 83 29 view .LVU147
 475 0004 0469     		ldr	r4, [r0, #16]
  81:Drivers/lvgl/src/font/lv_font_fmt_txt.c **** 
 476              		.loc 1 81 7 view .LVU148
 477 0006 12D0     		beq	.L52
  83:Drivers/lvgl/src/font/lv_font_fmt_txt.c ****     uint32_t gid = get_glyph_dsc_id(font, unicode_letter);
 478              		.loc 1 83 5 is_stmt 1 view .LVU149
 479              	.LVL49:
  84:Drivers/lvgl/src/font/lv_font_fmt_txt.c ****     if(!gid) return NULL;
 480              		.loc 1 84 5 view .LVU150
 481              	.LBB30:
 482              	.LBI30:
 209:Drivers/lvgl/src/font/lv_font_fmt_txt.c **** {
 483              		.loc 1 209 17 view .LVU151
 484              	.LBB31:
 211:Drivers/lvgl/src/font/lv_font_fmt_txt.c **** 
 485              		.loc 1 211 5 view .LVU152
 211:Drivers/lvgl/src/font/lv_font_fmt_txt.c **** 
 486              		.loc 1 211 7 is_stmt 0 view .LVU153
 487 0008 79B1     		cbz	r1, .L47
 488              	.LVL50:
 489              	.L45:
ARM GAS  /var/folders/0z/tsy30v1j4xl4_7kw94k978ww0000gn/T//cc7dhRUt.s 			page 22


 211:Drivers/lvgl/src/font/lv_font_fmt_txt.c **** 
 490              		.loc 1 211 7 view .LVU154
 491 000a 2046     		mov	r0, r4
 492              	.LVL51:
 211:Drivers/lvgl/src/font/lv_font_fmt_txt.c **** 
 493              		.loc 1 211 7 view .LVU155
 494 000c FFF7FEFF 		bl	get_glyph_dsc_id.part.0.isra.0
 495              	.LVL52:
 211:Drivers/lvgl/src/font/lv_font_fmt_txt.c **** 
 496              		.loc 1 211 7 view .LVU156
 497              	.LBE31:
 498              	.LBE30:
  85:Drivers/lvgl/src/font/lv_font_fmt_txt.c **** 
 499              		.loc 1 85 5 is_stmt 1 view .LVU157
  85:Drivers/lvgl/src/font/lv_font_fmt_txt.c **** 
 500              		.loc 1 85 7 is_stmt 0 view .LVU158
 501 0010 58B1     		cbz	r0, .L47
  87:Drivers/lvgl/src/font/lv_font_fmt_txt.c **** 
 502              		.loc 1 87 5 is_stmt 1 view .LVU159
  89:Drivers/lvgl/src/font/lv_font_fmt_txt.c ****         return &fdsc->glyph_bitmap[gdsc->bitmap_index];
 503              		.loc 1 89 28 is_stmt 0 view .LVU160
 504 0012 E37C     		ldrb	r3, [r4, #19]	@ zero_extendqisi2
  87:Drivers/lvgl/src/font/lv_font_fmt_txt.c **** 
 505              		.loc 1 87 53 view .LVU161
 506 0014 6268     		ldr	r2, [r4, #4]
 507              	.LVL53:
  89:Drivers/lvgl/src/font/lv_font_fmt_txt.c ****         return &fdsc->glyph_bitmap[gdsc->bitmap_index];
 508              		.loc 1 89 5 is_stmt 1 view .LVU162
  89:Drivers/lvgl/src/font/lv_font_fmt_txt.c ****         return &fdsc->glyph_bitmap[gdsc->bitmap_index];
 509              		.loc 1 89 7 is_stmt 0 view .LVU163
 510 0016 13F0C00F 		tst	r3, #192
 511 001a 06D1     		bne	.L47
  90:Drivers/lvgl/src/font/lv_font_fmt_txt.c ****     }
 512              		.loc 1 90 9 is_stmt 1 view .LVU164
  90:Drivers/lvgl/src/font/lv_font_fmt_txt.c ****     }
 513              		.loc 1 90 40 is_stmt 0 view .LVU165
 514 001c 52F83030 		ldr	r3, [r2, r0, lsl #3]
  90:Drivers/lvgl/src/font/lv_font_fmt_txt.c ****     }
 515              		.loc 1 90 16 view .LVU166
 516 0020 2068     		ldr	r0, [r4]
 517              	.LVL54:
  90:Drivers/lvgl/src/font/lv_font_fmt_txt.c ****     }
 518              		.loc 1 90 40 view .LVU167
 519 0022 C3F31303 		ubfx	r3, r3, #0, #20
  90:Drivers/lvgl/src/font/lv_font_fmt_txt.c ****     }
 520              		.loc 1 90 16 view .LVU168
 521 0026 1844     		add	r0, r0, r3
 138:Drivers/lvgl/src/font/lv_font_fmt_txt.c **** 
 522              		.loc 1 138 1 view .LVU169
 523 0028 10BD     		pop	{r4, pc}
 524              	.LVL55:
 525              	.L47:
  85:Drivers/lvgl/src/font/lv_font_fmt_txt.c **** 
 526              		.loc 1 85 21 view .LVU170
 527 002a 0020     		movs	r0, #0
 138:Drivers/lvgl/src/font/lv_font_fmt_txt.c **** 
 528              		.loc 1 138 1 view .LVU171
ARM GAS  /var/folders/0z/tsy30v1j4xl4_7kw94k978ww0000gn/T//cc7dhRUt.s 			page 23


 529 002c 10BD     		pop	{r4, pc}
 530              	.LVL56:
 531              	.L52:
  81:Drivers/lvgl/src/font/lv_font_fmt_txt.c **** 
 532              		.loc 1 81 32 is_stmt 1 view .LVU172
  83:Drivers/lvgl/src/font/lv_font_fmt_txt.c ****     uint32_t gid = get_glyph_dsc_id(font, unicode_letter);
 533              		.loc 1 83 5 view .LVU173
  84:Drivers/lvgl/src/font/lv_font_fmt_txt.c ****     if(!gid) return NULL;
 534              		.loc 1 84 5 view .LVU174
 535              	.LBB33:
 209:Drivers/lvgl/src/font/lv_font_fmt_txt.c **** {
 536              		.loc 1 209 17 view .LVU175
 537              	.LBB32:
 211:Drivers/lvgl/src/font/lv_font_fmt_txt.c **** 
 538              		.loc 1 211 5 view .LVU176
 539              	.LBE32:
 540              	.LBE33:
  81:Drivers/lvgl/src/font/lv_font_fmt_txt.c **** 
 541              		.loc 1 81 47 is_stmt 0 view .LVU177
 542 002e 2021     		movs	r1, #32
 543 0030 EBE7     		b	.L45
 544              		.cfi_endproc
 545              	.LFE26:
 547 0032 00BF     		.section	.text.lv_font_get_glyph_dsc_fmt_txt,"ax",%progbits
 548              		.align	1
 549              		.p2align 2,,3
 550              		.global	lv_font_get_glyph_dsc_fmt_txt
 551              		.syntax unified
 552              		.thumb
 553              		.thumb_func
 555              	lv_font_get_glyph_dsc_fmt_txt:
 556              	.LVL57:
 557              	.LFB27:
 150:Drivers/lvgl/src/font/lv_font_fmt_txt.c ****     /*It fixes a strange compiler optimization issue: https://github.com/lvgl/lvgl/issues/4370*/
 558              		.loc 1 150 1 is_stmt 1 view -0
 559              		.cfi_startproc
 560              		@ args = 0, pretend = 0, frame = 8
 561              		@ frame_needed = 0, uses_anonymous_args = 0
 152:Drivers/lvgl/src/font/lv_font_fmt_txt.c ****     if(is_tab) {
 562              		.loc 1 152 5 view .LVU179
 150:Drivers/lvgl/src/font/lv_font_fmt_txt.c ****     /*It fixes a strange compiler optimization issue: https://github.com/lvgl/lvgl/issues/4370*/
 563              		.loc 1 150 1 is_stmt 0 view .LVU180
 564 0000 2DE9F043 		push	{r4, r5, r6, r7, r8, r9, lr}
 565              		.cfi_def_cfa_offset 28
 566              		.cfi_offset 4, -28
 567              		.cfi_offset 5, -24
 568              		.cfi_offset 6, -20
 569              		.cfi_offset 7, -16
 570              		.cfi_offset 8, -12
 571              		.cfi_offset 9, -8
 572              		.cfi_offset 14, -4
 153:Drivers/lvgl/src/font/lv_font_fmt_txt.c ****         unicode_letter = ' ';
 573              		.loc 1 153 7 view .LVU181
 574 0004 092A     		cmp	r2, #9
 156:Drivers/lvgl/src/font/lv_font_fmt_txt.c ****     uint32_t gid = get_glyph_dsc_id(font, unicode_letter);
 575              		.loc 1 156 29 view .LVU182
 576 0006 0669     		ldr	r6, [r0, #16]
ARM GAS  /var/folders/0z/tsy30v1j4xl4_7kw94k978ww0000gn/T//cc7dhRUt.s 			page 24


 150:Drivers/lvgl/src/font/lv_font_fmt_txt.c ****     /*It fixes a strange compiler optimization issue: https://github.com/lvgl/lvgl/issues/4370*/
 577              		.loc 1 150 1 view .LVU183
 578 0008 85B0     		sub	sp, sp, #20
 579              		.cfi_def_cfa_offset 48
 150:Drivers/lvgl/src/font/lv_font_fmt_txt.c ****     /*It fixes a strange compiler optimization issue: https://github.com/lvgl/lvgl/issues/4370*/
 580              		.loc 1 150 1 view .LVU184
 581 000a 1546     		mov	r5, r2
 582              	.LVL58:
 153:Drivers/lvgl/src/font/lv_font_fmt_txt.c ****         unicode_letter = ' ';
 583              		.loc 1 153 5 is_stmt 1 view .LVU185
 150:Drivers/lvgl/src/font/lv_font_fmt_txt.c ****     /*It fixes a strange compiler optimization issue: https://github.com/lvgl/lvgl/issues/4370*/
 584              		.loc 1 150 1 is_stmt 0 view .LVU186
 585 000c 0746     		mov	r7, r0
 586 000e 0C46     		mov	r4, r1
 587 0010 9846     		mov	r8, r3
 153:Drivers/lvgl/src/font/lv_font_fmt_txt.c ****         unicode_letter = ' ';
 588              		.loc 1 153 7 view .LVU187
 589 0012 48D0     		beq	.L86
 156:Drivers/lvgl/src/font/lv_font_fmt_txt.c ****     uint32_t gid = get_glyph_dsc_id(font, unicode_letter);
 590              		.loc 1 156 5 is_stmt 1 view .LVU188
 591              	.LVL59:
 157:Drivers/lvgl/src/font/lv_font_fmt_txt.c ****     if(!gid) return false;
 592              		.loc 1 157 5 view .LVU189
 593              	.LBB53:
 594              	.LBI53:
 209:Drivers/lvgl/src/font/lv_font_fmt_txt.c **** {
 595              		.loc 1 209 17 view .LVU190
 596              	.LBB54:
 211:Drivers/lvgl/src/font/lv_font_fmt_txt.c **** 
 597              		.loc 1 211 5 view .LVU191
 211:Drivers/lvgl/src/font/lv_font_fmt_txt.c **** 
 598              		.loc 1 211 7 is_stmt 0 view .LVU192
 599 0014 002A     		cmp	r2, #0
 600 0016 42D0     		beq	.L57
 601 0018 1146     		mov	r1, r2
 602              	.LVL60:
 603              	.L55:
 211:Drivers/lvgl/src/font/lv_font_fmt_txt.c **** 
 604              		.loc 1 211 7 view .LVU193
 605 001a 3046     		mov	r0, r6
 606              	.LVL61:
 211:Drivers/lvgl/src/font/lv_font_fmt_txt.c **** 
 607              		.loc 1 211 7 view .LVU194
 608 001c FFF7FEFF 		bl	get_glyph_dsc_id.part.0.isra.0
 609              	.LVL62:
 211:Drivers/lvgl/src/font/lv_font_fmt_txt.c **** 
 610              		.loc 1 211 7 view .LVU195
 611              	.LBE54:
 612              	.LBE53:
 158:Drivers/lvgl/src/font/lv_font_fmt_txt.c **** 
 613              		.loc 1 158 5 is_stmt 1 view .LVU196
 158:Drivers/lvgl/src/font/lv_font_fmt_txt.c **** 
 614              		.loc 1 158 7 is_stmt 0 view .LVU197
 615 0020 8146     		mov	r9, r0
 616 0022 0028     		cmp	r0, #0
 617 0024 3BD0     		beq	.L57
 160:Drivers/lvgl/src/font/lv_font_fmt_txt.c ****     if(fdsc->kern_dsc) {
ARM GAS  /var/folders/0z/tsy30v1j4xl4_7kw94k978ww0000gn/T//cc7dhRUt.s 			page 25


 618              		.loc 1 160 5 is_stmt 1 view .LVU198
 619              	.LVL63:
 161:Drivers/lvgl/src/font/lv_font_fmt_txt.c ****         uint32_t gid_next = get_glyph_dsc_id(font, unicode_letter_next);
 620              		.loc 1 161 5 view .LVU199
 161:Drivers/lvgl/src/font/lv_font_fmt_txt.c ****         uint32_t gid_next = get_glyph_dsc_id(font, unicode_letter_next);
 621              		.loc 1 161 7 is_stmt 0 view .LVU200
 622 0026 F368     		ldr	r3, [r6, #12]
 623 0028 43B1     		cbz	r3, .L60
 624              	.LBB56:
 162:Drivers/lvgl/src/font/lv_font_fmt_txt.c ****         if(gid_next) {
 625              		.loc 1 162 9 is_stmt 1 view .LVU201
 626              	.LVL64:
 627              	.LBB57:
 628              	.LBI57:
 209:Drivers/lvgl/src/font/lv_font_fmt_txt.c **** {
 629              		.loc 1 209 17 view .LVU202
 630              	.LBB58:
 211:Drivers/lvgl/src/font/lv_font_fmt_txt.c **** 
 631              		.loc 1 211 5 view .LVU203
 211:Drivers/lvgl/src/font/lv_font_fmt_txt.c **** 
 632              		.loc 1 211 7 is_stmt 0 view .LVU204
 633 002a B8F1000F 		cmp	r8, #0
 634 002e 05D0     		beq	.L60
 635 0030 3869     		ldr	r0, [r7, #16]
 636              	.LVL65:
 211:Drivers/lvgl/src/font/lv_font_fmt_txt.c **** 
 637              		.loc 1 211 7 view .LVU205
 638 0032 4146     		mov	r1, r8
 639 0034 FFF7FEFF 		bl	get_glyph_dsc_id.part.0.isra.0
 640              	.LVL66:
 211:Drivers/lvgl/src/font/lv_font_fmt_txt.c **** 
 641              		.loc 1 211 7 view .LVU206
 642              	.LBE58:
 643              	.LBE57:
 163:Drivers/lvgl/src/font/lv_font_fmt_txt.c ****             kvalue = get_kern_value(font, gid, gid_next);
 644              		.loc 1 163 9 is_stmt 1 view .LVU207
 163:Drivers/lvgl/src/font/lv_font_fmt_txt.c ****             kvalue = get_kern_value(font, gid, gid_next);
 645              		.loc 1 163 11 is_stmt 0 view .LVU208
 646 0038 0028     		cmp	r0, #0
 647 003a 36D1     		bne	.L87
 648              	.LVL67:
 649              	.L60:
 650              	.LBB59:
 651              	.LBB60:
 652              	.LBB61:
 653              	.LBB62:
 163:Drivers/lvgl/src/font/lv_font_fmt_txt.c ****             kvalue = get_kern_value(font, gid, gid_next);
 654              		.loc 1 163 11 view .LVU209
 655 003c 0022     		movs	r2, #0
 656              	.L59:
 657              	.LVL68:
 163:Drivers/lvgl/src/font/lv_font_fmt_txt.c ****             kvalue = get_kern_value(font, gid, gid_next);
 658              		.loc 1 163 11 view .LVU210
 659              	.LBE62:
 660              	.LBE61:
 661              	.LBE60:
 662              	.LBE59:
ARM GAS  /var/folders/0z/tsy30v1j4xl4_7kw94k978ww0000gn/T//cc7dhRUt.s 			page 26


 663              	.LBE56:
 169:Drivers/lvgl/src/font/lv_font_fmt_txt.c **** 
 664              		.loc 1 169 5 is_stmt 1 view .LVU211
 169:Drivers/lvgl/src/font/lv_font_fmt_txt.c **** 
 665              		.loc 1 169 41 is_stmt 0 view .LVU212
 666 003e 7068     		ldr	r0, [r6, #4]
 171:Drivers/lvgl/src/font/lv_font_fmt_txt.c **** 
 667              		.loc 1 171 51 view .LVU213
 668 0040 338A     		ldrh	r3, [r6, #16]
 169:Drivers/lvgl/src/font/lv_font_fmt_txt.c **** 
 669              		.loc 1 169 41 view .LVU214
 670 0042 00EBC900 		add	r0, r0, r9, lsl #3
 671              	.LVL69:
 171:Drivers/lvgl/src/font/lv_font_fmt_txt.c **** 
 672              		.loc 1 171 5 is_stmt 1 view .LVU215
 171:Drivers/lvgl/src/font/lv_font_fmt_txt.c **** 
 673              		.loc 1 171 19 is_stmt 0 view .LVU216
 674 0046 02FB03F3 		mul	r3, r2, r3
 173:Drivers/lvgl/src/font/lv_font_fmt_txt.c ****     if(is_tab) adv_w *= 2;
 675              		.loc 1 173 26 view .LVU217
 676 004a 4288     		ldrh	r2, [r0, #2]
 174:Drivers/lvgl/src/font/lv_font_fmt_txt.c **** 
 677              		.loc 1 174 7 view .LVU218
 678 004c 092D     		cmp	r5, #9
 173:Drivers/lvgl/src/font/lv_font_fmt_txt.c ****     if(is_tab) adv_w *= 2;
 679              		.loc 1 173 26 view .LVU219
 680 004e C2F30B11 		ubfx	r1, r2, #4, #12
 681 0052 0A46     		mov	r2, r1
 171:Drivers/lvgl/src/font/lv_font_fmt_txt.c **** 
 682              		.loc 1 171 13 view .LVU220
 683 0054 4FEA2313 		asr	r3, r3, #4
 684              	.LVL70:
 173:Drivers/lvgl/src/font/lv_font_fmt_txt.c ****     if(is_tab) adv_w *= 2;
 685              		.loc 1 173 5 is_stmt 1 view .LVU221
 174:Drivers/lvgl/src/font/lv_font_fmt_txt.c **** 
 686              		.loc 1 174 5 view .LVU222
 174:Drivers/lvgl/src/font/lv_font_fmt_txt.c **** 
 687              		.loc 1 174 16 view .LVU223
 174:Drivers/lvgl/src/font/lv_font_fmt_txt.c **** 
 688              		.loc 1 174 22 is_stmt 0 view .LVU224
 689 0058 04BF     		itt	eq
 690 005a 09B2     		sxtheq	r1, r1
 691              	.LVL71:
 174:Drivers/lvgl/src/font/lv_font_fmt_txt.c **** 
 692              		.loc 1 174 22 view .LVU225
 693 005c 4A00     		lsleq	r2, r1, #1
 694              	.LVL72:
 176:Drivers/lvgl/src/font/lv_font_fmt_txt.c ****     adv_w  = (adv_w + (1 << 3)) >> 4;
 695              		.loc 1 176 5 is_stmt 1 view .LVU226
 177:Drivers/lvgl/src/font/lv_font_fmt_txt.c **** 
 696              		.loc 1 177 5 view .LVU227
 177:Drivers/lvgl/src/font/lv_font_fmt_txt.c **** 
 697              		.loc 1 177 21 is_stmt 0 view .LVU228
 698 005e 0833     		adds	r3, r3, #8
 699              	.LVL73:
 177:Drivers/lvgl/src/font/lv_font_fmt_txt.c **** 
 700              		.loc 1 177 21 view .LVU229
ARM GAS  /var/folders/0z/tsy30v1j4xl4_7kw94k978ww0000gn/T//cc7dhRUt.s 			page 27


 701 0060 1344     		add	r3, r3, r2
 702              	.LVL74:
 179:Drivers/lvgl/src/font/lv_font_fmt_txt.c ****     dsc_out->box_h = gdsc->box_h;
 703              		.loc 1 179 5 is_stmt 1 view .LVU230
 177:Drivers/lvgl/src/font/lv_font_fmt_txt.c **** 
 704              		.loc 1 177 12 is_stmt 0 view .LVU231
 705 0062 1B09     		lsrs	r3, r3, #4
 706              	.LVL75:
 179:Drivers/lvgl/src/font/lv_font_fmt_txt.c ****     dsc_out->box_h = gdsc->box_h;
 707              		.loc 1 179 20 view .LVU232
 708 0064 A380     		strh	r3, [r4, #4]	@ movhi
 180:Drivers/lvgl/src/font/lv_font_fmt_txt.c ****     dsc_out->box_w = gdsc->box_w;
 709              		.loc 1 180 5 is_stmt 1 view .LVU233
 180:Drivers/lvgl/src/font/lv_font_fmt_txt.c ****     dsc_out->box_w = gdsc->box_w;
 710              		.loc 1 180 26 is_stmt 0 view .LVU234
 711 0066 4379     		ldrb	r3, [r0, #5]	@ zero_extendqisi2
 712              	.LVL76:
 184:Drivers/lvgl/src/font/lv_font_fmt_txt.c ****     dsc_out->is_placeholder = false;
 713              		.loc 1 184 35 view .LVU235
 714 0068 F27C     		ldrb	r2, [r6, #19]	@ zero_extendqisi2
 180:Drivers/lvgl/src/font/lv_font_fmt_txt.c ****     dsc_out->box_w = gdsc->box_w;
 715              		.loc 1 180 26 view .LVU236
 716 006a 2381     		strh	r3, [r4, #8]	@ movhi
 181:Drivers/lvgl/src/font/lv_font_fmt_txt.c ****     dsc_out->ofs_x = gdsc->ofs_x;
 717              		.loc 1 181 5 is_stmt 1 view .LVU237
 184:Drivers/lvgl/src/font/lv_font_fmt_txt.c ****     dsc_out->is_placeholder = false;
 718              		.loc 1 184 20 is_stmt 0 view .LVU238
 719 006c A37B     		ldrb	r3, [r4, #14]	@ zero_extendqisi2
 181:Drivers/lvgl/src/font/lv_font_fmt_txt.c ****     dsc_out->ofs_x = gdsc->ofs_x;
 720              		.loc 1 181 26 view .LVU239
 721 006e 0179     		ldrb	r1, [r0, #4]	@ zero_extendqisi2
 181:Drivers/lvgl/src/font/lv_font_fmt_txt.c ****     dsc_out->ofs_x = gdsc->ofs_x;
 722              		.loc 1 181 20 view .LVU240
 723 0070 E180     		strh	r1, [r4, #6]	@ movhi
 182:Drivers/lvgl/src/font/lv_font_fmt_txt.c ****     dsc_out->ofs_y = gdsc->ofs_y;
 724              		.loc 1 182 5 is_stmt 1 view .LVU241
 184:Drivers/lvgl/src/font/lv_font_fmt_txt.c ****     dsc_out->is_placeholder = false;
 725              		.loc 1 184 20 is_stmt 0 view .LVU242
 726 0072 C2F34302 		ubfx	r2, r2, #1, #4
 727 0076 23F01F03 		bic	r3, r3, #31
 728 007a 1343     		orrs	r3, r3, r2
 182:Drivers/lvgl/src/font/lv_font_fmt_txt.c ****     dsc_out->ofs_y = gdsc->ofs_y;
 729              		.loc 1 182 26 view .LVU243
 730 007c 90F90620 		ldrsb	r2, [r0, #6]
 731 0080 6281     		strh	r2, [r4, #10]	@ movhi
 183:Drivers/lvgl/src/font/lv_font_fmt_txt.c ****     dsc_out->bpp   = (uint8_t)fdsc->bpp;
 732              		.loc 1 183 5 is_stmt 1 view .LVU244
 183:Drivers/lvgl/src/font/lv_font_fmt_txt.c ****     dsc_out->bpp   = (uint8_t)fdsc->bpp;
 733              		.loc 1 183 26 is_stmt 0 view .LVU245
 734 0082 90F90720 		ldrsb	r2, [r0, #7]
 735 0086 A281     		strh	r2, [r4, #12]	@ movhi
 184:Drivers/lvgl/src/font/lv_font_fmt_txt.c ****     dsc_out->is_placeholder = false;
 736              		.loc 1 184 5 is_stmt 1 view .LVU246
 185:Drivers/lvgl/src/font/lv_font_fmt_txt.c **** 
 737              		.loc 1 185 5 view .LVU247
 187:Drivers/lvgl/src/font/lv_font_fmt_txt.c **** 
 738              		.loc 1 187 7 is_stmt 0 view .LVU248
ARM GAS  /var/folders/0z/tsy30v1j4xl4_7kw94k978ww0000gn/T//cc7dhRUt.s 			page 28


 739 0088 092D     		cmp	r5, #9
 187:Drivers/lvgl/src/font/lv_font_fmt_txt.c **** 
 740              		.loc 1 187 31 view .LVU249
 741 008a 08BF     		it	eq
 742 008c 4900     		lsleq	r1, r1, #1
 189:Drivers/lvgl/src/font/lv_font_fmt_txt.c **** }
 743              		.loc 1 189 12 view .LVU250
 744 008e 4FF00100 		mov	r0, #1
 745              	.LVL77:
 184:Drivers/lvgl/src/font/lv_font_fmt_txt.c ****     dsc_out->is_placeholder = false;
 746              		.loc 1 184 20 view .LVU251
 747 0092 A373     		strb	r3, [r4, #14]
 187:Drivers/lvgl/src/font/lv_font_fmt_txt.c **** 
 748              		.loc 1 187 5 is_stmt 1 view .LVU252
 187:Drivers/lvgl/src/font/lv_font_fmt_txt.c **** 
 749              		.loc 1 187 16 view .LVU253
 750              	.LVL78:
 187:Drivers/lvgl/src/font/lv_font_fmt_txt.c **** 
 751              		.loc 1 187 31 is_stmt 0 view .LVU254
 752 0094 08BF     		it	eq
 753 0096 E180     		strheq	r1, [r4, #6]	@ movhi
 190:Drivers/lvgl/src/font/lv_font_fmt_txt.c **** 
 754              		.loc 1 190 1 view .LVU255
 755 0098 05B0     		add	sp, sp, #20
 756              		.cfi_remember_state
 757              		.cfi_def_cfa_offset 28
 758              		@ sp needed
 759 009a BDE8F083 		pop	{r4, r5, r6, r7, r8, r9, pc}
 760              	.LVL79:
 761              	.L57:
 762              		.cfi_restore_state
 158:Drivers/lvgl/src/font/lv_font_fmt_txt.c **** 
 763              		.loc 1 158 21 view .LVU256
 764 009e 0020     		movs	r0, #0
 190:Drivers/lvgl/src/font/lv_font_fmt_txt.c **** 
 765              		.loc 1 190 1 view .LVU257
 766 00a0 05B0     		add	sp, sp, #20
 767              		.cfi_remember_state
 768              		.cfi_def_cfa_offset 28
 769              		@ sp needed
 770 00a2 BDE8F083 		pop	{r4, r5, r6, r7, r8, r9, pc}
 771              	.LVL80:
 772              	.L86:
 773              		.cfi_restore_state
 154:Drivers/lvgl/src/font/lv_font_fmt_txt.c ****     }
 774              		.loc 1 154 9 is_stmt 1 view .LVU258
 156:Drivers/lvgl/src/font/lv_font_fmt_txt.c ****     uint32_t gid = get_glyph_dsc_id(font, unicode_letter);
 775              		.loc 1 156 5 view .LVU259
 157:Drivers/lvgl/src/font/lv_font_fmt_txt.c ****     if(!gid) return false;
 776              		.loc 1 157 5 view .LVU260
 777              	.LBB76:
 209:Drivers/lvgl/src/font/lv_font_fmt_txt.c **** {
 778              		.loc 1 209 17 view .LVU261
 779              	.LBB55:
 211:Drivers/lvgl/src/font/lv_font_fmt_txt.c **** 
 780              		.loc 1 211 5 view .LVU262
 781              	.LBE55:
ARM GAS  /var/folders/0z/tsy30v1j4xl4_7kw94k978ww0000gn/T//cc7dhRUt.s 			page 29


 782              	.LBE76:
 154:Drivers/lvgl/src/font/lv_font_fmt_txt.c ****     }
 783              		.loc 1 154 24 is_stmt 0 view .LVU263
 784 00a6 2021     		movs	r1, #32
 785              	.LVL81:
 154:Drivers/lvgl/src/font/lv_font_fmt_txt.c ****     }
 786              		.loc 1 154 24 view .LVU264
 787 00a8 B7E7     		b	.L55
 788              	.LVL82:
 789              	.L87:
 790              	.LBB77:
 164:Drivers/lvgl/src/font/lv_font_fmt_txt.c ****         }
 791              		.loc 1 164 13 is_stmt 1 view .LVU265
 792 00aa 3B69     		ldr	r3, [r7, #16]
 793              	.LVL83:
 794              	.LBB73:
 795              	.LBI59:
 270:Drivers/lvgl/src/font/lv_font_fmt_txt.c **** {
 796              		.loc 1 270 15 view .LVU266
 797              	.LBB70:
 272:Drivers/lvgl/src/font/lv_font_fmt_txt.c **** 
 798              		.loc 1 272 5 view .LVU267
 274:Drivers/lvgl/src/font/lv_font_fmt_txt.c **** 
 799              		.loc 1 274 5 view .LVU268
 276:Drivers/lvgl/src/font/lv_font_fmt_txt.c ****         /*Kern pairs*/
 800              		.loc 1 276 5 view .LVU269
 276:Drivers/lvgl/src/font/lv_font_fmt_txt.c ****         /*Kern pairs*/
 801              		.loc 1 276 27 is_stmt 0 view .LVU270
 802 00ac DA7C     		ldrb	r2, [r3, #19]	@ zero_extendqisi2
 276:Drivers/lvgl/src/font/lv_font_fmt_txt.c ****         /*Kern pairs*/
 803              		.loc 1 276 7 view .LVU271
 804 00ae 9206     		lsls	r2, r2, #26
 805 00b0 1DD4     		bmi	.L61
 806              	.LBB67:
 278:Drivers/lvgl/src/font/lv_font_fmt_txt.c ****         if(kdsc->glyph_ids_size == 0) {
 807              		.loc 1 278 9 is_stmt 1 view .LVU272
 278:Drivers/lvgl/src/font/lv_font_fmt_txt.c ****         if(kdsc->glyph_ids_size == 0) {
 808              		.loc 1 278 45 is_stmt 0 view .LVU273
 809 00b2 DF68     		ldr	r7, [r3, #12]
 810              	.LVL84:
 279:Drivers/lvgl/src/font/lv_font_fmt_txt.c ****             /*Use binary search to find the kern value.
 811              		.loc 1 279 9 is_stmt 1 view .LVU274
 279:Drivers/lvgl/src/font/lv_font_fmt_txt.c ****             /*Use binary search to find the kern value.
 812              		.loc 1 279 33 is_stmt 0 view .LVU275
 813 00b4 FB7A     		ldrb	r3, [r7, #11]	@ zero_extendqisi2
 814              	.LVL85:
 279:Drivers/lvgl/src/font/lv_font_fmt_txt.c ****             /*Use binary search to find the kern value.
 815              		.loc 1 279 11 view .LVU276
 816 00b6 13F0C003 		ands	r3, r3, #192
 817 00ba 2BD0     		beq	.L88
 292:Drivers/lvgl/src/font/lv_font_fmt_txt.c ****             /*Use binary search to find the kern value.
 818              		.loc 1 292 14 is_stmt 1 view .LVU277
 292:Drivers/lvgl/src/font/lv_font_fmt_txt.c ****             /*Use binary search to find the kern value.
 819              		.loc 1 292 16 is_stmt 0 view .LVU278
 820 00bc 402B     		cmp	r3, #64
 821 00be BDD1     		bne	.L60
 822              	.LBB64:
ARM GAS  /var/folders/0z/tsy30v1j4xl4_7kw94k978ww0000gn/T//cc7dhRUt.s 			page 30


 295:Drivers/lvgl/src/font/lv_font_fmt_txt.c ****             uint32_t g_id_both = (gid_right << 16) + gid_left; /*Create one number from the ids*/
 823              		.loc 1 295 13 is_stmt 1 view .LVU279
 295:Drivers/lvgl/src/font/lv_font_fmt_txt.c ****             uint32_t g_id_both = (gid_right << 16) + gid_left; /*Create one number from the ids*/
 824              		.loc 1 295 30 is_stmt 0 view .LVU280
 825 00c0 D7F80080 		ldr	r8, [r7]
 826              	.LVL86:
 296:Drivers/lvgl/src/font/lv_font_fmt_txt.c ****             uint32_t * kid_p = _lv_utils_bsearch(&g_id_both, g_ids, kdsc->pair_cnt, 4, kern_pair_16
 827              		.loc 1 296 13 is_stmt 1 view .LVU281
 297:Drivers/lvgl/src/font/lv_font_fmt_txt.c **** 
 828              		.loc 1 297 73 is_stmt 0 view .LVU282
 829 00c4 BA68     		ldr	r2, [r7, #8]
 297:Drivers/lvgl/src/font/lv_font_fmt_txt.c **** 
 830              		.loc 1 297 32 view .LVU283
 831 00c6 1F4B     		ldr	r3, .L89
 832 00c8 0093     		str	r3, [sp]
 833              	.LVL87:
 296:Drivers/lvgl/src/font/lv_font_fmt_txt.c ****             uint32_t * kid_p = _lv_utils_bsearch(&g_id_both, g_ids, kdsc->pair_cnt, 4, kern_pair_16
 834              		.loc 1 296 52 view .LVU284
 835 00ca 09EB0040 		add	r0, r9, r0, lsl #16
 836              	.LVL88:
 296:Drivers/lvgl/src/font/lv_font_fmt_txt.c ****             uint32_t * kid_p = _lv_utils_bsearch(&g_id_both, g_ids, kdsc->pair_cnt, 4, kern_pair_16
 837              		.loc 1 296 22 view .LVU285
 838 00ce 0390     		str	r0, [sp, #12]
 297:Drivers/lvgl/src/font/lv_font_fmt_txt.c **** 
 839              		.loc 1 297 13 is_stmt 1 view .LVU286
 297:Drivers/lvgl/src/font/lv_font_fmt_txt.c **** 
 840              		.loc 1 297 32 is_stmt 0 view .LVU287
 841 00d0 22F04042 		bic	r2, r2, #-1073741824
 842 00d4 0423     		movs	r3, #4
 843 00d6 4146     		mov	r1, r8
 844 00d8 03A8     		add	r0, sp, #12
 845 00da FFF7FEFF 		bl	_lv_utils_bsearch
 846              	.LVL89:
 300:Drivers/lvgl/src/font/lv_font_fmt_txt.c ****                 lv_uintptr_t ofs = kid_p - g_ids;
 847              		.loc 1 300 13 is_stmt 1 view .LVU288
 300:Drivers/lvgl/src/font/lv_font_fmt_txt.c ****                 lv_uintptr_t ofs = kid_p - g_ids;
 848              		.loc 1 300 15 is_stmt 0 view .LVU289
 849 00de 0028     		cmp	r0, #0
 850 00e0 ACD0     		beq	.L60
 851              	.LBB63:
 301:Drivers/lvgl/src/font/lv_font_fmt_txt.c ****                 value = kdsc->values[ofs];
 852              		.loc 1 301 17 is_stmt 1 view .LVU290
 853              	.LVL90:
 302:Drivers/lvgl/src/font/lv_font_fmt_txt.c ****             }
 854              		.loc 1 302 17 view .LVU291
 301:Drivers/lvgl/src/font/lv_font_fmt_txt.c ****                 value = kdsc->values[ofs];
 855              		.loc 1 301 42 is_stmt 0 view .LVU292
 856 00e2 A0EB0803 		sub	r3, r0, r8
 302:Drivers/lvgl/src/font/lv_font_fmt_txt.c ****             }
 857              		.loc 1 302 23 view .LVU293
 858 00e6 7A68     		ldr	r2, [r7, #4]
 301:Drivers/lvgl/src/font/lv_font_fmt_txt.c ****                 value = kdsc->values[ofs];
 859              		.loc 1 301 42 view .LVU294
 860 00e8 9B10     		asrs	r3, r3, #2
 861              	.LBE63:
 862              	.LBE64:
 863              	.LBE67:
ARM GAS  /var/folders/0z/tsy30v1j4xl4_7kw94k978ww0000gn/T//cc7dhRUt.s 			page 31


 864              	.LBE70:
 865              	.LBE73:
 866              	.LBE77:
 171:Drivers/lvgl/src/font/lv_font_fmt_txt.c **** 
 867              		.loc 1 171 29 view .LVU295
 868 00ea D256     		ldrsb	r2, [r2, r3]
 869 00ec A7E7     		b	.L59
 870              	.LVL91:
 871              	.L61:
 872              	.LBB78:
 873              	.LBB74:
 874              	.LBB71:
 875              	.LBB68:
 312:Drivers/lvgl/src/font/lv_font_fmt_txt.c ****         uint8_t left_class = kdsc->left_class_mapping[gid_left];
 876              		.loc 1 312 9 is_stmt 1 view .LVU296
 312:Drivers/lvgl/src/font/lv_font_fmt_txt.c ****         uint8_t left_class = kdsc->left_class_mapping[gid_left];
 877              		.loc 1 312 48 is_stmt 0 view .LVU297
 878 00ee DB68     		ldr	r3, [r3, #12]
 879              	.LVL92:
 313:Drivers/lvgl/src/font/lv_font_fmt_txt.c ****         uint8_t right_class = kdsc->right_class_mapping[gid_right];
 880              		.loc 1 313 9 is_stmt 1 view .LVU298
 313:Drivers/lvgl/src/font/lv_font_fmt_txt.c ****         uint8_t right_class = kdsc->right_class_mapping[gid_right];
 881              		.loc 1 313 17 is_stmt 0 view .LVU299
 882 00f0 5A68     		ldr	r2, [r3, #4]
 314:Drivers/lvgl/src/font/lv_font_fmt_txt.c **** 
 883              		.loc 1 314 17 view .LVU300
 884 00f2 9968     		ldr	r1, [r3, #8]
 313:Drivers/lvgl/src/font/lv_font_fmt_txt.c ****         uint8_t right_class = kdsc->right_class_mapping[gid_right];
 885              		.loc 1 313 17 view .LVU301
 886 00f4 12F80920 		ldrb	r2, [r2, r9]	@ zero_extendqisi2
 887              	.LVL93:
 314:Drivers/lvgl/src/font/lv_font_fmt_txt.c **** 
 888              		.loc 1 314 9 is_stmt 1 view .LVU302
 314:Drivers/lvgl/src/font/lv_font_fmt_txt.c **** 
 889              		.loc 1 314 17 is_stmt 0 view .LVU303
 890 00f8 095C     		ldrb	r1, [r1, r0]	@ zero_extendqisi2
 891              	.LVL94:
 318:Drivers/lvgl/src/font/lv_font_fmt_txt.c ****             value = kdsc->class_pair_values[(left_class - 1) * kdsc->right_class_cnt + (right_class
 892              		.loc 1 318 9 is_stmt 1 view .LVU304
 318:Drivers/lvgl/src/font/lv_font_fmt_txt.c ****             value = kdsc->class_pair_values[(left_class - 1) * kdsc->right_class_cnt + (right_class
 893              		.loc 1 318 11 is_stmt 0 view .LVU305
 894 00fa 002A     		cmp	r2, #0
 895 00fc 9ED0     		beq	.L60
 318:Drivers/lvgl/src/font/lv_font_fmt_txt.c ****             value = kdsc->class_pair_values[(left_class - 1) * kdsc->right_class_cnt + (right_class
 896              		.loc 1 318 27 view .LVU306
 897 00fe 0029     		cmp	r1, #0
 898 0100 9CD0     		beq	.L60
 319:Drivers/lvgl/src/font/lv_font_fmt_txt.c ****         }
 899              		.loc 1 319 13 is_stmt 1 view .LVU307
 900              	.LVL95:
 319:Drivers/lvgl/src/font/lv_font_fmt_txt.c ****         }
 901              		.loc 1 319 19 is_stmt 0 view .LVU308
 902 0102 1868     		ldr	r0, [r3]
 903              	.LVL96:
 319:Drivers/lvgl/src/font/lv_font_fmt_txt.c ****         }
 904              		.loc 1 319 68 view .LVU309
 905 0104 5B7B     		ldrb	r3, [r3, #13]	@ zero_extendqisi2
ARM GAS  /var/folders/0z/tsy30v1j4xl4_7kw94k978ww0000gn/T//cc7dhRUt.s 			page 32


 906              	.LVL97:
 319:Drivers/lvgl/src/font/lv_font_fmt_txt.c ****         }
 907              		.loc 1 319 57 view .LVU310
 908 0106 013A     		subs	r2, r2, #1
 909              	.LVL98:
 319:Drivers/lvgl/src/font/lv_font_fmt_txt.c ****         }
 910              		.loc 1 319 19 view .LVU311
 911 0108 0844     		add	r0, r0, r1
 912              	.LVL99:
 319:Drivers/lvgl/src/font/lv_font_fmt_txt.c ****         }
 913              		.loc 1 319 19 view .LVU312
 914 010a 03FB0203 		mla	r3, r3, r2, r0
 915              	.LBE68:
 916              	.LBE71:
 917              	.LBE74:
 918              	.LBE78:
 171:Drivers/lvgl/src/font/lv_font_fmt_txt.c **** 
 919              		.loc 1 171 29 view .LVU313
 920 010e 13F9012C 		ldrsb	r2, [r3, #-1]
 921              	.LVL100:
 171:Drivers/lvgl/src/font/lv_font_fmt_txt.c **** 
 922              		.loc 1 171 29 view .LVU314
 923 0112 94E7     		b	.L59
 924              	.LVL101:
 925              	.L88:
 926              	.LBB79:
 927              	.LBB75:
 928              	.LBB72:
 929              	.LBB69:
 930              	.LBB65:
 282:Drivers/lvgl/src/font/lv_font_fmt_txt.c ****             uint16_t g_id_both = (gid_right << 8) + gid_left; /*Create one number from the ids*/
 931              		.loc 1 282 13 is_stmt 1 view .LVU315
 282:Drivers/lvgl/src/font/lv_font_fmt_txt.c ****             uint16_t g_id_both = (gid_right << 8) + gid_left; /*Create one number from the ids*/
 932              		.loc 1 282 30 is_stmt 0 view .LVU316
 933 0114 D7F80080 		ldr	r8, [r7]
 934              	.LVL102:
 283:Drivers/lvgl/src/font/lv_font_fmt_txt.c ****             uint16_t * kid_p = _lv_utils_bsearch(&g_id_both, g_ids, kdsc->pair_cnt, 2, kern_pair_8_
 935              		.loc 1 283 13 is_stmt 1 view .LVU317
 284:Drivers/lvgl/src/font/lv_font_fmt_txt.c **** 
 936              		.loc 1 284 73 is_stmt 0 view .LVU318
 937 0118 BA68     		ldr	r2, [r7, #8]
 284:Drivers/lvgl/src/font/lv_font_fmt_txt.c **** 
 938              		.loc 1 284 32 view .LVU319
 939 011a 0B4B     		ldr	r3, .L89+4
 940 011c 0093     		str	r3, [sp]
 941              	.LVL103:
 283:Drivers/lvgl/src/font/lv_font_fmt_txt.c ****             uint16_t * kid_p = _lv_utils_bsearch(&g_id_both, g_ids, kdsc->pair_cnt, 2, kern_pair_8_
 942              		.loc 1 283 51 view .LVU320
 943 011e 09EB0020 		add	r0, r9, r0, lsl #8
 944              	.LVL104:
 283:Drivers/lvgl/src/font/lv_font_fmt_txt.c ****             uint16_t * kid_p = _lv_utils_bsearch(&g_id_both, g_ids, kdsc->pair_cnt, 2, kern_pair_8_
 945              		.loc 1 283 22 view .LVU321
 946 0122 ADF80C00 		strh	r0, [sp, #12]	@ movhi
 284:Drivers/lvgl/src/font/lv_font_fmt_txt.c **** 
 947              		.loc 1 284 13 is_stmt 1 view .LVU322
 284:Drivers/lvgl/src/font/lv_font_fmt_txt.c **** 
 948              		.loc 1 284 32 is_stmt 0 view .LVU323
ARM GAS  /var/folders/0z/tsy30v1j4xl4_7kw94k978ww0000gn/T//cc7dhRUt.s 			page 33


 949 0126 22F04042 		bic	r2, r2, #-1073741824
 950 012a 0223     		movs	r3, #2
 951 012c 4146     		mov	r1, r8
 952 012e 03A8     		add	r0, sp, #12
 953 0130 FFF7FEFF 		bl	_lv_utils_bsearch
 954              	.LVL105:
 287:Drivers/lvgl/src/font/lv_font_fmt_txt.c ****                 lv_uintptr_t ofs = kid_p - g_ids;
 955              		.loc 1 287 13 is_stmt 1 view .LVU324
 287:Drivers/lvgl/src/font/lv_font_fmt_txt.c ****                 lv_uintptr_t ofs = kid_p - g_ids;
 956              		.loc 1 287 15 is_stmt 0 view .LVU325
 957 0134 0028     		cmp	r0, #0
 958 0136 81D0     		beq	.L60
 959              	.LBB66:
 288:Drivers/lvgl/src/font/lv_font_fmt_txt.c ****                 value = kdsc->values[ofs];
 960              		.loc 1 288 17 is_stmt 1 view .LVU326
 961              	.LVL106:
 289:Drivers/lvgl/src/font/lv_font_fmt_txt.c ****             }
 962              		.loc 1 289 17 view .LVU327
 288:Drivers/lvgl/src/font/lv_font_fmt_txt.c ****                 value = kdsc->values[ofs];
 963              		.loc 1 288 42 is_stmt 0 view .LVU328
 964 0138 A0EB0803 		sub	r3, r0, r8
 289:Drivers/lvgl/src/font/lv_font_fmt_txt.c ****             }
 965              		.loc 1 289 23 view .LVU329
 966 013c 7A68     		ldr	r2, [r7, #4]
 288:Drivers/lvgl/src/font/lv_font_fmt_txt.c ****                 value = kdsc->values[ofs];
 967              		.loc 1 288 42 view .LVU330
 968 013e 5B10     		asrs	r3, r3, #1
 969              	.LBE66:
 970              	.LBE65:
 971              	.LBE69:
 972              	.LBE72:
 973              	.LBE75:
 974              	.LBE79:
 171:Drivers/lvgl/src/font/lv_font_fmt_txt.c **** 
 975              		.loc 1 171 29 view .LVU331
 976 0140 D256     		ldrsb	r2, [r2, r3]
 977 0142 7CE7     		b	.L59
 978              	.L90:
 979              		.align	2
 980              	.L89:
 981 0144 00000000 		.word	kern_pair_16_compare
 982 0148 00000000 		.word	kern_pair_8_compare
 983              		.cfi_endproc
 984              	.LFE27:
 986              		.section	.text._lv_font_clean_up_fmt_txt,"ax",%progbits
 987              		.align	1
 988              		.p2align 2,,3
 989              		.global	_lv_font_clean_up_fmt_txt
 990              		.syntax unified
 991              		.thumb
 992              		.thumb_func
 994              	_lv_font_clean_up_fmt_txt:
 995              	.LFB28:
 196:Drivers/lvgl/src/font/lv_font_fmt_txt.c **** #if LV_USE_FONT_COMPRESSED
 996              		.loc 1 196 1 is_stmt 1 view -0
 997              		.cfi_startproc
 998              		@ args = 0, pretend = 0, frame = 0
ARM GAS  /var/folders/0z/tsy30v1j4xl4_7kw94k978ww0000gn/T//cc7dhRUt.s 			page 34


 999              		@ frame_needed = 0, uses_anonymous_args = 0
 1000              		@ link register save eliminated.
 203:Drivers/lvgl/src/font/lv_font_fmt_txt.c **** 
 1001              		.loc 1 203 1 view .LVU333
 1002 0000 7047     		bx	lr
 1003              		.cfi_endproc
 1004              	.LFE28:
 1006 0002 00BF     		.text
 1007              	.Letext0:
 1008              		.file 2 "/Users/johannes/Library/Application Support/Code/User/globalStorage/bmd.stm32-for-vscode/
 1009              		.file 3 "/Users/johannes/Library/Application Support/Code/User/globalStorage/bmd.stm32-for-vscode/
 1010              		.file 4 "Drivers/lvgl/src/font/../misc/lv_area.h"
 1011              		.file 5 "Drivers/lvgl/src/font/lv_font.h"
 1012              		.file 6 "Drivers/lvgl/src/font/lv_font_fmt_txt.h"
 1013              		.file 7 "Drivers/lvgl/src/font/../misc/lv_types.h"
 1014              		.file 8 "Drivers/lvgl/src/font/../misc/lv_utils.h"
ARM GAS  /var/folders/0z/tsy30v1j4xl4_7kw94k978ww0000gn/T//cc7dhRUt.s 			page 35


DEFINED SYMBOLS
                            *ABS*:0000000000000000 lv_font_fmt_txt.c
/var/folders/0z/tsy30v1j4xl4_7kw94k978ww0000gn/T//cc7dhRUt.s:20     .text.kern_pair_8_compare:0000000000000000 $t
/var/folders/0z/tsy30v1j4xl4_7kw94k978ww0000gn/T//cc7dhRUt.s:26     .text.kern_pair_8_compare:0000000000000000 kern_pair_8_compare
/var/folders/0z/tsy30v1j4xl4_7kw94k978ww0000gn/T//cc7dhRUt.s:62     .text.kern_pair_16_compare:0000000000000000 $t
/var/folders/0z/tsy30v1j4xl4_7kw94k978ww0000gn/T//cc7dhRUt.s:68     .text.kern_pair_16_compare:0000000000000000 kern_pair_16_compare
/var/folders/0z/tsy30v1j4xl4_7kw94k978ww0000gn/T//cc7dhRUt.s:103    .text.unicode_list_compare:0000000000000000 $t
/var/folders/0z/tsy30v1j4xl4_7kw94k978ww0000gn/T//cc7dhRUt.s:109    .text.unicode_list_compare:0000000000000000 unicode_list_compare
/var/folders/0z/tsy30v1j4xl4_7kw94k978ww0000gn/T//cc7dhRUt.s:130    .text.get_glyph_dsc_id.part.0.isra.0:0000000000000000 $t
/var/folders/0z/tsy30v1j4xl4_7kw94k978ww0000gn/T//cc7dhRUt.s:136    .text.get_glyph_dsc_id.part.0.isra.0:0000000000000000 get_glyph_dsc_id.part.0.isra.0
/var/folders/0z/tsy30v1j4xl4_7kw94k978ww0000gn/T//cc7dhRUt.s:447    .text.get_glyph_dsc_id.part.0.isra.0:00000000000000ec $d
/var/folders/0z/tsy30v1j4xl4_7kw94k978ww0000gn/T//cc7dhRUt.s:452    .text.lv_font_get_bitmap_fmt_txt:0000000000000000 $t
/var/folders/0z/tsy30v1j4xl4_7kw94k978ww0000gn/T//cc7dhRUt.s:459    .text.lv_font_get_bitmap_fmt_txt:0000000000000000 lv_font_get_bitmap_fmt_txt
/var/folders/0z/tsy30v1j4xl4_7kw94k978ww0000gn/T//cc7dhRUt.s:548    .text.lv_font_get_glyph_dsc_fmt_txt:0000000000000000 $t
/var/folders/0z/tsy30v1j4xl4_7kw94k978ww0000gn/T//cc7dhRUt.s:555    .text.lv_font_get_glyph_dsc_fmt_txt:0000000000000000 lv_font_get_glyph_dsc_fmt_txt
/var/folders/0z/tsy30v1j4xl4_7kw94k978ww0000gn/T//cc7dhRUt.s:981    .text.lv_font_get_glyph_dsc_fmt_txt:0000000000000144 $d
/var/folders/0z/tsy30v1j4xl4_7kw94k978ww0000gn/T//cc7dhRUt.s:987    .text._lv_font_clean_up_fmt_txt:0000000000000000 $t
/var/folders/0z/tsy30v1j4xl4_7kw94k978ww0000gn/T//cc7dhRUt.s:994    .text._lv_font_clean_up_fmt_txt:0000000000000000 _lv_font_clean_up_fmt_txt

UNDEFINED SYMBOLS
_lv_utils_bsearch
