ARM GAS  /var/folders/0z/tsy30v1j4xl4_7kw94k978ww0000gn/T//ccYqTwoW.s 			page 1


   1              		.cpu cortex-m4
   2              		.arch armv7e-m
   3              		.fpu fpv4-sp-d16
   4              		.eabi_attribute 27, 1
   5              		.eabi_attribute 28, 1
   6              		.eabi_attribute 20, 1
   7              		.eabi_attribute 21, 1
   8              		.eabi_attribute 23, 3
   9              		.eabi_attribute 24, 1
  10              		.eabi_attribute 25, 1
  11              		.eabi_attribute 26, 1
  12              		.eabi_attribute 30, 2
  13              		.eabi_attribute 34, 1
  14              		.eabi_attribute 18, 4
  15              		.file	"lv_font_loader.c"
  16              		.text
  17              	.Ltext0:
  18              		.cfi_sections	.debug_frame
  19              		.section	.text.read_bits,"ax",%progbits
  20              		.align	1
  21              		.p2align 2,,3
  22              		.syntax unified
  23              		.thumb
  24              		.thumb_func
  26              	read_bits:
  27              	.LVL0:
  28              	.LFB207:
  29              		.file 1 "Drivers/lvgl/src/font/lv_font_loader.c"
   1:Drivers/lvgl/src/font/lv_font_loader.c **** /**
   2:Drivers/lvgl/src/font/lv_font_loader.c ****  * @file lv_font_loader.c
   3:Drivers/lvgl/src/font/lv_font_loader.c ****  *
   4:Drivers/lvgl/src/font/lv_font_loader.c ****  */
   5:Drivers/lvgl/src/font/lv_font_loader.c **** 
   6:Drivers/lvgl/src/font/lv_font_loader.c **** /*********************
   7:Drivers/lvgl/src/font/lv_font_loader.c ****  *      INCLUDES
   8:Drivers/lvgl/src/font/lv_font_loader.c ****  *********************/
   9:Drivers/lvgl/src/font/lv_font_loader.c **** 
  10:Drivers/lvgl/src/font/lv_font_loader.c **** #include <stdint.h>
  11:Drivers/lvgl/src/font/lv_font_loader.c **** #include <stdbool.h>
  12:Drivers/lvgl/src/font/lv_font_loader.c **** 
  13:Drivers/lvgl/src/font/lv_font_loader.c **** #include "../lvgl.h"
  14:Drivers/lvgl/src/font/lv_font_loader.c **** #include "../misc/lv_fs.h"
  15:Drivers/lvgl/src/font/lv_font_loader.c **** #include "lv_font_loader.h"
  16:Drivers/lvgl/src/font/lv_font_loader.c **** 
  17:Drivers/lvgl/src/font/lv_font_loader.c **** /**********************
  18:Drivers/lvgl/src/font/lv_font_loader.c ****  *      TYPEDEFS
  19:Drivers/lvgl/src/font/lv_font_loader.c ****  **********************/
  20:Drivers/lvgl/src/font/lv_font_loader.c **** typedef struct {
  21:Drivers/lvgl/src/font/lv_font_loader.c ****     lv_fs_file_t * fp;
  22:Drivers/lvgl/src/font/lv_font_loader.c ****     int8_t bit_pos;
  23:Drivers/lvgl/src/font/lv_font_loader.c ****     uint8_t byte_value;
  24:Drivers/lvgl/src/font/lv_font_loader.c **** } bit_iterator_t;
  25:Drivers/lvgl/src/font/lv_font_loader.c **** 
  26:Drivers/lvgl/src/font/lv_font_loader.c **** typedef struct font_header_bin {
  27:Drivers/lvgl/src/font/lv_font_loader.c ****     uint32_t version;
  28:Drivers/lvgl/src/font/lv_font_loader.c ****     uint16_t tables_count;
  29:Drivers/lvgl/src/font/lv_font_loader.c ****     uint16_t font_size;
ARM GAS  /var/folders/0z/tsy30v1j4xl4_7kw94k978ww0000gn/T//ccYqTwoW.s 			page 2


  30:Drivers/lvgl/src/font/lv_font_loader.c ****     uint16_t ascent;
  31:Drivers/lvgl/src/font/lv_font_loader.c ****     int16_t descent;
  32:Drivers/lvgl/src/font/lv_font_loader.c ****     uint16_t typo_ascent;
  33:Drivers/lvgl/src/font/lv_font_loader.c ****     int16_t typo_descent;
  34:Drivers/lvgl/src/font/lv_font_loader.c ****     uint16_t typo_line_gap;
  35:Drivers/lvgl/src/font/lv_font_loader.c ****     int16_t min_y;
  36:Drivers/lvgl/src/font/lv_font_loader.c ****     int16_t max_y;
  37:Drivers/lvgl/src/font/lv_font_loader.c ****     uint16_t default_advance_width;
  38:Drivers/lvgl/src/font/lv_font_loader.c ****     uint16_t kerning_scale;
  39:Drivers/lvgl/src/font/lv_font_loader.c ****     uint8_t index_to_loc_format;
  40:Drivers/lvgl/src/font/lv_font_loader.c ****     uint8_t glyph_id_format;
  41:Drivers/lvgl/src/font/lv_font_loader.c ****     uint8_t advance_width_format;
  42:Drivers/lvgl/src/font/lv_font_loader.c ****     uint8_t bits_per_pixel;
  43:Drivers/lvgl/src/font/lv_font_loader.c ****     uint8_t xy_bits;
  44:Drivers/lvgl/src/font/lv_font_loader.c ****     uint8_t wh_bits;
  45:Drivers/lvgl/src/font/lv_font_loader.c ****     uint8_t advance_width_bits;
  46:Drivers/lvgl/src/font/lv_font_loader.c ****     uint8_t compression_id;
  47:Drivers/lvgl/src/font/lv_font_loader.c ****     uint8_t subpixels_mode;
  48:Drivers/lvgl/src/font/lv_font_loader.c ****     uint8_t padding;
  49:Drivers/lvgl/src/font/lv_font_loader.c ****     int16_t underline_position;
  50:Drivers/lvgl/src/font/lv_font_loader.c ****     uint16_t underline_thickness;
  51:Drivers/lvgl/src/font/lv_font_loader.c **** } font_header_bin_t;
  52:Drivers/lvgl/src/font/lv_font_loader.c **** 
  53:Drivers/lvgl/src/font/lv_font_loader.c **** typedef struct cmap_table_bin {
  54:Drivers/lvgl/src/font/lv_font_loader.c ****     uint32_t data_offset;
  55:Drivers/lvgl/src/font/lv_font_loader.c ****     uint32_t range_start;
  56:Drivers/lvgl/src/font/lv_font_loader.c ****     uint16_t range_length;
  57:Drivers/lvgl/src/font/lv_font_loader.c ****     uint16_t glyph_id_start;
  58:Drivers/lvgl/src/font/lv_font_loader.c ****     uint16_t data_entries_count;
  59:Drivers/lvgl/src/font/lv_font_loader.c ****     uint8_t format_type;
  60:Drivers/lvgl/src/font/lv_font_loader.c ****     uint8_t padding;
  61:Drivers/lvgl/src/font/lv_font_loader.c **** } cmap_table_bin_t;
  62:Drivers/lvgl/src/font/lv_font_loader.c **** 
  63:Drivers/lvgl/src/font/lv_font_loader.c **** /**********************
  64:Drivers/lvgl/src/font/lv_font_loader.c ****  *  STATIC PROTOTYPES
  65:Drivers/lvgl/src/font/lv_font_loader.c ****  **********************/
  66:Drivers/lvgl/src/font/lv_font_loader.c **** static bit_iterator_t init_bit_iterator(lv_fs_file_t * fp);
  67:Drivers/lvgl/src/font/lv_font_loader.c **** static bool lvgl_load_font(lv_fs_file_t * fp, lv_font_t * font);
  68:Drivers/lvgl/src/font/lv_font_loader.c **** int32_t load_kern(lv_fs_file_t * fp, lv_font_fmt_txt_dsc_t * font_dsc, uint8_t format, uint32_t sta
  69:Drivers/lvgl/src/font/lv_font_loader.c **** 
  70:Drivers/lvgl/src/font/lv_font_loader.c **** static int read_bits_signed(bit_iterator_t * it, int n_bits, lv_fs_res_t * res);
  71:Drivers/lvgl/src/font/lv_font_loader.c **** static unsigned int read_bits(bit_iterator_t * it, int n_bits, lv_fs_res_t * res);
  72:Drivers/lvgl/src/font/lv_font_loader.c **** 
  73:Drivers/lvgl/src/font/lv_font_loader.c **** /**********************
  74:Drivers/lvgl/src/font/lv_font_loader.c ****  *      MACROS
  75:Drivers/lvgl/src/font/lv_font_loader.c ****  **********************/
  76:Drivers/lvgl/src/font/lv_font_loader.c **** 
  77:Drivers/lvgl/src/font/lv_font_loader.c **** /**********************
  78:Drivers/lvgl/src/font/lv_font_loader.c ****  *   GLOBAL FUNCTIONS
  79:Drivers/lvgl/src/font/lv_font_loader.c ****  **********************/
  80:Drivers/lvgl/src/font/lv_font_loader.c **** 
  81:Drivers/lvgl/src/font/lv_font_loader.c **** /**
  82:Drivers/lvgl/src/font/lv_font_loader.c ****  * Loads a `lv_font_t` object from a binary font file
  83:Drivers/lvgl/src/font/lv_font_loader.c ****  * @param font_name filename where the font file is located
  84:Drivers/lvgl/src/font/lv_font_loader.c ****  * @return a pointer to the font or NULL in case of error
  85:Drivers/lvgl/src/font/lv_font_loader.c ****  */
  86:Drivers/lvgl/src/font/lv_font_loader.c **** lv_font_t * lv_font_load(const char * font_name)
ARM GAS  /var/folders/0z/tsy30v1j4xl4_7kw94k978ww0000gn/T//ccYqTwoW.s 			page 3


  87:Drivers/lvgl/src/font/lv_font_loader.c **** {
  88:Drivers/lvgl/src/font/lv_font_loader.c ****     lv_fs_file_t file;
  89:Drivers/lvgl/src/font/lv_font_loader.c ****     lv_fs_res_t res = lv_fs_open(&file, font_name, LV_FS_MODE_RD);
  90:Drivers/lvgl/src/font/lv_font_loader.c ****     if(res != LV_FS_RES_OK)
  91:Drivers/lvgl/src/font/lv_font_loader.c ****         return NULL;
  92:Drivers/lvgl/src/font/lv_font_loader.c **** 
  93:Drivers/lvgl/src/font/lv_font_loader.c ****     lv_font_t * font = lv_mem_alloc(sizeof(lv_font_t));
  94:Drivers/lvgl/src/font/lv_font_loader.c ****     if(font) {
  95:Drivers/lvgl/src/font/lv_font_loader.c ****         memset(font, 0, sizeof(lv_font_t));
  96:Drivers/lvgl/src/font/lv_font_loader.c ****         if(!lvgl_load_font(&file, font)) {
  97:Drivers/lvgl/src/font/lv_font_loader.c ****             LV_LOG_WARN("Error loading font file: %s\n", font_name);
  98:Drivers/lvgl/src/font/lv_font_loader.c ****             /*
  99:Drivers/lvgl/src/font/lv_font_loader.c ****             * When `lvgl_load_font` fails it can leak some pointers.
 100:Drivers/lvgl/src/font/lv_font_loader.c ****             * All non-null pointers can be assumed as allocated and
 101:Drivers/lvgl/src/font/lv_font_loader.c ****             * `lv_font_free` should free them correctly.
 102:Drivers/lvgl/src/font/lv_font_loader.c ****             */
 103:Drivers/lvgl/src/font/lv_font_loader.c ****             lv_font_free(font);
 104:Drivers/lvgl/src/font/lv_font_loader.c ****             font = NULL;
 105:Drivers/lvgl/src/font/lv_font_loader.c ****         }
 106:Drivers/lvgl/src/font/lv_font_loader.c ****     }
 107:Drivers/lvgl/src/font/lv_font_loader.c **** 
 108:Drivers/lvgl/src/font/lv_font_loader.c ****     lv_fs_close(&file);
 109:Drivers/lvgl/src/font/lv_font_loader.c **** 
 110:Drivers/lvgl/src/font/lv_font_loader.c ****     return font;
 111:Drivers/lvgl/src/font/lv_font_loader.c **** }
 112:Drivers/lvgl/src/font/lv_font_loader.c **** 
 113:Drivers/lvgl/src/font/lv_font_loader.c **** /**
 114:Drivers/lvgl/src/font/lv_font_loader.c ****  * Frees the memory allocated by the `lv_font_load()` function
 115:Drivers/lvgl/src/font/lv_font_loader.c ****  * @param font lv_font_t object created by the lv_font_load function
 116:Drivers/lvgl/src/font/lv_font_loader.c ****  */
 117:Drivers/lvgl/src/font/lv_font_loader.c **** void lv_font_free(lv_font_t * font)
 118:Drivers/lvgl/src/font/lv_font_loader.c **** {
 119:Drivers/lvgl/src/font/lv_font_loader.c ****     if(NULL != font) {
 120:Drivers/lvgl/src/font/lv_font_loader.c ****         lv_font_fmt_txt_dsc_t * dsc = (lv_font_fmt_txt_dsc_t *)font->dsc;
 121:Drivers/lvgl/src/font/lv_font_loader.c **** 
 122:Drivers/lvgl/src/font/lv_font_loader.c ****         if(NULL != dsc) {
 123:Drivers/lvgl/src/font/lv_font_loader.c **** 
 124:Drivers/lvgl/src/font/lv_font_loader.c ****             if(dsc->kern_classes == 0) {
 125:Drivers/lvgl/src/font/lv_font_loader.c ****                 lv_font_fmt_txt_kern_pair_t * kern_dsc =
 126:Drivers/lvgl/src/font/lv_font_loader.c ****                     (lv_font_fmt_txt_kern_pair_t *)dsc->kern_dsc;
 127:Drivers/lvgl/src/font/lv_font_loader.c **** 
 128:Drivers/lvgl/src/font/lv_font_loader.c ****                 if(NULL != kern_dsc) {
 129:Drivers/lvgl/src/font/lv_font_loader.c ****                     if(kern_dsc->glyph_ids)
 130:Drivers/lvgl/src/font/lv_font_loader.c ****                         lv_mem_free((void *)kern_dsc->glyph_ids);
 131:Drivers/lvgl/src/font/lv_font_loader.c **** 
 132:Drivers/lvgl/src/font/lv_font_loader.c ****                     if(kern_dsc->values)
 133:Drivers/lvgl/src/font/lv_font_loader.c ****                         lv_mem_free((void *)kern_dsc->values);
 134:Drivers/lvgl/src/font/lv_font_loader.c **** 
 135:Drivers/lvgl/src/font/lv_font_loader.c ****                     lv_mem_free((void *)kern_dsc);
 136:Drivers/lvgl/src/font/lv_font_loader.c ****                 }
 137:Drivers/lvgl/src/font/lv_font_loader.c ****             }
 138:Drivers/lvgl/src/font/lv_font_loader.c ****             else {
 139:Drivers/lvgl/src/font/lv_font_loader.c ****                 lv_font_fmt_txt_kern_classes_t * kern_dsc =
 140:Drivers/lvgl/src/font/lv_font_loader.c ****                     (lv_font_fmt_txt_kern_classes_t *)dsc->kern_dsc;
 141:Drivers/lvgl/src/font/lv_font_loader.c **** 
 142:Drivers/lvgl/src/font/lv_font_loader.c ****                 if(NULL != kern_dsc) {
 143:Drivers/lvgl/src/font/lv_font_loader.c ****                     if(kern_dsc->class_pair_values)
ARM GAS  /var/folders/0z/tsy30v1j4xl4_7kw94k978ww0000gn/T//ccYqTwoW.s 			page 4


 144:Drivers/lvgl/src/font/lv_font_loader.c ****                         lv_mem_free((void *)kern_dsc->class_pair_values);
 145:Drivers/lvgl/src/font/lv_font_loader.c **** 
 146:Drivers/lvgl/src/font/lv_font_loader.c ****                     if(kern_dsc->left_class_mapping)
 147:Drivers/lvgl/src/font/lv_font_loader.c ****                         lv_mem_free((void *)kern_dsc->left_class_mapping);
 148:Drivers/lvgl/src/font/lv_font_loader.c **** 
 149:Drivers/lvgl/src/font/lv_font_loader.c ****                     if(kern_dsc->right_class_mapping)
 150:Drivers/lvgl/src/font/lv_font_loader.c ****                         lv_mem_free((void *)kern_dsc->right_class_mapping);
 151:Drivers/lvgl/src/font/lv_font_loader.c **** 
 152:Drivers/lvgl/src/font/lv_font_loader.c ****                     lv_mem_free((void *)kern_dsc);
 153:Drivers/lvgl/src/font/lv_font_loader.c ****                 }
 154:Drivers/lvgl/src/font/lv_font_loader.c ****             }
 155:Drivers/lvgl/src/font/lv_font_loader.c **** 
 156:Drivers/lvgl/src/font/lv_font_loader.c ****             lv_font_fmt_txt_cmap_t * cmaps =
 157:Drivers/lvgl/src/font/lv_font_loader.c ****                 (lv_font_fmt_txt_cmap_t *)dsc->cmaps;
 158:Drivers/lvgl/src/font/lv_font_loader.c **** 
 159:Drivers/lvgl/src/font/lv_font_loader.c ****             if(NULL != cmaps) {
 160:Drivers/lvgl/src/font/lv_font_loader.c ****                 for(int i = 0; i < dsc->cmap_num; ++i) {
 161:Drivers/lvgl/src/font/lv_font_loader.c ****                     if(NULL != cmaps[i].glyph_id_ofs_list)
 162:Drivers/lvgl/src/font/lv_font_loader.c ****                         lv_mem_free((void *)cmaps[i].glyph_id_ofs_list);
 163:Drivers/lvgl/src/font/lv_font_loader.c ****                     if(NULL != cmaps[i].unicode_list)
 164:Drivers/lvgl/src/font/lv_font_loader.c ****                         lv_mem_free((void *)cmaps[i].unicode_list);
 165:Drivers/lvgl/src/font/lv_font_loader.c ****                 }
 166:Drivers/lvgl/src/font/lv_font_loader.c ****                 lv_mem_free(cmaps);
 167:Drivers/lvgl/src/font/lv_font_loader.c ****             }
 168:Drivers/lvgl/src/font/lv_font_loader.c **** 
 169:Drivers/lvgl/src/font/lv_font_loader.c ****             if(NULL != dsc->glyph_bitmap) {
 170:Drivers/lvgl/src/font/lv_font_loader.c ****                 lv_mem_free((void *)dsc->glyph_bitmap);
 171:Drivers/lvgl/src/font/lv_font_loader.c ****             }
 172:Drivers/lvgl/src/font/lv_font_loader.c ****             if(NULL != dsc->glyph_dsc) {
 173:Drivers/lvgl/src/font/lv_font_loader.c ****                 lv_mem_free((void *)dsc->glyph_dsc);
 174:Drivers/lvgl/src/font/lv_font_loader.c ****             }
 175:Drivers/lvgl/src/font/lv_font_loader.c ****             lv_mem_free(dsc);
 176:Drivers/lvgl/src/font/lv_font_loader.c ****         }
 177:Drivers/lvgl/src/font/lv_font_loader.c ****         lv_mem_free(font);
 178:Drivers/lvgl/src/font/lv_font_loader.c ****     }
 179:Drivers/lvgl/src/font/lv_font_loader.c **** }
 180:Drivers/lvgl/src/font/lv_font_loader.c **** 
 181:Drivers/lvgl/src/font/lv_font_loader.c **** /**********************
 182:Drivers/lvgl/src/font/lv_font_loader.c ****  *   STATIC FUNCTIONS
 183:Drivers/lvgl/src/font/lv_font_loader.c ****  **********************/
 184:Drivers/lvgl/src/font/lv_font_loader.c **** 
 185:Drivers/lvgl/src/font/lv_font_loader.c **** static bit_iterator_t init_bit_iterator(lv_fs_file_t * fp)
 186:Drivers/lvgl/src/font/lv_font_loader.c **** {
 187:Drivers/lvgl/src/font/lv_font_loader.c ****     bit_iterator_t it;
 188:Drivers/lvgl/src/font/lv_font_loader.c ****     it.fp = fp;
 189:Drivers/lvgl/src/font/lv_font_loader.c ****     it.bit_pos = -1;
 190:Drivers/lvgl/src/font/lv_font_loader.c ****     it.byte_value = 0;
 191:Drivers/lvgl/src/font/lv_font_loader.c ****     return it;
 192:Drivers/lvgl/src/font/lv_font_loader.c **** }
 193:Drivers/lvgl/src/font/lv_font_loader.c **** 
 194:Drivers/lvgl/src/font/lv_font_loader.c **** static unsigned int read_bits(bit_iterator_t * it, int n_bits, lv_fs_res_t * res)
 195:Drivers/lvgl/src/font/lv_font_loader.c **** {
  30              		.loc 1 195 1 view -0
  31              		.cfi_startproc
  32              		@ args = 0, pretend = 0, frame = 0
  33              		@ frame_needed = 0, uses_anonymous_args = 0
 196:Drivers/lvgl/src/font/lv_font_loader.c ****     unsigned int value = 0;
ARM GAS  /var/folders/0z/tsy30v1j4xl4_7kw94k978ww0000gn/T//ccYqTwoW.s 			page 5


  34              		.loc 1 196 5 view .LVU1
 197:Drivers/lvgl/src/font/lv_font_loader.c ****     while(n_bits--) {
  35              		.loc 1 197 5 view .LVU2
  36              		.loc 1 197 11 view .LVU3
 195:Drivers/lvgl/src/font/lv_font_loader.c ****     unsigned int value = 0;
  37              		.loc 1 195 1 is_stmt 0 view .LVU4
  38 0000 2DE9F843 		push	{r3, r4, r5, r6, r7, r8, r9, lr}
  39              		.cfi_def_cfa_offset 32
  40              		.cfi_offset 3, -32
  41              		.cfi_offset 4, -28
  42              		.cfi_offset 5, -24
  43              		.cfi_offset 6, -20
  44              		.cfi_offset 7, -16
  45              		.cfi_offset 8, -12
  46              		.cfi_offset 9, -8
  47              		.cfi_offset 14, -4
 195:Drivers/lvgl/src/font/lv_font_loader.c ****     unsigned int value = 0;
  48              		.loc 1 195 1 view .LVU5
  49 0004 1746     		mov	r7, r2
  50              	.LVL1:
  51              		.loc 1 197 11 view .LVU6
  52 0006 19B3     		cbz	r1, .L7
  53              	.LBB12:
 198:Drivers/lvgl/src/font/lv_font_loader.c ****         it->byte_value = it->byte_value << 1;
  54              		.loc 1 198 28 view .LVU7
  55 0008 8146     		mov	r9, r0
  56 000a 0546     		mov	r5, r0
  57 000c 19F8052F 		ldrb	r2, [r9, #5]!	@ zero_extendqisi2
  58              	.LVL2:
  59              		.loc 1 198 28 view .LVU8
  60 0010 4C1E     		subs	r4, r1, #1
  61              	.LVL3:
  62              		.loc 1 198 28 view .LVU9
  63              	.LBE12:
 196:Drivers/lvgl/src/font/lv_font_loader.c ****     while(n_bits--) {
  64              		.loc 1 196 18 view .LVU10
  65 0012 0026     		movs	r6, #0
  66              	.LBB13:
 199:Drivers/lvgl/src/font/lv_font_loader.c ****         it->bit_pos--;
 200:Drivers/lvgl/src/font/lv_font_loader.c **** 
 201:Drivers/lvgl/src/font/lv_font_loader.c ****         if(it->bit_pos < 0) {
 202:Drivers/lvgl/src/font/lv_font_loader.c ****             it->bit_pos = 7;
  67              		.loc 1 202 25 view .LVU11
  68 0014 4FF00708 		mov	r8, #7
  69 0018 06E0     		b	.L6
  70              	.LVL4:
  71              	.L12:
 199:Drivers/lvgl/src/font/lv_font_loader.c ****         it->bit_pos--;
  72              		.loc 1 199 20 view .LVU12
  73 001a 2B71     		strb	r3, [r5, #4]
  74              	.L4:
 203:Drivers/lvgl/src/font/lv_font_loader.c ****             *res = lv_fs_read(it->fp, &(it->byte_value), 1, NULL);
 204:Drivers/lvgl/src/font/lv_font_loader.c ****             if(*res != LV_FS_RES_OK) {
 205:Drivers/lvgl/src/font/lv_font_loader.c ****                 return 0;
 206:Drivers/lvgl/src/font/lv_font_loader.c ****             }
 207:Drivers/lvgl/src/font/lv_font_loader.c ****         }
 208:Drivers/lvgl/src/font/lv_font_loader.c ****         int8_t bit = (it->byte_value & 0x80) ? 1 : 0;
ARM GAS  /var/folders/0z/tsy30v1j4xl4_7kw94k978ww0000gn/T//ccYqTwoW.s 			page 6


  75              		.loc 1 208 9 is_stmt 1 view .LVU13
  76              	.LVL5:
 209:Drivers/lvgl/src/font/lv_font_loader.c **** 
 210:Drivers/lvgl/src/font/lv_font_loader.c ****         value |= (bit << n_bits);
  77              		.loc 1 210 9 view .LVU14
  78              		.loc 1 210 23 is_stmt 0 view .LVU15
  79 001c D309     		lsrs	r3, r2, #7
  80 001e A340     		lsls	r3, r3, r4
  81              	.LBE13:
 197:Drivers/lvgl/src/font/lv_font_loader.c ****         it->byte_value = it->byte_value << 1;
  82              		.loc 1 197 17 view .LVU16
  83 0020 013C     		subs	r4, r4, #1
  84              	.LVL6:
  85              	.LBB14:
  86              		.loc 1 210 15 view .LVU17
  87 0022 1E43     		orrs	r6, r6, r3
  88              	.LVL7:
  89              		.loc 1 210 15 view .LVU18
  90              	.LBE14:
 197:Drivers/lvgl/src/font/lv_font_loader.c ****         it->byte_value = it->byte_value << 1;
  91              		.loc 1 197 11 is_stmt 1 view .LVU19
 197:Drivers/lvgl/src/font/lv_font_loader.c ****         it->byte_value = it->byte_value << 1;
  92              		.loc 1 197 11 is_stmt 0 view .LVU20
  93 0024 631C     		adds	r3, r4, #1
  94 0026 14D0     		beq	.L2
  95              	.LVL8:
  96              	.L6:
  97              	.LBB15:
 198:Drivers/lvgl/src/font/lv_font_loader.c ****         it->bit_pos--;
  98              		.loc 1 198 9 is_stmt 1 view .LVU21
 199:Drivers/lvgl/src/font/lv_font_loader.c **** 
  99              		.loc 1 199 20 is_stmt 0 view .LVU22
 100 0028 2B79     		ldrb	r3, [r5, #4]	@ zero_extendqisi2
 101 002a 013B     		subs	r3, r3, #1
 198:Drivers/lvgl/src/font/lv_font_loader.c ****         it->bit_pos--;
 102              		.loc 1 198 41 view .LVU23
 103 002c 5200     		lsls	r2, r2, #1
 199:Drivers/lvgl/src/font/lv_font_loader.c **** 
 104              		.loc 1 199 20 view .LVU24
 105 002e 5BB2     		sxtb	r3, r3
 198:Drivers/lvgl/src/font/lv_font_loader.c ****         it->bit_pos--;
 106              		.loc 1 198 41 view .LVU25
 107 0030 D2B2     		uxtb	r2, r2
 201:Drivers/lvgl/src/font/lv_font_loader.c ****             it->bit_pos = 7;
 108              		.loc 1 201 11 view .LVU26
 109 0032 002B     		cmp	r3, #0
 198:Drivers/lvgl/src/font/lv_font_loader.c ****         it->bit_pos--;
 110              		.loc 1 198 24 view .LVU27
 111 0034 6A71     		strb	r2, [r5, #5]
 199:Drivers/lvgl/src/font/lv_font_loader.c **** 
 112              		.loc 1 199 9 is_stmt 1 view .LVU28
 201:Drivers/lvgl/src/font/lv_font_loader.c ****             it->bit_pos = 7;
 113              		.loc 1 201 9 view .LVU29
 201:Drivers/lvgl/src/font/lv_font_loader.c ****             it->bit_pos = 7;
 114              		.loc 1 201 11 is_stmt 0 view .LVU30
 115 0036 F0DA     		bge	.L12
 202:Drivers/lvgl/src/font/lv_font_loader.c ****             *res = lv_fs_read(it->fp, &(it->byte_value), 1, NULL);
ARM GAS  /var/folders/0z/tsy30v1j4xl4_7kw94k978ww0000gn/T//ccYqTwoW.s 			page 7


 116              		.loc 1 202 13 is_stmt 1 view .LVU31
 203:Drivers/lvgl/src/font/lv_font_loader.c ****             if(*res != LV_FS_RES_OK) {
 117              		.loc 1 203 20 is_stmt 0 view .LVU32
 118 0038 2868     		ldr	r0, [r5]
 202:Drivers/lvgl/src/font/lv_font_loader.c ****             *res = lv_fs_read(it->fp, &(it->byte_value), 1, NULL);
 119              		.loc 1 202 25 view .LVU33
 120 003a 85F80480 		strb	r8, [r5, #4]
 203:Drivers/lvgl/src/font/lv_font_loader.c ****             if(*res != LV_FS_RES_OK) {
 121              		.loc 1 203 13 is_stmt 1 view .LVU34
 203:Drivers/lvgl/src/font/lv_font_loader.c ****             if(*res != LV_FS_RES_OK) {
 122              		.loc 1 203 20 is_stmt 0 view .LVU35
 123 003e 0023     		movs	r3, #0
 124 0040 0122     		movs	r2, #1
 125 0042 4946     		mov	r1, r9
 126 0044 FFF7FEFF 		bl	lv_fs_read
 127              	.LVL9:
 203:Drivers/lvgl/src/font/lv_font_loader.c ****             if(*res != LV_FS_RES_OK) {
 128              		.loc 1 203 18 view .LVU36
 129 0048 3870     		strb	r0, [r7]
 204:Drivers/lvgl/src/font/lv_font_loader.c ****                 return 0;
 130              		.loc 1 204 13 is_stmt 1 view .LVU37
 204:Drivers/lvgl/src/font/lv_font_loader.c ****                 return 0;
 131              		.loc 1 204 15 is_stmt 0 view .LVU38
 132 004a 38B9     		cbnz	r0, .L8
 208:Drivers/lvgl/src/font/lv_font_loader.c **** 
 133              		.loc 1 208 25 view .LVU39
 134 004c 6A79     		ldrb	r2, [r5, #5]	@ zero_extendqisi2
 135 004e E5E7     		b	.L4
 136              	.LVL10:
 137              	.L7:
 208:Drivers/lvgl/src/font/lv_font_loader.c **** 
 138              		.loc 1 208 25 view .LVU40
 139              	.LBE15:
 196:Drivers/lvgl/src/font/lv_font_loader.c ****     while(n_bits--) {
 140              		.loc 1 196 18 view .LVU41
 141 0050 0E46     		mov	r6, r1
 142              	.LVL11:
 143              	.L2:
 211:Drivers/lvgl/src/font/lv_font_loader.c ****     }
 212:Drivers/lvgl/src/font/lv_font_loader.c ****     *res = LV_FS_RES_OK;
 144              		.loc 1 212 5 is_stmt 1 view .LVU42
 145              		.loc 1 212 10 is_stmt 0 view .LVU43
 146 0052 0023     		movs	r3, #0
 147 0054 3B70     		strb	r3, [r7]
 213:Drivers/lvgl/src/font/lv_font_loader.c ****     return value;
 148              		.loc 1 213 5 is_stmt 1 view .LVU44
 214:Drivers/lvgl/src/font/lv_font_loader.c **** }
 149              		.loc 1 214 1 is_stmt 0 view .LVU45
 150 0056 3046     		mov	r0, r6
 151 0058 BDE8F883 		pop	{r3, r4, r5, r6, r7, r8, r9, pc}
 152              	.LVL12:
 153              	.L8:
 154              	.LBB16:
 205:Drivers/lvgl/src/font/lv_font_loader.c ****             }
 155              		.loc 1 205 24 view .LVU46
 156 005c 0026     		movs	r6, #0
 157              	.LVL13:
ARM GAS  /var/folders/0z/tsy30v1j4xl4_7kw94k978ww0000gn/T//ccYqTwoW.s 			page 8


 205:Drivers/lvgl/src/font/lv_font_loader.c ****             }
 158              		.loc 1 205 24 view .LVU47
 159              	.LBE16:
 160              		.loc 1 214 1 view .LVU48
 161 005e 3046     		mov	r0, r6
 162 0060 BDE8F883 		pop	{r3, r4, r5, r6, r7, r8, r9, pc}
 163              		.loc 1 214 1 view .LVU49
 164              		.cfi_endproc
 165              	.LFE207:
 167              		.section	.text.read_label,"ax",%progbits
 168              		.align	1
 169              		.p2align 2,,3
 170              		.syntax unified
 171              		.thumb
 172              		.thumb_func
 174              	read_label:
 175              	.LVL14:
 176              	.LFB209:
 215:Drivers/lvgl/src/font/lv_font_loader.c **** 
 216:Drivers/lvgl/src/font/lv_font_loader.c **** static int read_bits_signed(bit_iterator_t * it, int n_bits, lv_fs_res_t * res)
 217:Drivers/lvgl/src/font/lv_font_loader.c **** {
 218:Drivers/lvgl/src/font/lv_font_loader.c ****     unsigned int value = read_bits(it, n_bits, res);
 219:Drivers/lvgl/src/font/lv_font_loader.c ****     if(value & (1 << (n_bits - 1))) {
 220:Drivers/lvgl/src/font/lv_font_loader.c ****         value |= ~0u << n_bits;
 221:Drivers/lvgl/src/font/lv_font_loader.c ****     }
 222:Drivers/lvgl/src/font/lv_font_loader.c ****     return value;
 223:Drivers/lvgl/src/font/lv_font_loader.c **** }
 224:Drivers/lvgl/src/font/lv_font_loader.c **** 
 225:Drivers/lvgl/src/font/lv_font_loader.c **** static int read_label(lv_fs_file_t * fp, int start, const char * label)
 226:Drivers/lvgl/src/font/lv_font_loader.c **** {
 177              		.loc 1 226 1 is_stmt 1 view -0
 178              		.cfi_startproc
 179              		@ args = 0, pretend = 0, frame = 8
 180              		@ frame_needed = 0, uses_anonymous_args = 0
 227:Drivers/lvgl/src/font/lv_font_loader.c ****     lv_fs_seek(fp, start, LV_FS_SEEK_SET);
 181              		.loc 1 227 5 view .LVU51
 226:Drivers/lvgl/src/font/lv_font_loader.c ****     lv_fs_seek(fp, start, LV_FS_SEEK_SET);
 182              		.loc 1 226 1 is_stmt 0 view .LVU52
 183 0000 30B5     		push	{r4, r5, lr}
 184              		.cfi_def_cfa_offset 12
 185              		.cfi_offset 4, -12
 186              		.cfi_offset 5, -8
 187              		.cfi_offset 14, -4
 188 0002 0446     		mov	r4, r0
 189 0004 83B0     		sub	sp, sp, #12
 190              		.cfi_def_cfa_offset 24
 226:Drivers/lvgl/src/font/lv_font_loader.c ****     lv_fs_seek(fp, start, LV_FS_SEEK_SET);
 191              		.loc 1 226 1 view .LVU53
 192 0006 1546     		mov	r5, r2
 193              		.loc 1 227 5 view .LVU54
 194 0008 0022     		movs	r2, #0
 195              	.LVL15:
 196              		.loc 1 227 5 view .LVU55
 197 000a FFF7FEFF 		bl	lv_fs_seek
 198              	.LVL16:
 228:Drivers/lvgl/src/font/lv_font_loader.c **** 
 229:Drivers/lvgl/src/font/lv_font_loader.c ****     uint32_t length;
ARM GAS  /var/folders/0z/tsy30v1j4xl4_7kw94k978ww0000gn/T//ccYqTwoW.s 			page 9


 199              		.loc 1 229 5 is_stmt 1 view .LVU56
 230:Drivers/lvgl/src/font/lv_font_loader.c ****     char buf[4];
 200              		.loc 1 230 5 view .LVU57
 231:Drivers/lvgl/src/font/lv_font_loader.c **** 
 232:Drivers/lvgl/src/font/lv_font_loader.c ****     if(lv_fs_read(fp, &length, 4, NULL) != LV_FS_RES_OK
 201              		.loc 1 232 5 view .LVU58
 202              		.loc 1 232 8 is_stmt 0 view .LVU59
 203 000e 0023     		movs	r3, #0
 204 0010 0422     		movs	r2, #4
 205 0012 6946     		mov	r1, sp
 206 0014 2046     		mov	r0, r4
 207 0016 FFF7FEFF 		bl	lv_fs_read
 208              	.LVL17:
 209              		.loc 1 232 7 view .LVU60
 210 001a 70B9     		cbnz	r0, .L16
 233:Drivers/lvgl/src/font/lv_font_loader.c ****        || lv_fs_read(fp, buf, 4, NULL) != LV_FS_RES_OK
 211              		.loc 1 233 11 view .LVU61
 212 001c 0422     		movs	r2, #4
 213 001e 0346     		mov	r3, r0
 214 0020 0DEB0201 		add	r1, sp, r2
 215 0024 2046     		mov	r0, r4
 216 0026 FFF7FEFF 		bl	lv_fs_read
 217              	.LVL18:
 218              		.loc 1 233 8 view .LVU62
 219 002a 30B9     		cbnz	r0, .L16
 234:Drivers/lvgl/src/font/lv_font_loader.c ****        || memcmp(label, buf, 4) != 0) {
 220              		.loc 1 234 8 view .LVU63
 221 002c 2A68     		ldr	r2, [r5]
 222 002e 019B     		ldr	r3, [sp, #4]
 223 0030 9A42     		cmp	r2, r3
 224 0032 02D1     		bne	.L16
 235:Drivers/lvgl/src/font/lv_font_loader.c ****         LV_LOG_WARN("Error reading '%s' label.", label);
 236:Drivers/lvgl/src/font/lv_font_loader.c ****         return -1;
 237:Drivers/lvgl/src/font/lv_font_loader.c ****     }
 238:Drivers/lvgl/src/font/lv_font_loader.c **** 
 239:Drivers/lvgl/src/font/lv_font_loader.c ****     return length;
 225              		.loc 1 239 5 is_stmt 1 view .LVU64
 226              		.loc 1 239 12 is_stmt 0 view .LVU65
 227 0034 0098     		ldr	r0, [sp]
 228              	.L13:
 240:Drivers/lvgl/src/font/lv_font_loader.c **** }
 229              		.loc 1 240 1 view .LVU66
 230 0036 03B0     		add	sp, sp, #12
 231              		.cfi_remember_state
 232              		.cfi_def_cfa_offset 12
 233              		@ sp needed
 234 0038 30BD     		pop	{r4, r5, pc}
 235              	.LVL19:
 236              	.L16:
 237              		.cfi_restore_state
 236:Drivers/lvgl/src/font/lv_font_loader.c ****     }
 238              		.loc 1 236 16 view .LVU67
 239 003a 4FF0FF30 		mov	r0, #-1
 240 003e FAE7     		b	.L13
 241              		.cfi_endproc
 242              	.LFE209:
 244              		.section	.text.lv_font_free,"ax",%progbits
ARM GAS  /var/folders/0z/tsy30v1j4xl4_7kw94k978ww0000gn/T//ccYqTwoW.s 			page 10


 245              		.align	1
 246              		.p2align 2,,3
 247              		.global	lv_font_free
 248              		.syntax unified
 249              		.thumb
 250              		.thumb_func
 252              	lv_font_free:
 253              	.LVL20:
 254              	.LFB205:
 118:Drivers/lvgl/src/font/lv_font_loader.c ****     if(NULL != font) {
 255              		.loc 1 118 1 is_stmt 1 view -0
 256              		.cfi_startproc
 257              		@ args = 0, pretend = 0, frame = 0
 258              		@ frame_needed = 0, uses_anonymous_args = 0
 119:Drivers/lvgl/src/font/lv_font_loader.c ****         lv_font_fmt_txt_dsc_t * dsc = (lv_font_fmt_txt_dsc_t *)font->dsc;
 259              		.loc 1 119 5 view .LVU69
 119:Drivers/lvgl/src/font/lv_font_loader.c ****         lv_font_fmt_txt_dsc_t * dsc = (lv_font_fmt_txt_dsc_t *)font->dsc;
 260              		.loc 1 119 7 is_stmt 0 view .LVU70
 261 0000 0028     		cmp	r0, #0
 262 0002 4ED0     		beq	.L18
 263              	.LBB17:
 120:Drivers/lvgl/src/font/lv_font_loader.c **** 
 264              		.loc 1 120 9 is_stmt 1 view .LVU71
 265              	.LBE17:
 118:Drivers/lvgl/src/font/lv_font_loader.c ****     if(NULL != font) {
 266              		.loc 1 118 1 is_stmt 0 view .LVU72
 267 0004 2DE9F041 		push	{r4, r5, r6, r7, r8, lr}
 268              		.cfi_def_cfa_offset 24
 269              		.cfi_offset 4, -24
 270              		.cfi_offset 5, -20
 271              		.cfi_offset 6, -16
 272              		.cfi_offset 7, -12
 273              		.cfi_offset 8, -8
 274              		.cfi_offset 14, -4
 275              	.LBB23:
 120:Drivers/lvgl/src/font/lv_font_loader.c **** 
 276              		.loc 1 120 33 view .LVU73
 277 0008 0669     		ldr	r6, [r0, #16]
 278              	.LVL21:
 122:Drivers/lvgl/src/font/lv_font_loader.c **** 
 279              		.loc 1 122 9 is_stmt 1 view .LVU74
 280 000a 0746     		mov	r7, r0
 122:Drivers/lvgl/src/font/lv_font_loader.c **** 
 281              		.loc 1 122 11 is_stmt 0 view .LVU75
 282 000c 002E     		cmp	r6, #0
 283 000e 43D0     		beq	.L20
 284              	.LBB18:
 124:Drivers/lvgl/src/font/lv_font_loader.c ****                 lv_font_fmt_txt_kern_pair_t * kern_dsc =
 285              		.loc 1 124 13 is_stmt 1 view .LVU76
 124:Drivers/lvgl/src/font/lv_font_loader.c ****                 lv_font_fmt_txt_kern_pair_t * kern_dsc =
 286              		.loc 1 124 34 is_stmt 0 view .LVU77
 287 0010 F37C     		ldrb	r3, [r6, #19]	@ zero_extendqisi2
 288              	.LBB19:
 125:Drivers/lvgl/src/font/lv_font_loader.c ****                     (lv_font_fmt_txt_kern_pair_t *)dsc->kern_dsc;
 289              		.loc 1 125 47 view .LVU78
 290 0012 F468     		ldr	r4, [r6, #12]
 291              	.LBE19:
ARM GAS  /var/folders/0z/tsy30v1j4xl4_7kw94k978ww0000gn/T//ccYqTwoW.s 			page 11


 124:Drivers/lvgl/src/font/lv_font_loader.c ****                 lv_font_fmt_txt_kern_pair_t * kern_dsc =
 292              		.loc 1 124 15 view .LVU79
 293 0014 9B06     		lsls	r3, r3, #26
 294 0016 07D4     		bmi	.L21
 295              	.LBB20:
 125:Drivers/lvgl/src/font/lv_font_loader.c ****                     (lv_font_fmt_txt_kern_pair_t *)dsc->kern_dsc;
 296              		.loc 1 125 17 is_stmt 1 view .LVU80
 297              	.LVL22:
 128:Drivers/lvgl/src/font/lv_font_loader.c ****                     if(kern_dsc->glyph_ids)
 298              		.loc 1 128 17 view .LVU81
 128:Drivers/lvgl/src/font/lv_font_loader.c ****                     if(kern_dsc->glyph_ids)
 299              		.loc 1 128 19 is_stmt 0 view .LVU82
 300 0018 B4B1     		cbz	r4, .L22
 129:Drivers/lvgl/src/font/lv_font_loader.c ****                         lv_mem_free((void *)kern_dsc->glyph_ids);
 301              		.loc 1 129 21 is_stmt 1 view .LVU83
 129:Drivers/lvgl/src/font/lv_font_loader.c ****                         lv_mem_free((void *)kern_dsc->glyph_ids);
 302              		.loc 1 129 32 is_stmt 0 view .LVU84
 303 001a 2068     		ldr	r0, [r4]
 304              	.LVL23:
 129:Drivers/lvgl/src/font/lv_font_loader.c ****                         lv_mem_free((void *)kern_dsc->glyph_ids);
 305              		.loc 1 129 23 view .LVU85
 306 001c 08B1     		cbz	r0, .L23
 130:Drivers/lvgl/src/font/lv_font_loader.c **** 
 307              		.loc 1 130 25 is_stmt 1 view .LVU86
 308 001e FFF7FEFF 		bl	lv_mem_free
 309              	.LVL24:
 310              	.L23:
 132:Drivers/lvgl/src/font/lv_font_loader.c ****                         lv_mem_free((void *)kern_dsc->values);
 311              		.loc 1 132 21 view .LVU87
 132:Drivers/lvgl/src/font/lv_font_loader.c ****                         lv_mem_free((void *)kern_dsc->values);
 312              		.loc 1 132 32 is_stmt 0 view .LVU88
 313 0022 6068     		ldr	r0, [r4, #4]
 132:Drivers/lvgl/src/font/lv_font_loader.c ****                         lv_mem_free((void *)kern_dsc->values);
 314              		.loc 1 132 23 view .LVU89
 315 0024 58B9     		cbnz	r0, .L81
 316 0026 0CE0     		b	.L27
 317              	.LVL25:
 318              	.L21:
 132:Drivers/lvgl/src/font/lv_font_loader.c ****                         lv_mem_free((void *)kern_dsc->values);
 319              		.loc 1 132 23 view .LVU90
 320              	.LBE20:
 321              	.LBB21:
 139:Drivers/lvgl/src/font/lv_font_loader.c ****                     (lv_font_fmt_txt_kern_classes_t *)dsc->kern_dsc;
 322              		.loc 1 139 17 is_stmt 1 view .LVU91
 142:Drivers/lvgl/src/font/lv_font_loader.c ****                     if(kern_dsc->class_pair_values)
 323              		.loc 1 142 17 view .LVU92
 142:Drivers/lvgl/src/font/lv_font_loader.c ****                     if(kern_dsc->class_pair_values)
 324              		.loc 1 142 19 is_stmt 0 view .LVU93
 325 0028 74B1     		cbz	r4, .L22
 143:Drivers/lvgl/src/font/lv_font_loader.c ****                         lv_mem_free((void *)kern_dsc->class_pair_values);
 326              		.loc 1 143 21 is_stmt 1 view .LVU94
 143:Drivers/lvgl/src/font/lv_font_loader.c ****                         lv_mem_free((void *)kern_dsc->class_pair_values);
 327              		.loc 1 143 32 is_stmt 0 view .LVU95
 328 002a 2068     		ldr	r0, [r4]
 329              	.LVL26:
 143:Drivers/lvgl/src/font/lv_font_loader.c ****                         lv_mem_free((void *)kern_dsc->class_pair_values);
 330              		.loc 1 143 23 view .LVU96
ARM GAS  /var/folders/0z/tsy30v1j4xl4_7kw94k978ww0000gn/T//ccYqTwoW.s 			page 12


 331 002c 08B1     		cbz	r0, .L25
 144:Drivers/lvgl/src/font/lv_font_loader.c **** 
 332              		.loc 1 144 25 is_stmt 1 view .LVU97
 333 002e FFF7FEFF 		bl	lv_mem_free
 334              	.LVL27:
 335              	.L25:
 146:Drivers/lvgl/src/font/lv_font_loader.c ****                         lv_mem_free((void *)kern_dsc->left_class_mapping);
 336              		.loc 1 146 21 view .LVU98
 146:Drivers/lvgl/src/font/lv_font_loader.c ****                         lv_mem_free((void *)kern_dsc->left_class_mapping);
 337              		.loc 1 146 32 is_stmt 0 view .LVU99
 338 0032 6068     		ldr	r0, [r4, #4]
 146:Drivers/lvgl/src/font/lv_font_loader.c ****                         lv_mem_free((void *)kern_dsc->left_class_mapping);
 339              		.loc 1 146 23 view .LVU100
 340 0034 08B1     		cbz	r0, .L26
 147:Drivers/lvgl/src/font/lv_font_loader.c **** 
 341              		.loc 1 147 25 is_stmt 1 view .LVU101
 342 0036 FFF7FEFF 		bl	lv_mem_free
 343              	.LVL28:
 344              	.L26:
 149:Drivers/lvgl/src/font/lv_font_loader.c ****                         lv_mem_free((void *)kern_dsc->right_class_mapping);
 345              		.loc 1 149 21 view .LVU102
 149:Drivers/lvgl/src/font/lv_font_loader.c ****                         lv_mem_free((void *)kern_dsc->right_class_mapping);
 346              		.loc 1 149 32 is_stmt 0 view .LVU103
 347 003a A068     		ldr	r0, [r4, #8]
 149:Drivers/lvgl/src/font/lv_font_loader.c ****                         lv_mem_free((void *)kern_dsc->right_class_mapping);
 348              		.loc 1 149 23 view .LVU104
 349 003c 08B1     		cbz	r0, .L27
 350              	.LVL29:
 351              	.L81:
 150:Drivers/lvgl/src/font/lv_font_loader.c **** 
 352              		.loc 1 150 25 is_stmt 1 view .LVU105
 353 003e FFF7FEFF 		bl	lv_mem_free
 354              	.LVL30:
 355              	.L27:
 152:Drivers/lvgl/src/font/lv_font_loader.c ****                 }
 356              		.loc 1 152 21 view .LVU106
 357 0042 2046     		mov	r0, r4
 358 0044 FFF7FEFF 		bl	lv_mem_free
 359              	.LVL31:
 360              	.L22:
 361              	.LBE21:
 156:Drivers/lvgl/src/font/lv_font_loader.c ****                 (lv_font_fmt_txt_cmap_t *)dsc->cmaps;
 362              		.loc 1 156 13 view .LVU107
 156:Drivers/lvgl/src/font/lv_font_loader.c ****                 (lv_font_fmt_txt_cmap_t *)dsc->cmaps;
 363              		.loc 1 156 38 is_stmt 0 view .LVU108
 364 0048 D6F80880 		ldr	r8, [r6, #8]
 365              	.LVL32:
 159:Drivers/lvgl/src/font/lv_font_loader.c ****                 for(int i = 0; i < dsc->cmap_num; ++i) {
 366              		.loc 1 159 13 is_stmt 1 view .LVU109
 159:Drivers/lvgl/src/font/lv_font_loader.c ****                 for(int i = 0; i < dsc->cmap_num; ++i) {
 367              		.loc 1 159 15 is_stmt 0 view .LVU110
 368 004c B8F1000F 		cmp	r8, #0
 369 0050 17D0     		beq	.L28
 370              	.LVL33:
 371              	.LBB22:
 160:Drivers/lvgl/src/font/lv_font_loader.c ****                     if(NULL != cmaps[i].glyph_id_ofs_list)
 372              		.loc 1 160 34 is_stmt 1 view .LVU111
ARM GAS  /var/folders/0z/tsy30v1j4xl4_7kw94k978ww0000gn/T//ccYqTwoW.s 			page 13


 160:Drivers/lvgl/src/font/lv_font_loader.c ****                     if(NULL != cmaps[i].glyph_id_ofs_list)
 373              		.loc 1 160 39 is_stmt 0 view .LVU112
 374 0052 738A     		ldrh	r3, [r6, #18]
 160:Drivers/lvgl/src/font/lv_font_loader.c ****                     if(NULL != cmaps[i].glyph_id_ofs_list)
 375              		.loc 1 160 34 view .LVU113
 376 0054 C3F30803 		ubfx	r3, r3, #0, #9
 377 0058 83B1     		cbz	r3, .L29
 378 005a 4446     		mov	r4, r8
 160:Drivers/lvgl/src/font/lv_font_loader.c ****                     if(NULL != cmaps[i].glyph_id_ofs_list)
 379              		.loc 1 160 25 view .LVU114
 380 005c 0025     		movs	r5, #0
 381              	.LVL34:
 382              	.L32:
 161:Drivers/lvgl/src/font/lv_font_loader.c ****                         lv_mem_free((void *)cmaps[i].glyph_id_ofs_list);
 383              		.loc 1 161 21 is_stmt 1 view .LVU115
 162:Drivers/lvgl/src/font/lv_font_loader.c ****                     if(NULL != cmaps[i].unicode_list)
 384              		.loc 1 162 25 view .LVU116
 161:Drivers/lvgl/src/font/lv_font_loader.c ****                         lv_mem_free((void *)cmaps[i].glyph_id_ofs_list);
 385              		.loc 1 161 40 is_stmt 0 view .LVU117
 386 005e E068     		ldr	r0, [r4, #12]
 160:Drivers/lvgl/src/font/lv_font_loader.c ****                     if(NULL != cmaps[i].glyph_id_ofs_list)
 387              		.loc 1 160 51 view .LVU118
 388 0060 0135     		adds	r5, r5, #1
 389              	.LVL35:
 161:Drivers/lvgl/src/font/lv_font_loader.c ****                         lv_mem_free((void *)cmaps[i].glyph_id_ofs_list);
 390              		.loc 1 161 23 view .LVU119
 391 0062 08B1     		cbz	r0, .L30
 162:Drivers/lvgl/src/font/lv_font_loader.c ****                     if(NULL != cmaps[i].unicode_list)
 392              		.loc 1 162 25 view .LVU120
 393 0064 FFF7FEFF 		bl	lv_mem_free
 394              	.LVL36:
 395              	.L30:
 163:Drivers/lvgl/src/font/lv_font_loader.c ****                         lv_mem_free((void *)cmaps[i].unicode_list);
 396              		.loc 1 163 21 is_stmt 1 view .LVU121
 164:Drivers/lvgl/src/font/lv_font_loader.c ****                 }
 397              		.loc 1 164 25 view .LVU122
 163:Drivers/lvgl/src/font/lv_font_loader.c ****                         lv_mem_free((void *)cmaps[i].unicode_list);
 398              		.loc 1 163 40 is_stmt 0 view .LVU123
 399 0068 A068     		ldr	r0, [r4, #8]
 160:Drivers/lvgl/src/font/lv_font_loader.c ****                     if(NULL != cmaps[i].glyph_id_ofs_list)
 400              		.loc 1 160 34 view .LVU124
 401 006a 1434     		adds	r4, r4, #20
 163:Drivers/lvgl/src/font/lv_font_loader.c ****                         lv_mem_free((void *)cmaps[i].unicode_list);
 402              		.loc 1 163 23 view .LVU125
 403 006c 08B1     		cbz	r0, .L31
 164:Drivers/lvgl/src/font/lv_font_loader.c ****                 }
 404              		.loc 1 164 25 view .LVU126
 405 006e FFF7FEFF 		bl	lv_mem_free
 406              	.LVL37:
 407              	.L31:
 160:Drivers/lvgl/src/font/lv_font_loader.c ****                     if(NULL != cmaps[i].glyph_id_ofs_list)
 408              		.loc 1 160 51 is_stmt 1 discriminator 2 view .LVU127
 160:Drivers/lvgl/src/font/lv_font_loader.c ****                     if(NULL != cmaps[i].glyph_id_ofs_list)
 409              		.loc 1 160 34 discriminator 2 view .LVU128
 160:Drivers/lvgl/src/font/lv_font_loader.c ****                     if(NULL != cmaps[i].glyph_id_ofs_list)
 410              		.loc 1 160 39 is_stmt 0 discriminator 2 view .LVU129
 411 0072 738A     		ldrh	r3, [r6, #18]
ARM GAS  /var/folders/0z/tsy30v1j4xl4_7kw94k978ww0000gn/T//ccYqTwoW.s 			page 14


 412 0074 C3F30803 		ubfx	r3, r3, #0, #9
 160:Drivers/lvgl/src/font/lv_font_loader.c ****                     if(NULL != cmaps[i].glyph_id_ofs_list)
 413              		.loc 1 160 34 discriminator 2 view .LVU130
 414 0078 AB42     		cmp	r3, r5
 415 007a F0DC     		bgt	.L32
 416              	.LVL38:
 417              	.L29:
 160:Drivers/lvgl/src/font/lv_font_loader.c ****                     if(NULL != cmaps[i].glyph_id_ofs_list)
 418              		.loc 1 160 34 discriminator 2 view .LVU131
 419              	.LBE22:
 166:Drivers/lvgl/src/font/lv_font_loader.c ****             }
 420              		.loc 1 166 17 is_stmt 1 view .LVU132
 421 007c 4046     		mov	r0, r8
 422 007e FFF7FEFF 		bl	lv_mem_free
 423              	.LVL39:
 424              	.L28:
 169:Drivers/lvgl/src/font/lv_font_loader.c ****                 lv_mem_free((void *)dsc->glyph_bitmap);
 425              		.loc 1 169 13 view .LVU133
 169:Drivers/lvgl/src/font/lv_font_loader.c ****                 lv_mem_free((void *)dsc->glyph_bitmap);
 426              		.loc 1 169 27 is_stmt 0 view .LVU134
 427 0082 3068     		ldr	r0, [r6]
 169:Drivers/lvgl/src/font/lv_font_loader.c ****                 lv_mem_free((void *)dsc->glyph_bitmap);
 428              		.loc 1 169 15 view .LVU135
 429 0084 08B1     		cbz	r0, .L33
 170:Drivers/lvgl/src/font/lv_font_loader.c ****             }
 430              		.loc 1 170 17 is_stmt 1 view .LVU136
 431 0086 FFF7FEFF 		bl	lv_mem_free
 432              	.LVL40:
 433              	.L33:
 172:Drivers/lvgl/src/font/lv_font_loader.c ****                 lv_mem_free((void *)dsc->glyph_dsc);
 434              		.loc 1 172 13 view .LVU137
 172:Drivers/lvgl/src/font/lv_font_loader.c ****                 lv_mem_free((void *)dsc->glyph_dsc);
 435              		.loc 1 172 27 is_stmt 0 view .LVU138
 436 008a 7068     		ldr	r0, [r6, #4]
 172:Drivers/lvgl/src/font/lv_font_loader.c ****                 lv_mem_free((void *)dsc->glyph_dsc);
 437              		.loc 1 172 15 view .LVU139
 438 008c 08B1     		cbz	r0, .L34
 173:Drivers/lvgl/src/font/lv_font_loader.c ****             }
 439              		.loc 1 173 17 is_stmt 1 view .LVU140
 440 008e FFF7FEFF 		bl	lv_mem_free
 441              	.LVL41:
 442              	.L34:
 175:Drivers/lvgl/src/font/lv_font_loader.c ****         }
 443              		.loc 1 175 13 view .LVU141
 444 0092 3046     		mov	r0, r6
 445 0094 FFF7FEFF 		bl	lv_mem_free
 446              	.LVL42:
 447              	.L20:
 175:Drivers/lvgl/src/font/lv_font_loader.c ****         }
 448              		.loc 1 175 13 is_stmt 0 view .LVU142
 449              	.LBE18:
 177:Drivers/lvgl/src/font/lv_font_loader.c ****     }
 450              		.loc 1 177 9 is_stmt 1 view .LVU143
 451 0098 3846     		mov	r0, r7
 452              	.LBE23:
 179:Drivers/lvgl/src/font/lv_font_loader.c **** 
 453              		.loc 1 179 1 is_stmt 0 view .LVU144
ARM GAS  /var/folders/0z/tsy30v1j4xl4_7kw94k978ww0000gn/T//ccYqTwoW.s 			page 15


 454 009a BDE8F041 		pop	{r4, r5, r6, r7, r8, lr}
 455              		.cfi_restore 14
 456              		.cfi_restore 8
 457              		.cfi_restore 7
 458              		.cfi_restore 6
 459              		.cfi_restore 5
 460              		.cfi_restore 4
 461              		.cfi_def_cfa_offset 0
 462              	.LVL43:
 463              	.LBB24:
 177:Drivers/lvgl/src/font/lv_font_loader.c ****     }
 464              		.loc 1 177 9 view .LVU145
 465 009e FFF7FEBF 		b	lv_mem_free
 466              	.LVL44:
 467              	.L18:
 177:Drivers/lvgl/src/font/lv_font_loader.c ****     }
 468              		.loc 1 177 9 view .LVU146
 469 00a2 7047     		bx	lr
 470              	.LBE24:
 471              		.cfi_endproc
 472              	.LFE205:
 474              		.section	.rodata.load_kern.str1.4,"aMS",%progbits,1
 475              		.align	2
 476              	.LC0:
 477 0000 6B65726E 		.ascii	"kern\000"
 477      00
 478              		.section	.text.load_kern,"ax",%progbits
 479              		.align	1
 480              		.p2align 2,,3
 481              		.global	load_kern
 482              		.syntax unified
 483              		.thumb
 484              		.thumb_func
 486              	load_kern:
 487              	.LVL45:
 488              	.LFB214:
 241:Drivers/lvgl/src/font/lv_font_loader.c **** 
 242:Drivers/lvgl/src/font/lv_font_loader.c **** static bool load_cmaps_tables(lv_fs_file_t * fp, lv_font_fmt_txt_dsc_t * font_dsc,
 243:Drivers/lvgl/src/font/lv_font_loader.c ****                               uint32_t cmaps_start, cmap_table_bin_t * cmap_table)
 244:Drivers/lvgl/src/font/lv_font_loader.c **** {
 245:Drivers/lvgl/src/font/lv_font_loader.c ****     if(lv_fs_read(fp, cmap_table, font_dsc->cmap_num * sizeof(cmap_table_bin_t), NULL) != LV_FS_RES
 246:Drivers/lvgl/src/font/lv_font_loader.c ****         return false;
 247:Drivers/lvgl/src/font/lv_font_loader.c ****     }
 248:Drivers/lvgl/src/font/lv_font_loader.c **** 
 249:Drivers/lvgl/src/font/lv_font_loader.c ****     for(unsigned int i = 0; i < font_dsc->cmap_num; ++i) {
 250:Drivers/lvgl/src/font/lv_font_loader.c ****         lv_fs_res_t res = lv_fs_seek(fp, cmaps_start + cmap_table[i].data_offset, LV_FS_SEEK_SET);
 251:Drivers/lvgl/src/font/lv_font_loader.c ****         if(res != LV_FS_RES_OK) {
 252:Drivers/lvgl/src/font/lv_font_loader.c ****             return false;
 253:Drivers/lvgl/src/font/lv_font_loader.c ****         }
 254:Drivers/lvgl/src/font/lv_font_loader.c **** 
 255:Drivers/lvgl/src/font/lv_font_loader.c ****         lv_font_fmt_txt_cmap_t * cmap = (lv_font_fmt_txt_cmap_t *) & (font_dsc->cmaps[i]);
 256:Drivers/lvgl/src/font/lv_font_loader.c **** 
 257:Drivers/lvgl/src/font/lv_font_loader.c ****         cmap->range_start = cmap_table[i].range_start;
 258:Drivers/lvgl/src/font/lv_font_loader.c ****         cmap->range_length = cmap_table[i].range_length;
 259:Drivers/lvgl/src/font/lv_font_loader.c ****         cmap->glyph_id_start = cmap_table[i].glyph_id_start;
 260:Drivers/lvgl/src/font/lv_font_loader.c ****         cmap->type = cmap_table[i].format_type;
 261:Drivers/lvgl/src/font/lv_font_loader.c **** 
ARM GAS  /var/folders/0z/tsy30v1j4xl4_7kw94k978ww0000gn/T//ccYqTwoW.s 			page 16


 262:Drivers/lvgl/src/font/lv_font_loader.c ****         switch(cmap_table[i].format_type) {
 263:Drivers/lvgl/src/font/lv_font_loader.c ****             case LV_FONT_FMT_TXT_CMAP_FORMAT0_FULL: {
 264:Drivers/lvgl/src/font/lv_font_loader.c ****                     uint8_t ids_size = sizeof(uint8_t) * cmap_table[i].data_entries_count;
 265:Drivers/lvgl/src/font/lv_font_loader.c ****                     uint8_t * glyph_id_ofs_list = lv_mem_alloc(ids_size);
 266:Drivers/lvgl/src/font/lv_font_loader.c **** 
 267:Drivers/lvgl/src/font/lv_font_loader.c ****                     cmap->glyph_id_ofs_list = glyph_id_ofs_list;
 268:Drivers/lvgl/src/font/lv_font_loader.c **** 
 269:Drivers/lvgl/src/font/lv_font_loader.c ****                     if(lv_fs_read(fp, glyph_id_ofs_list, ids_size, NULL) != LV_FS_RES_OK) {
 270:Drivers/lvgl/src/font/lv_font_loader.c ****                         return false;
 271:Drivers/lvgl/src/font/lv_font_loader.c ****                     }
 272:Drivers/lvgl/src/font/lv_font_loader.c **** 
 273:Drivers/lvgl/src/font/lv_font_loader.c ****                     cmap->list_length = cmap->range_length;
 274:Drivers/lvgl/src/font/lv_font_loader.c ****                     break;
 275:Drivers/lvgl/src/font/lv_font_loader.c ****                 }
 276:Drivers/lvgl/src/font/lv_font_loader.c ****             case LV_FONT_FMT_TXT_CMAP_FORMAT0_TINY:
 277:Drivers/lvgl/src/font/lv_font_loader.c ****                 break;
 278:Drivers/lvgl/src/font/lv_font_loader.c ****             case LV_FONT_FMT_TXT_CMAP_SPARSE_FULL:
 279:Drivers/lvgl/src/font/lv_font_loader.c ****             case LV_FONT_FMT_TXT_CMAP_SPARSE_TINY: {
 280:Drivers/lvgl/src/font/lv_font_loader.c ****                     uint32_t list_size = sizeof(uint16_t) * cmap_table[i].data_entries_count;
 281:Drivers/lvgl/src/font/lv_font_loader.c ****                     uint16_t * unicode_list = (uint16_t *)lv_mem_alloc(list_size);
 282:Drivers/lvgl/src/font/lv_font_loader.c **** 
 283:Drivers/lvgl/src/font/lv_font_loader.c ****                     cmap->unicode_list = unicode_list;
 284:Drivers/lvgl/src/font/lv_font_loader.c ****                     cmap->list_length = cmap_table[i].data_entries_count;
 285:Drivers/lvgl/src/font/lv_font_loader.c **** 
 286:Drivers/lvgl/src/font/lv_font_loader.c ****                     if(lv_fs_read(fp, unicode_list, list_size, NULL) != LV_FS_RES_OK) {
 287:Drivers/lvgl/src/font/lv_font_loader.c ****                         return false;
 288:Drivers/lvgl/src/font/lv_font_loader.c ****                     }
 289:Drivers/lvgl/src/font/lv_font_loader.c **** 
 290:Drivers/lvgl/src/font/lv_font_loader.c ****                     if(cmap_table[i].format_type == LV_FONT_FMT_TXT_CMAP_SPARSE_FULL) {
 291:Drivers/lvgl/src/font/lv_font_loader.c ****                         uint16_t * buf = lv_mem_alloc(sizeof(uint16_t) * cmap->list_length);
 292:Drivers/lvgl/src/font/lv_font_loader.c **** 
 293:Drivers/lvgl/src/font/lv_font_loader.c ****                         cmap->glyph_id_ofs_list = buf;
 294:Drivers/lvgl/src/font/lv_font_loader.c **** 
 295:Drivers/lvgl/src/font/lv_font_loader.c ****                         if(lv_fs_read(fp, buf, sizeof(uint16_t) * cmap->list_length, NULL) != LV_FS
 296:Drivers/lvgl/src/font/lv_font_loader.c ****                             return false;
 297:Drivers/lvgl/src/font/lv_font_loader.c ****                         }
 298:Drivers/lvgl/src/font/lv_font_loader.c ****                     }
 299:Drivers/lvgl/src/font/lv_font_loader.c ****                     break;
 300:Drivers/lvgl/src/font/lv_font_loader.c ****                 }
 301:Drivers/lvgl/src/font/lv_font_loader.c ****             default:
 302:Drivers/lvgl/src/font/lv_font_loader.c ****                 LV_LOG_WARN("Unknown cmaps format type %d.", cmap_table[i].format_type);
 303:Drivers/lvgl/src/font/lv_font_loader.c ****                 return false;
 304:Drivers/lvgl/src/font/lv_font_loader.c ****         }
 305:Drivers/lvgl/src/font/lv_font_loader.c ****     }
 306:Drivers/lvgl/src/font/lv_font_loader.c ****     return true;
 307:Drivers/lvgl/src/font/lv_font_loader.c **** }
 308:Drivers/lvgl/src/font/lv_font_loader.c **** 
 309:Drivers/lvgl/src/font/lv_font_loader.c **** static int32_t load_cmaps(lv_fs_file_t * fp, lv_font_fmt_txt_dsc_t * font_dsc, uint32_t cmaps_start
 310:Drivers/lvgl/src/font/lv_font_loader.c **** {
 311:Drivers/lvgl/src/font/lv_font_loader.c ****     int32_t cmaps_length = read_label(fp, cmaps_start, "cmap");
 312:Drivers/lvgl/src/font/lv_font_loader.c ****     if(cmaps_length < 0) {
 313:Drivers/lvgl/src/font/lv_font_loader.c ****         return -1;
 314:Drivers/lvgl/src/font/lv_font_loader.c ****     }
 315:Drivers/lvgl/src/font/lv_font_loader.c **** 
 316:Drivers/lvgl/src/font/lv_font_loader.c ****     uint32_t cmaps_subtables_count;
 317:Drivers/lvgl/src/font/lv_font_loader.c ****     if(lv_fs_read(fp, &cmaps_subtables_count, sizeof(uint32_t), NULL) != LV_FS_RES_OK) {
 318:Drivers/lvgl/src/font/lv_font_loader.c ****         return -1;
ARM GAS  /var/folders/0z/tsy30v1j4xl4_7kw94k978ww0000gn/T//ccYqTwoW.s 			page 17


 319:Drivers/lvgl/src/font/lv_font_loader.c ****     }
 320:Drivers/lvgl/src/font/lv_font_loader.c **** 
 321:Drivers/lvgl/src/font/lv_font_loader.c ****     lv_font_fmt_txt_cmap_t * cmaps =
 322:Drivers/lvgl/src/font/lv_font_loader.c ****         lv_mem_alloc(cmaps_subtables_count * sizeof(lv_font_fmt_txt_cmap_t));
 323:Drivers/lvgl/src/font/lv_font_loader.c **** 
 324:Drivers/lvgl/src/font/lv_font_loader.c ****     memset(cmaps, 0, cmaps_subtables_count * sizeof(lv_font_fmt_txt_cmap_t));
 325:Drivers/lvgl/src/font/lv_font_loader.c **** 
 326:Drivers/lvgl/src/font/lv_font_loader.c ****     font_dsc->cmaps = cmaps;
 327:Drivers/lvgl/src/font/lv_font_loader.c ****     font_dsc->cmap_num = cmaps_subtables_count;
 328:Drivers/lvgl/src/font/lv_font_loader.c **** 
 329:Drivers/lvgl/src/font/lv_font_loader.c ****     cmap_table_bin_t * cmaps_tables = lv_mem_alloc(sizeof(cmap_table_bin_t) * font_dsc->cmap_num);
 330:Drivers/lvgl/src/font/lv_font_loader.c **** 
 331:Drivers/lvgl/src/font/lv_font_loader.c ****     bool success = load_cmaps_tables(fp, font_dsc, cmaps_start, cmaps_tables);
 332:Drivers/lvgl/src/font/lv_font_loader.c **** 
 333:Drivers/lvgl/src/font/lv_font_loader.c ****     lv_mem_free(cmaps_tables);
 334:Drivers/lvgl/src/font/lv_font_loader.c **** 
 335:Drivers/lvgl/src/font/lv_font_loader.c ****     return success ? cmaps_length : -1;
 336:Drivers/lvgl/src/font/lv_font_loader.c **** }
 337:Drivers/lvgl/src/font/lv_font_loader.c **** 
 338:Drivers/lvgl/src/font/lv_font_loader.c **** static int32_t load_glyph(lv_fs_file_t * fp, lv_font_fmt_txt_dsc_t * font_dsc,
 339:Drivers/lvgl/src/font/lv_font_loader.c ****                           uint32_t start, uint32_t * glyph_offset, uint32_t loca_count, font_header
 340:Drivers/lvgl/src/font/lv_font_loader.c **** {
 341:Drivers/lvgl/src/font/lv_font_loader.c ****     int32_t glyph_length = read_label(fp, start, "glyf");
 342:Drivers/lvgl/src/font/lv_font_loader.c ****     if(glyph_length < 0) {
 343:Drivers/lvgl/src/font/lv_font_loader.c ****         return -1;
 344:Drivers/lvgl/src/font/lv_font_loader.c ****     }
 345:Drivers/lvgl/src/font/lv_font_loader.c **** 
 346:Drivers/lvgl/src/font/lv_font_loader.c ****     lv_font_fmt_txt_glyph_dsc_t * glyph_dsc = (lv_font_fmt_txt_glyph_dsc_t *)
 347:Drivers/lvgl/src/font/lv_font_loader.c ****                                               lv_mem_alloc(loca_count * sizeof(lv_font_fmt_txt_glyp
 348:Drivers/lvgl/src/font/lv_font_loader.c **** 
 349:Drivers/lvgl/src/font/lv_font_loader.c ****     memset(glyph_dsc, 0, loca_count * sizeof(lv_font_fmt_txt_glyph_dsc_t));
 350:Drivers/lvgl/src/font/lv_font_loader.c **** 
 351:Drivers/lvgl/src/font/lv_font_loader.c ****     font_dsc->glyph_dsc = glyph_dsc;
 352:Drivers/lvgl/src/font/lv_font_loader.c **** 
 353:Drivers/lvgl/src/font/lv_font_loader.c ****     int cur_bmp_size = 0;
 354:Drivers/lvgl/src/font/lv_font_loader.c **** 
 355:Drivers/lvgl/src/font/lv_font_loader.c ****     for(unsigned int i = 0; i < loca_count; ++i) {
 356:Drivers/lvgl/src/font/lv_font_loader.c ****         lv_font_fmt_txt_glyph_dsc_t * gdsc = &glyph_dsc[i];
 357:Drivers/lvgl/src/font/lv_font_loader.c **** 
 358:Drivers/lvgl/src/font/lv_font_loader.c ****         lv_fs_res_t res = lv_fs_seek(fp, start + glyph_offset[i], LV_FS_SEEK_SET);
 359:Drivers/lvgl/src/font/lv_font_loader.c ****         if(res != LV_FS_RES_OK) {
 360:Drivers/lvgl/src/font/lv_font_loader.c ****             return -1;
 361:Drivers/lvgl/src/font/lv_font_loader.c ****         }
 362:Drivers/lvgl/src/font/lv_font_loader.c **** 
 363:Drivers/lvgl/src/font/lv_font_loader.c ****         bit_iterator_t bit_it = init_bit_iterator(fp);
 364:Drivers/lvgl/src/font/lv_font_loader.c **** 
 365:Drivers/lvgl/src/font/lv_font_loader.c ****         if(header->advance_width_bits == 0) {
 366:Drivers/lvgl/src/font/lv_font_loader.c ****             gdsc->adv_w = header->default_advance_width;
 367:Drivers/lvgl/src/font/lv_font_loader.c ****         }
 368:Drivers/lvgl/src/font/lv_font_loader.c ****         else {
 369:Drivers/lvgl/src/font/lv_font_loader.c ****             gdsc->adv_w = read_bits(&bit_it, header->advance_width_bits, &res);
 370:Drivers/lvgl/src/font/lv_font_loader.c ****             if(res != LV_FS_RES_OK) {
 371:Drivers/lvgl/src/font/lv_font_loader.c ****                 return -1;
 372:Drivers/lvgl/src/font/lv_font_loader.c ****             }
 373:Drivers/lvgl/src/font/lv_font_loader.c ****         }
 374:Drivers/lvgl/src/font/lv_font_loader.c **** 
 375:Drivers/lvgl/src/font/lv_font_loader.c ****         if(header->advance_width_format == 0) {
ARM GAS  /var/folders/0z/tsy30v1j4xl4_7kw94k978ww0000gn/T//ccYqTwoW.s 			page 18


 376:Drivers/lvgl/src/font/lv_font_loader.c ****             gdsc->adv_w *= 16;
 377:Drivers/lvgl/src/font/lv_font_loader.c ****         }
 378:Drivers/lvgl/src/font/lv_font_loader.c **** 
 379:Drivers/lvgl/src/font/lv_font_loader.c ****         gdsc->ofs_x = read_bits_signed(&bit_it, header->xy_bits, &res);
 380:Drivers/lvgl/src/font/lv_font_loader.c ****         if(res != LV_FS_RES_OK) {
 381:Drivers/lvgl/src/font/lv_font_loader.c ****             return -1;
 382:Drivers/lvgl/src/font/lv_font_loader.c ****         }
 383:Drivers/lvgl/src/font/lv_font_loader.c **** 
 384:Drivers/lvgl/src/font/lv_font_loader.c ****         gdsc->ofs_y = read_bits_signed(&bit_it, header->xy_bits, &res);
 385:Drivers/lvgl/src/font/lv_font_loader.c ****         if(res != LV_FS_RES_OK) {
 386:Drivers/lvgl/src/font/lv_font_loader.c ****             return -1;
 387:Drivers/lvgl/src/font/lv_font_loader.c ****         }
 388:Drivers/lvgl/src/font/lv_font_loader.c **** 
 389:Drivers/lvgl/src/font/lv_font_loader.c ****         gdsc->box_w = read_bits(&bit_it, header->wh_bits, &res);
 390:Drivers/lvgl/src/font/lv_font_loader.c ****         if(res != LV_FS_RES_OK) {
 391:Drivers/lvgl/src/font/lv_font_loader.c ****             return -1;
 392:Drivers/lvgl/src/font/lv_font_loader.c ****         }
 393:Drivers/lvgl/src/font/lv_font_loader.c **** 
 394:Drivers/lvgl/src/font/lv_font_loader.c ****         gdsc->box_h = read_bits(&bit_it, header->wh_bits, &res);
 395:Drivers/lvgl/src/font/lv_font_loader.c ****         if(res != LV_FS_RES_OK) {
 396:Drivers/lvgl/src/font/lv_font_loader.c ****             return -1;
 397:Drivers/lvgl/src/font/lv_font_loader.c ****         }
 398:Drivers/lvgl/src/font/lv_font_loader.c **** 
 399:Drivers/lvgl/src/font/lv_font_loader.c ****         int nbits = header->advance_width_bits + 2 * header->xy_bits + 2 * header->wh_bits;
 400:Drivers/lvgl/src/font/lv_font_loader.c ****         int next_offset = (i < loca_count - 1) ? glyph_offset[i + 1] : (uint32_t)glyph_length;
 401:Drivers/lvgl/src/font/lv_font_loader.c ****         int bmp_size = next_offset - glyph_offset[i] - nbits / 8;
 402:Drivers/lvgl/src/font/lv_font_loader.c **** 
 403:Drivers/lvgl/src/font/lv_font_loader.c ****         if(i == 0) {
 404:Drivers/lvgl/src/font/lv_font_loader.c ****             gdsc->adv_w = 0;
 405:Drivers/lvgl/src/font/lv_font_loader.c ****             gdsc->box_w = 0;
 406:Drivers/lvgl/src/font/lv_font_loader.c ****             gdsc->box_h = 0;
 407:Drivers/lvgl/src/font/lv_font_loader.c ****             gdsc->ofs_x = 0;
 408:Drivers/lvgl/src/font/lv_font_loader.c ****             gdsc->ofs_y = 0;
 409:Drivers/lvgl/src/font/lv_font_loader.c ****         }
 410:Drivers/lvgl/src/font/lv_font_loader.c **** 
 411:Drivers/lvgl/src/font/lv_font_loader.c ****         gdsc->bitmap_index = cur_bmp_size;
 412:Drivers/lvgl/src/font/lv_font_loader.c ****         if(gdsc->box_w * gdsc->box_h != 0) {
 413:Drivers/lvgl/src/font/lv_font_loader.c ****             cur_bmp_size += bmp_size;
 414:Drivers/lvgl/src/font/lv_font_loader.c ****         }
 415:Drivers/lvgl/src/font/lv_font_loader.c ****     }
 416:Drivers/lvgl/src/font/lv_font_loader.c **** 
 417:Drivers/lvgl/src/font/lv_font_loader.c ****     uint8_t * glyph_bmp = (uint8_t *)lv_mem_alloc(sizeof(uint8_t) * cur_bmp_size);
 418:Drivers/lvgl/src/font/lv_font_loader.c **** 
 419:Drivers/lvgl/src/font/lv_font_loader.c ****     font_dsc->glyph_bitmap = glyph_bmp;
 420:Drivers/lvgl/src/font/lv_font_loader.c **** 
 421:Drivers/lvgl/src/font/lv_font_loader.c ****     cur_bmp_size = 0;
 422:Drivers/lvgl/src/font/lv_font_loader.c **** 
 423:Drivers/lvgl/src/font/lv_font_loader.c ****     for(unsigned int i = 1; i < loca_count; ++i) {
 424:Drivers/lvgl/src/font/lv_font_loader.c ****         lv_fs_res_t res = lv_fs_seek(fp, start + glyph_offset[i], LV_FS_SEEK_SET);
 425:Drivers/lvgl/src/font/lv_font_loader.c ****         if(res != LV_FS_RES_OK) {
 426:Drivers/lvgl/src/font/lv_font_loader.c ****             return -1;
 427:Drivers/lvgl/src/font/lv_font_loader.c ****         }
 428:Drivers/lvgl/src/font/lv_font_loader.c ****         bit_iterator_t bit_it = init_bit_iterator(fp);
 429:Drivers/lvgl/src/font/lv_font_loader.c **** 
 430:Drivers/lvgl/src/font/lv_font_loader.c ****         int nbits = header->advance_width_bits + 2 * header->xy_bits + 2 * header->wh_bits;
 431:Drivers/lvgl/src/font/lv_font_loader.c **** 
 432:Drivers/lvgl/src/font/lv_font_loader.c ****         read_bits(&bit_it, nbits, &res);
ARM GAS  /var/folders/0z/tsy30v1j4xl4_7kw94k978ww0000gn/T//ccYqTwoW.s 			page 19


 433:Drivers/lvgl/src/font/lv_font_loader.c ****         if(res != LV_FS_RES_OK) {
 434:Drivers/lvgl/src/font/lv_font_loader.c ****             return -1;
 435:Drivers/lvgl/src/font/lv_font_loader.c ****         }
 436:Drivers/lvgl/src/font/lv_font_loader.c **** 
 437:Drivers/lvgl/src/font/lv_font_loader.c ****         if(glyph_dsc[i].box_w * glyph_dsc[i].box_h == 0) {
 438:Drivers/lvgl/src/font/lv_font_loader.c ****             continue;
 439:Drivers/lvgl/src/font/lv_font_loader.c ****         }
 440:Drivers/lvgl/src/font/lv_font_loader.c **** 
 441:Drivers/lvgl/src/font/lv_font_loader.c ****         int next_offset = (i < loca_count - 1) ? glyph_offset[i + 1] : (uint32_t)glyph_length;
 442:Drivers/lvgl/src/font/lv_font_loader.c ****         int bmp_size = next_offset - glyph_offset[i] - nbits / 8;
 443:Drivers/lvgl/src/font/lv_font_loader.c **** 
 444:Drivers/lvgl/src/font/lv_font_loader.c ****         if(nbits % 8 == 0) {  /*Fast path*/
 445:Drivers/lvgl/src/font/lv_font_loader.c ****             if(lv_fs_read(fp, &glyph_bmp[cur_bmp_size], bmp_size, NULL) != LV_FS_RES_OK) {
 446:Drivers/lvgl/src/font/lv_font_loader.c ****                 return -1;
 447:Drivers/lvgl/src/font/lv_font_loader.c ****             }
 448:Drivers/lvgl/src/font/lv_font_loader.c ****         }
 449:Drivers/lvgl/src/font/lv_font_loader.c ****         else {
 450:Drivers/lvgl/src/font/lv_font_loader.c ****             for(int k = 0; k < bmp_size - 1; ++k) {
 451:Drivers/lvgl/src/font/lv_font_loader.c ****                 glyph_bmp[cur_bmp_size + k] = read_bits(&bit_it, 8, &res);
 452:Drivers/lvgl/src/font/lv_font_loader.c ****                 if(res != LV_FS_RES_OK) {
 453:Drivers/lvgl/src/font/lv_font_loader.c ****                     return -1;
 454:Drivers/lvgl/src/font/lv_font_loader.c ****                 }
 455:Drivers/lvgl/src/font/lv_font_loader.c ****             }
 456:Drivers/lvgl/src/font/lv_font_loader.c ****             glyph_bmp[cur_bmp_size + bmp_size - 1] = read_bits(&bit_it, 8 - nbits % 8, &res);
 457:Drivers/lvgl/src/font/lv_font_loader.c ****             if(res != LV_FS_RES_OK) {
 458:Drivers/lvgl/src/font/lv_font_loader.c ****                 return -1;
 459:Drivers/lvgl/src/font/lv_font_loader.c ****             }
 460:Drivers/lvgl/src/font/lv_font_loader.c **** 
 461:Drivers/lvgl/src/font/lv_font_loader.c ****             /*The last fragment should be on the MSB but read_bits() will place it to the LSB*/
 462:Drivers/lvgl/src/font/lv_font_loader.c ****             glyph_bmp[cur_bmp_size + bmp_size - 1] = glyph_bmp[cur_bmp_size + bmp_size - 1] << (nbi
 463:Drivers/lvgl/src/font/lv_font_loader.c **** 
 464:Drivers/lvgl/src/font/lv_font_loader.c ****         }
 465:Drivers/lvgl/src/font/lv_font_loader.c **** 
 466:Drivers/lvgl/src/font/lv_font_loader.c ****         cur_bmp_size += bmp_size;
 467:Drivers/lvgl/src/font/lv_font_loader.c ****     }
 468:Drivers/lvgl/src/font/lv_font_loader.c ****     return glyph_length;
 469:Drivers/lvgl/src/font/lv_font_loader.c **** }
 470:Drivers/lvgl/src/font/lv_font_loader.c **** 
 471:Drivers/lvgl/src/font/lv_font_loader.c **** /*
 472:Drivers/lvgl/src/font/lv_font_loader.c ****  * Loads a `lv_font_t` from a binary file, given a `lv_fs_file_t`.
 473:Drivers/lvgl/src/font/lv_font_loader.c ****  *
 474:Drivers/lvgl/src/font/lv_font_loader.c ****  * Memory allocations on `lvgl_load_font` should be immediately zeroed and
 475:Drivers/lvgl/src/font/lv_font_loader.c ****  * the pointer should be set on the `lv_font_t` data before any possible return.
 476:Drivers/lvgl/src/font/lv_font_loader.c ****  *
 477:Drivers/lvgl/src/font/lv_font_loader.c ****  * When something fails, it returns `false` and the memory on the `lv_font_t`
 478:Drivers/lvgl/src/font/lv_font_loader.c ****  * still needs to be freed using `lv_font_free`.
 479:Drivers/lvgl/src/font/lv_font_loader.c ****  *
 480:Drivers/lvgl/src/font/lv_font_loader.c ****  * `lv_font_free` will assume that all non-null pointers are allocated and
 481:Drivers/lvgl/src/font/lv_font_loader.c ****  * should be freed.
 482:Drivers/lvgl/src/font/lv_font_loader.c ****  */
 483:Drivers/lvgl/src/font/lv_font_loader.c **** static bool lvgl_load_font(lv_fs_file_t * fp, lv_font_t * font)
 484:Drivers/lvgl/src/font/lv_font_loader.c **** {
 485:Drivers/lvgl/src/font/lv_font_loader.c ****     lv_font_fmt_txt_dsc_t * font_dsc = (lv_font_fmt_txt_dsc_t *)
 486:Drivers/lvgl/src/font/lv_font_loader.c ****                                        lv_mem_alloc(sizeof(lv_font_fmt_txt_dsc_t));
 487:Drivers/lvgl/src/font/lv_font_loader.c **** 
 488:Drivers/lvgl/src/font/lv_font_loader.c ****     memset(font_dsc, 0, sizeof(lv_font_fmt_txt_dsc_t));
 489:Drivers/lvgl/src/font/lv_font_loader.c **** 
ARM GAS  /var/folders/0z/tsy30v1j4xl4_7kw94k978ww0000gn/T//ccYqTwoW.s 			page 20


 490:Drivers/lvgl/src/font/lv_font_loader.c ****     font->dsc = font_dsc;
 491:Drivers/lvgl/src/font/lv_font_loader.c **** 
 492:Drivers/lvgl/src/font/lv_font_loader.c ****     /*header*/
 493:Drivers/lvgl/src/font/lv_font_loader.c ****     int32_t header_length = read_label(fp, 0, "head");
 494:Drivers/lvgl/src/font/lv_font_loader.c ****     if(header_length < 0) {
 495:Drivers/lvgl/src/font/lv_font_loader.c ****         return false;
 496:Drivers/lvgl/src/font/lv_font_loader.c ****     }
 497:Drivers/lvgl/src/font/lv_font_loader.c **** 
 498:Drivers/lvgl/src/font/lv_font_loader.c ****     font_header_bin_t font_header;
 499:Drivers/lvgl/src/font/lv_font_loader.c ****     if(lv_fs_read(fp, &font_header, sizeof(font_header_bin_t), NULL) != LV_FS_RES_OK) {
 500:Drivers/lvgl/src/font/lv_font_loader.c ****         return false;
 501:Drivers/lvgl/src/font/lv_font_loader.c ****     }
 502:Drivers/lvgl/src/font/lv_font_loader.c **** 
 503:Drivers/lvgl/src/font/lv_font_loader.c ****     font->base_line = -font_header.descent;
 504:Drivers/lvgl/src/font/lv_font_loader.c ****     font->line_height = font_header.ascent - font_header.descent;
 505:Drivers/lvgl/src/font/lv_font_loader.c ****     font->get_glyph_dsc = lv_font_get_glyph_dsc_fmt_txt;
 506:Drivers/lvgl/src/font/lv_font_loader.c ****     font->get_glyph_bitmap = lv_font_get_bitmap_fmt_txt;
 507:Drivers/lvgl/src/font/lv_font_loader.c ****     font->subpx = font_header.subpixels_mode;
 508:Drivers/lvgl/src/font/lv_font_loader.c ****     font->underline_position = font_header.underline_position;
 509:Drivers/lvgl/src/font/lv_font_loader.c ****     font->underline_thickness = font_header.underline_thickness;
 510:Drivers/lvgl/src/font/lv_font_loader.c **** 
 511:Drivers/lvgl/src/font/lv_font_loader.c ****     font_dsc->bpp = font_header.bits_per_pixel;
 512:Drivers/lvgl/src/font/lv_font_loader.c ****     font_dsc->kern_scale = font_header.kerning_scale;
 513:Drivers/lvgl/src/font/lv_font_loader.c ****     font_dsc->bitmap_format = font_header.compression_id;
 514:Drivers/lvgl/src/font/lv_font_loader.c **** 
 515:Drivers/lvgl/src/font/lv_font_loader.c ****     /*cmaps*/
 516:Drivers/lvgl/src/font/lv_font_loader.c ****     uint32_t cmaps_start = header_length;
 517:Drivers/lvgl/src/font/lv_font_loader.c ****     int32_t cmaps_length = load_cmaps(fp, font_dsc, cmaps_start);
 518:Drivers/lvgl/src/font/lv_font_loader.c ****     if(cmaps_length < 0) {
 519:Drivers/lvgl/src/font/lv_font_loader.c ****         return false;
 520:Drivers/lvgl/src/font/lv_font_loader.c ****     }
 521:Drivers/lvgl/src/font/lv_font_loader.c **** 
 522:Drivers/lvgl/src/font/lv_font_loader.c ****     /*loca*/
 523:Drivers/lvgl/src/font/lv_font_loader.c ****     uint32_t loca_start = cmaps_start + cmaps_length;
 524:Drivers/lvgl/src/font/lv_font_loader.c ****     int32_t loca_length = read_label(fp, loca_start, "loca");
 525:Drivers/lvgl/src/font/lv_font_loader.c ****     if(loca_length < 0) {
 526:Drivers/lvgl/src/font/lv_font_loader.c ****         return false;
 527:Drivers/lvgl/src/font/lv_font_loader.c ****     }
 528:Drivers/lvgl/src/font/lv_font_loader.c **** 
 529:Drivers/lvgl/src/font/lv_font_loader.c ****     uint32_t loca_count;
 530:Drivers/lvgl/src/font/lv_font_loader.c ****     if(lv_fs_read(fp, &loca_count, sizeof(uint32_t), NULL) != LV_FS_RES_OK) {
 531:Drivers/lvgl/src/font/lv_font_loader.c ****         return false;
 532:Drivers/lvgl/src/font/lv_font_loader.c ****     }
 533:Drivers/lvgl/src/font/lv_font_loader.c **** 
 534:Drivers/lvgl/src/font/lv_font_loader.c ****     bool failed = false;
 535:Drivers/lvgl/src/font/lv_font_loader.c ****     uint32_t * glyph_offset = lv_mem_alloc(sizeof(uint32_t) * (loca_count + 1));
 536:Drivers/lvgl/src/font/lv_font_loader.c **** 
 537:Drivers/lvgl/src/font/lv_font_loader.c ****     if(font_header.index_to_loc_format == 0) {
 538:Drivers/lvgl/src/font/lv_font_loader.c ****         for(unsigned int i = 0; i < loca_count; ++i) {
 539:Drivers/lvgl/src/font/lv_font_loader.c ****             uint16_t offset;
 540:Drivers/lvgl/src/font/lv_font_loader.c ****             if(lv_fs_read(fp, &offset, sizeof(uint16_t), NULL) != LV_FS_RES_OK) {
 541:Drivers/lvgl/src/font/lv_font_loader.c ****                 failed = true;
 542:Drivers/lvgl/src/font/lv_font_loader.c ****                 break;
 543:Drivers/lvgl/src/font/lv_font_loader.c ****             }
 544:Drivers/lvgl/src/font/lv_font_loader.c ****             glyph_offset[i] = offset;
 545:Drivers/lvgl/src/font/lv_font_loader.c ****         }
 546:Drivers/lvgl/src/font/lv_font_loader.c ****     }
ARM GAS  /var/folders/0z/tsy30v1j4xl4_7kw94k978ww0000gn/T//ccYqTwoW.s 			page 21


 547:Drivers/lvgl/src/font/lv_font_loader.c ****     else if(font_header.index_to_loc_format == 1) {
 548:Drivers/lvgl/src/font/lv_font_loader.c ****         if(lv_fs_read(fp, glyph_offset, loca_count * sizeof(uint32_t), NULL) != LV_FS_RES_OK) {
 549:Drivers/lvgl/src/font/lv_font_loader.c ****             failed = true;
 550:Drivers/lvgl/src/font/lv_font_loader.c ****         }
 551:Drivers/lvgl/src/font/lv_font_loader.c ****     }
 552:Drivers/lvgl/src/font/lv_font_loader.c ****     else {
 553:Drivers/lvgl/src/font/lv_font_loader.c ****         LV_LOG_WARN("Unknown index_to_loc_format: %d.", font_header.index_to_loc_format);
 554:Drivers/lvgl/src/font/lv_font_loader.c ****         failed = true;
 555:Drivers/lvgl/src/font/lv_font_loader.c ****     }
 556:Drivers/lvgl/src/font/lv_font_loader.c **** 
 557:Drivers/lvgl/src/font/lv_font_loader.c ****     if(failed) {
 558:Drivers/lvgl/src/font/lv_font_loader.c ****         lv_mem_free(glyph_offset);
 559:Drivers/lvgl/src/font/lv_font_loader.c ****         return false;
 560:Drivers/lvgl/src/font/lv_font_loader.c ****     }
 561:Drivers/lvgl/src/font/lv_font_loader.c **** 
 562:Drivers/lvgl/src/font/lv_font_loader.c ****     /*glyph*/
 563:Drivers/lvgl/src/font/lv_font_loader.c ****     uint32_t glyph_start = loca_start + loca_length;
 564:Drivers/lvgl/src/font/lv_font_loader.c ****     int32_t glyph_length = load_glyph(
 565:Drivers/lvgl/src/font/lv_font_loader.c ****                                fp, font_dsc, glyph_start, glyph_offset, loca_count, &font_header);
 566:Drivers/lvgl/src/font/lv_font_loader.c **** 
 567:Drivers/lvgl/src/font/lv_font_loader.c ****     lv_mem_free(glyph_offset);
 568:Drivers/lvgl/src/font/lv_font_loader.c **** 
 569:Drivers/lvgl/src/font/lv_font_loader.c ****     if(glyph_length < 0) {
 570:Drivers/lvgl/src/font/lv_font_loader.c ****         return false;
 571:Drivers/lvgl/src/font/lv_font_loader.c ****     }
 572:Drivers/lvgl/src/font/lv_font_loader.c **** 
 573:Drivers/lvgl/src/font/lv_font_loader.c ****     if(font_header.tables_count < 4) {
 574:Drivers/lvgl/src/font/lv_font_loader.c ****         font_dsc->kern_dsc = NULL;
 575:Drivers/lvgl/src/font/lv_font_loader.c ****         font_dsc->kern_classes = 0;
 576:Drivers/lvgl/src/font/lv_font_loader.c ****         font_dsc->kern_scale = 0;
 577:Drivers/lvgl/src/font/lv_font_loader.c ****         return true;
 578:Drivers/lvgl/src/font/lv_font_loader.c ****     }
 579:Drivers/lvgl/src/font/lv_font_loader.c **** 
 580:Drivers/lvgl/src/font/lv_font_loader.c ****     uint32_t kern_start = glyph_start + glyph_length;
 581:Drivers/lvgl/src/font/lv_font_loader.c **** 
 582:Drivers/lvgl/src/font/lv_font_loader.c ****     int32_t kern_length = load_kern(fp, font_dsc, font_header.glyph_id_format, kern_start);
 583:Drivers/lvgl/src/font/lv_font_loader.c **** 
 584:Drivers/lvgl/src/font/lv_font_loader.c ****     return kern_length >= 0;
 585:Drivers/lvgl/src/font/lv_font_loader.c **** }
 586:Drivers/lvgl/src/font/lv_font_loader.c **** 
 587:Drivers/lvgl/src/font/lv_font_loader.c **** int32_t load_kern(lv_fs_file_t * fp, lv_font_fmt_txt_dsc_t * font_dsc, uint8_t format, uint32_t sta
 588:Drivers/lvgl/src/font/lv_font_loader.c **** {
 489              		.loc 1 588 1 is_stmt 1 view -0
 490              		.cfi_startproc
 491              		@ args = 0, pretend = 0, frame = 24
 492              		@ frame_needed = 0, uses_anonymous_args = 0
 589:Drivers/lvgl/src/font/lv_font_loader.c ****     int32_t kern_length = read_label(fp, start, "kern");
 493              		.loc 1 589 5 view .LVU148
 588:Drivers/lvgl/src/font/lv_font_loader.c ****     int32_t kern_length = read_label(fp, start, "kern");
 494              		.loc 1 588 1 is_stmt 0 view .LVU149
 495 0000 2DE9F04F 		push	{r4, r5, r6, r7, r8, r9, r10, fp, lr}
 496              		.cfi_def_cfa_offset 36
 497              		.cfi_offset 4, -36
 498              		.cfi_offset 5, -32
 499              		.cfi_offset 6, -28
 500              		.cfi_offset 7, -24
 501              		.cfi_offset 8, -20
ARM GAS  /var/folders/0z/tsy30v1j4xl4_7kw94k978ww0000gn/T//ccYqTwoW.s 			page 22


 502              		.cfi_offset 9, -16
 503              		.cfi_offset 10, -12
 504              		.cfi_offset 11, -8
 505              		.cfi_offset 14, -4
 506 0004 0F46     		mov	r7, r1
 507 0006 87B0     		sub	sp, sp, #28
 508              		.cfi_def_cfa_offset 64
 509              		.loc 1 589 27 view .LVU150
 510 0008 1946     		mov	r1, r3
 511              	.LVL46:
 588:Drivers/lvgl/src/font/lv_font_loader.c ****     int32_t kern_length = read_label(fp, start, "kern");
 512              		.loc 1 588 1 view .LVU151
 513 000a 1546     		mov	r5, r2
 514              		.loc 1 589 27 view .LVU152
 515 000c 654A     		ldr	r2, .L94
 516              	.LVL47:
 588:Drivers/lvgl/src/font/lv_font_loader.c ****     int32_t kern_length = read_label(fp, start, "kern");
 517              		.loc 1 588 1 view .LVU153
 518 000e 0446     		mov	r4, r0
 519              		.loc 1 589 27 view .LVU154
 520 0010 FFF7FEFF 		bl	read_label
 521              	.LVL48:
 590:Drivers/lvgl/src/font/lv_font_loader.c ****     if(kern_length < 0) {
 522              		.loc 1 590 5 is_stmt 1 view .LVU155
 523              		.loc 1 590 7 is_stmt 0 view .LVU156
 524 0014 B0F10008 		subs	r8, r0, #0
 525 0018 C0F2BB80 		blt	.L90
 591:Drivers/lvgl/src/font/lv_font_loader.c ****         return -1;
 592:Drivers/lvgl/src/font/lv_font_loader.c ****     }
 593:Drivers/lvgl/src/font/lv_font_loader.c **** 
 594:Drivers/lvgl/src/font/lv_font_loader.c ****     uint8_t kern_format_type;
 526              		.loc 1 594 5 is_stmt 1 view .LVU157
 595:Drivers/lvgl/src/font/lv_font_loader.c ****     int32_t padding;
 527              		.loc 1 595 5 view .LVU158
 596:Drivers/lvgl/src/font/lv_font_loader.c ****     if(lv_fs_read(fp, &kern_format_type, sizeof(uint8_t), NULL) != LV_FS_RES_OK ||
 528              		.loc 1 596 5 view .LVU159
 529              		.loc 1 596 8 is_stmt 0 view .LVU160
 530 001c 0023     		movs	r3, #0
 531 001e 0122     		movs	r2, #1
 532 0020 0DF10D01 		add	r1, sp, #13
 533 0024 2046     		mov	r0, r4
 534              	.LVL49:
 535              		.loc 1 596 8 view .LVU161
 536 0026 FFF7FEFF 		bl	lv_fs_read
 537              	.LVL50:
 538              		.loc 1 596 7 view .LVU162
 539 002a 0346     		mov	r3, r0
 540 002c 0028     		cmp	r0, #0
 541 002e 40F0B080 		bne	.L90
 597:Drivers/lvgl/src/font/lv_font_loader.c ****        lv_fs_read(fp, &padding, 3 * sizeof(uint8_t), NULL) != LV_FS_RES_OK) {
 542              		.loc 1 597 8 discriminator 1 view .LVU163
 543 0032 0322     		movs	r2, #3
 544 0034 04A9     		add	r1, sp, #16
 545 0036 2046     		mov	r0, r4
 546 0038 FFF7FEFF 		bl	lv_fs_read
 547              	.LVL51:
 596:Drivers/lvgl/src/font/lv_font_loader.c ****     if(lv_fs_read(fp, &kern_format_type, sizeof(uint8_t), NULL) != LV_FS_RES_OK ||
ARM GAS  /var/folders/0z/tsy30v1j4xl4_7kw94k978ww0000gn/T//ccYqTwoW.s 			page 23


 548              		.loc 1 596 81 discriminator 1 view .LVU164
 549 003c 0646     		mov	r6, r0
 550 003e 0028     		cmp	r0, #0
 551 0040 40F0A780 		bne	.L90
 598:Drivers/lvgl/src/font/lv_font_loader.c ****         return -1;
 599:Drivers/lvgl/src/font/lv_font_loader.c ****     }
 600:Drivers/lvgl/src/font/lv_font_loader.c **** 
 601:Drivers/lvgl/src/font/lv_font_loader.c ****     if(0 == kern_format_type) { /*sorted pairs*/
 552              		.loc 1 601 5 is_stmt 1 view .LVU165
 553              		.loc 1 601 10 is_stmt 0 view .LVU166
 554 0044 9DF80D90 		ldrb	r9, [sp, #13]	@ zero_extendqisi2
 555              		.loc 1 601 7 view .LVU167
 556 0048 B9F1000F 		cmp	r9, #0
 557 004c 67D0     		beq	.L92
 602:Drivers/lvgl/src/font/lv_font_loader.c ****         lv_font_fmt_txt_kern_pair_t * kern_pair = lv_mem_alloc(sizeof(lv_font_fmt_txt_kern_pair_t))
 603:Drivers/lvgl/src/font/lv_font_loader.c **** 
 604:Drivers/lvgl/src/font/lv_font_loader.c ****         memset(kern_pair, 0, sizeof(lv_font_fmt_txt_kern_pair_t));
 605:Drivers/lvgl/src/font/lv_font_loader.c **** 
 606:Drivers/lvgl/src/font/lv_font_loader.c ****         font_dsc->kern_dsc = kern_pair;
 607:Drivers/lvgl/src/font/lv_font_loader.c ****         font_dsc->kern_classes = 0;
 608:Drivers/lvgl/src/font/lv_font_loader.c **** 
 609:Drivers/lvgl/src/font/lv_font_loader.c ****         uint32_t glyph_entries;
 610:Drivers/lvgl/src/font/lv_font_loader.c ****         if(lv_fs_read(fp, &glyph_entries, sizeof(uint32_t), NULL) != LV_FS_RES_OK) {
 611:Drivers/lvgl/src/font/lv_font_loader.c ****             return -1;
 612:Drivers/lvgl/src/font/lv_font_loader.c ****         }
 613:Drivers/lvgl/src/font/lv_font_loader.c **** 
 614:Drivers/lvgl/src/font/lv_font_loader.c ****         int ids_size;
 615:Drivers/lvgl/src/font/lv_font_loader.c ****         if(format == 0) {
 616:Drivers/lvgl/src/font/lv_font_loader.c ****             ids_size = sizeof(int8_t) * 2 * glyph_entries;
 617:Drivers/lvgl/src/font/lv_font_loader.c ****         }
 618:Drivers/lvgl/src/font/lv_font_loader.c ****         else {
 619:Drivers/lvgl/src/font/lv_font_loader.c ****             ids_size = sizeof(int16_t) * 2 * glyph_entries;
 620:Drivers/lvgl/src/font/lv_font_loader.c ****         }
 621:Drivers/lvgl/src/font/lv_font_loader.c **** 
 622:Drivers/lvgl/src/font/lv_font_loader.c ****         uint8_t * glyph_ids = lv_mem_alloc(ids_size);
 623:Drivers/lvgl/src/font/lv_font_loader.c ****         int8_t * values = lv_mem_alloc(glyph_entries);
 624:Drivers/lvgl/src/font/lv_font_loader.c **** 
 625:Drivers/lvgl/src/font/lv_font_loader.c ****         kern_pair->glyph_ids_size = format;
 626:Drivers/lvgl/src/font/lv_font_loader.c ****         kern_pair->pair_cnt = glyph_entries;
 627:Drivers/lvgl/src/font/lv_font_loader.c ****         kern_pair->glyph_ids = glyph_ids;
 628:Drivers/lvgl/src/font/lv_font_loader.c ****         kern_pair->values = values;
 629:Drivers/lvgl/src/font/lv_font_loader.c **** 
 630:Drivers/lvgl/src/font/lv_font_loader.c ****         if(lv_fs_read(fp, glyph_ids, ids_size, NULL) != LV_FS_RES_OK) {
 631:Drivers/lvgl/src/font/lv_font_loader.c ****             return -1;
 632:Drivers/lvgl/src/font/lv_font_loader.c ****         }
 633:Drivers/lvgl/src/font/lv_font_loader.c **** 
 634:Drivers/lvgl/src/font/lv_font_loader.c ****         if(lv_fs_read(fp, values, glyph_entries, NULL) != LV_FS_RES_OK) {
 635:Drivers/lvgl/src/font/lv_font_loader.c ****             return -1;
 636:Drivers/lvgl/src/font/lv_font_loader.c ****         }
 637:Drivers/lvgl/src/font/lv_font_loader.c ****     }
 638:Drivers/lvgl/src/font/lv_font_loader.c ****     else if(3 == kern_format_type) { /*array M*N of classes*/
 558              		.loc 1 638 10 is_stmt 1 view .LVU168
 559              		.loc 1 638 12 is_stmt 0 view .LVU169
 560 004e B9F1030F 		cmp	r9, #3
 561 0052 40F09E80 		bne	.L90
 562              	.LBB25:
 639:Drivers/lvgl/src/font/lv_font_loader.c **** 
ARM GAS  /var/folders/0z/tsy30v1j4xl4_7kw94k978ww0000gn/T//ccYqTwoW.s 			page 24


 640:Drivers/lvgl/src/font/lv_font_loader.c ****         lv_font_fmt_txt_kern_classes_t * kern_classes = lv_mem_alloc(sizeof(lv_font_fmt_txt_kern_cl
 563              		.loc 1 640 9 is_stmt 1 view .LVU170
 564              		.loc 1 640 57 is_stmt 0 view .LVU171
 565 0056 1020     		movs	r0, #16
 566 0058 FFF7FEFF 		bl	lv_mem_alloc
 567              	.LVL52:
 641:Drivers/lvgl/src/font/lv_font_loader.c **** 
 642:Drivers/lvgl/src/font/lv_font_loader.c ****         memset(kern_classes, 0, sizeof(lv_font_fmt_txt_kern_classes_t));
 568              		.loc 1 642 9 view .LVU172
 569 005c 0660     		str	r6, [r0]	@ unaligned
 570 005e 4660     		str	r6, [r0, #4]	@ unaligned
 571 0060 8660     		str	r6, [r0, #8]	@ unaligned
 572 0062 C660     		str	r6, [r0, #12]	@ unaligned
 643:Drivers/lvgl/src/font/lv_font_loader.c **** 
 644:Drivers/lvgl/src/font/lv_font_loader.c ****         font_dsc->kern_dsc = kern_classes;
 645:Drivers/lvgl/src/font/lv_font_loader.c ****         font_dsc->kern_classes = 1;
 573              		.loc 1 645 32 view .LVU173
 574 0064 FA7C     		ldrb	r2, [r7, #19]	@ zero_extendqisi2
 644:Drivers/lvgl/src/font/lv_font_loader.c ****         font_dsc->kern_classes = 1;
 575              		.loc 1 644 28 view .LVU174
 576 0066 F860     		str	r0, [r7, #12]
 577              		.loc 1 645 32 view .LVU175
 578 0068 42F02002 		orr	r2, r2, #32
 646:Drivers/lvgl/src/font/lv_font_loader.c **** 
 647:Drivers/lvgl/src/font/lv_font_loader.c ****         uint16_t kern_class_mapping_length;
 648:Drivers/lvgl/src/font/lv_font_loader.c ****         uint8_t kern_table_rows;
 649:Drivers/lvgl/src/font/lv_font_loader.c ****         uint8_t kern_table_cols;
 650:Drivers/lvgl/src/font/lv_font_loader.c **** 
 651:Drivers/lvgl/src/font/lv_font_loader.c ****         if(lv_fs_read(fp, &kern_class_mapping_length, sizeof(uint16_t), NULL) != LV_FS_RES_OK ||
 579              		.loc 1 651 12 view .LVU176
 580 006c 3346     		mov	r3, r6
 645:Drivers/lvgl/src/font/lv_font_loader.c **** 
 581              		.loc 1 645 32 view .LVU177
 582 006e FA74     		strb	r2, [r7, #19]
 640:Drivers/lvgl/src/font/lv_font_loader.c **** 
 583              		.loc 1 640 57 view .LVU178
 584 0070 0546     		mov	r5, r0
 585              	.LVL53:
 642:Drivers/lvgl/src/font/lv_font_loader.c **** 
 586              		.loc 1 642 9 is_stmt 1 view .LVU179
 644:Drivers/lvgl/src/font/lv_font_loader.c ****         font_dsc->kern_classes = 1;
 587              		.loc 1 644 9 view .LVU180
 645:Drivers/lvgl/src/font/lv_font_loader.c **** 
 588              		.loc 1 645 9 view .LVU181
 647:Drivers/lvgl/src/font/lv_font_loader.c ****         uint8_t kern_table_rows;
 589              		.loc 1 647 9 view .LVU182
 648:Drivers/lvgl/src/font/lv_font_loader.c ****         uint8_t kern_table_cols;
 590              		.loc 1 648 9 view .LVU183
 649:Drivers/lvgl/src/font/lv_font_loader.c **** 
 591              		.loc 1 649 9 view .LVU184
 592              		.loc 1 651 9 view .LVU185
 593              		.loc 1 651 12 is_stmt 0 view .LVU186
 594 0072 0222     		movs	r2, #2
 595 0074 05A9     		add	r1, sp, #20
 596 0076 2046     		mov	r0, r4
 597              	.LVL54:
 598              		.loc 1 651 12 view .LVU187
ARM GAS  /var/folders/0z/tsy30v1j4xl4_7kw94k978ww0000gn/T//ccYqTwoW.s 			page 25


 599 0078 FFF7FEFF 		bl	lv_fs_read
 600              	.LVL55:
 601              		.loc 1 651 11 view .LVU188
 602 007c 0346     		mov	r3, r0
 603 007e 0028     		cmp	r0, #0
 604 0080 40F08780 		bne	.L90
 652:Drivers/lvgl/src/font/lv_font_loader.c ****            lv_fs_read(fp, &kern_table_rows, sizeof(uint8_t), NULL) != LV_FS_RES_OK ||
 605              		.loc 1 652 12 discriminator 1 view .LVU189
 606 0084 0122     		movs	r2, #1
 607 0086 0DF10E01 		add	r1, sp, #14
 608 008a 2046     		mov	r0, r4
 609 008c FFF7FEFF 		bl	lv_fs_read
 610              	.LVL56:
 651:Drivers/lvgl/src/font/lv_font_loader.c ****            lv_fs_read(fp, &kern_table_rows, sizeof(uint8_t), NULL) != LV_FS_RES_OK ||
 611              		.loc 1 651 95 discriminator 1 view .LVU190
 612 0090 0346     		mov	r3, r0
 613 0092 0028     		cmp	r0, #0
 614 0094 7DD1     		bne	.L90
 653:Drivers/lvgl/src/font/lv_font_loader.c ****            lv_fs_read(fp, &kern_table_cols, sizeof(uint8_t), NULL) != LV_FS_RES_OK) {
 615              		.loc 1 653 12 view .LVU191
 616 0096 0122     		movs	r2, #1
 617 0098 0DF10F01 		add	r1, sp, #15
 618 009c 2046     		mov	r0, r4
 619 009e FFF7FEFF 		bl	lv_fs_read
 620              	.LVL57:
 652:Drivers/lvgl/src/font/lv_font_loader.c ****            lv_fs_read(fp, &kern_table_rows, sizeof(uint8_t), NULL) != LV_FS_RES_OK ||
 621              		.loc 1 652 84 view .LVU192
 622 00a2 0646     		mov	r6, r0
 623 00a4 0028     		cmp	r0, #0
 624 00a6 74D1     		bne	.L90
 654:Drivers/lvgl/src/font/lv_font_loader.c ****             return -1;
 655:Drivers/lvgl/src/font/lv_font_loader.c ****         }
 656:Drivers/lvgl/src/font/lv_font_loader.c **** 
 657:Drivers/lvgl/src/font/lv_font_loader.c ****         int kern_values_length = sizeof(int8_t) * kern_table_rows * kern_table_cols;
 625              		.loc 1 657 9 is_stmt 1 view .LVU193
 626              		.loc 1 657 67 is_stmt 0 view .LVU194
 627 00a8 9DF80F30 		ldrb	r3, [sp, #15]	@ zero_extendqisi2
 628 00ac 9DF80EA0 		ldrb	r10, [sp, #14]	@ zero_extendqisi2
 658:Drivers/lvgl/src/font/lv_font_loader.c **** 
 659:Drivers/lvgl/src/font/lv_font_loader.c ****         uint8_t * kern_left = lv_mem_alloc(kern_class_mapping_length);
 629              		.loc 1 659 31 view .LVU195
 630 00b0 BDF81400 		ldrh	r0, [sp, #20]
 657:Drivers/lvgl/src/font/lv_font_loader.c **** 
 631              		.loc 1 657 67 view .LVU196
 632 00b4 1AFB03FA 		smulbb	r10, r10, r3
 633              	.LVL58:
 634              		.loc 1 659 9 is_stmt 1 view .LVU197
 635              		.loc 1 659 31 is_stmt 0 view .LVU198
 636 00b8 FFF7FEFF 		bl	lv_mem_alloc
 637              	.LVL59:
 638 00bc 0746     		mov	r7, r0
 639              	.LVL60:
 660:Drivers/lvgl/src/font/lv_font_loader.c ****         uint8_t * kern_right = lv_mem_alloc(kern_class_mapping_length);
 640              		.loc 1 660 9 is_stmt 1 view .LVU199
 641              		.loc 1 660 32 is_stmt 0 view .LVU200
 642 00be BDF81400 		ldrh	r0, [sp, #20]
 643              	.LVL61:
ARM GAS  /var/folders/0z/tsy30v1j4xl4_7kw94k978ww0000gn/T//ccYqTwoW.s 			page 26


 644              		.loc 1 660 32 view .LVU201
 645 00c2 FFF7FEFF 		bl	lv_mem_alloc
 646              	.LVL62:
 647 00c6 8146     		mov	r9, r0
 648              	.LVL63:
 661:Drivers/lvgl/src/font/lv_font_loader.c ****         int8_t * kern_values = lv_mem_alloc(kern_values_length);
 649              		.loc 1 661 9 is_stmt 1 view .LVU202
 650              		.loc 1 661 32 is_stmt 0 view .LVU203
 651 00c8 5046     		mov	r0, r10
 652              	.LVL64:
 653              		.loc 1 661 32 view .LVU204
 654 00ca FFF7FEFF 		bl	lv_mem_alloc
 655              	.LVL65:
 662:Drivers/lvgl/src/font/lv_font_loader.c **** 
 663:Drivers/lvgl/src/font/lv_font_loader.c ****         kern_classes->left_class_mapping  = kern_left;
 664:Drivers/lvgl/src/font/lv_font_loader.c ****         kern_classes->right_class_mapping = kern_right;
 665:Drivers/lvgl/src/font/lv_font_loader.c ****         kern_classes->left_class_cnt = kern_table_rows;
 656              		.loc 1 665 38 view .LVU205
 657 00ce 9DF80E20 		ldrb	r2, [sp, #14]	@ zero_extendqisi2
 658 00d2 2A73     		strb	r2, [r5, #12]
 666:Drivers/lvgl/src/font/lv_font_loader.c ****         kern_classes->right_class_cnt = kern_table_cols;
 659              		.loc 1 666 39 view .LVU206
 660 00d4 9DF80F20 		ldrb	r2, [sp, #15]	@ zero_extendqisi2
 661 00d8 6A73     		strb	r2, [r5, #13]
 667:Drivers/lvgl/src/font/lv_font_loader.c ****         kern_classes->class_pair_values = kern_values;
 668:Drivers/lvgl/src/font/lv_font_loader.c **** 
 669:Drivers/lvgl/src/font/lv_font_loader.c ****         if(lv_fs_read(fp, kern_left, kern_class_mapping_length, NULL) != LV_FS_RES_OK ||
 662              		.loc 1 669 12 view .LVU207
 663 00da 3346     		mov	r3, r6
 667:Drivers/lvgl/src/font/lv_font_loader.c ****         kern_classes->class_pair_values = kern_values;
 664              		.loc 1 667 41 view .LVU208
 665 00dc 2860     		str	r0, [r5]
 664:Drivers/lvgl/src/font/lv_font_loader.c ****         kern_classes->left_class_cnt = kern_table_rows;
 666              		.loc 1 664 43 view .LVU209
 667 00de C5E90179 		strd	r7, r9, [r5, #4]
 668              		.loc 1 669 12 view .LVU210
 669 00e2 BDF81420 		ldrh	r2, [sp, #20]
 661:Drivers/lvgl/src/font/lv_font_loader.c **** 
 670              		.loc 1 661 32 view .LVU211
 671 00e6 8346     		mov	fp, r0
 672              	.LVL66:
 663:Drivers/lvgl/src/font/lv_font_loader.c ****         kern_classes->right_class_mapping = kern_right;
 673              		.loc 1 663 9 is_stmt 1 view .LVU212
 665:Drivers/lvgl/src/font/lv_font_loader.c ****         kern_classes->right_class_cnt = kern_table_cols;
 674              		.loc 1 665 9 view .LVU213
 666:Drivers/lvgl/src/font/lv_font_loader.c ****         kern_classes->class_pair_values = kern_values;
 675              		.loc 1 666 9 view .LVU214
 667:Drivers/lvgl/src/font/lv_font_loader.c **** 
 676              		.loc 1 667 9 view .LVU215
 677              		.loc 1 669 9 view .LVU216
 678              		.loc 1 669 12 is_stmt 0 view .LVU217
 679 00e8 3946     		mov	r1, r7
 680 00ea 2046     		mov	r0, r4
 681              	.LVL67:
 682              		.loc 1 669 12 view .LVU218
 683 00ec FFF7FEFF 		bl	lv_fs_read
 684              	.LVL68:
ARM GAS  /var/folders/0z/tsy30v1j4xl4_7kw94k978ww0000gn/T//ccYqTwoW.s 			page 27


 685              		.loc 1 669 11 view .LVU219
 686 00f0 0346     		mov	r3, r0
 687 00f2 0028     		cmp	r0, #0
 688 00f4 4DD1     		bne	.L90
 670:Drivers/lvgl/src/font/lv_font_loader.c ****            lv_fs_read(fp, kern_right, kern_class_mapping_length, NULL) != LV_FS_RES_OK ||
 689              		.loc 1 670 12 discriminator 1 view .LVU220
 690 00f6 BDF81420 		ldrh	r2, [sp, #20]
 691 00fa 4946     		mov	r1, r9
 692 00fc 2046     		mov	r0, r4
 693 00fe FFF7FEFF 		bl	lv_fs_read
 694              	.LVL69:
 669:Drivers/lvgl/src/font/lv_font_loader.c ****            lv_fs_read(fp, kern_right, kern_class_mapping_length, NULL) != LV_FS_RES_OK ||
 695              		.loc 1 669 87 discriminator 1 view .LVU221
 696 0102 0028     		cmp	r0, #0
 697 0104 45D1     		bne	.L90
 671:Drivers/lvgl/src/font/lv_font_loader.c ****            lv_fs_read(fp, kern_values, kern_values_length, NULL) != LV_FS_RES_OK) {
 698              		.loc 1 671 12 view .LVU222
 699 0106 0023     		movs	r3, #0
 700 0108 5246     		mov	r2, r10
 701 010a 5946     		mov	r1, fp
 702 010c 2046     		mov	r0, r4
 703 010e FFF7FEFF 		bl	lv_fs_read
 704              	.LVL70:
 670:Drivers/lvgl/src/font/lv_font_loader.c ****            lv_fs_read(fp, kern_right, kern_class_mapping_length, NULL) != LV_FS_RES_OK ||
 705              		.loc 1 670 88 view .LVU223
 706 0112 0028     		cmp	r0, #0
 707 0114 3DD1     		bne	.L90
 708              	.LVL71:
 709              	.L82:
 670:Drivers/lvgl/src/font/lv_font_loader.c ****            lv_fs_read(fp, kern_right, kern_class_mapping_length, NULL) != LV_FS_RES_OK ||
 710              		.loc 1 670 88 view .LVU224
 711              	.LBE25:
 672:Drivers/lvgl/src/font/lv_font_loader.c ****             return -1;
 673:Drivers/lvgl/src/font/lv_font_loader.c ****         }
 674:Drivers/lvgl/src/font/lv_font_loader.c ****     }
 675:Drivers/lvgl/src/font/lv_font_loader.c ****     else {
 676:Drivers/lvgl/src/font/lv_font_loader.c ****         LV_LOG_WARN("Unknown kern_format_type: %d", kern_format_type);
 677:Drivers/lvgl/src/font/lv_font_loader.c ****         return -1;
 678:Drivers/lvgl/src/font/lv_font_loader.c ****     }
 679:Drivers/lvgl/src/font/lv_font_loader.c **** 
 680:Drivers/lvgl/src/font/lv_font_loader.c ****     return kern_length;
 681:Drivers/lvgl/src/font/lv_font_loader.c **** }
 712              		.loc 1 681 1 view .LVU225
 713 0116 4046     		mov	r0, r8
 714 0118 07B0     		add	sp, sp, #28
 715              		.cfi_remember_state
 716              		.cfi_def_cfa_offset 36
 717              		@ sp needed
 718 011a BDE8F08F 		pop	{r4, r5, r6, r7, r8, r9, r10, fp, pc}
 719              	.LVL72:
 720              	.L92:
 721              		.cfi_restore_state
 722              	.LBB26:
 602:Drivers/lvgl/src/font/lv_font_loader.c **** 
 723              		.loc 1 602 9 is_stmt 1 view .LVU226
 602:Drivers/lvgl/src/font/lv_font_loader.c **** 
 724              		.loc 1 602 51 is_stmt 0 view .LVU227
ARM GAS  /var/folders/0z/tsy30v1j4xl4_7kw94k978ww0000gn/T//ccYqTwoW.s 			page 28


 725 011e 0C20     		movs	r0, #12
 726 0120 FFF7FEFF 		bl	lv_mem_alloc
 727              	.LVL73:
 604:Drivers/lvgl/src/font/lv_font_loader.c **** 
 728              		.loc 1 604 9 view .LVU228
 729 0124 C0F80090 		str	r9, [r0]	@ unaligned
 730 0128 C0F80490 		str	r9, [r0, #4]	@ unaligned
 731 012c C0F80890 		str	r9, [r0, #8]	@ unaligned
 607:Drivers/lvgl/src/font/lv_font_loader.c **** 
 732              		.loc 1 607 32 view .LVU229
 733 0130 FB7C     		ldrb	r3, [r7, #19]	@ zero_extendqisi2
 606:Drivers/lvgl/src/font/lv_font_loader.c ****         font_dsc->kern_classes = 0;
 734              		.loc 1 606 28 view .LVU230
 735 0132 F860     		str	r0, [r7, #12]
 607:Drivers/lvgl/src/font/lv_font_loader.c **** 
 736              		.loc 1 607 32 view .LVU231
 737 0134 69F34513 		bfi	r3, r9, #5, #1
 602:Drivers/lvgl/src/font/lv_font_loader.c **** 
 738              		.loc 1 602 51 view .LVU232
 739 0138 0646     		mov	r6, r0
 740              	.LVL74:
 604:Drivers/lvgl/src/font/lv_font_loader.c **** 
 741              		.loc 1 604 9 is_stmt 1 view .LVU233
 606:Drivers/lvgl/src/font/lv_font_loader.c ****         font_dsc->kern_classes = 0;
 742              		.loc 1 606 9 view .LVU234
 607:Drivers/lvgl/src/font/lv_font_loader.c **** 
 743              		.loc 1 607 9 view .LVU235
 607:Drivers/lvgl/src/font/lv_font_loader.c **** 
 744              		.loc 1 607 32 is_stmt 0 view .LVU236
 745 013a FB74     		strb	r3, [r7, #19]
 609:Drivers/lvgl/src/font/lv_font_loader.c ****         if(lv_fs_read(fp, &glyph_entries, sizeof(uint32_t), NULL) != LV_FS_RES_OK) {
 746              		.loc 1 609 9 is_stmt 1 view .LVU237
 610:Drivers/lvgl/src/font/lv_font_loader.c ****             return -1;
 747              		.loc 1 610 9 view .LVU238
 610:Drivers/lvgl/src/font/lv_font_loader.c ****             return -1;
 748              		.loc 1 610 12 is_stmt 0 view .LVU239
 749 013c 0422     		movs	r2, #4
 750 013e 4B46     		mov	r3, r9
 751 0140 05A9     		add	r1, sp, #20
 752 0142 2046     		mov	r0, r4
 753              	.LVL75:
 610:Drivers/lvgl/src/font/lv_font_loader.c ****             return -1;
 754              		.loc 1 610 12 view .LVU240
 755 0144 FFF7FEFF 		bl	lv_fs_read
 756              	.LVL76:
 610:Drivers/lvgl/src/font/lv_font_loader.c ****             return -1;
 757              		.loc 1 610 11 view .LVU241
 758 0148 18BB     		cbnz	r0, .L90
 614:Drivers/lvgl/src/font/lv_font_loader.c ****         if(format == 0) {
 759              		.loc 1 614 9 is_stmt 1 view .LVU242
 615:Drivers/lvgl/src/font/lv_font_loader.c ****             ids_size = sizeof(int8_t) * 2 * glyph_entries;
 760              		.loc 1 615 9 view .LVU243
 616:Drivers/lvgl/src/font/lv_font_loader.c ****         }
 761              		.loc 1 616 43 is_stmt 0 view .LVU244
 762 014a 059A     		ldr	r2, [sp, #20]
 615:Drivers/lvgl/src/font/lv_font_loader.c ****             ids_size = sizeof(int8_t) * 2 * glyph_entries;
 763              		.loc 1 615 11 view .LVU245
ARM GAS  /var/folders/0z/tsy30v1j4xl4_7kw94k978ww0000gn/T//ccYqTwoW.s 			page 29


 764 014c 3DB3     		cbz	r5, .L93
 619:Drivers/lvgl/src/font/lv_font_loader.c ****         }
 765              		.loc 1 619 13 is_stmt 1 view .LVU246
 619:Drivers/lvgl/src/font/lv_font_loader.c ****         }
 766              		.loc 1 619 44 is_stmt 0 view .LVU247
 767 014e 9200     		lsls	r2, r2, #2
 768              	.LVL77:
 769              	.L89:
 622:Drivers/lvgl/src/font/lv_font_loader.c ****         int8_t * values = lv_mem_alloc(glyph_entries);
 770              		.loc 1 622 9 is_stmt 1 view .LVU248
 622:Drivers/lvgl/src/font/lv_font_loader.c ****         int8_t * values = lv_mem_alloc(glyph_entries);
 771              		.loc 1 622 31 is_stmt 0 view .LVU249
 772 0150 1046     		mov	r0, r2
 773 0152 0192     		str	r2, [sp, #4]
 774 0154 FFF7FEFF 		bl	lv_mem_alloc
 775              	.LVL78:
 776 0158 8146     		mov	r9, r0
 777              	.LVL79:
 623:Drivers/lvgl/src/font/lv_font_loader.c **** 
 778              		.loc 1 623 9 is_stmt 1 view .LVU250
 623:Drivers/lvgl/src/font/lv_font_loader.c **** 
 779              		.loc 1 623 27 is_stmt 0 view .LVU251
 780 015a 0598     		ldr	r0, [sp, #20]
 781              	.LVL80:
 623:Drivers/lvgl/src/font/lv_font_loader.c **** 
 782              		.loc 1 623 27 view .LVU252
 783 015c FFF7FEFF 		bl	lv_mem_alloc
 784              	.LVL81:
 626:Drivers/lvgl/src/font/lv_font_loader.c ****         kern_pair->glyph_ids = glyph_ids;
 785              		.loc 1 626 29 view .LVU253
 786 0160 059B     		ldr	r3, [sp, #20]
 630:Drivers/lvgl/src/font/lv_font_loader.c ****             return -1;
 787              		.loc 1 630 12 view .LVU254
 788 0162 019A     		ldr	r2, [sp, #4]
 627:Drivers/lvgl/src/font/lv_font_loader.c ****         kern_pair->values = values;
 789              		.loc 1 627 30 view .LVU255
 790 0164 C6F80090 		str	r9, [r6]
 626:Drivers/lvgl/src/font/lv_font_loader.c ****         kern_pair->glyph_ids = glyph_ids;
 791              		.loc 1 626 29 view .LVU256
 792 0168 23F04043 		bic	r3, r3, #-1073741824
 793 016c 43EA8573 		orr	r3, r3, r5, lsl #30
 628:Drivers/lvgl/src/font/lv_font_loader.c **** 
 794              		.loc 1 628 27 view .LVU257
 795 0170 C6E90103 		strd	r0, r3, [r6, #4]
 623:Drivers/lvgl/src/font/lv_font_loader.c **** 
 796              		.loc 1 623 27 view .LVU258
 797 0174 0746     		mov	r7, r0
 798              	.LVL82:
 625:Drivers/lvgl/src/font/lv_font_loader.c ****         kern_pair->pair_cnt = glyph_entries;
 799              		.loc 1 625 9 is_stmt 1 view .LVU259
 626:Drivers/lvgl/src/font/lv_font_loader.c ****         kern_pair->glyph_ids = glyph_ids;
 800              		.loc 1 626 9 view .LVU260
 630:Drivers/lvgl/src/font/lv_font_loader.c ****             return -1;
 801              		.loc 1 630 9 view .LVU261
 630:Drivers/lvgl/src/font/lv_font_loader.c ****             return -1;
 802              		.loc 1 630 12 is_stmt 0 view .LVU262
 803 0176 0023     		movs	r3, #0
ARM GAS  /var/folders/0z/tsy30v1j4xl4_7kw94k978ww0000gn/T//ccYqTwoW.s 			page 30


 804 0178 4946     		mov	r1, r9
 805 017a 2046     		mov	r0, r4
 806              	.LVL83:
 630:Drivers/lvgl/src/font/lv_font_loader.c ****             return -1;
 807              		.loc 1 630 12 view .LVU263
 808 017c FFF7FEFF 		bl	lv_fs_read
 809              	.LVL84:
 630:Drivers/lvgl/src/font/lv_font_loader.c ****             return -1;
 810              		.loc 1 630 11 view .LVU264
 811 0180 0346     		mov	r3, r0
 812 0182 30B9     		cbnz	r0, .L90
 634:Drivers/lvgl/src/font/lv_font_loader.c ****             return -1;
 813              		.loc 1 634 9 is_stmt 1 view .LVU265
 634:Drivers/lvgl/src/font/lv_font_loader.c ****             return -1;
 814              		.loc 1 634 12 is_stmt 0 view .LVU266
 815 0184 059A     		ldr	r2, [sp, #20]
 816 0186 3946     		mov	r1, r7
 817 0188 2046     		mov	r0, r4
 818 018a FFF7FEFF 		bl	lv_fs_read
 819              	.LVL85:
 634:Drivers/lvgl/src/font/lv_font_loader.c ****             return -1;
 820              		.loc 1 634 11 view .LVU267
 821 018e 0028     		cmp	r0, #0
 822 0190 C1D0     		beq	.L82
 823              	.LVL86:
 824              	.L90:
 634:Drivers/lvgl/src/font/lv_font_loader.c ****             return -1;
 825              		.loc 1 634 11 view .LVU268
 826              	.LBE26:
 827              	.LBB27:
 654:Drivers/lvgl/src/font/lv_font_loader.c ****         }
 828              		.loc 1 654 20 view .LVU269
 829 0192 4FF0FF38 		mov	r8, #-1
 830              	.LVL87:
 654:Drivers/lvgl/src/font/lv_font_loader.c ****         }
 831              		.loc 1 654 20 view .LVU270
 832              	.LBE27:
 833              		.loc 1 681 1 view .LVU271
 834 0196 4046     		mov	r0, r8
 835 0198 07B0     		add	sp, sp, #28
 836              		.cfi_remember_state
 837              		.cfi_def_cfa_offset 36
 838              		@ sp needed
 839 019a BDE8F08F 		pop	{r4, r5, r6, r7, r8, r9, r10, fp, pc}
 840              	.LVL88:
 841              	.L93:
 842              		.cfi_restore_state
 843              	.LBB28:
 616:Drivers/lvgl/src/font/lv_font_loader.c ****         }
 844              		.loc 1 616 13 is_stmt 1 view .LVU272
 616:Drivers/lvgl/src/font/lv_font_loader.c ****         }
 845              		.loc 1 616 43 is_stmt 0 view .LVU273
 846 019e 5200     		lsls	r2, r2, #1
 847              	.LVL89:
 616:Drivers/lvgl/src/font/lv_font_loader.c ****         }
 848              		.loc 1 616 43 view .LVU274
 849 01a0 D6E7     		b	.L89
ARM GAS  /var/folders/0z/tsy30v1j4xl4_7kw94k978ww0000gn/T//ccYqTwoW.s 			page 31


 850              	.L95:
 851 01a2 00BF     		.align	2
 852              	.L94:
 853 01a4 00000000 		.word	.LC0
 854              	.LBE28:
 855              		.cfi_endproc
 856              	.LFE214:
 858              		.section	.rodata.lv_font_load.str1.4,"aMS",%progbits,1
 859              		.align	2
 860              	.LC1:
 861 0000 68656164 		.ascii	"head\000"
 861      00
 862 0005 000000   		.align	2
 863              	.LC2:
 864 0008 636D6170 		.ascii	"cmap\000"
 864      00
 865 000d 000000   		.align	2
 866              	.LC3:
 867 0010 676C7966 		.ascii	"glyf\000"
 867      00
 868 0015 000000   		.align	2
 869              	.LC4:
 870 0018 6C6F6361 		.ascii	"loca\000"
 870      00
 871              		.section	.text.lv_font_load,"ax",%progbits
 872              		.align	1
 873              		.p2align 2,,3
 874              		.global	lv_font_load
 875              		.syntax unified
 876              		.thumb
 877              		.thumb_func
 879              	lv_font_load:
 880              	.LVL90:
 881              	.LFB204:
  87:Drivers/lvgl/src/font/lv_font_loader.c ****     lv_fs_file_t file;
 882              		.loc 1 87 1 is_stmt 1 view -0
 883              		.cfi_startproc
 884              		@ args = 0, pretend = 0, frame = 120
 885              		@ frame_needed = 0, uses_anonymous_args = 0
  88:Drivers/lvgl/src/font/lv_font_loader.c ****     lv_fs_res_t res = lv_fs_open(&file, font_name, LV_FS_MODE_RD);
 886              		.loc 1 88 5 view .LVU276
  89:Drivers/lvgl/src/font/lv_font_loader.c ****     if(res != LV_FS_RES_OK)
 887              		.loc 1 89 5 view .LVU277
  87:Drivers/lvgl/src/font/lv_font_loader.c ****     lv_fs_file_t file;
 888              		.loc 1 87 1 is_stmt 0 view .LVU278
 889 0000 2DE9F04F 		push	{r4, r5, r6, r7, r8, r9, r10, fp, lr}
 890              		.cfi_def_cfa_offset 36
 891              		.cfi_offset 4, -36
 892              		.cfi_offset 5, -32
 893              		.cfi_offset 6, -28
 894              		.cfi_offset 7, -24
 895              		.cfi_offset 8, -20
 896              		.cfi_offset 9, -16
 897              		.cfi_offset 10, -12
 898              		.cfi_offset 11, -8
 899              		.cfi_offset 14, -4
 900 0004 9FB0     		sub	sp, sp, #124
ARM GAS  /var/folders/0z/tsy30v1j4xl4_7kw94k978ww0000gn/T//ccYqTwoW.s 			page 32


 901              		.cfi_def_cfa_offset 160
  87:Drivers/lvgl/src/font/lv_font_loader.c ****     lv_fs_file_t file;
 902              		.loc 1 87 1 view .LVU279
 903 0006 0146     		mov	r1, r0
  89:Drivers/lvgl/src/font/lv_font_loader.c ****     if(res != LV_FS_RES_OK)
 904              		.loc 1 89 23 view .LVU280
 905 0008 0222     		movs	r2, #2
 906 000a 11A8     		add	r0, sp, #68
 907              	.LVL91:
  89:Drivers/lvgl/src/font/lv_font_loader.c ****     if(res != LV_FS_RES_OK)
 908              		.loc 1 89 23 view .LVU281
 909 000c FFF7FEFF 		bl	lv_fs_open
 910              	.LVL92:
  90:Drivers/lvgl/src/font/lv_font_loader.c ****         return NULL;
 911              		.loc 1 90 5 is_stmt 1 view .LVU282
  90:Drivers/lvgl/src/font/lv_font_loader.c ****         return NULL;
 912              		.loc 1 90 7 is_stmt 0 view .LVU283
 913 0010 90BB     		cbnz	r0, .L157
  93:Drivers/lvgl/src/font/lv_font_loader.c ****     if(font) {
 914              		.loc 1 93 5 is_stmt 1 view .LVU284
 915 0012 0646     		mov	r6, r0
  93:Drivers/lvgl/src/font/lv_font_loader.c ****     if(font) {
 916              		.loc 1 93 24 is_stmt 0 view .LVU285
 917 0014 1C20     		movs	r0, #28
 918              	.LVL93:
  93:Drivers/lvgl/src/font/lv_font_loader.c ****     if(font) {
 919              		.loc 1 93 24 view .LVU286
 920 0016 FFF7FEFF 		bl	lv_mem_alloc
 921              	.LVL94:
  94:Drivers/lvgl/src/font/lv_font_loader.c ****         memset(font, 0, sizeof(lv_font_t));
 922              		.loc 1 94 5 is_stmt 1 view .LVU287
  94:Drivers/lvgl/src/font/lv_font_loader.c ****         memset(font, 0, sizeof(lv_font_t));
 923              		.loc 1 94 7 is_stmt 0 view .LVU288
 924 001a 0446     		mov	r4, r0
 925 001c 28B3     		cbz	r0, .L98
  95:Drivers/lvgl/src/font/lv_font_loader.c ****         if(!lvgl_load_font(&file, font)) {
 926              		.loc 1 95 9 is_stmt 1 view .LVU289
 927 001e 0660     		str	r6, [r0]	@ unaligned
 928 0020 4660     		str	r6, [r0, #4]	@ unaligned
 929 0022 8660     		str	r6, [r0, #8]	@ unaligned
 930 0024 C660     		str	r6, [r0, #12]	@ unaligned
 931 0026 0661     		str	r6, [r0, #16]	@ unaligned
 932 0028 4661     		str	r6, [r0, #20]	@ unaligned
 933 002a 8661     		str	r6, [r0, #24]	@ unaligned
  96:Drivers/lvgl/src/font/lv_font_loader.c ****             LV_LOG_WARN("Error loading font file: %s\n", font_name);
 934              		.loc 1 96 9 view .LVU290
 935              	.LVL95:
 936              	.LBB60:
 937              	.LBI60:
 483:Drivers/lvgl/src/font/lv_font_loader.c **** {
 938              		.loc 1 483 13 view .LVU291
 939              	.LBB61:
 485:Drivers/lvgl/src/font/lv_font_loader.c ****                                        lv_mem_alloc(sizeof(lv_font_fmt_txt_dsc_t));
 940              		.loc 1 485 5 view .LVU292
 486:Drivers/lvgl/src/font/lv_font_loader.c **** 
 941              		.loc 1 486 40 is_stmt 0 view .LVU293
 942 002c 1820     		movs	r0, #24
ARM GAS  /var/folders/0z/tsy30v1j4xl4_7kw94k978ww0000gn/T//ccYqTwoW.s 			page 33


 943              	.LVL96:
 486:Drivers/lvgl/src/font/lv_font_loader.c **** 
 944              		.loc 1 486 40 view .LVU294
 945 002e FFF7FEFF 		bl	lv_mem_alloc
 946              	.LVL97:
 493:Drivers/lvgl/src/font/lv_font_loader.c ****     if(header_length < 0) {
 947              		.loc 1 493 29 view .LVU295
 948 0032 AC4A     		ldr	r2, .L202
 488:Drivers/lvgl/src/font/lv_font_loader.c **** 
 949              		.loc 1 488 5 view .LVU296
 950 0034 0660     		str	r6, [r0]	@ unaligned
 951 0036 4660     		str	r6, [r0, #4]	@ unaligned
 952 0038 8660     		str	r6, [r0, #8]	@ unaligned
 953 003a C660     		str	r6, [r0, #12]	@ unaligned
 954 003c 0661     		str	r6, [r0, #16]	@ unaligned
 955 003e 4661     		str	r6, [r0, #20]	@ unaligned
 486:Drivers/lvgl/src/font/lv_font_loader.c **** 
 956              		.loc 1 486 40 view .LVU297
 957 0040 0546     		mov	r5, r0
 958              	.LVL98:
 488:Drivers/lvgl/src/font/lv_font_loader.c **** 
 959              		.loc 1 488 5 is_stmt 1 view .LVU298
 490:Drivers/lvgl/src/font/lv_font_loader.c **** 
 960              		.loc 1 490 5 view .LVU299
 490:Drivers/lvgl/src/font/lv_font_loader.c **** 
 961              		.loc 1 490 15 is_stmt 0 view .LVU300
 962 0042 2061     		str	r0, [r4, #16]
 493:Drivers/lvgl/src/font/lv_font_loader.c ****     if(header_length < 0) {
 963              		.loc 1 493 5 is_stmt 1 view .LVU301
 493:Drivers/lvgl/src/font/lv_font_loader.c ****     if(header_length < 0) {
 964              		.loc 1 493 29 is_stmt 0 view .LVU302
 965 0044 3146     		mov	r1, r6
 966 0046 11A8     		add	r0, sp, #68
 967              	.LVL99:
 493:Drivers/lvgl/src/font/lv_font_loader.c ****     if(header_length < 0) {
 968              		.loc 1 493 29 view .LVU303
 969 0048 FFF7FEFF 		bl	read_label
 970              	.LVL100:
 494:Drivers/lvgl/src/font/lv_font_loader.c ****         return false;
 971              		.loc 1 494 5 is_stmt 1 view .LVU304
 494:Drivers/lvgl/src/font/lv_font_loader.c ****         return false;
 972              		.loc 1 494 7 is_stmt 0 view .LVU305
 973 004c B0F10009 		subs	r9, r0, #0
 974 0050 07DB     		blt	.L100
 498:Drivers/lvgl/src/font/lv_font_loader.c ****     if(lv_fs_read(fp, &font_header, sizeof(font_header_bin_t), NULL) != LV_FS_RES_OK) {
 975              		.loc 1 498 5 is_stmt 1 view .LVU306
 499:Drivers/lvgl/src/font/lv_font_loader.c ****         return false;
 976              		.loc 1 499 5 view .LVU307
 499:Drivers/lvgl/src/font/lv_font_loader.c ****         return false;
 977              		.loc 1 499 8 is_stmt 0 view .LVU308
 978 0052 3346     		mov	r3, r6
 979 0054 2822     		movs	r2, #40
 980 0056 14A9     		add	r1, sp, #80
 981 0058 11A8     		add	r0, sp, #68
 982              	.LVL101:
 499:Drivers/lvgl/src/font/lv_font_loader.c ****         return false;
 983              		.loc 1 499 8 view .LVU309
ARM GAS  /var/folders/0z/tsy30v1j4xl4_7kw94k978ww0000gn/T//ccYqTwoW.s 			page 34


 984 005a FFF7FEFF 		bl	lv_fs_read
 985              	.LVL102:
 499:Drivers/lvgl/src/font/lv_font_loader.c ****         return false;
 986              		.loc 1 499 7 view .LVU310
 987 005e 0646     		mov	r6, r0
 988 0060 78B1     		cbz	r0, .L193
 989              	.LVL103:
 990              	.L100:
 499:Drivers/lvgl/src/font/lv_font_loader.c ****         return false;
 991              		.loc 1 499 7 view .LVU311
 992              	.LBE61:
 993              	.LBE60:
  97:Drivers/lvgl/src/font/lv_font_loader.c ****             /*
 994              		.loc 1 97 13 is_stmt 1 view .LVU312
  97:Drivers/lvgl/src/font/lv_font_loader.c ****             /*
 995              		.loc 1 97 13 view .LVU313
  97:Drivers/lvgl/src/font/lv_font_loader.c ****             /*
 996              		.loc 1 97 13 view .LVU314
 103:Drivers/lvgl/src/font/lv_font_loader.c ****             font = NULL;
 997              		.loc 1 103 13 view .LVU315
 998 0062 2046     		mov	r0, r4
 999 0064 FFF7FEFF 		bl	lv_font_free
 1000              	.LVL104:
 104:Drivers/lvgl/src/font/lv_font_loader.c ****         }
 1001              		.loc 1 104 13 view .LVU316
 104:Drivers/lvgl/src/font/lv_font_loader.c ****         }
 1002              		.loc 1 104 18 is_stmt 0 view .LVU317
 1003 0068 0024     		movs	r4, #0
 1004              	.LVL105:
 1005              	.L98:
 108:Drivers/lvgl/src/font/lv_font_loader.c **** 
 1006              		.loc 1 108 5 is_stmt 1 view .LVU318
 1007 006a 11A8     		add	r0, sp, #68
 1008 006c FFF7FEFF 		bl	lv_fs_close
 1009              	.LVL106:
 110:Drivers/lvgl/src/font/lv_font_loader.c **** }
 1010              		.loc 1 110 5 view .LVU319
 111:Drivers/lvgl/src/font/lv_font_loader.c **** 
 1011              		.loc 1 111 1 is_stmt 0 view .LVU320
 1012 0070 2046     		mov	r0, r4
 1013 0072 1FB0     		add	sp, sp, #124
 1014              		.cfi_remember_state
 1015              		.cfi_def_cfa_offset 36
 1016              		@ sp needed
 1017 0074 BDE8F08F 		pop	{r4, r5, r6, r7, r8, r9, r10, fp, pc}
 1018              	.LVL107:
 1019              	.L157:
 1020              		.cfi_restore_state
  91:Drivers/lvgl/src/font/lv_font_loader.c **** 
 1021              		.loc 1 91 16 view .LVU321
 1022 0078 0024     		movs	r4, #0
 111:Drivers/lvgl/src/font/lv_font_loader.c **** 
 1023              		.loc 1 111 1 view .LVU322
 1024 007a 2046     		mov	r0, r4
 1025              	.LVL108:
 111:Drivers/lvgl/src/font/lv_font_loader.c **** 
 1026              		.loc 1 111 1 view .LVU323
ARM GAS  /var/folders/0z/tsy30v1j4xl4_7kw94k978ww0000gn/T//ccYqTwoW.s 			page 35


 1027 007c 1FB0     		add	sp, sp, #124
 1028              		.cfi_remember_state
 1029              		.cfi_def_cfa_offset 36
 1030              		@ sp needed
 1031 007e BDE8F08F 		pop	{r4, r5, r6, r7, r8, r9, r10, fp, pc}
 1032              	.LVL109:
 1033              	.L193:
 1034              		.cfi_restore_state
 1035              	.LBB163:
 1036              	.LBB161:
 503:Drivers/lvgl/src/font/lv_font_loader.c ****     font->line_height = font_header.ascent - font_header.descent;
 1037              		.loc 1 503 5 is_stmt 1 view .LVU324
 503:Drivers/lvgl/src/font/lv_font_loader.c ****     font->line_height = font_header.ascent - font_header.descent;
 1038              		.loc 1 503 35 is_stmt 0 view .LVU325
 1039 0082 BDF85A30 		ldrh	r3, [sp, #90]
 504:Drivers/lvgl/src/font/lv_font_loader.c ****     font->get_glyph_dsc = lv_font_get_glyph_dsc_fmt_txt;
 1040              		.loc 1 504 44 view .LVU326
 1041 0086 BDF85820 		ldrh	r2, [sp, #88]
 1042 008a D21A     		subs	r2, r2, r3
 503:Drivers/lvgl/src/font/lv_font_loader.c ****     font->line_height = font_header.ascent - font_header.descent;
 1043              		.loc 1 503 21 view .LVU327
 1044 008c 5B42     		rsbs	r3, r3, #0
 1045 008e 6381     		strh	r3, [r4, #10]	@ movhi
 504:Drivers/lvgl/src/font/lv_font_loader.c ****     font->get_glyph_dsc = lv_font_get_glyph_dsc_fmt_txt;
 1046              		.loc 1 504 5 is_stmt 1 view .LVU328
 505:Drivers/lvgl/src/font/lv_font_loader.c ****     font->get_glyph_bitmap = lv_font_get_bitmap_fmt_txt;
 1047              		.loc 1 505 5 view .LVU329
 505:Drivers/lvgl/src/font/lv_font_loader.c ****     font->get_glyph_bitmap = lv_font_get_bitmap_fmt_txt;
 1048              		.loc 1 505 25 is_stmt 0 view .LVU330
 1049 0090 954B     		ldr	r3, .L202+4
 1050 0092 2360     		str	r3, [r4]
 506:Drivers/lvgl/src/font/lv_font_loader.c ****     font->subpx = font_header.subpixels_mode;
 1051              		.loc 1 506 5 is_stmt 1 view .LVU331
 506:Drivers/lvgl/src/font/lv_font_loader.c ****     font->subpx = font_header.subpixels_mode;
 1052              		.loc 1 506 28 is_stmt 0 view .LVU332
 1053 0094 954B     		ldr	r3, .L202+8
 1054 0096 6360     		str	r3, [r4, #4]
 507:Drivers/lvgl/src/font/lv_font_loader.c ****     font->underline_position = font_header.underline_position;
 1055              		.loc 1 507 5 is_stmt 1 view .LVU333
 504:Drivers/lvgl/src/font/lv_font_loader.c ****     font->get_glyph_dsc = lv_font_get_glyph_dsc_fmt_txt;
 1056              		.loc 1 504 23 is_stmt 0 view .LVU334
 1057 0098 2281     		strh	r2, [r4, #8]	@ movhi
 507:Drivers/lvgl/src/font/lv_font_loader.c ****     font->underline_position = font_header.underline_position;
 1058              		.loc 1 507 17 view .LVU335
 1059 009a 9DF87220 		ldrb	r2, [sp, #114]	@ zero_extendqisi2
 1060 009e 237B     		ldrb	r3, [r4, #12]	@ zero_extendqisi2
 1061 00a0 62F30103 		bfi	r3, r2, #0, #2
 1062 00a4 2373     		strb	r3, [r4, #12]
 508:Drivers/lvgl/src/font/lv_font_loader.c ****     font->underline_thickness = font_header.underline_thickness;
 1063              		.loc 1 508 5 is_stmt 1 view .LVU336
 508:Drivers/lvgl/src/font/lv_font_loader.c ****     font->underline_thickness = font_header.underline_thickness;
 1064              		.loc 1 508 30 is_stmt 0 view .LVU337
 1065 00a6 BDF87430 		ldrh	r3, [sp, #116]
 1066 00aa 6373     		strb	r3, [r4, #13]
 509:Drivers/lvgl/src/font/lv_font_loader.c **** 
 1067              		.loc 1 509 5 is_stmt 1 view .LVU338
 509:Drivers/lvgl/src/font/lv_font_loader.c **** 
ARM GAS  /var/folders/0z/tsy30v1j4xl4_7kw94k978ww0000gn/T//ccYqTwoW.s 			page 36


 1068              		.loc 1 509 31 is_stmt 0 view .LVU339
 1069 00ac BDF87630 		ldrh	r3, [sp, #118]
 1070 00b0 A373     		strb	r3, [r4, #14]
 511:Drivers/lvgl/src/font/lv_font_loader.c ****     font_dsc->kern_scale = font_header.kerning_scale;
 1071              		.loc 1 511 5 is_stmt 1 view .LVU340
 511:Drivers/lvgl/src/font/lv_font_loader.c ****     font_dsc->kern_scale = font_header.kerning_scale;
 1072              		.loc 1 511 32 is_stmt 0 view .LVU341
 1073 00b2 9DF86D20 		ldrb	r2, [sp, #109]	@ zero_extendqisi2
 512:Drivers/lvgl/src/font/lv_font_loader.c ****     font_dsc->bitmap_format = font_header.compression_id;
 1074              		.loc 1 512 5 is_stmt 1 view .LVU342
 512:Drivers/lvgl/src/font/lv_font_loader.c ****     font_dsc->bitmap_format = font_header.compression_id;
 1075              		.loc 1 512 26 is_stmt 0 view .LVU343
 1076 00b6 BDF86830 		ldrh	r3, [sp, #104]
 1077 00ba 2B82     		strh	r3, [r5, #16]	@ movhi
 513:Drivers/lvgl/src/font/lv_font_loader.c **** 
 1078              		.loc 1 513 5 is_stmt 1 view .LVU344
 511:Drivers/lvgl/src/font/lv_font_loader.c ****     font_dsc->kern_scale = font_header.kerning_scale;
 1079              		.loc 1 511 19 is_stmt 0 view .LVU345
 1080 00bc 9DF87130 		ldrb	r3, [sp, #113]	@ zero_extendqisi2
 1081 00c0 5200     		lsls	r2, r2, #1
 1082 00c2 02F01E02 		and	r2, r2, #30
 1083 00c6 42EA8312 		orr	r2, r2, r3, lsl #6
 1084 00ca EB7C     		ldrb	r3, [r5, #19]	@ zero_extendqisi2
 1085 00cc 03F02103 		and	r3, r3, #33
 1086 00d0 1A43     		orrs	r2, r2, r3
 1087 00d2 EA74     		strb	r2, [r5, #19]
 516:Drivers/lvgl/src/font/lv_font_loader.c ****     int32_t cmaps_length = load_cmaps(fp, font_dsc, cmaps_start);
 1088              		.loc 1 516 5 is_stmt 1 view .LVU346
 1089              	.LVL110:
 517:Drivers/lvgl/src/font/lv_font_loader.c ****     if(cmaps_length < 0) {
 1090              		.loc 1 517 5 view .LVU347
 1091              	.LBB62:
 1092              	.LBI62:
 309:Drivers/lvgl/src/font/lv_font_loader.c **** {
 1093              		.loc 1 309 16 view .LVU348
 1094              	.LBB63:
 311:Drivers/lvgl/src/font/lv_font_loader.c ****     if(cmaps_length < 0) {
 1095              		.loc 1 311 5 view .LVU349
 311:Drivers/lvgl/src/font/lv_font_loader.c ****     if(cmaps_length < 0) {
 1096              		.loc 1 311 28 is_stmt 0 view .LVU350
 1097 00d4 4946     		mov	r1, r9
 1098 00d6 864A     		ldr	r2, .L202+12
 1099 00d8 11A8     		add	r0, sp, #68
 1100              	.LVL111:
 311:Drivers/lvgl/src/font/lv_font_loader.c ****     if(cmaps_length < 0) {
 1101              		.loc 1 311 28 view .LVU351
 1102 00da FFF7FEFF 		bl	read_label
 1103              	.LVL112:
 312:Drivers/lvgl/src/font/lv_font_loader.c ****         return -1;
 1104              		.loc 1 312 5 is_stmt 1 view .LVU352
 312:Drivers/lvgl/src/font/lv_font_loader.c ****         return -1;
 1105              		.loc 1 312 7 is_stmt 0 view .LVU353
 1106 00de B0F1000A 		subs	r10, r0, #0
 1107 00e2 BEDB     		blt	.L100
 316:Drivers/lvgl/src/font/lv_font_loader.c ****     if(lv_fs_read(fp, &cmaps_subtables_count, sizeof(uint32_t), NULL) != LV_FS_RES_OK) {
 1108              		.loc 1 316 5 is_stmt 1 view .LVU354
 317:Drivers/lvgl/src/font/lv_font_loader.c ****         return -1;
ARM GAS  /var/folders/0z/tsy30v1j4xl4_7kw94k978ww0000gn/T//ccYqTwoW.s 			page 37


 1109              		.loc 1 317 5 view .LVU355
 317:Drivers/lvgl/src/font/lv_font_loader.c ****         return -1;
 1110              		.loc 1 317 8 is_stmt 0 view .LVU356
 1111 00e4 3346     		mov	r3, r6
 1112 00e6 0422     		movs	r2, #4
 1113 00e8 0FA9     		add	r1, sp, #60
 1114 00ea 11A8     		add	r0, sp, #68
 1115              	.LVL113:
 317:Drivers/lvgl/src/font/lv_font_loader.c ****         return -1;
 1116              		.loc 1 317 8 view .LVU357
 1117 00ec FFF7FEFF 		bl	lv_fs_read
 1118              	.LVL114:
 317:Drivers/lvgl/src/font/lv_font_loader.c ****         return -1;
 1119              		.loc 1 317 7 view .LVU358
 1120 00f0 0646     		mov	r6, r0
 1121 00f2 0028     		cmp	r0, #0
 1122 00f4 B5D1     		bne	.L100
 321:Drivers/lvgl/src/font/lv_font_loader.c ****         lv_mem_alloc(cmaps_subtables_count * sizeof(lv_font_fmt_txt_cmap_t));
 1123              		.loc 1 321 5 is_stmt 1 view .LVU359
 322:Drivers/lvgl/src/font/lv_font_loader.c **** 
 1124              		.loc 1 322 44 is_stmt 0 view .LVU360
 1125 00f6 0F98     		ldr	r0, [sp, #60]
 1126 00f8 00EB8000 		add	r0, r0, r0, lsl #2
 322:Drivers/lvgl/src/font/lv_font_loader.c **** 
 1127              		.loc 1 322 9 view .LVU361
 1128 00fc 8000     		lsls	r0, r0, #2
 1129 00fe FFF7FEFF 		bl	lv_mem_alloc
 1130              	.LVL115:
 324:Drivers/lvgl/src/font/lv_font_loader.c **** 
 1131              		.loc 1 324 44 view .LVU362
 1132 0102 0F9A     		ldr	r2, [sp, #60]
 1133 0104 02EB8202 		add	r2, r2, r2, lsl #2
 324:Drivers/lvgl/src/font/lv_font_loader.c **** 
 1134              		.loc 1 324 5 view .LVU363
 1135 0108 9200     		lsls	r2, r2, #2
 1136 010a 3146     		mov	r1, r6
 322:Drivers/lvgl/src/font/lv_font_loader.c **** 
 1137              		.loc 1 322 9 view .LVU364
 1138 010c 0746     		mov	r7, r0
 1139              	.LVL116:
 324:Drivers/lvgl/src/font/lv_font_loader.c **** 
 1140              		.loc 1 324 5 is_stmt 1 view .LVU365
 1141 010e FFF7FEFF 		bl	memset
 1142              	.LVL117:
 326:Drivers/lvgl/src/font/lv_font_loader.c ****     font_dsc->cmap_num = cmaps_subtables_count;
 1143              		.loc 1 326 5 view .LVU366
 327:Drivers/lvgl/src/font/lv_font_loader.c **** 
 1144              		.loc 1 327 24 is_stmt 0 view .LVU367
 1145 0112 0F98     		ldr	r0, [sp, #60]
 1146 0114 6B8A     		ldrh	r3, [r5, #18]
 326:Drivers/lvgl/src/font/lv_font_loader.c ****     font_dsc->cmap_num = cmaps_subtables_count;
 1147              		.loc 1 326 21 view .LVU368
 1148 0116 AF60     		str	r7, [r5, #8]
 327:Drivers/lvgl/src/font/lv_font_loader.c **** 
 1149              		.loc 1 327 5 is_stmt 1 view .LVU369
 327:Drivers/lvgl/src/font/lv_font_loader.c **** 
 1150              		.loc 1 327 24 is_stmt 0 view .LVU370
ARM GAS  /var/folders/0z/tsy30v1j4xl4_7kw94k978ww0000gn/T//ccYqTwoW.s 			page 38


 1151 0118 60F30803 		bfi	r3, r0, #0, #9
 329:Drivers/lvgl/src/font/lv_font_loader.c **** 
 1152              		.loc 1 329 39 view .LVU371
 1153 011c C0F30800 		ubfx	r0, r0, #0, #9
 327:Drivers/lvgl/src/font/lv_font_loader.c **** 
 1154              		.loc 1 327 24 view .LVU372
 1155 0120 6B82     		strh	r3, [r5, #18]	@ movhi
 329:Drivers/lvgl/src/font/lv_font_loader.c **** 
 1156              		.loc 1 329 5 is_stmt 1 view .LVU373
 329:Drivers/lvgl/src/font/lv_font_loader.c **** 
 1157              		.loc 1 329 39 is_stmt 0 view .LVU374
 1158 0122 0001     		lsls	r0, r0, #4
 1159 0124 FFF7FEFF 		bl	lv_mem_alloc
 1160              	.LVL118:
 1161              	.LBB64:
 1162              	.LBB65:
 245:Drivers/lvgl/src/font/lv_font_loader.c ****         return false;
 1163              		.loc 1 245 43 view .LVU375
 1164 0128 6A8A     		ldrh	r2, [r5, #18]
 245:Drivers/lvgl/src/font/lv_font_loader.c ****         return false;
 1165              		.loc 1 245 54 view .LVU376
 1166 012a C2F30802 		ubfx	r2, r2, #0, #9
 1167              	.LBE65:
 1168              	.LBE64:
 329:Drivers/lvgl/src/font/lv_font_loader.c **** 
 1169              		.loc 1 329 39 view .LVU377
 1170 012e 8346     		mov	fp, r0
 1171              	.LVL119:
 331:Drivers/lvgl/src/font/lv_font_loader.c **** 
 1172              		.loc 1 331 5 is_stmt 1 view .LVU378
 1173              	.LBB76:
 1174              	.LBI64:
 242:Drivers/lvgl/src/font/lv_font_loader.c ****                               uint32_t cmaps_start, cmap_table_bin_t * cmap_table)
 1175              		.loc 1 242 13 view .LVU379
 1176              	.LBB74:
 245:Drivers/lvgl/src/font/lv_font_loader.c ****         return false;
 1177              		.loc 1 245 5 view .LVU380
 245:Drivers/lvgl/src/font/lv_font_loader.c ****         return false;
 1178              		.loc 1 245 8 is_stmt 0 view .LVU381
 1179 0130 0146     		mov	r1, r0
 1180 0132 3346     		mov	r3, r6
 1181 0134 1201     		lsls	r2, r2, #4
 1182 0136 11A8     		add	r0, sp, #68
 1183              	.LVL120:
 245:Drivers/lvgl/src/font/lv_font_loader.c ****         return false;
 1184              		.loc 1 245 8 view .LVU382
 1185 0138 FFF7FEFF 		bl	lv_fs_read
 1186              	.LVL121:
 245:Drivers/lvgl/src/font/lv_font_loader.c ****         return false;
 1187              		.loc 1 245 7 view .LVU383
 1188 013c 0028     		cmp	r0, #0
 1189 013e 40F09C80 		bne	.L106
 1190              	.LVL122:
 1191              	.LBB66:
 249:Drivers/lvgl/src/font/lv_font_loader.c ****         lv_fs_res_t res = lv_fs_seek(fp, cmaps_start + cmap_table[i].data_offset, LV_FS_SEEK_SET);
 1192              		.loc 1 249 31 is_stmt 1 view .LVU384
 249:Drivers/lvgl/src/font/lv_font_loader.c ****         lv_fs_res_t res = lv_fs_seek(fp, cmaps_start + cmap_table[i].data_offset, LV_FS_SEEK_SET);
ARM GAS  /var/folders/0z/tsy30v1j4xl4_7kw94k978ww0000gn/T//ccYqTwoW.s 			page 39


 1193              		.loc 1 249 41 is_stmt 0 view .LVU385
 1194 0142 6B8A     		ldrh	r3, [r5, #18]
 249:Drivers/lvgl/src/font/lv_font_loader.c ****         lv_fs_res_t res = lv_fs_seek(fp, cmaps_start + cmap_table[i].data_offset, LV_FS_SEEK_SET);
 1195              		.loc 1 249 31 view .LVU386
 1196 0144 C3F30803 		ubfx	r3, r3, #0, #9
 1197 0148 002B     		cmp	r3, #0
 1198 014a 3BD0     		beq	.L105
 249:Drivers/lvgl/src/font/lv_font_loader.c ****         lv_fs_res_t res = lv_fs_seek(fp, cmaps_start + cmap_table[i].data_offset, LV_FS_SEEK_SET);
 1199              		.loc 1 249 22 view .LVU387
 1200 014c 8046     		mov	r8, r0
 1201 014e 5F46     		mov	r7, fp
 1202              	.LVL123:
 1203              	.L114:
 1204              	.LBB67:
 250:Drivers/lvgl/src/font/lv_font_loader.c ****         if(res != LV_FS_RES_OK) {
 1205              		.loc 1 250 9 is_stmt 1 view .LVU388
 250:Drivers/lvgl/src/font/lv_font_loader.c ****         if(res != LV_FS_RES_OK) {
 1206              		.loc 1 250 27 is_stmt 0 view .LVU389
 1207 0150 3968     		ldr	r1, [r7]
 1208 0152 0022     		movs	r2, #0
 1209 0154 4944     		add	r1, r1, r9
 1210 0156 11A8     		add	r0, sp, #68
 1211              	.LVL124:
 250:Drivers/lvgl/src/font/lv_font_loader.c ****         if(res != LV_FS_RES_OK) {
 1212              		.loc 1 250 27 view .LVU390
 1213 0158 FFF7FEFF 		bl	lv_fs_seek
 1214              	.LVL125:
 255:Drivers/lvgl/src/font/lv_font_loader.c **** 
 1215              		.loc 1 255 9 is_stmt 1 view .LVU391
 251:Drivers/lvgl/src/font/lv_font_loader.c ****             return false;
 1216              		.loc 1 251 9 view .LVU392
 255:Drivers/lvgl/src/font/lv_font_loader.c **** 
 1217              		.loc 1 255 34 is_stmt 0 view .LVU393
 1218 015c 08EB8803 		add	r3, r8, r8, lsl #2
 251:Drivers/lvgl/src/font/lv_font_loader.c ****             return false;
 1219              		.loc 1 251 11 view .LVU394
 1220 0160 0028     		cmp	r0, #0
 1221 0162 40F08A80 		bne	.L106
 255:Drivers/lvgl/src/font/lv_font_loader.c **** 
 1222              		.loc 1 255 34 view .LVU395
 1223 0166 AE68     		ldr	r6, [r5, #8]
 257:Drivers/lvgl/src/font/lv_font_loader.c ****         cmap->range_length = cmap_table[i].range_length;
 1224              		.loc 1 257 42 view .LVU396
 1225 0168 7A68     		ldr	r2, [r7, #4]
 257:Drivers/lvgl/src/font/lv_font_loader.c ****         cmap->range_length = cmap_table[i].range_length;
 1226              		.loc 1 257 27 view .LVU397
 1227 016a 46F82320 		str	r2, [r6, r3, lsl #2]
 255:Drivers/lvgl/src/font/lv_font_loader.c **** 
 1228              		.loc 1 255 34 view .LVU398
 1229 016e 06EB8306 		add	r6, r6, r3, lsl #2
 1230              	.LVL126:
 257:Drivers/lvgl/src/font/lv_font_loader.c ****         cmap->range_length = cmap_table[i].range_length;
 1231              		.loc 1 257 9 is_stmt 1 view .LVU399
 258:Drivers/lvgl/src/font/lv_font_loader.c ****         cmap->glyph_id_start = cmap_table[i].glyph_id_start;
 1232              		.loc 1 258 9 view .LVU400
 258:Drivers/lvgl/src/font/lv_font_loader.c ****         cmap->glyph_id_start = cmap_table[i].glyph_id_start;
 1233              		.loc 1 258 43 is_stmt 0 view .LVU401
ARM GAS  /var/folders/0z/tsy30v1j4xl4_7kw94k978ww0000gn/T//ccYqTwoW.s 			page 40


 1234 0172 3B89     		ldrh	r3, [r7, #8]
 258:Drivers/lvgl/src/font/lv_font_loader.c ****         cmap->glyph_id_start = cmap_table[i].glyph_id_start;
 1235              		.loc 1 258 28 view .LVU402
 1236 0174 B380     		strh	r3, [r6, #4]	@ movhi
 259:Drivers/lvgl/src/font/lv_font_loader.c ****         cmap->type = cmap_table[i].format_type;
 1237              		.loc 1 259 9 is_stmt 1 view .LVU403
 259:Drivers/lvgl/src/font/lv_font_loader.c ****         cmap->type = cmap_table[i].format_type;
 1238              		.loc 1 259 45 is_stmt 0 view .LVU404
 1239 0176 7B89     		ldrh	r3, [r7, #10]
 259:Drivers/lvgl/src/font/lv_font_loader.c ****         cmap->type = cmap_table[i].format_type;
 1240              		.loc 1 259 30 view .LVU405
 1241 0178 F380     		strh	r3, [r6, #6]	@ movhi
 260:Drivers/lvgl/src/font/lv_font_loader.c **** 
 1242              		.loc 1 260 9 is_stmt 1 view .LVU406
 260:Drivers/lvgl/src/font/lv_font_loader.c **** 
 1243              		.loc 1 260 35 is_stmt 0 view .LVU407
 1244 017a BB7B     		ldrb	r3, [r7, #14]	@ zero_extendqisi2
 260:Drivers/lvgl/src/font/lv_font_loader.c **** 
 1245              		.loc 1 260 20 view .LVU408
 1246 017c B374     		strb	r3, [r6, #18]
 262:Drivers/lvgl/src/font/lv_font_loader.c ****             case LV_FONT_FMT_TXT_CMAP_FORMAT0_FULL: {
 1247              		.loc 1 262 9 is_stmt 1 view .LVU409
 1248 017e 032B     		cmp	r3, #3
 1249 0180 7BD8     		bhi	.L106
 1250 0182 DFE803F0 		tbb	[pc, r3]
 1251              	.L109:
 1252 0186 5B       		.byte	(.L111-.L109)/2
 1253 0187 02       		.byte	(.L108-.L109)/2
 1254 0188 16       		.byte	(.L110-.L109)/2
 1255 0189 02       		.byte	(.L108-.L109)/2
 1256              		.p2align 1
 1257              	.L108:
 1258              	.LBB68:
 280:Drivers/lvgl/src/font/lv_font_loader.c ****                     uint16_t * unicode_list = (uint16_t *)lv_mem_alloc(list_size);
 1259              		.loc 1 280 21 view .LVU410
 280:Drivers/lvgl/src/font/lv_font_loader.c ****                     uint16_t * unicode_list = (uint16_t *)lv_mem_alloc(list_size);
 1260              		.loc 1 280 74 is_stmt 0 view .LVU411
 1261 018a BA89     		ldrh	r2, [r7, #12]
 280:Drivers/lvgl/src/font/lv_font_loader.c ****                     uint16_t * unicode_list = (uint16_t *)lv_mem_alloc(list_size);
 1262              		.loc 1 280 30 view .LVU412
 1263 018c 5200     		lsls	r2, r2, #1
 1264              	.LVL127:
 281:Drivers/lvgl/src/font/lv_font_loader.c **** 
 1265              		.loc 1 281 21 is_stmt 1 view .LVU413
 281:Drivers/lvgl/src/font/lv_font_loader.c **** 
 1266              		.loc 1 281 59 is_stmt 0 view .LVU414
 1267 018e 1046     		mov	r0, r2
 1268              	.LVL128:
 281:Drivers/lvgl/src/font/lv_font_loader.c **** 
 1269              		.loc 1 281 59 view .LVU415
 1270 0190 0192     		str	r2, [sp, #4]
 1271 0192 FFF7FEFF 		bl	lv_mem_alloc
 1272              	.LVL129:
 284:Drivers/lvgl/src/font/lv_font_loader.c **** 
 1273              		.loc 1 284 54 view .LVU416
 1274 0196 BB89     		ldrh	r3, [r7, #12]
 283:Drivers/lvgl/src/font/lv_font_loader.c ****                     cmap->list_length = cmap_table[i].data_entries_count;
ARM GAS  /var/folders/0z/tsy30v1j4xl4_7kw94k978ww0000gn/T//ccYqTwoW.s 			page 41


 1275              		.loc 1 283 40 view .LVU417
 1276 0198 B060     		str	r0, [r6, #8]
 281:Drivers/lvgl/src/font/lv_font_loader.c **** 
 1277              		.loc 1 281 59 view .LVU418
 1278 019a 0146     		mov	r1, r0
 1279              	.LVL130:
 283:Drivers/lvgl/src/font/lv_font_loader.c ****                     cmap->list_length = cmap_table[i].data_entries_count;
 1280              		.loc 1 283 21 is_stmt 1 view .LVU419
 284:Drivers/lvgl/src/font/lv_font_loader.c **** 
 1281              		.loc 1 284 21 view .LVU420
 284:Drivers/lvgl/src/font/lv_font_loader.c **** 
 1282              		.loc 1 284 39 is_stmt 0 view .LVU421
 1283 019c 3382     		strh	r3, [r6, #16]	@ movhi
 286:Drivers/lvgl/src/font/lv_font_loader.c ****                         return false;
 1284              		.loc 1 286 21 is_stmt 1 view .LVU422
 286:Drivers/lvgl/src/font/lv_font_loader.c ****                         return false;
 1285              		.loc 1 286 24 is_stmt 0 view .LVU423
 1286 019e 019A     		ldr	r2, [sp, #4]
 1287 01a0 0023     		movs	r3, #0
 1288 01a2 11A8     		add	r0, sp, #68
 1289              	.LVL131:
 286:Drivers/lvgl/src/font/lv_font_loader.c ****                         return false;
 1290              		.loc 1 286 24 view .LVU424
 1291 01a4 FFF7FEFF 		bl	lv_fs_read
 1292              	.LVL132:
 290:Drivers/lvgl/src/font/lv_font_loader.c ****                         uint16_t * buf = lv_mem_alloc(sizeof(uint16_t) * cmap->list_length);
 1293              		.loc 1 290 21 is_stmt 1 view .LVU425
 286:Drivers/lvgl/src/font/lv_font_loader.c ****                         return false;
 1294              		.loc 1 286 23 is_stmt 0 view .LVU426
 1295 01a8 0028     		cmp	r0, #0
 1296 01aa 66D1     		bne	.L106
 290:Drivers/lvgl/src/font/lv_font_loader.c ****                         uint16_t * buf = lv_mem_alloc(sizeof(uint16_t) * cmap->list_length);
 1297              		.loc 1 290 23 view .LVU427
 1298 01ac BA7B     		ldrb	r2, [r7, #14]	@ zero_extendqisi2
 1299 01ae 012A     		cmp	r2, #1
 1300 01b0 54D0     		beq	.L194
 1301              	.LVL133:
 1302              	.L110:
 290:Drivers/lvgl/src/font/lv_font_loader.c ****                         uint16_t * buf = lv_mem_alloc(sizeof(uint16_t) * cmap->list_length);
 1303              		.loc 1 290 23 view .LVU428
 1304              	.LBE68:
 1305              	.LBE67:
 249:Drivers/lvgl/src/font/lv_font_loader.c ****         lv_fs_res_t res = lv_fs_seek(fp, cmaps_start + cmap_table[i].data_offset, LV_FS_SEEK_SET);
 1306              		.loc 1 249 53 is_stmt 1 view .LVU429
 249:Drivers/lvgl/src/font/lv_font_loader.c ****         lv_fs_res_t res = lv_fs_seek(fp, cmaps_start + cmap_table[i].data_offset, LV_FS_SEEK_SET);
 1307              		.loc 1 249 41 is_stmt 0 view .LVU430
 1308 01b2 6B8A     		ldrh	r3, [r5, #18]
 249:Drivers/lvgl/src/font/lv_font_loader.c ****         lv_fs_res_t res = lv_fs_seek(fp, cmaps_start + cmap_table[i].data_offset, LV_FS_SEEK_SET);
 1309              		.loc 1 249 53 view .LVU431
 1310 01b4 08F10108 		add	r8, r8, #1
 1311              	.LVL134:
 249:Drivers/lvgl/src/font/lv_font_loader.c ****         lv_fs_res_t res = lv_fs_seek(fp, cmaps_start + cmap_table[i].data_offset, LV_FS_SEEK_SET);
 1312              		.loc 1 249 31 is_stmt 1 view .LVU432
 249:Drivers/lvgl/src/font/lv_font_loader.c ****         lv_fs_res_t res = lv_fs_seek(fp, cmaps_start + cmap_table[i].data_offset, LV_FS_SEEK_SET);
 1313              		.loc 1 249 41 is_stmt 0 view .LVU433
 1314 01b8 C3F30803 		ubfx	r3, r3, #0, #9
 249:Drivers/lvgl/src/font/lv_font_loader.c ****         lv_fs_res_t res = lv_fs_seek(fp, cmaps_start + cmap_table[i].data_offset, LV_FS_SEEK_SET);
ARM GAS  /var/folders/0z/tsy30v1j4xl4_7kw94k978ww0000gn/T//ccYqTwoW.s 			page 42


 1315              		.loc 1 249 31 view .LVU434
 1316 01bc 9845     		cmp	r8, r3
 1317 01be 07F11007 		add	r7, r7, #16
 1318 01c2 C5D3     		bcc	.L114
 1319              	.LVL135:
 1320              	.L105:
 249:Drivers/lvgl/src/font/lv_font_loader.c ****         lv_fs_res_t res = lv_fs_seek(fp, cmaps_start + cmap_table[i].data_offset, LV_FS_SEEK_SET);
 1321              		.loc 1 249 31 view .LVU435
 1322              	.LBE66:
 1323              	.LBE74:
 1324              	.LBE76:
 333:Drivers/lvgl/src/font/lv_font_loader.c **** 
 1325              		.loc 1 333 5 is_stmt 1 view .LVU436
 1326 01c4 5846     		mov	r0, fp
 1327              	.LBE63:
 1328              	.LBE62:
 523:Drivers/lvgl/src/font/lv_font_loader.c ****     int32_t loca_length = read_label(fp, loca_start, "loca");
 1329              		.loc 1 523 14 is_stmt 0 view .LVU437
 1330 01c6 CA44     		add	r10, r10, r9
 1331              	.LVL136:
 1332              	.LBB80:
 1333              	.LBB78:
 333:Drivers/lvgl/src/font/lv_font_loader.c **** 
 1334              		.loc 1 333 5 view .LVU438
 1335 01c8 FFF7FEFF 		bl	lv_mem_free
 1336              	.LVL137:
 335:Drivers/lvgl/src/font/lv_font_loader.c **** }
 1337              		.loc 1 335 5 is_stmt 1 view .LVU439
 335:Drivers/lvgl/src/font/lv_font_loader.c **** }
 1338              		.loc 1 335 5 is_stmt 0 view .LVU440
 1339              	.LBE78:
 1340              	.LBE80:
 518:Drivers/lvgl/src/font/lv_font_loader.c ****         return false;
 1341              		.loc 1 518 5 is_stmt 1 view .LVU441
 523:Drivers/lvgl/src/font/lv_font_loader.c ****     int32_t loca_length = read_label(fp, loca_start, "loca");
 1342              		.loc 1 523 5 view .LVU442
 524:Drivers/lvgl/src/font/lv_font_loader.c ****     if(loca_length < 0) {
 1343              		.loc 1 524 5 view .LVU443
 524:Drivers/lvgl/src/font/lv_font_loader.c ****     if(loca_length < 0) {
 1344              		.loc 1 524 27 is_stmt 0 view .LVU444
 1345 01cc 494A     		ldr	r2, .L202+16
 1346 01ce 5146     		mov	r1, r10
 1347 01d0 11A8     		add	r0, sp, #68
 1348              	.LVL138:
 524:Drivers/lvgl/src/font/lv_font_loader.c ****     if(loca_length < 0) {
 1349              		.loc 1 524 27 view .LVU445
 1350 01d2 FFF7FEFF 		bl	read_label
 1351              	.LVL139:
 525:Drivers/lvgl/src/font/lv_font_loader.c ****         return false;
 1352              		.loc 1 525 5 is_stmt 1 view .LVU446
 525:Drivers/lvgl/src/font/lv_font_loader.c ****         return false;
 1353              		.loc 1 525 7 is_stmt 0 view .LVU447
 1354 01d6 061E     		subs	r6, r0, #0
 1355 01d8 FFF643AF 		blt	.L100
 529:Drivers/lvgl/src/font/lv_font_loader.c ****     if(lv_fs_read(fp, &loca_count, sizeof(uint32_t), NULL) != LV_FS_RES_OK) {
 1356              		.loc 1 529 5 is_stmt 1 view .LVU448
 530:Drivers/lvgl/src/font/lv_font_loader.c ****         return false;
ARM GAS  /var/folders/0z/tsy30v1j4xl4_7kw94k978ww0000gn/T//ccYqTwoW.s 			page 43


 1357              		.loc 1 530 5 view .LVU449
 530:Drivers/lvgl/src/font/lv_font_loader.c ****         return false;
 1358              		.loc 1 530 8 is_stmt 0 view .LVU450
 1359 01dc 0023     		movs	r3, #0
 1360 01de 0422     		movs	r2, #4
 1361 01e0 0EA9     		add	r1, sp, #56
 1362 01e2 11A8     		add	r0, sp, #68
 1363              	.LVL140:
 530:Drivers/lvgl/src/font/lv_font_loader.c ****         return false;
 1364              		.loc 1 530 8 view .LVU451
 1365 01e4 FFF7FEFF 		bl	lv_fs_read
 1366              	.LVL141:
 530:Drivers/lvgl/src/font/lv_font_loader.c ****         return false;
 1367              		.loc 1 530 7 view .LVU452
 1368 01e8 8046     		mov	r8, r0
 1369 01ea 0028     		cmp	r0, #0
 1370 01ec 7FF439AF 		bne	.L100
 534:Drivers/lvgl/src/font/lv_font_loader.c ****     uint32_t * glyph_offset = lv_mem_alloc(sizeof(uint32_t) * (loca_count + 1));
 1371              		.loc 1 534 5 is_stmt 1 view .LVU453
 1372              	.LVL142:
 535:Drivers/lvgl/src/font/lv_font_loader.c **** 
 1373              		.loc 1 535 5 view .LVU454
 535:Drivers/lvgl/src/font/lv_font_loader.c **** 
 1374              		.loc 1 535 75 is_stmt 0 view .LVU455
 1375 01f0 0E98     		ldr	r0, [sp, #56]
 1376 01f2 0130     		adds	r0, r0, #1
 535:Drivers/lvgl/src/font/lv_font_loader.c **** 
 1377              		.loc 1 535 31 view .LVU456
 1378 01f4 8000     		lsls	r0, r0, #2
 1379 01f6 FFF7FEFF 		bl	lv_mem_alloc
 1380              	.LVL143:
 537:Drivers/lvgl/src/font/lv_font_loader.c ****         for(unsigned int i = 0; i < loca_count; ++i) {
 1381              		.loc 1 537 19 view .LVU457
 1382 01fa 9DF86A70 		ldrb	r7, [sp, #106]	@ zero_extendqisi2
 535:Drivers/lvgl/src/font/lv_font_loader.c **** 
 1383              		.loc 1 535 31 view .LVU458
 1384 01fe 0190     		str	r0, [sp, #4]
 1385              	.LVL144:
 537:Drivers/lvgl/src/font/lv_font_loader.c ****         for(unsigned int i = 0; i < loca_count; ++i) {
 1386              		.loc 1 537 5 is_stmt 1 view .LVU459
 537:Drivers/lvgl/src/font/lv_font_loader.c ****         for(unsigned int i = 0; i < loca_count; ++i) {
 1387              		.loc 1 537 7 is_stmt 0 view .LVU460
 1388 0200 002F     		cmp	r7, #0
 1389 0202 3ED1     		bne	.L115
 1390              	.LVL145:
 1391              	.LBB81:
 538:Drivers/lvgl/src/font/lv_font_loader.c ****             uint16_t offset;
 1392              		.loc 1 538 35 is_stmt 1 view .LVU461
 1393 0204 0E9B     		ldr	r3, [sp, #56]
 1394 0206 002B     		cmp	r3, #0
 1395 0208 00F00482 		beq	.L116
 1396 020c A0F10408 		sub	r8, r0, #4
 1397 0210 07E0     		b	.L119
 1398              	.LVL146:
 1399              	.L196:
 1400              	.LBB82:
 544:Drivers/lvgl/src/font/lv_font_loader.c ****         }
ARM GAS  /var/folders/0z/tsy30v1j4xl4_7kw94k978ww0000gn/T//ccYqTwoW.s 			page 44


 1401              		.loc 1 544 29 is_stmt 0 view .LVU462
 1402 0212 BDF83C30 		ldrh	r3, [sp, #60]
 1403 0216 48F8043F 		str	r3, [r8, #4]!
 1404              	.LBE82:
 538:Drivers/lvgl/src/font/lv_font_loader.c ****             uint16_t offset;
 1405              		.loc 1 538 49 is_stmt 1 view .LVU463
 1406              	.LVL147:
 538:Drivers/lvgl/src/font/lv_font_loader.c ****             uint16_t offset;
 1407              		.loc 1 538 35 view .LVU464
 1408 021a 0E9B     		ldr	r3, [sp, #56]
 1409 021c 9F42     		cmp	r7, r3
 1410 021e 80F01B81 		bcs	.L195
 1411              	.LVL148:
 1412              	.L119:
 1413              	.LBB83:
 539:Drivers/lvgl/src/font/lv_font_loader.c ****             if(lv_fs_read(fp, &offset, sizeof(uint16_t), NULL) != LV_FS_RES_OK) {
 1414              		.loc 1 539 13 view .LVU465
 540:Drivers/lvgl/src/font/lv_font_loader.c ****                 failed = true;
 1415              		.loc 1 540 13 view .LVU466
 540:Drivers/lvgl/src/font/lv_font_loader.c ****                 failed = true;
 1416              		.loc 1 540 16 is_stmt 0 view .LVU467
 1417 0222 0023     		movs	r3, #0
 1418 0224 0222     		movs	r2, #2
 1419 0226 0FA9     		add	r1, sp, #60
 1420 0228 11A8     		add	r0, sp, #68
 1421              	.LVL149:
 540:Drivers/lvgl/src/font/lv_font_loader.c ****                 failed = true;
 1422              		.loc 1 540 16 view .LVU468
 1423              	.LBE83:
 538:Drivers/lvgl/src/font/lv_font_loader.c ****             uint16_t offset;
 1424              		.loc 1 538 49 view .LVU469
 1425 022a 0137     		adds	r7, r7, #1
 1426              	.LVL150:
 1427              	.LBB84:
 540:Drivers/lvgl/src/font/lv_font_loader.c ****                 failed = true;
 1428              		.loc 1 540 16 view .LVU470
 1429 022c FFF7FEFF 		bl	lv_fs_read
 1430              	.LVL151:
 544:Drivers/lvgl/src/font/lv_font_loader.c ****         }
 1431              		.loc 1 544 13 is_stmt 1 view .LVU471
 540:Drivers/lvgl/src/font/lv_font_loader.c ****                 failed = true;
 1432              		.loc 1 540 15 is_stmt 0 view .LVU472
 1433 0230 0028     		cmp	r0, #0
 1434 0232 EED0     		beq	.L196
 1435              	.LVL152:
 1436              	.L192:
 540:Drivers/lvgl/src/font/lv_font_loader.c ****                 failed = true;
 1437              		.loc 1 540 15 view .LVU473
 1438              	.LBE84:
 1439              	.LBE81:
 567:Drivers/lvgl/src/font/lv_font_loader.c **** 
 1440              		.loc 1 567 5 is_stmt 1 view .LVU474
 1441 0234 0198     		ldr	r0, [sp, #4]
 1442 0236 FFF7FEFF 		bl	lv_mem_free
 1443              	.LVL153:
 569:Drivers/lvgl/src/font/lv_font_loader.c ****         return false;
 1444              		.loc 1 569 5 view .LVU475
ARM GAS  /var/folders/0z/tsy30v1j4xl4_7kw94k978ww0000gn/T//ccYqTwoW.s 			page 45


 1445 023a 12E7     		b	.L100
 1446              	.LVL154:
 1447              	.L111:
 1448              	.LBB85:
 1449              	.LBB79:
 1450              	.LBB77:
 1451              	.LBB75:
 1452              	.LBB73:
 1453              	.LBB72:
 1454              	.LBB70:
 264:Drivers/lvgl/src/font/lv_font_loader.c ****                     uint8_t * glyph_id_ofs_list = lv_mem_alloc(ids_size);
 1455              		.loc 1 264 21 view .LVU476
 265:Drivers/lvgl/src/font/lv_font_loader.c **** 
 1456              		.loc 1 265 21 view .LVU477
 265:Drivers/lvgl/src/font/lv_font_loader.c **** 
 1457              		.loc 1 265 51 is_stmt 0 view .LVU478
 1458 023c 3A7B     		ldrb	r2, [r7, #12]	@ zero_extendqisi2
 1459 023e 0192     		str	r2, [sp, #4]
 1460 0240 1046     		mov	r0, r2
 1461              	.LVL155:
 265:Drivers/lvgl/src/font/lv_font_loader.c **** 
 1462              		.loc 1 265 51 view .LVU479
 1463 0242 FFF7FEFF 		bl	lv_mem_alloc
 1464              	.LVL156:
 269:Drivers/lvgl/src/font/lv_font_loader.c ****                         return false;
 1465              		.loc 1 269 24 view .LVU480
 1466 0246 019A     		ldr	r2, [sp, #4]
 267:Drivers/lvgl/src/font/lv_font_loader.c **** 
 1467              		.loc 1 267 45 view .LVU481
 1468 0248 F060     		str	r0, [r6, #12]
 265:Drivers/lvgl/src/font/lv_font_loader.c **** 
 1469              		.loc 1 265 51 view .LVU482
 1470 024a 0146     		mov	r1, r0
 1471              	.LVL157:
 267:Drivers/lvgl/src/font/lv_font_loader.c **** 
 1472              		.loc 1 267 21 is_stmt 1 view .LVU483
 269:Drivers/lvgl/src/font/lv_font_loader.c ****                         return false;
 1473              		.loc 1 269 21 view .LVU484
 269:Drivers/lvgl/src/font/lv_font_loader.c ****                         return false;
 1474              		.loc 1 269 24 is_stmt 0 view .LVU485
 1475 024c 0023     		movs	r3, #0
 1476 024e 11A8     		add	r0, sp, #68
 1477              	.LVL158:
 269:Drivers/lvgl/src/font/lv_font_loader.c ****                         return false;
 1478              		.loc 1 269 24 view .LVU486
 1479 0250 FFF7FEFF 		bl	lv_fs_read
 1480              	.LVL159:
 273:Drivers/lvgl/src/font/lv_font_loader.c ****                     break;
 1481              		.loc 1 273 21 is_stmt 1 view .LVU487
 269:Drivers/lvgl/src/font/lv_font_loader.c ****                         return false;
 1482              		.loc 1 269 23 is_stmt 0 view .LVU488
 1483 0254 88B9     		cbnz	r0, .L106
 273:Drivers/lvgl/src/font/lv_font_loader.c ****                     break;
 1484              		.loc 1 273 39 view .LVU489
 1485 0256 B388     		ldrh	r3, [r6, #4]
 1486 0258 3382     		strh	r3, [r6, #16]	@ movhi
 274:Drivers/lvgl/src/font/lv_font_loader.c ****                 }
ARM GAS  /var/folders/0z/tsy30v1j4xl4_7kw94k978ww0000gn/T//ccYqTwoW.s 			page 46


 1487              		.loc 1 274 21 is_stmt 1 view .LVU490
 1488 025a AAE7     		b	.L110
 1489              	.LVL160:
 1490              	.L194:
 274:Drivers/lvgl/src/font/lv_font_loader.c ****                 }
 1491              		.loc 1 274 21 is_stmt 0 view .LVU491
 1492              	.LBE70:
 1493              	.LBB71:
 1494              	.LBB69:
 291:Drivers/lvgl/src/font/lv_font_loader.c **** 
 1495              		.loc 1 291 25 is_stmt 1 view .LVU492
 1496 025c 0190     		str	r0, [sp, #4]
 1497              	.LVL161:
 291:Drivers/lvgl/src/font/lv_font_loader.c **** 
 1498              		.loc 1 291 78 is_stmt 0 view .LVU493
 1499 025e 308A     		ldrh	r0, [r6, #16]
 291:Drivers/lvgl/src/font/lv_font_loader.c **** 
 1500              		.loc 1 291 42 view .LVU494
 1501 0260 4000     		lsls	r0, r0, #1
 1502 0262 FFF7FEFF 		bl	lv_mem_alloc
 1503              	.LVL162:
 295:Drivers/lvgl/src/font/lv_font_loader.c ****                             return false;
 1504              		.loc 1 295 71 view .LVU495
 1505 0266 328A     		ldrh	r2, [r6, #16]
 293:Drivers/lvgl/src/font/lv_font_loader.c **** 
 1506              		.loc 1 293 49 view .LVU496
 1507 0268 F060     		str	r0, [r6, #12]
 291:Drivers/lvgl/src/font/lv_font_loader.c **** 
 1508              		.loc 1 291 42 view .LVU497
 1509 026a 0146     		mov	r1, r0
 1510              	.LVL163:
 293:Drivers/lvgl/src/font/lv_font_loader.c **** 
 1511              		.loc 1 293 25 is_stmt 1 view .LVU498
 295:Drivers/lvgl/src/font/lv_font_loader.c ****                             return false;
 1512              		.loc 1 295 25 view .LVU499
 295:Drivers/lvgl/src/font/lv_font_loader.c ****                             return false;
 1513              		.loc 1 295 28 is_stmt 0 view .LVU500
 1514 026c 019B     		ldr	r3, [sp, #4]
 1515 026e 5200     		lsls	r2, r2, #1
 1516 0270 11A8     		add	r0, sp, #68
 1517              	.LVL164:
 295:Drivers/lvgl/src/font/lv_font_loader.c ****                             return false;
 1518              		.loc 1 295 28 view .LVU501
 1519 0272 FFF7FEFF 		bl	lv_fs_read
 1520              	.LVL165:
 295:Drivers/lvgl/src/font/lv_font_loader.c ****                             return false;
 1521              		.loc 1 295 27 view .LVU502
 1522 0276 0028     		cmp	r0, #0
 1523 0278 9BD0     		beq	.L110
 1524              	.LVL166:
 1525              	.L106:
 295:Drivers/lvgl/src/font/lv_font_loader.c ****                             return false;
 1526              		.loc 1 295 27 view .LVU503
 1527              	.LBE69:
 1528              	.LBE71:
 1529              	.LBE72:
 1530              	.LBE73:
ARM GAS  /var/folders/0z/tsy30v1j4xl4_7kw94k978ww0000gn/T//ccYqTwoW.s 			page 47


 1531              	.LBE75:
 1532              	.LBE77:
 333:Drivers/lvgl/src/font/lv_font_loader.c **** 
 1533              		.loc 1 333 5 is_stmt 1 view .LVU504
 1534 027a 5846     		mov	r0, fp
 1535 027c FFF7FEFF 		bl	lv_mem_free
 1536              	.LVL167:
 335:Drivers/lvgl/src/font/lv_font_loader.c **** }
 1537              		.loc 1 335 5 view .LVU505
 1538 0280 EFE6     		b	.L100
 1539              	.LVL168:
 1540              	.L115:
 335:Drivers/lvgl/src/font/lv_font_loader.c **** }
 1541              		.loc 1 335 5 is_stmt 0 view .LVU506
 1542              	.LBE79:
 1543              	.LBE85:
 547:Drivers/lvgl/src/font/lv_font_loader.c ****         if(lv_fs_read(fp, glyph_offset, loca_count * sizeof(uint32_t), NULL) != LV_FS_RES_OK) {
 1544              		.loc 1 547 10 is_stmt 1 view .LVU507
 547:Drivers/lvgl/src/font/lv_font_loader.c ****         if(lv_fs_read(fp, glyph_offset, loca_count * sizeof(uint32_t), NULL) != LV_FS_RES_OK) {
 1545              		.loc 1 547 12 is_stmt 0 view .LVU508
 1546 0282 012F     		cmp	r7, #1
 1547 0284 D6D1     		bne	.L192
 548:Drivers/lvgl/src/font/lv_font_loader.c ****             failed = true;
 1548              		.loc 1 548 9 is_stmt 1 view .LVU509
 548:Drivers/lvgl/src/font/lv_font_loader.c ****             failed = true;
 1549              		.loc 1 548 12 is_stmt 0 view .LVU510
 1550 0286 0E9A     		ldr	r2, [sp, #56]
 1551 0288 0199     		ldr	r1, [sp, #4]
 1552 028a 4346     		mov	r3, r8
 1553 028c 9200     		lsls	r2, r2, #2
 1554 028e 11A8     		add	r0, sp, #68
 1555              	.LVL169:
 548:Drivers/lvgl/src/font/lv_font_loader.c ****             failed = true;
 1556              		.loc 1 548 12 view .LVU511
 1557 0290 FFF7FEFF 		bl	lv_fs_read
 1558              	.LVL170:
 548:Drivers/lvgl/src/font/lv_font_loader.c ****             failed = true;
 1559              		.loc 1 548 11 view .LVU512
 1560 0294 0028     		cmp	r0, #0
 1561 0296 CDD1     		bne	.L192
 564:Drivers/lvgl/src/font/lv_font_loader.c ****                                fp, font_dsc, glyph_start, glyph_offset, loca_count, &font_header);
 1562              		.loc 1 564 28 view .LVU513
 1563 0298 DDF838B0 		ldr	fp, [sp, #56]
 1564              	.L120:
 1565              	.LVL171:
 563:Drivers/lvgl/src/font/lv_font_loader.c ****     int32_t glyph_length = load_glyph(
 1566              		.loc 1 563 5 is_stmt 1 view .LVU514
 1567              	.LBB86:
 1568              	.LBB87:
 341:Drivers/lvgl/src/font/lv_font_loader.c ****     if(glyph_length < 0) {
 1569              		.loc 1 341 28 is_stmt 0 view .LVU515
 1570 029c 164A     		ldr	r2, .L202+20
 1571              	.LBE87:
 1572              	.LBE86:
 563:Drivers/lvgl/src/font/lv_font_loader.c ****     int32_t glyph_length = load_glyph(
 1573              		.loc 1 563 14 view .LVU516
 1574 029e 06EB0A03 		add	r3, r6, r10
ARM GAS  /var/folders/0z/tsy30v1j4xl4_7kw94k978ww0000gn/T//ccYqTwoW.s 			page 48


 1575              	.LBB152:
 1576              	.LBB144:
 341:Drivers/lvgl/src/font/lv_font_loader.c ****     if(glyph_length < 0) {
 1577              		.loc 1 341 28 view .LVU517
 1578 02a2 1946     		mov	r1, r3
 1579 02a4 11A8     		add	r0, sp, #68
 1580              	.LVL172:
 341:Drivers/lvgl/src/font/lv_font_loader.c ****     if(glyph_length < 0) {
 1581              		.loc 1 341 28 view .LVU518
 1582              	.LBE144:
 1583              	.LBE152:
 563:Drivers/lvgl/src/font/lv_font_loader.c ****     int32_t glyph_length = load_glyph(
 1584              		.loc 1 563 14 view .LVU519
 1585 02a6 0393     		str	r3, [sp, #12]
 1586              	.LVL173:
 564:Drivers/lvgl/src/font/lv_font_loader.c ****                                fp, font_dsc, glyph_start, glyph_offset, loca_count, &font_header);
 1587              		.loc 1 564 5 is_stmt 1 view .LVU520
 1588              	.LBB153:
 1589              	.LBI86:
 338:Drivers/lvgl/src/font/lv_font_loader.c ****                           uint32_t start, uint32_t * glyph_offset, uint32_t loca_count, font_header
 1590              		.loc 1 338 16 view .LVU521
 1591              	.LBB145:
 341:Drivers/lvgl/src/font/lv_font_loader.c ****     if(glyph_length < 0) {
 1592              		.loc 1 341 5 view .LVU522
 341:Drivers/lvgl/src/font/lv_font_loader.c ****     if(glyph_length < 0) {
 1593              		.loc 1 341 28 is_stmt 0 view .LVU523
 1594 02a8 FFF7FEFF 		bl	read_label
 1595              	.LVL174:
 342:Drivers/lvgl/src/font/lv_font_loader.c ****         return -1;
 1596              		.loc 1 342 5 is_stmt 1 view .LVU524
 342:Drivers/lvgl/src/font/lv_font_loader.c ****         return -1;
 1597              		.loc 1 342 7 is_stmt 0 view .LVU525
 1598 02ac 031E     		subs	r3, r0, #0
 1599 02ae 0293     		str	r3, [sp, #8]
 1600 02b0 C0DB     		blt	.L192
 346:Drivers/lvgl/src/font/lv_font_loader.c ****                                               lv_mem_alloc(loca_count * sizeof(lv_font_fmt_txt_glyp
 1601              		.loc 1 346 5 is_stmt 1 view .LVU526
 347:Drivers/lvgl/src/font/lv_font_loader.c **** 
 1602              		.loc 1 347 71 is_stmt 0 view .LVU527
 1603 02b2 4FEACB02 		lsl	r2, fp, #3
 347:Drivers/lvgl/src/font/lv_font_loader.c **** 
 1604              		.loc 1 347 47 view .LVU528
 1605 02b6 1046     		mov	r0, r2
 1606              	.LVL175:
 347:Drivers/lvgl/src/font/lv_font_loader.c **** 
 1607              		.loc 1 347 47 view .LVU529
 1608 02b8 0492     		str	r2, [sp, #16]
 1609 02ba FFF7FEFF 		bl	lv_mem_alloc
 1610              	.LVL176:
 349:Drivers/lvgl/src/font/lv_font_loader.c **** 
 1611              		.loc 1 349 5 view .LVU530
 1612 02be 049A     		ldr	r2, [sp, #16]
 347:Drivers/lvgl/src/font/lv_font_loader.c **** 
 1613              		.loc 1 347 47 view .LVU531
 1614 02c0 0646     		mov	r6, r0
 1615              	.LVL177:
 349:Drivers/lvgl/src/font/lv_font_loader.c **** 
ARM GAS  /var/folders/0z/tsy30v1j4xl4_7kw94k978ww0000gn/T//ccYqTwoW.s 			page 49


 1616              		.loc 1 349 5 is_stmt 1 view .LVU532
 1617 02c2 0021     		movs	r1, #0
 1618 02c4 FFF7FEFF 		bl	memset
 1619              	.LVL178:
 351:Drivers/lvgl/src/font/lv_font_loader.c **** 
 1620              		.loc 1 351 5 view .LVU533
 351:Drivers/lvgl/src/font/lv_font_loader.c **** 
 1621              		.loc 1 351 25 is_stmt 0 view .LVU534
 1622 02c8 6E60     		str	r6, [r5, #4]
 353:Drivers/lvgl/src/font/lv_font_loader.c **** 
 1623              		.loc 1 353 5 is_stmt 1 view .LVU535
 1624              	.LVL179:
 355:Drivers/lvgl/src/font/lv_font_loader.c ****         lv_font_fmt_txt_glyph_dsc_t * gdsc = &glyph_dsc[i];
 1625              		.loc 1 355 5 view .LVU536
 1626              	.LBB88:
 355:Drivers/lvgl/src/font/lv_font_loader.c ****         lv_font_fmt_txt_glyph_dsc_t * gdsc = &glyph_dsc[i];
 1627              		.loc 1 355 9 view .LVU537
 355:Drivers/lvgl/src/font/lv_font_loader.c ****         lv_font_fmt_txt_glyph_dsc_t * gdsc = &glyph_dsc[i];
 1628              		.loc 1 355 31 view .LVU538
 1629 02ca BBF1000F 		cmp	fp, #0
 1630 02ce 00F0B381 		beq	.L123
 1631 02d2 0027     		movs	r7, #0
 1632 02d4 0494     		str	r4, [sp, #16]
 1633 02d6 DDF80480 		ldr	r8, [sp, #4]
 1634 02da 039C     		ldr	r4, [sp, #12]
 1635              	.LVL180:
 355:Drivers/lvgl/src/font/lv_font_loader.c ****         lv_font_fmt_txt_glyph_dsc_t * gdsc = &glyph_dsc[i];
 1636              		.loc 1 355 31 is_stmt 0 view .LVU539
 1637 02dc 0596     		str	r6, [sp, #20]
 1638              	.LBE88:
 353:Drivers/lvgl/src/font/lv_font_loader.c **** 
 1639              		.loc 1 353 9 view .LVU540
 1640 02de B946     		mov	r9, r7
 1641              	.LVL181:
 353:Drivers/lvgl/src/font/lv_font_loader.c **** 
 1642              		.loc 1 353 9 view .LVU541
 1643 02e0 0695     		str	r5, [sp, #24]
 1644 02e2 8CE0     		b	.L135
 1645              	.L203:
 1646              		.align	2
 1647              	.L202:
 1648 02e4 00000000 		.word	.LC1
 1649 02e8 00000000 		.word	lv_font_get_glyph_dsc_fmt_txt
 1650 02ec 00000000 		.word	lv_font_get_bitmap_fmt_txt
 1651 02f0 08000000 		.word	.LC2
 1652 02f4 18000000 		.word	.LC4
 1653 02f8 10000000 		.word	.LC3
 1654              	.LVL182:
 1655              	.L198:
 1656              	.LBB100:
 1657              	.LBB89:
 366:Drivers/lvgl/src/font/lv_font_loader.c ****         }
 1658              		.loc 1 366 13 is_stmt 1 view .LVU542
 366:Drivers/lvgl/src/font/lv_font_loader.c ****         }
 1659              		.loc 1 366 25 is_stmt 0 view .LVU543
 1660 02fc 7388     		ldrh	r3, [r6, #2]
 1661 02fe BDF86620 		ldrh	r2, [sp, #102]
ARM GAS  /var/folders/0z/tsy30v1j4xl4_7kw94k978ww0000gn/T//ccYqTwoW.s 			page 50


 1662 0302 62F30F13 		bfi	r3, r2, #4, #12
 1663 0306 7380     		strh	r3, [r6, #2]	@ movhi
 1664              	.LVL183:
 1665              	.L126:
 375:Drivers/lvgl/src/font/lv_font_loader.c ****             gdsc->adv_w *= 16;
 1666              		.loc 1 375 9 is_stmt 1 view .LVU544
 375:Drivers/lvgl/src/font/lv_font_loader.c ****             gdsc->adv_w *= 16;
 1667              		.loc 1 375 11 is_stmt 0 view .LVU545
 1668 0308 9DF86C30 		ldrb	r3, [sp, #108]	@ zero_extendqisi2
 1669 030c 43B9     		cbnz	r3, .L127
 376:Drivers/lvgl/src/font/lv_font_loader.c ****         }
 1670              		.loc 1 376 13 is_stmt 1 view .LVU546
 376:Drivers/lvgl/src/font/lv_font_loader.c ****         }
 1671              		.loc 1 376 25 is_stmt 0 view .LVU547
 1672 030e 7388     		ldrh	r3, [r6, #2]
 1673 0310 C3F30B12 		ubfx	r2, r3, #4, #12
 1674 0314 1201     		lsls	r2, r2, #4
 1675 0316 C2F30B02 		ubfx	r2, r2, #0, #12
 1676 031a 62F30F13 		bfi	r3, r2, #4, #12
 1677 031e 7380     		strh	r3, [r6, #2]	@ movhi
 1678              	.L127:
 379:Drivers/lvgl/src/font/lv_font_loader.c ****         if(res != LV_FS_RES_OK) {
 1679              		.loc 1 379 9 is_stmt 1 view .LVU548
 379:Drivers/lvgl/src/font/lv_font_loader.c ****         if(res != LV_FS_RES_OK) {
 1680              		.loc 1 379 23 is_stmt 0 view .LVU549
 1681 0320 9DF86E50 		ldrb	r5, [sp, #110]	@ zero_extendqisi2
 1682              	.LVL184:
 1683              	.LBB90:
 1684              	.LBI90:
 216:Drivers/lvgl/src/font/lv_font_loader.c **** {
 1685              		.loc 1 216 12 is_stmt 1 view .LVU550
 1686              	.LBB91:
 218:Drivers/lvgl/src/font/lv_font_loader.c ****     if(value & (1 << (n_bits - 1))) {
 1687              		.loc 1 218 5 view .LVU551
 218:Drivers/lvgl/src/font/lv_font_loader.c ****     if(value & (1 << (n_bits - 1))) {
 1688              		.loc 1 218 26 is_stmt 0 view .LVU552
 1689 0324 0DF13702 		add	r2, sp, #55
 1690              	.LVL185:
 218:Drivers/lvgl/src/font/lv_font_loader.c ****     if(value & (1 << (n_bits - 1))) {
 1691              		.loc 1 218 26 view .LVU553
 1692 0328 2946     		mov	r1, r5
 1693 032a 0FA8     		add	r0, sp, #60
 1694              	.LVL186:
 218:Drivers/lvgl/src/font/lv_font_loader.c ****     if(value & (1 << (n_bits - 1))) {
 1695              		.loc 1 218 26 view .LVU554
 1696 032c FFF7FEFF 		bl	read_bits
 1697              	.LVL187:
 219:Drivers/lvgl/src/font/lv_font_loader.c ****         value |= ~0u << n_bits;
 1698              		.loc 1 219 5 is_stmt 1 view .LVU555
 219:Drivers/lvgl/src/font/lv_font_loader.c ****         value |= ~0u << n_bits;
 1699              		.loc 1 219 30 is_stmt 0 view .LVU556
 1700 0330 6A1E     		subs	r2, r5, #1
 219:Drivers/lvgl/src/font/lv_font_loader.c ****         value |= ~0u << n_bits;
 1701              		.loc 1 219 19 view .LVU557
 1702 0332 0123     		movs	r3, #1
 1703 0334 9340     		lsls	r3, r3, r2
 219:Drivers/lvgl/src/font/lv_font_loader.c ****         value |= ~0u << n_bits;
ARM GAS  /var/folders/0z/tsy30v1j4xl4_7kw94k978ww0000gn/T//ccYqTwoW.s 			page 51


 1704              		.loc 1 219 7 view .LVU558
 1705 0336 0342     		tst	r3, r0
 1706 0338 03D0     		beq	.L128
 220:Drivers/lvgl/src/font/lv_font_loader.c ****     }
 1707              		.loc 1 220 9 is_stmt 1 view .LVU559
 220:Drivers/lvgl/src/font/lv_font_loader.c ****     }
 1708              		.loc 1 220 22 is_stmt 0 view .LVU560
 1709 033a 4FF0FF33 		mov	r3, #-1
 1710 033e AB40     		lsls	r3, r3, r5
 220:Drivers/lvgl/src/font/lv_font_loader.c ****     }
 1711              		.loc 1 220 15 view .LVU561
 1712 0340 1843     		orrs	r0, r0, r3
 1713              	.LVL188:
 1714              	.L128:
 222:Drivers/lvgl/src/font/lv_font_loader.c **** }
 1715              		.loc 1 222 5 is_stmt 1 view .LVU562
 222:Drivers/lvgl/src/font/lv_font_loader.c **** }
 1716              		.loc 1 222 5 is_stmt 0 view .LVU563
 1717              	.LBE91:
 1718              	.LBE90:
 379:Drivers/lvgl/src/font/lv_font_loader.c ****         if(res != LV_FS_RES_OK) {
 1719              		.loc 1 379 21 view .LVU564
 1720 0342 B071     		strb	r0, [r6, #6]
 380:Drivers/lvgl/src/font/lv_font_loader.c ****             return -1;
 1721              		.loc 1 380 9 is_stmt 1 view .LVU565
 380:Drivers/lvgl/src/font/lv_font_loader.c ****             return -1;
 1722              		.loc 1 380 11 is_stmt 0 view .LVU566
 1723 0344 9DF83730 		ldrb	r3, [sp, #55]	@ zero_extendqisi2
 1724 0348 002B     		cmp	r3, #0
 1725 034a 7BD1     		bne	.L189
 384:Drivers/lvgl/src/font/lv_font_loader.c ****         if(res != LV_FS_RES_OK) {
 1726              		.loc 1 384 9 is_stmt 1 view .LVU567
 384:Drivers/lvgl/src/font/lv_font_loader.c ****         if(res != LV_FS_RES_OK) {
 1727              		.loc 1 384 23 is_stmt 0 view .LVU568
 1728 034c 9DF86E50 		ldrb	r5, [sp, #110]	@ zero_extendqisi2
 1729              	.LVL189:
 1730              	.LBB92:
 1731              	.LBI92:
 216:Drivers/lvgl/src/font/lv_font_loader.c **** {
 1732              		.loc 1 216 12 is_stmt 1 view .LVU569
 1733              	.LBB93:
 218:Drivers/lvgl/src/font/lv_font_loader.c ****     if(value & (1 << (n_bits - 1))) {
 1734              		.loc 1 218 5 view .LVU570
 218:Drivers/lvgl/src/font/lv_font_loader.c ****     if(value & (1 << (n_bits - 1))) {
 1735              		.loc 1 218 26 is_stmt 0 view .LVU571
 1736 0350 0DF13702 		add	r2, sp, #55
 1737              	.LVL190:
 218:Drivers/lvgl/src/font/lv_font_loader.c ****     if(value & (1 << (n_bits - 1))) {
 1738              		.loc 1 218 26 view .LVU572
 1739 0354 2946     		mov	r1, r5
 1740 0356 0FA8     		add	r0, sp, #60
 1741              	.LVL191:
 218:Drivers/lvgl/src/font/lv_font_loader.c ****     if(value & (1 << (n_bits - 1))) {
 1742              		.loc 1 218 26 view .LVU573
 1743 0358 FFF7FEFF 		bl	read_bits
 1744              	.LVL192:
 219:Drivers/lvgl/src/font/lv_font_loader.c ****         value |= ~0u << n_bits;
ARM GAS  /var/folders/0z/tsy30v1j4xl4_7kw94k978ww0000gn/T//ccYqTwoW.s 			page 52


 1745              		.loc 1 219 5 is_stmt 1 view .LVU574
 219:Drivers/lvgl/src/font/lv_font_loader.c ****         value |= ~0u << n_bits;
 1746              		.loc 1 219 30 is_stmt 0 view .LVU575
 1747 035c 6A1E     		subs	r2, r5, #1
 219:Drivers/lvgl/src/font/lv_font_loader.c ****         value |= ~0u << n_bits;
 1748              		.loc 1 219 19 view .LVU576
 1749 035e 0123     		movs	r3, #1
 1750 0360 9340     		lsls	r3, r3, r2
 219:Drivers/lvgl/src/font/lv_font_loader.c ****         value |= ~0u << n_bits;
 1751              		.loc 1 219 7 view .LVU577
 1752 0362 0342     		tst	r3, r0
 1753 0364 03D0     		beq	.L129
 220:Drivers/lvgl/src/font/lv_font_loader.c ****     }
 1754              		.loc 1 220 9 is_stmt 1 view .LVU578
 220:Drivers/lvgl/src/font/lv_font_loader.c ****     }
 1755              		.loc 1 220 22 is_stmt 0 view .LVU579
 1756 0366 4FF0FF33 		mov	r3, #-1
 1757 036a AB40     		lsls	r3, r3, r5
 220:Drivers/lvgl/src/font/lv_font_loader.c ****     }
 1758              		.loc 1 220 15 view .LVU580
 1759 036c 1843     		orrs	r0, r0, r3
 1760              	.LVL193:
 1761              	.L129:
 222:Drivers/lvgl/src/font/lv_font_loader.c **** }
 1762              		.loc 1 222 5 is_stmt 1 view .LVU581
 222:Drivers/lvgl/src/font/lv_font_loader.c **** }
 1763              		.loc 1 222 5 is_stmt 0 view .LVU582
 1764              	.LBE93:
 1765              	.LBE92:
 384:Drivers/lvgl/src/font/lv_font_loader.c ****         if(res != LV_FS_RES_OK) {
 1766              		.loc 1 384 21 view .LVU583
 1767 036e F071     		strb	r0, [r6, #7]
 385:Drivers/lvgl/src/font/lv_font_loader.c ****             return -1;
 1768              		.loc 1 385 9 is_stmt 1 view .LVU584
 385:Drivers/lvgl/src/font/lv_font_loader.c ****             return -1;
 1769              		.loc 1 385 11 is_stmt 0 view .LVU585
 1770 0370 9DF83730 		ldrb	r3, [sp, #55]	@ zero_extendqisi2
 1771 0374 002B     		cmp	r3, #0
 1772 0376 65D1     		bne	.L189
 389:Drivers/lvgl/src/font/lv_font_loader.c ****         if(res != LV_FS_RES_OK) {
 1773              		.loc 1 389 9 is_stmt 1 view .LVU586
 389:Drivers/lvgl/src/font/lv_font_loader.c ****         if(res != LV_FS_RES_OK) {
 1774              		.loc 1 389 23 is_stmt 0 view .LVU587
 1775 0378 9DF86F10 		ldrb	r1, [sp, #111]	@ zero_extendqisi2
 1776 037c 0DF13702 		add	r2, sp, #55
 1777 0380 0FA8     		add	r0, sp, #60
 1778 0382 FFF7FEFF 		bl	read_bits
 1779              	.LVL194:
 389:Drivers/lvgl/src/font/lv_font_loader.c ****         if(res != LV_FS_RES_OK) {
 1780              		.loc 1 389 21 view .LVU588
 1781 0386 3071     		strb	r0, [r6, #4]
 390:Drivers/lvgl/src/font/lv_font_loader.c ****             return -1;
 1782              		.loc 1 390 9 is_stmt 1 view .LVU589
 390:Drivers/lvgl/src/font/lv_font_loader.c ****             return -1;
 1783              		.loc 1 390 11 is_stmt 0 view .LVU590
 1784 0388 9DF83730 		ldrb	r3, [sp, #55]	@ zero_extendqisi2
 1785 038c 002B     		cmp	r3, #0
ARM GAS  /var/folders/0z/tsy30v1j4xl4_7kw94k978ww0000gn/T//ccYqTwoW.s 			page 53


 1786 038e 59D1     		bne	.L189
 394:Drivers/lvgl/src/font/lv_font_loader.c ****         if(res != LV_FS_RES_OK) {
 1787              		.loc 1 394 9 is_stmt 1 view .LVU591
 394:Drivers/lvgl/src/font/lv_font_loader.c ****         if(res != LV_FS_RES_OK) {
 1788              		.loc 1 394 23 is_stmt 0 view .LVU592
 1789 0390 9DF86F10 		ldrb	r1, [sp, #111]	@ zero_extendqisi2
 1790 0394 0DF13702 		add	r2, sp, #55
 1791 0398 0FA8     		add	r0, sp, #60
 1792 039a FFF7FEFF 		bl	read_bits
 1793              	.LVL195:
 394:Drivers/lvgl/src/font/lv_font_loader.c ****         if(res != LV_FS_RES_OK) {
 1794              		.loc 1 394 21 view .LVU593
 1795 039e 7071     		strb	r0, [r6, #5]
 395:Drivers/lvgl/src/font/lv_font_loader.c ****             return -1;
 1796              		.loc 1 395 9 is_stmt 1 view .LVU594
 395:Drivers/lvgl/src/font/lv_font_loader.c ****             return -1;
 1797              		.loc 1 395 11 is_stmt 0 view .LVU595
 1798 03a0 9DF83730 		ldrb	r3, [sp, #55]	@ zero_extendqisi2
 1799 03a4 002B     		cmp	r3, #0
 1800 03a6 4DD1     		bne	.L189
 399:Drivers/lvgl/src/font/lv_font_loader.c ****         int next_offset = (i < loca_count - 1) ? glyph_offset[i + 1] : (uint32_t)glyph_length;
 1801              		.loc 1 399 9 is_stmt 1 view .LVU596
 400:Drivers/lvgl/src/font/lv_font_loader.c ****         int bmp_size = next_offset - glyph_offset[i] - nbits / 8;
 1802              		.loc 1 400 43 is_stmt 0 view .LVU597
 1803 03a8 0BF1FF3C 		add	ip, fp, #-1
 400:Drivers/lvgl/src/font/lv_font_loader.c ****         int bmp_size = next_offset - glyph_offset[i] - nbits / 8;
 1804              		.loc 1 400 70 view .LVU598
 1805 03ac BC45     		cmp	ip, r7
 399:Drivers/lvgl/src/font/lv_font_loader.c ****         int next_offset = (i < loca_count - 1) ? glyph_offset[i + 1] : (uint32_t)glyph_length;
 1806              		.loc 1 399 27 view .LVU599
 1807 03ae 9DF870A0 		ldrb	r10, [sp, #112]	@ zero_extendqisi2
 399:Drivers/lvgl/src/font/lv_font_loader.c ****         int next_offset = (i < loca_count - 1) ? glyph_offset[i + 1] : (uint32_t)glyph_length;
 1808              		.loc 1 399 60 view .LVU600
 1809 03b2 9DF86E50 		ldrb	r5, [sp, #110]	@ zero_extendqisi2
 399:Drivers/lvgl/src/font/lv_font_loader.c ****         int next_offset = (i < loca_count - 1) ? glyph_offset[i + 1] : (uint32_t)glyph_length;
 1810              		.loc 1 399 82 view .LVU601
 1811 03b6 9DF86FE0 		ldrb	lr, [sp, #111]	@ zero_extendqisi2
 1812              	.LVL196:
 400:Drivers/lvgl/src/font/lv_font_loader.c ****         int bmp_size = next_offset - glyph_offset[i] - nbits / 8;
 1813              		.loc 1 400 9 is_stmt 1 view .LVU602
 401:Drivers/lvgl/src/font/lv_font_loader.c **** 
 1814              		.loc 1 401 9 view .LVU603
 1815              	.LBE89:
 1816              	.LBE100:
 1817              	.LBE145:
 1818              	.LBE153:
 580:Drivers/lvgl/src/font/lv_font_loader.c **** 
 1819              		.loc 1 580 39 is_stmt 0 view .LVU604
 1820 03ba 94BF     		ite	ls
 1821 03bc 029A     		ldrls	r2, [sp, #8]
 1822              	.LBB154:
 1823              	.LBB146:
 1824              	.LBB101:
 1825              	.LBB98:
 400:Drivers/lvgl/src/font/lv_font_loader.c ****         int bmp_size = next_offset - glyph_offset[i] - nbits / 8;
 1826              		.loc 1 400 62 view .LVU605
 1827 03be D8F80020 		ldrhi	r2, [r8]
ARM GAS  /var/folders/0z/tsy30v1j4xl4_7kw94k978ww0000gn/T//ccYqTwoW.s 			page 54


 401:Drivers/lvgl/src/font/lv_font_loader.c **** 
 1828              		.loc 1 401 50 view .LVU606
 1829 03c2 58F8041C 		ldr	r1, [r8, #-4]
 1830              	.LVL197:
 403:Drivers/lvgl/src/font/lv_font_loader.c ****             gdsc->adv_w = 0;
 1831              		.loc 1 403 9 is_stmt 1 view .LVU607
 1832 03c6 94BF     		ite	ls
 1833 03c8 7B1C     		addls	r3, r7, #1
 1834 03ca 7B1C     		addhi	r3, r7, #1
 403:Drivers/lvgl/src/font/lv_font_loader.c ****             gdsc->adv_w = 0;
 1835              		.loc 1 403 11 is_stmt 0 view .LVU608
 1836 03cc 002F     		cmp	r7, #0
 1837 03ce 3BD0     		beq	.L132
 411:Drivers/lvgl/src/font/lv_font_loader.c ****         if(gdsc->box_w * gdsc->box_h != 0) {
 1838              		.loc 1 411 28 view .LVU609
 1839 03d0 3768     		ldr	r7, [r6]
 1840              	.LVL198:
 411:Drivers/lvgl/src/font/lv_font_loader.c ****         if(gdsc->box_w * gdsc->box_h != 0) {
 1841              		.loc 1 411 28 view .LVU610
 1842 03d2 69F31307 		bfi	r7, r9, #0, #20
 1843              	.LVL199:
 411:Drivers/lvgl/src/font/lv_font_loader.c ****         if(gdsc->box_w * gdsc->box_h != 0) {
 1844              		.loc 1 411 28 view .LVU611
 1845 03d6 3760     		str	r7, [r6]
 412:Drivers/lvgl/src/font/lv_font_loader.c ****             cur_bmp_size += bmp_size;
 1846              		.loc 1 412 16 view .LVU612
 1847 03d8 3779     		ldrb	r7, [r6, #4]	@ zero_extendqisi2
 412:Drivers/lvgl/src/font/lv_font_loader.c ****             cur_bmp_size += bmp_size;
 1848              		.loc 1 412 30 view .LVU613
 1849 03da C0B2     		uxtb	r0, r0
 412:Drivers/lvgl/src/font/lv_font_loader.c ****             cur_bmp_size += bmp_size;
 1850              		.loc 1 412 24 view .LVU614
 1851 03dc 00FB07F7 		mul	r7, r0, r7
 411:Drivers/lvgl/src/font/lv_font_loader.c ****         if(gdsc->box_w * gdsc->box_h != 0) {
 1852              		.loc 1 411 9 is_stmt 1 view .LVU615
 412:Drivers/lvgl/src/font/lv_font_loader.c ****             cur_bmp_size += bmp_size;
 1853              		.loc 1 412 9 view .LVU616
 412:Drivers/lvgl/src/font/lv_font_loader.c ****             cur_bmp_size += bmp_size;
 1854              		.loc 1 412 11 is_stmt 0 view .LVU617
 1855 03e0 47B1     		cbz	r7, .L134
 413:Drivers/lvgl/src/font/lv_font_loader.c ****         }
 1856              		.loc 1 413 13 is_stmt 1 view .LVU618
 399:Drivers/lvgl/src/font/lv_font_loader.c ****         int next_offset = (i < loca_count - 1) ? glyph_offset[i + 1] : (uint32_t)glyph_length;
 1857              		.loc 1 399 48 is_stmt 0 view .LVU619
 1858 03e2 0220     		movs	r0, #2
 1859 03e4 10FB05A5 		smlabb	r5, r0, r5, r10
 1860              	.LVL200:
 399:Drivers/lvgl/src/font/lv_font_loader.c ****         int next_offset = (i < loca_count - 1) ? glyph_offset[i + 1] : (uint32_t)glyph_length;
 1861              		.loc 1 399 13 view .LVU620
 1862 03e8 10FB0E50 		smlabb	r0, r0, lr, r5
 401:Drivers/lvgl/src/font/lv_font_loader.c **** 
 1863              		.loc 1 401 54 view .LVU621
 1864 03ec 01EBD001 		add	r1, r1, r0, lsr #3
 401:Drivers/lvgl/src/font/lv_font_loader.c **** 
 1865              		.loc 1 401 54 view .LVU622
 1866 03f0 521A     		subs	r2, r2, r1
 413:Drivers/lvgl/src/font/lv_font_loader.c ****         }
ARM GAS  /var/folders/0z/tsy30v1j4xl4_7kw94k978ww0000gn/T//ccYqTwoW.s 			page 55


 1867              		.loc 1 413 26 view .LVU623
 1868 03f2 9144     		add	r9, r9, r2
 1869              	.LVL201:
 1870              	.L134:
 413:Drivers/lvgl/src/font/lv_font_loader.c ****         }
 1871              		.loc 1 413 26 view .LVU624
 1872              	.LBE98:
 355:Drivers/lvgl/src/font/lv_font_loader.c ****         lv_font_fmt_txt_glyph_dsc_t * gdsc = &glyph_dsc[i];
 1873              		.loc 1 355 45 is_stmt 1 view .LVU625
 355:Drivers/lvgl/src/font/lv_font_loader.c ****         lv_font_fmt_txt_glyph_dsc_t * gdsc = &glyph_dsc[i];
 1874              		.loc 1 355 31 view .LVU626
 1875 03f4 9B45     		cmp	fp, r3
 1876 03f6 06F10806 		add	r6, r6, #8
 1877              	.LVL202:
 355:Drivers/lvgl/src/font/lv_font_loader.c ****         lv_font_fmt_txt_glyph_dsc_t * gdsc = &glyph_dsc[i];
 1878              		.loc 1 355 31 is_stmt 0 view .LVU627
 1879 03fa 2FD9     		bls	.L197
 1880 03fc 1F46     		mov	r7, r3
 1881              	.LVL203:
 1882              	.L135:
 1883              	.LBB99:
 356:Drivers/lvgl/src/font/lv_font_loader.c **** 
 1884              		.loc 1 356 9 is_stmt 1 view .LVU628
 358:Drivers/lvgl/src/font/lv_font_loader.c ****         if(res != LV_FS_RES_OK) {
 1885              		.loc 1 358 9 view .LVU629
 358:Drivers/lvgl/src/font/lv_font_loader.c ****         if(res != LV_FS_RES_OK) {
 1886              		.loc 1 358 62 is_stmt 0 view .LVU630
 1887 03fe 58F8041B 		ldr	r1, [r8], #4
 358:Drivers/lvgl/src/font/lv_font_loader.c ****         if(res != LV_FS_RES_OK) {
 1888              		.loc 1 358 27 view .LVU631
 1889 0402 0022     		movs	r2, #0
 1890 0404 2144     		add	r1, r1, r4
 1891 0406 11A8     		add	r0, sp, #68
 1892              	.LVL204:
 358:Drivers/lvgl/src/font/lv_font_loader.c ****         if(res != LV_FS_RES_OK) {
 1893              		.loc 1 358 27 view .LVU632
 1894 0408 FFF7FEFF 		bl	lv_fs_seek
 1895              	.LVL205:
 358:Drivers/lvgl/src/font/lv_font_loader.c ****         if(res != LV_FS_RES_OK) {
 1896              		.loc 1 358 21 view .LVU633
 1897 040c 8DF83700 		strb	r0, [sp, #55]
 359:Drivers/lvgl/src/font/lv_font_loader.c ****             return -1;
 1898              		.loc 1 359 9 is_stmt 1 view .LVU634
 359:Drivers/lvgl/src/font/lv_font_loader.c ****             return -1;
 1899              		.loc 1 359 11 is_stmt 0 view .LVU635
 1900 0410 C0B9     		cbnz	r0, .L189
 363:Drivers/lvgl/src/font/lv_font_loader.c **** 
 1901              		.loc 1 363 9 is_stmt 1 view .LVU636
 1902              	.LVL206:
 1903              	.LBB94:
 1904              	.LBI94:
 185:Drivers/lvgl/src/font/lv_font_loader.c **** {
 1905              		.loc 1 185 23 view .LVU637
 1906              	.LBB95:
 187:Drivers/lvgl/src/font/lv_font_loader.c ****     it.fp = fp;
 1907              		.loc 1 187 5 view .LVU638
 188:Drivers/lvgl/src/font/lv_font_loader.c ****     it.bit_pos = -1;
ARM GAS  /var/folders/0z/tsy30v1j4xl4_7kw94k978ww0000gn/T//ccYqTwoW.s 			page 56


 1908              		.loc 1 188 5 view .LVU639
 189:Drivers/lvgl/src/font/lv_font_loader.c ****     it.byte_value = 0;
 1909              		.loc 1 189 5 view .LVU640
 190:Drivers/lvgl/src/font/lv_font_loader.c ****     return it;
 1910              		.loc 1 190 5 view .LVU641
 191:Drivers/lvgl/src/font/lv_font_loader.c **** }
 1911              		.loc 1 191 5 view .LVU642
 191:Drivers/lvgl/src/font/lv_font_loader.c **** }
 1912              		.loc 1 191 12 is_stmt 0 view .LVU643
 1913 0412 11AB     		add	r3, sp, #68
 1914              	.LVL207:
 191:Drivers/lvgl/src/font/lv_font_loader.c **** }
 1915              		.loc 1 191 12 view .LVU644
 1916              	.LBE95:
 1917              	.LBE94:
 365:Drivers/lvgl/src/font/lv_font_loader.c ****             gdsc->adv_w = header->default_advance_width;
 1918              		.loc 1 365 18 view .LVU645
 1919 0414 9DF87010 		ldrb	r1, [sp, #112]	@ zero_extendqisi2
 1920              	.LBB97:
 1921              	.LBB96:
 191:Drivers/lvgl/src/font/lv_font_loader.c **** }
 1922              		.loc 1 191 12 view .LVU646
 1923 0418 0F93     		str	r3, [sp, #60]
 1924 041a 4FF0FF03 		mov	r3, #255	@ movhi
 1925              	.LVL208:
 191:Drivers/lvgl/src/font/lv_font_loader.c **** }
 1926              		.loc 1 191 12 view .LVU647
 1927 041e ADF84030 		strh	r3, [sp, #64]	@ movhi
 1928              	.LVL209:
 191:Drivers/lvgl/src/font/lv_font_loader.c **** }
 1929              		.loc 1 191 12 view .LVU648
 1930              	.LBE96:
 1931              	.LBE97:
 365:Drivers/lvgl/src/font/lv_font_loader.c ****             gdsc->adv_w = header->default_advance_width;
 1932              		.loc 1 365 9 is_stmt 1 view .LVU649
 365:Drivers/lvgl/src/font/lv_font_loader.c ****             gdsc->adv_w = header->default_advance_width;
 1933              		.loc 1 365 11 is_stmt 0 view .LVU650
 1934 0422 0029     		cmp	r1, #0
 1935 0424 3FF46AAF 		beq	.L198
 369:Drivers/lvgl/src/font/lv_font_loader.c ****             if(res != LV_FS_RES_OK) {
 1936              		.loc 1 369 13 is_stmt 1 view .LVU651
 369:Drivers/lvgl/src/font/lv_font_loader.c ****             if(res != LV_FS_RES_OK) {
 1937              		.loc 1 369 27 is_stmt 0 view .LVU652
 1938 0428 0DF13702 		add	r2, sp, #55
 1939 042c 0FA8     		add	r0, sp, #60
 1940              	.LVL210:
 369:Drivers/lvgl/src/font/lv_font_loader.c ****             if(res != LV_FS_RES_OK) {
 1941              		.loc 1 369 27 view .LVU653
 1942 042e FFF7FEFF 		bl	read_bits
 1943              	.LVL211:
 369:Drivers/lvgl/src/font/lv_font_loader.c ****             if(res != LV_FS_RES_OK) {
 1944              		.loc 1 369 25 view .LVU654
 1945 0432 7388     		ldrh	r3, [r6, #2]
 1946 0434 60F30F13 		bfi	r3, r0, #4, #12
 1947 0438 7380     		strh	r3, [r6, #2]	@ movhi
 370:Drivers/lvgl/src/font/lv_font_loader.c ****                 return -1;
 1948              		.loc 1 370 13 is_stmt 1 view .LVU655
ARM GAS  /var/folders/0z/tsy30v1j4xl4_7kw94k978ww0000gn/T//ccYqTwoW.s 			page 57


 370:Drivers/lvgl/src/font/lv_font_loader.c ****                 return -1;
 1949              		.loc 1 370 15 is_stmt 0 view .LVU656
 1950 043a 9DF83730 		ldrb	r3, [sp, #55]	@ zero_extendqisi2
 1951 043e 002B     		cmp	r3, #0
 1952 0440 3FF462AF 		beq	.L126
 1953              	.LVL212:
 1954              	.L189:
 370:Drivers/lvgl/src/font/lv_font_loader.c ****                 return -1;
 1955              		.loc 1 370 15 view .LVU657
 1956 0444 049C     		ldr	r4, [sp, #16]
 1957 0446 F5E6     		b	.L192
 1958              	.LVL213:
 1959              	.L132:
 404:Drivers/lvgl/src/font/lv_font_loader.c ****             gdsc->box_w = 0;
 1960              		.loc 1 404 13 is_stmt 1 view .LVU658
 405:Drivers/lvgl/src/font/lv_font_loader.c ****             gdsc->box_h = 0;
 1961              		.loc 1 405 13 view .LVU659
 411:Drivers/lvgl/src/font/lv_font_loader.c ****         if(gdsc->box_w * gdsc->box_h != 0) {
 1962              		.loc 1 411 28 is_stmt 0 view .LVU660
 1963 0448 C9F31302 		ubfx	r2, r9, #0, #20
 1964              	.LVL214:
 405:Drivers/lvgl/src/font/lv_font_loader.c ****             gdsc->box_h = 0;
 1965              		.loc 1 405 25 view .LVU661
 1966 044c 3771     		strb	r7, [r6, #4]
 406:Drivers/lvgl/src/font/lv_font_loader.c ****             gdsc->ofs_x = 0;
 1967              		.loc 1 406 13 is_stmt 1 view .LVU662
 406:Drivers/lvgl/src/font/lv_font_loader.c ****             gdsc->ofs_x = 0;
 1968              		.loc 1 406 25 is_stmt 0 view .LVU663
 1969 044e 7771     		strb	r7, [r6, #5]
 407:Drivers/lvgl/src/font/lv_font_loader.c ****             gdsc->ofs_y = 0;
 1970              		.loc 1 407 13 is_stmt 1 view .LVU664
 407:Drivers/lvgl/src/font/lv_font_loader.c ****             gdsc->ofs_y = 0;
 1971              		.loc 1 407 25 is_stmt 0 view .LVU665
 1972 0450 B771     		strb	r7, [r6, #6]
 408:Drivers/lvgl/src/font/lv_font_loader.c ****         }
 1973              		.loc 1 408 13 is_stmt 1 view .LVU666
 408:Drivers/lvgl/src/font/lv_font_loader.c ****         }
 1974              		.loc 1 408 25 is_stmt 0 view .LVU667
 1975 0452 F771     		strb	r7, [r6, #7]
 411:Drivers/lvgl/src/font/lv_font_loader.c ****         if(gdsc->box_w * gdsc->box_h != 0) {
 1976              		.loc 1 411 9 is_stmt 1 view .LVU668
 411:Drivers/lvgl/src/font/lv_font_loader.c ****         if(gdsc->box_w * gdsc->box_h != 0) {
 1977              		.loc 1 411 28 is_stmt 0 view .LVU669
 1978 0454 3260     		str	r2, [r6]
 412:Drivers/lvgl/src/font/lv_font_loader.c ****             cur_bmp_size += bmp_size;
 1979              		.loc 1 412 9 is_stmt 1 view .LVU670
 1980 0456 CDE7     		b	.L134
 1981              	.LVL215:
 1982              	.L195:
 412:Drivers/lvgl/src/font/lv_font_loader.c ****             cur_bmp_size += bmp_size;
 1983              		.loc 1 412 9 is_stmt 0 view .LVU671
 1984              	.LBE99:
 1985              	.LBE101:
 1986              	.LBE146:
 1987              	.LBE154:
 1988              	.LBB155:
 1989 0458 9B46     		mov	fp, r3
ARM GAS  /var/folders/0z/tsy30v1j4xl4_7kw94k978ww0000gn/T//ccYqTwoW.s 			page 58


 1990 045a 1FE7     		b	.L120
 1991              	.LVL216:
 1992              	.L197:
 412:Drivers/lvgl/src/font/lv_font_loader.c ****             cur_bmp_size += bmp_size;
 1993              		.loc 1 412 9 view .LVU672
 1994              	.LBE155:
 1995              	.LBB156:
 1996              	.LBB147:
 417:Drivers/lvgl/src/font/lv_font_loader.c **** 
 1997              		.loc 1 417 38 view .LVU673
 1998 045c 4846     		mov	r0, r9
 1999              	.LBB102:
 2000 045e 069D     		ldr	r5, [sp, #24]
 2001 0460 049C     		ldr	r4, [sp, #16]
 2002              	.LBE102:
 417:Drivers/lvgl/src/font/lv_font_loader.c **** 
 2003              		.loc 1 417 5 is_stmt 1 view .LVU674
 2004              	.LBB103:
 2005 0462 CDF824C0 		str	ip, [sp, #36]
 2006              	.LBE103:
 417:Drivers/lvgl/src/font/lv_font_loader.c **** 
 2007              		.loc 1 417 38 is_stmt 0 view .LVU675
 2008 0466 FFF7FEFF 		bl	lv_mem_alloc
 2009              	.LVL217:
 2010              	.LBB104:
 423:Drivers/lvgl/src/font/lv_font_loader.c ****         lv_fs_res_t res = lv_fs_seek(fp, start + glyph_offset[i], LV_FS_SEEK_SET);
 2011              		.loc 1 423 31 view .LVU676
 2012 046a BBF1010F 		cmp	fp, #1
 2013              	.LBE104:
 417:Drivers/lvgl/src/font/lv_font_loader.c **** 
 2014              		.loc 1 417 38 view .LVU677
 2015 046e 0A90     		str	r0, [sp, #40]
 2016              	.LVL218:
 419:Drivers/lvgl/src/font/lv_font_loader.c **** 
 2017              		.loc 1 419 5 is_stmt 1 view .LVU678
 419:Drivers/lvgl/src/font/lv_font_loader.c **** 
 2018              		.loc 1 419 28 is_stmt 0 view .LVU679
 2019 0470 2860     		str	r0, [r5]
 421:Drivers/lvgl/src/font/lv_font_loader.c **** 
 2020              		.loc 1 421 5 is_stmt 1 view .LVU680
 2021              	.LVL219:
 423:Drivers/lvgl/src/font/lv_font_loader.c ****         lv_fs_res_t res = lv_fs_seek(fp, start + glyph_offset[i], LV_FS_SEEK_SET);
 2022              		.loc 1 423 5 view .LVU681
 2023              	.LBB138:
 423:Drivers/lvgl/src/font/lv_font_loader.c ****         lv_fs_res_t res = lv_fs_seek(fp, start + glyph_offset[i], LV_FS_SEEK_SET);
 2024              		.loc 1 423 9 view .LVU682
 423:Drivers/lvgl/src/font/lv_font_loader.c ****         lv_fs_res_t res = lv_fs_seek(fp, start + glyph_offset[i], LV_FS_SEEK_SET);
 2025              		.loc 1 423 31 view .LVU683
 2026 0472 5FD0     		beq	.L138
 423:Drivers/lvgl/src/font/lv_font_loader.c ****         lv_fs_res_t res = lv_fs_seek(fp, start + glyph_offset[i], LV_FS_SEEK_SET);
 2027              		.loc 1 423 31 is_stmt 0 view .LVU684
 2028 0474 019B     		ldr	r3, [sp, #4]
 2029              	.LBB105:
 2030              	.LBB106:
 2031              	.LBB107:
 2032              	.LBB108:
 2033              	.LBB109:
ARM GAS  /var/folders/0z/tsy30v1j4xl4_7kw94k978ww0000gn/T//ccYqTwoW.s 			page 59


 202:Drivers/lvgl/src/font/lv_font_loader.c ****             *res = lv_fs_read(it->fp, &(it->byte_value), 1, NULL);
 2034              		.loc 1 202 25 view .LVU685
 2035 0476 059F     		ldr	r7, [sp, #20]
 2036 0478 CDF820B0 		str	fp, [sp, #32]
 2037              	.LBE109:
 2038              	.LBE108:
 2039              	.LBE107:
 2040              	.LBE106:
 2041              	.LBE105:
 2042              	.LBE138:
 421:Drivers/lvgl/src/font/lv_font_loader.c **** 
 2043              		.loc 1 421 18 view .LVU686
 2044 047c 0022     		movs	r2, #0
 2045 047e 0433     		adds	r3, r3, #4
 2046 0480 0692     		str	r2, [sp, #24]
 2047              	.LBB139:
 423:Drivers/lvgl/src/font/lv_font_loader.c ****         lv_fs_res_t res = lv_fs_seek(fp, start + glyph_offset[i], LV_FS_SEEK_SET);
 2048              		.loc 1 423 22 view .LVU687
 2049 0482 0122     		movs	r2, #1
 2050              	.LBB135:
 2051              	.LBB124:
 2052              	.LBB120:
 2053              	.LBB116:
 2054              	.LBB110:
 202:Drivers/lvgl/src/font/lv_font_loader.c ****             *res = lv_fs_read(it->fp, &(it->byte_value), 1, NULL);
 2055              		.loc 1 202 25 view .LVU688
 2056 0484 4FF0070A 		mov	r10, #7
 202:Drivers/lvgl/src/font/lv_font_loader.c ****             *res = lv_fs_read(it->fp, &(it->byte_value), 1, NULL);
 2057              		.loc 1 202 25 view .LVU689
 2058 0488 0B95     		str	r5, [sp, #44]
 2059 048a 9146     		mov	r9, r2
 2060 048c 9B46     		mov	fp, r3
 2061 048e 0494     		str	r4, [sp, #16]
 2062              	.LVL220:
 2063              	.L151:
 202:Drivers/lvgl/src/font/lv_font_loader.c ****             *res = lv_fs_read(it->fp, &(it->byte_value), 1, NULL);
 2064              		.loc 1 202 25 view .LVU690
 2065              	.LBE110:
 2066              	.LBE116:
 2067              	.LBE120:
 2068              	.LBE124:
 424:Drivers/lvgl/src/font/lv_font_loader.c ****         if(res != LV_FS_RES_OK) {
 2069              		.loc 1 424 9 is_stmt 1 view .LVU691
 424:Drivers/lvgl/src/font/lv_font_loader.c ****         if(res != LV_FS_RES_OK) {
 2070              		.loc 1 424 62 is_stmt 0 view .LVU692
 2071 0490 5BF8041B 		ldr	r1, [fp], #4
 424:Drivers/lvgl/src/font/lv_font_loader.c ****         if(res != LV_FS_RES_OK) {
 2072              		.loc 1 424 27 view .LVU693
 2073 0494 039B     		ldr	r3, [sp, #12]
 2074 0496 0022     		movs	r2, #0
 2075 0498 1944     		add	r1, r1, r3
 2076 049a 11A8     		add	r0, sp, #68
 2077              	.LVL221:
 424:Drivers/lvgl/src/font/lv_font_loader.c ****         if(res != LV_FS_RES_OK) {
 2078              		.loc 1 424 27 view .LVU694
 2079 049c FFF7FEFF 		bl	lv_fs_seek
 2080              	.LVL222:
ARM GAS  /var/folders/0z/tsy30v1j4xl4_7kw94k978ww0000gn/T//ccYqTwoW.s 			page 60


 424:Drivers/lvgl/src/font/lv_font_loader.c ****         if(res != LV_FS_RES_OK) {
 2081              		.loc 1 424 21 view .LVU695
 2082 04a0 8DF83700 		strb	r0, [sp, #55]
 425:Drivers/lvgl/src/font/lv_font_loader.c ****             return -1;
 2083              		.loc 1 425 9 is_stmt 1 view .LVU696
 425:Drivers/lvgl/src/font/lv_font_loader.c ****             return -1;
 2084              		.loc 1 425 11 is_stmt 0 view .LVU697
 2085 04a4 0028     		cmp	r0, #0
 2086 04a6 CDD1     		bne	.L189
 428:Drivers/lvgl/src/font/lv_font_loader.c **** 
 2087              		.loc 1 428 9 is_stmt 1 view .LVU698
 2088              	.LVL223:
 2089              	.LBB125:
 2090              	.LBI125:
 185:Drivers/lvgl/src/font/lv_font_loader.c **** {
 2091              		.loc 1 185 23 view .LVU699
 2092              	.LBB126:
 187:Drivers/lvgl/src/font/lv_font_loader.c ****     it.fp = fp;
 2093              		.loc 1 187 5 view .LVU700
 188:Drivers/lvgl/src/font/lv_font_loader.c ****     it.bit_pos = -1;
 2094              		.loc 1 188 5 view .LVU701
 189:Drivers/lvgl/src/font/lv_font_loader.c ****     it.byte_value = 0;
 2095              		.loc 1 189 5 view .LVU702
 190:Drivers/lvgl/src/font/lv_font_loader.c ****     return it;
 2096              		.loc 1 190 5 view .LVU703
 191:Drivers/lvgl/src/font/lv_font_loader.c **** }
 2097              		.loc 1 191 5 view .LVU704
 191:Drivers/lvgl/src/font/lv_font_loader.c **** }
 2098              		.loc 1 191 12 is_stmt 0 view .LVU705
 2099 04a8 11AB     		add	r3, sp, #68
 2100              	.LVL224:
 191:Drivers/lvgl/src/font/lv_font_loader.c **** }
 2101              		.loc 1 191 12 view .LVU706
 2102              	.LBE126:
 2103              	.LBE125:
 430:Drivers/lvgl/src/font/lv_font_loader.c **** 
 2104              		.loc 1 430 48 view .LVU707
 2105 04aa 9DF87010 		ldrb	r1, [sp, #112]	@ zero_extendqisi2
 2106              	.LBB130:
 2107              	.LBB127:
 191:Drivers/lvgl/src/font/lv_font_loader.c **** }
 2108              		.loc 1 191 12 view .LVU708
 2109 04ae 0F93     		str	r3, [sp, #60]
 2110              	.LBE127:
 2111              	.LBE130:
 430:Drivers/lvgl/src/font/lv_font_loader.c **** 
 2112              		.loc 1 430 48 view .LVU709
 2113 04b0 9DF86E30 		ldrb	r3, [sp, #110]	@ zero_extendqisi2
 2114              	.LVL225:
 430:Drivers/lvgl/src/font/lv_font_loader.c **** 
 2115              		.loc 1 430 13 view .LVU710
 2116 04b4 9DF86F20 		ldrb	r2, [sp, #111]	@ zero_extendqisi2
 430:Drivers/lvgl/src/font/lv_font_loader.c **** 
 2117              		.loc 1 430 48 view .LVU711
 2118 04b8 0224     		movs	r4, #2
 2119 04ba 14FB0313 		smlabb	r3, r4, r3, r1
 430:Drivers/lvgl/src/font/lv_font_loader.c **** 
ARM GAS  /var/folders/0z/tsy30v1j4xl4_7kw94k978ww0000gn/T//ccYqTwoW.s 			page 61


 2120              		.loc 1 430 13 view .LVU712
 2121 04be 14FB0234 		smlabb	r4, r4, r2, r3
 432:Drivers/lvgl/src/font/lv_font_loader.c ****         if(res != LV_FS_RES_OK) {
 2122              		.loc 1 432 9 view .LVU713
 2123 04c2 2146     		mov	r1, r4
 2124              	.LBB131:
 2125              	.LBB128:
 191:Drivers/lvgl/src/font/lv_font_loader.c **** }
 2126              		.loc 1 191 12 view .LVU714
 2127 04c4 FF23     		movs	r3, #255
 2128              	.LBE128:
 2129              	.LBE131:
 432:Drivers/lvgl/src/font/lv_font_loader.c ****         if(res != LV_FS_RES_OK) {
 2130              		.loc 1 432 9 view .LVU715
 2131 04c6 0DF13702 		add	r2, sp, #55
 2132 04ca 0FA8     		add	r0, sp, #60
 2133              	.LVL226:
 2134              	.LBB132:
 2135              	.LBB129:
 191:Drivers/lvgl/src/font/lv_font_loader.c **** }
 2136              		.loc 1 191 12 view .LVU716
 2137 04cc ADF84030 		strh	r3, [sp, #64]	@ movhi
 2138              	.LVL227:
 191:Drivers/lvgl/src/font/lv_font_loader.c **** }
 2139              		.loc 1 191 12 view .LVU717
 2140              	.LBE129:
 2141              	.LBE132:
 430:Drivers/lvgl/src/font/lv_font_loader.c **** 
 2142              		.loc 1 430 9 is_stmt 1 view .LVU718
 432:Drivers/lvgl/src/font/lv_font_loader.c ****         if(res != LV_FS_RES_OK) {
 2143              		.loc 1 432 9 view .LVU719
 2144 04d0 FFF7FEFF 		bl	read_bits
 2145              	.LVL228:
 433:Drivers/lvgl/src/font/lv_font_loader.c ****             return -1;
 2146              		.loc 1 433 9 view .LVU720
 433:Drivers/lvgl/src/font/lv_font_loader.c ****             return -1;
 2147              		.loc 1 433 16 is_stmt 0 view .LVU721
 2148 04d4 9DF83730 		ldrb	r3, [sp, #55]	@ zero_extendqisi2
 433:Drivers/lvgl/src/font/lv_font_loader.c ****             return -1;
 2149              		.loc 1 433 11 view .LVU722
 2150 04d8 002B     		cmp	r3, #0
 2151 04da B3D1     		bne	.L189
 437:Drivers/lvgl/src/font/lv_font_loader.c ****             continue;
 2152              		.loc 1 437 9 is_stmt 1 view .LVU723
 437:Drivers/lvgl/src/font/lv_font_loader.c ****             continue;
 2153              		.loc 1 437 31 is_stmt 0 view .LVU724
 2154 04dc 3B7B     		ldrb	r3, [r7, #12]	@ zero_extendqisi2
 2155 04de 7A7B     		ldrb	r2, [r7, #13]	@ zero_extendqisi2
 2156 04e0 13FB02F3 		smulbb	r3, r3, r2
 437:Drivers/lvgl/src/font/lv_font_loader.c ****             continue;
 2157              		.loc 1 437 11 view .LVU725
 2158 04e4 EBB1     		cbz	r3, .L140
 441:Drivers/lvgl/src/font/lv_font_loader.c ****         int bmp_size = next_offset - glyph_offset[i] - nbits / 8;
 2159              		.loc 1 441 9 is_stmt 1 view .LVU726
 442:Drivers/lvgl/src/font/lv_font_loader.c **** 
 2160              		.loc 1 442 9 view .LVU727
 441:Drivers/lvgl/src/font/lv_font_loader.c ****         int bmp_size = next_offset - glyph_offset[i] - nbits / 8;
ARM GAS  /var/folders/0z/tsy30v1j4xl4_7kw94k978ww0000gn/T//ccYqTwoW.s 			page 62


 2161              		.loc 1 441 70 is_stmt 0 view .LVU728
 2162 04e6 099B     		ldr	r3, [sp, #36]
 2163 04e8 4B45     		cmp	r3, r9
 442:Drivers/lvgl/src/font/lv_font_loader.c **** 
 2164              		.loc 1 442 54 view .LVU729
 2165 04ea 5BF8043C 		ldr	r3, [fp, #-4]
 2166              	.LBE135:
 2167              	.LBE139:
 2168              	.LBE147:
 2169              	.LBE156:
 580:Drivers/lvgl/src/font/lv_font_loader.c **** 
 2170              		.loc 1 580 39 view .LVU730
 2171 04ee 94BF     		ite	ls
 2172 04f0 029A     		ldrls	r2, [sp, #8]
 2173              	.LBB157:
 2174              	.LBB148:
 2175              	.LBB140:
 2176              	.LBB136:
 441:Drivers/lvgl/src/font/lv_font_loader.c ****         int bmp_size = next_offset - glyph_offset[i] - nbits / 8;
 2177              		.loc 1 441 62 view .LVU731
 2178 04f2 DBF80020 		ldrhi	r2, [fp]
 442:Drivers/lvgl/src/font/lv_font_loader.c **** 
 2179              		.loc 1 442 54 view .LVU732
 2180 04f6 03EBD403 		add	r3, r3, r4, lsr #3
 2181 04fa D31A     		subs	r3, r2, r3
 444:Drivers/lvgl/src/font/lv_font_loader.c ****             if(lv_fs_read(fp, &glyph_bmp[cur_bmp_size], bmp_size, NULL) != LV_FS_RES_OK) {
 2182              		.loc 1 444 11 view .LVU733
 2183 04fc 14F00702 		ands	r2, r4, #7
 442:Drivers/lvgl/src/font/lv_font_loader.c **** 
 2184              		.loc 1 442 54 view .LVU734
 2185 0500 0593     		str	r3, [sp, #20]
 2186              	.LVL229:
 444:Drivers/lvgl/src/font/lv_font_loader.c ****             if(lv_fs_read(fp, &glyph_bmp[cur_bmp_size], bmp_size, NULL) != LV_FS_RES_OK) {
 2187              		.loc 1 444 9 is_stmt 1 view .LVU735
 444:Drivers/lvgl/src/font/lv_font_loader.c ****             if(lv_fs_read(fp, &glyph_bmp[cur_bmp_size], bmp_size, NULL) != LV_FS_RES_OK) {
 2188              		.loc 1 444 11 is_stmt 0 view .LVU736
 2189 0502 0792     		str	r2, [sp, #28]
 2190 0504 31D1     		bne	.L199
 445:Drivers/lvgl/src/font/lv_font_loader.c ****                 return -1;
 2191              		.loc 1 445 13 is_stmt 1 view .LVU737
 445:Drivers/lvgl/src/font/lv_font_loader.c ****                 return -1;
 2192              		.loc 1 445 16 is_stmt 0 view .LVU738
 2193 0506 059D     		ldr	r5, [sp, #20]
 2194 0508 0A99     		ldr	r1, [sp, #40]
 2195 050a 069C     		ldr	r4, [sp, #24]
 2196              	.LVL230:
 445:Drivers/lvgl/src/font/lv_font_loader.c ****                 return -1;
 2197              		.loc 1 445 16 view .LVU739
 2198 050c 079B     		ldr	r3, [sp, #28]
 2199              	.LVL231:
 445:Drivers/lvgl/src/font/lv_font_loader.c ****                 return -1;
 2200              		.loc 1 445 16 view .LVU740
 2201 050e 2A46     		mov	r2, r5
 2202 0510 2144     		add	r1, r1, r4
 2203 0512 11A8     		add	r0, sp, #68
 2204              	.LVL232:
 445:Drivers/lvgl/src/font/lv_font_loader.c ****                 return -1;
ARM GAS  /var/folders/0z/tsy30v1j4xl4_7kw94k978ww0000gn/T//ccYqTwoW.s 			page 63


 2205              		.loc 1 445 16 view .LVU741
 2206 0514 FFF7FEFF 		bl	lv_fs_read
 2207              	.LVL233:
 445:Drivers/lvgl/src/font/lv_font_loader.c ****                 return -1;
 2208              		.loc 1 445 15 view .LVU742
 2209 0518 0028     		cmp	r0, #0
 2210 051a 93D1     		bne	.L189
 2211 051c 2B46     		mov	r3, r5
 2212 051e 2344     		add	r3, r3, r4
 2213              	.LVL234:
 2214              	.L146:
 466:Drivers/lvgl/src/font/lv_font_loader.c ****     }
 2215              		.loc 1 466 9 is_stmt 1 view .LVU743
 466:Drivers/lvgl/src/font/lv_font_loader.c ****     }
 2216              		.loc 1 466 22 is_stmt 0 view .LVU744
 2217 0520 0693     		str	r3, [sp, #24]
 2218              	.LVL235:
 2219              	.L140:
 466:Drivers/lvgl/src/font/lv_font_loader.c ****     }
 2220              		.loc 1 466 22 view .LVU745
 2221              	.LBE136:
 423:Drivers/lvgl/src/font/lv_font_loader.c ****         lv_fs_res_t res = lv_fs_seek(fp, start + glyph_offset[i], LV_FS_SEEK_SET);
 2222              		.loc 1 423 45 is_stmt 1 view .LVU746
 423:Drivers/lvgl/src/font/lv_font_loader.c ****         lv_fs_res_t res = lv_fs_seek(fp, start + glyph_offset[i], LV_FS_SEEK_SET);
 2223              		.loc 1 423 31 is_stmt 0 view .LVU747
 2224 0522 089B     		ldr	r3, [sp, #32]
 423:Drivers/lvgl/src/font/lv_font_loader.c ****         lv_fs_res_t res = lv_fs_seek(fp, start + glyph_offset[i], LV_FS_SEEK_SET);
 2225              		.loc 1 423 45 view .LVU748
 2226 0524 09F10109 		add	r9, r9, #1
 2227              	.LVL236:
 423:Drivers/lvgl/src/font/lv_font_loader.c ****         lv_fs_res_t res = lv_fs_seek(fp, start + glyph_offset[i], LV_FS_SEEK_SET);
 2228              		.loc 1 423 31 is_stmt 1 view .LVU749
 2229 0528 4B45     		cmp	r3, r9
 2230 052a 07F10807 		add	r7, r7, #8
 2231 052e AFD1     		bne	.L151
 2232 0530 0B9D     		ldr	r5, [sp, #44]
 2233 0532 049C     		ldr	r4, [sp, #16]
 2234              	.LVL237:
 2235              	.L138:
 423:Drivers/lvgl/src/font/lv_font_loader.c ****         lv_fs_res_t res = lv_fs_seek(fp, start + glyph_offset[i], LV_FS_SEEK_SET);
 2236              		.loc 1 423 31 is_stmt 0 view .LVU750
 2237              	.LBE140:
 2238              	.LBE148:
 2239              	.LBE157:
 567:Drivers/lvgl/src/font/lv_font_loader.c **** 
 2240              		.loc 1 567 5 is_stmt 1 view .LVU751
 2241 0534 0198     		ldr	r0, [sp, #4]
 2242 0536 FFF7FEFF 		bl	lv_mem_free
 2243              	.LVL238:
 569:Drivers/lvgl/src/font/lv_font_loader.c ****         return false;
 2244              		.loc 1 569 5 view .LVU752
 573:Drivers/lvgl/src/font/lv_font_loader.c ****         font_dsc->kern_dsc = NULL;
 2245              		.loc 1 573 5 view .LVU753
 573:Drivers/lvgl/src/font/lv_font_loader.c ****         font_dsc->kern_dsc = NULL;
 2246              		.loc 1 573 7 is_stmt 0 view .LVU754
 2247 053a BDF85430 		ldrh	r3, [sp, #84]
 2248 053e 032B     		cmp	r3, #3
ARM GAS  /var/folders/0z/tsy30v1j4xl4_7kw94k978ww0000gn/T//ccYqTwoW.s 			page 64


 2249 0540 06D8     		bhi	.L153
 574:Drivers/lvgl/src/font/lv_font_loader.c ****         font_dsc->kern_classes = 0;
 2250              		.loc 1 574 9 is_stmt 1 view .LVU755
 575:Drivers/lvgl/src/font/lv_font_loader.c ****         font_dsc->kern_scale = 0;
 2251              		.loc 1 575 9 view .LVU756
 576:Drivers/lvgl/src/font/lv_font_loader.c ****         return true;
 2252              		.loc 1 576 9 view .LVU757
 576:Drivers/lvgl/src/font/lv_font_loader.c ****         return true;
 2253              		.loc 1 576 30 is_stmt 0 view .LVU758
 2254 0542 2969     		ldr	r1, [r5, #16]
 2255 0544 3F4B     		ldr	r3, .L204
 574:Drivers/lvgl/src/font/lv_font_loader.c ****         font_dsc->kern_classes = 0;
 2256              		.loc 1 574 28 view .LVU759
 2257 0546 0022     		movs	r2, #0
 576:Drivers/lvgl/src/font/lv_font_loader.c ****         return true;
 2258              		.loc 1 576 30 view .LVU760
 2259 0548 0B40     		ands	r3, r3, r1
 2260 054a C5E90323 		strd	r2, r3, [r5, #12]
 577:Drivers/lvgl/src/font/lv_font_loader.c ****     }
 2261              		.loc 1 577 9 is_stmt 1 view .LVU761
 2262              	.LVL239:
 577:Drivers/lvgl/src/font/lv_font_loader.c ****     }
 2263              		.loc 1 577 9 is_stmt 0 view .LVU762
 2264 054e 8CE5     		b	.L98
 2265              	.LVL240:
 2266              	.L153:
 580:Drivers/lvgl/src/font/lv_font_loader.c **** 
 2267              		.loc 1 580 5 is_stmt 1 view .LVU763
 582:Drivers/lvgl/src/font/lv_font_loader.c **** 
 2268              		.loc 1 582 5 view .LVU764
 582:Drivers/lvgl/src/font/lv_font_loader.c **** 
 2269              		.loc 1 582 27 is_stmt 0 view .LVU765
 2270 0550 DDE90232 		ldrd	r3, r2, [sp, #8]
 2271 0554 2946     		mov	r1, r5
 2272 0556 1344     		add	r3, r3, r2
 2273              	.LVL241:
 582:Drivers/lvgl/src/font/lv_font_loader.c **** 
 2274              		.loc 1 582 27 view .LVU766
 2275 0558 11A8     		add	r0, sp, #68
 2276              	.LVL242:
 582:Drivers/lvgl/src/font/lv_font_loader.c **** 
 2277              		.loc 1 582 27 view .LVU767
 2278 055a 9DF86B20 		ldrb	r2, [sp, #107]	@ zero_extendqisi2
 2279 055e FFF7FEFF 		bl	load_kern
 2280              	.LVL243:
 584:Drivers/lvgl/src/font/lv_font_loader.c **** }
 2281              		.loc 1 584 5 is_stmt 1 view .LVU768
 584:Drivers/lvgl/src/font/lv_font_loader.c **** }
 2282              		.loc 1 584 5 is_stmt 0 view .LVU769
 2283              	.LBE161:
 2284              	.LBE163:
  96:Drivers/lvgl/src/font/lv_font_loader.c ****             LV_LOG_WARN("Error loading font file: %s\n", font_name);
 2285              		.loc 1 96 11 view .LVU770
 2286 0562 0028     		cmp	r0, #0
 2287 0564 BFF681AD 		bge	.L98
 2288 0568 7BE5     		b	.L100
 2289              	.LVL244:
ARM GAS  /var/folders/0z/tsy30v1j4xl4_7kw94k978ww0000gn/T//ccYqTwoW.s 			page 65


 2290              	.L199:
 2291              	.LBB164:
 2292              	.LBB162:
 2293              	.LBB158:
 2294              	.LBB149:
 2295              	.LBB141:
 2296              	.LBB137:
 2297              	.LBB133:
 450:Drivers/lvgl/src/font/lv_font_loader.c ****                 glyph_bmp[cur_bmp_size + k] = read_bits(&bit_it, 8, &res);
 2298              		.loc 1 450 30 is_stmt 1 view .LVU771
 2299 056a 012B     		cmp	r3, #1
 2300 056c 3ADD     		ble	.L144
 2301 056e 0A9A     		ldr	r2, [sp, #40]
 2302 0570 0699     		ldr	r1, [sp, #24]
 2303 0572 A2F10208 		sub	r8, r2, #2
 2304 0576 8844     		add	r8, r8, r1
 2305 0578 4E1E     		subs	r6, r1, #1
 2306 057a 9844     		add	r8, r8, r3
 2307 057c 1644     		add	r6, r6, r2
 2308              	.LVL245:
 2309              	.L145:
 2310              	.LBB121:
 2311              	.LBB117:
 197:Drivers/lvgl/src/font/lv_font_loader.c ****         it->byte_value = it->byte_value << 1;
 2312              		.loc 1 197 11 view .LVU772
 2313              	.LBB111:
 198:Drivers/lvgl/src/font/lv_font_loader.c ****         it->bit_pos--;
 2314              		.loc 1 198 28 is_stmt 0 view .LVU773
 2315 057e 9DF84120 		ldrb	r2, [sp, #65]	@ zero_extendqisi2
 2316              	.LBE111:
 196:Drivers/lvgl/src/font/lv_font_loader.c ****     while(n_bits--) {
 2317              		.loc 1 196 18 view .LVU774
 2318 0582 0025     		movs	r5, #0
 197:Drivers/lvgl/src/font/lv_font_loader.c ****         it->byte_value = it->byte_value << 1;
 2319              		.loc 1 197 17 view .LVU775
 2320 0584 0724     		movs	r4, #7
 2321 0586 07E0     		b	.L150
 2322              	.LVL246:
 2323              	.L201:
 2324              	.LBB112:
 199:Drivers/lvgl/src/font/lv_font_loader.c **** 
 2325              		.loc 1 199 20 view .LVU776
 2326 0588 8DF84030 		strb	r3, [sp, #64]
 2327              	.L148:
 208:Drivers/lvgl/src/font/lv_font_loader.c **** 
 2328              		.loc 1 208 9 is_stmt 1 view .LVU777
 2329              	.LVL247:
 210:Drivers/lvgl/src/font/lv_font_loader.c ****     }
 2330              		.loc 1 210 9 view .LVU778
 210:Drivers/lvgl/src/font/lv_font_loader.c ****     }
 2331              		.loc 1 210 23 is_stmt 0 view .LVU779
 2332 058c D309     		lsrs	r3, r2, #7
 2333 058e A340     		lsls	r3, r3, r4
 2334              	.LBE112:
 197:Drivers/lvgl/src/font/lv_font_loader.c ****         it->byte_value = it->byte_value << 1;
 2335              		.loc 1 197 17 view .LVU780
 2336 0590 013C     		subs	r4, r4, #1
ARM GAS  /var/folders/0z/tsy30v1j4xl4_7kw94k978ww0000gn/T//ccYqTwoW.s 			page 66


 2337              	.LVL248:
 2338              	.LBB113:
 210:Drivers/lvgl/src/font/lv_font_loader.c ****     }
 2339              		.loc 1 210 15 view .LVU781
 2340 0592 1D43     		orrs	r5, r5, r3
 2341              	.LVL249:
 210:Drivers/lvgl/src/font/lv_font_loader.c ****     }
 2342              		.loc 1 210 15 view .LVU782
 2343              	.LBE113:
 197:Drivers/lvgl/src/font/lv_font_loader.c ****         it->byte_value = it->byte_value << 1;
 2344              		.loc 1 197 11 is_stmt 1 view .LVU783
 197:Drivers/lvgl/src/font/lv_font_loader.c ****         it->byte_value = it->byte_value << 1;
 2345              		.loc 1 197 11 is_stmt 0 view .LVU784
 2346 0594 631C     		adds	r3, r4, #1
 2347 0596 18D0     		beq	.L200
 2348              	.LVL250:
 2349              	.L150:
 2350              	.LBB114:
 198:Drivers/lvgl/src/font/lv_font_loader.c ****         it->bit_pos--;
 2351              		.loc 1 198 9 is_stmt 1 view .LVU785
 199:Drivers/lvgl/src/font/lv_font_loader.c **** 
 2352              		.loc 1 199 20 is_stmt 0 view .LVU786
 2353 0598 9DF84030 		ldrb	r3, [sp, #64]	@ zero_extendqisi2
 2354 059c 013B     		subs	r3, r3, #1
 198:Drivers/lvgl/src/font/lv_font_loader.c ****         it->bit_pos--;
 2355              		.loc 1 198 41 view .LVU787
 2356 059e 5200     		lsls	r2, r2, #1
 199:Drivers/lvgl/src/font/lv_font_loader.c **** 
 2357              		.loc 1 199 20 view .LVU788
 2358 05a0 5BB2     		sxtb	r3, r3
 198:Drivers/lvgl/src/font/lv_font_loader.c ****         it->bit_pos--;
 2359              		.loc 1 198 41 view .LVU789
 2360 05a2 D2B2     		uxtb	r2, r2
 201:Drivers/lvgl/src/font/lv_font_loader.c ****             it->bit_pos = 7;
 2361              		.loc 1 201 11 view .LVU790
 2362 05a4 002B     		cmp	r3, #0
 198:Drivers/lvgl/src/font/lv_font_loader.c ****         it->bit_pos--;
 2363              		.loc 1 198 24 view .LVU791
 2364 05a6 8DF84120 		strb	r2, [sp, #65]
 199:Drivers/lvgl/src/font/lv_font_loader.c **** 
 2365              		.loc 1 199 9 is_stmt 1 view .LVU792
 201:Drivers/lvgl/src/font/lv_font_loader.c ****             it->bit_pos = 7;
 2366              		.loc 1 201 9 view .LVU793
 201:Drivers/lvgl/src/font/lv_font_loader.c ****             it->bit_pos = 7;
 2367              		.loc 1 201 11 is_stmt 0 view .LVU794
 2368 05aa EDDA     		bge	.L201
 202:Drivers/lvgl/src/font/lv_font_loader.c ****             *res = lv_fs_read(it->fp, &(it->byte_value), 1, NULL);
 2369              		.loc 1 202 13 is_stmt 1 view .LVU795
 203:Drivers/lvgl/src/font/lv_font_loader.c ****             if(*res != LV_FS_RES_OK) {
 2370              		.loc 1 203 20 is_stmt 0 view .LVU796
 2371 05ac 0F98     		ldr	r0, [sp, #60]
 202:Drivers/lvgl/src/font/lv_font_loader.c ****             *res = lv_fs_read(it->fp, &(it->byte_value), 1, NULL);
 2372              		.loc 1 202 25 view .LVU797
 2373 05ae 8DF840A0 		strb	r10, [sp, #64]
 203:Drivers/lvgl/src/font/lv_font_loader.c ****             if(*res != LV_FS_RES_OK) {
 2374              		.loc 1 203 13 is_stmt 1 view .LVU798
 203:Drivers/lvgl/src/font/lv_font_loader.c ****             if(*res != LV_FS_RES_OK) {
ARM GAS  /var/folders/0z/tsy30v1j4xl4_7kw94k978ww0000gn/T//ccYqTwoW.s 			page 67


 2375              		.loc 1 203 20 is_stmt 0 view .LVU799
 2376 05b2 0023     		movs	r3, #0
 2377 05b4 0122     		movs	r2, #1
 2378 05b6 0DF14101 		add	r1, sp, #65
 2379 05ba FFF7FEFF 		bl	lv_fs_read
 2380              	.LVL251:
 203:Drivers/lvgl/src/font/lv_font_loader.c ****             if(*res != LV_FS_RES_OK) {
 2381              		.loc 1 203 18 view .LVU800
 2382 05be 8DF83700 		strb	r0, [sp, #55]
 204:Drivers/lvgl/src/font/lv_font_loader.c ****                 return 0;
 2383              		.loc 1 204 13 is_stmt 1 view .LVU801
 204:Drivers/lvgl/src/font/lv_font_loader.c ****                 return 0;
 2384              		.loc 1 204 15 is_stmt 0 view .LVU802
 2385 05c2 28BB     		cbnz	r0, .L159
 208:Drivers/lvgl/src/font/lv_font_loader.c **** 
 2386              		.loc 1 208 25 view .LVU803
 2387 05c4 9DF84120 		ldrb	r2, [sp, #65]	@ zero_extendqisi2
 2388 05c8 E0E7     		b	.L148
 2389              	.LVL252:
 2390              	.L200:
 208:Drivers/lvgl/src/font/lv_font_loader.c **** 
 2391              		.loc 1 208 25 view .LVU804
 2392              	.LBE114:
 212:Drivers/lvgl/src/font/lv_font_loader.c ****     return value;
 2393              		.loc 1 212 5 is_stmt 1 view .LVU805
 212:Drivers/lvgl/src/font/lv_font_loader.c ****     return value;
 2394              		.loc 1 212 10 is_stmt 0 view .LVU806
 2395 05ca 0023     		movs	r3, #0
 2396              	.LBE117:
 2397              	.LBE121:
 451:Drivers/lvgl/src/font/lv_font_loader.c ****                 if(res != LV_FS_RES_OK) {
 2398              		.loc 1 451 45 view .LVU807
 2399 05cc EDB2     		uxtb	r5, r5
 2400              	.LVL253:
 2401              	.LBB122:
 2402              	.LBB118:
 212:Drivers/lvgl/src/font/lv_font_loader.c ****     return value;
 2403              		.loc 1 212 10 view .LVU808
 2404 05ce 8DF83730 		strb	r3, [sp, #55]
 213:Drivers/lvgl/src/font/lv_font_loader.c **** }
 2405              		.loc 1 213 5 is_stmt 1 view .LVU809
 2406              	.LVL254:
 2407              	.L149:
 213:Drivers/lvgl/src/font/lv_font_loader.c **** }
 2408              		.loc 1 213 5 is_stmt 0 view .LVU810
 2409              	.LBE118:
 2410              	.LBE122:
 451:Drivers/lvgl/src/font/lv_font_loader.c ****                 if(res != LV_FS_RES_OK) {
 2411              		.loc 1 451 45 view .LVU811
 2412 05d2 06F8015F 		strb	r5, [r6, #1]!
 452:Drivers/lvgl/src/font/lv_font_loader.c ****                     return -1;
 2413              		.loc 1 452 17 is_stmt 1 view .LVU812
 452:Drivers/lvgl/src/font/lv_font_loader.c ****                     return -1;
 2414              		.loc 1 452 19 is_stmt 0 view .LVU813
 2415 05d6 9DF83730 		ldrb	r3, [sp, #55]	@ zero_extendqisi2
 2416 05da 002B     		cmp	r3, #0
 2417 05dc 7FF432AF 		bne	.L189
ARM GAS  /var/folders/0z/tsy30v1j4xl4_7kw94k978ww0000gn/T//ccYqTwoW.s 			page 68


 450:Drivers/lvgl/src/font/lv_font_loader.c ****                 glyph_bmp[cur_bmp_size + k] = read_bits(&bit_it, 8, &res);
 2418              		.loc 1 450 46 is_stmt 1 view .LVU814
 450:Drivers/lvgl/src/font/lv_font_loader.c ****                 glyph_bmp[cur_bmp_size + k] = read_bits(&bit_it, 8, &res);
 2419              		.loc 1 450 30 view .LVU815
 2420 05e0 4645     		cmp	r6, r8
 2421 05e2 CCD1     		bne	.L145
 2422              	.L144:
 2423              	.LBE133:
 456:Drivers/lvgl/src/font/lv_font_loader.c ****             if(res != LV_FS_RES_OK) {
 2424              		.loc 1 456 13 view .LVU816
 456:Drivers/lvgl/src/font/lv_font_loader.c ****             if(res != LV_FS_RES_OK) {
 2425              		.loc 1 456 54 is_stmt 0 view .LVU817
 2426 05e4 079C     		ldr	r4, [sp, #28]
 2427 05e6 0DF13702 		add	r2, sp, #55
 2428 05ea C4F10801 		rsb	r1, r4, #8
 2429 05ee 0FA8     		add	r0, sp, #60
 2430 05f0 FFF7FEFF 		bl	read_bits
 2431              	.LVL255:
 456:Drivers/lvgl/src/font/lv_font_loader.c ****             if(res != LV_FS_RES_OK) {
 2432              		.loc 1 456 36 view .LVU818
 2433 05f4 DDE90532 		ldrd	r3, r2, [sp, #20]
 2434 05f8 1344     		add	r3, r3, r2
 456:Drivers/lvgl/src/font/lv_font_loader.c ****             if(res != LV_FS_RES_OK) {
 2435              		.loc 1 456 52 view .LVU819
 2436 05fa 0A9D     		ldr	r5, [sp, #40]
 456:Drivers/lvgl/src/font/lv_font_loader.c ****             if(res != LV_FS_RES_OK) {
 2437              		.loc 1 456 22 view .LVU820
 2438 05fc 5A1E     		subs	r2, r3, #1
 456:Drivers/lvgl/src/font/lv_font_loader.c ****             if(res != LV_FS_RES_OK) {
 2439              		.loc 1 456 52 view .LVU821
 2440 05fe A854     		strb	r0, [r5, r2]
 457:Drivers/lvgl/src/font/lv_font_loader.c ****                 return -1;
 2441              		.loc 1 457 13 is_stmt 1 view .LVU822
 457:Drivers/lvgl/src/font/lv_font_loader.c ****                 return -1;
 2442              		.loc 1 457 15 is_stmt 0 view .LVU823
 2443 0600 9DF83710 		ldrb	r1, [sp, #55]	@ zero_extendqisi2
 2444 0604 0029     		cmp	r1, #0
 2445 0606 7FF41DAF 		bne	.L189
 462:Drivers/lvgl/src/font/lv_font_loader.c **** 
 2446              		.loc 1 462 13 is_stmt 1 view .LVU824
 462:Drivers/lvgl/src/font/lv_font_loader.c **** 
 2447              		.loc 1 462 93 is_stmt 0 view .LVU825
 2448 060a A040     		lsls	r0, r0, r4
 462:Drivers/lvgl/src/font/lv_font_loader.c **** 
 2449              		.loc 1 462 52 view .LVU826
 2450 060c A854     		strb	r0, [r5, r2]
 2451 060e 87E7     		b	.L146
 2452              	.LVL256:
 2453              	.L159:
 2454              	.LBB134:
 2455              	.LBB123:
 2456              	.LBB119:
 2457              	.LBB115:
 462:Drivers/lvgl/src/font/lv_font_loader.c **** 
 2458              		.loc 1 462 52 view .LVU827
 2459 0610 0025     		movs	r5, #0
 2460              	.LVL257:
ARM GAS  /var/folders/0z/tsy30v1j4xl4_7kw94k978ww0000gn/T//ccYqTwoW.s 			page 69


 462:Drivers/lvgl/src/font/lv_font_loader.c **** 
 2461              		.loc 1 462 52 view .LVU828
 2462 0612 DEE7     		b	.L149
 2463              	.LVL258:
 2464              	.L116:
 462:Drivers/lvgl/src/font/lv_font_loader.c **** 
 2465              		.loc 1 462 52 view .LVU829
 2466              	.LBE115:
 2467              	.LBE119:
 2468              	.LBE123:
 2469              	.LBE134:
 2470              	.LBE137:
 2471              	.LBE141:
 2472              	.LBE149:
 2473              	.LBE158:
 563:Drivers/lvgl/src/font/lv_font_loader.c ****     int32_t glyph_length = load_glyph(
 2474              		.loc 1 563 5 is_stmt 1 view .LVU830
 2475 0614 0493     		str	r3, [sp, #16]
 563:Drivers/lvgl/src/font/lv_font_loader.c ****     int32_t glyph_length = load_glyph(
 2476              		.loc 1 563 14 is_stmt 0 view .LVU831
 2477 0616 06EB0A03 		add	r3, r6, r10
 2478              	.LBB159:
 2479              	.LBB150:
 341:Drivers/lvgl/src/font/lv_font_loader.c ****     if(glyph_length < 0) {
 2480              		.loc 1 341 28 view .LVU832
 2481 061a 1946     		mov	r1, r3
 2482 061c 0A4A     		ldr	r2, .L204+4
 2483              	.LBE150:
 2484              	.LBE159:
 563:Drivers/lvgl/src/font/lv_font_loader.c ****     int32_t glyph_length = load_glyph(
 2485              		.loc 1 563 14 view .LVU833
 2486 061e 0393     		str	r3, [sp, #12]
 2487              	.LVL259:
 564:Drivers/lvgl/src/font/lv_font_loader.c ****                                fp, font_dsc, glyph_start, glyph_offset, loca_count, &font_header);
 2488              		.loc 1 564 5 is_stmt 1 view .LVU834
 2489              	.LBB160:
 338:Drivers/lvgl/src/font/lv_font_loader.c ****                           uint32_t start, uint32_t * glyph_offset, uint32_t loca_count, font_header
 2490              		.loc 1 338 16 view .LVU835
 2491              	.LBB151:
 341:Drivers/lvgl/src/font/lv_font_loader.c ****     if(glyph_length < 0) {
 2492              		.loc 1 341 5 view .LVU836
 341:Drivers/lvgl/src/font/lv_font_loader.c ****     if(glyph_length < 0) {
 2493              		.loc 1 341 28 is_stmt 0 view .LVU837
 2494 0620 11A8     		add	r0, sp, #68
 2495              	.LVL260:
 341:Drivers/lvgl/src/font/lv_font_loader.c ****     if(glyph_length < 0) {
 2496              		.loc 1 341 28 view .LVU838
 2497 0622 FFF7FEFF 		bl	read_label
 2498              	.LVL261:
 342:Drivers/lvgl/src/font/lv_font_loader.c ****         return -1;
 2499              		.loc 1 342 5 is_stmt 1 view .LVU839
 342:Drivers/lvgl/src/font/lv_font_loader.c ****         return -1;
 2500              		.loc 1 342 7 is_stmt 0 view .LVU840
 2501 0626 031E     		subs	r3, r0, #0
 2502 0628 0293     		str	r3, [sp, #8]
 2503 062a 049B     		ldr	r3, [sp, #16]
 2504 062c FFF602AE 		blt	.L192
ARM GAS  /var/folders/0z/tsy30v1j4xl4_7kw94k978ww0000gn/T//ccYqTwoW.s 			page 70


 346:Drivers/lvgl/src/font/lv_font_loader.c ****                                               lv_mem_alloc(loca_count * sizeof(lv_font_fmt_txt_glyp
 2505              		.loc 1 346 5 is_stmt 1 view .LVU841
 347:Drivers/lvgl/src/font/lv_font_loader.c **** 
 2506              		.loc 1 347 47 is_stmt 0 view .LVU842
 2507 0630 1846     		mov	r0, r3
 2508              	.LVL262:
 347:Drivers/lvgl/src/font/lv_font_loader.c **** 
 2509              		.loc 1 347 47 view .LVU843
 2510 0632 FFF7FEFF 		bl	lv_mem_alloc
 2511              	.LVL263:
 349:Drivers/lvgl/src/font/lv_font_loader.c **** 
 2512              		.loc 1 349 5 is_stmt 1 view .LVU844
 351:Drivers/lvgl/src/font/lv_font_loader.c **** 
 2513              		.loc 1 351 5 view .LVU845
 351:Drivers/lvgl/src/font/lv_font_loader.c **** 
 2514              		.loc 1 351 25 is_stmt 0 view .LVU846
 2515 0636 6860     		str	r0, [r5, #4]
 353:Drivers/lvgl/src/font/lv_font_loader.c **** 
 2516              		.loc 1 353 5 is_stmt 1 view .LVU847
 2517              	.LVL264:
 355:Drivers/lvgl/src/font/lv_font_loader.c ****         lv_font_fmt_txt_glyph_dsc_t * gdsc = &glyph_dsc[i];
 2518              		.loc 1 355 5 view .LVU848
 2519              	.LBB142:
 355:Drivers/lvgl/src/font/lv_font_loader.c ****         lv_font_fmt_txt_glyph_dsc_t * gdsc = &glyph_dsc[i];
 2520              		.loc 1 355 9 view .LVU849
 355:Drivers/lvgl/src/font/lv_font_loader.c ****         lv_font_fmt_txt_glyph_dsc_t * gdsc = &glyph_dsc[i];
 2521              		.loc 1 355 31 view .LVU850
 2522              	.L123:
 355:Drivers/lvgl/src/font/lv_font_loader.c ****         lv_font_fmt_txt_glyph_dsc_t * gdsc = &glyph_dsc[i];
 2523              		.loc 1 355 31 is_stmt 0 view .LVU851
 2524              	.LBE142:
 417:Drivers/lvgl/src/font/lv_font_loader.c **** 
 2525              		.loc 1 417 5 is_stmt 1 view .LVU852
 417:Drivers/lvgl/src/font/lv_font_loader.c **** 
 2526              		.loc 1 417 38 is_stmt 0 view .LVU853
 2527 0638 0020     		movs	r0, #0
 2528 063a FFF7FEFF 		bl	lv_mem_alloc
 2529              	.LVL265:
 419:Drivers/lvgl/src/font/lv_font_loader.c **** 
 2530              		.loc 1 419 5 is_stmt 1 view .LVU854
 419:Drivers/lvgl/src/font/lv_font_loader.c **** 
 2531              		.loc 1 419 28 is_stmt 0 view .LVU855
 2532 063e 2860     		str	r0, [r5]
 421:Drivers/lvgl/src/font/lv_font_loader.c **** 
 2533              		.loc 1 421 5 is_stmt 1 view .LVU856
 423:Drivers/lvgl/src/font/lv_font_loader.c ****         lv_fs_res_t res = lv_fs_seek(fp, start + glyph_offset[i], LV_FS_SEEK_SET);
 2534              		.loc 1 423 5 view .LVU857
 2535              	.LBB143:
 423:Drivers/lvgl/src/font/lv_font_loader.c ****         lv_fs_res_t res = lv_fs_seek(fp, start + glyph_offset[i], LV_FS_SEEK_SET);
 2536              		.loc 1 423 9 view .LVU858
 2537              	.LVL266:
 423:Drivers/lvgl/src/font/lv_font_loader.c ****         lv_fs_res_t res = lv_fs_seek(fp, start + glyph_offset[i], LV_FS_SEEK_SET);
 2538              		.loc 1 423 31 view .LVU859
 2539 0640 78E7     		b	.L138
 2540              	.L205:
 2541 0642 00BF     		.align	2
 2542              	.L204:
ARM GAS  /var/folders/0z/tsy30v1j4xl4_7kw94k978ww0000gn/T//ccYqTwoW.s 			page 71


 2543 0644 0000FFDF 		.word	-536936448
 2544 0648 10000000 		.word	.LC3
 2545              	.LBE143:
 2546              	.LBE151:
 2547              	.LBE160:
 2548              	.LBE162:
 2549              	.LBE164:
 2550              		.cfi_endproc
 2551              	.LFE204:
 2553              		.text
 2554              	.Letext0:
 2555              		.file 2 "/Users/johannes/Library/Application Support/Code/User/globalStorage/bmd.stm32-for-vscode/
 2556              		.file 3 "/Users/johannes/Library/Application Support/Code/User/globalStorage/bmd.stm32-for-vscode/
 2557              		.file 4 "/Users/johannes/Library/Application Support/Code/User/globalStorage/bmd.stm32-for-vscode/
 2558              		.file 5 "Drivers/lvgl/src/font/../../src/hal/../draw/../misc/../font/../misc/lv_area.h"
 2559              		.file 6 "Drivers/lvgl/src/font/../../src/hal/../draw/../misc/../font/lv_font.h"
 2560              		.file 7 "Drivers/lvgl/src/font/../../src/hal/../draw/../misc/lv_fs.h"
 2561              		.file 8 "Drivers/lvgl/src/font/../../src/font/lv_font_fmt_txt.h"
 2562              		.file 9 "/Users/johannes/Library/Application Support/Code/User/globalStorage/bmd.stm32-for-vscode/
 2563              		.file 10 "Drivers/lvgl/src/font/../../src/misc/lv_mem.h"
 2564              		.file 11 "<built-in>"
ARM GAS  /var/folders/0z/tsy30v1j4xl4_7kw94k978ww0000gn/T//ccYqTwoW.s 			page 72


DEFINED SYMBOLS
                            *ABS*:0000000000000000 lv_font_loader.c
/var/folders/0z/tsy30v1j4xl4_7kw94k978ww0000gn/T//ccYqTwoW.s:20     .text.read_bits:0000000000000000 $t
/var/folders/0z/tsy30v1j4xl4_7kw94k978ww0000gn/T//ccYqTwoW.s:26     .text.read_bits:0000000000000000 read_bits
/var/folders/0z/tsy30v1j4xl4_7kw94k978ww0000gn/T//ccYqTwoW.s:168    .text.read_label:0000000000000000 $t
/var/folders/0z/tsy30v1j4xl4_7kw94k978ww0000gn/T//ccYqTwoW.s:174    .text.read_label:0000000000000000 read_label
/var/folders/0z/tsy30v1j4xl4_7kw94k978ww0000gn/T//ccYqTwoW.s:245    .text.lv_font_free:0000000000000000 $t
/var/folders/0z/tsy30v1j4xl4_7kw94k978ww0000gn/T//ccYqTwoW.s:252    .text.lv_font_free:0000000000000000 lv_font_free
/var/folders/0z/tsy30v1j4xl4_7kw94k978ww0000gn/T//ccYqTwoW.s:475    .rodata.load_kern.str1.4:0000000000000000 $d
/var/folders/0z/tsy30v1j4xl4_7kw94k978ww0000gn/T//ccYqTwoW.s:479    .text.load_kern:0000000000000000 $t
/var/folders/0z/tsy30v1j4xl4_7kw94k978ww0000gn/T//ccYqTwoW.s:486    .text.load_kern:0000000000000000 load_kern
/var/folders/0z/tsy30v1j4xl4_7kw94k978ww0000gn/T//ccYqTwoW.s:853    .text.load_kern:00000000000001a4 $d
/var/folders/0z/tsy30v1j4xl4_7kw94k978ww0000gn/T//ccYqTwoW.s:859    .rodata.lv_font_load.str1.4:0000000000000000 $d
/var/folders/0z/tsy30v1j4xl4_7kw94k978ww0000gn/T//ccYqTwoW.s:872    .text.lv_font_load:0000000000000000 $t
/var/folders/0z/tsy30v1j4xl4_7kw94k978ww0000gn/T//ccYqTwoW.s:879    .text.lv_font_load:0000000000000000 lv_font_load
/var/folders/0z/tsy30v1j4xl4_7kw94k978ww0000gn/T//ccYqTwoW.s:1252   .text.lv_font_load:0000000000000186 $d
/var/folders/0z/tsy30v1j4xl4_7kw94k978ww0000gn/T//ccYqTwoW.s:1256   .text.lv_font_load:000000000000018a $t
/var/folders/0z/tsy30v1j4xl4_7kw94k978ww0000gn/T//ccYqTwoW.s:1648   .text.lv_font_load:00000000000002e4 $d
/var/folders/0z/tsy30v1j4xl4_7kw94k978ww0000gn/T//ccYqTwoW.s:1660   .text.lv_font_load:00000000000002fc $t
/var/folders/0z/tsy30v1j4xl4_7kw94k978ww0000gn/T//ccYqTwoW.s:2543   .text.lv_font_load:0000000000000644 $d

UNDEFINED SYMBOLS
lv_fs_read
lv_fs_seek
lv_mem_free
lv_mem_alloc
lv_fs_open
lv_fs_close
memset
lv_font_get_glyph_dsc_fmt_txt
lv_font_get_bitmap_fmt_txt
