ARM GAS  /var/folders/lp/x54gwt890xv47sdkqj1k04q40000gn/T//ccpqBSpC.s 			page 1


   1              		.cpu cortex-m4
   2              		.arch armv7e-m
   3              		.fpu fpv4-sp-d16
   4              		.eabi_attribute 27, 1
   5              		.eabi_attribute 28, 1
   6              		.eabi_attribute 20, 1
   7              		.eabi_attribute 21, 1
   8              		.eabi_attribute 23, 3
   9              		.eabi_attribute 24, 1
  10              		.eabi_attribute 25, 1
  11              		.eabi_attribute 26, 1
  12              		.eabi_attribute 30, 2
  13              		.eabi_attribute 34, 1
  14              		.eabi_attribute 18, 4
  15              		.file	"lv_group.c"
  16              		.text
  17              	.Ltext0:
  18              		.cfi_sections	.debug_frame
  19              		.file 1 "Drivers/lvgl/src/core/lv_group.c"
  20              		.section	.text.get_indev,"ax",%progbits
  21              		.align	1
  22              		.p2align 2,,3
  23              		.syntax unified
  24              		.thumb
  25              		.thumb_func
  27              	get_indev:
  28              	.LVL0:
  29              	.LFB188:
   1:Drivers/lvgl/src/core/lv_group.c **** /**
   2:Drivers/lvgl/src/core/lv_group.c ****  * @file lv_group.c
   3:Drivers/lvgl/src/core/lv_group.c ****  *
   4:Drivers/lvgl/src/core/lv_group.c ****  */
   5:Drivers/lvgl/src/core/lv_group.c **** 
   6:Drivers/lvgl/src/core/lv_group.c **** /*********************
   7:Drivers/lvgl/src/core/lv_group.c ****  *      INCLUDES
   8:Drivers/lvgl/src/core/lv_group.c ****  *********************/
   9:Drivers/lvgl/src/core/lv_group.c **** #include <stddef.h>
  10:Drivers/lvgl/src/core/lv_group.c **** 
  11:Drivers/lvgl/src/core/lv_group.c **** #include "lv_group.h"
  12:Drivers/lvgl/src/core/lv_group.c **** #include "../misc/lv_gc.h"
  13:Drivers/lvgl/src/core/lv_group.c **** #include "../core/lv_obj.h"
  14:Drivers/lvgl/src/core/lv_group.c **** #include "../core/lv_indev.h"
  15:Drivers/lvgl/src/core/lv_group.c **** 
  16:Drivers/lvgl/src/core/lv_group.c **** /*********************
  17:Drivers/lvgl/src/core/lv_group.c ****  *      DEFINES
  18:Drivers/lvgl/src/core/lv_group.c ****  *********************/
  19:Drivers/lvgl/src/core/lv_group.c **** 
  20:Drivers/lvgl/src/core/lv_group.c **** /**********************
  21:Drivers/lvgl/src/core/lv_group.c ****  *      TYPEDEFS
  22:Drivers/lvgl/src/core/lv_group.c ****  **********************/
  23:Drivers/lvgl/src/core/lv_group.c **** 
  24:Drivers/lvgl/src/core/lv_group.c **** /**********************
  25:Drivers/lvgl/src/core/lv_group.c ****  *  STATIC PROTOTYPES
  26:Drivers/lvgl/src/core/lv_group.c ****  **********************/
  27:Drivers/lvgl/src/core/lv_group.c **** static bool focus_next_core(lv_group_t * group, void * (*begin)(const lv_ll_t *),
  28:Drivers/lvgl/src/core/lv_group.c ****                             void * (*move)(const lv_ll_t *, const void *));
  29:Drivers/lvgl/src/core/lv_group.c **** static void lv_group_refocus(lv_group_t * g);
ARM GAS  /var/folders/lp/x54gwt890xv47sdkqj1k04q40000gn/T//ccpqBSpC.s 			page 2


  30:Drivers/lvgl/src/core/lv_group.c **** static lv_indev_t * get_indev(const lv_group_t * g);
  31:Drivers/lvgl/src/core/lv_group.c **** 
  32:Drivers/lvgl/src/core/lv_group.c **** /**********************
  33:Drivers/lvgl/src/core/lv_group.c ****  *  STATIC VARIABLES
  34:Drivers/lvgl/src/core/lv_group.c ****  **********************/
  35:Drivers/lvgl/src/core/lv_group.c **** static lv_group_t * default_group;
  36:Drivers/lvgl/src/core/lv_group.c **** 
  37:Drivers/lvgl/src/core/lv_group.c **** /**********************
  38:Drivers/lvgl/src/core/lv_group.c ****  *      MACROS
  39:Drivers/lvgl/src/core/lv_group.c ****  **********************/
  40:Drivers/lvgl/src/core/lv_group.c **** 
  41:Drivers/lvgl/src/core/lv_group.c **** /**********************
  42:Drivers/lvgl/src/core/lv_group.c ****  *   GLOBAL FUNCTIONS
  43:Drivers/lvgl/src/core/lv_group.c ****  **********************/
  44:Drivers/lvgl/src/core/lv_group.c **** 
  45:Drivers/lvgl/src/core/lv_group.c **** void _lv_group_init(void)
  46:Drivers/lvgl/src/core/lv_group.c **** {
  47:Drivers/lvgl/src/core/lv_group.c ****     _lv_ll_init(&LV_GC_ROOT(_lv_group_ll), sizeof(lv_group_t));
  48:Drivers/lvgl/src/core/lv_group.c **** }
  49:Drivers/lvgl/src/core/lv_group.c **** 
  50:Drivers/lvgl/src/core/lv_group.c **** lv_group_t * lv_group_create(void)
  51:Drivers/lvgl/src/core/lv_group.c **** {
  52:Drivers/lvgl/src/core/lv_group.c ****     lv_group_t * group = _lv_ll_ins_head(&LV_GC_ROOT(_lv_group_ll));
  53:Drivers/lvgl/src/core/lv_group.c ****     LV_ASSERT_MALLOC(group);
  54:Drivers/lvgl/src/core/lv_group.c ****     if(group == NULL) return NULL;
  55:Drivers/lvgl/src/core/lv_group.c ****     _lv_ll_init(&group->obj_ll, sizeof(lv_obj_t *));
  56:Drivers/lvgl/src/core/lv_group.c **** 
  57:Drivers/lvgl/src/core/lv_group.c ****     group->obj_focus      = NULL;
  58:Drivers/lvgl/src/core/lv_group.c ****     group->frozen         = 0;
  59:Drivers/lvgl/src/core/lv_group.c ****     group->focus_cb       = NULL;
  60:Drivers/lvgl/src/core/lv_group.c ****     group->edge_cb        = NULL;
  61:Drivers/lvgl/src/core/lv_group.c ****     group->editing        = 0;
  62:Drivers/lvgl/src/core/lv_group.c ****     group->refocus_policy = LV_GROUP_REFOCUS_POLICY_PREV;
  63:Drivers/lvgl/src/core/lv_group.c ****     group->wrap           = 1;
  64:Drivers/lvgl/src/core/lv_group.c **** 
  65:Drivers/lvgl/src/core/lv_group.c **** #if LV_USE_USER_DATA
  66:Drivers/lvgl/src/core/lv_group.c ****     group->user_data = NULL;
  67:Drivers/lvgl/src/core/lv_group.c **** #endif
  68:Drivers/lvgl/src/core/lv_group.c **** 
  69:Drivers/lvgl/src/core/lv_group.c ****     return group;
  70:Drivers/lvgl/src/core/lv_group.c **** }
  71:Drivers/lvgl/src/core/lv_group.c **** 
  72:Drivers/lvgl/src/core/lv_group.c **** void lv_group_del(lv_group_t * group)
  73:Drivers/lvgl/src/core/lv_group.c **** {
  74:Drivers/lvgl/src/core/lv_group.c ****     /*Defocus the currently focused object*/
  75:Drivers/lvgl/src/core/lv_group.c ****     if(group->obj_focus != NULL) {
  76:Drivers/lvgl/src/core/lv_group.c ****         lv_event_send(*group->obj_focus, LV_EVENT_DEFOCUSED, get_indev(group));
  77:Drivers/lvgl/src/core/lv_group.c ****         lv_obj_invalidate(*group->obj_focus);
  78:Drivers/lvgl/src/core/lv_group.c ****     }
  79:Drivers/lvgl/src/core/lv_group.c **** 
  80:Drivers/lvgl/src/core/lv_group.c ****     /*Remove the objects from the group*/
  81:Drivers/lvgl/src/core/lv_group.c ****     lv_obj_t ** obj;
  82:Drivers/lvgl/src/core/lv_group.c ****     _LV_LL_READ(&group->obj_ll, obj) {
  83:Drivers/lvgl/src/core/lv_group.c ****         if((*obj)->spec_attr)(*obj)->spec_attr->group_p = NULL;
  84:Drivers/lvgl/src/core/lv_group.c ****     }
  85:Drivers/lvgl/src/core/lv_group.c **** 
  86:Drivers/lvgl/src/core/lv_group.c ****     /*Remove the group from any indev devices */
ARM GAS  /var/folders/lp/x54gwt890xv47sdkqj1k04q40000gn/T//ccpqBSpC.s 			page 3


  87:Drivers/lvgl/src/core/lv_group.c ****     lv_indev_t * indev = lv_indev_get_next(NULL);
  88:Drivers/lvgl/src/core/lv_group.c ****     while(indev) {
  89:Drivers/lvgl/src/core/lv_group.c ****         if(indev->group == group) {
  90:Drivers/lvgl/src/core/lv_group.c ****             lv_indev_set_group(indev, NULL);
  91:Drivers/lvgl/src/core/lv_group.c ****         }
  92:Drivers/lvgl/src/core/lv_group.c ****         indev = lv_indev_get_next(indev);
  93:Drivers/lvgl/src/core/lv_group.c ****     }
  94:Drivers/lvgl/src/core/lv_group.c **** 
  95:Drivers/lvgl/src/core/lv_group.c ****     if(default_group == group) default_group = NULL;
  96:Drivers/lvgl/src/core/lv_group.c ****     _lv_ll_clear(&(group->obj_ll));
  97:Drivers/lvgl/src/core/lv_group.c ****     _lv_ll_remove(&LV_GC_ROOT(_lv_group_ll), group);
  98:Drivers/lvgl/src/core/lv_group.c ****     lv_mem_free(group);
  99:Drivers/lvgl/src/core/lv_group.c **** }
 100:Drivers/lvgl/src/core/lv_group.c **** 
 101:Drivers/lvgl/src/core/lv_group.c **** void lv_group_set_default(lv_group_t * group)
 102:Drivers/lvgl/src/core/lv_group.c **** {
 103:Drivers/lvgl/src/core/lv_group.c ****     default_group = group;
 104:Drivers/lvgl/src/core/lv_group.c **** }
 105:Drivers/lvgl/src/core/lv_group.c **** 
 106:Drivers/lvgl/src/core/lv_group.c **** lv_group_t * lv_group_get_default(void)
 107:Drivers/lvgl/src/core/lv_group.c **** {
 108:Drivers/lvgl/src/core/lv_group.c ****     return default_group;
 109:Drivers/lvgl/src/core/lv_group.c **** }
 110:Drivers/lvgl/src/core/lv_group.c **** 
 111:Drivers/lvgl/src/core/lv_group.c **** void lv_group_add_obj(lv_group_t * group, lv_obj_t * obj)
 112:Drivers/lvgl/src/core/lv_group.c **** {
 113:Drivers/lvgl/src/core/lv_group.c ****     if(group == NULL) return;
 114:Drivers/lvgl/src/core/lv_group.c **** 
 115:Drivers/lvgl/src/core/lv_group.c ****     LV_LOG_TRACE("begin");
 116:Drivers/lvgl/src/core/lv_group.c **** 
 117:Drivers/lvgl/src/core/lv_group.c ****     /*Be sure the object is removed from its current group*/
 118:Drivers/lvgl/src/core/lv_group.c ****     lv_group_remove_obj(obj);
 119:Drivers/lvgl/src/core/lv_group.c **** 
 120:Drivers/lvgl/src/core/lv_group.c ****     /*Do not add the object twice*/
 121:Drivers/lvgl/src/core/lv_group.c ****     lv_obj_t ** obj_i;
 122:Drivers/lvgl/src/core/lv_group.c ****     _LV_LL_READ(&group->obj_ll, obj_i) {
 123:Drivers/lvgl/src/core/lv_group.c ****         if((*obj_i) == obj) {
 124:Drivers/lvgl/src/core/lv_group.c ****             LV_LOG_INFO("the object is already added to this group");
 125:Drivers/lvgl/src/core/lv_group.c ****             return;
 126:Drivers/lvgl/src/core/lv_group.c ****         }
 127:Drivers/lvgl/src/core/lv_group.c ****     }
 128:Drivers/lvgl/src/core/lv_group.c **** 
 129:Drivers/lvgl/src/core/lv_group.c ****     /*If the object is already in a group and focused then refocus it*/
 130:Drivers/lvgl/src/core/lv_group.c ****     lv_group_t * group_cur = lv_obj_get_group(obj);
 131:Drivers/lvgl/src/core/lv_group.c ****     if(group_cur) {
 132:Drivers/lvgl/src/core/lv_group.c ****         if(obj->spec_attr->group_p && *(obj->spec_attr->group_p->obj_focus) == obj) {
 133:Drivers/lvgl/src/core/lv_group.c ****             lv_group_refocus(group_cur);
 134:Drivers/lvgl/src/core/lv_group.c **** 
 135:Drivers/lvgl/src/core/lv_group.c ****             LV_LOG_INFO("changing object's group");
 136:Drivers/lvgl/src/core/lv_group.c ****         }
 137:Drivers/lvgl/src/core/lv_group.c ****     }
 138:Drivers/lvgl/src/core/lv_group.c **** 
 139:Drivers/lvgl/src/core/lv_group.c ****     if(obj->spec_attr == NULL) lv_obj_allocate_spec_attr(obj);
 140:Drivers/lvgl/src/core/lv_group.c ****     obj->spec_attr->group_p = group;
 141:Drivers/lvgl/src/core/lv_group.c **** 
 142:Drivers/lvgl/src/core/lv_group.c ****     lv_obj_t ** next = _lv_ll_ins_tail(&group->obj_ll);
 143:Drivers/lvgl/src/core/lv_group.c ****     LV_ASSERT_MALLOC(next);
ARM GAS  /var/folders/lp/x54gwt890xv47sdkqj1k04q40000gn/T//ccpqBSpC.s 			page 4


 144:Drivers/lvgl/src/core/lv_group.c ****     if(next == NULL) return;
 145:Drivers/lvgl/src/core/lv_group.c ****     *next = obj;
 146:Drivers/lvgl/src/core/lv_group.c **** 
 147:Drivers/lvgl/src/core/lv_group.c ****     /*If the head and the tail is equal then there is only one object in the linked list.
 148:Drivers/lvgl/src/core/lv_group.c ****      *In this case automatically activate it*/
 149:Drivers/lvgl/src/core/lv_group.c ****     if(_lv_ll_get_head(&group->obj_ll) == next) {
 150:Drivers/lvgl/src/core/lv_group.c ****         lv_group_refocus(group);
 151:Drivers/lvgl/src/core/lv_group.c ****     }
 152:Drivers/lvgl/src/core/lv_group.c **** 
 153:Drivers/lvgl/src/core/lv_group.c ****     LV_LOG_TRACE("finished");
 154:Drivers/lvgl/src/core/lv_group.c **** }
 155:Drivers/lvgl/src/core/lv_group.c **** 
 156:Drivers/lvgl/src/core/lv_group.c **** void lv_group_swap_obj(lv_obj_t * obj1, lv_obj_t * obj2)
 157:Drivers/lvgl/src/core/lv_group.c **** {
 158:Drivers/lvgl/src/core/lv_group.c ****     lv_group_t * g1 = lv_obj_get_group(obj1);
 159:Drivers/lvgl/src/core/lv_group.c ****     lv_group_t * g2 = lv_obj_get_group(obj2);
 160:Drivers/lvgl/src/core/lv_group.c ****     if(g1 != g2) return;
 161:Drivers/lvgl/src/core/lv_group.c ****     if(g1 == NULL) return;
 162:Drivers/lvgl/src/core/lv_group.c **** 
 163:Drivers/lvgl/src/core/lv_group.c ****     /*Do not add the object twice*/
 164:Drivers/lvgl/src/core/lv_group.c ****     lv_obj_t ** obj_i;
 165:Drivers/lvgl/src/core/lv_group.c ****     _LV_LL_READ(&g1->obj_ll, obj_i) {
 166:Drivers/lvgl/src/core/lv_group.c ****         if((*obj_i) == obj1)(*obj_i) = obj2;
 167:Drivers/lvgl/src/core/lv_group.c ****         else if((*obj_i) == obj2)(*obj_i) = obj1;
 168:Drivers/lvgl/src/core/lv_group.c ****     }
 169:Drivers/lvgl/src/core/lv_group.c **** 
 170:Drivers/lvgl/src/core/lv_group.c ****     if(*g1->obj_focus == obj1) lv_group_focus_obj(obj2);
 171:Drivers/lvgl/src/core/lv_group.c ****     else if(*g1->obj_focus == obj2) lv_group_focus_obj(obj1);
 172:Drivers/lvgl/src/core/lv_group.c **** 
 173:Drivers/lvgl/src/core/lv_group.c **** }
 174:Drivers/lvgl/src/core/lv_group.c **** 
 175:Drivers/lvgl/src/core/lv_group.c **** void lv_group_remove_obj(lv_obj_t * obj)
 176:Drivers/lvgl/src/core/lv_group.c **** {
 177:Drivers/lvgl/src/core/lv_group.c ****     lv_group_t * g = lv_obj_get_group(obj);
 178:Drivers/lvgl/src/core/lv_group.c ****     if(g == NULL) return;
 179:Drivers/lvgl/src/core/lv_group.c **** 
 180:Drivers/lvgl/src/core/lv_group.c ****     LV_LOG_TRACE("begin");
 181:Drivers/lvgl/src/core/lv_group.c **** 
 182:Drivers/lvgl/src/core/lv_group.c ****     /*Focus on the next object*/
 183:Drivers/lvgl/src/core/lv_group.c ****     if(g->obj_focus && *g->obj_focus == obj) {
 184:Drivers/lvgl/src/core/lv_group.c ****         if(g->frozen) g->frozen = 0;
 185:Drivers/lvgl/src/core/lv_group.c **** 
 186:Drivers/lvgl/src/core/lv_group.c ****         /*If this is the only object in the group then focus to nothing.*/
 187:Drivers/lvgl/src/core/lv_group.c ****         if(_lv_ll_get_head(&g->obj_ll) == g->obj_focus && _lv_ll_get_tail(&g->obj_ll) == g->obj_foc
 188:Drivers/lvgl/src/core/lv_group.c ****             lv_event_send(*g->obj_focus, LV_EVENT_DEFOCUSED, get_indev(g));
 189:Drivers/lvgl/src/core/lv_group.c ****         }
 190:Drivers/lvgl/src/core/lv_group.c ****         /*If there more objects in the group then focus to the next/prev object*/
 191:Drivers/lvgl/src/core/lv_group.c ****         else {
 192:Drivers/lvgl/src/core/lv_group.c ****             lv_group_refocus(g);
 193:Drivers/lvgl/src/core/lv_group.c ****         }
 194:Drivers/lvgl/src/core/lv_group.c ****     }
 195:Drivers/lvgl/src/core/lv_group.c **** 
 196:Drivers/lvgl/src/core/lv_group.c ****     /*If the focuses object is still the same then it was the only object in the group but it will
 197:Drivers/lvgl/src/core/lv_group.c ****      *be deleted. Set the `obj_focus` to NULL to get back to the initial state of the group with
 198:Drivers/lvgl/src/core/lv_group.c ****      *zero objects*/
 199:Drivers/lvgl/src/core/lv_group.c ****     if(g->obj_focus && *g->obj_focus == obj) {
 200:Drivers/lvgl/src/core/lv_group.c ****         g->obj_focus = NULL;
ARM GAS  /var/folders/lp/x54gwt890xv47sdkqj1k04q40000gn/T//ccpqBSpC.s 			page 5


 201:Drivers/lvgl/src/core/lv_group.c ****     }
 202:Drivers/lvgl/src/core/lv_group.c **** 
 203:Drivers/lvgl/src/core/lv_group.c ****     /*Search the object and remove it from its group*/
 204:Drivers/lvgl/src/core/lv_group.c ****     lv_obj_t ** i;
 205:Drivers/lvgl/src/core/lv_group.c ****     _LV_LL_READ(&g->obj_ll, i) {
 206:Drivers/lvgl/src/core/lv_group.c ****         if(*i == obj) {
 207:Drivers/lvgl/src/core/lv_group.c ****             _lv_ll_remove(&g->obj_ll, i);
 208:Drivers/lvgl/src/core/lv_group.c ****             lv_mem_free(i);
 209:Drivers/lvgl/src/core/lv_group.c ****             if(obj->spec_attr) obj->spec_attr->group_p = NULL;
 210:Drivers/lvgl/src/core/lv_group.c ****             break;
 211:Drivers/lvgl/src/core/lv_group.c ****         }
 212:Drivers/lvgl/src/core/lv_group.c ****     }
 213:Drivers/lvgl/src/core/lv_group.c ****     LV_LOG_TRACE("finished");
 214:Drivers/lvgl/src/core/lv_group.c **** }
 215:Drivers/lvgl/src/core/lv_group.c **** 
 216:Drivers/lvgl/src/core/lv_group.c **** void lv_group_remove_all_objs(lv_group_t * group)
 217:Drivers/lvgl/src/core/lv_group.c **** {
 218:Drivers/lvgl/src/core/lv_group.c ****     /*Defocus the currently focused object*/
 219:Drivers/lvgl/src/core/lv_group.c ****     if(group->obj_focus != NULL) {
 220:Drivers/lvgl/src/core/lv_group.c ****         lv_event_send(*group->obj_focus, LV_EVENT_DEFOCUSED, get_indev(group));
 221:Drivers/lvgl/src/core/lv_group.c ****         lv_obj_invalidate(*group->obj_focus);
 222:Drivers/lvgl/src/core/lv_group.c ****         group->obj_focus = NULL;
 223:Drivers/lvgl/src/core/lv_group.c ****     }
 224:Drivers/lvgl/src/core/lv_group.c **** 
 225:Drivers/lvgl/src/core/lv_group.c ****     /*Remove the objects from the group*/
 226:Drivers/lvgl/src/core/lv_group.c ****     lv_obj_t ** obj;
 227:Drivers/lvgl/src/core/lv_group.c ****     _LV_LL_READ(&group->obj_ll, obj) {
 228:Drivers/lvgl/src/core/lv_group.c ****         if((*obj)->spec_attr)(*obj)->spec_attr->group_p = NULL;
 229:Drivers/lvgl/src/core/lv_group.c ****     }
 230:Drivers/lvgl/src/core/lv_group.c **** 
 231:Drivers/lvgl/src/core/lv_group.c ****     _lv_ll_clear(&(group->obj_ll));
 232:Drivers/lvgl/src/core/lv_group.c **** }
 233:Drivers/lvgl/src/core/lv_group.c **** 
 234:Drivers/lvgl/src/core/lv_group.c **** void lv_group_focus_obj(lv_obj_t * obj)
 235:Drivers/lvgl/src/core/lv_group.c **** {
 236:Drivers/lvgl/src/core/lv_group.c ****     if(obj == NULL) return;
 237:Drivers/lvgl/src/core/lv_group.c ****     lv_group_t * g = lv_obj_get_group(obj);
 238:Drivers/lvgl/src/core/lv_group.c ****     if(g == NULL) return;
 239:Drivers/lvgl/src/core/lv_group.c **** 
 240:Drivers/lvgl/src/core/lv_group.c ****     if(g->frozen != 0) return;
 241:Drivers/lvgl/src/core/lv_group.c **** 
 242:Drivers/lvgl/src/core/lv_group.c ****     /*On defocus edit mode must be leaved*/
 243:Drivers/lvgl/src/core/lv_group.c ****     lv_group_set_editing(g, false);
 244:Drivers/lvgl/src/core/lv_group.c **** 
 245:Drivers/lvgl/src/core/lv_group.c ****     lv_obj_t ** i;
 246:Drivers/lvgl/src/core/lv_group.c ****     _LV_LL_READ(&g->obj_ll, i) {
 247:Drivers/lvgl/src/core/lv_group.c ****         if(*i == obj) {
 248:Drivers/lvgl/src/core/lv_group.c ****             if(g->obj_focus != NULL && obj != *g->obj_focus) {  /*Do not defocus if the same object
 249:Drivers/lvgl/src/core/lv_group.c ****                 lv_res_t res = lv_event_send(*g->obj_focus, LV_EVENT_DEFOCUSED, get_indev(g));
 250:Drivers/lvgl/src/core/lv_group.c ****                 if(res != LV_RES_OK) return;
 251:Drivers/lvgl/src/core/lv_group.c ****                 lv_obj_invalidate(*g->obj_focus);
 252:Drivers/lvgl/src/core/lv_group.c ****             }
 253:Drivers/lvgl/src/core/lv_group.c **** 
 254:Drivers/lvgl/src/core/lv_group.c ****             g->obj_focus = i;
 255:Drivers/lvgl/src/core/lv_group.c **** 
 256:Drivers/lvgl/src/core/lv_group.c ****             if(g->obj_focus != NULL) {
 257:Drivers/lvgl/src/core/lv_group.c ****                 if(g->focus_cb) g->focus_cb(g);
ARM GAS  /var/folders/lp/x54gwt890xv47sdkqj1k04q40000gn/T//ccpqBSpC.s 			page 6


 258:Drivers/lvgl/src/core/lv_group.c ****                 lv_res_t res = lv_event_send(*g->obj_focus, LV_EVENT_FOCUSED, get_indev(g));
 259:Drivers/lvgl/src/core/lv_group.c ****                 if(res != LV_RES_OK) return;
 260:Drivers/lvgl/src/core/lv_group.c ****                 lv_obj_invalidate(*g->obj_focus);
 261:Drivers/lvgl/src/core/lv_group.c ****             }
 262:Drivers/lvgl/src/core/lv_group.c ****             break;
 263:Drivers/lvgl/src/core/lv_group.c ****         }
 264:Drivers/lvgl/src/core/lv_group.c ****     }
 265:Drivers/lvgl/src/core/lv_group.c **** }
 266:Drivers/lvgl/src/core/lv_group.c **** 
 267:Drivers/lvgl/src/core/lv_group.c **** void lv_group_focus_next(lv_group_t * group)
 268:Drivers/lvgl/src/core/lv_group.c **** {
 269:Drivers/lvgl/src/core/lv_group.c ****     bool focus_changed = focus_next_core(group, _lv_ll_get_head, _lv_ll_get_next);
 270:Drivers/lvgl/src/core/lv_group.c ****     if(group->edge_cb) {
 271:Drivers/lvgl/src/core/lv_group.c ****         if(!focus_changed)
 272:Drivers/lvgl/src/core/lv_group.c ****             group->edge_cb(group, true);
 273:Drivers/lvgl/src/core/lv_group.c ****     }
 274:Drivers/lvgl/src/core/lv_group.c **** }
 275:Drivers/lvgl/src/core/lv_group.c **** 
 276:Drivers/lvgl/src/core/lv_group.c **** void lv_group_focus_prev(lv_group_t * group)
 277:Drivers/lvgl/src/core/lv_group.c **** {
 278:Drivers/lvgl/src/core/lv_group.c ****     bool focus_changed = focus_next_core(group, _lv_ll_get_tail, _lv_ll_get_prev);
 279:Drivers/lvgl/src/core/lv_group.c ****     if(group->edge_cb) {
 280:Drivers/lvgl/src/core/lv_group.c ****         if(!focus_changed)
 281:Drivers/lvgl/src/core/lv_group.c ****             group->edge_cb(group, false);
 282:Drivers/lvgl/src/core/lv_group.c ****     }
 283:Drivers/lvgl/src/core/lv_group.c **** }
 284:Drivers/lvgl/src/core/lv_group.c **** 
 285:Drivers/lvgl/src/core/lv_group.c **** void lv_group_focus_freeze(lv_group_t * group, bool en)
 286:Drivers/lvgl/src/core/lv_group.c **** {
 287:Drivers/lvgl/src/core/lv_group.c ****     if(en == false) group->frozen = 0;
 288:Drivers/lvgl/src/core/lv_group.c ****     else group->frozen = 1;
 289:Drivers/lvgl/src/core/lv_group.c **** }
 290:Drivers/lvgl/src/core/lv_group.c **** 
 291:Drivers/lvgl/src/core/lv_group.c **** lv_res_t lv_group_send_data(lv_group_t * group, uint32_t c)
 292:Drivers/lvgl/src/core/lv_group.c **** {
 293:Drivers/lvgl/src/core/lv_group.c ****     lv_obj_t * act = lv_group_get_focused(group);
 294:Drivers/lvgl/src/core/lv_group.c ****     if(act == NULL) return LV_RES_OK;
 295:Drivers/lvgl/src/core/lv_group.c **** 
 296:Drivers/lvgl/src/core/lv_group.c ****     if(lv_obj_has_state(act, LV_STATE_DISABLED)) return LV_RES_OK;
 297:Drivers/lvgl/src/core/lv_group.c **** 
 298:Drivers/lvgl/src/core/lv_group.c ****     return lv_event_send(act, LV_EVENT_KEY, &c);
 299:Drivers/lvgl/src/core/lv_group.c **** }
 300:Drivers/lvgl/src/core/lv_group.c **** 
 301:Drivers/lvgl/src/core/lv_group.c **** void lv_group_set_focus_cb(lv_group_t * group, lv_group_focus_cb_t focus_cb)
 302:Drivers/lvgl/src/core/lv_group.c **** {
 303:Drivers/lvgl/src/core/lv_group.c ****     group->focus_cb = focus_cb;
 304:Drivers/lvgl/src/core/lv_group.c **** }
 305:Drivers/lvgl/src/core/lv_group.c **** 
 306:Drivers/lvgl/src/core/lv_group.c **** void lv_group_set_edge_cb(lv_group_t * group, lv_group_edge_cb_t edge_cb)
 307:Drivers/lvgl/src/core/lv_group.c **** {
 308:Drivers/lvgl/src/core/lv_group.c ****     group->edge_cb = edge_cb;
 309:Drivers/lvgl/src/core/lv_group.c **** }
 310:Drivers/lvgl/src/core/lv_group.c **** 
 311:Drivers/lvgl/src/core/lv_group.c **** void lv_group_set_editing(lv_group_t * group, bool edit)
 312:Drivers/lvgl/src/core/lv_group.c **** {
 313:Drivers/lvgl/src/core/lv_group.c ****     if(group == NULL) return;
 314:Drivers/lvgl/src/core/lv_group.c ****     uint8_t en_val = edit ? 1 : 0;
ARM GAS  /var/folders/lp/x54gwt890xv47sdkqj1k04q40000gn/T//ccpqBSpC.s 			page 7


 315:Drivers/lvgl/src/core/lv_group.c **** 
 316:Drivers/lvgl/src/core/lv_group.c ****     if(en_val == group->editing) return; /*Do not set the same mode again*/
 317:Drivers/lvgl/src/core/lv_group.c **** 
 318:Drivers/lvgl/src/core/lv_group.c ****     group->editing     = en_val;
 319:Drivers/lvgl/src/core/lv_group.c ****     lv_obj_t * focused = lv_group_get_focused(group);
 320:Drivers/lvgl/src/core/lv_group.c **** 
 321:Drivers/lvgl/src/core/lv_group.c ****     if(focused) {
 322:Drivers/lvgl/src/core/lv_group.c ****         lv_res_t res = lv_event_send(*group->obj_focus, LV_EVENT_FOCUSED, get_indev(group));
 323:Drivers/lvgl/src/core/lv_group.c ****         if(res != LV_RES_OK) return;
 324:Drivers/lvgl/src/core/lv_group.c **** 
 325:Drivers/lvgl/src/core/lv_group.c ****         lv_obj_invalidate(focused);
 326:Drivers/lvgl/src/core/lv_group.c ****     }
 327:Drivers/lvgl/src/core/lv_group.c **** }
 328:Drivers/lvgl/src/core/lv_group.c **** 
 329:Drivers/lvgl/src/core/lv_group.c **** void lv_group_set_refocus_policy(lv_group_t * group, lv_group_refocus_policy_t policy)
 330:Drivers/lvgl/src/core/lv_group.c **** {
 331:Drivers/lvgl/src/core/lv_group.c ****     group->refocus_policy = policy & 0x01;
 332:Drivers/lvgl/src/core/lv_group.c **** }
 333:Drivers/lvgl/src/core/lv_group.c **** 
 334:Drivers/lvgl/src/core/lv_group.c **** void lv_group_set_wrap(lv_group_t * group, bool en)
 335:Drivers/lvgl/src/core/lv_group.c **** {
 336:Drivers/lvgl/src/core/lv_group.c ****     group->wrap = en ? 1 : 0;
 337:Drivers/lvgl/src/core/lv_group.c **** }
 338:Drivers/lvgl/src/core/lv_group.c **** 
 339:Drivers/lvgl/src/core/lv_group.c **** lv_obj_t * lv_group_get_focused(const lv_group_t * group)
 340:Drivers/lvgl/src/core/lv_group.c **** {
 341:Drivers/lvgl/src/core/lv_group.c ****     if(!group) return NULL;
 342:Drivers/lvgl/src/core/lv_group.c ****     if(group->obj_focus == NULL) return NULL;
 343:Drivers/lvgl/src/core/lv_group.c **** 
 344:Drivers/lvgl/src/core/lv_group.c ****     return *group->obj_focus;
 345:Drivers/lvgl/src/core/lv_group.c **** }
 346:Drivers/lvgl/src/core/lv_group.c **** 
 347:Drivers/lvgl/src/core/lv_group.c **** lv_group_focus_cb_t lv_group_get_focus_cb(const lv_group_t * group)
 348:Drivers/lvgl/src/core/lv_group.c **** {
 349:Drivers/lvgl/src/core/lv_group.c ****     if(!group) return NULL;
 350:Drivers/lvgl/src/core/lv_group.c ****     return group->focus_cb;
 351:Drivers/lvgl/src/core/lv_group.c **** }
 352:Drivers/lvgl/src/core/lv_group.c **** 
 353:Drivers/lvgl/src/core/lv_group.c **** lv_group_edge_cb_t lv_group_get_edge_cb(const lv_group_t * group)
 354:Drivers/lvgl/src/core/lv_group.c **** {
 355:Drivers/lvgl/src/core/lv_group.c ****     if(!group) return NULL;
 356:Drivers/lvgl/src/core/lv_group.c ****     return group->edge_cb;
 357:Drivers/lvgl/src/core/lv_group.c **** }
 358:Drivers/lvgl/src/core/lv_group.c **** 
 359:Drivers/lvgl/src/core/lv_group.c **** bool lv_group_get_editing(const lv_group_t * group)
 360:Drivers/lvgl/src/core/lv_group.c **** {
 361:Drivers/lvgl/src/core/lv_group.c ****     if(!group) return false;
 362:Drivers/lvgl/src/core/lv_group.c ****     return group->editing ? true : false;
 363:Drivers/lvgl/src/core/lv_group.c **** }
 364:Drivers/lvgl/src/core/lv_group.c **** 
 365:Drivers/lvgl/src/core/lv_group.c **** bool lv_group_get_wrap(lv_group_t * group)
 366:Drivers/lvgl/src/core/lv_group.c **** {
 367:Drivers/lvgl/src/core/lv_group.c ****     if(!group) return false;
 368:Drivers/lvgl/src/core/lv_group.c ****     return group->wrap ? true : false;
 369:Drivers/lvgl/src/core/lv_group.c **** }
 370:Drivers/lvgl/src/core/lv_group.c **** 
 371:Drivers/lvgl/src/core/lv_group.c **** uint32_t lv_group_get_obj_count(lv_group_t * group)
ARM GAS  /var/folders/lp/x54gwt890xv47sdkqj1k04q40000gn/T//ccpqBSpC.s 			page 8


 372:Drivers/lvgl/src/core/lv_group.c **** {
 373:Drivers/lvgl/src/core/lv_group.c ****     return _lv_ll_get_len(&group->obj_ll);
 374:Drivers/lvgl/src/core/lv_group.c **** }
 375:Drivers/lvgl/src/core/lv_group.c **** /**********************
 376:Drivers/lvgl/src/core/lv_group.c ****  *   STATIC FUNCTIONS
 377:Drivers/lvgl/src/core/lv_group.c ****  **********************/
 378:Drivers/lvgl/src/core/lv_group.c **** 
 379:Drivers/lvgl/src/core/lv_group.c **** static void lv_group_refocus(lv_group_t * g)
 380:Drivers/lvgl/src/core/lv_group.c **** {
 381:Drivers/lvgl/src/core/lv_group.c ****     /*Refocus must temporarily allow wrapping to work correctly*/
 382:Drivers/lvgl/src/core/lv_group.c ****     uint8_t temp_wrap = g->wrap;
 383:Drivers/lvgl/src/core/lv_group.c ****     g->wrap           = 1;
 384:Drivers/lvgl/src/core/lv_group.c **** 
 385:Drivers/lvgl/src/core/lv_group.c ****     if(g->refocus_policy == LV_GROUP_REFOCUS_POLICY_NEXT)
 386:Drivers/lvgl/src/core/lv_group.c ****         lv_group_focus_next(g);
 387:Drivers/lvgl/src/core/lv_group.c ****     else if(g->refocus_policy == LV_GROUP_REFOCUS_POLICY_PREV)
 388:Drivers/lvgl/src/core/lv_group.c ****         lv_group_focus_prev(g);
 389:Drivers/lvgl/src/core/lv_group.c ****     /*Restore wrap property*/
 390:Drivers/lvgl/src/core/lv_group.c ****     g->wrap = temp_wrap;
 391:Drivers/lvgl/src/core/lv_group.c **** }
 392:Drivers/lvgl/src/core/lv_group.c **** 
 393:Drivers/lvgl/src/core/lv_group.c **** static bool focus_next_core(lv_group_t * group, void * (*begin)(const lv_ll_t *),
 394:Drivers/lvgl/src/core/lv_group.c ****                             void * (*move)(const lv_ll_t *, const void *))
 395:Drivers/lvgl/src/core/lv_group.c **** {
 396:Drivers/lvgl/src/core/lv_group.c ****     bool focus_changed = false;
 397:Drivers/lvgl/src/core/lv_group.c ****     if(group->frozen) return focus_changed;
 398:Drivers/lvgl/src/core/lv_group.c **** 
 399:Drivers/lvgl/src/core/lv_group.c ****     lv_obj_t ** obj_next     = group->obj_focus;
 400:Drivers/lvgl/src/core/lv_group.c ****     lv_obj_t ** obj_sentinel = NULL;
 401:Drivers/lvgl/src/core/lv_group.c ****     bool can_move            = true;
 402:Drivers/lvgl/src/core/lv_group.c ****     bool can_begin           = true;
 403:Drivers/lvgl/src/core/lv_group.c **** 
 404:Drivers/lvgl/src/core/lv_group.c ****     for(;;) {
 405:Drivers/lvgl/src/core/lv_group.c ****         if(obj_next == NULL) {
 406:Drivers/lvgl/src/core/lv_group.c ****             if(group->wrap || obj_sentinel == NULL) {
 407:Drivers/lvgl/src/core/lv_group.c ****                 if(!can_begin) return focus_changed;
 408:Drivers/lvgl/src/core/lv_group.c ****                 obj_next  = begin(&group->obj_ll);
 409:Drivers/lvgl/src/core/lv_group.c ****                 can_move  = false;
 410:Drivers/lvgl/src/core/lv_group.c ****                 can_begin = false;
 411:Drivers/lvgl/src/core/lv_group.c ****             }
 412:Drivers/lvgl/src/core/lv_group.c ****             else {
 413:Drivers/lvgl/src/core/lv_group.c ****                 /*Currently focused object is the last/first in the group, keep it that way*/
 414:Drivers/lvgl/src/core/lv_group.c ****                 return focus_changed;
 415:Drivers/lvgl/src/core/lv_group.c ****             }
 416:Drivers/lvgl/src/core/lv_group.c ****         }
 417:Drivers/lvgl/src/core/lv_group.c **** 
 418:Drivers/lvgl/src/core/lv_group.c ****         if(obj_sentinel == NULL) {
 419:Drivers/lvgl/src/core/lv_group.c ****             obj_sentinel = obj_next;
 420:Drivers/lvgl/src/core/lv_group.c ****             if(obj_sentinel == NULL) return focus_changed; /*Group is empty*/
 421:Drivers/lvgl/src/core/lv_group.c ****         }
 422:Drivers/lvgl/src/core/lv_group.c **** 
 423:Drivers/lvgl/src/core/lv_group.c ****         if(can_move) {
 424:Drivers/lvgl/src/core/lv_group.c ****             obj_next = move(&group->obj_ll, obj_next);
 425:Drivers/lvgl/src/core/lv_group.c **** 
 426:Drivers/lvgl/src/core/lv_group.c ****             /*Give up if we walked the entire list and haven't found another visible object*/
 427:Drivers/lvgl/src/core/lv_group.c ****             if(obj_next == obj_sentinel) return focus_changed;
 428:Drivers/lvgl/src/core/lv_group.c ****         }
ARM GAS  /var/folders/lp/x54gwt890xv47sdkqj1k04q40000gn/T//ccpqBSpC.s 			page 9


 429:Drivers/lvgl/src/core/lv_group.c **** 
 430:Drivers/lvgl/src/core/lv_group.c ****         can_move = true;
 431:Drivers/lvgl/src/core/lv_group.c **** 
 432:Drivers/lvgl/src/core/lv_group.c ****         if(obj_next == NULL) continue;
 433:Drivers/lvgl/src/core/lv_group.c ****         if(lv_obj_get_state(*obj_next) & LV_STATE_DISABLED) continue;
 434:Drivers/lvgl/src/core/lv_group.c **** 
 435:Drivers/lvgl/src/core/lv_group.c ****         /*Hidden objects don't receive focus.
 436:Drivers/lvgl/src/core/lv_group.c ****          *If any parent is hidden, the object is also hidden)*/
 437:Drivers/lvgl/src/core/lv_group.c ****         lv_obj_t * parent = *obj_next;
 438:Drivers/lvgl/src/core/lv_group.c ****         while(parent) {
 439:Drivers/lvgl/src/core/lv_group.c ****             if(lv_obj_has_flag(parent, LV_OBJ_FLAG_HIDDEN)) break;
 440:Drivers/lvgl/src/core/lv_group.c ****             parent = lv_obj_get_parent(parent);
 441:Drivers/lvgl/src/core/lv_group.c ****         }
 442:Drivers/lvgl/src/core/lv_group.c **** 
 443:Drivers/lvgl/src/core/lv_group.c ****         if(parent && lv_obj_has_flag(parent, LV_OBJ_FLAG_HIDDEN)) continue;
 444:Drivers/lvgl/src/core/lv_group.c **** 
 445:Drivers/lvgl/src/core/lv_group.c ****         /*If we got her a good candidate is found*/
 446:Drivers/lvgl/src/core/lv_group.c ****         break;
 447:Drivers/lvgl/src/core/lv_group.c ****     }
 448:Drivers/lvgl/src/core/lv_group.c **** 
 449:Drivers/lvgl/src/core/lv_group.c ****     if(obj_next == group->obj_focus) return focus_changed; /*There's only one visible object and it
 450:Drivers/lvgl/src/core/lv_group.c **** 
 451:Drivers/lvgl/src/core/lv_group.c ****     if(group->obj_focus) {
 452:Drivers/lvgl/src/core/lv_group.c ****         lv_res_t res = lv_event_send(*group->obj_focus, LV_EVENT_DEFOCUSED, get_indev(group));
 453:Drivers/lvgl/src/core/lv_group.c ****         if(res != LV_RES_OK) return focus_changed;
 454:Drivers/lvgl/src/core/lv_group.c ****         lv_obj_invalidate(*group->obj_focus);
 455:Drivers/lvgl/src/core/lv_group.c ****     }
 456:Drivers/lvgl/src/core/lv_group.c **** 
 457:Drivers/lvgl/src/core/lv_group.c ****     group->obj_focus = obj_next;
 458:Drivers/lvgl/src/core/lv_group.c **** 
 459:Drivers/lvgl/src/core/lv_group.c ****     lv_res_t res = lv_event_send(*group->obj_focus, LV_EVENT_FOCUSED, get_indev(group));
 460:Drivers/lvgl/src/core/lv_group.c ****     if(res != LV_RES_OK) return focus_changed;
 461:Drivers/lvgl/src/core/lv_group.c **** 
 462:Drivers/lvgl/src/core/lv_group.c ****     lv_obj_invalidate(*group->obj_focus);
 463:Drivers/lvgl/src/core/lv_group.c **** 
 464:Drivers/lvgl/src/core/lv_group.c ****     if(group->focus_cb) group->focus_cb(group);
 465:Drivers/lvgl/src/core/lv_group.c ****     focus_changed = true;
 466:Drivers/lvgl/src/core/lv_group.c ****     return focus_changed;
 467:Drivers/lvgl/src/core/lv_group.c **** }
 468:Drivers/lvgl/src/core/lv_group.c **** 
 469:Drivers/lvgl/src/core/lv_group.c **** /**
 470:Drivers/lvgl/src/core/lv_group.c ****  * Find an indev preferably with KEYPAD or ENCOEDR type that uses the given group.
 471:Drivers/lvgl/src/core/lv_group.c ****  * In other words, find an indev, that is related to the given group.
 472:Drivers/lvgl/src/core/lv_group.c ****  * In the worst case simply return the latest indev
 473:Drivers/lvgl/src/core/lv_group.c ****  * @param g     a group the find in the indevs
 474:Drivers/lvgl/src/core/lv_group.c ****  * @return      the suggested indev
 475:Drivers/lvgl/src/core/lv_group.c ****  */
 476:Drivers/lvgl/src/core/lv_group.c **** static lv_indev_t * get_indev(const lv_group_t * g)
 477:Drivers/lvgl/src/core/lv_group.c **** {
  30              		.loc 1 477 1 view -0
  31              		.cfi_startproc
  32              		@ args = 0, pretend = 0, frame = 0
  33              		@ frame_needed = 0, uses_anonymous_args = 0
 478:Drivers/lvgl/src/core/lv_group.c ****     lv_indev_t * indev_encoder = NULL;
  34              		.loc 1 478 5 view .LVU1
 479:Drivers/lvgl/src/core/lv_group.c ****     lv_indev_t * indev_group = NULL;
  35              		.loc 1 479 5 view .LVU2
ARM GAS  /var/folders/lp/x54gwt890xv47sdkqj1k04q40000gn/T//ccpqBSpC.s 			page 10


 480:Drivers/lvgl/src/core/lv_group.c ****     lv_indev_t * indev = lv_indev_get_next(NULL);
  36              		.loc 1 480 5 view .LVU3
 477:Drivers/lvgl/src/core/lv_group.c ****     lv_indev_t * indev_encoder = NULL;
  37              		.loc 1 477 1 is_stmt 0 view .LVU4
  38 0000 F8B5     		push	{r3, r4, r5, r6, r7, lr}
  39              		.cfi_def_cfa_offset 24
  40              		.cfi_offset 3, -24
  41              		.cfi_offset 4, -20
  42              		.cfi_offset 5, -16
  43              		.cfi_offset 6, -12
  44              		.cfi_offset 7, -8
  45              		.cfi_offset 14, -4
 477:Drivers/lvgl/src/core/lv_group.c ****     lv_indev_t * indev_encoder = NULL;
  46              		.loc 1 477 1 view .LVU5
  47 0002 0546     		mov	r5, r0
  48              		.loc 1 480 26 view .LVU6
  49 0004 0020     		movs	r0, #0
  50              	.LVL1:
  51              		.loc 1 480 26 view .LVU7
  52 0006 FFF7FEFF 		bl	lv_indev_get_next
  53              	.LVL2:
 481:Drivers/lvgl/src/core/lv_group.c ****     while(indev) {
  54              		.loc 1 481 5 is_stmt 1 view .LVU8
  55              		.loc 1 481 11 view .LVU9
  56 000a 20B3     		cbz	r0, .L5
 479:Drivers/lvgl/src/core/lv_group.c ****     lv_indev_t * indev = lv_indev_get_next(NULL);
  57              		.loc 1 479 18 is_stmt 0 view .LVU10
  58 000c 0027     		movs	r7, #0
  59 000e 0446     		mov	r4, r0
 478:Drivers/lvgl/src/core/lv_group.c ****     lv_indev_t * indev_group = NULL;
  60              		.loc 1 478 18 view .LVU11
  61 0010 3E46     		mov	r6, r7
  62 0012 03E0     		b	.L2
  63              	.LVL3:
  64              	.L3:
  65              	.LBB16:
 482:Drivers/lvgl/src/core/lv_group.c ****         lv_indev_type_t indev_type = lv_indev_get_type(indev);
 483:Drivers/lvgl/src/core/lv_group.c ****         if(indev->group == g) {
 484:Drivers/lvgl/src/core/lv_group.c ****             /*Prefer KEYPAD*/
 485:Drivers/lvgl/src/core/lv_group.c ****             if(indev_type == LV_INDEV_TYPE_KEYPAD) return indev;
 486:Drivers/lvgl/src/core/lv_group.c ****             if(indev_type == LV_INDEV_TYPE_ENCODER) indev_encoder = indev;
 487:Drivers/lvgl/src/core/lv_group.c ****             indev_group = indev;
 488:Drivers/lvgl/src/core/lv_group.c ****         }
 489:Drivers/lvgl/src/core/lv_group.c ****         indev = lv_indev_get_next(indev);
  66              		.loc 1 489 9 is_stmt 1 view .LVU12
  67              		.loc 1 489 17 is_stmt 0 view .LVU13
  68 0014 FFF7FEFF 		bl	lv_indev_get_next
  69              	.LVL4:
  70              		.loc 1 489 17 view .LVU14
  71              	.LBE16:
 481:Drivers/lvgl/src/core/lv_group.c ****         lv_indev_type_t indev_type = lv_indev_get_type(indev);
  72              		.loc 1 481 11 is_stmt 1 view .LVU15
  73 0018 0446     		mov	r4, r0
  74 001a 90B1     		cbz	r0, .L15
  75              	.LVL5:
  76              	.L2:
  77              	.LBB17:
ARM GAS  /var/folders/lp/x54gwt890xv47sdkqj1k04q40000gn/T//ccpqBSpC.s 			page 11


 482:Drivers/lvgl/src/core/lv_group.c ****         lv_indev_type_t indev_type = lv_indev_get_type(indev);
  78              		.loc 1 482 9 view .LVU16
 482:Drivers/lvgl/src/core/lv_group.c ****         lv_indev_type_t indev_type = lv_indev_get_type(indev);
  79              		.loc 1 482 38 is_stmt 0 view .LVU17
  80 001c 2046     		mov	r0, r4
 482:Drivers/lvgl/src/core/lv_group.c ****         lv_indev_type_t indev_type = lv_indev_get_type(indev);
  81              		.loc 1 482 38 view .LVU18
  82 001e FFF7FEFF 		bl	lv_indev_get_type
  83              	.LVL6:
 485:Drivers/lvgl/src/core/lv_group.c ****             if(indev_type == LV_INDEV_TYPE_ENCODER) indev_encoder = indev;
  84              		.loc 1 485 13 is_stmt 1 view .LVU19
 486:Drivers/lvgl/src/core/lv_group.c ****             indev_group = indev;
  85              		.loc 1 486 13 view .LVU20
 483:Drivers/lvgl/src/core/lv_group.c ****             /*Prefer KEYPAD*/
  86              		.loc 1 483 11 is_stmt 0 view .LVU21
  87 0022 626D     		ldr	r2, [r4, #84]
  88 0024 AA42     		cmp	r2, r5
 482:Drivers/lvgl/src/core/lv_group.c ****         if(indev->group == g) {
  89              		.loc 1 482 38 view .LVU22
  90 0026 0346     		mov	r3, r0
  91              	.LVL7:
 483:Drivers/lvgl/src/core/lv_group.c ****             /*Prefer KEYPAD*/
  92              		.loc 1 483 9 is_stmt 1 view .LVU23
  93              		.loc 1 489 17 is_stmt 0 view .LVU24
  94 0028 2046     		mov	r0, r4
 483:Drivers/lvgl/src/core/lv_group.c ****             /*Prefer KEYPAD*/
  95              		.loc 1 483 11 view .LVU25
  96 002a F3D1     		bne	.L3
  97              	.LVL8:
 485:Drivers/lvgl/src/core/lv_group.c ****             if(indev_type == LV_INDEV_TYPE_ENCODER) indev_encoder = indev;
  98              		.loc 1 485 15 view .LVU26
  99 002c 022B     		cmp	r3, #2
 100 002e 0FD0     		beq	.L7
 487:Drivers/lvgl/src/core/lv_group.c ****         }
 101              		.loc 1 487 25 view .LVU27
 102 0030 042B     		cmp	r3, #4
 103 0032 08BF     		it	eq
 104 0034 2646     		moveq	r6, r4
 105              	.LVL9:
 106              		.loc 1 489 9 is_stmt 1 view .LVU28
 107              		.loc 1 489 17 is_stmt 0 view .LVU29
 108 0036 FFF7FEFF 		bl	lv_indev_get_next
 109              	.LVL10:
 110              		.loc 1 489 17 view .LVU30
 111              	.LBE17:
 481:Drivers/lvgl/src/core/lv_group.c ****         lv_indev_type_t indev_type = lv_indev_get_type(indev);
 112              		.loc 1 481 11 is_stmt 1 view .LVU31
 113              	.LBB18:
 487:Drivers/lvgl/src/core/lv_group.c ****         }
 114              		.loc 1 487 25 is_stmt 0 view .LVU32
 115 003a 2746     		mov	r7, r4
 116              	.LBE18:
 481:Drivers/lvgl/src/core/lv_group.c ****         lv_indev_type_t indev_type = lv_indev_get_type(indev);
 117              		.loc 1 481 11 view .LVU33
 118 003c 0446     		mov	r4, r0
 119 003e 0028     		cmp	r0, #0
 120 0040 ECD1     		bne	.L2
ARM GAS  /var/folders/lp/x54gwt890xv47sdkqj1k04q40000gn/T//ccpqBSpC.s 			page 12


 121              	.L15:
 490:Drivers/lvgl/src/core/lv_group.c ****     }
 491:Drivers/lvgl/src/core/lv_group.c **** 
 492:Drivers/lvgl/src/core/lv_group.c ****     if(indev_encoder) return indev_encoder;
 122              		.loc 1 492 5 is_stmt 1 view .LVU34
 123              		.loc 1 492 7 is_stmt 0 view .LVU35
 124 0042 0EB1     		cbz	r6, .L16
 493:Drivers/lvgl/src/core/lv_group.c ****     if(indev_group) return indev_group;
 494:Drivers/lvgl/src/core/lv_group.c **** 
 495:Drivers/lvgl/src/core/lv_group.c ****     /*In lack of a better option use the first input device. (It can be NULL if there is no input d
 496:Drivers/lvgl/src/core/lv_group.c ****     return lv_indev_get_next(NULL);
 497:Drivers/lvgl/src/core/lv_group.c **** }
 125              		.loc 1 497 1 view .LVU36
 126 0044 3046     		mov	r0, r6
 127              	.LVL11:
 128              		.loc 1 497 1 view .LVU37
 129 0046 F8BD     		pop	{r3, r4, r5, r6, r7, pc}
 130              	.LVL12:
 131              	.L16:
 493:Drivers/lvgl/src/core/lv_group.c ****     if(indev_group) return indev_group;
 132              		.loc 1 493 5 is_stmt 1 view .LVU38
 493:Drivers/lvgl/src/core/lv_group.c ****     if(indev_group) return indev_group;
 133              		.loc 1 493 7 is_stmt 0 view .LVU39
 134 0048 2FB1     		cbz	r7, .L5
 493:Drivers/lvgl/src/core/lv_group.c ****     if(indev_group) return indev_group;
 135              		.loc 1 493 28 discriminator 1 view .LVU40
 136 004a 3E46     		mov	r6, r7
 137              	.LVL13:
 138              		.loc 1 497 1 view .LVU41
 139 004c 3046     		mov	r0, r6
 140              	.LVL14:
 141              		.loc 1 497 1 view .LVU42
 142 004e F8BD     		pop	{r3, r4, r5, r6, r7, pc}
 143              	.LVL15:
 144              	.L7:
 145              	.LBB19:
 485:Drivers/lvgl/src/core/lv_group.c ****             if(indev_type == LV_INDEV_TYPE_ENCODER) indev_encoder = indev;
 146              		.loc 1 485 59 discriminator 1 view .LVU43
 147 0050 2646     		mov	r6, r4
 148              	.LVL16:
 485:Drivers/lvgl/src/core/lv_group.c ****             if(indev_type == LV_INDEV_TYPE_ENCODER) indev_encoder = indev;
 149              		.loc 1 485 59 discriminator 1 view .LVU44
 150              	.LBE19:
 151              		.loc 1 497 1 view .LVU45
 152 0052 3046     		mov	r0, r6
 153              	.LVL17:
 154              		.loc 1 497 1 view .LVU46
 155 0054 F8BD     		pop	{r3, r4, r5, r6, r7, pc}
 156              	.LVL18:
 157              	.L5:
 496:Drivers/lvgl/src/core/lv_group.c **** }
 158              		.loc 1 496 5 is_stmt 1 view .LVU47
 159              		.loc 1 497 1 is_stmt 0 view .LVU48
 160 0056 BDE8F840 		pop	{r3, r4, r5, r6, r7, lr}
 161              		.cfi_restore 14
 162              		.cfi_restore 7
 163              		.cfi_restore 6
ARM GAS  /var/folders/lp/x54gwt890xv47sdkqj1k04q40000gn/T//ccpqBSpC.s 			page 13


 164              		.cfi_restore 5
 165              		.cfi_restore 4
 166              		.cfi_restore 3
 167              		.cfi_def_cfa_offset 0
 168              	.LVL19:
 496:Drivers/lvgl/src/core/lv_group.c **** }
 169              		.loc 1 496 12 view .LVU49
 170 005a 0020     		movs	r0, #0
 171              	.LVL20:
 496:Drivers/lvgl/src/core/lv_group.c **** }
 172              		.loc 1 496 12 view .LVU50
 173 005c FFF7FEBF 		b	lv_indev_get_next
 174              	.LVL21:
 175              		.cfi_endproc
 176              	.LFE188:
 178              		.section	.text.focus_next_core,"ax",%progbits
 179              		.align	1
 180              		.p2align 2,,3
 181              		.syntax unified
 182              		.thumb
 183              		.thumb_func
 185              	focus_next_core:
 186              	.LVL22:
 187              	.LFB187:
 395:Drivers/lvgl/src/core/lv_group.c ****     bool focus_changed = false;
 188              		.loc 1 395 1 is_stmt 1 view -0
 189              		.cfi_startproc
 190              		@ args = 0, pretend = 0, frame = 0
 191              		@ frame_needed = 0, uses_anonymous_args = 0
 396:Drivers/lvgl/src/core/lv_group.c ****     if(group->frozen) return focus_changed;
 192              		.loc 1 396 5 view .LVU52
 397:Drivers/lvgl/src/core/lv_group.c **** 
 193              		.loc 1 397 5 view .LVU53
 397:Drivers/lvgl/src/core/lv_group.c **** 
 194              		.loc 1 397 8 is_stmt 0 view .LVU54
 195 0000 037F     		ldrb	r3, [r0, #28]	@ zero_extendqisi2
 397:Drivers/lvgl/src/core/lv_group.c **** 
 196              		.loc 1 397 7 view .LVU55
 197 0002 DB07     		lsls	r3, r3, #31
 198 0004 4DD4     		bmi	.L53
 399:Drivers/lvgl/src/core/lv_group.c ****     lv_obj_t ** obj_sentinel = NULL;
 199              		.loc 1 399 5 is_stmt 1 view .LVU56
 395:Drivers/lvgl/src/core/lv_group.c ****     bool focus_changed = false;
 200              		.loc 1 395 1 is_stmt 0 view .LVU57
 201 0006 2DE9F047 		push	{r4, r5, r6, r7, r8, r9, r10, lr}
 202              		.cfi_def_cfa_offset 32
 203              		.cfi_offset 4, -32
 204              		.cfi_offset 5, -28
 205              		.cfi_offset 6, -24
 206              		.cfi_offset 7, -20
 207              		.cfi_offset 8, -16
 208              		.cfi_offset 9, -12
 209              		.cfi_offset 10, -8
 210              		.cfi_offset 14, -4
 399:Drivers/lvgl/src/core/lv_group.c ****     lv_obj_t ** obj_sentinel = NULL;
 211              		.loc 1 399 17 view .LVU58
 212 000a C568     		ldr	r5, [r0, #12]
ARM GAS  /var/folders/lp/x54gwt890xv47sdkqj1k04q40000gn/T//ccpqBSpC.s 			page 14


 213              	.LVL23:
 400:Drivers/lvgl/src/core/lv_group.c ****     bool can_move            = true;
 214              		.loc 1 400 5 is_stmt 1 view .LVU59
 401:Drivers/lvgl/src/core/lv_group.c ****     bool can_begin           = true;
 215              		.loc 1 401 5 view .LVU60
 402:Drivers/lvgl/src/core/lv_group.c **** 
 216              		.loc 1 402 5 view .LVU61
 404:Drivers/lvgl/src/core/lv_group.c ****         if(obj_next == NULL) {
 217              		.loc 1 404 5 view .LVU62
 218              	.LBB20:
 405:Drivers/lvgl/src/core/lv_group.c ****             if(group->wrap || obj_sentinel == NULL) {
 219              		.loc 1 405 9 view .LVU63
 220 000c 0646     		mov	r6, r0
 221 000e 8846     		mov	r8, r1
 222 0010 1746     		mov	r7, r2
 405:Drivers/lvgl/src/core/lv_group.c ****             if(group->wrap || obj_sentinel == NULL) {
 223              		.loc 1 405 11 is_stmt 0 view .LVU64
 224 0012 002D     		cmp	r5, #0
 225 0014 61D1     		bne	.L54
 406:Drivers/lvgl/src/core/lv_group.c ****                 if(!can_begin) return focus_changed;
 226              		.loc 1 406 13 is_stmt 1 view .LVU65
 408:Drivers/lvgl/src/core/lv_group.c ****                 can_move  = false;
 227              		.loc 1 408 17 view .LVU66
 408:Drivers/lvgl/src/core/lv_group.c ****                 can_move  = false;
 228              		.loc 1 408 29 is_stmt 0 view .LVU67
 229 0016 8847     		blx	r1
 230              	.LVL24:
 408:Drivers/lvgl/src/core/lv_group.c ****                 can_move  = false;
 231              		.loc 1 408 29 view .LVU68
 232 0018 0546     		mov	r5, r0
 233              	.LVL25:
 409:Drivers/lvgl/src/core/lv_group.c ****                 can_begin = false;
 234              		.loc 1 409 17 is_stmt 1 view .LVU69
 410:Drivers/lvgl/src/core/lv_group.c ****             }
 235              		.loc 1 410 17 view .LVU70
 418:Drivers/lvgl/src/core/lv_group.c ****             obj_sentinel = obj_next;
 236              		.loc 1 418 9 view .LVU71
 419:Drivers/lvgl/src/core/lv_group.c ****             if(obj_sentinel == NULL) return focus_changed; /*Group is empty*/
 237              		.loc 1 419 13 view .LVU72
 420:Drivers/lvgl/src/core/lv_group.c ****         }
 238              		.loc 1 420 13 view .LVU73
 420:Drivers/lvgl/src/core/lv_group.c ****         }
 239              		.loc 1 420 15 is_stmt 0 view .LVU74
 240 001a 002D     		cmp	r5, #0
 241 001c 3ED0     		beq	.L23
 419:Drivers/lvgl/src/core/lv_group.c ****             if(obj_sentinel == NULL) return focus_changed; /*Group is empty*/
 242              		.loc 1 419 26 view .LVU75
 243 001e A946     		mov	r9, r5
 410:Drivers/lvgl/src/core/lv_group.c ****             }
 244              		.loc 1 410 27 view .LVU76
 245 0020 4FF0000A 		mov	r10, #0
 246              	.LVL26:
 247              	.L25:
 433:Drivers/lvgl/src/core/lv_group.c **** 
 248              		.loc 1 433 9 is_stmt 1 view .LVU77
 433:Drivers/lvgl/src/core/lv_group.c **** 
 249              		.loc 1 433 12 is_stmt 0 view .LVU78
ARM GAS  /var/folders/lp/x54gwt890xv47sdkqj1k04q40000gn/T//ccpqBSpC.s 			page 15


 250 0024 2868     		ldr	r0, [r5]
 251 0026 FFF7FEFF 		bl	lv_obj_get_state
 252              	.LVL27:
 433:Drivers/lvgl/src/core/lv_group.c **** 
 253              		.loc 1 433 11 discriminator 1 view .LVU79
 254 002a 0306     		lsls	r3, r0, #24
 255 002c 13D5     		bpl	.L55
 256              	.L21:
 424:Drivers/lvgl/src/core/lv_group.c **** 
 257              		.loc 1 424 13 is_stmt 1 view .LVU80
 424:Drivers/lvgl/src/core/lv_group.c **** 
 258              		.loc 1 424 24 is_stmt 0 view .LVU81
 259 002e 2946     		mov	r1, r5
 260 0030 3046     		mov	r0, r6
 261 0032 B847     		blx	r7
 262              	.LVL28:
 427:Drivers/lvgl/src/core/lv_group.c ****         }
 263              		.loc 1 427 15 view .LVU82
 264 0034 4845     		cmp	r0, r9
 424:Drivers/lvgl/src/core/lv_group.c **** 
 265              		.loc 1 424 24 view .LVU83
 266 0036 0546     		mov	r5, r0
 267              	.LVL29:
 427:Drivers/lvgl/src/core/lv_group.c ****         }
 268              		.loc 1 427 13 is_stmt 1 view .LVU84
 427:Drivers/lvgl/src/core/lv_group.c ****         }
 269              		.loc 1 427 15 is_stmt 0 view .LVU85
 270 0038 30D0     		beq	.L23
 271              	.L24:
 272              	.LVL30:
 427:Drivers/lvgl/src/core/lv_group.c ****         }
 273              		.loc 1 427 15 view .LVU86
 274              	.LBE20:
 404:Drivers/lvgl/src/core/lv_group.c ****         if(obj_next == NULL) {
 275              		.loc 1 404 5 is_stmt 1 view .LVU87
 276              	.LBB21:
 405:Drivers/lvgl/src/core/lv_group.c ****             if(group->wrap || obj_sentinel == NULL) {
 277              		.loc 1 405 9 view .LVU88
 406:Drivers/lvgl/src/core/lv_group.c ****                 if(!can_begin) return focus_changed;
 278              		.loc 1 406 13 view .LVU89
 430:Drivers/lvgl/src/core/lv_group.c **** 
 279              		.loc 1 430 9 view .LVU90
 432:Drivers/lvgl/src/core/lv_group.c ****         if(lv_obj_get_state(*obj_next) & LV_STATE_DISABLED) continue;
 280              		.loc 1 432 9 view .LVU91
 432:Drivers/lvgl/src/core/lv_group.c ****         if(lv_obj_get_state(*obj_next) & LV_STATE_DISABLED) continue;
 281              		.loc 1 432 11 is_stmt 0 view .LVU92
 282 003a 002D     		cmp	r5, #0
 283 003c F2D1     		bne	.L25
 407:Drivers/lvgl/src/core/lv_group.c ****                 obj_next  = begin(&group->obj_ll);
 284              		.loc 1 407 17 is_stmt 1 view .LVU93
 408:Drivers/lvgl/src/core/lv_group.c ****                 can_move  = false;
 285              		.loc 1 408 17 view .LVU94
 406:Drivers/lvgl/src/core/lv_group.c ****                 if(!can_begin) return focus_changed;
 286              		.loc 1 406 16 is_stmt 0 view .LVU95
 287 003e 337F     		ldrb	r3, [r6, #28]	@ zero_extendqisi2
 406:Drivers/lvgl/src/core/lv_group.c ****                 if(!can_begin) return focus_changed;
 288              		.loc 1 406 15 view .LVU96
ARM GAS  /var/folders/lp/x54gwt890xv47sdkqj1k04q40000gn/T//ccpqBSpC.s 			page 16


 289 0040 1A07     		lsls	r2, r3, #28
 408:Drivers/lvgl/src/core/lv_group.c ****                 can_move  = false;
 290              		.loc 1 408 29 view .LVU97
 291 0042 3046     		mov	r0, r6
 292              	.LVL31:
 406:Drivers/lvgl/src/core/lv_group.c ****                 if(!can_begin) return focus_changed;
 293              		.loc 1 406 15 view .LVU98
 294 0044 2AD5     		bpl	.L23
 295              	.LVL32:
 407:Drivers/lvgl/src/core/lv_group.c ****                 obj_next  = begin(&group->obj_ll);
 296              		.loc 1 407 19 view .LVU99
 297 0046 BAF1000F 		cmp	r10, #0
 298 004a 27D0     		beq	.L23
 408:Drivers/lvgl/src/core/lv_group.c ****                 can_move  = false;
 299              		.loc 1 408 29 view .LVU100
 300 004c C047     		blx	r8
 301              	.LVL33:
 410:Drivers/lvgl/src/core/lv_group.c ****             }
 302              		.loc 1 410 27 view .LVU101
 303 004e 4FF0000A 		mov	r10, #0
 304              	.LVL34:
 408:Drivers/lvgl/src/core/lv_group.c ****                 can_move  = false;
 305              		.loc 1 408 29 view .LVU102
 306 0052 0546     		mov	r5, r0
 307              	.LVL35:
 409:Drivers/lvgl/src/core/lv_group.c ****                 can_begin = false;
 308              		.loc 1 409 17 is_stmt 1 view .LVU103
 410:Drivers/lvgl/src/core/lv_group.c ****             }
 309              		.loc 1 410 17 view .LVU104
 418:Drivers/lvgl/src/core/lv_group.c ****             obj_sentinel = obj_next;
 310              		.loc 1 418 9 view .LVU105
 311 0054 F1E7     		b	.L24
 312              	.LVL36:
 313              	.L55:
 437:Drivers/lvgl/src/core/lv_group.c ****         while(parent) {
 314              		.loc 1 437 9 view .LVU106
 437:Drivers/lvgl/src/core/lv_group.c ****         while(parent) {
 315              		.loc 1 437 20 is_stmt 0 view .LVU107
 316 0056 2C68     		ldr	r4, [r5]
 317              	.LVL37:
 438:Drivers/lvgl/src/core/lv_group.c ****             if(lv_obj_has_flag(parent, LV_OBJ_FLAG_HIDDEN)) break;
 318              		.loc 1 438 9 is_stmt 1 view .LVU108
 438:Drivers/lvgl/src/core/lv_group.c ****             if(lv_obj_has_flag(parent, LV_OBJ_FLAG_HIDDEN)) break;
 319              		.loc 1 438 15 view .LVU109
 320 0058 2CB9     		cbnz	r4, .L28
 321 005a 10E0     		b	.L31
 322              	.L56:
 440:Drivers/lvgl/src/core/lv_group.c ****         }
 323              		.loc 1 440 22 is_stmt 0 view .LVU110
 324 005c 2046     		mov	r0, r4
 325 005e FFF7FEFF 		bl	lv_obj_get_parent
 326              	.LVL38:
 438:Drivers/lvgl/src/core/lv_group.c ****             if(lv_obj_has_flag(parent, LV_OBJ_FLAG_HIDDEN)) break;
 327              		.loc 1 438 15 is_stmt 1 view .LVU111
 328 0062 0446     		mov	r4, r0
 329 0064 58B1     		cbz	r0, .L31
 330              	.LVL39:
ARM GAS  /var/folders/lp/x54gwt890xv47sdkqj1k04q40000gn/T//ccpqBSpC.s 			page 17


 331              	.L28:
 439:Drivers/lvgl/src/core/lv_group.c ****             parent = lv_obj_get_parent(parent);
 332              		.loc 1 439 13 view .LVU112
 439:Drivers/lvgl/src/core/lv_group.c ****             parent = lv_obj_get_parent(parent);
 333              		.loc 1 439 16 is_stmt 0 view .LVU113
 334 0066 0121     		movs	r1, #1
 335 0068 2046     		mov	r0, r4
 336 006a FFF7FEFF 		bl	lv_obj_has_flag
 337              	.LVL40:
 440:Drivers/lvgl/src/core/lv_group.c ****         }
 338              		.loc 1 440 13 is_stmt 1 view .LVU114
 439:Drivers/lvgl/src/core/lv_group.c ****             parent = lv_obj_get_parent(parent);
 339              		.loc 1 439 15 is_stmt 0 discriminator 1 view .LVU115
 340 006e 0028     		cmp	r0, #0
 341 0070 F4D0     		beq	.L56
 443:Drivers/lvgl/src/core/lv_group.c **** 
 342              		.loc 1 443 9 is_stmt 1 view .LVU116
 443:Drivers/lvgl/src/core/lv_group.c **** 
 343              		.loc 1 443 22 is_stmt 0 discriminator 1 view .LVU117
 344 0072 2046     		mov	r0, r4
 345 0074 0121     		movs	r1, #1
 346 0076 FFF7FEFF 		bl	lv_obj_has_flag
 347              	.LVL41:
 443:Drivers/lvgl/src/core/lv_group.c **** 
 348              		.loc 1 443 19 discriminator 1 view .LVU118
 349 007a 0028     		cmp	r0, #0
 350 007c D7D1     		bne	.L21
 351              	.L31:
 446:Drivers/lvgl/src/core/lv_group.c ****     }
 352              		.loc 1 446 9 is_stmt 1 view .LVU119
 353              	.LBE21:
 449:Drivers/lvgl/src/core/lv_group.c **** 
 354              		.loc 1 449 5 view .LVU120
 449:Drivers/lvgl/src/core/lv_group.c **** 
 355              		.loc 1 449 25 is_stmt 0 view .LVU121
 356 007e F368     		ldr	r3, [r6, #12]
 449:Drivers/lvgl/src/core/lv_group.c **** 
 357              		.loc 1 449 7 view .LVU122
 358 0080 AB42     		cmp	r3, r5
 359 0082 0BD0     		beq	.L23
 451:Drivers/lvgl/src/core/lv_group.c ****         lv_res_t res = lv_event_send(*group->obj_focus, LV_EVENT_DEFOCUSED, get_indev(group));
 360              		.loc 1 451 5 is_stmt 1 view .LVU123
 451:Drivers/lvgl/src/core/lv_group.c ****         lv_res_t res = lv_event_send(*group->obj_focus, LV_EVENT_DEFOCUSED, get_indev(group));
 361              		.loc 1 451 7 is_stmt 0 view .LVU124
 362 0084 9BB1     		cbz	r3, .L32
 363              	.LBB22:
 452:Drivers/lvgl/src/core/lv_group.c ****         if(res != LV_RES_OK) return focus_changed;
 364              		.loc 1 452 9 is_stmt 1 view .LVU125
 452:Drivers/lvgl/src/core/lv_group.c ****         if(res != LV_RES_OK) return focus_changed;
 365              		.loc 1 452 77 is_stmt 0 view .LVU126
 366 0086 3046     		mov	r0, r6
 452:Drivers/lvgl/src/core/lv_group.c ****         if(res != LV_RES_OK) return focus_changed;
 367              		.loc 1 452 24 view .LVU127
 368 0088 1C68     		ldr	r4, [r3]
 369              	.LVL42:
 452:Drivers/lvgl/src/core/lv_group.c ****         if(res != LV_RES_OK) return focus_changed;
 370              		.loc 1 452 77 view .LVU128
ARM GAS  /var/folders/lp/x54gwt890xv47sdkqj1k04q40000gn/T//ccpqBSpC.s 			page 18


 371 008a FFF7FEFF 		bl	get_indev
 372              	.LVL43:
 452:Drivers/lvgl/src/core/lv_group.c ****         if(res != LV_RES_OK) return focus_changed;
 373              		.loc 1 452 24 discriminator 1 view .LVU129
 374 008e 0F21     		movs	r1, #15
 452:Drivers/lvgl/src/core/lv_group.c ****         if(res != LV_RES_OK) return focus_changed;
 375              		.loc 1 452 77 view .LVU130
 376 0090 0246     		mov	r2, r0
 452:Drivers/lvgl/src/core/lv_group.c ****         if(res != LV_RES_OK) return focus_changed;
 377              		.loc 1 452 24 discriminator 1 view .LVU131
 378 0092 2046     		mov	r0, r4
 379 0094 FFF7FEFF 		bl	lv_event_send
 380              	.LVL44:
 453:Drivers/lvgl/src/core/lv_group.c ****         lv_obj_invalidate(*group->obj_focus);
 381              		.loc 1 453 9 is_stmt 1 view .LVU132
 453:Drivers/lvgl/src/core/lv_group.c ****         lv_obj_invalidate(*group->obj_focus);
 382              		.loc 1 453 11 is_stmt 0 view .LVU133
 383 0098 0128     		cmp	r0, #1
 384 009a 04D0     		beq	.L57
 385              	.LVL45:
 386              	.L23:
 453:Drivers/lvgl/src/core/lv_group.c ****         lv_obj_invalidate(*group->obj_focus);
 387              		.loc 1 453 11 view .LVU134
 388              	.LBE22:
 397:Drivers/lvgl/src/core/lv_group.c **** 
 389              		.loc 1 397 30 discriminator 1 view .LVU135
 390 009c 0020     		movs	r0, #0
 391              	.LVL46:
 392              	.L48:
 467:Drivers/lvgl/src/core/lv_group.c **** 
 393              		.loc 1 467 1 view .LVU136
 394 009e BDE8F087 		pop	{r4, r5, r6, r7, r8, r9, r10, pc}
 395              	.LVL47:
 396              	.L53:
 397              		.cfi_def_cfa_offset 0
 398              		.cfi_restore 4
 399              		.cfi_restore 5
 400              		.cfi_restore 6
 401              		.cfi_restore 7
 402              		.cfi_restore 8
 403              		.cfi_restore 9
 404              		.cfi_restore 10
 405              		.cfi_restore 14
 397:Drivers/lvgl/src/core/lv_group.c **** 
 406              		.loc 1 397 30 discriminator 1 view .LVU137
 407 00a2 0020     		movs	r0, #0
 408              	.LVL48:
 467:Drivers/lvgl/src/core/lv_group.c **** 
 409              		.loc 1 467 1 view .LVU138
 410 00a4 7047     		bx	lr
 411              	.LVL49:
 412              	.L57:
 413              		.cfi_def_cfa_offset 32
 414              		.cfi_offset 4, -32
 415              		.cfi_offset 5, -28
 416              		.cfi_offset 6, -24
 417              		.cfi_offset 7, -20
ARM GAS  /var/folders/lp/x54gwt890xv47sdkqj1k04q40000gn/T//ccpqBSpC.s 			page 19


 418              		.cfi_offset 8, -16
 419              		.cfi_offset 9, -12
 420              		.cfi_offset 10, -8
 421              		.cfi_offset 14, -4
 422              	.LBB23:
 454:Drivers/lvgl/src/core/lv_group.c ****     }
 423              		.loc 1 454 9 is_stmt 1 view .LVU139
 424 00a6 F368     		ldr	r3, [r6, #12]
 425 00a8 1868     		ldr	r0, [r3]
 426              	.LVL50:
 454:Drivers/lvgl/src/core/lv_group.c ****     }
 427              		.loc 1 454 9 is_stmt 0 view .LVU140
 428 00aa FFF7FEFF 		bl	lv_obj_invalidate
 429              	.LVL51:
 430              	.L32:
 454:Drivers/lvgl/src/core/lv_group.c ****     }
 431              		.loc 1 454 9 view .LVU141
 432              	.LBE23:
 457:Drivers/lvgl/src/core/lv_group.c **** 
 433              		.loc 1 457 5 is_stmt 1 view .LVU142
 457:Drivers/lvgl/src/core/lv_group.c **** 
 434              		.loc 1 457 22 is_stmt 0 view .LVU143
 435 00ae F560     		str	r5, [r6, #12]
 459:Drivers/lvgl/src/core/lv_group.c ****     if(res != LV_RES_OK) return focus_changed;
 436              		.loc 1 459 5 is_stmt 1 view .LVU144
 459:Drivers/lvgl/src/core/lv_group.c ****     if(res != LV_RES_OK) return focus_changed;
 437              		.loc 1 459 71 is_stmt 0 view .LVU145
 438 00b0 3046     		mov	r0, r6
 459:Drivers/lvgl/src/core/lv_group.c ****     if(res != LV_RES_OK) return focus_changed;
 439              		.loc 1 459 20 view .LVU146
 440 00b2 2C68     		ldr	r4, [r5]
 459:Drivers/lvgl/src/core/lv_group.c ****     if(res != LV_RES_OK) return focus_changed;
 441              		.loc 1 459 71 view .LVU147
 442 00b4 FFF7FEFF 		bl	get_indev
 443              	.LVL52:
 459:Drivers/lvgl/src/core/lv_group.c ****     if(res != LV_RES_OK) return focus_changed;
 444              		.loc 1 459 20 discriminator 1 view .LVU148
 445 00b8 0E21     		movs	r1, #14
 459:Drivers/lvgl/src/core/lv_group.c ****     if(res != LV_RES_OK) return focus_changed;
 446              		.loc 1 459 71 view .LVU149
 447 00ba 0246     		mov	r2, r0
 459:Drivers/lvgl/src/core/lv_group.c ****     if(res != LV_RES_OK) return focus_changed;
 448              		.loc 1 459 20 discriminator 1 view .LVU150
 449 00bc 2046     		mov	r0, r4
 450 00be FFF7FEFF 		bl	lv_event_send
 451              	.LVL53:
 460:Drivers/lvgl/src/core/lv_group.c **** 
 452              		.loc 1 460 5 is_stmt 1 view .LVU151
 460:Drivers/lvgl/src/core/lv_group.c **** 
 453              		.loc 1 460 7 is_stmt 0 view .LVU152
 454 00c2 0128     		cmp	r0, #1
 455 00c4 EAD1     		bne	.L23
 462:Drivers/lvgl/src/core/lv_group.c **** 
 456              		.loc 1 462 5 is_stmt 1 view .LVU153
 457 00c6 F368     		ldr	r3, [r6, #12]
 458 00c8 1868     		ldr	r0, [r3]
 459              	.LVL54:
ARM GAS  /var/folders/lp/x54gwt890xv47sdkqj1k04q40000gn/T//ccpqBSpC.s 			page 20


 462:Drivers/lvgl/src/core/lv_group.c **** 
 460              		.loc 1 462 5 is_stmt 0 view .LVU154
 461 00ca FFF7FEFF 		bl	lv_obj_invalidate
 462              	.LVL55:
 464:Drivers/lvgl/src/core/lv_group.c ****     focus_changed = true;
 463              		.loc 1 464 5 is_stmt 1 view .LVU155
 464:Drivers/lvgl/src/core/lv_group.c ****     focus_changed = true;
 464              		.loc 1 464 13 is_stmt 0 view .LVU156
 465 00ce 3369     		ldr	r3, [r6, #16]
 464:Drivers/lvgl/src/core/lv_group.c ****     focus_changed = true;
 466              		.loc 1 464 7 view .LVU157
 467 00d0 0BB1     		cbz	r3, .L34
 464:Drivers/lvgl/src/core/lv_group.c ****     focus_changed = true;
 468              		.loc 1 464 25 is_stmt 1 discriminator 1 view .LVU158
 469 00d2 3046     		mov	r0, r6
 470 00d4 9847     		blx	r3
 471              	.LVL56:
 472              	.L34:
 466:Drivers/lvgl/src/core/lv_group.c **** }
 473              		.loc 1 466 12 is_stmt 0 view .LVU159
 474 00d6 0120     		movs	r0, #1
 475              	.LVL57:
 466:Drivers/lvgl/src/core/lv_group.c **** }
 476              		.loc 1 466 12 view .LVU160
 477 00d8 E1E7     		b	.L48
 478              	.LVL58:
 479              	.L54:
 480              	.LBB24:
 466:Drivers/lvgl/src/core/lv_group.c **** }
 481              		.loc 1 466 12 view .LVU161
 482 00da A946     		mov	r9, r5
 483 00dc 4FF0010A 		mov	r10, #1
 484 00e0 A5E7     		b	.L21
 485              	.LBE24:
 486              		.cfi_endproc
 487              	.LFE187:
 489 00e2 00BF     		.section	.text.lv_group_refocus,"ax",%progbits
 490              		.align	1
 491              		.p2align 2,,3
 492              		.syntax unified
 493              		.thumb
 494              		.thumb_func
 496              	lv_group_refocus:
 497              	.LVL59:
 498              	.LFB186:
 380:Drivers/lvgl/src/core/lv_group.c ****     /*Refocus must temporarily allow wrapping to work correctly*/
 499              		.loc 1 380 1 is_stmt 1 view -0
 500              		.cfi_startproc
 501              		@ args = 0, pretend = 0, frame = 0
 502              		@ frame_needed = 0, uses_anonymous_args = 0
 382:Drivers/lvgl/src/core/lv_group.c ****     g->wrap           = 1;
 503              		.loc 1 382 5 view .LVU163
 382:Drivers/lvgl/src/core/lv_group.c ****     g->wrap           = 1;
 504              		.loc 1 382 26 is_stmt 0 view .LVU164
 505 0000 027F     		ldrb	r2, [r0, #28]	@ zero_extendqisi2
 380:Drivers/lvgl/src/core/lv_group.c ****     /*Refocus must temporarily allow wrapping to work correctly*/
 506              		.loc 1 380 1 view .LVU165
ARM GAS  /var/folders/lp/x54gwt890xv47sdkqj1k04q40000gn/T//ccpqBSpC.s 			page 21


 507 0002 38B5     		push	{r3, r4, r5, lr}
 508              		.cfi_def_cfa_offset 16
 509              		.cfi_offset 3, -16
 510              		.cfi_offset 4, -12
 511              		.cfi_offset 5, -8
 512              		.cfi_offset 14, -4
 383:Drivers/lvgl/src/core/lv_group.c **** 
 513              		.loc 1 383 23 view .LVU166
 514 0004 42F00803 		orr	r3, r2, #8
 515 0008 0377     		strb	r3, [r0, #28]
 385:Drivers/lvgl/src/core/lv_group.c ****         lv_group_focus_next(g);
 516              		.loc 1 385 7 view .LVU167
 517 000a 5B07     		lsls	r3, r3, #29
 380:Drivers/lvgl/src/core/lv_group.c ****     /*Refocus must temporarily allow wrapping to work correctly*/
 518              		.loc 1 380 1 view .LVU168
 519 000c 0446     		mov	r4, r0
 382:Drivers/lvgl/src/core/lv_group.c ****     g->wrap           = 1;
 520              		.loc 1 382 26 view .LVU169
 521 000e C2F3C005 		ubfx	r5, r2, #3, #1
 522              	.LVL60:
 383:Drivers/lvgl/src/core/lv_group.c **** 
 523              		.loc 1 383 5 is_stmt 1 view .LVU170
 385:Drivers/lvgl/src/core/lv_group.c ****         lv_group_focus_next(g);
 524              		.loc 1 385 5 view .LVU171
 385:Drivers/lvgl/src/core/lv_group.c ****         lv_group_focus_next(g);
 525              		.loc 1 385 7 is_stmt 0 view .LVU172
 526 0012 0ED4     		bmi	.L59
 386:Drivers/lvgl/src/core/lv_group.c ****     else if(g->refocus_policy == LV_GROUP_REFOCUS_POLICY_PREV)
 527              		.loc 1 386 9 is_stmt 1 view .LVU173
 528              	.LVL61:
 529              	.LBB29:
 530              	.LBI29:
 267:Drivers/lvgl/src/core/lv_group.c **** {
 531              		.loc 1 267 6 view .LVU174
 532              	.LBB30:
 269:Drivers/lvgl/src/core/lv_group.c ****     if(group->edge_cb) {
 533              		.loc 1 269 5 view .LVU175
 269:Drivers/lvgl/src/core/lv_group.c ****     if(group->edge_cb) {
 534              		.loc 1 269 26 is_stmt 0 view .LVU176
 535 0014 0F4A     		ldr	r2, .L67
 536              	.LVL62:
 269:Drivers/lvgl/src/core/lv_group.c ****     if(group->edge_cb) {
 537              		.loc 1 269 26 view .LVU177
 538 0016 1049     		ldr	r1, .L67+4
 539 0018 FFF7FEFF 		bl	focus_next_core
 540              	.LVL63:
 270:Drivers/lvgl/src/core/lv_group.c ****         if(!focus_changed)
 541              		.loc 1 270 5 is_stmt 1 view .LVU178
 270:Drivers/lvgl/src/core/lv_group.c ****         if(!focus_changed)
 542              		.loc 1 270 13 is_stmt 0 view .LVU179
 543 001c 6369     		ldr	r3, [r4, #20]
 270:Drivers/lvgl/src/core/lv_group.c ****         if(!focus_changed)
 544              		.loc 1 270 7 view .LVU180
 545 001e 1BB1     		cbz	r3, .L61
 271:Drivers/lvgl/src/core/lv_group.c ****             group->edge_cb(group, true);
 546              		.loc 1 271 9 is_stmt 1 view .LVU181
 271:Drivers/lvgl/src/core/lv_group.c ****             group->edge_cb(group, true);
ARM GAS  /var/folders/lp/x54gwt890xv47sdkqj1k04q40000gn/T//ccpqBSpC.s 			page 22


 547              		.loc 1 271 11 is_stmt 0 view .LVU182
 548 0020 10B9     		cbnz	r0, .L61
 272:Drivers/lvgl/src/core/lv_group.c ****     }
 549              		.loc 1 272 13 is_stmt 1 view .LVU183
 550 0022 0121     		movs	r1, #1
 551 0024 2046     		mov	r0, r4
 552              	.LVL64:
 272:Drivers/lvgl/src/core/lv_group.c ****     }
 553              		.loc 1 272 13 is_stmt 0 view .LVU184
 554 0026 9847     		blx	r3
 555              	.LVL65:
 556              	.L61:
 272:Drivers/lvgl/src/core/lv_group.c ****     }
 557              		.loc 1 272 13 view .LVU185
 558              	.LBE30:
 559              	.LBE29:
 390:Drivers/lvgl/src/core/lv_group.c **** }
 560              		.loc 1 390 5 is_stmt 1 view .LVU186
 390:Drivers/lvgl/src/core/lv_group.c **** }
 561              		.loc 1 390 13 is_stmt 0 view .LVU187
 562 0028 237F     		ldrb	r3, [r4, #28]	@ zero_extendqisi2
 563 002a 65F3C303 		bfi	r3, r5, #3, #1
 564 002e 2377     		strb	r3, [r4, #28]
 391:Drivers/lvgl/src/core/lv_group.c **** 
 565              		.loc 1 391 1 view .LVU188
 566 0030 38BD     		pop	{r3, r4, r5, pc}
 567              	.LVL66:
 568              	.L59:
 387:Drivers/lvgl/src/core/lv_group.c ****         lv_group_focus_prev(g);
 569              		.loc 1 387 10 is_stmt 1 view .LVU189
 388:Drivers/lvgl/src/core/lv_group.c ****     /*Restore wrap property*/
 570              		.loc 1 388 9 view .LVU190
 571              	.LBB31:
 572              	.LBI31:
 276:Drivers/lvgl/src/core/lv_group.c **** {
 573              		.loc 1 276 6 view .LVU191
 574              	.LBB32:
 278:Drivers/lvgl/src/core/lv_group.c ****     if(group->edge_cb) {
 575              		.loc 1 278 5 view .LVU192
 278:Drivers/lvgl/src/core/lv_group.c ****     if(group->edge_cb) {
 576              		.loc 1 278 26 is_stmt 0 view .LVU193
 577 0032 0A4A     		ldr	r2, .L67+8
 578              	.LVL67:
 278:Drivers/lvgl/src/core/lv_group.c ****     if(group->edge_cb) {
 579              		.loc 1 278 26 view .LVU194
 580 0034 0A49     		ldr	r1, .L67+12
 581 0036 FFF7FEFF 		bl	focus_next_core
 582              	.LVL68:
 279:Drivers/lvgl/src/core/lv_group.c ****         if(!focus_changed)
 583              		.loc 1 279 5 is_stmt 1 view .LVU195
 279:Drivers/lvgl/src/core/lv_group.c ****         if(!focus_changed)
 584              		.loc 1 279 13 is_stmt 0 view .LVU196
 585 003a 6369     		ldr	r3, [r4, #20]
 279:Drivers/lvgl/src/core/lv_group.c ****         if(!focus_changed)
 586              		.loc 1 279 7 view .LVU197
 587 003c 002B     		cmp	r3, #0
 588 003e F3D0     		beq	.L61
ARM GAS  /var/folders/lp/x54gwt890xv47sdkqj1k04q40000gn/T//ccpqBSpC.s 			page 23


 280:Drivers/lvgl/src/core/lv_group.c ****             group->edge_cb(group, false);
 589              		.loc 1 280 9 is_stmt 1 view .LVU198
 280:Drivers/lvgl/src/core/lv_group.c ****             group->edge_cb(group, false);
 590              		.loc 1 280 11 is_stmt 0 view .LVU199
 591 0040 0028     		cmp	r0, #0
 592 0042 F1D1     		bne	.L61
 281:Drivers/lvgl/src/core/lv_group.c ****     }
 593              		.loc 1 281 13 is_stmt 1 view .LVU200
 594 0044 0146     		mov	r1, r0
 595 0046 2046     		mov	r0, r4
 596              	.LVL69:
 281:Drivers/lvgl/src/core/lv_group.c ****     }
 597              		.loc 1 281 13 is_stmt 0 view .LVU201
 598 0048 9847     		blx	r3
 599              	.LVL70:
 281:Drivers/lvgl/src/core/lv_group.c ****     }
 600              		.loc 1 281 13 view .LVU202
 601              	.LBE32:
 602              	.LBE31:
 390:Drivers/lvgl/src/core/lv_group.c **** }
 603              		.loc 1 390 5 is_stmt 1 view .LVU203
 390:Drivers/lvgl/src/core/lv_group.c **** }
 604              		.loc 1 390 13 is_stmt 0 view .LVU204
 605 004a 237F     		ldrb	r3, [r4, #28]	@ zero_extendqisi2
 606 004c 65F3C303 		bfi	r3, r5, #3, #1
 607 0050 2377     		strb	r3, [r4, #28]
 391:Drivers/lvgl/src/core/lv_group.c **** 
 608              		.loc 1 391 1 view .LVU205
 609 0052 38BD     		pop	{r3, r4, r5, pc}
 610              	.LVL71:
 611              	.L68:
 391:Drivers/lvgl/src/core/lv_group.c **** 
 612              		.loc 1 391 1 view .LVU206
 613              		.align	2
 614              	.L67:
 615 0054 00000000 		.word	_lv_ll_get_next
 616 0058 00000000 		.word	_lv_ll_get_head
 617 005c 00000000 		.word	_lv_ll_get_prev
 618 0060 00000000 		.word	_lv_ll_get_tail
 619              		.cfi_endproc
 620              	.LFE186:
 622              		.section	.text._lv_group_init,"ax",%progbits
 623              		.align	1
 624              		.p2align 2,,3
 625              		.global	_lv_group_init
 626              		.syntax unified
 627              		.thumb
 628              		.thumb_func
 630              	_lv_group_init:
 631              	.LFB161:
  46:Drivers/lvgl/src/core/lv_group.c ****     _lv_ll_init(&LV_GC_ROOT(_lv_group_ll), sizeof(lv_group_t));
 632              		.loc 1 46 1 is_stmt 1 view -0
 633              		.cfi_startproc
 634              		@ args = 0, pretend = 0, frame = 0
 635              		@ frame_needed = 0, uses_anonymous_args = 0
 636              		@ link register save eliminated.
  47:Drivers/lvgl/src/core/lv_group.c **** }
ARM GAS  /var/folders/lp/x54gwt890xv47sdkqj1k04q40000gn/T//ccpqBSpC.s 			page 24


 637              		.loc 1 47 5 view .LVU208
 638 0000 0148     		ldr	r0, .L70
 639 0002 2021     		movs	r1, #32
 640 0004 FFF7FEBF 		b	_lv_ll_init
 641              	.LVL72:
 642              	.L71:
 643              		.align	2
 644              	.L70:
 645 0008 00000000 		.word	_lv_group_ll
 646              		.cfi_endproc
 647              	.LFE161:
 649              		.section	.text.lv_group_create,"ax",%progbits
 650              		.align	1
 651              		.p2align 2,,3
 652              		.global	lv_group_create
 653              		.syntax unified
 654              		.thumb
 655              		.thumb_func
 657              	lv_group_create:
 658              	.LFB162:
  51:Drivers/lvgl/src/core/lv_group.c ****     lv_group_t * group = _lv_ll_ins_head(&LV_GC_ROOT(_lv_group_ll));
 659              		.loc 1 51 1 view -0
 660              		.cfi_startproc
 661              		@ args = 0, pretend = 0, frame = 0
 662              		@ frame_needed = 0, uses_anonymous_args = 0
  52:Drivers/lvgl/src/core/lv_group.c ****     LV_ASSERT_MALLOC(group);
 663              		.loc 1 52 5 view .LVU210
  51:Drivers/lvgl/src/core/lv_group.c ****     lv_group_t * group = _lv_ll_ins_head(&LV_GC_ROOT(_lv_group_ll));
 664              		.loc 1 51 1 is_stmt 0 view .LVU211
 665 0000 10B5     		push	{r4, lr}
 666              		.cfi_def_cfa_offset 8
 667              		.cfi_offset 4, -8
 668              		.cfi_offset 14, -4
  52:Drivers/lvgl/src/core/lv_group.c ****     LV_ASSERT_MALLOC(group);
 669              		.loc 1 52 26 view .LVU212
 670 0002 0B48     		ldr	r0, .L76
 671 0004 FFF7FEFF 		bl	_lv_ll_ins_head
 672              	.LVL73:
  53:Drivers/lvgl/src/core/lv_group.c ****     if(group == NULL) return NULL;
 673              		.loc 1 53 5 is_stmt 1 view .LVU213
  53:Drivers/lvgl/src/core/lv_group.c ****     if(group == NULL) return NULL;
 674              		.loc 1 53 5 view .LVU214
 675 0008 80B1     		cbz	r0, .L74
 676 000a 0446     		mov	r4, r0
  53:Drivers/lvgl/src/core/lv_group.c ****     if(group == NULL) return NULL;
 677              		.loc 1 53 5 discriminator 2 view .LVU215
  53:Drivers/lvgl/src/core/lv_group.c ****     if(group == NULL) return NULL;
 678              		.loc 1 53 28 discriminator 2 view .LVU216
  54:Drivers/lvgl/src/core/lv_group.c ****     _lv_ll_init(&group->obj_ll, sizeof(lv_obj_t *));
 679              		.loc 1 54 5 view .LVU217
  55:Drivers/lvgl/src/core/lv_group.c **** 
 680              		.loc 1 55 5 view .LVU218
 681 000c 0421     		movs	r1, #4
 682 000e FFF7FEFF 		bl	_lv_ll_init
 683              	.LVL74:
  57:Drivers/lvgl/src/core/lv_group.c ****     group->frozen         = 0;
 684              		.loc 1 57 5 view .LVU219
ARM GAS  /var/folders/lp/x54gwt890xv47sdkqj1k04q40000gn/T//ccpqBSpC.s 			page 25


  58:Drivers/lvgl/src/core/lv_group.c ****     group->focus_cb       = NULL;
 685              		.loc 1 58 5 view .LVU220
  59:Drivers/lvgl/src/core/lv_group.c ****     group->edge_cb        = NULL;
 686              		.loc 1 59 5 view .LVU221
  60:Drivers/lvgl/src/core/lv_group.c ****     group->editing        = 0;
 687              		.loc 1 60 5 view .LVU222
  61:Drivers/lvgl/src/core/lv_group.c ****     group->refocus_policy = LV_GROUP_REFOCUS_POLICY_PREV;
 688              		.loc 1 61 5 view .LVU223
  62:Drivers/lvgl/src/core/lv_group.c ****     group->wrap           = 1;
 689              		.loc 1 62 5 view .LVU224
  63:Drivers/lvgl/src/core/lv_group.c **** 
 690              		.loc 1 63 5 view .LVU225
  66:Drivers/lvgl/src/core/lv_group.c **** #endif
 691              		.loc 1 66 5 view .LVU226
  57:Drivers/lvgl/src/core/lv_group.c ****     group->frozen         = 0;
 692              		.loc 1 57 27 is_stmt 0 view .LVU227
 693 0012 0022     		movs	r2, #0
  58:Drivers/lvgl/src/core/lv_group.c ****     group->focus_cb       = NULL;
 694              		.loc 1 58 27 view .LVU228
 695 0014 237F     		ldrb	r3, [r4, #28]	@ zero_extendqisi2
  57:Drivers/lvgl/src/core/lv_group.c ****     group->frozen         = 0;
 696              		.loc 1 57 27 view .LVU229
 697 0016 E260     		str	r2, [r4, #12]
  59:Drivers/lvgl/src/core/lv_group.c ****     group->edge_cb        = NULL;
 698              		.loc 1 59 27 view .LVU230
 699 0018 C4E90422 		strd	r2, r2, [r4, #16]
  58:Drivers/lvgl/src/core/lv_group.c ****     group->focus_cb       = NULL;
 700              		.loc 1 58 27 view .LVU231
 701 001c 23F00F03 		bic	r3, r3, #15
 702 0020 43F00C03 		orr	r3, r3, #12
  66:Drivers/lvgl/src/core/lv_group.c **** #endif
 703              		.loc 1 66 22 view .LVU232
 704 0024 A261     		str	r2, [r4, #24]
  58:Drivers/lvgl/src/core/lv_group.c ****     group->focus_cb       = NULL;
 705              		.loc 1 58 27 view .LVU233
 706 0026 2377     		strb	r3, [r4, #28]
  69:Drivers/lvgl/src/core/lv_group.c **** }
 707              		.loc 1 69 5 is_stmt 1 view .LVU234
  70:Drivers/lvgl/src/core/lv_group.c **** 
 708              		.loc 1 70 1 is_stmt 0 view .LVU235
 709 0028 2046     		mov	r0, r4
 710 002a 10BD     		pop	{r4, pc}
 711              	.LVL75:
 712              	.L74:
  53:Drivers/lvgl/src/core/lv_group.c ****     if(group == NULL) return NULL;
 713              		.loc 1 53 5 is_stmt 1 discriminator 1 view .LVU236
  53:Drivers/lvgl/src/core/lv_group.c ****     if(group == NULL) return NULL;
 714              		.loc 1 53 5 discriminator 1 view .LVU237
  53:Drivers/lvgl/src/core/lv_group.c ****     if(group == NULL) return NULL;
 715              		.loc 1 53 5 discriminator 1 view .LVU238
  53:Drivers/lvgl/src/core/lv_group.c ****     if(group == NULL) return NULL;
 716              		.loc 1 53 5 discriminator 1 view .LVU239
  53:Drivers/lvgl/src/core/lv_group.c ****     if(group == NULL) return NULL;
 717              		.loc 1 53 5 discriminator 1 view .LVU240
  53:Drivers/lvgl/src/core/lv_group.c ****     if(group == NULL) return NULL;
 718              		.loc 1 53 5 discriminator 1 view .LVU241
  53:Drivers/lvgl/src/core/lv_group.c ****     if(group == NULL) return NULL;
ARM GAS  /var/folders/lp/x54gwt890xv47sdkqj1k04q40000gn/T//ccpqBSpC.s 			page 26


 719              		.loc 1 53 5 discriminator 1 view .LVU242
  53:Drivers/lvgl/src/core/lv_group.c ****     if(group == NULL) return NULL;
 720              		.loc 1 53 5 discriminator 1 view .LVU243
  53:Drivers/lvgl/src/core/lv_group.c ****     if(group == NULL) return NULL;
 721              		.loc 1 53 5 discriminator 1 view .LVU244
  53:Drivers/lvgl/src/core/lv_group.c ****     if(group == NULL) return NULL;
 722              		.loc 1 53 5 discriminator 1 view .LVU245
 723 002c FEE7     		b	.L74
 724              	.L77:
 725 002e 00BF     		.align	2
 726              	.L76:
 727 0030 00000000 		.word	_lv_group_ll
 728              		.cfi_endproc
 729              	.LFE162:
 731              		.section	.text.lv_group_del,"ax",%progbits
 732              		.align	1
 733              		.p2align 2,,3
 734              		.global	lv_group_del
 735              		.syntax unified
 736              		.thumb
 737              		.thumb_func
 739              	lv_group_del:
 740              	.LVL76:
 741              	.LFB163:
  73:Drivers/lvgl/src/core/lv_group.c ****     /*Defocus the currently focused object*/
 742              		.loc 1 73 1 view -0
 743              		.cfi_startproc
 744              		@ args = 0, pretend = 0, frame = 8
 745              		@ frame_needed = 0, uses_anonymous_args = 0
  75:Drivers/lvgl/src/core/lv_group.c ****         lv_event_send(*group->obj_focus, LV_EVENT_DEFOCUSED, get_indev(group));
 746              		.loc 1 75 5 view .LVU247
  73:Drivers/lvgl/src/core/lv_group.c ****     /*Defocus the currently focused object*/
 747              		.loc 1 73 1 is_stmt 0 view .LVU248
 748 0000 30B5     		push	{r4, r5, lr}
 749              		.cfi_def_cfa_offset 12
 750              		.cfi_offset 4, -12
 751              		.cfi_offset 5, -8
 752              		.cfi_offset 14, -4
  75:Drivers/lvgl/src/core/lv_group.c ****         lv_event_send(*group->obj_focus, LV_EVENT_DEFOCUSED, get_indev(group));
 753              		.loc 1 75 13 view .LVU249
 754 0002 C368     		ldr	r3, [r0, #12]
  73:Drivers/lvgl/src/core/lv_group.c ****     /*Defocus the currently focused object*/
 755              		.loc 1 73 1 view .LVU250
 756 0004 83B0     		sub	sp, sp, #12
 757              		.cfi_def_cfa_offset 24
  73:Drivers/lvgl/src/core/lv_group.c ****     /*Defocus the currently focused object*/
 758              		.loc 1 73 1 view .LVU251
 759 0006 0446     		mov	r4, r0
  75:Drivers/lvgl/src/core/lv_group.c ****         lv_event_send(*group->obj_focus, LV_EVENT_DEFOCUSED, get_indev(group));
 760              		.loc 1 75 7 view .LVU252
 761 0008 5BB1     		cbz	r3, .L79
  76:Drivers/lvgl/src/core/lv_group.c ****         lv_obj_invalidate(*group->obj_focus);
 762              		.loc 1 76 9 is_stmt 1 view .LVU253
 763 000a 1D68     		ldr	r5, [r3]
  76:Drivers/lvgl/src/core/lv_group.c ****         lv_obj_invalidate(*group->obj_focus);
 764              		.loc 1 76 62 is_stmt 0 view .LVU254
 765 000c FFF7FEFF 		bl	get_indev
ARM GAS  /var/folders/lp/x54gwt890xv47sdkqj1k04q40000gn/T//ccpqBSpC.s 			page 27


 766              	.LVL77:
  76:Drivers/lvgl/src/core/lv_group.c ****         lv_obj_invalidate(*group->obj_focus);
 767              		.loc 1 76 9 discriminator 1 view .LVU255
 768 0010 0F21     		movs	r1, #15
  76:Drivers/lvgl/src/core/lv_group.c ****         lv_obj_invalidate(*group->obj_focus);
 769              		.loc 1 76 62 view .LVU256
 770 0012 0246     		mov	r2, r0
  76:Drivers/lvgl/src/core/lv_group.c ****         lv_obj_invalidate(*group->obj_focus);
 771              		.loc 1 76 9 discriminator 1 view .LVU257
 772 0014 2846     		mov	r0, r5
 773 0016 FFF7FEFF 		bl	lv_event_send
 774              	.LVL78:
  77:Drivers/lvgl/src/core/lv_group.c ****     }
 775              		.loc 1 77 9 is_stmt 1 view .LVU258
 776 001a E368     		ldr	r3, [r4, #12]
 777 001c 1868     		ldr	r0, [r3]
 778 001e FFF7FEFF 		bl	lv_obj_invalidate
 779              	.LVL79:
 780              	.L79:
  81:Drivers/lvgl/src/core/lv_group.c ****     _LV_LL_READ(&group->obj_ll, obj) {
 781              		.loc 1 81 5 view .LVU259
  82:Drivers/lvgl/src/core/lv_group.c ****         if((*obj)->spec_attr)(*obj)->spec_attr->group_p = NULL;
 782              		.loc 1 82 5 view .LVU260
 783 0022 2046     		mov	r0, r4
 784 0024 FFF7FEFF 		bl	_lv_ll_get_head
 785              	.LVL80:
  82:Drivers/lvgl/src/core/lv_group.c ****         if((*obj)->spec_attr)(*obj)->spec_attr->group_p = NULL;
 786              		.loc 1 82 5 discriminator 1 view .LVU261
 787 0028 0146     		mov	r1, r0
 788 002a 50B1     		cbz	r0, .L80
  83:Drivers/lvgl/src/core/lv_group.c ****     }
 789              		.loc 1 83 57 is_stmt 0 discriminator 1 view .LVU262
 790 002c 0025     		movs	r5, #0
 791              	.L82:
  83:Drivers/lvgl/src/core/lv_group.c ****     }
 792              		.loc 1 83 9 is_stmt 1 view .LVU263
  83:Drivers/lvgl/src/core/lv_group.c ****     }
 793              		.loc 1 83 30 discriminator 1 view .LVU264
  82:Drivers/lvgl/src/core/lv_group.c ****         if((*obj)->spec_attr)(*obj)->spec_attr->group_p = NULL;
 794              		.loc 1 82 5 discriminator 2 view .LVU265
  83:Drivers/lvgl/src/core/lv_group.c ****     }
 795              		.loc 1 83 18 is_stmt 0 view .LVU266
 796 002e 0B68     		ldr	r3, [r1]
 797 0030 9B68     		ldr	r3, [r3, #8]
  82:Drivers/lvgl/src/core/lv_group.c ****         if((*obj)->spec_attr)(*obj)->spec_attr->group_p = NULL;
 798              		.loc 1 82 5 discriminator 2 view .LVU267
 799 0032 2046     		mov	r0, r4
 800              	.LVL81:
  83:Drivers/lvgl/src/core/lv_group.c ****     }
 801              		.loc 1 83 11 view .LVU268
 802 0034 03B1     		cbz	r3, .L81
 803              	.LVL82:
  83:Drivers/lvgl/src/core/lv_group.c ****     }
 804              		.loc 1 83 57 discriminator 1 view .LVU269
 805 0036 9D60     		str	r5, [r3, #8]
 806              	.L81:
  82:Drivers/lvgl/src/core/lv_group.c ****         if((*obj)->spec_attr)(*obj)->spec_attr->group_p = NULL;
ARM GAS  /var/folders/lp/x54gwt890xv47sdkqj1k04q40000gn/T//ccpqBSpC.s 			page 28


 807              		.loc 1 82 5 discriminator 2 view .LVU270
 808 0038 FFF7FEFF 		bl	_lv_ll_get_next
 809              	.LVL83:
  82:Drivers/lvgl/src/core/lv_group.c ****         if((*obj)->spec_attr)(*obj)->spec_attr->group_p = NULL;
 810              		.loc 1 82 5 is_stmt 1 discriminator 1 view .LVU271
 811 003c 0146     		mov	r1, r0
 812 003e 0028     		cmp	r0, #0
 813 0040 F5D1     		bne	.L82
 814              	.L80:
  87:Drivers/lvgl/src/core/lv_group.c ****     while(indev) {
 815              		.loc 1 87 5 view .LVU272
  87:Drivers/lvgl/src/core/lv_group.c ****     while(indev) {
 816              		.loc 1 87 26 is_stmt 0 view .LVU273
 817 0042 0020     		movs	r0, #0
 818              	.LVL84:
 819              	.L102:
  87:Drivers/lvgl/src/core/lv_group.c ****     while(indev) {
 820              		.loc 1 87 26 view .LVU274
 821 0044 FFF7FEFF 		bl	lv_indev_get_next
 822              	.LVL85:
  88:Drivers/lvgl/src/core/lv_group.c ****         if(indev->group == group) {
 823              		.loc 1 88 5 is_stmt 1 view .LVU275
  88:Drivers/lvgl/src/core/lv_group.c ****         if(indev->group == group) {
 824              		.loc 1 88 11 view .LVU276
 825 0048 58B1     		cbz	r0, .L83
 826              	.L103:
  89:Drivers/lvgl/src/core/lv_group.c ****             lv_indev_set_group(indev, NULL);
 827              		.loc 1 89 9 view .LVU277
  89:Drivers/lvgl/src/core/lv_group.c ****             lv_indev_set_group(indev, NULL);
 828              		.loc 1 89 11 is_stmt 0 view .LVU278
 829 004a 436D     		ldr	r3, [r0, #84]
 830 004c A342     		cmp	r3, r4
 831 004e F9D1     		bne	.L102
  90:Drivers/lvgl/src/core/lv_group.c ****         }
 832              		.loc 1 90 13 is_stmt 1 view .LVU279
 833 0050 0021     		movs	r1, #0
 834 0052 0190     		str	r0, [sp, #4]
 835 0054 FFF7FEFF 		bl	lv_indev_set_group
 836              	.LVL86:
  90:Drivers/lvgl/src/core/lv_group.c ****         }
 837              		.loc 1 90 13 is_stmt 0 view .LVU280
 838 0058 0198     		ldr	r0, [sp, #4]
  87:Drivers/lvgl/src/core/lv_group.c ****     while(indev) {
 839              		.loc 1 87 26 view .LVU281
 840 005a FFF7FEFF 		bl	lv_indev_get_next
 841              	.LVL87:
  88:Drivers/lvgl/src/core/lv_group.c ****         if(indev->group == group) {
 842              		.loc 1 88 5 is_stmt 1 view .LVU282
  88:Drivers/lvgl/src/core/lv_group.c ****         if(indev->group == group) {
 843              		.loc 1 88 11 view .LVU283
 844 005e 0028     		cmp	r0, #0
 845 0060 F3D1     		bne	.L103
 846              	.L83:
  95:Drivers/lvgl/src/core/lv_group.c ****     _lv_ll_clear(&(group->obj_ll));
 847              		.loc 1 95 5 view .LVU284
  95:Drivers/lvgl/src/core/lv_group.c ****     _lv_ll_clear(&(group->obj_ll));
 848              		.loc 1 95 22 is_stmt 0 view .LVU285
ARM GAS  /var/folders/lp/x54gwt890xv47sdkqj1k04q40000gn/T//ccpqBSpC.s 			page 29


 849 0062 0A4B     		ldr	r3, .L104
  95:Drivers/lvgl/src/core/lv_group.c ****     _lv_ll_clear(&(group->obj_ll));
 850              		.loc 1 95 7 view .LVU286
 851 0064 1A68     		ldr	r2, [r3]
 852 0066 A242     		cmp	r2, r4
  95:Drivers/lvgl/src/core/lv_group.c ****     _lv_ll_clear(&(group->obj_ll));
 853              		.loc 1 95 32 is_stmt 1 discriminator 1 view .LVU287
  95:Drivers/lvgl/src/core/lv_group.c ****     _lv_ll_clear(&(group->obj_ll));
 854              		.loc 1 95 46 is_stmt 0 discriminator 1 view .LVU288
 855 0068 08BF     		it	eq
 856 006a 0022     		moveq	r2, #0
  96:Drivers/lvgl/src/core/lv_group.c ****     _lv_ll_remove(&LV_GC_ROOT(_lv_group_ll), group);
 857              		.loc 1 96 5 view .LVU289
 858 006c 2046     		mov	r0, r4
 859              	.LVL88:
  95:Drivers/lvgl/src/core/lv_group.c ****     _lv_ll_clear(&(group->obj_ll));
 860              		.loc 1 95 46 discriminator 1 view .LVU290
 861 006e 08BF     		it	eq
 862 0070 1A60     		streq	r2, [r3]
  96:Drivers/lvgl/src/core/lv_group.c ****     _lv_ll_remove(&LV_GC_ROOT(_lv_group_ll), group);
 863              		.loc 1 96 5 is_stmt 1 view .LVU291
 864 0072 FFF7FEFF 		bl	_lv_ll_clear
 865              	.LVL89:
  97:Drivers/lvgl/src/core/lv_group.c ****     lv_mem_free(group);
 866              		.loc 1 97 5 view .LVU292
 867 0076 0648     		ldr	r0, .L104+4
 868 0078 2146     		mov	r1, r4
 869 007a FFF7FEFF 		bl	_lv_ll_remove
 870              	.LVL90:
  98:Drivers/lvgl/src/core/lv_group.c **** }
 871              		.loc 1 98 5 view .LVU293
 872 007e 2046     		mov	r0, r4
  99:Drivers/lvgl/src/core/lv_group.c **** 
 873              		.loc 1 99 1 is_stmt 0 view .LVU294
 874 0080 03B0     		add	sp, sp, #12
 875              		.cfi_def_cfa_offset 12
 876              		@ sp needed
 877 0082 BDE83040 		pop	{r4, r5, lr}
 878              		.cfi_restore 14
 879              		.cfi_restore 5
 880              		.cfi_restore 4
 881              		.cfi_def_cfa_offset 0
 882              	.LVL91:
  98:Drivers/lvgl/src/core/lv_group.c **** }
 883              		.loc 1 98 5 view .LVU295
 884 0086 FFF7FEBF 		b	lv_mem_free
 885              	.LVL92:
 886              	.L105:
  98:Drivers/lvgl/src/core/lv_group.c **** }
 887              		.loc 1 98 5 view .LVU296
 888 008a 00BF     		.align	2
 889              	.L104:
 890 008c 00000000 		.word	default_group
 891 0090 00000000 		.word	_lv_group_ll
 892              		.cfi_endproc
 893              	.LFE163:
 895              		.section	.text.lv_group_set_default,"ax",%progbits
ARM GAS  /var/folders/lp/x54gwt890xv47sdkqj1k04q40000gn/T//ccpqBSpC.s 			page 30


 896              		.align	1
 897              		.p2align 2,,3
 898              		.global	lv_group_set_default
 899              		.syntax unified
 900              		.thumb
 901              		.thumb_func
 903              	lv_group_set_default:
 904              	.LVL93:
 905              	.LFB164:
 102:Drivers/lvgl/src/core/lv_group.c ****     default_group = group;
 906              		.loc 1 102 1 is_stmt 1 view -0
 907              		.cfi_startproc
 908              		@ args = 0, pretend = 0, frame = 0
 909              		@ frame_needed = 0, uses_anonymous_args = 0
 910              		@ link register save eliminated.
 103:Drivers/lvgl/src/core/lv_group.c **** }
 911              		.loc 1 103 5 view .LVU298
 103:Drivers/lvgl/src/core/lv_group.c **** }
 912              		.loc 1 103 19 is_stmt 0 view .LVU299
 913 0000 014B     		ldr	r3, .L107
 914 0002 1860     		str	r0, [r3]
 104:Drivers/lvgl/src/core/lv_group.c **** 
 915              		.loc 1 104 1 view .LVU300
 916 0004 7047     		bx	lr
 917              	.L108:
 918 0006 00BF     		.align	2
 919              	.L107:
 920 0008 00000000 		.word	default_group
 921              		.cfi_endproc
 922              	.LFE164:
 924              		.section	.text.lv_group_get_default,"ax",%progbits
 925              		.align	1
 926              		.p2align 2,,3
 927              		.global	lv_group_get_default
 928              		.syntax unified
 929              		.thumb
 930              		.thumb_func
 932              	lv_group_get_default:
 933              	.LFB165:
 107:Drivers/lvgl/src/core/lv_group.c ****     return default_group;
 934              		.loc 1 107 1 is_stmt 1 view -0
 935              		.cfi_startproc
 936              		@ args = 0, pretend = 0, frame = 0
 937              		@ frame_needed = 0, uses_anonymous_args = 0
 938              		@ link register save eliminated.
 108:Drivers/lvgl/src/core/lv_group.c **** }
 939              		.loc 1 108 5 view .LVU302
 108:Drivers/lvgl/src/core/lv_group.c **** }
 940              		.loc 1 108 12 is_stmt 0 view .LVU303
 941 0000 014B     		ldr	r3, .L110
 109:Drivers/lvgl/src/core/lv_group.c **** 
 942              		.loc 1 109 1 view .LVU304
 943 0002 1868     		ldr	r0, [r3]
 944 0004 7047     		bx	lr
 945              	.L111:
 946 0006 00BF     		.align	2
 947              	.L110:
ARM GAS  /var/folders/lp/x54gwt890xv47sdkqj1k04q40000gn/T//ccpqBSpC.s 			page 31


 948 0008 00000000 		.word	default_group
 949              		.cfi_endproc
 950              	.LFE165:
 952              		.section	.text.lv_group_remove_obj,"ax",%progbits
 953              		.align	1
 954              		.p2align 2,,3
 955              		.global	lv_group_remove_obj
 956              		.syntax unified
 957              		.thumb
 958              		.thumb_func
 960              	lv_group_remove_obj:
 961              	.LVL94:
 962              	.LFB168:
 176:Drivers/lvgl/src/core/lv_group.c ****     lv_group_t * g = lv_obj_get_group(obj);
 963              		.loc 1 176 1 is_stmt 1 view -0
 964              		.cfi_startproc
 965              		@ args = 0, pretend = 0, frame = 8
 966              		@ frame_needed = 0, uses_anonymous_args = 0
 177:Drivers/lvgl/src/core/lv_group.c ****     if(g == NULL) return;
 967              		.loc 1 177 5 view .LVU306
 176:Drivers/lvgl/src/core/lv_group.c ****     lv_group_t * g = lv_obj_get_group(obj);
 968              		.loc 1 176 1 is_stmt 0 view .LVU307
 969 0000 70B5     		push	{r4, r5, r6, lr}
 970              		.cfi_def_cfa_offset 16
 971              		.cfi_offset 4, -16
 972              		.cfi_offset 5, -12
 973              		.cfi_offset 6, -8
 974              		.cfi_offset 14, -4
 975 0002 82B0     		sub	sp, sp, #8
 976              		.cfi_def_cfa_offset 24
 176:Drivers/lvgl/src/core/lv_group.c ****     lv_group_t * g = lv_obj_get_group(obj);
 977              		.loc 1 176 1 view .LVU308
 978 0004 0546     		mov	r5, r0
 177:Drivers/lvgl/src/core/lv_group.c ****     if(g == NULL) return;
 979              		.loc 1 177 22 view .LVU309
 980 0006 FFF7FEFF 		bl	lv_obj_get_group
 981              	.LVL95:
 178:Drivers/lvgl/src/core/lv_group.c **** 
 982              		.loc 1 178 5 is_stmt 1 view .LVU310
 178:Drivers/lvgl/src/core/lv_group.c **** 
 983              		.loc 1 178 7 is_stmt 0 view .LVU311
 984 000a F0B1     		cbz	r0, .L112
 180:Drivers/lvgl/src/core/lv_group.c **** 
 985              		.loc 1 180 5 is_stmt 1 view .LVU312
 180:Drivers/lvgl/src/core/lv_group.c **** 
 986              		.loc 1 180 5 view .LVU313
 180:Drivers/lvgl/src/core/lv_group.c **** 
 987              		.loc 1 180 5 view .LVU314
 183:Drivers/lvgl/src/core/lv_group.c ****         if(g->frozen) g->frozen = 0;
 988              		.loc 1 183 5 view .LVU315
 183:Drivers/lvgl/src/core/lv_group.c ****         if(g->frozen) g->frozen = 0;
 989              		.loc 1 183 9 is_stmt 0 view .LVU316
 990 000c C368     		ldr	r3, [r0, #12]
 991 000e 0446     		mov	r4, r0
 183:Drivers/lvgl/src/core/lv_group.c ****         if(g->frozen) g->frozen = 0;
 992              		.loc 1 183 7 view .LVU317
 993 0010 13B1     		cbz	r3, .L116
ARM GAS  /var/folders/lp/x54gwt890xv47sdkqj1k04q40000gn/T//ccpqBSpC.s 			page 32


 183:Drivers/lvgl/src/core/lv_group.c ****         if(g->frozen) g->frozen = 0;
 994              		.loc 1 183 21 discriminator 1 view .LVU318
 995 0012 1B68     		ldr	r3, [r3]
 996 0014 AB42     		cmp	r3, r5
 997 0016 1AD0     		beq	.L138
 998              	.LVL96:
 999              	.L116:
 204:Drivers/lvgl/src/core/lv_group.c ****     _LV_LL_READ(&g->obj_ll, i) {
 1000              		.loc 1 204 5 is_stmt 1 view .LVU319
 205:Drivers/lvgl/src/core/lv_group.c ****         if(*i == obj) {
 1001              		.loc 1 205 5 view .LVU320
 1002 0018 2046     		mov	r0, r4
 1003 001a FFF7FEFF 		bl	_lv_ll_get_head
 1004              	.LVL97:
 205:Drivers/lvgl/src/core/lv_group.c ****         if(*i == obj) {
 1005              		.loc 1 205 5 discriminator 1 view .LVU321
 1006 001e 0146     		mov	r1, r0
 1007 0020 20B9     		cbnz	r0, .L123
 1008 0022 12E0     		b	.L112
 1009              	.LVL98:
 1010              	.L122:
 205:Drivers/lvgl/src/core/lv_group.c ****         if(*i == obj) {
 1011              		.loc 1 205 5 is_stmt 0 discriminator 2 view .LVU322
 1012 0024 FFF7FEFF 		bl	_lv_ll_get_next
 1013              	.LVL99:
 205:Drivers/lvgl/src/core/lv_group.c ****         if(*i == obj) {
 1014              		.loc 1 205 5 is_stmt 1 discriminator 1 view .LVU323
 1015 0028 0146     		mov	r1, r0
 1016 002a 70B1     		cbz	r0, .L112
 1017              	.L123:
 206:Drivers/lvgl/src/core/lv_group.c ****             _lv_ll_remove(&g->obj_ll, i);
 1018              		.loc 1 206 9 view .LVU324
 205:Drivers/lvgl/src/core/lv_group.c ****         if(*i == obj) {
 1019              		.loc 1 205 5 discriminator 2 view .LVU325
 206:Drivers/lvgl/src/core/lv_group.c ****             _lv_ll_remove(&g->obj_ll, i);
 1020              		.loc 1 206 11 is_stmt 0 view .LVU326
 1021 002c 0B68     		ldr	r3, [r1]
 1022 002e AB42     		cmp	r3, r5
 205:Drivers/lvgl/src/core/lv_group.c ****         if(*i == obj) {
 1023              		.loc 1 205 5 discriminator 2 view .LVU327
 1024 0030 2046     		mov	r0, r4
 1025              	.LVL100:
 206:Drivers/lvgl/src/core/lv_group.c ****             _lv_ll_remove(&g->obj_ll, i);
 1026              		.loc 1 206 11 view .LVU328
 1027 0032 F7D1     		bne	.L122
 1028              	.LVL101:
 207:Drivers/lvgl/src/core/lv_group.c ****             lv_mem_free(i);
 1029              		.loc 1 207 13 is_stmt 1 view .LVU329
 1030 0034 0191     		str	r1, [sp, #4]
 1031 0036 FFF7FEFF 		bl	_lv_ll_remove
 1032              	.LVL102:
 208:Drivers/lvgl/src/core/lv_group.c ****             if(obj->spec_attr) obj->spec_attr->group_p = NULL;
 1033              		.loc 1 208 13 view .LVU330
 1034 003a 0199     		ldr	r1, [sp, #4]
 1035 003c 0846     		mov	r0, r1
 1036 003e FFF7FEFF 		bl	lv_mem_free
 1037              	.LVL103:
ARM GAS  /var/folders/lp/x54gwt890xv47sdkqj1k04q40000gn/T//ccpqBSpC.s 			page 33


 209:Drivers/lvgl/src/core/lv_group.c ****             break;
 1038              		.loc 1 209 13 view .LVU331
 209:Drivers/lvgl/src/core/lv_group.c ****             break;
 1039              		.loc 1 209 19 is_stmt 0 view .LVU332
 1040 0042 AB68     		ldr	r3, [r5, #8]
 209:Drivers/lvgl/src/core/lv_group.c ****             break;
 1041              		.loc 1 209 15 view .LVU333
 1042 0044 0BB1     		cbz	r3, .L112
 209:Drivers/lvgl/src/core/lv_group.c ****             break;
 1043              		.loc 1 209 32 is_stmt 1 discriminator 1 view .LVU334
 209:Drivers/lvgl/src/core/lv_group.c ****             break;
 1044              		.loc 1 209 56 is_stmt 0 discriminator 1 view .LVU335
 1045 0046 0022     		movs	r2, #0
 1046 0048 9A60     		str	r2, [r3, #8]
 1047              	.LVL104:
 1048              	.L112:
 214:Drivers/lvgl/src/core/lv_group.c **** 
 1049              		.loc 1 214 1 view .LVU336
 1050 004a 02B0     		add	sp, sp, #8
 1051              		.cfi_remember_state
 1052              		.cfi_def_cfa_offset 16
 1053              		@ sp needed
 1054 004c 70BD     		pop	{r4, r5, r6, pc}
 1055              	.LVL105:
 1056              	.L138:
 1057              		.cfi_restore_state
 184:Drivers/lvgl/src/core/lv_group.c **** 
 1058              		.loc 1 184 9 is_stmt 1 view .LVU337
 184:Drivers/lvgl/src/core/lv_group.c **** 
 1059              		.loc 1 184 12 is_stmt 0 view .LVU338
 1060 004e 037F     		ldrb	r3, [r0, #28]	@ zero_extendqisi2
 184:Drivers/lvgl/src/core/lv_group.c **** 
 1061              		.loc 1 184 11 view .LVU339
 1062 0050 DA07     		lsls	r2, r3, #31
 184:Drivers/lvgl/src/core/lv_group.c **** 
 1063              		.loc 1 184 23 is_stmt 1 discriminator 1 view .LVU340
 187:Drivers/lvgl/src/core/lv_group.c ****             lv_event_send(*g->obj_focus, LV_EVENT_DEFOCUSED, get_indev(g));
 1064              		.loc 1 187 9 view .LVU341
 184:Drivers/lvgl/src/core/lv_group.c **** 
 1065              		.loc 1 184 33 is_stmt 0 discriminator 1 view .LVU342
 1066 0052 44BF     		itt	mi
 1067 0054 23F00103 		bicmi	r3, r3, #1
 1068 0058 0377     		strbmi	r3, [r0, #28]
 187:Drivers/lvgl/src/core/lv_group.c ****             lv_event_send(*g->obj_focus, LV_EVENT_DEFOCUSED, get_indev(g));
 1069              		.loc 1 187 12 view .LVU343
 1070 005a FFF7FEFF 		bl	_lv_ll_get_head
 1071              	.LVL106:
 187:Drivers/lvgl/src/core/lv_group.c ****             lv_event_send(*g->obj_focus, LV_EVENT_DEFOCUSED, get_indev(g));
 1072              		.loc 1 187 11 discriminator 1 view .LVU344
 1073 005e E368     		ldr	r3, [r4, #12]
 1074 0060 8342     		cmp	r3, r0
 1075 0062 0BD0     		beq	.L139
 1076              	.L119:
 192:Drivers/lvgl/src/core/lv_group.c ****         }
 1077              		.loc 1 192 13 is_stmt 1 view .LVU345
 1078 0064 2046     		mov	r0, r4
 1079 0066 FFF7FEFF 		bl	lv_group_refocus
ARM GAS  /var/folders/lp/x54gwt890xv47sdkqj1k04q40000gn/T//ccpqBSpC.s 			page 34


 1080              	.LVL107:
 1081              	.L120:
 199:Drivers/lvgl/src/core/lv_group.c ****         g->obj_focus = NULL;
 1082              		.loc 1 199 5 view .LVU346
 199:Drivers/lvgl/src/core/lv_group.c ****         g->obj_focus = NULL;
 1083              		.loc 1 199 9 is_stmt 0 view .LVU347
 1084 006a E368     		ldr	r3, [r4, #12]
 199:Drivers/lvgl/src/core/lv_group.c ****         g->obj_focus = NULL;
 1085              		.loc 1 199 7 view .LVU348
 1086 006c 002B     		cmp	r3, #0
 1087 006e D3D0     		beq	.L116
 199:Drivers/lvgl/src/core/lv_group.c ****         g->obj_focus = NULL;
 1088              		.loc 1 199 21 discriminator 1 view .LVU349
 1089 0070 1B68     		ldr	r3, [r3]
 1090 0072 AB42     		cmp	r3, r5
 200:Drivers/lvgl/src/core/lv_group.c ****     }
 1091              		.loc 1 200 9 is_stmt 1 view .LVU350
 200:Drivers/lvgl/src/core/lv_group.c ****     }
 1092              		.loc 1 200 22 is_stmt 0 view .LVU351
 1093 0074 04BF     		itt	eq
 1094 0076 0023     		moveq	r3, #0
 1095 0078 E360     		streq	r3, [r4, #12]
 1096 007a CDE7     		b	.L116
 1097              	.L139:
 187:Drivers/lvgl/src/core/lv_group.c ****             lv_event_send(*g->obj_focus, LV_EVENT_DEFOCUSED, get_indev(g));
 1098              		.loc 1 187 59 discriminator 1 view .LVU352
 1099 007c 2046     		mov	r0, r4
 1100 007e FFF7FEFF 		bl	_lv_ll_get_tail
 1101              	.LVL108:
 187:Drivers/lvgl/src/core/lv_group.c ****             lv_event_send(*g->obj_focus, LV_EVENT_DEFOCUSED, get_indev(g));
 1102              		.loc 1 187 91 discriminator 1 view .LVU353
 1103 0082 E268     		ldr	r2, [r4, #12]
 187:Drivers/lvgl/src/core/lv_group.c ****             lv_event_send(*g->obj_focus, LV_EVENT_DEFOCUSED, get_indev(g));
 1104              		.loc 1 187 56 discriminator 1 view .LVU354
 1105 0084 9042     		cmp	r0, r2
 187:Drivers/lvgl/src/core/lv_group.c ****             lv_event_send(*g->obj_focus, LV_EVENT_DEFOCUSED, get_indev(g));
 1106              		.loc 1 187 59 discriminator 1 view .LVU355
 1107 0086 0346     		mov	r3, r0
 187:Drivers/lvgl/src/core/lv_group.c ****             lv_event_send(*g->obj_focus, LV_EVENT_DEFOCUSED, get_indev(g));
 1108              		.loc 1 187 56 discriminator 1 view .LVU356
 1109 0088 ECD1     		bne	.L119
 188:Drivers/lvgl/src/core/lv_group.c ****         }
 1110              		.loc 1 188 13 is_stmt 1 view .LVU357
 188:Drivers/lvgl/src/core/lv_group.c ****         }
 1111              		.loc 1 188 62 is_stmt 0 view .LVU358
 1112 008a 2046     		mov	r0, r4
 188:Drivers/lvgl/src/core/lv_group.c ****         }
 1113              		.loc 1 188 13 view .LVU359
 1114 008c 1E68     		ldr	r6, [r3]
 188:Drivers/lvgl/src/core/lv_group.c ****         }
 1115              		.loc 1 188 62 view .LVU360
 1116 008e FFF7FEFF 		bl	get_indev
 1117              	.LVL109:
 188:Drivers/lvgl/src/core/lv_group.c ****         }
 1118              		.loc 1 188 13 discriminator 1 view .LVU361
 1119 0092 0F21     		movs	r1, #15
 188:Drivers/lvgl/src/core/lv_group.c ****         }
ARM GAS  /var/folders/lp/x54gwt890xv47sdkqj1k04q40000gn/T//ccpqBSpC.s 			page 35


 1120              		.loc 1 188 62 view .LVU362
 1121 0094 0246     		mov	r2, r0
 188:Drivers/lvgl/src/core/lv_group.c ****         }
 1122              		.loc 1 188 13 discriminator 1 view .LVU363
 1123 0096 3046     		mov	r0, r6
 1124 0098 FFF7FEFF 		bl	lv_event_send
 1125              	.LVL110:
 188:Drivers/lvgl/src/core/lv_group.c ****         }
 1126              		.loc 1 188 13 view .LVU364
 1127 009c E5E7     		b	.L120
 1128              		.cfi_endproc
 1129              	.LFE168:
 1131 009e 00BF     		.section	.text.lv_group_add_obj,"ax",%progbits
 1132              		.align	1
 1133              		.p2align 2,,3
 1134              		.global	lv_group_add_obj
 1135              		.syntax unified
 1136              		.thumb
 1137              		.thumb_func
 1139              	lv_group_add_obj:
 1140              	.LVL111:
 1141              	.LFB166:
 112:Drivers/lvgl/src/core/lv_group.c ****     if(group == NULL) return;
 1142              		.loc 1 112 1 is_stmt 1 view -0
 1143              		.cfi_startproc
 1144              		@ args = 0, pretend = 0, frame = 0
 1145              		@ frame_needed = 0, uses_anonymous_args = 0
 113:Drivers/lvgl/src/core/lv_group.c **** 
 1146              		.loc 1 113 5 view .LVU366
 113:Drivers/lvgl/src/core/lv_group.c **** 
 1147              		.loc 1 113 7 is_stmt 0 view .LVU367
 1148 0000 88B3     		cbz	r0, .L159
 115:Drivers/lvgl/src/core/lv_group.c **** 
 1149              		.loc 1 115 5 is_stmt 1 view .LVU368
 115:Drivers/lvgl/src/core/lv_group.c **** 
 1150              		.loc 1 115 5 view .LVU369
 115:Drivers/lvgl/src/core/lv_group.c **** 
 1151              		.loc 1 115 5 view .LVU370
 118:Drivers/lvgl/src/core/lv_group.c **** 
 1152              		.loc 1 118 5 view .LVU371
 112:Drivers/lvgl/src/core/lv_group.c ****     if(group == NULL) return;
 1153              		.loc 1 112 1 is_stmt 0 view .LVU372
 1154 0002 70B5     		push	{r4, r5, r6, lr}
 1155              		.cfi_def_cfa_offset 16
 1156              		.cfi_offset 4, -16
 1157              		.cfi_offset 5, -12
 1158              		.cfi_offset 6, -8
 1159              		.cfi_offset 14, -4
 1160 0004 0446     		mov	r4, r0
 118:Drivers/lvgl/src/core/lv_group.c **** 
 1161              		.loc 1 118 5 view .LVU373
 1162 0006 0846     		mov	r0, r1
 1163              	.LVL112:
 118:Drivers/lvgl/src/core/lv_group.c **** 
 1164              		.loc 1 118 5 view .LVU374
 1165 0008 0D46     		mov	r5, r1
 1166 000a FFF7FEFF 		bl	lv_group_remove_obj
ARM GAS  /var/folders/lp/x54gwt890xv47sdkqj1k04q40000gn/T//ccpqBSpC.s 			page 36


 1167              	.LVL113:
 121:Drivers/lvgl/src/core/lv_group.c ****     _LV_LL_READ(&group->obj_ll, obj_i) {
 1168              		.loc 1 121 5 is_stmt 1 view .LVU375
 122:Drivers/lvgl/src/core/lv_group.c ****         if((*obj_i) == obj) {
 1169              		.loc 1 122 5 view .LVU376
 1170 000e 2046     		mov	r0, r4
 1171 0010 FFF7FEFF 		bl	_lv_ll_get_head
 1172              	.LVL114:
 122:Drivers/lvgl/src/core/lv_group.c ****         if((*obj_i) == obj) {
 1173              		.loc 1 122 5 discriminator 1 view .LVU377
 1174 0014 0146     		mov	r1, r0
 1175 0016 20B9     		cbnz	r0, .L143
 1176 0018 08E0     		b	.L147
 1177              	.LVL115:
 1178              	.L163:
 122:Drivers/lvgl/src/core/lv_group.c ****         if((*obj_i) == obj) {
 1179              		.loc 1 122 5 is_stmt 0 discriminator 2 view .LVU378
 1180 001a FFF7FEFF 		bl	_lv_ll_get_next
 1181              	.LVL116:
 122:Drivers/lvgl/src/core/lv_group.c ****         if((*obj_i) == obj) {
 1182              		.loc 1 122 5 is_stmt 1 discriminator 1 view .LVU379
 1183 001e 0146     		mov	r1, r0
 1184 0020 20B1     		cbz	r0, .L147
 1185              	.L143:
 123:Drivers/lvgl/src/core/lv_group.c ****             LV_LOG_INFO("the object is already added to this group");
 1186              		.loc 1 123 9 view .LVU380
 122:Drivers/lvgl/src/core/lv_group.c ****         if((*obj_i) == obj) {
 1187              		.loc 1 122 5 discriminator 2 view .LVU381
 123:Drivers/lvgl/src/core/lv_group.c ****             LV_LOG_INFO("the object is already added to this group");
 1188              		.loc 1 123 11 is_stmt 0 view .LVU382
 1189 0022 0B68     		ldr	r3, [r1]
 1190 0024 AB42     		cmp	r3, r5
 122:Drivers/lvgl/src/core/lv_group.c ****         if((*obj_i) == obj) {
 1191              		.loc 1 122 5 discriminator 2 view .LVU383
 1192 0026 2046     		mov	r0, r4
 1193              	.LVL117:
 123:Drivers/lvgl/src/core/lv_group.c ****             LV_LOG_INFO("the object is already added to this group");
 1194              		.loc 1 123 11 view .LVU384
 1195 0028 F7D1     		bne	.L163
 1196              	.LVL118:
 1197              	.L140:
 154:Drivers/lvgl/src/core/lv_group.c **** 
 1198              		.loc 1 154 1 view .LVU385
 1199 002a 70BD     		pop	{r4, r5, r6, pc}
 1200              	.LVL119:
 1201              	.L147:
 130:Drivers/lvgl/src/core/lv_group.c ****     if(group_cur) {
 1202              		.loc 1 130 5 is_stmt 1 view .LVU386
 130:Drivers/lvgl/src/core/lv_group.c ****     if(group_cur) {
 1203              		.loc 1 130 30 is_stmt 0 view .LVU387
 1204 002c 2846     		mov	r0, r5
 1205              	.LVL120:
 130:Drivers/lvgl/src/core/lv_group.c ****     if(group_cur) {
 1206              		.loc 1 130 30 view .LVU388
 1207 002e FFF7FEFF 		bl	lv_obj_get_group
 1208              	.LVL121:
 131:Drivers/lvgl/src/core/lv_group.c ****         if(obj->spec_attr->group_p && *(obj->spec_attr->group_p->obj_focus) == obj) {
ARM GAS  /var/folders/lp/x54gwt890xv47sdkqj1k04q40000gn/T//ccpqBSpC.s 			page 37


 1209              		.loc 1 131 5 is_stmt 1 view .LVU389
 131:Drivers/lvgl/src/core/lv_group.c ****         if(obj->spec_attr->group_p && *(obj->spec_attr->group_p->obj_focus) == obj) {
 1210              		.loc 1 131 7 is_stmt 0 view .LVU390
 1211 0032 D8B1     		cbz	r0, .L162
 132:Drivers/lvgl/src/core/lv_group.c ****             lv_group_refocus(group_cur);
 1212              		.loc 1 132 9 is_stmt 1 view .LVU391
 132:Drivers/lvgl/src/core/lv_group.c ****             lv_group_refocus(group_cur);
 1213              		.loc 1 132 15 is_stmt 0 view .LVU392
 1214 0034 AB68     		ldr	r3, [r5, #8]
 132:Drivers/lvgl/src/core/lv_group.c ****             lv_group_refocus(group_cur);
 1215              		.loc 1 132 26 view .LVU393
 1216 0036 9A68     		ldr	r2, [r3, #8]
 132:Drivers/lvgl/src/core/lv_group.c ****             lv_group_refocus(group_cur);
 1217              		.loc 1 132 11 view .LVU394
 1218 0038 1AB1     		cbz	r2, .L149
 132:Drivers/lvgl/src/core/lv_group.c ****             lv_group_refocus(group_cur);
 1219              		.loc 1 132 39 discriminator 1 view .LVU395
 1220 003a D268     		ldr	r2, [r2, #12]
 132:Drivers/lvgl/src/core/lv_group.c ****             lv_group_refocus(group_cur);
 1221              		.loc 1 132 36 discriminator 1 view .LVU396
 1222 003c 1268     		ldr	r2, [r2]
 1223 003e 9542     		cmp	r5, r2
 1224 0040 12D0     		beq	.L164
 1225              	.LVL122:
 1226              	.L149:
 140:Drivers/lvgl/src/core/lv_group.c **** 
 1227              		.loc 1 140 5 is_stmt 1 view .LVU397
 140:Drivers/lvgl/src/core/lv_group.c **** 
 1228              		.loc 1 140 29 is_stmt 0 view .LVU398
 1229 0042 9C60     		str	r4, [r3, #8]
 142:Drivers/lvgl/src/core/lv_group.c ****     LV_ASSERT_MALLOC(next);
 1230              		.loc 1 142 5 is_stmt 1 view .LVU399
 142:Drivers/lvgl/src/core/lv_group.c ****     LV_ASSERT_MALLOC(next);
 1231              		.loc 1 142 24 is_stmt 0 view .LVU400
 1232 0044 2046     		mov	r0, r4
 1233 0046 FFF7FEFF 		bl	_lv_ll_ins_tail
 1234              	.LVL123:
 143:Drivers/lvgl/src/core/lv_group.c ****     if(next == NULL) return;
 1235              		.loc 1 143 5 is_stmt 1 view .LVU401
 143:Drivers/lvgl/src/core/lv_group.c ****     if(next == NULL) return;
 1236              		.loc 1 143 5 view .LVU402
 1237 004a 0646     		mov	r6, r0
 1238 004c 50B1     		cbz	r0, .L151
 143:Drivers/lvgl/src/core/lv_group.c ****     if(next == NULL) return;
 1239              		.loc 1 143 5 discriminator 2 view .LVU403
 143:Drivers/lvgl/src/core/lv_group.c ****     if(next == NULL) return;
 1240              		.loc 1 143 27 discriminator 2 view .LVU404
 144:Drivers/lvgl/src/core/lv_group.c ****     *next = obj;
 1241              		.loc 1 144 5 view .LVU405
 145:Drivers/lvgl/src/core/lv_group.c **** 
 1242              		.loc 1 145 5 view .LVU406
 145:Drivers/lvgl/src/core/lv_group.c **** 
 1243              		.loc 1 145 11 is_stmt 0 view .LVU407
 1244 004e 0560     		str	r5, [r0]
 149:Drivers/lvgl/src/core/lv_group.c ****         lv_group_refocus(group);
 1245              		.loc 1 149 5 is_stmt 1 view .LVU408
 149:Drivers/lvgl/src/core/lv_group.c ****         lv_group_refocus(group);
ARM GAS  /var/folders/lp/x54gwt890xv47sdkqj1k04q40000gn/T//ccpqBSpC.s 			page 38


 1246              		.loc 1 149 8 is_stmt 0 view .LVU409
 1247 0050 2046     		mov	r0, r4
 1248              	.LVL124:
 149:Drivers/lvgl/src/core/lv_group.c ****         lv_group_refocus(group);
 1249              		.loc 1 149 8 view .LVU410
 1250 0052 FFF7FEFF 		bl	_lv_ll_get_head
 1251              	.LVL125:
 149:Drivers/lvgl/src/core/lv_group.c ****         lv_group_refocus(group);
 1252              		.loc 1 149 7 discriminator 1 view .LVU411
 1253 0056 8642     		cmp	r6, r0
 1254 0058 E7D1     		bne	.L140
 150:Drivers/lvgl/src/core/lv_group.c ****     }
 1255              		.loc 1 150 9 is_stmt 1 view .LVU412
 1256 005a 2046     		mov	r0, r4
 154:Drivers/lvgl/src/core/lv_group.c **** 
 1257              		.loc 1 154 1 is_stmt 0 view .LVU413
 1258 005c BDE87040 		pop	{r4, r5, r6, lr}
 1259              		.cfi_remember_state
 1260              		.cfi_restore 14
 1261              		.cfi_restore 6
 1262              		.cfi_restore 5
 1263              		.cfi_restore 4
 1264              		.cfi_def_cfa_offset 0
 1265              	.LVL126:
 150:Drivers/lvgl/src/core/lv_group.c ****     }
 1266              		.loc 1 150 9 view .LVU414
 1267 0060 FFF7FEBF 		b	lv_group_refocus
 1268              	.LVL127:
 1269              	.L151:
 1270              		.cfi_restore_state
 143:Drivers/lvgl/src/core/lv_group.c ****     if(next == NULL) return;
 1271              		.loc 1 143 5 is_stmt 1 discriminator 1 view .LVU415
 143:Drivers/lvgl/src/core/lv_group.c ****     if(next == NULL) return;
 1272              		.loc 1 143 5 discriminator 1 view .LVU416
 143:Drivers/lvgl/src/core/lv_group.c ****     if(next == NULL) return;
 1273              		.loc 1 143 5 discriminator 1 view .LVU417
 143:Drivers/lvgl/src/core/lv_group.c ****     if(next == NULL) return;
 1274              		.loc 1 143 5 discriminator 1 view .LVU418
 143:Drivers/lvgl/src/core/lv_group.c ****     if(next == NULL) return;
 1275              		.loc 1 143 5 discriminator 1 view .LVU419
 143:Drivers/lvgl/src/core/lv_group.c ****     if(next == NULL) return;
 1276              		.loc 1 143 5 discriminator 1 view .LVU420
 143:Drivers/lvgl/src/core/lv_group.c ****     if(next == NULL) return;
 1277              		.loc 1 143 5 discriminator 1 view .LVU421
 143:Drivers/lvgl/src/core/lv_group.c ****     if(next == NULL) return;
 1278              		.loc 1 143 5 discriminator 1 view .LVU422
 143:Drivers/lvgl/src/core/lv_group.c ****     if(next == NULL) return;
 1279              		.loc 1 143 5 discriminator 1 view .LVU423
 143:Drivers/lvgl/src/core/lv_group.c ****     if(next == NULL) return;
 1280              		.loc 1 143 5 discriminator 1 view .LVU424
 1281 0064 FEE7     		b	.L151
 1282              	.LVL128:
 1283              	.L159:
 1284              		.cfi_def_cfa_offset 0
 1285              		.cfi_restore 4
 1286              		.cfi_restore 5
 1287              		.cfi_restore 6
ARM GAS  /var/folders/lp/x54gwt890xv47sdkqj1k04q40000gn/T//ccpqBSpC.s 			page 39


 1288              		.cfi_restore 14
 143:Drivers/lvgl/src/core/lv_group.c ****     if(next == NULL) return;
 1289              		.loc 1 143 5 is_stmt 0 discriminator 1 view .LVU425
 1290 0066 7047     		bx	lr
 1291              	.LVL129:
 1292              	.L164:
 1293              		.cfi_def_cfa_offset 16
 1294              		.cfi_offset 4, -16
 1295              		.cfi_offset 5, -12
 1296              		.cfi_offset 6, -8
 1297              		.cfi_offset 14, -4
 133:Drivers/lvgl/src/core/lv_group.c **** 
 1298              		.loc 1 133 13 is_stmt 1 view .LVU426
 1299 0068 FFF7FEFF 		bl	lv_group_refocus
 1300              	.LVL130:
 1301              	.L162:
 135:Drivers/lvgl/src/core/lv_group.c ****         }
 1302              		.loc 1 135 13 view .LVU427
 135:Drivers/lvgl/src/core/lv_group.c ****         }
 1303              		.loc 1 135 13 view .LVU428
 135:Drivers/lvgl/src/core/lv_group.c ****         }
 1304              		.loc 1 135 13 view .LVU429
 139:Drivers/lvgl/src/core/lv_group.c ****     obj->spec_attr->group_p = group;
 1305              		.loc 1 139 5 view .LVU430
 139:Drivers/lvgl/src/core/lv_group.c ****     obj->spec_attr->group_p = group;
 1306              		.loc 1 139 11 is_stmt 0 view .LVU431
 1307 006c AB68     		ldr	r3, [r5, #8]
 139:Drivers/lvgl/src/core/lv_group.c ****     obj->spec_attr->group_p = group;
 1308              		.loc 1 139 7 view .LVU432
 1309 006e 002B     		cmp	r3, #0
 1310 0070 E7D1     		bne	.L149
 139:Drivers/lvgl/src/core/lv_group.c ****     obj->spec_attr->group_p = group;
 1311              		.loc 1 139 32 is_stmt 1 discriminator 1 view .LVU433
 1312 0072 2846     		mov	r0, r5
 1313 0074 FFF7FEFF 		bl	lv_obj_allocate_spec_attr
 1314              	.LVL131:
 140:Drivers/lvgl/src/core/lv_group.c **** 
 1315              		.loc 1 140 8 is_stmt 0 view .LVU434
 1316 0078 AB68     		ldr	r3, [r5, #8]
 1317 007a E2E7     		b	.L149
 1318              		.cfi_endproc
 1319              	.LFE166:
 1321              		.section	.text.lv_group_remove_all_objs,"ax",%progbits
 1322              		.align	1
 1323              		.p2align 2,,3
 1324              		.global	lv_group_remove_all_objs
 1325              		.syntax unified
 1326              		.thumb
 1327              		.thumb_func
 1329              	lv_group_remove_all_objs:
 1330              	.LVL132:
 1331              	.LFB169:
 217:Drivers/lvgl/src/core/lv_group.c ****     /*Defocus the currently focused object*/
 1332              		.loc 1 217 1 is_stmt 1 view -0
 1333              		.cfi_startproc
 1334              		@ args = 0, pretend = 0, frame = 0
 1335              		@ frame_needed = 0, uses_anonymous_args = 0
ARM GAS  /var/folders/lp/x54gwt890xv47sdkqj1k04q40000gn/T//ccpqBSpC.s 			page 40


 219:Drivers/lvgl/src/core/lv_group.c ****         lv_event_send(*group->obj_focus, LV_EVENT_DEFOCUSED, get_indev(group));
 1336              		.loc 1 219 5 view .LVU436
 217:Drivers/lvgl/src/core/lv_group.c ****     /*Defocus the currently focused object*/
 1337              		.loc 1 217 1 is_stmt 0 view .LVU437
 1338 0000 38B5     		push	{r3, r4, r5, lr}
 1339              		.cfi_def_cfa_offset 16
 1340              		.cfi_offset 3, -16
 1341              		.cfi_offset 4, -12
 1342              		.cfi_offset 5, -8
 1343              		.cfi_offset 14, -4
 219:Drivers/lvgl/src/core/lv_group.c ****         lv_event_send(*group->obj_focus, LV_EVENT_DEFOCUSED, get_indev(group));
 1344              		.loc 1 219 13 view .LVU438
 1345 0002 C368     		ldr	r3, [r0, #12]
 217:Drivers/lvgl/src/core/lv_group.c ****     /*Defocus the currently focused object*/
 1346              		.loc 1 217 1 view .LVU439
 1347 0004 0446     		mov	r4, r0
 219:Drivers/lvgl/src/core/lv_group.c ****         lv_event_send(*group->obj_focus, LV_EVENT_DEFOCUSED, get_indev(group));
 1348              		.loc 1 219 7 view .LVU440
 1349 0006 6BB1     		cbz	r3, .L166
 220:Drivers/lvgl/src/core/lv_group.c ****         lv_obj_invalidate(*group->obj_focus);
 1350              		.loc 1 220 9 is_stmt 1 view .LVU441
 1351 0008 1D68     		ldr	r5, [r3]
 220:Drivers/lvgl/src/core/lv_group.c ****         lv_obj_invalidate(*group->obj_focus);
 1352              		.loc 1 220 62 is_stmt 0 view .LVU442
 1353 000a FFF7FEFF 		bl	get_indev
 1354              	.LVL133:
 220:Drivers/lvgl/src/core/lv_group.c ****         lv_obj_invalidate(*group->obj_focus);
 1355              		.loc 1 220 9 discriminator 1 view .LVU443
 1356 000e 0F21     		movs	r1, #15
 220:Drivers/lvgl/src/core/lv_group.c ****         lv_obj_invalidate(*group->obj_focus);
 1357              		.loc 1 220 62 view .LVU444
 1358 0010 0246     		mov	r2, r0
 220:Drivers/lvgl/src/core/lv_group.c ****         lv_obj_invalidate(*group->obj_focus);
 1359              		.loc 1 220 9 discriminator 1 view .LVU445
 1360 0012 2846     		mov	r0, r5
 1361 0014 FFF7FEFF 		bl	lv_event_send
 1362              	.LVL134:
 221:Drivers/lvgl/src/core/lv_group.c ****         group->obj_focus = NULL;
 1363              		.loc 1 221 9 is_stmt 1 view .LVU446
 1364 0018 E368     		ldr	r3, [r4, #12]
 1365 001a 1868     		ldr	r0, [r3]
 1366 001c FFF7FEFF 		bl	lv_obj_invalidate
 1367              	.LVL135:
 222:Drivers/lvgl/src/core/lv_group.c ****     }
 1368              		.loc 1 222 9 view .LVU447
 222:Drivers/lvgl/src/core/lv_group.c ****     }
 1369              		.loc 1 222 26 is_stmt 0 view .LVU448
 1370 0020 0023     		movs	r3, #0
 1371 0022 E360     		str	r3, [r4, #12]
 1372              	.L166:
 226:Drivers/lvgl/src/core/lv_group.c ****     _LV_LL_READ(&group->obj_ll, obj) {
 1373              		.loc 1 226 5 is_stmt 1 view .LVU449
 227:Drivers/lvgl/src/core/lv_group.c ****         if((*obj)->spec_attr)(*obj)->spec_attr->group_p = NULL;
 1374              		.loc 1 227 5 view .LVU450
 1375 0024 2046     		mov	r0, r4
 1376 0026 FFF7FEFF 		bl	_lv_ll_get_head
 1377              	.LVL136:
ARM GAS  /var/folders/lp/x54gwt890xv47sdkqj1k04q40000gn/T//ccpqBSpC.s 			page 41


 227:Drivers/lvgl/src/core/lv_group.c ****         if((*obj)->spec_attr)(*obj)->spec_attr->group_p = NULL;
 1378              		.loc 1 227 5 discriminator 1 view .LVU451
 1379 002a 0146     		mov	r1, r0
 1380 002c 50B1     		cbz	r0, .L167
 228:Drivers/lvgl/src/core/lv_group.c ****     }
 1381              		.loc 1 228 57 is_stmt 0 discriminator 1 view .LVU452
 1382 002e 0025     		movs	r5, #0
 1383              	.L169:
 228:Drivers/lvgl/src/core/lv_group.c ****     }
 1384              		.loc 1 228 9 is_stmt 1 view .LVU453
 228:Drivers/lvgl/src/core/lv_group.c ****     }
 1385              		.loc 1 228 30 discriminator 1 view .LVU454
 227:Drivers/lvgl/src/core/lv_group.c ****         if((*obj)->spec_attr)(*obj)->spec_attr->group_p = NULL;
 1386              		.loc 1 227 5 discriminator 2 view .LVU455
 228:Drivers/lvgl/src/core/lv_group.c ****     }
 1387              		.loc 1 228 18 is_stmt 0 view .LVU456
 1388 0030 0B68     		ldr	r3, [r1]
 1389 0032 9B68     		ldr	r3, [r3, #8]
 227:Drivers/lvgl/src/core/lv_group.c ****         if((*obj)->spec_attr)(*obj)->spec_attr->group_p = NULL;
 1390              		.loc 1 227 5 discriminator 2 view .LVU457
 1391 0034 2046     		mov	r0, r4
 1392              	.LVL137:
 228:Drivers/lvgl/src/core/lv_group.c ****     }
 1393              		.loc 1 228 11 view .LVU458
 1394 0036 03B1     		cbz	r3, .L168
 1395              	.LVL138:
 228:Drivers/lvgl/src/core/lv_group.c ****     }
 1396              		.loc 1 228 57 discriminator 1 view .LVU459
 1397 0038 9D60     		str	r5, [r3, #8]
 1398              	.L168:
 227:Drivers/lvgl/src/core/lv_group.c ****         if((*obj)->spec_attr)(*obj)->spec_attr->group_p = NULL;
 1399              		.loc 1 227 5 discriminator 2 view .LVU460
 1400 003a FFF7FEFF 		bl	_lv_ll_get_next
 1401              	.LVL139:
 227:Drivers/lvgl/src/core/lv_group.c ****         if((*obj)->spec_attr)(*obj)->spec_attr->group_p = NULL;
 1402              		.loc 1 227 5 is_stmt 1 discriminator 1 view .LVU461
 1403 003e 0146     		mov	r1, r0
 1404 0040 0028     		cmp	r0, #0
 1405 0042 F5D1     		bne	.L169
 1406              	.L167:
 231:Drivers/lvgl/src/core/lv_group.c **** }
 1407              		.loc 1 231 5 view .LVU462
 1408 0044 2046     		mov	r0, r4
 1409              	.LVL140:
 232:Drivers/lvgl/src/core/lv_group.c **** 
 1410              		.loc 1 232 1 is_stmt 0 view .LVU463
 1411 0046 BDE83840 		pop	{r3, r4, r5, lr}
 1412              		.cfi_restore 14
 1413              		.cfi_restore 5
 1414              		.cfi_restore 4
 1415              		.cfi_restore 3
 1416              		.cfi_def_cfa_offset 0
 1417              	.LVL141:
 231:Drivers/lvgl/src/core/lv_group.c **** }
 1418              		.loc 1 231 5 view .LVU464
 1419 004a FFF7FEBF 		b	_lv_ll_clear
 1420              	.LVL142:
ARM GAS  /var/folders/lp/x54gwt890xv47sdkqj1k04q40000gn/T//ccpqBSpC.s 			page 42


 231:Drivers/lvgl/src/core/lv_group.c **** }
 1421              		.loc 1 231 5 view .LVU465
 1422              		.cfi_endproc
 1423              	.LFE169:
 1425 004e 00BF     		.section	.text.lv_group_focus_next,"ax",%progbits
 1426              		.align	1
 1427              		.p2align 2,,3
 1428              		.global	lv_group_focus_next
 1429              		.syntax unified
 1430              		.thumb
 1431              		.thumb_func
 1433              	lv_group_focus_next:
 1434              	.LVL143:
 1435              	.LFB171:
 268:Drivers/lvgl/src/core/lv_group.c ****     bool focus_changed = focus_next_core(group, _lv_ll_get_head, _lv_ll_get_next);
 1436              		.loc 1 268 1 is_stmt 1 view -0
 1437              		.cfi_startproc
 1438              		@ args = 0, pretend = 0, frame = 0
 1439              		@ frame_needed = 0, uses_anonymous_args = 0
 269:Drivers/lvgl/src/core/lv_group.c ****     if(group->edge_cb) {
 1440              		.loc 1 269 5 view .LVU467
 268:Drivers/lvgl/src/core/lv_group.c ****     bool focus_changed = focus_next_core(group, _lv_ll_get_head, _lv_ll_get_next);
 1441              		.loc 1 268 1 is_stmt 0 view .LVU468
 1442 0000 10B5     		push	{r4, lr}
 1443              		.cfi_def_cfa_offset 8
 1444              		.cfi_offset 4, -8
 1445              		.cfi_offset 14, -4
 268:Drivers/lvgl/src/core/lv_group.c ****     bool focus_changed = focus_next_core(group, _lv_ll_get_head, _lv_ll_get_next);
 1446              		.loc 1 268 1 view .LVU469
 1447 0002 0446     		mov	r4, r0
 269:Drivers/lvgl/src/core/lv_group.c ****     if(group->edge_cb) {
 1448              		.loc 1 269 26 view .LVU470
 1449 0004 064A     		ldr	r2, .L187
 1450 0006 0749     		ldr	r1, .L187+4
 1451 0008 FFF7FEFF 		bl	focus_next_core
 1452              	.LVL144:
 270:Drivers/lvgl/src/core/lv_group.c ****         if(!focus_changed)
 1453              		.loc 1 270 5 is_stmt 1 view .LVU471
 270:Drivers/lvgl/src/core/lv_group.c ****         if(!focus_changed)
 1454              		.loc 1 270 13 is_stmt 0 view .LVU472
 1455 000c 6369     		ldr	r3, [r4, #20]
 270:Drivers/lvgl/src/core/lv_group.c ****         if(!focus_changed)
 1456              		.loc 1 270 7 view .LVU473
 1457 000e 2BB1     		cbz	r3, .L181
 271:Drivers/lvgl/src/core/lv_group.c ****             group->edge_cb(group, true);
 1458              		.loc 1 271 9 is_stmt 1 view .LVU474
 271:Drivers/lvgl/src/core/lv_group.c ****             group->edge_cb(group, true);
 1459              		.loc 1 271 11 is_stmt 0 view .LVU475
 1460 0010 20B9     		cbnz	r0, .L181
 272:Drivers/lvgl/src/core/lv_group.c ****     }
 1461              		.loc 1 272 13 is_stmt 1 view .LVU476
 1462 0012 2046     		mov	r0, r4
 1463              	.LVL145:
 272:Drivers/lvgl/src/core/lv_group.c ****     }
 1464              		.loc 1 272 13 is_stmt 0 view .LVU477
 1465 0014 0121     		movs	r1, #1
 274:Drivers/lvgl/src/core/lv_group.c **** 
ARM GAS  /var/folders/lp/x54gwt890xv47sdkqj1k04q40000gn/T//ccpqBSpC.s 			page 43


 1466              		.loc 1 274 1 view .LVU478
 1467 0016 BDE81040 		pop	{r4, lr}
 1468              		.cfi_remember_state
 1469              		.cfi_restore 14
 1470              		.cfi_restore 4
 1471              		.cfi_def_cfa_offset 0
 1472              	.LVL146:
 272:Drivers/lvgl/src/core/lv_group.c ****     }
 1473              		.loc 1 272 13 view .LVU479
 1474 001a 1847     		bx	r3	@ indirect register sibling call
 1475              	.LVL147:
 1476              	.L181:
 1477              		.cfi_restore_state
 274:Drivers/lvgl/src/core/lv_group.c **** 
 1478              		.loc 1 274 1 view .LVU480
 1479 001c 10BD     		pop	{r4, pc}
 1480              	.LVL148:
 1481              	.L188:
 274:Drivers/lvgl/src/core/lv_group.c **** 
 1482              		.loc 1 274 1 view .LVU481
 1483 001e 00BF     		.align	2
 1484              	.L187:
 1485 0020 00000000 		.word	_lv_ll_get_next
 1486 0024 00000000 		.word	_lv_ll_get_head
 1487              		.cfi_endproc
 1488              	.LFE171:
 1490              		.section	.text.lv_group_focus_prev,"ax",%progbits
 1491              		.align	1
 1492              		.p2align 2,,3
 1493              		.global	lv_group_focus_prev
 1494              		.syntax unified
 1495              		.thumb
 1496              		.thumb_func
 1498              	lv_group_focus_prev:
 1499              	.LVL149:
 1500              	.LFB172:
 277:Drivers/lvgl/src/core/lv_group.c ****     bool focus_changed = focus_next_core(group, _lv_ll_get_tail, _lv_ll_get_prev);
 1501              		.loc 1 277 1 is_stmt 1 view -0
 1502              		.cfi_startproc
 1503              		@ args = 0, pretend = 0, frame = 0
 1504              		@ frame_needed = 0, uses_anonymous_args = 0
 278:Drivers/lvgl/src/core/lv_group.c ****     if(group->edge_cb) {
 1505              		.loc 1 278 5 view .LVU483
 277:Drivers/lvgl/src/core/lv_group.c ****     bool focus_changed = focus_next_core(group, _lv_ll_get_tail, _lv_ll_get_prev);
 1506              		.loc 1 277 1 is_stmt 0 view .LVU484
 1507 0000 10B5     		push	{r4, lr}
 1508              		.cfi_def_cfa_offset 8
 1509              		.cfi_offset 4, -8
 1510              		.cfi_offset 14, -4
 277:Drivers/lvgl/src/core/lv_group.c ****     bool focus_changed = focus_next_core(group, _lv_ll_get_tail, _lv_ll_get_prev);
 1511              		.loc 1 277 1 view .LVU485
 1512 0002 0446     		mov	r4, r0
 278:Drivers/lvgl/src/core/lv_group.c ****     if(group->edge_cb) {
 1513              		.loc 1 278 26 view .LVU486
 1514 0004 064A     		ldr	r2, .L195
 1515 0006 0749     		ldr	r1, .L195+4
 1516 0008 FFF7FEFF 		bl	focus_next_core
ARM GAS  /var/folders/lp/x54gwt890xv47sdkqj1k04q40000gn/T//ccpqBSpC.s 			page 44


 1517              	.LVL150:
 279:Drivers/lvgl/src/core/lv_group.c ****         if(!focus_changed)
 1518              		.loc 1 279 5 is_stmt 1 view .LVU487
 279:Drivers/lvgl/src/core/lv_group.c ****         if(!focus_changed)
 1519              		.loc 1 279 13 is_stmt 0 view .LVU488
 1520 000c 6369     		ldr	r3, [r4, #20]
 279:Drivers/lvgl/src/core/lv_group.c ****         if(!focus_changed)
 1521              		.loc 1 279 7 view .LVU489
 1522 000e 2BB1     		cbz	r3, .L189
 280:Drivers/lvgl/src/core/lv_group.c ****             group->edge_cb(group, false);
 1523              		.loc 1 280 9 is_stmt 1 view .LVU490
 280:Drivers/lvgl/src/core/lv_group.c ****             group->edge_cb(group, false);
 1524              		.loc 1 280 11 is_stmt 0 view .LVU491
 1525 0010 20B9     		cbnz	r0, .L189
 281:Drivers/lvgl/src/core/lv_group.c ****     }
 1526              		.loc 1 281 13 is_stmt 1 view .LVU492
 1527 0012 0146     		mov	r1, r0
 1528 0014 2046     		mov	r0, r4
 1529              	.LVL151:
 283:Drivers/lvgl/src/core/lv_group.c **** 
 1530              		.loc 1 283 1 is_stmt 0 view .LVU493
 1531 0016 BDE81040 		pop	{r4, lr}
 1532              		.cfi_remember_state
 1533              		.cfi_restore 14
 1534              		.cfi_restore 4
 1535              		.cfi_def_cfa_offset 0
 1536              	.LVL152:
 281:Drivers/lvgl/src/core/lv_group.c ****     }
 1537              		.loc 1 281 13 view .LVU494
 1538 001a 1847     		bx	r3	@ indirect register sibling call
 1539              	.LVL153:
 1540              	.L189:
 1541              		.cfi_restore_state
 283:Drivers/lvgl/src/core/lv_group.c **** 
 1542              		.loc 1 283 1 view .LVU495
 1543 001c 10BD     		pop	{r4, pc}
 1544              	.LVL154:
 1545              	.L196:
 283:Drivers/lvgl/src/core/lv_group.c **** 
 1546              		.loc 1 283 1 view .LVU496
 1547 001e 00BF     		.align	2
 1548              	.L195:
 1549 0020 00000000 		.word	_lv_ll_get_prev
 1550 0024 00000000 		.word	_lv_ll_get_tail
 1551              		.cfi_endproc
 1552              	.LFE172:
 1554              		.section	.text.lv_group_focus_freeze,"ax",%progbits
 1555              		.align	1
 1556              		.p2align 2,,3
 1557              		.global	lv_group_focus_freeze
 1558              		.syntax unified
 1559              		.thumb
 1560              		.thumb_func
 1562              	lv_group_focus_freeze:
 1563              	.LVL155:
 1564              	.LFB173:
 286:Drivers/lvgl/src/core/lv_group.c ****     if(en == false) group->frozen = 0;
ARM GAS  /var/folders/lp/x54gwt890xv47sdkqj1k04q40000gn/T//ccpqBSpC.s 			page 45


 1565              		.loc 1 286 1 is_stmt 1 view -0
 1566              		.cfi_startproc
 1567              		@ args = 0, pretend = 0, frame = 0
 1568              		@ frame_needed = 0, uses_anonymous_args = 0
 1569              		@ link register save eliminated.
 287:Drivers/lvgl/src/core/lv_group.c ****     else group->frozen = 1;
 1570              		.loc 1 287 5 view .LVU498
 1571 0000 037F     		ldrb	r3, [r0, #28]	@ zero_extendqisi2
 1572 0002 61F30003 		bfi	r3, r1, #0, #1
 1573 0006 0377     		strb	r3, [r0, #28]
 289:Drivers/lvgl/src/core/lv_group.c **** 
 1574              		.loc 1 289 1 is_stmt 0 view .LVU499
 1575 0008 7047     		bx	lr
 1576              		.cfi_endproc
 1577              	.LFE173:
 1579              		.section	.text.lv_group_send_data,"ax",%progbits
 1580              		.align	1
 1581              		.p2align 2,,3
 1582              		.global	lv_group_send_data
 1583              		.syntax unified
 1584              		.thumb
 1585              		.thumb_func
 1587              	lv_group_send_data:
 1588              	.LVL156:
 1589              	.LFB174:
 292:Drivers/lvgl/src/core/lv_group.c ****     lv_obj_t * act = lv_group_get_focused(group);
 1590              		.loc 1 292 1 is_stmt 1 view -0
 1591              		.cfi_startproc
 1592              		@ args = 0, pretend = 0, frame = 8
 1593              		@ frame_needed = 0, uses_anonymous_args = 0
 293:Drivers/lvgl/src/core/lv_group.c ****     if(act == NULL) return LV_RES_OK;
 1594              		.loc 1 293 5 view .LVU501
 1595              	.LBB33:
 1596              	.LBI33:
 339:Drivers/lvgl/src/core/lv_group.c **** {
 1597              		.loc 1 339 12 view .LVU502
 1598              	.LBB34:
 341:Drivers/lvgl/src/core/lv_group.c ****     if(group->obj_focus == NULL) return NULL;
 1599              		.loc 1 341 5 view .LVU503
 1600              	.LBE34:
 1601              	.LBE33:
 292:Drivers/lvgl/src/core/lv_group.c ****     lv_obj_t * act = lv_group_get_focused(group);
 1602              		.loc 1 292 1 is_stmt 0 view .LVU504
 1603 0000 10B5     		push	{r4, lr}
 1604              		.cfi_def_cfa_offset 8
 1605              		.cfi_offset 4, -8
 1606              		.cfi_offset 14, -4
 1607 0002 82B0     		sub	sp, sp, #8
 1608              		.cfi_def_cfa_offset 16
 292:Drivers/lvgl/src/core/lv_group.c ****     lv_obj_t * act = lv_group_get_focused(group);
 1609              		.loc 1 292 1 view .LVU505
 1610 0004 0191     		str	r1, [sp, #4]
 1611              	.LBB36:
 1612              	.LBB35:
 341:Drivers/lvgl/src/core/lv_group.c ****     if(group->obj_focus == NULL) return NULL;
 1613              		.loc 1 341 7 view .LVU506
 1614 0006 40B1     		cbz	r0, .L201
ARM GAS  /var/folders/lp/x54gwt890xv47sdkqj1k04q40000gn/T//ccpqBSpC.s 			page 46


 342:Drivers/lvgl/src/core/lv_group.c **** 
 1615              		.loc 1 342 5 is_stmt 1 view .LVU507
 342:Drivers/lvgl/src/core/lv_group.c **** 
 1616              		.loc 1 342 13 is_stmt 0 view .LVU508
 1617 0008 C368     		ldr	r3, [r0, #12]
 342:Drivers/lvgl/src/core/lv_group.c **** 
 1618              		.loc 1 342 7 view .LVU509
 1619 000a 33B1     		cbz	r3, .L201
 344:Drivers/lvgl/src/core/lv_group.c **** }
 1620              		.loc 1 344 5 is_stmt 1 view .LVU510
 344:Drivers/lvgl/src/core/lv_group.c **** }
 1621              		.loc 1 344 12 is_stmt 0 view .LVU511
 1622 000c 1C68     		ldr	r4, [r3]
 1623              	.LVL157:
 344:Drivers/lvgl/src/core/lv_group.c **** }
 1624              		.loc 1 344 12 view .LVU512
 1625              	.LBE35:
 1626              	.LBE36:
 294:Drivers/lvgl/src/core/lv_group.c **** 
 1627              		.loc 1 294 5 is_stmt 1 view .LVU513
 294:Drivers/lvgl/src/core/lv_group.c **** 
 1628              		.loc 1 294 7 is_stmt 0 view .LVU514
 1629 000e 24B1     		cbz	r4, .L201
 296:Drivers/lvgl/src/core/lv_group.c **** 
 1630              		.loc 1 296 5 is_stmt 1 view .LVU515
 296:Drivers/lvgl/src/core/lv_group.c **** 
 1631              		.loc 1 296 8 is_stmt 0 view .LVU516
 1632 0010 8021     		movs	r1, #128
 1633              	.LVL158:
 296:Drivers/lvgl/src/core/lv_group.c **** 
 1634              		.loc 1 296 8 view .LVU517
 1635 0012 2046     		mov	r0, r4
 1636              	.LVL159:
 296:Drivers/lvgl/src/core/lv_group.c **** 
 1637              		.loc 1 296 8 view .LVU518
 1638 0014 FFF7FEFF 		bl	lv_obj_has_state
 1639              	.LVL160:
 296:Drivers/lvgl/src/core/lv_group.c **** 
 1640              		.loc 1 296 7 discriminator 1 view .LVU519
 1641 0018 10B1     		cbz	r0, .L209
 1642              	.LVL161:
 1643              	.L201:
 294:Drivers/lvgl/src/core/lv_group.c **** 
 1644              		.loc 1 294 28 discriminator 1 view .LVU520
 1645 001a 0120     		movs	r0, #1
 299:Drivers/lvgl/src/core/lv_group.c **** 
 1646              		.loc 1 299 1 view .LVU521
 1647 001c 02B0     		add	sp, sp, #8
 1648              		.cfi_remember_state
 1649              		.cfi_def_cfa_offset 8
 1650              		@ sp needed
 1651 001e 10BD     		pop	{r4, pc}
 1652              	.LVL162:
 1653              	.L209:
 1654              		.cfi_restore_state
 298:Drivers/lvgl/src/core/lv_group.c **** }
 1655              		.loc 1 298 5 is_stmt 1 view .LVU522
ARM GAS  /var/folders/lp/x54gwt890xv47sdkqj1k04q40000gn/T//ccpqBSpC.s 			page 47


 298:Drivers/lvgl/src/core/lv_group.c **** }
 1656              		.loc 1 298 12 is_stmt 0 view .LVU523
 1657 0020 01AA     		add	r2, sp, #4
 1658 0022 0D21     		movs	r1, #13
 1659 0024 2046     		mov	r0, r4
 1660 0026 FFF7FEFF 		bl	lv_event_send
 1661              	.LVL163:
 299:Drivers/lvgl/src/core/lv_group.c **** 
 1662              		.loc 1 299 1 view .LVU524
 1663 002a 02B0     		add	sp, sp, #8
 1664              		.cfi_def_cfa_offset 8
 1665              		@ sp needed
 1666 002c 10BD     		pop	{r4, pc}
 1667              		.cfi_endproc
 1668              	.LFE174:
 1670 002e 00BF     		.section	.text.lv_group_set_focus_cb,"ax",%progbits
 1671              		.align	1
 1672              		.p2align 2,,3
 1673              		.global	lv_group_set_focus_cb
 1674              		.syntax unified
 1675              		.thumb
 1676              		.thumb_func
 1678              	lv_group_set_focus_cb:
 1679              	.LVL164:
 1680              	.LFB175:
 302:Drivers/lvgl/src/core/lv_group.c ****     group->focus_cb = focus_cb;
 1681              		.loc 1 302 1 is_stmt 1 view -0
 1682              		.cfi_startproc
 1683              		@ args = 0, pretend = 0, frame = 0
 1684              		@ frame_needed = 0, uses_anonymous_args = 0
 1685              		@ link register save eliminated.
 303:Drivers/lvgl/src/core/lv_group.c **** }
 1686              		.loc 1 303 5 view .LVU526
 303:Drivers/lvgl/src/core/lv_group.c **** }
 1687              		.loc 1 303 21 is_stmt 0 view .LVU527
 1688 0000 0161     		str	r1, [r0, #16]
 304:Drivers/lvgl/src/core/lv_group.c **** 
 1689              		.loc 1 304 1 view .LVU528
 1690 0002 7047     		bx	lr
 1691              		.cfi_endproc
 1692              	.LFE175:
 1694              		.section	.text.lv_group_set_edge_cb,"ax",%progbits
 1695              		.align	1
 1696              		.p2align 2,,3
 1697              		.global	lv_group_set_edge_cb
 1698              		.syntax unified
 1699              		.thumb
 1700              		.thumb_func
 1702              	lv_group_set_edge_cb:
 1703              	.LVL165:
 1704              	.LFB176:
 307:Drivers/lvgl/src/core/lv_group.c ****     group->edge_cb = edge_cb;
 1705              		.loc 1 307 1 is_stmt 1 view -0
 1706              		.cfi_startproc
 1707              		@ args = 0, pretend = 0, frame = 0
 1708              		@ frame_needed = 0, uses_anonymous_args = 0
 1709              		@ link register save eliminated.
ARM GAS  /var/folders/lp/x54gwt890xv47sdkqj1k04q40000gn/T//ccpqBSpC.s 			page 48


 308:Drivers/lvgl/src/core/lv_group.c **** }
 1710              		.loc 1 308 5 view .LVU530
 308:Drivers/lvgl/src/core/lv_group.c **** }
 1711              		.loc 1 308 20 is_stmt 0 view .LVU531
 1712 0000 4161     		str	r1, [r0, #20]
 309:Drivers/lvgl/src/core/lv_group.c **** 
 1713              		.loc 1 309 1 view .LVU532
 1714 0002 7047     		bx	lr
 1715              		.cfi_endproc
 1716              	.LFE176:
 1718              		.section	.text.lv_group_set_editing,"ax",%progbits
 1719              		.align	1
 1720              		.p2align 2,,3
 1721              		.global	lv_group_set_editing
 1722              		.syntax unified
 1723              		.thumb
 1724              		.thumb_func
 1726              	lv_group_set_editing:
 1727              	.LVL166:
 1728              	.LFB177:
 312:Drivers/lvgl/src/core/lv_group.c ****     if(group == NULL) return;
 1729              		.loc 1 312 1 is_stmt 1 view -0
 1730              		.cfi_startproc
 1731              		@ args = 0, pretend = 0, frame = 0
 1732              		@ frame_needed = 0, uses_anonymous_args = 0
 313:Drivers/lvgl/src/core/lv_group.c ****     uint8_t en_val = edit ? 1 : 0;
 1733              		.loc 1 313 5 view .LVU534
 313:Drivers/lvgl/src/core/lv_group.c ****     uint8_t en_val = edit ? 1 : 0;
 1734              		.loc 1 313 7 is_stmt 0 view .LVU535
 1735 0000 D8B1     		cbz	r0, .L223
 314:Drivers/lvgl/src/core/lv_group.c **** 
 1736              		.loc 1 314 5 is_stmt 1 view .LVU536
 1737              	.LVL167:
 316:Drivers/lvgl/src/core/lv_group.c **** 
 1738              		.loc 1 316 5 view .LVU537
 316:Drivers/lvgl/src/core/lv_group.c **** 
 1739              		.loc 1 316 23 is_stmt 0 view .LVU538
 1740 0002 027F     		ldrb	r2, [r0, #28]	@ zero_extendqisi2
 312:Drivers/lvgl/src/core/lv_group.c ****     if(group == NULL) return;
 1741              		.loc 1 312 1 view .LVU539
 1742 0004 10B5     		push	{r4, lr}
 1743              		.cfi_def_cfa_offset 8
 1744              		.cfi_offset 4, -8
 1745              		.cfi_offset 14, -4
 316:Drivers/lvgl/src/core/lv_group.c **** 
 1746              		.loc 1 316 7 view .LVU540
 1747 0006 C2F34004 		ubfx	r4, r2, #1, #1
 1748 000a 8C42     		cmp	r4, r1
 1749 000c 0FD0     		beq	.L212
 1750              	.LVL168:
 1751              	.LBB42:
 1752              	.LBI42:
 311:Drivers/lvgl/src/core/lv_group.c **** {
 1753              		.loc 1 311 6 is_stmt 1 view .LVU541
 1754              	.LBB43:
 318:Drivers/lvgl/src/core/lv_group.c ****     lv_obj_t * focused = lv_group_get_focused(group);
 1755              		.loc 1 318 5 view .LVU542
ARM GAS  /var/folders/lp/x54gwt890xv47sdkqj1k04q40000gn/T//ccpqBSpC.s 			page 49


 1756              	.LBB44:
 1757              	.LBB45:
 342:Drivers/lvgl/src/core/lv_group.c **** 
 1758              		.loc 1 342 13 is_stmt 0 view .LVU543
 1759 000e C468     		ldr	r4, [r0, #12]
 1760              	.LBE45:
 1761              	.LBE44:
 318:Drivers/lvgl/src/core/lv_group.c ****     lv_obj_t * focused = lv_group_get_focused(group);
 1762              		.loc 1 318 24 view .LVU544
 1763 0010 61F34102 		bfi	r2, r1, #1, #1
 1764 0014 0277     		strb	r2, [r0, #28]
 319:Drivers/lvgl/src/core/lv_group.c **** 
 1765              		.loc 1 319 5 is_stmt 1 view .LVU545
 1766              	.LVL169:
 1767              	.LBB47:
 1768              	.LBI44:
 339:Drivers/lvgl/src/core/lv_group.c **** {
 1769              		.loc 1 339 12 view .LVU546
 1770              	.LBB46:
 341:Drivers/lvgl/src/core/lv_group.c ****     if(group->obj_focus == NULL) return NULL;
 1771              		.loc 1 341 5 view .LVU547
 342:Drivers/lvgl/src/core/lv_group.c **** 
 1772              		.loc 1 342 5 view .LVU548
 342:Drivers/lvgl/src/core/lv_group.c **** 
 1773              		.loc 1 342 7 is_stmt 0 view .LVU549
 1774 0016 54B1     		cbz	r4, .L212
 344:Drivers/lvgl/src/core/lv_group.c **** }
 1775              		.loc 1 344 5 is_stmt 1 view .LVU550
 344:Drivers/lvgl/src/core/lv_group.c **** }
 1776              		.loc 1 344 12 is_stmt 0 view .LVU551
 1777 0018 2468     		ldr	r4, [r4]
 1778              	.LVL170:
 344:Drivers/lvgl/src/core/lv_group.c **** }
 1779              		.loc 1 344 12 view .LVU552
 1780              	.LBE46:
 1781              	.LBE47:
 321:Drivers/lvgl/src/core/lv_group.c ****         lv_res_t res = lv_event_send(*group->obj_focus, LV_EVENT_FOCUSED, get_indev(group));
 1782              		.loc 1 321 5 is_stmt 1 view .LVU553
 321:Drivers/lvgl/src/core/lv_group.c ****         lv_res_t res = lv_event_send(*group->obj_focus, LV_EVENT_FOCUSED, get_indev(group));
 1783              		.loc 1 321 7 is_stmt 0 view .LVU554
 1784 001a 44B1     		cbz	r4, .L212
 1785              	.LBB48:
 322:Drivers/lvgl/src/core/lv_group.c ****         if(res != LV_RES_OK) return;
 1786              		.loc 1 322 9 is_stmt 1 view .LVU555
 322:Drivers/lvgl/src/core/lv_group.c ****         if(res != LV_RES_OK) return;
 1787              		.loc 1 322 75 is_stmt 0 view .LVU556
 1788 001c FFF7FEFF 		bl	get_indev
 1789              	.LVL171:
 322:Drivers/lvgl/src/core/lv_group.c ****         if(res != LV_RES_OK) return;
 1790              		.loc 1 322 24 discriminator 1 view .LVU557
 1791 0020 0E21     		movs	r1, #14
 322:Drivers/lvgl/src/core/lv_group.c ****         if(res != LV_RES_OK) return;
 1792              		.loc 1 322 75 view .LVU558
 1793 0022 0246     		mov	r2, r0
 322:Drivers/lvgl/src/core/lv_group.c ****         if(res != LV_RES_OK) return;
 1794              		.loc 1 322 24 discriminator 1 view .LVU559
 1795 0024 2046     		mov	r0, r4
ARM GAS  /var/folders/lp/x54gwt890xv47sdkqj1k04q40000gn/T//ccpqBSpC.s 			page 50


 1796 0026 FFF7FEFF 		bl	lv_event_send
 1797              	.LVL172:
 323:Drivers/lvgl/src/core/lv_group.c **** 
 1798              		.loc 1 323 9 is_stmt 1 view .LVU560
 323:Drivers/lvgl/src/core/lv_group.c **** 
 1799              		.loc 1 323 11 is_stmt 0 view .LVU561
 1800 002a 0128     		cmp	r0, #1
 1801 002c 00D0     		beq	.L226
 1802              	.LVL173:
 1803              	.L212:
 323:Drivers/lvgl/src/core/lv_group.c **** 
 1804              		.loc 1 323 11 view .LVU562
 1805              	.LBE48:
 1806              	.LBE43:
 1807              	.LBE42:
 327:Drivers/lvgl/src/core/lv_group.c **** 
 1808              		.loc 1 327 1 view .LVU563
 1809 002e 10BD     		pop	{r4, pc}
 1810              	.LVL174:
 1811              	.L226:
 1812              	.LBB53:
 1813              	.LBB51:
 1814              	.LBB49:
 325:Drivers/lvgl/src/core/lv_group.c ****     }
 1815              		.loc 1 325 9 is_stmt 1 view .LVU564
 1816 0030 2046     		mov	r0, r4
 1817              	.LVL175:
 325:Drivers/lvgl/src/core/lv_group.c ****     }
 1818              		.loc 1 325 9 is_stmt 0 view .LVU565
 1819              	.LBE49:
 1820              	.LBE51:
 1821              	.LBE53:
 327:Drivers/lvgl/src/core/lv_group.c **** 
 1822              		.loc 1 327 1 view .LVU566
 1823 0032 BDE81040 		pop	{r4, lr}
 1824              		.cfi_restore 14
 1825              		.cfi_restore 4
 1826              		.cfi_def_cfa_offset 0
 1827              	.LVL176:
 1828              	.LBB54:
 1829              	.LBB52:
 1830              	.LBB50:
 325:Drivers/lvgl/src/core/lv_group.c ****     }
 1831              		.loc 1 325 9 view .LVU567
 1832 0036 FFF7FEBF 		b	lv_obj_invalidate
 1833              	.LVL177:
 1834              	.L223:
 325:Drivers/lvgl/src/core/lv_group.c ****     }
 1835              		.loc 1 325 9 view .LVU568
 1836 003a 7047     		bx	lr
 1837              	.LBE50:
 1838              	.LBE52:
 1839              	.LBE54:
 1840              		.cfi_endproc
 1841              	.LFE177:
 1843              		.section	.text.lv_group_focus_obj.part.0,"ax",%progbits
 1844              		.align	1
ARM GAS  /var/folders/lp/x54gwt890xv47sdkqj1k04q40000gn/T//ccpqBSpC.s 			page 51


 1845              		.p2align 2,,3
 1846              		.syntax unified
 1847              		.thumb
 1848              		.thumb_func
 1850              	lv_group_focus_obj.part.0:
 1851              	.LVL178:
 1852              	.LFB190:
 234:Drivers/lvgl/src/core/lv_group.c **** {
 1853              		.loc 1 234 6 is_stmt 1 view -0
 1854              		.cfi_startproc
 1855              		@ args = 0, pretend = 0, frame = 0
 1856              		@ frame_needed = 0, uses_anonymous_args = 0
 237:Drivers/lvgl/src/core/lv_group.c ****     if(g == NULL) return;
 1857              		.loc 1 237 5 view .LVU570
 234:Drivers/lvgl/src/core/lv_group.c **** {
 1858              		.loc 1 234 6 is_stmt 0 view .LVU571
 1859 0000 F8B5     		push	{r3, r4, r5, r6, r7, lr}
 1860              		.cfi_def_cfa_offset 24
 1861              		.cfi_offset 3, -24
 1862              		.cfi_offset 4, -20
 1863              		.cfi_offset 5, -16
 1864              		.cfi_offset 6, -12
 1865              		.cfi_offset 7, -8
 1866              		.cfi_offset 14, -4
 234:Drivers/lvgl/src/core/lv_group.c **** {
 1867              		.loc 1 234 6 view .LVU572
 1868 0002 0546     		mov	r5, r0
 237:Drivers/lvgl/src/core/lv_group.c ****     if(g == NULL) return;
 1869              		.loc 1 237 22 view .LVU573
 1870 0004 FFF7FEFF 		bl	lv_obj_get_group
 1871              	.LVL179:
 238:Drivers/lvgl/src/core/lv_group.c **** 
 1872              		.loc 1 238 5 is_stmt 1 view .LVU574
 238:Drivers/lvgl/src/core/lv_group.c **** 
 1873              		.loc 1 238 7 is_stmt 0 view .LVU575
 1874 0008 20B1     		cbz	r0, .L227
 240:Drivers/lvgl/src/core/lv_group.c **** 
 1875              		.loc 1 240 5 is_stmt 1 view .LVU576
 240:Drivers/lvgl/src/core/lv_group.c **** 
 1876              		.loc 1 240 18 is_stmt 0 view .LVU577
 1877 000a 017F     		ldrb	r1, [r0, #28]	@ zero_extendqisi2
 240:Drivers/lvgl/src/core/lv_group.c **** 
 1878              		.loc 1 240 7 view .LVU578
 1879 000c 11F00101 		ands	r1, r1, #1
 1880 0010 0646     		mov	r6, r0
 1881 0012 00D0     		beq	.L246
 1882              	.LVL180:
 1883              	.L227:
 265:Drivers/lvgl/src/core/lv_group.c **** 
 1884              		.loc 1 265 1 view .LVU579
 1885 0014 F8BD     		pop	{r3, r4, r5, r6, r7, pc}
 1886              	.LVL181:
 1887              	.L246:
 243:Drivers/lvgl/src/core/lv_group.c **** 
 1888              		.loc 1 243 5 is_stmt 1 view .LVU580
 1889 0016 FFF7FEFF 		bl	lv_group_set_editing
 1890              	.LVL182:
ARM GAS  /var/folders/lp/x54gwt890xv47sdkqj1k04q40000gn/T//ccpqBSpC.s 			page 52


 245:Drivers/lvgl/src/core/lv_group.c ****     _LV_LL_READ(&g->obj_ll, i) {
 1891              		.loc 1 245 5 view .LVU581
 246:Drivers/lvgl/src/core/lv_group.c ****         if(*i == obj) {
 1892              		.loc 1 246 5 view .LVU582
 1893 001a 3046     		mov	r0, r6
 1894 001c FFF7FEFF 		bl	_lv_ll_get_head
 1895              	.LVL183:
 246:Drivers/lvgl/src/core/lv_group.c ****         if(*i == obj) {
 1896              		.loc 1 246 5 discriminator 1 view .LVU583
 1897 0020 0446     		mov	r4, r0
 1898 0022 28B9     		cbnz	r0, .L234
 1899 0024 F6E7     		b	.L227
 1900              	.LVL184:
 1901              	.L231:
 246:Drivers/lvgl/src/core/lv_group.c ****         if(*i == obj) {
 1902              		.loc 1 246 5 is_stmt 0 discriminator 2 view .LVU584
 1903 0026 FFF7FEFF 		bl	_lv_ll_get_next
 1904              	.LVL185:
 246:Drivers/lvgl/src/core/lv_group.c ****         if(*i == obj) {
 1905              		.loc 1 246 5 is_stmt 1 discriminator 1 view .LVU585
 1906 002a 0446     		mov	r4, r0
 1907 002c 0028     		cmp	r0, #0
 1908 002e F1D0     		beq	.L227
 1909              	.L234:
 247:Drivers/lvgl/src/core/lv_group.c ****             if(g->obj_focus != NULL && obj != *g->obj_focus) {  /*Do not defocus if the same object
 1910              		.loc 1 247 9 view .LVU586
 246:Drivers/lvgl/src/core/lv_group.c ****         if(*i == obj) {
 1911              		.loc 1 246 5 discriminator 2 view .LVU587
 247:Drivers/lvgl/src/core/lv_group.c ****             if(g->obj_focus != NULL && obj != *g->obj_focus) {  /*Do not defocus if the same object
 1912              		.loc 1 247 11 is_stmt 0 view .LVU588
 1913 0030 2368     		ldr	r3, [r4]
 1914 0032 9D42     		cmp	r5, r3
 246:Drivers/lvgl/src/core/lv_group.c ****         if(*i == obj) {
 1915              		.loc 1 246 5 discriminator 2 view .LVU589
 1916 0034 2146     		mov	r1, r4
 1917 0036 3046     		mov	r0, r6
 1918              	.LVL186:
 247:Drivers/lvgl/src/core/lv_group.c ****             if(g->obj_focus != NULL && obj != *g->obj_focus) {  /*Do not defocus if the same object
 1919              		.loc 1 247 11 view .LVU590
 1920 0038 F5D1     		bne	.L231
 1921              	.LVL187:
 248:Drivers/lvgl/src/core/lv_group.c ****                 lv_res_t res = lv_event_send(*g->obj_focus, LV_EVENT_DEFOCUSED, get_indev(g));
 1922              		.loc 1 248 13 is_stmt 1 view .LVU591
 248:Drivers/lvgl/src/core/lv_group.c ****                 lv_res_t res = lv_event_send(*g->obj_focus, LV_EVENT_DEFOCUSED, get_indev(g));
 1923              		.loc 1 248 17 is_stmt 0 view .LVU592
 1924 003a F368     		ldr	r3, [r6, #12]
 248:Drivers/lvgl/src/core/lv_group.c ****                 lv_res_t res = lv_event_send(*g->obj_focus, LV_EVENT_DEFOCUSED, get_indev(g));
 1925              		.loc 1 248 15 view .LVU593
 1926 003c 7BB1     		cbz	r3, .L232
 248:Drivers/lvgl/src/core/lv_group.c ****                 lv_res_t res = lv_event_send(*g->obj_focus, LV_EVENT_DEFOCUSED, get_indev(g));
 1927              		.loc 1 248 47 discriminator 1 view .LVU594
 1928 003e 1F68     		ldr	r7, [r3]
 248:Drivers/lvgl/src/core/lv_group.c ****                 lv_res_t res = lv_event_send(*g->obj_focus, LV_EVENT_DEFOCUSED, get_indev(g));
 1929              		.loc 1 248 37 discriminator 1 view .LVU595
 1930 0040 BD42     		cmp	r5, r7
 1931 0042 0CD0     		beq	.L232
 1932              	.LBB55:
ARM GAS  /var/folders/lp/x54gwt890xv47sdkqj1k04q40000gn/T//ccpqBSpC.s 			page 53


 249:Drivers/lvgl/src/core/lv_group.c ****                 if(res != LV_RES_OK) return;
 1933              		.loc 1 249 17 is_stmt 1 view .LVU596
 249:Drivers/lvgl/src/core/lv_group.c ****                 if(res != LV_RES_OK) return;
 1934              		.loc 1 249 81 is_stmt 0 view .LVU597
 1935 0044 FFF7FEFF 		bl	get_indev
 1936              	.LVL188:
 249:Drivers/lvgl/src/core/lv_group.c ****                 if(res != LV_RES_OK) return;
 1937              		.loc 1 249 32 discriminator 1 view .LVU598
 1938 0048 0F21     		movs	r1, #15
 249:Drivers/lvgl/src/core/lv_group.c ****                 if(res != LV_RES_OK) return;
 1939              		.loc 1 249 81 view .LVU599
 1940 004a 0246     		mov	r2, r0
 249:Drivers/lvgl/src/core/lv_group.c ****                 if(res != LV_RES_OK) return;
 1941              		.loc 1 249 32 discriminator 1 view .LVU600
 1942 004c 3846     		mov	r0, r7
 1943 004e FFF7FEFF 		bl	lv_event_send
 1944              	.LVL189:
 250:Drivers/lvgl/src/core/lv_group.c ****                 lv_obj_invalidate(*g->obj_focus);
 1945              		.loc 1 250 17 is_stmt 1 view .LVU601
 250:Drivers/lvgl/src/core/lv_group.c ****                 lv_obj_invalidate(*g->obj_focus);
 1946              		.loc 1 250 19 is_stmt 0 view .LVU602
 1947 0052 0128     		cmp	r0, #1
 1948 0054 DED1     		bne	.L227
 251:Drivers/lvgl/src/core/lv_group.c ****             }
 1949              		.loc 1 251 17 is_stmt 1 view .LVU603
 1950 0056 F368     		ldr	r3, [r6, #12]
 1951 0058 1868     		ldr	r0, [r3]
 1952              	.LVL190:
 251:Drivers/lvgl/src/core/lv_group.c ****             }
 1953              		.loc 1 251 17 is_stmt 0 view .LVU604
 1954 005a FFF7FEFF 		bl	lv_obj_invalidate
 1955              	.LVL191:
 1956              	.L232:
 251:Drivers/lvgl/src/core/lv_group.c ****             }
 1957              		.loc 1 251 17 view .LVU605
 1958              	.LBE55:
 254:Drivers/lvgl/src/core/lv_group.c **** 
 1959              		.loc 1 254 13 is_stmt 1 view .LVU606
 1960              	.LBB56:
 257:Drivers/lvgl/src/core/lv_group.c ****                 lv_res_t res = lv_event_send(*g->obj_focus, LV_EVENT_FOCUSED, get_indev(g));
 1961              		.loc 1 257 21 is_stmt 0 view .LVU607
 1962 005e 3369     		ldr	r3, [r6, #16]
 1963              	.LBE56:
 254:Drivers/lvgl/src/core/lv_group.c **** 
 1964              		.loc 1 254 26 view .LVU608
 1965 0060 F460     		str	r4, [r6, #12]
 256:Drivers/lvgl/src/core/lv_group.c ****                 if(g->focus_cb) g->focus_cb(g);
 1966              		.loc 1 256 13 is_stmt 1 view .LVU609
 1967              	.LBB57:
 257:Drivers/lvgl/src/core/lv_group.c ****                 lv_res_t res = lv_event_send(*g->obj_focus, LV_EVENT_FOCUSED, get_indev(g));
 1968              		.loc 1 257 17 view .LVU610
 257:Drivers/lvgl/src/core/lv_group.c ****                 lv_res_t res = lv_event_send(*g->obj_focus, LV_EVENT_FOCUSED, get_indev(g));
 1969              		.loc 1 257 19 is_stmt 0 view .LVU611
 1970 0062 13B1     		cbz	r3, .L233
 257:Drivers/lvgl/src/core/lv_group.c ****                 lv_res_t res = lv_event_send(*g->obj_focus, LV_EVENT_FOCUSED, get_indev(g));
 1971              		.loc 1 257 33 is_stmt 1 discriminator 1 view .LVU612
 1972 0064 3046     		mov	r0, r6
ARM GAS  /var/folders/lp/x54gwt890xv47sdkqj1k04q40000gn/T//ccpqBSpC.s 			page 54


 1973 0066 9847     		blx	r3
 1974              	.LVL192:
 258:Drivers/lvgl/src/core/lv_group.c ****                 if(res != LV_RES_OK) return;
 1975              		.loc 1 258 48 is_stmt 0 view .LVU613
 1976 0068 F468     		ldr	r4, [r6, #12]
 1977              	.LVL193:
 1978              	.L233:
 258:Drivers/lvgl/src/core/lv_group.c ****                 if(res != LV_RES_OK) return;
 1979              		.loc 1 258 17 is_stmt 1 view .LVU614
 258:Drivers/lvgl/src/core/lv_group.c ****                 if(res != LV_RES_OK) return;
 1980              		.loc 1 258 32 is_stmt 0 view .LVU615
 1981 006a 2468     		ldr	r4, [r4]
 258:Drivers/lvgl/src/core/lv_group.c ****                 if(res != LV_RES_OK) return;
 1982              		.loc 1 258 79 view .LVU616
 1983 006c 3046     		mov	r0, r6
 1984 006e FFF7FEFF 		bl	get_indev
 1985              	.LVL194:
 258:Drivers/lvgl/src/core/lv_group.c ****                 if(res != LV_RES_OK) return;
 1986              		.loc 1 258 32 discriminator 1 view .LVU617
 1987 0072 0E21     		movs	r1, #14
 258:Drivers/lvgl/src/core/lv_group.c ****                 if(res != LV_RES_OK) return;
 1988              		.loc 1 258 79 view .LVU618
 1989 0074 0246     		mov	r2, r0
 258:Drivers/lvgl/src/core/lv_group.c ****                 if(res != LV_RES_OK) return;
 1990              		.loc 1 258 32 discriminator 1 view .LVU619
 1991 0076 2046     		mov	r0, r4
 1992 0078 FFF7FEFF 		bl	lv_event_send
 1993              	.LVL195:
 259:Drivers/lvgl/src/core/lv_group.c ****                 lv_obj_invalidate(*g->obj_focus);
 1994              		.loc 1 259 17 is_stmt 1 view .LVU620
 259:Drivers/lvgl/src/core/lv_group.c ****                 lv_obj_invalidate(*g->obj_focus);
 1995              		.loc 1 259 19 is_stmt 0 view .LVU621
 1996 007c 0128     		cmp	r0, #1
 1997 007e C9D1     		bne	.L227
 260:Drivers/lvgl/src/core/lv_group.c ****             }
 1998              		.loc 1 260 17 is_stmt 1 view .LVU622
 1999 0080 F368     		ldr	r3, [r6, #12]
 2000 0082 1868     		ldr	r0, [r3]
 2001              	.LVL196:
 260:Drivers/lvgl/src/core/lv_group.c ****             }
 2002              		.loc 1 260 17 is_stmt 0 view .LVU623
 2003              	.LBE57:
 265:Drivers/lvgl/src/core/lv_group.c **** 
 2004              		.loc 1 265 1 view .LVU624
 2005 0084 BDE8F840 		pop	{r3, r4, r5, r6, r7, lr}
 2006              		.cfi_restore 14
 2007              		.cfi_restore 7
 2008              		.cfi_restore 6
 2009              		.cfi_restore 5
 2010              		.cfi_restore 4
 2011              		.cfi_restore 3
 2012              		.cfi_def_cfa_offset 0
 2013              	.LVL197:
 2014              	.LBB58:
 260:Drivers/lvgl/src/core/lv_group.c ****             }
 2015              		.loc 1 260 17 view .LVU625
 2016 0088 FFF7FEBF 		b	lv_obj_invalidate
ARM GAS  /var/folders/lp/x54gwt890xv47sdkqj1k04q40000gn/T//ccpqBSpC.s 			page 55


 2017              	.LVL198:
 2018              	.LBE58:
 2019              		.cfi_endproc
 2020              	.LFE190:
 2022              		.section	.text.lv_group_focus_obj,"ax",%progbits
 2023              		.align	1
 2024              		.p2align 2,,3
 2025              		.global	lv_group_focus_obj
 2026              		.syntax unified
 2027              		.thumb
 2028              		.thumb_func
 2030              	lv_group_focus_obj:
 2031              	.LVL199:
 2032              	.LFB170:
 235:Drivers/lvgl/src/core/lv_group.c ****     if(obj == NULL) return;
 2033              		.loc 1 235 1 is_stmt 1 view -0
 2034              		.cfi_startproc
 2035              		@ args = 0, pretend = 0, frame = 0
 2036              		@ frame_needed = 0, uses_anonymous_args = 0
 2037              		@ link register save eliminated.
 236:Drivers/lvgl/src/core/lv_group.c ****     lv_group_t * g = lv_obj_get_group(obj);
 2038              		.loc 1 236 5 view .LVU627
 236:Drivers/lvgl/src/core/lv_group.c ****     lv_group_t * g = lv_obj_get_group(obj);
 2039              		.loc 1 236 7 is_stmt 0 view .LVU628
 2040 0000 08B1     		cbz	r0, .L247
 2041 0002 FFF7FEBF 		b	lv_group_focus_obj.part.0
 2042              	.LVL200:
 2043              	.L247:
 265:Drivers/lvgl/src/core/lv_group.c **** 
 2044              		.loc 1 265 1 view .LVU629
 2045 0006 7047     		bx	lr
 2046              		.cfi_endproc
 2047              	.LFE170:
 2049              		.section	.text.lv_group_swap_obj,"ax",%progbits
 2050              		.align	1
 2051              		.p2align 2,,3
 2052              		.global	lv_group_swap_obj
 2053              		.syntax unified
 2054              		.thumb
 2055              		.thumb_func
 2057              	lv_group_swap_obj:
 2058              	.LVL201:
 2059              	.LFB167:
 157:Drivers/lvgl/src/core/lv_group.c ****     lv_group_t * g1 = lv_obj_get_group(obj1);
 2060              		.loc 1 157 1 is_stmt 1 view -0
 2061              		.cfi_startproc
 2062              		@ args = 0, pretend = 0, frame = 0
 2063              		@ frame_needed = 0, uses_anonymous_args = 0
 158:Drivers/lvgl/src/core/lv_group.c ****     lv_group_t * g2 = lv_obj_get_group(obj2);
 2064              		.loc 1 158 5 view .LVU631
 157:Drivers/lvgl/src/core/lv_group.c ****     lv_group_t * g1 = lv_obj_get_group(obj1);
 2065              		.loc 1 157 1 is_stmt 0 view .LVU632
 2066 0000 70B5     		push	{r4, r5, r6, lr}
 2067              		.cfi_def_cfa_offset 16
 2068              		.cfi_offset 4, -16
 2069              		.cfi_offset 5, -12
 2070              		.cfi_offset 6, -8
ARM GAS  /var/folders/lp/x54gwt890xv47sdkqj1k04q40000gn/T//ccpqBSpC.s 			page 56


 2071              		.cfi_offset 14, -4
 157:Drivers/lvgl/src/core/lv_group.c ****     lv_group_t * g1 = lv_obj_get_group(obj1);
 2072              		.loc 1 157 1 view .LVU633
 2073 0002 0D46     		mov	r5, r1
 2074 0004 0646     		mov	r6, r0
 158:Drivers/lvgl/src/core/lv_group.c ****     lv_group_t * g2 = lv_obj_get_group(obj2);
 2075              		.loc 1 158 23 view .LVU634
 2076 0006 FFF7FEFF 		bl	lv_obj_get_group
 2077              	.LVL202:
 158:Drivers/lvgl/src/core/lv_group.c ****     lv_group_t * g2 = lv_obj_get_group(obj2);
 2078              		.loc 1 158 23 view .LVU635
 2079 000a 0446     		mov	r4, r0
 2080              	.LVL203:
 159:Drivers/lvgl/src/core/lv_group.c ****     if(g1 != g2) return;
 2081              		.loc 1 159 5 is_stmt 1 view .LVU636
 159:Drivers/lvgl/src/core/lv_group.c ****     if(g1 != g2) return;
 2082              		.loc 1 159 23 is_stmt 0 view .LVU637
 2083 000c 2846     		mov	r0, r5
 2084              	.LVL204:
 159:Drivers/lvgl/src/core/lv_group.c ****     if(g1 != g2) return;
 2085              		.loc 1 159 23 view .LVU638
 2086 000e FFF7FEFF 		bl	lv_obj_get_group
 2087              	.LVL205:
 160:Drivers/lvgl/src/core/lv_group.c ****     if(g1 == NULL) return;
 2088              		.loc 1 160 5 is_stmt 1 view .LVU639
 160:Drivers/lvgl/src/core/lv_group.c ****     if(g1 == NULL) return;
 2089              		.loc 1 160 7 is_stmt 0 view .LVU640
 2090 0012 8442     		cmp	r4, r0
 2091 0014 00D0     		beq	.L272
 2092              	.LVL206:
 2093              	.L249:
 173:Drivers/lvgl/src/core/lv_group.c **** 
 2094              		.loc 1 173 1 view .LVU641
 2095 0016 70BD     		pop	{r4, r5, r6, pc}
 2096              	.LVL207:
 2097              	.L272:
 161:Drivers/lvgl/src/core/lv_group.c **** 
 2098              		.loc 1 161 5 is_stmt 1 view .LVU642
 161:Drivers/lvgl/src/core/lv_group.c **** 
 2099              		.loc 1 161 7 is_stmt 0 view .LVU643
 2100 0018 002C     		cmp	r4, #0
 2101 001a FCD0     		beq	.L249
 164:Drivers/lvgl/src/core/lv_group.c ****     _LV_LL_READ(&g1->obj_ll, obj_i) {
 2102              		.loc 1 164 5 is_stmt 1 view .LVU644
 165:Drivers/lvgl/src/core/lv_group.c ****         if((*obj_i) == obj1)(*obj_i) = obj2;
 2103              		.loc 1 165 5 view .LVU645
 2104 001c FFF7FEFF 		bl	_lv_ll_get_head
 2105              	.LVL208:
 165:Drivers/lvgl/src/core/lv_group.c ****         if((*obj_i) == obj1)(*obj_i) = obj2;
 2106              		.loc 1 165 5 discriminator 1 view .LVU646
 2107 0020 0146     		mov	r1, r0
 2108 0022 40B9     		cbnz	r0, .L256
 2109 0024 11E0     		b	.L253
 2110              	.L254:
 167:Drivers/lvgl/src/core/lv_group.c ****     }
 2111              		.loc 1 167 16 is_stmt 0 view .LVU647
 2112 0026 AB42     		cmp	r3, r5
ARM GAS  /var/folders/lp/x54gwt890xv47sdkqj1k04q40000gn/T//ccpqBSpC.s 			page 57


 167:Drivers/lvgl/src/core/lv_group.c ****     }
 2113              		.loc 1 167 34 is_stmt 1 discriminator 1 view .LVU648
 165:Drivers/lvgl/src/core/lv_group.c ****         if((*obj_i) == obj1)(*obj_i) = obj2;
 2114              		.loc 1 165 5 discriminator 2 view .LVU649
 167:Drivers/lvgl/src/core/lv_group.c ****     }
 2115              		.loc 1 167 43 is_stmt 0 discriminator 1 view .LVU650
 2116 0028 08BF     		it	eq
 2117 002a 0E60     		streq	r6, [r1]
 165:Drivers/lvgl/src/core/lv_group.c ****         if((*obj_i) == obj1)(*obj_i) = obj2;
 2118              		.loc 1 165 5 discriminator 2 view .LVU651
 2119 002c 2046     		mov	r0, r4
 2120              	.LVL209:
 165:Drivers/lvgl/src/core/lv_group.c ****         if((*obj_i) == obj1)(*obj_i) = obj2;
 2121              		.loc 1 165 5 discriminator 2 view .LVU652
 2122 002e FFF7FEFF 		bl	_lv_ll_get_next
 2123              	.LVL210:
 165:Drivers/lvgl/src/core/lv_group.c ****         if((*obj_i) == obj1)(*obj_i) = obj2;
 2124              		.loc 1 165 5 is_stmt 1 discriminator 1 view .LVU653
 2125 0032 0146     		mov	r1, r0
 2126 0034 48B1     		cbz	r0, .L253
 2127              	.L256:
 166:Drivers/lvgl/src/core/lv_group.c ****         else if((*obj_i) == obj2)(*obj_i) = obj1;
 2128              		.loc 1 166 9 view .LVU654
 167:Drivers/lvgl/src/core/lv_group.c ****     }
 2129              		.loc 1 167 14 view .LVU655
 166:Drivers/lvgl/src/core/lv_group.c ****         else if((*obj_i) == obj2)(*obj_i) = obj1;
 2130              		.loc 1 166 13 is_stmt 0 view .LVU656
 2131 0036 0B68     		ldr	r3, [r1]
 166:Drivers/lvgl/src/core/lv_group.c ****         else if((*obj_i) == obj2)(*obj_i) = obj1;
 2132              		.loc 1 166 11 view .LVU657
 2133 0038 B342     		cmp	r3, r6
 2134 003a F4D1     		bne	.L254
 166:Drivers/lvgl/src/core/lv_group.c ****         else if((*obj_i) == obj2)(*obj_i) = obj1;
 2135              		.loc 1 166 29 is_stmt 1 discriminator 1 view .LVU658
 166:Drivers/lvgl/src/core/lv_group.c ****         else if((*obj_i) == obj2)(*obj_i) = obj1;
 2136              		.loc 1 166 38 is_stmt 0 discriminator 1 view .LVU659
 2137 003c 0D60     		str	r5, [r1]
 165:Drivers/lvgl/src/core/lv_group.c ****         if((*obj_i) == obj1)(*obj_i) = obj2;
 2138              		.loc 1 165 5 is_stmt 1 discriminator 2 view .LVU660
 2139 003e 2046     		mov	r0, r4
 2140              	.LVL211:
 165:Drivers/lvgl/src/core/lv_group.c ****         if((*obj_i) == obj1)(*obj_i) = obj2;
 2141              		.loc 1 165 5 is_stmt 0 discriminator 2 view .LVU661
 2142 0040 FFF7FEFF 		bl	_lv_ll_get_next
 2143              	.LVL212:
 165:Drivers/lvgl/src/core/lv_group.c ****         if((*obj_i) == obj1)(*obj_i) = obj2;
 2144              		.loc 1 165 5 is_stmt 1 discriminator 1 view .LVU662
 2145 0044 0146     		mov	r1, r0
 2146 0046 0028     		cmp	r0, #0
 2147 0048 F5D1     		bne	.L256
 2148              	.L253:
 170:Drivers/lvgl/src/core/lv_group.c ****     else if(*g1->obj_focus == obj2) lv_group_focus_obj(obj1);
 2149              		.loc 1 170 5 view .LVU663
 170:Drivers/lvgl/src/core/lv_group.c ****     else if(*g1->obj_focus == obj2) lv_group_focus_obj(obj1);
 2150              		.loc 1 170 8 is_stmt 0 view .LVU664
 2151 004a E368     		ldr	r3, [r4, #12]
 2152 004c 1B68     		ldr	r3, [r3]
ARM GAS  /var/folders/lp/x54gwt890xv47sdkqj1k04q40000gn/T//ccpqBSpC.s 			page 58


 170:Drivers/lvgl/src/core/lv_group.c ****     else if(*g1->obj_focus == obj2) lv_group_focus_obj(obj1);
 2153              		.loc 1 170 7 view .LVU665
 2154 004e B342     		cmp	r3, r6
 2155 0050 08D0     		beq	.L273
 171:Drivers/lvgl/src/core/lv_group.c **** 
 2156              		.loc 1 171 10 is_stmt 1 view .LVU666
 171:Drivers/lvgl/src/core/lv_group.c **** 
 2157              		.loc 1 171 12 is_stmt 0 view .LVU667
 2158 0052 AB42     		cmp	r3, r5
 2159 0054 DFD1     		bne	.L249
 171:Drivers/lvgl/src/core/lv_group.c **** 
 2160              		.loc 1 171 37 is_stmt 1 discriminator 1 view .LVU668
 2161              	.LVL213:
 2162              	.LBB59:
 2163              	.LBI59:
 234:Drivers/lvgl/src/core/lv_group.c **** {
 2164              		.loc 1 234 6 view .LVU669
 2165              	.LBB60:
 236:Drivers/lvgl/src/core/lv_group.c ****     lv_group_t * g = lv_obj_get_group(obj);
 2166              		.loc 1 236 5 view .LVU670
 236:Drivers/lvgl/src/core/lv_group.c ****     lv_group_t * g = lv_obj_get_group(obj);
 2167              		.loc 1 236 7 is_stmt 0 view .LVU671
 2168 0056 002E     		cmp	r6, #0
 2169 0058 DDD0     		beq	.L249
 2170 005a 3046     		mov	r0, r6
 2171              	.LVL214:
 236:Drivers/lvgl/src/core/lv_group.c ****     lv_group_t * g = lv_obj_get_group(obj);
 2172              		.loc 1 236 7 view .LVU672
 2173              	.LBE60:
 2174              	.LBE59:
 173:Drivers/lvgl/src/core/lv_group.c **** 
 2175              		.loc 1 173 1 view .LVU673
 2176 005c BDE87040 		pop	{r4, r5, r6, lr}
 2177              		.cfi_remember_state
 2178              		.cfi_restore 14
 2179              		.cfi_restore 6
 2180              		.cfi_restore 5
 2181              		.cfi_restore 4
 2182              		.cfi_def_cfa_offset 0
 2183              	.LVL215:
 2184              	.LBB62:
 2185              	.LBB61:
 173:Drivers/lvgl/src/core/lv_group.c **** 
 2186              		.loc 1 173 1 view .LVU674
 2187 0060 FFF7FEBF 		b	lv_group_focus_obj.part.0
 2188              	.LVL216:
 2189              	.L273:
 2190              		.cfi_restore_state
 173:Drivers/lvgl/src/core/lv_group.c **** 
 2191              		.loc 1 173 1 view .LVU675
 2192              	.LBE61:
 2193              	.LBE62:
 170:Drivers/lvgl/src/core/lv_group.c ****     else if(*g1->obj_focus == obj2) lv_group_focus_obj(obj1);
 2194              		.loc 1 170 32 is_stmt 1 discriminator 1 view .LVU676
 2195              	.LBB63:
 2196              	.LBI63:
 234:Drivers/lvgl/src/core/lv_group.c **** {
ARM GAS  /var/folders/lp/x54gwt890xv47sdkqj1k04q40000gn/T//ccpqBSpC.s 			page 59


 2197              		.loc 1 234 6 view .LVU677
 2198              	.LBB64:
 236:Drivers/lvgl/src/core/lv_group.c ****     lv_group_t * g = lv_obj_get_group(obj);
 2199              		.loc 1 236 5 view .LVU678
 236:Drivers/lvgl/src/core/lv_group.c ****     lv_group_t * g = lv_obj_get_group(obj);
 2200              		.loc 1 236 7 is_stmt 0 view .LVU679
 2201 0064 002D     		cmp	r5, #0
 2202 0066 D6D0     		beq	.L249
 2203 0068 2846     		mov	r0, r5
 2204              	.LVL217:
 236:Drivers/lvgl/src/core/lv_group.c ****     lv_group_t * g = lv_obj_get_group(obj);
 2205              		.loc 1 236 7 view .LVU680
 2206              	.LBE64:
 2207              	.LBE63:
 173:Drivers/lvgl/src/core/lv_group.c **** 
 2208              		.loc 1 173 1 view .LVU681
 2209 006a BDE87040 		pop	{r4, r5, r6, lr}
 2210              		.cfi_restore 14
 2211              		.cfi_restore 6
 2212              		.cfi_restore 5
 2213              		.cfi_restore 4
 2214              		.cfi_def_cfa_offset 0
 2215              	.LVL218:
 2216              	.LBB66:
 2217              	.LBB65:
 173:Drivers/lvgl/src/core/lv_group.c **** 
 2218              		.loc 1 173 1 view .LVU682
 2219 006e FFF7FEBF 		b	lv_group_focus_obj.part.0
 2220              	.LVL219:
 173:Drivers/lvgl/src/core/lv_group.c **** 
 2221              		.loc 1 173 1 view .LVU683
 2222              	.LBE65:
 2223              	.LBE66:
 2224              		.cfi_endproc
 2225              	.LFE167:
 2227 0072 00BF     		.section	.text.lv_group_set_refocus_policy,"ax",%progbits
 2228              		.align	1
 2229              		.p2align 2,,3
 2230              		.global	lv_group_set_refocus_policy
 2231              		.syntax unified
 2232              		.thumb
 2233              		.thumb_func
 2235              	lv_group_set_refocus_policy:
 2236              	.LVL220:
 2237              	.LFB178:
 330:Drivers/lvgl/src/core/lv_group.c ****     group->refocus_policy = policy & 0x01;
 2238              		.loc 1 330 1 is_stmt 1 view -0
 2239              		.cfi_startproc
 2240              		@ args = 0, pretend = 0, frame = 0
 2241              		@ frame_needed = 0, uses_anonymous_args = 0
 2242              		@ link register save eliminated.
 331:Drivers/lvgl/src/core/lv_group.c **** }
 2243              		.loc 1 331 5 view .LVU685
 331:Drivers/lvgl/src/core/lv_group.c **** }
 2244              		.loc 1 331 27 is_stmt 0 view .LVU686
 2245 0000 037F     		ldrb	r3, [r0, #28]	@ zero_extendqisi2
 2246 0002 61F38203 		bfi	r3, r1, #2, #1
ARM GAS  /var/folders/lp/x54gwt890xv47sdkqj1k04q40000gn/T//ccpqBSpC.s 			page 60


 2247 0006 0377     		strb	r3, [r0, #28]
 332:Drivers/lvgl/src/core/lv_group.c **** 
 2248              		.loc 1 332 1 view .LVU687
 2249 0008 7047     		bx	lr
 2250              		.cfi_endproc
 2251              	.LFE178:
 2253 000a 00BF     		.section	.text.lv_group_set_wrap,"ax",%progbits
 2254              		.align	1
 2255              		.p2align 2,,3
 2256              		.global	lv_group_set_wrap
 2257              		.syntax unified
 2258              		.thumb
 2259              		.thumb_func
 2261              	lv_group_set_wrap:
 2262              	.LVL221:
 2263              	.LFB179:
 335:Drivers/lvgl/src/core/lv_group.c ****     group->wrap = en ? 1 : 0;
 2264              		.loc 1 335 1 is_stmt 1 view -0
 2265              		.cfi_startproc
 2266              		@ args = 0, pretend = 0, frame = 0
 2267              		@ frame_needed = 0, uses_anonymous_args = 0
 2268              		@ link register save eliminated.
 336:Drivers/lvgl/src/core/lv_group.c **** }
 2269              		.loc 1 336 5 view .LVU689
 336:Drivers/lvgl/src/core/lv_group.c **** }
 2270              		.loc 1 336 17 is_stmt 0 view .LVU690
 2271 0000 037F     		ldrb	r3, [r0, #28]	@ zero_extendqisi2
 2272 0002 61F3C303 		bfi	r3, r1, #3, #1
 2273 0006 0377     		strb	r3, [r0, #28]
 337:Drivers/lvgl/src/core/lv_group.c **** 
 2274              		.loc 1 337 1 view .LVU691
 2275 0008 7047     		bx	lr
 2276              		.cfi_endproc
 2277              	.LFE179:
 2279 000a 00BF     		.section	.text.lv_group_get_focused,"ax",%progbits
 2280              		.align	1
 2281              		.p2align 2,,3
 2282              		.global	lv_group_get_focused
 2283              		.syntax unified
 2284              		.thumb
 2285              		.thumb_func
 2287              	lv_group_get_focused:
 2288              	.LVL222:
 2289              	.LFB180:
 340:Drivers/lvgl/src/core/lv_group.c ****     if(!group) return NULL;
 2290              		.loc 1 340 1 is_stmt 1 view -0
 2291              		.cfi_startproc
 2292              		@ args = 0, pretend = 0, frame = 0
 2293              		@ frame_needed = 0, uses_anonymous_args = 0
 2294              		@ link register save eliminated.
 341:Drivers/lvgl/src/core/lv_group.c ****     if(group->obj_focus == NULL) return NULL;
 2295              		.loc 1 341 5 view .LVU693
 341:Drivers/lvgl/src/core/lv_group.c ****     if(group->obj_focus == NULL) return NULL;
 2296              		.loc 1 341 7 is_stmt 0 view .LVU694
 2297 0000 10B1     		cbz	r0, .L276
 342:Drivers/lvgl/src/core/lv_group.c **** 
 2298              		.loc 1 342 5 is_stmt 1 view .LVU695
ARM GAS  /var/folders/lp/x54gwt890xv47sdkqj1k04q40000gn/T//ccpqBSpC.s 			page 61


 342:Drivers/lvgl/src/core/lv_group.c **** 
 2299              		.loc 1 342 13 is_stmt 0 view .LVU696
 2300 0002 C068     		ldr	r0, [r0, #12]
 2301              	.LVL223:
 342:Drivers/lvgl/src/core/lv_group.c **** 
 2302              		.loc 1 342 7 view .LVU697
 2303 0004 00B1     		cbz	r0, .L276
 344:Drivers/lvgl/src/core/lv_group.c **** }
 2304              		.loc 1 344 5 is_stmt 1 view .LVU698
 344:Drivers/lvgl/src/core/lv_group.c **** }
 2305              		.loc 1 344 12 is_stmt 0 view .LVU699
 2306 0006 0068     		ldr	r0, [r0]
 2307              	.L276:
 345:Drivers/lvgl/src/core/lv_group.c **** 
 2308              		.loc 1 345 1 view .LVU700
 2309 0008 7047     		bx	lr
 2310              		.cfi_endproc
 2311              	.LFE180:
 2313 000a 00BF     		.section	.text.lv_group_get_focus_cb,"ax",%progbits
 2314              		.align	1
 2315              		.p2align 2,,3
 2316              		.global	lv_group_get_focus_cb
 2317              		.syntax unified
 2318              		.thumb
 2319              		.thumb_func
 2321              	lv_group_get_focus_cb:
 2322              	.LVL224:
 2323              	.LFB181:
 348:Drivers/lvgl/src/core/lv_group.c ****     if(!group) return NULL;
 2324              		.loc 1 348 1 is_stmt 1 view -0
 2325              		.cfi_startproc
 2326              		@ args = 0, pretend = 0, frame = 0
 2327              		@ frame_needed = 0, uses_anonymous_args = 0
 2328              		@ link register save eliminated.
 349:Drivers/lvgl/src/core/lv_group.c ****     return group->focus_cb;
 2329              		.loc 1 349 5 view .LVU702
 349:Drivers/lvgl/src/core/lv_group.c ****     return group->focus_cb;
 2330              		.loc 1 349 7 is_stmt 0 view .LVU703
 2331 0000 00B1     		cbz	r0, .L282
 350:Drivers/lvgl/src/core/lv_group.c **** }
 2332              		.loc 1 350 5 is_stmt 1 view .LVU704
 350:Drivers/lvgl/src/core/lv_group.c **** }
 2333              		.loc 1 350 17 is_stmt 0 view .LVU705
 2334 0002 0069     		ldr	r0, [r0, #16]
 2335              	.LVL225:
 2336              	.L282:
 351:Drivers/lvgl/src/core/lv_group.c **** 
 2337              		.loc 1 351 1 view .LVU706
 2338 0004 7047     		bx	lr
 2339              		.cfi_endproc
 2340              	.LFE181:
 2342 0006 00BF     		.section	.text.lv_group_get_edge_cb,"ax",%progbits
 2343              		.align	1
 2344              		.p2align 2,,3
 2345              		.global	lv_group_get_edge_cb
 2346              		.syntax unified
 2347              		.thumb
ARM GAS  /var/folders/lp/x54gwt890xv47sdkqj1k04q40000gn/T//ccpqBSpC.s 			page 62


 2348              		.thumb_func
 2350              	lv_group_get_edge_cb:
 2351              	.LVL226:
 2352              	.LFB182:
 354:Drivers/lvgl/src/core/lv_group.c ****     if(!group) return NULL;
 2353              		.loc 1 354 1 is_stmt 1 view -0
 2354              		.cfi_startproc
 2355              		@ args = 0, pretend = 0, frame = 0
 2356              		@ frame_needed = 0, uses_anonymous_args = 0
 2357              		@ link register save eliminated.
 355:Drivers/lvgl/src/core/lv_group.c ****     return group->edge_cb;
 2358              		.loc 1 355 5 view .LVU708
 355:Drivers/lvgl/src/core/lv_group.c ****     return group->edge_cb;
 2359              		.loc 1 355 7 is_stmt 0 view .LVU709
 2360 0000 00B1     		cbz	r0, .L285
 356:Drivers/lvgl/src/core/lv_group.c **** }
 2361              		.loc 1 356 5 is_stmt 1 view .LVU710
 356:Drivers/lvgl/src/core/lv_group.c **** }
 2362              		.loc 1 356 17 is_stmt 0 view .LVU711
 2363 0002 4069     		ldr	r0, [r0, #20]
 2364              	.LVL227:
 2365              	.L285:
 357:Drivers/lvgl/src/core/lv_group.c **** 
 2366              		.loc 1 357 1 view .LVU712
 2367 0004 7047     		bx	lr
 2368              		.cfi_endproc
 2369              	.LFE182:
 2371 0006 00BF     		.section	.text.lv_group_get_editing,"ax",%progbits
 2372              		.align	1
 2373              		.p2align 2,,3
 2374              		.global	lv_group_get_editing
 2375              		.syntax unified
 2376              		.thumb
 2377              		.thumb_func
 2379              	lv_group_get_editing:
 2380              	.LVL228:
 2381              	.LFB183:
 360:Drivers/lvgl/src/core/lv_group.c ****     if(!group) return false;
 2382              		.loc 1 360 1 is_stmt 1 view -0
 2383              		.cfi_startproc
 2384              		@ args = 0, pretend = 0, frame = 0
 2385              		@ frame_needed = 0, uses_anonymous_args = 0
 2386              		@ link register save eliminated.
 361:Drivers/lvgl/src/core/lv_group.c ****     return group->editing ? true : false;
 2387              		.loc 1 361 5 view .LVU714
 361:Drivers/lvgl/src/core/lv_group.c ****     return group->editing ? true : false;
 2388              		.loc 1 361 7 is_stmt 0 view .LVU715
 2389 0000 10B1     		cbz	r0, .L289
 362:Drivers/lvgl/src/core/lv_group.c **** }
 2390              		.loc 1 362 5 is_stmt 1 view .LVU716
 362:Drivers/lvgl/src/core/lv_group.c **** }
 2391              		.loc 1 362 34 is_stmt 0 view .LVU717
 2392 0002 007F     		ldrb	r0, [r0, #28]	@ zero_extendqisi2
 2393              	.LVL229:
 362:Drivers/lvgl/src/core/lv_group.c **** }
 2394              		.loc 1 362 34 view .LVU718
 2395 0004 C0F34000 		ubfx	r0, r0, #1, #1
ARM GAS  /var/folders/lp/x54gwt890xv47sdkqj1k04q40000gn/T//ccpqBSpC.s 			page 63


 2396              	.L289:
 363:Drivers/lvgl/src/core/lv_group.c **** 
 2397              		.loc 1 363 1 view .LVU719
 2398 0008 7047     		bx	lr
 2399              		.cfi_endproc
 2400              	.LFE183:
 2402 000a 00BF     		.section	.text.lv_group_get_wrap,"ax",%progbits
 2403              		.align	1
 2404              		.p2align 2,,3
 2405              		.global	lv_group_get_wrap
 2406              		.syntax unified
 2407              		.thumb
 2408              		.thumb_func
 2410              	lv_group_get_wrap:
 2411              	.LVL230:
 2412              	.LFB184:
 366:Drivers/lvgl/src/core/lv_group.c ****     if(!group) return false;
 2413              		.loc 1 366 1 is_stmt 1 view -0
 2414              		.cfi_startproc
 2415              		@ args = 0, pretend = 0, frame = 0
 2416              		@ frame_needed = 0, uses_anonymous_args = 0
 2417              		@ link register save eliminated.
 367:Drivers/lvgl/src/core/lv_group.c ****     return group->wrap ? true : false;
 2418              		.loc 1 367 5 view .LVU721
 367:Drivers/lvgl/src/core/lv_group.c ****     return group->wrap ? true : false;
 2419              		.loc 1 367 7 is_stmt 0 view .LVU722
 2420 0000 10B1     		cbz	r0, .L292
 368:Drivers/lvgl/src/core/lv_group.c **** }
 2421              		.loc 1 368 5 is_stmt 1 view .LVU723
 368:Drivers/lvgl/src/core/lv_group.c **** }
 2422              		.loc 1 368 31 is_stmt 0 view .LVU724
 2423 0002 007F     		ldrb	r0, [r0, #28]	@ zero_extendqisi2
 2424              	.LVL231:
 368:Drivers/lvgl/src/core/lv_group.c **** }
 2425              		.loc 1 368 31 view .LVU725
 2426 0004 C0F3C000 		ubfx	r0, r0, #3, #1
 2427              	.L292:
 369:Drivers/lvgl/src/core/lv_group.c **** 
 2428              		.loc 1 369 1 view .LVU726
 2429 0008 7047     		bx	lr
 2430              		.cfi_endproc
 2431              	.LFE184:
 2433 000a 00BF     		.section	.text.lv_group_get_obj_count,"ax",%progbits
 2434              		.align	1
 2435              		.p2align 2,,3
 2436              		.global	lv_group_get_obj_count
 2437              		.syntax unified
 2438              		.thumb
 2439              		.thumb_func
 2441              	lv_group_get_obj_count:
 2442              	.LVL232:
 2443              	.LFB185:
 372:Drivers/lvgl/src/core/lv_group.c ****     return _lv_ll_get_len(&group->obj_ll);
 2444              		.loc 1 372 1 is_stmt 1 view -0
 2445              		.cfi_startproc
 2446              		@ args = 0, pretend = 0, frame = 0
 2447              		@ frame_needed = 0, uses_anonymous_args = 0
ARM GAS  /var/folders/lp/x54gwt890xv47sdkqj1k04q40000gn/T//ccpqBSpC.s 			page 64


 2448              		@ link register save eliminated.
 373:Drivers/lvgl/src/core/lv_group.c **** }
 2449              		.loc 1 373 5 view .LVU728
 373:Drivers/lvgl/src/core/lv_group.c **** }
 2450              		.loc 1 373 12 is_stmt 0 view .LVU729
 2451 0000 FFF7FEBF 		b	_lv_ll_get_len
 2452              	.LVL233:
 373:Drivers/lvgl/src/core/lv_group.c **** }
 2453              		.loc 1 373 12 view .LVU730
 2454              		.cfi_endproc
 2455              	.LFE185:
 2457              		.section	.bss.default_group,"aw",%nobits
 2458              		.align	2
 2461              	default_group:
 2462 0000 00000000 		.space	4
 2463              		.text
 2464              	.Letext0:
 2465              		.file 2 "/Users/jr/Library/Application Support/Code/User/globalStorage/bmd.stm32-for-vscode/@xpack
 2466              		.file 3 "/Users/jr/Library/Application Support/Code/User/globalStorage/bmd.stm32-for-vscode/@xpack
 2467              		.file 4 "/Users/jr/Library/Application Support/Code/User/globalStorage/bmd.stm32-for-vscode/@xpack
 2468              		.file 5 "Drivers/lvgl/src/core/../misc/lv_ll.h"
 2469              		.file 6 "Drivers/lvgl/src/core/../misc/lv_types.h"
 2470              		.file 7 "Drivers/lvgl/src/core/lv_group.h"
 2471              		.file 8 "Drivers/lvgl/src/core/../core/lv_obj.h"
 2472              		.file 9 "Drivers/lvgl/src/core/../misc/lv_timer.h"
 2473              		.file 10 "Drivers/lvgl/src/core/../misc/../draw/../misc/lv_color.h"
 2474              		.file 11 "Drivers/lvgl/src/core/../misc/../draw/../misc/lv_area.h"
 2475              		.file 12 "Drivers/lvgl/src/core/../misc/../draw/lv_img_buf.h"
 2476              		.file 13 "Drivers/lvgl/src/core/../core/../misc/../font/lv_font.h"
 2477              		.file 14 "Drivers/lvgl/src/core/../core/../misc/lv_txt.h"
 2478              		.file 15 "Drivers/lvgl/src/core/../core/../misc/lv_bidi.h"
 2479              		.file 16 "Drivers/lvgl/src/core/../core/../misc/lv_style.h"
 2480              		.file 17 "Drivers/lvgl/src/core/../core/../hal/../draw/lv_draw_rect.h"
 2481              		.file 18 "Drivers/lvgl/src/core/../core/../hal/../draw/lv_draw_label.h"
 2482              		.file 19 "Drivers/lvgl/src/core/../core/../hal/../draw/lv_draw_img.h"
 2483              		.file 20 "Drivers/lvgl/src/core/../core/../hal/../draw/lv_draw_line.h"
 2484              		.file 21 "Drivers/lvgl/src/core/../core/../hal/../draw/lv_draw_arc.h"
 2485              		.file 22 "Drivers/lvgl/src/core/../core/../hal/../draw/lv_draw_layer.h"
 2486              		.file 23 "Drivers/lvgl/src/core/../core/../hal/../draw/lv_draw.h"
 2487              		.file 24 "Drivers/lvgl/src/core/../core/../hal/lv_hal_disp.h"
 2488              		.file 25 "Drivers/lvgl/src/core/../core/../hal/lv_hal_indev.h"
 2489              		.file 26 "Drivers/lvgl/src/core/../core/lv_obj_scroll.h"
 2490              		.file 27 "Drivers/lvgl/src/core/../core/lv_obj_style.h"
 2491              		.file 28 "Drivers/lvgl/src/core/../core/lv_obj_class.h"
 2492              		.file 29 "Drivers/lvgl/src/core/../core/lv_event.h"
 2493              		.file 30 "Drivers/lvgl/src/core/../core/lv_obj_tree.h"
 2494              		.file 31 "Drivers/lvgl/src/core/../core/lv_indev.h"
 2495              		.file 32 "Drivers/lvgl/src/core/../misc/lv_mem.h"
 2496              		.file 33 "Drivers/lvgl/src/core/../misc/../core/lv_obj_pos.h"
 2497              		.file 34 "Drivers/lvgl/src/core/../misc/lv_gc.h"
ARM GAS  /var/folders/lp/x54gwt890xv47sdkqj1k04q40000gn/T//ccpqBSpC.s 			page 65

