ARM GAS  /var/folders/0z/tsy30v1j4xl4_7kw94k978ww0000gn/T//ccXmjq2B.s 			page 1


   1              		.cpu cortex-m4
   2              		.arch armv7e-m
   3              		.fpu fpv4-sp-d16
   4              		.eabi_attribute 27, 1
   5              		.eabi_attribute 28, 1
   6              		.eabi_attribute 20, 1
   7              		.eabi_attribute 21, 1
   8              		.eabi_attribute 23, 3
   9              		.eabi_attribute 24, 1
  10              		.eabi_attribute 25, 1
  11              		.eabi_attribute 26, 1
  12              		.eabi_attribute 30, 2
  13              		.eabi_attribute 34, 1
  14              		.eabi_attribute 18, 4
  15              		.file	"lv_hal_indev.c"
  16              		.text
  17              	.Ltext0:
  18              		.cfi_sections	.debug_frame
  19              		.section	.text.lv_indev_drv_init,"ax",%progbits
  20              		.align	1
  21              		.p2align 2,,3
  22              		.global	lv_indev_drv_init
  23              		.syntax unified
  24              		.thumb
  25              		.thumb_func
  27              	lv_indev_drv_init:
  28              	.LVL0:
  29              	.LFB161:
  30              		.file 1 "Drivers/lvgl/src/hal/lv_hal_indev.c"
   1:Drivers/lvgl/src/hal/lv_hal_indev.c **** /**
   2:Drivers/lvgl/src/hal/lv_hal_indev.c ****  * @file lv_hal_indev.c
   3:Drivers/lvgl/src/hal/lv_hal_indev.c ****  *
   4:Drivers/lvgl/src/hal/lv_hal_indev.c ****  * @description Input device HAL interface
   5:Drivers/lvgl/src/hal/lv_hal_indev.c ****  *
   6:Drivers/lvgl/src/hal/lv_hal_indev.c ****  */
   7:Drivers/lvgl/src/hal/lv_hal_indev.c **** 
   8:Drivers/lvgl/src/hal/lv_hal_indev.c **** /*********************
   9:Drivers/lvgl/src/hal/lv_hal_indev.c ****  *      INCLUDES
  10:Drivers/lvgl/src/hal/lv_hal_indev.c ****  *********************/
  11:Drivers/lvgl/src/hal/lv_hal_indev.c **** #include "../misc/lv_assert.h"
  12:Drivers/lvgl/src/hal/lv_hal_indev.c **** #include "../hal/lv_hal_indev.h"
  13:Drivers/lvgl/src/hal/lv_hal_indev.c **** #include "../core/lv_indev.h"
  14:Drivers/lvgl/src/hal/lv_hal_indev.c **** #include "../misc/lv_mem.h"
  15:Drivers/lvgl/src/hal/lv_hal_indev.c **** #include "../misc/lv_gc.h"
  16:Drivers/lvgl/src/hal/lv_hal_indev.c **** #include "lv_hal_disp.h"
  17:Drivers/lvgl/src/hal/lv_hal_indev.c **** 
  18:Drivers/lvgl/src/hal/lv_hal_indev.c **** /*********************
  19:Drivers/lvgl/src/hal/lv_hal_indev.c ****  *      DEFINES
  20:Drivers/lvgl/src/hal/lv_hal_indev.c ****  *********************/
  21:Drivers/lvgl/src/hal/lv_hal_indev.c **** 
  22:Drivers/lvgl/src/hal/lv_hal_indev.c **** /**********************
  23:Drivers/lvgl/src/hal/lv_hal_indev.c ****  *      TYPEDEFS
  24:Drivers/lvgl/src/hal/lv_hal_indev.c ****  **********************/
  25:Drivers/lvgl/src/hal/lv_hal_indev.c **** 
  26:Drivers/lvgl/src/hal/lv_hal_indev.c **** /**********************
  27:Drivers/lvgl/src/hal/lv_hal_indev.c ****  *  GLOBAL PROTOTYPES
  28:Drivers/lvgl/src/hal/lv_hal_indev.c ****  **********************/
ARM GAS  /var/folders/0z/tsy30v1j4xl4_7kw94k978ww0000gn/T//ccXmjq2B.s 			page 2


  29:Drivers/lvgl/src/hal/lv_hal_indev.c **** 
  30:Drivers/lvgl/src/hal/lv_hal_indev.c **** /**********************
  31:Drivers/lvgl/src/hal/lv_hal_indev.c ****  *  STATIC PROTOTYPES
  32:Drivers/lvgl/src/hal/lv_hal_indev.c ****  **********************/
  33:Drivers/lvgl/src/hal/lv_hal_indev.c **** 
  34:Drivers/lvgl/src/hal/lv_hal_indev.c **** /**********************
  35:Drivers/lvgl/src/hal/lv_hal_indev.c ****  *  STATIC VARIABLES
  36:Drivers/lvgl/src/hal/lv_hal_indev.c ****  **********************/
  37:Drivers/lvgl/src/hal/lv_hal_indev.c **** 
  38:Drivers/lvgl/src/hal/lv_hal_indev.c **** /**********************
  39:Drivers/lvgl/src/hal/lv_hal_indev.c ****  *      MACROS
  40:Drivers/lvgl/src/hal/lv_hal_indev.c ****  **********************/
  41:Drivers/lvgl/src/hal/lv_hal_indev.c **** #if LV_LOG_TRACE_INDEV
  42:Drivers/lvgl/src/hal/lv_hal_indev.c ****     #define INDEV_TRACE(...) LV_LOG_TRACE(__VA_ARGS__)
  43:Drivers/lvgl/src/hal/lv_hal_indev.c **** #else
  44:Drivers/lvgl/src/hal/lv_hal_indev.c ****     #define INDEV_TRACE(...)
  45:Drivers/lvgl/src/hal/lv_hal_indev.c **** #endif
  46:Drivers/lvgl/src/hal/lv_hal_indev.c **** 
  47:Drivers/lvgl/src/hal/lv_hal_indev.c **** /**********************
  48:Drivers/lvgl/src/hal/lv_hal_indev.c ****  *   GLOBAL FUNCTIONS
  49:Drivers/lvgl/src/hal/lv_hal_indev.c ****  **********************/
  50:Drivers/lvgl/src/hal/lv_hal_indev.c **** 
  51:Drivers/lvgl/src/hal/lv_hal_indev.c **** /**
  52:Drivers/lvgl/src/hal/lv_hal_indev.c ****  * Initialize an input device driver with default values.
  53:Drivers/lvgl/src/hal/lv_hal_indev.c ****  * It is used to surly have known values in the fields ant not memory junk.
  54:Drivers/lvgl/src/hal/lv_hal_indev.c ****  * After it you can set the fields.
  55:Drivers/lvgl/src/hal/lv_hal_indev.c ****  * @param driver pointer to driver variable to initialize
  56:Drivers/lvgl/src/hal/lv_hal_indev.c ****  */
  57:Drivers/lvgl/src/hal/lv_hal_indev.c **** void lv_indev_drv_init(lv_indev_drv_t * driver)
  58:Drivers/lvgl/src/hal/lv_hal_indev.c **** {
  31              		.loc 1 58 1 view -0
  32              		.cfi_startproc
  33              		@ args = 0, pretend = 0, frame = 0
  34              		@ frame_needed = 0, uses_anonymous_args = 0
  59:Drivers/lvgl/src/hal/lv_hal_indev.c ****     lv_memset_00(driver, sizeof(lv_indev_drv_t));
  35              		.loc 1 59 5 view .LVU1
  58:Drivers/lvgl/src/hal/lv_hal_indev.c ****     lv_memset_00(driver, sizeof(lv_indev_drv_t));
  36              		.loc 1 58 1 is_stmt 0 view .LVU2
  37 0000 10B5     		push	{r4, lr}
  38              		.cfi_def_cfa_offset 8
  39              		.cfi_offset 4, -8
  40              		.cfi_offset 14, -4
  41              		.loc 1 59 5 view .LVU3
  42 0002 2021     		movs	r1, #32
  58:Drivers/lvgl/src/hal/lv_hal_indev.c ****     lv_memset_00(driver, sizeof(lv_indev_drv_t));
  43              		.loc 1 58 1 view .LVU4
  44 0004 0446     		mov	r4, r0
  45              		.loc 1 59 5 view .LVU5
  46 0006 FFF7FEFF 		bl	lv_memset_00
  47              	.LVL1:
  60:Drivers/lvgl/src/hal/lv_hal_indev.c **** 
  61:Drivers/lvgl/src/hal/lv_hal_indev.c ****     driver->type                 = LV_INDEV_TYPE_NONE;
  48              		.loc 1 61 5 is_stmt 1 view .LVU6
  62:Drivers/lvgl/src/hal/lv_hal_indev.c ****     driver->scroll_limit         = LV_INDEV_DEF_SCROLL_LIMIT;
  63:Drivers/lvgl/src/hal/lv_hal_indev.c ****     driver->scroll_throw         = LV_INDEV_DEF_SCROLL_THROW;
  64:Drivers/lvgl/src/hal/lv_hal_indev.c ****     driver->long_press_time      = LV_INDEV_DEF_LONG_PRESS_TIME;
  49              		.loc 1 64 34 is_stmt 0 view .LVU7
ARM GAS  /var/folders/0z/tsy30v1j4xl4_7kw94k978ww0000gn/T//ccXmjq2B.s 			page 3


  50 000a 034A     		ldr	r2, .L4
  62:Drivers/lvgl/src/hal/lv_hal_indev.c ****     driver->scroll_limit         = LV_INDEV_DEF_SCROLL_LIMIT;
  51              		.loc 1 62 34 view .LVU8
  52 000c 034B     		ldr	r3, .L4+4
  53 000e C4E90632 		strd	r3, r2, [r4, #24]
  61:Drivers/lvgl/src/hal/lv_hal_indev.c ****     driver->scroll_limit         = LV_INDEV_DEF_SCROLL_LIMIT;
  54              		.loc 1 61 34 view .LVU9
  55 0012 0021     		movs	r1, #0
  56 0014 2170     		strb	r1, [r4]
  62:Drivers/lvgl/src/hal/lv_hal_indev.c ****     driver->scroll_limit         = LV_INDEV_DEF_SCROLL_LIMIT;
  57              		.loc 1 62 5 is_stmt 1 view .LVU10
  63:Drivers/lvgl/src/hal/lv_hal_indev.c ****     driver->long_press_time      = LV_INDEV_DEF_LONG_PRESS_TIME;
  58              		.loc 1 63 5 view .LVU11
  59              		.loc 1 64 5 view .LVU12
  65:Drivers/lvgl/src/hal/lv_hal_indev.c ****     driver->long_press_repeat_time  = LV_INDEV_DEF_LONG_PRESS_REP_TIME;
  60              		.loc 1 65 5 view .LVU13
  66:Drivers/lvgl/src/hal/lv_hal_indev.c ****     driver->gesture_limit        = LV_INDEV_DEF_GESTURE_LIMIT;
  67:Drivers/lvgl/src/hal/lv_hal_indev.c ****     driver->gesture_min_velocity = LV_INDEV_DEF_GESTURE_MIN_VELOCITY;
  68:Drivers/lvgl/src/hal/lv_hal_indev.c **** }
  61              		.loc 1 68 1 is_stmt 0 view .LVU14
  62 0016 10BD     		pop	{r4, pc}
  63              	.LVL2:
  64              	.L5:
  65              		.loc 1 68 1 view .LVU15
  66              		.align	2
  67              	.L4:
  68 0018 90016400 		.word	6554000
  69 001c 0A0A0332 		.word	839059978
  70              		.cfi_endproc
  71              	.LFE161:
  73              		.section	.text.lv_indev_drv_register,"ax",%progbits
  74              		.align	1
  75              		.p2align 2,,3
  76              		.global	lv_indev_drv_register
  77              		.syntax unified
  78              		.thumb
  79              		.thumb_func
  81              	lv_indev_drv_register:
  82              	.LVL3:
  83              	.LFB162:
  69:Drivers/lvgl/src/hal/lv_hal_indev.c **** 
  70:Drivers/lvgl/src/hal/lv_hal_indev.c **** /**
  71:Drivers/lvgl/src/hal/lv_hal_indev.c ****  * Register an initialized input device driver.
  72:Drivers/lvgl/src/hal/lv_hal_indev.c ****  * @param driver pointer to an initialized 'lv_indev_drv_t' variable.
  73:Drivers/lvgl/src/hal/lv_hal_indev.c ****  * Only pointer is saved, so the driver should be static or dynamically allocated.
  74:Drivers/lvgl/src/hal/lv_hal_indev.c ****  * @return pointer to the new input device or NULL on error
  75:Drivers/lvgl/src/hal/lv_hal_indev.c ****  */
  76:Drivers/lvgl/src/hal/lv_hal_indev.c **** lv_indev_t * lv_indev_drv_register(lv_indev_drv_t * driver)
  77:Drivers/lvgl/src/hal/lv_hal_indev.c **** {
  84              		.loc 1 77 1 is_stmt 1 view -0
  85              		.cfi_startproc
  86              		@ args = 0, pretend = 0, frame = 0
  87              		@ frame_needed = 0, uses_anonymous_args = 0
  78:Drivers/lvgl/src/hal/lv_hal_indev.c ****     if(driver->disp == NULL) driver->disp = lv_disp_get_default();
  88              		.loc 1 78 5 view .LVU17
  77:Drivers/lvgl/src/hal/lv_hal_indev.c ****     if(driver->disp == NULL) driver->disp = lv_disp_get_default();
  89              		.loc 1 77 1 is_stmt 0 view .LVU18
ARM GAS  /var/folders/0z/tsy30v1j4xl4_7kw94k978ww0000gn/T//ccXmjq2B.s 			page 4


  90 0000 38B5     		push	{r3, r4, r5, lr}
  91              		.cfi_def_cfa_offset 16
  92              		.cfi_offset 3, -16
  93              		.cfi_offset 4, -12
  94              		.cfi_offset 5, -8
  95              		.cfi_offset 14, -4
  96              		.loc 1 78 7 view .LVU19
  97 0002 0369     		ldr	r3, [r0, #16]
  77:Drivers/lvgl/src/hal/lv_hal_indev.c ****     if(driver->disp == NULL) driver->disp = lv_disp_get_default();
  98              		.loc 1 77 1 view .LVU20
  99 0004 0546     		mov	r5, r0
 100              		.loc 1 78 7 view .LVU21
 101 0006 ABB1     		cbz	r3, .L7
 102              	.LVL4:
 103              	.L11:
  79:Drivers/lvgl/src/hal/lv_hal_indev.c **** 
  80:Drivers/lvgl/src/hal/lv_hal_indev.c ****     if(driver->disp == NULL) {
  81:Drivers/lvgl/src/hal/lv_hal_indev.c ****         LV_LOG_WARN("lv_indev_drv_register: no display registered hence can't attach the indev to "
  82:Drivers/lvgl/src/hal/lv_hal_indev.c ****                     "a display");
  83:Drivers/lvgl/src/hal/lv_hal_indev.c ****         return NULL;
  84:Drivers/lvgl/src/hal/lv_hal_indev.c ****     }
  85:Drivers/lvgl/src/hal/lv_hal_indev.c **** 
  86:Drivers/lvgl/src/hal/lv_hal_indev.c ****     lv_indev_t * indev = _lv_ll_ins_head(&LV_GC_ROOT(_lv_indev_ll));
 104              		.loc 1 86 5 is_stmt 1 view .LVU22
 105              		.loc 1 86 26 is_stmt 0 view .LVU23
 106 0008 0E48     		ldr	r0, .L20
 107 000a FFF7FEFF 		bl	_lv_ll_ins_head
 108              	.LVL5:
  87:Drivers/lvgl/src/hal/lv_hal_indev.c ****     LV_ASSERT_MALLOC(indev);
 109              		.loc 1 87 5 is_stmt 1 view .LVU24
 110              		.loc 1 87 5 view .LVU25
 111 000e 0446     		mov	r4, r0
 112 0010 78B1     		cbz	r0, .L19
 113              		.loc 1 87 5 view .LVU26
 114              		.loc 1 87 28 view .LVU27
  88:Drivers/lvgl/src/hal/lv_hal_indev.c ****     if(!indev) {
 115              		.loc 1 88 5 view .LVU28
  89:Drivers/lvgl/src/hal/lv_hal_indev.c ****         return NULL;
  90:Drivers/lvgl/src/hal/lv_hal_indev.c ****     }
  91:Drivers/lvgl/src/hal/lv_hal_indev.c **** 
  92:Drivers/lvgl/src/hal/lv_hal_indev.c ****     lv_memset_00(indev, sizeof(lv_indev_t));
 116              		.loc 1 92 5 view .LVU29
 117 0012 5C21     		movs	r1, #92
 118 0014 FFF7FEFF 		bl	lv_memset_00
 119              	.LVL6:
  93:Drivers/lvgl/src/hal/lv_hal_indev.c ****     indev->driver = driver;
 120              		.loc 1 93 5 view .LVU30
  94:Drivers/lvgl/src/hal/lv_hal_indev.c **** 
  95:Drivers/lvgl/src/hal/lv_hal_indev.c ****     indev->proc.reset_query  = 1;
 121              		.loc 1 95 30 is_stmt 0 view .LVU31
 122 0018 6379     		ldrb	r3, [r4, #5]	@ zero_extendqisi2
  93:Drivers/lvgl/src/hal/lv_hal_indev.c ****     indev->driver = driver;
 123              		.loc 1 93 19 view .LVU32
 124 001a 2560     		str	r5, [r4]
 125              		.loc 1 95 5 is_stmt 1 view .LVU33
 126              		.loc 1 95 30 is_stmt 0 view .LVU34
 127 001c 43F00203 		orr	r3, r3, #2
ARM GAS  /var/folders/0z/tsy30v1j4xl4_7kw94k978ww0000gn/T//ccXmjq2B.s 			page 5


 128 0020 6371     		strb	r3, [r4, #5]
  96:Drivers/lvgl/src/hal/lv_hal_indev.c ****     indev->driver->read_timer = lv_timer_create(lv_indev_read_timer_cb, LV_INDEV_DEF_READ_PERIOD, i
 129              		.loc 1 96 5 is_stmt 1 view .LVU35
 130              		.loc 1 96 33 is_stmt 0 view .LVU36
 131 0022 2246     		mov	r2, r4
 132 0024 1E21     		movs	r1, #30
 133 0026 0848     		ldr	r0, .L20+4
 134 0028 FFF7FEFF 		bl	lv_timer_create
 135              	.LVL7:
 136              		.loc 1 96 31 view .LVU37
 137 002c 6861     		str	r0, [r5, #20]
  97:Drivers/lvgl/src/hal/lv_hal_indev.c **** 
  98:Drivers/lvgl/src/hal/lv_hal_indev.c ****     return indev;
 138              		.loc 1 98 5 is_stmt 1 view .LVU38
  99:Drivers/lvgl/src/hal/lv_hal_indev.c **** }
 139              		.loc 1 99 1 is_stmt 0 view .LVU39
 140 002e 2046     		mov	r0, r4
 141 0030 38BD     		pop	{r3, r4, r5, pc}
 142              	.LVL8:
 143              	.L19:
 144              	.L8:
  87:Drivers/lvgl/src/hal/lv_hal_indev.c ****     if(!indev) {
 145              		.loc 1 87 5 is_stmt 1 discriminator 1 view .LVU40
  87:Drivers/lvgl/src/hal/lv_hal_indev.c ****     if(!indev) {
 146              		.loc 1 87 5 discriminator 1 view .LVU41
  87:Drivers/lvgl/src/hal/lv_hal_indev.c ****     if(!indev) {
 147              		.loc 1 87 5 discriminator 1 view .LVU42
  87:Drivers/lvgl/src/hal/lv_hal_indev.c ****     if(!indev) {
 148              		.loc 1 87 5 discriminator 1 view .LVU43
  87:Drivers/lvgl/src/hal/lv_hal_indev.c ****     if(!indev) {
 149              		.loc 1 87 5 discriminator 1 view .LVU44
  87:Drivers/lvgl/src/hal/lv_hal_indev.c ****     if(!indev) {
 150              		.loc 1 87 5 discriminator 1 view .LVU45
  87:Drivers/lvgl/src/hal/lv_hal_indev.c ****     if(!indev) {
 151              		.loc 1 87 5 discriminator 1 view .LVU46
  87:Drivers/lvgl/src/hal/lv_hal_indev.c ****     if(!indev) {
 152              		.loc 1 87 5 discriminator 1 view .LVU47
  87:Drivers/lvgl/src/hal/lv_hal_indev.c ****     if(!indev) {
 153              		.loc 1 87 5 discriminator 1 view .LVU48
  87:Drivers/lvgl/src/hal/lv_hal_indev.c ****     if(!indev) {
 154              		.loc 1 87 5 discriminator 1 view .LVU49
 155 0032 FEE7     		b	.L8
 156              	.LVL9:
 157              	.L7:
  78:Drivers/lvgl/src/hal/lv_hal_indev.c **** 
 158              		.loc 1 78 30 discriminator 1 view .LVU50
  78:Drivers/lvgl/src/hal/lv_hal_indev.c **** 
 159              		.loc 1 78 45 is_stmt 0 discriminator 1 view .LVU51
 160 0034 FFF7FEFF 		bl	lv_disp_get_default
 161              	.LVL10:
  78:Drivers/lvgl/src/hal/lv_hal_indev.c **** 
 162              		.loc 1 78 45 discriminator 1 view .LVU52
 163 0038 0446     		mov	r4, r0
  78:Drivers/lvgl/src/hal/lv_hal_indev.c **** 
 164              		.loc 1 78 43 discriminator 1 view .LVU53
 165 003a 2861     		str	r0, [r5, #16]
  80:Drivers/lvgl/src/hal/lv_hal_indev.c ****         LV_LOG_WARN("lv_indev_drv_register: no display registered hence can't attach the indev to "
ARM GAS  /var/folders/0z/tsy30v1j4xl4_7kw94k978ww0000gn/T//ccXmjq2B.s 			page 6


 166              		.loc 1 80 5 is_stmt 1 discriminator 1 view .LVU54
  80:Drivers/lvgl/src/hal/lv_hal_indev.c ****         LV_LOG_WARN("lv_indev_drv_register: no display registered hence can't attach the indev to "
 167              		.loc 1 80 7 is_stmt 0 discriminator 1 view .LVU55
 168 003c 0028     		cmp	r0, #0
 169 003e E3D1     		bne	.L11
 170              		.loc 1 99 1 view .LVU56
 171 0040 2046     		mov	r0, r4
 172 0042 38BD     		pop	{r3, r4, r5, pc}
 173              	.LVL11:
 174              	.L21:
 175              		.loc 1 99 1 view .LVU57
 176              		.align	2
 177              	.L20:
 178 0044 00000000 		.word	_lv_indev_ll
 179 0048 00000000 		.word	lv_indev_read_timer_cb
 180              		.cfi_endproc
 181              	.LFE162:
 183              		.section	.text.lv_indev_drv_update,"ax",%progbits
 184              		.align	1
 185              		.p2align 2,,3
 186              		.global	lv_indev_drv_update
 187              		.syntax unified
 188              		.thumb
 189              		.thumb_func
 191              	lv_indev_drv_update:
 192              	.LVL12:
 193              	.LFB163:
 100:Drivers/lvgl/src/hal/lv_hal_indev.c **** 
 101:Drivers/lvgl/src/hal/lv_hal_indev.c **** /**
 102:Drivers/lvgl/src/hal/lv_hal_indev.c ****  * Update the driver in run time.
 103:Drivers/lvgl/src/hal/lv_hal_indev.c ****  * @param indev pointer to a input device. (return value of `lv_indev_drv_register`)
 104:Drivers/lvgl/src/hal/lv_hal_indev.c ****  * @param new_drv pointer to the new driver
 105:Drivers/lvgl/src/hal/lv_hal_indev.c ****  */
 106:Drivers/lvgl/src/hal/lv_hal_indev.c **** void lv_indev_drv_update(lv_indev_t * indev, lv_indev_drv_t * new_drv)
 107:Drivers/lvgl/src/hal/lv_hal_indev.c **** {
 194              		.loc 1 107 1 is_stmt 1 view -0
 195              		.cfi_startproc
 196              		@ args = 0, pretend = 0, frame = 0
 197              		@ frame_needed = 0, uses_anonymous_args = 0
 108:Drivers/lvgl/src/hal/lv_hal_indev.c ****     LV_ASSERT_NULL(indev);
 198              		.loc 1 108 5 view .LVU59
 199              		.loc 1 108 5 view .LVU60
 200 0000 B8B1     		cbz	r0, .L24
 201              		.loc 1 108 5 discriminator 2 view .LVU61
 202              		.loc 1 108 26 discriminator 2 view .LVU62
 109:Drivers/lvgl/src/hal/lv_hal_indev.c ****     LV_ASSERT_NULL(indev->driver);
 203              		.loc 1 109 5 discriminator 2 view .LVU63
 204              		.loc 1 109 5 discriminator 2 view .LVU64
 107:Drivers/lvgl/src/hal/lv_hal_indev.c ****     LV_ASSERT_NULL(indev);
 205              		.loc 1 107 1 is_stmt 0 discriminator 2 view .LVU65
 206 0002 38B5     		push	{r3, r4, r5, lr}
 207              		.cfi_def_cfa_offset 16
 208              		.cfi_offset 3, -16
 209              		.cfi_offset 4, -12
 210              		.cfi_offset 5, -8
 211              		.cfi_offset 14, -4
 212              		.loc 1 109 5 discriminator 2 view .LVU66
ARM GAS  /var/folders/0z/tsy30v1j4xl4_7kw94k978ww0000gn/T//ccXmjq2B.s 			page 7


 213 0004 0368     		ldr	r3, [r0]
 214 0006 0446     		mov	r4, r0
 215 0008 A3B1     		cbz	r3, .L26
 216              		.loc 1 109 5 is_stmt 1 discriminator 2 view .LVU67
 217              		.loc 1 109 34 discriminator 2 view .LVU68
 110:Drivers/lvgl/src/hal/lv_hal_indev.c ****     LV_ASSERT_NULL(indev->driver->read_timer);
 218              		.loc 1 110 5 discriminator 2 view .LVU69
 219              		.loc 1 110 5 discriminator 2 view .LVU70
 220 000a 5869     		ldr	r0, [r3, #20]
 221              	.LVL13:
 222              		.loc 1 110 5 is_stmt 0 discriminator 2 view .LVU71
 223 000c 98B1     		cbz	r0, .L28
 224              		.loc 1 110 5 is_stmt 1 discriminator 2 view .LVU72
 225              		.loc 1 110 46 discriminator 2 view .LVU73
 111:Drivers/lvgl/src/hal/lv_hal_indev.c ****     lv_timer_del(indev->driver->read_timer);
 226              		.loc 1 111 5 discriminator 2 view .LVU74
 227 000e 0D46     		mov	r5, r1
 228 0010 FFF7FEFF 		bl	lv_timer_del
 229              	.LVL14:
 112:Drivers/lvgl/src/hal/lv_hal_indev.c **** 
 113:Drivers/lvgl/src/hal/lv_hal_indev.c ****     LV_ASSERT_NULL(new_drv);
 230              		.loc 1 113 5 discriminator 2 view .LVU75
 231              		.loc 1 113 5 discriminator 2 view .LVU76
 232 0014 85B1     		cbz	r5, .L30
 233              		.loc 1 113 5 discriminator 2 view .LVU77
 234              		.loc 1 113 28 discriminator 2 view .LVU78
 114:Drivers/lvgl/src/hal/lv_hal_indev.c ****     if(new_drv->disp == NULL) {
 235              		.loc 1 114 5 discriminator 2 view .LVU79
 236              		.loc 1 114 7 is_stmt 0 discriminator 2 view .LVU80
 237 0016 2B69     		ldr	r3, [r5, #16]
 238 0018 7BB1     		cbz	r3, .L35
 239              	.L31:
 115:Drivers/lvgl/src/hal/lv_hal_indev.c ****         new_drv->disp = lv_disp_get_default();
 116:Drivers/lvgl/src/hal/lv_hal_indev.c ****     }
 117:Drivers/lvgl/src/hal/lv_hal_indev.c ****     if(new_drv->disp == NULL) {
 118:Drivers/lvgl/src/hal/lv_hal_indev.c ****         LV_LOG_WARN("lv_indev_drv_register: no display registered hence can't attach the indev to "
 119:Drivers/lvgl/src/hal/lv_hal_indev.c ****                     "a display");
 120:Drivers/lvgl/src/hal/lv_hal_indev.c ****         indev->proc.disabled = true;
 121:Drivers/lvgl/src/hal/lv_hal_indev.c ****         return;
 122:Drivers/lvgl/src/hal/lv_hal_indev.c ****     }
 123:Drivers/lvgl/src/hal/lv_hal_indev.c **** 
 124:Drivers/lvgl/src/hal/lv_hal_indev.c ****     indev->driver = new_drv;
 240              		.loc 1 124 5 is_stmt 1 view .LVU81
 125:Drivers/lvgl/src/hal/lv_hal_indev.c ****     indev->driver->read_timer = lv_timer_create(lv_indev_read_timer_cb, LV_INDEV_DEF_READ_PERIOD, i
 241              		.loc 1 125 33 is_stmt 0 view .LVU82
 242 001a 0D48     		ldr	r0, .L36
 124:Drivers/lvgl/src/hal/lv_hal_indev.c ****     indev->driver->read_timer = lv_timer_create(lv_indev_read_timer_cb, LV_INDEV_DEF_READ_PERIOD, i
 243              		.loc 1 124 19 view .LVU83
 244 001c 2560     		str	r5, [r4]
 245              		.loc 1 125 5 is_stmt 1 view .LVU84
 246              		.loc 1 125 33 is_stmt 0 view .LVU85
 247 001e 2246     		mov	r2, r4
 248 0020 1E21     		movs	r1, #30
 249 0022 FFF7FEFF 		bl	lv_timer_create
 250              	.LVL15:
 126:Drivers/lvgl/src/hal/lv_hal_indev.c ****     indev->proc.reset_query   = 1;
 251              		.loc 1 126 31 view .LVU86
ARM GAS  /var/folders/0z/tsy30v1j4xl4_7kw94k978ww0000gn/T//ccXmjq2B.s 			page 8


 252 0026 6379     		ldrb	r3, [r4, #5]	@ zero_extendqisi2
 125:Drivers/lvgl/src/hal/lv_hal_indev.c ****     indev->driver->read_timer = lv_timer_create(lv_indev_read_timer_cb, LV_INDEV_DEF_READ_PERIOD, i
 253              		.loc 1 125 31 view .LVU87
 254 0028 6861     		str	r0, [r5, #20]
 255              		.loc 1 126 5 is_stmt 1 view .LVU88
 256              		.loc 1 126 31 is_stmt 0 view .LVU89
 257 002a 43F00203 		orr	r3, r3, #2
 258 002e 6371     		strb	r3, [r4, #5]
 127:Drivers/lvgl/src/hal/lv_hal_indev.c **** }
 259              		.loc 1 127 1 view .LVU90
 260 0030 38BD     		pop	{r3, r4, r5, pc}
 261              	.LVL16:
 262              	.L24:
 263              		.cfi_def_cfa_offset 0
 264              		.cfi_restore 3
 265              		.cfi_restore 4
 266              		.cfi_restore 5
 267              		.cfi_restore 14
 108:Drivers/lvgl/src/hal/lv_hal_indev.c ****     LV_ASSERT_NULL(indev->driver);
 268              		.loc 1 108 5 is_stmt 1 discriminator 1 view .LVU91
 108:Drivers/lvgl/src/hal/lv_hal_indev.c ****     LV_ASSERT_NULL(indev->driver);
 269              		.loc 1 108 5 discriminator 1 view .LVU92
 108:Drivers/lvgl/src/hal/lv_hal_indev.c ****     LV_ASSERT_NULL(indev->driver);
 270              		.loc 1 108 5 discriminator 1 view .LVU93
 108:Drivers/lvgl/src/hal/lv_hal_indev.c ****     LV_ASSERT_NULL(indev->driver);
 271              		.loc 1 108 5 discriminator 1 view .LVU94
 108:Drivers/lvgl/src/hal/lv_hal_indev.c ****     LV_ASSERT_NULL(indev->driver);
 272              		.loc 1 108 5 discriminator 1 view .LVU95
 108:Drivers/lvgl/src/hal/lv_hal_indev.c ****     LV_ASSERT_NULL(indev->driver);
 273              		.loc 1 108 5 discriminator 1 view .LVU96
 108:Drivers/lvgl/src/hal/lv_hal_indev.c ****     LV_ASSERT_NULL(indev->driver);
 274              		.loc 1 108 5 discriminator 1 view .LVU97
 108:Drivers/lvgl/src/hal/lv_hal_indev.c ****     LV_ASSERT_NULL(indev->driver);
 275              		.loc 1 108 5 discriminator 1 view .LVU98
 108:Drivers/lvgl/src/hal/lv_hal_indev.c ****     LV_ASSERT_NULL(indev->driver);
 276              		.loc 1 108 5 discriminator 1 view .LVU99
 108:Drivers/lvgl/src/hal/lv_hal_indev.c ****     LV_ASSERT_NULL(indev->driver);
 277              		.loc 1 108 5 discriminator 1 view .LVU100
 278 0032 FEE7     		b	.L24
 279              	.L26:
 280              		.cfi_def_cfa_offset 16
 281              		.cfi_offset 3, -16
 282              		.cfi_offset 4, -12
 283              		.cfi_offset 5, -8
 284              		.cfi_offset 14, -4
 109:Drivers/lvgl/src/hal/lv_hal_indev.c ****     LV_ASSERT_NULL(indev->driver->read_timer);
 285              		.loc 1 109 5 discriminator 2 view .LVU101
 109:Drivers/lvgl/src/hal/lv_hal_indev.c ****     LV_ASSERT_NULL(indev->driver->read_timer);
 286              		.loc 1 109 5 discriminator 2 view .LVU102
 109:Drivers/lvgl/src/hal/lv_hal_indev.c ****     LV_ASSERT_NULL(indev->driver->read_timer);
 287              		.loc 1 109 5 discriminator 2 view .LVU103
 109:Drivers/lvgl/src/hal/lv_hal_indev.c ****     LV_ASSERT_NULL(indev->driver->read_timer);
 288              		.loc 1 109 5 discriminator 2 view .LVU104
 109:Drivers/lvgl/src/hal/lv_hal_indev.c ****     LV_ASSERT_NULL(indev->driver->read_timer);
 289              		.loc 1 109 5 discriminator 2 view .LVU105
 109:Drivers/lvgl/src/hal/lv_hal_indev.c ****     LV_ASSERT_NULL(indev->driver->read_timer);
 290              		.loc 1 109 5 discriminator 2 view .LVU106
ARM GAS  /var/folders/0z/tsy30v1j4xl4_7kw94k978ww0000gn/T//ccXmjq2B.s 			page 9


 109:Drivers/lvgl/src/hal/lv_hal_indev.c ****     LV_ASSERT_NULL(indev->driver->read_timer);
 291              		.loc 1 109 5 discriminator 2 view .LVU107
 109:Drivers/lvgl/src/hal/lv_hal_indev.c ****     LV_ASSERT_NULL(indev->driver->read_timer);
 292              		.loc 1 109 5 discriminator 2 view .LVU108
 109:Drivers/lvgl/src/hal/lv_hal_indev.c ****     LV_ASSERT_NULL(indev->driver->read_timer);
 293              		.loc 1 109 5 discriminator 2 view .LVU109
 109:Drivers/lvgl/src/hal/lv_hal_indev.c ****     LV_ASSERT_NULL(indev->driver->read_timer);
 294              		.loc 1 109 5 discriminator 2 view .LVU110
 295 0034 FEE7     		b	.L26
 296              	.LVL17:
 297              	.L28:
 110:Drivers/lvgl/src/hal/lv_hal_indev.c ****     lv_timer_del(indev->driver->read_timer);
 298              		.loc 1 110 5 discriminator 3 view .LVU111
 110:Drivers/lvgl/src/hal/lv_hal_indev.c ****     lv_timer_del(indev->driver->read_timer);
 299              		.loc 1 110 5 discriminator 3 view .LVU112
 110:Drivers/lvgl/src/hal/lv_hal_indev.c ****     lv_timer_del(indev->driver->read_timer);
 300              		.loc 1 110 5 discriminator 3 view .LVU113
 110:Drivers/lvgl/src/hal/lv_hal_indev.c ****     lv_timer_del(indev->driver->read_timer);
 301              		.loc 1 110 5 discriminator 3 view .LVU114
 110:Drivers/lvgl/src/hal/lv_hal_indev.c ****     lv_timer_del(indev->driver->read_timer);
 302              		.loc 1 110 5 discriminator 3 view .LVU115
 110:Drivers/lvgl/src/hal/lv_hal_indev.c ****     lv_timer_del(indev->driver->read_timer);
 303              		.loc 1 110 5 discriminator 3 view .LVU116
 110:Drivers/lvgl/src/hal/lv_hal_indev.c ****     lv_timer_del(indev->driver->read_timer);
 304              		.loc 1 110 5 discriminator 3 view .LVU117
 110:Drivers/lvgl/src/hal/lv_hal_indev.c ****     lv_timer_del(indev->driver->read_timer);
 305              		.loc 1 110 5 discriminator 3 view .LVU118
 110:Drivers/lvgl/src/hal/lv_hal_indev.c ****     lv_timer_del(indev->driver->read_timer);
 306              		.loc 1 110 5 discriminator 3 view .LVU119
 110:Drivers/lvgl/src/hal/lv_hal_indev.c ****     lv_timer_del(indev->driver->read_timer);
 307              		.loc 1 110 5 discriminator 3 view .LVU120
 308 0036 FEE7     		b	.L28
 309              	.LVL18:
 310              	.L30:
 113:Drivers/lvgl/src/hal/lv_hal_indev.c ****     if(new_drv->disp == NULL) {
 311              		.loc 1 113 5 discriminator 4 view .LVU121
 113:Drivers/lvgl/src/hal/lv_hal_indev.c ****     if(new_drv->disp == NULL) {
 312              		.loc 1 113 5 discriminator 4 view .LVU122
 113:Drivers/lvgl/src/hal/lv_hal_indev.c ****     if(new_drv->disp == NULL) {
 313              		.loc 1 113 5 discriminator 4 view .LVU123
 113:Drivers/lvgl/src/hal/lv_hal_indev.c ****     if(new_drv->disp == NULL) {
 314              		.loc 1 113 5 discriminator 4 view .LVU124
 113:Drivers/lvgl/src/hal/lv_hal_indev.c ****     if(new_drv->disp == NULL) {
 315              		.loc 1 113 5 discriminator 4 view .LVU125
 113:Drivers/lvgl/src/hal/lv_hal_indev.c ****     if(new_drv->disp == NULL) {
 316              		.loc 1 113 5 discriminator 4 view .LVU126
 113:Drivers/lvgl/src/hal/lv_hal_indev.c ****     if(new_drv->disp == NULL) {
 317              		.loc 1 113 5 discriminator 4 view .LVU127
 113:Drivers/lvgl/src/hal/lv_hal_indev.c ****     if(new_drv->disp == NULL) {
 318              		.loc 1 113 5 discriminator 4 view .LVU128
 113:Drivers/lvgl/src/hal/lv_hal_indev.c ****     if(new_drv->disp == NULL) {
 319              		.loc 1 113 5 discriminator 4 view .LVU129
 113:Drivers/lvgl/src/hal/lv_hal_indev.c ****     if(new_drv->disp == NULL) {
 320              		.loc 1 113 5 discriminator 4 view .LVU130
 321 0038 FEE7     		b	.L30
 322              	.L35:
 115:Drivers/lvgl/src/hal/lv_hal_indev.c ****     }
ARM GAS  /var/folders/0z/tsy30v1j4xl4_7kw94k978ww0000gn/T//ccXmjq2B.s 			page 10


 323              		.loc 1 115 9 view .LVU131
 115:Drivers/lvgl/src/hal/lv_hal_indev.c ****     }
 324              		.loc 1 115 25 is_stmt 0 view .LVU132
 325 003a FFF7FEFF 		bl	lv_disp_get_default
 326              	.LVL19:
 115:Drivers/lvgl/src/hal/lv_hal_indev.c ****     }
 327              		.loc 1 115 23 view .LVU133
 328 003e 2861     		str	r0, [r5, #16]
 117:Drivers/lvgl/src/hal/lv_hal_indev.c ****         LV_LOG_WARN("lv_indev_drv_register: no display registered hence can't attach the indev to "
 329              		.loc 1 117 5 is_stmt 1 view .LVU134
 117:Drivers/lvgl/src/hal/lv_hal_indev.c ****         LV_LOG_WARN("lv_indev_drv_register: no display registered hence can't attach the indev to "
 330              		.loc 1 117 7 is_stmt 0 view .LVU135
 331 0040 0028     		cmp	r0, #0
 332 0042 EAD1     		bne	.L31
 118:Drivers/lvgl/src/hal/lv_hal_indev.c ****                     "a display");
 333              		.loc 1 118 9 is_stmt 1 view .LVU136
 118:Drivers/lvgl/src/hal/lv_hal_indev.c ****                     "a display");
 334              		.loc 1 118 9 view .LVU137
 118:Drivers/lvgl/src/hal/lv_hal_indev.c ****                     "a display");
 335              		.loc 1 118 9 view .LVU138
 120:Drivers/lvgl/src/hal/lv_hal_indev.c ****         return;
 336              		.loc 1 120 9 view .LVU139
 120:Drivers/lvgl/src/hal/lv_hal_indev.c ****         return;
 337              		.loc 1 120 30 is_stmt 0 view .LVU140
 338 0044 6379     		ldrb	r3, [r4, #5]	@ zero_extendqisi2
 339 0046 43F00403 		orr	r3, r3, #4
 340 004a 6371     		strb	r3, [r4, #5]
 121:Drivers/lvgl/src/hal/lv_hal_indev.c ****     }
 341              		.loc 1 121 9 is_stmt 1 view .LVU141
 342              		.loc 1 127 1 is_stmt 0 view .LVU142
 343 004c 38BD     		pop	{r3, r4, r5, pc}
 344              	.LVL20:
 345              	.L37:
 346              		.loc 1 127 1 view .LVU143
 347 004e 00BF     		.align	2
 348              	.L36:
 349 0050 00000000 		.word	lv_indev_read_timer_cb
 350              		.cfi_endproc
 351              	.LFE163:
 353              		.section	.text.lv_indev_delete,"ax",%progbits
 354              		.align	1
 355              		.p2align 2,,3
 356              		.global	lv_indev_delete
 357              		.syntax unified
 358              		.thumb
 359              		.thumb_func
 361              	lv_indev_delete:
 362              	.LVL21:
 363              	.LFB164:
 128:Drivers/lvgl/src/hal/lv_hal_indev.c **** 
 129:Drivers/lvgl/src/hal/lv_hal_indev.c **** /**
 130:Drivers/lvgl/src/hal/lv_hal_indev.c **** * Remove the provided input device. Make sure not to use the provided input device afterwards anymo
 131:Drivers/lvgl/src/hal/lv_hal_indev.c **** * @param indev pointer to delete
 132:Drivers/lvgl/src/hal/lv_hal_indev.c **** */
 133:Drivers/lvgl/src/hal/lv_hal_indev.c **** void lv_indev_delete(lv_indev_t * indev)
 134:Drivers/lvgl/src/hal/lv_hal_indev.c **** {
 364              		.loc 1 134 1 is_stmt 1 view -0
ARM GAS  /var/folders/0z/tsy30v1j4xl4_7kw94k978ww0000gn/T//ccXmjq2B.s 			page 11


 365              		.cfi_startproc
 366              		@ args = 0, pretend = 0, frame = 0
 367              		@ frame_needed = 0, uses_anonymous_args = 0
 135:Drivers/lvgl/src/hal/lv_hal_indev.c ****     LV_ASSERT_NULL(indev);
 368              		.loc 1 135 5 view .LVU145
 369              		.loc 1 135 5 view .LVU146
 370 0000 80B1     		cbz	r0, .L40
 371              		.loc 1 135 5 discriminator 2 view .LVU147
 372              		.loc 1 135 26 discriminator 2 view .LVU148
 136:Drivers/lvgl/src/hal/lv_hal_indev.c ****     LV_ASSERT_NULL(indev->driver);
 373              		.loc 1 136 5 discriminator 2 view .LVU149
 374              		.loc 1 136 5 discriminator 2 view .LVU150
 375 0002 0368     		ldr	r3, [r0]
 134:Drivers/lvgl/src/hal/lv_hal_indev.c ****     LV_ASSERT_NULL(indev);
 376              		.loc 1 134 1 is_stmt 0 discriminator 2 view .LVU151
 377 0004 10B5     		push	{r4, lr}
 378              		.cfi_def_cfa_offset 8
 379              		.cfi_offset 4, -8
 380              		.cfi_offset 14, -4
 381 0006 0446     		mov	r4, r0
 382              		.loc 1 136 5 discriminator 2 view .LVU152
 383 0008 6BB1     		cbz	r3, .L42
 384              		.loc 1 136 5 is_stmt 1 discriminator 2 view .LVU153
 385              		.loc 1 136 34 discriminator 2 view .LVU154
 137:Drivers/lvgl/src/hal/lv_hal_indev.c ****     LV_ASSERT_NULL(indev->driver->read_timer);
 386              		.loc 1 137 5 discriminator 2 view .LVU155
 387              		.loc 1 137 5 discriminator 2 view .LVU156
 388 000a 5869     		ldr	r0, [r3, #20]
 389              	.LVL22:
 390              		.loc 1 137 5 is_stmt 0 discriminator 2 view .LVU157
 391 000c 60B1     		cbz	r0, .L44
 392              		.loc 1 137 5 is_stmt 1 discriminator 2 view .LVU158
 393              		.loc 1 137 46 discriminator 2 view .LVU159
 138:Drivers/lvgl/src/hal/lv_hal_indev.c ****     /*Clean up the read timer first*/
 139:Drivers/lvgl/src/hal/lv_hal_indev.c ****     lv_timer_del(indev->driver->read_timer);
 394              		.loc 1 139 5 discriminator 2 view .LVU160
 395 000e FFF7FEFF 		bl	lv_timer_del
 396              	.LVL23:
 140:Drivers/lvgl/src/hal/lv_hal_indev.c ****     /*Remove the input device from the list*/
 141:Drivers/lvgl/src/hal/lv_hal_indev.c ****     _lv_ll_remove(&LV_GC_ROOT(_lv_indev_ll), indev);
 397              		.loc 1 141 5 discriminator 2 view .LVU161
 398 0012 0648     		ldr	r0, .L47
 399 0014 2146     		mov	r1, r4
 400 0016 FFF7FEFF 		bl	_lv_ll_remove
 401              	.LVL24:
 142:Drivers/lvgl/src/hal/lv_hal_indev.c ****     /*Free the memory of the input device*/
 143:Drivers/lvgl/src/hal/lv_hal_indev.c ****     lv_mem_free(indev);
 402              		.loc 1 143 5 discriminator 2 view .LVU162
 403 001a 2046     		mov	r0, r4
 144:Drivers/lvgl/src/hal/lv_hal_indev.c **** }
 404              		.loc 1 144 1 is_stmt 0 discriminator 2 view .LVU163
 405 001c BDE81040 		pop	{r4, lr}
 406              		.cfi_restore 14
 407              		.cfi_restore 4
 408              		.cfi_def_cfa_offset 0
 409              	.LVL25:
 143:Drivers/lvgl/src/hal/lv_hal_indev.c **** }
ARM GAS  /var/folders/0z/tsy30v1j4xl4_7kw94k978ww0000gn/T//ccXmjq2B.s 			page 12


 410              		.loc 1 143 5 discriminator 2 view .LVU164
 411 0020 FFF7FEBF 		b	lv_mem_free
 412              	.LVL26:
 413              	.L40:
 135:Drivers/lvgl/src/hal/lv_hal_indev.c ****     LV_ASSERT_NULL(indev->driver);
 414              		.loc 1 135 5 is_stmt 1 discriminator 1 view .LVU165
 135:Drivers/lvgl/src/hal/lv_hal_indev.c ****     LV_ASSERT_NULL(indev->driver);
 415              		.loc 1 135 5 discriminator 1 view .LVU166
 135:Drivers/lvgl/src/hal/lv_hal_indev.c ****     LV_ASSERT_NULL(indev->driver);
 416              		.loc 1 135 5 discriminator 1 view .LVU167
 135:Drivers/lvgl/src/hal/lv_hal_indev.c ****     LV_ASSERT_NULL(indev->driver);
 417              		.loc 1 135 5 discriminator 1 view .LVU168
 135:Drivers/lvgl/src/hal/lv_hal_indev.c ****     LV_ASSERT_NULL(indev->driver);
 418              		.loc 1 135 5 discriminator 1 view .LVU169
 135:Drivers/lvgl/src/hal/lv_hal_indev.c ****     LV_ASSERT_NULL(indev->driver);
 419              		.loc 1 135 5 discriminator 1 view .LVU170
 135:Drivers/lvgl/src/hal/lv_hal_indev.c ****     LV_ASSERT_NULL(indev->driver);
 420              		.loc 1 135 5 discriminator 1 view .LVU171
 135:Drivers/lvgl/src/hal/lv_hal_indev.c ****     LV_ASSERT_NULL(indev->driver);
 421              		.loc 1 135 5 discriminator 1 view .LVU172
 135:Drivers/lvgl/src/hal/lv_hal_indev.c ****     LV_ASSERT_NULL(indev->driver);
 422              		.loc 1 135 5 discriminator 1 view .LVU173
 135:Drivers/lvgl/src/hal/lv_hal_indev.c ****     LV_ASSERT_NULL(indev->driver);
 423              		.loc 1 135 5 discriminator 1 view .LVU174
 424 0024 FEE7     		b	.L40
 425              	.L42:
 426              		.cfi_def_cfa_offset 8
 427              		.cfi_offset 4, -8
 428              		.cfi_offset 14, -4
 136:Drivers/lvgl/src/hal/lv_hal_indev.c ****     LV_ASSERT_NULL(indev->driver->read_timer);
 429              		.loc 1 136 5 discriminator 2 view .LVU175
 136:Drivers/lvgl/src/hal/lv_hal_indev.c ****     LV_ASSERT_NULL(indev->driver->read_timer);
 430              		.loc 1 136 5 discriminator 2 view .LVU176
 136:Drivers/lvgl/src/hal/lv_hal_indev.c ****     LV_ASSERT_NULL(indev->driver->read_timer);
 431              		.loc 1 136 5 discriminator 2 view .LVU177
 136:Drivers/lvgl/src/hal/lv_hal_indev.c ****     LV_ASSERT_NULL(indev->driver->read_timer);
 432              		.loc 1 136 5 discriminator 2 view .LVU178
 136:Drivers/lvgl/src/hal/lv_hal_indev.c ****     LV_ASSERT_NULL(indev->driver->read_timer);
 433              		.loc 1 136 5 discriminator 2 view .LVU179
 136:Drivers/lvgl/src/hal/lv_hal_indev.c ****     LV_ASSERT_NULL(indev->driver->read_timer);
 434              		.loc 1 136 5 discriminator 2 view .LVU180
 136:Drivers/lvgl/src/hal/lv_hal_indev.c ****     LV_ASSERT_NULL(indev->driver->read_timer);
 435              		.loc 1 136 5 discriminator 2 view .LVU181
 136:Drivers/lvgl/src/hal/lv_hal_indev.c ****     LV_ASSERT_NULL(indev->driver->read_timer);
 436              		.loc 1 136 5 discriminator 2 view .LVU182
 136:Drivers/lvgl/src/hal/lv_hal_indev.c ****     LV_ASSERT_NULL(indev->driver->read_timer);
 437              		.loc 1 136 5 discriminator 2 view .LVU183
 136:Drivers/lvgl/src/hal/lv_hal_indev.c ****     LV_ASSERT_NULL(indev->driver->read_timer);
 438              		.loc 1 136 5 discriminator 2 view .LVU184
 439 0026 FEE7     		b	.L42
 440              	.LVL27:
 441              	.L44:
 137:Drivers/lvgl/src/hal/lv_hal_indev.c ****     /*Clean up the read timer first*/
 442              		.loc 1 137 5 discriminator 3 view .LVU185
 137:Drivers/lvgl/src/hal/lv_hal_indev.c ****     /*Clean up the read timer first*/
 443              		.loc 1 137 5 discriminator 3 view .LVU186
 137:Drivers/lvgl/src/hal/lv_hal_indev.c ****     /*Clean up the read timer first*/
ARM GAS  /var/folders/0z/tsy30v1j4xl4_7kw94k978ww0000gn/T//ccXmjq2B.s 			page 13


 444              		.loc 1 137 5 discriminator 3 view .LVU187
 137:Drivers/lvgl/src/hal/lv_hal_indev.c ****     /*Clean up the read timer first*/
 445              		.loc 1 137 5 discriminator 3 view .LVU188
 137:Drivers/lvgl/src/hal/lv_hal_indev.c ****     /*Clean up the read timer first*/
 446              		.loc 1 137 5 discriminator 3 view .LVU189
 137:Drivers/lvgl/src/hal/lv_hal_indev.c ****     /*Clean up the read timer first*/
 447              		.loc 1 137 5 discriminator 3 view .LVU190
 137:Drivers/lvgl/src/hal/lv_hal_indev.c ****     /*Clean up the read timer first*/
 448              		.loc 1 137 5 discriminator 3 view .LVU191
 137:Drivers/lvgl/src/hal/lv_hal_indev.c ****     /*Clean up the read timer first*/
 449              		.loc 1 137 5 discriminator 3 view .LVU192
 137:Drivers/lvgl/src/hal/lv_hal_indev.c ****     /*Clean up the read timer first*/
 450              		.loc 1 137 5 discriminator 3 view .LVU193
 137:Drivers/lvgl/src/hal/lv_hal_indev.c ****     /*Clean up the read timer first*/
 451              		.loc 1 137 5 discriminator 3 view .LVU194
 452 0028 FEE7     		b	.L44
 453              	.L48:
 454 002a 00BF     		.align	2
 455              	.L47:
 456 002c 00000000 		.word	_lv_indev_ll
 457              		.cfi_endproc
 458              	.LFE164:
 460              		.section	.text.lv_indev_get_next,"ax",%progbits
 461              		.align	1
 462              		.p2align 2,,3
 463              		.global	lv_indev_get_next
 464              		.syntax unified
 465              		.thumb
 466              		.thumb_func
 468              	lv_indev_get_next:
 469              	.LVL28:
 470              	.LFB165:
 145:Drivers/lvgl/src/hal/lv_hal_indev.c **** 
 146:Drivers/lvgl/src/hal/lv_hal_indev.c **** /**
 147:Drivers/lvgl/src/hal/lv_hal_indev.c ****  * Get the next input device.
 148:Drivers/lvgl/src/hal/lv_hal_indev.c ****  * @param indev pointer to the current input device. NULL to initialize.
 149:Drivers/lvgl/src/hal/lv_hal_indev.c ****  * @return the next input devise or NULL if no more. Give the first input device when the parameter
 150:Drivers/lvgl/src/hal/lv_hal_indev.c ****  * is NULL
 151:Drivers/lvgl/src/hal/lv_hal_indev.c ****  */
 152:Drivers/lvgl/src/hal/lv_hal_indev.c **** lv_indev_t * lv_indev_get_next(lv_indev_t * indev)
 153:Drivers/lvgl/src/hal/lv_hal_indev.c **** {
 471              		.loc 1 153 1 view -0
 472              		.cfi_startproc
 473              		@ args = 0, pretend = 0, frame = 0
 474              		@ frame_needed = 0, uses_anonymous_args = 0
 475              		@ link register save eliminated.
 154:Drivers/lvgl/src/hal/lv_hal_indev.c ****     if(indev == NULL)
 476              		.loc 1 154 5 view .LVU196
 477              		.loc 1 154 7 is_stmt 0 view .LVU197
 478 0000 0146     		mov	r1, r0
 155:Drivers/lvgl/src/hal/lv_hal_indev.c ****         return _lv_ll_get_head(&LV_GC_ROOT(_lv_indev_ll));
 479              		.loc 1 155 16 view .LVU198
 480 0002 0348     		ldr	r0, .L52
 481              	.LVL29:
 154:Drivers/lvgl/src/hal/lv_hal_indev.c ****     if(indev == NULL)
 482              		.loc 1 154 7 view .LVU199
 483 0004 09B1     		cbz	r1, .L51
ARM GAS  /var/folders/0z/tsy30v1j4xl4_7kw94k978ww0000gn/T//ccXmjq2B.s 			page 14


 156:Drivers/lvgl/src/hal/lv_hal_indev.c ****     else
 157:Drivers/lvgl/src/hal/lv_hal_indev.c ****         return _lv_ll_get_next(&LV_GC_ROOT(_lv_indev_ll), indev);
 484              		.loc 1 157 9 is_stmt 1 view .LVU200
 485              		.loc 1 157 16 is_stmt 0 view .LVU201
 486 0006 FFF7FEBF 		b	_lv_ll_get_next
 487              	.LVL30:
 488              	.L51:
 155:Drivers/lvgl/src/hal/lv_hal_indev.c ****         return _lv_ll_get_head(&LV_GC_ROOT(_lv_indev_ll));
 489              		.loc 1 155 9 is_stmt 1 view .LVU202
 155:Drivers/lvgl/src/hal/lv_hal_indev.c ****         return _lv_ll_get_head(&LV_GC_ROOT(_lv_indev_ll));
 490              		.loc 1 155 16 is_stmt 0 view .LVU203
 491 000a FFF7FEBF 		b	_lv_ll_get_head
 492              	.LVL31:
 493              	.L53:
 155:Drivers/lvgl/src/hal/lv_hal_indev.c ****         return _lv_ll_get_head(&LV_GC_ROOT(_lv_indev_ll));
 494              		.loc 1 155 16 view .LVU204
 495 000e 00BF     		.align	2
 496              	.L52:
 497 0010 00000000 		.word	_lv_indev_ll
 498              		.cfi_endproc
 499              	.LFE165:
 501              		.section	.text._lv_indev_read,"ax",%progbits
 502              		.align	1
 503              		.p2align 2,,3
 504              		.global	_lv_indev_read
 505              		.syntax unified
 506              		.thumb
 507              		.thumb_func
 509              	_lv_indev_read:
 510              	.LVL32:
 511              	.LFB166:
 158:Drivers/lvgl/src/hal/lv_hal_indev.c **** }
 159:Drivers/lvgl/src/hal/lv_hal_indev.c **** 
 160:Drivers/lvgl/src/hal/lv_hal_indev.c **** /**
 161:Drivers/lvgl/src/hal/lv_hal_indev.c ****  * Read data from an input device.
 162:Drivers/lvgl/src/hal/lv_hal_indev.c ****  * @param indev pointer to an input device
 163:Drivers/lvgl/src/hal/lv_hal_indev.c ****  * @param data input device will write its data here
 164:Drivers/lvgl/src/hal/lv_hal_indev.c ****  */
 165:Drivers/lvgl/src/hal/lv_hal_indev.c **** void _lv_indev_read(lv_indev_t * indev, lv_indev_data_t * data)
 166:Drivers/lvgl/src/hal/lv_hal_indev.c **** {
 512              		.loc 1 166 1 is_stmt 1 view -0
 513              		.cfi_startproc
 514              		@ args = 0, pretend = 0, frame = 0
 515              		@ frame_needed = 0, uses_anonymous_args = 0
 167:Drivers/lvgl/src/hal/lv_hal_indev.c ****     lv_memset_00(data, sizeof(lv_indev_data_t));
 516              		.loc 1 167 5 view .LVU206
 166:Drivers/lvgl/src/hal/lv_hal_indev.c ****     lv_memset_00(data, sizeof(lv_indev_data_t));
 517              		.loc 1 166 1 is_stmt 0 view .LVU207
 518 0000 70B5     		push	{r4, r5, r6, lr}
 519              		.cfi_def_cfa_offset 16
 520              		.cfi_offset 4, -16
 521              		.cfi_offset 5, -12
 522              		.cfi_offset 6, -8
 523              		.cfi_offset 14, -4
 166:Drivers/lvgl/src/hal/lv_hal_indev.c ****     lv_memset_00(data, sizeof(lv_indev_data_t));
 524              		.loc 1 166 1 view .LVU208
 525 0002 0546     		mov	r5, r0
ARM GAS  /var/folders/0z/tsy30v1j4xl4_7kw94k978ww0000gn/T//ccXmjq2B.s 			page 15


 526 0004 0C46     		mov	r4, r1
 527              		.loc 1 167 5 view .LVU209
 528 0006 2046     		mov	r0, r4
 529              	.LVL33:
 530              		.loc 1 167 5 view .LVU210
 531 0008 1021     		movs	r1, #16
 532              	.LVL34:
 533              		.loc 1 167 5 view .LVU211
 534 000a FFF7FEFF 		bl	lv_memset_00
 535              	.LVL35:
 168:Drivers/lvgl/src/hal/lv_hal_indev.c **** 
 169:Drivers/lvgl/src/hal/lv_hal_indev.c ****     /* For touchpad sometimes users don't set the last pressed coordinate on release.
 170:Drivers/lvgl/src/hal/lv_hal_indev.c ****      * So be sure a coordinates are initialized to the last point */
 171:Drivers/lvgl/src/hal/lv_hal_indev.c ****     if(indev->driver->type == LV_INDEV_TYPE_POINTER) {
 536              		.loc 1 171 5 is_stmt 1 view .LVU212
 537              		.loc 1 171 13 is_stmt 0 view .LVU213
 538 000e 2868     		ldr	r0, [r5]
 539              		.loc 1 171 21 view .LVU214
 540 0010 0378     		ldrb	r3, [r0]	@ zero_extendqisi2
 541              		.loc 1 171 7 view .LVU215
 542 0012 012B     		cmp	r3, #1
 543 0014 11D0     		beq	.L60
 172:Drivers/lvgl/src/hal/lv_hal_indev.c ****         data->point.x = indev->proc.types.pointer.last_raw_point.x;
 173:Drivers/lvgl/src/hal/lv_hal_indev.c ****         data->point.y = indev->proc.types.pointer.last_raw_point.y;
 174:Drivers/lvgl/src/hal/lv_hal_indev.c ****     }
 175:Drivers/lvgl/src/hal/lv_hal_indev.c ****     /*Similarly set at least the last key in case of the user doesn't set it on release*/
 176:Drivers/lvgl/src/hal/lv_hal_indev.c ****     else if(indev->driver->type == LV_INDEV_TYPE_KEYPAD) {
 544              		.loc 1 176 10 is_stmt 1 view .LVU216
 545              		.loc 1 176 12 is_stmt 0 view .LVU217
 546 0016 022B     		cmp	r3, #2
 547 0018 09D0     		beq	.L61
 177:Drivers/lvgl/src/hal/lv_hal_indev.c ****         data->key = indev->proc.types.keypad.last_key;
 178:Drivers/lvgl/src/hal/lv_hal_indev.c ****     }
 179:Drivers/lvgl/src/hal/lv_hal_indev.c ****     /*For compatibility assume that used button was enter (encoder push)*/
 180:Drivers/lvgl/src/hal/lv_hal_indev.c ****     else if(indev->driver->type == LV_INDEV_TYPE_ENCODER) {
 548              		.loc 1 180 10 is_stmt 1 view .LVU218
 549              		.loc 1 180 12 is_stmt 0 view .LVU219
 550 001a 042B     		cmp	r3, #4
 181:Drivers/lvgl/src/hal/lv_hal_indev.c ****         data->key = LV_KEY_ENTER;
 551              		.loc 1 181 9 is_stmt 1 view .LVU220
 552              		.loc 1 181 19 is_stmt 0 view .LVU221
 553 001c 04BF     		itt	eq
 554 001e 0A23     		moveq	r3, #10
 555 0020 6360     		streq	r3, [r4, #4]
 556              	.L56:
 182:Drivers/lvgl/src/hal/lv_hal_indev.c ****     }
 183:Drivers/lvgl/src/hal/lv_hal_indev.c **** 
 184:Drivers/lvgl/src/hal/lv_hal_indev.c ****     if(indev->driver->read_cb) {
 557              		.loc 1 184 5 is_stmt 1 view .LVU222
 558              		.loc 1 184 21 is_stmt 0 view .LVU223
 559 0022 4368     		ldr	r3, [r0, #4]
 560              		.loc 1 184 7 view .LVU224
 561 0024 43B1     		cbz	r3, .L54
 562              	.L62:
 185:Drivers/lvgl/src/hal/lv_hal_indev.c ****         INDEV_TRACE("calling indev_read_cb");
 563              		.loc 1 185 45 is_stmt 1 view .LVU225
 186:Drivers/lvgl/src/hal/lv_hal_indev.c ****         indev->driver->read_cb(indev->driver, data);
ARM GAS  /var/folders/0z/tsy30v1j4xl4_7kw94k978ww0000gn/T//ccXmjq2B.s 			page 16


 564              		.loc 1 186 9 view .LVU226
 565 0026 2146     		mov	r1, r4
 187:Drivers/lvgl/src/hal/lv_hal_indev.c ****     }
 188:Drivers/lvgl/src/hal/lv_hal_indev.c ****     else {
 189:Drivers/lvgl/src/hal/lv_hal_indev.c ****         LV_LOG_WARN("indev_read_cb is not registered");
 190:Drivers/lvgl/src/hal/lv_hal_indev.c ****     }
 191:Drivers/lvgl/src/hal/lv_hal_indev.c **** }
 566              		.loc 1 191 1 is_stmt 0 view .LVU227
 567 0028 BDE87040 		pop	{r4, r5, r6, lr}
 568              		.cfi_remember_state
 569              		.cfi_restore 14
 570              		.cfi_restore 6
 571              		.cfi_restore 5
 572              		.cfi_restore 4
 573              		.cfi_def_cfa_offset 0
 574              	.LVL36:
 186:Drivers/lvgl/src/hal/lv_hal_indev.c ****         indev->driver->read_cb(indev->driver, data);
 575              		.loc 1 186 9 view .LVU228
 576 002c 1847     		bx	r3	@ indirect register sibling call
 577              	.LVL37:
 578              	.L61:
 579              		.cfi_restore_state
 177:Drivers/lvgl/src/hal/lv_hal_indev.c ****     }
 580              		.loc 1 177 9 is_stmt 1 view .LVU229
 177:Drivers/lvgl/src/hal/lv_hal_indev.c ****     }
 581              		.loc 1 177 19 is_stmt 0 view .LVU230
 582 002e EB68     		ldr	r3, [r5, #12]
 583 0030 6360     		str	r3, [r4, #4]
 184:Drivers/lvgl/src/hal/lv_hal_indev.c ****         INDEV_TRACE("calling indev_read_cb");
 584              		.loc 1 184 5 is_stmt 1 view .LVU231
 184:Drivers/lvgl/src/hal/lv_hal_indev.c ****         INDEV_TRACE("calling indev_read_cb");
 585              		.loc 1 184 21 is_stmt 0 view .LVU232
 586 0032 4368     		ldr	r3, [r0, #4]
 184:Drivers/lvgl/src/hal/lv_hal_indev.c ****         INDEV_TRACE("calling indev_read_cb");
 587              		.loc 1 184 7 view .LVU233
 588 0034 002B     		cmp	r3, #0
 589 0036 F6D1     		bne	.L62
 590              	.L54:
 591              		.loc 1 191 1 view .LVU234
 592 0038 70BD     		pop	{r4, r5, r6, pc}
 593              	.LVL38:
 594              	.L60:
 172:Drivers/lvgl/src/hal/lv_hal_indev.c ****         data->point.y = indev->proc.types.pointer.last_raw_point.y;
 595              		.loc 1 172 9 is_stmt 1 view .LVU235
 172:Drivers/lvgl/src/hal/lv_hal_indev.c ****         data->point.y = indev->proc.types.pointer.last_raw_point.y;
 596              		.loc 1 172 65 is_stmt 0 view .LVU236
 597 003a 6B69     		ldr	r3, [r5, #20]
 173:Drivers/lvgl/src/hal/lv_hal_indev.c ****     }
 598              		.loc 1 173 9 is_stmt 1 view .LVU237
 172:Drivers/lvgl/src/hal/lv_hal_indev.c ****         data->point.y = indev->proc.types.pointer.last_raw_point.y;
 599              		.loc 1 172 23 is_stmt 0 view .LVU238
 600 003c 2360     		str	r3, [r4]
 601 003e F0E7     		b	.L56
 602              		.cfi_endproc
 603              	.LFE166:
 605              		.text
 606              	.Letext0:
ARM GAS  /var/folders/0z/tsy30v1j4xl4_7kw94k978ww0000gn/T//ccXmjq2B.s 			page 17


 607              		.file 2 "/Users/johannes/Library/Application Support/Code/User/globalStorage/bmd.stm32-for-vscode/
 608              		.file 3 "/Users/johannes/Library/Application Support/Code/User/globalStorage/bmd.stm32-for-vscode/
 609              		.file 4 "Drivers/lvgl/src/hal/../misc/lv_types.h"
 610              		.file 5 "/Users/johannes/Library/Application Support/Code/User/globalStorage/bmd.stm32-for-vscode/
 611              		.file 6 "Drivers/lvgl/src/hal/../hal/../misc/lv_area.h"
 612              		.file 7 "Drivers/lvgl/src/hal/../hal/../misc/lv_timer.h"
 613              		.file 8 "Drivers/lvgl/src/hal/../hal/lv_hal_indev.h"
 614              		.file 9 "Drivers/lvgl/src/hal/../core/../hal/lv_hal_disp.h"
 615              		.file 10 "Drivers/lvgl/src/hal/../core/lv_obj.h"
 616              		.file 11 "Drivers/lvgl/src/hal/../core/lv_group.h"
 617              		.file 12 "Drivers/lvgl/src/hal/../core/../misc/../font/lv_font.h"
 618              		.file 13 "Drivers/lvgl/src/hal/../core/../misc/lv_color.h"
 619              		.file 14 "Drivers/lvgl/src/hal/../core/../misc/lv_txt.h"
 620              		.file 15 "Drivers/lvgl/src/hal/../core/../misc/lv_bidi.h"
 621              		.file 16 "Drivers/lvgl/src/hal/../core/../misc/lv_style.h"
 622              		.file 17 "Drivers/lvgl/src/hal/../core/../hal/../draw/lv_img_buf.h"
 623              		.file 18 "Drivers/lvgl/src/hal/../core/../hal/../draw/lv_draw_rect.h"
 624              		.file 19 "Drivers/lvgl/src/hal/../core/../hal/../draw/lv_draw_label.h"
 625              		.file 20 "Drivers/lvgl/src/hal/../core/../hal/../draw/lv_draw_img.h"
 626              		.file 21 "Drivers/lvgl/src/hal/../core/../hal/../draw/lv_draw_line.h"
 627              		.file 22 "Drivers/lvgl/src/hal/../core/../hal/../draw/lv_draw_arc.h"
 628              		.file 23 "Drivers/lvgl/src/hal/../core/../hal/../draw/lv_draw_layer.h"
 629              		.file 24 "Drivers/lvgl/src/hal/../core/../hal/../draw/lv_draw.h"
 630              		.file 25 "Drivers/lvgl/src/hal/../core/../hal/../misc/lv_ll.h"
 631              		.file 26 "Drivers/lvgl/src/hal/../core/lv_obj_scroll.h"
 632              		.file 27 "Drivers/lvgl/src/hal/../core/lv_obj_style.h"
 633              		.file 28 "Drivers/lvgl/src/hal/../core/lv_obj_class.h"
 634              		.file 29 "Drivers/lvgl/src/hal/../core/lv_event.h"
 635              		.file 30 "Drivers/lvgl/src/hal/../misc/lv_mem.h"
 636              		.file 31 "Drivers/lvgl/src/hal/../core/lv_indev.h"
 637              		.file 32 "Drivers/lvgl/src/hal/../misc/lv_gc.h"
ARM GAS  /var/folders/0z/tsy30v1j4xl4_7kw94k978ww0000gn/T//ccXmjq2B.s 			page 18


DEFINED SYMBOLS
                            *ABS*:0000000000000000 lv_hal_indev.c
/var/folders/0z/tsy30v1j4xl4_7kw94k978ww0000gn/T//ccXmjq2B.s:20     .text.lv_indev_drv_init:0000000000000000 $t
/var/folders/0z/tsy30v1j4xl4_7kw94k978ww0000gn/T//ccXmjq2B.s:27     .text.lv_indev_drv_init:0000000000000000 lv_indev_drv_init
/var/folders/0z/tsy30v1j4xl4_7kw94k978ww0000gn/T//ccXmjq2B.s:68     .text.lv_indev_drv_init:0000000000000018 $d
/var/folders/0z/tsy30v1j4xl4_7kw94k978ww0000gn/T//ccXmjq2B.s:74     .text.lv_indev_drv_register:0000000000000000 $t
/var/folders/0z/tsy30v1j4xl4_7kw94k978ww0000gn/T//ccXmjq2B.s:81     .text.lv_indev_drv_register:0000000000000000 lv_indev_drv_register
/var/folders/0z/tsy30v1j4xl4_7kw94k978ww0000gn/T//ccXmjq2B.s:178    .text.lv_indev_drv_register:0000000000000044 $d
/var/folders/0z/tsy30v1j4xl4_7kw94k978ww0000gn/T//ccXmjq2B.s:184    .text.lv_indev_drv_update:0000000000000000 $t
/var/folders/0z/tsy30v1j4xl4_7kw94k978ww0000gn/T//ccXmjq2B.s:191    .text.lv_indev_drv_update:0000000000000000 lv_indev_drv_update
/var/folders/0z/tsy30v1j4xl4_7kw94k978ww0000gn/T//ccXmjq2B.s:349    .text.lv_indev_drv_update:0000000000000050 $d
/var/folders/0z/tsy30v1j4xl4_7kw94k978ww0000gn/T//ccXmjq2B.s:354    .text.lv_indev_delete:0000000000000000 $t
/var/folders/0z/tsy30v1j4xl4_7kw94k978ww0000gn/T//ccXmjq2B.s:361    .text.lv_indev_delete:0000000000000000 lv_indev_delete
/var/folders/0z/tsy30v1j4xl4_7kw94k978ww0000gn/T//ccXmjq2B.s:456    .text.lv_indev_delete:000000000000002c $d
/var/folders/0z/tsy30v1j4xl4_7kw94k978ww0000gn/T//ccXmjq2B.s:461    .text.lv_indev_get_next:0000000000000000 $t
/var/folders/0z/tsy30v1j4xl4_7kw94k978ww0000gn/T//ccXmjq2B.s:468    .text.lv_indev_get_next:0000000000000000 lv_indev_get_next
/var/folders/0z/tsy30v1j4xl4_7kw94k978ww0000gn/T//ccXmjq2B.s:497    .text.lv_indev_get_next:0000000000000010 $d
/var/folders/0z/tsy30v1j4xl4_7kw94k978ww0000gn/T//ccXmjq2B.s:502    .text._lv_indev_read:0000000000000000 $t
/var/folders/0z/tsy30v1j4xl4_7kw94k978ww0000gn/T//ccXmjq2B.s:509    .text._lv_indev_read:0000000000000000 _lv_indev_read

UNDEFINED SYMBOLS
lv_memset_00
_lv_ll_ins_head
lv_timer_create
lv_disp_get_default
_lv_indev_ll
lv_indev_read_timer_cb
lv_timer_del
_lv_ll_remove
lv_mem_free
_lv_ll_get_next
_lv_ll_get_head
