ARM GAS  /var/folders/0z/tsy30v1j4xl4_7kw94k978ww0000gn/T//cckKe3uD.s 			page 1


   1              		.cpu cortex-m4
   2              		.arch armv7e-m
   3              		.fpu fpv4-sp-d16
   4              		.eabi_attribute 27, 1
   5              		.eabi_attribute 28, 1
   6              		.eabi_attribute 23, 1
   7              		.eabi_attribute 24, 1
   8              		.eabi_attribute 25, 1
   9              		.eabi_attribute 26, 1
  10              		.eabi_attribute 30, 2
  11              		.eabi_attribute 34, 1
  12              		.eabi_attribute 18, 4
  13              		.file	"lv_hal_tick.c"
  14              		.text
  15              	.Ltext0:
  16              		.cfi_sections	.debug_frame
  17              		.section	.text.lv_tick_inc,"ax",%progbits
  18              		.align	1
  19              		.p2align 2,,3
  20              		.global	lv_tick_inc
  21              		.syntax unified
  22              		.thumb
  23              		.thumb_func
  25              	lv_tick_inc:
  26              	.LVL0:
  27              	.LFB0:
  28              		.file 1 "Drivers/lvgl/src/hal/lv_hal_tick.c"
   1:Drivers/lvgl/src/hal/lv_hal_tick.c **** /**
   2:Drivers/lvgl/src/hal/lv_hal_tick.c ****  * @file lv_hal_tick.c
   3:Drivers/lvgl/src/hal/lv_hal_tick.c ****  * Provide access to the system tick with 1 millisecond resolution
   4:Drivers/lvgl/src/hal/lv_hal_tick.c ****  */
   5:Drivers/lvgl/src/hal/lv_hal_tick.c **** 
   6:Drivers/lvgl/src/hal/lv_hal_tick.c **** /*********************
   7:Drivers/lvgl/src/hal/lv_hal_tick.c ****  *      INCLUDES
   8:Drivers/lvgl/src/hal/lv_hal_tick.c ****  *********************/
   9:Drivers/lvgl/src/hal/lv_hal_tick.c **** #include "lv_hal_tick.h"
  10:Drivers/lvgl/src/hal/lv_hal_tick.c **** #include <stddef.h>
  11:Drivers/lvgl/src/hal/lv_hal_tick.c **** 
  12:Drivers/lvgl/src/hal/lv_hal_tick.c **** #if LV_TICK_CUSTOM == 1
  13:Drivers/lvgl/src/hal/lv_hal_tick.c ****     #include LV_TICK_CUSTOM_INCLUDE
  14:Drivers/lvgl/src/hal/lv_hal_tick.c **** #endif
  15:Drivers/lvgl/src/hal/lv_hal_tick.c **** 
  16:Drivers/lvgl/src/hal/lv_hal_tick.c **** /*********************
  17:Drivers/lvgl/src/hal/lv_hal_tick.c ****  *      DEFINES
  18:Drivers/lvgl/src/hal/lv_hal_tick.c ****  *********************/
  19:Drivers/lvgl/src/hal/lv_hal_tick.c **** 
  20:Drivers/lvgl/src/hal/lv_hal_tick.c **** /**********************
  21:Drivers/lvgl/src/hal/lv_hal_tick.c ****  *      TYPEDEFS
  22:Drivers/lvgl/src/hal/lv_hal_tick.c ****  **********************/
  23:Drivers/lvgl/src/hal/lv_hal_tick.c **** 
  24:Drivers/lvgl/src/hal/lv_hal_tick.c **** /**********************
  25:Drivers/lvgl/src/hal/lv_hal_tick.c ****  *  STATIC PROTOTYPES
  26:Drivers/lvgl/src/hal/lv_hal_tick.c ****  **********************/
  27:Drivers/lvgl/src/hal/lv_hal_tick.c **** 
  28:Drivers/lvgl/src/hal/lv_hal_tick.c **** /**********************
  29:Drivers/lvgl/src/hal/lv_hal_tick.c ****  *  STATIC VARIABLES
  30:Drivers/lvgl/src/hal/lv_hal_tick.c ****  **********************/
ARM GAS  /var/folders/0z/tsy30v1j4xl4_7kw94k978ww0000gn/T//cckKe3uD.s 			page 2


  31:Drivers/lvgl/src/hal/lv_hal_tick.c **** #if !LV_TICK_CUSTOM
  32:Drivers/lvgl/src/hal/lv_hal_tick.c ****     static uint32_t sys_time = 0;
  33:Drivers/lvgl/src/hal/lv_hal_tick.c ****     static volatile uint8_t tick_irq_flag;
  34:Drivers/lvgl/src/hal/lv_hal_tick.c **** #endif
  35:Drivers/lvgl/src/hal/lv_hal_tick.c **** 
  36:Drivers/lvgl/src/hal/lv_hal_tick.c **** /**********************
  37:Drivers/lvgl/src/hal/lv_hal_tick.c ****  *      MACROS
  38:Drivers/lvgl/src/hal/lv_hal_tick.c ****  **********************/
  39:Drivers/lvgl/src/hal/lv_hal_tick.c **** 
  40:Drivers/lvgl/src/hal/lv_hal_tick.c **** /**********************
  41:Drivers/lvgl/src/hal/lv_hal_tick.c ****  *   GLOBAL FUNCTIONS
  42:Drivers/lvgl/src/hal/lv_hal_tick.c ****  **********************/
  43:Drivers/lvgl/src/hal/lv_hal_tick.c **** 
  44:Drivers/lvgl/src/hal/lv_hal_tick.c **** #if !LV_TICK_CUSTOM
  45:Drivers/lvgl/src/hal/lv_hal_tick.c **** /**
  46:Drivers/lvgl/src/hal/lv_hal_tick.c ****  * You have to call this function periodically
  47:Drivers/lvgl/src/hal/lv_hal_tick.c ****  * @param tick_period the call period of this function in milliseconds
  48:Drivers/lvgl/src/hal/lv_hal_tick.c ****  */
  49:Drivers/lvgl/src/hal/lv_hal_tick.c **** void LV_ATTRIBUTE_TICK_INC lv_tick_inc(uint32_t tick_period)
  50:Drivers/lvgl/src/hal/lv_hal_tick.c **** {
  29              		.loc 1 50 1 view -0
  30              		.cfi_startproc
  31              		@ args = 0, pretend = 0, frame = 0
  32              		@ frame_needed = 0, uses_anonymous_args = 0
  33              		@ link register save eliminated.
  51:Drivers/lvgl/src/hal/lv_hal_tick.c ****     tick_irq_flag = 0;
  34              		.loc 1 51 5 view .LVU1
  52:Drivers/lvgl/src/hal/lv_hal_tick.c ****     sys_time += tick_period;
  35              		.loc 1 52 14 is_stmt 0 view .LVU2
  36 0000 044A     		ldr	r2, .L3
  51:Drivers/lvgl/src/hal/lv_hal_tick.c ****     tick_irq_flag = 0;
  37              		.loc 1 51 19 view .LVU3
  38 0002 0549     		ldr	r1, .L3+4
  39              		.loc 1 52 14 view .LVU4
  40 0004 1368     		ldr	r3, [r2]
  51:Drivers/lvgl/src/hal/lv_hal_tick.c ****     tick_irq_flag = 0;
  41              		.loc 1 51 19 view .LVU5
  42 0006 4FF0000C 		mov	ip, #0
  43              		.loc 1 52 14 view .LVU6
  44 000a 1844     		add	r0, r0, r3
  45              	.LVL1:
  51:Drivers/lvgl/src/hal/lv_hal_tick.c ****     tick_irq_flag = 0;
  46              		.loc 1 51 19 view .LVU7
  47 000c 81F800C0 		strb	ip, [r1]
  48              		.loc 1 52 5 is_stmt 1 view .LVU8
  49              		.loc 1 52 14 is_stmt 0 view .LVU9
  50 0010 1060     		str	r0, [r2]
  53:Drivers/lvgl/src/hal/lv_hal_tick.c **** }
  51              		.loc 1 53 1 view .LVU10
  52 0012 7047     		bx	lr
  53              	.L4:
  54              		.align	2
  55              	.L3:
  56 0014 00000000 		.word	.LANCHOR1
  57 0018 00000000 		.word	.LANCHOR0
  58              		.cfi_endproc
  59              	.LFE0:
ARM GAS  /var/folders/0z/tsy30v1j4xl4_7kw94k978ww0000gn/T//cckKe3uD.s 			page 3


  61              		.section	.text.lv_tick_get,"ax",%progbits
  62              		.align	1
  63              		.p2align 2,,3
  64              		.global	lv_tick_get
  65              		.syntax unified
  66              		.thumb
  67              		.thumb_func
  69              	lv_tick_get:
  70              	.LFB1:
  54:Drivers/lvgl/src/hal/lv_hal_tick.c **** #endif
  55:Drivers/lvgl/src/hal/lv_hal_tick.c **** 
  56:Drivers/lvgl/src/hal/lv_hal_tick.c **** /**
  57:Drivers/lvgl/src/hal/lv_hal_tick.c ****  * Get the elapsed milliseconds since start up
  58:Drivers/lvgl/src/hal/lv_hal_tick.c ****  * @return the elapsed milliseconds
  59:Drivers/lvgl/src/hal/lv_hal_tick.c ****  */
  60:Drivers/lvgl/src/hal/lv_hal_tick.c **** uint32_t lv_tick_get(void)
  61:Drivers/lvgl/src/hal/lv_hal_tick.c **** {
  71              		.loc 1 61 1 is_stmt 1 view -0
  72              		.cfi_startproc
  73              		@ args = 0, pretend = 0, frame = 0
  74              		@ frame_needed = 0, uses_anonymous_args = 0
  75              		@ link register save eliminated.
  62:Drivers/lvgl/src/hal/lv_hal_tick.c **** #if LV_TICK_CUSTOM == 0
  63:Drivers/lvgl/src/hal/lv_hal_tick.c **** 
  64:Drivers/lvgl/src/hal/lv_hal_tick.c ****     /*If `lv_tick_inc` is called from an interrupt while `sys_time` is read
  65:Drivers/lvgl/src/hal/lv_hal_tick.c ****      *the result might be corrupted.
  66:Drivers/lvgl/src/hal/lv_hal_tick.c ****      *This loop detects if `lv_tick_inc` was called while reading `sys_time`.
  67:Drivers/lvgl/src/hal/lv_hal_tick.c ****      *If `tick_irq_flag` was cleared in `lv_tick_inc` try to read again
  68:Drivers/lvgl/src/hal/lv_hal_tick.c ****      *until `tick_irq_flag` remains `1`.*/
  69:Drivers/lvgl/src/hal/lv_hal_tick.c ****     uint32_t result;
  70:Drivers/lvgl/src/hal/lv_hal_tick.c ****     do {
  71:Drivers/lvgl/src/hal/lv_hal_tick.c ****         tick_irq_flag = 1;
  72:Drivers/lvgl/src/hal/lv_hal_tick.c ****         result        = sys_time;
  76              		.loc 1 72 23 is_stmt 0 view .LVU12
  77 0000 044A     		ldr	r2, .L9
  78 0002 054B     		ldr	r3, .L9+4
  79 0004 1068     		ldr	r0, [r2]
  71:Drivers/lvgl/src/hal/lv_hal_tick.c ****         result        = sys_time;
  80              		.loc 1 71 23 view .LVU13
  81 0006 0121     		movs	r1, #1
  82              	.L6:
  69:Drivers/lvgl/src/hal/lv_hal_tick.c ****     do {
  83              		.loc 1 69 5 is_stmt 1 discriminator 1 view .LVU14
  70:Drivers/lvgl/src/hal/lv_hal_tick.c ****         tick_irq_flag = 1;
  84              		.loc 1 70 5 discriminator 1 view .LVU15
  71:Drivers/lvgl/src/hal/lv_hal_tick.c ****         result        = sys_time;
  85              		.loc 1 71 9 discriminator 1 view .LVU16
  71:Drivers/lvgl/src/hal/lv_hal_tick.c ****         result        = sys_time;
  86              		.loc 1 71 23 is_stmt 0 discriminator 1 view .LVU17
  87 0008 1970     		strb	r1, [r3]
  88              		.loc 1 72 9 is_stmt 1 discriminator 1 view .LVU18
  89              	.LVL2:
  73:Drivers/lvgl/src/hal/lv_hal_tick.c ****     } while(!tick_irq_flag); /*Continue until see a non interrupted cycle*/
  90              		.loc 1 73 13 discriminator 1 view .LVU19
  91 000a 1A78     		ldrb	r2, [r3]	@ zero_extendqisi2
  92 000c 002A     		cmp	r2, #0
  93 000e FBD0     		beq	.L6
ARM GAS  /var/folders/0z/tsy30v1j4xl4_7kw94k978ww0000gn/T//cckKe3uD.s 			page 4


  74:Drivers/lvgl/src/hal/lv_hal_tick.c **** 
  75:Drivers/lvgl/src/hal/lv_hal_tick.c ****     return result;
  94              		.loc 1 75 5 view .LVU20
  76:Drivers/lvgl/src/hal/lv_hal_tick.c **** #else
  77:Drivers/lvgl/src/hal/lv_hal_tick.c ****     return LV_TICK_CUSTOM_SYS_TIME_EXPR;
  78:Drivers/lvgl/src/hal/lv_hal_tick.c **** #endif
  79:Drivers/lvgl/src/hal/lv_hal_tick.c **** }
  95              		.loc 1 79 1 is_stmt 0 view .LVU21
  96 0010 7047     		bx	lr
  97              	.L10:
  98 0012 00BF     		.align	2
  99              	.L9:
 100 0014 00000000 		.word	.LANCHOR1
 101 0018 00000000 		.word	.LANCHOR0
 102              		.cfi_endproc
 103              	.LFE1:
 105              		.section	.text.lv_tick_elaps,"ax",%progbits
 106              		.align	1
 107              		.p2align 2,,3
 108              		.global	lv_tick_elaps
 109              		.syntax unified
 110              		.thumb
 111              		.thumb_func
 113              	lv_tick_elaps:
 114              	.LVL3:
 115              	.LFB2:
  80:Drivers/lvgl/src/hal/lv_hal_tick.c **** 
  81:Drivers/lvgl/src/hal/lv_hal_tick.c **** /**
  82:Drivers/lvgl/src/hal/lv_hal_tick.c ****  * Get the elapsed milliseconds since a previous time stamp
  83:Drivers/lvgl/src/hal/lv_hal_tick.c ****  * @param prev_tick a previous time stamp (return value of lv_tick_get() )
  84:Drivers/lvgl/src/hal/lv_hal_tick.c ****  * @return the elapsed milliseconds since 'prev_tick'
  85:Drivers/lvgl/src/hal/lv_hal_tick.c ****  */
  86:Drivers/lvgl/src/hal/lv_hal_tick.c **** uint32_t lv_tick_elaps(uint32_t prev_tick)
  87:Drivers/lvgl/src/hal/lv_hal_tick.c **** {
 116              		.loc 1 87 1 is_stmt 1 view -0
 117              		.cfi_startproc
 118              		@ args = 0, pretend = 0, frame = 0
 119              		@ frame_needed = 0, uses_anonymous_args = 0
 120              		@ link register save eliminated.
  88:Drivers/lvgl/src/hal/lv_hal_tick.c ****     uint32_t act_time = lv_tick_get();
 121              		.loc 1 88 5 view .LVU23
 122              	.LBB4:
 123              	.LBI4:
  60:Drivers/lvgl/src/hal/lv_hal_tick.c **** {
 124              		.loc 1 60 10 view .LVU24
 125              	.LBB5:
  72:Drivers/lvgl/src/hal/lv_hal_tick.c ****     } while(!tick_irq_flag); /*Continue until see a non interrupted cycle*/
 126              		.loc 1 72 23 is_stmt 0 view .LVU25
 127 0000 064B     		ldr	r3, .L18
 128              	.LBE5:
 129              	.LBE4:
  87:Drivers/lvgl/src/hal/lv_hal_tick.c ****     uint32_t act_time = lv_tick_get();
 130              		.loc 1 87 1 view .LVU26
 131 0002 10B4     		push	{r4}
 132              		.cfi_def_cfa_offset 4
 133              		.cfi_offset 4, -4
 134              	.LBB7:
ARM GAS  /var/folders/0z/tsy30v1j4xl4_7kw94k978ww0000gn/T//cckKe3uD.s 			page 5


 135              	.LBB6:
  72:Drivers/lvgl/src/hal/lv_hal_tick.c ****     } while(!tick_irq_flag); /*Continue until see a non interrupted cycle*/
 136              		.loc 1 72 23 view .LVU27
 137 0004 1C68     		ldr	r4, [r3]
 138 0006 064B     		ldr	r3, .L18+4
  71:Drivers/lvgl/src/hal/lv_hal_tick.c ****         result        = sys_time;
 139              		.loc 1 71 23 view .LVU28
 140 0008 0121     		movs	r1, #1
 141              	.L12:
  69:Drivers/lvgl/src/hal/lv_hal_tick.c ****     do {
 142              		.loc 1 69 5 is_stmt 1 view .LVU29
  70:Drivers/lvgl/src/hal/lv_hal_tick.c ****         tick_irq_flag = 1;
 143              		.loc 1 70 5 view .LVU30
  71:Drivers/lvgl/src/hal/lv_hal_tick.c ****         result        = sys_time;
 144              		.loc 1 71 9 view .LVU31
  71:Drivers/lvgl/src/hal/lv_hal_tick.c ****         result        = sys_time;
 145              		.loc 1 71 23 is_stmt 0 view .LVU32
 146 000a 1970     		strb	r1, [r3]
  72:Drivers/lvgl/src/hal/lv_hal_tick.c ****     } while(!tick_irq_flag); /*Continue until see a non interrupted cycle*/
 147              		.loc 1 72 9 is_stmt 1 view .LVU33
 148              	.LVL4:
  73:Drivers/lvgl/src/hal/lv_hal_tick.c **** 
 149              		.loc 1 73 13 view .LVU34
 150 000c 1A78     		ldrb	r2, [r3]	@ zero_extendqisi2
 151 000e 002A     		cmp	r2, #0
 152 0010 FBD0     		beq	.L12
  75:Drivers/lvgl/src/hal/lv_hal_tick.c **** #else
 153              		.loc 1 75 5 view .LVU35
 154              	.LVL5:
  75:Drivers/lvgl/src/hal/lv_hal_tick.c **** #else
 155              		.loc 1 75 5 is_stmt 0 view .LVU36
 156              	.LBE6:
 157              	.LBE7:
  89:Drivers/lvgl/src/hal/lv_hal_tick.c **** 
  90:Drivers/lvgl/src/hal/lv_hal_tick.c ****     /*If there is no overflow in sys_time simple subtract*/
  91:Drivers/lvgl/src/hal/lv_hal_tick.c ****     if(act_time >= prev_tick) {
 158              		.loc 1 91 5 is_stmt 1 view .LVU37
  92:Drivers/lvgl/src/hal/lv_hal_tick.c ****         prev_tick = act_time - prev_tick;
  93:Drivers/lvgl/src/hal/lv_hal_tick.c ****     }
  94:Drivers/lvgl/src/hal/lv_hal_tick.c ****     else {
  95:Drivers/lvgl/src/hal/lv_hal_tick.c ****         prev_tick = UINT32_MAX - prev_tick + 1;
  96:Drivers/lvgl/src/hal/lv_hal_tick.c ****         prev_tick += act_time;
  97:Drivers/lvgl/src/hal/lv_hal_tick.c ****     }
  98:Drivers/lvgl/src/hal/lv_hal_tick.c **** 
  99:Drivers/lvgl/src/hal/lv_hal_tick.c ****     return prev_tick;
 100:Drivers/lvgl/src/hal/lv_hal_tick.c **** }
 159              		.loc 1 100 1 is_stmt 0 view .LVU38
 160 0012 201A     		subs	r0, r4, r0
 161              	.LVL6:
 162              		.loc 1 100 1 view .LVU39
 163 0014 5DF8044B 		ldr	r4, [sp], #4
 164              		.cfi_restore 4
 165              		.cfi_def_cfa_offset 0
 166 0018 7047     		bx	lr
 167              	.L19:
 168 001a 00BF     		.align	2
 169              	.L18:
ARM GAS  /var/folders/0z/tsy30v1j4xl4_7kw94k978ww0000gn/T//cckKe3uD.s 			page 6


 170 001c 00000000 		.word	.LANCHOR1
 171 0020 00000000 		.word	.LANCHOR0
 172              		.cfi_endproc
 173              	.LFE2:
 175              		.section	.bss.sys_time,"aw",%nobits
 176              		.align	2
 177              		.set	.LANCHOR1,. + 0
 180              	sys_time:
 181 0000 00000000 		.space	4
 182              		.section	.bss.tick_irq_flag,"aw",%nobits
 183              		.set	.LANCHOR0,. + 0
 186              	tick_irq_flag:
 187 0000 00       		.space	1
 188              		.text
 189              	.Letext0:
 190              		.file 2 "/Users/johannes/Library/Application Support/Code/User/globalStorage/bmd.stm32-for-vscode/
 191              		.file 3 "/Users/johannes/Library/Application Support/Code/User/globalStorage/bmd.stm32-for-vscode/
ARM GAS  /var/folders/0z/tsy30v1j4xl4_7kw94k978ww0000gn/T//cckKe3uD.s 			page 7


DEFINED SYMBOLS
                            *ABS*:0000000000000000 lv_hal_tick.c
/var/folders/0z/tsy30v1j4xl4_7kw94k978ww0000gn/T//cckKe3uD.s:18     .text.lv_tick_inc:0000000000000000 $t
/var/folders/0z/tsy30v1j4xl4_7kw94k978ww0000gn/T//cckKe3uD.s:25     .text.lv_tick_inc:0000000000000000 lv_tick_inc
/var/folders/0z/tsy30v1j4xl4_7kw94k978ww0000gn/T//cckKe3uD.s:56     .text.lv_tick_inc:0000000000000014 $d
/var/folders/0z/tsy30v1j4xl4_7kw94k978ww0000gn/T//cckKe3uD.s:62     .text.lv_tick_get:0000000000000000 $t
/var/folders/0z/tsy30v1j4xl4_7kw94k978ww0000gn/T//cckKe3uD.s:69     .text.lv_tick_get:0000000000000000 lv_tick_get
/var/folders/0z/tsy30v1j4xl4_7kw94k978ww0000gn/T//cckKe3uD.s:100    .text.lv_tick_get:0000000000000014 $d
/var/folders/0z/tsy30v1j4xl4_7kw94k978ww0000gn/T//cckKe3uD.s:106    .text.lv_tick_elaps:0000000000000000 $t
/var/folders/0z/tsy30v1j4xl4_7kw94k978ww0000gn/T//cckKe3uD.s:113    .text.lv_tick_elaps:0000000000000000 lv_tick_elaps
/var/folders/0z/tsy30v1j4xl4_7kw94k978ww0000gn/T//cckKe3uD.s:170    .text.lv_tick_elaps:000000000000001c $d
/var/folders/0z/tsy30v1j4xl4_7kw94k978ww0000gn/T//cckKe3uD.s:176    .bss.sys_time:0000000000000000 $d
/var/folders/0z/tsy30v1j4xl4_7kw94k978ww0000gn/T//cckKe3uD.s:180    .bss.sys_time:0000000000000000 sys_time
/var/folders/0z/tsy30v1j4xl4_7kw94k978ww0000gn/T//cckKe3uD.s:186    .bss.tick_irq_flag:0000000000000000 tick_irq_flag
/var/folders/0z/tsy30v1j4xl4_7kw94k978ww0000gn/T//cckKe3uD.s:187    .bss.tick_irq_flag:0000000000000000 $d

NO UNDEFINED SYMBOLS
