ARM GAS  /var/folders/0z/tsy30v1j4xl4_7kw94k978ww0000gn/T//cc9pDhNG.s 			page 1


   1              		.cpu cortex-m4
   2              		.arch armv7e-m
   3              		.fpu fpv4-sp-d16
   4              		.eabi_attribute 27, 1
   5              		.eabi_attribute 28, 1
   6              		.eabi_attribute 23, 1
   7              		.eabi_attribute 24, 1
   8              		.eabi_attribute 25, 1
   9              		.eabi_attribute 26, 1
  10              		.eabi_attribute 30, 2
  11              		.eabi_attribute 34, 1
  12              		.eabi_attribute 18, 4
  13              		.file	"lv_hal_indev.c"
  14              		.text
  15              	.Ltext0:
  16              		.cfi_sections	.debug_frame
  17              		.section	.text.lv_indev_drv_init,"ax",%progbits
  18              		.align	1
  19              		.p2align 2,,3
  20              		.global	lv_indev_drv_init
  21              		.syntax unified
  22              		.thumb
  23              		.thumb_func
  25              	lv_indev_drv_init:
  26              	.LVL0:
  27              	.LFB161:
  28              		.file 1 "Drivers/lvgl/src/hal/lv_hal_indev.c"
   1:Drivers/lvgl/src/hal/lv_hal_indev.c **** /**
   2:Drivers/lvgl/src/hal/lv_hal_indev.c ****  * @file lv_hal_indev.c
   3:Drivers/lvgl/src/hal/lv_hal_indev.c ****  *
   4:Drivers/lvgl/src/hal/lv_hal_indev.c ****  * @description Input device HAL interface
   5:Drivers/lvgl/src/hal/lv_hal_indev.c ****  *
   6:Drivers/lvgl/src/hal/lv_hal_indev.c ****  */
   7:Drivers/lvgl/src/hal/lv_hal_indev.c **** 
   8:Drivers/lvgl/src/hal/lv_hal_indev.c **** /*********************
   9:Drivers/lvgl/src/hal/lv_hal_indev.c ****  *      INCLUDES
  10:Drivers/lvgl/src/hal/lv_hal_indev.c ****  *********************/
  11:Drivers/lvgl/src/hal/lv_hal_indev.c **** #include "../misc/lv_assert.h"
  12:Drivers/lvgl/src/hal/lv_hal_indev.c **** #include "../hal/lv_hal_indev.h"
  13:Drivers/lvgl/src/hal/lv_hal_indev.c **** #include "../core/lv_indev.h"
  14:Drivers/lvgl/src/hal/lv_hal_indev.c **** #include "../misc/lv_mem.h"
  15:Drivers/lvgl/src/hal/lv_hal_indev.c **** #include "../misc/lv_gc.h"
  16:Drivers/lvgl/src/hal/lv_hal_indev.c **** #include "lv_hal_disp.h"
  17:Drivers/lvgl/src/hal/lv_hal_indev.c **** 
  18:Drivers/lvgl/src/hal/lv_hal_indev.c **** /*********************
  19:Drivers/lvgl/src/hal/lv_hal_indev.c ****  *      DEFINES
  20:Drivers/lvgl/src/hal/lv_hal_indev.c ****  *********************/
  21:Drivers/lvgl/src/hal/lv_hal_indev.c **** 
  22:Drivers/lvgl/src/hal/lv_hal_indev.c **** /**********************
  23:Drivers/lvgl/src/hal/lv_hal_indev.c ****  *      TYPEDEFS
  24:Drivers/lvgl/src/hal/lv_hal_indev.c ****  **********************/
  25:Drivers/lvgl/src/hal/lv_hal_indev.c **** 
  26:Drivers/lvgl/src/hal/lv_hal_indev.c **** /**********************
  27:Drivers/lvgl/src/hal/lv_hal_indev.c ****  *  GLOBAL PROTOTYPES
  28:Drivers/lvgl/src/hal/lv_hal_indev.c ****  **********************/
  29:Drivers/lvgl/src/hal/lv_hal_indev.c **** 
  30:Drivers/lvgl/src/hal/lv_hal_indev.c **** /**********************
ARM GAS  /var/folders/0z/tsy30v1j4xl4_7kw94k978ww0000gn/T//cc9pDhNG.s 			page 2


  31:Drivers/lvgl/src/hal/lv_hal_indev.c ****  *  STATIC PROTOTYPES
  32:Drivers/lvgl/src/hal/lv_hal_indev.c ****  **********************/
  33:Drivers/lvgl/src/hal/lv_hal_indev.c **** 
  34:Drivers/lvgl/src/hal/lv_hal_indev.c **** /**********************
  35:Drivers/lvgl/src/hal/lv_hal_indev.c ****  *  STATIC VARIABLES
  36:Drivers/lvgl/src/hal/lv_hal_indev.c ****  **********************/
  37:Drivers/lvgl/src/hal/lv_hal_indev.c **** 
  38:Drivers/lvgl/src/hal/lv_hal_indev.c **** /**********************
  39:Drivers/lvgl/src/hal/lv_hal_indev.c ****  *      MACROS
  40:Drivers/lvgl/src/hal/lv_hal_indev.c ****  **********************/
  41:Drivers/lvgl/src/hal/lv_hal_indev.c **** #if LV_LOG_TRACE_INDEV
  42:Drivers/lvgl/src/hal/lv_hal_indev.c ****     #define INDEV_TRACE(...) LV_LOG_TRACE(__VA_ARGS__)
  43:Drivers/lvgl/src/hal/lv_hal_indev.c **** #else
  44:Drivers/lvgl/src/hal/lv_hal_indev.c ****     #define INDEV_TRACE(...)
  45:Drivers/lvgl/src/hal/lv_hal_indev.c **** #endif
  46:Drivers/lvgl/src/hal/lv_hal_indev.c **** 
  47:Drivers/lvgl/src/hal/lv_hal_indev.c **** /**********************
  48:Drivers/lvgl/src/hal/lv_hal_indev.c ****  *   GLOBAL FUNCTIONS
  49:Drivers/lvgl/src/hal/lv_hal_indev.c ****  **********************/
  50:Drivers/lvgl/src/hal/lv_hal_indev.c **** 
  51:Drivers/lvgl/src/hal/lv_hal_indev.c **** /**
  52:Drivers/lvgl/src/hal/lv_hal_indev.c ****  * Initialize an input device driver with default values.
  53:Drivers/lvgl/src/hal/lv_hal_indev.c ****  * It is used to surly have known values in the fields ant not memory junk.
  54:Drivers/lvgl/src/hal/lv_hal_indev.c ****  * After it you can set the fields.
  55:Drivers/lvgl/src/hal/lv_hal_indev.c ****  * @param driver pointer to driver variable to initialize
  56:Drivers/lvgl/src/hal/lv_hal_indev.c ****  */
  57:Drivers/lvgl/src/hal/lv_hal_indev.c **** void lv_indev_drv_init(lv_indev_drv_t * driver)
  58:Drivers/lvgl/src/hal/lv_hal_indev.c **** {
  29              		.loc 1 58 1 view -0
  30              		.cfi_startproc
  31              		@ args = 0, pretend = 0, frame = 0
  32              		@ frame_needed = 0, uses_anonymous_args = 0
  59:Drivers/lvgl/src/hal/lv_hal_indev.c ****     lv_memset_00(driver, sizeof(lv_indev_drv_t));
  33              		.loc 1 59 5 view .LVU1
  58:Drivers/lvgl/src/hal/lv_hal_indev.c ****     lv_memset_00(driver, sizeof(lv_indev_drv_t));
  34              		.loc 1 58 1 is_stmt 0 view .LVU2
  35 0000 10B5     		push	{r4, lr}
  36              		.cfi_def_cfa_offset 8
  37              		.cfi_offset 4, -8
  38              		.cfi_offset 14, -4
  39              		.loc 1 59 5 view .LVU3
  40 0002 2021     		movs	r1, #32
  58:Drivers/lvgl/src/hal/lv_hal_indev.c ****     lv_memset_00(driver, sizeof(lv_indev_drv_t));
  41              		.loc 1 58 1 view .LVU4
  42 0004 0446     		mov	r4, r0
  43              		.loc 1 59 5 view .LVU5
  44 0006 FFF7FEFF 		bl	lv_memset_00
  45              	.LVL1:
  60:Drivers/lvgl/src/hal/lv_hal_indev.c **** 
  61:Drivers/lvgl/src/hal/lv_hal_indev.c ****     driver->type                 = LV_INDEV_TYPE_NONE;
  46              		.loc 1 61 5 is_stmt 1 view .LVU6
  62:Drivers/lvgl/src/hal/lv_hal_indev.c ****     driver->scroll_limit         = LV_INDEV_DEF_SCROLL_LIMIT;
  63:Drivers/lvgl/src/hal/lv_hal_indev.c ****     driver->scroll_throw         = LV_INDEV_DEF_SCROLL_THROW;
  64:Drivers/lvgl/src/hal/lv_hal_indev.c ****     driver->long_press_time      = LV_INDEV_DEF_LONG_PRESS_TIME;
  47              		.loc 1 64 34 is_stmt 0 view .LVU7
  48 000a 034A     		ldr	r2, .L4
  62:Drivers/lvgl/src/hal/lv_hal_indev.c ****     driver->scroll_limit         = LV_INDEV_DEF_SCROLL_LIMIT;
ARM GAS  /var/folders/0z/tsy30v1j4xl4_7kw94k978ww0000gn/T//cc9pDhNG.s 			page 3


  49              		.loc 1 62 34 view .LVU8
  50 000c 034B     		ldr	r3, .L4+4
  51 000e C4E90632 		strd	r3, r2, [r4, #24]
  61:Drivers/lvgl/src/hal/lv_hal_indev.c ****     driver->scroll_limit         = LV_INDEV_DEF_SCROLL_LIMIT;
  52              		.loc 1 61 34 view .LVU9
  53 0012 0021     		movs	r1, #0
  54 0014 2170     		strb	r1, [r4]
  62:Drivers/lvgl/src/hal/lv_hal_indev.c ****     driver->scroll_limit         = LV_INDEV_DEF_SCROLL_LIMIT;
  55              		.loc 1 62 5 is_stmt 1 view .LVU10
  63:Drivers/lvgl/src/hal/lv_hal_indev.c ****     driver->long_press_time      = LV_INDEV_DEF_LONG_PRESS_TIME;
  56              		.loc 1 63 5 view .LVU11
  57              		.loc 1 64 5 view .LVU12
  65:Drivers/lvgl/src/hal/lv_hal_indev.c ****     driver->long_press_repeat_time  = LV_INDEV_DEF_LONG_PRESS_REP_TIME;
  58              		.loc 1 65 5 view .LVU13
  66:Drivers/lvgl/src/hal/lv_hal_indev.c ****     driver->gesture_limit        = LV_INDEV_DEF_GESTURE_LIMIT;
  67:Drivers/lvgl/src/hal/lv_hal_indev.c ****     driver->gesture_min_velocity = LV_INDEV_DEF_GESTURE_MIN_VELOCITY;
  68:Drivers/lvgl/src/hal/lv_hal_indev.c **** }
  59              		.loc 1 68 1 is_stmt 0 view .LVU14
  60 0016 10BD     		pop	{r4, pc}
  61              	.LVL2:
  62              	.L5:
  63              		.loc 1 68 1 view .LVU15
  64              		.align	2
  65              	.L4:
  66 0018 90016400 		.word	6554000
  67 001c 0A0A0332 		.word	839059978
  68              		.cfi_endproc
  69              	.LFE161:
  71              		.section	.text.lv_indev_drv_register,"ax",%progbits
  72              		.align	1
  73              		.p2align 2,,3
  74              		.global	lv_indev_drv_register
  75              		.syntax unified
  76              		.thumb
  77              		.thumb_func
  79              	lv_indev_drv_register:
  80              	.LVL3:
  81              	.LFB162:
  69:Drivers/lvgl/src/hal/lv_hal_indev.c **** 
  70:Drivers/lvgl/src/hal/lv_hal_indev.c **** /**
  71:Drivers/lvgl/src/hal/lv_hal_indev.c ****  * Register an initialized input device driver.
  72:Drivers/lvgl/src/hal/lv_hal_indev.c ****  * @param driver pointer to an initialized 'lv_indev_drv_t' variable.
  73:Drivers/lvgl/src/hal/lv_hal_indev.c ****  * Only pointer is saved, so the driver should be static or dynamically allocated.
  74:Drivers/lvgl/src/hal/lv_hal_indev.c ****  * @return pointer to the new input device or NULL on error
  75:Drivers/lvgl/src/hal/lv_hal_indev.c ****  */
  76:Drivers/lvgl/src/hal/lv_hal_indev.c **** lv_indev_t * lv_indev_drv_register(lv_indev_drv_t * driver)
  77:Drivers/lvgl/src/hal/lv_hal_indev.c **** {
  82              		.loc 1 77 1 is_stmt 1 view -0
  83              		.cfi_startproc
  84              		@ args = 0, pretend = 0, frame = 0
  85              		@ frame_needed = 0, uses_anonymous_args = 0
  78:Drivers/lvgl/src/hal/lv_hal_indev.c ****     if(driver->disp == NULL) driver->disp = lv_disp_get_default();
  86              		.loc 1 78 5 view .LVU17
  77:Drivers/lvgl/src/hal/lv_hal_indev.c ****     if(driver->disp == NULL) driver->disp = lv_disp_get_default();
  87              		.loc 1 77 1 is_stmt 0 view .LVU18
  88 0000 38B5     		push	{r3, r4, r5, lr}
  89              		.cfi_def_cfa_offset 16
ARM GAS  /var/folders/0z/tsy30v1j4xl4_7kw94k978ww0000gn/T//cc9pDhNG.s 			page 4


  90              		.cfi_offset 3, -16
  91              		.cfi_offset 4, -12
  92              		.cfi_offset 5, -8
  93              		.cfi_offset 14, -4
  94              		.loc 1 78 7 view .LVU19
  95 0002 0369     		ldr	r3, [r0, #16]
  77:Drivers/lvgl/src/hal/lv_hal_indev.c ****     if(driver->disp == NULL) driver->disp = lv_disp_get_default();
  96              		.loc 1 77 1 view .LVU20
  97 0004 0546     		mov	r5, r0
  98              		.loc 1 78 7 view .LVU21
  99 0006 ABB1     		cbz	r3, .L7
 100              	.LVL4:
 101              	.L11:
  79:Drivers/lvgl/src/hal/lv_hal_indev.c **** 
  80:Drivers/lvgl/src/hal/lv_hal_indev.c ****     if(driver->disp == NULL) {
  81:Drivers/lvgl/src/hal/lv_hal_indev.c ****         LV_LOG_WARN("lv_indev_drv_register: no display registered hence can't attach the indev to "
  82:Drivers/lvgl/src/hal/lv_hal_indev.c ****                     "a display");
  83:Drivers/lvgl/src/hal/lv_hal_indev.c ****         return NULL;
  84:Drivers/lvgl/src/hal/lv_hal_indev.c ****     }
  85:Drivers/lvgl/src/hal/lv_hal_indev.c **** 
  86:Drivers/lvgl/src/hal/lv_hal_indev.c ****     lv_indev_t * indev = _lv_ll_ins_head(&LV_GC_ROOT(_lv_indev_ll));
 102              		.loc 1 86 5 is_stmt 1 view .LVU22
 103              		.loc 1 86 26 is_stmt 0 view .LVU23
 104 0008 0E48     		ldr	r0, .L20
 105 000a FFF7FEFF 		bl	_lv_ll_ins_head
 106              	.LVL5:
  87:Drivers/lvgl/src/hal/lv_hal_indev.c ****     LV_ASSERT_MALLOC(indev);
 107              		.loc 1 87 5 is_stmt 1 view .LVU24
 108              		.loc 1 87 5 view .LVU25
 109 000e 0446     		mov	r4, r0
 110 0010 78B1     		cbz	r0, .L19
 111              		.loc 1 87 5 view .LVU26
 112              		.loc 1 87 28 view .LVU27
  88:Drivers/lvgl/src/hal/lv_hal_indev.c ****     if(!indev) {
 113              		.loc 1 88 5 view .LVU28
  89:Drivers/lvgl/src/hal/lv_hal_indev.c ****         return NULL;
  90:Drivers/lvgl/src/hal/lv_hal_indev.c ****     }
  91:Drivers/lvgl/src/hal/lv_hal_indev.c **** 
  92:Drivers/lvgl/src/hal/lv_hal_indev.c ****     lv_memset_00(indev, sizeof(lv_indev_t));
 114              		.loc 1 92 5 view .LVU29
 115 0012 5C21     		movs	r1, #92
 116 0014 FFF7FEFF 		bl	lv_memset_00
 117              	.LVL6:
  93:Drivers/lvgl/src/hal/lv_hal_indev.c ****     indev->driver = driver;
 118              		.loc 1 93 5 view .LVU30
  94:Drivers/lvgl/src/hal/lv_hal_indev.c **** 
  95:Drivers/lvgl/src/hal/lv_hal_indev.c ****     indev->proc.reset_query  = 1;
 119              		.loc 1 95 30 is_stmt 0 view .LVU31
 120 0018 6379     		ldrb	r3, [r4, #5]	@ zero_extendqisi2
  93:Drivers/lvgl/src/hal/lv_hal_indev.c ****     indev->driver = driver;
 121              		.loc 1 93 19 view .LVU32
 122 001a 2560     		str	r5, [r4]
 123              		.loc 1 95 5 is_stmt 1 view .LVU33
 124              		.loc 1 95 30 is_stmt 0 view .LVU34
 125 001c 43F00203 		orr	r3, r3, #2
 126 0020 6371     		strb	r3, [r4, #5]
  96:Drivers/lvgl/src/hal/lv_hal_indev.c ****     indev->driver->read_timer = lv_timer_create(lv_indev_read_timer_cb, LV_INDEV_DEF_READ_PERIOD, i
ARM GAS  /var/folders/0z/tsy30v1j4xl4_7kw94k978ww0000gn/T//cc9pDhNG.s 			page 5


 127              		.loc 1 96 5 is_stmt 1 view .LVU35
 128              		.loc 1 96 33 is_stmt 0 view .LVU36
 129 0022 2246     		mov	r2, r4
 130 0024 1E21     		movs	r1, #30
 131 0026 0848     		ldr	r0, .L20+4
 132 0028 FFF7FEFF 		bl	lv_timer_create
 133              	.LVL7:
 134              		.loc 1 96 31 view .LVU37
 135 002c 6861     		str	r0, [r5, #20]
  97:Drivers/lvgl/src/hal/lv_hal_indev.c **** 
  98:Drivers/lvgl/src/hal/lv_hal_indev.c ****     return indev;
 136              		.loc 1 98 5 is_stmt 1 view .LVU38
  99:Drivers/lvgl/src/hal/lv_hal_indev.c **** }
 137              		.loc 1 99 1 is_stmt 0 view .LVU39
 138 002e 2046     		mov	r0, r4
 139 0030 38BD     		pop	{r3, r4, r5, pc}
 140              	.LVL8:
 141              	.L19:
 142              	.L8:
  87:Drivers/lvgl/src/hal/lv_hal_indev.c ****     if(!indev) {
 143              		.loc 1 87 5 is_stmt 1 discriminator 1 view .LVU40
  87:Drivers/lvgl/src/hal/lv_hal_indev.c ****     if(!indev) {
 144              		.loc 1 87 5 discriminator 1 view .LVU41
  87:Drivers/lvgl/src/hal/lv_hal_indev.c ****     if(!indev) {
 145              		.loc 1 87 5 discriminator 1 view .LVU42
  87:Drivers/lvgl/src/hal/lv_hal_indev.c ****     if(!indev) {
 146              		.loc 1 87 5 discriminator 1 view .LVU43
  87:Drivers/lvgl/src/hal/lv_hal_indev.c ****     if(!indev) {
 147              		.loc 1 87 5 discriminator 1 view .LVU44
  87:Drivers/lvgl/src/hal/lv_hal_indev.c ****     if(!indev) {
 148              		.loc 1 87 5 discriminator 1 view .LVU45
  87:Drivers/lvgl/src/hal/lv_hal_indev.c ****     if(!indev) {
 149              		.loc 1 87 5 discriminator 1 view .LVU46
  87:Drivers/lvgl/src/hal/lv_hal_indev.c ****     if(!indev) {
 150              		.loc 1 87 5 discriminator 1 view .LVU47
  87:Drivers/lvgl/src/hal/lv_hal_indev.c ****     if(!indev) {
 151              		.loc 1 87 5 discriminator 1 view .LVU48
  87:Drivers/lvgl/src/hal/lv_hal_indev.c ****     if(!indev) {
 152              		.loc 1 87 5 discriminator 1 view .LVU49
 153 0032 FEE7     		b	.L8
 154              	.LVL9:
 155              	.L7:
  78:Drivers/lvgl/src/hal/lv_hal_indev.c **** 
 156              		.loc 1 78 30 discriminator 1 view .LVU50
  78:Drivers/lvgl/src/hal/lv_hal_indev.c **** 
 157              		.loc 1 78 45 is_stmt 0 discriminator 1 view .LVU51
 158 0034 FFF7FEFF 		bl	lv_disp_get_default
 159              	.LVL10:
  78:Drivers/lvgl/src/hal/lv_hal_indev.c **** 
 160              		.loc 1 78 45 discriminator 1 view .LVU52
 161 0038 0446     		mov	r4, r0
  78:Drivers/lvgl/src/hal/lv_hal_indev.c **** 
 162              		.loc 1 78 43 discriminator 1 view .LVU53
 163 003a 2861     		str	r0, [r5, #16]
  80:Drivers/lvgl/src/hal/lv_hal_indev.c ****         LV_LOG_WARN("lv_indev_drv_register: no display registered hence can't attach the indev to "
 164              		.loc 1 80 5 is_stmt 1 discriminator 1 view .LVU54
  80:Drivers/lvgl/src/hal/lv_hal_indev.c ****         LV_LOG_WARN("lv_indev_drv_register: no display registered hence can't attach the indev to "
ARM GAS  /var/folders/0z/tsy30v1j4xl4_7kw94k978ww0000gn/T//cc9pDhNG.s 			page 6


 165              		.loc 1 80 7 is_stmt 0 discriminator 1 view .LVU55
 166 003c 0028     		cmp	r0, #0
 167 003e E3D1     		bne	.L11
 168              		.loc 1 99 1 view .LVU56
 169 0040 2046     		mov	r0, r4
 170 0042 38BD     		pop	{r3, r4, r5, pc}
 171              	.LVL11:
 172              	.L21:
 173              		.loc 1 99 1 view .LVU57
 174              		.align	2
 175              	.L20:
 176 0044 00000000 		.word	_lv_indev_ll
 177 0048 00000000 		.word	lv_indev_read_timer_cb
 178              		.cfi_endproc
 179              	.LFE162:
 181              		.section	.text.lv_indev_drv_update,"ax",%progbits
 182              		.align	1
 183              		.p2align 2,,3
 184              		.global	lv_indev_drv_update
 185              		.syntax unified
 186              		.thumb
 187              		.thumb_func
 189              	lv_indev_drv_update:
 190              	.LVL12:
 191              	.LFB163:
 100:Drivers/lvgl/src/hal/lv_hal_indev.c **** 
 101:Drivers/lvgl/src/hal/lv_hal_indev.c **** /**
 102:Drivers/lvgl/src/hal/lv_hal_indev.c ****  * Update the driver in run time.
 103:Drivers/lvgl/src/hal/lv_hal_indev.c ****  * @param indev pointer to a input device. (return value of `lv_indev_drv_register`)
 104:Drivers/lvgl/src/hal/lv_hal_indev.c ****  * @param new_drv pointer to the new driver
 105:Drivers/lvgl/src/hal/lv_hal_indev.c ****  */
 106:Drivers/lvgl/src/hal/lv_hal_indev.c **** void lv_indev_drv_update(lv_indev_t * indev, lv_indev_drv_t * new_drv)
 107:Drivers/lvgl/src/hal/lv_hal_indev.c **** {
 192              		.loc 1 107 1 is_stmt 1 view -0
 193              		.cfi_startproc
 194              		@ args = 0, pretend = 0, frame = 0
 195              		@ frame_needed = 0, uses_anonymous_args = 0
 108:Drivers/lvgl/src/hal/lv_hal_indev.c ****     LV_ASSERT_NULL(indev);
 196              		.loc 1 108 5 view .LVU59
 197              		.loc 1 108 5 view .LVU60
 198 0000 B8B1     		cbz	r0, .L24
 199              		.loc 1 108 5 discriminator 2 view .LVU61
 200              		.loc 1 108 26 discriminator 2 view .LVU62
 109:Drivers/lvgl/src/hal/lv_hal_indev.c ****     LV_ASSERT_NULL(indev->driver);
 201              		.loc 1 109 5 discriminator 2 view .LVU63
 202              		.loc 1 109 5 discriminator 2 view .LVU64
 107:Drivers/lvgl/src/hal/lv_hal_indev.c ****     LV_ASSERT_NULL(indev);
 203              		.loc 1 107 1 is_stmt 0 discriminator 2 view .LVU65
 204 0002 38B5     		push	{r3, r4, r5, lr}
 205              		.cfi_def_cfa_offset 16
 206              		.cfi_offset 3, -16
 207              		.cfi_offset 4, -12
 208              		.cfi_offset 5, -8
 209              		.cfi_offset 14, -4
 210              		.loc 1 109 5 discriminator 2 view .LVU66
 211 0004 0368     		ldr	r3, [r0]
 212 0006 0446     		mov	r4, r0
ARM GAS  /var/folders/0z/tsy30v1j4xl4_7kw94k978ww0000gn/T//cc9pDhNG.s 			page 7


 213 0008 A3B1     		cbz	r3, .L26
 214              		.loc 1 109 5 is_stmt 1 discriminator 2 view .LVU67
 215              		.loc 1 109 34 discriminator 2 view .LVU68
 110:Drivers/lvgl/src/hal/lv_hal_indev.c ****     LV_ASSERT_NULL(indev->driver->read_timer);
 216              		.loc 1 110 5 discriminator 2 view .LVU69
 217              		.loc 1 110 5 discriminator 2 view .LVU70
 218 000a 5869     		ldr	r0, [r3, #20]
 219              	.LVL13:
 220              		.loc 1 110 5 is_stmt 0 discriminator 2 view .LVU71
 221 000c 98B1     		cbz	r0, .L28
 222              		.loc 1 110 5 is_stmt 1 discriminator 2 view .LVU72
 223              		.loc 1 110 46 discriminator 2 view .LVU73
 111:Drivers/lvgl/src/hal/lv_hal_indev.c ****     lv_timer_del(indev->driver->read_timer);
 224              		.loc 1 111 5 discriminator 2 view .LVU74
 225 000e 0D46     		mov	r5, r1
 226 0010 FFF7FEFF 		bl	lv_timer_del
 227              	.LVL14:
 112:Drivers/lvgl/src/hal/lv_hal_indev.c **** 
 113:Drivers/lvgl/src/hal/lv_hal_indev.c ****     LV_ASSERT_NULL(new_drv);
 228              		.loc 1 113 5 discriminator 2 view .LVU75
 229              		.loc 1 113 5 discriminator 2 view .LVU76
 230 0014 85B1     		cbz	r5, .L30
 231              		.loc 1 113 5 discriminator 2 view .LVU77
 232              		.loc 1 113 28 discriminator 2 view .LVU78
 114:Drivers/lvgl/src/hal/lv_hal_indev.c ****     if(new_drv->disp == NULL) {
 233              		.loc 1 114 5 discriminator 2 view .LVU79
 234              		.loc 1 114 7 is_stmt 0 discriminator 2 view .LVU80
 235 0016 2B69     		ldr	r3, [r5, #16]
 236 0018 7BB1     		cbz	r3, .L35
 237              	.L31:
 115:Drivers/lvgl/src/hal/lv_hal_indev.c ****         new_drv->disp = lv_disp_get_default();
 116:Drivers/lvgl/src/hal/lv_hal_indev.c ****     }
 117:Drivers/lvgl/src/hal/lv_hal_indev.c ****     if(new_drv->disp == NULL) {
 118:Drivers/lvgl/src/hal/lv_hal_indev.c ****         LV_LOG_WARN("lv_indev_drv_register: no display registered hence can't attach the indev to "
 119:Drivers/lvgl/src/hal/lv_hal_indev.c ****                     "a display");
 120:Drivers/lvgl/src/hal/lv_hal_indev.c ****         indev->proc.disabled = true;
 121:Drivers/lvgl/src/hal/lv_hal_indev.c ****         return;
 122:Drivers/lvgl/src/hal/lv_hal_indev.c ****     }
 123:Drivers/lvgl/src/hal/lv_hal_indev.c **** 
 124:Drivers/lvgl/src/hal/lv_hal_indev.c ****     indev->driver = new_drv;
 238              		.loc 1 124 5 is_stmt 1 view .LVU81
 125:Drivers/lvgl/src/hal/lv_hal_indev.c ****     indev->driver->read_timer = lv_timer_create(lv_indev_read_timer_cb, LV_INDEV_DEF_READ_PERIOD, i
 239              		.loc 1 125 33 is_stmt 0 view .LVU82
 240 001a 0D48     		ldr	r0, .L36
 124:Drivers/lvgl/src/hal/lv_hal_indev.c ****     indev->driver->read_timer = lv_timer_create(lv_indev_read_timer_cb, LV_INDEV_DEF_READ_PERIOD, i
 241              		.loc 1 124 19 view .LVU83
 242 001c 2560     		str	r5, [r4]
 243              		.loc 1 125 5 is_stmt 1 view .LVU84
 244              		.loc 1 125 33 is_stmt 0 view .LVU85
 245 001e 2246     		mov	r2, r4
 246 0020 1E21     		movs	r1, #30
 247 0022 FFF7FEFF 		bl	lv_timer_create
 248              	.LVL15:
 126:Drivers/lvgl/src/hal/lv_hal_indev.c ****     indev->proc.reset_query   = 1;
 249              		.loc 1 126 31 view .LVU86
 250 0026 6379     		ldrb	r3, [r4, #5]	@ zero_extendqisi2
 125:Drivers/lvgl/src/hal/lv_hal_indev.c ****     indev->driver->read_timer = lv_timer_create(lv_indev_read_timer_cb, LV_INDEV_DEF_READ_PERIOD, i
ARM GAS  /var/folders/0z/tsy30v1j4xl4_7kw94k978ww0000gn/T//cc9pDhNG.s 			page 8


 251              		.loc 1 125 31 view .LVU87
 252 0028 6861     		str	r0, [r5, #20]
 253              		.loc 1 126 5 is_stmt 1 view .LVU88
 254              		.loc 1 126 31 is_stmt 0 view .LVU89
 255 002a 43F00203 		orr	r3, r3, #2
 256 002e 6371     		strb	r3, [r4, #5]
 127:Drivers/lvgl/src/hal/lv_hal_indev.c **** }
 257              		.loc 1 127 1 view .LVU90
 258 0030 38BD     		pop	{r3, r4, r5, pc}
 259              	.LVL16:
 260              	.L24:
 261              		.cfi_def_cfa_offset 0
 262              		.cfi_restore 3
 263              		.cfi_restore 4
 264              		.cfi_restore 5
 265              		.cfi_restore 14
 108:Drivers/lvgl/src/hal/lv_hal_indev.c ****     LV_ASSERT_NULL(indev->driver);
 266              		.loc 1 108 5 is_stmt 1 discriminator 1 view .LVU91
 108:Drivers/lvgl/src/hal/lv_hal_indev.c ****     LV_ASSERT_NULL(indev->driver);
 267              		.loc 1 108 5 discriminator 1 view .LVU92
 108:Drivers/lvgl/src/hal/lv_hal_indev.c ****     LV_ASSERT_NULL(indev->driver);
 268              		.loc 1 108 5 discriminator 1 view .LVU93
 108:Drivers/lvgl/src/hal/lv_hal_indev.c ****     LV_ASSERT_NULL(indev->driver);
 269              		.loc 1 108 5 discriminator 1 view .LVU94
 108:Drivers/lvgl/src/hal/lv_hal_indev.c ****     LV_ASSERT_NULL(indev->driver);
 270              		.loc 1 108 5 discriminator 1 view .LVU95
 108:Drivers/lvgl/src/hal/lv_hal_indev.c ****     LV_ASSERT_NULL(indev->driver);
 271              		.loc 1 108 5 discriminator 1 view .LVU96
 108:Drivers/lvgl/src/hal/lv_hal_indev.c ****     LV_ASSERT_NULL(indev->driver);
 272              		.loc 1 108 5 discriminator 1 view .LVU97
 108:Drivers/lvgl/src/hal/lv_hal_indev.c ****     LV_ASSERT_NULL(indev->driver);
 273              		.loc 1 108 5 discriminator 1 view .LVU98
 108:Drivers/lvgl/src/hal/lv_hal_indev.c ****     LV_ASSERT_NULL(indev->driver);
 274              		.loc 1 108 5 discriminator 1 view .LVU99
 108:Drivers/lvgl/src/hal/lv_hal_indev.c ****     LV_ASSERT_NULL(indev->driver);
 275              		.loc 1 108 5 discriminator 1 view .LVU100
 276 0032 FEE7     		b	.L24
 277              	.L26:
 278              		.cfi_def_cfa_offset 16
 279              		.cfi_offset 3, -16
 280              		.cfi_offset 4, -12
 281              		.cfi_offset 5, -8
 282              		.cfi_offset 14, -4
 109:Drivers/lvgl/src/hal/lv_hal_indev.c ****     LV_ASSERT_NULL(indev->driver->read_timer);
 283              		.loc 1 109 5 discriminator 2 view .LVU101
 109:Drivers/lvgl/src/hal/lv_hal_indev.c ****     LV_ASSERT_NULL(indev->driver->read_timer);
 284              		.loc 1 109 5 discriminator 2 view .LVU102
 109:Drivers/lvgl/src/hal/lv_hal_indev.c ****     LV_ASSERT_NULL(indev->driver->read_timer);
 285              		.loc 1 109 5 discriminator 2 view .LVU103
 109:Drivers/lvgl/src/hal/lv_hal_indev.c ****     LV_ASSERT_NULL(indev->driver->read_timer);
 286              		.loc 1 109 5 discriminator 2 view .LVU104
 109:Drivers/lvgl/src/hal/lv_hal_indev.c ****     LV_ASSERT_NULL(indev->driver->read_timer);
 287              		.loc 1 109 5 discriminator 2 view .LVU105
 109:Drivers/lvgl/src/hal/lv_hal_indev.c ****     LV_ASSERT_NULL(indev->driver->read_timer);
 288              		.loc 1 109 5 discriminator 2 view .LVU106
 109:Drivers/lvgl/src/hal/lv_hal_indev.c ****     LV_ASSERT_NULL(indev->driver->read_timer);
 289              		.loc 1 109 5 discriminator 2 view .LVU107
ARM GAS  /var/folders/0z/tsy30v1j4xl4_7kw94k978ww0000gn/T//cc9pDhNG.s 			page 9


 109:Drivers/lvgl/src/hal/lv_hal_indev.c ****     LV_ASSERT_NULL(indev->driver->read_timer);
 290              		.loc 1 109 5 discriminator 2 view .LVU108
 109:Drivers/lvgl/src/hal/lv_hal_indev.c ****     LV_ASSERT_NULL(indev->driver->read_timer);
 291              		.loc 1 109 5 discriminator 2 view .LVU109
 109:Drivers/lvgl/src/hal/lv_hal_indev.c ****     LV_ASSERT_NULL(indev->driver->read_timer);
 292              		.loc 1 109 5 discriminator 2 view .LVU110
 293 0034 FEE7     		b	.L26
 294              	.LVL17:
 295              	.L28:
 110:Drivers/lvgl/src/hal/lv_hal_indev.c ****     lv_timer_del(indev->driver->read_timer);
 296              		.loc 1 110 5 discriminator 3 view .LVU111
 110:Drivers/lvgl/src/hal/lv_hal_indev.c ****     lv_timer_del(indev->driver->read_timer);
 297              		.loc 1 110 5 discriminator 3 view .LVU112
 110:Drivers/lvgl/src/hal/lv_hal_indev.c ****     lv_timer_del(indev->driver->read_timer);
 298              		.loc 1 110 5 discriminator 3 view .LVU113
 110:Drivers/lvgl/src/hal/lv_hal_indev.c ****     lv_timer_del(indev->driver->read_timer);
 299              		.loc 1 110 5 discriminator 3 view .LVU114
 110:Drivers/lvgl/src/hal/lv_hal_indev.c ****     lv_timer_del(indev->driver->read_timer);
 300              		.loc 1 110 5 discriminator 3 view .LVU115
 110:Drivers/lvgl/src/hal/lv_hal_indev.c ****     lv_timer_del(indev->driver->read_timer);
 301              		.loc 1 110 5 discriminator 3 view .LVU116
 110:Drivers/lvgl/src/hal/lv_hal_indev.c ****     lv_timer_del(indev->driver->read_timer);
 302              		.loc 1 110 5 discriminator 3 view .LVU117
 110:Drivers/lvgl/src/hal/lv_hal_indev.c ****     lv_timer_del(indev->driver->read_timer);
 303              		.loc 1 110 5 discriminator 3 view .LVU118
 110:Drivers/lvgl/src/hal/lv_hal_indev.c ****     lv_timer_del(indev->driver->read_timer);
 304              		.loc 1 110 5 discriminator 3 view .LVU119
 110:Drivers/lvgl/src/hal/lv_hal_indev.c ****     lv_timer_del(indev->driver->read_timer);
 305              		.loc 1 110 5 discriminator 3 view .LVU120
 306 0036 FEE7     		b	.L28
 307              	.LVL18:
 308              	.L30:
 113:Drivers/lvgl/src/hal/lv_hal_indev.c ****     if(new_drv->disp == NULL) {
 309              		.loc 1 113 5 discriminator 4 view .LVU121
 113:Drivers/lvgl/src/hal/lv_hal_indev.c ****     if(new_drv->disp == NULL) {
 310              		.loc 1 113 5 discriminator 4 view .LVU122
 113:Drivers/lvgl/src/hal/lv_hal_indev.c ****     if(new_drv->disp == NULL) {
 311              		.loc 1 113 5 discriminator 4 view .LVU123
 113:Drivers/lvgl/src/hal/lv_hal_indev.c ****     if(new_drv->disp == NULL) {
 312              		.loc 1 113 5 discriminator 4 view .LVU124
 113:Drivers/lvgl/src/hal/lv_hal_indev.c ****     if(new_drv->disp == NULL) {
 313              		.loc 1 113 5 discriminator 4 view .LVU125
 113:Drivers/lvgl/src/hal/lv_hal_indev.c ****     if(new_drv->disp == NULL) {
 314              		.loc 1 113 5 discriminator 4 view .LVU126
 113:Drivers/lvgl/src/hal/lv_hal_indev.c ****     if(new_drv->disp == NULL) {
 315              		.loc 1 113 5 discriminator 4 view .LVU127
 113:Drivers/lvgl/src/hal/lv_hal_indev.c ****     if(new_drv->disp == NULL) {
 316              		.loc 1 113 5 discriminator 4 view .LVU128
 113:Drivers/lvgl/src/hal/lv_hal_indev.c ****     if(new_drv->disp == NULL) {
 317              		.loc 1 113 5 discriminator 4 view .LVU129
 113:Drivers/lvgl/src/hal/lv_hal_indev.c ****     if(new_drv->disp == NULL) {
 318              		.loc 1 113 5 discriminator 4 view .LVU130
 319 0038 FEE7     		b	.L30
 320              	.L35:
 115:Drivers/lvgl/src/hal/lv_hal_indev.c ****     }
 321              		.loc 1 115 9 view .LVU131
 115:Drivers/lvgl/src/hal/lv_hal_indev.c ****     }
ARM GAS  /var/folders/0z/tsy30v1j4xl4_7kw94k978ww0000gn/T//cc9pDhNG.s 			page 10


 322              		.loc 1 115 25 is_stmt 0 view .LVU132
 323 003a FFF7FEFF 		bl	lv_disp_get_default
 324              	.LVL19:
 115:Drivers/lvgl/src/hal/lv_hal_indev.c ****     }
 325              		.loc 1 115 23 view .LVU133
 326 003e 2861     		str	r0, [r5, #16]
 117:Drivers/lvgl/src/hal/lv_hal_indev.c ****         LV_LOG_WARN("lv_indev_drv_register: no display registered hence can't attach the indev to "
 327              		.loc 1 117 5 is_stmt 1 view .LVU134
 117:Drivers/lvgl/src/hal/lv_hal_indev.c ****         LV_LOG_WARN("lv_indev_drv_register: no display registered hence can't attach the indev to "
 328              		.loc 1 117 7 is_stmt 0 view .LVU135
 329 0040 0028     		cmp	r0, #0
 330 0042 EAD1     		bne	.L31
 118:Drivers/lvgl/src/hal/lv_hal_indev.c ****                     "a display");
 331              		.loc 1 118 9 is_stmt 1 view .LVU136
 118:Drivers/lvgl/src/hal/lv_hal_indev.c ****                     "a display");
 332              		.loc 1 118 9 view .LVU137
 118:Drivers/lvgl/src/hal/lv_hal_indev.c ****                     "a display");
 333              		.loc 1 118 9 view .LVU138
 120:Drivers/lvgl/src/hal/lv_hal_indev.c ****         return;
 334              		.loc 1 120 9 view .LVU139
 120:Drivers/lvgl/src/hal/lv_hal_indev.c ****         return;
 335              		.loc 1 120 30 is_stmt 0 view .LVU140
 336 0044 6379     		ldrb	r3, [r4, #5]	@ zero_extendqisi2
 337 0046 43F00403 		orr	r3, r3, #4
 338 004a 6371     		strb	r3, [r4, #5]
 121:Drivers/lvgl/src/hal/lv_hal_indev.c ****     }
 339              		.loc 1 121 9 is_stmt 1 view .LVU141
 340              		.loc 1 127 1 is_stmt 0 view .LVU142
 341 004c 38BD     		pop	{r3, r4, r5, pc}
 342              	.LVL20:
 343              	.L37:
 344              		.loc 1 127 1 view .LVU143
 345 004e 00BF     		.align	2
 346              	.L36:
 347 0050 00000000 		.word	lv_indev_read_timer_cb
 348              		.cfi_endproc
 349              	.LFE163:
 351              		.section	.text.lv_indev_delete,"ax",%progbits
 352              		.align	1
 353              		.p2align 2,,3
 354              		.global	lv_indev_delete
 355              		.syntax unified
 356              		.thumb
 357              		.thumb_func
 359              	lv_indev_delete:
 360              	.LVL21:
 361              	.LFB164:
 128:Drivers/lvgl/src/hal/lv_hal_indev.c **** 
 129:Drivers/lvgl/src/hal/lv_hal_indev.c **** /**
 130:Drivers/lvgl/src/hal/lv_hal_indev.c **** * Remove the provided input device. Make sure not to use the provided input device afterwards anymo
 131:Drivers/lvgl/src/hal/lv_hal_indev.c **** * @param indev pointer to delete
 132:Drivers/lvgl/src/hal/lv_hal_indev.c **** */
 133:Drivers/lvgl/src/hal/lv_hal_indev.c **** void lv_indev_delete(lv_indev_t * indev)
 134:Drivers/lvgl/src/hal/lv_hal_indev.c **** {
 362              		.loc 1 134 1 is_stmt 1 view -0
 363              		.cfi_startproc
 364              		@ args = 0, pretend = 0, frame = 0
ARM GAS  /var/folders/0z/tsy30v1j4xl4_7kw94k978ww0000gn/T//cc9pDhNG.s 			page 11


 365              		@ frame_needed = 0, uses_anonymous_args = 0
 135:Drivers/lvgl/src/hal/lv_hal_indev.c ****     LV_ASSERT_NULL(indev);
 366              		.loc 1 135 5 view .LVU145
 367              		.loc 1 135 5 view .LVU146
 368 0000 80B1     		cbz	r0, .L40
 369              		.loc 1 135 5 discriminator 2 view .LVU147
 370              		.loc 1 135 26 discriminator 2 view .LVU148
 136:Drivers/lvgl/src/hal/lv_hal_indev.c ****     LV_ASSERT_NULL(indev->driver);
 371              		.loc 1 136 5 discriminator 2 view .LVU149
 372              		.loc 1 136 5 discriminator 2 view .LVU150
 373 0002 0368     		ldr	r3, [r0]
 134:Drivers/lvgl/src/hal/lv_hal_indev.c ****     LV_ASSERT_NULL(indev);
 374              		.loc 1 134 1 is_stmt 0 discriminator 2 view .LVU151
 375 0004 10B5     		push	{r4, lr}
 376              		.cfi_def_cfa_offset 8
 377              		.cfi_offset 4, -8
 378              		.cfi_offset 14, -4
 379 0006 0446     		mov	r4, r0
 380              		.loc 1 136 5 discriminator 2 view .LVU152
 381 0008 6BB1     		cbz	r3, .L42
 382              		.loc 1 136 5 is_stmt 1 discriminator 2 view .LVU153
 383              		.loc 1 136 34 discriminator 2 view .LVU154
 137:Drivers/lvgl/src/hal/lv_hal_indev.c ****     LV_ASSERT_NULL(indev->driver->read_timer);
 384              		.loc 1 137 5 discriminator 2 view .LVU155
 385              		.loc 1 137 5 discriminator 2 view .LVU156
 386 000a 5869     		ldr	r0, [r3, #20]
 387              	.LVL22:
 388              		.loc 1 137 5 is_stmt 0 discriminator 2 view .LVU157
 389 000c 60B1     		cbz	r0, .L44
 390              		.loc 1 137 5 is_stmt 1 discriminator 2 view .LVU158
 391              		.loc 1 137 46 discriminator 2 view .LVU159
 138:Drivers/lvgl/src/hal/lv_hal_indev.c ****     /*Clean up the read timer first*/
 139:Drivers/lvgl/src/hal/lv_hal_indev.c ****     lv_timer_del(indev->driver->read_timer);
 392              		.loc 1 139 5 discriminator 2 view .LVU160
 393 000e FFF7FEFF 		bl	lv_timer_del
 394              	.LVL23:
 140:Drivers/lvgl/src/hal/lv_hal_indev.c ****     /*Remove the input device from the list*/
 141:Drivers/lvgl/src/hal/lv_hal_indev.c ****     _lv_ll_remove(&LV_GC_ROOT(_lv_indev_ll), indev);
 395              		.loc 1 141 5 discriminator 2 view .LVU161
 396 0012 0648     		ldr	r0, .L47
 397 0014 2146     		mov	r1, r4
 398 0016 FFF7FEFF 		bl	_lv_ll_remove
 399              	.LVL24:
 142:Drivers/lvgl/src/hal/lv_hal_indev.c ****     /*Free the memory of the input device*/
 143:Drivers/lvgl/src/hal/lv_hal_indev.c ****     lv_mem_free(indev);
 400              		.loc 1 143 5 discriminator 2 view .LVU162
 401 001a 2046     		mov	r0, r4
 144:Drivers/lvgl/src/hal/lv_hal_indev.c **** }
 402              		.loc 1 144 1 is_stmt 0 discriminator 2 view .LVU163
 403 001c BDE81040 		pop	{r4, lr}
 404              		.cfi_restore 14
 405              		.cfi_restore 4
 406              		.cfi_def_cfa_offset 0
 407              	.LVL25:
 143:Drivers/lvgl/src/hal/lv_hal_indev.c **** }
 408              		.loc 1 143 5 discriminator 2 view .LVU164
 409 0020 FFF7FEBF 		b	lv_mem_free
ARM GAS  /var/folders/0z/tsy30v1j4xl4_7kw94k978ww0000gn/T//cc9pDhNG.s 			page 12


 410              	.LVL26:
 411              	.L40:
 135:Drivers/lvgl/src/hal/lv_hal_indev.c ****     LV_ASSERT_NULL(indev->driver);
 412              		.loc 1 135 5 is_stmt 1 discriminator 1 view .LVU165
 135:Drivers/lvgl/src/hal/lv_hal_indev.c ****     LV_ASSERT_NULL(indev->driver);
 413              		.loc 1 135 5 discriminator 1 view .LVU166
 135:Drivers/lvgl/src/hal/lv_hal_indev.c ****     LV_ASSERT_NULL(indev->driver);
 414              		.loc 1 135 5 discriminator 1 view .LVU167
 135:Drivers/lvgl/src/hal/lv_hal_indev.c ****     LV_ASSERT_NULL(indev->driver);
 415              		.loc 1 135 5 discriminator 1 view .LVU168
 135:Drivers/lvgl/src/hal/lv_hal_indev.c ****     LV_ASSERT_NULL(indev->driver);
 416              		.loc 1 135 5 discriminator 1 view .LVU169
 135:Drivers/lvgl/src/hal/lv_hal_indev.c ****     LV_ASSERT_NULL(indev->driver);
 417              		.loc 1 135 5 discriminator 1 view .LVU170
 135:Drivers/lvgl/src/hal/lv_hal_indev.c ****     LV_ASSERT_NULL(indev->driver);
 418              		.loc 1 135 5 discriminator 1 view .LVU171
 135:Drivers/lvgl/src/hal/lv_hal_indev.c ****     LV_ASSERT_NULL(indev->driver);
 419              		.loc 1 135 5 discriminator 1 view .LVU172
 135:Drivers/lvgl/src/hal/lv_hal_indev.c ****     LV_ASSERT_NULL(indev->driver);
 420              		.loc 1 135 5 discriminator 1 view .LVU173
 135:Drivers/lvgl/src/hal/lv_hal_indev.c ****     LV_ASSERT_NULL(indev->driver);
 421              		.loc 1 135 5 discriminator 1 view .LVU174
 422 0024 FEE7     		b	.L40
 423              	.L42:
 424              		.cfi_def_cfa_offset 8
 425              		.cfi_offset 4, -8
 426              		.cfi_offset 14, -4
 136:Drivers/lvgl/src/hal/lv_hal_indev.c ****     LV_ASSERT_NULL(indev->driver->read_timer);
 427              		.loc 1 136 5 discriminator 2 view .LVU175
 136:Drivers/lvgl/src/hal/lv_hal_indev.c ****     LV_ASSERT_NULL(indev->driver->read_timer);
 428              		.loc 1 136 5 discriminator 2 view .LVU176
 136:Drivers/lvgl/src/hal/lv_hal_indev.c ****     LV_ASSERT_NULL(indev->driver->read_timer);
 429              		.loc 1 136 5 discriminator 2 view .LVU177
 136:Drivers/lvgl/src/hal/lv_hal_indev.c ****     LV_ASSERT_NULL(indev->driver->read_timer);
 430              		.loc 1 136 5 discriminator 2 view .LVU178
 136:Drivers/lvgl/src/hal/lv_hal_indev.c ****     LV_ASSERT_NULL(indev->driver->read_timer);
 431              		.loc 1 136 5 discriminator 2 view .LVU179
 136:Drivers/lvgl/src/hal/lv_hal_indev.c ****     LV_ASSERT_NULL(indev->driver->read_timer);
 432              		.loc 1 136 5 discriminator 2 view .LVU180
 136:Drivers/lvgl/src/hal/lv_hal_indev.c ****     LV_ASSERT_NULL(indev->driver->read_timer);
 433              		.loc 1 136 5 discriminator 2 view .LVU181
 136:Drivers/lvgl/src/hal/lv_hal_indev.c ****     LV_ASSERT_NULL(indev->driver->read_timer);
 434              		.loc 1 136 5 discriminator 2 view .LVU182
 136:Drivers/lvgl/src/hal/lv_hal_indev.c ****     LV_ASSERT_NULL(indev->driver->read_timer);
 435              		.loc 1 136 5 discriminator 2 view .LVU183
 136:Drivers/lvgl/src/hal/lv_hal_indev.c ****     LV_ASSERT_NULL(indev->driver->read_timer);
 436              		.loc 1 136 5 discriminator 2 view .LVU184
 437 0026 FEE7     		b	.L42
 438              	.LVL27:
 439              	.L44:
 137:Drivers/lvgl/src/hal/lv_hal_indev.c ****     /*Clean up the read timer first*/
 440              		.loc 1 137 5 discriminator 3 view .LVU185
 137:Drivers/lvgl/src/hal/lv_hal_indev.c ****     /*Clean up the read timer first*/
 441              		.loc 1 137 5 discriminator 3 view .LVU186
 137:Drivers/lvgl/src/hal/lv_hal_indev.c ****     /*Clean up the read timer first*/
 442              		.loc 1 137 5 discriminator 3 view .LVU187
 137:Drivers/lvgl/src/hal/lv_hal_indev.c ****     /*Clean up the read timer first*/
ARM GAS  /var/folders/0z/tsy30v1j4xl4_7kw94k978ww0000gn/T//cc9pDhNG.s 			page 13


 443              		.loc 1 137 5 discriminator 3 view .LVU188
 137:Drivers/lvgl/src/hal/lv_hal_indev.c ****     /*Clean up the read timer first*/
 444              		.loc 1 137 5 discriminator 3 view .LVU189
 137:Drivers/lvgl/src/hal/lv_hal_indev.c ****     /*Clean up the read timer first*/
 445              		.loc 1 137 5 discriminator 3 view .LVU190
 137:Drivers/lvgl/src/hal/lv_hal_indev.c ****     /*Clean up the read timer first*/
 446              		.loc 1 137 5 discriminator 3 view .LVU191
 137:Drivers/lvgl/src/hal/lv_hal_indev.c ****     /*Clean up the read timer first*/
 447              		.loc 1 137 5 discriminator 3 view .LVU192
 137:Drivers/lvgl/src/hal/lv_hal_indev.c ****     /*Clean up the read timer first*/
 448              		.loc 1 137 5 discriminator 3 view .LVU193
 137:Drivers/lvgl/src/hal/lv_hal_indev.c ****     /*Clean up the read timer first*/
 449              		.loc 1 137 5 discriminator 3 view .LVU194
 450 0028 FEE7     		b	.L44
 451              	.L48:
 452 002a 00BF     		.align	2
 453              	.L47:
 454 002c 00000000 		.word	_lv_indev_ll
 455              		.cfi_endproc
 456              	.LFE164:
 458              		.section	.text.lv_indev_get_next,"ax",%progbits
 459              		.align	1
 460              		.p2align 2,,3
 461              		.global	lv_indev_get_next
 462              		.syntax unified
 463              		.thumb
 464              		.thumb_func
 466              	lv_indev_get_next:
 467              	.LVL28:
 468              	.LFB165:
 145:Drivers/lvgl/src/hal/lv_hal_indev.c **** 
 146:Drivers/lvgl/src/hal/lv_hal_indev.c **** /**
 147:Drivers/lvgl/src/hal/lv_hal_indev.c ****  * Get the next input device.
 148:Drivers/lvgl/src/hal/lv_hal_indev.c ****  * @param indev pointer to the current input device. NULL to initialize.
 149:Drivers/lvgl/src/hal/lv_hal_indev.c ****  * @return the next input devise or NULL if no more. Give the first input device when the parameter
 150:Drivers/lvgl/src/hal/lv_hal_indev.c ****  * is NULL
 151:Drivers/lvgl/src/hal/lv_hal_indev.c ****  */
 152:Drivers/lvgl/src/hal/lv_hal_indev.c **** lv_indev_t * lv_indev_get_next(lv_indev_t * indev)
 153:Drivers/lvgl/src/hal/lv_hal_indev.c **** {
 469              		.loc 1 153 1 view -0
 470              		.cfi_startproc
 471              		@ args = 0, pretend = 0, frame = 0
 472              		@ frame_needed = 0, uses_anonymous_args = 0
 473              		@ link register save eliminated.
 154:Drivers/lvgl/src/hal/lv_hal_indev.c ****     if(indev == NULL)
 474              		.loc 1 154 5 view .LVU196
 475              		.loc 1 154 7 is_stmt 0 view .LVU197
 476 0000 0146     		mov	r1, r0
 155:Drivers/lvgl/src/hal/lv_hal_indev.c ****         return _lv_ll_get_head(&LV_GC_ROOT(_lv_indev_ll));
 477              		.loc 1 155 16 view .LVU198
 478 0002 0348     		ldr	r0, .L52
 479              	.LVL29:
 154:Drivers/lvgl/src/hal/lv_hal_indev.c ****     if(indev == NULL)
 480              		.loc 1 154 7 view .LVU199
 481 0004 09B1     		cbz	r1, .L51
 156:Drivers/lvgl/src/hal/lv_hal_indev.c ****     else
 157:Drivers/lvgl/src/hal/lv_hal_indev.c ****         return _lv_ll_get_next(&LV_GC_ROOT(_lv_indev_ll), indev);
ARM GAS  /var/folders/0z/tsy30v1j4xl4_7kw94k978ww0000gn/T//cc9pDhNG.s 			page 14


 482              		.loc 1 157 9 is_stmt 1 view .LVU200
 483              		.loc 1 157 16 is_stmt 0 view .LVU201
 484 0006 FFF7FEBF 		b	_lv_ll_get_next
 485              	.LVL30:
 486              	.L51:
 155:Drivers/lvgl/src/hal/lv_hal_indev.c ****         return _lv_ll_get_head(&LV_GC_ROOT(_lv_indev_ll));
 487              		.loc 1 155 9 is_stmt 1 view .LVU202
 155:Drivers/lvgl/src/hal/lv_hal_indev.c ****         return _lv_ll_get_head(&LV_GC_ROOT(_lv_indev_ll));
 488              		.loc 1 155 16 is_stmt 0 view .LVU203
 489 000a FFF7FEBF 		b	_lv_ll_get_head
 490              	.LVL31:
 491              	.L53:
 155:Drivers/lvgl/src/hal/lv_hal_indev.c ****         return _lv_ll_get_head(&LV_GC_ROOT(_lv_indev_ll));
 492              		.loc 1 155 16 view .LVU204
 493 000e 00BF     		.align	2
 494              	.L52:
 495 0010 00000000 		.word	_lv_indev_ll
 496              		.cfi_endproc
 497              	.LFE165:
 499              		.section	.text._lv_indev_read,"ax",%progbits
 500              		.align	1
 501              		.p2align 2,,3
 502              		.global	_lv_indev_read
 503              		.syntax unified
 504              		.thumb
 505              		.thumb_func
 507              	_lv_indev_read:
 508              	.LVL32:
 509              	.LFB166:
 158:Drivers/lvgl/src/hal/lv_hal_indev.c **** }
 159:Drivers/lvgl/src/hal/lv_hal_indev.c **** 
 160:Drivers/lvgl/src/hal/lv_hal_indev.c **** /**
 161:Drivers/lvgl/src/hal/lv_hal_indev.c ****  * Read data from an input device.
 162:Drivers/lvgl/src/hal/lv_hal_indev.c ****  * @param indev pointer to an input device
 163:Drivers/lvgl/src/hal/lv_hal_indev.c ****  * @param data input device will write its data here
 164:Drivers/lvgl/src/hal/lv_hal_indev.c ****  */
 165:Drivers/lvgl/src/hal/lv_hal_indev.c **** void _lv_indev_read(lv_indev_t * indev, lv_indev_data_t * data)
 166:Drivers/lvgl/src/hal/lv_hal_indev.c **** {
 510              		.loc 1 166 1 is_stmt 1 view -0
 511              		.cfi_startproc
 512              		@ args = 0, pretend = 0, frame = 0
 513              		@ frame_needed = 0, uses_anonymous_args = 0
 167:Drivers/lvgl/src/hal/lv_hal_indev.c ****     lv_memset_00(data, sizeof(lv_indev_data_t));
 514              		.loc 1 167 5 view .LVU206
 166:Drivers/lvgl/src/hal/lv_hal_indev.c ****     lv_memset_00(data, sizeof(lv_indev_data_t));
 515              		.loc 1 166 1 is_stmt 0 view .LVU207
 516 0000 70B5     		push	{r4, r5, r6, lr}
 517              		.cfi_def_cfa_offset 16
 518              		.cfi_offset 4, -16
 519              		.cfi_offset 5, -12
 520              		.cfi_offset 6, -8
 521              		.cfi_offset 14, -4
 166:Drivers/lvgl/src/hal/lv_hal_indev.c ****     lv_memset_00(data, sizeof(lv_indev_data_t));
 522              		.loc 1 166 1 view .LVU208
 523 0002 0546     		mov	r5, r0
 524 0004 0C46     		mov	r4, r1
 525              		.loc 1 167 5 view .LVU209
ARM GAS  /var/folders/0z/tsy30v1j4xl4_7kw94k978ww0000gn/T//cc9pDhNG.s 			page 15


 526 0006 2046     		mov	r0, r4
 527              	.LVL33:
 528              		.loc 1 167 5 view .LVU210
 529 0008 1021     		movs	r1, #16
 530              	.LVL34:
 531              		.loc 1 167 5 view .LVU211
 532 000a FFF7FEFF 		bl	lv_memset_00
 533              	.LVL35:
 168:Drivers/lvgl/src/hal/lv_hal_indev.c **** 
 169:Drivers/lvgl/src/hal/lv_hal_indev.c ****     /* For touchpad sometimes users don't set the last pressed coordinate on release.
 170:Drivers/lvgl/src/hal/lv_hal_indev.c ****      * So be sure a coordinates are initialized to the last point */
 171:Drivers/lvgl/src/hal/lv_hal_indev.c ****     if(indev->driver->type == LV_INDEV_TYPE_POINTER) {
 534              		.loc 1 171 5 is_stmt 1 view .LVU212
 535              		.loc 1 171 13 is_stmt 0 view .LVU213
 536 000e 2868     		ldr	r0, [r5]
 537              		.loc 1 171 21 view .LVU214
 538 0010 0378     		ldrb	r3, [r0]	@ zero_extendqisi2
 539              		.loc 1 171 7 view .LVU215
 540 0012 012B     		cmp	r3, #1
 541 0014 11D0     		beq	.L60
 172:Drivers/lvgl/src/hal/lv_hal_indev.c ****         data->point.x = indev->proc.types.pointer.last_raw_point.x;
 173:Drivers/lvgl/src/hal/lv_hal_indev.c ****         data->point.y = indev->proc.types.pointer.last_raw_point.y;
 174:Drivers/lvgl/src/hal/lv_hal_indev.c ****     }
 175:Drivers/lvgl/src/hal/lv_hal_indev.c ****     /*Similarly set at least the last key in case of the user doesn't set it on release*/
 176:Drivers/lvgl/src/hal/lv_hal_indev.c ****     else if(indev->driver->type == LV_INDEV_TYPE_KEYPAD) {
 542              		.loc 1 176 10 is_stmt 1 view .LVU216
 543              		.loc 1 176 12 is_stmt 0 view .LVU217
 544 0016 022B     		cmp	r3, #2
 545 0018 09D0     		beq	.L61
 177:Drivers/lvgl/src/hal/lv_hal_indev.c ****         data->key = indev->proc.types.keypad.last_key;
 178:Drivers/lvgl/src/hal/lv_hal_indev.c ****     }
 179:Drivers/lvgl/src/hal/lv_hal_indev.c ****     /*For compatibility assume that used button was enter (encoder push)*/
 180:Drivers/lvgl/src/hal/lv_hal_indev.c ****     else if(indev->driver->type == LV_INDEV_TYPE_ENCODER) {
 546              		.loc 1 180 10 is_stmt 1 view .LVU218
 547              		.loc 1 180 12 is_stmt 0 view .LVU219
 548 001a 042B     		cmp	r3, #4
 181:Drivers/lvgl/src/hal/lv_hal_indev.c ****         data->key = LV_KEY_ENTER;
 549              		.loc 1 181 9 is_stmt 1 view .LVU220
 550              		.loc 1 181 19 is_stmt 0 view .LVU221
 551 001c 04BF     		itt	eq
 552 001e 0A23     		moveq	r3, #10
 553 0020 6360     		streq	r3, [r4, #4]
 554              	.L56:
 182:Drivers/lvgl/src/hal/lv_hal_indev.c ****     }
 183:Drivers/lvgl/src/hal/lv_hal_indev.c **** 
 184:Drivers/lvgl/src/hal/lv_hal_indev.c ****     if(indev->driver->read_cb) {
 555              		.loc 1 184 5 is_stmt 1 view .LVU222
 556              		.loc 1 184 21 is_stmt 0 view .LVU223
 557 0022 4368     		ldr	r3, [r0, #4]
 558              		.loc 1 184 7 view .LVU224
 559 0024 43B1     		cbz	r3, .L54
 560              	.L62:
 185:Drivers/lvgl/src/hal/lv_hal_indev.c ****         INDEV_TRACE("calling indev_read_cb");
 561              		.loc 1 185 45 is_stmt 1 view .LVU225
 186:Drivers/lvgl/src/hal/lv_hal_indev.c ****         indev->driver->read_cb(indev->driver, data);
 562              		.loc 1 186 9 view .LVU226
 563 0026 2146     		mov	r1, r4
ARM GAS  /var/folders/0z/tsy30v1j4xl4_7kw94k978ww0000gn/T//cc9pDhNG.s 			page 16


 187:Drivers/lvgl/src/hal/lv_hal_indev.c ****     }
 188:Drivers/lvgl/src/hal/lv_hal_indev.c ****     else {
 189:Drivers/lvgl/src/hal/lv_hal_indev.c ****         LV_LOG_WARN("indev_read_cb is not registered");
 190:Drivers/lvgl/src/hal/lv_hal_indev.c ****     }
 191:Drivers/lvgl/src/hal/lv_hal_indev.c **** }
 564              		.loc 1 191 1 is_stmt 0 view .LVU227
 565 0028 BDE87040 		pop	{r4, r5, r6, lr}
 566              		.cfi_remember_state
 567              		.cfi_restore 14
 568              		.cfi_restore 6
 569              		.cfi_restore 5
 570              		.cfi_restore 4
 571              		.cfi_def_cfa_offset 0
 572              	.LVL36:
 186:Drivers/lvgl/src/hal/lv_hal_indev.c ****         indev->driver->read_cb(indev->driver, data);
 573              		.loc 1 186 9 view .LVU228
 574 002c 1847     		bx	r3	@ indirect register sibling call
 575              	.LVL37:
 576              	.L61:
 577              		.cfi_restore_state
 177:Drivers/lvgl/src/hal/lv_hal_indev.c ****     }
 578              		.loc 1 177 9 is_stmt 1 view .LVU229
 177:Drivers/lvgl/src/hal/lv_hal_indev.c ****     }
 579              		.loc 1 177 19 is_stmt 0 view .LVU230
 580 002e EB68     		ldr	r3, [r5, #12]
 581 0030 6360     		str	r3, [r4, #4]
 184:Drivers/lvgl/src/hal/lv_hal_indev.c ****         INDEV_TRACE("calling indev_read_cb");
 582              		.loc 1 184 5 is_stmt 1 view .LVU231
 184:Drivers/lvgl/src/hal/lv_hal_indev.c ****         INDEV_TRACE("calling indev_read_cb");
 583              		.loc 1 184 21 is_stmt 0 view .LVU232
 584 0032 4368     		ldr	r3, [r0, #4]
 184:Drivers/lvgl/src/hal/lv_hal_indev.c ****         INDEV_TRACE("calling indev_read_cb");
 585              		.loc 1 184 7 view .LVU233
 586 0034 002B     		cmp	r3, #0
 587 0036 F6D1     		bne	.L62
 588              	.L54:
 589              		.loc 1 191 1 view .LVU234
 590 0038 70BD     		pop	{r4, r5, r6, pc}
 591              	.LVL38:
 592              	.L60:
 172:Drivers/lvgl/src/hal/lv_hal_indev.c ****         data->point.y = indev->proc.types.pointer.last_raw_point.y;
 593              		.loc 1 172 9 is_stmt 1 view .LVU235
 172:Drivers/lvgl/src/hal/lv_hal_indev.c ****         data->point.y = indev->proc.types.pointer.last_raw_point.y;
 594              		.loc 1 172 65 is_stmt 0 view .LVU236
 595 003a 6B69     		ldr	r3, [r5, #20]
 173:Drivers/lvgl/src/hal/lv_hal_indev.c ****     }
 596              		.loc 1 173 9 is_stmt 1 view .LVU237
 172:Drivers/lvgl/src/hal/lv_hal_indev.c ****         data->point.y = indev->proc.types.pointer.last_raw_point.y;
 597              		.loc 1 172 23 is_stmt 0 view .LVU238
 598 003c 2360     		str	r3, [r4]
 599 003e F0E7     		b	.L56
 600              		.cfi_endproc
 601              	.LFE166:
 603              		.text
 604              	.Letext0:
 605              		.file 2 "/Users/johannes/Library/Application Support/Code/User/globalStorage/bmd.stm32-for-vscode/
 606              		.file 3 "/Users/johannes/Library/Application Support/Code/User/globalStorage/bmd.stm32-for-vscode/
ARM GAS  /var/folders/0z/tsy30v1j4xl4_7kw94k978ww0000gn/T//cc9pDhNG.s 			page 17


 607              		.file 4 "Drivers/lvgl/src/hal/../misc/lv_types.h"
 608              		.file 5 "/Users/johannes/Library/Application Support/Code/User/globalStorage/bmd.stm32-for-vscode/
 609              		.file 6 "Drivers/lvgl/src/hal/../hal/../misc/lv_area.h"
 610              		.file 7 "Drivers/lvgl/src/hal/../hal/../misc/lv_timer.h"
 611              		.file 8 "Drivers/lvgl/src/hal/../hal/lv_hal_indev.h"
 612              		.file 9 "Drivers/lvgl/src/hal/../core/../hal/lv_hal_disp.h"
 613              		.file 10 "Drivers/lvgl/src/hal/../core/lv_obj.h"
 614              		.file 11 "Drivers/lvgl/src/hal/../core/lv_group.h"
 615              		.file 12 "Drivers/lvgl/src/hal/../core/../misc/../font/lv_font.h"
 616              		.file 13 "Drivers/lvgl/src/hal/../core/../misc/lv_color.h"
 617              		.file 14 "Drivers/lvgl/src/hal/../core/../misc/lv_txt.h"
 618              		.file 15 "Drivers/lvgl/src/hal/../core/../misc/lv_bidi.h"
 619              		.file 16 "Drivers/lvgl/src/hal/../core/../misc/lv_style.h"
 620              		.file 17 "Drivers/lvgl/src/hal/../core/../hal/../draw/lv_img_buf.h"
 621              		.file 18 "Drivers/lvgl/src/hal/../core/../hal/../draw/lv_draw_rect.h"
 622              		.file 19 "Drivers/lvgl/src/hal/../core/../hal/../draw/lv_draw_label.h"
 623              		.file 20 "Drivers/lvgl/src/hal/../core/../hal/../draw/lv_draw_img.h"
 624              		.file 21 "Drivers/lvgl/src/hal/../core/../hal/../draw/lv_draw_line.h"
 625              		.file 22 "Drivers/lvgl/src/hal/../core/../hal/../draw/lv_draw_arc.h"
 626              		.file 23 "Drivers/lvgl/src/hal/../core/../hal/../draw/lv_draw_layer.h"
 627              		.file 24 "Drivers/lvgl/src/hal/../core/../hal/../draw/lv_draw.h"
 628              		.file 25 "Drivers/lvgl/src/hal/../core/../hal/../misc/lv_ll.h"
 629              		.file 26 "Drivers/lvgl/src/hal/../core/lv_obj_scroll.h"
 630              		.file 27 "Drivers/lvgl/src/hal/../core/lv_obj_style.h"
 631              		.file 28 "Drivers/lvgl/src/hal/../core/lv_obj_class.h"
 632              		.file 29 "Drivers/lvgl/src/hal/../core/lv_event.h"
 633              		.file 30 "Drivers/lvgl/src/hal/../misc/lv_mem.h"
 634              		.file 31 "Drivers/lvgl/src/hal/../core/lv_indev.h"
 635              		.file 32 "Drivers/lvgl/src/hal/../misc/lv_gc.h"
ARM GAS  /var/folders/0z/tsy30v1j4xl4_7kw94k978ww0000gn/T//cc9pDhNG.s 			page 18

