ARM GAS  /var/folders/0z/tsy30v1j4xl4_7kw94k978ww0000gn/T//ccoSkRwg.s 			page 1


   1              		.cpu cortex-m4
   2              		.arch armv7e-m
   3              		.fpu fpv4-sp-d16
   4              		.eabi_attribute 27, 1
   5              		.eabi_attribute 28, 1
   6              		.eabi_attribute 20, 1
   7              		.eabi_attribute 21, 1
   8              		.eabi_attribute 23, 3
   9              		.eabi_attribute 24, 1
  10              		.eabi_attribute 25, 1
  11              		.eabi_attribute 26, 1
  12              		.eabi_attribute 30, 2
  13              		.eabi_attribute 34, 1
  14              		.eabi_attribute 18, 4
  15              		.file	"lv_hal_tick.c"
  16              		.text
  17              	.Ltext0:
  18              		.cfi_sections	.debug_frame
  19              		.section	.text.lv_tick_inc,"ax",%progbits
  20              		.align	1
  21              		.p2align 2,,3
  22              		.global	lv_tick_inc
  23              		.syntax unified
  24              		.thumb
  25              		.thumb_func
  27              	lv_tick_inc:
  28              	.LVL0:
  29              	.LFB0:
  30              		.file 1 "Drivers/lvgl/src/hal/lv_hal_tick.c"
   1:Drivers/lvgl/src/hal/lv_hal_tick.c **** /**
   2:Drivers/lvgl/src/hal/lv_hal_tick.c ****  * @file lv_hal_tick.c
   3:Drivers/lvgl/src/hal/lv_hal_tick.c ****  * Provide access to the system tick with 1 millisecond resolution
   4:Drivers/lvgl/src/hal/lv_hal_tick.c ****  */
   5:Drivers/lvgl/src/hal/lv_hal_tick.c **** 
   6:Drivers/lvgl/src/hal/lv_hal_tick.c **** /*********************
   7:Drivers/lvgl/src/hal/lv_hal_tick.c ****  *      INCLUDES
   8:Drivers/lvgl/src/hal/lv_hal_tick.c ****  *********************/
   9:Drivers/lvgl/src/hal/lv_hal_tick.c **** #include "lv_hal_tick.h"
  10:Drivers/lvgl/src/hal/lv_hal_tick.c **** #include <stddef.h>
  11:Drivers/lvgl/src/hal/lv_hal_tick.c **** 
  12:Drivers/lvgl/src/hal/lv_hal_tick.c **** #if LV_TICK_CUSTOM == 1
  13:Drivers/lvgl/src/hal/lv_hal_tick.c ****     #include LV_TICK_CUSTOM_INCLUDE
  14:Drivers/lvgl/src/hal/lv_hal_tick.c **** #endif
  15:Drivers/lvgl/src/hal/lv_hal_tick.c **** 
  16:Drivers/lvgl/src/hal/lv_hal_tick.c **** /*********************
  17:Drivers/lvgl/src/hal/lv_hal_tick.c ****  *      DEFINES
  18:Drivers/lvgl/src/hal/lv_hal_tick.c ****  *********************/
  19:Drivers/lvgl/src/hal/lv_hal_tick.c **** 
  20:Drivers/lvgl/src/hal/lv_hal_tick.c **** /**********************
  21:Drivers/lvgl/src/hal/lv_hal_tick.c ****  *      TYPEDEFS
  22:Drivers/lvgl/src/hal/lv_hal_tick.c ****  **********************/
  23:Drivers/lvgl/src/hal/lv_hal_tick.c **** 
  24:Drivers/lvgl/src/hal/lv_hal_tick.c **** /**********************
  25:Drivers/lvgl/src/hal/lv_hal_tick.c ****  *  STATIC PROTOTYPES
  26:Drivers/lvgl/src/hal/lv_hal_tick.c ****  **********************/
  27:Drivers/lvgl/src/hal/lv_hal_tick.c **** 
  28:Drivers/lvgl/src/hal/lv_hal_tick.c **** /**********************
ARM GAS  /var/folders/0z/tsy30v1j4xl4_7kw94k978ww0000gn/T//ccoSkRwg.s 			page 2


  29:Drivers/lvgl/src/hal/lv_hal_tick.c ****  *  STATIC VARIABLES
  30:Drivers/lvgl/src/hal/lv_hal_tick.c ****  **********************/
  31:Drivers/lvgl/src/hal/lv_hal_tick.c **** #if !LV_TICK_CUSTOM
  32:Drivers/lvgl/src/hal/lv_hal_tick.c ****     static uint32_t sys_time = 0;
  33:Drivers/lvgl/src/hal/lv_hal_tick.c ****     static volatile uint8_t tick_irq_flag;
  34:Drivers/lvgl/src/hal/lv_hal_tick.c **** #endif
  35:Drivers/lvgl/src/hal/lv_hal_tick.c **** 
  36:Drivers/lvgl/src/hal/lv_hal_tick.c **** /**********************
  37:Drivers/lvgl/src/hal/lv_hal_tick.c ****  *      MACROS
  38:Drivers/lvgl/src/hal/lv_hal_tick.c ****  **********************/
  39:Drivers/lvgl/src/hal/lv_hal_tick.c **** 
  40:Drivers/lvgl/src/hal/lv_hal_tick.c **** /**********************
  41:Drivers/lvgl/src/hal/lv_hal_tick.c ****  *   GLOBAL FUNCTIONS
  42:Drivers/lvgl/src/hal/lv_hal_tick.c ****  **********************/
  43:Drivers/lvgl/src/hal/lv_hal_tick.c **** 
  44:Drivers/lvgl/src/hal/lv_hal_tick.c **** #if !LV_TICK_CUSTOM
  45:Drivers/lvgl/src/hal/lv_hal_tick.c **** /**
  46:Drivers/lvgl/src/hal/lv_hal_tick.c ****  * You have to call this function periodically
  47:Drivers/lvgl/src/hal/lv_hal_tick.c ****  * @param tick_period the call period of this function in milliseconds
  48:Drivers/lvgl/src/hal/lv_hal_tick.c ****  */
  49:Drivers/lvgl/src/hal/lv_hal_tick.c **** void LV_ATTRIBUTE_TICK_INC lv_tick_inc(uint32_t tick_period)
  50:Drivers/lvgl/src/hal/lv_hal_tick.c **** {
  31              		.loc 1 50 1 view -0
  32              		.cfi_startproc
  33              		@ args = 0, pretend = 0, frame = 0
  34              		@ frame_needed = 0, uses_anonymous_args = 0
  35              		@ link register save eliminated.
  51:Drivers/lvgl/src/hal/lv_hal_tick.c ****     tick_irq_flag = 0;
  36              		.loc 1 51 5 view .LVU1
  52:Drivers/lvgl/src/hal/lv_hal_tick.c ****     sys_time += tick_period;
  37              		.loc 1 52 14 is_stmt 0 view .LVU2
  38 0000 044A     		ldr	r2, .L3
  51:Drivers/lvgl/src/hal/lv_hal_tick.c ****     tick_irq_flag = 0;
  39              		.loc 1 51 19 view .LVU3
  40 0002 0549     		ldr	r1, .L3+4
  41              		.loc 1 52 14 view .LVU4
  42 0004 1368     		ldr	r3, [r2]
  51:Drivers/lvgl/src/hal/lv_hal_tick.c ****     tick_irq_flag = 0;
  43              		.loc 1 51 19 view .LVU5
  44 0006 4FF0000C 		mov	ip, #0
  45              		.loc 1 52 14 view .LVU6
  46 000a 1844     		add	r0, r0, r3
  47              	.LVL1:
  51:Drivers/lvgl/src/hal/lv_hal_tick.c ****     tick_irq_flag = 0;
  48              		.loc 1 51 19 view .LVU7
  49 000c 81F800C0 		strb	ip, [r1]
  50              		.loc 1 52 5 is_stmt 1 view .LVU8
  51              		.loc 1 52 14 is_stmt 0 view .LVU9
  52 0010 1060     		str	r0, [r2]
  53:Drivers/lvgl/src/hal/lv_hal_tick.c **** }
  53              		.loc 1 53 1 view .LVU10
  54 0012 7047     		bx	lr
  55              	.L4:
  56              		.align	2
  57              	.L3:
  58 0014 00000000 		.word	.LANCHOR1
  59 0018 00000000 		.word	.LANCHOR0
ARM GAS  /var/folders/0z/tsy30v1j4xl4_7kw94k978ww0000gn/T//ccoSkRwg.s 			page 3


  60              		.cfi_endproc
  61              	.LFE0:
  63              		.section	.text.lv_tick_get,"ax",%progbits
  64              		.align	1
  65              		.p2align 2,,3
  66              		.global	lv_tick_get
  67              		.syntax unified
  68              		.thumb
  69              		.thumb_func
  71              	lv_tick_get:
  72              	.LFB1:
  54:Drivers/lvgl/src/hal/lv_hal_tick.c **** #endif
  55:Drivers/lvgl/src/hal/lv_hal_tick.c **** 
  56:Drivers/lvgl/src/hal/lv_hal_tick.c **** /**
  57:Drivers/lvgl/src/hal/lv_hal_tick.c ****  * Get the elapsed milliseconds since start up
  58:Drivers/lvgl/src/hal/lv_hal_tick.c ****  * @return the elapsed milliseconds
  59:Drivers/lvgl/src/hal/lv_hal_tick.c ****  */
  60:Drivers/lvgl/src/hal/lv_hal_tick.c **** uint32_t lv_tick_get(void)
  61:Drivers/lvgl/src/hal/lv_hal_tick.c **** {
  73              		.loc 1 61 1 is_stmt 1 view -0
  74              		.cfi_startproc
  75              		@ args = 0, pretend = 0, frame = 0
  76              		@ frame_needed = 0, uses_anonymous_args = 0
  77              		@ link register save eliminated.
  62:Drivers/lvgl/src/hal/lv_hal_tick.c **** #if LV_TICK_CUSTOM == 0
  63:Drivers/lvgl/src/hal/lv_hal_tick.c **** 
  64:Drivers/lvgl/src/hal/lv_hal_tick.c ****     /*If `lv_tick_inc` is called from an interrupt while `sys_time` is read
  65:Drivers/lvgl/src/hal/lv_hal_tick.c ****      *the result might be corrupted.
  66:Drivers/lvgl/src/hal/lv_hal_tick.c ****      *This loop detects if `lv_tick_inc` was called while reading `sys_time`.
  67:Drivers/lvgl/src/hal/lv_hal_tick.c ****      *If `tick_irq_flag` was cleared in `lv_tick_inc` try to read again
  68:Drivers/lvgl/src/hal/lv_hal_tick.c ****      *until `tick_irq_flag` remains `1`.*/
  69:Drivers/lvgl/src/hal/lv_hal_tick.c ****     uint32_t result;
  70:Drivers/lvgl/src/hal/lv_hal_tick.c ****     do {
  71:Drivers/lvgl/src/hal/lv_hal_tick.c ****         tick_irq_flag = 1;
  72:Drivers/lvgl/src/hal/lv_hal_tick.c ****         result        = sys_time;
  78              		.loc 1 72 23 is_stmt 0 view .LVU12
  79 0000 044A     		ldr	r2, .L9
  80 0002 054B     		ldr	r3, .L9+4
  81 0004 1068     		ldr	r0, [r2]
  71:Drivers/lvgl/src/hal/lv_hal_tick.c ****         result        = sys_time;
  82              		.loc 1 71 23 view .LVU13
  83 0006 0121     		movs	r1, #1
  84              	.L6:
  69:Drivers/lvgl/src/hal/lv_hal_tick.c ****     do {
  85              		.loc 1 69 5 is_stmt 1 discriminator 1 view .LVU14
  70:Drivers/lvgl/src/hal/lv_hal_tick.c ****         tick_irq_flag = 1;
  86              		.loc 1 70 5 discriminator 1 view .LVU15
  71:Drivers/lvgl/src/hal/lv_hal_tick.c ****         result        = sys_time;
  87              		.loc 1 71 9 discriminator 1 view .LVU16
  71:Drivers/lvgl/src/hal/lv_hal_tick.c ****         result        = sys_time;
  88              		.loc 1 71 23 is_stmt 0 discriminator 1 view .LVU17
  89 0008 1970     		strb	r1, [r3]
  90              		.loc 1 72 9 is_stmt 1 discriminator 1 view .LVU18
  91              	.LVL2:
  73:Drivers/lvgl/src/hal/lv_hal_tick.c ****     } while(!tick_irq_flag); /*Continue until see a non interrupted cycle*/
  92              		.loc 1 73 13 discriminator 1 view .LVU19
  93 000a 1A78     		ldrb	r2, [r3]	@ zero_extendqisi2
ARM GAS  /var/folders/0z/tsy30v1j4xl4_7kw94k978ww0000gn/T//ccoSkRwg.s 			page 4


  94 000c 002A     		cmp	r2, #0
  95 000e FBD0     		beq	.L6
  74:Drivers/lvgl/src/hal/lv_hal_tick.c **** 
  75:Drivers/lvgl/src/hal/lv_hal_tick.c ****     return result;
  96              		.loc 1 75 5 view .LVU20
  76:Drivers/lvgl/src/hal/lv_hal_tick.c **** #else
  77:Drivers/lvgl/src/hal/lv_hal_tick.c ****     return LV_TICK_CUSTOM_SYS_TIME_EXPR;
  78:Drivers/lvgl/src/hal/lv_hal_tick.c **** #endif
  79:Drivers/lvgl/src/hal/lv_hal_tick.c **** }
  97              		.loc 1 79 1 is_stmt 0 view .LVU21
  98 0010 7047     		bx	lr
  99              	.L10:
 100 0012 00BF     		.align	2
 101              	.L9:
 102 0014 00000000 		.word	.LANCHOR1
 103 0018 00000000 		.word	.LANCHOR0
 104              		.cfi_endproc
 105              	.LFE1:
 107              		.section	.text.lv_tick_elaps,"ax",%progbits
 108              		.align	1
 109              		.p2align 2,,3
 110              		.global	lv_tick_elaps
 111              		.syntax unified
 112              		.thumb
 113              		.thumb_func
 115              	lv_tick_elaps:
 116              	.LVL3:
 117              	.LFB2:
  80:Drivers/lvgl/src/hal/lv_hal_tick.c **** 
  81:Drivers/lvgl/src/hal/lv_hal_tick.c **** /**
  82:Drivers/lvgl/src/hal/lv_hal_tick.c ****  * Get the elapsed milliseconds since a previous time stamp
  83:Drivers/lvgl/src/hal/lv_hal_tick.c ****  * @param prev_tick a previous time stamp (return value of lv_tick_get() )
  84:Drivers/lvgl/src/hal/lv_hal_tick.c ****  * @return the elapsed milliseconds since 'prev_tick'
  85:Drivers/lvgl/src/hal/lv_hal_tick.c ****  */
  86:Drivers/lvgl/src/hal/lv_hal_tick.c **** uint32_t lv_tick_elaps(uint32_t prev_tick)
  87:Drivers/lvgl/src/hal/lv_hal_tick.c **** {
 118              		.loc 1 87 1 is_stmt 1 view -0
 119              		.cfi_startproc
 120              		@ args = 0, pretend = 0, frame = 0
 121              		@ frame_needed = 0, uses_anonymous_args = 0
 122              		@ link register save eliminated.
  88:Drivers/lvgl/src/hal/lv_hal_tick.c ****     uint32_t act_time = lv_tick_get();
 123              		.loc 1 88 5 view .LVU23
 124              	.LBB4:
 125              	.LBI4:
  60:Drivers/lvgl/src/hal/lv_hal_tick.c **** {
 126              		.loc 1 60 10 view .LVU24
 127              	.LBB5:
  72:Drivers/lvgl/src/hal/lv_hal_tick.c ****     } while(!tick_irq_flag); /*Continue until see a non interrupted cycle*/
 128              		.loc 1 72 23 is_stmt 0 view .LVU25
 129 0000 064B     		ldr	r3, .L18
 130              	.LBE5:
 131              	.LBE4:
  87:Drivers/lvgl/src/hal/lv_hal_tick.c ****     uint32_t act_time = lv_tick_get();
 132              		.loc 1 87 1 view .LVU26
 133 0002 10B4     		push	{r4}
 134              		.cfi_def_cfa_offset 4
ARM GAS  /var/folders/0z/tsy30v1j4xl4_7kw94k978ww0000gn/T//ccoSkRwg.s 			page 5


 135              		.cfi_offset 4, -4
 136              	.LBB7:
 137              	.LBB6:
  72:Drivers/lvgl/src/hal/lv_hal_tick.c ****     } while(!tick_irq_flag); /*Continue until see a non interrupted cycle*/
 138              		.loc 1 72 23 view .LVU27
 139 0004 1C68     		ldr	r4, [r3]
 140 0006 064B     		ldr	r3, .L18+4
  71:Drivers/lvgl/src/hal/lv_hal_tick.c ****         result        = sys_time;
 141              		.loc 1 71 23 view .LVU28
 142 0008 0121     		movs	r1, #1
 143              	.L12:
  69:Drivers/lvgl/src/hal/lv_hal_tick.c ****     do {
 144              		.loc 1 69 5 is_stmt 1 view .LVU29
  70:Drivers/lvgl/src/hal/lv_hal_tick.c ****         tick_irq_flag = 1;
 145              		.loc 1 70 5 view .LVU30
  71:Drivers/lvgl/src/hal/lv_hal_tick.c ****         result        = sys_time;
 146              		.loc 1 71 9 view .LVU31
  71:Drivers/lvgl/src/hal/lv_hal_tick.c ****         result        = sys_time;
 147              		.loc 1 71 23 is_stmt 0 view .LVU32
 148 000a 1970     		strb	r1, [r3]
  72:Drivers/lvgl/src/hal/lv_hal_tick.c ****     } while(!tick_irq_flag); /*Continue until see a non interrupted cycle*/
 149              		.loc 1 72 9 is_stmt 1 view .LVU33
 150              	.LVL4:
  73:Drivers/lvgl/src/hal/lv_hal_tick.c **** 
 151              		.loc 1 73 13 view .LVU34
 152 000c 1A78     		ldrb	r2, [r3]	@ zero_extendqisi2
 153 000e 002A     		cmp	r2, #0
 154 0010 FBD0     		beq	.L12
  75:Drivers/lvgl/src/hal/lv_hal_tick.c **** #else
 155              		.loc 1 75 5 view .LVU35
 156              	.LVL5:
  75:Drivers/lvgl/src/hal/lv_hal_tick.c **** #else
 157              		.loc 1 75 5 is_stmt 0 view .LVU36
 158              	.LBE6:
 159              	.LBE7:
  89:Drivers/lvgl/src/hal/lv_hal_tick.c **** 
  90:Drivers/lvgl/src/hal/lv_hal_tick.c ****     /*If there is no overflow in sys_time simple subtract*/
  91:Drivers/lvgl/src/hal/lv_hal_tick.c ****     if(act_time >= prev_tick) {
 160              		.loc 1 91 5 is_stmt 1 view .LVU37
  92:Drivers/lvgl/src/hal/lv_hal_tick.c ****         prev_tick = act_time - prev_tick;
  93:Drivers/lvgl/src/hal/lv_hal_tick.c ****     }
  94:Drivers/lvgl/src/hal/lv_hal_tick.c ****     else {
  95:Drivers/lvgl/src/hal/lv_hal_tick.c ****         prev_tick = UINT32_MAX - prev_tick + 1;
  96:Drivers/lvgl/src/hal/lv_hal_tick.c ****         prev_tick += act_time;
  97:Drivers/lvgl/src/hal/lv_hal_tick.c ****     }
  98:Drivers/lvgl/src/hal/lv_hal_tick.c **** 
  99:Drivers/lvgl/src/hal/lv_hal_tick.c ****     return prev_tick;
 100:Drivers/lvgl/src/hal/lv_hal_tick.c **** }
 161              		.loc 1 100 1 is_stmt 0 view .LVU38
 162 0012 201A     		subs	r0, r4, r0
 163              	.LVL6:
 164              		.loc 1 100 1 view .LVU39
 165 0014 5DF8044B 		ldr	r4, [sp], #4
 166              		.cfi_restore 4
 167              		.cfi_def_cfa_offset 0
 168 0018 7047     		bx	lr
 169              	.L19:
ARM GAS  /var/folders/0z/tsy30v1j4xl4_7kw94k978ww0000gn/T//ccoSkRwg.s 			page 6


 170 001a 00BF     		.align	2
 171              	.L18:
 172 001c 00000000 		.word	.LANCHOR1
 173 0020 00000000 		.word	.LANCHOR0
 174              		.cfi_endproc
 175              	.LFE2:
 177              		.section	.bss.sys_time,"aw",%nobits
 178              		.align	2
 179              		.set	.LANCHOR1,. + 0
 182              	sys_time:
 183 0000 00000000 		.space	4
 184              		.section	.bss.tick_irq_flag,"aw",%nobits
 185              		.set	.LANCHOR0,. + 0
 188              	tick_irq_flag:
 189 0000 00       		.space	1
 190              		.text
 191              	.Letext0:
 192              		.file 2 "/Users/johannes/Library/Application Support/Code/User/globalStorage/bmd.stm32-for-vscode/
 193              		.file 3 "/Users/johannes/Library/Application Support/Code/User/globalStorage/bmd.stm32-for-vscode/
ARM GAS  /var/folders/0z/tsy30v1j4xl4_7kw94k978ww0000gn/T//ccoSkRwg.s 			page 7

