ARM GAS  /var/folders/0z/tsy30v1j4xl4_7kw94k978ww0000gn/T//ccQFh5Uv.s 			page 1


   1              		.cpu cortex-m4
   2              		.arch armv7e-m
   3              		.fpu fpv4-sp-d16
   4              		.eabi_attribute 27, 1
   5              		.eabi_attribute 28, 1
   6              		.eabi_attribute 20, 1
   7              		.eabi_attribute 21, 1
   8              		.eabi_attribute 23, 3
   9              		.eabi_attribute 24, 1
  10              		.eabi_attribute 25, 1
  11              		.eabi_attribute 26, 1
  12              		.eabi_attribute 30, 2
  13              		.eabi_attribute 34, 1
  14              		.eabi_attribute 18, 4
  15              		.file	"lv_hal_disp.c"
  16              		.text
  17              	.Ltext0:
  18              		.cfi_sections	.debug_frame
  19              		.section	.text.invalidate_layout_cb,"ax",%progbits
  20              		.align	1
  21              		.p2align 2,,3
  22              		.syntax unified
  23              		.thumb
  24              		.thumb_func
  26              	invalidate_layout_cb:
  27              	.LVL0:
  28              	.LFB183:
  29              		.file 1 "Drivers/lvgl/src/hal/lv_hal_disp.c"
   1:Drivers/lvgl/src/hal/lv_hal_disp.c **** /**
   2:Drivers/lvgl/src/hal/lv_hal_disp.c ****  * @file lv_hal_disp.c
   3:Drivers/lvgl/src/hal/lv_hal_disp.c ****  *
   4:Drivers/lvgl/src/hal/lv_hal_disp.c ****  * @description HAL layer for display driver
   5:Drivers/lvgl/src/hal/lv_hal_disp.c ****  *
   6:Drivers/lvgl/src/hal/lv_hal_disp.c ****  */
   7:Drivers/lvgl/src/hal/lv_hal_disp.c **** 
   8:Drivers/lvgl/src/hal/lv_hal_disp.c **** /*********************
   9:Drivers/lvgl/src/hal/lv_hal_disp.c ****  *      INCLUDES
  10:Drivers/lvgl/src/hal/lv_hal_disp.c ****  *********************/
  11:Drivers/lvgl/src/hal/lv_hal_disp.c **** #include <stdint.h>
  12:Drivers/lvgl/src/hal/lv_hal_disp.c **** #include <stddef.h>
  13:Drivers/lvgl/src/hal/lv_hal_disp.c **** #include "lv_hal.h"
  14:Drivers/lvgl/src/hal/lv_hal_disp.c **** #include "../misc/lv_mem.h"
  15:Drivers/lvgl/src/hal/lv_hal_disp.c **** #include "../misc/lv_gc.h"
  16:Drivers/lvgl/src/hal/lv_hal_disp.c **** #include "../misc/lv_assert.h"
  17:Drivers/lvgl/src/hal/lv_hal_disp.c **** #include "../core/lv_obj.h"
  18:Drivers/lvgl/src/hal/lv_hal_disp.c **** #include "../core/lv_refr.h"
  19:Drivers/lvgl/src/hal/lv_hal_disp.c **** #include "../core/lv_theme.h"
  20:Drivers/lvgl/src/hal/lv_hal_disp.c **** #include "../draw/sdl/lv_draw_sdl.h"
  21:Drivers/lvgl/src/hal/lv_hal_disp.c **** #include "../draw/sw/lv_draw_sw.h"
  22:Drivers/lvgl/src/hal/lv_hal_disp.c **** #include "../draw/sdl/lv_draw_sdl.h"
  23:Drivers/lvgl/src/hal/lv_hal_disp.c **** #include "../draw/stm32_dma2d/lv_gpu_stm32_dma2d.h"
  24:Drivers/lvgl/src/hal/lv_hal_disp.c **** #include "../draw/swm341_dma2d/lv_gpu_swm341_dma2d.h"
  25:Drivers/lvgl/src/hal/lv_hal_disp.c **** #include "../draw/arm2d/lv_gpu_arm2d.h"
  26:Drivers/lvgl/src/hal/lv_hal_disp.c **** #include "../draw/nxp/vglite/lv_draw_vglite.h"
  27:Drivers/lvgl/src/hal/lv_hal_disp.c **** #include "../draw/nxp/pxp/lv_draw_pxp.h"
  28:Drivers/lvgl/src/hal/lv_hal_disp.c **** #include "../draw/renesas/lv_gpu_d2_ra6m3.h"
  29:Drivers/lvgl/src/hal/lv_hal_disp.c **** 
ARM GAS  /var/folders/0z/tsy30v1j4xl4_7kw94k978ww0000gn/T//ccQFh5Uv.s 			page 2


  30:Drivers/lvgl/src/hal/lv_hal_disp.c **** #if LV_USE_THEME_DEFAULT
  31:Drivers/lvgl/src/hal/lv_hal_disp.c ****     #include "../extra/themes/default/lv_theme_default.h"
  32:Drivers/lvgl/src/hal/lv_hal_disp.c **** #endif
  33:Drivers/lvgl/src/hal/lv_hal_disp.c **** 
  34:Drivers/lvgl/src/hal/lv_hal_disp.c **** /*********************
  35:Drivers/lvgl/src/hal/lv_hal_disp.c ****  *      DEFINES
  36:Drivers/lvgl/src/hal/lv_hal_disp.c ****  *********************/
  37:Drivers/lvgl/src/hal/lv_hal_disp.c **** 
  38:Drivers/lvgl/src/hal/lv_hal_disp.c **** /**********************
  39:Drivers/lvgl/src/hal/lv_hal_disp.c ****  *      TYPEDEFS
  40:Drivers/lvgl/src/hal/lv_hal_disp.c ****  **********************/
  41:Drivers/lvgl/src/hal/lv_hal_disp.c **** 
  42:Drivers/lvgl/src/hal/lv_hal_disp.c **** /**********************
  43:Drivers/lvgl/src/hal/lv_hal_disp.c ****  *  STATIC PROTOTYPES
  44:Drivers/lvgl/src/hal/lv_hal_disp.c ****  **********************/
  45:Drivers/lvgl/src/hal/lv_hal_disp.c **** static lv_obj_tree_walk_res_t invalidate_layout_cb(lv_obj_t * obj, void * user_data);
  46:Drivers/lvgl/src/hal/lv_hal_disp.c **** 
  47:Drivers/lvgl/src/hal/lv_hal_disp.c **** static void set_px_true_color_alpha(lv_disp_drv_t * disp_drv, uint8_t * buf, lv_coord_t buf_w, lv_c
  48:Drivers/lvgl/src/hal/lv_hal_disp.c ****                                     lv_coord_t y,
  49:Drivers/lvgl/src/hal/lv_hal_disp.c ****                                     lv_color_t color, lv_opa_t opa);
  50:Drivers/lvgl/src/hal/lv_hal_disp.c **** 
  51:Drivers/lvgl/src/hal/lv_hal_disp.c **** static void set_px_cb_alpha1(lv_disp_drv_t * disp_drv, uint8_t * buf, lv_coord_t buf_w, lv_coord_t 
  52:Drivers/lvgl/src/hal/lv_hal_disp.c ****                              lv_color_t color, lv_opa_t opa);
  53:Drivers/lvgl/src/hal/lv_hal_disp.c **** 
  54:Drivers/lvgl/src/hal/lv_hal_disp.c **** static void set_px_cb_alpha2(lv_disp_drv_t * disp_drv, uint8_t * buf, lv_coord_t buf_w, lv_coord_t 
  55:Drivers/lvgl/src/hal/lv_hal_disp.c ****                              lv_color_t color, lv_opa_t opa);
  56:Drivers/lvgl/src/hal/lv_hal_disp.c **** 
  57:Drivers/lvgl/src/hal/lv_hal_disp.c **** static void set_px_cb_alpha4(lv_disp_drv_t * disp_drv, uint8_t * buf, lv_coord_t buf_w, lv_coord_t 
  58:Drivers/lvgl/src/hal/lv_hal_disp.c ****                              lv_color_t color, lv_opa_t opa);
  59:Drivers/lvgl/src/hal/lv_hal_disp.c **** 
  60:Drivers/lvgl/src/hal/lv_hal_disp.c **** static void set_px_cb_alpha8(lv_disp_drv_t * disp_drv, uint8_t * buf, lv_coord_t buf_w, lv_coord_t 
  61:Drivers/lvgl/src/hal/lv_hal_disp.c ****                              lv_color_t color, lv_opa_t opa);
  62:Drivers/lvgl/src/hal/lv_hal_disp.c **** 
  63:Drivers/lvgl/src/hal/lv_hal_disp.c **** static void set_px_alpha_generic(lv_img_dsc_t * d, lv_coord_t x, lv_coord_t y, lv_color_t color, lv
  64:Drivers/lvgl/src/hal/lv_hal_disp.c **** 
  65:Drivers/lvgl/src/hal/lv_hal_disp.c **** /**********************
  66:Drivers/lvgl/src/hal/lv_hal_disp.c ****  *  STATIC VARIABLES
  67:Drivers/lvgl/src/hal/lv_hal_disp.c ****  **********************/
  68:Drivers/lvgl/src/hal/lv_hal_disp.c **** static lv_disp_t * disp_def;
  69:Drivers/lvgl/src/hal/lv_hal_disp.c **** 
  70:Drivers/lvgl/src/hal/lv_hal_disp.c **** /**********************
  71:Drivers/lvgl/src/hal/lv_hal_disp.c ****  *      MACROS
  72:Drivers/lvgl/src/hal/lv_hal_disp.c ****  **********************/
  73:Drivers/lvgl/src/hal/lv_hal_disp.c **** 
  74:Drivers/lvgl/src/hal/lv_hal_disp.c **** /**********************
  75:Drivers/lvgl/src/hal/lv_hal_disp.c ****  *   GLOBAL FUNCTIONS
  76:Drivers/lvgl/src/hal/lv_hal_disp.c ****  **********************/
  77:Drivers/lvgl/src/hal/lv_hal_disp.c **** 
  78:Drivers/lvgl/src/hal/lv_hal_disp.c **** /**
  79:Drivers/lvgl/src/hal/lv_hal_disp.c ****  * Initialize a display driver with default values.
  80:Drivers/lvgl/src/hal/lv_hal_disp.c ****  * It is used to surly have known values in the fields ant not memory junk.
  81:Drivers/lvgl/src/hal/lv_hal_disp.c ****  * After it you can set the fields.
  82:Drivers/lvgl/src/hal/lv_hal_disp.c ****  * @param driver pointer to driver variable to initialize
  83:Drivers/lvgl/src/hal/lv_hal_disp.c ****  */
  84:Drivers/lvgl/src/hal/lv_hal_disp.c **** void lv_disp_drv_init(lv_disp_drv_t * driver)
  85:Drivers/lvgl/src/hal/lv_hal_disp.c **** {
  86:Drivers/lvgl/src/hal/lv_hal_disp.c ****     lv_memset_00(driver, sizeof(lv_disp_drv_t));
ARM GAS  /var/folders/0z/tsy30v1j4xl4_7kw94k978ww0000gn/T//ccQFh5Uv.s 			page 3


  87:Drivers/lvgl/src/hal/lv_hal_disp.c **** 
  88:Drivers/lvgl/src/hal/lv_hal_disp.c ****     driver->hor_res          = 320;
  89:Drivers/lvgl/src/hal/lv_hal_disp.c ****     driver->ver_res          = 240;
  90:Drivers/lvgl/src/hal/lv_hal_disp.c ****     driver->physical_hor_res = -1;
  91:Drivers/lvgl/src/hal/lv_hal_disp.c ****     driver->physical_ver_res = -1;
  92:Drivers/lvgl/src/hal/lv_hal_disp.c ****     driver->offset_x         = 0;
  93:Drivers/lvgl/src/hal/lv_hal_disp.c ****     driver->offset_y         = 0;
  94:Drivers/lvgl/src/hal/lv_hal_disp.c ****     driver->antialiasing     = LV_COLOR_DEPTH > 8 ? 1 : 0;
  95:Drivers/lvgl/src/hal/lv_hal_disp.c ****     driver->screen_transp    = 0;
  96:Drivers/lvgl/src/hal/lv_hal_disp.c ****     driver->dpi              = LV_DPI_DEF;
  97:Drivers/lvgl/src/hal/lv_hal_disp.c ****     driver->color_chroma_key = LV_COLOR_CHROMA_KEY;
  98:Drivers/lvgl/src/hal/lv_hal_disp.c **** 
  99:Drivers/lvgl/src/hal/lv_hal_disp.c **** #if LV_USE_GPU_RA6M3_G2D
 100:Drivers/lvgl/src/hal/lv_hal_disp.c ****     driver->draw_ctx_init = lv_draw_ra6m3_2d_ctx_init;
 101:Drivers/lvgl/src/hal/lv_hal_disp.c ****     driver->draw_ctx_deinit = lv_draw_ra6m3_2d_ctx_init;
 102:Drivers/lvgl/src/hal/lv_hal_disp.c ****     driver->draw_ctx_size = sizeof(lv_draw_ra6m3_dma2d_ctx_t);
 103:Drivers/lvgl/src/hal/lv_hal_disp.c **** #elif LV_USE_GPU_STM32_DMA2D
 104:Drivers/lvgl/src/hal/lv_hal_disp.c ****     driver->draw_ctx_init = lv_draw_stm32_dma2d_ctx_init;
 105:Drivers/lvgl/src/hal/lv_hal_disp.c ****     driver->draw_ctx_deinit = lv_draw_stm32_dma2d_ctx_init;
 106:Drivers/lvgl/src/hal/lv_hal_disp.c ****     driver->draw_ctx_size = sizeof(lv_draw_stm32_dma2d_ctx_t);
 107:Drivers/lvgl/src/hal/lv_hal_disp.c **** #elif LV_USE_GPU_SWM341_DMA2D
 108:Drivers/lvgl/src/hal/lv_hal_disp.c ****     driver->draw_ctx_init = lv_draw_swm341_dma2d_ctx_init;
 109:Drivers/lvgl/src/hal/lv_hal_disp.c ****     driver->draw_ctx_deinit = lv_draw_swm341_dma2d_ctx_init;
 110:Drivers/lvgl/src/hal/lv_hal_disp.c ****     driver->draw_ctx_size = sizeof(lv_draw_swm341_dma2d_ctx_t);
 111:Drivers/lvgl/src/hal/lv_hal_disp.c **** #elif LV_USE_GPU_NXP_VG_LITE
 112:Drivers/lvgl/src/hal/lv_hal_disp.c ****     driver->draw_ctx_init = lv_draw_vglite_ctx_init;
 113:Drivers/lvgl/src/hal/lv_hal_disp.c ****     driver->draw_ctx_deinit = lv_draw_vglite_ctx_deinit;
 114:Drivers/lvgl/src/hal/lv_hal_disp.c ****     driver->draw_ctx_size = sizeof(lv_draw_vglite_ctx_t);
 115:Drivers/lvgl/src/hal/lv_hal_disp.c **** #elif LV_USE_GPU_NXP_PXP
 116:Drivers/lvgl/src/hal/lv_hal_disp.c ****     driver->draw_ctx_init = lv_draw_pxp_ctx_init;
 117:Drivers/lvgl/src/hal/lv_hal_disp.c ****     driver->draw_ctx_deinit = lv_draw_pxp_ctx_deinit;
 118:Drivers/lvgl/src/hal/lv_hal_disp.c ****     driver->draw_ctx_size = sizeof(lv_draw_pxp_ctx_t);
 119:Drivers/lvgl/src/hal/lv_hal_disp.c **** #elif LV_USE_GPU_SDL
 120:Drivers/lvgl/src/hal/lv_hal_disp.c ****     driver->draw_ctx_init = lv_draw_sdl_init_ctx;
 121:Drivers/lvgl/src/hal/lv_hal_disp.c ****     driver->draw_ctx_deinit = lv_draw_sdl_deinit_ctx;
 122:Drivers/lvgl/src/hal/lv_hal_disp.c ****     driver->draw_ctx_size = sizeof(lv_draw_sdl_ctx_t);
 123:Drivers/lvgl/src/hal/lv_hal_disp.c **** #elif LV_USE_GPU_ARM2D
 124:Drivers/lvgl/src/hal/lv_hal_disp.c ****     driver->draw_ctx_init = lv_draw_arm2d_ctx_init;
 125:Drivers/lvgl/src/hal/lv_hal_disp.c ****     driver->draw_ctx_deinit = lv_draw_arm2d_ctx_init;
 126:Drivers/lvgl/src/hal/lv_hal_disp.c ****     driver->draw_ctx_size = sizeof(lv_draw_arm2d_ctx_t);
 127:Drivers/lvgl/src/hal/lv_hal_disp.c **** #else
 128:Drivers/lvgl/src/hal/lv_hal_disp.c ****     driver->draw_ctx_init = lv_draw_sw_init_ctx;
 129:Drivers/lvgl/src/hal/lv_hal_disp.c ****     driver->draw_ctx_deinit = lv_draw_sw_init_ctx;
 130:Drivers/lvgl/src/hal/lv_hal_disp.c ****     driver->draw_ctx_size = sizeof(lv_draw_sw_ctx_t);
 131:Drivers/lvgl/src/hal/lv_hal_disp.c **** #endif
 132:Drivers/lvgl/src/hal/lv_hal_disp.c **** 
 133:Drivers/lvgl/src/hal/lv_hal_disp.c **** }
 134:Drivers/lvgl/src/hal/lv_hal_disp.c **** 
 135:Drivers/lvgl/src/hal/lv_hal_disp.c **** /**
 136:Drivers/lvgl/src/hal/lv_hal_disp.c ****  * Initialize a display buffer
 137:Drivers/lvgl/src/hal/lv_hal_disp.c ****  * @param draw_buf pointer `lv_disp_draw_buf_t` variable to initialize
 138:Drivers/lvgl/src/hal/lv_hal_disp.c ****  * @param buf1 A buffer to be used by LVGL to draw the image.
 139:Drivers/lvgl/src/hal/lv_hal_disp.c ****  *             Always has to specified and can't be NULL.
 140:Drivers/lvgl/src/hal/lv_hal_disp.c ****  *             Can be an array allocated by the user. E.g. `static lv_color_t disp_buf1[1024 * 10]`
 141:Drivers/lvgl/src/hal/lv_hal_disp.c ****  *             Or a memory address e.g. in external SRAM
 142:Drivers/lvgl/src/hal/lv_hal_disp.c ****  * @param buf2 Optionally specify a second buffer to make image rendering and image flushing
 143:Drivers/lvgl/src/hal/lv_hal_disp.c ****  *             (sending to the display) parallel.
ARM GAS  /var/folders/0z/tsy30v1j4xl4_7kw94k978ww0000gn/T//ccQFh5Uv.s 			page 4


 144:Drivers/lvgl/src/hal/lv_hal_disp.c ****  *             In the `disp_drv->flush` you should use DMA or similar hardware to send
 145:Drivers/lvgl/src/hal/lv_hal_disp.c ****  *             the image to the display in the background.
 146:Drivers/lvgl/src/hal/lv_hal_disp.c ****  *             It lets LVGL to render next frame into the other buffer while previous is being
 147:Drivers/lvgl/src/hal/lv_hal_disp.c ****  * sent. Set to `NULL` if unused.
 148:Drivers/lvgl/src/hal/lv_hal_disp.c ****  * @param size_in_px_cnt size of the `buf1` and `buf2` in pixel count.
 149:Drivers/lvgl/src/hal/lv_hal_disp.c ****  */
 150:Drivers/lvgl/src/hal/lv_hal_disp.c **** void lv_disp_draw_buf_init(lv_disp_draw_buf_t * draw_buf, void * buf1, void * buf2, uint32_t size_i
 151:Drivers/lvgl/src/hal/lv_hal_disp.c **** {
 152:Drivers/lvgl/src/hal/lv_hal_disp.c ****     lv_memset_00(draw_buf, sizeof(lv_disp_draw_buf_t));
 153:Drivers/lvgl/src/hal/lv_hal_disp.c **** 
 154:Drivers/lvgl/src/hal/lv_hal_disp.c ****     draw_buf->buf1    = buf1;
 155:Drivers/lvgl/src/hal/lv_hal_disp.c ****     draw_buf->buf2    = buf2;
 156:Drivers/lvgl/src/hal/lv_hal_disp.c ****     draw_buf->buf_act = draw_buf->buf1;
 157:Drivers/lvgl/src/hal/lv_hal_disp.c ****     draw_buf->size    = size_in_px_cnt;
 158:Drivers/lvgl/src/hal/lv_hal_disp.c **** }
 159:Drivers/lvgl/src/hal/lv_hal_disp.c **** 
 160:Drivers/lvgl/src/hal/lv_hal_disp.c **** /**
 161:Drivers/lvgl/src/hal/lv_hal_disp.c ****  * Register an initialized display driver.
 162:Drivers/lvgl/src/hal/lv_hal_disp.c ****  * Automatically set the first display as active.
 163:Drivers/lvgl/src/hal/lv_hal_disp.c ****  * @param driver pointer to an initialized 'lv_disp_drv_t' variable. Only its pointer is saved!
 164:Drivers/lvgl/src/hal/lv_hal_disp.c ****  * @return pointer to the new display or NULL on error
 165:Drivers/lvgl/src/hal/lv_hal_disp.c ****  */
 166:Drivers/lvgl/src/hal/lv_hal_disp.c **** lv_disp_t * lv_disp_drv_register(lv_disp_drv_t * driver)
 167:Drivers/lvgl/src/hal/lv_hal_disp.c **** {
 168:Drivers/lvgl/src/hal/lv_hal_disp.c ****     lv_disp_t * disp = _lv_ll_ins_head(&LV_GC_ROOT(_lv_disp_ll));
 169:Drivers/lvgl/src/hal/lv_hal_disp.c ****     LV_ASSERT_MALLOC(disp);
 170:Drivers/lvgl/src/hal/lv_hal_disp.c ****     if(!disp) {
 171:Drivers/lvgl/src/hal/lv_hal_disp.c ****         return NULL;
 172:Drivers/lvgl/src/hal/lv_hal_disp.c ****     }
 173:Drivers/lvgl/src/hal/lv_hal_disp.c **** 
 174:Drivers/lvgl/src/hal/lv_hal_disp.c ****     /*Create a draw context if not created yet*/
 175:Drivers/lvgl/src/hal/lv_hal_disp.c ****     if(driver->draw_ctx == NULL) {
 176:Drivers/lvgl/src/hal/lv_hal_disp.c ****         lv_draw_ctx_t * draw_ctx = lv_mem_alloc(driver->draw_ctx_size);
 177:Drivers/lvgl/src/hal/lv_hal_disp.c ****         LV_ASSERT_MALLOC(draw_ctx);
 178:Drivers/lvgl/src/hal/lv_hal_disp.c ****         if(draw_ctx == NULL) return NULL;
 179:Drivers/lvgl/src/hal/lv_hal_disp.c ****         driver->draw_ctx_init(driver, draw_ctx);
 180:Drivers/lvgl/src/hal/lv_hal_disp.c ****         driver->draw_ctx = draw_ctx;
 181:Drivers/lvgl/src/hal/lv_hal_disp.c ****     }
 182:Drivers/lvgl/src/hal/lv_hal_disp.c **** 
 183:Drivers/lvgl/src/hal/lv_hal_disp.c ****     lv_memset_00(disp, sizeof(lv_disp_t));
 184:Drivers/lvgl/src/hal/lv_hal_disp.c **** 
 185:Drivers/lvgl/src/hal/lv_hal_disp.c ****     disp->driver = driver;
 186:Drivers/lvgl/src/hal/lv_hal_disp.c **** 
 187:Drivers/lvgl/src/hal/lv_hal_disp.c ****     disp->inv_en_cnt = 1;
 188:Drivers/lvgl/src/hal/lv_hal_disp.c **** 
 189:Drivers/lvgl/src/hal/lv_hal_disp.c ****     _lv_ll_init(&disp->sync_areas, sizeof(lv_area_t));
 190:Drivers/lvgl/src/hal/lv_hal_disp.c **** 
 191:Drivers/lvgl/src/hal/lv_hal_disp.c ****     lv_disp_t * disp_def_tmp = disp_def;
 192:Drivers/lvgl/src/hal/lv_hal_disp.c ****     disp_def                 = disp; /*Temporarily change the default screen to create the default 
 193:Drivers/lvgl/src/hal/lv_hal_disp.c ****                                         new display*/
 194:Drivers/lvgl/src/hal/lv_hal_disp.c ****     /*Create a refresh timer*/
 195:Drivers/lvgl/src/hal/lv_hal_disp.c ****     disp->refr_timer = lv_timer_create(_lv_disp_refr_timer, LV_DISP_DEF_REFR_PERIOD, disp);
 196:Drivers/lvgl/src/hal/lv_hal_disp.c ****     LV_ASSERT_MALLOC(disp->refr_timer);
 197:Drivers/lvgl/src/hal/lv_hal_disp.c ****     if(disp->refr_timer == NULL) {
 198:Drivers/lvgl/src/hal/lv_hal_disp.c ****         lv_mem_free(disp);
 199:Drivers/lvgl/src/hal/lv_hal_disp.c ****         return NULL;
 200:Drivers/lvgl/src/hal/lv_hal_disp.c ****     }
ARM GAS  /var/folders/0z/tsy30v1j4xl4_7kw94k978ww0000gn/T//ccQFh5Uv.s 			page 5


 201:Drivers/lvgl/src/hal/lv_hal_disp.c **** 
 202:Drivers/lvgl/src/hal/lv_hal_disp.c ****     if(driver->full_refresh && driver->draw_buf->size < (uint32_t)driver->hor_res * driver->ver_res
 203:Drivers/lvgl/src/hal/lv_hal_disp.c ****         driver->full_refresh = 0;
 204:Drivers/lvgl/src/hal/lv_hal_disp.c ****         LV_LOG_WARN("full_refresh requires at least screen sized draw buffer(s)");
 205:Drivers/lvgl/src/hal/lv_hal_disp.c ****     }
 206:Drivers/lvgl/src/hal/lv_hal_disp.c **** 
 207:Drivers/lvgl/src/hal/lv_hal_disp.c ****     disp->bg_color = lv_color_white();
 208:Drivers/lvgl/src/hal/lv_hal_disp.c **** #if LV_COLOR_SCREEN_TRANSP
 209:Drivers/lvgl/src/hal/lv_hal_disp.c ****     disp->bg_opa = LV_OPA_TRANSP;
 210:Drivers/lvgl/src/hal/lv_hal_disp.c **** #else
 211:Drivers/lvgl/src/hal/lv_hal_disp.c ****     disp->bg_opa = LV_OPA_COVER;
 212:Drivers/lvgl/src/hal/lv_hal_disp.c **** #endif
 213:Drivers/lvgl/src/hal/lv_hal_disp.c **** 
 214:Drivers/lvgl/src/hal/lv_hal_disp.c **** #if LV_USE_THEME_DEFAULT
 215:Drivers/lvgl/src/hal/lv_hal_disp.c ****     if(lv_theme_default_is_inited() == false) {
 216:Drivers/lvgl/src/hal/lv_hal_disp.c ****         disp->theme = lv_theme_default_init(disp, lv_palette_main(LV_PALETTE_BLUE), lv_palette_main
 217:Drivers/lvgl/src/hal/lv_hal_disp.c ****                                             LV_THEME_DEFAULT_DARK, LV_FONT_DEFAULT);
 218:Drivers/lvgl/src/hal/lv_hal_disp.c ****     }
 219:Drivers/lvgl/src/hal/lv_hal_disp.c ****     else {
 220:Drivers/lvgl/src/hal/lv_hal_disp.c ****         disp->theme = lv_theme_default_get();
 221:Drivers/lvgl/src/hal/lv_hal_disp.c ****     }
 222:Drivers/lvgl/src/hal/lv_hal_disp.c **** #endif
 223:Drivers/lvgl/src/hal/lv_hal_disp.c **** 
 224:Drivers/lvgl/src/hal/lv_hal_disp.c ****     disp->act_scr   = lv_obj_create(NULL); /*Create a default screen on the display*/
 225:Drivers/lvgl/src/hal/lv_hal_disp.c ****     disp->top_layer = lv_obj_create(NULL); /*Create top layer on the display*/
 226:Drivers/lvgl/src/hal/lv_hal_disp.c ****     disp->sys_layer = lv_obj_create(NULL); /*Create sys layer on the display*/
 227:Drivers/lvgl/src/hal/lv_hal_disp.c ****     lv_obj_remove_style_all(disp->top_layer);
 228:Drivers/lvgl/src/hal/lv_hal_disp.c ****     lv_obj_remove_style_all(disp->sys_layer);
 229:Drivers/lvgl/src/hal/lv_hal_disp.c ****     lv_obj_clear_flag(disp->top_layer, LV_OBJ_FLAG_CLICKABLE);
 230:Drivers/lvgl/src/hal/lv_hal_disp.c ****     lv_obj_clear_flag(disp->sys_layer, LV_OBJ_FLAG_CLICKABLE);
 231:Drivers/lvgl/src/hal/lv_hal_disp.c **** 
 232:Drivers/lvgl/src/hal/lv_hal_disp.c ****     lv_obj_set_scrollbar_mode(disp->top_layer, LV_SCROLLBAR_MODE_OFF);
 233:Drivers/lvgl/src/hal/lv_hal_disp.c ****     lv_obj_set_scrollbar_mode(disp->sys_layer, LV_SCROLLBAR_MODE_OFF);
 234:Drivers/lvgl/src/hal/lv_hal_disp.c **** 
 235:Drivers/lvgl/src/hal/lv_hal_disp.c ****     lv_obj_invalidate(disp->act_scr);
 236:Drivers/lvgl/src/hal/lv_hal_disp.c **** 
 237:Drivers/lvgl/src/hal/lv_hal_disp.c ****     disp_def = disp_def_tmp; /*Revert the default display*/
 238:Drivers/lvgl/src/hal/lv_hal_disp.c ****     if(disp_def == NULL) disp_def = disp; /*Initialize the default display*/
 239:Drivers/lvgl/src/hal/lv_hal_disp.c **** 
 240:Drivers/lvgl/src/hal/lv_hal_disp.c ****     lv_timer_ready(disp->refr_timer); /*Be sure the screen will be refreshed immediately on start u
 241:Drivers/lvgl/src/hal/lv_hal_disp.c **** 
 242:Drivers/lvgl/src/hal/lv_hal_disp.c ****     return disp;
 243:Drivers/lvgl/src/hal/lv_hal_disp.c **** }
 244:Drivers/lvgl/src/hal/lv_hal_disp.c **** 
 245:Drivers/lvgl/src/hal/lv_hal_disp.c **** /**
 246:Drivers/lvgl/src/hal/lv_hal_disp.c ****  * Update the driver in run time.
 247:Drivers/lvgl/src/hal/lv_hal_disp.c ****  * @param disp pointer to a display. (return value of `lv_disp_drv_register`)
 248:Drivers/lvgl/src/hal/lv_hal_disp.c ****  * @param new_drv pointer to the new driver
 249:Drivers/lvgl/src/hal/lv_hal_disp.c ****  */
 250:Drivers/lvgl/src/hal/lv_hal_disp.c **** void lv_disp_drv_update(lv_disp_t * disp, lv_disp_drv_t * new_drv)
 251:Drivers/lvgl/src/hal/lv_hal_disp.c **** {
 252:Drivers/lvgl/src/hal/lv_hal_disp.c ****     disp->driver = new_drv;
 253:Drivers/lvgl/src/hal/lv_hal_disp.c **** 
 254:Drivers/lvgl/src/hal/lv_hal_disp.c ****     if(disp->driver->full_refresh &&
 255:Drivers/lvgl/src/hal/lv_hal_disp.c ****        disp->driver->draw_buf->size < (uint32_t)disp->driver->hor_res * disp->driver->ver_res) {
 256:Drivers/lvgl/src/hal/lv_hal_disp.c ****         disp->driver->full_refresh = 0;
 257:Drivers/lvgl/src/hal/lv_hal_disp.c ****         LV_LOG_WARN("full_refresh requires at least screen sized draw buffer(s)");
ARM GAS  /var/folders/0z/tsy30v1j4xl4_7kw94k978ww0000gn/T//ccQFh5Uv.s 			page 6


 258:Drivers/lvgl/src/hal/lv_hal_disp.c ****     }
 259:Drivers/lvgl/src/hal/lv_hal_disp.c **** 
 260:Drivers/lvgl/src/hal/lv_hal_disp.c ****     lv_coord_t w = lv_disp_get_hor_res(disp);
 261:Drivers/lvgl/src/hal/lv_hal_disp.c ****     lv_coord_t h = lv_disp_get_ver_res(disp);
 262:Drivers/lvgl/src/hal/lv_hal_disp.c ****     uint32_t i;
 263:Drivers/lvgl/src/hal/lv_hal_disp.c ****     for(i = 0; i < disp->screen_cnt; i++) {
 264:Drivers/lvgl/src/hal/lv_hal_disp.c ****         lv_area_t prev_coords;
 265:Drivers/lvgl/src/hal/lv_hal_disp.c ****         lv_obj_get_coords(disp->screens[i], &prev_coords);
 266:Drivers/lvgl/src/hal/lv_hal_disp.c ****         lv_area_set_width(&disp->screens[i]->coords, w);
 267:Drivers/lvgl/src/hal/lv_hal_disp.c ****         lv_area_set_height(&disp->screens[i]->coords, h);
 268:Drivers/lvgl/src/hal/lv_hal_disp.c ****         lv_event_send(disp->screens[i], LV_EVENT_SIZE_CHANGED, &prev_coords);
 269:Drivers/lvgl/src/hal/lv_hal_disp.c ****     }
 270:Drivers/lvgl/src/hal/lv_hal_disp.c **** 
 271:Drivers/lvgl/src/hal/lv_hal_disp.c ****     /*
 272:Drivers/lvgl/src/hal/lv_hal_disp.c ****      * This method is usually called upon orientation change, thus the screen is now a
 273:Drivers/lvgl/src/hal/lv_hal_disp.c ****      * different size.
 274:Drivers/lvgl/src/hal/lv_hal_disp.c ****      * The object invalidated its previous area. That area is now out of the screen area
 275:Drivers/lvgl/src/hal/lv_hal_disp.c ****      * so we reset all invalidated areas and invalidate the active screen's new area only.
 276:Drivers/lvgl/src/hal/lv_hal_disp.c ****      */
 277:Drivers/lvgl/src/hal/lv_hal_disp.c ****     lv_memset_00(disp->inv_areas, sizeof(disp->inv_areas));
 278:Drivers/lvgl/src/hal/lv_hal_disp.c ****     lv_memset_00(disp->inv_area_joined, sizeof(disp->inv_area_joined));
 279:Drivers/lvgl/src/hal/lv_hal_disp.c ****     disp->inv_p = 0;
 280:Drivers/lvgl/src/hal/lv_hal_disp.c ****     if(disp->act_scr != NULL) lv_obj_invalidate(disp->act_scr);
 281:Drivers/lvgl/src/hal/lv_hal_disp.c **** 
 282:Drivers/lvgl/src/hal/lv_hal_disp.c ****     lv_obj_tree_walk(NULL, invalidate_layout_cb, NULL);
 283:Drivers/lvgl/src/hal/lv_hal_disp.c **** 
 284:Drivers/lvgl/src/hal/lv_hal_disp.c ****     if(disp->driver->drv_update_cb) disp->driver->drv_update_cb(disp->driver);
 285:Drivers/lvgl/src/hal/lv_hal_disp.c **** }
 286:Drivers/lvgl/src/hal/lv_hal_disp.c **** 
 287:Drivers/lvgl/src/hal/lv_hal_disp.c **** /**
 288:Drivers/lvgl/src/hal/lv_hal_disp.c ****  * Remove a display
 289:Drivers/lvgl/src/hal/lv_hal_disp.c ****  * @param disp pointer to display
 290:Drivers/lvgl/src/hal/lv_hal_disp.c ****  */
 291:Drivers/lvgl/src/hal/lv_hal_disp.c **** void lv_disp_remove(lv_disp_t * disp)
 292:Drivers/lvgl/src/hal/lv_hal_disp.c **** {
 293:Drivers/lvgl/src/hal/lv_hal_disp.c ****     bool was_default = false;
 294:Drivers/lvgl/src/hal/lv_hal_disp.c ****     if(disp == lv_disp_get_default()) was_default = true;
 295:Drivers/lvgl/src/hal/lv_hal_disp.c **** 
 296:Drivers/lvgl/src/hal/lv_hal_disp.c ****     /*Detach the input devices*/
 297:Drivers/lvgl/src/hal/lv_hal_disp.c ****     lv_indev_t * indev;
 298:Drivers/lvgl/src/hal/lv_hal_disp.c ****     indev = lv_indev_get_next(NULL);
 299:Drivers/lvgl/src/hal/lv_hal_disp.c ****     while(indev) {
 300:Drivers/lvgl/src/hal/lv_hal_disp.c ****         if(indev->driver->disp == disp) {
 301:Drivers/lvgl/src/hal/lv_hal_disp.c ****             indev->driver->disp = NULL;
 302:Drivers/lvgl/src/hal/lv_hal_disp.c ****         }
 303:Drivers/lvgl/src/hal/lv_hal_disp.c ****         indev = lv_indev_get_next(indev);
 304:Drivers/lvgl/src/hal/lv_hal_disp.c ****     }
 305:Drivers/lvgl/src/hal/lv_hal_disp.c **** 
 306:Drivers/lvgl/src/hal/lv_hal_disp.c ****     /** delete screen and other obj */
 307:Drivers/lvgl/src/hal/lv_hal_disp.c ****     if(disp->sys_layer) {
 308:Drivers/lvgl/src/hal/lv_hal_disp.c ****         lv_obj_del(disp->sys_layer);
 309:Drivers/lvgl/src/hal/lv_hal_disp.c ****         disp->sys_layer = NULL;
 310:Drivers/lvgl/src/hal/lv_hal_disp.c ****     }
 311:Drivers/lvgl/src/hal/lv_hal_disp.c ****     if(disp->top_layer) {
 312:Drivers/lvgl/src/hal/lv_hal_disp.c ****         lv_obj_del(disp->top_layer);
 313:Drivers/lvgl/src/hal/lv_hal_disp.c ****         disp->top_layer = NULL;
 314:Drivers/lvgl/src/hal/lv_hal_disp.c ****     }
ARM GAS  /var/folders/0z/tsy30v1j4xl4_7kw94k978ww0000gn/T//ccQFh5Uv.s 			page 7


 315:Drivers/lvgl/src/hal/lv_hal_disp.c ****     while(disp->screen_cnt != 0) {
 316:Drivers/lvgl/src/hal/lv_hal_disp.c ****         /*Delete the screenst*/
 317:Drivers/lvgl/src/hal/lv_hal_disp.c ****         lv_obj_del(disp->screens[0]);
 318:Drivers/lvgl/src/hal/lv_hal_disp.c ****     }
 319:Drivers/lvgl/src/hal/lv_hal_disp.c **** 
 320:Drivers/lvgl/src/hal/lv_hal_disp.c ****     _lv_ll_remove(&LV_GC_ROOT(_lv_disp_ll), disp);
 321:Drivers/lvgl/src/hal/lv_hal_disp.c ****     _lv_ll_clear(&disp->sync_areas);
 322:Drivers/lvgl/src/hal/lv_hal_disp.c ****     if(disp->refr_timer) lv_timer_del(disp->refr_timer);
 323:Drivers/lvgl/src/hal/lv_hal_disp.c ****     lv_mem_free(disp);
 324:Drivers/lvgl/src/hal/lv_hal_disp.c **** 
 325:Drivers/lvgl/src/hal/lv_hal_disp.c ****     if(was_default) lv_disp_set_default(_lv_ll_get_head(&LV_GC_ROOT(_lv_disp_ll)));
 326:Drivers/lvgl/src/hal/lv_hal_disp.c **** }
 327:Drivers/lvgl/src/hal/lv_hal_disp.c **** 
 328:Drivers/lvgl/src/hal/lv_hal_disp.c **** /**
 329:Drivers/lvgl/src/hal/lv_hal_disp.c ****  * Set a default display. The new screens will be created on it by default.
 330:Drivers/lvgl/src/hal/lv_hal_disp.c ****  * @param disp pointer to a display
 331:Drivers/lvgl/src/hal/lv_hal_disp.c ****  */
 332:Drivers/lvgl/src/hal/lv_hal_disp.c **** void lv_disp_set_default(lv_disp_t * disp)
 333:Drivers/lvgl/src/hal/lv_hal_disp.c **** {
 334:Drivers/lvgl/src/hal/lv_hal_disp.c ****     disp_def = disp;
 335:Drivers/lvgl/src/hal/lv_hal_disp.c **** }
 336:Drivers/lvgl/src/hal/lv_hal_disp.c **** 
 337:Drivers/lvgl/src/hal/lv_hal_disp.c **** /**
 338:Drivers/lvgl/src/hal/lv_hal_disp.c ****  * Get the default display
 339:Drivers/lvgl/src/hal/lv_hal_disp.c ****  * @return pointer to the default display
 340:Drivers/lvgl/src/hal/lv_hal_disp.c ****  */
 341:Drivers/lvgl/src/hal/lv_hal_disp.c **** lv_disp_t * lv_disp_get_default(void)
 342:Drivers/lvgl/src/hal/lv_hal_disp.c **** {
 343:Drivers/lvgl/src/hal/lv_hal_disp.c ****     return disp_def;
 344:Drivers/lvgl/src/hal/lv_hal_disp.c **** }
 345:Drivers/lvgl/src/hal/lv_hal_disp.c **** 
 346:Drivers/lvgl/src/hal/lv_hal_disp.c **** /**
 347:Drivers/lvgl/src/hal/lv_hal_disp.c ****  * Get the horizontal resolution of a display
 348:Drivers/lvgl/src/hal/lv_hal_disp.c ****  * @param disp pointer to a display (NULL to use the default display)
 349:Drivers/lvgl/src/hal/lv_hal_disp.c ****  * @return the horizontal resolution of the display
 350:Drivers/lvgl/src/hal/lv_hal_disp.c ****  */
 351:Drivers/lvgl/src/hal/lv_hal_disp.c **** lv_coord_t lv_disp_get_hor_res(lv_disp_t * disp)
 352:Drivers/lvgl/src/hal/lv_hal_disp.c **** {
 353:Drivers/lvgl/src/hal/lv_hal_disp.c ****     if(disp == NULL) disp = lv_disp_get_default();
 354:Drivers/lvgl/src/hal/lv_hal_disp.c **** 
 355:Drivers/lvgl/src/hal/lv_hal_disp.c ****     if(disp == NULL) {
 356:Drivers/lvgl/src/hal/lv_hal_disp.c ****         return 0;
 357:Drivers/lvgl/src/hal/lv_hal_disp.c ****     }
 358:Drivers/lvgl/src/hal/lv_hal_disp.c ****     else {
 359:Drivers/lvgl/src/hal/lv_hal_disp.c ****         switch(disp->driver->rotated) {
 360:Drivers/lvgl/src/hal/lv_hal_disp.c ****             case LV_DISP_ROT_90:
 361:Drivers/lvgl/src/hal/lv_hal_disp.c ****             case LV_DISP_ROT_270:
 362:Drivers/lvgl/src/hal/lv_hal_disp.c ****                 return disp->driver->ver_res;
 363:Drivers/lvgl/src/hal/lv_hal_disp.c ****             default:
 364:Drivers/lvgl/src/hal/lv_hal_disp.c ****                 return disp->driver->hor_res;
 365:Drivers/lvgl/src/hal/lv_hal_disp.c ****         }
 366:Drivers/lvgl/src/hal/lv_hal_disp.c ****     }
 367:Drivers/lvgl/src/hal/lv_hal_disp.c **** }
 368:Drivers/lvgl/src/hal/lv_hal_disp.c **** 
 369:Drivers/lvgl/src/hal/lv_hal_disp.c **** /**
 370:Drivers/lvgl/src/hal/lv_hal_disp.c ****  * Get the vertical resolution of a display
 371:Drivers/lvgl/src/hal/lv_hal_disp.c ****  * @param disp pointer to a display (NULL to use the default display)
ARM GAS  /var/folders/0z/tsy30v1j4xl4_7kw94k978ww0000gn/T//ccQFh5Uv.s 			page 8


 372:Drivers/lvgl/src/hal/lv_hal_disp.c ****  * @return the vertical resolution of the display
 373:Drivers/lvgl/src/hal/lv_hal_disp.c ****  */
 374:Drivers/lvgl/src/hal/lv_hal_disp.c **** lv_coord_t lv_disp_get_ver_res(lv_disp_t * disp)
 375:Drivers/lvgl/src/hal/lv_hal_disp.c **** {
 376:Drivers/lvgl/src/hal/lv_hal_disp.c ****     if(disp == NULL) disp = lv_disp_get_default();
 377:Drivers/lvgl/src/hal/lv_hal_disp.c **** 
 378:Drivers/lvgl/src/hal/lv_hal_disp.c ****     if(disp == NULL) {
 379:Drivers/lvgl/src/hal/lv_hal_disp.c ****         return 0;
 380:Drivers/lvgl/src/hal/lv_hal_disp.c ****     }
 381:Drivers/lvgl/src/hal/lv_hal_disp.c ****     else {
 382:Drivers/lvgl/src/hal/lv_hal_disp.c ****         switch(disp->driver->rotated) {
 383:Drivers/lvgl/src/hal/lv_hal_disp.c ****             case LV_DISP_ROT_90:
 384:Drivers/lvgl/src/hal/lv_hal_disp.c ****             case LV_DISP_ROT_270:
 385:Drivers/lvgl/src/hal/lv_hal_disp.c ****                 return disp->driver->hor_res;
 386:Drivers/lvgl/src/hal/lv_hal_disp.c ****             default:
 387:Drivers/lvgl/src/hal/lv_hal_disp.c ****                 return disp->driver->ver_res;
 388:Drivers/lvgl/src/hal/lv_hal_disp.c ****         }
 389:Drivers/lvgl/src/hal/lv_hal_disp.c ****     }
 390:Drivers/lvgl/src/hal/lv_hal_disp.c **** }
 391:Drivers/lvgl/src/hal/lv_hal_disp.c **** 
 392:Drivers/lvgl/src/hal/lv_hal_disp.c **** /**
 393:Drivers/lvgl/src/hal/lv_hal_disp.c ****  * Get the full / physical horizontal resolution of a display
 394:Drivers/lvgl/src/hal/lv_hal_disp.c ****  * @param disp pointer to a display (NULL to use the default display)
 395:Drivers/lvgl/src/hal/lv_hal_disp.c ****  * @return the full / physical horizontal resolution of the display
 396:Drivers/lvgl/src/hal/lv_hal_disp.c ****  */
 397:Drivers/lvgl/src/hal/lv_hal_disp.c **** lv_coord_t lv_disp_get_physical_hor_res(lv_disp_t * disp)
 398:Drivers/lvgl/src/hal/lv_hal_disp.c **** {
 399:Drivers/lvgl/src/hal/lv_hal_disp.c ****     if(disp == NULL) disp = lv_disp_get_default();
 400:Drivers/lvgl/src/hal/lv_hal_disp.c **** 
 401:Drivers/lvgl/src/hal/lv_hal_disp.c ****     if(disp == NULL) {
 402:Drivers/lvgl/src/hal/lv_hal_disp.c ****         return 0;
 403:Drivers/lvgl/src/hal/lv_hal_disp.c ****     }
 404:Drivers/lvgl/src/hal/lv_hal_disp.c ****     else {
 405:Drivers/lvgl/src/hal/lv_hal_disp.c ****         switch(disp->driver->rotated) {
 406:Drivers/lvgl/src/hal/lv_hal_disp.c ****             case LV_DISP_ROT_90:
 407:Drivers/lvgl/src/hal/lv_hal_disp.c ****             case LV_DISP_ROT_270:
 408:Drivers/lvgl/src/hal/lv_hal_disp.c ****                 return disp->driver->physical_ver_res > 0 ? disp->driver->physical_ver_res : disp->
 409:Drivers/lvgl/src/hal/lv_hal_disp.c ****             default:
 410:Drivers/lvgl/src/hal/lv_hal_disp.c ****                 return disp->driver->physical_hor_res > 0 ? disp->driver->physical_hor_res : disp->
 411:Drivers/lvgl/src/hal/lv_hal_disp.c ****         }
 412:Drivers/lvgl/src/hal/lv_hal_disp.c ****     }
 413:Drivers/lvgl/src/hal/lv_hal_disp.c **** }
 414:Drivers/lvgl/src/hal/lv_hal_disp.c **** 
 415:Drivers/lvgl/src/hal/lv_hal_disp.c **** /**
 416:Drivers/lvgl/src/hal/lv_hal_disp.c ****  * Get the full / physical vertical resolution of a display
 417:Drivers/lvgl/src/hal/lv_hal_disp.c ****  * @param disp pointer to a display (NULL to use the default display)
 418:Drivers/lvgl/src/hal/lv_hal_disp.c ****  * @return the full / physical vertical resolution of the display
 419:Drivers/lvgl/src/hal/lv_hal_disp.c ****  */
 420:Drivers/lvgl/src/hal/lv_hal_disp.c **** lv_coord_t lv_disp_get_physical_ver_res(lv_disp_t * disp)
 421:Drivers/lvgl/src/hal/lv_hal_disp.c **** {
 422:Drivers/lvgl/src/hal/lv_hal_disp.c ****     if(disp == NULL) disp = lv_disp_get_default();
 423:Drivers/lvgl/src/hal/lv_hal_disp.c **** 
 424:Drivers/lvgl/src/hal/lv_hal_disp.c ****     if(disp == NULL) {
 425:Drivers/lvgl/src/hal/lv_hal_disp.c ****         return 0;
 426:Drivers/lvgl/src/hal/lv_hal_disp.c ****     }
 427:Drivers/lvgl/src/hal/lv_hal_disp.c ****     else {
 428:Drivers/lvgl/src/hal/lv_hal_disp.c ****         switch(disp->driver->rotated) {
ARM GAS  /var/folders/0z/tsy30v1j4xl4_7kw94k978ww0000gn/T//ccQFh5Uv.s 			page 9


 429:Drivers/lvgl/src/hal/lv_hal_disp.c ****             case LV_DISP_ROT_90:
 430:Drivers/lvgl/src/hal/lv_hal_disp.c ****             case LV_DISP_ROT_270:
 431:Drivers/lvgl/src/hal/lv_hal_disp.c ****                 return disp->driver->physical_hor_res > 0 ? disp->driver->physical_hor_res : disp->
 432:Drivers/lvgl/src/hal/lv_hal_disp.c ****             default:
 433:Drivers/lvgl/src/hal/lv_hal_disp.c ****                 return disp->driver->physical_ver_res > 0 ? disp->driver->physical_ver_res : disp->
 434:Drivers/lvgl/src/hal/lv_hal_disp.c ****         }
 435:Drivers/lvgl/src/hal/lv_hal_disp.c ****     }
 436:Drivers/lvgl/src/hal/lv_hal_disp.c **** }
 437:Drivers/lvgl/src/hal/lv_hal_disp.c **** 
 438:Drivers/lvgl/src/hal/lv_hal_disp.c **** /**
 439:Drivers/lvgl/src/hal/lv_hal_disp.c ****  * Get the horizontal offset from the full / physical display
 440:Drivers/lvgl/src/hal/lv_hal_disp.c ****  * @param disp pointer to a display (NULL to use the default display)
 441:Drivers/lvgl/src/hal/lv_hal_disp.c ****  * @return the horizontal offset from the full / physical display
 442:Drivers/lvgl/src/hal/lv_hal_disp.c ****  */
 443:Drivers/lvgl/src/hal/lv_hal_disp.c **** lv_coord_t lv_disp_get_offset_x(lv_disp_t * disp)
 444:Drivers/lvgl/src/hal/lv_hal_disp.c **** {
 445:Drivers/lvgl/src/hal/lv_hal_disp.c ****     if(disp == NULL) disp = lv_disp_get_default();
 446:Drivers/lvgl/src/hal/lv_hal_disp.c **** 
 447:Drivers/lvgl/src/hal/lv_hal_disp.c ****     if(disp == NULL) {
 448:Drivers/lvgl/src/hal/lv_hal_disp.c ****         return 0;
 449:Drivers/lvgl/src/hal/lv_hal_disp.c ****     }
 450:Drivers/lvgl/src/hal/lv_hal_disp.c ****     else {
 451:Drivers/lvgl/src/hal/lv_hal_disp.c ****         switch(disp->driver->rotated) {
 452:Drivers/lvgl/src/hal/lv_hal_disp.c ****             case LV_DISP_ROT_90:
 453:Drivers/lvgl/src/hal/lv_hal_disp.c ****                 return disp->driver->offset_y;
 454:Drivers/lvgl/src/hal/lv_hal_disp.c ****             case LV_DISP_ROT_180:
 455:Drivers/lvgl/src/hal/lv_hal_disp.c ****                 return lv_disp_get_physical_hor_res(disp) - disp->driver->offset_x;
 456:Drivers/lvgl/src/hal/lv_hal_disp.c ****             case LV_DISP_ROT_270:
 457:Drivers/lvgl/src/hal/lv_hal_disp.c ****                 return lv_disp_get_physical_hor_res(disp) - disp->driver->offset_y;
 458:Drivers/lvgl/src/hal/lv_hal_disp.c ****             default:
 459:Drivers/lvgl/src/hal/lv_hal_disp.c ****                 return disp->driver->offset_x;
 460:Drivers/lvgl/src/hal/lv_hal_disp.c ****         }
 461:Drivers/lvgl/src/hal/lv_hal_disp.c ****     }
 462:Drivers/lvgl/src/hal/lv_hal_disp.c **** }
 463:Drivers/lvgl/src/hal/lv_hal_disp.c **** 
 464:Drivers/lvgl/src/hal/lv_hal_disp.c **** /**
 465:Drivers/lvgl/src/hal/lv_hal_disp.c ****  * Get the vertical offset from the full / physical display
 466:Drivers/lvgl/src/hal/lv_hal_disp.c ****  * @param disp pointer to a display (NULL to use the default display)
 467:Drivers/lvgl/src/hal/lv_hal_disp.c ****  * @return the horizontal offset from the full / physical display
 468:Drivers/lvgl/src/hal/lv_hal_disp.c ****  */
 469:Drivers/lvgl/src/hal/lv_hal_disp.c **** lv_coord_t lv_disp_get_offset_y(lv_disp_t * disp)
 470:Drivers/lvgl/src/hal/lv_hal_disp.c **** {
 471:Drivers/lvgl/src/hal/lv_hal_disp.c ****     if(disp == NULL) disp = lv_disp_get_default();
 472:Drivers/lvgl/src/hal/lv_hal_disp.c **** 
 473:Drivers/lvgl/src/hal/lv_hal_disp.c ****     if(disp == NULL) {
 474:Drivers/lvgl/src/hal/lv_hal_disp.c ****         return 0;
 475:Drivers/lvgl/src/hal/lv_hal_disp.c ****     }
 476:Drivers/lvgl/src/hal/lv_hal_disp.c ****     else {
 477:Drivers/lvgl/src/hal/lv_hal_disp.c ****         switch(disp->driver->rotated) {
 478:Drivers/lvgl/src/hal/lv_hal_disp.c ****             case LV_DISP_ROT_90:
 479:Drivers/lvgl/src/hal/lv_hal_disp.c ****                 return disp->driver->offset_x;
 480:Drivers/lvgl/src/hal/lv_hal_disp.c ****             case LV_DISP_ROT_180:
 481:Drivers/lvgl/src/hal/lv_hal_disp.c ****                 return lv_disp_get_physical_ver_res(disp) - disp->driver->offset_y;
 482:Drivers/lvgl/src/hal/lv_hal_disp.c ****             case LV_DISP_ROT_270:
 483:Drivers/lvgl/src/hal/lv_hal_disp.c ****                 return lv_disp_get_physical_ver_res(disp) - disp->driver->offset_x;
 484:Drivers/lvgl/src/hal/lv_hal_disp.c ****             default:
 485:Drivers/lvgl/src/hal/lv_hal_disp.c ****                 return disp->driver->offset_y;
ARM GAS  /var/folders/0z/tsy30v1j4xl4_7kw94k978ww0000gn/T//ccQFh5Uv.s 			page 10


 486:Drivers/lvgl/src/hal/lv_hal_disp.c ****         }
 487:Drivers/lvgl/src/hal/lv_hal_disp.c ****     }
 488:Drivers/lvgl/src/hal/lv_hal_disp.c **** }
 489:Drivers/lvgl/src/hal/lv_hal_disp.c **** 
 490:Drivers/lvgl/src/hal/lv_hal_disp.c **** /**
 491:Drivers/lvgl/src/hal/lv_hal_disp.c ****  * Get if anti-aliasing is enabled for a display or not
 492:Drivers/lvgl/src/hal/lv_hal_disp.c ****  * @param disp pointer to a display (NULL to use the default display)
 493:Drivers/lvgl/src/hal/lv_hal_disp.c ****  * @return true: anti-aliasing is enabled; false: disabled
 494:Drivers/lvgl/src/hal/lv_hal_disp.c ****  */
 495:Drivers/lvgl/src/hal/lv_hal_disp.c **** bool lv_disp_get_antialiasing(lv_disp_t * disp)
 496:Drivers/lvgl/src/hal/lv_hal_disp.c **** {
 497:Drivers/lvgl/src/hal/lv_hal_disp.c ****     if(disp == NULL) disp = lv_disp_get_default();
 498:Drivers/lvgl/src/hal/lv_hal_disp.c ****     if(disp == NULL) return false;
 499:Drivers/lvgl/src/hal/lv_hal_disp.c **** 
 500:Drivers/lvgl/src/hal/lv_hal_disp.c ****     return disp->driver->antialiasing ? true : false;
 501:Drivers/lvgl/src/hal/lv_hal_disp.c **** }
 502:Drivers/lvgl/src/hal/lv_hal_disp.c **** 
 503:Drivers/lvgl/src/hal/lv_hal_disp.c **** /**
 504:Drivers/lvgl/src/hal/lv_hal_disp.c ****  * Get the DPI of the display
 505:Drivers/lvgl/src/hal/lv_hal_disp.c ****  * @param disp pointer to a display (NULL to use the default display)
 506:Drivers/lvgl/src/hal/lv_hal_disp.c ****  * @return dpi of the display
 507:Drivers/lvgl/src/hal/lv_hal_disp.c ****  */
 508:Drivers/lvgl/src/hal/lv_hal_disp.c **** lv_coord_t lv_disp_get_dpi(const lv_disp_t * disp)
 509:Drivers/lvgl/src/hal/lv_hal_disp.c **** {
 510:Drivers/lvgl/src/hal/lv_hal_disp.c ****     if(disp == NULL) disp = lv_disp_get_default();
 511:Drivers/lvgl/src/hal/lv_hal_disp.c ****     if(disp == NULL) return LV_DPI_DEF;  /*Do not return 0 because it might be a divider*/
 512:Drivers/lvgl/src/hal/lv_hal_disp.c ****     return disp->driver->dpi;
 513:Drivers/lvgl/src/hal/lv_hal_disp.c **** }
 514:Drivers/lvgl/src/hal/lv_hal_disp.c **** 
 515:Drivers/lvgl/src/hal/lv_hal_disp.c **** /**
 516:Drivers/lvgl/src/hal/lv_hal_disp.c ****  * Call in the display driver's `flush_cb` function when the flushing is finished
 517:Drivers/lvgl/src/hal/lv_hal_disp.c ****  * @param disp_drv pointer to display driver in `flush_cb` where this function is called
 518:Drivers/lvgl/src/hal/lv_hal_disp.c ****  */
 519:Drivers/lvgl/src/hal/lv_hal_disp.c **** void LV_ATTRIBUTE_FLUSH_READY lv_disp_flush_ready(lv_disp_drv_t * disp_drv)
 520:Drivers/lvgl/src/hal/lv_hal_disp.c **** {
 521:Drivers/lvgl/src/hal/lv_hal_disp.c ****     disp_drv->draw_buf->flushing = 0;
 522:Drivers/lvgl/src/hal/lv_hal_disp.c ****     disp_drv->draw_buf->flushing_last = 0;
 523:Drivers/lvgl/src/hal/lv_hal_disp.c **** }
 524:Drivers/lvgl/src/hal/lv_hal_disp.c **** 
 525:Drivers/lvgl/src/hal/lv_hal_disp.c **** /**
 526:Drivers/lvgl/src/hal/lv_hal_disp.c ****  * Tell if it's the last area of the refreshing process.
 527:Drivers/lvgl/src/hal/lv_hal_disp.c ****  * Can be called from `flush_cb` to execute some special display refreshing if needed when all area
 528:Drivers/lvgl/src/hal/lv_hal_disp.c ****  * @param disp_drv pointer to display driver
 529:Drivers/lvgl/src/hal/lv_hal_disp.c ****  * @return true: it's the last area to flush; false: there are other areas too which will be refres
 530:Drivers/lvgl/src/hal/lv_hal_disp.c ****  */
 531:Drivers/lvgl/src/hal/lv_hal_disp.c **** bool LV_ATTRIBUTE_FLUSH_READY lv_disp_flush_is_last(lv_disp_drv_t * disp_drv)
 532:Drivers/lvgl/src/hal/lv_hal_disp.c **** {
 533:Drivers/lvgl/src/hal/lv_hal_disp.c ****     return disp_drv->draw_buf->flushing_last;
 534:Drivers/lvgl/src/hal/lv_hal_disp.c **** }
 535:Drivers/lvgl/src/hal/lv_hal_disp.c **** 
 536:Drivers/lvgl/src/hal/lv_hal_disp.c **** /**
 537:Drivers/lvgl/src/hal/lv_hal_disp.c ****  * Get the next display.
 538:Drivers/lvgl/src/hal/lv_hal_disp.c ****  * @param disp pointer to the current display. NULL to initialize.
 539:Drivers/lvgl/src/hal/lv_hal_disp.c ****  * @return the next display or NULL if no more. Give the first display when the parameter is NULL
 540:Drivers/lvgl/src/hal/lv_hal_disp.c ****  */
 541:Drivers/lvgl/src/hal/lv_hal_disp.c **** lv_disp_t * lv_disp_get_next(lv_disp_t * disp)
 542:Drivers/lvgl/src/hal/lv_hal_disp.c **** {
ARM GAS  /var/folders/0z/tsy30v1j4xl4_7kw94k978ww0000gn/T//ccQFh5Uv.s 			page 11


 543:Drivers/lvgl/src/hal/lv_hal_disp.c ****     if(disp == NULL)
 544:Drivers/lvgl/src/hal/lv_hal_disp.c ****         return _lv_ll_get_head(&LV_GC_ROOT(_lv_disp_ll));
 545:Drivers/lvgl/src/hal/lv_hal_disp.c ****     else
 546:Drivers/lvgl/src/hal/lv_hal_disp.c ****         return _lv_ll_get_next(&LV_GC_ROOT(_lv_disp_ll), disp);
 547:Drivers/lvgl/src/hal/lv_hal_disp.c **** }
 548:Drivers/lvgl/src/hal/lv_hal_disp.c **** 
 549:Drivers/lvgl/src/hal/lv_hal_disp.c **** /**
 550:Drivers/lvgl/src/hal/lv_hal_disp.c ****  * Get the internal buffer of a display
 551:Drivers/lvgl/src/hal/lv_hal_disp.c ****  * @param disp pointer to a display
 552:Drivers/lvgl/src/hal/lv_hal_disp.c ****  * @return pointer to the internal buffers
 553:Drivers/lvgl/src/hal/lv_hal_disp.c ****  */
 554:Drivers/lvgl/src/hal/lv_hal_disp.c **** lv_disp_draw_buf_t * lv_disp_get_draw_buf(lv_disp_t * disp)
 555:Drivers/lvgl/src/hal/lv_hal_disp.c **** {
 556:Drivers/lvgl/src/hal/lv_hal_disp.c ****     return disp->driver->draw_buf;
 557:Drivers/lvgl/src/hal/lv_hal_disp.c **** }
 558:Drivers/lvgl/src/hal/lv_hal_disp.c **** 
 559:Drivers/lvgl/src/hal/lv_hal_disp.c **** /**
 560:Drivers/lvgl/src/hal/lv_hal_disp.c ****  * Set the rotation of this display.
 561:Drivers/lvgl/src/hal/lv_hal_disp.c ****  * @param disp pointer to a display (NULL to use the default display)
 562:Drivers/lvgl/src/hal/lv_hal_disp.c ****  * @param rotation rotation angle
 563:Drivers/lvgl/src/hal/lv_hal_disp.c ****  */
 564:Drivers/lvgl/src/hal/lv_hal_disp.c **** void lv_disp_set_rotation(lv_disp_t * disp, lv_disp_rot_t rotation)
 565:Drivers/lvgl/src/hal/lv_hal_disp.c **** {
 566:Drivers/lvgl/src/hal/lv_hal_disp.c ****     if(disp == NULL) disp = lv_disp_get_default();
 567:Drivers/lvgl/src/hal/lv_hal_disp.c ****     if(disp == NULL) return;
 568:Drivers/lvgl/src/hal/lv_hal_disp.c **** 
 569:Drivers/lvgl/src/hal/lv_hal_disp.c ****     disp->driver->rotated = rotation;
 570:Drivers/lvgl/src/hal/lv_hal_disp.c ****     lv_disp_drv_update(disp, disp->driver);
 571:Drivers/lvgl/src/hal/lv_hal_disp.c **** }
 572:Drivers/lvgl/src/hal/lv_hal_disp.c **** 
 573:Drivers/lvgl/src/hal/lv_hal_disp.c **** /**
 574:Drivers/lvgl/src/hal/lv_hal_disp.c ****  * Get the current rotation of this display.
 575:Drivers/lvgl/src/hal/lv_hal_disp.c ****  * @param disp pointer to a display (NULL to use the default display)
 576:Drivers/lvgl/src/hal/lv_hal_disp.c ****  * @return rotation angle
 577:Drivers/lvgl/src/hal/lv_hal_disp.c ****  */
 578:Drivers/lvgl/src/hal/lv_hal_disp.c **** lv_disp_rot_t lv_disp_get_rotation(lv_disp_t * disp)
 579:Drivers/lvgl/src/hal/lv_hal_disp.c **** {
 580:Drivers/lvgl/src/hal/lv_hal_disp.c ****     if(disp == NULL) disp = lv_disp_get_default();
 581:Drivers/lvgl/src/hal/lv_hal_disp.c ****     if(disp == NULL) return LV_DISP_ROT_NONE;
 582:Drivers/lvgl/src/hal/lv_hal_disp.c ****     return disp->driver->rotated;
 583:Drivers/lvgl/src/hal/lv_hal_disp.c **** }
 584:Drivers/lvgl/src/hal/lv_hal_disp.c **** 
 585:Drivers/lvgl/src/hal/lv_hal_disp.c **** void lv_disp_drv_use_generic_set_px_cb(lv_disp_drv_t * disp_drv, lv_img_cf_t cf)
 586:Drivers/lvgl/src/hal/lv_hal_disp.c **** {
 587:Drivers/lvgl/src/hal/lv_hal_disp.c ****     switch(cf) {
 588:Drivers/lvgl/src/hal/lv_hal_disp.c ****         case LV_IMG_CF_TRUE_COLOR_ALPHA:
 589:Drivers/lvgl/src/hal/lv_hal_disp.c ****             disp_drv->set_px_cb = set_px_true_color_alpha;
 590:Drivers/lvgl/src/hal/lv_hal_disp.c ****             break;
 591:Drivers/lvgl/src/hal/lv_hal_disp.c ****         case LV_IMG_CF_ALPHA_1BIT:
 592:Drivers/lvgl/src/hal/lv_hal_disp.c ****             disp_drv->set_px_cb = set_px_cb_alpha1;
 593:Drivers/lvgl/src/hal/lv_hal_disp.c ****             break;
 594:Drivers/lvgl/src/hal/lv_hal_disp.c ****         case LV_IMG_CF_ALPHA_2BIT:
 595:Drivers/lvgl/src/hal/lv_hal_disp.c ****             disp_drv->set_px_cb = set_px_cb_alpha2;
 596:Drivers/lvgl/src/hal/lv_hal_disp.c ****             break;
 597:Drivers/lvgl/src/hal/lv_hal_disp.c ****         case LV_IMG_CF_ALPHA_4BIT:
 598:Drivers/lvgl/src/hal/lv_hal_disp.c ****             disp_drv->set_px_cb = set_px_cb_alpha4;
 599:Drivers/lvgl/src/hal/lv_hal_disp.c ****             break;
ARM GAS  /var/folders/0z/tsy30v1j4xl4_7kw94k978ww0000gn/T//ccQFh5Uv.s 			page 12


 600:Drivers/lvgl/src/hal/lv_hal_disp.c ****         case LV_IMG_CF_ALPHA_8BIT:
 601:Drivers/lvgl/src/hal/lv_hal_disp.c ****             disp_drv->set_px_cb = set_px_cb_alpha8;
 602:Drivers/lvgl/src/hal/lv_hal_disp.c ****             break;
 603:Drivers/lvgl/src/hal/lv_hal_disp.c ****         default:
 604:Drivers/lvgl/src/hal/lv_hal_disp.c ****             disp_drv->set_px_cb = NULL;
 605:Drivers/lvgl/src/hal/lv_hal_disp.c ****     }
 606:Drivers/lvgl/src/hal/lv_hal_disp.c **** }
 607:Drivers/lvgl/src/hal/lv_hal_disp.c **** 
 608:Drivers/lvgl/src/hal/lv_hal_disp.c **** /**********************
 609:Drivers/lvgl/src/hal/lv_hal_disp.c ****  *   STATIC FUNCTIONS
 610:Drivers/lvgl/src/hal/lv_hal_disp.c ****  **********************/
 611:Drivers/lvgl/src/hal/lv_hal_disp.c **** 
 612:Drivers/lvgl/src/hal/lv_hal_disp.c **** static lv_obj_tree_walk_res_t invalidate_layout_cb(lv_obj_t * obj, void * user_data)
 613:Drivers/lvgl/src/hal/lv_hal_disp.c **** {
  30              		.loc 1 613 1 view -0
  31              		.cfi_startproc
  32              		@ args = 0, pretend = 0, frame = 0
  33              		@ frame_needed = 0, uses_anonymous_args = 0
 614:Drivers/lvgl/src/hal/lv_hal_disp.c ****     LV_UNUSED(user_data);
  34              		.loc 1 614 5 view .LVU1
 615:Drivers/lvgl/src/hal/lv_hal_disp.c ****     lv_obj_mark_layout_as_dirty(obj);
  35              		.loc 1 615 5 view .LVU2
 613:Drivers/lvgl/src/hal/lv_hal_disp.c ****     LV_UNUSED(user_data);
  36              		.loc 1 613 1 is_stmt 0 view .LVU3
  37 0000 08B5     		push	{r3, lr}
  38              		.cfi_def_cfa_offset 8
  39              		.cfi_offset 3, -8
  40              		.cfi_offset 14, -4
  41              		.loc 1 615 5 view .LVU4
  42 0002 FFF7FEFF 		bl	lv_obj_mark_layout_as_dirty
  43              	.LVL1:
 616:Drivers/lvgl/src/hal/lv_hal_disp.c ****     return LV_OBJ_TREE_WALK_NEXT;
  44              		.loc 1 616 5 is_stmt 1 view .LVU5
 617:Drivers/lvgl/src/hal/lv_hal_disp.c **** }
  45              		.loc 1 617 1 is_stmt 0 view .LVU6
  46 0006 0020     		movs	r0, #0
  47 0008 08BD     		pop	{r3, pc}
  48              		.cfi_endproc
  49              	.LFE183:
  51 000a 00BF     		.section	.text.set_px_alpha_generic,"ax",%progbits
  52              		.align	1
  53              		.p2align 2,,3
  54              		.syntax unified
  55              		.thumb
  56              		.thumb_func
  58              	set_px_alpha_generic:
  59              	.LVL2:
  60              	.LFB188:
 618:Drivers/lvgl/src/hal/lv_hal_disp.c **** 
 619:Drivers/lvgl/src/hal/lv_hal_disp.c **** static void set_px_cb_alpha1(lv_disp_drv_t * disp_drv, uint8_t * buf, lv_coord_t buf_w, lv_coord_t 
 620:Drivers/lvgl/src/hal/lv_hal_disp.c ****                              lv_color_t color, lv_opa_t opa)
 621:Drivers/lvgl/src/hal/lv_hal_disp.c **** {
 622:Drivers/lvgl/src/hal/lv_hal_disp.c ****     (void) disp_drv; /*Unused*/
 623:Drivers/lvgl/src/hal/lv_hal_disp.c **** 
 624:Drivers/lvgl/src/hal/lv_hal_disp.c ****     if(opa <= LV_OPA_MIN) return;
 625:Drivers/lvgl/src/hal/lv_hal_disp.c ****     lv_img_dsc_t d;
 626:Drivers/lvgl/src/hal/lv_hal_disp.c ****     d.data = buf;
ARM GAS  /var/folders/0z/tsy30v1j4xl4_7kw94k978ww0000gn/T//ccQFh5Uv.s 			page 13


 627:Drivers/lvgl/src/hal/lv_hal_disp.c ****     d.header.w = buf_w;
 628:Drivers/lvgl/src/hal/lv_hal_disp.c ****     d.header.cf = LV_IMG_CF_ALPHA_1BIT;
 629:Drivers/lvgl/src/hal/lv_hal_disp.c **** 
 630:Drivers/lvgl/src/hal/lv_hal_disp.c ****     set_px_alpha_generic(&d, x, y, color, opa);
 631:Drivers/lvgl/src/hal/lv_hal_disp.c **** }
 632:Drivers/lvgl/src/hal/lv_hal_disp.c **** 
 633:Drivers/lvgl/src/hal/lv_hal_disp.c **** static void set_px_cb_alpha2(lv_disp_drv_t * disp_drv, uint8_t * buf, lv_coord_t buf_w, lv_coord_t 
 634:Drivers/lvgl/src/hal/lv_hal_disp.c ****                              lv_color_t color, lv_opa_t opa)
 635:Drivers/lvgl/src/hal/lv_hal_disp.c **** {
 636:Drivers/lvgl/src/hal/lv_hal_disp.c ****     (void) disp_drv; /*Unused*/
 637:Drivers/lvgl/src/hal/lv_hal_disp.c **** 
 638:Drivers/lvgl/src/hal/lv_hal_disp.c ****     if(opa <= LV_OPA_MIN) return;
 639:Drivers/lvgl/src/hal/lv_hal_disp.c ****     lv_img_dsc_t d;
 640:Drivers/lvgl/src/hal/lv_hal_disp.c ****     d.data = buf;
 641:Drivers/lvgl/src/hal/lv_hal_disp.c ****     d.header.w = buf_w;
 642:Drivers/lvgl/src/hal/lv_hal_disp.c ****     d.header.cf = LV_IMG_CF_ALPHA_2BIT;
 643:Drivers/lvgl/src/hal/lv_hal_disp.c **** 
 644:Drivers/lvgl/src/hal/lv_hal_disp.c ****     set_px_alpha_generic(&d, x, y, color, opa);
 645:Drivers/lvgl/src/hal/lv_hal_disp.c **** }
 646:Drivers/lvgl/src/hal/lv_hal_disp.c **** 
 647:Drivers/lvgl/src/hal/lv_hal_disp.c **** static void set_px_cb_alpha4(lv_disp_drv_t * disp_drv, uint8_t * buf, lv_coord_t buf_w, lv_coord_t 
 648:Drivers/lvgl/src/hal/lv_hal_disp.c ****                              lv_color_t color, lv_opa_t opa)
 649:Drivers/lvgl/src/hal/lv_hal_disp.c **** {
 650:Drivers/lvgl/src/hal/lv_hal_disp.c ****     (void) disp_drv; /*Unused*/
 651:Drivers/lvgl/src/hal/lv_hal_disp.c **** 
 652:Drivers/lvgl/src/hal/lv_hal_disp.c ****     if(opa <= LV_OPA_MIN) return;
 653:Drivers/lvgl/src/hal/lv_hal_disp.c ****     lv_img_dsc_t d;
 654:Drivers/lvgl/src/hal/lv_hal_disp.c ****     d.data = buf;
 655:Drivers/lvgl/src/hal/lv_hal_disp.c ****     d.header.w = buf_w;
 656:Drivers/lvgl/src/hal/lv_hal_disp.c ****     d.header.cf = LV_IMG_CF_ALPHA_4BIT;
 657:Drivers/lvgl/src/hal/lv_hal_disp.c **** 
 658:Drivers/lvgl/src/hal/lv_hal_disp.c ****     set_px_alpha_generic(&d, x, y, color, opa);
 659:Drivers/lvgl/src/hal/lv_hal_disp.c **** }
 660:Drivers/lvgl/src/hal/lv_hal_disp.c **** 
 661:Drivers/lvgl/src/hal/lv_hal_disp.c **** static void set_px_cb_alpha8(lv_disp_drv_t * disp_drv, uint8_t * buf, lv_coord_t buf_w, lv_coord_t 
 662:Drivers/lvgl/src/hal/lv_hal_disp.c ****                              lv_color_t color, lv_opa_t opa)
 663:Drivers/lvgl/src/hal/lv_hal_disp.c **** {
 664:Drivers/lvgl/src/hal/lv_hal_disp.c ****     (void) disp_drv; /*Unused*/
 665:Drivers/lvgl/src/hal/lv_hal_disp.c **** 
 666:Drivers/lvgl/src/hal/lv_hal_disp.c ****     if(opa <= LV_OPA_MIN) return;
 667:Drivers/lvgl/src/hal/lv_hal_disp.c ****     lv_img_dsc_t d;
 668:Drivers/lvgl/src/hal/lv_hal_disp.c ****     d.data = buf;
 669:Drivers/lvgl/src/hal/lv_hal_disp.c ****     d.header.w = buf_w;
 670:Drivers/lvgl/src/hal/lv_hal_disp.c ****     d.header.cf = LV_IMG_CF_ALPHA_8BIT;
 671:Drivers/lvgl/src/hal/lv_hal_disp.c **** 
 672:Drivers/lvgl/src/hal/lv_hal_disp.c ****     set_px_alpha_generic(&d, x, y, color, opa);
 673:Drivers/lvgl/src/hal/lv_hal_disp.c **** }
 674:Drivers/lvgl/src/hal/lv_hal_disp.c **** 
 675:Drivers/lvgl/src/hal/lv_hal_disp.c **** static void set_px_alpha_generic(lv_img_dsc_t * d, lv_coord_t x, lv_coord_t y, lv_color_t color, lv
 676:Drivers/lvgl/src/hal/lv_hal_disp.c **** {
  61              		.loc 1 676 1 is_stmt 1 view -0
  62              		.cfi_startproc
  63              		@ args = 4, pretend = 0, frame = 0
  64              		@ frame_needed = 0, uses_anonymous_args = 0
 677:Drivers/lvgl/src/hal/lv_hal_disp.c ****     d->header.always_zero = 0;
  65              		.loc 1 677 5 view .LVU8
 678:Drivers/lvgl/src/hal/lv_hal_disp.c ****     d->header.h = 1;    /*Doesn't matter*/
ARM GAS  /var/folders/0z/tsy30v1j4xl4_7kw94k978ww0000gn/T//ccQFh5Uv.s 			page 14


  66              		.loc 1 678 5 view .LVU9
  67              	.LBB45:
  68              	.LBB46:
  69              	.LBB47:
  70              	.LBB48:
  71              		.file 2 "Drivers/lvgl/src/hal/../draw/../misc/lv_color.h"
   1:Drivers/lvgl/src/hal/../draw/../misc/lv_color.h **** /**
   2:Drivers/lvgl/src/hal/../draw/../misc/lv_color.h ****  * @file lv_color.h
   3:Drivers/lvgl/src/hal/../draw/../misc/lv_color.h ****  *
   4:Drivers/lvgl/src/hal/../draw/../misc/lv_color.h ****  */
   5:Drivers/lvgl/src/hal/../draw/../misc/lv_color.h **** 
   6:Drivers/lvgl/src/hal/../draw/../misc/lv_color.h **** #ifndef LV_COLOR_H
   7:Drivers/lvgl/src/hal/../draw/../misc/lv_color.h **** #define LV_COLOR_H
   8:Drivers/lvgl/src/hal/../draw/../misc/lv_color.h **** 
   9:Drivers/lvgl/src/hal/../draw/../misc/lv_color.h **** #ifdef __cplusplus
  10:Drivers/lvgl/src/hal/../draw/../misc/lv_color.h **** extern "C" {
  11:Drivers/lvgl/src/hal/../draw/../misc/lv_color.h **** #endif
  12:Drivers/lvgl/src/hal/../draw/../misc/lv_color.h **** 
  13:Drivers/lvgl/src/hal/../draw/../misc/lv_color.h **** /*********************
  14:Drivers/lvgl/src/hal/../draw/../misc/lv_color.h ****  *      INCLUDES
  15:Drivers/lvgl/src/hal/../draw/../misc/lv_color.h ****  *********************/
  16:Drivers/lvgl/src/hal/../draw/../misc/lv_color.h **** #include "../lv_conf_internal.h"
  17:Drivers/lvgl/src/hal/../draw/../misc/lv_color.h **** #include "lv_assert.h"
  18:Drivers/lvgl/src/hal/../draw/../misc/lv_color.h **** #include "lv_math.h"
  19:Drivers/lvgl/src/hal/../draw/../misc/lv_color.h **** #include "lv_types.h"
  20:Drivers/lvgl/src/hal/../draw/../misc/lv_color.h **** 
  21:Drivers/lvgl/src/hal/../draw/../misc/lv_color.h **** /*Error checking*/
  22:Drivers/lvgl/src/hal/../draw/../misc/lv_color.h **** #if LV_COLOR_DEPTH == 24
  23:Drivers/lvgl/src/hal/../draw/../misc/lv_color.h **** #error "LV_COLOR_DEPTH 24 is deprecated. Use LV_COLOR_DEPTH 32 instead (lv_conf.h)"
  24:Drivers/lvgl/src/hal/../draw/../misc/lv_color.h **** #endif
  25:Drivers/lvgl/src/hal/../draw/../misc/lv_color.h **** 
  26:Drivers/lvgl/src/hal/../draw/../misc/lv_color.h **** #if LV_COLOR_DEPTH != 16 && LV_COLOR_16_SWAP != 0
  27:Drivers/lvgl/src/hal/../draw/../misc/lv_color.h **** #error "LV_COLOR_16_SWAP requires LV_COLOR_DEPTH == 16. Set it in lv_conf.h"
  28:Drivers/lvgl/src/hal/../draw/../misc/lv_color.h **** #endif
  29:Drivers/lvgl/src/hal/../draw/../misc/lv_color.h **** 
  30:Drivers/lvgl/src/hal/../draw/../misc/lv_color.h **** #include <stdint.h>
  31:Drivers/lvgl/src/hal/../draw/../misc/lv_color.h **** 
  32:Drivers/lvgl/src/hal/../draw/../misc/lv_color.h **** /*********************
  33:Drivers/lvgl/src/hal/../draw/../misc/lv_color.h ****  *      DEFINES
  34:Drivers/lvgl/src/hal/../draw/../misc/lv_color.h ****  *********************/
  35:Drivers/lvgl/src/hal/../draw/../misc/lv_color.h **** LV_EXPORT_CONST_INT(LV_COLOR_DEPTH);
  36:Drivers/lvgl/src/hal/../draw/../misc/lv_color.h **** LV_EXPORT_CONST_INT(LV_COLOR_16_SWAP);
  37:Drivers/lvgl/src/hal/../draw/../misc/lv_color.h **** 
  38:Drivers/lvgl/src/hal/../draw/../misc/lv_color.h **** /**
  39:Drivers/lvgl/src/hal/../draw/../misc/lv_color.h ****  * Opacity percentages.
  40:Drivers/lvgl/src/hal/../draw/../misc/lv_color.h ****  */
  41:Drivers/lvgl/src/hal/../draw/../misc/lv_color.h **** enum {
  42:Drivers/lvgl/src/hal/../draw/../misc/lv_color.h ****     LV_OPA_TRANSP = 0,
  43:Drivers/lvgl/src/hal/../draw/../misc/lv_color.h ****     LV_OPA_0      = 0,
  44:Drivers/lvgl/src/hal/../draw/../misc/lv_color.h ****     LV_OPA_10     = 25,
  45:Drivers/lvgl/src/hal/../draw/../misc/lv_color.h ****     LV_OPA_20     = 51,
  46:Drivers/lvgl/src/hal/../draw/../misc/lv_color.h ****     LV_OPA_30     = 76,
  47:Drivers/lvgl/src/hal/../draw/../misc/lv_color.h ****     LV_OPA_40     = 102,
  48:Drivers/lvgl/src/hal/../draw/../misc/lv_color.h ****     LV_OPA_50     = 127,
  49:Drivers/lvgl/src/hal/../draw/../misc/lv_color.h ****     LV_OPA_60     = 153,
  50:Drivers/lvgl/src/hal/../draw/../misc/lv_color.h ****     LV_OPA_70     = 178,
  51:Drivers/lvgl/src/hal/../draw/../misc/lv_color.h ****     LV_OPA_80     = 204,
ARM GAS  /var/folders/0z/tsy30v1j4xl4_7kw94k978ww0000gn/T//ccQFh5Uv.s 			page 15


  52:Drivers/lvgl/src/hal/../draw/../misc/lv_color.h ****     LV_OPA_90     = 229,
  53:Drivers/lvgl/src/hal/../draw/../misc/lv_color.h ****     LV_OPA_100    = 255,
  54:Drivers/lvgl/src/hal/../draw/../misc/lv_color.h ****     LV_OPA_COVER  = 255,
  55:Drivers/lvgl/src/hal/../draw/../misc/lv_color.h **** };
  56:Drivers/lvgl/src/hal/../draw/../misc/lv_color.h **** 
  57:Drivers/lvgl/src/hal/../draw/../misc/lv_color.h **** #define LV_OPA_MIN 2    /*Opacities below this will be transparent*/
  58:Drivers/lvgl/src/hal/../draw/../misc/lv_color.h **** #define LV_OPA_MAX 253  /*Opacities above this will fully cover*/
  59:Drivers/lvgl/src/hal/../draw/../misc/lv_color.h **** 
  60:Drivers/lvgl/src/hal/../draw/../misc/lv_color.h **** #if LV_COLOR_DEPTH == 1
  61:Drivers/lvgl/src/hal/../draw/../misc/lv_color.h **** #define LV_COLOR_SIZE 8
  62:Drivers/lvgl/src/hal/../draw/../misc/lv_color.h **** #elif LV_COLOR_DEPTH == 8
  63:Drivers/lvgl/src/hal/../draw/../misc/lv_color.h **** #define LV_COLOR_SIZE 8
  64:Drivers/lvgl/src/hal/../draw/../misc/lv_color.h **** #elif LV_COLOR_DEPTH == 16
  65:Drivers/lvgl/src/hal/../draw/../misc/lv_color.h **** #define LV_COLOR_SIZE 16
  66:Drivers/lvgl/src/hal/../draw/../misc/lv_color.h **** #elif LV_COLOR_DEPTH == 32
  67:Drivers/lvgl/src/hal/../draw/../misc/lv_color.h **** #define LV_COLOR_SIZE 32
  68:Drivers/lvgl/src/hal/../draw/../misc/lv_color.h **** #else
  69:Drivers/lvgl/src/hal/../draw/../misc/lv_color.h **** #error "Invalid LV_COLOR_DEPTH in lv_conf.h! Set it to 1, 8, 16 or 32!"
  70:Drivers/lvgl/src/hal/../draw/../misc/lv_color.h **** #endif
  71:Drivers/lvgl/src/hal/../draw/../misc/lv_color.h **** 
  72:Drivers/lvgl/src/hal/../draw/../misc/lv_color.h **** #if defined(__cplusplus) && !defined(_LV_COLOR_HAS_MODERN_CPP)
  73:Drivers/lvgl/src/hal/../draw/../misc/lv_color.h **** /**
  74:Drivers/lvgl/src/hal/../draw/../misc/lv_color.h **** * MSVC compiler's definition of the __cplusplus indicating 199711L regardless to C++ standard versi
  75:Drivers/lvgl/src/hal/../draw/../misc/lv_color.h **** * see https://devblogs.microsoft.com/cppblog/msvc-now-correctly-reports-cplusplus
  76:Drivers/lvgl/src/hal/../draw/../misc/lv_color.h **** * so we use _MSC_VER macro instead of __cplusplus
  77:Drivers/lvgl/src/hal/../draw/../misc/lv_color.h **** */
  78:Drivers/lvgl/src/hal/../draw/../misc/lv_color.h **** #ifdef _MSC_VER
  79:Drivers/lvgl/src/hal/../draw/../misc/lv_color.h **** #if _MSC_VER >= 1900 /*Visual Studio 2015*/
  80:Drivers/lvgl/src/hal/../draw/../misc/lv_color.h **** #define _LV_COLOR_HAS_MODERN_CPP 1
  81:Drivers/lvgl/src/hal/../draw/../misc/lv_color.h **** #endif
  82:Drivers/lvgl/src/hal/../draw/../misc/lv_color.h **** #else
  83:Drivers/lvgl/src/hal/../draw/../misc/lv_color.h **** #if __cplusplus >= 201103L
  84:Drivers/lvgl/src/hal/../draw/../misc/lv_color.h **** #define _LV_COLOR_HAS_MODERN_CPP 1
  85:Drivers/lvgl/src/hal/../draw/../misc/lv_color.h **** #endif
  86:Drivers/lvgl/src/hal/../draw/../misc/lv_color.h **** #endif
  87:Drivers/lvgl/src/hal/../draw/../misc/lv_color.h **** #endif /*__cplusplus*/
  88:Drivers/lvgl/src/hal/../draw/../misc/lv_color.h **** 
  89:Drivers/lvgl/src/hal/../draw/../misc/lv_color.h **** #ifndef _LV_COLOR_HAS_MODERN_CPP
  90:Drivers/lvgl/src/hal/../draw/../misc/lv_color.h **** #define _LV_COLOR_HAS_MODERN_CPP 0
  91:Drivers/lvgl/src/hal/../draw/../misc/lv_color.h **** #endif
  92:Drivers/lvgl/src/hal/../draw/../misc/lv_color.h **** 
  93:Drivers/lvgl/src/hal/../draw/../misc/lv_color.h **** #if _LV_COLOR_HAS_MODERN_CPP
  94:Drivers/lvgl/src/hal/../draw/../misc/lv_color.h **** /*Fix msvc compiler error C4576 inside C++ code*/
  95:Drivers/lvgl/src/hal/../draw/../misc/lv_color.h **** #define _LV_COLOR_MAKE_TYPE_HELPER lv_color_t
  96:Drivers/lvgl/src/hal/../draw/../misc/lv_color.h **** #else
  97:Drivers/lvgl/src/hal/../draw/../misc/lv_color.h **** #define _LV_COLOR_MAKE_TYPE_HELPER (lv_color_t)
  98:Drivers/lvgl/src/hal/../draw/../misc/lv_color.h **** #endif
  99:Drivers/lvgl/src/hal/../draw/../misc/lv_color.h **** 
 100:Drivers/lvgl/src/hal/../draw/../misc/lv_color.h **** /*---------------------------------------
 101:Drivers/lvgl/src/hal/../draw/../misc/lv_color.h ****  * Macros for all existing color depths
 102:Drivers/lvgl/src/hal/../draw/../misc/lv_color.h ****  * to set/get values of the color channels
 103:Drivers/lvgl/src/hal/../draw/../misc/lv_color.h ****  *------------------------------------------*/
 104:Drivers/lvgl/src/hal/../draw/../misc/lv_color.h **** # define LV_COLOR_SET_R1(c, v) (c).ch.red = (uint8_t)((v) & 0x1)
 105:Drivers/lvgl/src/hal/../draw/../misc/lv_color.h **** # define LV_COLOR_SET_G1(c, v) (c).ch.green = (uint8_t)((v) & 0x1)
 106:Drivers/lvgl/src/hal/../draw/../misc/lv_color.h **** # define LV_COLOR_SET_B1(c, v) (c).ch.blue = (uint8_t)((v) & 0x1)
 107:Drivers/lvgl/src/hal/../draw/../misc/lv_color.h **** # define LV_COLOR_SET_A1(c, v) do {} while(0)
 108:Drivers/lvgl/src/hal/../draw/../misc/lv_color.h **** 
ARM GAS  /var/folders/0z/tsy30v1j4xl4_7kw94k978ww0000gn/T//ccQFh5Uv.s 			page 16


 109:Drivers/lvgl/src/hal/../draw/../misc/lv_color.h **** # define LV_COLOR_GET_R1(c) (c).ch.red
 110:Drivers/lvgl/src/hal/../draw/../misc/lv_color.h **** # define LV_COLOR_GET_G1(c) (c).ch.green
 111:Drivers/lvgl/src/hal/../draw/../misc/lv_color.h **** # define LV_COLOR_GET_B1(c) (c).ch.blue
 112:Drivers/lvgl/src/hal/../draw/../misc/lv_color.h **** # define LV_COLOR_GET_A1(c) 0xFF
 113:Drivers/lvgl/src/hal/../draw/../misc/lv_color.h **** 
 114:Drivers/lvgl/src/hal/../draw/../misc/lv_color.h **** # define _LV_COLOR_ZERO_INITIALIZER1 {0x00}
 115:Drivers/lvgl/src/hal/../draw/../misc/lv_color.h **** # define LV_COLOR_MAKE1(r8, g8, b8)  {(uint8_t)((b8 >> 7) | (g8 >> 7) | (r8 >> 7))}
 116:Drivers/lvgl/src/hal/../draw/../misc/lv_color.h **** 
 117:Drivers/lvgl/src/hal/../draw/../misc/lv_color.h **** # define LV_COLOR_SET_R8(c, v) (c).ch.red = (uint8_t)((v) & 0x7U)
 118:Drivers/lvgl/src/hal/../draw/../misc/lv_color.h **** # define LV_COLOR_SET_G8(c, v) (c).ch.green = (uint8_t)((v) & 0x7U)
 119:Drivers/lvgl/src/hal/../draw/../misc/lv_color.h **** # define LV_COLOR_SET_B8(c, v) (c).ch.blue = (uint8_t)((v) & 0x3U)
 120:Drivers/lvgl/src/hal/../draw/../misc/lv_color.h **** # define LV_COLOR_SET_A8(c, v) do {} while(0)
 121:Drivers/lvgl/src/hal/../draw/../misc/lv_color.h **** 
 122:Drivers/lvgl/src/hal/../draw/../misc/lv_color.h **** # define LV_COLOR_GET_R8(c) (c).ch.red
 123:Drivers/lvgl/src/hal/../draw/../misc/lv_color.h **** # define LV_COLOR_GET_G8(c) (c).ch.green
 124:Drivers/lvgl/src/hal/../draw/../misc/lv_color.h **** # define LV_COLOR_GET_B8(c) (c).ch.blue
 125:Drivers/lvgl/src/hal/../draw/../misc/lv_color.h **** # define LV_COLOR_GET_A8(c) 0xFF
 126:Drivers/lvgl/src/hal/../draw/../misc/lv_color.h **** 
 127:Drivers/lvgl/src/hal/../draw/../misc/lv_color.h **** # define _LV_COLOR_ZERO_INITIALIZER8 {{0x00, 0x00, 0x00}}
 128:Drivers/lvgl/src/hal/../draw/../misc/lv_color.h **** # define LV_COLOR_MAKE8(r8, g8, b8) {{(uint8_t)((b8 >> 6) & 0x3U), (uint8_t)((g8 >> 5) & 0x7U), (ui
 129:Drivers/lvgl/src/hal/../draw/../misc/lv_color.h **** 
 130:Drivers/lvgl/src/hal/../draw/../misc/lv_color.h **** # define LV_COLOR_SET_R16(c, v) (c).ch.red = (uint8_t)((v) & 0x1FU)
 131:Drivers/lvgl/src/hal/../draw/../misc/lv_color.h **** #if LV_COLOR_16_SWAP == 0
 132:Drivers/lvgl/src/hal/../draw/../misc/lv_color.h **** # define LV_COLOR_SET_G16(c, v) (c).ch.green = (uint8_t)((v) & 0x3FU)
 133:Drivers/lvgl/src/hal/../draw/../misc/lv_color.h **** #else
 134:Drivers/lvgl/src/hal/../draw/../misc/lv_color.h **** # define LV_COLOR_SET_G16(c, v) {(c).ch.green_h = (uint8_t)(((v) >> 3) & 0x7); (c).ch.green_l = (ui
 135:Drivers/lvgl/src/hal/../draw/../misc/lv_color.h **** #endif
 136:Drivers/lvgl/src/hal/../draw/../misc/lv_color.h **** # define LV_COLOR_SET_B16(c, v) (c).ch.blue = (uint8_t)((v) & 0x1FU)
 137:Drivers/lvgl/src/hal/../draw/../misc/lv_color.h **** # define LV_COLOR_SET_A16(c, v) do {} while(0)
 138:Drivers/lvgl/src/hal/../draw/../misc/lv_color.h **** 
 139:Drivers/lvgl/src/hal/../draw/../misc/lv_color.h **** # define LV_COLOR_GET_R16(c) (c).ch.red
 140:Drivers/lvgl/src/hal/../draw/../misc/lv_color.h **** #if LV_COLOR_16_SWAP == 0
 141:Drivers/lvgl/src/hal/../draw/../misc/lv_color.h **** # define LV_COLOR_GET_G16(c) (c).ch.green
 142:Drivers/lvgl/src/hal/../draw/../misc/lv_color.h **** #else
 143:Drivers/lvgl/src/hal/../draw/../misc/lv_color.h **** # define LV_COLOR_GET_G16(c) (((c).ch.green_h << 3) + (c).ch.green_l)
 144:Drivers/lvgl/src/hal/../draw/../misc/lv_color.h **** #endif
 145:Drivers/lvgl/src/hal/../draw/../misc/lv_color.h **** # define LV_COLOR_GET_B16(c) (c).ch.blue
 146:Drivers/lvgl/src/hal/../draw/../misc/lv_color.h **** # define LV_COLOR_GET_A16(c) 0xFF
 147:Drivers/lvgl/src/hal/../draw/../misc/lv_color.h **** 
 148:Drivers/lvgl/src/hal/../draw/../misc/lv_color.h **** #if LV_COLOR_16_SWAP == 0
 149:Drivers/lvgl/src/hal/../draw/../misc/lv_color.h **** # define _LV_COLOR_ZERO_INITIALIZER16  {{0x00, 0x00, 0x00}}
 150:Drivers/lvgl/src/hal/../draw/../misc/lv_color.h **** # define LV_COLOR_MAKE16(r8, g8, b8) {{(uint8_t)((b8 >> 3) & 0x1FU), (uint8_t)((g8 >> 2) & 0x3FU), 
 151:Drivers/lvgl/src/hal/../draw/../misc/lv_color.h **** #else
 152:Drivers/lvgl/src/hal/../draw/../misc/lv_color.h **** # define _LV_COLOR_ZERO_INITIALIZER16 {{0x00, 0x00, 0x00, 0x00}}
 153:Drivers/lvgl/src/hal/../draw/../misc/lv_color.h **** # define LV_COLOR_MAKE16(r8, g8, b8) {{(uint8_t)((g8 >> 5) & 0x7U), (uint8_t)((r8 >> 3) & 0x1FU), (
 154:Drivers/lvgl/src/hal/../draw/../misc/lv_color.h **** #endif
 155:Drivers/lvgl/src/hal/../draw/../misc/lv_color.h **** 
 156:Drivers/lvgl/src/hal/../draw/../misc/lv_color.h **** # define LV_COLOR_SET_R32(c, v) (c).ch.red = (uint8_t)((v) & 0xFF)
 157:Drivers/lvgl/src/hal/../draw/../misc/lv_color.h **** # define LV_COLOR_SET_G32(c, v) (c).ch.green = (uint8_t)((v) & 0xFF)
 158:Drivers/lvgl/src/hal/../draw/../misc/lv_color.h **** # define LV_COLOR_SET_B32(c, v) (c).ch.blue = (uint8_t)((v) & 0xFF)
 159:Drivers/lvgl/src/hal/../draw/../misc/lv_color.h **** # define LV_COLOR_SET_A32(c, v) (c).ch.alpha = (uint8_t)((v) & 0xFF)
 160:Drivers/lvgl/src/hal/../draw/../misc/lv_color.h **** 
 161:Drivers/lvgl/src/hal/../draw/../misc/lv_color.h **** # define LV_COLOR_GET_R32(c) (c).ch.red
 162:Drivers/lvgl/src/hal/../draw/../misc/lv_color.h **** # define LV_COLOR_GET_G32(c) (c).ch.green
 163:Drivers/lvgl/src/hal/../draw/../misc/lv_color.h **** # define LV_COLOR_GET_B32(c) (c).ch.blue
 164:Drivers/lvgl/src/hal/../draw/../misc/lv_color.h **** # define LV_COLOR_GET_A32(c) (c).ch.alpha
 165:Drivers/lvgl/src/hal/../draw/../misc/lv_color.h **** 
ARM GAS  /var/folders/0z/tsy30v1j4xl4_7kw94k978ww0000gn/T//ccQFh5Uv.s 			page 17


 166:Drivers/lvgl/src/hal/../draw/../misc/lv_color.h **** # define _LV_COLOR_ZERO_INITIALIZER32  {{0x00, 0x00, 0x00, 0x00}}
 167:Drivers/lvgl/src/hal/../draw/../misc/lv_color.h **** # define LV_COLOR_MAKE32(r8, g8, b8) {{b8, g8, r8, 0xff}} /*Fix 0xff alpha*/
 168:Drivers/lvgl/src/hal/../draw/../misc/lv_color.h **** 
 169:Drivers/lvgl/src/hal/../draw/../misc/lv_color.h **** /*---------------------------------------
 170:Drivers/lvgl/src/hal/../draw/../misc/lv_color.h ****  * Macros for the current color depth
 171:Drivers/lvgl/src/hal/../draw/../misc/lv_color.h ****  * to set/get values of the color channels
 172:Drivers/lvgl/src/hal/../draw/../misc/lv_color.h ****  *------------------------------------------*/
 173:Drivers/lvgl/src/hal/../draw/../misc/lv_color.h **** #define LV_COLOR_SET_R(c, v) LV_CONCAT(LV_COLOR_SET_R, LV_COLOR_DEPTH)(c, v)
 174:Drivers/lvgl/src/hal/../draw/../misc/lv_color.h **** #define LV_COLOR_SET_G(c, v) LV_CONCAT(LV_COLOR_SET_G, LV_COLOR_DEPTH)(c, v)
 175:Drivers/lvgl/src/hal/../draw/../misc/lv_color.h **** #define LV_COLOR_SET_B(c, v) LV_CONCAT(LV_COLOR_SET_B, LV_COLOR_DEPTH)(c, v)
 176:Drivers/lvgl/src/hal/../draw/../misc/lv_color.h **** #define LV_COLOR_SET_A(c, v) LV_CONCAT(LV_COLOR_SET_A, LV_COLOR_DEPTH)(c, v)
 177:Drivers/lvgl/src/hal/../draw/../misc/lv_color.h **** 
 178:Drivers/lvgl/src/hal/../draw/../misc/lv_color.h **** #define LV_COLOR_GET_R(c) LV_CONCAT(LV_COLOR_GET_R, LV_COLOR_DEPTH)(c)
 179:Drivers/lvgl/src/hal/../draw/../misc/lv_color.h **** #define LV_COLOR_GET_G(c) LV_CONCAT(LV_COLOR_GET_G, LV_COLOR_DEPTH)(c)
 180:Drivers/lvgl/src/hal/../draw/../misc/lv_color.h **** #define LV_COLOR_GET_B(c) LV_CONCAT(LV_COLOR_GET_B, LV_COLOR_DEPTH)(c)
 181:Drivers/lvgl/src/hal/../draw/../misc/lv_color.h **** #define LV_COLOR_GET_A(c) LV_CONCAT(LV_COLOR_GET_A, LV_COLOR_DEPTH)(c)
 182:Drivers/lvgl/src/hal/../draw/../misc/lv_color.h **** 
 183:Drivers/lvgl/src/hal/../draw/../misc/lv_color.h **** #define _LV_COLOR_ZERO_INITIALIZER LV_CONCAT(_LV_COLOR_ZERO_INITIALIZER, LV_COLOR_DEPTH)
 184:Drivers/lvgl/src/hal/../draw/../misc/lv_color.h **** #define LV_COLOR_MAKE(r8, g8, b8) LV_CONCAT(LV_COLOR_MAKE, LV_COLOR_DEPTH)(r8, g8, b8)
 185:Drivers/lvgl/src/hal/../draw/../misc/lv_color.h **** 
 186:Drivers/lvgl/src/hal/../draw/../misc/lv_color.h **** /**********************
 187:Drivers/lvgl/src/hal/../draw/../misc/lv_color.h ****  *      TYPEDEFS
 188:Drivers/lvgl/src/hal/../draw/../misc/lv_color.h ****  **********************/
 189:Drivers/lvgl/src/hal/../draw/../misc/lv_color.h **** 
 190:Drivers/lvgl/src/hal/../draw/../misc/lv_color.h **** typedef union {
 191:Drivers/lvgl/src/hal/../draw/../misc/lv_color.h ****     uint8_t full; /*must be declared first to set all bits of byte via initializer list*/
 192:Drivers/lvgl/src/hal/../draw/../misc/lv_color.h ****     union {
 193:Drivers/lvgl/src/hal/../draw/../misc/lv_color.h ****         uint8_t blue : 1;
 194:Drivers/lvgl/src/hal/../draw/../misc/lv_color.h ****         uint8_t green : 1;
 195:Drivers/lvgl/src/hal/../draw/../misc/lv_color.h ****         uint8_t red : 1;
 196:Drivers/lvgl/src/hal/../draw/../misc/lv_color.h ****     } ch;
 197:Drivers/lvgl/src/hal/../draw/../misc/lv_color.h **** } lv_color1_t;
 198:Drivers/lvgl/src/hal/../draw/../misc/lv_color.h **** 
 199:Drivers/lvgl/src/hal/../draw/../misc/lv_color.h **** typedef union {
 200:Drivers/lvgl/src/hal/../draw/../misc/lv_color.h ****     struct {
 201:Drivers/lvgl/src/hal/../draw/../misc/lv_color.h ****         uint8_t blue : 2;
 202:Drivers/lvgl/src/hal/../draw/../misc/lv_color.h ****         uint8_t green : 3;
 203:Drivers/lvgl/src/hal/../draw/../misc/lv_color.h ****         uint8_t red : 3;
 204:Drivers/lvgl/src/hal/../draw/../misc/lv_color.h ****     } ch;
 205:Drivers/lvgl/src/hal/../draw/../misc/lv_color.h ****     uint8_t full;
 206:Drivers/lvgl/src/hal/../draw/../misc/lv_color.h **** } lv_color8_t;
 207:Drivers/lvgl/src/hal/../draw/../misc/lv_color.h **** 
 208:Drivers/lvgl/src/hal/../draw/../misc/lv_color.h **** typedef union {
 209:Drivers/lvgl/src/hal/../draw/../misc/lv_color.h ****     struct {
 210:Drivers/lvgl/src/hal/../draw/../misc/lv_color.h **** #if LV_COLOR_16_SWAP == 0
 211:Drivers/lvgl/src/hal/../draw/../misc/lv_color.h ****         uint16_t blue : 5;
 212:Drivers/lvgl/src/hal/../draw/../misc/lv_color.h ****         uint16_t green : 6;
 213:Drivers/lvgl/src/hal/../draw/../misc/lv_color.h ****         uint16_t red : 5;
 214:Drivers/lvgl/src/hal/../draw/../misc/lv_color.h **** #else
 215:Drivers/lvgl/src/hal/../draw/../misc/lv_color.h ****         uint16_t green_h : 3;
 216:Drivers/lvgl/src/hal/../draw/../misc/lv_color.h ****         uint16_t red : 5;
 217:Drivers/lvgl/src/hal/../draw/../misc/lv_color.h ****         uint16_t blue : 5;
 218:Drivers/lvgl/src/hal/../draw/../misc/lv_color.h ****         uint16_t green_l : 3;
 219:Drivers/lvgl/src/hal/../draw/../misc/lv_color.h **** #endif
 220:Drivers/lvgl/src/hal/../draw/../misc/lv_color.h ****     } ch;
 221:Drivers/lvgl/src/hal/../draw/../misc/lv_color.h ****     uint16_t full;
 222:Drivers/lvgl/src/hal/../draw/../misc/lv_color.h **** } lv_color16_t;
ARM GAS  /var/folders/0z/tsy30v1j4xl4_7kw94k978ww0000gn/T//ccQFh5Uv.s 			page 18


 223:Drivers/lvgl/src/hal/../draw/../misc/lv_color.h **** 
 224:Drivers/lvgl/src/hal/../draw/../misc/lv_color.h **** typedef union {
 225:Drivers/lvgl/src/hal/../draw/../misc/lv_color.h ****     struct {
 226:Drivers/lvgl/src/hal/../draw/../misc/lv_color.h ****         uint8_t blue;
 227:Drivers/lvgl/src/hal/../draw/../misc/lv_color.h ****         uint8_t green;
 228:Drivers/lvgl/src/hal/../draw/../misc/lv_color.h ****         uint8_t red;
 229:Drivers/lvgl/src/hal/../draw/../misc/lv_color.h ****         uint8_t alpha;
 230:Drivers/lvgl/src/hal/../draw/../misc/lv_color.h ****     } ch;
 231:Drivers/lvgl/src/hal/../draw/../misc/lv_color.h ****     uint32_t full;
 232:Drivers/lvgl/src/hal/../draw/../misc/lv_color.h **** } lv_color32_t;
 233:Drivers/lvgl/src/hal/../draw/../misc/lv_color.h **** 
 234:Drivers/lvgl/src/hal/../draw/../misc/lv_color.h **** typedef LV_CONCAT3(uint, LV_COLOR_SIZE, _t) lv_color_int_t;
 235:Drivers/lvgl/src/hal/../draw/../misc/lv_color.h **** typedef LV_CONCAT3(lv_color, LV_COLOR_DEPTH, _t) lv_color_t;
 236:Drivers/lvgl/src/hal/../draw/../misc/lv_color.h **** 
 237:Drivers/lvgl/src/hal/../draw/../misc/lv_color.h **** typedef struct {
 238:Drivers/lvgl/src/hal/../draw/../misc/lv_color.h ****     uint16_t h;
 239:Drivers/lvgl/src/hal/../draw/../misc/lv_color.h ****     uint8_t s;
 240:Drivers/lvgl/src/hal/../draw/../misc/lv_color.h ****     uint8_t v;
 241:Drivers/lvgl/src/hal/../draw/../misc/lv_color.h **** } lv_color_hsv_t;
 242:Drivers/lvgl/src/hal/../draw/../misc/lv_color.h **** 
 243:Drivers/lvgl/src/hal/../draw/../misc/lv_color.h **** //! @cond Doxygen_Suppress
 244:Drivers/lvgl/src/hal/../draw/../misc/lv_color.h **** /*No idea where the guard is required but else throws warnings in the docs*/
 245:Drivers/lvgl/src/hal/../draw/../misc/lv_color.h **** typedef uint8_t lv_opa_t;
 246:Drivers/lvgl/src/hal/../draw/../misc/lv_color.h **** //! @endcond
 247:Drivers/lvgl/src/hal/../draw/../misc/lv_color.h **** 
 248:Drivers/lvgl/src/hal/../draw/../misc/lv_color.h **** struct _lv_color_filter_dsc_t;
 249:Drivers/lvgl/src/hal/../draw/../misc/lv_color.h **** 
 250:Drivers/lvgl/src/hal/../draw/../misc/lv_color.h **** typedef lv_color_t (*lv_color_filter_cb_t)(const struct _lv_color_filter_dsc_t *, lv_color_t, lv_op
 251:Drivers/lvgl/src/hal/../draw/../misc/lv_color.h **** 
 252:Drivers/lvgl/src/hal/../draw/../misc/lv_color.h **** typedef struct _lv_color_filter_dsc_t {
 253:Drivers/lvgl/src/hal/../draw/../misc/lv_color.h ****     lv_color_filter_cb_t filter_cb;
 254:Drivers/lvgl/src/hal/../draw/../misc/lv_color.h ****     void * user_data;
 255:Drivers/lvgl/src/hal/../draw/../misc/lv_color.h **** } lv_color_filter_dsc_t;
 256:Drivers/lvgl/src/hal/../draw/../misc/lv_color.h **** 
 257:Drivers/lvgl/src/hal/../draw/../misc/lv_color.h **** 
 258:Drivers/lvgl/src/hal/../draw/../misc/lv_color.h **** typedef enum {
 259:Drivers/lvgl/src/hal/../draw/../misc/lv_color.h ****     LV_PALETTE_RED,
 260:Drivers/lvgl/src/hal/../draw/../misc/lv_color.h ****     LV_PALETTE_PINK,
 261:Drivers/lvgl/src/hal/../draw/../misc/lv_color.h ****     LV_PALETTE_PURPLE,
 262:Drivers/lvgl/src/hal/../draw/../misc/lv_color.h ****     LV_PALETTE_DEEP_PURPLE,
 263:Drivers/lvgl/src/hal/../draw/../misc/lv_color.h ****     LV_PALETTE_INDIGO,
 264:Drivers/lvgl/src/hal/../draw/../misc/lv_color.h ****     LV_PALETTE_BLUE,
 265:Drivers/lvgl/src/hal/../draw/../misc/lv_color.h ****     LV_PALETTE_LIGHT_BLUE,
 266:Drivers/lvgl/src/hal/../draw/../misc/lv_color.h ****     LV_PALETTE_CYAN,
 267:Drivers/lvgl/src/hal/../draw/../misc/lv_color.h ****     LV_PALETTE_TEAL,
 268:Drivers/lvgl/src/hal/../draw/../misc/lv_color.h ****     LV_PALETTE_GREEN,
 269:Drivers/lvgl/src/hal/../draw/../misc/lv_color.h ****     LV_PALETTE_LIGHT_GREEN,
 270:Drivers/lvgl/src/hal/../draw/../misc/lv_color.h ****     LV_PALETTE_LIME,
 271:Drivers/lvgl/src/hal/../draw/../misc/lv_color.h ****     LV_PALETTE_YELLOW,
 272:Drivers/lvgl/src/hal/../draw/../misc/lv_color.h ****     LV_PALETTE_AMBER,
 273:Drivers/lvgl/src/hal/../draw/../misc/lv_color.h ****     LV_PALETTE_ORANGE,
 274:Drivers/lvgl/src/hal/../draw/../misc/lv_color.h ****     LV_PALETTE_DEEP_ORANGE,
 275:Drivers/lvgl/src/hal/../draw/../misc/lv_color.h ****     LV_PALETTE_BROWN,
 276:Drivers/lvgl/src/hal/../draw/../misc/lv_color.h ****     LV_PALETTE_BLUE_GREY,
 277:Drivers/lvgl/src/hal/../draw/../misc/lv_color.h ****     LV_PALETTE_GREY,
 278:Drivers/lvgl/src/hal/../draw/../misc/lv_color.h ****     _LV_PALETTE_LAST,
 279:Drivers/lvgl/src/hal/../draw/../misc/lv_color.h ****     LV_PALETTE_NONE = 0xff,
ARM GAS  /var/folders/0z/tsy30v1j4xl4_7kw94k978ww0000gn/T//ccQFh5Uv.s 			page 19


 280:Drivers/lvgl/src/hal/../draw/../misc/lv_color.h **** } lv_palette_t;
 281:Drivers/lvgl/src/hal/../draw/../misc/lv_color.h **** 
 282:Drivers/lvgl/src/hal/../draw/../misc/lv_color.h **** /**********************
 283:Drivers/lvgl/src/hal/../draw/../misc/lv_color.h ****  * GLOBAL PROTOTYPES
 284:Drivers/lvgl/src/hal/../draw/../misc/lv_color.h ****  **********************/
 285:Drivers/lvgl/src/hal/../draw/../misc/lv_color.h **** 
 286:Drivers/lvgl/src/hal/../draw/../misc/lv_color.h **** /*In color conversations:
 287:Drivers/lvgl/src/hal/../draw/../misc/lv_color.h ****  * - When converting to bigger color type the LSB weight of 1 LSB is calculated
 288:Drivers/lvgl/src/hal/../draw/../misc/lv_color.h ****  *   E.g. 16 bit Red has 5 bits
 289:Drivers/lvgl/src/hal/../draw/../misc/lv_color.h ****  *         8 bit Red has 3 bits
 290:Drivers/lvgl/src/hal/../draw/../misc/lv_color.h ****  *        ----------------------
 291:Drivers/lvgl/src/hal/../draw/../misc/lv_color.h ****  *        8 bit red LSB = (2^5 - 1) / (2^3 - 1) = 31 / 7 = 4
 292:Drivers/lvgl/src/hal/../draw/../misc/lv_color.h ****  *
 293:Drivers/lvgl/src/hal/../draw/../misc/lv_color.h ****  * - When calculating to smaller color type simply shift out the LSBs
 294:Drivers/lvgl/src/hal/../draw/../misc/lv_color.h ****  *   E.g.  8 bit Red has 3 bits
 295:Drivers/lvgl/src/hal/../draw/../misc/lv_color.h ****  *        16 bit Red has 5 bits
 296:Drivers/lvgl/src/hal/../draw/../misc/lv_color.h ****  *        ----------------------
 297:Drivers/lvgl/src/hal/../draw/../misc/lv_color.h ****  *         Shift right with 5 - 3 = 2
 298:Drivers/lvgl/src/hal/../draw/../misc/lv_color.h ****  */
 299:Drivers/lvgl/src/hal/../draw/../misc/lv_color.h **** static inline uint8_t lv_color_to1(lv_color_t color)
 300:Drivers/lvgl/src/hal/../draw/../misc/lv_color.h **** {
 301:Drivers/lvgl/src/hal/../draw/../misc/lv_color.h **** #if LV_COLOR_DEPTH == 1
 302:Drivers/lvgl/src/hal/../draw/../misc/lv_color.h ****     return color.full;
 303:Drivers/lvgl/src/hal/../draw/../misc/lv_color.h **** #elif LV_COLOR_DEPTH == 8
 304:Drivers/lvgl/src/hal/../draw/../misc/lv_color.h ****     if((LV_COLOR_GET_R(color) & 0x4) || (LV_COLOR_GET_G(color) & 0x4) || (LV_COLOR_GET_B(color) & 0
 305:Drivers/lvgl/src/hal/../draw/../misc/lv_color.h ****         return 1;
 306:Drivers/lvgl/src/hal/../draw/../misc/lv_color.h ****     }
 307:Drivers/lvgl/src/hal/../draw/../misc/lv_color.h ****     else {
 308:Drivers/lvgl/src/hal/../draw/../misc/lv_color.h ****         return 0;
 309:Drivers/lvgl/src/hal/../draw/../misc/lv_color.h ****     }
 310:Drivers/lvgl/src/hal/../draw/../misc/lv_color.h **** #elif LV_COLOR_DEPTH == 16
 311:Drivers/lvgl/src/hal/../draw/../misc/lv_color.h ****     if((LV_COLOR_GET_R(color) & 0x10) || (LV_COLOR_GET_G(color) & 0x20) || (LV_COLOR_GET_B(color) &
 312:Drivers/lvgl/src/hal/../draw/../misc/lv_color.h ****         return 1;
 313:Drivers/lvgl/src/hal/../draw/../misc/lv_color.h ****     }
 314:Drivers/lvgl/src/hal/../draw/../misc/lv_color.h ****     else {
 315:Drivers/lvgl/src/hal/../draw/../misc/lv_color.h ****         return 0;
 316:Drivers/lvgl/src/hal/../draw/../misc/lv_color.h ****     }
 317:Drivers/lvgl/src/hal/../draw/../misc/lv_color.h **** #elif LV_COLOR_DEPTH == 32
 318:Drivers/lvgl/src/hal/../draw/../misc/lv_color.h ****     if((LV_COLOR_GET_R(color) & 0x80) || (LV_COLOR_GET_G(color) & 0x80) || (LV_COLOR_GET_B(color) &
 319:Drivers/lvgl/src/hal/../draw/../misc/lv_color.h ****         return 1;
 320:Drivers/lvgl/src/hal/../draw/../misc/lv_color.h ****     }
 321:Drivers/lvgl/src/hal/../draw/../misc/lv_color.h ****     else {
 322:Drivers/lvgl/src/hal/../draw/../misc/lv_color.h ****         return 0;
 323:Drivers/lvgl/src/hal/../draw/../misc/lv_color.h ****     }
 324:Drivers/lvgl/src/hal/../draw/../misc/lv_color.h **** #endif
 325:Drivers/lvgl/src/hal/../draw/../misc/lv_color.h **** }
 326:Drivers/lvgl/src/hal/../draw/../misc/lv_color.h **** 
 327:Drivers/lvgl/src/hal/../draw/../misc/lv_color.h **** static inline uint8_t lv_color_to8(lv_color_t color)
 328:Drivers/lvgl/src/hal/../draw/../misc/lv_color.h **** {
 329:Drivers/lvgl/src/hal/../draw/../misc/lv_color.h **** #if LV_COLOR_DEPTH == 1
 330:Drivers/lvgl/src/hal/../draw/../misc/lv_color.h ****     if(color.full == 0)
 331:Drivers/lvgl/src/hal/../draw/../misc/lv_color.h ****         return 0;
 332:Drivers/lvgl/src/hal/../draw/../misc/lv_color.h ****     else
 333:Drivers/lvgl/src/hal/../draw/../misc/lv_color.h ****         return 0xFF;
 334:Drivers/lvgl/src/hal/../draw/../misc/lv_color.h **** #elif LV_COLOR_DEPTH == 8
 335:Drivers/lvgl/src/hal/../draw/../misc/lv_color.h ****     return color.full;
 336:Drivers/lvgl/src/hal/../draw/../misc/lv_color.h **** #elif LV_COLOR_DEPTH == 16
ARM GAS  /var/folders/0z/tsy30v1j4xl4_7kw94k978ww0000gn/T//ccQFh5Uv.s 			page 20


 337:Drivers/lvgl/src/hal/../draw/../misc/lv_color.h ****     lv_color8_t ret;
 338:Drivers/lvgl/src/hal/../draw/../misc/lv_color.h ****     LV_COLOR_SET_R8(ret, LV_COLOR_GET_R(color) >> 2); /*5 - 3  = 2*/
 339:Drivers/lvgl/src/hal/../draw/../misc/lv_color.h ****     LV_COLOR_SET_G8(ret, LV_COLOR_GET_G(color) >> 3); /*6 - 3  = 3*/
 340:Drivers/lvgl/src/hal/../draw/../misc/lv_color.h ****     LV_COLOR_SET_B8(ret, LV_COLOR_GET_B(color) >> 3); /*5 - 2  = 3*/
 341:Drivers/lvgl/src/hal/../draw/../misc/lv_color.h ****     return ret.full;
 342:Drivers/lvgl/src/hal/../draw/../misc/lv_color.h **** #elif LV_COLOR_DEPTH == 32
 343:Drivers/lvgl/src/hal/../draw/../misc/lv_color.h ****     lv_color8_t ret;
 344:Drivers/lvgl/src/hal/../draw/../misc/lv_color.h ****     LV_COLOR_SET_R8(ret, LV_COLOR_GET_R(color) >> 5); /*8 - 3  = 5*/
 345:Drivers/lvgl/src/hal/../draw/../misc/lv_color.h ****     LV_COLOR_SET_G8(ret, LV_COLOR_GET_G(color) >> 5); /*8 - 3  = 5*/
 346:Drivers/lvgl/src/hal/../draw/../misc/lv_color.h ****     LV_COLOR_SET_B8(ret, LV_COLOR_GET_B(color) >> 6); /*8 - 2  = 6*/
 347:Drivers/lvgl/src/hal/../draw/../misc/lv_color.h ****     return ret.full;
 348:Drivers/lvgl/src/hal/../draw/../misc/lv_color.h **** #endif
 349:Drivers/lvgl/src/hal/../draw/../misc/lv_color.h **** }
 350:Drivers/lvgl/src/hal/../draw/../misc/lv_color.h **** 
 351:Drivers/lvgl/src/hal/../draw/../misc/lv_color.h **** static inline uint16_t lv_color_to16(lv_color_t color)
 352:Drivers/lvgl/src/hal/../draw/../misc/lv_color.h **** {
 353:Drivers/lvgl/src/hal/../draw/../misc/lv_color.h **** #if LV_COLOR_DEPTH == 1
 354:Drivers/lvgl/src/hal/../draw/../misc/lv_color.h ****     if(color.full == 0)
 355:Drivers/lvgl/src/hal/../draw/../misc/lv_color.h ****         return 0;
 356:Drivers/lvgl/src/hal/../draw/../misc/lv_color.h ****     else
 357:Drivers/lvgl/src/hal/../draw/../misc/lv_color.h ****         return 0xFFFF;
 358:Drivers/lvgl/src/hal/../draw/../misc/lv_color.h **** #elif LV_COLOR_DEPTH == 8
 359:Drivers/lvgl/src/hal/../draw/../misc/lv_color.h ****     lv_color16_t ret;
 360:Drivers/lvgl/src/hal/../draw/../misc/lv_color.h ****     LV_COLOR_SET_R16(ret, LV_COLOR_GET_R(color) * 4);  /*(2^5 - 1)/(2^3 - 1) = 31/7 = 4*/
 361:Drivers/lvgl/src/hal/../draw/../misc/lv_color.h ****     LV_COLOR_SET_G16(ret, LV_COLOR_GET_G(color) * 9);  /*(2^6 - 1)/(2^3 - 1) = 63/7 = 9*/
 362:Drivers/lvgl/src/hal/../draw/../misc/lv_color.h ****     LV_COLOR_SET_B16(ret, LV_COLOR_GET_B(color) * 10); /*(2^5 - 1)/(2^2 - 1) = 31/3 = 10*/
 363:Drivers/lvgl/src/hal/../draw/../misc/lv_color.h ****     return ret.full;
 364:Drivers/lvgl/src/hal/../draw/../misc/lv_color.h **** #elif LV_COLOR_DEPTH == 16
 365:Drivers/lvgl/src/hal/../draw/../misc/lv_color.h ****     return color.full;
 366:Drivers/lvgl/src/hal/../draw/../misc/lv_color.h **** #elif LV_COLOR_DEPTH == 32
 367:Drivers/lvgl/src/hal/../draw/../misc/lv_color.h ****     lv_color16_t ret;
 368:Drivers/lvgl/src/hal/../draw/../misc/lv_color.h ****     LV_COLOR_SET_R16(ret, LV_COLOR_GET_R(color) >> 3); /*8 - 5  = 3*/
 369:Drivers/lvgl/src/hal/../draw/../misc/lv_color.h ****     LV_COLOR_SET_G16(ret, LV_COLOR_GET_G(color) >> 2); /*8 - 6  = 2*/
 370:Drivers/lvgl/src/hal/../draw/../misc/lv_color.h ****     LV_COLOR_SET_B16(ret, LV_COLOR_GET_B(color) >> 3); /*8 - 5  = 3*/
 371:Drivers/lvgl/src/hal/../draw/../misc/lv_color.h ****     return ret.full;
 372:Drivers/lvgl/src/hal/../draw/../misc/lv_color.h **** #endif
 373:Drivers/lvgl/src/hal/../draw/../misc/lv_color.h **** }
 374:Drivers/lvgl/src/hal/../draw/../misc/lv_color.h **** 
 375:Drivers/lvgl/src/hal/../draw/../misc/lv_color.h **** static inline uint32_t lv_color_to32(lv_color_t color)
 376:Drivers/lvgl/src/hal/../draw/../misc/lv_color.h **** {
 377:Drivers/lvgl/src/hal/../draw/../misc/lv_color.h **** #if LV_COLOR_DEPTH == 1
 378:Drivers/lvgl/src/hal/../draw/../misc/lv_color.h ****     if(color.full == 0)
 379:Drivers/lvgl/src/hal/../draw/../misc/lv_color.h ****         return 0xFF000000;
 380:Drivers/lvgl/src/hal/../draw/../misc/lv_color.h ****     else
 381:Drivers/lvgl/src/hal/../draw/../misc/lv_color.h ****         return 0xFFFFFFFF;
 382:Drivers/lvgl/src/hal/../draw/../misc/lv_color.h **** #elif LV_COLOR_DEPTH == 8
 383:Drivers/lvgl/src/hal/../draw/../misc/lv_color.h ****     lv_color32_t ret;
 384:Drivers/lvgl/src/hal/../draw/../misc/lv_color.h ****     LV_COLOR_SET_R32(ret, LV_COLOR_GET_R(color) * 36); /*(2^8 - 1)/(2^3 - 1) = 255/7 = 36*/
 385:Drivers/lvgl/src/hal/../draw/../misc/lv_color.h ****     LV_COLOR_SET_G32(ret, LV_COLOR_GET_G(color) * 36); /*(2^8 - 1)/(2^3 - 1) = 255/7 = 36*/
 386:Drivers/lvgl/src/hal/../draw/../misc/lv_color.h ****     LV_COLOR_SET_B32(ret, LV_COLOR_GET_B(color) * 85); /*(2^8 - 1)/(2^2 - 1) = 255/3 = 85*/
 387:Drivers/lvgl/src/hal/../draw/../misc/lv_color.h ****     LV_COLOR_SET_A32(ret, 0xFF);
 388:Drivers/lvgl/src/hal/../draw/../misc/lv_color.h ****     return ret.full;
 389:Drivers/lvgl/src/hal/../draw/../misc/lv_color.h **** #elif LV_COLOR_DEPTH == 16
 390:Drivers/lvgl/src/hal/../draw/../misc/lv_color.h ****     /**
 391:Drivers/lvgl/src/hal/../draw/../misc/lv_color.h ****      * The floating point math for conversion is:
 392:Drivers/lvgl/src/hal/../draw/../misc/lv_color.h ****      *  valueto = valuefrom * ( (2^bitsto - 1) / (float)(2^bitsfrom - 1) )
 393:Drivers/lvgl/src/hal/../draw/../misc/lv_color.h ****      * The faster integer math for conversion is:
ARM GAS  /var/folders/0z/tsy30v1j4xl4_7kw94k978ww0000gn/T//ccQFh5Uv.s 			page 21


 394:Drivers/lvgl/src/hal/../draw/../misc/lv_color.h ****      *  valueto = ( valuefrom * multiplier + adder ) >> divisor
 395:Drivers/lvgl/src/hal/../draw/../misc/lv_color.h ****      *   multiplier = FLOOR( ( (2^bitsto - 1) << divisor ) / (float)(2^bitsfrom - 1) )
 396:Drivers/lvgl/src/hal/../draw/../misc/lv_color.h ****      *
 397:Drivers/lvgl/src/hal/../draw/../misc/lv_color.h ****      * Find the first divisor where ( adder >> divisor ) <= 0
 398:Drivers/lvgl/src/hal/../draw/../misc/lv_color.h ****      *
 399:Drivers/lvgl/src/hal/../draw/../misc/lv_color.h ****      * 5-bit to 8-bit: ( 31 * multiplier + adder ) >> divisor = 255
 400:Drivers/lvgl/src/hal/../draw/../misc/lv_color.h ****      * divisor  multiplier  adder  min (0)  max (31)
 401:Drivers/lvgl/src/hal/../draw/../misc/lv_color.h ****      *       0           8      7        7       255
 402:Drivers/lvgl/src/hal/../draw/../misc/lv_color.h ****      *       1          16     14        7       255
 403:Drivers/lvgl/src/hal/../draw/../misc/lv_color.h ****      *       2          32     28        7       255
 404:Drivers/lvgl/src/hal/../draw/../misc/lv_color.h ****      *       3          65     25        3       255
 405:Drivers/lvgl/src/hal/../draw/../misc/lv_color.h ****      *       4         131     19        1       255
 406:Drivers/lvgl/src/hal/../draw/../misc/lv_color.h ****      *       5         263      7        0       255
 407:Drivers/lvgl/src/hal/../draw/../misc/lv_color.h ****      *
 408:Drivers/lvgl/src/hal/../draw/../misc/lv_color.h ****      * 6-bit to 8-bit: 255 = ( 63 * multiplier + adder ) >> divisor
 409:Drivers/lvgl/src/hal/../draw/../misc/lv_color.h ****      * divisor  multiplier  adder  min (0)  max (63)
 410:Drivers/lvgl/src/hal/../draw/../misc/lv_color.h ****      *       0           4      3        3       255
 411:Drivers/lvgl/src/hal/../draw/../misc/lv_color.h ****      *       1           8      6        3       255
 412:Drivers/lvgl/src/hal/../draw/../misc/lv_color.h ****      *       2          16     12        3       255
 413:Drivers/lvgl/src/hal/../draw/../misc/lv_color.h ****      *       3          32     24        3       255
 414:Drivers/lvgl/src/hal/../draw/../misc/lv_color.h ****      *       4          64     48        3       255
 415:Drivers/lvgl/src/hal/../draw/../misc/lv_color.h ****      *       5         129     33        1       255
 416:Drivers/lvgl/src/hal/../draw/../misc/lv_color.h ****      *       6         259      3        0       255
 417:Drivers/lvgl/src/hal/../draw/../misc/lv_color.h ****      */
 418:Drivers/lvgl/src/hal/../draw/../misc/lv_color.h **** 
 419:Drivers/lvgl/src/hal/../draw/../misc/lv_color.h ****     lv_color32_t ret;
 420:Drivers/lvgl/src/hal/../draw/../misc/lv_color.h ****     LV_COLOR_SET_R32(ret, (LV_COLOR_GET_R(color) * 263 + 7) >> 5);
  72              		.loc 2 420 5 is_stmt 0 view .LVU10
  73 0000 C3F3C40C 		ubfx	ip, r3, #3, #5
  74              	.LBE48:
  75              	.LBE47:
  76              	.LBE46:
  77              	.LBE45:
 676:Drivers/lvgl/src/hal/lv_hal_disp.c ****     d->header.always_zero = 0;
  78              		.loc 1 676 1 view .LVU11
  79 0004 2DE9F041 		push	{r4, r5, r6, r7, r8, lr}
  80              		.cfi_def_cfa_offset 24
  81              		.cfi_offset 4, -24
  82              		.cfi_offset 5, -20
  83              		.cfi_offset 6, -16
  84              		.cfi_offset 7, -12
  85              		.cfi_offset 8, -8
  86              		.cfi_offset 14, -4
  87 0008 03F00706 		and	r6, r3, #7
  88 000c C3F3042E 		ubfx	lr, r3, #8, #5
  89 0010 C3F34234 		ubfx	r4, r3, #13, #3
  90              	.LBB64:
  91              	.LBB57:
  92              	.LBB53:
  93              	.LBB49:
  94              		.loc 2 420 5 view .LVU12
  95 0014 0CEB4C13 		add	r3, ip, ip, lsl #5
  96              	.LVL3:
 421:Drivers/lvgl/src/hal/../draw/../misc/lv_color.h ****     LV_COLOR_SET_G32(ret, (LV_COLOR_GET_G(color) * 259 + 3) >> 6);
  97              		.loc 2 421 5 view .LVU13
  98 0018 04EBC604 		add	r4, r4, r6, lsl #3
 420:Drivers/lvgl/src/hal/../draw/../misc/lv_color.h ****     LV_COLOR_SET_G32(ret, (LV_COLOR_GET_G(color) * 259 + 3) >> 6);
ARM GAS  /var/folders/0z/tsy30v1j4xl4_7kw94k978ww0000gn/T//ccQFh5Uv.s 			page 22


  99              		.loc 2 420 5 view .LVU14
 100 001c CCEBC30C 		rsb	ip, ip, r3, lsl #3
 101              		.loc 2 421 5 view .LVU15
 102 0020 04EBC416 		add	r6, r4, r4, lsl #7
 420:Drivers/lvgl/src/hal/../draw/../misc/lv_color.h ****     LV_COLOR_SET_G32(ret, (LV_COLOR_GET_G(color) * 259 + 3) >> 6);
 103              		.loc 2 420 5 view .LVU16
 104 0024 0CF1070C 		add	ip, ip, #7
 105 0028 4FEA6C13 		asr	r3, ip, #5
 106              		.loc 2 421 5 view .LVU17
 107 002c 04EB460C 		add	ip, r4, r6, lsl #1
 422:Drivers/lvgl/src/hal/../draw/../misc/lv_color.h ****     LV_COLOR_SET_B32(ret, (LV_COLOR_GET_B(color) * 263 + 7) >> 5);
 108              		.loc 2 422 5 view .LVU18
 109 0030 0EEB4E14 		add	r4, lr, lr, lsl #5
 110 0034 CEEBC40E 		rsb	lr, lr, r4, lsl #3
 421:Drivers/lvgl/src/hal/../draw/../misc/lv_color.h ****     LV_COLOR_SET_G32(ret, (LV_COLOR_GET_G(color) * 259 + 3) >> 6);
 111              		.loc 2 421 5 view .LVU19
 112 0038 0CF1030C 		add	ip, ip, #3
 420:Drivers/lvgl/src/hal/../draw/../misc/lv_color.h ****     LV_COLOR_SET_G32(ret, (LV_COLOR_GET_G(color) * 259 + 3) >> 6);
 113              		.loc 2 420 5 view .LVU20
 114 003c 0024     		movs	r4, #0
 115              	.LVL4:
 421:Drivers/lvgl/src/hal/../draw/../misc/lv_color.h ****     LV_COLOR_SET_G32(ret, (LV_COLOR_GET_G(color) * 259 + 3) >> 6);
 116              		.loc 2 421 5 view .LVU21
 117 003e 4FEAAC1C 		asr	ip, ip, #6
 420:Drivers/lvgl/src/hal/../draw/../misc/lv_color.h ****     LV_COLOR_SET_G32(ret, (LV_COLOR_GET_G(color) * 259 + 3) >> 6);
 118              		.loc 2 420 5 view .LVU22
 119 0042 63F31744 		bfi	r4, r3, #16, #8
 120              	.LVL5:
 121              		.loc 2 422 5 view .LVU23
 122 0046 0EF1070E 		add	lr, lr, #7
 123              	.LBE49:
 124              	.LBE53:
 125              	.LBE57:
 126              	.LBE64:
 677:Drivers/lvgl/src/hal/lv_hal_disp.c ****     d->header.h = 1;    /*Doesn't matter*/
 127              		.loc 1 677 27 view .LVU24
 128 004a 0368     		ldr	r3, [r0]
 676:Drivers/lvgl/src/hal/lv_hal_disp.c ****     d->header.always_zero = 0;
 129              		.loc 1 676 1 view .LVU25
 130 004c 9DF81880 		ldrb	r8, [sp, #24]	@ zero_extendqisi2
 131              	.LBB65:
 132              	.LBB58:
 133              	.LBB54:
 134              	.LBB50:
 421:Drivers/lvgl/src/hal/../draw/../misc/lv_color.h ****     LV_COLOR_SET_B32(ret, (LV_COLOR_GET_B(color) * 263 + 7) >> 5);
 135              		.loc 2 421 5 view .LVU26
 136 0050 6CF30F24 		bfi	r4, ip, #8, #8
 137              		.loc 2 422 5 view .LVU27
 138 0054 4FEA6E1E 		asr	lr, lr, #5
 139              	.LBE50:
 140              	.LBE54:
 141              	.LBE58:
 142              	.LBE65:
 677:Drivers/lvgl/src/hal/lv_hal_disp.c ****     d->header.h = 1;    /*Doesn't matter*/
 143              		.loc 1 677 27 view .LVU28
 144 0058 23F07F4C 		bic	ip, r3, #-16777216
 145              	.LBB66:
ARM GAS  /var/folders/0z/tsy30v1j4xl4_7kw94k978ww0000gn/T//ccQFh5Uv.s 			page 23


 146              	.LBB59:
 147              	.LBB55:
 148              	.LBB51:
 149              		.loc 2 422 5 view .LVU29
 150 005c 6EF30704 		bfi	r4, lr, #0, #8
 423:Drivers/lvgl/src/hal/../draw/../misc/lv_color.h ****     LV_COLOR_SET_A32(ret, 0xFF);
 151              		.loc 2 423 5 view .LVU30
 152 0060 44F07F44 		orr	r4, r4, #-16777216
 153              	.LVL6:
 154              		.loc 2 423 5 view .LVU31
 155              	.LBE51:
 156              	.LBE55:
 157              	.LBE59:
 158              	.LBE66:
 677:Drivers/lvgl/src/hal/lv_hal_disp.c ****     d->header.h = 1;    /*Doesn't matter*/
 159              		.loc 1 677 27 view .LVU32
 160 0064 2CF0E01C 		bic	ip, ip, #14680288
 161 0068 4CF40013 		orr	r3, ip, #2097152
 162              	.LVL7:
 163              	.LBB67:
 164              	.LBB60:
 424:Drivers/lvgl/src/hal/../draw/../misc/lv_color.h ****     return ret.full;
 425:Drivers/lvgl/src/hal/../draw/../misc/lv_color.h **** #elif LV_COLOR_DEPTH == 32
 426:Drivers/lvgl/src/hal/../draw/../misc/lv_color.h ****     return color.full;
 427:Drivers/lvgl/src/hal/../draw/../misc/lv_color.h **** #endif
 428:Drivers/lvgl/src/hal/../draw/../misc/lv_color.h **** }
 429:Drivers/lvgl/src/hal/../draw/../misc/lv_color.h **** 
 430:Drivers/lvgl/src/hal/../draw/../misc/lv_color.h **** //! @cond Doxygen_Suppress
 431:Drivers/lvgl/src/hal/../draw/../misc/lv_color.h **** 
 432:Drivers/lvgl/src/hal/../draw/../misc/lv_color.h **** /**
 433:Drivers/lvgl/src/hal/../draw/../misc/lv_color.h ****  * Mix two colors with a given ratio.
 434:Drivers/lvgl/src/hal/../draw/../misc/lv_color.h ****  * @param c1 the first color to mix (usually the foreground)
 435:Drivers/lvgl/src/hal/../draw/../misc/lv_color.h ****  * @param c2 the second color to mix (usually the background)
 436:Drivers/lvgl/src/hal/../draw/../misc/lv_color.h ****  * @param mix The ratio of the colors. 0: full `c2`, 255: full `c1`, 127: half `c1` and half`c2`
 437:Drivers/lvgl/src/hal/../draw/../misc/lv_color.h ****  * @return the mixed color
 438:Drivers/lvgl/src/hal/../draw/../misc/lv_color.h ****  */
 439:Drivers/lvgl/src/hal/../draw/../misc/lv_color.h **** static inline lv_color_t LV_ATTRIBUTE_FAST_MEM lv_color_mix(lv_color_t c1, lv_color_t c2, uint8_t m
 440:Drivers/lvgl/src/hal/../draw/../misc/lv_color.h **** {
 441:Drivers/lvgl/src/hal/../draw/../misc/lv_color.h ****     lv_color_t ret;
 442:Drivers/lvgl/src/hal/../draw/../misc/lv_color.h **** 
 443:Drivers/lvgl/src/hal/../draw/../misc/lv_color.h **** #if LV_COLOR_DEPTH == 16 && LV_COLOR_MIX_ROUND_OFS == 0
 444:Drivers/lvgl/src/hal/../draw/../misc/lv_color.h **** #if LV_COLOR_16_SWAP == 1
 445:Drivers/lvgl/src/hal/../draw/../misc/lv_color.h ****     c1.full = c1.full << 8 | c1.full >> 8;
 446:Drivers/lvgl/src/hal/../draw/../misc/lv_color.h ****     c2.full = c2.full << 8 | c2.full >> 8;
 447:Drivers/lvgl/src/hal/../draw/../misc/lv_color.h **** #endif
 448:Drivers/lvgl/src/hal/../draw/../misc/lv_color.h ****     /*Source: https://stackoverflow.com/a/50012418/1999969*/
 449:Drivers/lvgl/src/hal/../draw/../misc/lv_color.h ****     mix = (uint32_t)((uint32_t)mix + 4) >> 3;
 450:Drivers/lvgl/src/hal/../draw/../misc/lv_color.h ****     uint32_t bg = (uint32_t)((uint32_t)c2.full | ((uint32_t)c2.full << 16)) &
 451:Drivers/lvgl/src/hal/../draw/../misc/lv_color.h ****                   0x7E0F81F; /*0b00000111111000001111100000011111*/
 452:Drivers/lvgl/src/hal/../draw/../misc/lv_color.h ****     uint32_t fg = (uint32_t)((uint32_t)c1.full | ((uint32_t)c1.full << 16)) & 0x7E0F81F;
 453:Drivers/lvgl/src/hal/../draw/../misc/lv_color.h ****     uint32_t result = ((((fg - bg) * mix) >> 5) + bg) & 0x7E0F81F;
 454:Drivers/lvgl/src/hal/../draw/../misc/lv_color.h ****     ret.full = (uint16_t)((result >> 16) | result);
 455:Drivers/lvgl/src/hal/../draw/../misc/lv_color.h **** #if LV_COLOR_16_SWAP == 1
 456:Drivers/lvgl/src/hal/../draw/../misc/lv_color.h ****     ret.full = ret.full << 8 | ret.full >> 8;
 457:Drivers/lvgl/src/hal/../draw/../misc/lv_color.h **** #endif
 458:Drivers/lvgl/src/hal/../draw/../misc/lv_color.h **** #elif LV_COLOR_DEPTH != 1
 459:Drivers/lvgl/src/hal/../draw/../misc/lv_color.h ****     /*LV_COLOR_DEPTH == 8, 16 or 32*/
ARM GAS  /var/folders/0z/tsy30v1j4xl4_7kw94k978ww0000gn/T//ccQFh5Uv.s 			page 24


 460:Drivers/lvgl/src/hal/../draw/../misc/lv_color.h ****     LV_COLOR_SET_R(ret, LV_UDIV255((uint16_t)LV_COLOR_GET_R(c1) * mix + LV_COLOR_GET_R(c2) *
 461:Drivers/lvgl/src/hal/../draw/../misc/lv_color.h ****                                    (255 - mix) + LV_COLOR_MIX_ROUND_OFS));
 462:Drivers/lvgl/src/hal/../draw/../misc/lv_color.h ****     LV_COLOR_SET_G(ret, LV_UDIV255((uint16_t)LV_COLOR_GET_G(c1) * mix + LV_COLOR_GET_G(c2) *
 463:Drivers/lvgl/src/hal/../draw/../misc/lv_color.h ****                                    (255 - mix) + LV_COLOR_MIX_ROUND_OFS));
 464:Drivers/lvgl/src/hal/../draw/../misc/lv_color.h ****     LV_COLOR_SET_B(ret, LV_UDIV255((uint16_t)LV_COLOR_GET_B(c1) * mix + LV_COLOR_GET_B(c2) *
 465:Drivers/lvgl/src/hal/../draw/../misc/lv_color.h ****                                    (255 - mix) + LV_COLOR_MIX_ROUND_OFS));
 466:Drivers/lvgl/src/hal/../draw/../misc/lv_color.h ****     LV_COLOR_SET_A(ret, 0xFF);
 467:Drivers/lvgl/src/hal/../draw/../misc/lv_color.h **** #else
 468:Drivers/lvgl/src/hal/../draw/../misc/lv_color.h ****     /*LV_COLOR_DEPTH == 1*/
 469:Drivers/lvgl/src/hal/../draw/../misc/lv_color.h ****     ret.full = mix > LV_OPA_50 ? c1.full : c2.full;
 470:Drivers/lvgl/src/hal/../draw/../misc/lv_color.h **** #endif
 471:Drivers/lvgl/src/hal/../draw/../misc/lv_color.h **** 
 472:Drivers/lvgl/src/hal/../draw/../misc/lv_color.h ****     return ret;
 473:Drivers/lvgl/src/hal/../draw/../misc/lv_color.h **** }
 474:Drivers/lvgl/src/hal/../draw/../misc/lv_color.h **** 
 475:Drivers/lvgl/src/hal/../draw/../misc/lv_color.h **** static inline void LV_ATTRIBUTE_FAST_MEM lv_color_premult(lv_color_t c, uint8_t mix, uint16_t * out
 476:Drivers/lvgl/src/hal/../draw/../misc/lv_color.h **** {
 477:Drivers/lvgl/src/hal/../draw/../misc/lv_color.h **** #if LV_COLOR_DEPTH != 1
 478:Drivers/lvgl/src/hal/../draw/../misc/lv_color.h ****     out[0] = (uint16_t)LV_COLOR_GET_R(c) * mix;
 479:Drivers/lvgl/src/hal/../draw/../misc/lv_color.h ****     out[1] = (uint16_t)LV_COLOR_GET_G(c) * mix;
 480:Drivers/lvgl/src/hal/../draw/../misc/lv_color.h ****     out[2] = (uint16_t)LV_COLOR_GET_B(c) * mix;
 481:Drivers/lvgl/src/hal/../draw/../misc/lv_color.h **** #else
 482:Drivers/lvgl/src/hal/../draw/../misc/lv_color.h ****     (void) mix;
 483:Drivers/lvgl/src/hal/../draw/../misc/lv_color.h ****     /*Pre-multiplication can't be used with 1 bpp*/
 484:Drivers/lvgl/src/hal/../draw/../misc/lv_color.h ****     out[0] = LV_COLOR_GET_R(c);
 485:Drivers/lvgl/src/hal/../draw/../misc/lv_color.h ****     out[1] = LV_COLOR_GET_G(c);
 486:Drivers/lvgl/src/hal/../draw/../misc/lv_color.h ****     out[2] = LV_COLOR_GET_B(c);
 487:Drivers/lvgl/src/hal/../draw/../misc/lv_color.h **** #endif
 488:Drivers/lvgl/src/hal/../draw/../misc/lv_color.h **** 
 489:Drivers/lvgl/src/hal/../draw/../misc/lv_color.h **** }
 490:Drivers/lvgl/src/hal/../draw/../misc/lv_color.h **** 
 491:Drivers/lvgl/src/hal/../draw/../misc/lv_color.h **** /**
 492:Drivers/lvgl/src/hal/../draw/../misc/lv_color.h ****  * Mix two colors with a given ratio. It runs faster then `lv_color_mix` but requires some pre comp
 493:Drivers/lvgl/src/hal/../draw/../misc/lv_color.h ****  * @param premult_c1 The first color. Should be preprocessed with `lv_color_premult(c1)`
 494:Drivers/lvgl/src/hal/../draw/../misc/lv_color.h ****  * @param c2 The second color. As it is no pre computation required on it
 495:Drivers/lvgl/src/hal/../draw/../misc/lv_color.h ****  * @param mix The ratio of the colors. 0: full `c1`, 255: full `c2`, 127: half `c1` and half `c2`.
 496:Drivers/lvgl/src/hal/../draw/../misc/lv_color.h ****  *            Should be modified like mix = `255 - mix`
 497:Drivers/lvgl/src/hal/../draw/../misc/lv_color.h ****  * @return the mixed color
 498:Drivers/lvgl/src/hal/../draw/../misc/lv_color.h ****  * @note 255 won't give clearly `c1`.
 499:Drivers/lvgl/src/hal/../draw/../misc/lv_color.h ****  */
 500:Drivers/lvgl/src/hal/../draw/../misc/lv_color.h **** static inline lv_color_t LV_ATTRIBUTE_FAST_MEM lv_color_mix_premult(uint16_t * premult_c1, lv_color
 501:Drivers/lvgl/src/hal/../draw/../misc/lv_color.h **** {
 502:Drivers/lvgl/src/hal/../draw/../misc/lv_color.h ****     lv_color_t ret;
 503:Drivers/lvgl/src/hal/../draw/../misc/lv_color.h **** #if LV_COLOR_DEPTH != 1
 504:Drivers/lvgl/src/hal/../draw/../misc/lv_color.h ****     /*LV_COLOR_DEPTH == 8 or 32*/
 505:Drivers/lvgl/src/hal/../draw/../misc/lv_color.h ****     LV_COLOR_SET_R(ret, LV_UDIV255(premult_c1[0] + LV_COLOR_GET_R(c2) * mix + LV_COLOR_MIX_ROUND_OF
 506:Drivers/lvgl/src/hal/../draw/../misc/lv_color.h ****     LV_COLOR_SET_G(ret, LV_UDIV255(premult_c1[1] + LV_COLOR_GET_G(c2) * mix + LV_COLOR_MIX_ROUND_OF
 507:Drivers/lvgl/src/hal/../draw/../misc/lv_color.h ****     LV_COLOR_SET_B(ret, LV_UDIV255(premult_c1[2] + LV_COLOR_GET_B(c2) * mix + LV_COLOR_MIX_ROUND_OF
 508:Drivers/lvgl/src/hal/../draw/../misc/lv_color.h ****     LV_COLOR_SET_A(ret, 0xFF);
 509:Drivers/lvgl/src/hal/../draw/../misc/lv_color.h **** #else
 510:Drivers/lvgl/src/hal/../draw/../misc/lv_color.h ****     /*LV_COLOR_DEPTH == 1*/
 511:Drivers/lvgl/src/hal/../draw/../misc/lv_color.h ****     /*Restore color1*/
 512:Drivers/lvgl/src/hal/../draw/../misc/lv_color.h ****     lv_color_t c1;
 513:Drivers/lvgl/src/hal/../draw/../misc/lv_color.h ****     LV_COLOR_SET_R(c1, premult_c1[0]);
 514:Drivers/lvgl/src/hal/../draw/../misc/lv_color.h ****     LV_COLOR_SET_G(c1, premult_c1[1]);
 515:Drivers/lvgl/src/hal/../draw/../misc/lv_color.h ****     LV_COLOR_SET_B(c1, premult_c1[2]);
 516:Drivers/lvgl/src/hal/../draw/../misc/lv_color.h ****     ret.full = mix > LV_OPA_50 ? c2.full : c1.full;
ARM GAS  /var/folders/0z/tsy30v1j4xl4_7kw94k978ww0000gn/T//ccQFh5Uv.s 			page 25


 517:Drivers/lvgl/src/hal/../draw/../misc/lv_color.h **** #endif
 518:Drivers/lvgl/src/hal/../draw/../misc/lv_color.h **** 
 519:Drivers/lvgl/src/hal/../draw/../misc/lv_color.h ****     return ret;
 520:Drivers/lvgl/src/hal/../draw/../misc/lv_color.h **** }
 521:Drivers/lvgl/src/hal/../draw/../misc/lv_color.h **** 
 522:Drivers/lvgl/src/hal/../draw/../misc/lv_color.h **** /**
 523:Drivers/lvgl/src/hal/../draw/../misc/lv_color.h ****  * Mix two colors. Both color can have alpha value.
 524:Drivers/lvgl/src/hal/../draw/../misc/lv_color.h ****  * @param bg_color background color
 525:Drivers/lvgl/src/hal/../draw/../misc/lv_color.h ****  * @param bg_opa alpha of the background color
 526:Drivers/lvgl/src/hal/../draw/../misc/lv_color.h ****  * @param fg_color foreground color
 527:Drivers/lvgl/src/hal/../draw/../misc/lv_color.h ****  * @param fg_opa alpha of the foreground color
 528:Drivers/lvgl/src/hal/../draw/../misc/lv_color.h ****  * @param res_color the result color
 529:Drivers/lvgl/src/hal/../draw/../misc/lv_color.h ****  * @param res_opa the result opacity
 530:Drivers/lvgl/src/hal/../draw/../misc/lv_color.h ****  */
 531:Drivers/lvgl/src/hal/../draw/../misc/lv_color.h **** static inline void LV_ATTRIBUTE_FAST_MEM lv_color_mix_with_alpha(lv_color_t bg_color, lv_opa_t bg_o
 532:Drivers/lvgl/src/hal/../draw/../misc/lv_color.h ****                                                                  lv_color_t fg_color, lv_opa_t fg_o
 533:Drivers/lvgl/src/hal/../draw/../misc/lv_color.h ****                                                                  lv_color_t * res_color, lv_opa_t *
 534:Drivers/lvgl/src/hal/../draw/../misc/lv_color.h **** {
 535:Drivers/lvgl/src/hal/../draw/../misc/lv_color.h ****     /*Pick the foreground if it's fully opaque or the Background is fully transparent*/
 536:Drivers/lvgl/src/hal/../draw/../misc/lv_color.h ****     if(fg_opa >= LV_OPA_MAX || bg_opa <= LV_OPA_MIN) {
 537:Drivers/lvgl/src/hal/../draw/../misc/lv_color.h ****         res_color->full = fg_color.full;
 538:Drivers/lvgl/src/hal/../draw/../misc/lv_color.h ****         *res_opa = fg_opa;
 539:Drivers/lvgl/src/hal/../draw/../misc/lv_color.h ****     }
 540:Drivers/lvgl/src/hal/../draw/../misc/lv_color.h ****     /*Transparent foreground: use the Background*/
 541:Drivers/lvgl/src/hal/../draw/../misc/lv_color.h ****     else if(fg_opa <= LV_OPA_MIN) {
 542:Drivers/lvgl/src/hal/../draw/../misc/lv_color.h ****         res_color->full = bg_color.full;
 543:Drivers/lvgl/src/hal/../draw/../misc/lv_color.h ****         *res_opa = bg_opa;
 544:Drivers/lvgl/src/hal/../draw/../misc/lv_color.h ****     }
 545:Drivers/lvgl/src/hal/../draw/../misc/lv_color.h ****     /*Opaque background: use simple mix*/
 546:Drivers/lvgl/src/hal/../draw/../misc/lv_color.h ****     else if(bg_opa >= LV_OPA_MAX) {
 547:Drivers/lvgl/src/hal/../draw/../misc/lv_color.h ****         *res_color = lv_color_mix(fg_color, bg_color, fg_opa);
 548:Drivers/lvgl/src/hal/../draw/../misc/lv_color.h ****         *res_opa = LV_OPA_COVER;
 549:Drivers/lvgl/src/hal/../draw/../misc/lv_color.h ****     }
 550:Drivers/lvgl/src/hal/../draw/../misc/lv_color.h ****     /*Both colors have alpha. Expensive calculation need to be applied*/
 551:Drivers/lvgl/src/hal/../draw/../misc/lv_color.h ****     else {
 552:Drivers/lvgl/src/hal/../draw/../misc/lv_color.h ****         /*Save the parameters and the result. If they will be asked again don't compute again*/
 553:Drivers/lvgl/src/hal/../draw/../misc/lv_color.h ****         static lv_opa_t fg_opa_save     = 0;
 554:Drivers/lvgl/src/hal/../draw/../misc/lv_color.h ****         static lv_opa_t bg_opa_save     = 0;
 555:Drivers/lvgl/src/hal/../draw/../misc/lv_color.h ****         static lv_color_t fg_color_save = _LV_COLOR_ZERO_INITIALIZER;
 556:Drivers/lvgl/src/hal/../draw/../misc/lv_color.h ****         static lv_color_t bg_color_save = _LV_COLOR_ZERO_INITIALIZER;
 557:Drivers/lvgl/src/hal/../draw/../misc/lv_color.h ****         static lv_color_t res_color_saved = _LV_COLOR_ZERO_INITIALIZER;
 558:Drivers/lvgl/src/hal/../draw/../misc/lv_color.h ****         static lv_opa_t res_opa_saved = 0;
 559:Drivers/lvgl/src/hal/../draw/../misc/lv_color.h **** 
 560:Drivers/lvgl/src/hal/../draw/../misc/lv_color.h ****         if(fg_opa != fg_opa_save || bg_opa != bg_opa_save || fg_color.full != fg_color_save.full ||
 561:Drivers/lvgl/src/hal/../draw/../misc/lv_color.h ****            bg_color.full != bg_color_save.full) {
 562:Drivers/lvgl/src/hal/../draw/../misc/lv_color.h ****             fg_opa_save        = fg_opa;
 563:Drivers/lvgl/src/hal/../draw/../misc/lv_color.h ****             bg_opa_save        = bg_opa;
 564:Drivers/lvgl/src/hal/../draw/../misc/lv_color.h ****             fg_color_save.full = fg_color.full;
 565:Drivers/lvgl/src/hal/../draw/../misc/lv_color.h ****             bg_color_save.full = bg_color.full;
 566:Drivers/lvgl/src/hal/../draw/../misc/lv_color.h ****             /*Info:
 567:Drivers/lvgl/src/hal/../draw/../misc/lv_color.h ****              * https://en.wikipedia.org/wiki/Alpha_compositing#Analytical_derivation_of_the_over_op
 568:Drivers/lvgl/src/hal/../draw/../misc/lv_color.h ****             res_opa_saved = 255 - ((uint16_t)((uint16_t)(255 - fg_opa) * (255 - bg_opa)) >> 8);
 569:Drivers/lvgl/src/hal/../draw/../misc/lv_color.h ****             LV_ASSERT(res_opa_saved != 0);
 570:Drivers/lvgl/src/hal/../draw/../misc/lv_color.h ****             lv_opa_t ratio = (uint16_t)((uint16_t)fg_opa * 255) / res_opa_saved;
 571:Drivers/lvgl/src/hal/../draw/../misc/lv_color.h ****             res_color_saved = lv_color_mix(fg_color, bg_color, ratio);
 572:Drivers/lvgl/src/hal/../draw/../misc/lv_color.h **** 
 573:Drivers/lvgl/src/hal/../draw/../misc/lv_color.h ****         }
ARM GAS  /var/folders/0z/tsy30v1j4xl4_7kw94k978ww0000gn/T//ccQFh5Uv.s 			page 26


 574:Drivers/lvgl/src/hal/../draw/../misc/lv_color.h **** 
 575:Drivers/lvgl/src/hal/../draw/../misc/lv_color.h ****         res_color->full = res_color_saved.full;
 576:Drivers/lvgl/src/hal/../draw/../misc/lv_color.h ****         *res_opa = res_opa_saved;
 577:Drivers/lvgl/src/hal/../draw/../misc/lv_color.h ****     }
 578:Drivers/lvgl/src/hal/../draw/../misc/lv_color.h **** }
 579:Drivers/lvgl/src/hal/../draw/../misc/lv_color.h **** 
 580:Drivers/lvgl/src/hal/../draw/../misc/lv_color.h **** //! @endcond
 581:Drivers/lvgl/src/hal/../draw/../misc/lv_color.h **** 
 582:Drivers/lvgl/src/hal/../draw/../misc/lv_color.h **** /**
 583:Drivers/lvgl/src/hal/../draw/../misc/lv_color.h ****  * Get the brightness of a color
 584:Drivers/lvgl/src/hal/../draw/../misc/lv_color.h ****  * @param color a color
 585:Drivers/lvgl/src/hal/../draw/../misc/lv_color.h ****  * @return the brightness [0..255]
 586:Drivers/lvgl/src/hal/../draw/../misc/lv_color.h ****  */
 587:Drivers/lvgl/src/hal/../draw/../misc/lv_color.h **** static inline uint8_t lv_color_brightness(lv_color_t color)
 588:Drivers/lvgl/src/hal/../draw/../misc/lv_color.h **** {
 589:Drivers/lvgl/src/hal/../draw/../misc/lv_color.h ****     lv_color32_t c32;
 590:Drivers/lvgl/src/hal/../draw/../misc/lv_color.h ****     c32.full        = lv_color_to32(color);
 591:Drivers/lvgl/src/hal/../draw/../misc/lv_color.h ****     uint16_t bright = (uint16_t)(3u * LV_COLOR_GET_R32(c32) + LV_COLOR_GET_B32(c32) + 4u * LV_COLOR
 165              		.loc 2 591 39 view .LVU33
 166 006c C4F3074C 		ubfx	ip, r4, #16, #8
 167              	.LBE60:
 168              	.LBE67:
 677:Drivers/lvgl/src/hal/lv_hal_disp.c ****     d->header.h = 1;    /*Doesn't matter*/
 169              		.loc 1 677 27 view .LVU34
 170 0070 0360     		str	r3, [r0]
 679:Drivers/lvgl/src/hal/lv_hal_disp.c **** 
 680:Drivers/lvgl/src/hal/lv_hal_disp.c ****     uint8_t br = lv_color_brightness(color);
 171              		.loc 1 680 5 is_stmt 1 view .LVU35
 172              	.LVL8:
 173              	.LBB68:
 174              	.LBI45:
 587:Drivers/lvgl/src/hal/../draw/../misc/lv_color.h **** {
 175              		.loc 2 587 23 view .LVU36
 176              	.LBB61:
 589:Drivers/lvgl/src/hal/../draw/../misc/lv_color.h ****     c32.full        = lv_color_to32(color);
 177              		.loc 2 589 5 view .LVU37
 590:Drivers/lvgl/src/hal/../draw/../misc/lv_color.h ****     uint16_t bright = (uint16_t)(3u * LV_COLOR_GET_R32(c32) + LV_COLOR_GET_B32(c32) + 4u * LV_COLOR
 178              		.loc 2 590 5 view .LVU38
 179              	.LBB56:
 180              	.LBI47:
 375:Drivers/lvgl/src/hal/../draw/../misc/lv_color.h **** {
 181              		.loc 2 375 24 view .LVU39
 182              	.LBB52:
 419:Drivers/lvgl/src/hal/../draw/../misc/lv_color.h ****     LV_COLOR_SET_R32(ret, (LV_COLOR_GET_R(color) * 263 + 7) >> 5);
 183              		.loc 2 419 5 view .LVU40
 420:Drivers/lvgl/src/hal/../draw/../misc/lv_color.h ****     LV_COLOR_SET_G32(ret, (LV_COLOR_GET_G(color) * 259 + 3) >> 6);
 184              		.loc 2 420 5 view .LVU41
 421:Drivers/lvgl/src/hal/../draw/../misc/lv_color.h ****     LV_COLOR_SET_B32(ret, (LV_COLOR_GET_B(color) * 263 + 7) >> 5);
 185              		.loc 2 421 5 view .LVU42
 422:Drivers/lvgl/src/hal/../draw/../misc/lv_color.h ****     LV_COLOR_SET_A32(ret, 0xFF);
 186              		.loc 2 422 5 view .LVU43
 423:Drivers/lvgl/src/hal/../draw/../misc/lv_color.h ****     return ret.full;
 187              		.loc 2 423 5 view .LVU44
 424:Drivers/lvgl/src/hal/../draw/../misc/lv_color.h **** #elif LV_COLOR_DEPTH == 32
 188              		.loc 2 424 5 view .LVU45
 424:Drivers/lvgl/src/hal/../draw/../misc/lv_color.h **** #elif LV_COLOR_DEPTH == 32
 189              		.loc 2 424 5 is_stmt 0 view .LVU46
ARM GAS  /var/folders/0z/tsy30v1j4xl4_7kw94k978ww0000gn/T//ccQFh5Uv.s 			page 27


 190              	.LBE52:
 191              	.LBE56:
 192              		.loc 2 591 5 is_stmt 1 view .LVU47
 592:Drivers/lvgl/src/hal/../draw/../misc/lv_color.h ****     return (uint8_t)(bright >> 3);
 193              		.loc 2 592 5 view .LVU48
 591:Drivers/lvgl/src/hal/../draw/../misc/lv_color.h ****     return (uint8_t)(bright >> 3);
 194              		.loc 2 591 37 is_stmt 0 view .LVU49
 195 0072 0CEB4C0C 		add	ip, ip, ip, lsl #1
 591:Drivers/lvgl/src/hal/../draw/../misc/lv_color.h ****     return (uint8_t)(bright >> 3);
 196              		.loc 2 591 92 view .LVU50
 197 0076 C4F30723 		ubfx	r3, r4, #8, #8
 591:Drivers/lvgl/src/hal/../draw/../misc/lv_color.h ****     return (uint8_t)(bright >> 3);
 198              		.loc 2 591 85 view .LVU51
 199 007a 0CEB830C 		add	ip, ip, r3, lsl #2
 591:Drivers/lvgl/src/hal/../draw/../misc/lv_color.h ****     return (uint8_t)(bright >> 3);
 200              		.loc 2 591 14 view .LVU52
 201 007e 5CFA84F4 		uxtab	r4, ip, r4
 202              	.LVL9:
 591:Drivers/lvgl/src/hal/../draw/../misc/lv_color.h ****     return (uint8_t)(bright >> 3);
 203              		.loc 2 591 14 view .LVU53
 204              	.LBE61:
 205              	.LBE68:
 681:Drivers/lvgl/src/hal/lv_hal_disp.c ****     if(opa < LV_OPA_MAX) {
 206              		.loc 1 681 7 view .LVU54
 207 0082 B8F1FC0F 		cmp	r8, #252
 676:Drivers/lvgl/src/hal/lv_hal_disp.c ****     d->header.always_zero = 0;
 208              		.loc 1 676 1 view .LVU55
 209 0086 0546     		mov	r5, r0
 210              	.LBB69:
 211              	.LBB62:
 212              		.loc 2 592 12 view .LVU56
 213 0088 C4F3CC04 		ubfx	r4, r4, #3, #13
 214              	.LVL10:
 215              		.loc 2 592 12 view .LVU57
 216              	.LBE62:
 217              	.LBE69:
 218              		.loc 1 681 5 is_stmt 1 view .LVU58
 676:Drivers/lvgl/src/hal/lv_hal_disp.c ****     d->header.always_zero = 0;
 219              		.loc 1 676 1 is_stmt 0 view .LVU59
 220 008c 0E46     		mov	r6, r1
 221 008e 1746     		mov	r7, r2
 222              		.loc 1 681 7 view .LVU60
 223 0090 07D9     		bls	.L5
 224              	.LBB70:
 225              	.LBB63:
 226              		.loc 2 592 12 view .LVU61
 227 0092 E3B2     		uxtb	r3, r4
 228              	.LVL11:
 229              		.loc 2 592 12 view .LVU62
 230              	.LBE63:
 231              	.LBE70:
 682:Drivers/lvgl/src/hal/lv_hal_disp.c ****         uint8_t bg = lv_img_buf_get_px_alpha(d, x, y);
 683:Drivers/lvgl/src/hal/lv_hal_disp.c ****         br = (uint16_t)((uint16_t)br * opa + (bg * (255 - opa))) >> 8;
 684:Drivers/lvgl/src/hal/lv_hal_disp.c ****     }
 685:Drivers/lvgl/src/hal/lv_hal_disp.c **** 
 686:Drivers/lvgl/src/hal/lv_hal_disp.c ****     lv_img_buf_set_px_alpha(d, x, y, br);
 232              		.loc 1 686 5 is_stmt 1 view .LVU63
ARM GAS  /var/folders/0z/tsy30v1j4xl4_7kw94k978ww0000gn/T//ccQFh5Uv.s 			page 28


 233 0094 3A46     		mov	r2, r7
 234              	.LVL12:
 235              		.loc 1 686 5 is_stmt 0 view .LVU64
 236 0096 3146     		mov	r1, r6
 237              	.LVL13:
 238              		.loc 1 686 5 view .LVU65
 239 0098 2846     		mov	r0, r5
 687:Drivers/lvgl/src/hal/lv_hal_disp.c **** }
 240              		.loc 1 687 1 view .LVU66
 241 009a BDE8F041 		pop	{r4, r5, r6, r7, r8, lr}
 242              		.cfi_remember_state
 243              		.cfi_restore 14
 244              		.cfi_restore 8
 245              		.cfi_restore 7
 246              		.cfi_restore 6
 247              		.cfi_restore 5
 248              		.cfi_restore 4
 249              		.cfi_def_cfa_offset 0
 250              	.LVL14:
 686:Drivers/lvgl/src/hal/lv_hal_disp.c **** }
 251              		.loc 1 686 5 view .LVU67
 252 009e FFF7FEBF 		b	lv_img_buf_set_px_alpha
 253              	.LVL15:
 254              	.L5:
 255              		.cfi_restore_state
 256              	.LBB71:
 682:Drivers/lvgl/src/hal/lv_hal_disp.c ****         uint8_t bg = lv_img_buf_get_px_alpha(d, x, y);
 257              		.loc 1 682 9 is_stmt 1 view .LVU68
 682:Drivers/lvgl/src/hal/lv_hal_disp.c ****         uint8_t bg = lv_img_buf_get_px_alpha(d, x, y);
 258              		.loc 1 682 22 is_stmt 0 view .LVU69
 259 00a2 FFF7FEFF 		bl	lv_img_buf_get_px_alpha
 260              	.LVL16:
 683:Drivers/lvgl/src/hal/lv_hal_disp.c ****     }
 261              		.loc 1 683 9 is_stmt 1 view .LVU70
 683:Drivers/lvgl/src/hal/lv_hal_disp.c ****     }
 262              		.loc 1 683 57 is_stmt 0 view .LVU71
 263 00a6 C8F1FF03 		rsb	r3, r8, #255
 683:Drivers/lvgl/src/hal/lv_hal_disp.c ****     }
 264              		.loc 1 683 14 view .LVU72
 265 00aa 13FB00F0 		smulbb	r0, r3, r0
 266              	.LVL17:
 683:Drivers/lvgl/src/hal/lv_hal_disp.c ****     }
 267              		.loc 1 683 14 view .LVU73
 268 00ae 08FB0403 		mla	r3, r8, r4, r0
 269              	.LBE71:
 686:Drivers/lvgl/src/hal/lv_hal_disp.c **** }
 270              		.loc 1 686 5 view .LVU74
 271 00b2 3A46     		mov	r2, r7
 272 00b4 3146     		mov	r1, r6
 273 00b6 2846     		mov	r0, r5
 274              	.LBB72:
 683:Drivers/lvgl/src/hal/lv_hal_disp.c ****     }
 275              		.loc 1 683 12 view .LVU75
 276 00b8 C3F30723 		ubfx	r3, r3, #8, #8
 277              	.LVL18:
 683:Drivers/lvgl/src/hal/lv_hal_disp.c ****     }
 278              		.loc 1 683 12 view .LVU76
ARM GAS  /var/folders/0z/tsy30v1j4xl4_7kw94k978ww0000gn/T//ccQFh5Uv.s 			page 29


 279              	.LBE72:
 686:Drivers/lvgl/src/hal/lv_hal_disp.c **** }
 280              		.loc 1 686 5 is_stmt 1 view .LVU77
 281              		.loc 1 687 1 is_stmt 0 view .LVU78
 282 00bc BDE8F041 		pop	{r4, r5, r6, r7, r8, lr}
 283              		.cfi_restore 14
 284              		.cfi_restore 8
 285              		.cfi_restore 7
 286              		.cfi_restore 6
 287              		.cfi_restore 5
 288              		.cfi_restore 4
 289              		.cfi_def_cfa_offset 0
 290              	.LVL19:
 686:Drivers/lvgl/src/hal/lv_hal_disp.c **** }
 291              		.loc 1 686 5 view .LVU79
 292 00c0 FFF7FEBF 		b	lv_img_buf_set_px_alpha
 293              	.LVL20:
 686:Drivers/lvgl/src/hal/lv_hal_disp.c **** }
 294              		.loc 1 686 5 view .LVU80
 295              		.cfi_endproc
 296              	.LFE188:
 298              		.section	.text.set_px_cb_alpha8,"ax",%progbits
 299              		.align	1
 300              		.p2align 2,,3
 301              		.syntax unified
 302              		.thumb
 303              		.thumb_func
 305              	set_px_cb_alpha8:
 306              	.LVL21:
 307              	.LFB187:
 663:Drivers/lvgl/src/hal/lv_hal_disp.c ****     (void) disp_drv; /*Unused*/
 308              		.loc 1 663 1 is_stmt 1 view -0
 309              		.cfi_startproc
 310              		@ args = 12, pretend = 0, frame = 16
 311              		@ frame_needed = 0, uses_anonymous_args = 0
 664:Drivers/lvgl/src/hal/lv_hal_disp.c **** 
 312              		.loc 1 664 5 view .LVU82
 666:Drivers/lvgl/src/hal/lv_hal_disp.c ****     lv_img_dsc_t d;
 313              		.loc 1 666 5 view .LVU83
 663:Drivers/lvgl/src/hal/lv_hal_disp.c ****     (void) disp_drv; /*Unused*/
 314              		.loc 1 663 1 is_stmt 0 view .LVU84
 315 0000 30B5     		push	{r4, r5, lr}
 316              		.cfi_def_cfa_offset 12
 317              		.cfi_offset 4, -12
 318              		.cfi_offset 5, -8
 319              		.cfi_offset 14, -4
 320 0002 87B0     		sub	sp, sp, #28
 321              		.cfi_def_cfa_offset 40
 663:Drivers/lvgl/src/hal/lv_hal_disp.c ****     (void) disp_drv; /*Unused*/
 322              		.loc 1 663 1 view .LVU85
 323 0004 9DF83050 		ldrb	r5, [sp, #48]	@ zero_extendqisi2
 324 0008 BDF928C0 		ldrsh	ip, [sp, #40]
 666:Drivers/lvgl/src/hal/lv_hal_disp.c ****     lv_img_dsc_t d;
 325              		.loc 1 666 7 view .LVU86
 326 000c 022D     		cmp	r5, #2
 327 000e 15D9     		bls	.L8
 667:Drivers/lvgl/src/hal/lv_hal_disp.c ****     d.data = buf;
ARM GAS  /var/folders/0z/tsy30v1j4xl4_7kw94k978ww0000gn/T//ccQFh5Uv.s 			page 30


 328              		.loc 1 667 5 is_stmt 1 view .LVU87
 668:Drivers/lvgl/src/hal/lv_hal_disp.c ****     d.header.w = buf_w;
 329              		.loc 1 668 5 view .LVU88
 330 0010 0C46     		mov	r4, r1
 668:Drivers/lvgl/src/hal/lv_hal_disp.c ****     d.header.w = buf_w;
 331              		.loc 1 668 12 is_stmt 0 view .LVU89
 332 0012 0594     		str	r4, [sp, #20]
 669:Drivers/lvgl/src/hal/lv_hal_disp.c ****     d.header.cf = LV_IMG_CF_ALPHA_8BIT;
 333              		.loc 1 669 5 is_stmt 1 view .LVU90
 670:Drivers/lvgl/src/hal/lv_hal_disp.c **** 
 334              		.loc 1 670 5 view .LVU91
 670:Drivers/lvgl/src/hal/lv_hal_disp.c **** 
 335              		.loc 1 670 17 is_stmt 0 view .LVU92
 336 0014 039C     		ldr	r4, [sp, #12]
 672:Drivers/lvgl/src/hal/lv_hal_disp.c **** }
 337              		.loc 1 672 5 view .LVU93
 338 0016 0095     		str	r5, [sp]
 670:Drivers/lvgl/src/hal/lv_hal_disp.c **** 
 339              		.loc 1 670 17 view .LVU94
 340 0018 C2F30A00 		ubfx	r0, r2, #0, #11
 341              	.LVL22:
 670:Drivers/lvgl/src/hal/lv_hal_disp.c **** 
 342              		.loc 1 670 17 view .LVU95
 343 001c 8002     		lsls	r0, r0, #10
 344 001e 24F01F14 		bic	r4, r4, #2031647
 345 0022 40F00E00 		orr	r0, r0, #14
 346 0026 24F47C44 		bic	r4, r4, #64512
 347 002a 2043     		orrs	r0, r0, r4
 348 002c 1946     		mov	r1, r3
 349              	.LVL23:
 670:Drivers/lvgl/src/hal/lv_hal_disp.c **** 
 350              		.loc 1 670 17 view .LVU96
 351 002e 0390     		str	r0, [sp, #12]
 672:Drivers/lvgl/src/hal/lv_hal_disp.c **** }
 352              		.loc 1 672 5 is_stmt 1 view .LVU97
 353 0030 BDF82C30 		ldrh	r3, [sp, #44]
 354              	.LVL24:
 672:Drivers/lvgl/src/hal/lv_hal_disp.c **** }
 355              		.loc 1 672 5 is_stmt 0 view .LVU98
 356 0034 6246     		mov	r2, ip
 357              	.LVL25:
 672:Drivers/lvgl/src/hal/lv_hal_disp.c **** }
 358              		.loc 1 672 5 view .LVU99
 359 0036 03A8     		add	r0, sp, #12
 360 0038 FFF7FEFF 		bl	set_px_alpha_generic
 361              	.LVL26:
 362              	.L8:
 673:Drivers/lvgl/src/hal/lv_hal_disp.c **** 
 363              		.loc 1 673 1 view .LVU100
 364 003c 07B0     		add	sp, sp, #28
 365              		.cfi_def_cfa_offset 12
 366              		@ sp needed
 367 003e 30BD     		pop	{r4, r5, pc}
 673:Drivers/lvgl/src/hal/lv_hal_disp.c **** 
 368              		.loc 1 673 1 view .LVU101
 369              		.cfi_endproc
 370              	.LFE187:
ARM GAS  /var/folders/0z/tsy30v1j4xl4_7kw94k978ww0000gn/T//ccQFh5Uv.s 			page 31


 372              		.section	.text.set_px_cb_alpha4,"ax",%progbits
 373              		.align	1
 374              		.p2align 2,,3
 375              		.syntax unified
 376              		.thumb
 377              		.thumb_func
 379              	set_px_cb_alpha4:
 380              	.LVL27:
 381              	.LFB186:
 649:Drivers/lvgl/src/hal/lv_hal_disp.c ****     (void) disp_drv; /*Unused*/
 382              		.loc 1 649 1 is_stmt 1 view -0
 383              		.cfi_startproc
 384              		@ args = 12, pretend = 0, frame = 16
 385              		@ frame_needed = 0, uses_anonymous_args = 0
 650:Drivers/lvgl/src/hal/lv_hal_disp.c **** 
 386              		.loc 1 650 5 view .LVU103
 652:Drivers/lvgl/src/hal/lv_hal_disp.c ****     lv_img_dsc_t d;
 387              		.loc 1 652 5 view .LVU104
 649:Drivers/lvgl/src/hal/lv_hal_disp.c ****     (void) disp_drv; /*Unused*/
 388              		.loc 1 649 1 is_stmt 0 view .LVU105
 389 0000 30B5     		push	{r4, r5, lr}
 390              		.cfi_def_cfa_offset 12
 391              		.cfi_offset 4, -12
 392              		.cfi_offset 5, -8
 393              		.cfi_offset 14, -4
 394 0002 87B0     		sub	sp, sp, #28
 395              		.cfi_def_cfa_offset 40
 649:Drivers/lvgl/src/hal/lv_hal_disp.c ****     (void) disp_drv; /*Unused*/
 396              		.loc 1 649 1 view .LVU106
 397 0004 9DF83050 		ldrb	r5, [sp, #48]	@ zero_extendqisi2
 398 0008 BDF928C0 		ldrsh	ip, [sp, #40]
 652:Drivers/lvgl/src/hal/lv_hal_disp.c ****     lv_img_dsc_t d;
 399              		.loc 1 652 7 view .LVU107
 400 000c 022D     		cmp	r5, #2
 401 000e 15D9     		bls	.L11
 653:Drivers/lvgl/src/hal/lv_hal_disp.c ****     d.data = buf;
 402              		.loc 1 653 5 is_stmt 1 view .LVU108
 654:Drivers/lvgl/src/hal/lv_hal_disp.c ****     d.header.w = buf_w;
 403              		.loc 1 654 5 view .LVU109
 404 0010 0C46     		mov	r4, r1
 654:Drivers/lvgl/src/hal/lv_hal_disp.c ****     d.header.w = buf_w;
 405              		.loc 1 654 12 is_stmt 0 view .LVU110
 406 0012 0594     		str	r4, [sp, #20]
 655:Drivers/lvgl/src/hal/lv_hal_disp.c ****     d.header.cf = LV_IMG_CF_ALPHA_4BIT;
 407              		.loc 1 655 5 is_stmt 1 view .LVU111
 656:Drivers/lvgl/src/hal/lv_hal_disp.c **** 
 408              		.loc 1 656 5 view .LVU112
 656:Drivers/lvgl/src/hal/lv_hal_disp.c **** 
 409              		.loc 1 656 17 is_stmt 0 view .LVU113
 410 0014 039C     		ldr	r4, [sp, #12]
 658:Drivers/lvgl/src/hal/lv_hal_disp.c **** }
 411              		.loc 1 658 5 view .LVU114
 412 0016 0095     		str	r5, [sp]
 656:Drivers/lvgl/src/hal/lv_hal_disp.c **** 
 413              		.loc 1 656 17 view .LVU115
 414 0018 C2F30A00 		ubfx	r0, r2, #0, #11
 415              	.LVL28:
ARM GAS  /var/folders/0z/tsy30v1j4xl4_7kw94k978ww0000gn/T//ccQFh5Uv.s 			page 32


 656:Drivers/lvgl/src/hal/lv_hal_disp.c **** 
 416              		.loc 1 656 17 view .LVU116
 417 001c 8002     		lsls	r0, r0, #10
 418 001e 24F01F14 		bic	r4, r4, #2031647
 419 0022 40F00D00 		orr	r0, r0, #13
 420 0026 24F47C44 		bic	r4, r4, #64512
 421 002a 2043     		orrs	r0, r0, r4
 422 002c 1946     		mov	r1, r3
 423              	.LVL29:
 656:Drivers/lvgl/src/hal/lv_hal_disp.c **** 
 424              		.loc 1 656 17 view .LVU117
 425 002e 0390     		str	r0, [sp, #12]
 658:Drivers/lvgl/src/hal/lv_hal_disp.c **** }
 426              		.loc 1 658 5 is_stmt 1 view .LVU118
 427 0030 BDF82C30 		ldrh	r3, [sp, #44]
 428              	.LVL30:
 658:Drivers/lvgl/src/hal/lv_hal_disp.c **** }
 429              		.loc 1 658 5 is_stmt 0 view .LVU119
 430 0034 6246     		mov	r2, ip
 431              	.LVL31:
 658:Drivers/lvgl/src/hal/lv_hal_disp.c **** }
 432              		.loc 1 658 5 view .LVU120
 433 0036 03A8     		add	r0, sp, #12
 434 0038 FFF7FEFF 		bl	set_px_alpha_generic
 435              	.LVL32:
 436              	.L11:
 659:Drivers/lvgl/src/hal/lv_hal_disp.c **** 
 437              		.loc 1 659 1 view .LVU121
 438 003c 07B0     		add	sp, sp, #28
 439              		.cfi_def_cfa_offset 12
 440              		@ sp needed
 441 003e 30BD     		pop	{r4, r5, pc}
 659:Drivers/lvgl/src/hal/lv_hal_disp.c **** 
 442              		.loc 1 659 1 view .LVU122
 443              		.cfi_endproc
 444              	.LFE186:
 446              		.section	.text.set_px_cb_alpha2,"ax",%progbits
 447              		.align	1
 448              		.p2align 2,,3
 449              		.syntax unified
 450              		.thumb
 451              		.thumb_func
 453              	set_px_cb_alpha2:
 454              	.LVL33:
 455              	.LFB185:
 635:Drivers/lvgl/src/hal/lv_hal_disp.c ****     (void) disp_drv; /*Unused*/
 456              		.loc 1 635 1 is_stmt 1 view -0
 457              		.cfi_startproc
 458              		@ args = 12, pretend = 0, frame = 16
 459              		@ frame_needed = 0, uses_anonymous_args = 0
 636:Drivers/lvgl/src/hal/lv_hal_disp.c **** 
 460              		.loc 1 636 5 view .LVU124
 638:Drivers/lvgl/src/hal/lv_hal_disp.c ****     lv_img_dsc_t d;
 461              		.loc 1 638 5 view .LVU125
 635:Drivers/lvgl/src/hal/lv_hal_disp.c ****     (void) disp_drv; /*Unused*/
 462              		.loc 1 635 1 is_stmt 0 view .LVU126
 463 0000 30B5     		push	{r4, r5, lr}
ARM GAS  /var/folders/0z/tsy30v1j4xl4_7kw94k978ww0000gn/T//ccQFh5Uv.s 			page 33


 464              		.cfi_def_cfa_offset 12
 465              		.cfi_offset 4, -12
 466              		.cfi_offset 5, -8
 467              		.cfi_offset 14, -4
 468 0002 87B0     		sub	sp, sp, #28
 469              		.cfi_def_cfa_offset 40
 635:Drivers/lvgl/src/hal/lv_hal_disp.c ****     (void) disp_drv; /*Unused*/
 470              		.loc 1 635 1 view .LVU127
 471 0004 9DF83050 		ldrb	r5, [sp, #48]	@ zero_extendqisi2
 472 0008 BDF928C0 		ldrsh	ip, [sp, #40]
 638:Drivers/lvgl/src/hal/lv_hal_disp.c ****     lv_img_dsc_t d;
 473              		.loc 1 638 7 view .LVU128
 474 000c 022D     		cmp	r5, #2
 475 000e 15D9     		bls	.L14
 639:Drivers/lvgl/src/hal/lv_hal_disp.c ****     d.data = buf;
 476              		.loc 1 639 5 is_stmt 1 view .LVU129
 640:Drivers/lvgl/src/hal/lv_hal_disp.c ****     d.header.w = buf_w;
 477              		.loc 1 640 5 view .LVU130
 478 0010 0C46     		mov	r4, r1
 640:Drivers/lvgl/src/hal/lv_hal_disp.c ****     d.header.w = buf_w;
 479              		.loc 1 640 12 is_stmt 0 view .LVU131
 480 0012 0594     		str	r4, [sp, #20]
 641:Drivers/lvgl/src/hal/lv_hal_disp.c ****     d.header.cf = LV_IMG_CF_ALPHA_2BIT;
 481              		.loc 1 641 5 is_stmt 1 view .LVU132
 642:Drivers/lvgl/src/hal/lv_hal_disp.c **** 
 482              		.loc 1 642 5 view .LVU133
 642:Drivers/lvgl/src/hal/lv_hal_disp.c **** 
 483              		.loc 1 642 17 is_stmt 0 view .LVU134
 484 0014 039C     		ldr	r4, [sp, #12]
 644:Drivers/lvgl/src/hal/lv_hal_disp.c **** }
 485              		.loc 1 644 5 view .LVU135
 486 0016 0095     		str	r5, [sp]
 642:Drivers/lvgl/src/hal/lv_hal_disp.c **** 
 487              		.loc 1 642 17 view .LVU136
 488 0018 C2F30A00 		ubfx	r0, r2, #0, #11
 489              	.LVL34:
 642:Drivers/lvgl/src/hal/lv_hal_disp.c **** 
 490              		.loc 1 642 17 view .LVU137
 491 001c 8002     		lsls	r0, r0, #10
 492 001e 24F01F14 		bic	r4, r4, #2031647
 493 0022 40F00C00 		orr	r0, r0, #12
 494 0026 24F47C44 		bic	r4, r4, #64512
 495 002a 2043     		orrs	r0, r0, r4
 496 002c 1946     		mov	r1, r3
 497              	.LVL35:
 642:Drivers/lvgl/src/hal/lv_hal_disp.c **** 
 498              		.loc 1 642 17 view .LVU138
 499 002e 0390     		str	r0, [sp, #12]
 644:Drivers/lvgl/src/hal/lv_hal_disp.c **** }
 500              		.loc 1 644 5 is_stmt 1 view .LVU139
 501 0030 BDF82C30 		ldrh	r3, [sp, #44]
 502              	.LVL36:
 644:Drivers/lvgl/src/hal/lv_hal_disp.c **** }
 503              		.loc 1 644 5 is_stmt 0 view .LVU140
 504 0034 6246     		mov	r2, ip
 505              	.LVL37:
 644:Drivers/lvgl/src/hal/lv_hal_disp.c **** }
ARM GAS  /var/folders/0z/tsy30v1j4xl4_7kw94k978ww0000gn/T//ccQFh5Uv.s 			page 34


 506              		.loc 1 644 5 view .LVU141
 507 0036 03A8     		add	r0, sp, #12
 508 0038 FFF7FEFF 		bl	set_px_alpha_generic
 509              	.LVL38:
 510              	.L14:
 645:Drivers/lvgl/src/hal/lv_hal_disp.c **** 
 511              		.loc 1 645 1 view .LVU142
 512 003c 07B0     		add	sp, sp, #28
 513              		.cfi_def_cfa_offset 12
 514              		@ sp needed
 515 003e 30BD     		pop	{r4, r5, pc}
 645:Drivers/lvgl/src/hal/lv_hal_disp.c **** 
 516              		.loc 1 645 1 view .LVU143
 517              		.cfi_endproc
 518              	.LFE185:
 520              		.section	.text.set_px_cb_alpha1,"ax",%progbits
 521              		.align	1
 522              		.p2align 2,,3
 523              		.syntax unified
 524              		.thumb
 525              		.thumb_func
 527              	set_px_cb_alpha1:
 528              	.LVL39:
 529              	.LFB184:
 621:Drivers/lvgl/src/hal/lv_hal_disp.c ****     (void) disp_drv; /*Unused*/
 530              		.loc 1 621 1 is_stmt 1 view -0
 531              		.cfi_startproc
 532              		@ args = 12, pretend = 0, frame = 16
 533              		@ frame_needed = 0, uses_anonymous_args = 0
 622:Drivers/lvgl/src/hal/lv_hal_disp.c **** 
 534              		.loc 1 622 5 view .LVU145
 624:Drivers/lvgl/src/hal/lv_hal_disp.c ****     lv_img_dsc_t d;
 535              		.loc 1 624 5 view .LVU146
 621:Drivers/lvgl/src/hal/lv_hal_disp.c ****     (void) disp_drv; /*Unused*/
 536              		.loc 1 621 1 is_stmt 0 view .LVU147
 537 0000 30B5     		push	{r4, r5, lr}
 538              		.cfi_def_cfa_offset 12
 539              		.cfi_offset 4, -12
 540              		.cfi_offset 5, -8
 541              		.cfi_offset 14, -4
 542 0002 87B0     		sub	sp, sp, #28
 543              		.cfi_def_cfa_offset 40
 621:Drivers/lvgl/src/hal/lv_hal_disp.c ****     (void) disp_drv; /*Unused*/
 544              		.loc 1 621 1 view .LVU148
 545 0004 9DF83050 		ldrb	r5, [sp, #48]	@ zero_extendqisi2
 546 0008 BDF928C0 		ldrsh	ip, [sp, #40]
 624:Drivers/lvgl/src/hal/lv_hal_disp.c ****     lv_img_dsc_t d;
 547              		.loc 1 624 7 view .LVU149
 548 000c 022D     		cmp	r5, #2
 549 000e 15D9     		bls	.L17
 625:Drivers/lvgl/src/hal/lv_hal_disp.c ****     d.data = buf;
 550              		.loc 1 625 5 is_stmt 1 view .LVU150
 626:Drivers/lvgl/src/hal/lv_hal_disp.c ****     d.header.w = buf_w;
 551              		.loc 1 626 5 view .LVU151
 552 0010 0C46     		mov	r4, r1
 626:Drivers/lvgl/src/hal/lv_hal_disp.c ****     d.header.w = buf_w;
 553              		.loc 1 626 12 is_stmt 0 view .LVU152
ARM GAS  /var/folders/0z/tsy30v1j4xl4_7kw94k978ww0000gn/T//ccQFh5Uv.s 			page 35


 554 0012 0594     		str	r4, [sp, #20]
 627:Drivers/lvgl/src/hal/lv_hal_disp.c ****     d.header.cf = LV_IMG_CF_ALPHA_1BIT;
 555              		.loc 1 627 5 is_stmt 1 view .LVU153
 628:Drivers/lvgl/src/hal/lv_hal_disp.c **** 
 556              		.loc 1 628 5 view .LVU154
 628:Drivers/lvgl/src/hal/lv_hal_disp.c **** 
 557              		.loc 1 628 17 is_stmt 0 view .LVU155
 558 0014 039C     		ldr	r4, [sp, #12]
 630:Drivers/lvgl/src/hal/lv_hal_disp.c **** }
 559              		.loc 1 630 5 view .LVU156
 560 0016 0095     		str	r5, [sp]
 628:Drivers/lvgl/src/hal/lv_hal_disp.c **** 
 561              		.loc 1 628 17 view .LVU157
 562 0018 C2F30A00 		ubfx	r0, r2, #0, #11
 563              	.LVL40:
 628:Drivers/lvgl/src/hal/lv_hal_disp.c **** 
 564              		.loc 1 628 17 view .LVU158
 565 001c 8002     		lsls	r0, r0, #10
 566 001e 24F01F14 		bic	r4, r4, #2031647
 567 0022 40F00B00 		orr	r0, r0, #11
 568 0026 24F47C44 		bic	r4, r4, #64512
 569 002a 2043     		orrs	r0, r0, r4
 570 002c 1946     		mov	r1, r3
 571              	.LVL41:
 628:Drivers/lvgl/src/hal/lv_hal_disp.c **** 
 572              		.loc 1 628 17 view .LVU159
 573 002e 0390     		str	r0, [sp, #12]
 630:Drivers/lvgl/src/hal/lv_hal_disp.c **** }
 574              		.loc 1 630 5 is_stmt 1 view .LVU160
 575 0030 BDF82C30 		ldrh	r3, [sp, #44]
 576              	.LVL42:
 630:Drivers/lvgl/src/hal/lv_hal_disp.c **** }
 577              		.loc 1 630 5 is_stmt 0 view .LVU161
 578 0034 6246     		mov	r2, ip
 579              	.LVL43:
 630:Drivers/lvgl/src/hal/lv_hal_disp.c **** }
 580              		.loc 1 630 5 view .LVU162
 581 0036 03A8     		add	r0, sp, #12
 582 0038 FFF7FEFF 		bl	set_px_alpha_generic
 583              	.LVL44:
 584              	.L17:
 631:Drivers/lvgl/src/hal/lv_hal_disp.c **** 
 585              		.loc 1 631 1 view .LVU163
 586 003c 07B0     		add	sp, sp, #28
 587              		.cfi_def_cfa_offset 12
 588              		@ sp needed
 589 003e 30BD     		pop	{r4, r5, pc}
 631:Drivers/lvgl/src/hal/lv_hal_disp.c **** 
 590              		.loc 1 631 1 view .LVU164
 591              		.cfi_endproc
 592              	.LFE184:
 594              		.section	.text.set_px_true_color_alpha,"ax",%progbits
 595              		.align	1
 596              		.p2align 2,,3
 597              		.syntax unified
 598              		.thumb
 599              		.thumb_func
ARM GAS  /var/folders/0z/tsy30v1j4xl4_7kw94k978ww0000gn/T//ccQFh5Uv.s 			page 36


 601              	set_px_true_color_alpha:
 602              	.LVL45:
 603              	.LFB189:
 688:Drivers/lvgl/src/hal/lv_hal_disp.c **** 
 689:Drivers/lvgl/src/hal/lv_hal_disp.c **** static void set_px_true_color_alpha(lv_disp_drv_t * disp_drv, uint8_t * buf, lv_coord_t buf_w,
 690:Drivers/lvgl/src/hal/lv_hal_disp.c ****                                     lv_coord_t x, lv_coord_t y,
 691:Drivers/lvgl/src/hal/lv_hal_disp.c ****                                     lv_color_t color, lv_opa_t opa)
 692:Drivers/lvgl/src/hal/lv_hal_disp.c **** {
 604              		.loc 1 692 1 is_stmt 1 view -0
 605              		.cfi_startproc
 606              		@ args = 12, pretend = 0, frame = 0
 607              		@ frame_needed = 0, uses_anonymous_args = 0
 693:Drivers/lvgl/src/hal/lv_hal_disp.c ****     (void) disp_drv; /*Unused*/
 608              		.loc 1 693 5 view .LVU166
 694:Drivers/lvgl/src/hal/lv_hal_disp.c **** 
 695:Drivers/lvgl/src/hal/lv_hal_disp.c ****     uint8_t * buf_px = buf + (buf_w * y * LV_IMG_PX_SIZE_ALPHA_BYTE + x * LV_IMG_PX_SIZE_ALPHA_BYTE
 609              		.loc 1 695 5 view .LVU167
 692:Drivers/lvgl/src/hal/lv_hal_disp.c ****     (void) disp_drv; /*Unused*/
 610              		.loc 1 692 1 is_stmt 0 view .LVU168
 611 0000 2DE9F047 		push	{r4, r5, r6, r7, r8, r9, r10, lr}
 612              		.cfi_def_cfa_offset 32
 613              		.cfi_offset 4, -32
 614              		.cfi_offset 5, -28
 615              		.cfi_offset 6, -24
 616              		.cfi_offset 7, -20
 617              		.cfi_offset 8, -16
 618              		.cfi_offset 9, -12
 619              		.cfi_offset 10, -8
 620              		.cfi_offset 14, -4
 692:Drivers/lvgl/src/hal/lv_hal_disp.c ****     (void) disp_drv; /*Unused*/
 621              		.loc 1 692 1 view .LVU169
 622 0004 BDF92000 		ldrsh	r0, [sp, #32]
 623              	.LVL46:
 692:Drivers/lvgl/src/hal/lv_hal_disp.c ****     (void) disp_drv; /*Unused*/
 624              		.loc 1 692 1 view .LVU170
 625 0008 9DF82840 		ldrb	r4, [sp, #40]	@ zero_extendqisi2
 626              		.loc 1 695 69 view .LVU171
 627 000c 02FB0033 		mla	r3, r2, r0, r3
 628              	.LVL47:
 629              		.loc 1 695 69 view .LVU172
 630 0010 03EB4303 		add	r3, r3, r3, lsl #1
 631              		.loc 1 695 15 view .LVU173
 632 0014 01EB030E 		add	lr, r1, r3
 633              	.LVL48:
 696:Drivers/lvgl/src/hal/lv_hal_disp.c **** 
 697:Drivers/lvgl/src/hal/lv_hal_disp.c ****     lv_color_t bg_color;
 634              		.loc 1 697 5 is_stmt 1 view .LVU174
 698:Drivers/lvgl/src/hal/lv_hal_disp.c ****     lv_color_t res_color;
 635              		.loc 1 698 5 view .LVU175
 699:Drivers/lvgl/src/hal/lv_hal_disp.c ****     lv_opa_t bg_opa = buf_px[LV_IMG_PX_SIZE_ALPHA_BYTE - 1];
 636              		.loc 1 699 5 view .LVU176
 637              	.LBB81:
 638              	.LBB82:
 536:Drivers/lvgl/src/hal/../draw/../misc/lv_color.h ****         res_color->full = fg_color.full;
 639              		.loc 2 536 7 is_stmt 0 view .LVU177
 640 0018 FC2C     		cmp	r4, #252
 641              	.LBE82:
ARM GAS  /var/folders/0z/tsy30v1j4xl4_7kw94k978ww0000gn/T//ccQFh5Uv.s 			page 37


 642              	.LBE81:
 643              		.loc 1 699 14 view .LVU178
 644 001a 9EF80260 		ldrb	r6, [lr, #2]	@ zero_extendqisi2
 645              	.LVL49:
 700:Drivers/lvgl/src/hal/lv_hal_disp.c **** #if LV_COLOR_DEPTH == 8 || LV_COLOR_DEPTH == 1
 701:Drivers/lvgl/src/hal/lv_hal_disp.c ****     bg_color.full = buf_px[0];
 702:Drivers/lvgl/src/hal/lv_hal_disp.c ****     lv_color_mix_with_alpha(bg_color, bg_opa, color, opa, &res_color, &buf_px[2]);
 703:Drivers/lvgl/src/hal/lv_hal_disp.c ****     if(buf_px[1] <= LV_OPA_MIN) return;
 704:Drivers/lvgl/src/hal/lv_hal_disp.c ****     buf_px[0] = res_color.full;
 705:Drivers/lvgl/src/hal/lv_hal_disp.c **** #elif LV_COLOR_DEPTH == 16
 706:Drivers/lvgl/src/hal/lv_hal_disp.c ****     bg_color.full = buf_px[0] + (buf_px[1] << 8);
 646              		.loc 1 706 5 is_stmt 1 view .LVU179
 647              		.loc 1 706 27 is_stmt 0 view .LVU180
 648 001e C85C     		ldrb	r0, [r1, r3]	@ zero_extendqisi2
 649              		.loc 1 706 40 view .LVU181
 650 0020 9EF801C0 		ldrb	ip, [lr, #1]	@ zero_extendqisi2
 707:Drivers/lvgl/src/hal/lv_hal_disp.c ****     lv_color_mix_with_alpha(bg_color, bg_opa, color, opa, &res_color, &buf_px[2]);
 651              		.loc 1 707 5 is_stmt 1 view .LVU182
 652              	.LVL50:
 653              		.loc 1 707 5 is_stmt 0 view .LVU183
 654 0024 BDF82420 		ldrh	r2, [sp, #36]
 655              	.LVL51:
 656              	.LBB112:
 657              	.LBI81:
 531:Drivers/lvgl/src/hal/../draw/../misc/lv_color.h ****                                                                  lv_color_t fg_color, lv_opa_t fg_o
 658              		.loc 2 531 42 is_stmt 1 view .LVU184
 659              	.LBB107:
 536:Drivers/lvgl/src/hal/../draw/../misc/lv_color.h ****         res_color->full = fg_color.full;
 660              		.loc 2 536 5 view .LVU185
 536:Drivers/lvgl/src/hal/../draw/../misc/lv_color.h ****         res_color->full = fg_color.full;
 661              		.loc 2 536 7 is_stmt 0 view .LVU186
 662 0028 01D8     		bhi	.L28
 536:Drivers/lvgl/src/hal/../draw/../misc/lv_color.h ****         res_color->full = fg_color.full;
 663              		.loc 2 536 29 view .LVU187
 664 002a 022E     		cmp	r6, #2
 665 002c 09D8     		bhi	.L22
 666              	.LVL52:
 667              	.L28:
 668              	.LBB83:
 575:Drivers/lvgl/src/hal/../draw/../misc/lv_color.h ****         *res_opa = res_opa_saved;
 669              		.loc 2 575 9 is_stmt 1 view .LVU188
 576:Drivers/lvgl/src/hal/../draw/../misc/lv_color.h ****     }
 670              		.loc 2 576 9 view .LVU189
 671              	.LBE83:
 672              	.LBE107:
 673              	.LBE112:
 708:Drivers/lvgl/src/hal/lv_hal_disp.c ****     if(buf_px[2] <= LV_OPA_MIN) return;
 674              		.loc 1 708 7 is_stmt 0 view .LVU190
 675 002e 022C     		cmp	r4, #2
 676              	.LBB113:
 677              	.LBB108:
 678              	.LBB101:
 576:Drivers/lvgl/src/hal/../draw/../misc/lv_color.h ****     }
 679              		.loc 2 576 18 view .LVU191
 680 0030 8EF80240 		strb	r4, [lr, #2]
 681              	.LVL53:
 576:Drivers/lvgl/src/hal/../draw/../misc/lv_color.h ****     }
ARM GAS  /var/folders/0z/tsy30v1j4xl4_7kw94k978ww0000gn/T//ccQFh5Uv.s 			page 38


 682              		.loc 2 576 18 view .LVU192
 683              	.LBE101:
 684              	.LBE108:
 685              	.LBE113:
 686              		.loc 1 708 5 is_stmt 1 view .LVU193
 687              		.loc 1 708 7 is_stmt 0 view .LVU194
 688 0034 03D9     		bls	.L20
 689              	.LVL54:
 690              	.L26:
 709:Drivers/lvgl/src/hal/lv_hal_disp.c ****     buf_px[0] = res_color.full & 0xff;
 691              		.loc 1 709 5 is_stmt 1 view .LVU195
 710:Drivers/lvgl/src/hal/lv_hal_disp.c ****     buf_px[1] = res_color.full >> 8;
 692              		.loc 1 710 15 is_stmt 0 view .LVU196
 693 0036 100A     		lsrs	r0, r2, #8
 709:Drivers/lvgl/src/hal/lv_hal_disp.c ****     buf_px[0] = res_color.full & 0xff;
 694              		.loc 1 709 15 view .LVU197
 695 0038 CA54     		strb	r2, [r1, r3]
 696              		.loc 1 710 5 is_stmt 1 view .LVU198
 697              		.loc 1 710 15 is_stmt 0 view .LVU199
 698 003a 8EF80100 		strb	r0, [lr, #1]
 699              	.L20:
 711:Drivers/lvgl/src/hal/lv_hal_disp.c **** #elif LV_COLOR_DEPTH == 32
 712:Drivers/lvgl/src/hal/lv_hal_disp.c ****     bg_color = *((lv_color_t *)buf_px);
 713:Drivers/lvgl/src/hal/lv_hal_disp.c ****     lv_color_mix_with_alpha(bg_color, bg_opa, color, opa, &res_color, &buf_px[3]);
 714:Drivers/lvgl/src/hal/lv_hal_disp.c ****     if(buf_px[3] <= LV_OPA_MIN) return;
 715:Drivers/lvgl/src/hal/lv_hal_disp.c ****     buf_px[0] = res_color.ch.blue;
 716:Drivers/lvgl/src/hal/lv_hal_disp.c ****     buf_px[1] = res_color.ch.green;
 717:Drivers/lvgl/src/hal/lv_hal_disp.c ****     buf_px[2] = res_color.ch.red;
 718:Drivers/lvgl/src/hal/lv_hal_disp.c **** #endif
 719:Drivers/lvgl/src/hal/lv_hal_disp.c **** 
 720:Drivers/lvgl/src/hal/lv_hal_disp.c **** }
 700              		.loc 1 720 1 view .LVU200
 701 003e BDE8F087 		pop	{r4, r5, r6, r7, r8, r9, r10, pc}
 702              	.LVL55:
 703              	.L22:
 706:Drivers/lvgl/src/hal/lv_hal_disp.c ****     lv_color_mix_with_alpha(bg_color, bg_opa, color, opa, &res_color, &buf_px[2]);
 704              		.loc 1 706 31 view .LVU201
 705 0042 00EB0C20 		add	r0, r0, ip, lsl #8
 706              	.LBB114:
 707              	.LBB109:
 541:Drivers/lvgl/src/hal/../draw/../misc/lv_color.h ****         res_color->full = bg_color.full;
 708              		.loc 2 541 12 view .LVU202
 709 0046 022C     		cmp	r4, #2
 710              	.LBE109:
 711              	.LBE114:
 706:Drivers/lvgl/src/hal/lv_hal_disp.c ****     lv_color_mix_with_alpha(bg_color, bg_opa, color, opa, &res_color, &buf_px[2]);
 712              		.loc 1 706 31 view .LVU203
 713 0048 80B2     		uxth	r0, r0
 714              	.LBB115:
 715              	.LBB110:
 541:Drivers/lvgl/src/hal/../draw/../misc/lv_color.h ****         res_color->full = bg_color.full;
 716              		.loc 2 541 10 is_stmt 1 view .LVU204
 541:Drivers/lvgl/src/hal/../draw/../misc/lv_color.h ****         res_color->full = bg_color.full;
 717              		.loc 2 541 12 is_stmt 0 view .LVU205
 718 004a 1CD9     		bls	.L24
 719 004c 55BA     		rev16	r5, r2
 546:Drivers/lvgl/src/hal/../draw/../misc/lv_color.h ****         *res_color = lv_color_mix(fg_color, bg_color, fg_opa);
ARM GAS  /var/folders/0z/tsy30v1j4xl4_7kw94k978ww0000gn/T//ccQFh5Uv.s 			page 39


 720              		.loc 2 546 12 view .LVU206
 721 004e FC2E     		cmp	r6, #252
 722 0050 ADB2     		uxth	r5, r5
 546:Drivers/lvgl/src/hal/../draw/../misc/lv_color.h ****         *res_color = lv_color_mix(fg_color, bg_color, fg_opa);
 723              		.loc 2 546 10 is_stmt 1 view .LVU207
 546:Drivers/lvgl/src/hal/../draw/../misc/lv_color.h ****         *res_color = lv_color_mix(fg_color, bg_color, fg_opa);
 724              		.loc 2 546 12 is_stmt 0 view .LVU208
 725 0052 1AD9     		bls	.L25
 547:Drivers/lvgl/src/hal/../draw/../misc/lv_color.h ****         *res_opa = LV_OPA_COVER;
 726              		.loc 2 547 9 is_stmt 1 view .LVU209
 727              	.LVL56:
 728              	.LBB102:
 729              	.LBI102:
 439:Drivers/lvgl/src/hal/../draw/../misc/lv_color.h **** {
 730              		.loc 2 439 48 view .LVU210
 731              	.LBB103:
 441:Drivers/lvgl/src/hal/../draw/../misc/lv_color.h **** 
 732              		.loc 2 441 5 view .LVU211
 445:Drivers/lvgl/src/hal/../draw/../misc/lv_color.h ****     c2.full = c2.full << 8 | c2.full >> 8;
 733              		.loc 2 445 5 view .LVU212
 446:Drivers/lvgl/src/hal/../draw/../misc/lv_color.h **** #endif
 734              		.loc 2 446 5 view .LVU213
 449:Drivers/lvgl/src/hal/../draw/../misc/lv_color.h ****     uint32_t bg = (uint32_t)((uint32_t)c2.full | ((uint32_t)c2.full << 16)) &
 735              		.loc 2 449 5 view .LVU214
 450:Drivers/lvgl/src/hal/../draw/../misc/lv_color.h ****                   0x7E0F81F; /*0b00000111111000001111100000011111*/
 736              		.loc 2 450 5 view .LVU215
 450:Drivers/lvgl/src/hal/../draw/../misc/lv_color.h ****                   0x7E0F81F; /*0b00000111111000001111100000011111*/
 737              		.loc 2 450 30 is_stmt 0 view .LVU216
 738 0054 46BA     		rev16	r6, r0
 739              	.LVL57:
 450:Drivers/lvgl/src/hal/../draw/../misc/lv_color.h ****                   0x7E0F81F; /*0b00000111111000001111100000011111*/
 740              		.loc 2 450 30 view .LVU217
 741 0056 B2B2     		uxth	r2, r6
 742              	.LVL58:
 452:Drivers/lvgl/src/hal/../draw/../misc/lv_color.h ****     uint32_t result = ((((fg - bg) * mix) >> 5) + bg) & 0x7E0F81F;
 743              		.loc 2 452 19 view .LVU218
 744 0058 45EA0540 		orr	r0, r5, r5, lsl #16
 745              	.LVL59:
 450:Drivers/lvgl/src/hal/../draw/../misc/lv_color.h ****                   0x7E0F81F; /*0b00000111111000001111100000011111*/
 746              		.loc 2 450 14 view .LVU219
 747 005c 374D     		ldr	r5, .L37
 450:Drivers/lvgl/src/hal/../draw/../misc/lv_color.h ****                   0x7E0F81F; /*0b00000111111000001111100000011111*/
 748              		.loc 2 450 19 view .LVU220
 749 005e 42EA0642 		orr	r2, r2, r6, lsl #16
 450:Drivers/lvgl/src/hal/../draw/../misc/lv_color.h ****                   0x7E0F81F; /*0b00000111111000001111100000011111*/
 750              		.loc 2 450 14 view .LVU221
 751 0062 2A40     		ands	r2, r2, r5
 752              	.LVL60:
 452:Drivers/lvgl/src/hal/../draw/../misc/lv_color.h ****     uint32_t result = ((((fg - bg) * mix) >> 5) + bg) & 0x7E0F81F;
 753              		.loc 2 452 5 is_stmt 1 view .LVU222
 453:Drivers/lvgl/src/hal/../draw/../misc/lv_color.h ****     ret.full = (uint16_t)((result >> 16) | result);
 754              		.loc 2 453 5 view .LVU223
 449:Drivers/lvgl/src/hal/../draw/../misc/lv_color.h ****     uint32_t bg = (uint32_t)((uint32_t)c2.full | ((uint32_t)c2.full << 16)) &
 755              		.loc 2 449 11 is_stmt 0 view .LVU224
 756 0064 0434     		adds	r4, r4, #4
 757              	.LVL61:
 452:Drivers/lvgl/src/hal/../draw/../misc/lv_color.h ****     uint32_t result = ((((fg - bg) * mix) >> 5) + bg) & 0x7E0F81F;
ARM GAS  /var/folders/0z/tsy30v1j4xl4_7kw94k978ww0000gn/T//ccQFh5Uv.s 			page 40


 758              		.loc 2 452 14 view .LVU225
 759 0066 2840     		ands	r0, r0, r5
 453:Drivers/lvgl/src/hal/../draw/../misc/lv_color.h ****     ret.full = (uint16_t)((result >> 16) | result);
 760              		.loc 2 453 30 view .LVU226
 761 0068 801A     		subs	r0, r0, r2
 449:Drivers/lvgl/src/hal/../draw/../misc/lv_color.h ****     uint32_t bg = (uint32_t)((uint32_t)c2.full | ((uint32_t)c2.full << 16)) &
 762              		.loc 2 449 41 view .LVU227
 763 006a E408     		lsrs	r4, r4, #3
 764              	.LVL62:
 453:Drivers/lvgl/src/hal/../draw/../misc/lv_color.h ****     ret.full = (uint16_t)((result >> 16) | result);
 765              		.loc 2 453 36 view .LVU228
 766 006c 04FB00F0 		mul	r0, r4, r0
 453:Drivers/lvgl/src/hal/../draw/../misc/lv_color.h ****     ret.full = (uint16_t)((result >> 16) | result);
 767              		.loc 2 453 49 view .LVU229
 768 0070 02EB5012 		add	r2, r2, r0, lsr #5
 769              	.LVL63:
 453:Drivers/lvgl/src/hal/../draw/../misc/lv_color.h ****     ret.full = (uint16_t)((result >> 16) | result);
 770              		.loc 2 453 14 view .LVU230
 771 0074 2A40     		ands	r2, r2, r5
 772              	.LVL64:
 454:Drivers/lvgl/src/hal/../draw/../misc/lv_color.h **** #if LV_COLOR_16_SWAP == 1
 773              		.loc 2 454 5 is_stmt 1 view .LVU231
 456:Drivers/lvgl/src/hal/../draw/../misc/lv_color.h **** #endif
 774              		.loc 2 456 5 view .LVU232
 454:Drivers/lvgl/src/hal/../draw/../misc/lv_color.h **** #if LV_COLOR_16_SWAP == 1
 775              		.loc 2 454 16 is_stmt 0 view .LVU233
 776 0076 42EA1242 		orr	r2, r2, r2, lsr #16
 777              	.LVL65:
 454:Drivers/lvgl/src/hal/../draw/../misc/lv_color.h **** #if LV_COLOR_16_SWAP == 1
 778              		.loc 2 454 16 view .LVU234
 779 007a 52BA     		rev16	r2, r2
 780              	.LVL66:
 454:Drivers/lvgl/src/hal/../draw/../misc/lv_color.h **** #if LV_COLOR_16_SWAP == 1
 781              		.loc 2 454 16 view .LVU235
 782              	.LBE103:
 783              	.LBE102:
 548:Drivers/lvgl/src/hal/../draw/../misc/lv_color.h ****     }
 784              		.loc 2 548 18 view .LVU236
 785 007c FF20     		movs	r0, #255
 786              	.LVL67:
 548:Drivers/lvgl/src/hal/../draw/../misc/lv_color.h ****     }
 787              		.loc 2 548 18 view .LVU237
 788 007e 92B2     		uxth	r2, r2
 789              	.LBB105:
 790              	.LBB104:
 472:Drivers/lvgl/src/hal/../draw/../misc/lv_color.h **** }
 791              		.loc 2 472 5 is_stmt 1 view .LVU238
 792              	.LVL68:
 472:Drivers/lvgl/src/hal/../draw/../misc/lv_color.h **** }
 793              		.loc 2 472 5 is_stmt 0 view .LVU239
 794              	.LBE104:
 795              	.LBE105:
 548:Drivers/lvgl/src/hal/../draw/../misc/lv_color.h ****     }
 796              		.loc 2 548 9 is_stmt 1 view .LVU240
 548:Drivers/lvgl/src/hal/../draw/../misc/lv_color.h ****     }
 797              		.loc 2 548 18 is_stmt 0 view .LVU241
 798 0080 8EF80200 		strb	r0, [lr, #2]
ARM GAS  /var/folders/0z/tsy30v1j4xl4_7kw94k978ww0000gn/T//ccQFh5Uv.s 			page 41


 799              	.LVL69:
 548:Drivers/lvgl/src/hal/../draw/../misc/lv_color.h ****     }
 800              		.loc 2 548 18 view .LVU242
 801              	.LBE110:
 802              	.LBE115:
 708:Drivers/lvgl/src/hal/lv_hal_disp.c ****     buf_px[0] = res_color.full & 0xff;
 803              		.loc 1 708 5 is_stmt 1 view .LVU243
 804 0084 D7E7     		b	.L26
 805              	.LVL70:
 806              	.L24:
 708:Drivers/lvgl/src/hal/lv_hal_disp.c ****     buf_px[0] = res_color.full & 0xff;
 807              		.loc 1 708 5 view .LVU244
 808              	.LBB116:
 809              	.LBB111:
 542:Drivers/lvgl/src/hal/../draw/../misc/lv_color.h ****         *res_opa = bg_opa;
 810              		.loc 2 542 25 is_stmt 0 view .LVU245
 811 0086 0246     		mov	r2, r0
 812 0088 D5E7     		b	.L26
 813              	.LVL71:
 814              	.L25:
 815              	.LBB106:
 553:Drivers/lvgl/src/hal/../draw/../misc/lv_color.h ****         static lv_opa_t bg_opa_save     = 0;
 816              		.loc 2 553 9 is_stmt 1 view .LVU246
 554:Drivers/lvgl/src/hal/../draw/../misc/lv_color.h ****         static lv_color_t fg_color_save = _LV_COLOR_ZERO_INITIALIZER;
 817              		.loc 2 554 9 view .LVU247
 555:Drivers/lvgl/src/hal/../draw/../misc/lv_color.h ****         static lv_color_t bg_color_save = _LV_COLOR_ZERO_INITIALIZER;
 818              		.loc 2 555 9 view .LVU248
 556:Drivers/lvgl/src/hal/../draw/../misc/lv_color.h ****         static lv_color_t res_color_saved = _LV_COLOR_ZERO_INITIALIZER;
 819              		.loc 2 556 9 view .LVU249
 557:Drivers/lvgl/src/hal/../draw/../misc/lv_color.h ****         static lv_opa_t res_opa_saved = 0;
 820              		.loc 2 557 9 view .LVU250
 558:Drivers/lvgl/src/hal/../draw/../misc/lv_color.h **** 
 821              		.loc 2 558 9 view .LVU251
 560:Drivers/lvgl/src/hal/../draw/../misc/lv_color.h ****            bg_color.full != bg_color_save.full) {
 822              		.loc 2 560 9 view .LVU252
 560:Drivers/lvgl/src/hal/../draw/../misc/lv_color.h ****            bg_color.full != bg_color_save.full) {
 823              		.loc 2 560 19 is_stmt 0 view .LVU253
 824 008a 2D4F     		ldr	r7, .L37+4
 560:Drivers/lvgl/src/hal/../draw/../misc/lv_color.h ****            bg_color.full != bg_color_save.full) {
 825              		.loc 2 560 11 view .LVU254
 826 008c 97F800C0 		ldrb	ip, [r7]	@ zero_extendqisi2
 827 0090 A445     		cmp	ip, r4
 828 0092 DFF8B8C0 		ldr	ip, .L37+16
 829 0096 39D0     		beq	.L33
 830 0098 DFF8B480 		ldr	r8, .L37+20
 831 009c DFF8B490 		ldr	r9, .L37+24
 832              	.L27:
 833              	.LBB84:
 562:Drivers/lvgl/src/hal/../draw/../misc/lv_color.h ****             bg_opa_save        = bg_opa;
 834              		.loc 2 562 13 is_stmt 1 view .LVU255
 563:Drivers/lvgl/src/hal/../draw/../misc/lv_color.h ****             fg_color_save.full = fg_color.full;
 835              		.loc 2 563 32 is_stmt 0 view .LVU256
 836 00a0 8CF80060 		strb	r6, [ip]
 564:Drivers/lvgl/src/hal/../draw/../misc/lv_color.h ****             bg_color_save.full = bg_color.full;
 837              		.loc 2 564 32 view .LVU257
 838 00a4 A8F80020 		strh	r2, [r8]	@ movhi
 568:Drivers/lvgl/src/hal/../draw/../misc/lv_color.h ****             LV_ASSERT(res_opa_saved != 0);
ARM GAS  /var/folders/0z/tsy30v1j4xl4_7kw94k978ww0000gn/T//ccQFh5Uv.s 			page 42


 839              		.loc 2 568 79 view .LVU258
 840 00a8 C6F1FF02 		rsb	r2, r6, #255
 841              	.LVL72:
 568:Drivers/lvgl/src/hal/../draw/../misc/lv_color.h ****             LV_ASSERT(res_opa_saved != 0);
 842              		.loc 2 568 47 view .LVU259
 843 00ac C4F1FF06 		rsb	r6, r4, #255
 844              	.LVL73:
 568:Drivers/lvgl/src/hal/../draw/../misc/lv_color.h ****             LV_ASSERT(res_opa_saved != 0);
 845              		.loc 2 568 36 view .LVU260
 846 00b0 16FB02F6 		smulbb	r6, r6, r2
 565:Drivers/lvgl/src/hal/../draw/../misc/lv_color.h ****             /*Info:
 847              		.loc 2 565 32 view .LVU261
 848 00b4 A9F80000 		strh	r0, [r9]	@ movhi
 568:Drivers/lvgl/src/hal/../draw/../misc/lv_color.h ****             LV_ASSERT(res_opa_saved != 0);
 849              		.loc 2 568 47 view .LVU262
 850 00b8 A2B2     		uxth	r2, r4
 851              	.LBB85:
 852              	.LBB86:
 450:Drivers/lvgl/src/hal/../draw/../misc/lv_color.h ****                   0x7E0F81F; /*0b00000111111000001111100000011111*/
 853              		.loc 2 450 30 view .LVU263
 854 00ba 40BA     		rev16	r0, r0
 855              	.LBE86:
 856              	.LBE85:
 570:Drivers/lvgl/src/hal/../draw/../misc/lv_color.h ****             res_color_saved = lv_color_mix(fg_color, bg_color, ratio);
 857              		.loc 2 570 30 view .LVU264
 858 00bc C2EB022C 		rsb	ip, r2, r2, lsl #8
 562:Drivers/lvgl/src/hal/../draw/../misc/lv_color.h ****             bg_opa_save        = bg_opa;
 859              		.loc 2 562 32 view .LVU265
 860 00c0 3C70     		strb	r4, [r7]
 563:Drivers/lvgl/src/hal/../draw/../misc/lv_color.h ****             fg_color_save.full = fg_color.full;
 861              		.loc 2 563 13 is_stmt 1 view .LVU266
 564:Drivers/lvgl/src/hal/../draw/../misc/lv_color.h ****             bg_color_save.full = bg_color.full;
 862              		.loc 2 564 13 view .LVU267
 565:Drivers/lvgl/src/hal/../draw/../misc/lv_color.h ****             /*Info:
 863              		.loc 2 565 13 view .LVU268
 568:Drivers/lvgl/src/hal/../draw/../misc/lv_color.h ****             LV_ASSERT(res_opa_saved != 0);
 864              		.loc 2 568 13 view .LVU269
 865              	.LBB94:
 866              	.LBB87:
 450:Drivers/lvgl/src/hal/../draw/../misc/lv_color.h ****                   0x7E0F81F; /*0b00000111111000001111100000011111*/
 867              		.loc 2 450 30 is_stmt 0 view .LVU270
 868 00c2 82B2     		uxth	r2, r0
 869              	.LBE87:
 870              	.LBE94:
 568:Drivers/lvgl/src/hal/../draw/../misc/lv_color.h ****             LV_ASSERT(res_opa_saved != 0);
 871              		.loc 2 568 33 view .LVU271
 872 00c4 86F47F44 		eor	r4, r6, #65280
 873              	.LVL74:
 874              	.LBB95:
 875              	.LBB88:
 450:Drivers/lvgl/src/hal/../draw/../misc/lv_color.h ****                   0x7E0F81F; /*0b00000111111000001111100000011111*/
 876              		.loc 2 450 14 view .LVU272
 877 00c8 1C4E     		ldr	r6, .L37
 878              	.LBE88:
 879              	.LBE95:
 568:Drivers/lvgl/src/hal/../draw/../misc/lv_color.h ****             LV_ASSERT(res_opa_saved != 0);
 880              		.loc 2 568 33 view .LVU273
ARM GAS  /var/folders/0z/tsy30v1j4xl4_7kw94k978ww0000gn/T//ccQFh5Uv.s 			page 43


 881 00ca C4F30724 		ubfx	r4, r4, #8, #8
 882              	.LBB96:
 883              	.LBB89:
 450:Drivers/lvgl/src/hal/../draw/../misc/lv_color.h ****                   0x7E0F81F; /*0b00000111111000001111100000011111*/
 884              		.loc 2 450 19 view .LVU274
 885 00ce 42EA0042 		orr	r2, r2, r0, lsl #16
 452:Drivers/lvgl/src/hal/../draw/../misc/lv_color.h ****     uint32_t result = ((((fg - bg) * mix) >> 5) + bg) & 0x7E0F81F;
 886              		.loc 2 452 19 view .LVU275
 887 00d2 45EA0545 		orr	r5, r5, r5, lsl #16
 888              	.LBE89:
 889              	.LBE96:
 570:Drivers/lvgl/src/hal/../draw/../misc/lv_color.h ****             res_color_saved = lv_color_mix(fg_color, bg_color, ratio);
 890              		.loc 2 570 30 view .LVU276
 891 00d6 1FFA8CFC 		uxth	ip, ip
 570:Drivers/lvgl/src/hal/../draw/../misc/lv_color.h ****             res_color_saved = lv_color_mix(fg_color, bg_color, ratio);
 892              		.loc 2 570 65 view .LVU277
 893 00da BCFBF4FC 		udiv	ip, ip, r4
 894              	.LBB97:
 895              	.LBB90:
 449:Drivers/lvgl/src/hal/../draw/../misc/lv_color.h ****     uint32_t bg = (uint32_t)((uint32_t)c2.full | ((uint32_t)c2.full << 16)) &
 896              		.loc 2 449 22 view .LVU278
 897 00de 5FFA8CFC 		uxtb	ip, ip
 450:Drivers/lvgl/src/hal/../draw/../misc/lv_color.h ****                   0x7E0F81F; /*0b00000111111000001111100000011111*/
 898              		.loc 2 450 14 view .LVU279
 899 00e2 3240     		ands	r2, r2, r6
 449:Drivers/lvgl/src/hal/../draw/../misc/lv_color.h ****     uint32_t bg = (uint32_t)((uint32_t)c2.full | ((uint32_t)c2.full << 16)) &
 900              		.loc 2 449 11 view .LVU280
 901 00e4 0CF1040C 		add	ip, ip, #4
 452:Drivers/lvgl/src/hal/../draw/../misc/lv_color.h ****     uint32_t result = ((((fg - bg) * mix) >> 5) + bg) & 0x7E0F81F;
 902              		.loc 2 452 14 view .LVU281
 903 00e8 3540     		ands	r5, r5, r6
 453:Drivers/lvgl/src/hal/../draw/../misc/lv_color.h ****     ret.full = (uint16_t)((result >> 16) | result);
 904              		.loc 2 453 30 view .LVU282
 905 00ea A81A     		subs	r0, r5, r2
 449:Drivers/lvgl/src/hal/../draw/../misc/lv_color.h ****     uint32_t bg = (uint32_t)((uint32_t)c2.full | ((uint32_t)c2.full << 16)) &
 906              		.loc 2 449 41 view .LVU283
 907 00ec 4FEADC0C 		lsr	ip, ip, #3
 453:Drivers/lvgl/src/hal/../draw/../misc/lv_color.h ****     ret.full = (uint16_t)((result >> 16) | result);
 908              		.loc 2 453 36 view .LVU284
 909 00f0 00FB0CF0 		mul	r0, r0, ip
 453:Drivers/lvgl/src/hal/../draw/../misc/lv_color.h ****     ret.full = (uint16_t)((result >> 16) | result);
 910              		.loc 2 453 49 view .LVU285
 911 00f4 02EB5012 		add	r2, r2, r0, lsr #5
 912              	.LBE90:
 913              	.LBE97:
 568:Drivers/lvgl/src/hal/../draw/../misc/lv_color.h ****             LV_ASSERT(res_opa_saved != 0);
 914              		.loc 2 568 27 view .LVU286
 915 00f8 1248     		ldr	r0, .L37+8
 916              	.LBB98:
 917              	.LBB91:
 453:Drivers/lvgl/src/hal/../draw/../misc/lv_color.h ****     ret.full = (uint16_t)((result >> 16) | result);
 918              		.loc 2 453 14 view .LVU287
 919 00fa 3240     		ands	r2, r2, r6
 920              	.LBE91:
 921              	.LBE98:
 568:Drivers/lvgl/src/hal/../draw/../misc/lv_color.h ****             LV_ASSERT(res_opa_saved != 0);
 922              		.loc 2 568 27 view .LVU288
ARM GAS  /var/folders/0z/tsy30v1j4xl4_7kw94k978ww0000gn/T//ccQFh5Uv.s 			page 44


 923 00fc 0470     		strb	r4, [r0]
 569:Drivers/lvgl/src/hal/../draw/../misc/lv_color.h ****             lv_opa_t ratio = (uint16_t)((uint16_t)fg_opa * 255) / res_opa_saved;
 924              		.loc 2 569 13 is_stmt 1 view .LVU289
 569:Drivers/lvgl/src/hal/../draw/../misc/lv_color.h ****             lv_opa_t ratio = (uint16_t)((uint16_t)fg_opa * 255) / res_opa_saved;
 925              		.loc 2 569 13 view .LVU290
 569:Drivers/lvgl/src/hal/../draw/../misc/lv_color.h ****             lv_opa_t ratio = (uint16_t)((uint16_t)fg_opa * 255) / res_opa_saved;
 926              		.loc 2 569 13 view .LVU291
 570:Drivers/lvgl/src/hal/../draw/../misc/lv_color.h ****             res_color_saved = lv_color_mix(fg_color, bg_color, ratio);
 927              		.loc 2 570 13 view .LVU292
 928              	.LVL75:
 571:Drivers/lvgl/src/hal/../draw/../misc/lv_color.h **** 
 929              		.loc 2 571 13 view .LVU293
 930              	.LBB99:
 931              	.LBI85:
 439:Drivers/lvgl/src/hal/../draw/../misc/lv_color.h **** {
 932              		.loc 2 439 48 view .LVU294
 933              	.LBB92:
 441:Drivers/lvgl/src/hal/../draw/../misc/lv_color.h **** 
 934              		.loc 2 441 5 view .LVU295
 445:Drivers/lvgl/src/hal/../draw/../misc/lv_color.h ****     c2.full = c2.full << 8 | c2.full >> 8;
 935              		.loc 2 445 5 view .LVU296
 446:Drivers/lvgl/src/hal/../draw/../misc/lv_color.h **** #endif
 936              		.loc 2 446 5 view .LVU297
 449:Drivers/lvgl/src/hal/../draw/../misc/lv_color.h ****     uint32_t bg = (uint32_t)((uint32_t)c2.full | ((uint32_t)c2.full << 16)) &
 937              		.loc 2 449 5 view .LVU298
 450:Drivers/lvgl/src/hal/../draw/../misc/lv_color.h ****                   0x7E0F81F; /*0b00000111111000001111100000011111*/
 938              		.loc 2 450 5 view .LVU299
 452:Drivers/lvgl/src/hal/../draw/../misc/lv_color.h ****     uint32_t result = ((((fg - bg) * mix) >> 5) + bg) & 0x7E0F81F;
 939              		.loc 2 452 5 view .LVU300
 453:Drivers/lvgl/src/hal/../draw/../misc/lv_color.h ****     ret.full = (uint16_t)((result >> 16) | result);
 940              		.loc 2 453 5 view .LVU301
 454:Drivers/lvgl/src/hal/../draw/../misc/lv_color.h **** #if LV_COLOR_16_SWAP == 1
 941              		.loc 2 454 5 view .LVU302
 456:Drivers/lvgl/src/hal/../draw/../misc/lv_color.h **** #endif
 942              		.loc 2 456 5 view .LVU303
 454:Drivers/lvgl/src/hal/../draw/../misc/lv_color.h **** #if LV_COLOR_16_SWAP == 1
 943              		.loc 2 454 16 is_stmt 0 view .LVU304
 944 00fe 42EA1242 		orr	r2, r2, r2, lsr #16
 945              	.LVL76:
 454:Drivers/lvgl/src/hal/../draw/../misc/lv_color.h **** #if LV_COLOR_16_SWAP == 1
 946              		.loc 2 454 16 view .LVU305
 947              	.LBE92:
 948              	.LBE99:
 571:Drivers/lvgl/src/hal/../draw/../misc/lv_color.h **** 
 949              		.loc 2 571 31 view .LVU306
 950 0102 1148     		ldr	r0, .L37+12
 951 0104 52BA     		rev16	r2, r2
 952              	.LVL77:
 571:Drivers/lvgl/src/hal/../draw/../misc/lv_color.h **** 
 953              		.loc 2 571 31 view .LVU307
 954 0106 0280     		strh	r2, [r0]	@ movhi
 955 0108 92B2     		uxth	r2, r2
 956              	.LBB100:
 957              	.LBB93:
 472:Drivers/lvgl/src/hal/../draw/../misc/lv_color.h **** }
 958              		.loc 2 472 5 is_stmt 1 view .LVU308
 959              	.LVL78:
ARM GAS  /var/folders/0z/tsy30v1j4xl4_7kw94k978ww0000gn/T//ccQFh5Uv.s 			page 45


 472:Drivers/lvgl/src/hal/../draw/../misc/lv_color.h **** }
 960              		.loc 2 472 5 is_stmt 0 view .LVU309
 961 010a 90E7     		b	.L28
 962              	.LVL79:
 963              	.L33:
 472:Drivers/lvgl/src/hal/../draw/../misc/lv_color.h **** }
 964              		.loc 2 472 5 view .LVU310
 965              	.LBE93:
 966              	.LBE100:
 967              	.LBE84:
 560:Drivers/lvgl/src/hal/../draw/../misc/lv_color.h ****            bg_color.full != bg_color_save.full) {
 968              		.loc 2 560 34 view .LVU311
 969 010c 9CF80080 		ldrb	r8, [ip]	@ zero_extendqisi2
 970 0110 B045     		cmp	r8, r6
 971 0112 DFF83C80 		ldr	r8, .L37+20
 972 0116 02D0     		beq	.L34
 973 0118 DFF83890 		ldr	r9, .L37+24
 974 011c C0E7     		b	.L27
 975              	.L34:
 560:Drivers/lvgl/src/hal/../draw/../misc/lv_color.h ****            bg_color.full != bg_color_save.full) {
 976              		.loc 2 560 59 view .LVU312
 977 011e B8F80090 		ldrh	r9, [r8]
 978 0122 9145     		cmp	r9, r2
 979 0124 DFF82C90 		ldr	r9, .L37+24
 980 0128 BAD1     		bne	.L27
 560:Drivers/lvgl/src/hal/../draw/../misc/lv_color.h ****            bg_color.full != bg_color_save.full) {
 981              		.loc 2 560 98 view .LVU313
 982 012a B9F800A0 		ldrh	r10, [r9]
 983 012e 8245     		cmp	r10, r0
 984 0130 B6D1     		bne	.L27
 575:Drivers/lvgl/src/hal/../draw/../misc/lv_color.h ****         *res_opa = res_opa_saved;
 985              		.loc 2 575 42 view .LVU314
 986 0132 054A     		ldr	r2, .L37+12
 987              	.LVL80:
 576:Drivers/lvgl/src/hal/../draw/../misc/lv_color.h ****     }
 988              		.loc 2 576 18 view .LVU315
 989 0134 0348     		ldr	r0, .L37+8
 575:Drivers/lvgl/src/hal/../draw/../misc/lv_color.h ****         *res_opa = res_opa_saved;
 990              		.loc 2 575 42 view .LVU316
 991 0136 1288     		ldrh	r2, [r2]
 992              	.LVL81:
 576:Drivers/lvgl/src/hal/../draw/../misc/lv_color.h ****     }
 993              		.loc 2 576 18 view .LVU317
 994 0138 0478     		ldrb	r4, [r0]	@ zero_extendqisi2
 995              	.LVL82:
 576:Drivers/lvgl/src/hal/../draw/../misc/lv_color.h ****     }
 996              		.loc 2 576 18 view .LVU318
 997 013a 78E7     		b	.L28
 998              	.L38:
 999              		.align	2
 1000              	.L37:
 1001 013c 1FF8E007 		.word	132184095
 1002 0140 00000000 		.word	.LANCHOR0
 1003 0144 00000000 		.word	.LANCHOR5
 1004 0148 00000000 		.word	.LANCHOR4
 1005 014c 00000000 		.word	.LANCHOR1
 1006 0150 00000000 		.word	.LANCHOR2
ARM GAS  /var/folders/0z/tsy30v1j4xl4_7kw94k978ww0000gn/T//ccQFh5Uv.s 			page 46


 1007 0154 00000000 		.word	.LANCHOR3
 1008              	.LBE106:
 1009              	.LBE111:
 1010              	.LBE116:
 1011              		.cfi_endproc
 1012              	.LFE189:
 1014              		.section	.text.lv_disp_drv_init,"ax",%progbits
 1015              		.align	1
 1016              		.p2align 2,,3
 1017              		.global	lv_disp_drv_init
 1018              		.syntax unified
 1019              		.thumb
 1020              		.thumb_func
 1022              	lv_disp_drv_init:
 1023              	.LVL83:
 1024              	.LFB161:
  85:Drivers/lvgl/src/hal/lv_hal_disp.c ****     lv_memset_00(driver, sizeof(lv_disp_drv_t));
 1025              		.loc 1 85 1 is_stmt 1 view -0
 1026              		.cfi_startproc
 1027              		@ args = 0, pretend = 0, frame = 0
 1028              		@ frame_needed = 0, uses_anonymous_args = 0
  86:Drivers/lvgl/src/hal/lv_hal_disp.c **** 
 1029              		.loc 1 86 5 view .LVU320
  85:Drivers/lvgl/src/hal/lv_hal_disp.c ****     lv_memset_00(driver, sizeof(lv_disp_drv_t));
 1030              		.loc 1 85 1 is_stmt 0 view .LVU321
 1031 0000 10B5     		push	{r4, lr}
 1032              		.cfi_def_cfa_offset 8
 1033              		.cfi_offset 4, -8
 1034              		.cfi_offset 14, -4
  85:Drivers/lvgl/src/hal/lv_hal_disp.c ****     lv_memset_00(driver, sizeof(lv_disp_drv_t));
 1035              		.loc 1 85 1 view .LVU322
 1036 0002 0446     		mov	r4, r0
  86:Drivers/lvgl/src/hal/lv_hal_disp.c **** 
 1037              		.loc 1 86 5 view .LVU323
 1038 0004 5021     		movs	r1, #80
 1039 0006 FFF7FEFF 		bl	lv_memset_00
 1040              	.LVL84:
  88:Drivers/lvgl/src/hal/lv_hal_disp.c ****     driver->ver_res          = 240;
 1041              		.loc 1 88 5 is_stmt 1 view .LVU324
  89:Drivers/lvgl/src/hal/lv_hal_disp.c ****     driver->physical_hor_res = -1;
 1042              		.loc 1 89 5 view .LVU325
  90:Drivers/lvgl/src/hal/lv_hal_disp.c ****     driver->physical_ver_res = -1;
 1043              		.loc 1 90 5 view .LVU326
  91:Drivers/lvgl/src/hal/lv_hal_disp.c ****     driver->offset_x         = 0;
 1044              		.loc 1 91 5 view .LVU327
  92:Drivers/lvgl/src/hal/lv_hal_disp.c ****     driver->offset_y         = 0;
 1045              		.loc 1 92 5 view .LVU328
  93:Drivers/lvgl/src/hal/lv_hal_disp.c ****     driver->antialiasing     = LV_COLOR_DEPTH > 8 ? 1 : 0;
 1046              		.loc 1 93 5 view .LVU329
  94:Drivers/lvgl/src/hal/lv_hal_disp.c ****     driver->screen_transp    = 0;
 1047              		.loc 1 94 30 is_stmt 0 view .LVU330
 1048 000a 2369     		ldr	r3, [r4, #16]
  88:Drivers/lvgl/src/hal/lv_hal_disp.c ****     driver->ver_res          = 240;
 1049              		.loc 1 88 30 view .LVU331
 1050 000c 0C48     		ldr	r0, .L41
 128:Drivers/lvgl/src/hal/lv_hal_disp.c ****     driver->draw_ctx_deinit = lv_draw_sw_init_ctx;
 1051              		.loc 1 128 27 view .LVU332
ARM GAS  /var/folders/0z/tsy30v1j4xl4_7kw94k978ww0000gn/T//ccQFh5Uv.s 			page 47


 1052 000e 0D4A     		ldr	r2, .L41+4
  94:Drivers/lvgl/src/hal/lv_hal_disp.c ****     driver->screen_transp    = 0;
 1053              		.loc 1 94 30 view .LVU333
 1054 0010 23F4FF33 		bic	r3, r3, #130560
 1055 0014 23F4E473 		bic	r3, r3, #456
 1056 0018 43F48243 		orr	r3, r3, #16640
  90:Drivers/lvgl/src/hal/lv_hal_disp.c ****     driver->physical_ver_res = -1;
 1057              		.loc 1 90 30 view .LVU334
 1058 001c 4FF0FF31 		mov	r1, #-1
  94:Drivers/lvgl/src/hal/lv_hal_disp.c ****     driver->screen_transp    = 0;
 1059              		.loc 1 94 30 view .LVU335
 1060 0020 43F00803 		orr	r3, r3, #8
  90:Drivers/lvgl/src/hal/lv_hal_disp.c ****     driver->physical_ver_res = -1;
 1061              		.loc 1 90 30 view .LVU336
 1062 0024 C4E90001 		strd	r0, r1, [r4]
  94:Drivers/lvgl/src/hal/lv_hal_disp.c ****     driver->screen_transp    = 0;
 1063              		.loc 1 94 30 view .LVU337
 1064 0028 2361     		str	r3, [r4, #16]
  92:Drivers/lvgl/src/hal/lv_hal_disp.c ****     driver->offset_y         = 0;
 1065              		.loc 1 92 30 view .LVU338
 1066 002a 0020     		movs	r0, #0
  97:Drivers/lvgl/src/hal/lv_hal_disp.c **** 
 1067              		.loc 1 97 32 view .LVU339
 1068 002c 4EF20701 		movw	r1, #57351
 130:Drivers/lvgl/src/hal/lv_hal_disp.c **** #endif
 1069              		.loc 1 130 27 view .LVU340
 1070 0030 5823     		movs	r3, #88
 129:Drivers/lvgl/src/hal/lv_hal_disp.c ****     driver->draw_ctx_size = sizeof(lv_draw_sw_ctx_t);
 1071              		.loc 1 129 29 view .LVU341
 1072 0032 C4E91022 		strd	r2, r2, [r4, #64]
  92:Drivers/lvgl/src/hal/lv_hal_disp.c ****     driver->offset_y         = 0;
 1073              		.loc 1 92 30 view .LVU342
 1074 0036 A060     		str	r0, [r4, #8]
  94:Drivers/lvgl/src/hal/lv_hal_disp.c ****     driver->screen_transp    = 0;
 1075              		.loc 1 94 5 is_stmt 1 view .LVU343
  95:Drivers/lvgl/src/hal/lv_hal_disp.c ****     driver->dpi              = LV_DPI_DEF;
 1076              		.loc 1 95 5 view .LVU344
  96:Drivers/lvgl/src/hal/lv_hal_disp.c ****     driver->color_chroma_key = LV_COLOR_CHROMA_KEY;
 1077              		.loc 1 96 5 view .LVU345
  97:Drivers/lvgl/src/hal/lv_hal_disp.c **** 
 1078              		.loc 1 97 5 view .LVU346
  97:Drivers/lvgl/src/hal/lv_hal_disp.c **** 
 1079              		.loc 1 97 32 is_stmt 0 view .LVU347
 1080 0038 2187     		strh	r1, [r4, #56]	@ movhi
 128:Drivers/lvgl/src/hal/lv_hal_disp.c ****     driver->draw_ctx_deinit = lv_draw_sw_init_ctx;
 1081              		.loc 1 128 5 is_stmt 1 view .LVU348
 130:Drivers/lvgl/src/hal/lv_hal_disp.c **** #endif
 1082              		.loc 1 130 5 view .LVU349
 130:Drivers/lvgl/src/hal/lv_hal_disp.c **** #endif
 1083              		.loc 1 130 27 is_stmt 0 view .LVU350
 1084 003a A364     		str	r3, [r4, #72]
 133:Drivers/lvgl/src/hal/lv_hal_disp.c **** 
 1085              		.loc 1 133 1 view .LVU351
 1086 003c 10BD     		pop	{r4, pc}
 1087              	.LVL85:
 1088              	.L42:
 133:Drivers/lvgl/src/hal/lv_hal_disp.c **** 
ARM GAS  /var/folders/0z/tsy30v1j4xl4_7kw94k978ww0000gn/T//ccQFh5Uv.s 			page 48


 1089              		.loc 1 133 1 view .LVU352
 1090 003e 00BF     		.align	2
 1091              	.L41:
 1092 0040 4001F000 		.word	15728960
 1093 0044 00000000 		.word	lv_draw_sw_init_ctx
 1094              		.cfi_endproc
 1095              	.LFE161:
 1097              		.section	.text.lv_disp_draw_buf_init,"ax",%progbits
 1098              		.align	1
 1099              		.p2align 2,,3
 1100              		.global	lv_disp_draw_buf_init
 1101              		.syntax unified
 1102              		.thumb
 1103              		.thumb_func
 1105              	lv_disp_draw_buf_init:
 1106              	.LVL86:
 1107              	.LFB162:
 151:Drivers/lvgl/src/hal/lv_hal_disp.c ****     lv_memset_00(draw_buf, sizeof(lv_disp_draw_buf_t));
 1108              		.loc 1 151 1 is_stmt 1 view -0
 1109              		.cfi_startproc
 1110              		@ args = 0, pretend = 0, frame = 0
 1111              		@ frame_needed = 0, uses_anonymous_args = 0
 152:Drivers/lvgl/src/hal/lv_hal_disp.c **** 
 1112              		.loc 1 152 5 view .LVU354
 151:Drivers/lvgl/src/hal/lv_hal_disp.c ****     lv_memset_00(draw_buf, sizeof(lv_disp_draw_buf_t));
 1113              		.loc 1 151 1 is_stmt 0 view .LVU355
 1114 0000 F8B5     		push	{r3, r4, r5, r6, r7, lr}
 1115              		.cfi_def_cfa_offset 24
 1116              		.cfi_offset 3, -24
 1117              		.cfi_offset 4, -20
 1118              		.cfi_offset 5, -16
 1119              		.cfi_offset 6, -12
 1120              		.cfi_offset 7, -8
 1121              		.cfi_offset 14, -4
 151:Drivers/lvgl/src/hal/lv_hal_disp.c ****     lv_memset_00(draw_buf, sizeof(lv_disp_draw_buf_t));
 1122              		.loc 1 151 1 view .LVU356
 1123 0002 0446     		mov	r4, r0
 1124 0004 0D46     		mov	r5, r1
 1125 0006 1746     		mov	r7, r2
 1126 0008 1E46     		mov	r6, r3
 152:Drivers/lvgl/src/hal/lv_hal_disp.c **** 
 1127              		.loc 1 152 5 view .LVU357
 1128 000a 1C21     		movs	r1, #28
 1129              	.LVL87:
 152:Drivers/lvgl/src/hal/lv_hal_disp.c **** 
 1130              		.loc 1 152 5 view .LVU358
 1131 000c FFF7FEFF 		bl	lv_memset_00
 1132              	.LVL88:
 154:Drivers/lvgl/src/hal/lv_hal_disp.c ****     draw_buf->buf2    = buf2;
 1133              		.loc 1 154 5 is_stmt 1 view .LVU359
 155:Drivers/lvgl/src/hal/lv_hal_disp.c ****     draw_buf->buf_act = draw_buf->buf1;
 1134              		.loc 1 155 23 is_stmt 0 view .LVU360
 1135 0010 C4E90057 		strd	r5, r7, [r4]
 156:Drivers/lvgl/src/hal/lv_hal_disp.c ****     draw_buf->size    = size_in_px_cnt;
 1136              		.loc 1 156 5 is_stmt 1 view .LVU361
 157:Drivers/lvgl/src/hal/lv_hal_disp.c **** }
 1137              		.loc 1 157 23 is_stmt 0 view .LVU362
ARM GAS  /var/folders/0z/tsy30v1j4xl4_7kw94k978ww0000gn/T//ccQFh5Uv.s 			page 49


 1138 0014 C4E90256 		strd	r5, r6, [r4, #8]
 158:Drivers/lvgl/src/hal/lv_hal_disp.c **** 
 1139              		.loc 1 158 1 view .LVU363
 1140 0018 F8BD     		pop	{r3, r4, r5, r6, r7, pc}
 158:Drivers/lvgl/src/hal/lv_hal_disp.c **** 
 1141              		.loc 1 158 1 view .LVU364
 1142              		.cfi_endproc
 1143              	.LFE162:
 1145 001a 00BF     		.section	.text.lv_disp_drv_register,"ax",%progbits
 1146              		.align	1
 1147              		.p2align 2,,3
 1148              		.global	lv_disp_drv_register
 1149              		.syntax unified
 1150              		.thumb
 1151              		.thumb_func
 1153              	lv_disp_drv_register:
 1154              	.LVL89:
 1155              	.LFB163:
 167:Drivers/lvgl/src/hal/lv_hal_disp.c ****     lv_disp_t * disp = _lv_ll_ins_head(&LV_GC_ROOT(_lv_disp_ll));
 1156              		.loc 1 167 1 is_stmt 1 view -0
 1157              		.cfi_startproc
 1158              		@ args = 0, pretend = 0, frame = 8
 1159              		@ frame_needed = 0, uses_anonymous_args = 0
 168:Drivers/lvgl/src/hal/lv_hal_disp.c ****     LV_ASSERT_MALLOC(disp);
 1160              		.loc 1 168 5 view .LVU366
 167:Drivers/lvgl/src/hal/lv_hal_disp.c ****     lv_disp_t * disp = _lv_ll_ins_head(&LV_GC_ROOT(_lv_disp_ll));
 1161              		.loc 1 167 1 is_stmt 0 view .LVU367
 1162 0000 F0B5     		push	{r4, r5, r6, r7, lr}
 1163              		.cfi_def_cfa_offset 20
 1164              		.cfi_offset 4, -20
 1165              		.cfi_offset 5, -16
 1166              		.cfi_offset 6, -12
 1167              		.cfi_offset 7, -8
 1168              		.cfi_offset 14, -4
 1169 0002 0546     		mov	r5, r0
 1170 0004 85B0     		sub	sp, sp, #20
 1171              		.cfi_def_cfa_offset 40
 168:Drivers/lvgl/src/hal/lv_hal_disp.c ****     LV_ASSERT_MALLOC(disp);
 1172              		.loc 1 168 24 view .LVU368
 1173 0006 4848     		ldr	r0, .L63
 1174              	.LVL90:
 168:Drivers/lvgl/src/hal/lv_hal_disp.c ****     LV_ASSERT_MALLOC(disp);
 1175              		.loc 1 168 24 view .LVU369
 1176 0008 FFF7FEFF 		bl	_lv_ll_ins_head
 1177              	.LVL91:
 169:Drivers/lvgl/src/hal/lv_hal_disp.c ****     if(!disp) {
 1178              		.loc 1 169 5 is_stmt 1 view .LVU370
 169:Drivers/lvgl/src/hal/lv_hal_disp.c ****     if(!disp) {
 1179              		.loc 1 169 5 view .LVU371
 1180 000c 0028     		cmp	r0, #0
 1181 000e 7AD0     		beq	.L47
 169:Drivers/lvgl/src/hal/lv_hal_disp.c ****     if(!disp) {
 1182              		.loc 1 169 5 view .LVU372
 169:Drivers/lvgl/src/hal/lv_hal_disp.c ****     if(!disp) {
 1183              		.loc 1 169 27 view .LVU373
 170:Drivers/lvgl/src/hal/lv_hal_disp.c ****         return NULL;
 1184              		.loc 1 170 5 view .LVU374
ARM GAS  /var/folders/0z/tsy30v1j4xl4_7kw94k978ww0000gn/T//ccQFh5Uv.s 			page 50


 175:Drivers/lvgl/src/hal/lv_hal_disp.c ****         lv_draw_ctx_t * draw_ctx = lv_mem_alloc(driver->draw_ctx_size);
 1185              		.loc 1 175 5 view .LVU375
 175:Drivers/lvgl/src/hal/lv_hal_disp.c ****         lv_draw_ctx_t * draw_ctx = lv_mem_alloc(driver->draw_ctx_size);
 1186              		.loc 1 175 7 is_stmt 0 view .LVU376
 1187 0010 EB6B     		ldr	r3, [r5, #60]
 1188 0012 0446     		mov	r4, r0
 1189 0014 002B     		cmp	r3, #0
 1190 0016 78D0     		beq	.L62
 1191              	.LVL92:
 1192              	.L48:
 183:Drivers/lvgl/src/hal/lv_hal_disp.c **** 
 1193              		.loc 1 183 5 is_stmt 1 view .LVU377
 1194 0018 4FF4B471 		mov	r1, #360
 1195 001c 2046     		mov	r0, r4
 1196 001e FFF7FEFF 		bl	lv_memset_00
 1197              	.LVL93:
 185:Drivers/lvgl/src/hal/lv_hal_disp.c **** 
 1198              		.loc 1 185 5 view .LVU378
 187:Drivers/lvgl/src/hal/lv_hal_disp.c **** 
 1199              		.loc 1 187 22 is_stmt 0 view .LVU379
 1200 0022 0123     		movs	r3, #1
 191:Drivers/lvgl/src/hal/lv_hal_disp.c ****     disp_def                 = disp; /*Temporarily change the default screen to create the default 
 1201              		.loc 1 191 17 view .LVU380
 1202 0024 414E     		ldr	r6, .L63+4
 187:Drivers/lvgl/src/hal/lv_hal_disp.c **** 
 1203              		.loc 1 187 22 view .LVU381
 1204 0026 C4F85431 		str	r3, [r4, #340]
 189:Drivers/lvgl/src/hal/lv_hal_disp.c **** 
 1205              		.loc 1 189 5 view .LVU382
 1206 002a 0821     		movs	r1, #8
 1207 002c 04F5AC70 		add	r0, r4, #344
 185:Drivers/lvgl/src/hal/lv_hal_disp.c **** 
 1208              		.loc 1 185 18 view .LVU383
 1209 0030 2560     		str	r5, [r4]
 187:Drivers/lvgl/src/hal/lv_hal_disp.c **** 
 1210              		.loc 1 187 5 is_stmt 1 view .LVU384
 189:Drivers/lvgl/src/hal/lv_hal_disp.c **** 
 1211              		.loc 1 189 5 view .LVU385
 1212 0032 FFF7FEFF 		bl	_lv_ll_init
 1213              	.LVL94:
 191:Drivers/lvgl/src/hal/lv_hal_disp.c ****     disp_def                 = disp; /*Temporarily change the default screen to create the default 
 1214              		.loc 1 191 5 view .LVU386
 195:Drivers/lvgl/src/hal/lv_hal_disp.c ****     LV_ASSERT_MALLOC(disp->refr_timer);
 1215              		.loc 1 195 24 is_stmt 0 view .LVU387
 1216 0036 3E48     		ldr	r0, .L63+8
 191:Drivers/lvgl/src/hal/lv_hal_disp.c ****     disp_def                 = disp; /*Temporarily change the default screen to create the default 
 1217              		.loc 1 191 17 view .LVU388
 1218 0038 3768     		ldr	r7, [r6]
 1219              	.LVL95:
 192:Drivers/lvgl/src/hal/lv_hal_disp.c ****                                         new display*/
 1220              		.loc 1 192 5 is_stmt 1 view .LVU389
 192:Drivers/lvgl/src/hal/lv_hal_disp.c ****                                         new display*/
 1221              		.loc 1 192 30 is_stmt 0 view .LVU390
 1222 003a 3460     		str	r4, [r6]
 195:Drivers/lvgl/src/hal/lv_hal_disp.c ****     LV_ASSERT_MALLOC(disp->refr_timer);
 1223              		.loc 1 195 5 is_stmt 1 view .LVU391
 195:Drivers/lvgl/src/hal/lv_hal_disp.c ****     LV_ASSERT_MALLOC(disp->refr_timer);
ARM GAS  /var/folders/0z/tsy30v1j4xl4_7kw94k978ww0000gn/T//ccQFh5Uv.s 			page 51


 1224              		.loc 1 195 24 is_stmt 0 view .LVU392
 1225 003c 2246     		mov	r2, r4
 1226 003e 3221     		movs	r1, #50
 1227 0040 FFF7FEFF 		bl	lv_timer_create
 1228              	.LVL96:
 195:Drivers/lvgl/src/hal/lv_hal_disp.c ****     LV_ASSERT_MALLOC(disp->refr_timer);
 1229              		.loc 1 195 22 view .LVU393
 1230 0044 6060     		str	r0, [r4, #4]
 196:Drivers/lvgl/src/hal/lv_hal_disp.c ****     if(disp->refr_timer == NULL) {
 1231              		.loc 1 196 5 is_stmt 1 view .LVU394
 196:Drivers/lvgl/src/hal/lv_hal_disp.c ****     if(disp->refr_timer == NULL) {
 1232              		.loc 1 196 5 view .LVU395
 1233 0046 0028     		cmp	r0, #0
 1234 0048 5ED0     		beq	.L52
 196:Drivers/lvgl/src/hal/lv_hal_disp.c ****     if(disp->refr_timer == NULL) {
 1235              		.loc 1 196 5 view .LVU396
 196:Drivers/lvgl/src/hal/lv_hal_disp.c ****     if(disp->refr_timer == NULL) {
 1236              		.loc 1 196 39 view .LVU397
 197:Drivers/lvgl/src/hal/lv_hal_disp.c ****         lv_mem_free(disp);
 1237              		.loc 1 197 5 view .LVU398
 202:Drivers/lvgl/src/hal/lv_hal_disp.c ****         driver->full_refresh = 0;
 1238              		.loc 1 202 5 view .LVU399
 202:Drivers/lvgl/src/hal/lv_hal_disp.c ****         driver->full_refresh = 0;
 1239              		.loc 1 202 8 is_stmt 0 view .LVU400
 1240 004a 2B7C     		ldrb	r3, [r5, #16]	@ zero_extendqisi2
 202:Drivers/lvgl/src/hal/lv_hal_disp.c ****         driver->full_refresh = 0;
 1241              		.loc 1 202 7 view .LVU401
 1242 004c 9A07     		lsls	r2, r3, #30
 1243 004e 0AD5     		bpl	.L53
 202:Drivers/lvgl/src/hal/lv_hal_disp.c ****         driver->full_refresh = 0;
 1244              		.loc 1 202 48 discriminator 1 view .LVU402
 1245 0050 EA68     		ldr	r2, [r5, #12]
 202:Drivers/lvgl/src/hal/lv_hal_disp.c ****         driver->full_refresh = 0;
 1246              		.loc 1 202 83 discriminator 1 view .LVU403
 1247 0052 6888     		ldrh	r0, [r5, #2]
 202:Drivers/lvgl/src/hal/lv_hal_disp.c ****         driver->full_refresh = 0;
 1248              		.loc 1 202 29 discriminator 1 view .LVU404
 1249 0054 D168     		ldr	r1, [r2, #12]
 202:Drivers/lvgl/src/hal/lv_hal_disp.c ****         driver->full_refresh = 0;
 1250              		.loc 1 202 83 discriminator 1 view .LVU405
 1251 0056 2A88     		ldrh	r2, [r5]
 1252 0058 12FB00F2 		smulbb	r2, r2, r0
 202:Drivers/lvgl/src/hal/lv_hal_disp.c ****         driver->full_refresh = 0;
 1253              		.loc 1 202 29 discriminator 1 view .LVU406
 1254 005c 9142     		cmp	r1, r2
 203:Drivers/lvgl/src/hal/lv_hal_disp.c ****         LV_LOG_WARN("full_refresh requires at least screen sized draw buffer(s)");
 1255              		.loc 1 203 9 is_stmt 1 discriminator 1 view .LVU407
 203:Drivers/lvgl/src/hal/lv_hal_disp.c ****         LV_LOG_WARN("full_refresh requires at least screen sized draw buffer(s)");
 1256              		.loc 1 203 30 is_stmt 0 discriminator 1 view .LVU408
 1257 005e 3CBF     		itt	cc
 1258 0060 6FF34103 		bfccc	r3, #1, #1
 1259 0064 2B74     		strbcc	r3, [r5, #16]
 1260              	.L53:
 204:Drivers/lvgl/src/hal/lv_hal_disp.c ****     }
 1261              		.loc 1 204 9 is_stmt 1 view .LVU409
 204:Drivers/lvgl/src/hal/lv_hal_disp.c ****     }
 1262              		.loc 1 204 9 view .LVU410
ARM GAS  /var/folders/0z/tsy30v1j4xl4_7kw94k978ww0000gn/T//ccQFh5Uv.s 			page 52


 204:Drivers/lvgl/src/hal/lv_hal_disp.c ****     }
 1263              		.loc 1 204 9 view .LVU411
 207:Drivers/lvgl/src/hal/lv_hal_disp.c **** #if LV_COLOR_SCREEN_TRANSP
 1264              		.loc 1 207 5 view .LVU412
 211:Drivers/lvgl/src/hal/lv_hal_disp.c **** #endif
 1265              		.loc 1 211 5 view .LVU413
 211:Drivers/lvgl/src/hal/lv_hal_disp.c **** #endif
 1266              		.loc 1 211 18 is_stmt 0 view .LVU414
 1267 0066 FF22     		movs	r2, #255
 207:Drivers/lvgl/src/hal/lv_hal_disp.c **** #if LV_COLOR_SCREEN_TRANSP
 1268              		.loc 1 207 22 view .LVU415
 1269 0068 4FF6FF73 		movw	r3, #65535
 211:Drivers/lvgl/src/hal/lv_hal_disp.c **** #endif
 1270              		.loc 1 211 18 view .LVU416
 1271 006c 84F82920 		strb	r2, [r4, #41]
 207:Drivers/lvgl/src/hal/lv_hal_disp.c **** #if LV_COLOR_SCREEN_TRANSP
 1272              		.loc 1 207 22 view .LVU417
 1273 0070 6385     		strh	r3, [r4, #42]	@ movhi
 215:Drivers/lvgl/src/hal/lv_hal_disp.c ****         disp->theme = lv_theme_default_init(disp, lv_palette_main(LV_PALETTE_BLUE), lv_palette_main
 1274              		.loc 1 215 5 is_stmt 1 view .LVU418
 215:Drivers/lvgl/src/hal/lv_hal_disp.c ****         disp->theme = lv_theme_default_init(disp, lv_palette_main(LV_PALETTE_BLUE), lv_palette_main
 1275              		.loc 1 215 8 is_stmt 0 view .LVU419
 1276 0072 FFF7FEFF 		bl	lv_theme_default_is_inited
 1277              	.LVL97:
 215:Drivers/lvgl/src/hal/lv_hal_disp.c ****         disp->theme = lv_theme_default_init(disp, lv_palette_main(LV_PALETTE_BLUE), lv_palette_main
 1278              		.loc 1 215 7 view .LVU420
 1279 0076 0546     		mov	r5, r0
 1280              	.LVL98:
 215:Drivers/lvgl/src/hal/lv_hal_disp.c ****         disp->theme = lv_theme_default_init(disp, lv_palette_main(LV_PALETTE_BLUE), lv_palette_main
 1281              		.loc 1 215 7 view .LVU421
 1282 0078 0028     		cmp	r0, #0
 1283 007a 52D1     		bne	.L54
 216:Drivers/lvgl/src/hal/lv_hal_disp.c ****                                             LV_THEME_DEFAULT_DARK, LV_FONT_DEFAULT);
 1284              		.loc 1 216 9 is_stmt 1 view .LVU422
 216:Drivers/lvgl/src/hal/lv_hal_disp.c ****                                             LV_THEME_DEFAULT_DARK, LV_FONT_DEFAULT);
 1285              		.loc 1 216 23 is_stmt 0 view .LVU423
 1286 007c 0520     		movs	r0, #5
 1287 007e FFF7FEFF 		bl	lv_palette_main
 1288              	.LVL99:
 1289 0082 0146     		mov	r1, r0	@ movhi
 1290 0084 2846     		mov	r0, r5
 1291 0086 0391     		str	r1, [sp, #12]
 1292 0088 FFF7FEFF 		bl	lv_palette_main
 1293              	.LVL100:
 1294 008c 0246     		mov	r2, r0	@ movhi
 1295 008e 2948     		ldr	r0, .L63+12
 1296 0090 0090     		str	r0, [sp]
 1297 0092 0399     		ldr	r1, [sp, #12]
 1298 0094 2B46     		mov	r3, r5
 1299 0096 2046     		mov	r0, r4
 1300 0098 FFF7FEFF 		bl	lv_theme_default_init
 1301              	.LVL101:
 1302              	.L55:
 216:Drivers/lvgl/src/hal/lv_hal_disp.c ****                                             LV_THEME_DEFAULT_DARK, LV_FONT_DEFAULT);
 1303              		.loc 1 216 21 view .LVU424
 1304 009c A060     		str	r0, [r4, #8]
 224:Drivers/lvgl/src/hal/lv_hal_disp.c ****     disp->top_layer = lv_obj_create(NULL); /*Create top layer on the display*/
ARM GAS  /var/folders/0z/tsy30v1j4xl4_7kw94k978ww0000gn/T//ccQFh5Uv.s 			page 53


 1305              		.loc 1 224 5 is_stmt 1 view .LVU425
 224:Drivers/lvgl/src/hal/lv_hal_disp.c ****     disp->top_layer = lv_obj_create(NULL); /*Create top layer on the display*/
 1306              		.loc 1 224 23 is_stmt 0 view .LVU426
 1307 009e 0020     		movs	r0, #0
 1308 00a0 FFF7FEFF 		bl	lv_obj_create
 1309              	.LVL102:
 224:Drivers/lvgl/src/hal/lv_hal_disp.c ****     disp->top_layer = lv_obj_create(NULL); /*Create top layer on the display*/
 1310              		.loc 1 224 21 view .LVU427
 1311 00a4 2061     		str	r0, [r4, #16]
 225:Drivers/lvgl/src/hal/lv_hal_disp.c ****     disp->sys_layer = lv_obj_create(NULL); /*Create sys layer on the display*/
 1312              		.loc 1 225 5 is_stmt 1 view .LVU428
 225:Drivers/lvgl/src/hal/lv_hal_disp.c ****     disp->sys_layer = lv_obj_create(NULL); /*Create sys layer on the display*/
 1313              		.loc 1 225 23 is_stmt 0 view .LVU429
 1314 00a6 0020     		movs	r0, #0
 1315 00a8 FFF7FEFF 		bl	lv_obj_create
 1316              	.LVL103:
 225:Drivers/lvgl/src/hal/lv_hal_disp.c ****     disp->sys_layer = lv_obj_create(NULL); /*Create sys layer on the display*/
 1317              		.loc 1 225 21 view .LVU430
 1318 00ac E061     		str	r0, [r4, #28]
 226:Drivers/lvgl/src/hal/lv_hal_disp.c ****     lv_obj_remove_style_all(disp->top_layer);
 1319              		.loc 1 226 5 is_stmt 1 view .LVU431
 226:Drivers/lvgl/src/hal/lv_hal_disp.c ****     lv_obj_remove_style_all(disp->top_layer);
 1320              		.loc 1 226 23 is_stmt 0 view .LVU432
 1321 00ae 0020     		movs	r0, #0
 1322 00b0 FFF7FEFF 		bl	lv_obj_create
 1323              	.LVL104:
 1324              	.LBB117:
 1325              	.LBB118:
 1326              		.file 3 "Drivers/lvgl/src/hal/../core/lv_obj_style.h"
   1:Drivers/lvgl/src/hal/../core/lv_obj_style.h **** /**
   2:Drivers/lvgl/src/hal/../core/lv_obj_style.h ****  * @file lv_obj_style.h
   3:Drivers/lvgl/src/hal/../core/lv_obj_style.h ****  *
   4:Drivers/lvgl/src/hal/../core/lv_obj_style.h ****  */
   5:Drivers/lvgl/src/hal/../core/lv_obj_style.h **** 
   6:Drivers/lvgl/src/hal/../core/lv_obj_style.h **** #ifndef LV_OBJ_STYLE_H
   7:Drivers/lvgl/src/hal/../core/lv_obj_style.h **** #define LV_OBJ_STYLE_H
   8:Drivers/lvgl/src/hal/../core/lv_obj_style.h **** 
   9:Drivers/lvgl/src/hal/../core/lv_obj_style.h **** #ifdef __cplusplus
  10:Drivers/lvgl/src/hal/../core/lv_obj_style.h **** extern "C" {
  11:Drivers/lvgl/src/hal/../core/lv_obj_style.h **** #endif
  12:Drivers/lvgl/src/hal/../core/lv_obj_style.h **** 
  13:Drivers/lvgl/src/hal/../core/lv_obj_style.h **** /*********************
  14:Drivers/lvgl/src/hal/../core/lv_obj_style.h ****  *      INCLUDES
  15:Drivers/lvgl/src/hal/../core/lv_obj_style.h ****  *********************/
  16:Drivers/lvgl/src/hal/../core/lv_obj_style.h **** #include <stdint.h>
  17:Drivers/lvgl/src/hal/../core/lv_obj_style.h **** #include <stdbool.h>
  18:Drivers/lvgl/src/hal/../core/lv_obj_style.h **** #include "../misc/lv_bidi.h"
  19:Drivers/lvgl/src/hal/../core/lv_obj_style.h **** 
  20:Drivers/lvgl/src/hal/../core/lv_obj_style.h **** /*********************
  21:Drivers/lvgl/src/hal/../core/lv_obj_style.h ****  *      DEFINES
  22:Drivers/lvgl/src/hal/../core/lv_obj_style.h ****  *********************/
  23:Drivers/lvgl/src/hal/../core/lv_obj_style.h **** 
  24:Drivers/lvgl/src/hal/../core/lv_obj_style.h **** /**********************
  25:Drivers/lvgl/src/hal/../core/lv_obj_style.h ****  *      TYPEDEFS
  26:Drivers/lvgl/src/hal/../core/lv_obj_style.h ****  **********************/
  27:Drivers/lvgl/src/hal/../core/lv_obj_style.h **** /*Can't include lv_obj.h because it includes this header file*/
  28:Drivers/lvgl/src/hal/../core/lv_obj_style.h **** struct _lv_obj_t;
ARM GAS  /var/folders/0z/tsy30v1j4xl4_7kw94k978ww0000gn/T//ccQFh5Uv.s 			page 54


  29:Drivers/lvgl/src/hal/../core/lv_obj_style.h **** 
  30:Drivers/lvgl/src/hal/../core/lv_obj_style.h **** typedef enum {
  31:Drivers/lvgl/src/hal/../core/lv_obj_style.h ****     _LV_STYLE_STATE_CMP_SAME,           /*The style properties in the 2 states are identical*/
  32:Drivers/lvgl/src/hal/../core/lv_obj_style.h ****     _LV_STYLE_STATE_CMP_DIFF_REDRAW,    /*The differences can be shown with a simple redraw*/
  33:Drivers/lvgl/src/hal/../core/lv_obj_style.h ****     _LV_STYLE_STATE_CMP_DIFF_DRAW_PAD,  /*The differences can be shown with a simple redraw*/
  34:Drivers/lvgl/src/hal/../core/lv_obj_style.h ****     _LV_STYLE_STATE_CMP_DIFF_LAYOUT,    /*The differences can be shown with a simple redraw*/
  35:Drivers/lvgl/src/hal/../core/lv_obj_style.h **** } _lv_style_state_cmp_t;
  36:Drivers/lvgl/src/hal/../core/lv_obj_style.h **** 
  37:Drivers/lvgl/src/hal/../core/lv_obj_style.h **** typedef uint32_t lv_style_selector_t;
  38:Drivers/lvgl/src/hal/../core/lv_obj_style.h **** 
  39:Drivers/lvgl/src/hal/../core/lv_obj_style.h **** typedef struct {
  40:Drivers/lvgl/src/hal/../core/lv_obj_style.h ****     lv_style_t * style;
  41:Drivers/lvgl/src/hal/../core/lv_obj_style.h ****     uint32_t selector : 24;
  42:Drivers/lvgl/src/hal/../core/lv_obj_style.h ****     uint32_t is_local : 1;
  43:Drivers/lvgl/src/hal/../core/lv_obj_style.h ****     uint32_t is_trans : 1;
  44:Drivers/lvgl/src/hal/../core/lv_obj_style.h **** } _lv_obj_style_t;
  45:Drivers/lvgl/src/hal/../core/lv_obj_style.h **** 
  46:Drivers/lvgl/src/hal/../core/lv_obj_style.h **** typedef struct {
  47:Drivers/lvgl/src/hal/../core/lv_obj_style.h ****     uint16_t time;
  48:Drivers/lvgl/src/hal/../core/lv_obj_style.h ****     uint16_t delay;
  49:Drivers/lvgl/src/hal/../core/lv_obj_style.h ****     lv_style_selector_t selector;
  50:Drivers/lvgl/src/hal/../core/lv_obj_style.h ****     lv_style_prop_t prop;
  51:Drivers/lvgl/src/hal/../core/lv_obj_style.h ****     lv_anim_path_cb_t path_cb;
  52:Drivers/lvgl/src/hal/../core/lv_obj_style.h **** #if LV_USE_USER_DATA
  53:Drivers/lvgl/src/hal/../core/lv_obj_style.h ****     void * user_data;
  54:Drivers/lvgl/src/hal/../core/lv_obj_style.h **** #endif
  55:Drivers/lvgl/src/hal/../core/lv_obj_style.h **** } _lv_obj_style_transition_dsc_t;
  56:Drivers/lvgl/src/hal/../core/lv_obj_style.h **** 
  57:Drivers/lvgl/src/hal/../core/lv_obj_style.h **** /**********************
  58:Drivers/lvgl/src/hal/../core/lv_obj_style.h ****  * GLOBAL PROTOTYPES
  59:Drivers/lvgl/src/hal/../core/lv_obj_style.h ****  **********************/
  60:Drivers/lvgl/src/hal/../core/lv_obj_style.h **** 
  61:Drivers/lvgl/src/hal/../core/lv_obj_style.h **** /**
  62:Drivers/lvgl/src/hal/../core/lv_obj_style.h ****  * Initialize the object related style manager module.
  63:Drivers/lvgl/src/hal/../core/lv_obj_style.h ****  * Called by LVGL in `lv_init()`
  64:Drivers/lvgl/src/hal/../core/lv_obj_style.h ****  */
  65:Drivers/lvgl/src/hal/../core/lv_obj_style.h **** void _lv_obj_style_init(void);
  66:Drivers/lvgl/src/hal/../core/lv_obj_style.h **** 
  67:Drivers/lvgl/src/hal/../core/lv_obj_style.h **** /**
  68:Drivers/lvgl/src/hal/../core/lv_obj_style.h ****  * Add a style to an object.
  69:Drivers/lvgl/src/hal/../core/lv_obj_style.h ****  * @param obj       pointer to an object
  70:Drivers/lvgl/src/hal/../core/lv_obj_style.h ****  * @param style     pointer to a style to add
  71:Drivers/lvgl/src/hal/../core/lv_obj_style.h ****  * @param selector  OR-ed value of parts and state to which the style should be added
  72:Drivers/lvgl/src/hal/../core/lv_obj_style.h ****  * @example         lv_obj_add_style(btn, &style_btn, 0); //Default button style
  73:Drivers/lvgl/src/hal/../core/lv_obj_style.h ****  * @example         lv_obj_add_style(btn, &btn_red, LV_STATE_PRESSED); //Overwrite only some colors
  74:Drivers/lvgl/src/hal/../core/lv_obj_style.h ****  */
  75:Drivers/lvgl/src/hal/../core/lv_obj_style.h **** void lv_obj_add_style(struct _lv_obj_t * obj, lv_style_t * style, lv_style_selector_t selector);
  76:Drivers/lvgl/src/hal/../core/lv_obj_style.h **** 
  77:Drivers/lvgl/src/hal/../core/lv_obj_style.h **** /**
  78:Drivers/lvgl/src/hal/../core/lv_obj_style.h ****  * Add a style to an object.
  79:Drivers/lvgl/src/hal/../core/lv_obj_style.h ****  * @param obj       pointer to an object
  80:Drivers/lvgl/src/hal/../core/lv_obj_style.h ****  * @param style     pointer to a style to remove. Can be NULL to check only the selector
  81:Drivers/lvgl/src/hal/../core/lv_obj_style.h ****  * @param selector  OR-ed values of states and a part to remove only styles with matching selectors
  82:Drivers/lvgl/src/hal/../core/lv_obj_style.h ****  * @example lv_obj_remove_style(obj, &style, LV_PART_ANY | LV_STATE_ANY); //Remove a specific style
  83:Drivers/lvgl/src/hal/../core/lv_obj_style.h ****  * @example lv_obj_remove_style(obj, NULL, LV_PART_MAIN | LV_STATE_ANY); //Remove all styles from t
  84:Drivers/lvgl/src/hal/../core/lv_obj_style.h ****  * @example lv_obj_remove_style(obj, NULL, LV_PART_ANY | LV_STATE_ANY); //Remove all styles
  85:Drivers/lvgl/src/hal/../core/lv_obj_style.h ****  */
ARM GAS  /var/folders/0z/tsy30v1j4xl4_7kw94k978ww0000gn/T//ccQFh5Uv.s 			page 55


  86:Drivers/lvgl/src/hal/../core/lv_obj_style.h **** void lv_obj_remove_style(struct _lv_obj_t * obj, lv_style_t * style, lv_style_selector_t selector);
  87:Drivers/lvgl/src/hal/../core/lv_obj_style.h **** 
  88:Drivers/lvgl/src/hal/../core/lv_obj_style.h **** /**
  89:Drivers/lvgl/src/hal/../core/lv_obj_style.h ****  * Remove all styles from an object
  90:Drivers/lvgl/src/hal/../core/lv_obj_style.h ****  * @param obj       pointer to an object
  91:Drivers/lvgl/src/hal/../core/lv_obj_style.h ****  */
  92:Drivers/lvgl/src/hal/../core/lv_obj_style.h **** static inline void lv_obj_remove_style_all(struct _lv_obj_t * obj)
  93:Drivers/lvgl/src/hal/../core/lv_obj_style.h **** {
  94:Drivers/lvgl/src/hal/../core/lv_obj_style.h ****     lv_obj_remove_style(obj, NULL, LV_PART_ANY | LV_STATE_ANY);
 1327              		.loc 3 94 5 view .LVU433
 1328 00b4 204A     		ldr	r2, .L63+16
 1329              	.LBE118:
 1330              	.LBE117:
 226:Drivers/lvgl/src/hal/lv_hal_disp.c ****     lv_obj_remove_style_all(disp->top_layer);
 1331              		.loc 1 226 21 view .LVU434
 1332 00b6 2062     		str	r0, [r4, #32]
 227:Drivers/lvgl/src/hal/lv_hal_disp.c ****     lv_obj_remove_style_all(disp->sys_layer);
 1333              		.loc 1 227 5 is_stmt 1 view .LVU435
 1334              	.LVL105:
 1335              	.LBB120:
 1336              	.LBI117:
  92:Drivers/lvgl/src/hal/../core/lv_obj_style.h **** {
 1337              		.loc 3 92 20 view .LVU436
 1338              	.LBB119:
 1339              		.loc 3 94 5 view .LVU437
 1340 00b8 0021     		movs	r1, #0
 1341 00ba E069     		ldr	r0, [r4, #28]
 1342 00bc FFF7FEFF 		bl	lv_obj_remove_style
 1343              	.LVL106:
 1344              		.loc 3 94 5 is_stmt 0 view .LVU438
 1345              	.LBE119:
 1346              	.LBE120:
 228:Drivers/lvgl/src/hal/lv_hal_disp.c ****     lv_obj_clear_flag(disp->top_layer, LV_OBJ_FLAG_CLICKABLE);
 1347              		.loc 1 228 5 is_stmt 1 view .LVU439
 1348              	.LBB121:
 1349              	.LBI121:
  92:Drivers/lvgl/src/hal/../core/lv_obj_style.h **** {
 1350              		.loc 3 92 20 view .LVU440
 1351              	.LBB122:
 1352              		.loc 3 94 5 view .LVU441
 1353 00c0 1D4A     		ldr	r2, .L63+16
 1354 00c2 206A     		ldr	r0, [r4, #32]
 1355 00c4 0021     		movs	r1, #0
 1356 00c6 FFF7FEFF 		bl	lv_obj_remove_style
 1357              	.LVL107:
 1358              		.loc 3 94 5 is_stmt 0 view .LVU442
 1359              	.LBE122:
 1360              	.LBE121:
 229:Drivers/lvgl/src/hal/lv_hal_disp.c ****     lv_obj_clear_flag(disp->sys_layer, LV_OBJ_FLAG_CLICKABLE);
 1361              		.loc 1 229 5 is_stmt 1 view .LVU443
 1362 00ca E069     		ldr	r0, [r4, #28]
 1363 00cc 0221     		movs	r1, #2
 1364 00ce FFF7FEFF 		bl	lv_obj_clear_flag
 1365              	.LVL108:
 230:Drivers/lvgl/src/hal/lv_hal_disp.c **** 
 1366              		.loc 1 230 5 view .LVU444
 1367 00d2 206A     		ldr	r0, [r4, #32]
ARM GAS  /var/folders/0z/tsy30v1j4xl4_7kw94k978ww0000gn/T//ccQFh5Uv.s 			page 56


 1368 00d4 0221     		movs	r1, #2
 1369 00d6 FFF7FEFF 		bl	lv_obj_clear_flag
 1370              	.LVL109:
 232:Drivers/lvgl/src/hal/lv_hal_disp.c ****     lv_obj_set_scrollbar_mode(disp->sys_layer, LV_SCROLLBAR_MODE_OFF);
 1371              		.loc 1 232 5 view .LVU445
 1372 00da E069     		ldr	r0, [r4, #28]
 1373 00dc 0021     		movs	r1, #0
 1374 00de FFF7FEFF 		bl	lv_obj_set_scrollbar_mode
 1375              	.LVL110:
 233:Drivers/lvgl/src/hal/lv_hal_disp.c **** 
 1376              		.loc 1 233 5 view .LVU446
 1377 00e2 0021     		movs	r1, #0
 1378 00e4 206A     		ldr	r0, [r4, #32]
 1379 00e6 FFF7FEFF 		bl	lv_obj_set_scrollbar_mode
 1380              	.LVL111:
 235:Drivers/lvgl/src/hal/lv_hal_disp.c **** 
 1381              		.loc 1 235 5 view .LVU447
 1382 00ea 2069     		ldr	r0, [r4, #16]
 1383 00ec FFF7FEFF 		bl	lv_obj_invalidate
 1384              	.LVL112:
 237:Drivers/lvgl/src/hal/lv_hal_disp.c ****     if(disp_def == NULL) disp_def = disp; /*Initialize the default display*/
 1385              		.loc 1 237 5 view .LVU448
 238:Drivers/lvgl/src/hal/lv_hal_disp.c **** 
 1386              		.loc 1 238 5 view .LVU449
 240:Drivers/lvgl/src/hal/lv_hal_disp.c **** 
 1387              		.loc 1 240 5 is_stmt 0 view .LVU450
 1388 00f0 6068     		ldr	r0, [r4, #4]
 237:Drivers/lvgl/src/hal/lv_hal_disp.c ****     if(disp_def == NULL) disp_def = disp; /*Initialize the default display*/
 1389              		.loc 1 237 14 view .LVU451
 1390 00f2 002F     		cmp	r7, #0
 1391 00f4 14BF     		ite	ne
 1392 00f6 3B46     		movne	r3, r7
 1393 00f8 2346     		moveq	r3, r4
 1394 00fa 3360     		str	r3, [r6]
 240:Drivers/lvgl/src/hal/lv_hal_disp.c **** 
 1395              		.loc 1 240 5 is_stmt 1 view .LVU452
 1396 00fc FFF7FEFF 		bl	lv_timer_ready
 1397              	.LVL113:
 242:Drivers/lvgl/src/hal/lv_hal_disp.c **** }
 1398              		.loc 1 242 5 view .LVU453
 243:Drivers/lvgl/src/hal/lv_hal_disp.c **** 
 1399              		.loc 1 243 1 is_stmt 0 view .LVU454
 1400 0100 2046     		mov	r0, r4
 1401 0102 05B0     		add	sp, sp, #20
 1402              		.cfi_remember_state
 1403              		.cfi_def_cfa_offset 20
 1404              		@ sp needed
 1405 0104 F0BD     		pop	{r4, r5, r6, r7, pc}
 1406              	.LVL114:
 1407              	.L47:
 1408              		.cfi_restore_state
 169:Drivers/lvgl/src/hal/lv_hal_disp.c ****     if(!disp) {
 1409              		.loc 1 169 5 is_stmt 1 discriminator 1 view .LVU455
 169:Drivers/lvgl/src/hal/lv_hal_disp.c ****     if(!disp) {
 1410              		.loc 1 169 5 discriminator 1 view .LVU456
 169:Drivers/lvgl/src/hal/lv_hal_disp.c ****     if(!disp) {
 1411              		.loc 1 169 5 discriminator 1 view .LVU457
ARM GAS  /var/folders/0z/tsy30v1j4xl4_7kw94k978ww0000gn/T//ccQFh5Uv.s 			page 57


 169:Drivers/lvgl/src/hal/lv_hal_disp.c ****     if(!disp) {
 1412              		.loc 1 169 5 discriminator 1 view .LVU458
 169:Drivers/lvgl/src/hal/lv_hal_disp.c ****     if(!disp) {
 1413              		.loc 1 169 5 discriminator 1 view .LVU459
 169:Drivers/lvgl/src/hal/lv_hal_disp.c ****     if(!disp) {
 1414              		.loc 1 169 5 discriminator 1 view .LVU460
 169:Drivers/lvgl/src/hal/lv_hal_disp.c ****     if(!disp) {
 1415              		.loc 1 169 5 discriminator 1 view .LVU461
 169:Drivers/lvgl/src/hal/lv_hal_disp.c ****     if(!disp) {
 1416              		.loc 1 169 5 discriminator 1 view .LVU462
 169:Drivers/lvgl/src/hal/lv_hal_disp.c ****     if(!disp) {
 1417              		.loc 1 169 5 discriminator 1 view .LVU463
 169:Drivers/lvgl/src/hal/lv_hal_disp.c ****     if(!disp) {
 1418              		.loc 1 169 5 discriminator 1 view .LVU464
 1419 0106 FEE7     		b	.L47
 1420              	.LVL115:
 1421              	.L52:
 196:Drivers/lvgl/src/hal/lv_hal_disp.c ****     if(disp->refr_timer == NULL) {
 1422              		.loc 1 196 5 discriminator 3 view .LVU465
 196:Drivers/lvgl/src/hal/lv_hal_disp.c ****     if(disp->refr_timer == NULL) {
 1423              		.loc 1 196 5 discriminator 3 view .LVU466
 196:Drivers/lvgl/src/hal/lv_hal_disp.c ****     if(disp->refr_timer == NULL) {
 1424              		.loc 1 196 5 discriminator 3 view .LVU467
 196:Drivers/lvgl/src/hal/lv_hal_disp.c ****     if(disp->refr_timer == NULL) {
 1425              		.loc 1 196 5 discriminator 3 view .LVU468
 196:Drivers/lvgl/src/hal/lv_hal_disp.c ****     if(disp->refr_timer == NULL) {
 1426              		.loc 1 196 5 discriminator 3 view .LVU469
 196:Drivers/lvgl/src/hal/lv_hal_disp.c ****     if(disp->refr_timer == NULL) {
 1427              		.loc 1 196 5 discriminator 3 view .LVU470
 196:Drivers/lvgl/src/hal/lv_hal_disp.c ****     if(disp->refr_timer == NULL) {
 1428              		.loc 1 196 5 discriminator 3 view .LVU471
 196:Drivers/lvgl/src/hal/lv_hal_disp.c ****     if(disp->refr_timer == NULL) {
 1429              		.loc 1 196 5 discriminator 3 view .LVU472
 196:Drivers/lvgl/src/hal/lv_hal_disp.c ****     if(disp->refr_timer == NULL) {
 1430              		.loc 1 196 5 discriminator 3 view .LVU473
 196:Drivers/lvgl/src/hal/lv_hal_disp.c ****     if(disp->refr_timer == NULL) {
 1431              		.loc 1 196 5 discriminator 3 view .LVU474
 1432 0108 FEE7     		b	.L52
 1433              	.LVL116:
 1434              	.L62:
 1435              	.LBB123:
 176:Drivers/lvgl/src/hal/lv_hal_disp.c ****         LV_ASSERT_MALLOC(draw_ctx);
 1436              		.loc 1 176 9 view .LVU475
 176:Drivers/lvgl/src/hal/lv_hal_disp.c ****         LV_ASSERT_MALLOC(draw_ctx);
 1437              		.loc 1 176 36 is_stmt 0 view .LVU476
 1438 010a A86C     		ldr	r0, [r5, #72]
 1439              	.LVL117:
 176:Drivers/lvgl/src/hal/lv_hal_disp.c ****         LV_ASSERT_MALLOC(draw_ctx);
 1440              		.loc 1 176 36 view .LVU477
 1441 010c FFF7FEFF 		bl	lv_mem_alloc
 1442              	.LVL118:
 177:Drivers/lvgl/src/hal/lv_hal_disp.c ****         if(draw_ctx == NULL) return NULL;
 1443              		.loc 1 177 9 is_stmt 1 view .LVU478
 177:Drivers/lvgl/src/hal/lv_hal_disp.c ****         if(draw_ctx == NULL) return NULL;
 1444              		.loc 1 177 9 view .LVU479
 1445 0110 0646     		mov	r6, r0
 1446 0112 28B1     		cbz	r0, .L50
ARM GAS  /var/folders/0z/tsy30v1j4xl4_7kw94k978ww0000gn/T//ccQFh5Uv.s 			page 58


 177:Drivers/lvgl/src/hal/lv_hal_disp.c ****         if(draw_ctx == NULL) return NULL;
 1447              		.loc 1 177 9 view .LVU480
 177:Drivers/lvgl/src/hal/lv_hal_disp.c ****         if(draw_ctx == NULL) return NULL;
 1448              		.loc 1 177 35 view .LVU481
 178:Drivers/lvgl/src/hal/lv_hal_disp.c ****         driver->draw_ctx_init(driver, draw_ctx);
 1449              		.loc 1 178 9 view .LVU482
 179:Drivers/lvgl/src/hal/lv_hal_disp.c ****         driver->draw_ctx = draw_ctx;
 1450              		.loc 1 179 9 view .LVU483
 1451 0114 0146     		mov	r1, r0
 1452 0116 2B6C     		ldr	r3, [r5, #64]
 1453 0118 2846     		mov	r0, r5
 1454              	.LVL119:
 179:Drivers/lvgl/src/hal/lv_hal_disp.c ****         driver->draw_ctx = draw_ctx;
 1455              		.loc 1 179 9 is_stmt 0 view .LVU484
 1456 011a 9847     		blx	r3
 1457              	.LVL120:
 180:Drivers/lvgl/src/hal/lv_hal_disp.c ****     }
 1458              		.loc 1 180 9 is_stmt 1 view .LVU485
 180:Drivers/lvgl/src/hal/lv_hal_disp.c ****     }
 1459              		.loc 1 180 26 is_stmt 0 view .LVU486
 1460 011c EE63     		str	r6, [r5, #60]
 1461 011e 7BE7     		b	.L48
 1462              	.LVL121:
 1463              	.L50:
 177:Drivers/lvgl/src/hal/lv_hal_disp.c ****         if(draw_ctx == NULL) return NULL;
 1464              		.loc 1 177 9 is_stmt 1 discriminator 2 view .LVU487
 177:Drivers/lvgl/src/hal/lv_hal_disp.c ****         if(draw_ctx == NULL) return NULL;
 1465              		.loc 1 177 9 discriminator 2 view .LVU488
 177:Drivers/lvgl/src/hal/lv_hal_disp.c ****         if(draw_ctx == NULL) return NULL;
 1466              		.loc 1 177 9 discriminator 2 view .LVU489
 177:Drivers/lvgl/src/hal/lv_hal_disp.c ****         if(draw_ctx == NULL) return NULL;
 1467              		.loc 1 177 9 discriminator 2 view .LVU490
 177:Drivers/lvgl/src/hal/lv_hal_disp.c ****         if(draw_ctx == NULL) return NULL;
 1468              		.loc 1 177 9 discriminator 2 view .LVU491
 177:Drivers/lvgl/src/hal/lv_hal_disp.c ****         if(draw_ctx == NULL) return NULL;
 1469              		.loc 1 177 9 discriminator 2 view .LVU492
 177:Drivers/lvgl/src/hal/lv_hal_disp.c ****         if(draw_ctx == NULL) return NULL;
 1470              		.loc 1 177 9 discriminator 2 view .LVU493
 177:Drivers/lvgl/src/hal/lv_hal_disp.c ****         if(draw_ctx == NULL) return NULL;
 1471              		.loc 1 177 9 discriminator 2 view .LVU494
 177:Drivers/lvgl/src/hal/lv_hal_disp.c ****         if(draw_ctx == NULL) return NULL;
 1472              		.loc 1 177 9 discriminator 2 view .LVU495
 177:Drivers/lvgl/src/hal/lv_hal_disp.c ****         if(draw_ctx == NULL) return NULL;
 1473              		.loc 1 177 9 discriminator 2 view .LVU496
 1474 0120 FEE7     		b	.L50
 1475              	.LVL122:
 1476              	.L54:
 177:Drivers/lvgl/src/hal/lv_hal_disp.c ****         if(draw_ctx == NULL) return NULL;
 1477              		.loc 1 177 9 is_stmt 0 discriminator 2 view .LVU497
 1478              	.LBE123:
 220:Drivers/lvgl/src/hal/lv_hal_disp.c ****     }
 1479              		.loc 1 220 9 is_stmt 1 view .LVU498
 220:Drivers/lvgl/src/hal/lv_hal_disp.c ****     }
 1480              		.loc 1 220 23 is_stmt 0 view .LVU499
 1481 0122 FFF7FEFF 		bl	lv_theme_default_get
 1482              	.LVL123:
 1483 0126 B9E7     		b	.L55
ARM GAS  /var/folders/0z/tsy30v1j4xl4_7kw94k978ww0000gn/T//ccQFh5Uv.s 			page 59


 1484              	.L64:
 1485              		.align	2
 1486              	.L63:
 1487 0128 00000000 		.word	_lv_disp_ll
 1488 012c 00000000 		.word	.LANCHOR6
 1489 0130 00000000 		.word	_lv_disp_refr_timer
 1490 0134 00000000 		.word	lv_font_montserrat_14
 1491 0138 FFFF0F00 		.word	1048575
 1492              		.cfi_endproc
 1493              	.LFE163:
 1495              		.section	.text.lv_disp_drv_update,"ax",%progbits
 1496              		.align	1
 1497              		.p2align 2,,3
 1498              		.global	lv_disp_drv_update
 1499              		.syntax unified
 1500              		.thumb
 1501              		.thumb_func
 1503              	lv_disp_drv_update:
 1504              	.LVL124:
 1505              	.LFB164:
 251:Drivers/lvgl/src/hal/lv_hal_disp.c ****     disp->driver = new_drv;
 1506              		.loc 1 251 1 is_stmt 1 view -0
 1507              		.cfi_startproc
 1508              		@ args = 0, pretend = 0, frame = 8
 1509              		@ frame_needed = 0, uses_anonymous_args = 0
 252:Drivers/lvgl/src/hal/lv_hal_disp.c **** 
 1510              		.loc 1 252 5 view .LVU501
 251:Drivers/lvgl/src/hal/lv_hal_disp.c ****     disp->driver = new_drv;
 1511              		.loc 1 251 1 is_stmt 0 view .LVU502
 1512 0000 F0B5     		push	{r4, r5, r6, r7, lr}
 1513              		.cfi_def_cfa_offset 20
 1514              		.cfi_offset 4, -20
 1515              		.cfi_offset 5, -16
 1516              		.cfi_offset 6, -12
 1517              		.cfi_offset 7, -8
 1518              		.cfi_offset 14, -4
 254:Drivers/lvgl/src/hal/lv_hal_disp.c ****        disp->driver->draw_buf->size < (uint32_t)disp->driver->hor_res * disp->driver->ver_res) {
 1519              		.loc 1 254 8 view .LVU503
 1520 0002 0B7C     		ldrb	r3, [r1, #16]	@ zero_extendqisi2
 252:Drivers/lvgl/src/hal/lv_hal_disp.c **** 
 1521              		.loc 1 252 18 view .LVU504
 1522 0004 0160     		str	r1, [r0]
 254:Drivers/lvgl/src/hal/lv_hal_disp.c ****        disp->driver->draw_buf->size < (uint32_t)disp->driver->hor_res * disp->driver->ver_res) {
 1523              		.loc 1 254 5 is_stmt 1 view .LVU505
 254:Drivers/lvgl/src/hal/lv_hal_disp.c ****        disp->driver->draw_buf->size < (uint32_t)disp->driver->hor_res * disp->driver->ver_res) {
 1524              		.loc 1 254 7 is_stmt 0 view .LVU506
 1525 0006 9A07     		lsls	r2, r3, #30
 251:Drivers/lvgl/src/hal/lv_hal_disp.c ****     disp->driver = new_drv;
 1526              		.loc 1 251 1 view .LVU507
 1527 0008 83B0     		sub	sp, sp, #12
 1528              		.cfi_def_cfa_offset 32
 251:Drivers/lvgl/src/hal/lv_hal_disp.c ****     disp->driver = new_drv;
 1529              		.loc 1 251 1 view .LVU508
 1530 000a 0546     		mov	r5, r0
 254:Drivers/lvgl/src/hal/lv_hal_disp.c ****        disp->driver->draw_buf->size < (uint32_t)disp->driver->hor_res * disp->driver->ver_res) {
 1531              		.loc 1 254 7 view .LVU509
 1532 000c 07D5     		bpl	.L66
ARM GAS  /var/folders/0z/tsy30v1j4xl4_7kw94k978ww0000gn/T//ccQFh5Uv.s 			page 60


 255:Drivers/lvgl/src/hal/lv_hal_disp.c ****         disp->driver->full_refresh = 0;
 1533              		.loc 1 255 30 discriminator 1 view .LVU510
 1534 000e C868     		ldr	r0, [r1, #12]
 1535              	.LVL125:
 255:Drivers/lvgl/src/hal/lv_hal_disp.c ****         disp->driver->full_refresh = 0;
 1536              		.loc 1 255 71 discriminator 1 view .LVU511
 1537 0010 0A88     		ldrh	r2, [r1]
 1538 0012 4C88     		ldrh	r4, [r1, #2]
 254:Drivers/lvgl/src/hal/lv_hal_disp.c ****        disp->driver->draw_buf->size < (uint32_t)disp->driver->hor_res * disp->driver->ver_res) {
 1539              		.loc 1 254 35 discriminator 1 view .LVU512
 1540 0014 C068     		ldr	r0, [r0, #12]
 255:Drivers/lvgl/src/hal/lv_hal_disp.c ****         disp->driver->full_refresh = 0;
 1541              		.loc 1 255 71 discriminator 1 view .LVU513
 1542 0016 12FB04F2 		smulbb	r2, r2, r4
 254:Drivers/lvgl/src/hal/lv_hal_disp.c ****        disp->driver->draw_buf->size < (uint32_t)disp->driver->hor_res * disp->driver->ver_res) {
 1543              		.loc 1 254 35 discriminator 1 view .LVU514
 1544 001a 9042     		cmp	r0, r2
 1545 001c 45D3     		bcc	.L86
 1546              	.L66:
 257:Drivers/lvgl/src/hal/lv_hal_disp.c ****     }
 1547              		.loc 1 257 9 is_stmt 1 view .LVU515
 257:Drivers/lvgl/src/hal/lv_hal_disp.c ****     }
 1548              		.loc 1 257 9 view .LVU516
 257:Drivers/lvgl/src/hal/lv_hal_disp.c ****     }
 1549              		.loc 1 257 9 view .LVU517
 260:Drivers/lvgl/src/hal/lv_hal_disp.c ****     lv_coord_t h = lv_disp_get_ver_res(disp);
 1550              		.loc 1 260 5 view .LVU518
 1551              	.LVL126:
 1552              	.LBB133:
 1553              	.LBI133:
 351:Drivers/lvgl/src/hal/lv_hal_disp.c **** {
 1554              		.loc 1 351 12 view .LVU519
 1555              	.LBB134:
 353:Drivers/lvgl/src/hal/lv_hal_disp.c **** 
 1556              		.loc 1 353 5 view .LVU520
 355:Drivers/lvgl/src/hal/lv_hal_disp.c ****         return 0;
 1557              		.loc 1 355 5 view .LVU521
 359:Drivers/lvgl/src/hal/lv_hal_disp.c ****             case LV_DISP_ROT_90:
 1558              		.loc 1 359 9 view .LVU522
 1559 001e DB06     		lsls	r3, r3, #27
 1560 0020 49D4     		bmi	.L87
 1561              	.L84:
 364:Drivers/lvgl/src/hal/lv_hal_disp.c ****         }
 1562              		.loc 1 364 17 view .LVU523
 364:Drivers/lvgl/src/hal/lv_hal_disp.c ****         }
 1563              		.loc 1 364 36 is_stmt 0 view .LVU524
 1564 0022 B1F90060 		ldrsh	r6, [r1]
 1565              	.LVL127:
 364:Drivers/lvgl/src/hal/lv_hal_disp.c ****         }
 1566              		.loc 1 364 36 view .LVU525
 1567              	.LBE134:
 1568              	.LBE133:
 261:Drivers/lvgl/src/hal/lv_hal_disp.c ****     uint32_t i;
 1569              		.loc 1 261 5 is_stmt 1 view .LVU526
 1570              	.LBB136:
 1571              	.LBI136:
 374:Drivers/lvgl/src/hal/lv_hal_disp.c **** {
ARM GAS  /var/folders/0z/tsy30v1j4xl4_7kw94k978ww0000gn/T//ccQFh5Uv.s 			page 61


 1572              		.loc 1 374 12 view .LVU527
 1573              	.LBB137:
 376:Drivers/lvgl/src/hal/lv_hal_disp.c **** 
 1574              		.loc 1 376 5 view .LVU528
 378:Drivers/lvgl/src/hal/lv_hal_disp.c ****         return 0;
 1575              		.loc 1 378 5 view .LVU529
 382:Drivers/lvgl/src/hal/lv_hal_disp.c ****             case LV_DISP_ROT_90:
 1576              		.loc 1 382 9 view .LVU530
 387:Drivers/lvgl/src/hal/lv_hal_disp.c ****         }
 1577              		.loc 1 387 17 view .LVU531
 387:Drivers/lvgl/src/hal/lv_hal_disp.c ****         }
 1578              		.loc 1 387 36 is_stmt 0 view .LVU532
 1579 0026 B1F90270 		ldrsh	r7, [r1, #2]
 1580              	.L67:
 1581              	.LVL128:
 387:Drivers/lvgl/src/hal/lv_hal_disp.c ****         }
 1582              		.loc 1 387 36 view .LVU533
 1583              	.LBE137:
 1584              	.LBE136:
 262:Drivers/lvgl/src/hal/lv_hal_disp.c ****     for(i = 0; i < disp->screen_cnt; i++) {
 1585              		.loc 1 262 5 is_stmt 1 view .LVU534
 263:Drivers/lvgl/src/hal/lv_hal_disp.c ****         lv_area_t prev_coords;
 1586              		.loc 1 263 5 view .LVU535
 263:Drivers/lvgl/src/hal/lv_hal_disp.c ****         lv_area_t prev_coords;
 1587              		.loc 1 263 18 view .LVU536
 1588 002a 6B6A     		ldr	r3, [r5, #36]
 1589 002c FBB1     		cbz	r3, .L68
 263:Drivers/lvgl/src/hal/lv_hal_disp.c ****         lv_area_t prev_coords;
 1590              		.loc 1 263 11 is_stmt 0 view .LVU537
 1591 002e 0024     		movs	r4, #0
 1592              	.LVL129:
 1593              	.L69:
 1594              	.LBB139:
 264:Drivers/lvgl/src/hal/lv_hal_disp.c ****         lv_obj_get_coords(disp->screens[i], &prev_coords);
 1595              		.loc 1 264 9 is_stmt 1 discriminator 3 view .LVU538
 265:Drivers/lvgl/src/hal/lv_hal_disp.c ****         lv_area_set_width(&disp->screens[i]->coords, w);
 1596              		.loc 1 265 9 discriminator 3 view .LVU539
 1597 0030 EB68     		ldr	r3, [r5, #12]
 1598 0032 6946     		mov	r1, sp
 1599 0034 53F82400 		ldr	r0, [r3, r4, lsl #2]
 1600 0038 FFF7FEFF 		bl	lv_obj_get_coords
 1601              	.LVL130:
 266:Drivers/lvgl/src/hal/lv_hal_disp.c ****         lv_area_set_height(&disp->screens[i]->coords, h);
 1602              		.loc 1 266 9 discriminator 3 view .LVU540
 266:Drivers/lvgl/src/hal/lv_hal_disp.c ****         lv_area_set_height(&disp->screens[i]->coords, h);
 1603              		.loc 1 266 41 is_stmt 0 discriminator 3 view .LVU541
 1604 003c EB68     		ldr	r3, [r5, #12]
 266:Drivers/lvgl/src/hal/lv_hal_disp.c ****         lv_area_set_height(&disp->screens[i]->coords, h);
 1605              		.loc 1 266 9 discriminator 3 view .LVU542
 1606 003e 53F82400 		ldr	r0, [r3, r4, lsl #2]
 1607 0042 3146     		mov	r1, r6
 1608 0044 1430     		adds	r0, r0, #20
 1609 0046 FFF7FEFF 		bl	lv_area_set_width
 1610              	.LVL131:
 267:Drivers/lvgl/src/hal/lv_hal_disp.c ****         lv_event_send(disp->screens[i], LV_EVENT_SIZE_CHANGED, &prev_coords);
 1611              		.loc 1 267 9 is_stmt 1 discriminator 3 view .LVU543
 267:Drivers/lvgl/src/hal/lv_hal_disp.c ****         lv_event_send(disp->screens[i], LV_EVENT_SIZE_CHANGED, &prev_coords);
ARM GAS  /var/folders/0z/tsy30v1j4xl4_7kw94k978ww0000gn/T//ccQFh5Uv.s 			page 62


 1612              		.loc 1 267 42 is_stmt 0 discriminator 3 view .LVU544
 1613 004a EB68     		ldr	r3, [r5, #12]
 267:Drivers/lvgl/src/hal/lv_hal_disp.c ****         lv_event_send(disp->screens[i], LV_EVENT_SIZE_CHANGED, &prev_coords);
 1614              		.loc 1 267 9 discriminator 3 view .LVU545
 1615 004c 53F82400 		ldr	r0, [r3, r4, lsl #2]
 1616 0050 3946     		mov	r1, r7
 1617 0052 1430     		adds	r0, r0, #20
 1618 0054 FFF7FEFF 		bl	lv_area_set_height
 1619              	.LVL132:
 268:Drivers/lvgl/src/hal/lv_hal_disp.c ****     }
 1620              		.loc 1 268 9 is_stmt 1 discriminator 3 view .LVU546
 1621 0058 EB68     		ldr	r3, [r5, #12]
 1622 005a 6A46     		mov	r2, sp
 1623 005c 53F82400 		ldr	r0, [r3, r4, lsl #2]
 1624 0060 2921     		movs	r1, #41
 1625 0062 FFF7FEFF 		bl	lv_event_send
 1626              	.LVL133:
 1627              	.LBE139:
 263:Drivers/lvgl/src/hal/lv_hal_disp.c ****         lv_area_t prev_coords;
 1628              		.loc 1 263 39 discriminator 3 view .LVU547
 263:Drivers/lvgl/src/hal/lv_hal_disp.c ****         lv_area_t prev_coords;
 1629              		.loc 1 263 18 is_stmt 0 discriminator 3 view .LVU548
 1630 0066 6B6A     		ldr	r3, [r5, #36]
 263:Drivers/lvgl/src/hal/lv_hal_disp.c ****         lv_area_t prev_coords;
 1631              		.loc 1 263 39 discriminator 3 view .LVU549
 1632 0068 0134     		adds	r4, r4, #1
 1633              	.LVL134:
 263:Drivers/lvgl/src/hal/lv_hal_disp.c ****         lv_area_t prev_coords;
 1634              		.loc 1 263 18 is_stmt 1 discriminator 3 view .LVU550
 1635 006a A342     		cmp	r3, r4
 1636 006c E0D8     		bhi	.L69
 1637              	.LVL135:
 1638              	.L68:
 277:Drivers/lvgl/src/hal/lv_hal_disp.c ****     lv_memset_00(disp->inv_area_joined, sizeof(disp->inv_area_joined));
 1639              		.loc 1 277 5 view .LVU551
 1640 006e 4FF48071 		mov	r1, #256
 1641 0072 05F13000 		add	r0, r5, #48
 1642 0076 FFF7FEFF 		bl	lv_memset_00
 1643              	.LVL136:
 278:Drivers/lvgl/src/hal/lv_hal_disp.c ****     disp->inv_p = 0;
 1644              		.loc 1 278 5 view .LVU552
 1645 007a 05F59870 		add	r0, r5, #304
 1646 007e 2021     		movs	r1, #32
 1647 0080 FFF7FEFF 		bl	lv_memset_00
 1648              	.LVL137:
 279:Drivers/lvgl/src/hal/lv_hal_disp.c ****     if(disp->act_scr != NULL) lv_obj_invalidate(disp->act_scr);
 1649              		.loc 1 279 5 view .LVU553
 280:Drivers/lvgl/src/hal/lv_hal_disp.c **** 
 1650              		.loc 1 280 12 is_stmt 0 view .LVU554
 1651 0084 2869     		ldr	r0, [r5, #16]
 279:Drivers/lvgl/src/hal/lv_hal_disp.c ****     if(disp->act_scr != NULL) lv_obj_invalidate(disp->act_scr);
 1652              		.loc 1 279 17 view .LVU555
 1653 0086 0023     		movs	r3, #0
 1654 0088 A5F85031 		strh	r3, [r5, #336]	@ movhi
 280:Drivers/lvgl/src/hal/lv_hal_disp.c **** 
 1655              		.loc 1 280 5 is_stmt 1 view .LVU556
 280:Drivers/lvgl/src/hal/lv_hal_disp.c **** 
ARM GAS  /var/folders/0z/tsy30v1j4xl4_7kw94k978ww0000gn/T//ccQFh5Uv.s 			page 63


 1656              		.loc 1 280 7 is_stmt 0 view .LVU557
 1657 008c 08B1     		cbz	r0, .L70
 280:Drivers/lvgl/src/hal/lv_hal_disp.c **** 
 1658              		.loc 1 280 31 is_stmt 1 discriminator 1 view .LVU558
 1659 008e FFF7FEFF 		bl	lv_obj_invalidate
 1660              	.LVL138:
 1661              	.L70:
 282:Drivers/lvgl/src/hal/lv_hal_disp.c **** 
 1662              		.loc 1 282 5 view .LVU559
 1663 0092 0022     		movs	r2, #0
 1664 0094 1046     		mov	r0, r2
 1665 0096 0B49     		ldr	r1, .L88
 1666 0098 FFF7FEFF 		bl	lv_obj_tree_walk
 1667              	.LVL139:
 284:Drivers/lvgl/src/hal/lv_hal_disp.c **** }
 1668              		.loc 1 284 5 view .LVU560
 284:Drivers/lvgl/src/hal/lv_hal_disp.c **** }
 1669              		.loc 1 284 12 is_stmt 0 view .LVU561
 1670 009c 2868     		ldr	r0, [r5]
 284:Drivers/lvgl/src/hal/lv_hal_disp.c **** }
 1671              		.loc 1 284 20 view .LVU562
 1672 009e 036B     		ldr	r3, [r0, #48]
 284:Drivers/lvgl/src/hal/lv_hal_disp.c **** }
 1673              		.loc 1 284 7 view .LVU563
 1674 00a0 73B1     		cbz	r3, .L65
 284:Drivers/lvgl/src/hal/lv_hal_disp.c **** }
 1675              		.loc 1 284 37 is_stmt 1 discriminator 1 view .LVU564
 285:Drivers/lvgl/src/hal/lv_hal_disp.c **** 
 1676              		.loc 1 285 1 is_stmt 0 discriminator 1 view .LVU565
 1677 00a2 03B0     		add	sp, sp, #12
 1678              		.cfi_remember_state
 1679              		.cfi_def_cfa_offset 20
 1680              		@ sp needed
 1681 00a4 BDE8F040 		pop	{r4, r5, r6, r7, lr}
 1682              		.cfi_restore 14
 1683              		.cfi_restore 7
 1684              		.cfi_restore 6
 1685              		.cfi_restore 5
 1686              		.cfi_restore 4
 1687              		.cfi_def_cfa_offset 0
 1688              	.LVL140:
 284:Drivers/lvgl/src/hal/lv_hal_disp.c **** }
 1689              		.loc 1 284 37 discriminator 1 view .LVU566
 1690 00a8 1847     		bx	r3	@ indirect register sibling call
 1691              	.LVL141:
 1692              	.L86:
 1693              		.cfi_restore_state
 256:Drivers/lvgl/src/hal/lv_hal_disp.c ****         LV_LOG_WARN("full_refresh requires at least screen sized draw buffer(s)");
 1694              		.loc 1 256 9 is_stmt 1 view .LVU567
 256:Drivers/lvgl/src/hal/lv_hal_disp.c ****         LV_LOG_WARN("full_refresh requires at least screen sized draw buffer(s)");
 1695              		.loc 1 256 36 is_stmt 0 view .LVU568
 1696 00aa 6FF34103 		bfc	r3, #1, #1
 1697 00ae 0B74     		strb	r3, [r1, #16]
 1698 00b0 DBB2     		uxtb	r3, r3
 257:Drivers/lvgl/src/hal/lv_hal_disp.c ****     }
 1699              		.loc 1 257 9 is_stmt 1 view .LVU569
 257:Drivers/lvgl/src/hal/lv_hal_disp.c ****     }
ARM GAS  /var/folders/0z/tsy30v1j4xl4_7kw94k978ww0000gn/T//ccQFh5Uv.s 			page 64


 1700              		.loc 1 257 9 view .LVU570
 257:Drivers/lvgl/src/hal/lv_hal_disp.c ****     }
 1701              		.loc 1 257 9 view .LVU571
 260:Drivers/lvgl/src/hal/lv_hal_disp.c ****     lv_coord_t h = lv_disp_get_ver_res(disp);
 1702              		.loc 1 260 5 view .LVU572
 1703              	.LVL142:
 1704              	.LBB140:
 351:Drivers/lvgl/src/hal/lv_hal_disp.c **** {
 1705              		.loc 1 351 12 view .LVU573
 1706              	.LBB135:
 353:Drivers/lvgl/src/hal/lv_hal_disp.c **** 
 1707              		.loc 1 353 5 view .LVU574
 355:Drivers/lvgl/src/hal/lv_hal_disp.c ****         return 0;
 1708              		.loc 1 355 5 view .LVU575
 359:Drivers/lvgl/src/hal/lv_hal_disp.c ****             case LV_DISP_ROT_90:
 1709              		.loc 1 359 9 view .LVU576
 1710 00b2 DB06     		lsls	r3, r3, #27
 1711 00b4 B5D5     		bpl	.L84
 1712              	.L87:
 362:Drivers/lvgl/src/hal/lv_hal_disp.c ****             default:
 1713              		.loc 1 362 17 view .LVU577
 362:Drivers/lvgl/src/hal/lv_hal_disp.c ****             default:
 1714              		.loc 1 362 36 is_stmt 0 view .LVU578
 1715 00b6 B1F90260 		ldrsh	r6, [r1, #2]
 1716              	.LVL143:
 362:Drivers/lvgl/src/hal/lv_hal_disp.c ****             default:
 1717              		.loc 1 362 36 view .LVU579
 1718              	.LBE135:
 1719              	.LBE140:
 261:Drivers/lvgl/src/hal/lv_hal_disp.c ****     uint32_t i;
 1720              		.loc 1 261 5 is_stmt 1 view .LVU580
 1721              	.LBB141:
 374:Drivers/lvgl/src/hal/lv_hal_disp.c **** {
 1722              		.loc 1 374 12 view .LVU581
 1723              	.LBB138:
 376:Drivers/lvgl/src/hal/lv_hal_disp.c **** 
 1724              		.loc 1 376 5 view .LVU582
 378:Drivers/lvgl/src/hal/lv_hal_disp.c ****         return 0;
 1725              		.loc 1 378 5 view .LVU583
 382:Drivers/lvgl/src/hal/lv_hal_disp.c ****             case LV_DISP_ROT_90:
 1726              		.loc 1 382 9 view .LVU584
 385:Drivers/lvgl/src/hal/lv_hal_disp.c ****             default:
 1727              		.loc 1 385 17 view .LVU585
 385:Drivers/lvgl/src/hal/lv_hal_disp.c ****             default:
 1728              		.loc 1 385 36 is_stmt 0 view .LVU586
 1729 00ba B1F90070 		ldrsh	r7, [r1]
 1730 00be B4E7     		b	.L67
 1731              	.LVL144:
 1732              	.L65:
 385:Drivers/lvgl/src/hal/lv_hal_disp.c ****             default:
 1733              		.loc 1 385 36 view .LVU587
 1734              	.LBE138:
 1735              	.LBE141:
 285:Drivers/lvgl/src/hal/lv_hal_disp.c **** 
 1736              		.loc 1 285 1 view .LVU588
 1737 00c0 03B0     		add	sp, sp, #12
 1738              		.cfi_def_cfa_offset 20
ARM GAS  /var/folders/0z/tsy30v1j4xl4_7kw94k978ww0000gn/T//ccQFh5Uv.s 			page 65


 1739              		@ sp needed
 1740 00c2 F0BD     		pop	{r4, r5, r6, r7, pc}
 1741              	.LVL145:
 1742              	.L89:
 285:Drivers/lvgl/src/hal/lv_hal_disp.c **** 
 1743              		.loc 1 285 1 view .LVU589
 1744              		.align	2
 1745              	.L88:
 1746 00c4 00000000 		.word	invalidate_layout_cb
 1747              		.cfi_endproc
 1748              	.LFE164:
 1750              		.section	.text.lv_disp_remove,"ax",%progbits
 1751              		.align	1
 1752              		.p2align 2,,3
 1753              		.global	lv_disp_remove
 1754              		.syntax unified
 1755              		.thumb
 1756              		.thumb_func
 1758              	lv_disp_remove:
 1759              	.LVL146:
 1760              	.LFB165:
 292:Drivers/lvgl/src/hal/lv_hal_disp.c ****     bool was_default = false;
 1761              		.loc 1 292 1 is_stmt 1 view -0
 1762              		.cfi_startproc
 1763              		@ args = 0, pretend = 0, frame = 0
 1764              		@ frame_needed = 0, uses_anonymous_args = 0
 293:Drivers/lvgl/src/hal/lv_hal_disp.c ****     if(disp == lv_disp_get_default()) was_default = true;
 1765              		.loc 1 293 5 view .LVU591
 294:Drivers/lvgl/src/hal/lv_hal_disp.c **** 
 1766              		.loc 1 294 5 view .LVU592
 1767              	.LBB142:
 1768              	.LBI142:
 341:Drivers/lvgl/src/hal/lv_hal_disp.c **** {
 1769              		.loc 1 341 13 view .LVU593
 1770              	.LBB143:
 343:Drivers/lvgl/src/hal/lv_hal_disp.c **** }
 1771              		.loc 1 343 5 view .LVU594
 1772              	.LBE143:
 1773              	.LBE142:
 292:Drivers/lvgl/src/hal/lv_hal_disp.c ****     bool was_default = false;
 1774              		.loc 1 292 1 is_stmt 0 view .LVU595
 1775 0000 F8B5     		push	{r3, r4, r5, r6, r7, lr}
 1776              		.cfi_def_cfa_offset 24
 1777              		.cfi_offset 3, -24
 1778              		.cfi_offset 4, -20
 1779              		.cfi_offset 5, -16
 1780              		.cfi_offset 6, -12
 1781              		.cfi_offset 7, -8
 1782              		.cfi_offset 14, -4
 1783              	.LBB146:
 1784              	.LBB144:
 343:Drivers/lvgl/src/hal/lv_hal_disp.c **** }
 1785              		.loc 1 343 12 view .LVU596
 1786 0002 1E4D     		ldr	r5, .L117
 1787              	.LBE144:
 1788              	.LBE146:
 292:Drivers/lvgl/src/hal/lv_hal_disp.c ****     bool was_default = false;
ARM GAS  /var/folders/0z/tsy30v1j4xl4_7kw94k978ww0000gn/T//ccQFh5Uv.s 			page 66


 1789              		.loc 1 292 1 view .LVU597
 1790 0004 0446     		mov	r4, r0
 298:Drivers/lvgl/src/hal/lv_hal_disp.c ****     while(indev) {
 1791              		.loc 1 298 13 view .LVU598
 1792 0006 0020     		movs	r0, #0
 1793              	.LVL147:
 1794              	.LBB147:
 1795              	.LBB145:
 343:Drivers/lvgl/src/hal/lv_hal_disp.c **** }
 1796              		.loc 1 343 12 view .LVU599
 1797 0008 2E68     		ldr	r6, [r5]
 1798              	.LVL148:
 343:Drivers/lvgl/src/hal/lv_hal_disp.c **** }
 1799              		.loc 1 343 12 view .LVU600
 1800              	.LBE145:
 1801              	.LBE147:
 297:Drivers/lvgl/src/hal/lv_hal_disp.c ****     indev = lv_indev_get_next(NULL);
 1802              		.loc 1 297 5 is_stmt 1 view .LVU601
 298:Drivers/lvgl/src/hal/lv_hal_disp.c ****     while(indev) {
 1803              		.loc 1 298 5 view .LVU602
 298:Drivers/lvgl/src/hal/lv_hal_disp.c ****     while(indev) {
 1804              		.loc 1 298 13 is_stmt 0 view .LVU603
 1805 000a FFF7FEFF 		bl	lv_indev_get_next
 1806              	.LVL149:
 299:Drivers/lvgl/src/hal/lv_hal_disp.c ****         if(indev->driver->disp == disp) {
 1807              		.loc 1 299 5 is_stmt 1 view .LVU604
 299:Drivers/lvgl/src/hal/lv_hal_disp.c ****         if(indev->driver->disp == disp) {
 1808              		.loc 1 299 11 view .LVU605
 1809 000e 48B1     		cbz	r0, .L91
 301:Drivers/lvgl/src/hal/lv_hal_disp.c ****         }
 1810              		.loc 1 301 33 is_stmt 0 view .LVU606
 1811 0010 0027     		movs	r7, #0
 1812              	.L93:
 300:Drivers/lvgl/src/hal/lv_hal_disp.c ****             indev->driver->disp = NULL;
 1813              		.loc 1 300 9 is_stmt 1 view .LVU607
 303:Drivers/lvgl/src/hal/lv_hal_disp.c ****     }
 1814              		.loc 1 303 9 view .LVU608
 300:Drivers/lvgl/src/hal/lv_hal_disp.c ****             indev->driver->disp = NULL;
 1815              		.loc 1 300 17 is_stmt 0 view .LVU609
 1816 0012 0368     		ldr	r3, [r0]
 300:Drivers/lvgl/src/hal/lv_hal_disp.c ****             indev->driver->disp = NULL;
 1817              		.loc 1 300 11 view .LVU610
 1818 0014 1A69     		ldr	r2, [r3, #16]
 1819 0016 A242     		cmp	r2, r4
 301:Drivers/lvgl/src/hal/lv_hal_disp.c ****         }
 1820              		.loc 1 301 13 is_stmt 1 view .LVU611
 301:Drivers/lvgl/src/hal/lv_hal_disp.c ****         }
 1821              		.loc 1 301 33 is_stmt 0 view .LVU612
 1822 0018 08BF     		it	eq
 1823 001a 1F61     		streq	r7, [r3, #16]
 303:Drivers/lvgl/src/hal/lv_hal_disp.c ****     }
 1824              		.loc 1 303 17 view .LVU613
 1825 001c FFF7FEFF 		bl	lv_indev_get_next
 1826              	.LVL150:
 299:Drivers/lvgl/src/hal/lv_hal_disp.c ****         if(indev->driver->disp == disp) {
 1827              		.loc 1 299 11 is_stmt 1 view .LVU614
 1828 0020 0028     		cmp	r0, #0
ARM GAS  /var/folders/0z/tsy30v1j4xl4_7kw94k978ww0000gn/T//ccQFh5Uv.s 			page 67


 1829 0022 F6D1     		bne	.L93
 1830              	.L91:
 307:Drivers/lvgl/src/hal/lv_hal_disp.c ****         lv_obj_del(disp->sys_layer);
 1831              		.loc 1 307 5 view .LVU615
 307:Drivers/lvgl/src/hal/lv_hal_disp.c ****         lv_obj_del(disp->sys_layer);
 1832              		.loc 1 307 12 is_stmt 0 view .LVU616
 1833 0024 206A     		ldr	r0, [r4, #32]
 1834              	.LVL151:
 307:Drivers/lvgl/src/hal/lv_hal_disp.c ****         lv_obj_del(disp->sys_layer);
 1835              		.loc 1 307 7 view .LVU617
 1836 0026 18B1     		cbz	r0, .L94
 308:Drivers/lvgl/src/hal/lv_hal_disp.c ****         disp->sys_layer = NULL;
 1837              		.loc 1 308 9 is_stmt 1 view .LVU618
 1838 0028 FFF7FEFF 		bl	lv_obj_del
 1839              	.LVL152:
 309:Drivers/lvgl/src/hal/lv_hal_disp.c ****     }
 1840              		.loc 1 309 9 view .LVU619
 309:Drivers/lvgl/src/hal/lv_hal_disp.c ****     }
 1841              		.loc 1 309 25 is_stmt 0 view .LVU620
 1842 002c 0023     		movs	r3, #0
 1843 002e 2362     		str	r3, [r4, #32]
 1844              	.L94:
 311:Drivers/lvgl/src/hal/lv_hal_disp.c ****         lv_obj_del(disp->top_layer);
 1845              		.loc 1 311 5 is_stmt 1 view .LVU621
 311:Drivers/lvgl/src/hal/lv_hal_disp.c ****         lv_obj_del(disp->top_layer);
 1846              		.loc 1 311 12 is_stmt 0 view .LVU622
 1847 0030 E069     		ldr	r0, [r4, #28]
 311:Drivers/lvgl/src/hal/lv_hal_disp.c ****         lv_obj_del(disp->top_layer);
 1848              		.loc 1 311 7 view .LVU623
 1849 0032 40B1     		cbz	r0, .L115
 312:Drivers/lvgl/src/hal/lv_hal_disp.c ****         disp->top_layer = NULL;
 1850              		.loc 1 312 9 is_stmt 1 view .LVU624
 1851 0034 FFF7FEFF 		bl	lv_obj_del
 1852              	.LVL153:
 313:Drivers/lvgl/src/hal/lv_hal_disp.c ****     }
 1853              		.loc 1 313 9 view .LVU625
 313:Drivers/lvgl/src/hal/lv_hal_disp.c ****     }
 1854              		.loc 1 313 25 is_stmt 0 view .LVU626
 1855 0038 0023     		movs	r3, #0
 1856 003a E361     		str	r3, [r4, #28]
 1857 003c 03E0     		b	.L115
 1858              	.L96:
 317:Drivers/lvgl/src/hal/lv_hal_disp.c ****     }
 1859              		.loc 1 317 9 is_stmt 1 view .LVU627
 1860 003e E368     		ldr	r3, [r4, #12]
 1861 0040 1868     		ldr	r0, [r3]
 1862 0042 FFF7FEFF 		bl	lv_obj_del
 1863              	.LVL154:
 1864              	.L115:
 315:Drivers/lvgl/src/hal/lv_hal_disp.c ****         /*Delete the screenst*/
 1865              		.loc 1 315 28 view .LVU628
 1866 0046 636A     		ldr	r3, [r4, #36]
 1867 0048 002B     		cmp	r3, #0
 1868 004a F8D1     		bne	.L96
 320:Drivers/lvgl/src/hal/lv_hal_disp.c ****     _lv_ll_clear(&disp->sync_areas);
 1869              		.loc 1 320 5 view .LVU629
 1870 004c 0C48     		ldr	r0, .L117+4
ARM GAS  /var/folders/0z/tsy30v1j4xl4_7kw94k978ww0000gn/T//ccQFh5Uv.s 			page 68


 1871 004e 2146     		mov	r1, r4
 1872 0050 FFF7FEFF 		bl	_lv_ll_remove
 1873              	.LVL155:
 321:Drivers/lvgl/src/hal/lv_hal_disp.c ****     if(disp->refr_timer) lv_timer_del(disp->refr_timer);
 1874              		.loc 1 321 5 view .LVU630
 1875 0054 04F5AC70 		add	r0, r4, #344
 1876 0058 FFF7FEFF 		bl	_lv_ll_clear
 1877              	.LVL156:
 322:Drivers/lvgl/src/hal/lv_hal_disp.c ****     lv_mem_free(disp);
 1878              		.loc 1 322 5 view .LVU631
 322:Drivers/lvgl/src/hal/lv_hal_disp.c ****     lv_mem_free(disp);
 1879              		.loc 1 322 12 is_stmt 0 view .LVU632
 1880 005c 6068     		ldr	r0, [r4, #4]
 322:Drivers/lvgl/src/hal/lv_hal_disp.c ****     lv_mem_free(disp);
 1881              		.loc 1 322 7 view .LVU633
 1882 005e 08B1     		cbz	r0, .L98
 322:Drivers/lvgl/src/hal/lv_hal_disp.c ****     lv_mem_free(disp);
 1883              		.loc 1 322 26 is_stmt 1 discriminator 1 view .LVU634
 1884 0060 FFF7FEFF 		bl	lv_timer_del
 1885              	.LVL157:
 1886              	.L98:
 323:Drivers/lvgl/src/hal/lv_hal_disp.c **** 
 1887              		.loc 1 323 5 view .LVU635
 1888 0064 2046     		mov	r0, r4
 1889 0066 FFF7FEFF 		bl	lv_mem_free
 1890              	.LVL158:
 325:Drivers/lvgl/src/hal/lv_hal_disp.c **** }
 1891              		.loc 1 325 5 view .LVU636
 325:Drivers/lvgl/src/hal/lv_hal_disp.c **** }
 1892              		.loc 1 325 7 is_stmt 0 view .LVU637
 1893 006a A642     		cmp	r6, r4
 1894 006c 00D0     		beq	.L116
 326:Drivers/lvgl/src/hal/lv_hal_disp.c **** 
 1895              		.loc 1 326 1 view .LVU638
 1896 006e F8BD     		pop	{r3, r4, r5, r6, r7, pc}
 1897              	.LVL159:
 1898              	.L116:
 325:Drivers/lvgl/src/hal/lv_hal_disp.c **** }
 1899              		.loc 1 325 21 is_stmt 1 discriminator 1 view .LVU639
 325:Drivers/lvgl/src/hal/lv_hal_disp.c **** }
 1900              		.loc 1 325 41 is_stmt 0 discriminator 1 view .LVU640
 1901 0070 0348     		ldr	r0, .L117+4
 1902 0072 FFF7FEFF 		bl	_lv_ll_get_head
 1903              	.LVL160:
 1904              	.LBB148:
 1905              	.LBI148:
 332:Drivers/lvgl/src/hal/lv_hal_disp.c **** {
 1906              		.loc 1 332 6 is_stmt 1 discriminator 1 view .LVU641
 1907              	.LBB149:
 334:Drivers/lvgl/src/hal/lv_hal_disp.c **** }
 1908              		.loc 1 334 5 discriminator 1 view .LVU642
 334:Drivers/lvgl/src/hal/lv_hal_disp.c **** }
 1909              		.loc 1 334 14 is_stmt 0 discriminator 1 view .LVU643
 1910 0076 2860     		str	r0, [r5]
 1911              	.LVL161:
 334:Drivers/lvgl/src/hal/lv_hal_disp.c **** }
 1912              		.loc 1 334 14 discriminator 1 view .LVU644
ARM GAS  /var/folders/0z/tsy30v1j4xl4_7kw94k978ww0000gn/T//ccQFh5Uv.s 			page 69


 1913              	.LBE149:
 1914              	.LBE148:
 326:Drivers/lvgl/src/hal/lv_hal_disp.c **** 
 1915              		.loc 1 326 1 discriminator 1 view .LVU645
 1916 0078 F8BD     		pop	{r3, r4, r5, r6, r7, pc}
 1917              	.LVL162:
 1918              	.L118:
 326:Drivers/lvgl/src/hal/lv_hal_disp.c **** 
 1919              		.loc 1 326 1 discriminator 1 view .LVU646
 1920 007a 00BF     		.align	2
 1921              	.L117:
 1922 007c 00000000 		.word	.LANCHOR6
 1923 0080 00000000 		.word	_lv_disp_ll
 1924              		.cfi_endproc
 1925              	.LFE165:
 1927              		.section	.text.lv_disp_set_default,"ax",%progbits
 1928              		.align	1
 1929              		.p2align 2,,3
 1930              		.global	lv_disp_set_default
 1931              		.syntax unified
 1932              		.thumb
 1933              		.thumb_func
 1935              	lv_disp_set_default:
 1936              	.LVL163:
 1937              	.LFB166:
 333:Drivers/lvgl/src/hal/lv_hal_disp.c ****     disp_def = disp;
 1938              		.loc 1 333 1 is_stmt 1 view -0
 1939              		.cfi_startproc
 1940              		@ args = 0, pretend = 0, frame = 0
 1941              		@ frame_needed = 0, uses_anonymous_args = 0
 1942              		@ link register save eliminated.
 334:Drivers/lvgl/src/hal/lv_hal_disp.c **** }
 1943              		.loc 1 334 5 view .LVU648
 334:Drivers/lvgl/src/hal/lv_hal_disp.c **** }
 1944              		.loc 1 334 14 is_stmt 0 view .LVU649
 1945 0000 014B     		ldr	r3, .L120
 1946 0002 1860     		str	r0, [r3]
 335:Drivers/lvgl/src/hal/lv_hal_disp.c **** 
 1947              		.loc 1 335 1 view .LVU650
 1948 0004 7047     		bx	lr
 1949              	.L121:
 1950 0006 00BF     		.align	2
 1951              	.L120:
 1952 0008 00000000 		.word	.LANCHOR6
 1953              		.cfi_endproc
 1954              	.LFE166:
 1956              		.section	.text.lv_disp_get_default,"ax",%progbits
 1957              		.align	1
 1958              		.p2align 2,,3
 1959              		.global	lv_disp_get_default
 1960              		.syntax unified
 1961              		.thumb
 1962              		.thumb_func
 1964              	lv_disp_get_default:
 1965              	.LFB167:
 342:Drivers/lvgl/src/hal/lv_hal_disp.c ****     return disp_def;
 1966              		.loc 1 342 1 is_stmt 1 view -0
ARM GAS  /var/folders/0z/tsy30v1j4xl4_7kw94k978ww0000gn/T//ccQFh5Uv.s 			page 70


 1967              		.cfi_startproc
 1968              		@ args = 0, pretend = 0, frame = 0
 1969              		@ frame_needed = 0, uses_anonymous_args = 0
 1970              		@ link register save eliminated.
 343:Drivers/lvgl/src/hal/lv_hal_disp.c **** }
 1971              		.loc 1 343 5 view .LVU652
 343:Drivers/lvgl/src/hal/lv_hal_disp.c **** }
 1972              		.loc 1 343 12 is_stmt 0 view .LVU653
 1973 0000 014B     		ldr	r3, .L123
 344:Drivers/lvgl/src/hal/lv_hal_disp.c **** 
 1974              		.loc 1 344 1 view .LVU654
 1975 0002 1868     		ldr	r0, [r3]
 1976 0004 7047     		bx	lr
 1977              	.L124:
 1978 0006 00BF     		.align	2
 1979              	.L123:
 1980 0008 00000000 		.word	.LANCHOR6
 1981              		.cfi_endproc
 1982              	.LFE167:
 1984              		.section	.text.lv_disp_get_hor_res,"ax",%progbits
 1985              		.align	1
 1986              		.p2align 2,,3
 1987              		.global	lv_disp_get_hor_res
 1988              		.syntax unified
 1989              		.thumb
 1990              		.thumb_func
 1992              	lv_disp_get_hor_res:
 1993              	.LVL164:
 1994              	.LFB168:
