ARM GAS  /var/folders/0z/tsy30v1j4xl4_7kw94k978ww0000gn/T//ccTjfuxw.s 			page 1


   1              		.cpu cortex-m4
   2              		.arch armv7e-m
   3              		.fpu fpv4-sp-d16
   4              		.eabi_attribute 27, 1
   5              		.eabi_attribute 28, 1
   6              		.eabi_attribute 20, 1
   7              		.eabi_attribute 21, 1
   8              		.eabi_attribute 23, 3
   9              		.eabi_attribute 24, 1
  10              		.eabi_attribute 25, 1
  11              		.eabi_attribute 26, 1
  12              		.eabi_attribute 30, 2
  13              		.eabi_attribute 34, 1
  14              		.eabi_attribute 18, 4
  15              		.file	"lv_hal_indev.c"
  16              		.text
  17              	.Ltext0:
  18              		.cfi_sections	.debug_frame
  19              		.section	.text.lv_indev_drv_init,"ax",%progbits
  20              		.align	1
  21              		.p2align 2,,3
  22              		.global	lv_indev_drv_init
  23              		.syntax unified
  24              		.thumb
  25              		.thumb_func
  27              	lv_indev_drv_init:
  28              	.LVL0:
  29              	.LFB161:
  30              		.file 1 "Drivers/lvgl/src/hal/lv_hal_indev.c"
   1:Drivers/lvgl/src/hal/lv_hal_indev.c **** /**
   2:Drivers/lvgl/src/hal/lv_hal_indev.c ****  * @file lv_hal_indev.c
   3:Drivers/lvgl/src/hal/lv_hal_indev.c ****  *
   4:Drivers/lvgl/src/hal/lv_hal_indev.c ****  * @description Input device HAL interface
   5:Drivers/lvgl/src/hal/lv_hal_indev.c ****  *
   6:Drivers/lvgl/src/hal/lv_hal_indev.c ****  */
   7:Drivers/lvgl/src/hal/lv_hal_indev.c **** 
   8:Drivers/lvgl/src/hal/lv_hal_indev.c **** /*********************
   9:Drivers/lvgl/src/hal/lv_hal_indev.c ****  *      INCLUDES
  10:Drivers/lvgl/src/hal/lv_hal_indev.c ****  *********************/
  11:Drivers/lvgl/src/hal/lv_hal_indev.c **** #include "../misc/lv_assert.h"
  12:Drivers/lvgl/src/hal/lv_hal_indev.c **** #include "../hal/lv_hal_indev.h"
  13:Drivers/lvgl/src/hal/lv_hal_indev.c **** #include "../core/lv_indev.h"
  14:Drivers/lvgl/src/hal/lv_hal_indev.c **** #include "../misc/lv_mem.h"
  15:Drivers/lvgl/src/hal/lv_hal_indev.c **** #include "../misc/lv_gc.h"
  16:Drivers/lvgl/src/hal/lv_hal_indev.c **** #include "lv_hal_disp.h"
  17:Drivers/lvgl/src/hal/lv_hal_indev.c **** 
  18:Drivers/lvgl/src/hal/lv_hal_indev.c **** /*********************
  19:Drivers/lvgl/src/hal/lv_hal_indev.c ****  *      DEFINES
  20:Drivers/lvgl/src/hal/lv_hal_indev.c ****  *********************/
  21:Drivers/lvgl/src/hal/lv_hal_indev.c **** 
  22:Drivers/lvgl/src/hal/lv_hal_indev.c **** /**********************
  23:Drivers/lvgl/src/hal/lv_hal_indev.c ****  *      TYPEDEFS
  24:Drivers/lvgl/src/hal/lv_hal_indev.c ****  **********************/
  25:Drivers/lvgl/src/hal/lv_hal_indev.c **** 
  26:Drivers/lvgl/src/hal/lv_hal_indev.c **** /**********************
  27:Drivers/lvgl/src/hal/lv_hal_indev.c ****  *  GLOBAL PROTOTYPES
  28:Drivers/lvgl/src/hal/lv_hal_indev.c ****  **********************/
ARM GAS  /var/folders/0z/tsy30v1j4xl4_7kw94k978ww0000gn/T//ccTjfuxw.s 			page 2


  29:Drivers/lvgl/src/hal/lv_hal_indev.c **** 
  30:Drivers/lvgl/src/hal/lv_hal_indev.c **** /**********************
  31:Drivers/lvgl/src/hal/lv_hal_indev.c ****  *  STATIC PROTOTYPES
  32:Drivers/lvgl/src/hal/lv_hal_indev.c ****  **********************/
  33:Drivers/lvgl/src/hal/lv_hal_indev.c **** 
  34:Drivers/lvgl/src/hal/lv_hal_indev.c **** /**********************
  35:Drivers/lvgl/src/hal/lv_hal_indev.c ****  *  STATIC VARIABLES
  36:Drivers/lvgl/src/hal/lv_hal_indev.c ****  **********************/
  37:Drivers/lvgl/src/hal/lv_hal_indev.c **** 
  38:Drivers/lvgl/src/hal/lv_hal_indev.c **** /**********************
  39:Drivers/lvgl/src/hal/lv_hal_indev.c ****  *      MACROS
  40:Drivers/lvgl/src/hal/lv_hal_indev.c ****  **********************/
  41:Drivers/lvgl/src/hal/lv_hal_indev.c **** #if LV_LOG_TRACE_INDEV
  42:Drivers/lvgl/src/hal/lv_hal_indev.c ****     #define INDEV_TRACE(...) LV_LOG_TRACE(__VA_ARGS__)
  43:Drivers/lvgl/src/hal/lv_hal_indev.c **** #else
  44:Drivers/lvgl/src/hal/lv_hal_indev.c ****     #define INDEV_TRACE(...)
  45:Drivers/lvgl/src/hal/lv_hal_indev.c **** #endif
  46:Drivers/lvgl/src/hal/lv_hal_indev.c **** 
  47:Drivers/lvgl/src/hal/lv_hal_indev.c **** /**********************
  48:Drivers/lvgl/src/hal/lv_hal_indev.c ****  *   GLOBAL FUNCTIONS
  49:Drivers/lvgl/src/hal/lv_hal_indev.c ****  **********************/
  50:Drivers/lvgl/src/hal/lv_hal_indev.c **** 
  51:Drivers/lvgl/src/hal/lv_hal_indev.c **** /**
  52:Drivers/lvgl/src/hal/lv_hal_indev.c ****  * Initialize an input device driver with default values.
  53:Drivers/lvgl/src/hal/lv_hal_indev.c ****  * It is used to surly have known values in the fields ant not memory junk.
  54:Drivers/lvgl/src/hal/lv_hal_indev.c ****  * After it you can set the fields.
  55:Drivers/lvgl/src/hal/lv_hal_indev.c ****  * @param driver pointer to driver variable to initialize
  56:Drivers/lvgl/src/hal/lv_hal_indev.c ****  */
  57:Drivers/lvgl/src/hal/lv_hal_indev.c **** void lv_indev_drv_init(lv_indev_drv_t * driver)
  58:Drivers/lvgl/src/hal/lv_hal_indev.c **** {
  31              		.loc 1 58 1 view -0
  32              		.cfi_startproc
  33              		@ args = 0, pretend = 0, frame = 0
  34              		@ frame_needed = 0, uses_anonymous_args = 0
  59:Drivers/lvgl/src/hal/lv_hal_indev.c ****     lv_memset_00(driver, sizeof(lv_indev_drv_t));
  35              		.loc 1 59 5 view .LVU1
  58:Drivers/lvgl/src/hal/lv_hal_indev.c ****     lv_memset_00(driver, sizeof(lv_indev_drv_t));
  36              		.loc 1 58 1 is_stmt 0 view .LVU2
  37 0000 10B5     		push	{r4, lr}
  38              		.cfi_def_cfa_offset 8
  39              		.cfi_offset 4, -8
  40              		.cfi_offset 14, -4
  41              		.loc 1 59 5 view .LVU3
  42 0002 2021     		movs	r1, #32
  58:Drivers/lvgl/src/hal/lv_hal_indev.c ****     lv_memset_00(driver, sizeof(lv_indev_drv_t));
  43              		.loc 1 58 1 view .LVU4
  44 0004 0446     		mov	r4, r0
  45              		.loc 1 59 5 view .LVU5
  46 0006 FFF7FEFF 		bl	lv_memset_00
  47              	.LVL1:
  60:Drivers/lvgl/src/hal/lv_hal_indev.c **** 
  61:Drivers/lvgl/src/hal/lv_hal_indev.c ****     driver->type                 = LV_INDEV_TYPE_NONE;
  48              		.loc 1 61 5 is_stmt 1 view .LVU6
  62:Drivers/lvgl/src/hal/lv_hal_indev.c ****     driver->scroll_limit         = LV_INDEV_DEF_SCROLL_LIMIT;
  49              		.loc 1 62 34 is_stmt 0 view .LVU7
  50 000a 034A     		ldr	r2, .L4
  63:Drivers/lvgl/src/hal/lv_hal_indev.c ****     driver->scroll_throw         = LV_INDEV_DEF_SCROLL_THROW;
ARM GAS  /var/folders/0z/tsy30v1j4xl4_7kw94k978ww0000gn/T//ccTjfuxw.s 			page 3


  64:Drivers/lvgl/src/hal/lv_hal_indev.c ****     driver->long_press_time      = LV_INDEV_DEF_LONG_PRESS_TIME;
  51              		.loc 1 64 34 view .LVU8
  52 000c 034B     		ldr	r3, .L4+4
  53 000e C4E90623 		strd	r2, r3, [r4, #24]
  61:Drivers/lvgl/src/hal/lv_hal_indev.c ****     driver->scroll_limit         = LV_INDEV_DEF_SCROLL_LIMIT;
  54              		.loc 1 61 34 view .LVU9
  55 0012 0021     		movs	r1, #0
  56 0014 2170     		strb	r1, [r4]
  62:Drivers/lvgl/src/hal/lv_hal_indev.c ****     driver->scroll_limit         = LV_INDEV_DEF_SCROLL_LIMIT;
  57              		.loc 1 62 5 is_stmt 1 view .LVU10
  63:Drivers/lvgl/src/hal/lv_hal_indev.c ****     driver->scroll_throw         = LV_INDEV_DEF_SCROLL_THROW;
  58              		.loc 1 63 5 view .LVU11
  59              		.loc 1 64 5 view .LVU12
  65:Drivers/lvgl/src/hal/lv_hal_indev.c ****     driver->long_press_repeat_time  = LV_INDEV_DEF_LONG_PRESS_REP_TIME;
  60              		.loc 1 65 5 view .LVU13
  66:Drivers/lvgl/src/hal/lv_hal_indev.c ****     driver->gesture_limit        = LV_INDEV_DEF_GESTURE_LIMIT;
  61              		.loc 1 66 5 view .LVU14
  67:Drivers/lvgl/src/hal/lv_hal_indev.c ****     driver->gesture_min_velocity = LV_INDEV_DEF_GESTURE_MIN_VELOCITY;
  62              		.loc 1 67 5 view .LVU15
  68:Drivers/lvgl/src/hal/lv_hal_indev.c **** }
  63              		.loc 1 68 1 is_stmt 0 view .LVU16
  64 0016 10BD     		pop	{r4, pc}
  65              	.LVL2:
  66              	.L5:
  67              		.loc 1 68 1 view .LVU17
  68              		.align	2
  69              	.L4:
  70 0018 0A0A0332 		.word	839059978
  71 001c 90016400 		.word	6554000
  72              		.cfi_endproc
  73              	.LFE161:
  75              		.section	.text.lv_indev_drv_register,"ax",%progbits
  76              		.align	1
  77              		.p2align 2,,3
  78              		.global	lv_indev_drv_register
  79              		.syntax unified
  80              		.thumb
  81              		.thumb_func
  83              	lv_indev_drv_register:
  84              	.LVL3:
  85              	.LFB162:
  69:Drivers/lvgl/src/hal/lv_hal_indev.c **** 
  70:Drivers/lvgl/src/hal/lv_hal_indev.c **** /**
  71:Drivers/lvgl/src/hal/lv_hal_indev.c ****  * Register an initialized input device driver.
  72:Drivers/lvgl/src/hal/lv_hal_indev.c ****  * @param driver pointer to an initialized 'lv_indev_drv_t' variable.
  73:Drivers/lvgl/src/hal/lv_hal_indev.c ****  * Only pointer is saved, so the driver should be static or dynamically allocated.
  74:Drivers/lvgl/src/hal/lv_hal_indev.c ****  * @return pointer to the new input device or NULL on error
  75:Drivers/lvgl/src/hal/lv_hal_indev.c ****  */
  76:Drivers/lvgl/src/hal/lv_hal_indev.c **** lv_indev_t * lv_indev_drv_register(lv_indev_drv_t * driver)
  77:Drivers/lvgl/src/hal/lv_hal_indev.c **** {
  86              		.loc 1 77 1 is_stmt 1 view -0
  87              		.cfi_startproc
  88              		@ args = 0, pretend = 0, frame = 0
  89              		@ frame_needed = 0, uses_anonymous_args = 0
  78:Drivers/lvgl/src/hal/lv_hal_indev.c ****     if(driver->disp == NULL) driver->disp = lv_disp_get_default();
  90              		.loc 1 78 5 view .LVU19
  77:Drivers/lvgl/src/hal/lv_hal_indev.c ****     if(driver->disp == NULL) driver->disp = lv_disp_get_default();
ARM GAS  /var/folders/0z/tsy30v1j4xl4_7kw94k978ww0000gn/T//ccTjfuxw.s 			page 4


  91              		.loc 1 77 1 is_stmt 0 view .LVU20
  92 0000 38B5     		push	{r3, r4, r5, lr}
  93              		.cfi_def_cfa_offset 16
  94              		.cfi_offset 3, -16
  95              		.cfi_offset 4, -12
  96              		.cfi_offset 5, -8
  97              		.cfi_offset 14, -4
  98              		.loc 1 78 7 view .LVU21
  99 0002 0369     		ldr	r3, [r0, #16]
  77:Drivers/lvgl/src/hal/lv_hal_indev.c ****     if(driver->disp == NULL) driver->disp = lv_disp_get_default();
 100              		.loc 1 77 1 view .LVU22
 101 0004 0546     		mov	r5, r0
 102              		.loc 1 78 7 view .LVU23
 103 0006 ABB1     		cbz	r3, .L7
 104              	.LVL4:
 105              	.L11:
  79:Drivers/lvgl/src/hal/lv_hal_indev.c **** 
  80:Drivers/lvgl/src/hal/lv_hal_indev.c ****     if(driver->disp == NULL) {
  81:Drivers/lvgl/src/hal/lv_hal_indev.c ****         LV_LOG_WARN("lv_indev_drv_register: no display registered hence can't attach the indev to "
  82:Drivers/lvgl/src/hal/lv_hal_indev.c ****                     "a display");
  83:Drivers/lvgl/src/hal/lv_hal_indev.c ****         return NULL;
  84:Drivers/lvgl/src/hal/lv_hal_indev.c ****     }
  85:Drivers/lvgl/src/hal/lv_hal_indev.c **** 
  86:Drivers/lvgl/src/hal/lv_hal_indev.c ****     lv_indev_t * indev = _lv_ll_ins_head(&LV_GC_ROOT(_lv_indev_ll));
 106              		.loc 1 86 5 is_stmt 1 view .LVU24
 107              		.loc 1 86 26 is_stmt 0 view .LVU25
 108 0008 0E48     		ldr	r0, .L20
 109 000a FFF7FEFF 		bl	_lv_ll_ins_head
 110              	.LVL5:
  87:Drivers/lvgl/src/hal/lv_hal_indev.c ****     LV_ASSERT_MALLOC(indev);
 111              		.loc 1 87 5 is_stmt 1 view .LVU26
 112              		.loc 1 87 5 view .LVU27
 113 000e 0446     		mov	r4, r0
 114 0010 78B1     		cbz	r0, .L19
 115              		.loc 1 87 5 view .LVU28
 116              		.loc 1 87 28 view .LVU29
  88:Drivers/lvgl/src/hal/lv_hal_indev.c ****     if(!indev) {
 117              		.loc 1 88 5 view .LVU30
  89:Drivers/lvgl/src/hal/lv_hal_indev.c ****         return NULL;
  90:Drivers/lvgl/src/hal/lv_hal_indev.c ****     }
  91:Drivers/lvgl/src/hal/lv_hal_indev.c **** 
  92:Drivers/lvgl/src/hal/lv_hal_indev.c ****     lv_memset_00(indev, sizeof(lv_indev_t));
 118              		.loc 1 92 5 view .LVU31
 119 0012 5C21     		movs	r1, #92
 120 0014 FFF7FEFF 		bl	lv_memset_00
 121              	.LVL6:
  93:Drivers/lvgl/src/hal/lv_hal_indev.c ****     indev->driver = driver;
 122              		.loc 1 93 5 view .LVU32
  94:Drivers/lvgl/src/hal/lv_hal_indev.c **** 
  95:Drivers/lvgl/src/hal/lv_hal_indev.c ****     indev->proc.reset_query  = 1;
 123              		.loc 1 95 30 is_stmt 0 view .LVU33
 124 0018 6379     		ldrb	r3, [r4, #5]	@ zero_extendqisi2
  93:Drivers/lvgl/src/hal/lv_hal_indev.c ****     indev->driver = driver;
 125              		.loc 1 93 19 view .LVU34
 126 001a 2560     		str	r5, [r4]
 127              		.loc 1 95 5 is_stmt 1 view .LVU35
 128              		.loc 1 95 30 is_stmt 0 view .LVU36
ARM GAS  /var/folders/0z/tsy30v1j4xl4_7kw94k978ww0000gn/T//ccTjfuxw.s 			page 5


 129 001c 43F00203 		orr	r3, r3, #2
 130 0020 6371     		strb	r3, [r4, #5]
  96:Drivers/lvgl/src/hal/lv_hal_indev.c ****     indev->driver->read_timer = lv_timer_create(lv_indev_read_timer_cb, LV_INDEV_DEF_READ_PERIOD, i
 131              		.loc 1 96 5 is_stmt 1 view .LVU37
 132              		.loc 1 96 33 is_stmt 0 view .LVU38
 133 0022 2246     		mov	r2, r4
 134 0024 3221     		movs	r1, #50
 135 0026 0848     		ldr	r0, .L20+4
 136 0028 FFF7FEFF 		bl	lv_timer_create
 137              	.LVL7:
 138              		.loc 1 96 31 view .LVU39
 139 002c 6861     		str	r0, [r5, #20]
  97:Drivers/lvgl/src/hal/lv_hal_indev.c **** 
  98:Drivers/lvgl/src/hal/lv_hal_indev.c ****     return indev;
 140              		.loc 1 98 5 is_stmt 1 view .LVU40
  99:Drivers/lvgl/src/hal/lv_hal_indev.c **** }
 141              		.loc 1 99 1 is_stmt 0 view .LVU41
 142 002e 2046     		mov	r0, r4
 143 0030 38BD     		pop	{r3, r4, r5, pc}
 144              	.LVL8:
 145              	.L19:
 146              	.L8:
  87:Drivers/lvgl/src/hal/lv_hal_indev.c ****     if(!indev) {
 147              		.loc 1 87 5 is_stmt 1 discriminator 1 view .LVU42
  87:Drivers/lvgl/src/hal/lv_hal_indev.c ****     if(!indev) {
 148              		.loc 1 87 5 discriminator 1 view .LVU43
  87:Drivers/lvgl/src/hal/lv_hal_indev.c ****     if(!indev) {
 149              		.loc 1 87 5 discriminator 1 view .LVU44
  87:Drivers/lvgl/src/hal/lv_hal_indev.c ****     if(!indev) {
 150              		.loc 1 87 5 discriminator 1 view .LVU45
  87:Drivers/lvgl/src/hal/lv_hal_indev.c ****     if(!indev) {
 151              		.loc 1 87 5 discriminator 1 view .LVU46
  87:Drivers/lvgl/src/hal/lv_hal_indev.c ****     if(!indev) {
 152              		.loc 1 87 5 discriminator 1 view .LVU47
  87:Drivers/lvgl/src/hal/lv_hal_indev.c ****     if(!indev) {
 153              		.loc 1 87 5 discriminator 1 view .LVU48
  87:Drivers/lvgl/src/hal/lv_hal_indev.c ****     if(!indev) {
 154              		.loc 1 87 5 discriminator 1 view .LVU49
  87:Drivers/lvgl/src/hal/lv_hal_indev.c ****     if(!indev) {
 155              		.loc 1 87 5 discriminator 1 view .LVU50
  87:Drivers/lvgl/src/hal/lv_hal_indev.c ****     if(!indev) {
 156              		.loc 1 87 5 discriminator 1 view .LVU51
 157 0032 FEE7     		b	.L8
 158              	.LVL9:
 159              	.L7:
  78:Drivers/lvgl/src/hal/lv_hal_indev.c **** 
 160              		.loc 1 78 30 discriminator 1 view .LVU52
  78:Drivers/lvgl/src/hal/lv_hal_indev.c **** 
 161              		.loc 1 78 45 is_stmt 0 discriminator 1 view .LVU53
 162 0034 FFF7FEFF 		bl	lv_disp_get_default
 163              	.LVL10:
  78:Drivers/lvgl/src/hal/lv_hal_indev.c **** 
 164              		.loc 1 78 45 discriminator 1 view .LVU54
 165 0038 0446     		mov	r4, r0
  78:Drivers/lvgl/src/hal/lv_hal_indev.c **** 
 166              		.loc 1 78 43 discriminator 1 view .LVU55
 167 003a 2861     		str	r0, [r5, #16]
ARM GAS  /var/folders/0z/tsy30v1j4xl4_7kw94k978ww0000gn/T//ccTjfuxw.s 			page 6


  80:Drivers/lvgl/src/hal/lv_hal_indev.c ****         LV_LOG_WARN("lv_indev_drv_register: no display registered hence can't attach the indev to "
 168              		.loc 1 80 5 is_stmt 1 discriminator 1 view .LVU56
  80:Drivers/lvgl/src/hal/lv_hal_indev.c ****         LV_LOG_WARN("lv_indev_drv_register: no display registered hence can't attach the indev to "
 169              		.loc 1 80 7 is_stmt 0 discriminator 1 view .LVU57
 170 003c 0028     		cmp	r0, #0
 171 003e E3D1     		bne	.L11
 172              		.loc 1 99 1 view .LVU58
 173 0040 2046     		mov	r0, r4
 174 0042 38BD     		pop	{r3, r4, r5, pc}
 175              	.LVL11:
 176              	.L21:
 177              		.loc 1 99 1 view .LVU59
 178              		.align	2
 179              	.L20:
 180 0044 00000000 		.word	_lv_indev_ll
 181 0048 00000000 		.word	lv_indev_read_timer_cb
 182              		.cfi_endproc
 183              	.LFE162:
 185              		.section	.text.lv_indev_drv_update,"ax",%progbits
 186              		.align	1
 187              		.p2align 2,,3
 188              		.global	lv_indev_drv_update
 189              		.syntax unified
 190              		.thumb
 191              		.thumb_func
 193              	lv_indev_drv_update:
 194              	.LVL12:
 195              	.LFB163:
 100:Drivers/lvgl/src/hal/lv_hal_indev.c **** 
 101:Drivers/lvgl/src/hal/lv_hal_indev.c **** /**
 102:Drivers/lvgl/src/hal/lv_hal_indev.c ****  * Update the driver in run time.
 103:Drivers/lvgl/src/hal/lv_hal_indev.c ****  * @param indev pointer to a input device. (return value of `lv_indev_drv_register`)
 104:Drivers/lvgl/src/hal/lv_hal_indev.c ****  * @param new_drv pointer to the new driver
 105:Drivers/lvgl/src/hal/lv_hal_indev.c ****  */
 106:Drivers/lvgl/src/hal/lv_hal_indev.c **** void lv_indev_drv_update(lv_indev_t * indev, lv_indev_drv_t * new_drv)
 107:Drivers/lvgl/src/hal/lv_hal_indev.c **** {
 196              		.loc 1 107 1 is_stmt 1 view -0
 197              		.cfi_startproc
 198              		@ args = 0, pretend = 0, frame = 0
 199              		@ frame_needed = 0, uses_anonymous_args = 0
 108:Drivers/lvgl/src/hal/lv_hal_indev.c ****     LV_ASSERT_NULL(indev);
 200              		.loc 1 108 5 view .LVU61
 201              		.loc 1 108 5 view .LVU62
 202 0000 B8B1     		cbz	r0, .L24
 203              		.loc 1 108 5 discriminator 2 view .LVU63
 204              		.loc 1 108 26 discriminator 2 view .LVU64
 109:Drivers/lvgl/src/hal/lv_hal_indev.c ****     LV_ASSERT_NULL(indev->driver);
 205              		.loc 1 109 5 discriminator 2 view .LVU65
 206              		.loc 1 109 5 discriminator 2 view .LVU66
 107:Drivers/lvgl/src/hal/lv_hal_indev.c ****     LV_ASSERT_NULL(indev);
 207              		.loc 1 107 1 is_stmt 0 discriminator 2 view .LVU67
 208 0002 38B5     		push	{r3, r4, r5, lr}
 209              		.cfi_def_cfa_offset 16
 210              		.cfi_offset 3, -16
 211              		.cfi_offset 4, -12
 212              		.cfi_offset 5, -8
 213              		.cfi_offset 14, -4
ARM GAS  /var/folders/0z/tsy30v1j4xl4_7kw94k978ww0000gn/T//ccTjfuxw.s 			page 7


 214              		.loc 1 109 5 discriminator 2 view .LVU68
 215 0004 0368     		ldr	r3, [r0]
 216 0006 0446     		mov	r4, r0
 217 0008 A3B1     		cbz	r3, .L26
 218              		.loc 1 109 5 is_stmt 1 discriminator 2 view .LVU69
 219              		.loc 1 109 34 discriminator 2 view .LVU70
 110:Drivers/lvgl/src/hal/lv_hal_indev.c ****     LV_ASSERT_NULL(indev->driver->read_timer);
 220              		.loc 1 110 5 discriminator 2 view .LVU71
 221              		.loc 1 110 5 discriminator 2 view .LVU72
 222 000a 5869     		ldr	r0, [r3, #20]
 223              	.LVL13:
 224              		.loc 1 110 5 is_stmt 0 discriminator 2 view .LVU73
 225 000c 98B1     		cbz	r0, .L28
 226              		.loc 1 110 5 is_stmt 1 discriminator 2 view .LVU74
 227              		.loc 1 110 46 discriminator 2 view .LVU75
 111:Drivers/lvgl/src/hal/lv_hal_indev.c ****     lv_timer_del(indev->driver->read_timer);
 228              		.loc 1 111 5 discriminator 2 view .LVU76
 229 000e 0D46     		mov	r5, r1
 230 0010 FFF7FEFF 		bl	lv_timer_del
 231              	.LVL14:
 112:Drivers/lvgl/src/hal/lv_hal_indev.c **** 
 113:Drivers/lvgl/src/hal/lv_hal_indev.c ****     LV_ASSERT_NULL(new_drv);
 232              		.loc 1 113 5 discriminator 2 view .LVU77
 233              		.loc 1 113 5 discriminator 2 view .LVU78
 234 0014 85B1     		cbz	r5, .L30
 235              		.loc 1 113 5 discriminator 2 view .LVU79
 236              		.loc 1 113 28 discriminator 2 view .LVU80
 114:Drivers/lvgl/src/hal/lv_hal_indev.c ****     if(new_drv->disp == NULL) {
 237              		.loc 1 114 5 discriminator 2 view .LVU81
 238              		.loc 1 114 7 is_stmt 0 discriminator 2 view .LVU82
 239 0016 2B69     		ldr	r3, [r5, #16]
 240 0018 7BB1     		cbz	r3, .L35
 241              	.L31:
 115:Drivers/lvgl/src/hal/lv_hal_indev.c ****         new_drv->disp = lv_disp_get_default();
 116:Drivers/lvgl/src/hal/lv_hal_indev.c ****     }
 117:Drivers/lvgl/src/hal/lv_hal_indev.c ****     if(new_drv->disp == NULL) {
 118:Drivers/lvgl/src/hal/lv_hal_indev.c ****         LV_LOG_WARN("lv_indev_drv_register: no display registered hence can't attach the indev to "
 119:Drivers/lvgl/src/hal/lv_hal_indev.c ****                     "a display");
 120:Drivers/lvgl/src/hal/lv_hal_indev.c ****         indev->proc.disabled = true;
 121:Drivers/lvgl/src/hal/lv_hal_indev.c ****         return;
 122:Drivers/lvgl/src/hal/lv_hal_indev.c ****     }
 123:Drivers/lvgl/src/hal/lv_hal_indev.c **** 
 124:Drivers/lvgl/src/hal/lv_hal_indev.c ****     indev->driver = new_drv;
 242              		.loc 1 124 5 is_stmt 1 view .LVU83
 125:Drivers/lvgl/src/hal/lv_hal_indev.c ****     indev->driver->read_timer = lv_timer_create(lv_indev_read_timer_cb, LV_INDEV_DEF_READ_PERIOD, i
 243              		.loc 1 125 33 is_stmt 0 view .LVU84
 244 001a 0D48     		ldr	r0, .L36
 124:Drivers/lvgl/src/hal/lv_hal_indev.c ****     indev->driver->read_timer = lv_timer_create(lv_indev_read_timer_cb, LV_INDEV_DEF_READ_PERIOD, i
 245              		.loc 1 124 19 view .LVU85
 246 001c 2560     		str	r5, [r4]
 247              		.loc 1 125 5 is_stmt 1 view .LVU86
 248              		.loc 1 125 33 is_stmt 0 view .LVU87
 249 001e 2246     		mov	r2, r4
 250 0020 3221     		movs	r1, #50
 251 0022 FFF7FEFF 		bl	lv_timer_create
 252              	.LVL15:
 126:Drivers/lvgl/src/hal/lv_hal_indev.c ****     indev->proc.reset_query   = 1;
ARM GAS  /var/folders/0z/tsy30v1j4xl4_7kw94k978ww0000gn/T//ccTjfuxw.s 			page 8


 253              		.loc 1 126 31 view .LVU88
 254 0026 6379     		ldrb	r3, [r4, #5]	@ zero_extendqisi2
 125:Drivers/lvgl/src/hal/lv_hal_indev.c ****     indev->driver->read_timer = lv_timer_create(lv_indev_read_timer_cb, LV_INDEV_DEF_READ_PERIOD, i
 255              		.loc 1 125 31 view .LVU89
 256 0028 6861     		str	r0, [r5, #20]
 257              		.loc 1 126 5 is_stmt 1 view .LVU90
 258              		.loc 1 126 31 is_stmt 0 view .LVU91
 259 002a 43F00203 		orr	r3, r3, #2
 260 002e 6371     		strb	r3, [r4, #5]
 127:Drivers/lvgl/src/hal/lv_hal_indev.c **** }
 261              		.loc 1 127 1 view .LVU92
 262 0030 38BD     		pop	{r3, r4, r5, pc}
 263              	.LVL16:
 264              	.L24:
 265              		.cfi_def_cfa_offset 0
 266              		.cfi_restore 3
 267              		.cfi_restore 4
 268              		.cfi_restore 5
 269              		.cfi_restore 14
 108:Drivers/lvgl/src/hal/lv_hal_indev.c ****     LV_ASSERT_NULL(indev->driver);
 270              		.loc 1 108 5 is_stmt 1 discriminator 1 view .LVU93
 108:Drivers/lvgl/src/hal/lv_hal_indev.c ****     LV_ASSERT_NULL(indev->driver);
 271              		.loc 1 108 5 discriminator 1 view .LVU94
 108:Drivers/lvgl/src/hal/lv_hal_indev.c ****     LV_ASSERT_NULL(indev->driver);
 272              		.loc 1 108 5 discriminator 1 view .LVU95
 108:Drivers/lvgl/src/hal/lv_hal_indev.c ****     LV_ASSERT_NULL(indev->driver);
 273              		.loc 1 108 5 discriminator 1 view .LVU96
 108:Drivers/lvgl/src/hal/lv_hal_indev.c ****     LV_ASSERT_NULL(indev->driver);
 274              		.loc 1 108 5 discriminator 1 view .LVU97
 108:Drivers/lvgl/src/hal/lv_hal_indev.c ****     LV_ASSERT_NULL(indev->driver);
 275              		.loc 1 108 5 discriminator 1 view .LVU98
 108:Drivers/lvgl/src/hal/lv_hal_indev.c ****     LV_ASSERT_NULL(indev->driver);
 276              		.loc 1 108 5 discriminator 1 view .LVU99
 108:Drivers/lvgl/src/hal/lv_hal_indev.c ****     LV_ASSERT_NULL(indev->driver);
 277              		.loc 1 108 5 discriminator 1 view .LVU100
 108:Drivers/lvgl/src/hal/lv_hal_indev.c ****     LV_ASSERT_NULL(indev->driver);
 278              		.loc 1 108 5 discriminator 1 view .LVU101
 108:Drivers/lvgl/src/hal/lv_hal_indev.c ****     LV_ASSERT_NULL(indev->driver);
 279              		.loc 1 108 5 discriminator 1 view .LVU102
 280 0032 FEE7     		b	.L24
 281              	.L26:
 282              		.cfi_def_cfa_offset 16
 283              		.cfi_offset 3, -16
 284              		.cfi_offset 4, -12
 285              		.cfi_offset 5, -8
 286              		.cfi_offset 14, -4
 109:Drivers/lvgl/src/hal/lv_hal_indev.c ****     LV_ASSERT_NULL(indev->driver->read_timer);
 287              		.loc 1 109 5 discriminator 2 view .LVU103
 109:Drivers/lvgl/src/hal/lv_hal_indev.c ****     LV_ASSERT_NULL(indev->driver->read_timer);
 288              		.loc 1 109 5 discriminator 2 view .LVU104
 109:Drivers/lvgl/src/hal/lv_hal_indev.c ****     LV_ASSERT_NULL(indev->driver->read_timer);
 289              		.loc 1 109 5 discriminator 2 view .LVU105
 109:Drivers/lvgl/src/hal/lv_hal_indev.c ****     LV_ASSERT_NULL(indev->driver->read_timer);
 290              		.loc 1 109 5 discriminator 2 view .LVU106
 109:Drivers/lvgl/src/hal/lv_hal_indev.c ****     LV_ASSERT_NULL(indev->driver->read_timer);
 291              		.loc 1 109 5 discriminator 2 view .LVU107
 109:Drivers/lvgl/src/hal/lv_hal_indev.c ****     LV_ASSERT_NULL(indev->driver->read_timer);
ARM GAS  /var/folders/0z/tsy30v1j4xl4_7kw94k978ww0000gn/T//ccTjfuxw.s 			page 9


 292              		.loc 1 109 5 discriminator 2 view .LVU108
 109:Drivers/lvgl/src/hal/lv_hal_indev.c ****     LV_ASSERT_NULL(indev->driver->read_timer);
 293              		.loc 1 109 5 discriminator 2 view .LVU109
 109:Drivers/lvgl/src/hal/lv_hal_indev.c ****     LV_ASSERT_NULL(indev->driver->read_timer);
 294              		.loc 1 109 5 discriminator 2 view .LVU110
 109:Drivers/lvgl/src/hal/lv_hal_indev.c ****     LV_ASSERT_NULL(indev->driver->read_timer);
 295              		.loc 1 109 5 discriminator 2 view .LVU111
 109:Drivers/lvgl/src/hal/lv_hal_indev.c ****     LV_ASSERT_NULL(indev->driver->read_timer);
 296              		.loc 1 109 5 discriminator 2 view .LVU112
 297 0034 FEE7     		b	.L26
 298              	.LVL17:
 299              	.L28:
 110:Drivers/lvgl/src/hal/lv_hal_indev.c ****     lv_timer_del(indev->driver->read_timer);
 300              		.loc 1 110 5 discriminator 3 view .LVU113
 110:Drivers/lvgl/src/hal/lv_hal_indev.c ****     lv_timer_del(indev->driver->read_timer);
 301              		.loc 1 110 5 discriminator 3 view .LVU114
 110:Drivers/lvgl/src/hal/lv_hal_indev.c ****     lv_timer_del(indev->driver->read_timer);
 302              		.loc 1 110 5 discriminator 3 view .LVU115
 110:Drivers/lvgl/src/hal/lv_hal_indev.c ****     lv_timer_del(indev->driver->read_timer);
 303              		.loc 1 110 5 discriminator 3 view .LVU116
 110:Drivers/lvgl/src/hal/lv_hal_indev.c ****     lv_timer_del(indev->driver->read_timer);
 304              		.loc 1 110 5 discriminator 3 view .LVU117
 110:Drivers/lvgl/src/hal/lv_hal_indev.c ****     lv_timer_del(indev->driver->read_timer);
 305              		.loc 1 110 5 discriminator 3 view .LVU118
 110:Drivers/lvgl/src/hal/lv_hal_indev.c ****     lv_timer_del(indev->driver->read_timer);
 306              		.loc 1 110 5 discriminator 3 view .LVU119
 110:Drivers/lvgl/src/hal/lv_hal_indev.c ****     lv_timer_del(indev->driver->read_timer);
 307              		.loc 1 110 5 discriminator 3 view .LVU120
 110:Drivers/lvgl/src/hal/lv_hal_indev.c ****     lv_timer_del(indev->driver->read_timer);
 308              		.loc 1 110 5 discriminator 3 view .LVU121
 110:Drivers/lvgl/src/hal/lv_hal_indev.c ****     lv_timer_del(indev->driver->read_timer);
 309              		.loc 1 110 5 discriminator 3 view .LVU122
 310 0036 FEE7     		b	.L28
 311              	.LVL18:
 312              	.L30:
 113:Drivers/lvgl/src/hal/lv_hal_indev.c ****     if(new_drv->disp == NULL) {
 313              		.loc 1 113 5 discriminator 4 view .LVU123
 113:Drivers/lvgl/src/hal/lv_hal_indev.c ****     if(new_drv->disp == NULL) {
 314              		.loc 1 113 5 discriminator 4 view .LVU124
 113:Drivers/lvgl/src/hal/lv_hal_indev.c ****     if(new_drv->disp == NULL) {
 315              		.loc 1 113 5 discriminator 4 view .LVU125
 113:Drivers/lvgl/src/hal/lv_hal_indev.c ****     if(new_drv->disp == NULL) {
 316              		.loc 1 113 5 discriminator 4 view .LVU126
 113:Drivers/lvgl/src/hal/lv_hal_indev.c ****     if(new_drv->disp == NULL) {
 317              		.loc 1 113 5 discriminator 4 view .LVU127
 113:Drivers/lvgl/src/hal/lv_hal_indev.c ****     if(new_drv->disp == NULL) {
 318              		.loc 1 113 5 discriminator 4 view .LVU128
 113:Drivers/lvgl/src/hal/lv_hal_indev.c ****     if(new_drv->disp == NULL) {
 319              		.loc 1 113 5 discriminator 4 view .LVU129
 113:Drivers/lvgl/src/hal/lv_hal_indev.c ****     if(new_drv->disp == NULL) {
 320              		.loc 1 113 5 discriminator 4 view .LVU130
 113:Drivers/lvgl/src/hal/lv_hal_indev.c ****     if(new_drv->disp == NULL) {
 321              		.loc 1 113 5 discriminator 4 view .LVU131
 113:Drivers/lvgl/src/hal/lv_hal_indev.c ****     if(new_drv->disp == NULL) {
 322              		.loc 1 113 5 discriminator 4 view .LVU132
 323 0038 FEE7     		b	.L30
 324              	.L35:
ARM GAS  /var/folders/0z/tsy30v1j4xl4_7kw94k978ww0000gn/T//ccTjfuxw.s 			page 10


 115:Drivers/lvgl/src/hal/lv_hal_indev.c ****     }
 325              		.loc 1 115 9 view .LVU133
 115:Drivers/lvgl/src/hal/lv_hal_indev.c ****     }
 326              		.loc 1 115 25 is_stmt 0 view .LVU134
 327 003a FFF7FEFF 		bl	lv_disp_get_default
 328              	.LVL19:
 115:Drivers/lvgl/src/hal/lv_hal_indev.c ****     }
 329              		.loc 1 115 23 view .LVU135
 330 003e 2861     		str	r0, [r5, #16]
 117:Drivers/lvgl/src/hal/lv_hal_indev.c ****         LV_LOG_WARN("lv_indev_drv_register: no display registered hence can't attach the indev to "
 331              		.loc 1 117 5 is_stmt 1 view .LVU136
 117:Drivers/lvgl/src/hal/lv_hal_indev.c ****         LV_LOG_WARN("lv_indev_drv_register: no display registered hence can't attach the indev to "
 332              		.loc 1 117 7 is_stmt 0 view .LVU137
 333 0040 0028     		cmp	r0, #0
 334 0042 EAD1     		bne	.L31
 118:Drivers/lvgl/src/hal/lv_hal_indev.c ****                     "a display");
 335              		.loc 1 118 9 is_stmt 1 view .LVU138
 118:Drivers/lvgl/src/hal/lv_hal_indev.c ****                     "a display");
 336              		.loc 1 118 9 view .LVU139
 118:Drivers/lvgl/src/hal/lv_hal_indev.c ****                     "a display");
 337              		.loc 1 118 9 view .LVU140
 120:Drivers/lvgl/src/hal/lv_hal_indev.c ****         return;
 338              		.loc 1 120 9 view .LVU141
 120:Drivers/lvgl/src/hal/lv_hal_indev.c ****         return;
 339              		.loc 1 120 30 is_stmt 0 view .LVU142
 340 0044 6379     		ldrb	r3, [r4, #5]	@ zero_extendqisi2
 341 0046 43F00403 		orr	r3, r3, #4
 342 004a 6371     		strb	r3, [r4, #5]
 121:Drivers/lvgl/src/hal/lv_hal_indev.c ****     }
 343              		.loc 1 121 9 is_stmt 1 view .LVU143
 344              		.loc 1 127 1 is_stmt 0 view .LVU144
 345 004c 38BD     		pop	{r3, r4, r5, pc}
 346              	.LVL20:
 347              	.L37:
 348              		.loc 1 127 1 view .LVU145
 349 004e 00BF     		.align	2
 350              	.L36:
 351 0050 00000000 		.word	lv_indev_read_timer_cb
 352              		.cfi_endproc
 353              	.LFE163:
 355              		.section	.text.lv_indev_delete,"ax",%progbits
 356              		.align	1
 357              		.p2align 2,,3
 358              		.global	lv_indev_delete
 359              		.syntax unified
 360              		.thumb
 361              		.thumb_func
 363              	lv_indev_delete:
 364              	.LVL21:
 365              	.LFB164:
 128:Drivers/lvgl/src/hal/lv_hal_indev.c **** 
 129:Drivers/lvgl/src/hal/lv_hal_indev.c **** /**
 130:Drivers/lvgl/src/hal/lv_hal_indev.c **** * Remove the provided input device. Make sure not to use the provided input device afterwards anymo
 131:Drivers/lvgl/src/hal/lv_hal_indev.c **** * @param indev pointer to delete
 132:Drivers/lvgl/src/hal/lv_hal_indev.c **** */
 133:Drivers/lvgl/src/hal/lv_hal_indev.c **** void lv_indev_delete(lv_indev_t * indev)
 134:Drivers/lvgl/src/hal/lv_hal_indev.c **** {
ARM GAS  /var/folders/0z/tsy30v1j4xl4_7kw94k978ww0000gn/T//ccTjfuxw.s 			page 11


 366              		.loc 1 134 1 is_stmt 1 view -0
 367              		.cfi_startproc
 368              		@ args = 0, pretend = 0, frame = 0
 369              		@ frame_needed = 0, uses_anonymous_args = 0
 135:Drivers/lvgl/src/hal/lv_hal_indev.c ****     LV_ASSERT_NULL(indev);
 370              		.loc 1 135 5 view .LVU147
 371              		.loc 1 135 5 view .LVU148
 372 0000 80B1     		cbz	r0, .L40
 373              		.loc 1 135 5 discriminator 2 view .LVU149
 374              		.loc 1 135 26 discriminator 2 view .LVU150
 136:Drivers/lvgl/src/hal/lv_hal_indev.c ****     LV_ASSERT_NULL(indev->driver);
 375              		.loc 1 136 5 discriminator 2 view .LVU151
 376              		.loc 1 136 5 discriminator 2 view .LVU152
 377 0002 0368     		ldr	r3, [r0]
 134:Drivers/lvgl/src/hal/lv_hal_indev.c ****     LV_ASSERT_NULL(indev);
 378              		.loc 1 134 1 is_stmt 0 discriminator 2 view .LVU153
 379 0004 10B5     		push	{r4, lr}
 380              		.cfi_def_cfa_offset 8
 381              		.cfi_offset 4, -8
 382              		.cfi_offset 14, -4
 383 0006 0446     		mov	r4, r0
 384              		.loc 1 136 5 discriminator 2 view .LVU154
 385 0008 6BB1     		cbz	r3, .L42
 386              		.loc 1 136 5 is_stmt 1 discriminator 2 view .LVU155
 387              		.loc 1 136 34 discriminator 2 view .LVU156
 137:Drivers/lvgl/src/hal/lv_hal_indev.c ****     LV_ASSERT_NULL(indev->driver->read_timer);
 388              		.loc 1 137 5 discriminator 2 view .LVU157
 389              		.loc 1 137 5 discriminator 2 view .LVU158
 390 000a 5869     		ldr	r0, [r3, #20]
 391              	.LVL22:
 392              		.loc 1 137 5 is_stmt 0 discriminator 2 view .LVU159
 393 000c 60B1     		cbz	r0, .L44
 394              		.loc 1 137 5 is_stmt 1 discriminator 2 view .LVU160
 395              		.loc 1 137 46 discriminator 2 view .LVU161
 138:Drivers/lvgl/src/hal/lv_hal_indev.c ****     /*Clean up the read timer first*/
 139:Drivers/lvgl/src/hal/lv_hal_indev.c ****     lv_timer_del(indev->driver->read_timer);
 396              		.loc 1 139 5 discriminator 2 view .LVU162
 397 000e FFF7FEFF 		bl	lv_timer_del
 398              	.LVL23:
 140:Drivers/lvgl/src/hal/lv_hal_indev.c ****     /*Remove the input device from the list*/
 141:Drivers/lvgl/src/hal/lv_hal_indev.c ****     _lv_ll_remove(&LV_GC_ROOT(_lv_indev_ll), indev);
 399              		.loc 1 141 5 discriminator 2 view .LVU163
 400 0012 0648     		ldr	r0, .L47
 401 0014 2146     		mov	r1, r4
 402 0016 FFF7FEFF 		bl	_lv_ll_remove
 403              	.LVL24:
 142:Drivers/lvgl/src/hal/lv_hal_indev.c ****     /*Free the memory of the input device*/
 143:Drivers/lvgl/src/hal/lv_hal_indev.c ****     lv_mem_free(indev);
 404              		.loc 1 143 5 discriminator 2 view .LVU164
 405 001a 2046     		mov	r0, r4
 144:Drivers/lvgl/src/hal/lv_hal_indev.c **** }
 406              		.loc 1 144 1 is_stmt 0 discriminator 2 view .LVU165
 407 001c BDE81040 		pop	{r4, lr}
 408              		.cfi_restore 14
 409              		.cfi_restore 4
 410              		.cfi_def_cfa_offset 0
 411              	.LVL25:
ARM GAS  /var/folders/0z/tsy30v1j4xl4_7kw94k978ww0000gn/T//ccTjfuxw.s 			page 12


 143:Drivers/lvgl/src/hal/lv_hal_indev.c **** }
 412              		.loc 1 143 5 discriminator 2 view .LVU166
 413 0020 FFF7FEBF 		b	lv_mem_free
 414              	.LVL26:
 415              	.L40:
 135:Drivers/lvgl/src/hal/lv_hal_indev.c ****     LV_ASSERT_NULL(indev->driver);
 416              		.loc 1 135 5 is_stmt 1 discriminator 1 view .LVU167
 135:Drivers/lvgl/src/hal/lv_hal_indev.c ****     LV_ASSERT_NULL(indev->driver);
 417              		.loc 1 135 5 discriminator 1 view .LVU168
 135:Drivers/lvgl/src/hal/lv_hal_indev.c ****     LV_ASSERT_NULL(indev->driver);
 418              		.loc 1 135 5 discriminator 1 view .LVU169
 135:Drivers/lvgl/src/hal/lv_hal_indev.c ****     LV_ASSERT_NULL(indev->driver);
 419              		.loc 1 135 5 discriminator 1 view .LVU170
 135:Drivers/lvgl/src/hal/lv_hal_indev.c ****     LV_ASSERT_NULL(indev->driver);
 420              		.loc 1 135 5 discriminator 1 view .LVU171
 135:Drivers/lvgl/src/hal/lv_hal_indev.c ****     LV_ASSERT_NULL(indev->driver);
 421              		.loc 1 135 5 discriminator 1 view .LVU172
 135:Drivers/lvgl/src/hal/lv_hal_indev.c ****     LV_ASSERT_NULL(indev->driver);
 422              		.loc 1 135 5 discriminator 1 view .LVU173
 135:Drivers/lvgl/src/hal/lv_hal_indev.c ****     LV_ASSERT_NULL(indev->driver);
 423              		.loc 1 135 5 discriminator 1 view .LVU174
 135:Drivers/lvgl/src/hal/lv_hal_indev.c ****     LV_ASSERT_NULL(indev->driver);
 424              		.loc 1 135 5 discriminator 1 view .LVU175
 135:Drivers/lvgl/src/hal/lv_hal_indev.c ****     LV_ASSERT_NULL(indev->driver);
 425              		.loc 1 135 5 discriminator 1 view .LVU176
 426 0024 FEE7     		b	.L40
 427              	.L42:
 428              		.cfi_def_cfa_offset 8
 429              		.cfi_offset 4, -8
 430              		.cfi_offset 14, -4
 136:Drivers/lvgl/src/hal/lv_hal_indev.c ****     LV_ASSERT_NULL(indev->driver->read_timer);
 431              		.loc 1 136 5 discriminator 2 view .LVU177
 136:Drivers/lvgl/src/hal/lv_hal_indev.c ****     LV_ASSERT_NULL(indev->driver->read_timer);
 432              		.loc 1 136 5 discriminator 2 view .LVU178
 136:Drivers/lvgl/src/hal/lv_hal_indev.c ****     LV_ASSERT_NULL(indev->driver->read_timer);
 433              		.loc 1 136 5 discriminator 2 view .LVU179
 136:Drivers/lvgl/src/hal/lv_hal_indev.c ****     LV_ASSERT_NULL(indev->driver->read_timer);
 434              		.loc 1 136 5 discriminator 2 view .LVU180
 136:Drivers/lvgl/src/hal/lv_hal_indev.c ****     LV_ASSERT_NULL(indev->driver->read_timer);
 435              		.loc 1 136 5 discriminator 2 view .LVU181
 136:Drivers/lvgl/src/hal/lv_hal_indev.c ****     LV_ASSERT_NULL(indev->driver->read_timer);
 436              		.loc 1 136 5 discriminator 2 view .LVU182
 136:Drivers/lvgl/src/hal/lv_hal_indev.c ****     LV_ASSERT_NULL(indev->driver->read_timer);
 437              		.loc 1 136 5 discriminator 2 view .LVU183
 136:Drivers/lvgl/src/hal/lv_hal_indev.c ****     LV_ASSERT_NULL(indev->driver->read_timer);
 438              		.loc 1 136 5 discriminator 2 view .LVU184
 136:Drivers/lvgl/src/hal/lv_hal_indev.c ****     LV_ASSERT_NULL(indev->driver->read_timer);
 439              		.loc 1 136 5 discriminator 2 view .LVU185
 136:Drivers/lvgl/src/hal/lv_hal_indev.c ****     LV_ASSERT_NULL(indev->driver->read_timer);
 440              		.loc 1 136 5 discriminator 2 view .LVU186
 441 0026 FEE7     		b	.L42
 442              	.LVL27:
 443              	.L44:
 137:Drivers/lvgl/src/hal/lv_hal_indev.c ****     /*Clean up the read timer first*/
 444              		.loc 1 137 5 discriminator 3 view .LVU187
 137:Drivers/lvgl/src/hal/lv_hal_indev.c ****     /*Clean up the read timer first*/
 445              		.loc 1 137 5 discriminator 3 view .LVU188
ARM GAS  /var/folders/0z/tsy30v1j4xl4_7kw94k978ww0000gn/T//ccTjfuxw.s 			page 13


 137:Drivers/lvgl/src/hal/lv_hal_indev.c ****     /*Clean up the read timer first*/
 446              		.loc 1 137 5 discriminator 3 view .LVU189
 137:Drivers/lvgl/src/hal/lv_hal_indev.c ****     /*Clean up the read timer first*/
 447              		.loc 1 137 5 discriminator 3 view .LVU190
 137:Drivers/lvgl/src/hal/lv_hal_indev.c ****     /*Clean up the read timer first*/
 448              		.loc 1 137 5 discriminator 3 view .LVU191
 137:Drivers/lvgl/src/hal/lv_hal_indev.c ****     /*Clean up the read timer first*/
 449              		.loc 1 137 5 discriminator 3 view .LVU192
 137:Drivers/lvgl/src/hal/lv_hal_indev.c ****     /*Clean up the read timer first*/
 450              		.loc 1 137 5 discriminator 3 view .LVU193
 137:Drivers/lvgl/src/hal/lv_hal_indev.c ****     /*Clean up the read timer first*/
 451              		.loc 1 137 5 discriminator 3 view .LVU194
 137:Drivers/lvgl/src/hal/lv_hal_indev.c ****     /*Clean up the read timer first*/
 452              		.loc 1 137 5 discriminator 3 view .LVU195
 137:Drivers/lvgl/src/hal/lv_hal_indev.c ****     /*Clean up the read timer first*/
 453              		.loc 1 137 5 discriminator 3 view .LVU196
 454 0028 FEE7     		b	.L44
 455              	.L48:
 456 002a 00BF     		.align	2
 457              	.L47:
 458 002c 00000000 		.word	_lv_indev_ll
 459              		.cfi_endproc
 460              	.LFE164:
 462              		.section	.text.lv_indev_get_next,"ax",%progbits
 463              		.align	1
 464              		.p2align 2,,3
 465              		.global	lv_indev_get_next
 466              		.syntax unified
 467              		.thumb
 468              		.thumb_func
 470              	lv_indev_get_next:
 471              	.LVL28:
 472              	.LFB165:
 145:Drivers/lvgl/src/hal/lv_hal_indev.c **** 
 146:Drivers/lvgl/src/hal/lv_hal_indev.c **** /**
 147:Drivers/lvgl/src/hal/lv_hal_indev.c ****  * Get the next input device.
 148:Drivers/lvgl/src/hal/lv_hal_indev.c ****  * @param indev pointer to the current input device. NULL to initialize.
 149:Drivers/lvgl/src/hal/lv_hal_indev.c ****  * @return the next input devise or NULL if no more. Give the first input device when the parameter
 150:Drivers/lvgl/src/hal/lv_hal_indev.c ****  * is NULL
 151:Drivers/lvgl/src/hal/lv_hal_indev.c ****  */
 152:Drivers/lvgl/src/hal/lv_hal_indev.c **** lv_indev_t * lv_indev_get_next(lv_indev_t * indev)
 153:Drivers/lvgl/src/hal/lv_hal_indev.c **** {
 473              		.loc 1 153 1 view -0
 474              		.cfi_startproc
 475              		@ args = 0, pretend = 0, frame = 0
 476              		@ frame_needed = 0, uses_anonymous_args = 0
 477              		@ link register save eliminated.
 154:Drivers/lvgl/src/hal/lv_hal_indev.c ****     if(indev == NULL)
 478              		.loc 1 154 5 view .LVU198
 479              		.loc 1 154 7 is_stmt 0 view .LVU199
 480 0000 0146     		mov	r1, r0
 155:Drivers/lvgl/src/hal/lv_hal_indev.c ****         return _lv_ll_get_head(&LV_GC_ROOT(_lv_indev_ll));
 481              		.loc 1 155 16 view .LVU200
 482 0002 0348     		ldr	r0, .L52
 483              	.LVL29:
 154:Drivers/lvgl/src/hal/lv_hal_indev.c ****     if(indev == NULL)
 484              		.loc 1 154 7 view .LVU201
ARM GAS  /var/folders/0z/tsy30v1j4xl4_7kw94k978ww0000gn/T//ccTjfuxw.s 			page 14


 485 0004 09B1     		cbz	r1, .L51
 156:Drivers/lvgl/src/hal/lv_hal_indev.c ****     else
 157:Drivers/lvgl/src/hal/lv_hal_indev.c ****         return _lv_ll_get_next(&LV_GC_ROOT(_lv_indev_ll), indev);
 486              		.loc 1 157 9 is_stmt 1 view .LVU202
 487              		.loc 1 157 16 is_stmt 0 view .LVU203
 488 0006 FFF7FEBF 		b	_lv_ll_get_next
 489              	.LVL30:
 490              	.L51:
 155:Drivers/lvgl/src/hal/lv_hal_indev.c ****         return _lv_ll_get_head(&LV_GC_ROOT(_lv_indev_ll));
 491              		.loc 1 155 9 is_stmt 1 view .LVU204
 155:Drivers/lvgl/src/hal/lv_hal_indev.c ****         return _lv_ll_get_head(&LV_GC_ROOT(_lv_indev_ll));
 492              		.loc 1 155 16 is_stmt 0 view .LVU205
 493 000a FFF7FEBF 		b	_lv_ll_get_head
 494              	.LVL31:
 495              	.L53:
 155:Drivers/lvgl/src/hal/lv_hal_indev.c ****         return _lv_ll_get_head(&LV_GC_ROOT(_lv_indev_ll));
 496              		.loc 1 155 16 view .LVU206
 497 000e 00BF     		.align	2
 498              	.L52:
 499 0010 00000000 		.word	_lv_indev_ll
 500              		.cfi_endproc
 501              	.LFE165:
 503              		.section	.text._lv_indev_read,"ax",%progbits
 504              		.align	1
 505              		.p2align 2,,3
 506              		.global	_lv_indev_read
 507              		.syntax unified
 508              		.thumb
 509              		.thumb_func
 511              	_lv_indev_read:
 512              	.LVL32:
 513              	.LFB166:
 158:Drivers/lvgl/src/hal/lv_hal_indev.c **** }
 159:Drivers/lvgl/src/hal/lv_hal_indev.c **** 
 160:Drivers/lvgl/src/hal/lv_hal_indev.c **** /**
 161:Drivers/lvgl/src/hal/lv_hal_indev.c ****  * Read data from an input device.
 162:Drivers/lvgl/src/hal/lv_hal_indev.c ****  * @param indev pointer to an input device
 163:Drivers/lvgl/src/hal/lv_hal_indev.c ****  * @param data input device will write its data here
 164:Drivers/lvgl/src/hal/lv_hal_indev.c ****  */
 165:Drivers/lvgl/src/hal/lv_hal_indev.c **** void _lv_indev_read(lv_indev_t * indev, lv_indev_data_t * data)
 166:Drivers/lvgl/src/hal/lv_hal_indev.c **** {
 514              		.loc 1 166 1 is_stmt 1 view -0
 515              		.cfi_startproc
 516              		@ args = 0, pretend = 0, frame = 0
 517              		@ frame_needed = 0, uses_anonymous_args = 0
 167:Drivers/lvgl/src/hal/lv_hal_indev.c ****     lv_memset_00(data, sizeof(lv_indev_data_t));
 518              		.loc 1 167 5 view .LVU208
 166:Drivers/lvgl/src/hal/lv_hal_indev.c ****     lv_memset_00(data, sizeof(lv_indev_data_t));
 519              		.loc 1 166 1 is_stmt 0 view .LVU209
 520 0000 70B5     		push	{r4, r5, r6, lr}
 521              		.cfi_def_cfa_offset 16
 522              		.cfi_offset 4, -16
 523              		.cfi_offset 5, -12
 524              		.cfi_offset 6, -8
 525              		.cfi_offset 14, -4
 166:Drivers/lvgl/src/hal/lv_hal_indev.c ****     lv_memset_00(data, sizeof(lv_indev_data_t));
 526              		.loc 1 166 1 view .LVU210
ARM GAS  /var/folders/0z/tsy30v1j4xl4_7kw94k978ww0000gn/T//ccTjfuxw.s 			page 15


 527 0002 0546     		mov	r5, r0
 528 0004 0C46     		mov	r4, r1
 529              		.loc 1 167 5 view .LVU211
 530 0006 2046     		mov	r0, r4
 531              	.LVL33:
 532              		.loc 1 167 5 view .LVU212
 533 0008 1021     		movs	r1, #16
 534              	.LVL34:
 535              		.loc 1 167 5 view .LVU213
 536 000a FFF7FEFF 		bl	lv_memset_00
 537              	.LVL35:
 168:Drivers/lvgl/src/hal/lv_hal_indev.c **** 
 169:Drivers/lvgl/src/hal/lv_hal_indev.c ****     /* For touchpad sometimes users don't set the last pressed coordinate on release.
 170:Drivers/lvgl/src/hal/lv_hal_indev.c ****      * So be sure a coordinates are initialized to the last point */
 171:Drivers/lvgl/src/hal/lv_hal_indev.c ****     if(indev->driver->type == LV_INDEV_TYPE_POINTER) {
 538              		.loc 1 171 5 is_stmt 1 view .LVU214
 539              		.loc 1 171 13 is_stmt 0 view .LVU215
 540 000e 2868     		ldr	r0, [r5]
 541              		.loc 1 171 21 view .LVU216
 542 0010 0378     		ldrb	r3, [r0]	@ zero_extendqisi2
 543              		.loc 1 171 7 view .LVU217
 544 0012 012B     		cmp	r3, #1
 545 0014 11D0     		beq	.L60
 172:Drivers/lvgl/src/hal/lv_hal_indev.c ****         data->point.x = indev->proc.types.pointer.last_raw_point.x;
 173:Drivers/lvgl/src/hal/lv_hal_indev.c ****         data->point.y = indev->proc.types.pointer.last_raw_point.y;
 174:Drivers/lvgl/src/hal/lv_hal_indev.c ****     }
 175:Drivers/lvgl/src/hal/lv_hal_indev.c ****     /*Similarly set at least the last key in case of the user doesn't set it on release*/
 176:Drivers/lvgl/src/hal/lv_hal_indev.c ****     else if(indev->driver->type == LV_INDEV_TYPE_KEYPAD) {
 546              		.loc 1 176 10 is_stmt 1 view .LVU218
 547              		.loc 1 176 12 is_stmt 0 view .LVU219
 548 0016 022B     		cmp	r3, #2
 549 0018 09D0     		beq	.L61
 177:Drivers/lvgl/src/hal/lv_hal_indev.c ****         data->key = indev->proc.types.keypad.last_key;
 178:Drivers/lvgl/src/hal/lv_hal_indev.c ****     }
 179:Drivers/lvgl/src/hal/lv_hal_indev.c ****     /*For compatibility assume that used button was enter (encoder push)*/
 180:Drivers/lvgl/src/hal/lv_hal_indev.c ****     else if(indev->driver->type == LV_INDEV_TYPE_ENCODER) {
 550              		.loc 1 180 10 is_stmt 1 view .LVU220
 551              		.loc 1 180 12 is_stmt 0 view .LVU221
 552 001a 042B     		cmp	r3, #4
 181:Drivers/lvgl/src/hal/lv_hal_indev.c ****         data->key = LV_KEY_ENTER;
 553              		.loc 1 181 9 is_stmt 1 view .LVU222
 554              		.loc 1 181 19 is_stmt 0 view .LVU223
 555 001c 04BF     		itt	eq
 556 001e 0A23     		moveq	r3, #10
 557 0020 6360     		streq	r3, [r4, #4]
 558              	.L56:
 182:Drivers/lvgl/src/hal/lv_hal_indev.c ****     }
 183:Drivers/lvgl/src/hal/lv_hal_indev.c **** 
 184:Drivers/lvgl/src/hal/lv_hal_indev.c ****     if(indev->driver->read_cb) {
 559              		.loc 1 184 5 is_stmt 1 view .LVU224
 560              		.loc 1 184 21 is_stmt 0 view .LVU225
 561 0022 4368     		ldr	r3, [r0, #4]
 562              		.loc 1 184 7 view .LVU226
 563 0024 43B1     		cbz	r3, .L54
 564              	.L62:
 185:Drivers/lvgl/src/hal/lv_hal_indev.c ****         INDEV_TRACE("calling indev_read_cb");
 565              		.loc 1 185 45 is_stmt 1 view .LVU227
ARM GAS  /var/folders/0z/tsy30v1j4xl4_7kw94k978ww0000gn/T//ccTjfuxw.s 			page 16


 186:Drivers/lvgl/src/hal/lv_hal_indev.c ****         indev->driver->read_cb(indev->driver, data);
 566              		.loc 1 186 9 view .LVU228
 567 0026 2146     		mov	r1, r4
 187:Drivers/lvgl/src/hal/lv_hal_indev.c ****     }
 188:Drivers/lvgl/src/hal/lv_hal_indev.c ****     else {
 189:Drivers/lvgl/src/hal/lv_hal_indev.c ****         LV_LOG_WARN("indev_read_cb is not registered");
 190:Drivers/lvgl/src/hal/lv_hal_indev.c ****     }
 191:Drivers/lvgl/src/hal/lv_hal_indev.c **** }
 568              		.loc 1 191 1 is_stmt 0 view .LVU229
 569 0028 BDE87040 		pop	{r4, r5, r6, lr}
 570              		.cfi_remember_state
 571              		.cfi_restore 14
 572              		.cfi_restore 6
 573              		.cfi_restore 5
 574              		.cfi_restore 4
 575              		.cfi_def_cfa_offset 0
 576              	.LVL36:
 186:Drivers/lvgl/src/hal/lv_hal_indev.c ****         indev->driver->read_cb(indev->driver, data);
 577              		.loc 1 186 9 view .LVU230
 578 002c 1847     		bx	r3	@ indirect register sibling call
 579              	.LVL37:
 580              	.L61:
 581              		.cfi_restore_state
 177:Drivers/lvgl/src/hal/lv_hal_indev.c ****     }
 582              		.loc 1 177 9 is_stmt 1 view .LVU231
 177:Drivers/lvgl/src/hal/lv_hal_indev.c ****     }
 583              		.loc 1 177 19 is_stmt 0 view .LVU232
 584 002e EB68     		ldr	r3, [r5, #12]
 585 0030 6360     		str	r3, [r4, #4]
 184:Drivers/lvgl/src/hal/lv_hal_indev.c ****         INDEV_TRACE("calling indev_read_cb");
 586              		.loc 1 184 5 is_stmt 1 view .LVU233
 184:Drivers/lvgl/src/hal/lv_hal_indev.c ****         INDEV_TRACE("calling indev_read_cb");
 587              		.loc 1 184 21 is_stmt 0 view .LVU234
 588 0032 4368     		ldr	r3, [r0, #4]
 184:Drivers/lvgl/src/hal/lv_hal_indev.c ****         INDEV_TRACE("calling indev_read_cb");
 589              		.loc 1 184 7 view .LVU235
 590 0034 002B     		cmp	r3, #0
 591 0036 F6D1     		bne	.L62
 592              	.L54:
 593              		.loc 1 191 1 view .LVU236
 594 0038 70BD     		pop	{r4, r5, r6, pc}
 595              	.LVL38:
 596              	.L60:
 172:Drivers/lvgl/src/hal/lv_hal_indev.c ****         data->point.y = indev->proc.types.pointer.last_raw_point.y;
 597              		.loc 1 172 9 is_stmt 1 view .LVU237
 172:Drivers/lvgl/src/hal/lv_hal_indev.c ****         data->point.y = indev->proc.types.pointer.last_raw_point.y;
 598              		.loc 1 172 23 is_stmt 0 view .LVU238
 599 003a AA8A     		ldrh	r2, [r5, #20]
 173:Drivers/lvgl/src/hal/lv_hal_indev.c ****     }
 600              		.loc 1 173 23 view .LVU239
 601 003c EB8A     		ldrh	r3, [r5, #22]
 602 003e 6380     		strh	r3, [r4, #2]	@ movhi
 172:Drivers/lvgl/src/hal/lv_hal_indev.c ****         data->point.y = indev->proc.types.pointer.last_raw_point.y;
 603              		.loc 1 172 23 view .LVU240
 604 0040 2280     		strh	r2, [r4]	@ movhi
 173:Drivers/lvgl/src/hal/lv_hal_indev.c ****     }
 605              		.loc 1 173 9 is_stmt 1 view .LVU241
ARM GAS  /var/folders/0z/tsy30v1j4xl4_7kw94k978ww0000gn/T//ccTjfuxw.s 			page 17


 606 0042 EEE7     		b	.L56
 607              		.cfi_endproc
 608              	.LFE166:
 610              		.text
 611              	.Letext0:
 612              		.file 2 "/Users/johannes/Library/Application Support/Code/User/globalStorage/bmd.stm32-for-vscode/
 613              		.file 3 "/Users/johannes/Library/Application Support/Code/User/globalStorage/bmd.stm32-for-vscode/
 614              		.file 4 "Drivers/lvgl/src/hal/../misc/lv_types.h"
 615              		.file 5 "/Users/johannes/Library/Application Support/Code/User/globalStorage/bmd.stm32-for-vscode/
 616              		.file 6 "Drivers/lvgl/src/hal/../hal/../misc/lv_area.h"
 617              		.file 7 "Drivers/lvgl/src/hal/../hal/../misc/lv_timer.h"
 618              		.file 8 "Drivers/lvgl/src/hal/../hal/lv_hal_indev.h"
 619              		.file 9 "Drivers/lvgl/src/hal/../core/../hal/lv_hal_disp.h"
 620              		.file 10 "Drivers/lvgl/src/hal/../core/lv_obj.h"
 621              		.file 11 "Drivers/lvgl/src/hal/../core/lv_group.h"
 622              		.file 12 "Drivers/lvgl/src/hal/../core/../misc/../font/lv_font.h"
 623              		.file 13 "Drivers/lvgl/src/hal/../core/../misc/lv_color.h"
 624              		.file 14 "Drivers/lvgl/src/hal/../core/../misc/lv_txt.h"
 625              		.file 15 "Drivers/lvgl/src/hal/../core/../misc/lv_bidi.h"
 626              		.file 16 "Drivers/lvgl/src/hal/../core/../misc/lv_style.h"
 627              		.file 17 "Drivers/lvgl/src/hal/../core/../hal/../draw/lv_img_buf.h"
 628              		.file 18 "Drivers/lvgl/src/hal/../core/../hal/../draw/lv_draw_rect.h"
 629              		.file 19 "Drivers/lvgl/src/hal/../core/../hal/../draw/lv_draw_label.h"
 630              		.file 20 "Drivers/lvgl/src/hal/../core/../hal/../draw/lv_draw_img.h"
 631              		.file 21 "Drivers/lvgl/src/hal/../core/../hal/../draw/lv_draw_line.h"
 632              		.file 22 "Drivers/lvgl/src/hal/../core/../hal/../draw/lv_draw_arc.h"
 633              		.file 23 "Drivers/lvgl/src/hal/../core/../hal/../draw/lv_draw_layer.h"
 634              		.file 24 "Drivers/lvgl/src/hal/../core/../hal/../draw/lv_draw.h"
 635              		.file 25 "Drivers/lvgl/src/hal/../core/../hal/../misc/lv_ll.h"
 636              		.file 26 "Drivers/lvgl/src/hal/../core/lv_obj_scroll.h"
 637              		.file 27 "Drivers/lvgl/src/hal/../core/lv_obj_style.h"
 638              		.file 28 "Drivers/lvgl/src/hal/../core/lv_obj_class.h"
 639              		.file 29 "Drivers/lvgl/src/hal/../core/lv_event.h"
 640              		.file 30 "Drivers/lvgl/src/hal/../misc/lv_mem.h"
 641              		.file 31 "Drivers/lvgl/src/hal/../core/lv_indev.h"
 642              		.file 32 "Drivers/lvgl/src/hal/../misc/lv_gc.h"
ARM GAS  /var/folders/0z/tsy30v1j4xl4_7kw94k978ww0000gn/T//ccTjfuxw.s 			page 18


DEFINED SYMBOLS
                            *ABS*:0000000000000000 lv_hal_indev.c
/var/folders/0z/tsy30v1j4xl4_7kw94k978ww0000gn/T//ccTjfuxw.s:20     .text.lv_indev_drv_init:0000000000000000 $t
/var/folders/0z/tsy30v1j4xl4_7kw94k978ww0000gn/T//ccTjfuxw.s:27     .text.lv_indev_drv_init:0000000000000000 lv_indev_drv_init
/var/folders/0z/tsy30v1j4xl4_7kw94k978ww0000gn/T//ccTjfuxw.s:70     .text.lv_indev_drv_init:0000000000000018 $d
/var/folders/0z/tsy30v1j4xl4_7kw94k978ww0000gn/T//ccTjfuxw.s:76     .text.lv_indev_drv_register:0000000000000000 $t
/var/folders/0z/tsy30v1j4xl4_7kw94k978ww0000gn/T//ccTjfuxw.s:83     .text.lv_indev_drv_register:0000000000000000 lv_indev_drv_register
/var/folders/0z/tsy30v1j4xl4_7kw94k978ww0000gn/T//ccTjfuxw.s:180    .text.lv_indev_drv_register:0000000000000044 $d
/var/folders/0z/tsy30v1j4xl4_7kw94k978ww0000gn/T//ccTjfuxw.s:186    .text.lv_indev_drv_update:0000000000000000 $t
/var/folders/0z/tsy30v1j4xl4_7kw94k978ww0000gn/T//ccTjfuxw.s:193    .text.lv_indev_drv_update:0000000000000000 lv_indev_drv_update
/var/folders/0z/tsy30v1j4xl4_7kw94k978ww0000gn/T//ccTjfuxw.s:351    .text.lv_indev_drv_update:0000000000000050 $d
/var/folders/0z/tsy30v1j4xl4_7kw94k978ww0000gn/T//ccTjfuxw.s:356    .text.lv_indev_delete:0000000000000000 $t
/var/folders/0z/tsy30v1j4xl4_7kw94k978ww0000gn/T//ccTjfuxw.s:363    .text.lv_indev_delete:0000000000000000 lv_indev_delete
/var/folders/0z/tsy30v1j4xl4_7kw94k978ww0000gn/T//ccTjfuxw.s:458    .text.lv_indev_delete:000000000000002c $d
/var/folders/0z/tsy30v1j4xl4_7kw94k978ww0000gn/T//ccTjfuxw.s:463    .text.lv_indev_get_next:0000000000000000 $t
/var/folders/0z/tsy30v1j4xl4_7kw94k978ww0000gn/T//ccTjfuxw.s:470    .text.lv_indev_get_next:0000000000000000 lv_indev_get_next
/var/folders/0z/tsy30v1j4xl4_7kw94k978ww0000gn/T//ccTjfuxw.s:499    .text.lv_indev_get_next:0000000000000010 $d
/var/folders/0z/tsy30v1j4xl4_7kw94k978ww0000gn/T//ccTjfuxw.s:504    .text._lv_indev_read:0000000000000000 $t
/var/folders/0z/tsy30v1j4xl4_7kw94k978ww0000gn/T//ccTjfuxw.s:511    .text._lv_indev_read:0000000000000000 _lv_indev_read

UNDEFINED SYMBOLS
lv_memset_00
_lv_ll_ins_head
lv_timer_create
lv_disp_get_default
_lv_indev_ll
lv_indev_read_timer_cb
lv_timer_del
_lv_ll_remove
lv_mem_free
_lv_ll_get_next
_lv_ll_get_head
