ARM GAS  /var/folders/0z/tsy30v1j4xl4_7kw94k978ww0000gn/T//cc6FZVn5.s 			page 1


   1              		.cpu cortex-m4
   2              		.arch armv7e-m
   3              		.fpu fpv4-sp-d16
   4              		.eabi_attribute 27, 1
   5              		.eabi_attribute 28, 1
   6              		.eabi_attribute 20, 1
   7              		.eabi_attribute 21, 1
   8              		.eabi_attribute 23, 3
   9              		.eabi_attribute 24, 1
  10              		.eabi_attribute 25, 1
  11              		.eabi_attribute 26, 1
  12              		.eabi_attribute 30, 2
  13              		.eabi_attribute 34, 1
  14              		.eabi_attribute 18, 4
  15              		.file	"lv_imgbtn.c"
  16              		.text
  17              	.Ltext0:
  18              		.cfi_sections	.debug_frame
  19              		.section	.text.lv_imgbtn_constructor,"ax",%progbits
  20              		.align	1
  21              		.p2align 2,,3
  22              		.syntax unified
  23              		.thumb
  24              		.thumb_func
  26              	lv_imgbtn_constructor:
  27              	.LVL0:
  28              	.LFB210:
  29              		.file 1 "Drivers/lvgl/src/extra/widgets/imgbtn/lv_imgbtn.c"
   1:Drivers/lvgl/src/extra/widgets/imgbtn/lv_imgbtn.c **** /**
   2:Drivers/lvgl/src/extra/widgets/imgbtn/lv_imgbtn.c ****  * @file lv_imgbtn.c
   3:Drivers/lvgl/src/extra/widgets/imgbtn/lv_imgbtn.c ****  *
   4:Drivers/lvgl/src/extra/widgets/imgbtn/lv_imgbtn.c ****  */
   5:Drivers/lvgl/src/extra/widgets/imgbtn/lv_imgbtn.c **** 
   6:Drivers/lvgl/src/extra/widgets/imgbtn/lv_imgbtn.c **** /*********************
   7:Drivers/lvgl/src/extra/widgets/imgbtn/lv_imgbtn.c ****  *      INCLUDES
   8:Drivers/lvgl/src/extra/widgets/imgbtn/lv_imgbtn.c ****  *********************/
   9:Drivers/lvgl/src/extra/widgets/imgbtn/lv_imgbtn.c **** 
  10:Drivers/lvgl/src/extra/widgets/imgbtn/lv_imgbtn.c **** #include "lv_imgbtn.h"
  11:Drivers/lvgl/src/extra/widgets/imgbtn/lv_imgbtn.c **** 
  12:Drivers/lvgl/src/extra/widgets/imgbtn/lv_imgbtn.c **** #if LV_USE_IMGBTN != 0
  13:Drivers/lvgl/src/extra/widgets/imgbtn/lv_imgbtn.c **** 
  14:Drivers/lvgl/src/extra/widgets/imgbtn/lv_imgbtn.c **** /*********************
  15:Drivers/lvgl/src/extra/widgets/imgbtn/lv_imgbtn.c ****  *      DEFINES
  16:Drivers/lvgl/src/extra/widgets/imgbtn/lv_imgbtn.c ****  *********************/
  17:Drivers/lvgl/src/extra/widgets/imgbtn/lv_imgbtn.c **** #define MY_CLASS &lv_imgbtn_class
  18:Drivers/lvgl/src/extra/widgets/imgbtn/lv_imgbtn.c **** 
  19:Drivers/lvgl/src/extra/widgets/imgbtn/lv_imgbtn.c **** /**********************
  20:Drivers/lvgl/src/extra/widgets/imgbtn/lv_imgbtn.c ****  *      TYPEDEFS
  21:Drivers/lvgl/src/extra/widgets/imgbtn/lv_imgbtn.c ****  **********************/
  22:Drivers/lvgl/src/extra/widgets/imgbtn/lv_imgbtn.c **** 
  23:Drivers/lvgl/src/extra/widgets/imgbtn/lv_imgbtn.c **** /**********************
  24:Drivers/lvgl/src/extra/widgets/imgbtn/lv_imgbtn.c ****  *  STATIC PROTOTYPES
  25:Drivers/lvgl/src/extra/widgets/imgbtn/lv_imgbtn.c ****  **********************/
  26:Drivers/lvgl/src/extra/widgets/imgbtn/lv_imgbtn.c **** static void lv_imgbtn_constructor(const lv_obj_class_t * class_p, lv_obj_t * obj);
  27:Drivers/lvgl/src/extra/widgets/imgbtn/lv_imgbtn.c **** static void draw_main(lv_event_t * e);
  28:Drivers/lvgl/src/extra/widgets/imgbtn/lv_imgbtn.c **** static void lv_imgbtn_event(const lv_obj_class_t * class_p, lv_event_t * e);
  29:Drivers/lvgl/src/extra/widgets/imgbtn/lv_imgbtn.c **** static void refr_img(lv_obj_t * imgbtn);
ARM GAS  /var/folders/0z/tsy30v1j4xl4_7kw94k978ww0000gn/T//cc6FZVn5.s 			page 2


  30:Drivers/lvgl/src/extra/widgets/imgbtn/lv_imgbtn.c **** static lv_imgbtn_state_t suggest_state(lv_obj_t * imgbtn, lv_imgbtn_state_t state);
  31:Drivers/lvgl/src/extra/widgets/imgbtn/lv_imgbtn.c **** lv_imgbtn_state_t get_state(const lv_obj_t * imgbtn);
  32:Drivers/lvgl/src/extra/widgets/imgbtn/lv_imgbtn.c **** 
  33:Drivers/lvgl/src/extra/widgets/imgbtn/lv_imgbtn.c **** /**********************
  34:Drivers/lvgl/src/extra/widgets/imgbtn/lv_imgbtn.c ****  *  STATIC VARIABLES
  35:Drivers/lvgl/src/extra/widgets/imgbtn/lv_imgbtn.c ****  **********************/
  36:Drivers/lvgl/src/extra/widgets/imgbtn/lv_imgbtn.c **** const lv_obj_class_t lv_imgbtn_class = {
  37:Drivers/lvgl/src/extra/widgets/imgbtn/lv_imgbtn.c ****     .base_class = &lv_obj_class,
  38:Drivers/lvgl/src/extra/widgets/imgbtn/lv_imgbtn.c ****     .instance_size = sizeof(lv_imgbtn_t),
  39:Drivers/lvgl/src/extra/widgets/imgbtn/lv_imgbtn.c ****     .constructor_cb = lv_imgbtn_constructor,
  40:Drivers/lvgl/src/extra/widgets/imgbtn/lv_imgbtn.c ****     .event_cb = lv_imgbtn_event,
  41:Drivers/lvgl/src/extra/widgets/imgbtn/lv_imgbtn.c **** };
  42:Drivers/lvgl/src/extra/widgets/imgbtn/lv_imgbtn.c **** 
  43:Drivers/lvgl/src/extra/widgets/imgbtn/lv_imgbtn.c **** /**********************
  44:Drivers/lvgl/src/extra/widgets/imgbtn/lv_imgbtn.c ****  *      MACROS
  45:Drivers/lvgl/src/extra/widgets/imgbtn/lv_imgbtn.c ****  **********************/
  46:Drivers/lvgl/src/extra/widgets/imgbtn/lv_imgbtn.c **** 
  47:Drivers/lvgl/src/extra/widgets/imgbtn/lv_imgbtn.c **** /**********************
  48:Drivers/lvgl/src/extra/widgets/imgbtn/lv_imgbtn.c ****  *   GLOBAL FUNCTIONS
  49:Drivers/lvgl/src/extra/widgets/imgbtn/lv_imgbtn.c ****  **********************/
  50:Drivers/lvgl/src/extra/widgets/imgbtn/lv_imgbtn.c **** 
  51:Drivers/lvgl/src/extra/widgets/imgbtn/lv_imgbtn.c **** /**
  52:Drivers/lvgl/src/extra/widgets/imgbtn/lv_imgbtn.c ****  * Create an image button object
  53:Drivers/lvgl/src/extra/widgets/imgbtn/lv_imgbtn.c ****  * @param parent pointer to an object, it will be the parent of the new image button
  54:Drivers/lvgl/src/extra/widgets/imgbtn/lv_imgbtn.c ****  * @return pointer to the created image button
  55:Drivers/lvgl/src/extra/widgets/imgbtn/lv_imgbtn.c ****  */
  56:Drivers/lvgl/src/extra/widgets/imgbtn/lv_imgbtn.c **** lv_obj_t * lv_imgbtn_create(lv_obj_t * parent)
  57:Drivers/lvgl/src/extra/widgets/imgbtn/lv_imgbtn.c **** {
  58:Drivers/lvgl/src/extra/widgets/imgbtn/lv_imgbtn.c ****     LV_LOG_INFO("begin");
  59:Drivers/lvgl/src/extra/widgets/imgbtn/lv_imgbtn.c ****     lv_obj_t * obj = lv_obj_class_create_obj(MY_CLASS, parent);
  60:Drivers/lvgl/src/extra/widgets/imgbtn/lv_imgbtn.c ****     lv_obj_class_init_obj(obj);
  61:Drivers/lvgl/src/extra/widgets/imgbtn/lv_imgbtn.c ****     return obj;
  62:Drivers/lvgl/src/extra/widgets/imgbtn/lv_imgbtn.c **** }
  63:Drivers/lvgl/src/extra/widgets/imgbtn/lv_imgbtn.c **** 
  64:Drivers/lvgl/src/extra/widgets/imgbtn/lv_imgbtn.c **** /*=====================
  65:Drivers/lvgl/src/extra/widgets/imgbtn/lv_imgbtn.c ****  * Setter functions
  66:Drivers/lvgl/src/extra/widgets/imgbtn/lv_imgbtn.c ****  *====================*/
  67:Drivers/lvgl/src/extra/widgets/imgbtn/lv_imgbtn.c **** 
  68:Drivers/lvgl/src/extra/widgets/imgbtn/lv_imgbtn.c **** /**
  69:Drivers/lvgl/src/extra/widgets/imgbtn/lv_imgbtn.c ****  * Set images for a state of the image button
  70:Drivers/lvgl/src/extra/widgets/imgbtn/lv_imgbtn.c ****  * @param obj pointer to an image button object
  71:Drivers/lvgl/src/extra/widgets/imgbtn/lv_imgbtn.c ****  * @param state for which state set the new image
  72:Drivers/lvgl/src/extra/widgets/imgbtn/lv_imgbtn.c ****  * @param src_left pointer to an image source for the left side of the button (a C array or path to
  73:Drivers/lvgl/src/extra/widgets/imgbtn/lv_imgbtn.c ****  * a file)
  74:Drivers/lvgl/src/extra/widgets/imgbtn/lv_imgbtn.c ****  * @param src_mid pointer to an image source for the middle of the button (ideally 1px wide) (a C
  75:Drivers/lvgl/src/extra/widgets/imgbtn/lv_imgbtn.c ****  * array or path to a file)
  76:Drivers/lvgl/src/extra/widgets/imgbtn/lv_imgbtn.c ****  * @param src_right pointer to an image source for the right side of the button (a C array or path
  77:Drivers/lvgl/src/extra/widgets/imgbtn/lv_imgbtn.c ****  * to a file)
  78:Drivers/lvgl/src/extra/widgets/imgbtn/lv_imgbtn.c ****  */
  79:Drivers/lvgl/src/extra/widgets/imgbtn/lv_imgbtn.c **** void lv_imgbtn_set_src(lv_obj_t * obj, lv_imgbtn_state_t state, const void * src_left, const void *
  80:Drivers/lvgl/src/extra/widgets/imgbtn/lv_imgbtn.c ****                        const void * src_right)
  81:Drivers/lvgl/src/extra/widgets/imgbtn/lv_imgbtn.c **** {
  82:Drivers/lvgl/src/extra/widgets/imgbtn/lv_imgbtn.c ****     LV_ASSERT_OBJ(obj, MY_CLASS);
  83:Drivers/lvgl/src/extra/widgets/imgbtn/lv_imgbtn.c **** 
  84:Drivers/lvgl/src/extra/widgets/imgbtn/lv_imgbtn.c ****     lv_imgbtn_t * imgbtn = (lv_imgbtn_t *)obj;
  85:Drivers/lvgl/src/extra/widgets/imgbtn/lv_imgbtn.c **** 
  86:Drivers/lvgl/src/extra/widgets/imgbtn/lv_imgbtn.c ****     imgbtn->img_src_left[state] = src_left;
ARM GAS  /var/folders/0z/tsy30v1j4xl4_7kw94k978ww0000gn/T//cc6FZVn5.s 			page 3


  87:Drivers/lvgl/src/extra/widgets/imgbtn/lv_imgbtn.c ****     imgbtn->img_src_mid[state] = src_mid;
  88:Drivers/lvgl/src/extra/widgets/imgbtn/lv_imgbtn.c ****     imgbtn->img_src_right[state] = src_right;
  89:Drivers/lvgl/src/extra/widgets/imgbtn/lv_imgbtn.c **** 
  90:Drivers/lvgl/src/extra/widgets/imgbtn/lv_imgbtn.c ****     refr_img(obj);
  91:Drivers/lvgl/src/extra/widgets/imgbtn/lv_imgbtn.c **** }
  92:Drivers/lvgl/src/extra/widgets/imgbtn/lv_imgbtn.c **** 
  93:Drivers/lvgl/src/extra/widgets/imgbtn/lv_imgbtn.c **** void lv_imgbtn_set_state(lv_obj_t * obj, lv_imgbtn_state_t state)
  94:Drivers/lvgl/src/extra/widgets/imgbtn/lv_imgbtn.c **** {
  95:Drivers/lvgl/src/extra/widgets/imgbtn/lv_imgbtn.c ****     LV_ASSERT_OBJ(obj, MY_CLASS);
  96:Drivers/lvgl/src/extra/widgets/imgbtn/lv_imgbtn.c **** 
  97:Drivers/lvgl/src/extra/widgets/imgbtn/lv_imgbtn.c ****     lv_state_t obj_state = LV_STATE_DEFAULT;
  98:Drivers/lvgl/src/extra/widgets/imgbtn/lv_imgbtn.c ****     if(state == LV_IMGBTN_STATE_PRESSED || state == LV_IMGBTN_STATE_CHECKED_PRESSED) obj_state |= L
  99:Drivers/lvgl/src/extra/widgets/imgbtn/lv_imgbtn.c ****     if(state == LV_IMGBTN_STATE_DISABLED || state == LV_IMGBTN_STATE_CHECKED_DISABLED) obj_state |=
 100:Drivers/lvgl/src/extra/widgets/imgbtn/lv_imgbtn.c ****     if(state == LV_IMGBTN_STATE_CHECKED_DISABLED || state == LV_IMGBTN_STATE_CHECKED_PRESSED ||
 101:Drivers/lvgl/src/extra/widgets/imgbtn/lv_imgbtn.c ****        state == LV_IMGBTN_STATE_CHECKED_RELEASED) {
 102:Drivers/lvgl/src/extra/widgets/imgbtn/lv_imgbtn.c ****         obj_state |= LV_STATE_CHECKED;
 103:Drivers/lvgl/src/extra/widgets/imgbtn/lv_imgbtn.c ****     }
 104:Drivers/lvgl/src/extra/widgets/imgbtn/lv_imgbtn.c **** 
 105:Drivers/lvgl/src/extra/widgets/imgbtn/lv_imgbtn.c ****     lv_obj_clear_state(obj, LV_STATE_CHECKED | LV_STATE_PRESSED | LV_STATE_DISABLED);
 106:Drivers/lvgl/src/extra/widgets/imgbtn/lv_imgbtn.c ****     lv_obj_add_state(obj, obj_state);
 107:Drivers/lvgl/src/extra/widgets/imgbtn/lv_imgbtn.c **** 
 108:Drivers/lvgl/src/extra/widgets/imgbtn/lv_imgbtn.c ****     refr_img(obj);
 109:Drivers/lvgl/src/extra/widgets/imgbtn/lv_imgbtn.c **** }
 110:Drivers/lvgl/src/extra/widgets/imgbtn/lv_imgbtn.c **** 
 111:Drivers/lvgl/src/extra/widgets/imgbtn/lv_imgbtn.c **** /*=====================
 112:Drivers/lvgl/src/extra/widgets/imgbtn/lv_imgbtn.c ****  * Getter functions
 113:Drivers/lvgl/src/extra/widgets/imgbtn/lv_imgbtn.c ****  *====================*/
 114:Drivers/lvgl/src/extra/widgets/imgbtn/lv_imgbtn.c **** 
 115:Drivers/lvgl/src/extra/widgets/imgbtn/lv_imgbtn.c **** 
 116:Drivers/lvgl/src/extra/widgets/imgbtn/lv_imgbtn.c **** /**
 117:Drivers/lvgl/src/extra/widgets/imgbtn/lv_imgbtn.c ****  * Get the left image in a given state
 118:Drivers/lvgl/src/extra/widgets/imgbtn/lv_imgbtn.c ****  * @param obj pointer to an image button object
 119:Drivers/lvgl/src/extra/widgets/imgbtn/lv_imgbtn.c ****  * @param state the state where to get the image (from `lv_btn_state_t`) `
 120:Drivers/lvgl/src/extra/widgets/imgbtn/lv_imgbtn.c ****  * @return pointer to the left image source (a C array or path to a file)
 121:Drivers/lvgl/src/extra/widgets/imgbtn/lv_imgbtn.c ****  */
 122:Drivers/lvgl/src/extra/widgets/imgbtn/lv_imgbtn.c **** const void * lv_imgbtn_get_src_left(lv_obj_t * obj, lv_imgbtn_state_t state)
 123:Drivers/lvgl/src/extra/widgets/imgbtn/lv_imgbtn.c **** {
 124:Drivers/lvgl/src/extra/widgets/imgbtn/lv_imgbtn.c ****     LV_ASSERT_OBJ(obj, MY_CLASS);
 125:Drivers/lvgl/src/extra/widgets/imgbtn/lv_imgbtn.c **** 
 126:Drivers/lvgl/src/extra/widgets/imgbtn/lv_imgbtn.c ****     lv_imgbtn_t * imgbtn = (lv_imgbtn_t *)obj;
 127:Drivers/lvgl/src/extra/widgets/imgbtn/lv_imgbtn.c **** 
 128:Drivers/lvgl/src/extra/widgets/imgbtn/lv_imgbtn.c ****     return imgbtn->img_src_left[state];
 129:Drivers/lvgl/src/extra/widgets/imgbtn/lv_imgbtn.c **** }
 130:Drivers/lvgl/src/extra/widgets/imgbtn/lv_imgbtn.c **** 
 131:Drivers/lvgl/src/extra/widgets/imgbtn/lv_imgbtn.c **** /**
 132:Drivers/lvgl/src/extra/widgets/imgbtn/lv_imgbtn.c ****  * Get the middle image in a given state
 133:Drivers/lvgl/src/extra/widgets/imgbtn/lv_imgbtn.c ****  * @param obj pointer to an image button object
 134:Drivers/lvgl/src/extra/widgets/imgbtn/lv_imgbtn.c ****  * @param state the state where to get the image (from `lv_btn_state_t`) `
 135:Drivers/lvgl/src/extra/widgets/imgbtn/lv_imgbtn.c ****  * @return pointer to the middle image source (a C array or path to a file)
 136:Drivers/lvgl/src/extra/widgets/imgbtn/lv_imgbtn.c ****  */
 137:Drivers/lvgl/src/extra/widgets/imgbtn/lv_imgbtn.c **** const void * lv_imgbtn_get_src_middle(lv_obj_t * obj, lv_imgbtn_state_t state)
 138:Drivers/lvgl/src/extra/widgets/imgbtn/lv_imgbtn.c **** {
 139:Drivers/lvgl/src/extra/widgets/imgbtn/lv_imgbtn.c ****     LV_ASSERT_OBJ(obj, MY_CLASS);
 140:Drivers/lvgl/src/extra/widgets/imgbtn/lv_imgbtn.c ****     lv_imgbtn_t * imgbtn = (lv_imgbtn_t *)obj;
 141:Drivers/lvgl/src/extra/widgets/imgbtn/lv_imgbtn.c **** 
 142:Drivers/lvgl/src/extra/widgets/imgbtn/lv_imgbtn.c ****     return imgbtn->img_src_mid[state];
 143:Drivers/lvgl/src/extra/widgets/imgbtn/lv_imgbtn.c **** }
ARM GAS  /var/folders/0z/tsy30v1j4xl4_7kw94k978ww0000gn/T//cc6FZVn5.s 			page 4


 144:Drivers/lvgl/src/extra/widgets/imgbtn/lv_imgbtn.c **** 
 145:Drivers/lvgl/src/extra/widgets/imgbtn/lv_imgbtn.c **** /**
 146:Drivers/lvgl/src/extra/widgets/imgbtn/lv_imgbtn.c ****  * Get the right image in a given state
 147:Drivers/lvgl/src/extra/widgets/imgbtn/lv_imgbtn.c ****  * @param obj pointer to an image button object
 148:Drivers/lvgl/src/extra/widgets/imgbtn/lv_imgbtn.c ****  * @param state the state where to get the image (from `lv_btn_state_t`) `
 149:Drivers/lvgl/src/extra/widgets/imgbtn/lv_imgbtn.c ****  * @return pointer to the left image source (a C array or path to a file)
 150:Drivers/lvgl/src/extra/widgets/imgbtn/lv_imgbtn.c ****  */
 151:Drivers/lvgl/src/extra/widgets/imgbtn/lv_imgbtn.c **** const void * lv_imgbtn_get_src_right(lv_obj_t * obj, lv_imgbtn_state_t state)
 152:Drivers/lvgl/src/extra/widgets/imgbtn/lv_imgbtn.c **** {
 153:Drivers/lvgl/src/extra/widgets/imgbtn/lv_imgbtn.c ****     LV_ASSERT_OBJ(obj, MY_CLASS);
 154:Drivers/lvgl/src/extra/widgets/imgbtn/lv_imgbtn.c ****     lv_imgbtn_t * imgbtn = (lv_imgbtn_t *)obj;
 155:Drivers/lvgl/src/extra/widgets/imgbtn/lv_imgbtn.c **** 
 156:Drivers/lvgl/src/extra/widgets/imgbtn/lv_imgbtn.c ****     return imgbtn->img_src_right[state];
 157:Drivers/lvgl/src/extra/widgets/imgbtn/lv_imgbtn.c **** }
 158:Drivers/lvgl/src/extra/widgets/imgbtn/lv_imgbtn.c **** 
 159:Drivers/lvgl/src/extra/widgets/imgbtn/lv_imgbtn.c **** 
 160:Drivers/lvgl/src/extra/widgets/imgbtn/lv_imgbtn.c **** /**********************
 161:Drivers/lvgl/src/extra/widgets/imgbtn/lv_imgbtn.c ****  *   STATIC FUNCTIONS
 162:Drivers/lvgl/src/extra/widgets/imgbtn/lv_imgbtn.c ****  **********************/
 163:Drivers/lvgl/src/extra/widgets/imgbtn/lv_imgbtn.c **** 
 164:Drivers/lvgl/src/extra/widgets/imgbtn/lv_imgbtn.c **** static void lv_imgbtn_constructor(const lv_obj_class_t * class_p, lv_obj_t * obj)
 165:Drivers/lvgl/src/extra/widgets/imgbtn/lv_imgbtn.c **** {
  30              		.loc 1 165 1 view -0
  31              		.cfi_startproc
  32              		@ args = 0, pretend = 0, frame = 0
  33              		@ frame_needed = 0, uses_anonymous_args = 0
 166:Drivers/lvgl/src/extra/widgets/imgbtn/lv_imgbtn.c ****     LV_UNUSED(class_p);
  34              		.loc 1 166 5 view .LVU1
 167:Drivers/lvgl/src/extra/widgets/imgbtn/lv_imgbtn.c ****     lv_imgbtn_t * imgbtn = (lv_imgbtn_t *)obj;
  35              		.loc 1 167 5 view .LVU2
 165:Drivers/lvgl/src/extra/widgets/imgbtn/lv_imgbtn.c ****     LV_UNUSED(class_p);
  36              		.loc 1 165 1 is_stmt 0 view .LVU3
  37 0000 10B5     		push	{r4, lr}
  38              		.cfi_def_cfa_offset 8
  39              		.cfi_offset 4, -8
  40              		.cfi_offset 14, -4
 165:Drivers/lvgl/src/extra/widgets/imgbtn/lv_imgbtn.c ****     LV_UNUSED(class_p);
  41              		.loc 1 165 1 view .LVU4
  42 0002 0C46     		mov	r4, r1
  43              	.LVL1:
 168:Drivers/lvgl/src/extra/widgets/imgbtn/lv_imgbtn.c ****     /*Initialize the allocated 'ext'*/
 169:Drivers/lvgl/src/extra/widgets/imgbtn/lv_imgbtn.c ****     lv_memset_00((void *)imgbtn->img_src_mid, sizeof(imgbtn->img_src_mid));
  44              		.loc 1 169 5 is_stmt 1 view .LVU5
  45 0004 04F12400 		add	r0, r4, #36
  46              	.LVL2:
  47              		.loc 1 169 5 is_stmt 0 view .LVU6
  48 0008 1821     		movs	r1, #24
  49              	.LVL3:
  50              		.loc 1 169 5 view .LVU7
  51 000a FFF7FEFF 		bl	lv_memset_00
  52              	.LVL4:
 170:Drivers/lvgl/src/extra/widgets/imgbtn/lv_imgbtn.c ****     lv_memset_00(imgbtn->img_src_left, sizeof(imgbtn->img_src_left));
  53              		.loc 1 170 5 is_stmt 1 view .LVU8
  54 000e 1821     		movs	r1, #24
  55 0010 04F13C00 		add	r0, r4, #60
  56 0014 FFF7FEFF 		bl	lv_memset_00
  57              	.LVL5:
ARM GAS  /var/folders/0z/tsy30v1j4xl4_7kw94k978ww0000gn/T//cc6FZVn5.s 			page 5


 171:Drivers/lvgl/src/extra/widgets/imgbtn/lv_imgbtn.c ****     lv_memset_00(imgbtn->img_src_right, sizeof(imgbtn->img_src_right));
  58              		.loc 1 171 5 view .LVU9
  59 0018 1821     		movs	r1, #24
  60 001a 04F15400 		add	r0, r4, #84
  61 001e FFF7FEFF 		bl	lv_memset_00
  62              	.LVL6:
 172:Drivers/lvgl/src/extra/widgets/imgbtn/lv_imgbtn.c **** 
 173:Drivers/lvgl/src/extra/widgets/imgbtn/lv_imgbtn.c ****     imgbtn->act_cf = LV_IMG_CF_UNKNOWN;
  63              		.loc 1 173 5 view .LVU10
  64              		.loc 1 173 20 is_stmt 0 view .LVU11
  65 0022 0023     		movs	r3, #0
  66 0024 84F86C30 		strb	r3, [r4, #108]
 174:Drivers/lvgl/src/extra/widgets/imgbtn/lv_imgbtn.c **** }
  67              		.loc 1 174 1 view .LVU12
  68 0028 10BD     		pop	{r4, pc}
  69              		.loc 1 174 1 view .LVU13
  70              		.cfi_endproc
  71              	.LFE210:
  73 002a 00BF     		.section	.text.suggest_state.part.0,"ax",%progbits
  74              		.align	1
  75              		.p2align 2,,3
  76              		.syntax unified
  77              		.thumb
  78              		.thumb_func
  80              	suggest_state.part.0:
  81              	.LVL7:
  82              	.LFB216:
 175:Drivers/lvgl/src/extra/widgets/imgbtn/lv_imgbtn.c **** 
 176:Drivers/lvgl/src/extra/widgets/imgbtn/lv_imgbtn.c **** 
 177:Drivers/lvgl/src/extra/widgets/imgbtn/lv_imgbtn.c **** static void lv_imgbtn_event(const lv_obj_class_t * class_p, lv_event_t * e)
 178:Drivers/lvgl/src/extra/widgets/imgbtn/lv_imgbtn.c **** {
 179:Drivers/lvgl/src/extra/widgets/imgbtn/lv_imgbtn.c ****     LV_UNUSED(class_p);
 180:Drivers/lvgl/src/extra/widgets/imgbtn/lv_imgbtn.c **** 
 181:Drivers/lvgl/src/extra/widgets/imgbtn/lv_imgbtn.c ****     lv_res_t res = lv_obj_event_base(&lv_imgbtn_class, e);
 182:Drivers/lvgl/src/extra/widgets/imgbtn/lv_imgbtn.c ****     if(res != LV_RES_OK) return;
 183:Drivers/lvgl/src/extra/widgets/imgbtn/lv_imgbtn.c **** 
 184:Drivers/lvgl/src/extra/widgets/imgbtn/lv_imgbtn.c ****     lv_event_code_t code = lv_event_get_code(e);
 185:Drivers/lvgl/src/extra/widgets/imgbtn/lv_imgbtn.c ****     lv_obj_t * obj = lv_event_get_target(e);
 186:Drivers/lvgl/src/extra/widgets/imgbtn/lv_imgbtn.c ****     if(code == LV_EVENT_PRESSED || code == LV_EVENT_RELEASED || code == LV_EVENT_PRESS_LOST) {
 187:Drivers/lvgl/src/extra/widgets/imgbtn/lv_imgbtn.c ****         refr_img(obj);
 188:Drivers/lvgl/src/extra/widgets/imgbtn/lv_imgbtn.c ****     }
 189:Drivers/lvgl/src/extra/widgets/imgbtn/lv_imgbtn.c ****     else if(code == LV_EVENT_DRAW_MAIN) {
 190:Drivers/lvgl/src/extra/widgets/imgbtn/lv_imgbtn.c ****         draw_main(e);
 191:Drivers/lvgl/src/extra/widgets/imgbtn/lv_imgbtn.c ****     }
 192:Drivers/lvgl/src/extra/widgets/imgbtn/lv_imgbtn.c ****     else if(code == LV_EVENT_COVER_CHECK) {
 193:Drivers/lvgl/src/extra/widgets/imgbtn/lv_imgbtn.c ****         lv_cover_check_info_t * info = lv_event_get_param(e);
 194:Drivers/lvgl/src/extra/widgets/imgbtn/lv_imgbtn.c ****         if(info->res != LV_COVER_RES_MASKED) info->res = LV_COVER_RES_NOT_COVER;
 195:Drivers/lvgl/src/extra/widgets/imgbtn/lv_imgbtn.c ****     }
 196:Drivers/lvgl/src/extra/widgets/imgbtn/lv_imgbtn.c ****     else if(code == LV_EVENT_GET_SELF_SIZE) {
 197:Drivers/lvgl/src/extra/widgets/imgbtn/lv_imgbtn.c ****         lv_point_t * p = lv_event_get_self_size_info(e);
 198:Drivers/lvgl/src/extra/widgets/imgbtn/lv_imgbtn.c ****         lv_imgbtn_t * imgbtn = (lv_imgbtn_t *)obj;
 199:Drivers/lvgl/src/extra/widgets/imgbtn/lv_imgbtn.c ****         lv_imgbtn_state_t state  = suggest_state(obj, get_state(obj));
 200:Drivers/lvgl/src/extra/widgets/imgbtn/lv_imgbtn.c ****         if(imgbtn->img_src_left[state] == NULL &&
 201:Drivers/lvgl/src/extra/widgets/imgbtn/lv_imgbtn.c ****            imgbtn->img_src_mid[state] != NULL &&
 202:Drivers/lvgl/src/extra/widgets/imgbtn/lv_imgbtn.c ****            imgbtn->img_src_right[state] == NULL) {
 203:Drivers/lvgl/src/extra/widgets/imgbtn/lv_imgbtn.c ****             lv_img_header_t header;
 204:Drivers/lvgl/src/extra/widgets/imgbtn/lv_imgbtn.c ****             lv_img_decoder_get_info(imgbtn->img_src_mid[state], &header);
ARM GAS  /var/folders/0z/tsy30v1j4xl4_7kw94k978ww0000gn/T//cc6FZVn5.s 			page 6


 205:Drivers/lvgl/src/extra/widgets/imgbtn/lv_imgbtn.c ****             p->x = LV_MAX(p->x, header.w);
 206:Drivers/lvgl/src/extra/widgets/imgbtn/lv_imgbtn.c ****         }
 207:Drivers/lvgl/src/extra/widgets/imgbtn/lv_imgbtn.c ****     }
 208:Drivers/lvgl/src/extra/widgets/imgbtn/lv_imgbtn.c ****     /*Sent when the widget is checked due to LV_OBJ_FLAG_CHECKABLE */
 209:Drivers/lvgl/src/extra/widgets/imgbtn/lv_imgbtn.c ****     else if(code == LV_EVENT_VALUE_CHANGED) {
 210:Drivers/lvgl/src/extra/widgets/imgbtn/lv_imgbtn.c ****         if(lv_obj_has_state(obj, LV_STATE_CHECKED)) {
 211:Drivers/lvgl/src/extra/widgets/imgbtn/lv_imgbtn.c ****             lv_imgbtn_set_state(obj, LV_IMGBTN_STATE_CHECKED_RELEASED);
 212:Drivers/lvgl/src/extra/widgets/imgbtn/lv_imgbtn.c ****         }
 213:Drivers/lvgl/src/extra/widgets/imgbtn/lv_imgbtn.c ****         else {
 214:Drivers/lvgl/src/extra/widgets/imgbtn/lv_imgbtn.c ****             lv_imgbtn_set_state(obj, LV_IMGBTN_STATE_RELEASED);
 215:Drivers/lvgl/src/extra/widgets/imgbtn/lv_imgbtn.c ****         }
 216:Drivers/lvgl/src/extra/widgets/imgbtn/lv_imgbtn.c ****     }
 217:Drivers/lvgl/src/extra/widgets/imgbtn/lv_imgbtn.c **** }
 218:Drivers/lvgl/src/extra/widgets/imgbtn/lv_imgbtn.c **** 
 219:Drivers/lvgl/src/extra/widgets/imgbtn/lv_imgbtn.c **** static void draw_main(lv_event_t * e)
 220:Drivers/lvgl/src/extra/widgets/imgbtn/lv_imgbtn.c **** {
 221:Drivers/lvgl/src/extra/widgets/imgbtn/lv_imgbtn.c ****     lv_obj_t * obj = lv_event_get_target(e);
 222:Drivers/lvgl/src/extra/widgets/imgbtn/lv_imgbtn.c ****     lv_imgbtn_t * imgbtn = (lv_imgbtn_t *)obj;
 223:Drivers/lvgl/src/extra/widgets/imgbtn/lv_imgbtn.c ****     lv_draw_ctx_t * draw_ctx = lv_event_get_draw_ctx(e);
 224:Drivers/lvgl/src/extra/widgets/imgbtn/lv_imgbtn.c **** 
 225:Drivers/lvgl/src/extra/widgets/imgbtn/lv_imgbtn.c ****     /*Just draw_main an image*/
 226:Drivers/lvgl/src/extra/widgets/imgbtn/lv_imgbtn.c ****     lv_imgbtn_state_t state  = suggest_state(obj, get_state(obj));
 227:Drivers/lvgl/src/extra/widgets/imgbtn/lv_imgbtn.c **** 
 228:Drivers/lvgl/src/extra/widgets/imgbtn/lv_imgbtn.c ****     /*Simply draw the middle src if no tiled*/
 229:Drivers/lvgl/src/extra/widgets/imgbtn/lv_imgbtn.c ****     const void * src = imgbtn->img_src_left[state];
 230:Drivers/lvgl/src/extra/widgets/imgbtn/lv_imgbtn.c **** 
 231:Drivers/lvgl/src/extra/widgets/imgbtn/lv_imgbtn.c ****     lv_coord_t tw = lv_obj_get_style_transform_width(obj, LV_PART_MAIN);
 232:Drivers/lvgl/src/extra/widgets/imgbtn/lv_imgbtn.c ****     lv_coord_t th = lv_obj_get_style_transform_height(obj, LV_PART_MAIN);
 233:Drivers/lvgl/src/extra/widgets/imgbtn/lv_imgbtn.c ****     lv_area_t coords;
 234:Drivers/lvgl/src/extra/widgets/imgbtn/lv_imgbtn.c ****     lv_area_copy(&coords, &obj->coords);
 235:Drivers/lvgl/src/extra/widgets/imgbtn/lv_imgbtn.c ****     coords.x1 -= tw;
 236:Drivers/lvgl/src/extra/widgets/imgbtn/lv_imgbtn.c ****     coords.x2 += tw;
 237:Drivers/lvgl/src/extra/widgets/imgbtn/lv_imgbtn.c ****     coords.y1 -= th;
 238:Drivers/lvgl/src/extra/widgets/imgbtn/lv_imgbtn.c ****     coords.y2 += th;
 239:Drivers/lvgl/src/extra/widgets/imgbtn/lv_imgbtn.c **** 
 240:Drivers/lvgl/src/extra/widgets/imgbtn/lv_imgbtn.c ****     lv_draw_img_dsc_t img_dsc;
 241:Drivers/lvgl/src/extra/widgets/imgbtn/lv_imgbtn.c ****     lv_draw_img_dsc_init(&img_dsc);
 242:Drivers/lvgl/src/extra/widgets/imgbtn/lv_imgbtn.c ****     lv_obj_init_draw_img_dsc(obj, LV_PART_MAIN, &img_dsc);
 243:Drivers/lvgl/src/extra/widgets/imgbtn/lv_imgbtn.c **** 
 244:Drivers/lvgl/src/extra/widgets/imgbtn/lv_imgbtn.c ****     lv_img_header_t header;
 245:Drivers/lvgl/src/extra/widgets/imgbtn/lv_imgbtn.c ****     lv_area_t coords_part;
 246:Drivers/lvgl/src/extra/widgets/imgbtn/lv_imgbtn.c ****     lv_coord_t left_w = 0;
 247:Drivers/lvgl/src/extra/widgets/imgbtn/lv_imgbtn.c ****     lv_coord_t right_w = 0;
 248:Drivers/lvgl/src/extra/widgets/imgbtn/lv_imgbtn.c **** 
 249:Drivers/lvgl/src/extra/widgets/imgbtn/lv_imgbtn.c ****     if(src) {
 250:Drivers/lvgl/src/extra/widgets/imgbtn/lv_imgbtn.c ****         lv_img_decoder_get_info(src, &header);
 251:Drivers/lvgl/src/extra/widgets/imgbtn/lv_imgbtn.c ****         left_w = header.w;
 252:Drivers/lvgl/src/extra/widgets/imgbtn/lv_imgbtn.c ****         coords_part.x1 = coords.x1;
 253:Drivers/lvgl/src/extra/widgets/imgbtn/lv_imgbtn.c ****         coords_part.y1 = coords.y1;
 254:Drivers/lvgl/src/extra/widgets/imgbtn/lv_imgbtn.c ****         coords_part.x2 = coords.x1 + header.w - 1;
 255:Drivers/lvgl/src/extra/widgets/imgbtn/lv_imgbtn.c ****         coords_part.y2 = coords.y1 + header.h - 1;
 256:Drivers/lvgl/src/extra/widgets/imgbtn/lv_imgbtn.c ****         lv_draw_img(draw_ctx, &img_dsc, &coords_part, src);
 257:Drivers/lvgl/src/extra/widgets/imgbtn/lv_imgbtn.c ****     }
 258:Drivers/lvgl/src/extra/widgets/imgbtn/lv_imgbtn.c **** 
 259:Drivers/lvgl/src/extra/widgets/imgbtn/lv_imgbtn.c ****     src = imgbtn->img_src_right[state];
 260:Drivers/lvgl/src/extra/widgets/imgbtn/lv_imgbtn.c ****     if(src) {
 261:Drivers/lvgl/src/extra/widgets/imgbtn/lv_imgbtn.c ****         lv_img_decoder_get_info(src, &header);
ARM GAS  /var/folders/0z/tsy30v1j4xl4_7kw94k978ww0000gn/T//cc6FZVn5.s 			page 7


 262:Drivers/lvgl/src/extra/widgets/imgbtn/lv_imgbtn.c ****         right_w = header.w;
 263:Drivers/lvgl/src/extra/widgets/imgbtn/lv_imgbtn.c ****         coords_part.x1 = coords.x2 - header.w + 1;
 264:Drivers/lvgl/src/extra/widgets/imgbtn/lv_imgbtn.c ****         coords_part.y1 = coords.y1;
 265:Drivers/lvgl/src/extra/widgets/imgbtn/lv_imgbtn.c ****         coords_part.x2 = coords.x2;
 266:Drivers/lvgl/src/extra/widgets/imgbtn/lv_imgbtn.c ****         coords_part.y2 = coords.y1 + header.h - 1;
 267:Drivers/lvgl/src/extra/widgets/imgbtn/lv_imgbtn.c ****         lv_draw_img(draw_ctx, &img_dsc, &coords_part, src);
 268:Drivers/lvgl/src/extra/widgets/imgbtn/lv_imgbtn.c ****     }
 269:Drivers/lvgl/src/extra/widgets/imgbtn/lv_imgbtn.c **** 
 270:Drivers/lvgl/src/extra/widgets/imgbtn/lv_imgbtn.c ****     src = imgbtn->img_src_mid[state];
 271:Drivers/lvgl/src/extra/widgets/imgbtn/lv_imgbtn.c ****     if(src) {
 272:Drivers/lvgl/src/extra/widgets/imgbtn/lv_imgbtn.c ****         lv_area_t clip_area_center;
 273:Drivers/lvgl/src/extra/widgets/imgbtn/lv_imgbtn.c ****         clip_area_center.x1 = coords.x1 + left_w;
 274:Drivers/lvgl/src/extra/widgets/imgbtn/lv_imgbtn.c ****         clip_area_center.x2 = coords.x2 - right_w;
 275:Drivers/lvgl/src/extra/widgets/imgbtn/lv_imgbtn.c ****         clip_area_center.y1 = coords.y1;
 276:Drivers/lvgl/src/extra/widgets/imgbtn/lv_imgbtn.c ****         clip_area_center.y2 = coords.y2;
 277:Drivers/lvgl/src/extra/widgets/imgbtn/lv_imgbtn.c **** 
 278:Drivers/lvgl/src/extra/widgets/imgbtn/lv_imgbtn.c **** 
 279:Drivers/lvgl/src/extra/widgets/imgbtn/lv_imgbtn.c ****         bool comm_res;
 280:Drivers/lvgl/src/extra/widgets/imgbtn/lv_imgbtn.c ****         comm_res = _lv_area_intersect(&clip_area_center, &clip_area_center, draw_ctx->clip_area);
 281:Drivers/lvgl/src/extra/widgets/imgbtn/lv_imgbtn.c ****         if(comm_res) {
 282:Drivers/lvgl/src/extra/widgets/imgbtn/lv_imgbtn.c ****             lv_coord_t i;
 283:Drivers/lvgl/src/extra/widgets/imgbtn/lv_imgbtn.c ****             lv_img_decoder_get_info(src, &header);
 284:Drivers/lvgl/src/extra/widgets/imgbtn/lv_imgbtn.c **** 
 285:Drivers/lvgl/src/extra/widgets/imgbtn/lv_imgbtn.c ****             const lv_area_t * clip_area_ori = draw_ctx->clip_area;
 286:Drivers/lvgl/src/extra/widgets/imgbtn/lv_imgbtn.c ****             draw_ctx->clip_area = &clip_area_center;
 287:Drivers/lvgl/src/extra/widgets/imgbtn/lv_imgbtn.c **** 
 288:Drivers/lvgl/src/extra/widgets/imgbtn/lv_imgbtn.c ****             coords_part.x1 = coords.x1 + left_w;
 289:Drivers/lvgl/src/extra/widgets/imgbtn/lv_imgbtn.c ****             coords_part.y1 = coords.y1;
 290:Drivers/lvgl/src/extra/widgets/imgbtn/lv_imgbtn.c ****             coords_part.x2 = coords_part.x1 + header.w - 1;
 291:Drivers/lvgl/src/extra/widgets/imgbtn/lv_imgbtn.c ****             coords_part.y2 = coords_part.y1 + header.h - 1;
 292:Drivers/lvgl/src/extra/widgets/imgbtn/lv_imgbtn.c **** 
 293:Drivers/lvgl/src/extra/widgets/imgbtn/lv_imgbtn.c ****             for(i = coords_part.x1; i < (lv_coord_t)(clip_area_center.x2 + header.w - 1); i += head
 294:Drivers/lvgl/src/extra/widgets/imgbtn/lv_imgbtn.c ****                 lv_draw_img(draw_ctx, &img_dsc, &coords_part, src);
 295:Drivers/lvgl/src/extra/widgets/imgbtn/lv_imgbtn.c ****                 coords_part.x1 = coords_part.x2 + 1;
 296:Drivers/lvgl/src/extra/widgets/imgbtn/lv_imgbtn.c ****                 coords_part.x2 += header.w;
 297:Drivers/lvgl/src/extra/widgets/imgbtn/lv_imgbtn.c ****             }
 298:Drivers/lvgl/src/extra/widgets/imgbtn/lv_imgbtn.c ****             draw_ctx->clip_area = clip_area_ori;
 299:Drivers/lvgl/src/extra/widgets/imgbtn/lv_imgbtn.c ****         }
 300:Drivers/lvgl/src/extra/widgets/imgbtn/lv_imgbtn.c ****     }
 301:Drivers/lvgl/src/extra/widgets/imgbtn/lv_imgbtn.c **** }
 302:Drivers/lvgl/src/extra/widgets/imgbtn/lv_imgbtn.c **** 
 303:Drivers/lvgl/src/extra/widgets/imgbtn/lv_imgbtn.c **** static void refr_img(lv_obj_t * obj)
 304:Drivers/lvgl/src/extra/widgets/imgbtn/lv_imgbtn.c **** {
 305:Drivers/lvgl/src/extra/widgets/imgbtn/lv_imgbtn.c ****     lv_imgbtn_t * imgbtn = (lv_imgbtn_t *)obj;
 306:Drivers/lvgl/src/extra/widgets/imgbtn/lv_imgbtn.c ****     lv_imgbtn_state_t state  = suggest_state(obj, get_state(obj));
 307:Drivers/lvgl/src/extra/widgets/imgbtn/lv_imgbtn.c ****     lv_img_header_t header;
 308:Drivers/lvgl/src/extra/widgets/imgbtn/lv_imgbtn.c **** 
 309:Drivers/lvgl/src/extra/widgets/imgbtn/lv_imgbtn.c ****     const void * src = imgbtn->img_src_mid[state];
 310:Drivers/lvgl/src/extra/widgets/imgbtn/lv_imgbtn.c ****     if(src == NULL) return;
 311:Drivers/lvgl/src/extra/widgets/imgbtn/lv_imgbtn.c **** 
 312:Drivers/lvgl/src/extra/widgets/imgbtn/lv_imgbtn.c ****     lv_res_t info_res = LV_RES_OK;
 313:Drivers/lvgl/src/extra/widgets/imgbtn/lv_imgbtn.c ****     info_res = lv_img_decoder_get_info(src, &header);
 314:Drivers/lvgl/src/extra/widgets/imgbtn/lv_imgbtn.c **** 
 315:Drivers/lvgl/src/extra/widgets/imgbtn/lv_imgbtn.c ****     if(info_res == LV_RES_OK) {
 316:Drivers/lvgl/src/extra/widgets/imgbtn/lv_imgbtn.c ****         imgbtn->act_cf = header.cf;
 317:Drivers/lvgl/src/extra/widgets/imgbtn/lv_imgbtn.c ****         lv_obj_refresh_self_size(obj);
 318:Drivers/lvgl/src/extra/widgets/imgbtn/lv_imgbtn.c ****         lv_obj_set_height(obj, header.h); /*Keep the user defined width*/
ARM GAS  /var/folders/0z/tsy30v1j4xl4_7kw94k978ww0000gn/T//cc6FZVn5.s 			page 8


 319:Drivers/lvgl/src/extra/widgets/imgbtn/lv_imgbtn.c ****     }
 320:Drivers/lvgl/src/extra/widgets/imgbtn/lv_imgbtn.c ****     else {
 321:Drivers/lvgl/src/extra/widgets/imgbtn/lv_imgbtn.c ****         imgbtn->act_cf = LV_IMG_CF_UNKNOWN;
 322:Drivers/lvgl/src/extra/widgets/imgbtn/lv_imgbtn.c ****     }
 323:Drivers/lvgl/src/extra/widgets/imgbtn/lv_imgbtn.c **** 
 324:Drivers/lvgl/src/extra/widgets/imgbtn/lv_imgbtn.c ****     lv_obj_invalidate(obj);
 325:Drivers/lvgl/src/extra/widgets/imgbtn/lv_imgbtn.c **** }
 326:Drivers/lvgl/src/extra/widgets/imgbtn/lv_imgbtn.c **** 
 327:Drivers/lvgl/src/extra/widgets/imgbtn/lv_imgbtn.c **** /**
 328:Drivers/lvgl/src/extra/widgets/imgbtn/lv_imgbtn.c ****  * If `src` is not defined for the current state try to get a state which is related to the current
 329:Drivers/lvgl/src/extra/widgets/imgbtn/lv_imgbtn.c ****  * E.g. if the PRESSED src is not set but the RELEASED does, use the RELEASED.
 330:Drivers/lvgl/src/extra/widgets/imgbtn/lv_imgbtn.c ****  * @param imgbtn pointer to an image button
 331:Drivers/lvgl/src/extra/widgets/imgbtn/lv_imgbtn.c ****  * @param state the state to convert
 332:Drivers/lvgl/src/extra/widgets/imgbtn/lv_imgbtn.c ****  * @return the suggested state
 333:Drivers/lvgl/src/extra/widgets/imgbtn/lv_imgbtn.c ****  */
 334:Drivers/lvgl/src/extra/widgets/imgbtn/lv_imgbtn.c **** static lv_imgbtn_state_t suggest_state(lv_obj_t * obj, lv_imgbtn_state_t state)
  83              		.loc 1 334 26 is_stmt 1 view -0
  84              		.cfi_startproc
  85              		@ args = 0, pretend = 0, frame = 0
  86              		@ frame_needed = 0, uses_anonymous_args = 0
  87              		@ link register save eliminated.
 335:Drivers/lvgl/src/extra/widgets/imgbtn/lv_imgbtn.c **** {
 336:Drivers/lvgl/src/extra/widgets/imgbtn/lv_imgbtn.c ****     lv_imgbtn_t * imgbtn = (lv_imgbtn_t *)obj;
 337:Drivers/lvgl/src/extra/widgets/imgbtn/lv_imgbtn.c ****     if(imgbtn->img_src_mid[state] == NULL) {
 338:Drivers/lvgl/src/extra/widgets/imgbtn/lv_imgbtn.c ****         switch(state) {
  88              		.loc 1 338 9 view .LVU15
  89 0000 4B1E     		subs	r3, r1, #1
  90 0002 042B     		cmp	r3, #4
  91 0004 26D8     		bhi	.L12
  92 0006 DFE803F0 		tbb	[pc, r3]
  93              	.L7:
  94 000a 1A       		.byte	(.L11-.L7)/2
  95 000b 09       		.byte	(.L10-.L7)/2
  96 000c 03       		.byte	(.L18-.L7)/2
  97 000d 0F       		.byte	(.L8-.L7)/2
  98 000e 15       		.byte	(.L6-.L7)/2
  99 000f 00       		.p2align 1
 100              	.L18:
 339:Drivers/lvgl/src/extra/widgets/imgbtn/lv_imgbtn.c ****             case LV_IMGBTN_STATE_PRESSED:
 340:Drivers/lvgl/src/extra/widgets/imgbtn/lv_imgbtn.c ****                 if(imgbtn->img_src_mid[LV_IMGBTN_STATE_RELEASED]) return LV_IMGBTN_STATE_RELEASED;
 341:Drivers/lvgl/src/extra/widgets/imgbtn/lv_imgbtn.c ****                 break;
 342:Drivers/lvgl/src/extra/widgets/imgbtn/lv_imgbtn.c ****             case LV_IMGBTN_STATE_CHECKED_RELEASED:
 343:Drivers/lvgl/src/extra/widgets/imgbtn/lv_imgbtn.c ****                 if(imgbtn->img_src_mid[LV_IMGBTN_STATE_RELEASED]) return LV_IMGBTN_STATE_RELEASED;
 344:Drivers/lvgl/src/extra/widgets/imgbtn/lv_imgbtn.c ****                 break;
 345:Drivers/lvgl/src/extra/widgets/imgbtn/lv_imgbtn.c ****             case LV_IMGBTN_STATE_CHECKED_PRESSED:
 346:Drivers/lvgl/src/extra/widgets/imgbtn/lv_imgbtn.c ****                 if(imgbtn->img_src_mid[LV_IMGBTN_STATE_CHECKED_RELEASED]) return LV_IMGBTN_STATE_CH
 347:Drivers/lvgl/src/extra/widgets/imgbtn/lv_imgbtn.c ****                 if(imgbtn->img_src_mid[LV_IMGBTN_STATE_PRESSED]) return LV_IMGBTN_STATE_PRESSED;
 348:Drivers/lvgl/src/extra/widgets/imgbtn/lv_imgbtn.c ****                 if(imgbtn->img_src_mid[LV_IMGBTN_STATE_RELEASED]) return LV_IMGBTN_STATE_RELEASED;
 349:Drivers/lvgl/src/extra/widgets/imgbtn/lv_imgbtn.c ****                 break;
 350:Drivers/lvgl/src/extra/widgets/imgbtn/lv_imgbtn.c ****             case LV_IMGBTN_STATE_DISABLED:
 351:Drivers/lvgl/src/extra/widgets/imgbtn/lv_imgbtn.c ****                 if(imgbtn->img_src_mid[LV_IMGBTN_STATE_RELEASED]) return LV_IMGBTN_STATE_RELEASED;
 352:Drivers/lvgl/src/extra/widgets/imgbtn/lv_imgbtn.c ****                 break;
 353:Drivers/lvgl/src/extra/widgets/imgbtn/lv_imgbtn.c ****             case LV_IMGBTN_STATE_CHECKED_DISABLED:
 354:Drivers/lvgl/src/extra/widgets/imgbtn/lv_imgbtn.c ****                 if(imgbtn->img_src_mid[LV_IMGBTN_STATE_CHECKED_RELEASED]) return LV_IMGBTN_STATE_CH
 355:Drivers/lvgl/src/extra/widgets/imgbtn/lv_imgbtn.c ****                 if(imgbtn->img_src_mid[LV_IMGBTN_STATE_RELEASED]) return LV_IMGBTN_STATE_RELEASED;
 101              		.loc 1 355 17 view .LVU16
 102              		.loc 1 355 19 is_stmt 0 view .LVU17
ARM GAS  /var/folders/0z/tsy30v1j4xl4_7kw94k978ww0000gn/T//cc6FZVn5.s 			page 9


 103 0010 436A     		ldr	r3, [r0, #36]
 356:Drivers/lvgl/src/extra/widgets/imgbtn/lv_imgbtn.c ****                 break;
 357:Drivers/lvgl/src/extra/widgets/imgbtn/lv_imgbtn.c ****             default:
 358:Drivers/lvgl/src/extra/widgets/imgbtn/lv_imgbtn.c ****                 break;
 359:Drivers/lvgl/src/extra/widgets/imgbtn/lv_imgbtn.c ****         }
 360:Drivers/lvgl/src/extra/widgets/imgbtn/lv_imgbtn.c ****     }
 361:Drivers/lvgl/src/extra/widgets/imgbtn/lv_imgbtn.c **** 
 362:Drivers/lvgl/src/extra/widgets/imgbtn/lv_imgbtn.c ****     return state;
 104              		.loc 1 362 12 view .LVU18
 105 0012 002B     		cmp	r3, #0
 106 0014 0CBF     		ite	eq
 107 0016 0846     		moveq	r0, r1
 108              	.LVL8:
 109              		.loc 1 362 12 view .LVU19
 110 0018 0020     		movne	r0, #0
 111 001a 7047     		bx	lr
 112              	.LVL9:
 113              	.L10:
 351:Drivers/lvgl/src/extra/widgets/imgbtn/lv_imgbtn.c ****                 break;
 114              		.loc 1 351 17 is_stmt 1 view .LVU20
 351:Drivers/lvgl/src/extra/widgets/imgbtn/lv_imgbtn.c ****                 break;
 115              		.loc 1 351 19 is_stmt 0 view .LVU21
 116 001c 416A     		ldr	r1, [r0, #36]
 117              	.LVL10:
 351:Drivers/lvgl/src/extra/widgets/imgbtn/lv_imgbtn.c ****                 break;
 118              		.loc 1 351 19 view .LVU22
 119 001e B1FA81F1 		clz	r1, r1
 120 0022 4909     		lsrs	r1, r1, #5
 121 0024 4800     		lsls	r0, r1, #1
 122              	.LVL11:
 351:Drivers/lvgl/src/extra/widgets/imgbtn/lv_imgbtn.c ****                 break;
 123              		.loc 1 351 19 view .LVU23
 124 0026 7047     		bx	lr
 125              	.LVL12:
 126              	.L8:
 346:Drivers/lvgl/src/extra/widgets/imgbtn/lv_imgbtn.c ****                 if(imgbtn->img_src_mid[LV_IMGBTN_STATE_PRESSED]) return LV_IMGBTN_STATE_PRESSED;
 127              		.loc 1 346 17 is_stmt 1 view .LVU24
 346:Drivers/lvgl/src/extra/widgets/imgbtn/lv_imgbtn.c ****                 if(imgbtn->img_src_mid[LV_IMGBTN_STATE_PRESSED]) return LV_IMGBTN_STATE_PRESSED;
 128              		.loc 1 346 19 is_stmt 0 view .LVU25
 129 0028 036B     		ldr	r3, [r0, #48]
 130 002a 33B9     		cbnz	r3, .L16
 347:Drivers/lvgl/src/extra/widgets/imgbtn/lv_imgbtn.c ****                 if(imgbtn->img_src_mid[LV_IMGBTN_STATE_RELEASED]) return LV_IMGBTN_STATE_RELEASED;
 131              		.loc 1 347 17 is_stmt 1 view .LVU26
 347:Drivers/lvgl/src/extra/widgets/imgbtn/lv_imgbtn.c ****                 if(imgbtn->img_src_mid[LV_IMGBTN_STATE_RELEASED]) return LV_IMGBTN_STATE_RELEASED;
 132              		.loc 1 347 19 is_stmt 0 view .LVU27
 133 002c 836A     		ldr	r3, [r0, #40]
 134 002e 5BB1     		cbz	r3, .L19
 347:Drivers/lvgl/src/extra/widgets/imgbtn/lv_imgbtn.c ****                 if(imgbtn->img_src_mid[LV_IMGBTN_STATE_RELEASED]) return LV_IMGBTN_STATE_RELEASED;
 135              		.loc 1 347 73 view .LVU28
 136 0030 0120     		movs	r0, #1
 137              	.LVL13:
 347:Drivers/lvgl/src/extra/widgets/imgbtn/lv_imgbtn.c ****                 if(imgbtn->img_src_mid[LV_IMGBTN_STATE_RELEASED]) return LV_IMGBTN_STATE_RELEASED;
 138              		.loc 1 347 73 view .LVU29
 139 0032 7047     		bx	lr
 140              	.LVL14:
 141              	.L6:
 354:Drivers/lvgl/src/extra/widgets/imgbtn/lv_imgbtn.c ****                 if(imgbtn->img_src_mid[LV_IMGBTN_STATE_RELEASED]) return LV_IMGBTN_STATE_RELEASED;
ARM GAS  /var/folders/0z/tsy30v1j4xl4_7kw94k978ww0000gn/T//cc6FZVn5.s 			page 10


 142              		.loc 1 354 17 is_stmt 1 view .LVU30
 354:Drivers/lvgl/src/extra/widgets/imgbtn/lv_imgbtn.c ****                 if(imgbtn->img_src_mid[LV_IMGBTN_STATE_RELEASED]) return LV_IMGBTN_STATE_RELEASED;
 143              		.loc 1 354 19 is_stmt 0 view .LVU31
 144 0034 036B     		ldr	r3, [r0, #48]
 145 0036 002B     		cmp	r3, #0
 146 0038 EAD0     		beq	.L18
 147              	.L16:
 148              		.loc 1 362 12 view .LVU32
 149 003a 0320     		movs	r0, #3
 150              	.LVL15:
 363:Drivers/lvgl/src/extra/widgets/imgbtn/lv_imgbtn.c **** }
 151              		.loc 1 363 1 view .LVU33
 152 003c 7047     		bx	lr
 153              	.LVL16:
 154              	.L11:
 340:Drivers/lvgl/src/extra/widgets/imgbtn/lv_imgbtn.c ****                 break;
 155              		.loc 1 340 17 is_stmt 1 view .LVU34
 340:Drivers/lvgl/src/extra/widgets/imgbtn/lv_imgbtn.c ****                 break;
 156              		.loc 1 340 19 is_stmt 0 view .LVU35
 157 003e 406A     		ldr	r0, [r0, #36]
 158              	.LVL17:
 362:Drivers/lvgl/src/extra/widgets/imgbtn/lv_imgbtn.c **** }
 159              		.loc 1 362 12 view .LVU36
 160 0040 B0FA80F0 		clz	r0, r0
 161 0044 4009     		lsrs	r0, r0, #5
 162 0046 7047     		bx	lr
 163              	.LVL18:
 164              	.L19:
 348:Drivers/lvgl/src/extra/widgets/imgbtn/lv_imgbtn.c ****                 break;
 165              		.loc 1 348 17 is_stmt 1 view .LVU37
 348:Drivers/lvgl/src/extra/widgets/imgbtn/lv_imgbtn.c ****                 break;
 166              		.loc 1 348 19 is_stmt 0 view .LVU38
 167 0048 416A     		ldr	r1, [r0, #36]
 168              	.LVL19:
 348:Drivers/lvgl/src/extra/widgets/imgbtn/lv_imgbtn.c ****                 break;
 169              		.loc 1 348 19 view .LVU39
 170 004a B1FA81F1 		clz	r1, r1
 171 004e 4909     		lsrs	r1, r1, #5
 172 0050 8800     		lsls	r0, r1, #2
 173              	.LVL20:
 348:Drivers/lvgl/src/extra/widgets/imgbtn/lv_imgbtn.c ****                 break;
 174              		.loc 1 348 19 view .LVU40
 175 0052 7047     		bx	lr
 176              	.LVL21:
 177              	.L12:
 338:Drivers/lvgl/src/extra/widgets/imgbtn/lv_imgbtn.c ****             case LV_IMGBTN_STATE_PRESSED:
 178              		.loc 1 338 9 view .LVU41
 179 0054 0846     		mov	r0, r1
 180              	.LVL22:
 338:Drivers/lvgl/src/extra/widgets/imgbtn/lv_imgbtn.c ****             case LV_IMGBTN_STATE_PRESSED:
 181              		.loc 1 338 9 view .LVU42
 182 0056 7047     		bx	lr
 183              		.cfi_endproc
 184              	.LFE216:
 186              		.section	.text.lv_imgbtn_create,"ax",%progbits
 187              		.align	1
 188              		.p2align 2,,3
ARM GAS  /var/folders/0z/tsy30v1j4xl4_7kw94k978ww0000gn/T//cc6FZVn5.s 			page 11


 189              		.global	lv_imgbtn_create
 190              		.syntax unified
 191              		.thumb
 192              		.thumb_func
 194              	lv_imgbtn_create:
 195              	.LVL23:
 196              	.LFB204:
  57:Drivers/lvgl/src/extra/widgets/imgbtn/lv_imgbtn.c ****     LV_LOG_INFO("begin");
 197              		.loc 1 57 1 is_stmt 1 view -0
 198              		.cfi_startproc
 199              		@ args = 0, pretend = 0, frame = 0
 200              		@ frame_needed = 0, uses_anonymous_args = 0
  58:Drivers/lvgl/src/extra/widgets/imgbtn/lv_imgbtn.c ****     lv_obj_t * obj = lv_obj_class_create_obj(MY_CLASS, parent);
 201              		.loc 1 58 5 view .LVU44
  58:Drivers/lvgl/src/extra/widgets/imgbtn/lv_imgbtn.c ****     lv_obj_t * obj = lv_obj_class_create_obj(MY_CLASS, parent);
 202              		.loc 1 58 5 view .LVU45
  58:Drivers/lvgl/src/extra/widgets/imgbtn/lv_imgbtn.c ****     lv_obj_t * obj = lv_obj_class_create_obj(MY_CLASS, parent);
 203              		.loc 1 58 5 view .LVU46
  59:Drivers/lvgl/src/extra/widgets/imgbtn/lv_imgbtn.c ****     lv_obj_class_init_obj(obj);
 204              		.loc 1 59 5 view .LVU47
  57:Drivers/lvgl/src/extra/widgets/imgbtn/lv_imgbtn.c ****     LV_LOG_INFO("begin");
 205              		.loc 1 57 1 is_stmt 0 view .LVU48
 206 0000 10B5     		push	{r4, lr}
 207              		.cfi_def_cfa_offset 8
 208              		.cfi_offset 4, -8
 209              		.cfi_offset 14, -4
  57:Drivers/lvgl/src/extra/widgets/imgbtn/lv_imgbtn.c ****     LV_LOG_INFO("begin");
 210              		.loc 1 57 1 view .LVU49
 211 0002 0146     		mov	r1, r0
  59:Drivers/lvgl/src/extra/widgets/imgbtn/lv_imgbtn.c ****     lv_obj_class_init_obj(obj);
 212              		.loc 1 59 22 view .LVU50
 213 0004 0348     		ldr	r0, .L22
 214              	.LVL24:
  59:Drivers/lvgl/src/extra/widgets/imgbtn/lv_imgbtn.c ****     lv_obj_class_init_obj(obj);
 215              		.loc 1 59 22 view .LVU51
 216 0006 FFF7FEFF 		bl	lv_obj_class_create_obj
 217              	.LVL25:
  59:Drivers/lvgl/src/extra/widgets/imgbtn/lv_imgbtn.c ****     lv_obj_class_init_obj(obj);
 218              		.loc 1 59 22 view .LVU52
 219 000a 0446     		mov	r4, r0
 220              	.LVL26:
  60:Drivers/lvgl/src/extra/widgets/imgbtn/lv_imgbtn.c ****     return obj;
 221              		.loc 1 60 5 is_stmt 1 view .LVU53
 222 000c FFF7FEFF 		bl	lv_obj_class_init_obj
 223              	.LVL27:
  61:Drivers/lvgl/src/extra/widgets/imgbtn/lv_imgbtn.c **** }
 224              		.loc 1 61 5 view .LVU54
  62:Drivers/lvgl/src/extra/widgets/imgbtn/lv_imgbtn.c **** 
 225              		.loc 1 62 1 is_stmt 0 view .LVU55
 226 0010 2046     		mov	r0, r4
 227 0012 10BD     		pop	{r4, pc}
 228              	.LVL28:
 229              	.L23:
  62:Drivers/lvgl/src/extra/widgets/imgbtn/lv_imgbtn.c **** 
 230              		.loc 1 62 1 view .LVU56
 231              		.align	2
 232              	.L22:
ARM GAS  /var/folders/0z/tsy30v1j4xl4_7kw94k978ww0000gn/T//cc6FZVn5.s 			page 12


 233 0014 00000000 		.word	.LANCHOR0
 234              		.cfi_endproc
 235              	.LFE204:
 237              		.section	.text.lv_imgbtn_get_src_left,"ax",%progbits
 238              		.align	1
 239              		.p2align 2,,3
 240              		.global	lv_imgbtn_get_src_left
 241              		.syntax unified
 242              		.thumb
 243              		.thumb_func
 245              	lv_imgbtn_get_src_left:
 246              	.LVL29:
 247              	.LFB207:
 123:Drivers/lvgl/src/extra/widgets/imgbtn/lv_imgbtn.c ****     LV_ASSERT_OBJ(obj, MY_CLASS);
 248              		.loc 1 123 1 is_stmt 1 view -0
 249              		.cfi_startproc
 250              		@ args = 0, pretend = 0, frame = 0
 251              		@ frame_needed = 0, uses_anonymous_args = 0
 252              		@ link register save eliminated.
 124:Drivers/lvgl/src/extra/widgets/imgbtn/lv_imgbtn.c **** 
 253              		.loc 1 124 5 view .LVU58
 124:Drivers/lvgl/src/extra/widgets/imgbtn/lv_imgbtn.c **** 
 254              		.loc 1 124 5 view .LVU59
 124:Drivers/lvgl/src/extra/widgets/imgbtn/lv_imgbtn.c **** 
 255              		.loc 1 124 5 view .LVU60
 126:Drivers/lvgl/src/extra/widgets/imgbtn/lv_imgbtn.c **** 
 256              		.loc 1 126 5 view .LVU61
 128:Drivers/lvgl/src/extra/widgets/imgbtn/lv_imgbtn.c **** }
 257              		.loc 1 128 5 view .LVU62
 128:Drivers/lvgl/src/extra/widgets/imgbtn/lv_imgbtn.c **** }
 258              		.loc 1 128 32 is_stmt 0 view .LVU63
 259 0000 00EB8101 		add	r1, r0, r1, lsl #2
 260              	.LVL30:
 129:Drivers/lvgl/src/extra/widgets/imgbtn/lv_imgbtn.c **** 
 261              		.loc 1 129 1 view .LVU64
 262 0004 C86B     		ldr	r0, [r1, #60]
 263              	.LVL31:
 129:Drivers/lvgl/src/extra/widgets/imgbtn/lv_imgbtn.c **** 
 264              		.loc 1 129 1 view .LVU65
 265 0006 7047     		bx	lr
 266              		.cfi_endproc
 267              	.LFE207:
 269              		.section	.text.lv_imgbtn_get_src_middle,"ax",%progbits
 270              		.align	1
 271              		.p2align 2,,3
 272              		.global	lv_imgbtn_get_src_middle
 273              		.syntax unified
 274              		.thumb
 275              		.thumb_func
 277              	lv_imgbtn_get_src_middle:
 278              	.LVL32:
 279              	.LFB208:
 138:Drivers/lvgl/src/extra/widgets/imgbtn/lv_imgbtn.c ****     LV_ASSERT_OBJ(obj, MY_CLASS);
 280              		.loc 1 138 1 is_stmt 1 view -0
 281              		.cfi_startproc
 282              		@ args = 0, pretend = 0, frame = 0
 283              		@ frame_needed = 0, uses_anonymous_args = 0
ARM GAS  /var/folders/0z/tsy30v1j4xl4_7kw94k978ww0000gn/T//cc6FZVn5.s 			page 13


 284              		@ link register save eliminated.
 139:Drivers/lvgl/src/extra/widgets/imgbtn/lv_imgbtn.c ****     lv_imgbtn_t * imgbtn = (lv_imgbtn_t *)obj;
 285              		.loc 1 139 5 view .LVU67
 139:Drivers/lvgl/src/extra/widgets/imgbtn/lv_imgbtn.c ****     lv_imgbtn_t * imgbtn = (lv_imgbtn_t *)obj;
 286              		.loc 1 139 5 view .LVU68
 139:Drivers/lvgl/src/extra/widgets/imgbtn/lv_imgbtn.c ****     lv_imgbtn_t * imgbtn = (lv_imgbtn_t *)obj;
 287              		.loc 1 139 5 view .LVU69
 140:Drivers/lvgl/src/extra/widgets/imgbtn/lv_imgbtn.c **** 
 288              		.loc 1 140 5 view .LVU70
 142:Drivers/lvgl/src/extra/widgets/imgbtn/lv_imgbtn.c **** }
 289              		.loc 1 142 5 view .LVU71
 142:Drivers/lvgl/src/extra/widgets/imgbtn/lv_imgbtn.c **** }
 290              		.loc 1 142 31 is_stmt 0 view .LVU72
 291 0000 00EB8101 		add	r1, r0, r1, lsl #2
 292              	.LVL33:
 143:Drivers/lvgl/src/extra/widgets/imgbtn/lv_imgbtn.c **** 
 293              		.loc 1 143 1 view .LVU73
 294 0004 486A     		ldr	r0, [r1, #36]
 295              	.LVL34:
 143:Drivers/lvgl/src/extra/widgets/imgbtn/lv_imgbtn.c **** 
 296              		.loc 1 143 1 view .LVU74
 297 0006 7047     		bx	lr
 298              		.cfi_endproc
 299              	.LFE208:
 301              		.section	.text.lv_imgbtn_get_src_right,"ax",%progbits
 302              		.align	1
 303              		.p2align 2,,3
 304              		.global	lv_imgbtn_get_src_right
 305              		.syntax unified
 306              		.thumb
 307              		.thumb_func
 309              	lv_imgbtn_get_src_right:
 310              	.LVL35:
 311              	.LFB209:
 152:Drivers/lvgl/src/extra/widgets/imgbtn/lv_imgbtn.c ****     LV_ASSERT_OBJ(obj, MY_CLASS);
 312              		.loc 1 152 1 is_stmt 1 view -0
 313              		.cfi_startproc
 314              		@ args = 0, pretend = 0, frame = 0
 315              		@ frame_needed = 0, uses_anonymous_args = 0
 316              		@ link register save eliminated.
 153:Drivers/lvgl/src/extra/widgets/imgbtn/lv_imgbtn.c ****     lv_imgbtn_t * imgbtn = (lv_imgbtn_t *)obj;
 317              		.loc 1 153 5 view .LVU76
 153:Drivers/lvgl/src/extra/widgets/imgbtn/lv_imgbtn.c ****     lv_imgbtn_t * imgbtn = (lv_imgbtn_t *)obj;
 318              		.loc 1 153 5 view .LVU77
 153:Drivers/lvgl/src/extra/widgets/imgbtn/lv_imgbtn.c ****     lv_imgbtn_t * imgbtn = (lv_imgbtn_t *)obj;
 319              		.loc 1 153 5 view .LVU78
 154:Drivers/lvgl/src/extra/widgets/imgbtn/lv_imgbtn.c **** 
 320              		.loc 1 154 5 view .LVU79
 156:Drivers/lvgl/src/extra/widgets/imgbtn/lv_imgbtn.c **** }
 321              		.loc 1 156 5 view .LVU80
 156:Drivers/lvgl/src/extra/widgets/imgbtn/lv_imgbtn.c **** }
 322              		.loc 1 156 33 is_stmt 0 view .LVU81
 323 0000 00EB8101 		add	r1, r0, r1, lsl #2
 324              	.LVL36:
 157:Drivers/lvgl/src/extra/widgets/imgbtn/lv_imgbtn.c **** 
 325              		.loc 1 157 1 view .LVU82
 326 0004 486D     		ldr	r0, [r1, #84]
ARM GAS  /var/folders/0z/tsy30v1j4xl4_7kw94k978ww0000gn/T//cc6FZVn5.s 			page 14


 327              	.LVL37:
 157:Drivers/lvgl/src/extra/widgets/imgbtn/lv_imgbtn.c **** 
 328              		.loc 1 157 1 view .LVU83
 329 0006 7047     		bx	lr
 330              		.cfi_endproc
 331              	.LFE209:
 333              		.section	.text.get_state,"ax",%progbits
 334              		.align	1
 335              		.p2align 2,,3
 336              		.global	get_state
 337              		.syntax unified
 338              		.thumb
 339              		.thumb_func
 341              	get_state:
 342              	.LVL38:
 343              	.LFB215:
 364:Drivers/lvgl/src/extra/widgets/imgbtn/lv_imgbtn.c **** 
 365:Drivers/lvgl/src/extra/widgets/imgbtn/lv_imgbtn.c **** lv_imgbtn_state_t get_state(const lv_obj_t * imgbtn)
 366:Drivers/lvgl/src/extra/widgets/imgbtn/lv_imgbtn.c **** {
 344              		.loc 1 366 1 is_stmt 1 view -0
 345              		.cfi_startproc
 346              		@ args = 0, pretend = 0, frame = 0
 347              		@ frame_needed = 0, uses_anonymous_args = 0
 367:Drivers/lvgl/src/extra/widgets/imgbtn/lv_imgbtn.c ****     LV_ASSERT_OBJ(imgbtn, MY_CLASS);
 348              		.loc 1 367 5 view .LVU85
 349              		.loc 1 367 5 view .LVU86
 350              		.loc 1 367 5 view .LVU87
 368:Drivers/lvgl/src/extra/widgets/imgbtn/lv_imgbtn.c **** 
 369:Drivers/lvgl/src/extra/widgets/imgbtn/lv_imgbtn.c ****     lv_state_t obj_state = lv_obj_get_state(imgbtn);
 351              		.loc 1 369 5 view .LVU88
 366:Drivers/lvgl/src/extra/widgets/imgbtn/lv_imgbtn.c ****     LV_ASSERT_OBJ(imgbtn, MY_CLASS);
 352              		.loc 1 366 1 is_stmt 0 view .LVU89
 353 0000 08B5     		push	{r3, lr}
 354              		.cfi_def_cfa_offset 8
 355              		.cfi_offset 3, -8
 356              		.cfi_offset 14, -4
 357              		.loc 1 369 28 view .LVU90
 358 0002 FFF7FEFF 		bl	lv_obj_get_state
 359              	.LVL39:
 370:Drivers/lvgl/src/extra/widgets/imgbtn/lv_imgbtn.c **** 
 371:Drivers/lvgl/src/extra/widgets/imgbtn/lv_imgbtn.c ****     if(obj_state & LV_STATE_DISABLED) {
 360              		.loc 1 371 5 is_stmt 1 view .LVU91
 361              		.loc 1 371 7 is_stmt 0 view .LVU92
 362 0006 0206     		lsls	r2, r0, #24
 363 0008 05D5     		bpl	.L28
 372:Drivers/lvgl/src/extra/widgets/imgbtn/lv_imgbtn.c ****         if(obj_state & LV_STATE_CHECKED) return LV_IMGBTN_STATE_CHECKED_DISABLED;
 364              		.loc 1 372 9 is_stmt 1 view .LVU93
 373:Drivers/lvgl/src/extra/widgets/imgbtn/lv_imgbtn.c ****         else return LV_IMGBTN_STATE_DISABLED;
 365              		.loc 1 373 21 is_stmt 0 view .LVU94
 366 000a 10F0010F 		tst	r0, #1
 367 000e 14BF     		ite	ne
 368 0010 0520     		movne	r0, #5
 369              	.LVL40:
 370              		.loc 1 373 21 view .LVU95
 371 0012 0220     		moveq	r0, #2
 374:Drivers/lvgl/src/extra/widgets/imgbtn/lv_imgbtn.c ****     }
 375:Drivers/lvgl/src/extra/widgets/imgbtn/lv_imgbtn.c **** 
ARM GAS  /var/folders/0z/tsy30v1j4xl4_7kw94k978ww0000gn/T//cc6FZVn5.s 			page 15


 376:Drivers/lvgl/src/extra/widgets/imgbtn/lv_imgbtn.c ****     if(obj_state & LV_STATE_CHECKED) {
 377:Drivers/lvgl/src/extra/widgets/imgbtn/lv_imgbtn.c ****         if(obj_state & LV_STATE_PRESSED) return LV_IMGBTN_STATE_CHECKED_PRESSED;
 378:Drivers/lvgl/src/extra/widgets/imgbtn/lv_imgbtn.c ****         else return LV_IMGBTN_STATE_CHECKED_RELEASED;
 379:Drivers/lvgl/src/extra/widgets/imgbtn/lv_imgbtn.c ****     }
 380:Drivers/lvgl/src/extra/widgets/imgbtn/lv_imgbtn.c ****     else {
 381:Drivers/lvgl/src/extra/widgets/imgbtn/lv_imgbtn.c ****         if(obj_state & LV_STATE_PRESSED) return LV_IMGBTN_STATE_PRESSED;
 382:Drivers/lvgl/src/extra/widgets/imgbtn/lv_imgbtn.c ****         else return LV_IMGBTN_STATE_RELEASED;
 383:Drivers/lvgl/src/extra/widgets/imgbtn/lv_imgbtn.c ****     }
 384:Drivers/lvgl/src/extra/widgets/imgbtn/lv_imgbtn.c **** }
 372              		.loc 1 384 1 view .LVU96
 373 0014 08BD     		pop	{r3, pc}
 374              	.LVL41:
 375              	.L28:
 376:Drivers/lvgl/src/extra/widgets/imgbtn/lv_imgbtn.c ****         if(obj_state & LV_STATE_PRESSED) return LV_IMGBTN_STATE_CHECKED_PRESSED;
 376              		.loc 1 376 5 is_stmt 1 view .LVU97
 376:Drivers/lvgl/src/extra/widgets/imgbtn/lv_imgbtn.c ****         if(obj_state & LV_STATE_PRESSED) return LV_IMGBTN_STATE_CHECKED_PRESSED;
 377              		.loc 1 376 7 is_stmt 0 view .LVU98
 378 0016 C307     		lsls	r3, r0, #31
 379 0018 05D5     		bpl	.L30
 377:Drivers/lvgl/src/extra/widgets/imgbtn/lv_imgbtn.c ****         else return LV_IMGBTN_STATE_CHECKED_RELEASED;
 380              		.loc 1 377 9 is_stmt 1 view .LVU99
 378:Drivers/lvgl/src/extra/widgets/imgbtn/lv_imgbtn.c ****     }
 381              		.loc 1 378 21 is_stmt 0 view .LVU100
 382 001a 10F0200F 		tst	r0, #32
 383 001e 14BF     		ite	ne
 384 0020 0420     		movne	r0, #4
 385              	.LVL42:
 378:Drivers/lvgl/src/extra/widgets/imgbtn/lv_imgbtn.c ****     }
 386              		.loc 1 378 21 view .LVU101
 387 0022 0320     		moveq	r0, #3
 388              		.loc 1 384 1 view .LVU102
 389 0024 08BD     		pop	{r3, pc}
 390              	.LVL43:
 391              	.L30:
 381:Drivers/lvgl/src/extra/widgets/imgbtn/lv_imgbtn.c ****         else return LV_IMGBTN_STATE_RELEASED;
 392              		.loc 1 381 9 is_stmt 1 view .LVU103
 372:Drivers/lvgl/src/extra/widgets/imgbtn/lv_imgbtn.c ****         else return LV_IMGBTN_STATE_DISABLED;
 393              		.loc 1 372 49 is_stmt 0 view .LVU104
 394 0026 C0F34010 		ubfx	r0, r0, #5, #1
 395              	.LVL44:
 396              		.loc 1 384 1 view .LVU105
 397 002a 08BD     		pop	{r3, pc}
 398              		.cfi_endproc
 399              	.LFE215:
 401              		.section	.text.refr_img,"ax",%progbits
 402              		.align	1
 403              		.p2align 2,,3
 404              		.syntax unified
 405              		.thumb
 406              		.thumb_func
 408              	refr_img:
 409              	.LVL45:
 410              	.LFB213:
 304:Drivers/lvgl/src/extra/widgets/imgbtn/lv_imgbtn.c ****     lv_imgbtn_t * imgbtn = (lv_imgbtn_t *)obj;
 411              		.loc 1 304 1 is_stmt 1 view -0
 412              		.cfi_startproc
 413              		@ args = 0, pretend = 0, frame = 8
ARM GAS  /var/folders/0z/tsy30v1j4xl4_7kw94k978ww0000gn/T//cc6FZVn5.s 			page 16


 414              		@ frame_needed = 0, uses_anonymous_args = 0
 305:Drivers/lvgl/src/extra/widgets/imgbtn/lv_imgbtn.c ****     lv_imgbtn_state_t state  = suggest_state(obj, get_state(obj));
 415              		.loc 1 305 5 view .LVU107
 304:Drivers/lvgl/src/extra/widgets/imgbtn/lv_imgbtn.c ****     lv_imgbtn_t * imgbtn = (lv_imgbtn_t *)obj;
 416              		.loc 1 304 1 is_stmt 0 view .LVU108
 417 0000 10B5     		push	{r4, lr}
 418              		.cfi_def_cfa_offset 8
 419              		.cfi_offset 4, -8
 420              		.cfi_offset 14, -4
 421 0002 82B0     		sub	sp, sp, #8
 422              		.cfi_def_cfa_offset 16
 304:Drivers/lvgl/src/extra/widgets/imgbtn/lv_imgbtn.c ****     lv_imgbtn_t * imgbtn = (lv_imgbtn_t *)obj;
 423              		.loc 1 304 1 view .LVU109
 424 0004 0446     		mov	r4, r0
 425              	.LVL46:
 306:Drivers/lvgl/src/extra/widgets/imgbtn/lv_imgbtn.c ****     lv_img_header_t header;
 426              		.loc 1 306 5 is_stmt 1 view .LVU110
 306:Drivers/lvgl/src/extra/widgets/imgbtn/lv_imgbtn.c ****     lv_img_header_t header;
 427              		.loc 1 306 32 is_stmt 0 view .LVU111
 428 0006 FFF7FEFF 		bl	get_state
 429              	.LVL47:
 430              	.LBB15:
 431              	.LBB16:
 337:Drivers/lvgl/src/extra/widgets/imgbtn/lv_imgbtn.c ****         switch(state) {
 432              		.loc 1 337 27 view .LVU112
 433 000a 04EB8003 		add	r3, r4, r0, lsl #2
 434              	.LBE16:
 435              	.LBE15:
 306:Drivers/lvgl/src/extra/widgets/imgbtn/lv_imgbtn.c ****     lv_img_header_t header;
 436              		.loc 1 306 32 view .LVU113
 437 000e 0146     		mov	r1, r0
 438              	.LVL48:
 439              	.LBB19:
 440              	.LBI15:
 334:Drivers/lvgl/src/extra/widgets/imgbtn/lv_imgbtn.c **** {
 441              		.loc 1 334 26 is_stmt 1 view .LVU114
 442              	.LBB17:
 336:Drivers/lvgl/src/extra/widgets/imgbtn/lv_imgbtn.c ****     if(imgbtn->img_src_mid[state] == NULL) {
 443              		.loc 1 336 5 view .LVU115
 337:Drivers/lvgl/src/extra/widgets/imgbtn/lv_imgbtn.c ****         switch(state) {
 444              		.loc 1 337 5 view .LVU116
 337:Drivers/lvgl/src/extra/widgets/imgbtn/lv_imgbtn.c ****         switch(state) {
 445              		.loc 1 337 27 is_stmt 0 view .LVU117
 446 0010 586A     		ldr	r0, [r3, #36]
 447              	.LVL49:
 337:Drivers/lvgl/src/extra/widgets/imgbtn/lv_imgbtn.c ****         switch(state) {
 448              		.loc 1 337 7 view .LVU118
 449 0012 60B1     		cbz	r0, .L44
 450              	.LVL50:
 451              	.L35:
 337:Drivers/lvgl/src/extra/widgets/imgbtn/lv_imgbtn.c ****         switch(state) {
 452              		.loc 1 337 7 view .LVU119
 453              	.LBE17:
 454              	.LBE19:
 312:Drivers/lvgl/src/extra/widgets/imgbtn/lv_imgbtn.c ****     info_res = lv_img_decoder_get_info(src, &header);
 455              		.loc 1 312 5 is_stmt 1 view .LVU120
 313:Drivers/lvgl/src/extra/widgets/imgbtn/lv_imgbtn.c **** 
ARM GAS  /var/folders/0z/tsy30v1j4xl4_7kw94k978ww0000gn/T//cc6FZVn5.s 			page 17


 456              		.loc 1 313 5 view .LVU121
 313:Drivers/lvgl/src/extra/widgets/imgbtn/lv_imgbtn.c **** 
 457              		.loc 1 313 16 is_stmt 0 view .LVU122
 458 0014 01A9     		add	r1, sp, #4
 459 0016 FFF7FEFF 		bl	lv_img_decoder_get_info
 460              	.LVL51:
 315:Drivers/lvgl/src/extra/widgets/imgbtn/lv_imgbtn.c ****         imgbtn->act_cf = header.cf;
 461              		.loc 1 315 5 is_stmt 1 view .LVU123
 315:Drivers/lvgl/src/extra/widgets/imgbtn/lv_imgbtn.c ****         imgbtn->act_cf = header.cf;
 462              		.loc 1 315 7 is_stmt 0 view .LVU124
 463 001a 0128     		cmp	r0, #1
 464 001c 11D0     		beq	.L45
 321:Drivers/lvgl/src/extra/widgets/imgbtn/lv_imgbtn.c ****     }
 465              		.loc 1 321 9 is_stmt 1 view .LVU125
 321:Drivers/lvgl/src/extra/widgets/imgbtn/lv_imgbtn.c ****     }
 466              		.loc 1 321 24 is_stmt 0 view .LVU126
 467 001e 0023     		movs	r3, #0
 468 0020 84F86C30 		strb	r3, [r4, #108]
 469              	.LVL52:
 470              	.L38:
 324:Drivers/lvgl/src/extra/widgets/imgbtn/lv_imgbtn.c **** }
 471              		.loc 1 324 5 is_stmt 1 view .LVU127
 472 0024 2046     		mov	r0, r4
 473 0026 FFF7FEFF 		bl	lv_obj_invalidate
 474              	.LVL53:
 325:Drivers/lvgl/src/extra/widgets/imgbtn/lv_imgbtn.c **** 
 475              		.loc 1 325 1 is_stmt 0 view .LVU128
 476 002a 02B0     		add	sp, sp, #8
 477              		.cfi_remember_state
 478              		.cfi_def_cfa_offset 8
 479              		@ sp needed
 480 002c 10BD     		pop	{r4, pc}
 481              	.LVL54:
 482              	.L44:
 483              		.cfi_restore_state
 484              	.LBB20:
 485              	.LBB18:
 325:Drivers/lvgl/src/extra/widgets/imgbtn/lv_imgbtn.c **** 
 486              		.loc 1 325 1 view .LVU129
 487 002e 2046     		mov	r0, r4
 488 0030 FFF7FEFF 		bl	suggest_state.part.0
 489              	.LVL55:
 325:Drivers/lvgl/src/extra/widgets/imgbtn/lv_imgbtn.c **** 
 490              		.loc 1 325 1 view .LVU130
 491              	.LBE18:
 492              	.LBE20:
 307:Drivers/lvgl/src/extra/widgets/imgbtn/lv_imgbtn.c **** 
 493              		.loc 1 307 5 is_stmt 1 view .LVU131
 309:Drivers/lvgl/src/extra/widgets/imgbtn/lv_imgbtn.c ****     if(src == NULL) return;
 494              		.loc 1 309 5 view .LVU132
 309:Drivers/lvgl/src/extra/widgets/imgbtn/lv_imgbtn.c ****     if(src == NULL) return;
 495              		.loc 1 309 18 is_stmt 0 view .LVU133
 496 0034 04EB8000 		add	r0, r4, r0, lsl #2
 497              	.LVL56:
 309:Drivers/lvgl/src/extra/widgets/imgbtn/lv_imgbtn.c ****     if(src == NULL) return;
 498              		.loc 1 309 18 view .LVU134
 499 0038 406A     		ldr	r0, [r0, #36]
ARM GAS  /var/folders/0z/tsy30v1j4xl4_7kw94k978ww0000gn/T//cc6FZVn5.s 			page 18


 500              	.LVL57:
 310:Drivers/lvgl/src/extra/widgets/imgbtn/lv_imgbtn.c **** 
 501              		.loc 1 310 5 is_stmt 1 view .LVU135
 310:Drivers/lvgl/src/extra/widgets/imgbtn/lv_imgbtn.c **** 
 502              		.loc 1 310 7 is_stmt 0 view .LVU136
 503 003a 0028     		cmp	r0, #0
 504 003c EAD1     		bne	.L35
 325:Drivers/lvgl/src/extra/widgets/imgbtn/lv_imgbtn.c **** 
 505              		.loc 1 325 1 view .LVU137
 506 003e 02B0     		add	sp, sp, #8
 507              		.cfi_remember_state
 508              		.cfi_def_cfa_offset 8
 509              		@ sp needed
 510 0040 10BD     		pop	{r4, pc}
 511              	.LVL58:
 512              	.L45:
 513              		.cfi_restore_state
 316:Drivers/lvgl/src/extra/widgets/imgbtn/lv_imgbtn.c ****         lv_obj_refresh_self_size(obj);
 514              		.loc 1 316 9 is_stmt 1 view .LVU138
 316:Drivers/lvgl/src/extra/widgets/imgbtn/lv_imgbtn.c ****         lv_obj_refresh_self_size(obj);
 515              		.loc 1 316 32 is_stmt 0 view .LVU139
 516 0042 9DF80430 		ldrb	r3, [sp, #4]	@ zero_extendqisi2
 517 0046 C3F30403 		ubfx	r3, r3, #0, #5
 317:Drivers/lvgl/src/extra/widgets/imgbtn/lv_imgbtn.c ****         lv_obj_set_height(obj, header.h); /*Keep the user defined width*/
 518              		.loc 1 317 9 view .LVU140
 519 004a 2046     		mov	r0, r4
 520              	.LVL59:
 316:Drivers/lvgl/src/extra/widgets/imgbtn/lv_imgbtn.c ****         lv_obj_refresh_self_size(obj);
 521              		.loc 1 316 24 view .LVU141
 522 004c 84F86C30 		strb	r3, [r4, #108]
 317:Drivers/lvgl/src/extra/widgets/imgbtn/lv_imgbtn.c ****         lv_obj_set_height(obj, header.h); /*Keep the user defined width*/
 523              		.loc 1 317 9 is_stmt 1 view .LVU142
 524 0050 FFF7FEFF 		bl	lv_obj_refresh_self_size
 525              	.LVL60:
 318:Drivers/lvgl/src/extra/widgets/imgbtn/lv_imgbtn.c ****     }
 526              		.loc 1 318 9 view .LVU143
 318:Drivers/lvgl/src/extra/widgets/imgbtn/lv_imgbtn.c ****     }
 527              		.loc 1 318 38 is_stmt 0 view .LVU144
 528 0054 BDF80610 		ldrh	r1, [sp, #6]
 318:Drivers/lvgl/src/extra/widgets/imgbtn/lv_imgbtn.c ****     }
 529              		.loc 1 318 9 view .LVU145
 530 0058 2046     		mov	r0, r4
 531 005a C1F34A11 		ubfx	r1, r1, #5, #11
 532 005e FFF7FEFF 		bl	lv_obj_set_height
 533              	.LVL61:
 534 0062 DFE7     		b	.L38
 535              		.cfi_endproc
 536              	.LFE213:
 538              		.section	.text.lv_imgbtn_set_src,"ax",%progbits
 539              		.align	1
 540              		.p2align 2,,3
 541              		.global	lv_imgbtn_set_src
 542              		.syntax unified
 543              		.thumb
 544              		.thumb_func
 546              	lv_imgbtn_set_src:
 547              	.LVL62:
ARM GAS  /var/folders/0z/tsy30v1j4xl4_7kw94k978ww0000gn/T//cc6FZVn5.s 			page 19


 548              	.LFB205:
  81:Drivers/lvgl/src/extra/widgets/imgbtn/lv_imgbtn.c ****     LV_ASSERT_OBJ(obj, MY_CLASS);
 549              		.loc 1 81 1 is_stmt 1 view -0
 550              		.cfi_startproc
 551              		@ args = 4, pretend = 0, frame = 0
 552              		@ frame_needed = 0, uses_anonymous_args = 0
 553              		@ link register save eliminated.
  82:Drivers/lvgl/src/extra/widgets/imgbtn/lv_imgbtn.c **** 
 554              		.loc 1 82 5 view .LVU147
  82:Drivers/lvgl/src/extra/widgets/imgbtn/lv_imgbtn.c **** 
 555              		.loc 1 82 5 view .LVU148
  82:Drivers/lvgl/src/extra/widgets/imgbtn/lv_imgbtn.c **** 
 556              		.loc 1 82 5 view .LVU149
  84:Drivers/lvgl/src/extra/widgets/imgbtn/lv_imgbtn.c **** 
 557              		.loc 1 84 5 view .LVU150
  86:Drivers/lvgl/src/extra/widgets/imgbtn/lv_imgbtn.c ****     imgbtn->img_src_mid[state] = src_mid;
 558              		.loc 1 86 5 view .LVU151
 559 0000 00EB8101 		add	r1, r0, r1, lsl #2
 560              	.LVL63:
  87:Drivers/lvgl/src/extra/widgets/imgbtn/lv_imgbtn.c ****     imgbtn->img_src_right[state] = src_right;
 561              		.loc 1 87 32 is_stmt 0 view .LVU152
 562 0004 4B62     		str	r3, [r1, #36]
  81:Drivers/lvgl/src/extra/widgets/imgbtn/lv_imgbtn.c ****     LV_ASSERT_OBJ(obj, MY_CLASS);
 563              		.loc 1 81 1 view .LVU153
 564 0006 009B     		ldr	r3, [sp]
 565              	.LVL64:
  86:Drivers/lvgl/src/extra/widgets/imgbtn/lv_imgbtn.c ****     imgbtn->img_src_mid[state] = src_mid;
 566              		.loc 1 86 33 view .LVU154
 567 0008 CA63     		str	r2, [r1, #60]
  87:Drivers/lvgl/src/extra/widgets/imgbtn/lv_imgbtn.c ****     imgbtn->img_src_right[state] = src_right;
 568              		.loc 1 87 5 is_stmt 1 view .LVU155
  88:Drivers/lvgl/src/extra/widgets/imgbtn/lv_imgbtn.c **** 
 569              		.loc 1 88 5 view .LVU156
  88:Drivers/lvgl/src/extra/widgets/imgbtn/lv_imgbtn.c **** 
 570              		.loc 1 88 34 is_stmt 0 view .LVU157
 571 000a 4B65     		str	r3, [r1, #84]
  90:Drivers/lvgl/src/extra/widgets/imgbtn/lv_imgbtn.c **** }
 572              		.loc 1 90 5 is_stmt 1 view .LVU158
 573 000c FFF7FEBF 		b	refr_img
 574              	.LVL65:
  90:Drivers/lvgl/src/extra/widgets/imgbtn/lv_imgbtn.c **** }
 575              		.loc 1 90 5 is_stmt 0 view .LVU159
 576              		.cfi_endproc
 577              	.LFE205:
 579              		.section	.text.lv_imgbtn_set_state,"ax",%progbits
 580              		.align	1
 581              		.p2align 2,,3
 582              		.global	lv_imgbtn_set_state
 583              		.syntax unified
 584              		.thumb
 585              		.thumb_func
 587              	lv_imgbtn_set_state:
 588              	.LVL66:
 589              	.LFB206:
  94:Drivers/lvgl/src/extra/widgets/imgbtn/lv_imgbtn.c ****     LV_ASSERT_OBJ(obj, MY_CLASS);
 590              		.loc 1 94 1 is_stmt 1 view -0
 591              		.cfi_startproc
ARM GAS  /var/folders/0z/tsy30v1j4xl4_7kw94k978ww0000gn/T//cc6FZVn5.s 			page 20


 592              		@ args = 0, pretend = 0, frame = 8
 593              		@ frame_needed = 0, uses_anonymous_args = 0
  95:Drivers/lvgl/src/extra/widgets/imgbtn/lv_imgbtn.c **** 
 594              		.loc 1 95 5 view .LVU161
  95:Drivers/lvgl/src/extra/widgets/imgbtn/lv_imgbtn.c **** 
 595              		.loc 1 95 5 view .LVU162
  95:Drivers/lvgl/src/extra/widgets/imgbtn/lv_imgbtn.c **** 
 596              		.loc 1 95 5 view .LVU163
  97:Drivers/lvgl/src/extra/widgets/imgbtn/lv_imgbtn.c ****     if(state == LV_IMGBTN_STATE_PRESSED || state == LV_IMGBTN_STATE_CHECKED_PRESSED) obj_state |= L
 597              		.loc 1 97 5 view .LVU164
  98:Drivers/lvgl/src/extra/widgets/imgbtn/lv_imgbtn.c ****     if(state == LV_IMGBTN_STATE_DISABLED || state == LV_IMGBTN_STATE_CHECKED_DISABLED) obj_state |=
 598              		.loc 1 98 5 view .LVU165
  94:Drivers/lvgl/src/extra/widgets/imgbtn/lv_imgbtn.c ****     LV_ASSERT_OBJ(obj, MY_CLASS);
 599              		.loc 1 94 1 is_stmt 0 view .LVU166
 600 0000 10B5     		push	{r4, lr}
 601              		.cfi_def_cfa_offset 8
 602              		.cfi_offset 4, -8
 603              		.cfi_offset 14, -4
  98:Drivers/lvgl/src/extra/widgets/imgbtn/lv_imgbtn.c ****     if(state == LV_IMGBTN_STATE_DISABLED || state == LV_IMGBTN_STATE_CHECKED_DISABLED) obj_state |=
 604              		.loc 1 98 7 view .LVU167
 605 0002 0129     		cmp	r1, #1
  94:Drivers/lvgl/src/extra/widgets/imgbtn/lv_imgbtn.c ****     LV_ASSERT_OBJ(obj, MY_CLASS);
 606              		.loc 1 94 1 view .LVU168
 607 0004 82B0     		sub	sp, sp, #8
 608              		.cfi_def_cfa_offset 16
  98:Drivers/lvgl/src/extra/widgets/imgbtn/lv_imgbtn.c ****     if(state == LV_IMGBTN_STATE_DISABLED || state == LV_IMGBTN_STATE_CHECKED_DISABLED) obj_state |=
 609              		.loc 1 98 7 view .LVU169
 610 0006 20D0     		beq	.L51
  98:Drivers/lvgl/src/extra/widgets/imgbtn/lv_imgbtn.c ****     if(state == LV_IMGBTN_STATE_DISABLED || state == LV_IMGBTN_STATE_CHECKED_DISABLED) obj_state |=
 611              		.loc 1 98 41 discriminator 2 view .LVU170
 612 0008 A1F10404 		sub	r4, r1, #4
 613 000c B4FA84F4 		clz	r4, r4
 614 0010 6409     		lsrs	r4, r4, #5
  99:Drivers/lvgl/src/extra/widgets/imgbtn/lv_imgbtn.c ****     if(state == LV_IMGBTN_STATE_CHECKED_DISABLED || state == LV_IMGBTN_STATE_CHECKED_PRESSED ||
 615              		.loc 1 99 7 discriminator 2 view .LVU171
 616 0012 0229     		cmp	r1, #2
  98:Drivers/lvgl/src/extra/widgets/imgbtn/lv_imgbtn.c ****     if(state == LV_IMGBTN_STATE_DISABLED || state == LV_IMGBTN_STATE_CHECKED_DISABLED) obj_state |=
 617              		.loc 1 98 41 discriminator 2 view .LVU172
 618 0014 4FEA4414 		lsl	r4, r4, #5
 619              	.LVL67:
  99:Drivers/lvgl/src/extra/widgets/imgbtn/lv_imgbtn.c ****     if(state == LV_IMGBTN_STATE_CHECKED_DISABLED || state == LV_IMGBTN_STATE_CHECKED_PRESSED ||
 620              		.loc 1 99 5 is_stmt 1 discriminator 2 view .LVU173
  99:Drivers/lvgl/src/extra/widgets/imgbtn/lv_imgbtn.c ****     if(state == LV_IMGBTN_STATE_CHECKED_DISABLED || state == LV_IMGBTN_STATE_CHECKED_PRESSED ||
 621              		.loc 1 99 7 is_stmt 0 discriminator 2 view .LVU174
 622 0018 14D1     		bne	.L56
 623              	.L49:
  99:Drivers/lvgl/src/extra/widgets/imgbtn/lv_imgbtn.c ****     if(state == LV_IMGBTN_STATE_CHECKED_DISABLED || state == LV_IMGBTN_STATE_CHECKED_PRESSED ||
 624              		.loc 1 99 88 is_stmt 1 discriminator 3 view .LVU175
  99:Drivers/lvgl/src/extra/widgets/imgbtn/lv_imgbtn.c ****     if(state == LV_IMGBTN_STATE_CHECKED_DISABLED || state == LV_IMGBTN_STATE_CHECKED_PRESSED ||
 625              		.loc 1 99 98 is_stmt 0 discriminator 3 view .LVU176
 626 001a 44F08004 		orr	r4, r4, #128
 627              	.LVL68:
 628              	.L50:
 100:Drivers/lvgl/src/extra/widgets/imgbtn/lv_imgbtn.c ****        state == LV_IMGBTN_STATE_CHECKED_RELEASED) {
 629              		.loc 1 100 5 is_stmt 1 view .LVU177
 100:Drivers/lvgl/src/extra/widgets/imgbtn/lv_imgbtn.c ****        state == LV_IMGBTN_STATE_CHECKED_RELEASED) {
 630              		.loc 1 100 7 is_stmt 0 view .LVU178
ARM GAS  /var/folders/0z/tsy30v1j4xl4_7kw94k978ww0000gn/T//cc6FZVn5.s 			page 21


 631 001e 0339     		subs	r1, r1, #3
 632              	.LVL69:
 100:Drivers/lvgl/src/extra/widgets/imgbtn/lv_imgbtn.c ****        state == LV_IMGBTN_STATE_CHECKED_RELEASED) {
 633              		.loc 1 100 7 view .LVU179
 634 0020 0229     		cmp	r1, #2
 635 0022 01D8     		bhi	.L48
 102:Drivers/lvgl/src/extra/widgets/imgbtn/lv_imgbtn.c ****     }
 636              		.loc 1 102 9 is_stmt 1 view .LVU180
 102:Drivers/lvgl/src/extra/widgets/imgbtn/lv_imgbtn.c ****     }
 637              		.loc 1 102 19 is_stmt 0 view .LVU181
 638 0024 44F00104 		orr	r4, r4, #1
 639              	.LVL70:
 640              	.L48:
 105:Drivers/lvgl/src/extra/widgets/imgbtn/lv_imgbtn.c ****     lv_obj_add_state(obj, obj_state);
 641              		.loc 1 105 5 is_stmt 1 view .LVU182
 642 0028 A121     		movs	r1, #161
 643 002a 0190     		str	r0, [sp, #4]
 644 002c FFF7FEFF 		bl	lv_obj_clear_state
 645              	.LVL71:
 106:Drivers/lvgl/src/extra/widgets/imgbtn/lv_imgbtn.c **** 
 646              		.loc 1 106 5 view .LVU183
 647 0030 0198     		ldr	r0, [sp, #4]
 648 0032 2146     		mov	r1, r4
 649 0034 FFF7FEFF 		bl	lv_obj_add_state
 650              	.LVL72:
 108:Drivers/lvgl/src/extra/widgets/imgbtn/lv_imgbtn.c **** }
 651              		.loc 1 108 5 view .LVU184
 652 0038 0198     		ldr	r0, [sp, #4]
 109:Drivers/lvgl/src/extra/widgets/imgbtn/lv_imgbtn.c **** 
 653              		.loc 1 109 1 is_stmt 0 view .LVU185
 654 003a 02B0     		add	sp, sp, #8
 655              		.cfi_remember_state
 656              		.cfi_def_cfa_offset 8
 657              		@ sp needed
 658 003c BDE81040 		pop	{r4, lr}
 659              		.cfi_restore 14
 660              		.cfi_restore 4
 661              		.cfi_def_cfa_offset 0
 662              	.LVL73:
 108:Drivers/lvgl/src/extra/widgets/imgbtn/lv_imgbtn.c **** }
 663              		.loc 1 108 5 view .LVU186
 664 0040 FFF7FEBF 		b	refr_img
 665              	.LVL74:
 666              	.L56:
 667              		.cfi_restore_state
  99:Drivers/lvgl/src/extra/widgets/imgbtn/lv_imgbtn.c ****     if(state == LV_IMGBTN_STATE_CHECKED_DISABLED || state == LV_IMGBTN_STATE_CHECKED_PRESSED ||
 668              		.loc 1 99 42 discriminator 2 view .LVU187
 669 0044 0529     		cmp	r1, #5
 670 0046 E8D0     		beq	.L49
 671 0048 E9E7     		b	.L50
 672              	.LVL75:
 673              	.L51:
  98:Drivers/lvgl/src/extra/widgets/imgbtn/lv_imgbtn.c ****     if(state == LV_IMGBTN_STATE_DISABLED || state == LV_IMGBTN_STATE_CHECKED_DISABLED) obj_state |=
 674              		.loc 1 98 96 view .LVU188
 675 004a 2024     		movs	r4, #32
 676 004c ECE7     		b	.L48
 677              		.cfi_endproc
ARM GAS  /var/folders/0z/tsy30v1j4xl4_7kw94k978ww0000gn/T//cc6FZVn5.s 			page 22


 678              	.LFE206:
 680 004e 00BF     		.section	.text.lv_imgbtn_event,"ax",%progbits
 681              		.align	1
 682              		.p2align 2,,3
 683              		.syntax unified
 684              		.thumb
 685              		.thumb_func
 687              	lv_imgbtn_event:
 688              	.LVL76:
 689              	.LFB211:
 178:Drivers/lvgl/src/extra/widgets/imgbtn/lv_imgbtn.c ****     LV_UNUSED(class_p);
 690              		.loc 1 178 1 is_stmt 1 view -0
 691              		.cfi_startproc
 692              		@ args = 0, pretend = 0, frame = 56
 693              		@ frame_needed = 0, uses_anonymous_args = 0
 179:Drivers/lvgl/src/extra/widgets/imgbtn/lv_imgbtn.c **** 
 694              		.loc 1 179 5 view .LVU190
 181:Drivers/lvgl/src/extra/widgets/imgbtn/lv_imgbtn.c ****     if(res != LV_RES_OK) return;
 695              		.loc 1 181 5 view .LVU191
 178:Drivers/lvgl/src/extra/widgets/imgbtn/lv_imgbtn.c ****     LV_UNUSED(class_p);
 696              		.loc 1 178 1 is_stmt 0 view .LVU192
 697 0000 2DE9F04F 		push	{r4, r5, r6, r7, r8, r9, r10, fp, lr}
 698              		.cfi_def_cfa_offset 36
 699              		.cfi_offset 4, -36
 700              		.cfi_offset 5, -32
 701              		.cfi_offset 6, -28
 702              		.cfi_offset 7, -24
 703              		.cfi_offset 8, -20
 704              		.cfi_offset 9, -16
 705              		.cfi_offset 10, -12
 706              		.cfi_offset 11, -8
 707              		.cfi_offset 14, -4
 181:Drivers/lvgl/src/extra/widgets/imgbtn/lv_imgbtn.c ****     if(res != LV_RES_OK) return;
 708              		.loc 1 181 20 view .LVU193
 709 0004 D148     		ldr	r0, .L120
 710              	.LVL77:
 178:Drivers/lvgl/src/extra/widgets/imgbtn/lv_imgbtn.c ****     LV_UNUSED(class_p);
 711              		.loc 1 178 1 view .LVU194
 712 0006 8FB0     		sub	sp, sp, #60
 713              		.cfi_def_cfa_offset 96
 178:Drivers/lvgl/src/extra/widgets/imgbtn/lv_imgbtn.c ****     LV_UNUSED(class_p);
 714              		.loc 1 178 1 view .LVU195
 715 0008 0D46     		mov	r5, r1
 181:Drivers/lvgl/src/extra/widgets/imgbtn/lv_imgbtn.c ****     if(res != LV_RES_OK) return;
 716              		.loc 1 181 20 view .LVU196
 717 000a FFF7FEFF 		bl	lv_obj_event_base
 718              	.LVL78:
 182:Drivers/lvgl/src/extra/widgets/imgbtn/lv_imgbtn.c **** 
 719              		.loc 1 182 5 is_stmt 1 view .LVU197
 182:Drivers/lvgl/src/extra/widgets/imgbtn/lv_imgbtn.c **** 
 720              		.loc 1 182 7 is_stmt 0 view .LVU198
 721 000e 0128     		cmp	r0, #1
 722 0010 02D0     		beq	.L115
 723              	.LVL79:
 724              	.L57:
 217:Drivers/lvgl/src/extra/widgets/imgbtn/lv_imgbtn.c **** 
 725              		.loc 1 217 1 view .LVU199
ARM GAS  /var/folders/0z/tsy30v1j4xl4_7kw94k978ww0000gn/T//cc6FZVn5.s 			page 23


 726 0012 0FB0     		add	sp, sp, #60
 727              		.cfi_remember_state
 728              		.cfi_def_cfa_offset 36
 729              		@ sp needed
 730 0014 BDE8F08F 		pop	{r4, r5, r6, r7, r8, r9, r10, fp, pc}
 731              	.LVL80:
 732              	.L115:
 733              		.cfi_restore_state
 734              	.LBB46:
 735              	.LBI46:
 177:Drivers/lvgl/src/extra/widgets/imgbtn/lv_imgbtn.c **** {
 736              		.loc 1 177 13 is_stmt 1 view .LVU200
 737              	.LBB47:
 184:Drivers/lvgl/src/extra/widgets/imgbtn/lv_imgbtn.c ****     lv_obj_t * obj = lv_event_get_target(e);
 738              		.loc 1 184 5 view .LVU201
 184:Drivers/lvgl/src/extra/widgets/imgbtn/lv_imgbtn.c ****     lv_obj_t * obj = lv_event_get_target(e);
 739              		.loc 1 184 28 is_stmt 0 view .LVU202
 740 0018 2846     		mov	r0, r5
 741              	.LVL81:
 184:Drivers/lvgl/src/extra/widgets/imgbtn/lv_imgbtn.c ****     lv_obj_t * obj = lv_event_get_target(e);
 742              		.loc 1 184 28 view .LVU203
 743 001a FFF7FEFF 		bl	lv_event_get_code
 744              	.LVL82:
 745 001e 0446     		mov	r4, r0
 185:Drivers/lvgl/src/extra/widgets/imgbtn/lv_imgbtn.c ****     if(code == LV_EVENT_PRESSED || code == LV_EVENT_RELEASED || code == LV_EVENT_PRESS_LOST) {
 746              		.loc 1 185 22 view .LVU204
 747 0020 2846     		mov	r0, r5
 748              	.LVL83:
 185:Drivers/lvgl/src/extra/widgets/imgbtn/lv_imgbtn.c ****     if(code == LV_EVENT_PRESSED || code == LV_EVENT_RELEASED || code == LV_EVENT_PRESS_LOST) {
 749              		.loc 1 185 5 is_stmt 1 view .LVU205
 185:Drivers/lvgl/src/extra/widgets/imgbtn/lv_imgbtn.c ****     if(code == LV_EVENT_PRESSED || code == LV_EVENT_RELEASED || code == LV_EVENT_PRESS_LOST) {
 750              		.loc 1 185 22 is_stmt 0 view .LVU206
 751 0022 FFF7FEFF 		bl	lv_event_get_target
 752              	.LVL84:
 186:Drivers/lvgl/src/extra/widgets/imgbtn/lv_imgbtn.c ****         refr_img(obj);
 753              		.loc 1 186 7 view .LVU207
 754 0026 012C     		cmp	r4, #1
 185:Drivers/lvgl/src/extra/widgets/imgbtn/lv_imgbtn.c ****     if(code == LV_EVENT_PRESSED || code == LV_EVENT_RELEASED || code == LV_EVENT_PRESS_LOST) {
 755              		.loc 1 185 22 view .LVU208
 756 0028 0646     		mov	r6, r0
 757              	.LVL85:
 186:Drivers/lvgl/src/extra/widgets/imgbtn/lv_imgbtn.c ****         refr_img(obj);
 758              		.loc 1 186 5 is_stmt 1 view .LVU209
 186:Drivers/lvgl/src/extra/widgets/imgbtn/lv_imgbtn.c ****         refr_img(obj);
 759              		.loc 1 186 7 is_stmt 0 view .LVU210
 760 002a 68D0     		beq	.L113
 761 002c 033C     		subs	r4, r4, #3
 762              	.LVL86:
 186:Drivers/lvgl/src/extra/widgets/imgbtn/lv_imgbtn.c ****         refr_img(obj);
 763              		.loc 1 186 7 view .LVU211
 764 002e 292C     		cmp	r4, #41
 765 0030 EFD8     		bhi	.L57
 766 0032 01A3     		adr	r3, .L62
 767 0034 53F824F0 		ldr	pc, [r3, r4, lsl #2]
 768              		.p2align 2
 769              	.L62:
 770 0038 FF000000 		.word	.L113+1
ARM GAS  /var/folders/0z/tsy30v1j4xl4_7kw94k978ww0000gn/T//cc6FZVn5.s 			page 24


 771 003c 13000000 		.word	.L57+1
 772 0040 13000000 		.word	.L57+1
 773 0044 13000000 		.word	.L57+1
 774 0048 13000000 		.word	.L57+1
 775 004c FF000000 		.word	.L113+1
 776 0050 13000000 		.word	.L57+1
 777 0054 13000000 		.word	.L57+1
 778 0058 13000000 		.word	.L57+1
 779 005c 13000000 		.word	.L57+1
 780 0060 13000000 		.word	.L57+1
 781 0064 13000000 		.word	.L57+1
 782 0068 13000000 		.word	.L57+1
 783 006c 13000000 		.word	.L57+1
 784 0070 13000000 		.word	.L57+1
 785 0074 5B010000 		.word	.L65+1
 786 0078 13000000 		.word	.L57+1
 787 007c 13000000 		.word	.L57+1
 788 0080 6F010000 		.word	.L64+1
 789 0084 13000000 		.word	.L57+1
 790 0088 13000000 		.word	.L57+1
 791 008c 13000000 		.word	.L57+1
 792 0090 13000000 		.word	.L57+1
 793 0094 13000000 		.word	.L57+1
 794 0098 13000000 		.word	.L57+1
 795 009c E1000000 		.word	.L63+1
 796 00a0 13000000 		.word	.L57+1
 797 00a4 13000000 		.word	.L57+1
 798 00a8 13000000 		.word	.L57+1
 799 00ac 13000000 		.word	.L57+1
 800 00b0 13000000 		.word	.L57+1
 801 00b4 13000000 		.word	.L57+1
 802 00b8 13000000 		.word	.L57+1
 803 00bc 13000000 		.word	.L57+1
 804 00c0 13000000 		.word	.L57+1
 805 00c4 13000000 		.word	.L57+1
 806 00c8 13000000 		.word	.L57+1
 807 00cc 13000000 		.word	.L57+1
 808 00d0 13000000 		.word	.L57+1
 809 00d4 13000000 		.word	.L57+1
 810 00d8 13000000 		.word	.L57+1
 811 00dc 0B010000 		.word	.L61+1
 812              		.p2align 1
 813              	.L63:
 210:Drivers/lvgl/src/extra/widgets/imgbtn/lv_imgbtn.c ****             lv_imgbtn_set_state(obj, LV_IMGBTN_STATE_CHECKED_RELEASED);
 814              		.loc 1 210 9 is_stmt 1 view .LVU212
 210:Drivers/lvgl/src/extra/widgets/imgbtn/lv_imgbtn.c ****             lv_imgbtn_set_state(obj, LV_IMGBTN_STATE_CHECKED_RELEASED);
 815              		.loc 1 210 12 is_stmt 0 view .LVU213
 816 00e0 0121     		movs	r1, #1
 817 00e2 FFF7FEFF 		bl	lv_obj_has_state
 818              	.LVL87:
 210:Drivers/lvgl/src/extra/widgets/imgbtn/lv_imgbtn.c ****             lv_imgbtn_set_state(obj, LV_IMGBTN_STATE_CHECKED_RELEASED);
 819              		.loc 1 210 11 view .LVU214
 820 00e6 0446     		mov	r4, r0
 821              	.LBB48:
 822              	.LBB49:
 105:Drivers/lvgl/src/extra/widgets/imgbtn/lv_imgbtn.c ****     lv_obj_add_state(obj, obj_state);
 823              		.loc 1 105 5 view .LVU215
ARM GAS  /var/folders/0z/tsy30v1j4xl4_7kw94k978ww0000gn/T//cc6FZVn5.s 			page 25


 824 00e8 A121     		movs	r1, #161
 825 00ea 3046     		mov	r0, r6
 826              	.LBE49:
 827              	.LBE48:
 210:Drivers/lvgl/src/extra/widgets/imgbtn/lv_imgbtn.c ****             lv_imgbtn_set_state(obj, LV_IMGBTN_STATE_CHECKED_RELEASED);
 828              		.loc 1 210 11 view .LVU216
 829 00ec 002C     		cmp	r4, #0
 830 00ee 00F02381 		beq	.L82
 831              	.LVL88:
 211:Drivers/lvgl/src/extra/widgets/imgbtn/lv_imgbtn.c ****         }
 832              		.loc 1 211 13 is_stmt 1 view .LVU217
 833              	.LBB51:
 834              	.LBI48:
  93:Drivers/lvgl/src/extra/widgets/imgbtn/lv_imgbtn.c **** {
 835              		.loc 1 93 6 view .LVU218
 836              	.LBB50:
  95:Drivers/lvgl/src/extra/widgets/imgbtn/lv_imgbtn.c **** 
 837              		.loc 1 95 5 view .LVU219
  95:Drivers/lvgl/src/extra/widgets/imgbtn/lv_imgbtn.c **** 
 838              		.loc 1 95 5 view .LVU220
  95:Drivers/lvgl/src/extra/widgets/imgbtn/lv_imgbtn.c **** 
 839              		.loc 1 95 5 view .LVU221
  97:Drivers/lvgl/src/extra/widgets/imgbtn/lv_imgbtn.c ****     if(state == LV_IMGBTN_STATE_PRESSED || state == LV_IMGBTN_STATE_CHECKED_PRESSED) obj_state |= L
 840              		.loc 1 97 5 view .LVU222
  98:Drivers/lvgl/src/extra/widgets/imgbtn/lv_imgbtn.c ****     if(state == LV_IMGBTN_STATE_DISABLED || state == LV_IMGBTN_STATE_CHECKED_DISABLED) obj_state |=
 841              		.loc 1 98 5 view .LVU223
  99:Drivers/lvgl/src/extra/widgets/imgbtn/lv_imgbtn.c ****     if(state == LV_IMGBTN_STATE_CHECKED_DISABLED || state == LV_IMGBTN_STATE_CHECKED_PRESSED ||
 842              		.loc 1 99 5 view .LVU224
 100:Drivers/lvgl/src/extra/widgets/imgbtn/lv_imgbtn.c ****        state == LV_IMGBTN_STATE_CHECKED_RELEASED) {
 843              		.loc 1 100 5 view .LVU225
 102:Drivers/lvgl/src/extra/widgets/imgbtn/lv_imgbtn.c ****     }
 844              		.loc 1 102 9 view .LVU226
 105:Drivers/lvgl/src/extra/widgets/imgbtn/lv_imgbtn.c ****     lv_obj_add_state(obj, obj_state);
 845              		.loc 1 105 5 view .LVU227
 846 00f2 FFF7FEFF 		bl	lv_obj_clear_state
 847              	.LVL89:
 106:Drivers/lvgl/src/extra/widgets/imgbtn/lv_imgbtn.c **** 
 848              		.loc 1 106 5 view .LVU228
 849 00f6 0121     		movs	r1, #1
 850              	.LVL90:
 851              	.L114:
 106:Drivers/lvgl/src/extra/widgets/imgbtn/lv_imgbtn.c **** 
 852              		.loc 1 106 5 is_stmt 0 view .LVU229
 853              	.LBE50:
 854              	.LBE51:
 855              	.LBB52:
 856              	.LBB53:
 857 00f8 3046     		mov	r0, r6
 858 00fa FFF7FEFF 		bl	lv_obj_add_state
 859              	.LVL91:
 860              	.L113:
 108:Drivers/lvgl/src/extra/widgets/imgbtn/lv_imgbtn.c **** }
 861              		.loc 1 108 5 is_stmt 1 view .LVU230
 862 00fe 3046     		mov	r0, r6
 863              	.LBE53:
 864              	.LBE52:
 865              	.LBE47:
ARM GAS  /var/folders/0z/tsy30v1j4xl4_7kw94k978ww0000gn/T//cc6FZVn5.s 			page 26


 866              	.LBE46:
 217:Drivers/lvgl/src/extra/widgets/imgbtn/lv_imgbtn.c **** 
 867              		.loc 1 217 1 is_stmt 0 view .LVU231
 868 0100 0FB0     		add	sp, sp, #60
 869              		.cfi_remember_state
 870              		.cfi_def_cfa_offset 36
 871              		@ sp needed
 872 0102 BDE8F04F 		pop	{r4, r5, r6, r7, r8, r9, r10, fp, lr}
 873              		.cfi_restore 14
 874              		.cfi_restore 11
 875              		.cfi_restore 10
 876              		.cfi_restore 9
 877              		.cfi_restore 8
 878              		.cfi_restore 7
 879              		.cfi_restore 6
 880              		.cfi_restore 5
 881              		.cfi_restore 4
 882              		.cfi_def_cfa_offset 0
 883              	.LVL92:
 884              	.LBB109:
 885              	.LBB108:
 886              	.LBB56:
 887              	.LBB54:
 108:Drivers/lvgl/src/extra/widgets/imgbtn/lv_imgbtn.c **** }
 888              		.loc 1 108 5 view .LVU232
 889 0106 FFF7FEBF 		b	refr_img
 890              	.LVL93:
 891              	.L61:
 892              		.cfi_restore_state
 108:Drivers/lvgl/src/extra/widgets/imgbtn/lv_imgbtn.c **** }
 893              		.loc 1 108 5 view .LVU233
 894              	.LBE54:
 895              	.LBE56:
 896              	.LBB57:
 197:Drivers/lvgl/src/extra/widgets/imgbtn/lv_imgbtn.c ****         lv_imgbtn_t * imgbtn = (lv_imgbtn_t *)obj;
 897              		.loc 1 197 9 is_stmt 1 view .LVU234
 197:Drivers/lvgl/src/extra/widgets/imgbtn/lv_imgbtn.c ****         lv_imgbtn_t * imgbtn = (lv_imgbtn_t *)obj;
 898              		.loc 1 197 26 is_stmt 0 view .LVU235
 899 010a 2846     		mov	r0, r5
 900              	.LVL94:
 197:Drivers/lvgl/src/extra/widgets/imgbtn/lv_imgbtn.c ****         lv_imgbtn_t * imgbtn = (lv_imgbtn_t *)obj;
 901              		.loc 1 197 26 view .LVU236
 902 010c FFF7FEFF 		bl	lv_event_get_self_size_info
 903              	.LVL95:
 904 0110 0446     		mov	r4, r0
 199:Drivers/lvgl/src/extra/widgets/imgbtn/lv_imgbtn.c ****         if(imgbtn->img_src_left[state] == NULL &&
 905              		.loc 1 199 36 view .LVU237
 906 0112 3046     		mov	r0, r6
 907              	.LVL96:
 198:Drivers/lvgl/src/extra/widgets/imgbtn/lv_imgbtn.c ****         lv_imgbtn_state_t state  = suggest_state(obj, get_state(obj));
 908              		.loc 1 198 9 is_stmt 1 view .LVU238
 199:Drivers/lvgl/src/extra/widgets/imgbtn/lv_imgbtn.c ****         if(imgbtn->img_src_left[state] == NULL &&
 909              		.loc 1 199 9 view .LVU239
 199:Drivers/lvgl/src/extra/widgets/imgbtn/lv_imgbtn.c ****         if(imgbtn->img_src_left[state] == NULL &&
 910              		.loc 1 199 36 is_stmt 0 view .LVU240
 911 0114 FFF7FEFF 		bl	get_state
 912              	.LVL97:
ARM GAS  /var/folders/0z/tsy30v1j4xl4_7kw94k978ww0000gn/T//cc6FZVn5.s 			page 27


 913              	.LBB58:
 914              	.LBI58:
 334:Drivers/lvgl/src/extra/widgets/imgbtn/lv_imgbtn.c **** {
 915              		.loc 1 334 26 is_stmt 1 view .LVU241
 916              	.LBB59:
 336:Drivers/lvgl/src/extra/widgets/imgbtn/lv_imgbtn.c ****     if(imgbtn->img_src_mid[state] == NULL) {
 917              		.loc 1 336 5 view .LVU242
 337:Drivers/lvgl/src/extra/widgets/imgbtn/lv_imgbtn.c ****         switch(state) {
 918              		.loc 1 337 5 view .LVU243
 337:Drivers/lvgl/src/extra/widgets/imgbtn/lv_imgbtn.c ****         switch(state) {
 919              		.loc 1 337 27 is_stmt 0 view .LVU244
 920 0118 06EB8003 		add	r3, r6, r0, lsl #2
 337:Drivers/lvgl/src/extra/widgets/imgbtn/lv_imgbtn.c ****         switch(state) {
 921              		.loc 1 337 7 view .LVU245
 922 011c 5B6A     		ldr	r3, [r3, #36]
 923 011e 002B     		cmp	r3, #0
 924 0120 00F01681 		beq	.L116
 925              	.LVL98:
 926              	.L74:
 337:Drivers/lvgl/src/extra/widgets/imgbtn/lv_imgbtn.c ****         switch(state) {
 927              		.loc 1 337 7 view .LVU246
 928              	.LBE59:
 929              	.LBE58:
 200:Drivers/lvgl/src/extra/widgets/imgbtn/lv_imgbtn.c ****            imgbtn->img_src_mid[state] != NULL &&
 930              		.loc 1 200 9 is_stmt 1 view .LVU247
 931 0124 06EB8003 		add	r3, r6, r0, lsl #2
 200:Drivers/lvgl/src/extra/widgets/imgbtn/lv_imgbtn.c ****            imgbtn->img_src_mid[state] != NULL &&
 932              		.loc 1 200 11 is_stmt 0 view .LVU248
 933 0128 DA6B     		ldr	r2, [r3, #60]
 934 012a 002A     		cmp	r2, #0
 935 012c 7FF471AF 		bne	.L57
 201:Drivers/lvgl/src/extra/widgets/imgbtn/lv_imgbtn.c ****            imgbtn->img_src_right[state] == NULL) {
 936              		.loc 1 201 31 view .LVU249
 937 0130 5A6A     		ldr	r2, [r3, #36]
 938              	.L83:
 202:Drivers/lvgl/src/extra/widgets/imgbtn/lv_imgbtn.c ****             lv_img_header_t header;
 939              		.loc 1 202 33 view .LVU250
 940 0132 06EB8003 		add	r3, r6, r0, lsl #2
 201:Drivers/lvgl/src/extra/widgets/imgbtn/lv_imgbtn.c ****            imgbtn->img_src_right[state] == NULL) {
 941              		.loc 1 201 47 view .LVU251
 942 0136 5B6D     		ldr	r3, [r3, #84]
 943 0138 002B     		cmp	r3, #0
 944 013a 7FF46AAF 		bne	.L57
 945              	.LBB72:
 203:Drivers/lvgl/src/extra/widgets/imgbtn/lv_imgbtn.c ****             lv_img_decoder_get_info(imgbtn->img_src_mid[state], &header);
 946              		.loc 1 203 13 is_stmt 1 view .LVU252
 204:Drivers/lvgl/src/extra/widgets/imgbtn/lv_imgbtn.c ****             p->x = LV_MAX(p->x, header.w);
 947              		.loc 1 204 13 view .LVU253
 948 013e 1046     		mov	r0, r2
 949 0140 08A9     		add	r1, sp, #32
 950 0142 FFF7FEFF 		bl	lv_img_decoder_get_info
 951              	.LVL99:
 205:Drivers/lvgl/src/extra/widgets/imgbtn/lv_imgbtn.c ****         }
 952              		.loc 1 205 13 view .LVU254
 205:Drivers/lvgl/src/extra/widgets/imgbtn/lv_imgbtn.c ****         }
 953              		.loc 1 205 20 is_stmt 0 view .LVU255
 954 0146 089B     		ldr	r3, [sp, #32]
ARM GAS  /var/folders/0z/tsy30v1j4xl4_7kw94k978ww0000gn/T//cc6FZVn5.s 			page 28


 955 0148 B4F90020 		ldrsh	r2, [r4]
 956 014c C3F38A23 		ubfx	r3, r3, #10, #11
 957 0150 9342     		cmp	r3, r2
 958 0152 B8BF     		it	lt
 959 0154 1346     		movlt	r3, r2
 205:Drivers/lvgl/src/extra/widgets/imgbtn/lv_imgbtn.c ****         }
 960              		.loc 1 205 18 view .LVU256
 961 0156 2380     		strh	r3, [r4]	@ movhi
 962 0158 5BE7     		b	.L57
 963              	.LVL100:
 964              	.L65:
 205:Drivers/lvgl/src/extra/widgets/imgbtn/lv_imgbtn.c ****         }
 965              		.loc 1 205 18 view .LVU257
 966              	.LBE72:
 967              	.LBE57:
 968              	.LBB77:
 193:Drivers/lvgl/src/extra/widgets/imgbtn/lv_imgbtn.c ****         if(info->res != LV_COVER_RES_MASKED) info->res = LV_COVER_RES_NOT_COVER;
 969              		.loc 1 193 9 is_stmt 1 view .LVU258
 193:Drivers/lvgl/src/extra/widgets/imgbtn/lv_imgbtn.c ****         if(info->res != LV_COVER_RES_MASKED) info->res = LV_COVER_RES_NOT_COVER;
 970              		.loc 1 193 40 is_stmt 0 view .LVU259
 971 015a 2846     		mov	r0, r5
 972              	.LVL101:
 193:Drivers/lvgl/src/extra/widgets/imgbtn/lv_imgbtn.c ****         if(info->res != LV_COVER_RES_MASKED) info->res = LV_COVER_RES_NOT_COVER;
 973              		.loc 1 193 40 view .LVU260
 974 015c FFF7FEFF 		bl	lv_event_get_param
 975              	.LVL102:
 194:Drivers/lvgl/src/extra/widgets/imgbtn/lv_imgbtn.c ****     }
 976              		.loc 1 194 9 is_stmt 1 view .LVU261
 194:Drivers/lvgl/src/extra/widgets/imgbtn/lv_imgbtn.c ****     }
 977              		.loc 1 194 11 is_stmt 0 view .LVU262
 978 0160 0378     		ldrb	r3, [r0]	@ zero_extendqisi2
 979 0162 022B     		cmp	r3, #2
 980 0164 3FF455AF 		beq	.L57
 194:Drivers/lvgl/src/extra/widgets/imgbtn/lv_imgbtn.c ****     }
 981              		.loc 1 194 46 is_stmt 1 view .LVU263
 194:Drivers/lvgl/src/extra/widgets/imgbtn/lv_imgbtn.c ****     }
 982              		.loc 1 194 56 is_stmt 0 view .LVU264
 983 0168 0123     		movs	r3, #1
 984 016a 0370     		strb	r3, [r0]
 985 016c 51E7     		b	.L57
 986              	.LVL103:
 987              	.L64:
 194:Drivers/lvgl/src/extra/widgets/imgbtn/lv_imgbtn.c ****     }
 988              		.loc 1 194 56 view .LVU265
 989              	.LBE77:
 190:Drivers/lvgl/src/extra/widgets/imgbtn/lv_imgbtn.c ****     }
 990              		.loc 1 190 9 is_stmt 1 view .LVU266
 991              	.LBB78:
 992              	.LBI78:
 219:Drivers/lvgl/src/extra/widgets/imgbtn/lv_imgbtn.c **** {
 993              		.loc 1 219 13 view .LVU267
 994              	.LBB79:
 221:Drivers/lvgl/src/extra/widgets/imgbtn/lv_imgbtn.c ****     lv_imgbtn_t * imgbtn = (lv_imgbtn_t *)obj;
 995              		.loc 1 221 5 view .LVU268
 221:Drivers/lvgl/src/extra/widgets/imgbtn/lv_imgbtn.c ****     lv_imgbtn_t * imgbtn = (lv_imgbtn_t *)obj;
 996              		.loc 1 221 22 is_stmt 0 view .LVU269
 997 016e 2846     		mov	r0, r5
ARM GAS  /var/folders/0z/tsy30v1j4xl4_7kw94k978ww0000gn/T//cc6FZVn5.s 			page 29


 998              	.LVL104:
 221:Drivers/lvgl/src/extra/widgets/imgbtn/lv_imgbtn.c ****     lv_imgbtn_t * imgbtn = (lv_imgbtn_t *)obj;
 999              		.loc 1 221 22 view .LVU270
 1000 0170 FFF7FEFF 		bl	lv_event_get_target
 1001              	.LVL105:
 1002 0174 8046     		mov	r8, r0
 1003              	.LVL106:
 222:Drivers/lvgl/src/extra/widgets/imgbtn/lv_imgbtn.c ****     lv_draw_ctx_t * draw_ctx = lv_event_get_draw_ctx(e);
 1004              		.loc 1 222 5 is_stmt 1 view .LVU271
 223:Drivers/lvgl/src/extra/widgets/imgbtn/lv_imgbtn.c **** 
 1005              		.loc 1 223 5 view .LVU272
 223:Drivers/lvgl/src/extra/widgets/imgbtn/lv_imgbtn.c **** 
 1006              		.loc 1 223 32 is_stmt 0 view .LVU273
 1007 0176 2846     		mov	r0, r5
 1008              	.LVL107:
 223:Drivers/lvgl/src/extra/widgets/imgbtn/lv_imgbtn.c **** 
 1009              		.loc 1 223 32 view .LVU274
 1010 0178 FFF7FEFF 		bl	lv_event_get_draw_ctx
 1011              	.LVL108:
 1012 017c 8146     		mov	r9, r0
 226:Drivers/lvgl/src/extra/widgets/imgbtn/lv_imgbtn.c **** 
 1013              		.loc 1 226 32 view .LVU275
 1014 017e 4046     		mov	r0, r8
 1015              	.LVL109:
 226:Drivers/lvgl/src/extra/widgets/imgbtn/lv_imgbtn.c **** 
 1016              		.loc 1 226 5 is_stmt 1 view .LVU276
 226:Drivers/lvgl/src/extra/widgets/imgbtn/lv_imgbtn.c **** 
 1017              		.loc 1 226 32 is_stmt 0 view .LVU277
 1018 0180 FFF7FEFF 		bl	get_state
 1019              	.LVL110:
 1020              	.LBB80:
 1021              	.LBI80:
 334:Drivers/lvgl/src/extra/widgets/imgbtn/lv_imgbtn.c **** {
 1022              		.loc 1 334 26 is_stmt 1 view .LVU278
 1023              	.LBB81:
 336:Drivers/lvgl/src/extra/widgets/imgbtn/lv_imgbtn.c ****     if(imgbtn->img_src_mid[state] == NULL) {
 1024              		.loc 1 336 5 view .LVU279
 337:Drivers/lvgl/src/extra/widgets/imgbtn/lv_imgbtn.c ****         switch(state) {
 1025              		.loc 1 337 5 view .LVU280
 337:Drivers/lvgl/src/extra/widgets/imgbtn/lv_imgbtn.c ****         switch(state) {
 1026              		.loc 1 337 27 is_stmt 0 view .LVU281
 1027 0184 08EB8003 		add	r3, r8, r0, lsl #2
 337:Drivers/lvgl/src/extra/widgets/imgbtn/lv_imgbtn.c ****         switch(state) {
 1028              		.loc 1 337 7 view .LVU282
 1029 0188 5B6A     		ldr	r3, [r3, #36]
 1030 018a 002B     		cmp	r3, #0
 1031 018c 00F0D880 		beq	.L117
 1032              	.LVL111:
 1033              	.L66:
 337:Drivers/lvgl/src/extra/widgets/imgbtn/lv_imgbtn.c ****         switch(state) {
 1034              		.loc 1 337 7 view .LVU283
 1035              	.LBE81:
 1036              	.LBE80:
 229:Drivers/lvgl/src/extra/widgets/imgbtn/lv_imgbtn.c **** 
 1037              		.loc 1 229 5 is_stmt 1 view .LVU284
 1038 0190 08EB8005 		add	r5, r8, r0, lsl #2
 1039              	.LVL112:
ARM GAS  /var/folders/0z/tsy30v1j4xl4_7kw94k978ww0000gn/T//cc6FZVn5.s 			page 30


 1040              	.LBB83:
 1041              	.LBB84:
 1042              		.file 2 "Drivers/lvgl/src/extra/widgets/imgbtn/../../../../src/core/lv_obj_style_gen.h"
   1:Drivers/lvgl/src/extra/widgets/imgbtn/../../../../src/core/lv_obj_style_gen.h **** static inline lv_coord_t lv_obj_get_style_width(const struct _lv_obj_t * obj, uint32_t part)
   2:Drivers/lvgl/src/extra/widgets/imgbtn/../../../../src/core/lv_obj_style_gen.h **** {
   3:Drivers/lvgl/src/extra/widgets/imgbtn/../../../../src/core/lv_obj_style_gen.h ****     lv_style_value_t v = lv_obj_get_style_prop(obj, part, LV_STYLE_WIDTH);
   4:Drivers/lvgl/src/extra/widgets/imgbtn/../../../../src/core/lv_obj_style_gen.h ****     return (lv_coord_t)v.num;
   5:Drivers/lvgl/src/extra/widgets/imgbtn/../../../../src/core/lv_obj_style_gen.h **** }
   6:Drivers/lvgl/src/extra/widgets/imgbtn/../../../../src/core/lv_obj_style_gen.h **** 
   7:Drivers/lvgl/src/extra/widgets/imgbtn/../../../../src/core/lv_obj_style_gen.h **** static inline lv_coord_t lv_obj_get_style_min_width(const struct _lv_obj_t * obj, uint32_t part)
   8:Drivers/lvgl/src/extra/widgets/imgbtn/../../../../src/core/lv_obj_style_gen.h **** {
   9:Drivers/lvgl/src/extra/widgets/imgbtn/../../../../src/core/lv_obj_style_gen.h ****     lv_style_value_t v = lv_obj_get_style_prop(obj, part, LV_STYLE_MIN_WIDTH);
  10:Drivers/lvgl/src/extra/widgets/imgbtn/../../../../src/core/lv_obj_style_gen.h ****     return (lv_coord_t)v.num;
  11:Drivers/lvgl/src/extra/widgets/imgbtn/../../../../src/core/lv_obj_style_gen.h **** }
  12:Drivers/lvgl/src/extra/widgets/imgbtn/../../../../src/core/lv_obj_style_gen.h **** 
  13:Drivers/lvgl/src/extra/widgets/imgbtn/../../../../src/core/lv_obj_style_gen.h **** static inline lv_coord_t lv_obj_get_style_max_width(const struct _lv_obj_t * obj, uint32_t part)
  14:Drivers/lvgl/src/extra/widgets/imgbtn/../../../../src/core/lv_obj_style_gen.h **** {
  15:Drivers/lvgl/src/extra/widgets/imgbtn/../../../../src/core/lv_obj_style_gen.h ****     lv_style_value_t v = lv_obj_get_style_prop(obj, part, LV_STYLE_MAX_WIDTH);
  16:Drivers/lvgl/src/extra/widgets/imgbtn/../../../../src/core/lv_obj_style_gen.h ****     return (lv_coord_t)v.num;
  17:Drivers/lvgl/src/extra/widgets/imgbtn/../../../../src/core/lv_obj_style_gen.h **** }
  18:Drivers/lvgl/src/extra/widgets/imgbtn/../../../../src/core/lv_obj_style_gen.h **** 
  19:Drivers/lvgl/src/extra/widgets/imgbtn/../../../../src/core/lv_obj_style_gen.h **** static inline lv_coord_t lv_obj_get_style_height(const struct _lv_obj_t * obj, uint32_t part)
  20:Drivers/lvgl/src/extra/widgets/imgbtn/../../../../src/core/lv_obj_style_gen.h **** {
  21:Drivers/lvgl/src/extra/widgets/imgbtn/../../../../src/core/lv_obj_style_gen.h ****     lv_style_value_t v = lv_obj_get_style_prop(obj, part, LV_STYLE_HEIGHT);
  22:Drivers/lvgl/src/extra/widgets/imgbtn/../../../../src/core/lv_obj_style_gen.h ****     return (lv_coord_t)v.num;
  23:Drivers/lvgl/src/extra/widgets/imgbtn/../../../../src/core/lv_obj_style_gen.h **** }
  24:Drivers/lvgl/src/extra/widgets/imgbtn/../../../../src/core/lv_obj_style_gen.h **** 
  25:Drivers/lvgl/src/extra/widgets/imgbtn/../../../../src/core/lv_obj_style_gen.h **** static inline lv_coord_t lv_obj_get_style_min_height(const struct _lv_obj_t * obj, uint32_t part)
  26:Drivers/lvgl/src/extra/widgets/imgbtn/../../../../src/core/lv_obj_style_gen.h **** {
  27:Drivers/lvgl/src/extra/widgets/imgbtn/../../../../src/core/lv_obj_style_gen.h ****     lv_style_value_t v = lv_obj_get_style_prop(obj, part, LV_STYLE_MIN_HEIGHT);
  28:Drivers/lvgl/src/extra/widgets/imgbtn/../../../../src/core/lv_obj_style_gen.h ****     return (lv_coord_t)v.num;
  29:Drivers/lvgl/src/extra/widgets/imgbtn/../../../../src/core/lv_obj_style_gen.h **** }
  30:Drivers/lvgl/src/extra/widgets/imgbtn/../../../../src/core/lv_obj_style_gen.h **** 
  31:Drivers/lvgl/src/extra/widgets/imgbtn/../../../../src/core/lv_obj_style_gen.h **** static inline lv_coord_t lv_obj_get_style_max_height(const struct _lv_obj_t * obj, uint32_t part)
  32:Drivers/lvgl/src/extra/widgets/imgbtn/../../../../src/core/lv_obj_style_gen.h **** {
  33:Drivers/lvgl/src/extra/widgets/imgbtn/../../../../src/core/lv_obj_style_gen.h ****     lv_style_value_t v = lv_obj_get_style_prop(obj, part, LV_STYLE_MAX_HEIGHT);
  34:Drivers/lvgl/src/extra/widgets/imgbtn/../../../../src/core/lv_obj_style_gen.h ****     return (lv_coord_t)v.num;
  35:Drivers/lvgl/src/extra/widgets/imgbtn/../../../../src/core/lv_obj_style_gen.h **** }
  36:Drivers/lvgl/src/extra/widgets/imgbtn/../../../../src/core/lv_obj_style_gen.h **** 
  37:Drivers/lvgl/src/extra/widgets/imgbtn/../../../../src/core/lv_obj_style_gen.h **** static inline lv_coord_t lv_obj_get_style_x(const struct _lv_obj_t * obj, uint32_t part)
  38:Drivers/lvgl/src/extra/widgets/imgbtn/../../../../src/core/lv_obj_style_gen.h **** {
  39:Drivers/lvgl/src/extra/widgets/imgbtn/../../../../src/core/lv_obj_style_gen.h ****     lv_style_value_t v = lv_obj_get_style_prop(obj, part, LV_STYLE_X);
  40:Drivers/lvgl/src/extra/widgets/imgbtn/../../../../src/core/lv_obj_style_gen.h ****     return (lv_coord_t)v.num;
  41:Drivers/lvgl/src/extra/widgets/imgbtn/../../../../src/core/lv_obj_style_gen.h **** }
  42:Drivers/lvgl/src/extra/widgets/imgbtn/../../../../src/core/lv_obj_style_gen.h **** 
  43:Drivers/lvgl/src/extra/widgets/imgbtn/../../../../src/core/lv_obj_style_gen.h **** static inline lv_coord_t lv_obj_get_style_y(const struct _lv_obj_t * obj, uint32_t part)
  44:Drivers/lvgl/src/extra/widgets/imgbtn/../../../../src/core/lv_obj_style_gen.h **** {
  45:Drivers/lvgl/src/extra/widgets/imgbtn/../../../../src/core/lv_obj_style_gen.h ****     lv_style_value_t v = lv_obj_get_style_prop(obj, part, LV_STYLE_Y);
  46:Drivers/lvgl/src/extra/widgets/imgbtn/../../../../src/core/lv_obj_style_gen.h ****     return (lv_coord_t)v.num;
  47:Drivers/lvgl/src/extra/widgets/imgbtn/../../../../src/core/lv_obj_style_gen.h **** }
  48:Drivers/lvgl/src/extra/widgets/imgbtn/../../../../src/core/lv_obj_style_gen.h **** 
  49:Drivers/lvgl/src/extra/widgets/imgbtn/../../../../src/core/lv_obj_style_gen.h **** static inline lv_align_t lv_obj_get_style_align(const struct _lv_obj_t * obj, uint32_t part)
  50:Drivers/lvgl/src/extra/widgets/imgbtn/../../../../src/core/lv_obj_style_gen.h **** {
  51:Drivers/lvgl/src/extra/widgets/imgbtn/../../../../src/core/lv_obj_style_gen.h ****     lv_style_value_t v = lv_obj_get_style_prop(obj, part, LV_STYLE_ALIGN);
  52:Drivers/lvgl/src/extra/widgets/imgbtn/../../../../src/core/lv_obj_style_gen.h ****     return (lv_align_t)v.num;
  53:Drivers/lvgl/src/extra/widgets/imgbtn/../../../../src/core/lv_obj_style_gen.h **** }
  54:Drivers/lvgl/src/extra/widgets/imgbtn/../../../../src/core/lv_obj_style_gen.h **** 
ARM GAS  /var/folders/0z/tsy30v1j4xl4_7kw94k978ww0000gn/T//cc6FZVn5.s 			page 31


  55:Drivers/lvgl/src/extra/widgets/imgbtn/../../../../src/core/lv_obj_style_gen.h **** static inline lv_coord_t lv_obj_get_style_transform_width(const struct _lv_obj_t * obj, uint32_t pa
  56:Drivers/lvgl/src/extra/widgets/imgbtn/../../../../src/core/lv_obj_style_gen.h **** {
  57:Drivers/lvgl/src/extra/widgets/imgbtn/../../../../src/core/lv_obj_style_gen.h ****     lv_style_value_t v = lv_obj_get_style_prop(obj, part, LV_STYLE_TRANSFORM_WIDTH);
 1043              		.loc 2 57 26 is_stmt 0 view .LVU285
 1044 0194 6922     		movs	r2, #105
 1045 0196 0021     		movs	r1, #0
 1046 0198 4046     		mov	r0, r8
 1047              	.LBE84:
 1048              	.LBE83:
 229:Drivers/lvgl/src/extra/widgets/imgbtn/lv_imgbtn.c **** 
 1049              		.loc 1 229 18 view .LVU286
 1050 019a D5F83CB0 		ldr	fp, [r5, #60]
 1051              	.LVL113:
 231:Drivers/lvgl/src/extra/widgets/imgbtn/lv_imgbtn.c ****     lv_coord_t th = lv_obj_get_style_transform_height(obj, LV_PART_MAIN);
 1052              		.loc 1 231 5 is_stmt 1 view .LVU287
 1053              	.LBB87:
 1054              	.LBI83:
  55:Drivers/lvgl/src/extra/widgets/imgbtn/../../../../src/core/lv_obj_style_gen.h **** {
 1055              		.loc 2 55 26 view .LVU288
 1056              	.LBB85:
 1057              		.loc 2 57 5 view .LVU289
 1058              		.loc 2 57 26 is_stmt 0 view .LVU290
 1059 019e FFF7FEFF 		bl	lv_obj_get_style_prop
 1060              	.LVL114:
 1061              		.loc 2 57 26 view .LVU291
 1062              	.LBE85:
 1063              	.LBE87:
 1064              	.LBB88:
 1065              	.LBB89:
  58:Drivers/lvgl/src/extra/widgets/imgbtn/../../../../src/core/lv_obj_style_gen.h ****     return (lv_coord_t)v.num;
  59:Drivers/lvgl/src/extra/widgets/imgbtn/../../../../src/core/lv_obj_style_gen.h **** }
  60:Drivers/lvgl/src/extra/widgets/imgbtn/../../../../src/core/lv_obj_style_gen.h **** 
  61:Drivers/lvgl/src/extra/widgets/imgbtn/../../../../src/core/lv_obj_style_gen.h **** static inline lv_coord_t lv_obj_get_style_transform_height(const struct _lv_obj_t * obj, uint32_t p
  62:Drivers/lvgl/src/extra/widgets/imgbtn/../../../../src/core/lv_obj_style_gen.h **** {
  63:Drivers/lvgl/src/extra/widgets/imgbtn/../../../../src/core/lv_obj_style_gen.h ****     lv_style_value_t v = lv_obj_get_style_prop(obj, part, LV_STYLE_TRANSFORM_HEIGHT);
 1066              		.loc 2 63 26 view .LVU292
 1067 01a2 0021     		movs	r1, #0
 1068              	.LBE89:
 1069              	.LBE88:
 1070              	.LBB91:
 1071              	.LBB86:
  57:Drivers/lvgl/src/extra/widgets/imgbtn/../../../../src/core/lv_obj_style_gen.h ****     return (lv_coord_t)v.num;
 1072              		.loc 2 57 26 view .LVU293
 1073 01a4 0446     		mov	r4, r0
 1074              	.LVL115:
  58:Drivers/lvgl/src/extra/widgets/imgbtn/../../../../src/core/lv_obj_style_gen.h ****     return (lv_coord_t)v.num;
 1075              		.loc 2 58 5 is_stmt 1 view .LVU294
  58:Drivers/lvgl/src/extra/widgets/imgbtn/../../../../src/core/lv_obj_style_gen.h ****     return (lv_coord_t)v.num;
 1076              		.loc 2 58 5 is_stmt 0 view .LVU295
 1077              	.LBE86:
 1078              	.LBE91:
 232:Drivers/lvgl/src/extra/widgets/imgbtn/lv_imgbtn.c ****     lv_area_t coords;
 1079              		.loc 1 232 5 is_stmt 1 view .LVU296
 1080              	.LBB92:
 1081              	.LBI88:
  61:Drivers/lvgl/src/extra/widgets/imgbtn/../../../../src/core/lv_obj_style_gen.h **** {
 1082              		.loc 2 61 26 view .LVU297
ARM GAS  /var/folders/0z/tsy30v1j4xl4_7kw94k978ww0000gn/T//cc6FZVn5.s 			page 32


 1083              	.LBB90:
 1084              		.loc 2 63 5 view .LVU298
 1085              		.loc 2 63 26 is_stmt 0 view .LVU299
 1086 01a6 6A22     		movs	r2, #106
 1087 01a8 4046     		mov	r0, r8
 1088 01aa FFF7FEFF 		bl	lv_obj_get_style_prop
 1089              	.LVL116:
  64:Drivers/lvgl/src/extra/widgets/imgbtn/../../../../src/core/lv_obj_style_gen.h ****     return (lv_coord_t)v.num;
 1090              		.loc 2 64 5 is_stmt 1 view .LVU300
 1091              		.loc 2 64 5 is_stmt 0 view .LVU301
 1092              	.LBE90:
 1093              	.LBE92:
 233:Drivers/lvgl/src/extra/widgets/imgbtn/lv_imgbtn.c ****     lv_area_copy(&coords, &obj->coords);
 1094              		.loc 1 233 5 is_stmt 1 view .LVU302
 234:Drivers/lvgl/src/extra/widgets/imgbtn/lv_imgbtn.c ****     coords.x1 -= tw;
 1095              		.loc 1 234 5 view .LVU303
 1096              	.LBB93:
 1097              	.LBI93:
 1098              		.file 3 "Drivers/lvgl/src/extra/widgets/imgbtn/../../../../src/hal/../draw/../misc/../font/../misc
   1:Drivers/lvgl/src/extra/widgets/imgbtn/../../../../src/hal/../draw/../misc/../font/../misc/lv_area.h **** /**
   2:Drivers/lvgl/src/extra/widgets/imgbtn/../../../../src/hal/../draw/../misc/../font/../misc/lv_area.h ****  * @file lv_area.h
   3:Drivers/lvgl/src/extra/widgets/imgbtn/../../../../src/hal/../draw/../misc/../font/../misc/lv_area.h ****  *
   4:Drivers/lvgl/src/extra/widgets/imgbtn/../../../../src/hal/../draw/../misc/../font/../misc/lv_area.h ****  */
   5:Drivers/lvgl/src/extra/widgets/imgbtn/../../../../src/hal/../draw/../misc/../font/../misc/lv_area.h **** 
   6:Drivers/lvgl/src/extra/widgets/imgbtn/../../../../src/hal/../draw/../misc/../font/../misc/lv_area.h **** #ifndef LV_AREA_H
   7:Drivers/lvgl/src/extra/widgets/imgbtn/../../../../src/hal/../draw/../misc/../font/../misc/lv_area.h **** #define LV_AREA_H
   8:Drivers/lvgl/src/extra/widgets/imgbtn/../../../../src/hal/../draw/../misc/../font/../misc/lv_area.h **** 
   9:Drivers/lvgl/src/extra/widgets/imgbtn/../../../../src/hal/../draw/../misc/../font/../misc/lv_area.h **** #ifdef __cplusplus
  10:Drivers/lvgl/src/extra/widgets/imgbtn/../../../../src/hal/../draw/../misc/../font/../misc/lv_area.h **** extern "C" {
  11:Drivers/lvgl/src/extra/widgets/imgbtn/../../../../src/hal/../draw/../misc/../font/../misc/lv_area.h **** #endif
  12:Drivers/lvgl/src/extra/widgets/imgbtn/../../../../src/hal/../draw/../misc/../font/../misc/lv_area.h **** 
  13:Drivers/lvgl/src/extra/widgets/imgbtn/../../../../src/hal/../draw/../misc/../font/../misc/lv_area.h **** /*********************
  14:Drivers/lvgl/src/extra/widgets/imgbtn/../../../../src/hal/../draw/../misc/../font/../misc/lv_area.h ****  *      INCLUDES
  15:Drivers/lvgl/src/extra/widgets/imgbtn/../../../../src/hal/../draw/../misc/../font/../misc/lv_area.h ****  *********************/
  16:Drivers/lvgl/src/extra/widgets/imgbtn/../../../../src/hal/../draw/../misc/../font/../misc/lv_area.h **** #include "../lv_conf_internal.h"
  17:Drivers/lvgl/src/extra/widgets/imgbtn/../../../../src/hal/../draw/../misc/../font/../misc/lv_area.h **** #include <stdbool.h>
  18:Drivers/lvgl/src/extra/widgets/imgbtn/../../../../src/hal/../draw/../misc/../font/../misc/lv_area.h **** #include <stdint.h>
  19:Drivers/lvgl/src/extra/widgets/imgbtn/../../../../src/hal/../draw/../misc/../font/../misc/lv_area.h **** 
  20:Drivers/lvgl/src/extra/widgets/imgbtn/../../../../src/hal/../draw/../misc/../font/../misc/lv_area.h **** /*********************
  21:Drivers/lvgl/src/extra/widgets/imgbtn/../../../../src/hal/../draw/../misc/../font/../misc/lv_area.h ****  *      DEFINES
  22:Drivers/lvgl/src/extra/widgets/imgbtn/../../../../src/hal/../draw/../misc/../font/../misc/lv_area.h ****  *********************/
  23:Drivers/lvgl/src/extra/widgets/imgbtn/../../../../src/hal/../draw/../misc/../font/../misc/lv_area.h **** 
  24:Drivers/lvgl/src/extra/widgets/imgbtn/../../../../src/hal/../draw/../misc/../font/../misc/lv_area.h **** #if LV_USE_LARGE_COORD
  25:Drivers/lvgl/src/extra/widgets/imgbtn/../../../../src/hal/../draw/../misc/../font/../misc/lv_area.h **** typedef int32_t lv_coord_t;
  26:Drivers/lvgl/src/extra/widgets/imgbtn/../../../../src/hal/../draw/../misc/../font/../misc/lv_area.h **** #else
  27:Drivers/lvgl/src/extra/widgets/imgbtn/../../../../src/hal/../draw/../misc/../font/../misc/lv_area.h **** typedef int16_t lv_coord_t;
  28:Drivers/lvgl/src/extra/widgets/imgbtn/../../../../src/hal/../draw/../misc/../font/../misc/lv_area.h **** #endif
  29:Drivers/lvgl/src/extra/widgets/imgbtn/../../../../src/hal/../draw/../misc/../font/../misc/lv_area.h **** 
  30:Drivers/lvgl/src/extra/widgets/imgbtn/../../../../src/hal/../draw/../misc/../font/../misc/lv_area.h **** /**********************
  31:Drivers/lvgl/src/extra/widgets/imgbtn/../../../../src/hal/../draw/../misc/../font/../misc/lv_area.h ****  *      TYPEDEFS
  32:Drivers/lvgl/src/extra/widgets/imgbtn/../../../../src/hal/../draw/../misc/../font/../misc/lv_area.h ****  **********************/
  33:Drivers/lvgl/src/extra/widgets/imgbtn/../../../../src/hal/../draw/../misc/../font/../misc/lv_area.h **** 
  34:Drivers/lvgl/src/extra/widgets/imgbtn/../../../../src/hal/../draw/../misc/../font/../misc/lv_area.h **** /**
  35:Drivers/lvgl/src/extra/widgets/imgbtn/../../../../src/hal/../draw/../misc/../font/../misc/lv_area.h ****  * Represents a point on the screen.
  36:Drivers/lvgl/src/extra/widgets/imgbtn/../../../../src/hal/../draw/../misc/../font/../misc/lv_area.h ****  */
  37:Drivers/lvgl/src/extra/widgets/imgbtn/../../../../src/hal/../draw/../misc/../font/../misc/lv_area.h **** typedef struct {
  38:Drivers/lvgl/src/extra/widgets/imgbtn/../../../../src/hal/../draw/../misc/../font/../misc/lv_area.h ****     lv_coord_t x;
ARM GAS  /var/folders/0z/tsy30v1j4xl4_7kw94k978ww0000gn/T//cc6FZVn5.s 			page 33


  39:Drivers/lvgl/src/extra/widgets/imgbtn/../../../../src/hal/../draw/../misc/../font/../misc/lv_area.h ****     lv_coord_t y;
  40:Drivers/lvgl/src/extra/widgets/imgbtn/../../../../src/hal/../draw/../misc/../font/../misc/lv_area.h **** } lv_point_t;
  41:Drivers/lvgl/src/extra/widgets/imgbtn/../../../../src/hal/../draw/../misc/../font/../misc/lv_area.h **** 
  42:Drivers/lvgl/src/extra/widgets/imgbtn/../../../../src/hal/../draw/../misc/../font/../misc/lv_area.h **** /** Represents an area of the screen.*/
  43:Drivers/lvgl/src/extra/widgets/imgbtn/../../../../src/hal/../draw/../misc/../font/../misc/lv_area.h **** typedef struct {
  44:Drivers/lvgl/src/extra/widgets/imgbtn/../../../../src/hal/../draw/../misc/../font/../misc/lv_area.h ****     lv_coord_t x1;
  45:Drivers/lvgl/src/extra/widgets/imgbtn/../../../../src/hal/../draw/../misc/../font/../misc/lv_area.h ****     lv_coord_t y1;
  46:Drivers/lvgl/src/extra/widgets/imgbtn/../../../../src/hal/../draw/../misc/../font/../misc/lv_area.h ****     lv_coord_t x2;
  47:Drivers/lvgl/src/extra/widgets/imgbtn/../../../../src/hal/../draw/../misc/../font/../misc/lv_area.h ****     lv_coord_t y2;
  48:Drivers/lvgl/src/extra/widgets/imgbtn/../../../../src/hal/../draw/../misc/../font/../misc/lv_area.h **** } lv_area_t;
  49:Drivers/lvgl/src/extra/widgets/imgbtn/../../../../src/hal/../draw/../misc/../font/../misc/lv_area.h **** 
  50:Drivers/lvgl/src/extra/widgets/imgbtn/../../../../src/hal/../draw/../misc/../font/../misc/lv_area.h **** /** Alignments*/
  51:Drivers/lvgl/src/extra/widgets/imgbtn/../../../../src/hal/../draw/../misc/../font/../misc/lv_area.h **** enum {
  52:Drivers/lvgl/src/extra/widgets/imgbtn/../../../../src/hal/../draw/../misc/../font/../misc/lv_area.h ****     LV_ALIGN_DEFAULT = 0,
  53:Drivers/lvgl/src/extra/widgets/imgbtn/../../../../src/hal/../draw/../misc/../font/../misc/lv_area.h ****     LV_ALIGN_TOP_LEFT,
  54:Drivers/lvgl/src/extra/widgets/imgbtn/../../../../src/hal/../draw/../misc/../font/../misc/lv_area.h ****     LV_ALIGN_TOP_MID,
  55:Drivers/lvgl/src/extra/widgets/imgbtn/../../../../src/hal/../draw/../misc/../font/../misc/lv_area.h ****     LV_ALIGN_TOP_RIGHT,
  56:Drivers/lvgl/src/extra/widgets/imgbtn/../../../../src/hal/../draw/../misc/../font/../misc/lv_area.h ****     LV_ALIGN_BOTTOM_LEFT,
  57:Drivers/lvgl/src/extra/widgets/imgbtn/../../../../src/hal/../draw/../misc/../font/../misc/lv_area.h ****     LV_ALIGN_BOTTOM_MID,
  58:Drivers/lvgl/src/extra/widgets/imgbtn/../../../../src/hal/../draw/../misc/../font/../misc/lv_area.h ****     LV_ALIGN_BOTTOM_RIGHT,
  59:Drivers/lvgl/src/extra/widgets/imgbtn/../../../../src/hal/../draw/../misc/../font/../misc/lv_area.h ****     LV_ALIGN_LEFT_MID,
  60:Drivers/lvgl/src/extra/widgets/imgbtn/../../../../src/hal/../draw/../misc/../font/../misc/lv_area.h ****     LV_ALIGN_RIGHT_MID,
  61:Drivers/lvgl/src/extra/widgets/imgbtn/../../../../src/hal/../draw/../misc/../font/../misc/lv_area.h ****     LV_ALIGN_CENTER,
  62:Drivers/lvgl/src/extra/widgets/imgbtn/../../../../src/hal/../draw/../misc/../font/../misc/lv_area.h **** 
  63:Drivers/lvgl/src/extra/widgets/imgbtn/../../../../src/hal/../draw/../misc/../font/../misc/lv_area.h ****     LV_ALIGN_OUT_TOP_LEFT,
  64:Drivers/lvgl/src/extra/widgets/imgbtn/../../../../src/hal/../draw/../misc/../font/../misc/lv_area.h ****     LV_ALIGN_OUT_TOP_MID,
  65:Drivers/lvgl/src/extra/widgets/imgbtn/../../../../src/hal/../draw/../misc/../font/../misc/lv_area.h ****     LV_ALIGN_OUT_TOP_RIGHT,
  66:Drivers/lvgl/src/extra/widgets/imgbtn/../../../../src/hal/../draw/../misc/../font/../misc/lv_area.h ****     LV_ALIGN_OUT_BOTTOM_LEFT,
  67:Drivers/lvgl/src/extra/widgets/imgbtn/../../../../src/hal/../draw/../misc/../font/../misc/lv_area.h ****     LV_ALIGN_OUT_BOTTOM_MID,
  68:Drivers/lvgl/src/extra/widgets/imgbtn/../../../../src/hal/../draw/../misc/../font/../misc/lv_area.h ****     LV_ALIGN_OUT_BOTTOM_RIGHT,
  69:Drivers/lvgl/src/extra/widgets/imgbtn/../../../../src/hal/../draw/../misc/../font/../misc/lv_area.h ****     LV_ALIGN_OUT_LEFT_TOP,
  70:Drivers/lvgl/src/extra/widgets/imgbtn/../../../../src/hal/../draw/../misc/../font/../misc/lv_area.h ****     LV_ALIGN_OUT_LEFT_MID,
  71:Drivers/lvgl/src/extra/widgets/imgbtn/../../../../src/hal/../draw/../misc/../font/../misc/lv_area.h ****     LV_ALIGN_OUT_LEFT_BOTTOM,
  72:Drivers/lvgl/src/extra/widgets/imgbtn/../../../../src/hal/../draw/../misc/../font/../misc/lv_area.h ****     LV_ALIGN_OUT_RIGHT_TOP,
  73:Drivers/lvgl/src/extra/widgets/imgbtn/../../../../src/hal/../draw/../misc/../font/../misc/lv_area.h ****     LV_ALIGN_OUT_RIGHT_MID,
  74:Drivers/lvgl/src/extra/widgets/imgbtn/../../../../src/hal/../draw/../misc/../font/../misc/lv_area.h ****     LV_ALIGN_OUT_RIGHT_BOTTOM,
  75:Drivers/lvgl/src/extra/widgets/imgbtn/../../../../src/hal/../draw/../misc/../font/../misc/lv_area.h **** };
  76:Drivers/lvgl/src/extra/widgets/imgbtn/../../../../src/hal/../draw/../misc/../font/../misc/lv_area.h **** typedef uint8_t lv_align_t;
  77:Drivers/lvgl/src/extra/widgets/imgbtn/../../../../src/hal/../draw/../misc/../font/../misc/lv_area.h **** 
  78:Drivers/lvgl/src/extra/widgets/imgbtn/../../../../src/hal/../draw/../misc/../font/../misc/lv_area.h **** enum {
  79:Drivers/lvgl/src/extra/widgets/imgbtn/../../../../src/hal/../draw/../misc/../font/../misc/lv_area.h ****     LV_DIR_NONE     = 0x00,
  80:Drivers/lvgl/src/extra/widgets/imgbtn/../../../../src/hal/../draw/../misc/../font/../misc/lv_area.h ****     LV_DIR_LEFT     = (1 << 0),
  81:Drivers/lvgl/src/extra/widgets/imgbtn/../../../../src/hal/../draw/../misc/../font/../misc/lv_area.h ****     LV_DIR_RIGHT    = (1 << 1),
  82:Drivers/lvgl/src/extra/widgets/imgbtn/../../../../src/hal/../draw/../misc/../font/../misc/lv_area.h ****     LV_DIR_TOP      = (1 << 2),
  83:Drivers/lvgl/src/extra/widgets/imgbtn/../../../../src/hal/../draw/../misc/../font/../misc/lv_area.h ****     LV_DIR_BOTTOM   = (1 << 3),
  84:Drivers/lvgl/src/extra/widgets/imgbtn/../../../../src/hal/../draw/../misc/../font/../misc/lv_area.h ****     LV_DIR_HOR      = LV_DIR_LEFT | LV_DIR_RIGHT,
  85:Drivers/lvgl/src/extra/widgets/imgbtn/../../../../src/hal/../draw/../misc/../font/../misc/lv_area.h ****     LV_DIR_VER      = LV_DIR_TOP | LV_DIR_BOTTOM,
  86:Drivers/lvgl/src/extra/widgets/imgbtn/../../../../src/hal/../draw/../misc/../font/../misc/lv_area.h ****     LV_DIR_ALL      = LV_DIR_HOR | LV_DIR_VER,
  87:Drivers/lvgl/src/extra/widgets/imgbtn/../../../../src/hal/../draw/../misc/../font/../misc/lv_area.h **** };
  88:Drivers/lvgl/src/extra/widgets/imgbtn/../../../../src/hal/../draw/../misc/../font/../misc/lv_area.h **** 
  89:Drivers/lvgl/src/extra/widgets/imgbtn/../../../../src/hal/../draw/../misc/../font/../misc/lv_area.h **** typedef uint8_t lv_dir_t;
  90:Drivers/lvgl/src/extra/widgets/imgbtn/../../../../src/hal/../draw/../misc/../font/../misc/lv_area.h **** 
  91:Drivers/lvgl/src/extra/widgets/imgbtn/../../../../src/hal/../draw/../misc/../font/../misc/lv_area.h **** /**********************
  92:Drivers/lvgl/src/extra/widgets/imgbtn/../../../../src/hal/../draw/../misc/../font/../misc/lv_area.h ****  * GLOBAL PROTOTYPES
  93:Drivers/lvgl/src/extra/widgets/imgbtn/../../../../src/hal/../draw/../misc/../font/../misc/lv_area.h ****  **********************/
  94:Drivers/lvgl/src/extra/widgets/imgbtn/../../../../src/hal/../draw/../misc/../font/../misc/lv_area.h **** 
  95:Drivers/lvgl/src/extra/widgets/imgbtn/../../../../src/hal/../draw/../misc/../font/../misc/lv_area.h **** /**
ARM GAS  /var/folders/0z/tsy30v1j4xl4_7kw94k978ww0000gn/T//cc6FZVn5.s 			page 34


  96:Drivers/lvgl/src/extra/widgets/imgbtn/../../../../src/hal/../draw/../misc/../font/../misc/lv_area.h ****  * Initialize an area
  97:Drivers/lvgl/src/extra/widgets/imgbtn/../../../../src/hal/../draw/../misc/../font/../misc/lv_area.h ****  * @param area_p pointer to an area
  98:Drivers/lvgl/src/extra/widgets/imgbtn/../../../../src/hal/../draw/../misc/../font/../misc/lv_area.h ****  * @param x1 left coordinate of the area
  99:Drivers/lvgl/src/extra/widgets/imgbtn/../../../../src/hal/../draw/../misc/../font/../misc/lv_area.h ****  * @param y1 top coordinate of the area
 100:Drivers/lvgl/src/extra/widgets/imgbtn/../../../../src/hal/../draw/../misc/../font/../misc/lv_area.h ****  * @param x2 right coordinate of the area
 101:Drivers/lvgl/src/extra/widgets/imgbtn/../../../../src/hal/../draw/../misc/../font/../misc/lv_area.h ****  * @param y2 bottom coordinate of the area
 102:Drivers/lvgl/src/extra/widgets/imgbtn/../../../../src/hal/../draw/../misc/../font/../misc/lv_area.h ****  */
 103:Drivers/lvgl/src/extra/widgets/imgbtn/../../../../src/hal/../draw/../misc/../font/../misc/lv_area.h **** void lv_area_set(lv_area_t * area_p, lv_coord_t x1, lv_coord_t y1, lv_coord_t x2, lv_coord_t y2);
 104:Drivers/lvgl/src/extra/widgets/imgbtn/../../../../src/hal/../draw/../misc/../font/../misc/lv_area.h **** 
 105:Drivers/lvgl/src/extra/widgets/imgbtn/../../../../src/hal/../draw/../misc/../font/../misc/lv_area.h **** /**
 106:Drivers/lvgl/src/extra/widgets/imgbtn/../../../../src/hal/../draw/../misc/../font/../misc/lv_area.h ****  * Copy an area
 107:Drivers/lvgl/src/extra/widgets/imgbtn/../../../../src/hal/../draw/../misc/../font/../misc/lv_area.h ****  * @param dest pointer to the destination area
 108:Drivers/lvgl/src/extra/widgets/imgbtn/../../../../src/hal/../draw/../misc/../font/../misc/lv_area.h ****  * @param src pointer to the source area
 109:Drivers/lvgl/src/extra/widgets/imgbtn/../../../../src/hal/../draw/../misc/../font/../misc/lv_area.h ****  */
 110:Drivers/lvgl/src/extra/widgets/imgbtn/../../../../src/hal/../draw/../misc/../font/../misc/lv_area.h **** inline static void lv_area_copy(lv_area_t * dest, const lv_area_t * src)
 1099              		.loc 3 110 20 view .LVU304
 1100              	.LBB94:
 111:Drivers/lvgl/src/extra/widgets/imgbtn/../../../../src/hal/../draw/../misc/../font/../misc/lv_area.h **** {
 112:Drivers/lvgl/src/extra/widgets/imgbtn/../../../../src/hal/../draw/../misc/../font/../misc/lv_area.h ****     dest->x1 = src->x1;
 1101              		.loc 3 112 5 view .LVU305
 113:Drivers/lvgl/src/extra/widgets/imgbtn/../../../../src/hal/../draw/../misc/../font/../misc/lv_area.h ****     dest->y1 = src->y1;
 1102              		.loc 3 113 5 view .LVU306
 114:Drivers/lvgl/src/extra/widgets/imgbtn/../../../../src/hal/../draw/../misc/../font/../misc/lv_area.h ****     dest->x2 = src->x2;
 1103              		.loc 3 114 5 view .LVU307
 115:Drivers/lvgl/src/extra/widgets/imgbtn/../../../../src/hal/../draw/../misc/../font/../misc/lv_area.h ****     dest->y2 = src->y2;
 1104              		.loc 3 115 5 view .LVU308
 1105              	.LBE94:
 1106              	.LBE93:
 237:Drivers/lvgl/src/extra/widgets/imgbtn/lv_imgbtn.c ****     coords.y2 += th;
 1107              		.loc 1 237 15 is_stmt 0 view .LVU309
 1108 01ae B8F81670 		ldrh	r7, [r8, #22]
 236:Drivers/lvgl/src/extra/widgets/imgbtn/lv_imgbtn.c ****     coords.y1 -= th;
 1109              		.loc 1 236 15 view .LVU310
 1110 01b2 B8F81820 		ldrh	r2, [r8, #24]
 1111              	.LBB97:
 1112              	.LBB95:
 1113              		.loc 3 115 19 view .LVU311
 1114 01b6 B8F91A30 		ldrsh	r3, [r8, #26]
 1115              	.LBE95:
 1116              	.LBE97:
 235:Drivers/lvgl/src/extra/widgets/imgbtn/lv_imgbtn.c ****     coords.x2 += tw;
 1117              		.loc 1 235 15 view .LVU312
 1118 01ba B8F81460 		ldrh	r6, [r8, #20]
 1119              	.LVL117:
 1120              	.LBB98:
 1121              	.LBB96:
 1122              		.loc 3 115 19 view .LVU313
 1123 01be 0193     		str	r3, [sp, #4]
 1124              	.LVL118:
 1125              		.loc 3 115 19 view .LVU314
 1126              	.LBE96:
 1127              	.LBE98:
 235:Drivers/lvgl/src/extra/widgets/imgbtn/lv_imgbtn.c ****     coords.x2 += tw;
 1128              		.loc 1 235 5 is_stmt 1 view .LVU315
 237:Drivers/lvgl/src/extra/widgets/imgbtn/lv_imgbtn.c ****     coords.y2 += th;
 1129              		.loc 1 237 15 is_stmt 0 view .LVU316
 1130 01c0 1FFA80FA 		uxth	r10, r0
ARM GAS  /var/folders/0z/tsy30v1j4xl4_7kw94k978ww0000gn/T//cc6FZVn5.s 			page 35


 1131 01c4 A7EB0A07 		sub	r7, r7, r10
 1132 01c8 BBB2     		uxth	r3, r7
 235:Drivers/lvgl/src/extra/widgets/imgbtn/lv_imgbtn.c ****     coords.x2 += tw;
 1133              		.loc 1 235 15 view .LVU317
 1134 01ca A4B2     		uxth	r4, r4
 241:Drivers/lvgl/src/extra/widgets/imgbtn/lv_imgbtn.c ****     lv_obj_init_draw_img_dsc(obj, LV_PART_MAIN, &img_dsc);
 1135              		.loc 1 241 5 view .LVU318
 1136 01cc 08A8     		add	r0, sp, #32
 1137              	.LVL119:
 235:Drivers/lvgl/src/extra/widgets/imgbtn/lv_imgbtn.c ****     coords.x2 += tw;
 1138              		.loc 1 235 15 view .LVU319
 1139 01ce 361B     		subs	r6, r6, r4
 237:Drivers/lvgl/src/extra/widgets/imgbtn/lv_imgbtn.c ****     coords.y2 += th;
 1140              		.loc 1 237 15 view .LVU320
 1141 01d0 0093     		str	r3, [sp]
 236:Drivers/lvgl/src/extra/widgets/imgbtn/lv_imgbtn.c ****     coords.y1 -= th;
 1142              		.loc 1 236 15 view .LVU321
 1143 01d2 1444     		add	r4, r4, r2
 1144              	.LVL120:
 241:Drivers/lvgl/src/extra/widgets/imgbtn/lv_imgbtn.c ****     lv_obj_init_draw_img_dsc(obj, LV_PART_MAIN, &img_dsc);
 1145              		.loc 1 241 5 view .LVU322
 1146 01d4 FFF7FEFF 		bl	lv_draw_img_dsc_init
 1147              	.LVL121:
 242:Drivers/lvgl/src/extra/widgets/imgbtn/lv_imgbtn.c **** 
 1148              		.loc 1 242 5 view .LVU323
 1149 01d8 08AA     		add	r2, sp, #32
 1150 01da 4046     		mov	r0, r8
 1151 01dc 0021     		movs	r1, #0
 235:Drivers/lvgl/src/extra/widgets/imgbtn/lv_imgbtn.c ****     coords.x2 += tw;
 1152              		.loc 1 235 15 view .LVU324
 1153 01de B6B2     		uxth	r6, r6
 1154              	.LVL122:
 236:Drivers/lvgl/src/extra/widgets/imgbtn/lv_imgbtn.c ****     coords.y1 -= th;
 1155              		.loc 1 236 5 is_stmt 1 view .LVU325
 236:Drivers/lvgl/src/extra/widgets/imgbtn/lv_imgbtn.c ****     coords.y1 -= th;
 1156              		.loc 1 236 15 is_stmt 0 view .LVU326
 1157 01e0 A4B2     		uxth	r4, r4
 1158              	.LVL123:
 237:Drivers/lvgl/src/extra/widgets/imgbtn/lv_imgbtn.c ****     coords.y2 += th;
 1159              		.loc 1 237 5 is_stmt 1 view .LVU327
 237:Drivers/lvgl/src/extra/widgets/imgbtn/lv_imgbtn.c ****     coords.y2 += th;
 1160              		.loc 1 237 15 is_stmt 0 view .LVU328
 1161 01e2 3FB2     		sxth	r7, r7
 1162              	.LVL124:
 238:Drivers/lvgl/src/extra/widgets/imgbtn/lv_imgbtn.c **** 
 1163              		.loc 1 238 5 is_stmt 1 view .LVU329
 240:Drivers/lvgl/src/extra/widgets/imgbtn/lv_imgbtn.c ****     lv_draw_img_dsc_init(&img_dsc);
 1164              		.loc 1 240 5 view .LVU330
 241:Drivers/lvgl/src/extra/widgets/imgbtn/lv_imgbtn.c ****     lv_obj_init_draw_img_dsc(obj, LV_PART_MAIN, &img_dsc);
 1165              		.loc 1 241 5 view .LVU331
 242:Drivers/lvgl/src/extra/widgets/imgbtn/lv_imgbtn.c **** 
 1166              		.loc 1 242 5 view .LVU332
 1167 01e4 FFF7FEFF 		bl	lv_obj_init_draw_img_dsc
 1168              	.LVL125:
 244:Drivers/lvgl/src/extra/widgets/imgbtn/lv_imgbtn.c ****     lv_area_t coords_part;
 1169              		.loc 1 244 5 view .LVU333
 245:Drivers/lvgl/src/extra/widgets/imgbtn/lv_imgbtn.c ****     lv_coord_t left_w = 0;
ARM GAS  /var/folders/0z/tsy30v1j4xl4_7kw94k978ww0000gn/T//cc6FZVn5.s 			page 36


 1170              		.loc 1 245 5 view .LVU334
 246:Drivers/lvgl/src/extra/widgets/imgbtn/lv_imgbtn.c ****     lv_coord_t right_w = 0;
 1171              		.loc 1 246 5 view .LVU335
 247:Drivers/lvgl/src/extra/widgets/imgbtn/lv_imgbtn.c **** 
 1172              		.loc 1 247 5 view .LVU336
 249:Drivers/lvgl/src/extra/widgets/imgbtn/lv_imgbtn.c ****         lv_img_decoder_get_info(src, &header);
 1173              		.loc 1 249 5 view .LVU337
 249:Drivers/lvgl/src/extra/widgets/imgbtn/lv_imgbtn.c ****         lv_img_decoder_get_info(src, &header);
 1174              		.loc 1 249 7 is_stmt 0 view .LVU338
 1175 01e8 BBF1000F 		cmp	fp, #0
 1176 01ec 20D0     		beq	.L67
 250:Drivers/lvgl/src/extra/widgets/imgbtn/lv_imgbtn.c ****         left_w = header.w;
 1177              		.loc 1 250 9 is_stmt 1 view .LVU339
 1178 01ee 03A9     		add	r1, sp, #12
 1179 01f0 5846     		mov	r0, fp
 1180 01f2 FFF7FEFF 		bl	lv_img_decoder_get_info
 1181              	.LVL126:
 251:Drivers/lvgl/src/extra/widgets/imgbtn/lv_imgbtn.c ****         coords_part.x1 = coords.x1;
 1182              		.loc 1 251 9 view .LVU340
 255:Drivers/lvgl/src/extra/widgets/imgbtn/lv_imgbtn.c ****         lv_draw_img(draw_ctx, &img_dsc, &coords_part, src);
 1183              		.loc 1 255 44 is_stmt 0 view .LVU341
 1184 01f6 BDF80E20 		ldrh	r2, [sp, #14]
 255:Drivers/lvgl/src/extra/widgets/imgbtn/lv_imgbtn.c ****         lv_draw_img(draw_ctx, &img_dsc, &coords_part, src);
 1185              		.loc 1 255 47 view .LVU342
 1186 01fa 0098     		ldr	r0, [sp]
 251:Drivers/lvgl/src/extra/widgets/imgbtn/lv_imgbtn.c ****         coords_part.x1 = coords.x1;
 1187              		.loc 1 251 24 view .LVU343
 1188 01fc 0399     		ldr	r1, [sp, #12]
 252:Drivers/lvgl/src/extra/widgets/imgbtn/lv_imgbtn.c ****         coords_part.y1 = coords.y1;
 1189              		.loc 1 252 24 view .LVU344
 1190 01fe ADF81060 		strh	r6, [sp, #16]	@ movhi
 255:Drivers/lvgl/src/extra/widgets/imgbtn/lv_imgbtn.c ****         lv_draw_img(draw_ctx, &img_dsc, &coords_part, src);
 1191              		.loc 1 255 44 view .LVU345
 1192 0202 C2F34A12 		ubfx	r2, r2, #5, #11
 255:Drivers/lvgl/src/extra/widgets/imgbtn/lv_imgbtn.c ****         lv_draw_img(draw_ctx, &img_dsc, &coords_part, src);
 1193              		.loc 1 255 47 view .LVU346
 1194 0206 013A     		subs	r2, r2, #1
 1195 0208 0244     		add	r2, r2, r0
 255:Drivers/lvgl/src/extra/widgets/imgbtn/lv_imgbtn.c ****         lv_draw_img(draw_ctx, &img_dsc, &coords_part, src);
 1196              		.loc 1 255 24 view .LVU347
 1197 020a ADF81620 		strh	r2, [sp, #22]	@ movhi
 251:Drivers/lvgl/src/extra/widgets/imgbtn/lv_imgbtn.c ****         coords_part.x1 = coords.x1;
 1198              		.loc 1 251 24 view .LVU348
 1199 020e C1F38A22 		ubfx	r2, r1, #10, #11
 254:Drivers/lvgl/src/extra/widgets/imgbtn/lv_imgbtn.c ****         coords_part.y2 = coords.y1 + header.h - 1;
 1200              		.loc 1 254 47 view .LVU349
 1201 0212 013A     		subs	r2, r2, #1
 1202 0214 3244     		add	r2, r2, r6
 254:Drivers/lvgl/src/extra/widgets/imgbtn/lv_imgbtn.c ****         coords_part.y2 = coords.y1 + header.h - 1;
 1203              		.loc 1 254 24 view .LVU350
 1204 0216 ADF81420 		strh	r2, [sp, #20]	@ movhi
 251:Drivers/lvgl/src/extra/widgets/imgbtn/lv_imgbtn.c ****         coords_part.x1 = coords.x1;
 1205              		.loc 1 251 16 view .LVU351
 1206 021a C1F38A22 		ubfx	r2, r1, #10, #11
 256:Drivers/lvgl/src/extra/widgets/imgbtn/lv_imgbtn.c ****     }
 1207              		.loc 1 256 9 view .LVU352
 1208 021e 5B46     		mov	r3, fp
ARM GAS  /var/folders/0z/tsy30v1j4xl4_7kw94k978ww0000gn/T//cc6FZVn5.s 			page 37


 1209 0220 08A9     		add	r1, sp, #32
 251:Drivers/lvgl/src/extra/widgets/imgbtn/lv_imgbtn.c ****         coords_part.x1 = coords.x1;
 1210              		.loc 1 251 16 view .LVU353
 1211 0222 9346     		mov	fp, r2
 1212              	.LVL127:
 252:Drivers/lvgl/src/extra/widgets/imgbtn/lv_imgbtn.c ****         coords_part.y1 = coords.y1;
 1213              		.loc 1 252 9 is_stmt 1 view .LVU354
 253:Drivers/lvgl/src/extra/widgets/imgbtn/lv_imgbtn.c ****         coords_part.x2 = coords.x1 + header.w - 1;
 1214              		.loc 1 253 9 view .LVU355
 254:Drivers/lvgl/src/extra/widgets/imgbtn/lv_imgbtn.c ****         coords_part.y2 = coords.y1 + header.h - 1;
 1215              		.loc 1 254 9 view .LVU356
 255:Drivers/lvgl/src/extra/widgets/imgbtn/lv_imgbtn.c ****         lv_draw_img(draw_ctx, &img_dsc, &coords_part, src);
 1216              		.loc 1 255 9 view .LVU357
 256:Drivers/lvgl/src/extra/widgets/imgbtn/lv_imgbtn.c ****     }
 1217              		.loc 1 256 9 view .LVU358
 1218 0224 4846     		mov	r0, r9
 1219 0226 04AA     		add	r2, sp, #16
 253:Drivers/lvgl/src/extra/widgets/imgbtn/lv_imgbtn.c ****         coords_part.x2 = coords.x1 + header.w - 1;
 1220              		.loc 1 253 24 is_stmt 0 view .LVU359
 1221 0228 ADF81270 		strh	r7, [sp, #18]	@ movhi
 256:Drivers/lvgl/src/extra/widgets/imgbtn/lv_imgbtn.c ****     }
 1222              		.loc 1 256 9 view .LVU360
 1223 022c FFF7FEFF 		bl	lv_draw_img
 1224              	.LVL128:
 1225              	.L67:
 259:Drivers/lvgl/src/extra/widgets/imgbtn/lv_imgbtn.c ****     if(src) {
 1226              		.loc 1 259 5 is_stmt 1 view .LVU361
 259:Drivers/lvgl/src/extra/widgets/imgbtn/lv_imgbtn.c ****     if(src) {
 1227              		.loc 1 259 9 is_stmt 0 view .LVU362
 1228 0230 D5F85480 		ldr	r8, [r5, #84]
 1229              	.LVL129:
 260:Drivers/lvgl/src/extra/widgets/imgbtn/lv_imgbtn.c ****         lv_img_decoder_get_info(src, &header);
 1230              		.loc 1 260 5 is_stmt 1 view .LVU363
 260:Drivers/lvgl/src/extra/widgets/imgbtn/lv_imgbtn.c ****         lv_img_decoder_get_info(src, &header);
 1231              		.loc 1 260 7 is_stmt 0 view .LVU364
 1232 0234 B8F1000F 		cmp	r8, #0
 1233 0238 20D0     		beq	.L68
 261:Drivers/lvgl/src/extra/widgets/imgbtn/lv_imgbtn.c ****         right_w = header.w;
 1234              		.loc 1 261 9 is_stmt 1 view .LVU365
 1235 023a 03A9     		add	r1, sp, #12
 1236 023c 4046     		mov	r0, r8
 1237 023e FFF7FEFF 		bl	lv_img_decoder_get_info
 1238              	.LVL130:
 262:Drivers/lvgl/src/extra/widgets/imgbtn/lv_imgbtn.c ****         coords_part.x1 = coords.x2 - header.w + 1;
 1239              		.loc 1 262 9 view .LVU366
 266:Drivers/lvgl/src/extra/widgets/imgbtn/lv_imgbtn.c ****         lv_draw_img(draw_ctx, &img_dsc, &coords_part, src);
 1240              		.loc 1 266 44 is_stmt 0 view .LVU367
 1241 0242 BDF80E20 		ldrh	r2, [sp, #14]
 266:Drivers/lvgl/src/extra/widgets/imgbtn/lv_imgbtn.c ****         lv_draw_img(draw_ctx, &img_dsc, &coords_part, src);
 1242              		.loc 1 266 47 view .LVU368
 1243 0246 0098     		ldr	r0, [sp]
 262:Drivers/lvgl/src/extra/widgets/imgbtn/lv_imgbtn.c ****         coords_part.x1 = coords.x2 - header.w + 1;
 1244              		.loc 1 262 25 view .LVU369
 1245 0248 0399     		ldr	r1, [sp, #12]
 264:Drivers/lvgl/src/extra/widgets/imgbtn/lv_imgbtn.c ****         coords_part.x2 = coords.x2;
 1246              		.loc 1 264 24 view .LVU370
 1247 024a ADF81270 		strh	r7, [sp, #18]	@ movhi
ARM GAS  /var/folders/0z/tsy30v1j4xl4_7kw94k978ww0000gn/T//cc6FZVn5.s 			page 38


 266:Drivers/lvgl/src/extra/widgets/imgbtn/lv_imgbtn.c ****         lv_draw_img(draw_ctx, &img_dsc, &coords_part, src);
 1248              		.loc 1 266 44 view .LVU371
 1249 024e C2F34A12 		ubfx	r2, r2, #5, #11
 266:Drivers/lvgl/src/extra/widgets/imgbtn/lv_imgbtn.c ****         lv_draw_img(draw_ctx, &img_dsc, &coords_part, src);
 1250              		.loc 1 266 47 view .LVU372
 1251 0252 013A     		subs	r2, r2, #1
 1252 0254 0244     		add	r2, r2, r0
 266:Drivers/lvgl/src/extra/widgets/imgbtn/lv_imgbtn.c ****         lv_draw_img(draw_ctx, &img_dsc, &coords_part, src);
 1253              		.loc 1 266 24 view .LVU373
 1254 0256 ADF81620 		strh	r2, [sp, #22]	@ movhi
 262:Drivers/lvgl/src/extra/widgets/imgbtn/lv_imgbtn.c ****         coords_part.x1 = coords.x2 - header.w + 1;
 1255              		.loc 1 262 25 view .LVU374
 1256 025a C1F38A22 		ubfx	r2, r1, #10, #11
 263:Drivers/lvgl/src/extra/widgets/imgbtn/lv_imgbtn.c ****         coords_part.y1 = coords.y1;
 1257              		.loc 1 263 47 view .LVU375
 1258 025e C2F10102 		rsb	r2, r2, #1
 1259 0262 2244     		add	r2, r2, r4
 267:Drivers/lvgl/src/extra/widgets/imgbtn/lv_imgbtn.c ****     }
 1260              		.loc 1 267 9 view .LVU376
 1261 0264 4346     		mov	r3, r8
 263:Drivers/lvgl/src/extra/widgets/imgbtn/lv_imgbtn.c ****         coords_part.y1 = coords.y1;
 1262              		.loc 1 263 24 view .LVU377
 1263 0266 ADF81020 		strh	r2, [sp, #16]	@ movhi
 262:Drivers/lvgl/src/extra/widgets/imgbtn/lv_imgbtn.c ****         coords_part.x1 = coords.x2 - header.w + 1;
 1264              		.loc 1 262 17 view .LVU378
 1265 026a C1F38A28 		ubfx	r8, r1, #10, #11
 1266              	.LVL131:
 263:Drivers/lvgl/src/extra/widgets/imgbtn/lv_imgbtn.c ****         coords_part.y1 = coords.y1;
 1267              		.loc 1 263 9 is_stmt 1 view .LVU379
 264:Drivers/lvgl/src/extra/widgets/imgbtn/lv_imgbtn.c ****         coords_part.x2 = coords.x2;
 1268              		.loc 1 264 9 view .LVU380
 265:Drivers/lvgl/src/extra/widgets/imgbtn/lv_imgbtn.c ****         coords_part.y2 = coords.y1 + header.h - 1;
 1269              		.loc 1 265 9 view .LVU381
 266:Drivers/lvgl/src/extra/widgets/imgbtn/lv_imgbtn.c ****         lv_draw_img(draw_ctx, &img_dsc, &coords_part, src);
 1270              		.loc 1 266 9 view .LVU382
 267:Drivers/lvgl/src/extra/widgets/imgbtn/lv_imgbtn.c ****     }
 1271              		.loc 1 267 9 view .LVU383
 1272 026e 04AA     		add	r2, sp, #16
 1273 0270 08A9     		add	r1, sp, #32
 1274              	.LVL132:
 267:Drivers/lvgl/src/extra/widgets/imgbtn/lv_imgbtn.c ****     }
 1275              		.loc 1 267 9 is_stmt 0 view .LVU384
 1276 0272 4846     		mov	r0, r9
 265:Drivers/lvgl/src/extra/widgets/imgbtn/lv_imgbtn.c ****         coords_part.y2 = coords.y1 + header.h - 1;
 1277              		.loc 1 265 24 view .LVU385
 1278 0274 ADF81440 		strh	r4, [sp, #20]	@ movhi
 267:Drivers/lvgl/src/extra/widgets/imgbtn/lv_imgbtn.c ****     }
 1279              		.loc 1 267 9 view .LVU386
 1280 0278 FFF7FEFF 		bl	lv_draw_img
 1281              	.LVL133:
 1282              	.L68:
 270:Drivers/lvgl/src/extra/widgets/imgbtn/lv_imgbtn.c ****     if(src) {
 1283              		.loc 1 270 5 is_stmt 1 view .LVU387
 270:Drivers/lvgl/src/extra/widgets/imgbtn/lv_imgbtn.c ****     if(src) {
 1284              		.loc 1 270 9 is_stmt 0 view .LVU388
 1285 027c 6D6A     		ldr	r5, [r5, #36]
 1286              	.LVL134:
ARM GAS  /var/folders/0z/tsy30v1j4xl4_7kw94k978ww0000gn/T//cc6FZVn5.s 			page 39


 271:Drivers/lvgl/src/extra/widgets/imgbtn/lv_imgbtn.c ****         lv_area_t clip_area_center;
 1287              		.loc 1 271 5 is_stmt 1 view .LVU389
 271:Drivers/lvgl/src/extra/widgets/imgbtn/lv_imgbtn.c ****         lv_area_t clip_area_center;
 1288              		.loc 1 271 7 is_stmt 0 view .LVU390
 1289 027e 002D     		cmp	r5, #0
 1290 0280 3FF4C7AE 		beq	.L57
 1291              	.LBB99:
 272:Drivers/lvgl/src/extra/widgets/imgbtn/lv_imgbtn.c ****         clip_area_center.x1 = coords.x1 + left_w;
 1292              		.loc 1 272 9 is_stmt 1 view .LVU391
 273:Drivers/lvgl/src/extra/widgets/imgbtn/lv_imgbtn.c ****         clip_area_center.x2 = coords.x2 - right_w;
 1293              		.loc 1 273 9 view .LVU392
 1294              	.LBE99:
 238:Drivers/lvgl/src/extra/widgets/imgbtn/lv_imgbtn.c **** 
 1295              		.loc 1 238 15 is_stmt 0 view .LVU393
 1296 0284 019B     		ldr	r3, [sp, #4]
 1297              	.LBB101:
 280:Drivers/lvgl/src/extra/widgets/imgbtn/lv_imgbtn.c ****         if(comm_res) {
 1298              		.loc 1 280 20 view .LVU394
 1299 0286 D9F80820 		ldr	r2, [r9, #8]
 275:Drivers/lvgl/src/extra/widgets/imgbtn/lv_imgbtn.c ****         clip_area_center.y2 = coords.y2;
 1300              		.loc 1 275 29 view .LVU395
 1301 028a ADF81A70 		strh	r7, [sp, #26]	@ movhi
 273:Drivers/lvgl/src/extra/widgets/imgbtn/lv_imgbtn.c ****         clip_area_center.x2 = coords.x2 - right_w;
 1302              		.loc 1 273 41 view .LVU396
 1303 028e 5E44     		add	r6, r6, fp
 1304              	.LVL135:
 274:Drivers/lvgl/src/extra/widgets/imgbtn/lv_imgbtn.c ****         clip_area_center.y1 = coords.y1;
 1305              		.loc 1 274 41 view .LVU397
 1306 0290 A4EB0804 		sub	r4, r4, r8
 1307              	.LVL136:
 280:Drivers/lvgl/src/extra/widgets/imgbtn/lv_imgbtn.c ****         if(comm_res) {
 1308              		.loc 1 280 20 view .LVU398
 1309 0294 06A9     		add	r1, sp, #24
 1310              	.LBE101:
 238:Drivers/lvgl/src/extra/widgets/imgbtn/lv_imgbtn.c **** 
 1311              		.loc 1 238 15 view .LVU399
 1312 0296 9A44     		add	r10, r10, r3
 1313              	.LVL137:
 1314              	.LBB102:
 274:Drivers/lvgl/src/extra/widgets/imgbtn/lv_imgbtn.c ****         clip_area_center.y1 = coords.y1;
 1315              		.loc 1 274 29 view .LVU400
 1316 0298 ADF81C40 		strh	r4, [sp, #28]	@ movhi
 280:Drivers/lvgl/src/extra/widgets/imgbtn/lv_imgbtn.c ****         if(comm_res) {
 1317              		.loc 1 280 20 view .LVU401
 1318 029c 0846     		mov	r0, r1
 273:Drivers/lvgl/src/extra/widgets/imgbtn/lv_imgbtn.c ****         clip_area_center.x2 = coords.x2 - right_w;
 1319              		.loc 1 273 41 view .LVU402
 1320 029e 34B2     		sxth	r4, r6
 276:Drivers/lvgl/src/extra/widgets/imgbtn/lv_imgbtn.c **** 
 1321              		.loc 1 276 29 view .LVU403
 1322 02a0 ADF81EA0 		strh	r10, [sp, #30]	@ movhi
 273:Drivers/lvgl/src/extra/widgets/imgbtn/lv_imgbtn.c ****         clip_area_center.x2 = coords.x2 - right_w;
 1323              		.loc 1 273 41 view .LVU404
 1324 02a4 B6B2     		uxth	r6, r6
 273:Drivers/lvgl/src/extra/widgets/imgbtn/lv_imgbtn.c ****         clip_area_center.x2 = coords.x2 - right_w;
 1325              		.loc 1 273 29 view .LVU405
 1326 02a6 ADF81840 		strh	r4, [sp, #24]	@ movhi
ARM GAS  /var/folders/0z/tsy30v1j4xl4_7kw94k978ww0000gn/T//cc6FZVn5.s 			page 40


 274:Drivers/lvgl/src/extra/widgets/imgbtn/lv_imgbtn.c ****         clip_area_center.y1 = coords.y1;
 1327              		.loc 1 274 9 is_stmt 1 view .LVU406
 275:Drivers/lvgl/src/extra/widgets/imgbtn/lv_imgbtn.c ****         clip_area_center.y2 = coords.y2;
 1328              		.loc 1 275 9 view .LVU407
 276:Drivers/lvgl/src/extra/widgets/imgbtn/lv_imgbtn.c **** 
 1329              		.loc 1 276 9 view .LVU408
 279:Drivers/lvgl/src/extra/widgets/imgbtn/lv_imgbtn.c ****         comm_res = _lv_area_intersect(&clip_area_center, &clip_area_center, draw_ctx->clip_area);
 1330              		.loc 1 279 9 view .LVU409
 280:Drivers/lvgl/src/extra/widgets/imgbtn/lv_imgbtn.c ****         if(comm_res) {
 1331              		.loc 1 280 9 view .LVU410
 280:Drivers/lvgl/src/extra/widgets/imgbtn/lv_imgbtn.c ****         if(comm_res) {
 1332              		.loc 1 280 20 is_stmt 0 view .LVU411
 1333 02aa FFF7FEFF 		bl	_lv_area_intersect
 1334              	.LVL138:
 281:Drivers/lvgl/src/extra/widgets/imgbtn/lv_imgbtn.c ****             lv_coord_t i;
 1335              		.loc 1 281 9 is_stmt 1 view .LVU412
 281:Drivers/lvgl/src/extra/widgets/imgbtn/lv_imgbtn.c ****             lv_coord_t i;
 1336              		.loc 1 281 11 is_stmt 0 view .LVU413
 1337 02ae 0028     		cmp	r0, #0
 1338 02b0 3FF4AFAE 		beq	.L57
 1339              	.LBB100:
 282:Drivers/lvgl/src/extra/widgets/imgbtn/lv_imgbtn.c ****             lv_img_decoder_get_info(src, &header);
 1340              		.loc 1 282 13 is_stmt 1 view .LVU414
 283:Drivers/lvgl/src/extra/widgets/imgbtn/lv_imgbtn.c **** 
 1341              		.loc 1 283 13 view .LVU415
 1342 02b4 03A9     		add	r1, sp, #12
 1343 02b6 2846     		mov	r0, r5
 1344              	.LVL139:
 283:Drivers/lvgl/src/extra/widgets/imgbtn/lv_imgbtn.c **** 
 1345              		.loc 1 283 13 is_stmt 0 view .LVU416
 1346 02b8 FFF7FEFF 		bl	lv_img_decoder_get_info
 1347              	.LVL140:
 285:Drivers/lvgl/src/extra/widgets/imgbtn/lv_imgbtn.c ****             draw_ctx->clip_area = &clip_area_center;
 1348              		.loc 1 285 13 is_stmt 1 view .LVU417
 291:Drivers/lvgl/src/extra/widgets/imgbtn/lv_imgbtn.c **** 
 1349              		.loc 1 291 53 is_stmt 0 view .LVU418
 1350 02bc BDF80E30 		ldrh	r3, [sp, #14]
 291:Drivers/lvgl/src/extra/widgets/imgbtn/lv_imgbtn.c **** 
 1351              		.loc 1 291 56 view .LVU419
 1352 02c0 0099     		ldr	r1, [sp]
 290:Drivers/lvgl/src/extra/widgets/imgbtn/lv_imgbtn.c ****             coords_part.y2 = coords_part.y1 + header.h - 1;
 1353              		.loc 1 290 53 view .LVU420
 1354 02c2 039A     		ldr	r2, [sp, #12]
 289:Drivers/lvgl/src/extra/widgets/imgbtn/lv_imgbtn.c ****             coords_part.x2 = coords_part.x1 + header.w - 1;
 1355              		.loc 1 289 28 view .LVU421
 1356 02c4 ADF81270 		strh	r7, [sp, #18]	@ movhi
 291:Drivers/lvgl/src/extra/widgets/imgbtn/lv_imgbtn.c **** 
 1357              		.loc 1 291 53 view .LVU422
 1358 02c8 C3F34A13 		ubfx	r3, r3, #5, #11
 291:Drivers/lvgl/src/extra/widgets/imgbtn/lv_imgbtn.c **** 
 1359              		.loc 1 291 56 view .LVU423
 1360 02cc 013B     		subs	r3, r3, #1
 1361 02ce 1944     		add	r1, r1, r3
 293:Drivers/lvgl/src/extra/widgets/imgbtn/lv_imgbtn.c ****                 lv_draw_img(draw_ctx, &img_dsc, &coords_part, src);
 1362              		.loc 1 293 74 view .LVU424
 1363 02d0 BDF81C30 		ldrh	r3, [sp, #28]
 288:Drivers/lvgl/src/extra/widgets/imgbtn/lv_imgbtn.c ****             coords_part.y1 = coords.y1;
ARM GAS  /var/folders/0z/tsy30v1j4xl4_7kw94k978ww0000gn/T//cc6FZVn5.s 			page 41


 1364              		.loc 1 288 28 view .LVU425
 1365 02d4 ADF81040 		strh	r4, [sp, #16]	@ movhi
 290:Drivers/lvgl/src/extra/widgets/imgbtn/lv_imgbtn.c ****             coords_part.y2 = coords_part.y1 + header.h - 1;
 1366              		.loc 1 290 53 view .LVU426
 1367 02d8 C2F38A22 		ubfx	r2, r2, #10, #11
 293:Drivers/lvgl/src/extra/widgets/imgbtn/lv_imgbtn.c ****                 lv_draw_img(draw_ctx, &img_dsc, &coords_part, src);
 1368              		.loc 1 293 74 view .LVU427
 1369 02dc 1344     		add	r3, r3, r2
 293:Drivers/lvgl/src/extra/widgets/imgbtn/lv_imgbtn.c ****                 lv_draw_img(draw_ctx, &img_dsc, &coords_part, src);
 1370              		.loc 1 293 85 view .LVU428
 1371 02de 013B     		subs	r3, r3, #1
 290:Drivers/lvgl/src/extra/widgets/imgbtn/lv_imgbtn.c ****             coords_part.y2 = coords_part.y1 + header.h - 1;
 1372              		.loc 1 290 56 view .LVU429
 1373 02e0 013A     		subs	r2, r2, #1
 293:Drivers/lvgl/src/extra/widgets/imgbtn/lv_imgbtn.c ****                 lv_draw_img(draw_ctx, &img_dsc, &coords_part, src);
 1374              		.loc 1 293 39 view .LVU430
 1375 02e2 1BB2     		sxth	r3, r3
 290:Drivers/lvgl/src/extra/widgets/imgbtn/lv_imgbtn.c ****             coords_part.y2 = coords_part.y1 + header.h - 1;
 1376              		.loc 1 290 56 view .LVU431
 1377 02e4 1644     		add	r6, r6, r2
 293:Drivers/lvgl/src/extra/widgets/imgbtn/lv_imgbtn.c ****                 lv_draw_img(draw_ctx, &img_dsc, &coords_part, src);
 1378              		.loc 1 293 39 view .LVU432
 1379 02e6 9C42     		cmp	r4, r3
 286:Drivers/lvgl/src/extra/widgets/imgbtn/lv_imgbtn.c **** 
 1380              		.loc 1 286 33 view .LVU433
 1381 02e8 06AA     		add	r2, sp, #24
 290:Drivers/lvgl/src/extra/widgets/imgbtn/lv_imgbtn.c ****             coords_part.y2 = coords_part.y1 + header.h - 1;
 1382              		.loc 1 290 28 view .LVU434
 1383 02ea ADF81460 		strh	r6, [sp, #20]	@ movhi
 291:Drivers/lvgl/src/extra/widgets/imgbtn/lv_imgbtn.c **** 
 1384              		.loc 1 291 28 view .LVU435
 1385 02ee ADF81610 		strh	r1, [sp, #22]	@ movhi
 285:Drivers/lvgl/src/extra/widgets/imgbtn/lv_imgbtn.c ****             draw_ctx->clip_area = &clip_area_center;
 1386              		.loc 1 285 31 view .LVU436
 1387 02f2 D9F80860 		ldr	r6, [r9, #8]
 1388              	.LVL141:
 286:Drivers/lvgl/src/extra/widgets/imgbtn/lv_imgbtn.c **** 
 1389              		.loc 1 286 13 is_stmt 1 view .LVU437
 286:Drivers/lvgl/src/extra/widgets/imgbtn/lv_imgbtn.c **** 
 1390              		.loc 1 286 33 is_stmt 0 view .LVU438
 1391 02f6 C9F80820 		str	r2, [r9, #8]
 288:Drivers/lvgl/src/extra/widgets/imgbtn/lv_imgbtn.c ****             coords_part.y1 = coords.y1;
 1392              		.loc 1 288 13 is_stmt 1 view .LVU439
 289:Drivers/lvgl/src/extra/widgets/imgbtn/lv_imgbtn.c ****             coords_part.x2 = coords_part.x1 + header.w - 1;
 1393              		.loc 1 289 13 view .LVU440
 290:Drivers/lvgl/src/extra/widgets/imgbtn/lv_imgbtn.c ****             coords_part.y2 = coords_part.y1 + header.h - 1;
 1394              		.loc 1 290 13 view .LVU441
 291:Drivers/lvgl/src/extra/widgets/imgbtn/lv_imgbtn.c **** 
 1395              		.loc 1 291 13 view .LVU442
 293:Drivers/lvgl/src/extra/widgets/imgbtn/lv_imgbtn.c ****                 lv_draw_img(draw_ctx, &img_dsc, &coords_part, src);
 1396              		.loc 1 293 13 view .LVU443
 1397              	.LVL142:
 293:Drivers/lvgl/src/extra/widgets/imgbtn/lv_imgbtn.c ****                 lv_draw_img(draw_ctx, &img_dsc, &coords_part, src);
 1398              		.loc 1 293 39 view .LVU444
 1399 02fa 1ADA     		bge	.L72
 1400              	.L71:
 294:Drivers/lvgl/src/extra/widgets/imgbtn/lv_imgbtn.c ****                 coords_part.x1 = coords_part.x2 + 1;
ARM GAS  /var/folders/0z/tsy30v1j4xl4_7kw94k978ww0000gn/T//cc6FZVn5.s 			page 42


 1401              		.loc 1 294 17 view .LVU445
 1402 02fc 2B46     		mov	r3, r5
 1403 02fe 04AA     		add	r2, sp, #16
 1404 0300 08A9     		add	r1, sp, #32
 1405 0302 4846     		mov	r0, r9
 1406 0304 FFF7FEFF 		bl	lv_draw_img
 1407              	.LVL143:
 295:Drivers/lvgl/src/extra/widgets/imgbtn/lv_imgbtn.c ****                 coords_part.x2 += header.w;
 1408              		.loc 1 295 17 view .LVU446
 296:Drivers/lvgl/src/extra/widgets/imgbtn/lv_imgbtn.c ****             }
 1409              		.loc 1 296 41 is_stmt 0 view .LVU447
 1410 0308 0399     		ldr	r1, [sp, #12]
 293:Drivers/lvgl/src/extra/widgets/imgbtn/lv_imgbtn.c ****                 lv_draw_img(draw_ctx, &img_dsc, &coords_part, src);
 1411              		.loc 1 293 74 view .LVU448
 1412 030a BDF81C20 		ldrh	r2, [sp, #28]
 295:Drivers/lvgl/src/extra/widgets/imgbtn/lv_imgbtn.c ****                 coords_part.x2 += header.w;
 1413              		.loc 1 295 45 view .LVU449
 1414 030e BDF81430 		ldrh	r3, [sp, #20]
 296:Drivers/lvgl/src/extra/widgets/imgbtn/lv_imgbtn.c ****             }
 1415              		.loc 1 296 41 view .LVU450
 1416 0312 C1F38A21 		ubfx	r1, r1, #10, #11
 293:Drivers/lvgl/src/extra/widgets/imgbtn/lv_imgbtn.c ****                 lv_draw_img(draw_ctx, &img_dsc, &coords_part, src);
 1417              		.loc 1 293 74 view .LVU451
 1418 0316 0A44     		add	r2, r2, r1
 293:Drivers/lvgl/src/extra/widgets/imgbtn/lv_imgbtn.c ****                 lv_draw_img(draw_ctx, &img_dsc, &coords_part, src);
 1419              		.loc 1 293 93 view .LVU452
 1420 0318 0C44     		add	r4, r4, r1
 1421              	.LVL144:
 293:Drivers/lvgl/src/extra/widgets/imgbtn/lv_imgbtn.c ****                 lv_draw_img(draw_ctx, &img_dsc, &coords_part, src);
 1422              		.loc 1 293 85 view .LVU453
 1423 031a 013A     		subs	r2, r2, #1
 293:Drivers/lvgl/src/extra/widgets/imgbtn/lv_imgbtn.c ****                 lv_draw_img(draw_ctx, &img_dsc, &coords_part, src);
 1424              		.loc 1 293 93 view .LVU454
 1425 031c 24B2     		sxth	r4, r4
 293:Drivers/lvgl/src/extra/widgets/imgbtn/lv_imgbtn.c ****                 lv_draw_img(draw_ctx, &img_dsc, &coords_part, src);
 1426              		.loc 1 293 39 view .LVU455
 1427 031e 12B2     		sxth	r2, r2
 296:Drivers/lvgl/src/extra/widgets/imgbtn/lv_imgbtn.c ****             }
 1428              		.loc 1 296 32 view .LVU456
 1429 0320 1944     		add	r1, r1, r3
 293:Drivers/lvgl/src/extra/widgets/imgbtn/lv_imgbtn.c ****                 lv_draw_img(draw_ctx, &img_dsc, &coords_part, src);
 1430              		.loc 1 293 39 view .LVU457
 1431 0322 9442     		cmp	r4, r2
 295:Drivers/lvgl/src/extra/widgets/imgbtn/lv_imgbtn.c ****                 coords_part.x2 += header.w;
 1432              		.loc 1 295 49 view .LVU458
 1433 0324 03F10103 		add	r3, r3, #1
 296:Drivers/lvgl/src/extra/widgets/imgbtn/lv_imgbtn.c ****             }
 1434              		.loc 1 296 32 view .LVU459
 1435 0328 ADF81410 		strh	r1, [sp, #20]	@ movhi
 295:Drivers/lvgl/src/extra/widgets/imgbtn/lv_imgbtn.c ****                 coords_part.x2 += header.w;
 1436              		.loc 1 295 32 view .LVU460
 1437 032c ADF81030 		strh	r3, [sp, #16]	@ movhi
 296:Drivers/lvgl/src/extra/widgets/imgbtn/lv_imgbtn.c ****             }
 1438              		.loc 1 296 17 is_stmt 1 view .LVU461
 293:Drivers/lvgl/src/extra/widgets/imgbtn/lv_imgbtn.c ****                 lv_draw_img(draw_ctx, &img_dsc, &coords_part, src);
 1439              		.loc 1 293 93 view .LVU462
 1440              	.LVL145:
ARM GAS  /var/folders/0z/tsy30v1j4xl4_7kw94k978ww0000gn/T//cc6FZVn5.s 			page 43


 293:Drivers/lvgl/src/extra/widgets/imgbtn/lv_imgbtn.c ****                 lv_draw_img(draw_ctx, &img_dsc, &coords_part, src);
 1441              		.loc 1 293 39 view .LVU463
 1442 0330 E4DB     		blt	.L71
 1443              	.L72:
 298:Drivers/lvgl/src/extra/widgets/imgbtn/lv_imgbtn.c ****         }
 1444              		.loc 1 298 13 view .LVU464
 298:Drivers/lvgl/src/extra/widgets/imgbtn/lv_imgbtn.c ****         }
 1445              		.loc 1 298 33 is_stmt 0 view .LVU465
 1446 0332 C9F80860 		str	r6, [r9, #8]
 1447 0336 6CE6     		b	.L57
 1448              	.LVL146:
 1449              	.L82:
 298:Drivers/lvgl/src/extra/widgets/imgbtn/lv_imgbtn.c ****         }
 1450              		.loc 1 298 33 view .LVU466
 1451              	.LBE100:
 1452              	.LBE102:
 1453              	.LBE79:
 1454              	.LBE78:
 214:Drivers/lvgl/src/extra/widgets/imgbtn/lv_imgbtn.c ****         }
 1455              		.loc 1 214 13 is_stmt 1 view .LVU467
 1456              	.LBB105:
 1457              	.LBI52:
  93:Drivers/lvgl/src/extra/widgets/imgbtn/lv_imgbtn.c **** {
 1458              		.loc 1 93 6 view .LVU468
 1459              	.LBB55:
  95:Drivers/lvgl/src/extra/widgets/imgbtn/lv_imgbtn.c **** 
 1460              		.loc 1 95 5 view .LVU469
  95:Drivers/lvgl/src/extra/widgets/imgbtn/lv_imgbtn.c **** 
 1461              		.loc 1 95 5 view .LVU470
  95:Drivers/lvgl/src/extra/widgets/imgbtn/lv_imgbtn.c **** 
 1462              		.loc 1 95 5 view .LVU471
  97:Drivers/lvgl/src/extra/widgets/imgbtn/lv_imgbtn.c ****     if(state == LV_IMGBTN_STATE_PRESSED || state == LV_IMGBTN_STATE_CHECKED_PRESSED) obj_state |= L
 1463              		.loc 1 97 5 view .LVU472
  98:Drivers/lvgl/src/extra/widgets/imgbtn/lv_imgbtn.c ****     if(state == LV_IMGBTN_STATE_DISABLED || state == LV_IMGBTN_STATE_CHECKED_DISABLED) obj_state |=
 1464              		.loc 1 98 5 view .LVU473
  99:Drivers/lvgl/src/extra/widgets/imgbtn/lv_imgbtn.c ****     if(state == LV_IMGBTN_STATE_CHECKED_DISABLED || state == LV_IMGBTN_STATE_CHECKED_PRESSED ||
 1465              		.loc 1 99 5 view .LVU474
 100:Drivers/lvgl/src/extra/widgets/imgbtn/lv_imgbtn.c ****        state == LV_IMGBTN_STATE_CHECKED_RELEASED) {
 1466              		.loc 1 100 5 view .LVU475
 105:Drivers/lvgl/src/extra/widgets/imgbtn/lv_imgbtn.c ****     lv_obj_add_state(obj, obj_state);
 1467              		.loc 1 105 5 view .LVU476
 1468 0338 FFF7FEFF 		bl	lv_obj_clear_state
 1469              	.LVL147:
 106:Drivers/lvgl/src/extra/widgets/imgbtn/lv_imgbtn.c **** 
 1470              		.loc 1 106 5 view .LVU477
 1471 033c 2146     		mov	r1, r4
 1472 033e DBE6     		b	.L114
 1473              	.LVL148:
 1474              	.L117:
 106:Drivers/lvgl/src/extra/widgets/imgbtn/lv_imgbtn.c **** 
 1475              		.loc 1 106 5 is_stmt 0 view .LVU478
 1476              	.LBE55:
 1477              	.LBE105:
 1478              	.LBB106:
 1479              	.LBB104:
 1480              	.LBB103:
 1481              	.LBB82:
ARM GAS  /var/folders/0z/tsy30v1j4xl4_7kw94k978ww0000gn/T//cc6FZVn5.s 			page 44


 1482 0340 0146     		mov	r1, r0
 1483 0342 4046     		mov	r0, r8
 1484              	.LVL149:
 106:Drivers/lvgl/src/extra/widgets/imgbtn/lv_imgbtn.c **** 
 1485              		.loc 1 106 5 view .LVU479
 1486 0344 FFF7FEFF 		bl	suggest_state.part.0
 1487              	.LVL150:
 106:Drivers/lvgl/src/extra/widgets/imgbtn/lv_imgbtn.c **** 
 1488              		.loc 1 106 5 view .LVU480
 1489 0348 22E7     		b	.L66
 1490              	.L121:
 1491 034a 00BF     		.align	2
 1492              	.L120:
 1493 034c 00000000 		.word	.LANCHOR0
 1494              	.LVL151:
 1495              	.L116:
 106:Drivers/lvgl/src/extra/widgets/imgbtn/lv_imgbtn.c **** 
 1496              		.loc 1 106 5 view .LVU481
 1497              	.LBE82:
 1498              	.LBE103:
 1499              	.LBE104:
 1500              	.LBE106:
 1501              	.LBB107:
 1502              	.LBB73:
 1503              	.LBB68:
 1504              	.LBB60:
 1505              	.LBI60:
 334:Drivers/lvgl/src/extra/widgets/imgbtn/lv_imgbtn.c **** {
 1506              		.loc 1 334 26 is_stmt 1 view .LVU482
 1507              	.LBB61:
 338:Drivers/lvgl/src/extra/widgets/imgbtn/lv_imgbtn.c ****             case LV_IMGBTN_STATE_PRESSED:
 1508              		.loc 1 338 9 view .LVU483
 1509 0350 431E     		subs	r3, r0, #1
 1510 0352 042B     		cmp	r3, #4
 1511 0354 0BD8     		bhi	.L75
 1512 0356 DFE803F0 		tbb	[pc, r3]
 1513              	.L77:
 1514 035a 1F       		.byte	(.L81-.L77)/2
 1515 035b 24       		.byte	(.L80-.L77)/2
 1516 035c 1B       		.byte	(.L79-.L77)/2
 1517 035d 15       		.byte	(.L78-.L77)/2
 1518 035e 03       		.byte	(.L76-.L77)/2
 1519 035f 00       		.p2align 1
 1520              	.L76:
 354:Drivers/lvgl/src/extra/widgets/imgbtn/lv_imgbtn.c ****                 if(imgbtn->img_src_mid[LV_IMGBTN_STATE_RELEASED]) return LV_IMGBTN_STATE_RELEASED;
 1521              		.loc 1 354 17 view .LVU484
 354:Drivers/lvgl/src/extra/widgets/imgbtn/lv_imgbtn.c ****                 if(imgbtn->img_src_mid[LV_IMGBTN_STATE_RELEASED]) return LV_IMGBTN_STATE_RELEASED;
 1522              		.loc 1 354 19 is_stmt 0 view .LVU485
 1523 0360 306B     		ldr	r0, [r6, #48]
 1524              	.LVL152:
 354:Drivers/lvgl/src/extra/widgets/imgbtn/lv_imgbtn.c ****                 if(imgbtn->img_src_mid[LV_IMGBTN_STATE_RELEASED]) return LV_IMGBTN_STATE_RELEASED;
 1525              		.loc 1 354 19 view .LVU486
 1526 0362 20BB     		cbnz	r0, .L90
 355:Drivers/lvgl/src/extra/widgets/imgbtn/lv_imgbtn.c ****                 break;
 1527              		.loc 1 355 17 is_stmt 1 view .LVU487
 355:Drivers/lvgl/src/extra/widgets/imgbtn/lv_imgbtn.c ****                 break;
 1528              		.loc 1 355 19 is_stmt 0 view .LVU488
ARM GAS  /var/folders/0z/tsy30v1j4xl4_7kw94k978ww0000gn/T//cc6FZVn5.s 			page 45


 1529 0364 726A     		ldr	r2, [r6, #36]
 1530 0366 002A     		cmp	r2, #0
 1531 0368 7FF4DCAE 		bne	.L74
 1532 036c 0520     		movs	r0, #5
 1533              	.LVL153:
 1534              	.L75:
 355:Drivers/lvgl/src/extra/widgets/imgbtn/lv_imgbtn.c ****                 break;
 1535              		.loc 1 355 19 view .LVU489
 1536              	.LBE61:
 1537              	.LBE60:
 1538              	.LBE68:
 1539              	.LBE73:
 200:Drivers/lvgl/src/extra/widgets/imgbtn/lv_imgbtn.c ****            imgbtn->img_src_mid[state] != NULL &&
 1540              		.loc 1 200 9 is_stmt 1 view .LVU490
 1541 036e 06EB8003 		add	r3, r6, r0, lsl #2
 200:Drivers/lvgl/src/extra/widgets/imgbtn/lv_imgbtn.c ****            imgbtn->img_src_mid[state] != NULL &&
 1542              		.loc 1 200 11 is_stmt 0 view .LVU491
 1543 0372 DA6B     		ldr	r2, [r3, #60]
 1544 0374 002A     		cmp	r2, #0
 1545 0376 7FF44CAE 		bne	.L57
 201:Drivers/lvgl/src/extra/widgets/imgbtn/lv_imgbtn.c ****            imgbtn->img_src_right[state] == NULL) {
 1546              		.loc 1 201 31 view .LVU492
 1547 037a 5A6A     		ldr	r2, [r3, #36]
 200:Drivers/lvgl/src/extra/widgets/imgbtn/lv_imgbtn.c ****            imgbtn->img_src_mid[state] != NULL &&
 1548              		.loc 1 200 48 view .LVU493
 1549 037c 002A     		cmp	r2, #0
 1550 037e 3FF448AE 		beq	.L57
 1551 0382 D6E6     		b	.L83
 1552              	.LVL154:
 1553              	.L78:
 1554              	.LBB74:
 1555              	.LBB69:
 1556              	.LBB65:
 1557              	.LBB62:
 346:Drivers/lvgl/src/extra/widgets/imgbtn/lv_imgbtn.c ****                 if(imgbtn->img_src_mid[LV_IMGBTN_STATE_PRESSED]) return LV_IMGBTN_STATE_PRESSED;
 1558              		.loc 1 346 17 is_stmt 1 view .LVU494
 346:Drivers/lvgl/src/extra/widgets/imgbtn/lv_imgbtn.c ****                 if(imgbtn->img_src_mid[LV_IMGBTN_STATE_PRESSED]) return LV_IMGBTN_STATE_PRESSED;
 1559              		.loc 1 346 19 is_stmt 0 view .LVU495
 1560 0384 336B     		ldr	r3, [r6, #48]
 1561 0386 93B9     		cbnz	r3, .L90
 347:Drivers/lvgl/src/extra/widgets/imgbtn/lv_imgbtn.c ****                 if(imgbtn->img_src_mid[LV_IMGBTN_STATE_RELEASED]) return LV_IMGBTN_STATE_RELEASED;
 1562              		.loc 1 347 17 is_stmt 1 view .LVU496
 347:Drivers/lvgl/src/extra/widgets/imgbtn/lv_imgbtn.c ****                 if(imgbtn->img_src_mid[LV_IMGBTN_STATE_RELEASED]) return LV_IMGBTN_STATE_RELEASED;
 1563              		.loc 1 347 19 is_stmt 0 view .LVU497
 1564 0388 B36A     		ldr	r3, [r6, #40]
 1565 038a A3B1     		cbz	r3, .L118
 1566 038c 0120     		movs	r0, #1
 1567              	.LVL155:
 347:Drivers/lvgl/src/extra/widgets/imgbtn/lv_imgbtn.c ****                 if(imgbtn->img_src_mid[LV_IMGBTN_STATE_RELEASED]) return LV_IMGBTN_STATE_RELEASED;
 1568              		.loc 1 347 19 view .LVU498
 1569 038e C9E6     		b	.L74
 1570              	.LVL156:
 1571              	.L79:
 343:Drivers/lvgl/src/extra/widgets/imgbtn/lv_imgbtn.c ****                 break;
 1572              		.loc 1 343 17 is_stmt 1 view .LVU499
 343:Drivers/lvgl/src/extra/widgets/imgbtn/lv_imgbtn.c ****                 break;
 1573              		.loc 1 343 19 is_stmt 0 view .LVU500
ARM GAS  /var/folders/0z/tsy30v1j4xl4_7kw94k978ww0000gn/T//cc6FZVn5.s 			page 46


 1574 0390 736A     		ldr	r3, [r6, #36]
 1575 0392 73B1     		cbz	r3, .L119
 1576 0394 0020     		movs	r0, #0
 1577              	.LVL157:
 343:Drivers/lvgl/src/extra/widgets/imgbtn/lv_imgbtn.c ****                 break;
 1578              		.loc 1 343 19 view .LVU501
 1579 0396 C5E6     		b	.L74
 1580              	.LVL158:
 1581              	.L81:
 340:Drivers/lvgl/src/extra/widgets/imgbtn/lv_imgbtn.c ****                 break;
 1582              		.loc 1 340 17 is_stmt 1 view .LVU502
 340:Drivers/lvgl/src/extra/widgets/imgbtn/lv_imgbtn.c ****                 break;
 1583              		.loc 1 340 19 is_stmt 0 view .LVU503
 1584 0398 706A     		ldr	r0, [r6, #36]
 1585              	.LVL159:
 340:Drivers/lvgl/src/extra/widgets/imgbtn/lv_imgbtn.c ****                 break;
 1586              		.loc 1 340 19 view .LVU504
 1587 039a B0FA80F0 		clz	r0, r0
 1588 039e 4009     		lsrs	r0, r0, #5
 1589 03a0 E5E7     		b	.L75
 1590              	.LVL160:
 1591              	.L80:
 351:Drivers/lvgl/src/extra/widgets/imgbtn/lv_imgbtn.c ****                 break;
 1592              		.loc 1 351 17 is_stmt 1 view .LVU505
 351:Drivers/lvgl/src/extra/widgets/imgbtn/lv_imgbtn.c ****                 break;
 1593              		.loc 1 351 19 is_stmt 0 view .LVU506
 1594 03a2 736A     		ldr	r3, [r6, #36]
 1595 03a4 B3FA83F3 		clz	r3, r3
 1596 03a8 5B09     		lsrs	r3, r3, #5
 1597              	.LBE62:
 1598              	.LBE65:
 1599              	.LBE69:
 1600              	.LBE74:
 200:Drivers/lvgl/src/extra/widgets/imgbtn/lv_imgbtn.c ****            imgbtn->img_src_mid[state] != NULL &&
 1601              		.loc 1 200 32 view .LVU507
 1602 03aa 5800     		lsls	r0, r3, #1
 1603              	.LVL161:
 1604              	.LBB75:
 1605              	.LBB70:
 1606              	.LBB66:
 1607              	.LBB63:
 200:Drivers/lvgl/src/extra/widgets/imgbtn/lv_imgbtn.c ****            imgbtn->img_src_mid[state] != NULL &&
 1608              		.loc 1 200 32 view .LVU508
 1609 03ac DFE7     		b	.L75
 1610              	.L90:
 200:Drivers/lvgl/src/extra/widgets/imgbtn/lv_imgbtn.c ****            imgbtn->img_src_mid[state] != NULL &&
 1611              		.loc 1 200 32 view .LVU509
 1612 03ae 0320     		movs	r0, #3
 1613 03b0 B8E6     		b	.L74
 1614              	.LVL162:
 1615              	.L119:
 200:Drivers/lvgl/src/extra/widgets/imgbtn/lv_imgbtn.c ****            imgbtn->img_src_mid[state] != NULL &&
 1616              		.loc 1 200 32 view .LVU510
 1617 03b2 0320     		movs	r0, #3
 1618              	.LVL163:
 200:Drivers/lvgl/src/extra/widgets/imgbtn/lv_imgbtn.c ****            imgbtn->img_src_mid[state] != NULL &&
 1619              		.loc 1 200 32 view .LVU511
ARM GAS  /var/folders/0z/tsy30v1j4xl4_7kw94k978ww0000gn/T//cc6FZVn5.s 			page 47


 1620 03b4 DBE7     		b	.L75
 1621              	.LVL164:
 1622              	.L118:
 348:Drivers/lvgl/src/extra/widgets/imgbtn/lv_imgbtn.c ****                 break;
 1623              		.loc 1 348 17 is_stmt 1 view .LVU512
 348:Drivers/lvgl/src/extra/widgets/imgbtn/lv_imgbtn.c ****                 break;
 1624              		.loc 1 348 19 is_stmt 0 view .LVU513
 1625 03b6 706A     		ldr	r0, [r6, #36]
 1626              	.LVL165:
 348:Drivers/lvgl/src/extra/widgets/imgbtn/lv_imgbtn.c ****                 break;
 1627              		.loc 1 348 19 view .LVU514
 1628 03b8 B0FA80F0 		clz	r0, r0
 1629 03bc 4009     		lsrs	r0, r0, #5
 1630              	.LBE63:
 1631              	.LBE66:
 1632              	.LBE70:
 1633              	.LBE75:
 200:Drivers/lvgl/src/extra/widgets/imgbtn/lv_imgbtn.c ****            imgbtn->img_src_mid[state] != NULL &&
 1634              		.loc 1 200 32 view .LVU515
 1635 03be 8000     		lsls	r0, r0, #2
 1636              	.LBB76:
 1637              	.LBB71:
 1638              	.LBB67:
 1639              	.LBB64:
 1640 03c0 D5E7     		b	.L75
 1641              	.LBE64:
 1642              	.LBE67:
 1643              	.LBE71:
 1644              	.LBE76:
 1645              	.LBE107:
 1646              	.LBE108:
 1647              	.LBE109:
 1648              		.cfi_endproc
 1649              	.LFE211:
 1651              		.global	lv_imgbtn_class
 1652 03c2 00BF     		.section	.rodata.lv_imgbtn_class,"a"
 1653              		.align	2
 1654              		.set	.LANCHOR0,. + 0
 1657              	lv_imgbtn_class:
 1658 0000 00000000 		.word	lv_obj_class
 1659 0004 00000000 		.word	lv_imgbtn_constructor
 1660 0008 00000000 		.space	8
 1660      00000000 
 1661 0010 00000000 		.word	lv_imgbtn_event
 1662 0014 00000000 		.space	4
 1663 0018 00       		.byte	0
 1664 0019 07       		.byte	7
 1665 001a 00       		.byte	0
 1666 001b 00       		.space	1
 1667              		.text
 1668              	.Letext0:
 1669              		.file 4 "/Users/johannes/Library/Application Support/Code/User/globalStorage/bmd.stm32-for-vscode/
 1670              		.file 5 "/Users/johannes/Library/Application Support/Code/User/globalStorage/bmd.stm32-for-vscode/
 1671              		.file 6 "Drivers/lvgl/src/extra/widgets/imgbtn/../../../../src/misc/lv_types.h"
 1672              		.file 7 "/Users/johannes/Library/Application Support/Code/User/globalStorage/bmd.stm32-for-vscode/
 1673              		.file 8 "Drivers/lvgl/src/extra/widgets/imgbtn/../../../../src/hal/../draw/../misc/../font/lv_font
 1674              		.file 9 "Drivers/lvgl/src/extra/widgets/imgbtn/../../../../src/hal/../draw/../misc/lv_color.h"
ARM GAS  /var/folders/0z/tsy30v1j4xl4_7kw94k978ww0000gn/T//cc6FZVn5.s 			page 48


 1675              		.file 10 "Drivers/lvgl/src/extra/widgets/imgbtn/../../../../src/hal/../draw/../misc/lv_txt.h"
 1676              		.file 11 "Drivers/lvgl/src/extra/widgets/imgbtn/../../../../src/hal/../draw/../misc/lv_bidi.h"
 1677              		.file 12 "Drivers/lvgl/src/extra/widgets/imgbtn/../../../../src/hal/../draw/../misc/lv_style.h"
 1678              		.file 13 "Drivers/lvgl/src/extra/widgets/imgbtn/../../../../src/hal/../draw/lv_img_buf.h"
 1679              		.file 14 "Drivers/lvgl/src/extra/widgets/imgbtn/../../../../src/core/lv_obj.h"
 1680              		.file 15 "Drivers/lvgl/src/extra/widgets/imgbtn/../../../../src/hal/../draw/lv_draw_rect.h"
 1681              		.file 16 "Drivers/lvgl/src/extra/widgets/imgbtn/../../../../src/hal/../draw/lv_draw_label.h"
 1682              		.file 17 "Drivers/lvgl/src/extra/widgets/imgbtn/../../../../src/hal/../draw/lv_draw_img.h"
 1683              		.file 18 "Drivers/lvgl/src/extra/widgets/imgbtn/../../../../src/hal/../draw/lv_draw_line.h"
 1684              		.file 19 "Drivers/lvgl/src/extra/widgets/imgbtn/../../../../src/hal/../draw/lv_draw_arc.h"
 1685              		.file 20 "Drivers/lvgl/src/extra/widgets/imgbtn/../../../../src/hal/../draw/lv_draw_layer.h"
 1686              		.file 21 "Drivers/lvgl/src/extra/widgets/imgbtn/../../../../src/hal/../draw/lv_draw.h"
 1687              		.file 22 "Drivers/lvgl/src/extra/widgets/imgbtn/../../../../src/hal/../misc/lv_ll.h"
 1688              		.file 23 "Drivers/lvgl/src/extra/widgets/imgbtn/../../../../src/core/lv_group.h"
 1689              		.file 24 "Drivers/lvgl/src/extra/widgets/imgbtn/../../../../src/core/lv_obj_scroll.h"
 1690              		.file 25 "Drivers/lvgl/src/extra/widgets/imgbtn/../../../../src/core/lv_obj_style.h"
 1691              		.file 26 "Drivers/lvgl/src/extra/widgets/imgbtn/../../../../src/core/lv_obj_draw.h"
 1692              		.file 27 "Drivers/lvgl/src/extra/widgets/imgbtn/../../../../src/core/lv_obj_class.h"
 1693              		.file 28 "Drivers/lvgl/src/extra/widgets/imgbtn/../../../../src/core/lv_event.h"
 1694              		.file 29 "Drivers/lvgl/src/extra/widgets/imgbtn/../../../../src/widgets/lv_bar.h"
 1695              		.file 30 "Drivers/lvgl/src/extra/widgets/imgbtn/lv_imgbtn.h"
 1696              		.file 31 "Drivers/lvgl/src/extra/widgets/imgbtn/../../../../src/misc/lv_mem.h"
 1697              		.file 32 "Drivers/lvgl/src/extra/widgets/imgbtn/../../../../src/hal/../draw/sw/../../core/lv_obj_p
 1698              		.file 33 "Drivers/lvgl/src/extra/widgets/imgbtn/../../../../src/hal/../draw/lv_img_decoder.h"
ARM GAS  /var/folders/0z/tsy30v1j4xl4_7kw94k978ww0000gn/T//cc6FZVn5.s 			page 49


DEFINED SYMBOLS
                            *ABS*:0000000000000000 lv_imgbtn.c
/var/folders/0z/tsy30v1j4xl4_7kw94k978ww0000gn/T//cc6FZVn5.s:20     .text.lv_imgbtn_constructor:0000000000000000 $t
/var/folders/0z/tsy30v1j4xl4_7kw94k978ww0000gn/T//cc6FZVn5.s:26     .text.lv_imgbtn_constructor:0000000000000000 lv_imgbtn_constructor
/var/folders/0z/tsy30v1j4xl4_7kw94k978ww0000gn/T//cc6FZVn5.s:74     .text.suggest_state.part.0:0000000000000000 $t
/var/folders/0z/tsy30v1j4xl4_7kw94k978ww0000gn/T//cc6FZVn5.s:80     .text.suggest_state.part.0:0000000000000000 suggest_state.part.0
/var/folders/0z/tsy30v1j4xl4_7kw94k978ww0000gn/T//cc6FZVn5.s:94     .text.suggest_state.part.0:000000000000000a $d
/var/folders/0z/tsy30v1j4xl4_7kw94k978ww0000gn/T//cc6FZVn5.s:187    .text.lv_imgbtn_create:0000000000000000 $t
/var/folders/0z/tsy30v1j4xl4_7kw94k978ww0000gn/T//cc6FZVn5.s:194    .text.lv_imgbtn_create:0000000000000000 lv_imgbtn_create
/var/folders/0z/tsy30v1j4xl4_7kw94k978ww0000gn/T//cc6FZVn5.s:233    .text.lv_imgbtn_create:0000000000000014 $d
/var/folders/0z/tsy30v1j4xl4_7kw94k978ww0000gn/T//cc6FZVn5.s:238    .text.lv_imgbtn_get_src_left:0000000000000000 $t
/var/folders/0z/tsy30v1j4xl4_7kw94k978ww0000gn/T//cc6FZVn5.s:245    .text.lv_imgbtn_get_src_left:0000000000000000 lv_imgbtn_get_src_left
/var/folders/0z/tsy30v1j4xl4_7kw94k978ww0000gn/T//cc6FZVn5.s:270    .text.lv_imgbtn_get_src_middle:0000000000000000 $t
/var/folders/0z/tsy30v1j4xl4_7kw94k978ww0000gn/T//cc6FZVn5.s:277    .text.lv_imgbtn_get_src_middle:0000000000000000 lv_imgbtn_get_src_middle
/var/folders/0z/tsy30v1j4xl4_7kw94k978ww0000gn/T//cc6FZVn5.s:302    .text.lv_imgbtn_get_src_right:0000000000000000 $t
/var/folders/0z/tsy30v1j4xl4_7kw94k978ww0000gn/T//cc6FZVn5.s:309    .text.lv_imgbtn_get_src_right:0000000000000000 lv_imgbtn_get_src_right
/var/folders/0z/tsy30v1j4xl4_7kw94k978ww0000gn/T//cc6FZVn5.s:334    .text.get_state:0000000000000000 $t
/var/folders/0z/tsy30v1j4xl4_7kw94k978ww0000gn/T//cc6FZVn5.s:341    .text.get_state:0000000000000000 get_state
/var/folders/0z/tsy30v1j4xl4_7kw94k978ww0000gn/T//cc6FZVn5.s:402    .text.refr_img:0000000000000000 $t
/var/folders/0z/tsy30v1j4xl4_7kw94k978ww0000gn/T//cc6FZVn5.s:408    .text.refr_img:0000000000000000 refr_img
/var/folders/0z/tsy30v1j4xl4_7kw94k978ww0000gn/T//cc6FZVn5.s:539    .text.lv_imgbtn_set_src:0000000000000000 $t
/var/folders/0z/tsy30v1j4xl4_7kw94k978ww0000gn/T//cc6FZVn5.s:546    .text.lv_imgbtn_set_src:0000000000000000 lv_imgbtn_set_src
/var/folders/0z/tsy30v1j4xl4_7kw94k978ww0000gn/T//cc6FZVn5.s:580    .text.lv_imgbtn_set_state:0000000000000000 $t
/var/folders/0z/tsy30v1j4xl4_7kw94k978ww0000gn/T//cc6FZVn5.s:587    .text.lv_imgbtn_set_state:0000000000000000 lv_imgbtn_set_state
/var/folders/0z/tsy30v1j4xl4_7kw94k978ww0000gn/T//cc6FZVn5.s:681    .text.lv_imgbtn_event:0000000000000000 $t
/var/folders/0z/tsy30v1j4xl4_7kw94k978ww0000gn/T//cc6FZVn5.s:687    .text.lv_imgbtn_event:0000000000000000 lv_imgbtn_event
/var/folders/0z/tsy30v1j4xl4_7kw94k978ww0000gn/T//cc6FZVn5.s:770    .text.lv_imgbtn_event:0000000000000038 $d
/var/folders/0z/tsy30v1j4xl4_7kw94k978ww0000gn/T//cc6FZVn5.s:812    .text.lv_imgbtn_event:00000000000000e0 $t
/var/folders/0z/tsy30v1j4xl4_7kw94k978ww0000gn/T//cc6FZVn5.s:1493   .text.lv_imgbtn_event:000000000000034c $d
/var/folders/0z/tsy30v1j4xl4_7kw94k978ww0000gn/T//cc6FZVn5.s:1509   .text.lv_imgbtn_event:0000000000000350 $t
/var/folders/0z/tsy30v1j4xl4_7kw94k978ww0000gn/T//cc6FZVn5.s:1514   .text.lv_imgbtn_event:000000000000035a $d
/var/folders/0z/tsy30v1j4xl4_7kw94k978ww0000gn/T//cc6FZVn5.s:1657   .rodata.lv_imgbtn_class:0000000000000000 lv_imgbtn_class
/var/folders/0z/tsy30v1j4xl4_7kw94k978ww0000gn/T//cc6FZVn5.s:1653   .rodata.lv_imgbtn_class:0000000000000000 $d
/var/folders/0z/tsy30v1j4xl4_7kw94k978ww0000gn/T//cc6FZVn5.s:99     .text.suggest_state.part.0:000000000000000f $d
/var/folders/0z/tsy30v1j4xl4_7kw94k978ww0000gn/T//cc6FZVn5.s:99     .text.suggest_state.part.0:0000000000000010 $t
/var/folders/0z/tsy30v1j4xl4_7kw94k978ww0000gn/T//cc6FZVn5.s:1519   .text.lv_imgbtn_event:000000000000035f $d
/var/folders/0z/tsy30v1j4xl4_7kw94k978ww0000gn/T//cc6FZVn5.s:1519   .text.lv_imgbtn_event:0000000000000360 $t

UNDEFINED SYMBOLS
lv_memset_00
lv_obj_class_create_obj
lv_obj_class_init_obj
lv_obj_get_state
lv_img_decoder_get_info
lv_obj_invalidate
lv_obj_refresh_self_size
lv_obj_set_height
lv_obj_clear_state
lv_obj_add_state
lv_obj_event_base
lv_event_get_code
lv_event_get_target
lv_obj_has_state
lv_event_get_self_size_info
lv_event_get_param
lv_event_get_draw_ctx
lv_obj_get_style_prop
ARM GAS  /var/folders/0z/tsy30v1j4xl4_7kw94k978ww0000gn/T//cc6FZVn5.s 			page 50


lv_draw_img_dsc_init
lv_obj_init_draw_img_dsc
lv_draw_img
_lv_area_intersect
lv_obj_class
