ARM GAS  /var/folders/lp/x54gwt890xv47sdkqj1k04q40000gn/T//cc5DBzfs.s 			page 1


   1              		.cpu cortex-m4
   2              		.arch armv7e-m
   3              		.fpu fpv4-sp-d16
   4              		.eabi_attribute 27, 1
   5              		.eabi_attribute 28, 1
   6              		.eabi_attribute 20, 1
   7              		.eabi_attribute 21, 1
   8              		.eabi_attribute 23, 3
   9              		.eabi_attribute 24, 1
  10              		.eabi_attribute 25, 1
  11              		.eabi_attribute 26, 1
  12              		.eabi_attribute 30, 2
  13              		.eabi_attribute 34, 1
  14              		.eabi_attribute 18, 4
  15              		.file	"lv_indev_scroll.c"
  16              		.text
  17              	.Ltext0:
  18              		.cfi_sections	.debug_frame
  19              		.file 1 "Drivers/lvgl/src/core/lv_indev_scroll.c"
  20              		.section	.text.find_snap_point_y,"ax",%progbits
  21              		.align	1
  22              		.p2align 2,,3
  23              		.syntax unified
  24              		.thumb
  25              		.thumb_func
  27              	find_snap_point_y:
  28              	.LVL0:
  29              	.LFB168:
   1:Drivers/lvgl/src/core/lv_indev_scroll.c **** /**
   2:Drivers/lvgl/src/core/lv_indev_scroll.c ****  * @file lv_indev_scroll.c
   3:Drivers/lvgl/src/core/lv_indev_scroll.c ****  *
   4:Drivers/lvgl/src/core/lv_indev_scroll.c ****  */
   5:Drivers/lvgl/src/core/lv_indev_scroll.c **** 
   6:Drivers/lvgl/src/core/lv_indev_scroll.c **** /*********************
   7:Drivers/lvgl/src/core/lv_indev_scroll.c ****  *      INCLUDES
   8:Drivers/lvgl/src/core/lv_indev_scroll.c ****  *********************/
   9:Drivers/lvgl/src/core/lv_indev_scroll.c **** #include "lv_indev.h"
  10:Drivers/lvgl/src/core/lv_indev_scroll.c **** #include "lv_indev_scroll.h"
  11:Drivers/lvgl/src/core/lv_indev_scroll.c **** 
  12:Drivers/lvgl/src/core/lv_indev_scroll.c **** /*********************
  13:Drivers/lvgl/src/core/lv_indev_scroll.c ****  *      DEFINES
  14:Drivers/lvgl/src/core/lv_indev_scroll.c ****  *********************/
  15:Drivers/lvgl/src/core/lv_indev_scroll.c **** #define ELASTIC_SLOWNESS_FACTOR 4   /*Scrolling on elastic parts are slower by this factor*/
  16:Drivers/lvgl/src/core/lv_indev_scroll.c **** 
  17:Drivers/lvgl/src/core/lv_indev_scroll.c **** /**********************
  18:Drivers/lvgl/src/core/lv_indev_scroll.c ****  *      TYPEDEFS
  19:Drivers/lvgl/src/core/lv_indev_scroll.c ****  **********************/
  20:Drivers/lvgl/src/core/lv_indev_scroll.c **** 
  21:Drivers/lvgl/src/core/lv_indev_scroll.c **** /**********************
  22:Drivers/lvgl/src/core/lv_indev_scroll.c ****  *  STATIC PROTOTYPES
  23:Drivers/lvgl/src/core/lv_indev_scroll.c ****  **********************/
  24:Drivers/lvgl/src/core/lv_indev_scroll.c **** static lv_obj_t * find_scroll_obj(_lv_indev_proc_t * proc);
  25:Drivers/lvgl/src/core/lv_indev_scroll.c **** static void init_scroll_limits(_lv_indev_proc_t * proc);
  26:Drivers/lvgl/src/core/lv_indev_scroll.c **** static lv_coord_t find_snap_point_x(const lv_obj_t * obj, lv_coord_t min, lv_coord_t max, lv_coord_
  27:Drivers/lvgl/src/core/lv_indev_scroll.c **** static lv_coord_t find_snap_point_y(const lv_obj_t * obj, lv_coord_t min, lv_coord_t max, lv_coord_
  28:Drivers/lvgl/src/core/lv_indev_scroll.c **** static void scroll_limit_diff(_lv_indev_proc_t * proc, lv_coord_t * diff_x, lv_coord_t * diff_y);
  29:Drivers/lvgl/src/core/lv_indev_scroll.c **** static lv_coord_t scroll_throw_predict_y(_lv_indev_proc_t * proc);
ARM GAS  /var/folders/lp/x54gwt890xv47sdkqj1k04q40000gn/T//cc5DBzfs.s 			page 2


  30:Drivers/lvgl/src/core/lv_indev_scroll.c **** static lv_coord_t scroll_throw_predict_x(_lv_indev_proc_t * proc);
  31:Drivers/lvgl/src/core/lv_indev_scroll.c **** static lv_coord_t elastic_diff(lv_obj_t * scroll_obj, lv_coord_t diff, lv_coord_t scroll_start, lv_
  32:Drivers/lvgl/src/core/lv_indev_scroll.c ****                                lv_dir_t dir);
  33:Drivers/lvgl/src/core/lv_indev_scroll.c **** 
  34:Drivers/lvgl/src/core/lv_indev_scroll.c **** /**********************
  35:Drivers/lvgl/src/core/lv_indev_scroll.c ****  *  STATIC VARIABLES
  36:Drivers/lvgl/src/core/lv_indev_scroll.c ****  **********************/
  37:Drivers/lvgl/src/core/lv_indev_scroll.c **** 
  38:Drivers/lvgl/src/core/lv_indev_scroll.c **** /**********************
  39:Drivers/lvgl/src/core/lv_indev_scroll.c ****  *      MACROS
  40:Drivers/lvgl/src/core/lv_indev_scroll.c ****  **********************/
  41:Drivers/lvgl/src/core/lv_indev_scroll.c **** 
  42:Drivers/lvgl/src/core/lv_indev_scroll.c **** /**********************
  43:Drivers/lvgl/src/core/lv_indev_scroll.c ****  *   GLOBAL FUNCTIONS
  44:Drivers/lvgl/src/core/lv_indev_scroll.c ****  **********************/
  45:Drivers/lvgl/src/core/lv_indev_scroll.c **** 
  46:Drivers/lvgl/src/core/lv_indev_scroll.c **** void _lv_indev_scroll_handler(_lv_indev_proc_t * proc)
  47:Drivers/lvgl/src/core/lv_indev_scroll.c **** {
  48:Drivers/lvgl/src/core/lv_indev_scroll.c ****     if(proc->types.pointer.vect.x == 0 && proc->types.pointer.vect.y == 0) {
  49:Drivers/lvgl/src/core/lv_indev_scroll.c ****         return;
  50:Drivers/lvgl/src/core/lv_indev_scroll.c ****     }
  51:Drivers/lvgl/src/core/lv_indev_scroll.c **** 
  52:Drivers/lvgl/src/core/lv_indev_scroll.c ****     lv_obj_t * scroll_obj = proc->types.pointer.scroll_obj;
  53:Drivers/lvgl/src/core/lv_indev_scroll.c ****     /*If there is no scroll object yet try to find one*/
  54:Drivers/lvgl/src/core/lv_indev_scroll.c ****     if(scroll_obj == NULL) {
  55:Drivers/lvgl/src/core/lv_indev_scroll.c ****         scroll_obj = find_scroll_obj(proc);
  56:Drivers/lvgl/src/core/lv_indev_scroll.c ****         if(scroll_obj == NULL) return;
  57:Drivers/lvgl/src/core/lv_indev_scroll.c **** 
  58:Drivers/lvgl/src/core/lv_indev_scroll.c ****         init_scroll_limits(proc);
  59:Drivers/lvgl/src/core/lv_indev_scroll.c **** 
  60:Drivers/lvgl/src/core/lv_indev_scroll.c ****         lv_event_send(scroll_obj, LV_EVENT_SCROLL_BEGIN, NULL);
  61:Drivers/lvgl/src/core/lv_indev_scroll.c ****         if(proc->reset_query) return;
  62:Drivers/lvgl/src/core/lv_indev_scroll.c ****     }
  63:Drivers/lvgl/src/core/lv_indev_scroll.c **** 
  64:Drivers/lvgl/src/core/lv_indev_scroll.c ****     /*Set new position or scroll if the vector is not zero*/
  65:Drivers/lvgl/src/core/lv_indev_scroll.c ****     int16_t angle = 0;
  66:Drivers/lvgl/src/core/lv_indev_scroll.c ****     int16_t zoom = 256;
  67:Drivers/lvgl/src/core/lv_indev_scroll.c ****     lv_obj_t * parent = scroll_obj;
  68:Drivers/lvgl/src/core/lv_indev_scroll.c ****     while(parent) {
  69:Drivers/lvgl/src/core/lv_indev_scroll.c ****         angle += lv_obj_get_style_transform_angle(parent, 0);
  70:Drivers/lvgl/src/core/lv_indev_scroll.c ****         zoom *= (lv_obj_get_style_transform_zoom(parent, 0) / 256);
  71:Drivers/lvgl/src/core/lv_indev_scroll.c ****         parent = lv_obj_get_parent(parent);
  72:Drivers/lvgl/src/core/lv_indev_scroll.c ****     }
  73:Drivers/lvgl/src/core/lv_indev_scroll.c **** 
  74:Drivers/lvgl/src/core/lv_indev_scroll.c ****     if(angle != 0 || zoom != LV_IMG_ZOOM_NONE) {
  75:Drivers/lvgl/src/core/lv_indev_scroll.c ****         angle = -angle;
  76:Drivers/lvgl/src/core/lv_indev_scroll.c ****         zoom = (256 * 256) / zoom;
  77:Drivers/lvgl/src/core/lv_indev_scroll.c ****         lv_point_t pivot = { 0, 0 };
  78:Drivers/lvgl/src/core/lv_indev_scroll.c ****         lv_point_transform(&proc->types.pointer.vect, angle, zoom, &pivot);
  79:Drivers/lvgl/src/core/lv_indev_scroll.c ****     }
  80:Drivers/lvgl/src/core/lv_indev_scroll.c **** 
  81:Drivers/lvgl/src/core/lv_indev_scroll.c **** 
  82:Drivers/lvgl/src/core/lv_indev_scroll.c **** 
  83:Drivers/lvgl/src/core/lv_indev_scroll.c ****     lv_coord_t diff_x = 0;
  84:Drivers/lvgl/src/core/lv_indev_scroll.c ****     lv_coord_t diff_y = 0;
  85:Drivers/lvgl/src/core/lv_indev_scroll.c ****     if(proc->types.pointer.scroll_dir == LV_DIR_HOR) {
  86:Drivers/lvgl/src/core/lv_indev_scroll.c ****         lv_coord_t sr = lv_obj_get_scroll_right(scroll_obj);
ARM GAS  /var/folders/lp/x54gwt890xv47sdkqj1k04q40000gn/T//cc5DBzfs.s 			page 3


  87:Drivers/lvgl/src/core/lv_indev_scroll.c ****         lv_coord_t sl = lv_obj_get_scroll_left(scroll_obj);
  88:Drivers/lvgl/src/core/lv_indev_scroll.c ****         diff_x = elastic_diff(scroll_obj, proc->types.pointer.vect.x, sl, sr, LV_DIR_HOR);
  89:Drivers/lvgl/src/core/lv_indev_scroll.c ****     }
  90:Drivers/lvgl/src/core/lv_indev_scroll.c ****     else {
  91:Drivers/lvgl/src/core/lv_indev_scroll.c ****         lv_coord_t st = lv_obj_get_scroll_top(scroll_obj);
  92:Drivers/lvgl/src/core/lv_indev_scroll.c ****         lv_coord_t sb = lv_obj_get_scroll_bottom(scroll_obj);
  93:Drivers/lvgl/src/core/lv_indev_scroll.c ****         diff_y = elastic_diff(scroll_obj, proc->types.pointer.vect.y, st, sb, LV_DIR_VER);
  94:Drivers/lvgl/src/core/lv_indev_scroll.c ****     }
  95:Drivers/lvgl/src/core/lv_indev_scroll.c **** 
  96:Drivers/lvgl/src/core/lv_indev_scroll.c ****     lv_dir_t scroll_dir = lv_obj_get_scroll_dir(scroll_obj);
  97:Drivers/lvgl/src/core/lv_indev_scroll.c ****     if((scroll_dir & LV_DIR_LEFT)   == 0 && diff_x > 0) diff_x = 0;
  98:Drivers/lvgl/src/core/lv_indev_scroll.c ****     if((scroll_dir & LV_DIR_RIGHT)  == 0 && diff_x < 0) diff_x = 0;
  99:Drivers/lvgl/src/core/lv_indev_scroll.c ****     if((scroll_dir & LV_DIR_TOP)    == 0 && diff_y > 0) diff_y = 0;
 100:Drivers/lvgl/src/core/lv_indev_scroll.c ****     if((scroll_dir & LV_DIR_BOTTOM) == 0 && diff_y < 0) diff_y = 0;
 101:Drivers/lvgl/src/core/lv_indev_scroll.c **** 
 102:Drivers/lvgl/src/core/lv_indev_scroll.c ****     /*Respect the scroll limit area*/
 103:Drivers/lvgl/src/core/lv_indev_scroll.c ****     scroll_limit_diff(proc, &diff_x, &diff_y);
 104:Drivers/lvgl/src/core/lv_indev_scroll.c **** 
 105:Drivers/lvgl/src/core/lv_indev_scroll.c ****     _lv_obj_scroll_by_raw(scroll_obj, diff_x, diff_y);
 106:Drivers/lvgl/src/core/lv_indev_scroll.c ****     if(proc->reset_query) return;
 107:Drivers/lvgl/src/core/lv_indev_scroll.c ****     proc->types.pointer.scroll_sum.x += diff_x;
 108:Drivers/lvgl/src/core/lv_indev_scroll.c ****     proc->types.pointer.scroll_sum.y += diff_y;
 109:Drivers/lvgl/src/core/lv_indev_scroll.c **** }
 110:Drivers/lvgl/src/core/lv_indev_scroll.c **** 
 111:Drivers/lvgl/src/core/lv_indev_scroll.c **** 
 112:Drivers/lvgl/src/core/lv_indev_scroll.c **** void _lv_indev_scroll_throw_handler(_lv_indev_proc_t * proc)
 113:Drivers/lvgl/src/core/lv_indev_scroll.c **** {
 114:Drivers/lvgl/src/core/lv_indev_scroll.c ****     lv_obj_t * scroll_obj = proc->types.pointer.scroll_obj;
 115:Drivers/lvgl/src/core/lv_indev_scroll.c ****     if(scroll_obj == NULL) return;
 116:Drivers/lvgl/src/core/lv_indev_scroll.c ****     if(proc->types.pointer.scroll_dir == LV_DIR_NONE) return;
 117:Drivers/lvgl/src/core/lv_indev_scroll.c **** 
 118:Drivers/lvgl/src/core/lv_indev_scroll.c ****     lv_indev_t * indev_act = lv_indev_get_act();
 119:Drivers/lvgl/src/core/lv_indev_scroll.c ****     lv_coord_t scroll_throw = indev_act->driver->scroll_throw;
 120:Drivers/lvgl/src/core/lv_indev_scroll.c **** 
 121:Drivers/lvgl/src/core/lv_indev_scroll.c ****     if(lv_obj_has_flag(scroll_obj, LV_OBJ_FLAG_SCROLL_MOMENTUM) == false) {
 122:Drivers/lvgl/src/core/lv_indev_scroll.c ****         proc->types.pointer.scroll_throw_vect.y = 0;
 123:Drivers/lvgl/src/core/lv_indev_scroll.c ****         proc->types.pointer.scroll_throw_vect.x = 0;
 124:Drivers/lvgl/src/core/lv_indev_scroll.c ****     }
 125:Drivers/lvgl/src/core/lv_indev_scroll.c **** 
 126:Drivers/lvgl/src/core/lv_indev_scroll.c ****     lv_scroll_snap_t align_x = lv_obj_get_scroll_snap_x(scroll_obj);
 127:Drivers/lvgl/src/core/lv_indev_scroll.c ****     lv_scroll_snap_t align_y = lv_obj_get_scroll_snap_y(scroll_obj);
 128:Drivers/lvgl/src/core/lv_indev_scroll.c **** 
 129:Drivers/lvgl/src/core/lv_indev_scroll.c ****     if(proc->types.pointer.scroll_dir == LV_DIR_VER) {
 130:Drivers/lvgl/src/core/lv_indev_scroll.c ****         proc->types.pointer.scroll_throw_vect.x = 0;
 131:Drivers/lvgl/src/core/lv_indev_scroll.c ****         /*If no snapping "throw"*/
 132:Drivers/lvgl/src/core/lv_indev_scroll.c ****         if(align_y == LV_SCROLL_SNAP_NONE) {
 133:Drivers/lvgl/src/core/lv_indev_scroll.c ****             proc->types.pointer.scroll_throw_vect.y =
 134:Drivers/lvgl/src/core/lv_indev_scroll.c ****                 proc->types.pointer.scroll_throw_vect.y * (100 - scroll_throw) / 100;
 135:Drivers/lvgl/src/core/lv_indev_scroll.c **** 
 136:Drivers/lvgl/src/core/lv_indev_scroll.c ****             lv_coord_t sb = lv_obj_get_scroll_bottom(scroll_obj);
 137:Drivers/lvgl/src/core/lv_indev_scroll.c ****             lv_coord_t st = lv_obj_get_scroll_top(scroll_obj);
 138:Drivers/lvgl/src/core/lv_indev_scroll.c **** 
 139:Drivers/lvgl/src/core/lv_indev_scroll.c ****             proc->types.pointer.scroll_throw_vect.y = elastic_diff(scroll_obj, proc->types.pointer.
 140:Drivers/lvgl/src/core/lv_indev_scroll.c ****                                                                    LV_DIR_VER);
 141:Drivers/lvgl/src/core/lv_indev_scroll.c **** 
 142:Drivers/lvgl/src/core/lv_indev_scroll.c ****             lv_obj_scroll_by(scroll_obj, 0, proc->types.pointer.scroll_throw_vect.y, LV_ANIM_OFF);
 143:Drivers/lvgl/src/core/lv_indev_scroll.c ****         }
ARM GAS  /var/folders/lp/x54gwt890xv47sdkqj1k04q40000gn/T//cc5DBzfs.s 			page 4


 144:Drivers/lvgl/src/core/lv_indev_scroll.c ****         /*With snapping find the nearest snap point and scroll there*/
 145:Drivers/lvgl/src/core/lv_indev_scroll.c ****         else {
 146:Drivers/lvgl/src/core/lv_indev_scroll.c ****             lv_coord_t diff_y = scroll_throw_predict_y(proc);
 147:Drivers/lvgl/src/core/lv_indev_scroll.c ****             proc->types.pointer.scroll_throw_vect.y = 0;
 148:Drivers/lvgl/src/core/lv_indev_scroll.c ****             scroll_limit_diff(proc, NULL, &diff_y);
 149:Drivers/lvgl/src/core/lv_indev_scroll.c ****             lv_coord_t y = find_snap_point_y(scroll_obj, LV_COORD_MIN, LV_COORD_MAX, diff_y);
 150:Drivers/lvgl/src/core/lv_indev_scroll.c ****             lv_obj_scroll_by(scroll_obj, 0, diff_y + y, LV_ANIM_ON);
 151:Drivers/lvgl/src/core/lv_indev_scroll.c ****         }
 152:Drivers/lvgl/src/core/lv_indev_scroll.c ****     }
 153:Drivers/lvgl/src/core/lv_indev_scroll.c ****     else if(proc->types.pointer.scroll_dir == LV_DIR_HOR) {
 154:Drivers/lvgl/src/core/lv_indev_scroll.c ****         proc->types.pointer.scroll_throw_vect.y = 0;
 155:Drivers/lvgl/src/core/lv_indev_scroll.c ****         /*If no snapping "throw"*/
 156:Drivers/lvgl/src/core/lv_indev_scroll.c ****         if(align_x == LV_SCROLL_SNAP_NONE) {
 157:Drivers/lvgl/src/core/lv_indev_scroll.c ****             proc->types.pointer.scroll_throw_vect.x =
 158:Drivers/lvgl/src/core/lv_indev_scroll.c ****                 proc->types.pointer.scroll_throw_vect.x * (100 - scroll_throw) / 100;
 159:Drivers/lvgl/src/core/lv_indev_scroll.c **** 
 160:Drivers/lvgl/src/core/lv_indev_scroll.c ****             lv_coord_t sl = lv_obj_get_scroll_left(scroll_obj);
 161:Drivers/lvgl/src/core/lv_indev_scroll.c ****             lv_coord_t sr = lv_obj_get_scroll_right(scroll_obj);
 162:Drivers/lvgl/src/core/lv_indev_scroll.c **** 
 163:Drivers/lvgl/src/core/lv_indev_scroll.c ****             proc->types.pointer.scroll_throw_vect.x = elastic_diff(scroll_obj, proc->types.pointer.
 164:Drivers/lvgl/src/core/lv_indev_scroll.c ****                                                                    LV_DIR_HOR);
 165:Drivers/lvgl/src/core/lv_indev_scroll.c **** 
 166:Drivers/lvgl/src/core/lv_indev_scroll.c ****             lv_obj_scroll_by(scroll_obj, proc->types.pointer.scroll_throw_vect.x, 0, LV_ANIM_OFF);
 167:Drivers/lvgl/src/core/lv_indev_scroll.c ****         }
 168:Drivers/lvgl/src/core/lv_indev_scroll.c ****         /*With snapping find the nearest snap point and scroll there*/
 169:Drivers/lvgl/src/core/lv_indev_scroll.c ****         else {
 170:Drivers/lvgl/src/core/lv_indev_scroll.c ****             lv_coord_t diff_x = scroll_throw_predict_x(proc);
 171:Drivers/lvgl/src/core/lv_indev_scroll.c ****             proc->types.pointer.scroll_throw_vect.x = 0;
 172:Drivers/lvgl/src/core/lv_indev_scroll.c ****             scroll_limit_diff(proc, &diff_x, NULL);
 173:Drivers/lvgl/src/core/lv_indev_scroll.c ****             lv_coord_t x = find_snap_point_x(scroll_obj, LV_COORD_MIN, LV_COORD_MAX, diff_x);
 174:Drivers/lvgl/src/core/lv_indev_scroll.c ****             lv_obj_scroll_by(scroll_obj, x + diff_x, 0, LV_ANIM_ON);
 175:Drivers/lvgl/src/core/lv_indev_scroll.c ****         }
 176:Drivers/lvgl/src/core/lv_indev_scroll.c ****     }
 177:Drivers/lvgl/src/core/lv_indev_scroll.c **** 
 178:Drivers/lvgl/src/core/lv_indev_scroll.c ****     /*Check if the scroll has finished*/
 179:Drivers/lvgl/src/core/lv_indev_scroll.c ****     if(proc->types.pointer.scroll_throw_vect.x == 0 && proc->types.pointer.scroll_throw_vect.y == 0
 180:Drivers/lvgl/src/core/lv_indev_scroll.c ****         /*Revert if scrolled in*/
 181:Drivers/lvgl/src/core/lv_indev_scroll.c ****         /*If vertically scrollable and not controlled by snap*/
 182:Drivers/lvgl/src/core/lv_indev_scroll.c ****         if(align_y == LV_SCROLL_SNAP_NONE) {
 183:Drivers/lvgl/src/core/lv_indev_scroll.c ****             lv_coord_t st = lv_obj_get_scroll_top(scroll_obj);
 184:Drivers/lvgl/src/core/lv_indev_scroll.c ****             lv_coord_t sb = lv_obj_get_scroll_bottom(scroll_obj);
 185:Drivers/lvgl/src/core/lv_indev_scroll.c ****             if(st > 0 || sb > 0) {
 186:Drivers/lvgl/src/core/lv_indev_scroll.c ****                 if(st < 0) {
 187:Drivers/lvgl/src/core/lv_indev_scroll.c ****                     lv_obj_scroll_by(scroll_obj, 0, st, LV_ANIM_ON);
 188:Drivers/lvgl/src/core/lv_indev_scroll.c ****                 }
 189:Drivers/lvgl/src/core/lv_indev_scroll.c ****                 else if(sb < 0) {
 190:Drivers/lvgl/src/core/lv_indev_scroll.c ****                     lv_obj_scroll_by(scroll_obj, 0, -sb, LV_ANIM_ON);
 191:Drivers/lvgl/src/core/lv_indev_scroll.c ****                 }
 192:Drivers/lvgl/src/core/lv_indev_scroll.c ****             }
 193:Drivers/lvgl/src/core/lv_indev_scroll.c ****         }
 194:Drivers/lvgl/src/core/lv_indev_scroll.c **** 
 195:Drivers/lvgl/src/core/lv_indev_scroll.c ****         /*If horizontally scrollable and not controlled by snap*/
 196:Drivers/lvgl/src/core/lv_indev_scroll.c ****         if(align_x == LV_SCROLL_SNAP_NONE) {
 197:Drivers/lvgl/src/core/lv_indev_scroll.c ****             lv_coord_t sl = lv_obj_get_scroll_left(scroll_obj);
 198:Drivers/lvgl/src/core/lv_indev_scroll.c ****             lv_coord_t sr = lv_obj_get_scroll_right(scroll_obj);
 199:Drivers/lvgl/src/core/lv_indev_scroll.c ****             if(sl > 0 || sr > 0) {
 200:Drivers/lvgl/src/core/lv_indev_scroll.c ****                 if(sl < 0) {
ARM GAS  /var/folders/lp/x54gwt890xv47sdkqj1k04q40000gn/T//cc5DBzfs.s 			page 5


 201:Drivers/lvgl/src/core/lv_indev_scroll.c ****                     lv_obj_scroll_by(scroll_obj, sl, 0, LV_ANIM_ON);
 202:Drivers/lvgl/src/core/lv_indev_scroll.c ****                 }
 203:Drivers/lvgl/src/core/lv_indev_scroll.c ****                 else if(sr < 0) {
 204:Drivers/lvgl/src/core/lv_indev_scroll.c ****                     lv_obj_scroll_by(scroll_obj, -sr, 0, LV_ANIM_ON);
 205:Drivers/lvgl/src/core/lv_indev_scroll.c ****                 }
 206:Drivers/lvgl/src/core/lv_indev_scroll.c ****             }
 207:Drivers/lvgl/src/core/lv_indev_scroll.c ****         }
 208:Drivers/lvgl/src/core/lv_indev_scroll.c **** 
 209:Drivers/lvgl/src/core/lv_indev_scroll.c ****         lv_event_send(scroll_obj, LV_EVENT_SCROLL_END, indev_act);
 210:Drivers/lvgl/src/core/lv_indev_scroll.c ****         if(proc->reset_query) return;
 211:Drivers/lvgl/src/core/lv_indev_scroll.c **** 
 212:Drivers/lvgl/src/core/lv_indev_scroll.c ****         proc->types.pointer.scroll_dir = LV_DIR_NONE;
 213:Drivers/lvgl/src/core/lv_indev_scroll.c ****         proc->types.pointer.scroll_obj = NULL;
 214:Drivers/lvgl/src/core/lv_indev_scroll.c ****     }
 215:Drivers/lvgl/src/core/lv_indev_scroll.c **** }
 216:Drivers/lvgl/src/core/lv_indev_scroll.c **** 
 217:Drivers/lvgl/src/core/lv_indev_scroll.c **** /**
 218:Drivers/lvgl/src/core/lv_indev_scroll.c ****  * Predict where would a scroll throw end
 219:Drivers/lvgl/src/core/lv_indev_scroll.c ****  * @param indev pointer to an input device
 220:Drivers/lvgl/src/core/lv_indev_scroll.c ****  * @param dir `LV_DIR_VER` or `LV_DIR_HOR`
 221:Drivers/lvgl/src/core/lv_indev_scroll.c ****  * @return the difference compared to the current position when the throw would be finished
 222:Drivers/lvgl/src/core/lv_indev_scroll.c ****  */
 223:Drivers/lvgl/src/core/lv_indev_scroll.c **** lv_coord_t lv_indev_scroll_throw_predict(lv_indev_t * indev, lv_dir_t dir)
 224:Drivers/lvgl/src/core/lv_indev_scroll.c **** {
 225:Drivers/lvgl/src/core/lv_indev_scroll.c ****     if(indev == NULL) return 0;
 226:Drivers/lvgl/src/core/lv_indev_scroll.c ****     lv_coord_t v;
 227:Drivers/lvgl/src/core/lv_indev_scroll.c ****     switch(dir) {
 228:Drivers/lvgl/src/core/lv_indev_scroll.c ****         case LV_DIR_VER:
 229:Drivers/lvgl/src/core/lv_indev_scroll.c ****             v = indev->proc.types.pointer.scroll_throw_vect_ori.y;
 230:Drivers/lvgl/src/core/lv_indev_scroll.c ****             break;
 231:Drivers/lvgl/src/core/lv_indev_scroll.c ****         case LV_DIR_HOR:
 232:Drivers/lvgl/src/core/lv_indev_scroll.c ****             v = indev->proc.types.pointer.scroll_throw_vect_ori.x;
 233:Drivers/lvgl/src/core/lv_indev_scroll.c ****             break;
 234:Drivers/lvgl/src/core/lv_indev_scroll.c ****         default:
 235:Drivers/lvgl/src/core/lv_indev_scroll.c ****             return 0;
 236:Drivers/lvgl/src/core/lv_indev_scroll.c ****     }
 237:Drivers/lvgl/src/core/lv_indev_scroll.c **** 
 238:Drivers/lvgl/src/core/lv_indev_scroll.c ****     lv_coord_t scroll_throw = indev->driver->scroll_throw;
 239:Drivers/lvgl/src/core/lv_indev_scroll.c ****     lv_coord_t sum = 0;
 240:Drivers/lvgl/src/core/lv_indev_scroll.c ****     while(v) {
 241:Drivers/lvgl/src/core/lv_indev_scroll.c ****         sum += v;
 242:Drivers/lvgl/src/core/lv_indev_scroll.c ****         v = v * (100 - scroll_throw) / 100;
 243:Drivers/lvgl/src/core/lv_indev_scroll.c ****     }
 244:Drivers/lvgl/src/core/lv_indev_scroll.c **** 
 245:Drivers/lvgl/src/core/lv_indev_scroll.c ****     return sum;
 246:Drivers/lvgl/src/core/lv_indev_scroll.c **** }
 247:Drivers/lvgl/src/core/lv_indev_scroll.c **** 
 248:Drivers/lvgl/src/core/lv_indev_scroll.c **** void lv_indev_scroll_get_snap_dist(lv_obj_t * obj, lv_point_t * p)
 249:Drivers/lvgl/src/core/lv_indev_scroll.c **** {
 250:Drivers/lvgl/src/core/lv_indev_scroll.c ****     p->x = find_snap_point_x(obj, obj->coords.x1, obj->coords.x2, 0);
 251:Drivers/lvgl/src/core/lv_indev_scroll.c ****     p->y = find_snap_point_y(obj, obj->coords.y1, obj->coords.y2, 0);
 252:Drivers/lvgl/src/core/lv_indev_scroll.c **** }
 253:Drivers/lvgl/src/core/lv_indev_scroll.c **** 
 254:Drivers/lvgl/src/core/lv_indev_scroll.c **** /**********************
 255:Drivers/lvgl/src/core/lv_indev_scroll.c ****  *   STATIC FUNCTIONS
 256:Drivers/lvgl/src/core/lv_indev_scroll.c ****  **********************/
 257:Drivers/lvgl/src/core/lv_indev_scroll.c **** 
ARM GAS  /var/folders/lp/x54gwt890xv47sdkqj1k04q40000gn/T//cc5DBzfs.s 			page 6


 258:Drivers/lvgl/src/core/lv_indev_scroll.c **** static lv_obj_t * find_scroll_obj(_lv_indev_proc_t * proc)
 259:Drivers/lvgl/src/core/lv_indev_scroll.c **** {
 260:Drivers/lvgl/src/core/lv_indev_scroll.c ****     lv_obj_t * obj_candidate = NULL;
 261:Drivers/lvgl/src/core/lv_indev_scroll.c ****     lv_dir_t dir_candidate = LV_DIR_NONE;
 262:Drivers/lvgl/src/core/lv_indev_scroll.c ****     lv_indev_t * indev_act = lv_indev_get_act();
 263:Drivers/lvgl/src/core/lv_indev_scroll.c ****     lv_coord_t scroll_limit = indev_act->driver->scroll_limit;
 264:Drivers/lvgl/src/core/lv_indev_scroll.c **** 
 265:Drivers/lvgl/src/core/lv_indev_scroll.c ****     /*Go until find a scrollable object in the current direction
 266:Drivers/lvgl/src/core/lv_indev_scroll.c ****      *More precisely:
 267:Drivers/lvgl/src/core/lv_indev_scroll.c ****      * 1. Check the pressed object and all of its ancestors and try to find an object which is scro
 268:Drivers/lvgl/src/core/lv_indev_scroll.c ****      * 2. Scrollable means it has some content out of its area
 269:Drivers/lvgl/src/core/lv_indev_scroll.c ****      * 3. If an object can be scrolled into the current direction then use it ("real match"")
 270:Drivers/lvgl/src/core/lv_indev_scroll.c ****      * 4. If can be scrolled on the current axis (hor/ver) save it as candidate (at least show an e
 271:Drivers/lvgl/src/core/lv_indev_scroll.c ****      * 5. Use the last candidate. Always the "deepest" parent or the object from point 3*/
 272:Drivers/lvgl/src/core/lv_indev_scroll.c ****     lv_obj_t * obj_act = proc->types.pointer.act_obj;
 273:Drivers/lvgl/src/core/lv_indev_scroll.c **** 
 274:Drivers/lvgl/src/core/lv_indev_scroll.c ****     /*Decide if it's a horizontal or vertical scroll*/
 275:Drivers/lvgl/src/core/lv_indev_scroll.c ****     bool hor_en = false;
 276:Drivers/lvgl/src/core/lv_indev_scroll.c ****     bool ver_en = false;
 277:Drivers/lvgl/src/core/lv_indev_scroll.c **** 
 278:Drivers/lvgl/src/core/lv_indev_scroll.c ****     proc->types.pointer.scroll_sum.x += proc->types.pointer.vect.x;
 279:Drivers/lvgl/src/core/lv_indev_scroll.c ****     proc->types.pointer.scroll_sum.y += proc->types.pointer.vect.y;
 280:Drivers/lvgl/src/core/lv_indev_scroll.c **** 
 281:Drivers/lvgl/src/core/lv_indev_scroll.c ****     while(obj_act) {
 282:Drivers/lvgl/src/core/lv_indev_scroll.c ****         /*Get the transformed scroll_sum with this object*/
 283:Drivers/lvgl/src/core/lv_indev_scroll.c ****         int16_t angle = 0;
 284:Drivers/lvgl/src/core/lv_indev_scroll.c ****         int32_t zoom = 256;
 285:Drivers/lvgl/src/core/lv_indev_scroll.c ****         lv_point_t pivot = { 0, 0 };
 286:Drivers/lvgl/src/core/lv_indev_scroll.c ****         lv_obj_t * parent = obj_act;
 287:Drivers/lvgl/src/core/lv_indev_scroll.c ****         while(parent) {
 288:Drivers/lvgl/src/core/lv_indev_scroll.c ****             angle += lv_obj_get_style_transform_angle(parent, 0);
 289:Drivers/lvgl/src/core/lv_indev_scroll.c ****             int32_t zoom_act = lv_obj_get_style_transform_zoom(parent, 0);
 290:Drivers/lvgl/src/core/lv_indev_scroll.c ****             zoom = (zoom * zoom_act) >> 8;
 291:Drivers/lvgl/src/core/lv_indev_scroll.c ****             parent = lv_obj_get_parent(parent);
 292:Drivers/lvgl/src/core/lv_indev_scroll.c ****         }
 293:Drivers/lvgl/src/core/lv_indev_scroll.c **** 
 294:Drivers/lvgl/src/core/lv_indev_scroll.c ****         lv_point_t obj_scroll_sum = proc->types.pointer.scroll_sum;
 295:Drivers/lvgl/src/core/lv_indev_scroll.c ****         if(angle != 0 || zoom != LV_IMG_ZOOM_NONE) {
 296:Drivers/lvgl/src/core/lv_indev_scroll.c ****             angle = -angle;
 297:Drivers/lvgl/src/core/lv_indev_scroll.c ****             zoom = (256 * 256) / zoom;
 298:Drivers/lvgl/src/core/lv_indev_scroll.c ****             lv_point_transform(&obj_scroll_sum, angle, zoom, &pivot);
 299:Drivers/lvgl/src/core/lv_indev_scroll.c ****         }
 300:Drivers/lvgl/src/core/lv_indev_scroll.c **** 
 301:Drivers/lvgl/src/core/lv_indev_scroll.c ****         if(LV_ABS(obj_scroll_sum.x) > LV_ABS(obj_scroll_sum.y)) {
 302:Drivers/lvgl/src/core/lv_indev_scroll.c ****             hor_en = true;
 303:Drivers/lvgl/src/core/lv_indev_scroll.c ****         }
 304:Drivers/lvgl/src/core/lv_indev_scroll.c ****         else {
 305:Drivers/lvgl/src/core/lv_indev_scroll.c ****             ver_en = true;
 306:Drivers/lvgl/src/core/lv_indev_scroll.c ****         }
 307:Drivers/lvgl/src/core/lv_indev_scroll.c **** 
 308:Drivers/lvgl/src/core/lv_indev_scroll.c ****         if(lv_obj_has_flag(obj_act, LV_OBJ_FLAG_SCROLLABLE) == false) {
 309:Drivers/lvgl/src/core/lv_indev_scroll.c ****             /*If this object don't want to chain the scroll to the parent stop searching*/
 310:Drivers/lvgl/src/core/lv_indev_scroll.c ****             if(lv_obj_has_flag(obj_act, LV_OBJ_FLAG_SCROLL_CHAIN_HOR) == false && hor_en) break;
 311:Drivers/lvgl/src/core/lv_indev_scroll.c ****             if(lv_obj_has_flag(obj_act, LV_OBJ_FLAG_SCROLL_CHAIN_VER) == false && ver_en) break;
 312:Drivers/lvgl/src/core/lv_indev_scroll.c **** 
 313:Drivers/lvgl/src/core/lv_indev_scroll.c ****             obj_act = lv_obj_get_parent(obj_act);
 314:Drivers/lvgl/src/core/lv_indev_scroll.c ****             continue;
ARM GAS  /var/folders/lp/x54gwt890xv47sdkqj1k04q40000gn/T//cc5DBzfs.s 			page 7


 315:Drivers/lvgl/src/core/lv_indev_scroll.c ****         }
 316:Drivers/lvgl/src/core/lv_indev_scroll.c **** 
 317:Drivers/lvgl/src/core/lv_indev_scroll.c ****         /*Consider both up-down or left/right scrollable according to the current direction*/
 318:Drivers/lvgl/src/core/lv_indev_scroll.c ****         bool up_en = ver_en;
 319:Drivers/lvgl/src/core/lv_indev_scroll.c ****         bool down_en = ver_en;
 320:Drivers/lvgl/src/core/lv_indev_scroll.c ****         bool left_en = hor_en;
 321:Drivers/lvgl/src/core/lv_indev_scroll.c ****         bool right_en = hor_en;
 322:Drivers/lvgl/src/core/lv_indev_scroll.c **** 
 323:Drivers/lvgl/src/core/lv_indev_scroll.c ****         /*The object might have disabled some directions.*/
 324:Drivers/lvgl/src/core/lv_indev_scroll.c ****         lv_dir_t scroll_dir = lv_obj_get_scroll_dir(obj_act);
 325:Drivers/lvgl/src/core/lv_indev_scroll.c ****         if((scroll_dir & LV_DIR_LEFT) == 0) left_en = false;
 326:Drivers/lvgl/src/core/lv_indev_scroll.c ****         if((scroll_dir & LV_DIR_RIGHT) == 0) right_en = false;
 327:Drivers/lvgl/src/core/lv_indev_scroll.c ****         if((scroll_dir & LV_DIR_TOP) == 0) up_en = false;
 328:Drivers/lvgl/src/core/lv_indev_scroll.c ****         if((scroll_dir & LV_DIR_BOTTOM) == 0) down_en = false;
 329:Drivers/lvgl/src/core/lv_indev_scroll.c **** 
 330:Drivers/lvgl/src/core/lv_indev_scroll.c ****         /*The object is scrollable to a direction if its content overflow in that direction.*/
 331:Drivers/lvgl/src/core/lv_indev_scroll.c ****         lv_coord_t st = lv_obj_get_scroll_top(obj_act);
 332:Drivers/lvgl/src/core/lv_indev_scroll.c ****         lv_coord_t sb = lv_obj_get_scroll_bottom(obj_act);
 333:Drivers/lvgl/src/core/lv_indev_scroll.c ****         lv_coord_t sl = lv_obj_get_scroll_left(obj_act);
 334:Drivers/lvgl/src/core/lv_indev_scroll.c ****         lv_coord_t sr = lv_obj_get_scroll_right(obj_act);
 335:Drivers/lvgl/src/core/lv_indev_scroll.c **** 
 336:Drivers/lvgl/src/core/lv_indev_scroll.c ****         /*If this object is scrollable into the current scroll direction then save it as a candidat
 337:Drivers/lvgl/src/core/lv_indev_scroll.c ****          *It's important only to be scrollable on the current axis (hor/ver) because if the scroll
 338:Drivers/lvgl/src/core/lv_indev_scroll.c ****          *is propagated to this object it can show at least elastic scroll effect.
 339:Drivers/lvgl/src/core/lv_indev_scroll.c ****          *But if not hor/ver scrollable do not scroll it at all (so it's not a good candidate)*/
 340:Drivers/lvgl/src/core/lv_indev_scroll.c ****         if((st > 0 || sb > 0)  &&
 341:Drivers/lvgl/src/core/lv_indev_scroll.c ****            ((up_en    && obj_scroll_sum.y >=   scroll_limit) ||
 342:Drivers/lvgl/src/core/lv_indev_scroll.c ****             (down_en  && obj_scroll_sum.y <= - scroll_limit))) {
 343:Drivers/lvgl/src/core/lv_indev_scroll.c ****             obj_candidate = obj_act;
 344:Drivers/lvgl/src/core/lv_indev_scroll.c ****             dir_candidate = LV_DIR_VER;
 345:Drivers/lvgl/src/core/lv_indev_scroll.c ****         }
 346:Drivers/lvgl/src/core/lv_indev_scroll.c **** 
 347:Drivers/lvgl/src/core/lv_indev_scroll.c ****         if((sl > 0 || sr > 0)  &&
 348:Drivers/lvgl/src/core/lv_indev_scroll.c ****            ((left_en   && obj_scroll_sum.x >=   scroll_limit) ||
 349:Drivers/lvgl/src/core/lv_indev_scroll.c ****             (right_en  && obj_scroll_sum.x <= - scroll_limit))) {
 350:Drivers/lvgl/src/core/lv_indev_scroll.c ****             obj_candidate = obj_act;
 351:Drivers/lvgl/src/core/lv_indev_scroll.c ****             dir_candidate = LV_DIR_HOR;
 352:Drivers/lvgl/src/core/lv_indev_scroll.c ****         }
 353:Drivers/lvgl/src/core/lv_indev_scroll.c **** 
 354:Drivers/lvgl/src/core/lv_indev_scroll.c ****         if(st <= 0) up_en = false;
 355:Drivers/lvgl/src/core/lv_indev_scroll.c ****         if(sb <= 0) down_en = false;
 356:Drivers/lvgl/src/core/lv_indev_scroll.c ****         if(sl <= 0) left_en = false;
 357:Drivers/lvgl/src/core/lv_indev_scroll.c ****         if(sr <= 0) right_en = false;
 358:Drivers/lvgl/src/core/lv_indev_scroll.c **** 
 359:Drivers/lvgl/src/core/lv_indev_scroll.c ****         /*If the object really can be scrolled into the current direction then use it.*/
 360:Drivers/lvgl/src/core/lv_indev_scroll.c ****         if((left_en  && obj_scroll_sum.x >=   scroll_limit) ||
 361:Drivers/lvgl/src/core/lv_indev_scroll.c ****            (right_en && obj_scroll_sum.x <= - scroll_limit) ||
 362:Drivers/lvgl/src/core/lv_indev_scroll.c ****            (up_en    && obj_scroll_sum.y >=   scroll_limit) ||
 363:Drivers/lvgl/src/core/lv_indev_scroll.c ****            (down_en  && obj_scroll_sum.y <= - scroll_limit)) {
 364:Drivers/lvgl/src/core/lv_indev_scroll.c ****             proc->types.pointer.scroll_dir = hor_en ? LV_DIR_HOR : LV_DIR_VER;
 365:Drivers/lvgl/src/core/lv_indev_scroll.c ****             break;
 366:Drivers/lvgl/src/core/lv_indev_scroll.c ****         }
 367:Drivers/lvgl/src/core/lv_indev_scroll.c **** 
 368:Drivers/lvgl/src/core/lv_indev_scroll.c ****         /*If this object don't want to chain the scroll to the parent stop searching*/
 369:Drivers/lvgl/src/core/lv_indev_scroll.c ****         if(lv_obj_has_flag(obj_act, LV_OBJ_FLAG_SCROLL_CHAIN_HOR) == false && hor_en) break;
 370:Drivers/lvgl/src/core/lv_indev_scroll.c ****         if(lv_obj_has_flag(obj_act, LV_OBJ_FLAG_SCROLL_CHAIN_VER) == false && ver_en) break;
 371:Drivers/lvgl/src/core/lv_indev_scroll.c **** 
ARM GAS  /var/folders/lp/x54gwt890xv47sdkqj1k04q40000gn/T//cc5DBzfs.s 			page 8


 372:Drivers/lvgl/src/core/lv_indev_scroll.c ****         /*Try the parent*/
 373:Drivers/lvgl/src/core/lv_indev_scroll.c ****         obj_act = lv_obj_get_parent(obj_act);
 374:Drivers/lvgl/src/core/lv_indev_scroll.c ****     }
 375:Drivers/lvgl/src/core/lv_indev_scroll.c **** 
 376:Drivers/lvgl/src/core/lv_indev_scroll.c ****     /*Use the last candidate*/
 377:Drivers/lvgl/src/core/lv_indev_scroll.c ****     if(obj_candidate) {
 378:Drivers/lvgl/src/core/lv_indev_scroll.c ****         proc->types.pointer.scroll_dir = dir_candidate;
 379:Drivers/lvgl/src/core/lv_indev_scroll.c ****         proc->types.pointer.scroll_obj = obj_candidate;
 380:Drivers/lvgl/src/core/lv_indev_scroll.c ****         proc->types.pointer.scroll_sum.x = 0;
 381:Drivers/lvgl/src/core/lv_indev_scroll.c ****         proc->types.pointer.scroll_sum.y = 0;
 382:Drivers/lvgl/src/core/lv_indev_scroll.c ****     }
 383:Drivers/lvgl/src/core/lv_indev_scroll.c **** 
 384:Drivers/lvgl/src/core/lv_indev_scroll.c ****     return obj_candidate;
 385:Drivers/lvgl/src/core/lv_indev_scroll.c **** }
 386:Drivers/lvgl/src/core/lv_indev_scroll.c **** 
 387:Drivers/lvgl/src/core/lv_indev_scroll.c **** static void init_scroll_limits(_lv_indev_proc_t * proc)
 388:Drivers/lvgl/src/core/lv_indev_scroll.c **** {
 389:Drivers/lvgl/src/core/lv_indev_scroll.c ****     lv_obj_t * obj = proc->types.pointer.scroll_obj;
 390:Drivers/lvgl/src/core/lv_indev_scroll.c ****     /*If there no STOP allow scrolling anywhere*/
 391:Drivers/lvgl/src/core/lv_indev_scroll.c ****     if(lv_obj_has_flag(obj, LV_OBJ_FLAG_SCROLL_ONE) == false) {
 392:Drivers/lvgl/src/core/lv_indev_scroll.c ****         lv_area_set(&proc->types.pointer.scroll_area, LV_COORD_MIN, LV_COORD_MIN, LV_COORD_MAX, LV_
 393:Drivers/lvgl/src/core/lv_indev_scroll.c ****     }
 394:Drivers/lvgl/src/core/lv_indev_scroll.c ****     /*With STOP limit the scrolling to the perv and next snap point*/
 395:Drivers/lvgl/src/core/lv_indev_scroll.c ****     else {
 396:Drivers/lvgl/src/core/lv_indev_scroll.c ****         switch(lv_obj_get_scroll_snap_y(obj)) {
 397:Drivers/lvgl/src/core/lv_indev_scroll.c ****             case LV_SCROLL_SNAP_START:
 398:Drivers/lvgl/src/core/lv_indev_scroll.c ****                 proc->types.pointer.scroll_area.y1 = find_snap_point_y(obj, obj->coords.y1 + 1, LV_
 399:Drivers/lvgl/src/core/lv_indev_scroll.c ****                 proc->types.pointer.scroll_area.y2 = find_snap_point_y(obj, LV_COORD_MIN, obj->coor
 400:Drivers/lvgl/src/core/lv_indev_scroll.c ****                 break;
 401:Drivers/lvgl/src/core/lv_indev_scroll.c ****             case LV_SCROLL_SNAP_END:
 402:Drivers/lvgl/src/core/lv_indev_scroll.c ****                 proc->types.pointer.scroll_area.y1 = find_snap_point_y(obj, obj->coords.y2, LV_COOR
 403:Drivers/lvgl/src/core/lv_indev_scroll.c ****                 proc->types.pointer.scroll_area.y2 = find_snap_point_y(obj, LV_COORD_MIN, obj->coor
 404:Drivers/lvgl/src/core/lv_indev_scroll.c ****                 break;
 405:Drivers/lvgl/src/core/lv_indev_scroll.c ****             case LV_SCROLL_SNAP_CENTER: {
 406:Drivers/lvgl/src/core/lv_indev_scroll.c ****                     lv_coord_t y_mid = obj->coords.y1 + lv_area_get_height(&obj->coords) / 2;
 407:Drivers/lvgl/src/core/lv_indev_scroll.c ****                     proc->types.pointer.scroll_area.y1 = find_snap_point_y(obj, y_mid + 1, LV_COORD
 408:Drivers/lvgl/src/core/lv_indev_scroll.c ****                     proc->types.pointer.scroll_area.y2 = find_snap_point_y(obj, LV_COORD_MIN, y_mid
 409:Drivers/lvgl/src/core/lv_indev_scroll.c ****                     break;
 410:Drivers/lvgl/src/core/lv_indev_scroll.c ****                 }
 411:Drivers/lvgl/src/core/lv_indev_scroll.c ****             default:
 412:Drivers/lvgl/src/core/lv_indev_scroll.c ****                 proc->types.pointer.scroll_area.y1 = LV_COORD_MIN;
 413:Drivers/lvgl/src/core/lv_indev_scroll.c ****                 proc->types.pointer.scroll_area.y2 = LV_COORD_MAX;
 414:Drivers/lvgl/src/core/lv_indev_scroll.c ****                 break;
 415:Drivers/lvgl/src/core/lv_indev_scroll.c ****         }
 416:Drivers/lvgl/src/core/lv_indev_scroll.c **** 
 417:Drivers/lvgl/src/core/lv_indev_scroll.c ****         switch(lv_obj_get_scroll_snap_x(obj)) {
 418:Drivers/lvgl/src/core/lv_indev_scroll.c ****             case LV_SCROLL_SNAP_START:
 419:Drivers/lvgl/src/core/lv_indev_scroll.c ****                 proc->types.pointer.scroll_area.x1 = find_snap_point_x(obj, obj->coords.x1, LV_COOR
 420:Drivers/lvgl/src/core/lv_indev_scroll.c ****                 proc->types.pointer.scroll_area.x2 = find_snap_point_x(obj, LV_COORD_MIN, obj->coor
 421:Drivers/lvgl/src/core/lv_indev_scroll.c ****                 break;
 422:Drivers/lvgl/src/core/lv_indev_scroll.c ****             case LV_SCROLL_SNAP_END:
 423:Drivers/lvgl/src/core/lv_indev_scroll.c ****                 proc->types.pointer.scroll_area.x1 = find_snap_point_x(obj, obj->coords.x2, LV_COOR
 424:Drivers/lvgl/src/core/lv_indev_scroll.c ****                 proc->types.pointer.scroll_area.x2 = find_snap_point_x(obj, LV_COORD_MIN, obj->coor
 425:Drivers/lvgl/src/core/lv_indev_scroll.c ****                 break;
 426:Drivers/lvgl/src/core/lv_indev_scroll.c ****             case LV_SCROLL_SNAP_CENTER: {
 427:Drivers/lvgl/src/core/lv_indev_scroll.c ****                     lv_coord_t x_mid = obj->coords.x1 + lv_area_get_width(&obj->coords) / 2;
 428:Drivers/lvgl/src/core/lv_indev_scroll.c ****                     proc->types.pointer.scroll_area.x1 = find_snap_point_x(obj, x_mid + 1, LV_COORD
ARM GAS  /var/folders/lp/x54gwt890xv47sdkqj1k04q40000gn/T//cc5DBzfs.s 			page 9


 429:Drivers/lvgl/src/core/lv_indev_scroll.c ****                     proc->types.pointer.scroll_area.x2 = find_snap_point_x(obj, LV_COORD_MIN, x_mid
 430:Drivers/lvgl/src/core/lv_indev_scroll.c ****                     break;
 431:Drivers/lvgl/src/core/lv_indev_scroll.c ****                 }
 432:Drivers/lvgl/src/core/lv_indev_scroll.c ****             default:
 433:Drivers/lvgl/src/core/lv_indev_scroll.c ****                 proc->types.pointer.scroll_area.x1 = LV_COORD_MIN;
 434:Drivers/lvgl/src/core/lv_indev_scroll.c ****                 proc->types.pointer.scroll_area.x2 = LV_COORD_MAX;
 435:Drivers/lvgl/src/core/lv_indev_scroll.c ****                 break;
 436:Drivers/lvgl/src/core/lv_indev_scroll.c ****         }
 437:Drivers/lvgl/src/core/lv_indev_scroll.c ****     }
 438:Drivers/lvgl/src/core/lv_indev_scroll.c **** 
 439:Drivers/lvgl/src/core/lv_indev_scroll.c ****     /*Allow scrolling on the edges. It will be reverted to the edge due to snapping anyway*/
 440:Drivers/lvgl/src/core/lv_indev_scroll.c ****     if(proc->types.pointer.scroll_area.x1 == 0) proc->types.pointer.scroll_area.x1 = LV_COORD_MIN;
 441:Drivers/lvgl/src/core/lv_indev_scroll.c ****     if(proc->types.pointer.scroll_area.x2 == 0) proc->types.pointer.scroll_area.x2 = LV_COORD_MAX;
 442:Drivers/lvgl/src/core/lv_indev_scroll.c ****     if(proc->types.pointer.scroll_area.y1 == 0) proc->types.pointer.scroll_area.y1 = LV_COORD_MIN;
 443:Drivers/lvgl/src/core/lv_indev_scroll.c ****     if(proc->types.pointer.scroll_area.y2 == 0) proc->types.pointer.scroll_area.y2 = LV_COORD_MAX;
 444:Drivers/lvgl/src/core/lv_indev_scroll.c **** }
 445:Drivers/lvgl/src/core/lv_indev_scroll.c **** 
 446:Drivers/lvgl/src/core/lv_indev_scroll.c **** /**
 447:Drivers/lvgl/src/core/lv_indev_scroll.c ****  * Search for snap point in the `min` - `max` range.
 448:Drivers/lvgl/src/core/lv_indev_scroll.c ****  * @param obj the object on which snap point should be found
 449:Drivers/lvgl/src/core/lv_indev_scroll.c ****  * @param min ignore snap points smaller than this. (Absolute coordinate)
 450:Drivers/lvgl/src/core/lv_indev_scroll.c ****  * @param max ignore snap points greater than this. (Absolute coordinate)
 451:Drivers/lvgl/src/core/lv_indev_scroll.c ****  * @param ofs offset to snap points. Useful the get a snap point in an imagined case
 452:Drivers/lvgl/src/core/lv_indev_scroll.c ****  *            what if children are already moved by this value
 453:Drivers/lvgl/src/core/lv_indev_scroll.c ****  * @return the distance of the snap point.
 454:Drivers/lvgl/src/core/lv_indev_scroll.c ****  */
 455:Drivers/lvgl/src/core/lv_indev_scroll.c **** static lv_coord_t find_snap_point_x(const lv_obj_t * obj, lv_coord_t min, lv_coord_t max, lv_coord_
 456:Drivers/lvgl/src/core/lv_indev_scroll.c **** {
 457:Drivers/lvgl/src/core/lv_indev_scroll.c ****     lv_scroll_snap_t align = lv_obj_get_scroll_snap_x(obj);
 458:Drivers/lvgl/src/core/lv_indev_scroll.c ****     if(align == LV_SCROLL_SNAP_NONE) return 0;
 459:Drivers/lvgl/src/core/lv_indev_scroll.c **** 
 460:Drivers/lvgl/src/core/lv_indev_scroll.c ****     lv_coord_t dist = LV_COORD_MAX;
 461:Drivers/lvgl/src/core/lv_indev_scroll.c **** 
 462:Drivers/lvgl/src/core/lv_indev_scroll.c ****     lv_coord_t pad_left = lv_obj_get_style_pad_left(obj, LV_PART_MAIN);
 463:Drivers/lvgl/src/core/lv_indev_scroll.c ****     lv_coord_t pad_right = lv_obj_get_style_pad_right(obj, LV_PART_MAIN);
 464:Drivers/lvgl/src/core/lv_indev_scroll.c **** 
 465:Drivers/lvgl/src/core/lv_indev_scroll.c ****     uint32_t i;
 466:Drivers/lvgl/src/core/lv_indev_scroll.c ****     uint32_t child_cnt = lv_obj_get_child_cnt(obj);
 467:Drivers/lvgl/src/core/lv_indev_scroll.c ****     for(i = 0; i < child_cnt; i++) {
 468:Drivers/lvgl/src/core/lv_indev_scroll.c ****         lv_obj_t * child = obj->spec_attr->children[i];
 469:Drivers/lvgl/src/core/lv_indev_scroll.c ****         if(lv_obj_has_flag_any(child, LV_OBJ_FLAG_HIDDEN | LV_OBJ_FLAG_FLOATING)) continue;
 470:Drivers/lvgl/src/core/lv_indev_scroll.c ****         if(lv_obj_has_flag(child, LV_OBJ_FLAG_SNAPPABLE)) {
 471:Drivers/lvgl/src/core/lv_indev_scroll.c ****             lv_coord_t x_child = 0;
 472:Drivers/lvgl/src/core/lv_indev_scroll.c ****             lv_coord_t x_parent = 0;
 473:Drivers/lvgl/src/core/lv_indev_scroll.c ****             switch(align) {
 474:Drivers/lvgl/src/core/lv_indev_scroll.c ****                 case LV_SCROLL_SNAP_START:
 475:Drivers/lvgl/src/core/lv_indev_scroll.c ****                     x_child = child->coords.x1;
 476:Drivers/lvgl/src/core/lv_indev_scroll.c ****                     x_parent = obj->coords.x1 + pad_left;
 477:Drivers/lvgl/src/core/lv_indev_scroll.c ****                     break;
 478:Drivers/lvgl/src/core/lv_indev_scroll.c ****                 case LV_SCROLL_SNAP_END:
 479:Drivers/lvgl/src/core/lv_indev_scroll.c ****                     x_child = child->coords.x2;
 480:Drivers/lvgl/src/core/lv_indev_scroll.c ****                     x_parent = obj->coords.x2 - pad_right;
 481:Drivers/lvgl/src/core/lv_indev_scroll.c ****                     break;
 482:Drivers/lvgl/src/core/lv_indev_scroll.c ****                 case LV_SCROLL_SNAP_CENTER:
 483:Drivers/lvgl/src/core/lv_indev_scroll.c ****                     x_child = child->coords.x1 + lv_area_get_width(&child->coords) / 2;
 484:Drivers/lvgl/src/core/lv_indev_scroll.c ****                     x_parent = obj->coords.x1 + pad_left + (lv_area_get_width(&obj->coords) - pad_l
 485:Drivers/lvgl/src/core/lv_indev_scroll.c ****                     break;
ARM GAS  /var/folders/lp/x54gwt890xv47sdkqj1k04q40000gn/T//cc5DBzfs.s 			page 10


 486:Drivers/lvgl/src/core/lv_indev_scroll.c ****                 default:
 487:Drivers/lvgl/src/core/lv_indev_scroll.c ****                     continue;
 488:Drivers/lvgl/src/core/lv_indev_scroll.c ****             }
 489:Drivers/lvgl/src/core/lv_indev_scroll.c **** 
 490:Drivers/lvgl/src/core/lv_indev_scroll.c ****             x_child += ofs;
 491:Drivers/lvgl/src/core/lv_indev_scroll.c ****             if(x_child >= min && x_child <= max) {
 492:Drivers/lvgl/src/core/lv_indev_scroll.c ****                 lv_coord_t x = x_child -  x_parent;
 493:Drivers/lvgl/src/core/lv_indev_scroll.c ****                 if(LV_ABS(x) < LV_ABS(dist)) dist = x;
 494:Drivers/lvgl/src/core/lv_indev_scroll.c ****             }
 495:Drivers/lvgl/src/core/lv_indev_scroll.c ****         }
 496:Drivers/lvgl/src/core/lv_indev_scroll.c ****     }
 497:Drivers/lvgl/src/core/lv_indev_scroll.c **** 
 498:Drivers/lvgl/src/core/lv_indev_scroll.c ****     return dist == LV_COORD_MAX ? 0 : -dist;
 499:Drivers/lvgl/src/core/lv_indev_scroll.c **** }
 500:Drivers/lvgl/src/core/lv_indev_scroll.c **** 
 501:Drivers/lvgl/src/core/lv_indev_scroll.c **** /**
 502:Drivers/lvgl/src/core/lv_indev_scroll.c ****  * Search for snap point in the `min` - `max` range.
 503:Drivers/lvgl/src/core/lv_indev_scroll.c ****  * @param obj the object on which snap point should be found
 504:Drivers/lvgl/src/core/lv_indev_scroll.c ****  * @param min ignore snap points smaller than this. (Absolute coordinate)
 505:Drivers/lvgl/src/core/lv_indev_scroll.c ****  * @param max ignore snap points greater than this. (Absolute coordinate)
 506:Drivers/lvgl/src/core/lv_indev_scroll.c ****  * @param ofs offset to snap points. Useful to get a snap point in an imagined case
 507:Drivers/lvgl/src/core/lv_indev_scroll.c ****  *            what if children are already moved by this value
 508:Drivers/lvgl/src/core/lv_indev_scroll.c ****  * @return the distance of the snap point.
 509:Drivers/lvgl/src/core/lv_indev_scroll.c ****  */
 510:Drivers/lvgl/src/core/lv_indev_scroll.c **** static lv_coord_t find_snap_point_y(const lv_obj_t * obj, lv_coord_t min, lv_coord_t max, lv_coord_
 511:Drivers/lvgl/src/core/lv_indev_scroll.c **** {
  30              		.loc 1 511 1 view -0
  31              		.cfi_startproc
  32              		@ args = 0, pretend = 0, frame = 24
  33              		@ frame_needed = 0, uses_anonymous_args = 0
 512:Drivers/lvgl/src/core/lv_indev_scroll.c ****     lv_scroll_snap_t align = lv_obj_get_scroll_snap_y(obj);
  34              		.loc 1 512 5 view .LVU1
 511:Drivers/lvgl/src/core/lv_indev_scroll.c ****     lv_scroll_snap_t align = lv_obj_get_scroll_snap_y(obj);
  35              		.loc 1 511 1 is_stmt 0 view .LVU2
  36 0000 2DE9F04F 		push	{r4, r5, r6, r7, r8, r9, r10, fp, lr}
  37              		.cfi_def_cfa_offset 36
  38              		.cfi_offset 4, -36
  39              		.cfi_offset 5, -32
  40              		.cfi_offset 6, -28
  41              		.cfi_offset 7, -24
  42              		.cfi_offset 8, -20
  43              		.cfi_offset 9, -16
  44              		.cfi_offset 10, -12
  45              		.cfi_offset 11, -8
  46              		.cfi_offset 14, -4
  47 0004 87B0     		sub	sp, sp, #28
  48              		.cfi_def_cfa_offset 64
 511:Drivers/lvgl/src/core/lv_indev_scroll.c ****     lv_scroll_snap_t align = lv_obj_get_scroll_snap_y(obj);
  49              		.loc 1 511 1 view .LVU3
  50 0006 0646     		mov	r6, r0
  51 0008 8846     		mov	r8, r1
  52 000a 0092     		str	r2, [sp]
  53 000c 9946     		mov	r9, r3
  54              		.loc 1 512 30 view .LVU4
  55 000e FFF7FEFF 		bl	lv_obj_get_scroll_snap_y
  56              	.LVL1:
 513:Drivers/lvgl/src/core/lv_indev_scroll.c ****     if(align == LV_SCROLL_SNAP_NONE) return 0;
ARM GAS  /var/folders/lp/x54gwt890xv47sdkqj1k04q40000gn/T//cc5DBzfs.s 			page 11


  57              		.loc 1 513 5 is_stmt 1 view .LVU5
  58              		.loc 1 513 7 is_stmt 0 view .LVU6
  59 0012 18B9     		cbnz	r0, .L2
  60              	.LVL2:
  61              	.L4:
  62              		.loc 1 513 45 discriminator 1 view .LVU7
  63 0014 0020     		movs	r0, #0
 514:Drivers/lvgl/src/core/lv_indev_scroll.c **** 
 515:Drivers/lvgl/src/core/lv_indev_scroll.c ****     lv_coord_t dist = LV_COORD_MAX;
 516:Drivers/lvgl/src/core/lv_indev_scroll.c **** 
 517:Drivers/lvgl/src/core/lv_indev_scroll.c ****     lv_coord_t pad_top = lv_obj_get_style_pad_top(obj, LV_PART_MAIN);
 518:Drivers/lvgl/src/core/lv_indev_scroll.c ****     lv_coord_t pad_bottom = lv_obj_get_style_pad_bottom(obj, LV_PART_MAIN);
 519:Drivers/lvgl/src/core/lv_indev_scroll.c **** 
 520:Drivers/lvgl/src/core/lv_indev_scroll.c ****     uint32_t i;
 521:Drivers/lvgl/src/core/lv_indev_scroll.c ****     uint32_t child_cnt = lv_obj_get_child_cnt(obj);
 522:Drivers/lvgl/src/core/lv_indev_scroll.c ****     for(i = 0; i < child_cnt; i++) {
 523:Drivers/lvgl/src/core/lv_indev_scroll.c ****         lv_obj_t * child = obj->spec_attr->children[i];
 524:Drivers/lvgl/src/core/lv_indev_scroll.c ****         if(lv_obj_has_flag_any(child, LV_OBJ_FLAG_HIDDEN | LV_OBJ_FLAG_FLOATING)) continue;
 525:Drivers/lvgl/src/core/lv_indev_scroll.c ****         if(lv_obj_has_flag(child, LV_OBJ_FLAG_SNAPPABLE)) {
 526:Drivers/lvgl/src/core/lv_indev_scroll.c ****             lv_coord_t y_child = 0;
 527:Drivers/lvgl/src/core/lv_indev_scroll.c ****             lv_coord_t y_parent = 0;
 528:Drivers/lvgl/src/core/lv_indev_scroll.c ****             switch(align) {
 529:Drivers/lvgl/src/core/lv_indev_scroll.c ****                 case LV_SCROLL_SNAP_START:
 530:Drivers/lvgl/src/core/lv_indev_scroll.c ****                     y_child = child->coords.y1;
 531:Drivers/lvgl/src/core/lv_indev_scroll.c ****                     y_parent = obj->coords.y1 + pad_top;
 532:Drivers/lvgl/src/core/lv_indev_scroll.c ****                     break;
 533:Drivers/lvgl/src/core/lv_indev_scroll.c ****                 case LV_SCROLL_SNAP_END:
 534:Drivers/lvgl/src/core/lv_indev_scroll.c ****                     y_child = child->coords.y2;
 535:Drivers/lvgl/src/core/lv_indev_scroll.c ****                     y_parent = obj->coords.y2 - pad_bottom;
 536:Drivers/lvgl/src/core/lv_indev_scroll.c ****                     break;
 537:Drivers/lvgl/src/core/lv_indev_scroll.c ****                 case LV_SCROLL_SNAP_CENTER:
 538:Drivers/lvgl/src/core/lv_indev_scroll.c ****                     y_child = child->coords.y1 + lv_area_get_height(&child->coords) / 2;
 539:Drivers/lvgl/src/core/lv_indev_scroll.c ****                     y_parent = obj->coords.y1 + pad_top + (lv_area_get_height(&obj->coords) - pad_t
 540:Drivers/lvgl/src/core/lv_indev_scroll.c ****                     break;
 541:Drivers/lvgl/src/core/lv_indev_scroll.c ****                 default:
 542:Drivers/lvgl/src/core/lv_indev_scroll.c ****                     continue;
 543:Drivers/lvgl/src/core/lv_indev_scroll.c ****             }
 544:Drivers/lvgl/src/core/lv_indev_scroll.c **** 
 545:Drivers/lvgl/src/core/lv_indev_scroll.c ****             y_child += ofs;
 546:Drivers/lvgl/src/core/lv_indev_scroll.c ****             if(y_child >= min && y_child <= max) {
 547:Drivers/lvgl/src/core/lv_indev_scroll.c ****                 lv_coord_t y = y_child -  y_parent;
 548:Drivers/lvgl/src/core/lv_indev_scroll.c ****                 if(LV_ABS(y) < LV_ABS(dist)) dist = y;
 549:Drivers/lvgl/src/core/lv_indev_scroll.c ****             }
 550:Drivers/lvgl/src/core/lv_indev_scroll.c ****         }
 551:Drivers/lvgl/src/core/lv_indev_scroll.c ****     }
 552:Drivers/lvgl/src/core/lv_indev_scroll.c **** 
 553:Drivers/lvgl/src/core/lv_indev_scroll.c ****     return dist == LV_COORD_MAX ? 0 : -dist;
 554:Drivers/lvgl/src/core/lv_indev_scroll.c **** }
  64              		.loc 1 554 1 view .LVU8
  65 0016 07B0     		add	sp, sp, #28
  66              		.cfi_remember_state
  67              		.cfi_def_cfa_offset 36
  68              	.LVL3:
  69              		.loc 1 554 1 view .LVU9
  70              		@ sp needed
  71 0018 BDE8F08F 		pop	{r4, r5, r6, r7, r8, r9, r10, fp, pc}
  72              	.LVL4:
ARM GAS  /var/folders/lp/x54gwt890xv47sdkqj1k04q40000gn/T//cc5DBzfs.s 			page 12


  73              	.L2:
  74              		.cfi_restore_state
 515:Drivers/lvgl/src/core/lv_indev_scroll.c **** 
  75              		.loc 1 515 5 is_stmt 1 view .LVU10
 517:Drivers/lvgl/src/core/lv_indev_scroll.c ****     lv_coord_t pad_bottom = lv_obj_get_style_pad_bottom(obj, LV_PART_MAIN);
  76              		.loc 1 517 5 view .LVU11
  77              	.LBB81:
  78              	.LBI81:
  79              		.file 2 "Drivers/lvgl/src/core/lv_obj_style_gen.h"
   1:Drivers/lvgl/src/core/lv_obj_style_gen.h **** static inline lv_coord_t lv_obj_get_style_width(const struct _lv_obj_t * obj, uint32_t part)
   2:Drivers/lvgl/src/core/lv_obj_style_gen.h **** {
   3:Drivers/lvgl/src/core/lv_obj_style_gen.h ****     lv_style_value_t v = lv_obj_get_style_prop(obj, part, LV_STYLE_WIDTH);
   4:Drivers/lvgl/src/core/lv_obj_style_gen.h ****     return (lv_coord_t)v.num;
   5:Drivers/lvgl/src/core/lv_obj_style_gen.h **** }
   6:Drivers/lvgl/src/core/lv_obj_style_gen.h **** 
   7:Drivers/lvgl/src/core/lv_obj_style_gen.h **** static inline lv_coord_t lv_obj_get_style_min_width(const struct _lv_obj_t * obj, uint32_t part)
   8:Drivers/lvgl/src/core/lv_obj_style_gen.h **** {
   9:Drivers/lvgl/src/core/lv_obj_style_gen.h ****     lv_style_value_t v = lv_obj_get_style_prop(obj, part, LV_STYLE_MIN_WIDTH);
  10:Drivers/lvgl/src/core/lv_obj_style_gen.h ****     return (lv_coord_t)v.num;
  11:Drivers/lvgl/src/core/lv_obj_style_gen.h **** }
  12:Drivers/lvgl/src/core/lv_obj_style_gen.h **** 
  13:Drivers/lvgl/src/core/lv_obj_style_gen.h **** static inline lv_coord_t lv_obj_get_style_max_width(const struct _lv_obj_t * obj, uint32_t part)
  14:Drivers/lvgl/src/core/lv_obj_style_gen.h **** {
  15:Drivers/lvgl/src/core/lv_obj_style_gen.h ****     lv_style_value_t v = lv_obj_get_style_prop(obj, part, LV_STYLE_MAX_WIDTH);
  16:Drivers/lvgl/src/core/lv_obj_style_gen.h ****     return (lv_coord_t)v.num;
  17:Drivers/lvgl/src/core/lv_obj_style_gen.h **** }
  18:Drivers/lvgl/src/core/lv_obj_style_gen.h **** 
  19:Drivers/lvgl/src/core/lv_obj_style_gen.h **** static inline lv_coord_t lv_obj_get_style_height(const struct _lv_obj_t * obj, uint32_t part)
  20:Drivers/lvgl/src/core/lv_obj_style_gen.h **** {
  21:Drivers/lvgl/src/core/lv_obj_style_gen.h ****     lv_style_value_t v = lv_obj_get_style_prop(obj, part, LV_STYLE_HEIGHT);
  22:Drivers/lvgl/src/core/lv_obj_style_gen.h ****     return (lv_coord_t)v.num;
  23:Drivers/lvgl/src/core/lv_obj_style_gen.h **** }
  24:Drivers/lvgl/src/core/lv_obj_style_gen.h **** 
  25:Drivers/lvgl/src/core/lv_obj_style_gen.h **** static inline lv_coord_t lv_obj_get_style_min_height(const struct _lv_obj_t * obj, uint32_t part)
  26:Drivers/lvgl/src/core/lv_obj_style_gen.h **** {
  27:Drivers/lvgl/src/core/lv_obj_style_gen.h ****     lv_style_value_t v = lv_obj_get_style_prop(obj, part, LV_STYLE_MIN_HEIGHT);
  28:Drivers/lvgl/src/core/lv_obj_style_gen.h ****     return (lv_coord_t)v.num;
  29:Drivers/lvgl/src/core/lv_obj_style_gen.h **** }
  30:Drivers/lvgl/src/core/lv_obj_style_gen.h **** 
  31:Drivers/lvgl/src/core/lv_obj_style_gen.h **** static inline lv_coord_t lv_obj_get_style_max_height(const struct _lv_obj_t * obj, uint32_t part)
  32:Drivers/lvgl/src/core/lv_obj_style_gen.h **** {
  33:Drivers/lvgl/src/core/lv_obj_style_gen.h ****     lv_style_value_t v = lv_obj_get_style_prop(obj, part, LV_STYLE_MAX_HEIGHT);
  34:Drivers/lvgl/src/core/lv_obj_style_gen.h ****     return (lv_coord_t)v.num;
  35:Drivers/lvgl/src/core/lv_obj_style_gen.h **** }
  36:Drivers/lvgl/src/core/lv_obj_style_gen.h **** 
  37:Drivers/lvgl/src/core/lv_obj_style_gen.h **** static inline lv_coord_t lv_obj_get_style_x(const struct _lv_obj_t * obj, uint32_t part)
  38:Drivers/lvgl/src/core/lv_obj_style_gen.h **** {
  39:Drivers/lvgl/src/core/lv_obj_style_gen.h ****     lv_style_value_t v = lv_obj_get_style_prop(obj, part, LV_STYLE_X);
  40:Drivers/lvgl/src/core/lv_obj_style_gen.h ****     return (lv_coord_t)v.num;
  41:Drivers/lvgl/src/core/lv_obj_style_gen.h **** }
  42:Drivers/lvgl/src/core/lv_obj_style_gen.h **** 
  43:Drivers/lvgl/src/core/lv_obj_style_gen.h **** static inline lv_coord_t lv_obj_get_style_y(const struct _lv_obj_t * obj, uint32_t part)
  44:Drivers/lvgl/src/core/lv_obj_style_gen.h **** {
  45:Drivers/lvgl/src/core/lv_obj_style_gen.h ****     lv_style_value_t v = lv_obj_get_style_prop(obj, part, LV_STYLE_Y);
  46:Drivers/lvgl/src/core/lv_obj_style_gen.h ****     return (lv_coord_t)v.num;
  47:Drivers/lvgl/src/core/lv_obj_style_gen.h **** }
  48:Drivers/lvgl/src/core/lv_obj_style_gen.h **** 
ARM GAS  /var/folders/lp/x54gwt890xv47sdkqj1k04q40000gn/T//cc5DBzfs.s 			page 13


  49:Drivers/lvgl/src/core/lv_obj_style_gen.h **** static inline lv_align_t lv_obj_get_style_align(const struct _lv_obj_t * obj, uint32_t part)
  50:Drivers/lvgl/src/core/lv_obj_style_gen.h **** {
  51:Drivers/lvgl/src/core/lv_obj_style_gen.h ****     lv_style_value_t v = lv_obj_get_style_prop(obj, part, LV_STYLE_ALIGN);
  52:Drivers/lvgl/src/core/lv_obj_style_gen.h ****     return (lv_align_t)v.num;
  53:Drivers/lvgl/src/core/lv_obj_style_gen.h **** }
  54:Drivers/lvgl/src/core/lv_obj_style_gen.h **** 
  55:Drivers/lvgl/src/core/lv_obj_style_gen.h **** static inline lv_coord_t lv_obj_get_style_transform_width(const struct _lv_obj_t * obj, uint32_t pa
  56:Drivers/lvgl/src/core/lv_obj_style_gen.h **** {
  57:Drivers/lvgl/src/core/lv_obj_style_gen.h ****     lv_style_value_t v = lv_obj_get_style_prop(obj, part, LV_STYLE_TRANSFORM_WIDTH);
  58:Drivers/lvgl/src/core/lv_obj_style_gen.h ****     return (lv_coord_t)v.num;
  59:Drivers/lvgl/src/core/lv_obj_style_gen.h **** }
  60:Drivers/lvgl/src/core/lv_obj_style_gen.h **** 
  61:Drivers/lvgl/src/core/lv_obj_style_gen.h **** static inline lv_coord_t lv_obj_get_style_transform_height(const struct _lv_obj_t * obj, uint32_t p
  62:Drivers/lvgl/src/core/lv_obj_style_gen.h **** {
  63:Drivers/lvgl/src/core/lv_obj_style_gen.h ****     lv_style_value_t v = lv_obj_get_style_prop(obj, part, LV_STYLE_TRANSFORM_HEIGHT);
  64:Drivers/lvgl/src/core/lv_obj_style_gen.h ****     return (lv_coord_t)v.num;
  65:Drivers/lvgl/src/core/lv_obj_style_gen.h **** }
  66:Drivers/lvgl/src/core/lv_obj_style_gen.h **** 
  67:Drivers/lvgl/src/core/lv_obj_style_gen.h **** static inline lv_coord_t lv_obj_get_style_translate_x(const struct _lv_obj_t * obj, uint32_t part)
  68:Drivers/lvgl/src/core/lv_obj_style_gen.h **** {
  69:Drivers/lvgl/src/core/lv_obj_style_gen.h ****     lv_style_value_t v = lv_obj_get_style_prop(obj, part, LV_STYLE_TRANSLATE_X);
  70:Drivers/lvgl/src/core/lv_obj_style_gen.h ****     return (lv_coord_t)v.num;
  71:Drivers/lvgl/src/core/lv_obj_style_gen.h **** }
  72:Drivers/lvgl/src/core/lv_obj_style_gen.h **** 
  73:Drivers/lvgl/src/core/lv_obj_style_gen.h **** static inline lv_coord_t lv_obj_get_style_translate_y(const struct _lv_obj_t * obj, uint32_t part)
  74:Drivers/lvgl/src/core/lv_obj_style_gen.h **** {
  75:Drivers/lvgl/src/core/lv_obj_style_gen.h ****     lv_style_value_t v = lv_obj_get_style_prop(obj, part, LV_STYLE_TRANSLATE_Y);
  76:Drivers/lvgl/src/core/lv_obj_style_gen.h ****     return (lv_coord_t)v.num;
  77:Drivers/lvgl/src/core/lv_obj_style_gen.h **** }
  78:Drivers/lvgl/src/core/lv_obj_style_gen.h **** 
  79:Drivers/lvgl/src/core/lv_obj_style_gen.h **** static inline lv_coord_t lv_obj_get_style_transform_zoom(const struct _lv_obj_t * obj, uint32_t par
  80:Drivers/lvgl/src/core/lv_obj_style_gen.h **** {
  81:Drivers/lvgl/src/core/lv_obj_style_gen.h ****     lv_style_value_t v = lv_obj_get_style_prop(obj, part, LV_STYLE_TRANSFORM_ZOOM);
  82:Drivers/lvgl/src/core/lv_obj_style_gen.h ****     return (lv_coord_t)v.num;
  83:Drivers/lvgl/src/core/lv_obj_style_gen.h **** }
  84:Drivers/lvgl/src/core/lv_obj_style_gen.h **** 
  85:Drivers/lvgl/src/core/lv_obj_style_gen.h **** static inline lv_coord_t lv_obj_get_style_transform_angle(const struct _lv_obj_t * obj, uint32_t pa
  86:Drivers/lvgl/src/core/lv_obj_style_gen.h **** {
  87:Drivers/lvgl/src/core/lv_obj_style_gen.h ****     lv_style_value_t v = lv_obj_get_style_prop(obj, part, LV_STYLE_TRANSFORM_ANGLE);
  88:Drivers/lvgl/src/core/lv_obj_style_gen.h ****     return (lv_coord_t)v.num;
  89:Drivers/lvgl/src/core/lv_obj_style_gen.h **** }
  90:Drivers/lvgl/src/core/lv_obj_style_gen.h **** 
  91:Drivers/lvgl/src/core/lv_obj_style_gen.h **** static inline lv_coord_t lv_obj_get_style_transform_pivot_x(const struct _lv_obj_t * obj, uint32_t 
  92:Drivers/lvgl/src/core/lv_obj_style_gen.h **** {
  93:Drivers/lvgl/src/core/lv_obj_style_gen.h ****     lv_style_value_t v = lv_obj_get_style_prop(obj, part, LV_STYLE_TRANSFORM_PIVOT_X);
  94:Drivers/lvgl/src/core/lv_obj_style_gen.h ****     return (lv_coord_t)v.num;
  95:Drivers/lvgl/src/core/lv_obj_style_gen.h **** }
  96:Drivers/lvgl/src/core/lv_obj_style_gen.h **** 
  97:Drivers/lvgl/src/core/lv_obj_style_gen.h **** static inline lv_coord_t lv_obj_get_style_transform_pivot_y(const struct _lv_obj_t * obj, uint32_t 
  98:Drivers/lvgl/src/core/lv_obj_style_gen.h **** {
  99:Drivers/lvgl/src/core/lv_obj_style_gen.h ****     lv_style_value_t v = lv_obj_get_style_prop(obj, part, LV_STYLE_TRANSFORM_PIVOT_Y);
 100:Drivers/lvgl/src/core/lv_obj_style_gen.h ****     return (lv_coord_t)v.num;
 101:Drivers/lvgl/src/core/lv_obj_style_gen.h **** }
 102:Drivers/lvgl/src/core/lv_obj_style_gen.h **** 
 103:Drivers/lvgl/src/core/lv_obj_style_gen.h **** static inline lv_coord_t lv_obj_get_style_pad_top(const struct _lv_obj_t * obj, uint32_t part)
  80              		.loc 2 103 26 view .LVU12
  81              	.LBB82:
ARM GAS  /var/folders/lp/x54gwt890xv47sdkqj1k04q40000gn/T//cc5DBzfs.s 			page 14


 104:Drivers/lvgl/src/core/lv_obj_style_gen.h **** {
 105:Drivers/lvgl/src/core/lv_obj_style_gen.h ****     lv_style_value_t v = lv_obj_get_style_prop(obj, part, LV_STYLE_PAD_TOP);
  82              		.loc 2 105 5 view .LVU13
  83              		.loc 2 105 26 is_stmt 0 view .LVU14
  84 001c 1022     		movs	r2, #16
  85 001e 0021     		movs	r1, #0
  86 0020 8346     		mov	fp, r0
  87 0022 3046     		mov	r0, r6
  88              	.LVL5:
  89              		.loc 2 105 26 view .LVU15
  90 0024 FFF7FEFF 		bl	lv_obj_get_style_prop
  91              	.LVL6:
  92 0028 0346     		mov	r3, r0
 106:Drivers/lvgl/src/core/lv_obj_style_gen.h ****     return (lv_coord_t)v.num;
  93              		.loc 2 106 12 view .LVU16
  94 002a 1BB2     		sxth	r3, r3
 105:Drivers/lvgl/src/core/lv_obj_style_gen.h ****     return (lv_coord_t)v.num;
  95              		.loc 2 105 26 view .LVU17
  96 002c 0290     		str	r0, [sp, #8]
  97              		.loc 2 106 5 is_stmt 1 view .LVU18
  98              	.LBE82:
  99              	.LBE81:
 100              	.LBB84:
 101              	.LBB85:
 107:Drivers/lvgl/src/core/lv_obj_style_gen.h **** }
 108:Drivers/lvgl/src/core/lv_obj_style_gen.h **** 
 109:Drivers/lvgl/src/core/lv_obj_style_gen.h **** static inline lv_coord_t lv_obj_get_style_pad_bottom(const struct _lv_obj_t * obj, uint32_t part)
 110:Drivers/lvgl/src/core/lv_obj_style_gen.h **** {
 111:Drivers/lvgl/src/core/lv_obj_style_gen.h ****     lv_style_value_t v = lv_obj_get_style_prop(obj, part, LV_STYLE_PAD_BOTTOM);
 102              		.loc 2 111 26 is_stmt 0 view .LVU19
 103 002e 1122     		movs	r2, #17
 104 0030 0021     		movs	r1, #0
 105 0032 3046     		mov	r0, r6
 106              	.LBE85:
 107              	.LBE84:
 108              	.LBB88:
 109              	.LBB83:
 106:Drivers/lvgl/src/core/lv_obj_style_gen.h **** }
 110              		.loc 2 106 12 view .LVU20
 111 0034 0593     		str	r3, [sp, #20]
 112              	.LVL7:
 106:Drivers/lvgl/src/core/lv_obj_style_gen.h **** }
 113              		.loc 2 106 12 view .LVU21
 114              	.LBE83:
 115              	.LBE88:
 518:Drivers/lvgl/src/core/lv_indev_scroll.c **** 
 116              		.loc 1 518 5 is_stmt 1 view .LVU22
 117              	.LBB89:
 118              	.LBI84:
 109:Drivers/lvgl/src/core/lv_obj_style_gen.h **** {
 119              		.loc 2 109 26 view .LVU23
 120              	.LBB86:
 121              		.loc 2 111 5 view .LVU24
 122              		.loc 2 111 26 is_stmt 0 view .LVU25
 123 0036 FFF7FEFF 		bl	lv_obj_get_style_prop
 124              	.LVL8:
 125 003a 0346     		mov	r3, r0
ARM GAS  /var/folders/lp/x54gwt890xv47sdkqj1k04q40000gn/T//cc5DBzfs.s 			page 15


 126 003c 0490     		str	r0, [sp, #16]
 112:Drivers/lvgl/src/core/lv_obj_style_gen.h ****     return (lv_coord_t)v.num;
 127              		.loc 2 112 5 is_stmt 1 view .LVU26
 128              		.loc 2 112 12 is_stmt 0 view .LVU27
 129 003e 1BB2     		sxth	r3, r3
 130              	.LBE86:
 131              	.LBE89:
 521:Drivers/lvgl/src/core/lv_indev_scroll.c ****     for(i = 0; i < child_cnt; i++) {
 132              		.loc 1 521 26 view .LVU28
 133 0040 3046     		mov	r0, r6
 134              	.LBB90:
 135              	.LBB87:
 136              		.loc 2 112 12 view .LVU29
 137 0042 0393     		str	r3, [sp, #12]
 138              	.LVL9:
 139              		.loc 2 112 12 view .LVU30
 140              	.LBE87:
 141              	.LBE90:
 520:Drivers/lvgl/src/core/lv_indev_scroll.c ****     uint32_t child_cnt = lv_obj_get_child_cnt(obj);
 142              		.loc 1 520 5 is_stmt 1 view .LVU31
 521:Drivers/lvgl/src/core/lv_indev_scroll.c ****     for(i = 0; i < child_cnt; i++) {
 143              		.loc 1 521 5 view .LVU32
 521:Drivers/lvgl/src/core/lv_indev_scroll.c ****     for(i = 0; i < child_cnt; i++) {
 144              		.loc 1 521 26 is_stmt 0 view .LVU33
 145 0044 FFF7FEFF 		bl	lv_obj_get_child_cnt
 146              	.LVL10:
 522:Drivers/lvgl/src/core/lv_indev_scroll.c ****         lv_obj_t * child = obj->spec_attr->children[i];
 147              		.loc 1 522 5 is_stmt 1 view .LVU34
 522:Drivers/lvgl/src/core/lv_indev_scroll.c ****         lv_obj_t * child = obj->spec_attr->children[i];
 148              		.loc 1 522 18 discriminator 1 view .LVU35
 149 0048 8246     		mov	r10, r0
 150 004a 0028     		cmp	r0, #0
 151 004c E2D0     		beq	.L4
 522:Drivers/lvgl/src/core/lv_indev_scroll.c ****         lv_obj_t * child = obj->spec_attr->children[i];
 152              		.loc 1 522 11 is_stmt 0 view .LVU36
 153 004e 0024     		movs	r4, #0
 515:Drivers/lvgl/src/core/lv_indev_scroll.c **** 
 154              		.loc 1 515 16 view .LVU37
 155 0050 41F6FF71 		movw	r1, #8191
 156              	.LBB91:
 524:Drivers/lvgl/src/core/lv_indev_scroll.c ****         if(lv_obj_has_flag(child, LV_OBJ_FLAG_SNAPPABLE)) {
 157              		.loc 1 524 12 view .LVU38
 158 0054 344F     		ldr	r7, .L18
 159              	.LBE91:
 515:Drivers/lvgl/src/core/lv_indev_scroll.c **** 
 160              		.loc 1 515 16 view .LVU39
 161 0056 CDF80480 		str	r8, [sp, #4]
 162 005a A046     		mov	r8, r4
 163 005c 0C46     		mov	r4, r1
 164              	.LVL11:
 165              	.L11:
 166              	.LBB105:
 523:Drivers/lvgl/src/core/lv_indev_scroll.c ****         if(lv_obj_has_flag_any(child, LV_OBJ_FLAG_HIDDEN | LV_OBJ_FLAG_FLOATING)) continue;
 167              		.loc 1 523 9 is_stmt 1 view .LVU40
 523:Drivers/lvgl/src/core/lv_indev_scroll.c ****         if(lv_obj_has_flag_any(child, LV_OBJ_FLAG_HIDDEN | LV_OBJ_FLAG_FLOATING)) continue;
 168              		.loc 1 523 42 is_stmt 0 view .LVU41
 169 005e B268     		ldr	r2, [r6, #8]
ARM GAS  /var/folders/lp/x54gwt890xv47sdkqj1k04q40000gn/T//cc5DBzfs.s 			page 16


 523:Drivers/lvgl/src/core/lv_indev_scroll.c ****         if(lv_obj_has_flag_any(child, LV_OBJ_FLAG_HIDDEN | LV_OBJ_FLAG_FLOATING)) continue;
 170              		.loc 1 523 20 view .LVU42
 171 0060 1268     		ldr	r2, [r2]
 172 0062 52F82850 		ldr	r5, [r2, r8, lsl #2]
 173              	.LVL12:
 524:Drivers/lvgl/src/core/lv_indev_scroll.c ****         if(lv_obj_has_flag(child, LV_OBJ_FLAG_SNAPPABLE)) {
 174              		.loc 1 524 9 is_stmt 1 view .LVU43
 524:Drivers/lvgl/src/core/lv_indev_scroll.c ****         if(lv_obj_has_flag(child, LV_OBJ_FLAG_SNAPPABLE)) {
 175              		.loc 1 524 12 is_stmt 0 view .LVU44
 176 0066 3946     		mov	r1, r7
 177 0068 2846     		mov	r0, r5
 178 006a FFF7FEFF 		bl	lv_obj_has_flag_any
 179              	.LVL13:
 524:Drivers/lvgl/src/core/lv_indev_scroll.c ****         if(lv_obj_has_flag(child, LV_OBJ_FLAG_SNAPPABLE)) {
 180              		.loc 1 524 11 discriminator 1 view .LVU45
 181 006e 58BB     		cbnz	r0, .L7
 525:Drivers/lvgl/src/core/lv_indev_scroll.c ****             lv_coord_t y_child = 0;
 182              		.loc 1 525 9 is_stmt 1 view .LVU46
 525:Drivers/lvgl/src/core/lv_indev_scroll.c ****             lv_coord_t y_child = 0;
 183              		.loc 1 525 12 is_stmt 0 view .LVU47
 184 0070 4FF48051 		mov	r1, #4096
 185 0074 2846     		mov	r0, r5
 186 0076 FFF7FEFF 		bl	lv_obj_has_flag
 187              	.LVL14:
 525:Drivers/lvgl/src/core/lv_indev_scroll.c ****             lv_coord_t y_child = 0;
 188              		.loc 1 525 11 discriminator 1 view .LVU48
 189 007a 28B3     		cbz	r0, .L7
 190              	.LBB92:
 526:Drivers/lvgl/src/core/lv_indev_scroll.c ****             lv_coord_t y_parent = 0;
 191              		.loc 1 526 13 is_stmt 1 view .LVU49
 192              	.LVL15:
 527:Drivers/lvgl/src/core/lv_indev_scroll.c ****             switch(align) {
 193              		.loc 1 527 13 view .LVU50
 528:Drivers/lvgl/src/core/lv_indev_scroll.c ****                 case LV_SCROLL_SNAP_START:
 194              		.loc 1 528 13 view .LVU51
 195 007c BBF1020F 		cmp	fp, #2
 196 0080 4BD0     		beq	.L8
 197 0082 BBF1030F 		cmp	fp, #3
 198 0086 2CD0     		beq	.L9
 199 0088 BBF1010F 		cmp	fp, #1
 200 008c 1CD1     		bne	.L7
 530:Drivers/lvgl/src/core/lv_indev_scroll.c ****                     y_parent = obj->coords.y1 + pad_top;
 201              		.loc 1 530 21 view .LVU52
 202              	.LVL16:
 531:Drivers/lvgl/src/core/lv_indev_scroll.c ****                     break;
 203              		.loc 1 531 21 view .LVU53
 531:Drivers/lvgl/src/core/lv_indev_scroll.c ****                     break;
 204              		.loc 1 531 47 is_stmt 0 view .LVU54
 205 008e F18A     		ldrh	r1, [r6, #22]
 206 0090 029B     		ldr	r3, [sp, #8]
 545:Drivers/lvgl/src/core/lv_indev_scroll.c ****             if(y_child >= min && y_child <= max) {
 207              		.loc 1 545 21 view .LVU55
 208 0092 EA8A     		ldrh	r2, [r5, #22]
 531:Drivers/lvgl/src/core/lv_indev_scroll.c ****                     break;
 209              		.loc 1 531 47 view .LVU56
 210 0094 1944     		add	r1, r1, r3
 531:Drivers/lvgl/src/core/lv_indev_scroll.c ****                     break;
ARM GAS  /var/folders/lp/x54gwt890xv47sdkqj1k04q40000gn/T//cc5DBzfs.s 			page 17


 211              		.loc 1 531 30 view .LVU57
 212 0096 09B2     		sxth	r1, r1
 213              	.LVL17:
 532:Drivers/lvgl/src/core/lv_indev_scroll.c ****                 case LV_SCROLL_SNAP_END:
 214              		.loc 1 532 21 is_stmt 1 view .LVU58
 215              	.L10:
 545:Drivers/lvgl/src/core/lv_indev_scroll.c ****             if(y_child >= min && y_child <= max) {
 216              		.loc 1 545 13 view .LVU59
 545:Drivers/lvgl/src/core/lv_indev_scroll.c ****             if(y_child >= min && y_child <= max) {
 217              		.loc 1 545 21 is_stmt 0 view .LVU60
 218 0098 4A44     		add	r2, r2, r9
 546:Drivers/lvgl/src/core/lv_indev_scroll.c ****                 lv_coord_t y = y_child -  y_parent;
 219              		.loc 1 546 15 view .LVU61
 220 009a 019B     		ldr	r3, [sp, #4]
 545:Drivers/lvgl/src/core/lv_indev_scroll.c ****             if(y_child >= min && y_child <= max) {
 221              		.loc 1 545 21 view .LVU62
 222 009c 10B2     		sxth	r0, r2
 223              	.LVL18:
 546:Drivers/lvgl/src/core/lv_indev_scroll.c ****                 lv_coord_t y = y_child -  y_parent;
 224              		.loc 1 546 13 is_stmt 1 view .LVU63
 546:Drivers/lvgl/src/core/lv_indev_scroll.c ****                 lv_coord_t y = y_child -  y_parent;
 225              		.loc 1 546 15 is_stmt 0 view .LVU64
 226 009e 9842     		cmp	r0, r3
 545:Drivers/lvgl/src/core/lv_indev_scroll.c ****             if(y_child >= min && y_child <= max) {
 227              		.loc 1 545 21 view .LVU65
 228 00a0 92B2     		uxth	r2, r2
 546:Drivers/lvgl/src/core/lv_indev_scroll.c ****                 lv_coord_t y = y_child -  y_parent;
 229              		.loc 1 546 15 view .LVU66
 230 00a2 11DB     		blt	.L7
 546:Drivers/lvgl/src/core/lv_indev_scroll.c ****                 lv_coord_t y = y_child -  y_parent;
 231              		.loc 1 546 31 discriminator 1 view .LVU67
 232 00a4 009B     		ldr	r3, [sp]
 233 00a6 9842     		cmp	r0, r3
 234 00a8 0EDC     		bgt	.L7
 235              	.LBB93:
 547:Drivers/lvgl/src/core/lv_indev_scroll.c ****                 if(LV_ABS(y) < LV_ABS(dist)) dist = y;
 236              		.loc 1 547 17 is_stmt 1 view .LVU68
 547:Drivers/lvgl/src/core/lv_indev_scroll.c ****                 if(LV_ABS(y) < LV_ABS(dist)) dist = y;
 237              		.loc 1 547 40 is_stmt 0 view .LVU69
 238 00aa 521A     		subs	r2, r2, r1
 547:Drivers/lvgl/src/core/lv_indev_scroll.c ****                 if(LV_ABS(y) < LV_ABS(dist)) dist = y;
 239              		.loc 1 547 28 view .LVU70
 240 00ac 12B2     		sxth	r2, r2
 241              	.LVL19:
 548:Drivers/lvgl/src/core/lv_indev_scroll.c ****             }
 242              		.loc 1 548 17 is_stmt 1 view .LVU71
 548:Drivers/lvgl/src/core/lv_indev_scroll.c ****             }
 243              		.loc 1 548 32 is_stmt 0 view .LVU72
 244 00ae 84EAE471 		eor	r1, r4, r4, asr #31
 245              	.LVL20:
 548:Drivers/lvgl/src/core/lv_indev_scroll.c ****             }
 246              		.loc 1 548 20 view .LVU73
 247 00b2 82EAE270 		eor	r0, r2, r2, asr #31
 248              	.LVL21:
 548:Drivers/lvgl/src/core/lv_indev_scroll.c ****             }
 249              		.loc 1 548 32 view .LVU74
 250 00b6 A1EBE471 		sub	r1, r1, r4, asr #31
ARM GAS  /var/folders/lp/x54gwt890xv47sdkqj1k04q40000gn/T//cc5DBzfs.s 			page 18


 548:Drivers/lvgl/src/core/lv_indev_scroll.c ****             }
 251              		.loc 1 548 20 view .LVU75
 252 00ba A0EBE270 		sub	r0, r0, r2, asr #31
 548:Drivers/lvgl/src/core/lv_indev_scroll.c ****             }
 253              		.loc 1 548 19 view .LVU76
 254 00be 89B2     		uxth	r1, r1
 255 00c0 80B2     		uxth	r0, r0
 548:Drivers/lvgl/src/core/lv_indev_scroll.c ****             }
 256              		.loc 1 548 51 discriminator 1 view .LVU77
 257 00c2 8842     		cmp	r0, r1
 258 00c4 38BF     		it	cc
 259 00c6 1446     		movcc	r4, r2
 260              	.LVL22:
 261              	.L7:
 548:Drivers/lvgl/src/core/lv_indev_scroll.c ****             }
 262              		.loc 1 548 51 discriminator 1 view .LVU78
 263              	.LBE93:
 264              	.LBE92:
 265              	.LBE105:
 522:Drivers/lvgl/src/core/lv_indev_scroll.c ****         lv_obj_t * child = obj->spec_attr->children[i];
 266              		.loc 1 522 32 is_stmt 1 discriminator 2 view .LVU79
 267 00c8 08F10108 		add	r8, r8, #1
 268              	.LVL23:
 522:Drivers/lvgl/src/core/lv_indev_scroll.c ****         lv_obj_t * child = obj->spec_attr->children[i];
 269              		.loc 1 522 18 discriminator 1 view .LVU80
 270 00cc C245     		cmp	r10, r8
 271 00ce C6D1     		bne	.L11
 553:Drivers/lvgl/src/core/lv_indev_scroll.c **** }
 272              		.loc 1 553 5 view .LVU81
 553:Drivers/lvgl/src/core/lv_indev_scroll.c **** }
 273              		.loc 1 553 37 is_stmt 0 view .LVU82
 274 00d0 41F6FF73 		movw	r3, #8191
 275 00d4 9C42     		cmp	r4, r3
 276 00d6 9DD0     		beq	.L4
 553:Drivers/lvgl/src/core/lv_indev_scroll.c **** }
 277              		.loc 1 553 37 discriminator 1 view .LVU83
 278 00d8 6042     		rsbs	r0, r4, #0
 279 00da 00B2     		sxth	r0, r0
 280              		.loc 1 554 1 view .LVU84
 281 00dc 07B0     		add	sp, sp, #28
 282              		.cfi_remember_state
 283              		.cfi_def_cfa_offset 36
 284              	.LVL24:
 285              		.loc 1 554 1 view .LVU85
 286              		@ sp needed
 287 00de BDE8F08F 		pop	{r4, r5, r6, r7, r8, r9, r10, fp, pc}
 288              	.LVL25:
 289              	.L9:
 290              		.cfi_restore_state
 291              	.LBB106:
 292              	.LBB104:
 538:Drivers/lvgl/src/core/lv_indev_scroll.c ****                     y_parent = obj->coords.y1 + pad_top + (lv_area_get_height(&obj->coords) - pad_t
 293              		.loc 1 538 21 is_stmt 1 view .LVU86
 294              	.LBB94:
 295              	.LBB95:
 296              		.file 3 "Drivers/lvgl/src/core/../misc/../font/../misc/lv_area.h"
   1:Drivers/lvgl/src/core/../misc/../font/../misc/lv_area.h **** /**
ARM GAS  /var/folders/lp/x54gwt890xv47sdkqj1k04q40000gn/T//cc5DBzfs.s 			page 19


   2:Drivers/lvgl/src/core/../misc/../font/../misc/lv_area.h ****  * @file lv_area.h
   3:Drivers/lvgl/src/core/../misc/../font/../misc/lv_area.h ****  *
   4:Drivers/lvgl/src/core/../misc/../font/../misc/lv_area.h ****  */
   5:Drivers/lvgl/src/core/../misc/../font/../misc/lv_area.h **** 
   6:Drivers/lvgl/src/core/../misc/../font/../misc/lv_area.h **** #ifndef LV_AREA_H
   7:Drivers/lvgl/src/core/../misc/../font/../misc/lv_area.h **** #define LV_AREA_H
   8:Drivers/lvgl/src/core/../misc/../font/../misc/lv_area.h **** 
   9:Drivers/lvgl/src/core/../misc/../font/../misc/lv_area.h **** #ifdef __cplusplus
  10:Drivers/lvgl/src/core/../misc/../font/../misc/lv_area.h **** extern "C" {
  11:Drivers/lvgl/src/core/../misc/../font/../misc/lv_area.h **** #endif
  12:Drivers/lvgl/src/core/../misc/../font/../misc/lv_area.h **** 
  13:Drivers/lvgl/src/core/../misc/../font/../misc/lv_area.h **** /*********************
  14:Drivers/lvgl/src/core/../misc/../font/../misc/lv_area.h ****  *      INCLUDES
  15:Drivers/lvgl/src/core/../misc/../font/../misc/lv_area.h ****  *********************/
  16:Drivers/lvgl/src/core/../misc/../font/../misc/lv_area.h **** #include "../lv_conf_internal.h"
  17:Drivers/lvgl/src/core/../misc/../font/../misc/lv_area.h **** #include <stdbool.h>
  18:Drivers/lvgl/src/core/../misc/../font/../misc/lv_area.h **** #include <stdint.h>
  19:Drivers/lvgl/src/core/../misc/../font/../misc/lv_area.h **** 
  20:Drivers/lvgl/src/core/../misc/../font/../misc/lv_area.h **** /*********************
  21:Drivers/lvgl/src/core/../misc/../font/../misc/lv_area.h ****  *      DEFINES
  22:Drivers/lvgl/src/core/../misc/../font/../misc/lv_area.h ****  *********************/
  23:Drivers/lvgl/src/core/../misc/../font/../misc/lv_area.h **** 
  24:Drivers/lvgl/src/core/../misc/../font/../misc/lv_area.h **** #if LV_USE_LARGE_COORD
  25:Drivers/lvgl/src/core/../misc/../font/../misc/lv_area.h **** typedef int32_t lv_coord_t;
  26:Drivers/lvgl/src/core/../misc/../font/../misc/lv_area.h **** #else
  27:Drivers/lvgl/src/core/../misc/../font/../misc/lv_area.h **** typedef int16_t lv_coord_t;
  28:Drivers/lvgl/src/core/../misc/../font/../misc/lv_area.h **** #endif
  29:Drivers/lvgl/src/core/../misc/../font/../misc/lv_area.h **** 
  30:Drivers/lvgl/src/core/../misc/../font/../misc/lv_area.h **** /**********************
  31:Drivers/lvgl/src/core/../misc/../font/../misc/lv_area.h ****  *      TYPEDEFS
  32:Drivers/lvgl/src/core/../misc/../font/../misc/lv_area.h ****  **********************/
  33:Drivers/lvgl/src/core/../misc/../font/../misc/lv_area.h **** 
  34:Drivers/lvgl/src/core/../misc/../font/../misc/lv_area.h **** /**
  35:Drivers/lvgl/src/core/../misc/../font/../misc/lv_area.h ****  * Represents a point on the screen.
  36:Drivers/lvgl/src/core/../misc/../font/../misc/lv_area.h ****  */
  37:Drivers/lvgl/src/core/../misc/../font/../misc/lv_area.h **** typedef struct {
  38:Drivers/lvgl/src/core/../misc/../font/../misc/lv_area.h ****     lv_coord_t x;
  39:Drivers/lvgl/src/core/../misc/../font/../misc/lv_area.h ****     lv_coord_t y;
  40:Drivers/lvgl/src/core/../misc/../font/../misc/lv_area.h **** } lv_point_t;
  41:Drivers/lvgl/src/core/../misc/../font/../misc/lv_area.h **** 
  42:Drivers/lvgl/src/core/../misc/../font/../misc/lv_area.h **** /** Represents an area of the screen.*/
  43:Drivers/lvgl/src/core/../misc/../font/../misc/lv_area.h **** typedef struct {
  44:Drivers/lvgl/src/core/../misc/../font/../misc/lv_area.h ****     lv_coord_t x1;
  45:Drivers/lvgl/src/core/../misc/../font/../misc/lv_area.h ****     lv_coord_t y1;
  46:Drivers/lvgl/src/core/../misc/../font/../misc/lv_area.h ****     lv_coord_t x2;
  47:Drivers/lvgl/src/core/../misc/../font/../misc/lv_area.h ****     lv_coord_t y2;
  48:Drivers/lvgl/src/core/../misc/../font/../misc/lv_area.h **** } lv_area_t;
  49:Drivers/lvgl/src/core/../misc/../font/../misc/lv_area.h **** 
  50:Drivers/lvgl/src/core/../misc/../font/../misc/lv_area.h **** /** Alignments*/
  51:Drivers/lvgl/src/core/../misc/../font/../misc/lv_area.h **** enum {
  52:Drivers/lvgl/src/core/../misc/../font/../misc/lv_area.h ****     LV_ALIGN_DEFAULT = 0,
  53:Drivers/lvgl/src/core/../misc/../font/../misc/lv_area.h ****     LV_ALIGN_TOP_LEFT,
  54:Drivers/lvgl/src/core/../misc/../font/../misc/lv_area.h ****     LV_ALIGN_TOP_MID,
  55:Drivers/lvgl/src/core/../misc/../font/../misc/lv_area.h ****     LV_ALIGN_TOP_RIGHT,
  56:Drivers/lvgl/src/core/../misc/../font/../misc/lv_area.h ****     LV_ALIGN_BOTTOM_LEFT,
  57:Drivers/lvgl/src/core/../misc/../font/../misc/lv_area.h ****     LV_ALIGN_BOTTOM_MID,
  58:Drivers/lvgl/src/core/../misc/../font/../misc/lv_area.h ****     LV_ALIGN_BOTTOM_RIGHT,
ARM GAS  /var/folders/lp/x54gwt890xv47sdkqj1k04q40000gn/T//cc5DBzfs.s 			page 20


  59:Drivers/lvgl/src/core/../misc/../font/../misc/lv_area.h ****     LV_ALIGN_LEFT_MID,
  60:Drivers/lvgl/src/core/../misc/../font/../misc/lv_area.h ****     LV_ALIGN_RIGHT_MID,
  61:Drivers/lvgl/src/core/../misc/../font/../misc/lv_area.h ****     LV_ALIGN_CENTER,
  62:Drivers/lvgl/src/core/../misc/../font/../misc/lv_area.h **** 
  63:Drivers/lvgl/src/core/../misc/../font/../misc/lv_area.h ****     LV_ALIGN_OUT_TOP_LEFT,
  64:Drivers/lvgl/src/core/../misc/../font/../misc/lv_area.h ****     LV_ALIGN_OUT_TOP_MID,
  65:Drivers/lvgl/src/core/../misc/../font/../misc/lv_area.h ****     LV_ALIGN_OUT_TOP_RIGHT,
  66:Drivers/lvgl/src/core/../misc/../font/../misc/lv_area.h ****     LV_ALIGN_OUT_BOTTOM_LEFT,
  67:Drivers/lvgl/src/core/../misc/../font/../misc/lv_area.h ****     LV_ALIGN_OUT_BOTTOM_MID,
  68:Drivers/lvgl/src/core/../misc/../font/../misc/lv_area.h ****     LV_ALIGN_OUT_BOTTOM_RIGHT,
  69:Drivers/lvgl/src/core/../misc/../font/../misc/lv_area.h ****     LV_ALIGN_OUT_LEFT_TOP,
  70:Drivers/lvgl/src/core/../misc/../font/../misc/lv_area.h ****     LV_ALIGN_OUT_LEFT_MID,
  71:Drivers/lvgl/src/core/../misc/../font/../misc/lv_area.h ****     LV_ALIGN_OUT_LEFT_BOTTOM,
  72:Drivers/lvgl/src/core/../misc/../font/../misc/lv_area.h ****     LV_ALIGN_OUT_RIGHT_TOP,
  73:Drivers/lvgl/src/core/../misc/../font/../misc/lv_area.h ****     LV_ALIGN_OUT_RIGHT_MID,
  74:Drivers/lvgl/src/core/../misc/../font/../misc/lv_area.h ****     LV_ALIGN_OUT_RIGHT_BOTTOM,
  75:Drivers/lvgl/src/core/../misc/../font/../misc/lv_area.h **** };
  76:Drivers/lvgl/src/core/../misc/../font/../misc/lv_area.h **** typedef uint8_t lv_align_t;
  77:Drivers/lvgl/src/core/../misc/../font/../misc/lv_area.h **** 
  78:Drivers/lvgl/src/core/../misc/../font/../misc/lv_area.h **** enum {
  79:Drivers/lvgl/src/core/../misc/../font/../misc/lv_area.h ****     LV_DIR_NONE     = 0x00,
  80:Drivers/lvgl/src/core/../misc/../font/../misc/lv_area.h ****     LV_DIR_LEFT     = (1 << 0),
  81:Drivers/lvgl/src/core/../misc/../font/../misc/lv_area.h ****     LV_DIR_RIGHT    = (1 << 1),
  82:Drivers/lvgl/src/core/../misc/../font/../misc/lv_area.h ****     LV_DIR_TOP      = (1 << 2),
  83:Drivers/lvgl/src/core/../misc/../font/../misc/lv_area.h ****     LV_DIR_BOTTOM   = (1 << 3),
  84:Drivers/lvgl/src/core/../misc/../font/../misc/lv_area.h ****     LV_DIR_HOR      = LV_DIR_LEFT | LV_DIR_RIGHT,
  85:Drivers/lvgl/src/core/../misc/../font/../misc/lv_area.h ****     LV_DIR_VER      = LV_DIR_TOP | LV_DIR_BOTTOM,
  86:Drivers/lvgl/src/core/../misc/../font/../misc/lv_area.h ****     LV_DIR_ALL      = LV_DIR_HOR | LV_DIR_VER,
  87:Drivers/lvgl/src/core/../misc/../font/../misc/lv_area.h **** };
  88:Drivers/lvgl/src/core/../misc/../font/../misc/lv_area.h **** 
  89:Drivers/lvgl/src/core/../misc/../font/../misc/lv_area.h **** typedef uint8_t lv_dir_t;
  90:Drivers/lvgl/src/core/../misc/../font/../misc/lv_area.h **** 
  91:Drivers/lvgl/src/core/../misc/../font/../misc/lv_area.h **** /**********************
  92:Drivers/lvgl/src/core/../misc/../font/../misc/lv_area.h ****  * GLOBAL PROTOTYPES
  93:Drivers/lvgl/src/core/../misc/../font/../misc/lv_area.h ****  **********************/
  94:Drivers/lvgl/src/core/../misc/../font/../misc/lv_area.h **** 
  95:Drivers/lvgl/src/core/../misc/../font/../misc/lv_area.h **** /**
  96:Drivers/lvgl/src/core/../misc/../font/../misc/lv_area.h ****  * Initialize an area
  97:Drivers/lvgl/src/core/../misc/../font/../misc/lv_area.h ****  * @param area_p pointer to an area
  98:Drivers/lvgl/src/core/../misc/../font/../misc/lv_area.h ****  * @param x1 left coordinate of the area
  99:Drivers/lvgl/src/core/../misc/../font/../misc/lv_area.h ****  * @param y1 top coordinate of the area
 100:Drivers/lvgl/src/core/../misc/../font/../misc/lv_area.h ****  * @param x2 right coordinate of the area
 101:Drivers/lvgl/src/core/../misc/../font/../misc/lv_area.h ****  * @param y2 bottom coordinate of the area
 102:Drivers/lvgl/src/core/../misc/../font/../misc/lv_area.h ****  */
 103:Drivers/lvgl/src/core/../misc/../font/../misc/lv_area.h **** void lv_area_set(lv_area_t * area_p, lv_coord_t x1, lv_coord_t y1, lv_coord_t x2, lv_coord_t y2);
 104:Drivers/lvgl/src/core/../misc/../font/../misc/lv_area.h **** 
 105:Drivers/lvgl/src/core/../misc/../font/../misc/lv_area.h **** /**
 106:Drivers/lvgl/src/core/../misc/../font/../misc/lv_area.h ****  * Copy an area
 107:Drivers/lvgl/src/core/../misc/../font/../misc/lv_area.h ****  * @param dest pointer to the destination area
 108:Drivers/lvgl/src/core/../misc/../font/../misc/lv_area.h ****  * @param src pointer to the source area
 109:Drivers/lvgl/src/core/../misc/../font/../misc/lv_area.h ****  */
 110:Drivers/lvgl/src/core/../misc/../font/../misc/lv_area.h **** inline static void lv_area_copy(lv_area_t * dest, const lv_area_t * src)
 111:Drivers/lvgl/src/core/../misc/../font/../misc/lv_area.h **** {
 112:Drivers/lvgl/src/core/../misc/../font/../misc/lv_area.h ****     dest->x1 = src->x1;
 113:Drivers/lvgl/src/core/../misc/../font/../misc/lv_area.h ****     dest->y1 = src->y1;
 114:Drivers/lvgl/src/core/../misc/../font/../misc/lv_area.h ****     dest->x2 = src->x2;
 115:Drivers/lvgl/src/core/../misc/../font/../misc/lv_area.h ****     dest->y2 = src->y2;
ARM GAS  /var/folders/lp/x54gwt890xv47sdkqj1k04q40000gn/T//cc5DBzfs.s 			page 21


 116:Drivers/lvgl/src/core/../misc/../font/../misc/lv_area.h **** }
 117:Drivers/lvgl/src/core/../misc/../font/../misc/lv_area.h **** 
 118:Drivers/lvgl/src/core/../misc/../font/../misc/lv_area.h **** /**
 119:Drivers/lvgl/src/core/../misc/../font/../misc/lv_area.h ****  * Get the width of an area
 120:Drivers/lvgl/src/core/../misc/../font/../misc/lv_area.h ****  * @param area_p pointer to an area
 121:Drivers/lvgl/src/core/../misc/../font/../misc/lv_area.h ****  * @return the width of the area (if x1 == x2 -> width = 1)
 122:Drivers/lvgl/src/core/../misc/../font/../misc/lv_area.h ****  */
 123:Drivers/lvgl/src/core/../misc/../font/../misc/lv_area.h **** static inline lv_coord_t lv_area_get_width(const lv_area_t * area_p)
 124:Drivers/lvgl/src/core/../misc/../font/../misc/lv_area.h **** {
 125:Drivers/lvgl/src/core/../misc/../font/../misc/lv_area.h ****     return (lv_coord_t)(area_p->x2 - area_p->x1 + 1);
 126:Drivers/lvgl/src/core/../misc/../font/../misc/lv_area.h **** }
 127:Drivers/lvgl/src/core/../misc/../font/../misc/lv_area.h **** 
 128:Drivers/lvgl/src/core/../misc/../font/../misc/lv_area.h **** /**
 129:Drivers/lvgl/src/core/../misc/../font/../misc/lv_area.h ****  * Get the height of an area
 130:Drivers/lvgl/src/core/../misc/../font/../misc/lv_area.h ****  * @param area_p pointer to an area
 131:Drivers/lvgl/src/core/../misc/../font/../misc/lv_area.h ****  * @return the height of the area (if y1 == y2 -> height = 1)
 132:Drivers/lvgl/src/core/../misc/../font/../misc/lv_area.h ****  */
 133:Drivers/lvgl/src/core/../misc/../font/../misc/lv_area.h **** static inline lv_coord_t lv_area_get_height(const lv_area_t * area_p)
 134:Drivers/lvgl/src/core/../misc/../font/../misc/lv_area.h **** {
 135:Drivers/lvgl/src/core/../misc/../font/../misc/lv_area.h ****     return (lv_coord_t)(area_p->y2 - area_p->y1 + 1);
 297              		.loc 3 135 49 is_stmt 0 view .LVU87
 298 00e2 718B     		ldrh	r1, [r6, #26]
 299              	.LBE95:
 300              	.LBE94:
 539:Drivers/lvgl/src/core/lv_indev_scroll.c ****                     break;
 301              		.loc 1 539 43 view .LVU88
 302 00e4 F28A     		ldrh	r2, [r6, #22]
 539:Drivers/lvgl/src/core/lv_indev_scroll.c ****                     break;
 303              		.loc 1 539 93 discriminator 1 view .LVU89
 304 00e6 059B     		ldr	r3, [sp, #20]
 305              	.LBB98:
 306              	.LBB99:
 307              		.loc 3 135 49 view .LVU90
 308 00e8 688B     		ldrh	r0, [r5, #26]
 309              	.LBE99:
 310              	.LBE98:
 311              	.LBB101:
 312              	.LBB96:
 313 00ea 0131     		adds	r1, r1, #1
 314 00ec 891A     		subs	r1, r1, r2
 315              	.LBE96:
 316              	.LBE101:
 539:Drivers/lvgl/src/core/lv_indev_scroll.c ****                     break;
 317              		.loc 1 539 60 discriminator 1 view .LVU91
 318 00ee 09B2     		sxth	r1, r1
 539:Drivers/lvgl/src/core/lv_indev_scroll.c ****                     break;
 319              		.loc 1 539 93 discriminator 1 view .LVU92
 320 00f0 C91A     		subs	r1, r1, r3
 539:Drivers/lvgl/src/core/lv_indev_scroll.c ****                     break;
 321              		.loc 1 539 103 discriminator 1 view .LVU93
 322 00f2 039B     		ldr	r3, [sp, #12]
 323 00f4 C91A     		subs	r1, r1, r3
 539:Drivers/lvgl/src/core/lv_indev_scroll.c ****                     break;
 324              		.loc 1 539 47 view .LVU94
 325 00f6 029B     		ldr	r3, [sp, #8]
 539:Drivers/lvgl/src/core/lv_indev_scroll.c ****                     break;
 326              		.loc 1 539 117 discriminator 1 view .LVU95
ARM GAS  /var/folders/lp/x54gwt890xv47sdkqj1k04q40000gn/T//cc5DBzfs.s 			page 22


 327 00f8 01EBD171 		add	r1, r1, r1, lsr #31
 539:Drivers/lvgl/src/core/lv_indev_scroll.c ****                     break;
 328              		.loc 1 539 47 view .LVU96
 329 00fc 1A44     		add	r2, r2, r3
 539:Drivers/lvgl/src/core/lv_indev_scroll.c ****                     break;
 330              		.loc 1 539 57 discriminator 1 view .LVU97
 331 00fe 02EB6101 		add	r1, r2, r1, asr #1
 538:Drivers/lvgl/src/core/lv_indev_scroll.c ****                     y_parent = obj->coords.y1 + pad_top + (lv_area_get_height(&obj->coords) - pad_t
 332              		.loc 1 538 44 view .LVU98
 333 0102 EA8A     		ldrh	r2, [r5, #22]
 334              	.LVL26:
 335              	.LBB102:
 336              	.LBI98:
 133:Drivers/lvgl/src/core/../misc/../font/../misc/lv_area.h **** {
 337              		.loc 3 133 26 is_stmt 1 view .LVU99
 338              	.LBB100:
 339              		.loc 3 135 5 view .LVU100
 340              		.loc 3 135 49 is_stmt 0 view .LVU101
 341 0104 0130     		adds	r0, r0, #1
 342 0106 801A     		subs	r0, r0, r2
 343              	.LBE100:
 344              	.LBE102:
 538:Drivers/lvgl/src/core/lv_indev_scroll.c ****                     y_parent = obj->coords.y1 + pad_top + (lv_area_get_height(&obj->coords) - pad_t
 345              		.loc 1 538 48 discriminator 1 view .LVU102
 346 0108 C0F3C035 		ubfx	r5, r0, #15, #1
 347              	.LVL27:
 538:Drivers/lvgl/src/core/lv_indev_scroll.c ****                     y_parent = obj->coords.y1 + pad_top + (lv_area_get_height(&obj->coords) - pad_t
 348              		.loc 1 538 48 discriminator 1 view .LVU103
 349 010c 05FA80F0 		sxtah	r0, r5, r0
 350 0110 02EB6002 		add	r2, r2, r0, asr #1
 539:Drivers/lvgl/src/core/lv_indev_scroll.c ****                     break;
 351              		.loc 1 539 30 discriminator 1 view .LVU104
 352 0114 09B2     		sxth	r1, r1
 538:Drivers/lvgl/src/core/lv_indev_scroll.c ****                     y_parent = obj->coords.y1 + pad_top + (lv_area_get_height(&obj->coords) - pad_t
 353              		.loc 1 538 48 discriminator 1 view .LVU105
 354 0116 92B2     		uxth	r2, r2
 355              	.LVL28:
 539:Drivers/lvgl/src/core/lv_indev_scroll.c ****                     break;
 356              		.loc 1 539 21 is_stmt 1 view .LVU106
 357              	.LBB103:
 358              	.LBI94:
 133:Drivers/lvgl/src/core/../misc/../font/../misc/lv_area.h **** {
 359              		.loc 3 133 26 view .LVU107
 360              	.LBB97:
 361              		.loc 3 135 5 view .LVU108
 362              		.loc 3 135 5 is_stmt 0 view .LVU109
 363              	.LBE97:
 364              	.LBE103:
 540:Drivers/lvgl/src/core/lv_indev_scroll.c ****                 default:
 365              		.loc 1 540 21 is_stmt 1 view .LVU110
 366 0118 BEE7     		b	.L10
 367              	.LVL29:
 368              	.L8:
 534:Drivers/lvgl/src/core/lv_indev_scroll.c ****                     y_parent = obj->coords.y2 - pad_bottom;
 369              		.loc 1 534 21 view .LVU111
 535:Drivers/lvgl/src/core/lv_indev_scroll.c ****                     break;
 370              		.loc 1 535 21 view .LVU112
ARM GAS  /var/folders/lp/x54gwt890xv47sdkqj1k04q40000gn/T//cc5DBzfs.s 			page 23


 535:Drivers/lvgl/src/core/lv_indev_scroll.c ****                     break;
 371              		.loc 1 535 47 is_stmt 0 view .LVU113
 372 011a 718B     		ldrh	r1, [r6, #26]
 373 011c 049B     		ldr	r3, [sp, #16]
 545:Drivers/lvgl/src/core/lv_indev_scroll.c ****             if(y_child >= min && y_child <= max) {
 374              		.loc 1 545 21 view .LVU114
 375 011e 6A8B     		ldrh	r2, [r5, #26]
 535:Drivers/lvgl/src/core/lv_indev_scroll.c ****                     break;
 376              		.loc 1 535 47 view .LVU115
 377 0120 C91A     		subs	r1, r1, r3
 535:Drivers/lvgl/src/core/lv_indev_scroll.c ****                     break;
 378              		.loc 1 535 30 view .LVU116
 379 0122 09B2     		sxth	r1, r1
 380              	.LVL30:
 536:Drivers/lvgl/src/core/lv_indev_scroll.c ****                 case LV_SCROLL_SNAP_CENTER:
 381              		.loc 1 536 21 is_stmt 1 view .LVU117
 382 0124 B8E7     		b	.L10
 383              	.L19:
 384 0126 00BF     		.align	2
 385              	.L18:
 386 0128 01000400 		.word	262145
 387              	.LBE104:
 388              	.LBE106:
 389              		.cfi_endproc
 390              	.LFE168:
 392              		.section	.text.find_snap_point_x,"ax",%progbits
 393              		.align	1
 394              		.p2align 2,,3
 395              		.syntax unified
 396              		.thumb
 397              		.thumb_func
 399              	find_snap_point_x:
 400              	.LVL31:
 401              	.LFB167:
 456:Drivers/lvgl/src/core/lv_indev_scroll.c ****     lv_scroll_snap_t align = lv_obj_get_scroll_snap_x(obj);
 402              		.loc 1 456 1 view -0
 403              		.cfi_startproc
 404              		@ args = 0, pretend = 0, frame = 24
 405              		@ frame_needed = 0, uses_anonymous_args = 0
 457:Drivers/lvgl/src/core/lv_indev_scroll.c ****     if(align == LV_SCROLL_SNAP_NONE) return 0;
 406              		.loc 1 457 5 view .LVU119
 456:Drivers/lvgl/src/core/lv_indev_scroll.c ****     lv_scroll_snap_t align = lv_obj_get_scroll_snap_x(obj);
 407              		.loc 1 456 1 is_stmt 0 view .LVU120
 408 0000 2DE9F04F 		push	{r4, r5, r6, r7, r8, r9, r10, fp, lr}
 409              		.cfi_def_cfa_offset 36
 410              		.cfi_offset 4, -36
 411              		.cfi_offset 5, -32
 412              		.cfi_offset 6, -28
 413              		.cfi_offset 7, -24
 414              		.cfi_offset 8, -20
 415              		.cfi_offset 9, -16
 416              		.cfi_offset 10, -12
 417              		.cfi_offset 11, -8
 418              		.cfi_offset 14, -4
 419 0004 87B0     		sub	sp, sp, #28
 420              		.cfi_def_cfa_offset 64
 456:Drivers/lvgl/src/core/lv_indev_scroll.c ****     lv_scroll_snap_t align = lv_obj_get_scroll_snap_x(obj);
ARM GAS  /var/folders/lp/x54gwt890xv47sdkqj1k04q40000gn/T//cc5DBzfs.s 			page 24


 421              		.loc 1 456 1 view .LVU121
 422 0006 0646     		mov	r6, r0
 423 0008 8846     		mov	r8, r1
 424 000a 0092     		str	r2, [sp]
 425 000c 9946     		mov	r9, r3
 457:Drivers/lvgl/src/core/lv_indev_scroll.c ****     if(align == LV_SCROLL_SNAP_NONE) return 0;
 426              		.loc 1 457 30 view .LVU122
 427 000e FFF7FEFF 		bl	lv_obj_get_scroll_snap_x
 428              	.LVL32:
 458:Drivers/lvgl/src/core/lv_indev_scroll.c **** 
 429              		.loc 1 458 5 is_stmt 1 view .LVU123
 458:Drivers/lvgl/src/core/lv_indev_scroll.c **** 
 430              		.loc 1 458 7 is_stmt 0 view .LVU124
 431 0012 18B9     		cbnz	r0, .L21
 432              	.LVL33:
 433              	.L23:
 458:Drivers/lvgl/src/core/lv_indev_scroll.c **** 
 434              		.loc 1 458 45 discriminator 1 view .LVU125
 435 0014 0020     		movs	r0, #0
 499:Drivers/lvgl/src/core/lv_indev_scroll.c **** 
 436              		.loc 1 499 1 view .LVU126
 437 0016 07B0     		add	sp, sp, #28
 438              		.cfi_remember_state
 439              		.cfi_def_cfa_offset 36
 440              	.LVL34:
 499:Drivers/lvgl/src/core/lv_indev_scroll.c **** 
 441              		.loc 1 499 1 view .LVU127
 442              		@ sp needed
 443 0018 BDE8F08F 		pop	{r4, r5, r6, r7, r8, r9, r10, fp, pc}
 444              	.LVL35:
 445              	.L21:
 446              		.cfi_restore_state
 460:Drivers/lvgl/src/core/lv_indev_scroll.c **** 
 447              		.loc 1 460 5 is_stmt 1 view .LVU128
 462:Drivers/lvgl/src/core/lv_indev_scroll.c ****     lv_coord_t pad_right = lv_obj_get_style_pad_right(obj, LV_PART_MAIN);
 448              		.loc 1 462 5 view .LVU129
 449              	.LBB107:
 450              	.LBI107:
 113:Drivers/lvgl/src/core/lv_obj_style_gen.h **** }
 114:Drivers/lvgl/src/core/lv_obj_style_gen.h **** 
 115:Drivers/lvgl/src/core/lv_obj_style_gen.h **** static inline lv_coord_t lv_obj_get_style_pad_left(const struct _lv_obj_t * obj, uint32_t part)
 451              		.loc 2 115 26 view .LVU130
 452              	.LBB108:
 116:Drivers/lvgl/src/core/lv_obj_style_gen.h **** {
 117:Drivers/lvgl/src/core/lv_obj_style_gen.h ****     lv_style_value_t v = lv_obj_get_style_prop(obj, part, LV_STYLE_PAD_LEFT);
 453              		.loc 2 117 5 view .LVU131
 454              		.loc 2 117 26 is_stmt 0 view .LVU132
 455 001c 1222     		movs	r2, #18
 456 001e 0021     		movs	r1, #0
 457 0020 8346     		mov	fp, r0
 458 0022 3046     		mov	r0, r6
 459              	.LVL36:
 460              		.loc 2 117 26 view .LVU133
 461 0024 FFF7FEFF 		bl	lv_obj_get_style_prop
 462              	.LVL37:
 463 0028 0346     		mov	r3, r0
 118:Drivers/lvgl/src/core/lv_obj_style_gen.h ****     return (lv_coord_t)v.num;
ARM GAS  /var/folders/lp/x54gwt890xv47sdkqj1k04q40000gn/T//cc5DBzfs.s 			page 25


 464              		.loc 2 118 12 view .LVU134
 465 002a 1BB2     		sxth	r3, r3
 117:Drivers/lvgl/src/core/lv_obj_style_gen.h ****     return (lv_coord_t)v.num;
 466              		.loc 2 117 26 view .LVU135
 467 002c 0290     		str	r0, [sp, #8]
 468              		.loc 2 118 5 is_stmt 1 view .LVU136
 469              	.LBE108:
 470              	.LBE107:
 471              	.LBB110:
 472              	.LBB111:
 119:Drivers/lvgl/src/core/lv_obj_style_gen.h **** }
 120:Drivers/lvgl/src/core/lv_obj_style_gen.h **** 
 121:Drivers/lvgl/src/core/lv_obj_style_gen.h **** static inline lv_coord_t lv_obj_get_style_pad_right(const struct _lv_obj_t * obj, uint32_t part)
 122:Drivers/lvgl/src/core/lv_obj_style_gen.h **** {
 123:Drivers/lvgl/src/core/lv_obj_style_gen.h ****     lv_style_value_t v = lv_obj_get_style_prop(obj, part, LV_STYLE_PAD_RIGHT);
 473              		.loc 2 123 26 is_stmt 0 view .LVU137
 474 002e 1322     		movs	r2, #19
 475 0030 0021     		movs	r1, #0
 476 0032 3046     		mov	r0, r6
 477              	.LBE111:
 478              	.LBE110:
 479              	.LBB114:
 480              	.LBB109:
 118:Drivers/lvgl/src/core/lv_obj_style_gen.h **** }
 481              		.loc 2 118 12 view .LVU138
 482 0034 0593     		str	r3, [sp, #20]
 483              	.LVL38:
 118:Drivers/lvgl/src/core/lv_obj_style_gen.h **** }
 484              		.loc 2 118 12 view .LVU139
 485              	.LBE109:
 486              	.LBE114:
 463:Drivers/lvgl/src/core/lv_indev_scroll.c **** 
 487              		.loc 1 463 5 is_stmt 1 view .LVU140
 488              	.LBB115:
 489              	.LBI110:
 121:Drivers/lvgl/src/core/lv_obj_style_gen.h **** {
 490              		.loc 2 121 26 view .LVU141
 491              	.LBB112:
 492              		.loc 2 123 5 view .LVU142
 493              		.loc 2 123 26 is_stmt 0 view .LVU143
 494 0036 FFF7FEFF 		bl	lv_obj_get_style_prop
 495              	.LVL39:
 496 003a 0346     		mov	r3, r0
 497 003c 0490     		str	r0, [sp, #16]
 124:Drivers/lvgl/src/core/lv_obj_style_gen.h ****     return (lv_coord_t)v.num;
 498              		.loc 2 124 5 is_stmt 1 view .LVU144
 499              		.loc 2 124 12 is_stmt 0 view .LVU145
 500 003e 1BB2     		sxth	r3, r3
 501              	.LBE112:
 502              	.LBE115:
 466:Drivers/lvgl/src/core/lv_indev_scroll.c ****     for(i = 0; i < child_cnt; i++) {
 503              		.loc 1 466 26 view .LVU146
 504 0040 3046     		mov	r0, r6
 505              	.LBB116:
 506              	.LBB113:
 507              		.loc 2 124 12 view .LVU147
 508 0042 0393     		str	r3, [sp, #12]
ARM GAS  /var/folders/lp/x54gwt890xv47sdkqj1k04q40000gn/T//cc5DBzfs.s 			page 26


 509              	.LVL40:
 510              		.loc 2 124 12 view .LVU148
 511              	.LBE113:
 512              	.LBE116:
 465:Drivers/lvgl/src/core/lv_indev_scroll.c ****     uint32_t child_cnt = lv_obj_get_child_cnt(obj);
 513              		.loc 1 465 5 is_stmt 1 view .LVU149
 466:Drivers/lvgl/src/core/lv_indev_scroll.c ****     for(i = 0; i < child_cnt; i++) {
 514              		.loc 1 466 5 view .LVU150
 466:Drivers/lvgl/src/core/lv_indev_scroll.c ****     for(i = 0; i < child_cnt; i++) {
 515              		.loc 1 466 26 is_stmt 0 view .LVU151
 516 0044 FFF7FEFF 		bl	lv_obj_get_child_cnt
 517              	.LVL41:
 467:Drivers/lvgl/src/core/lv_indev_scroll.c ****         lv_obj_t * child = obj->spec_attr->children[i];
 518              		.loc 1 467 5 is_stmt 1 view .LVU152
 467:Drivers/lvgl/src/core/lv_indev_scroll.c ****         lv_obj_t * child = obj->spec_attr->children[i];
 519              		.loc 1 467 18 discriminator 1 view .LVU153
 520 0048 8246     		mov	r10, r0
 521 004a 0028     		cmp	r0, #0
 522 004c E2D0     		beq	.L23
 467:Drivers/lvgl/src/core/lv_indev_scroll.c ****         lv_obj_t * child = obj->spec_attr->children[i];
 523              		.loc 1 467 11 is_stmt 0 view .LVU154
 524 004e 0024     		movs	r4, #0
 460:Drivers/lvgl/src/core/lv_indev_scroll.c **** 
 525              		.loc 1 460 16 view .LVU155
 526 0050 41F6FF71 		movw	r1, #8191
 527              	.LBB117:
 469:Drivers/lvgl/src/core/lv_indev_scroll.c ****         if(lv_obj_has_flag(child, LV_OBJ_FLAG_SNAPPABLE)) {
 528              		.loc 1 469 12 view .LVU156
 529 0054 344F     		ldr	r7, .L36
 530              	.LBE117:
 460:Drivers/lvgl/src/core/lv_indev_scroll.c **** 
 531              		.loc 1 460 16 view .LVU157
 532 0056 CDF80480 		str	r8, [sp, #4]
 533 005a A046     		mov	r8, r4
 534 005c 0C46     		mov	r4, r1
 535              	.LVL42:
 536              	.L30:
 537              	.LBB131:
 468:Drivers/lvgl/src/core/lv_indev_scroll.c ****         if(lv_obj_has_flag_any(child, LV_OBJ_FLAG_HIDDEN | LV_OBJ_FLAG_FLOATING)) continue;
 538              		.loc 1 468 9 is_stmt 1 view .LVU158
 468:Drivers/lvgl/src/core/lv_indev_scroll.c ****         if(lv_obj_has_flag_any(child, LV_OBJ_FLAG_HIDDEN | LV_OBJ_FLAG_FLOATING)) continue;
 539              		.loc 1 468 42 is_stmt 0 view .LVU159
 540 005e B268     		ldr	r2, [r6, #8]
 468:Drivers/lvgl/src/core/lv_indev_scroll.c ****         if(lv_obj_has_flag_any(child, LV_OBJ_FLAG_HIDDEN | LV_OBJ_FLAG_FLOATING)) continue;
 541              		.loc 1 468 20 view .LVU160
 542 0060 1268     		ldr	r2, [r2]
 543 0062 52F82850 		ldr	r5, [r2, r8, lsl #2]
 544              	.LVL43:
 469:Drivers/lvgl/src/core/lv_indev_scroll.c ****         if(lv_obj_has_flag(child, LV_OBJ_FLAG_SNAPPABLE)) {
 545              		.loc 1 469 9 is_stmt 1 view .LVU161
 469:Drivers/lvgl/src/core/lv_indev_scroll.c ****         if(lv_obj_has_flag(child, LV_OBJ_FLAG_SNAPPABLE)) {
 546              		.loc 1 469 12 is_stmt 0 view .LVU162
 547 0066 3946     		mov	r1, r7
 548 0068 2846     		mov	r0, r5
 549 006a FFF7FEFF 		bl	lv_obj_has_flag_any
 550              	.LVL44:
 469:Drivers/lvgl/src/core/lv_indev_scroll.c ****         if(lv_obj_has_flag(child, LV_OBJ_FLAG_SNAPPABLE)) {
ARM GAS  /var/folders/lp/x54gwt890xv47sdkqj1k04q40000gn/T//cc5DBzfs.s 			page 27


 551              		.loc 1 469 11 discriminator 1 view .LVU163
 552 006e 58BB     		cbnz	r0, .L26
 470:Drivers/lvgl/src/core/lv_indev_scroll.c ****             lv_coord_t x_child = 0;
 553              		.loc 1 470 9 is_stmt 1 view .LVU164
 470:Drivers/lvgl/src/core/lv_indev_scroll.c ****             lv_coord_t x_child = 0;
 554              		.loc 1 470 12 is_stmt 0 view .LVU165
 555 0070 4FF48051 		mov	r1, #4096
 556 0074 2846     		mov	r0, r5
 557 0076 FFF7FEFF 		bl	lv_obj_has_flag
 558              	.LVL45:
 470:Drivers/lvgl/src/core/lv_indev_scroll.c ****             lv_coord_t x_child = 0;
 559              		.loc 1 470 11 discriminator 1 view .LVU166
 560 007a 28B3     		cbz	r0, .L26
 561              	.LBB118:
 471:Drivers/lvgl/src/core/lv_indev_scroll.c ****             lv_coord_t x_parent = 0;
 562              		.loc 1 471 13 is_stmt 1 view .LVU167
 563              	.LVL46:
 472:Drivers/lvgl/src/core/lv_indev_scroll.c ****             switch(align) {
 564              		.loc 1 472 13 view .LVU168
 473:Drivers/lvgl/src/core/lv_indev_scroll.c ****                 case LV_SCROLL_SNAP_START:
 565              		.loc 1 473 13 view .LVU169
 566 007c BBF1020F 		cmp	fp, #2
 567 0080 4BD0     		beq	.L27
 568 0082 BBF1030F 		cmp	fp, #3
 569 0086 2CD0     		beq	.L28
 570 0088 BBF1010F 		cmp	fp, #1
 571 008c 1CD1     		bne	.L26
 475:Drivers/lvgl/src/core/lv_indev_scroll.c ****                     x_parent = obj->coords.x1 + pad_left;
 572              		.loc 1 475 21 view .LVU170
 573              	.LVL47:
 476:Drivers/lvgl/src/core/lv_indev_scroll.c ****                     break;
 574              		.loc 1 476 21 view .LVU171
 476:Drivers/lvgl/src/core/lv_indev_scroll.c ****                     break;
 575              		.loc 1 476 47 is_stmt 0 view .LVU172
 576 008e B18A     		ldrh	r1, [r6, #20]
 577 0090 029B     		ldr	r3, [sp, #8]
 490:Drivers/lvgl/src/core/lv_indev_scroll.c ****             if(x_child >= min && x_child <= max) {
 578              		.loc 1 490 21 view .LVU173
 579 0092 AA8A     		ldrh	r2, [r5, #20]
 476:Drivers/lvgl/src/core/lv_indev_scroll.c ****                     break;
 580              		.loc 1 476 47 view .LVU174
 581 0094 1944     		add	r1, r1, r3
 476:Drivers/lvgl/src/core/lv_indev_scroll.c ****                     break;
 582              		.loc 1 476 30 view .LVU175
 583 0096 09B2     		sxth	r1, r1
 584              	.LVL48:
 477:Drivers/lvgl/src/core/lv_indev_scroll.c ****                 case LV_SCROLL_SNAP_END:
 585              		.loc 1 477 21 is_stmt 1 view .LVU176
 586              	.L29:
 490:Drivers/lvgl/src/core/lv_indev_scroll.c ****             if(x_child >= min && x_child <= max) {
 587              		.loc 1 490 13 view .LVU177
 490:Drivers/lvgl/src/core/lv_indev_scroll.c ****             if(x_child >= min && x_child <= max) {
 588              		.loc 1 490 21 is_stmt 0 view .LVU178
 589 0098 4A44     		add	r2, r2, r9
 491:Drivers/lvgl/src/core/lv_indev_scroll.c ****                 lv_coord_t x = x_child -  x_parent;
 590              		.loc 1 491 15 view .LVU179
 591 009a 019B     		ldr	r3, [sp, #4]
ARM GAS  /var/folders/lp/x54gwt890xv47sdkqj1k04q40000gn/T//cc5DBzfs.s 			page 28


 490:Drivers/lvgl/src/core/lv_indev_scroll.c ****             if(x_child >= min && x_child <= max) {
 592              		.loc 1 490 21 view .LVU180
 593 009c 10B2     		sxth	r0, r2
 594              	.LVL49:
 491:Drivers/lvgl/src/core/lv_indev_scroll.c ****                 lv_coord_t x = x_child -  x_parent;
 595              		.loc 1 491 13 is_stmt 1 view .LVU181
 491:Drivers/lvgl/src/core/lv_indev_scroll.c ****                 lv_coord_t x = x_child -  x_parent;
 596              		.loc 1 491 15 is_stmt 0 view .LVU182
 597 009e 9842     		cmp	r0, r3
 490:Drivers/lvgl/src/core/lv_indev_scroll.c ****             if(x_child >= min && x_child <= max) {
 598              		.loc 1 490 21 view .LVU183
 599 00a0 92B2     		uxth	r2, r2
 491:Drivers/lvgl/src/core/lv_indev_scroll.c ****                 lv_coord_t x = x_child -  x_parent;
 600              		.loc 1 491 15 view .LVU184
 601 00a2 11DB     		blt	.L26
 491:Drivers/lvgl/src/core/lv_indev_scroll.c ****                 lv_coord_t x = x_child -  x_parent;
 602              		.loc 1 491 31 discriminator 1 view .LVU185
 603 00a4 009B     		ldr	r3, [sp]
 604 00a6 9842     		cmp	r0, r3
 605 00a8 0EDC     		bgt	.L26
 606              	.LBB119:
 492:Drivers/lvgl/src/core/lv_indev_scroll.c ****                 if(LV_ABS(x) < LV_ABS(dist)) dist = x;
 607              		.loc 1 492 17 is_stmt 1 view .LVU186
 492:Drivers/lvgl/src/core/lv_indev_scroll.c ****                 if(LV_ABS(x) < LV_ABS(dist)) dist = x;
 608              		.loc 1 492 40 is_stmt 0 view .LVU187
 609 00aa 521A     		subs	r2, r2, r1
 492:Drivers/lvgl/src/core/lv_indev_scroll.c ****                 if(LV_ABS(x) < LV_ABS(dist)) dist = x;
 610              		.loc 1 492 28 view .LVU188
 611 00ac 12B2     		sxth	r2, r2
 612              	.LVL50:
 493:Drivers/lvgl/src/core/lv_indev_scroll.c ****             }
 613              		.loc 1 493 17 is_stmt 1 view .LVU189
 493:Drivers/lvgl/src/core/lv_indev_scroll.c ****             }
 614              		.loc 1 493 32 is_stmt 0 view .LVU190
 615 00ae 84EAE471 		eor	r1, r4, r4, asr #31
 616              	.LVL51:
 493:Drivers/lvgl/src/core/lv_indev_scroll.c ****             }
 617              		.loc 1 493 20 view .LVU191
 618 00b2 82EAE270 		eor	r0, r2, r2, asr #31
 619              	.LVL52:
 493:Drivers/lvgl/src/core/lv_indev_scroll.c ****             }
 620              		.loc 1 493 32 view .LVU192
 621 00b6 A1EBE471 		sub	r1, r1, r4, asr #31
 493:Drivers/lvgl/src/core/lv_indev_scroll.c ****             }
 622              		.loc 1 493 20 view .LVU193
 623 00ba A0EBE270 		sub	r0, r0, r2, asr #31
 493:Drivers/lvgl/src/core/lv_indev_scroll.c ****             }
 624              		.loc 1 493 19 view .LVU194
 625 00be 89B2     		uxth	r1, r1
 626 00c0 80B2     		uxth	r0, r0
 493:Drivers/lvgl/src/core/lv_indev_scroll.c ****             }
 627              		.loc 1 493 51 discriminator 1 view .LVU195
 628 00c2 8842     		cmp	r0, r1
 629 00c4 38BF     		it	cc
 630 00c6 1446     		movcc	r4, r2
 631              	.LVL53:
 632              	.L26:
ARM GAS  /var/folders/lp/x54gwt890xv47sdkqj1k04q40000gn/T//cc5DBzfs.s 			page 29


 493:Drivers/lvgl/src/core/lv_indev_scroll.c ****             }
 633              		.loc 1 493 51 discriminator 1 view .LVU196
 634              	.LBE119:
 635              	.LBE118:
 636              	.LBE131:
 467:Drivers/lvgl/src/core/lv_indev_scroll.c ****         lv_obj_t * child = obj->spec_attr->children[i];
 637              		.loc 1 467 32 is_stmt 1 discriminator 2 view .LVU197
 638 00c8 08F10108 		add	r8, r8, #1
 639              	.LVL54:
 467:Drivers/lvgl/src/core/lv_indev_scroll.c ****         lv_obj_t * child = obj->spec_attr->children[i];
 640              		.loc 1 467 18 discriminator 1 view .LVU198
 641 00cc C245     		cmp	r10, r8
 642 00ce C6D1     		bne	.L30
 498:Drivers/lvgl/src/core/lv_indev_scroll.c **** }
 643              		.loc 1 498 5 view .LVU199
 498:Drivers/lvgl/src/core/lv_indev_scroll.c **** }
 644              		.loc 1 498 37 is_stmt 0 view .LVU200
 645 00d0 41F6FF73 		movw	r3, #8191
 646 00d4 9C42     		cmp	r4, r3
 647 00d6 9DD0     		beq	.L23
 498:Drivers/lvgl/src/core/lv_indev_scroll.c **** }
 648              		.loc 1 498 37 discriminator 1 view .LVU201
 649 00d8 6042     		rsbs	r0, r4, #0
 650 00da 00B2     		sxth	r0, r0
 499:Drivers/lvgl/src/core/lv_indev_scroll.c **** 
 651              		.loc 1 499 1 view .LVU202
 652 00dc 07B0     		add	sp, sp, #28
 653              		.cfi_remember_state
 654              		.cfi_def_cfa_offset 36
 655              	.LVL55:
 499:Drivers/lvgl/src/core/lv_indev_scroll.c **** 
 656              		.loc 1 499 1 view .LVU203
 657              		@ sp needed
 658 00de BDE8F08F 		pop	{r4, r5, r6, r7, r8, r9, r10, fp, pc}
 659              	.LVL56:
 660              	.L28:
 661              		.cfi_restore_state
 662              	.LBB132:
 663              	.LBB130:
 483:Drivers/lvgl/src/core/lv_indev_scroll.c ****                     x_parent = obj->coords.x1 + pad_left + (lv_area_get_width(&obj->coords) - pad_l
 664              		.loc 1 483 21 is_stmt 1 view .LVU204
 665              	.LBB120:
 666              	.LBB121:
 125:Drivers/lvgl/src/core/../misc/../font/../misc/lv_area.h **** }
 667              		.loc 3 125 49 is_stmt 0 view .LVU205
 668 00e2 318B     		ldrh	r1, [r6, #24]
 669              	.LBE121:
 670              	.LBE120:
 484:Drivers/lvgl/src/core/lv_indev_scroll.c ****                     break;
 671              		.loc 1 484 43 view .LVU206
 672 00e4 B28A     		ldrh	r2, [r6, #20]
 484:Drivers/lvgl/src/core/lv_indev_scroll.c ****                     break;
 673              		.loc 1 484 93 discriminator 1 view .LVU207
 674 00e6 059B     		ldr	r3, [sp, #20]
 675              	.LBB124:
 676              	.LBB125:
 125:Drivers/lvgl/src/core/../misc/../font/../misc/lv_area.h **** }
ARM GAS  /var/folders/lp/x54gwt890xv47sdkqj1k04q40000gn/T//cc5DBzfs.s 			page 30


 677              		.loc 3 125 49 view .LVU208
 678 00e8 288B     		ldrh	r0, [r5, #24]
 679              	.LBE125:
 680              	.LBE124:
 681              	.LBB127:
 682              	.LBB122:
 683 00ea 0131     		adds	r1, r1, #1
 684 00ec 891A     		subs	r1, r1, r2
 685              	.LBE122:
 686              	.LBE127:
 484:Drivers/lvgl/src/core/lv_indev_scroll.c ****                     break;
 687              		.loc 1 484 61 discriminator 1 view .LVU209
 688 00ee 09B2     		sxth	r1, r1
 484:Drivers/lvgl/src/core/lv_indev_scroll.c ****                     break;
 689              		.loc 1 484 93 discriminator 1 view .LVU210
 690 00f0 C91A     		subs	r1, r1, r3
 484:Drivers/lvgl/src/core/lv_indev_scroll.c ****                     break;
 691              		.loc 1 484 104 discriminator 1 view .LVU211
 692 00f2 039B     		ldr	r3, [sp, #12]
 693 00f4 C91A     		subs	r1, r1, r3
 484:Drivers/lvgl/src/core/lv_indev_scroll.c ****                     break;
 694              		.loc 1 484 47 view .LVU212
 695 00f6 029B     		ldr	r3, [sp, #8]
 484:Drivers/lvgl/src/core/lv_indev_scroll.c ****                     break;
 696              		.loc 1 484 117 discriminator 1 view .LVU213
 697 00f8 01EBD171 		add	r1, r1, r1, lsr #31
 484:Drivers/lvgl/src/core/lv_indev_scroll.c ****                     break;
 698              		.loc 1 484 47 view .LVU214
 699 00fc 1A44     		add	r2, r2, r3
 484:Drivers/lvgl/src/core/lv_indev_scroll.c ****                     break;
 700              		.loc 1 484 58 discriminator 1 view .LVU215
 701 00fe 02EB6101 		add	r1, r2, r1, asr #1
 483:Drivers/lvgl/src/core/lv_indev_scroll.c ****                     x_parent = obj->coords.x1 + pad_left + (lv_area_get_width(&obj->coords) - pad_l
 702              		.loc 1 483 44 view .LVU216
 703 0102 AA8A     		ldrh	r2, [r5, #20]
 704              	.LVL57:
 705              	.LBB128:
 706              	.LBI124:
 123:Drivers/lvgl/src/core/../misc/../font/../misc/lv_area.h **** {
 707              		.loc 3 123 26 is_stmt 1 view .LVU217
 708              	.LBB126:
 125:Drivers/lvgl/src/core/../misc/../font/../misc/lv_area.h **** }
 709              		.loc 3 125 5 view .LVU218
 125:Drivers/lvgl/src/core/../misc/../font/../misc/lv_area.h **** }
 710              		.loc 3 125 49 is_stmt 0 view .LVU219
 711 0104 0130     		adds	r0, r0, #1
 712 0106 801A     		subs	r0, r0, r2
 713              	.LBE126:
 714              	.LBE128:
 483:Drivers/lvgl/src/core/lv_indev_scroll.c ****                     x_parent = obj->coords.x1 + pad_left + (lv_area_get_width(&obj->coords) - pad_l
 715              		.loc 1 483 48 discriminator 1 view .LVU220
 716 0108 C0F3C035 		ubfx	r5, r0, #15, #1
 717              	.LVL58:
 483:Drivers/lvgl/src/core/lv_indev_scroll.c ****                     x_parent = obj->coords.x1 + pad_left + (lv_area_get_width(&obj->coords) - pad_l
 718              		.loc 1 483 48 discriminator 1 view .LVU221
 719 010c 05FA80F0 		sxtah	r0, r5, r0
 720 0110 02EB6002 		add	r2, r2, r0, asr #1
ARM GAS  /var/folders/lp/x54gwt890xv47sdkqj1k04q40000gn/T//cc5DBzfs.s 			page 31


 484:Drivers/lvgl/src/core/lv_indev_scroll.c ****                     break;
 721              		.loc 1 484 30 discriminator 1 view .LVU222
 722 0114 09B2     		sxth	r1, r1
 483:Drivers/lvgl/src/core/lv_indev_scroll.c ****                     x_parent = obj->coords.x1 + pad_left + (lv_area_get_width(&obj->coords) - pad_l
 723              		.loc 1 483 48 discriminator 1 view .LVU223
 724 0116 92B2     		uxth	r2, r2
 725              	.LVL59:
 484:Drivers/lvgl/src/core/lv_indev_scroll.c ****                     break;
 726              		.loc 1 484 21 is_stmt 1 view .LVU224
 727              	.LBB129:
 728              	.LBI120:
 123:Drivers/lvgl/src/core/../misc/../font/../misc/lv_area.h **** {
 729              		.loc 3 123 26 view .LVU225
 730              	.LBB123:
 125:Drivers/lvgl/src/core/../misc/../font/../misc/lv_area.h **** }
 731              		.loc 3 125 5 view .LVU226
 125:Drivers/lvgl/src/core/../misc/../font/../misc/lv_area.h **** }
 732              		.loc 3 125 5 is_stmt 0 view .LVU227
 733              	.LBE123:
 734              	.LBE129:
 485:Drivers/lvgl/src/core/lv_indev_scroll.c ****                 default:
 735              		.loc 1 485 21 is_stmt 1 view .LVU228
 736 0118 BEE7     		b	.L29
 737              	.LVL60:
 738              	.L27:
 479:Drivers/lvgl/src/core/lv_indev_scroll.c ****                     x_parent = obj->coords.x2 - pad_right;
 739              		.loc 1 479 21 view .LVU229
 480:Drivers/lvgl/src/core/lv_indev_scroll.c ****                     break;
 740              		.loc 1 480 21 view .LVU230
 480:Drivers/lvgl/src/core/lv_indev_scroll.c ****                     break;
 741              		.loc 1 480 47 is_stmt 0 view .LVU231
 742 011a 318B     		ldrh	r1, [r6, #24]
 743 011c 049B     		ldr	r3, [sp, #16]
 490:Drivers/lvgl/src/core/lv_indev_scroll.c ****             if(x_child >= min && x_child <= max) {
 744              		.loc 1 490 21 view .LVU232
 745 011e 2A8B     		ldrh	r2, [r5, #24]
 480:Drivers/lvgl/src/core/lv_indev_scroll.c ****                     break;
 746              		.loc 1 480 47 view .LVU233
 747 0120 C91A     		subs	r1, r1, r3
 480:Drivers/lvgl/src/core/lv_indev_scroll.c ****                     break;
 748              		.loc 1 480 30 view .LVU234
 749 0122 09B2     		sxth	r1, r1
 750              	.LVL61:
 481:Drivers/lvgl/src/core/lv_indev_scroll.c ****                 case LV_SCROLL_SNAP_CENTER:
 751              		.loc 1 481 21 is_stmt 1 view .LVU235
 752 0124 B8E7     		b	.L29
 753              	.L37:
 754 0126 00BF     		.align	2
 755              	.L36:
 756 0128 01000400 		.word	262145
 757              	.LBE130:
 758              	.LBE132:
 759              		.cfi_endproc
 760              	.LFE167:
 762              		.section	.text.elastic_diff.part.0,"ax",%progbits
 763              		.align	1
 764              		.p2align 2,,3
ARM GAS  /var/folders/lp/x54gwt890xv47sdkqj1k04q40000gn/T//cc5DBzfs.s 			page 32


 765              		.syntax unified
 766              		.thumb
 767              		.thumb_func
 769              	elastic_diff.part.0:
 770              	.LVL62:
 771              	.LFB173:
 555:Drivers/lvgl/src/core/lv_indev_scroll.c **** 
 556:Drivers/lvgl/src/core/lv_indev_scroll.c **** static void scroll_limit_diff(_lv_indev_proc_t * proc, lv_coord_t * diff_x, lv_coord_t * diff_y)
 557:Drivers/lvgl/src/core/lv_indev_scroll.c **** {
 558:Drivers/lvgl/src/core/lv_indev_scroll.c ****     if(diff_y) {
 559:Drivers/lvgl/src/core/lv_indev_scroll.c ****         if(proc->types.pointer.scroll_sum.y + *diff_y < proc->types.pointer.scroll_area.y1) {
 560:Drivers/lvgl/src/core/lv_indev_scroll.c ****             *diff_y = proc->types.pointer.scroll_area.y1 - proc->types.pointer.scroll_sum.y;
 561:Drivers/lvgl/src/core/lv_indev_scroll.c ****         }
 562:Drivers/lvgl/src/core/lv_indev_scroll.c **** 
 563:Drivers/lvgl/src/core/lv_indev_scroll.c ****         if(proc->types.pointer.scroll_sum.y + *diff_y > proc->types.pointer.scroll_area.y2) {
 564:Drivers/lvgl/src/core/lv_indev_scroll.c ****             *diff_y = proc->types.pointer.scroll_area.y2 - proc->types.pointer.scroll_sum.y;
 565:Drivers/lvgl/src/core/lv_indev_scroll.c ****         }
 566:Drivers/lvgl/src/core/lv_indev_scroll.c ****     }
 567:Drivers/lvgl/src/core/lv_indev_scroll.c **** 
 568:Drivers/lvgl/src/core/lv_indev_scroll.c ****     if(diff_x) {
 569:Drivers/lvgl/src/core/lv_indev_scroll.c ****         if(proc->types.pointer.scroll_sum.x + *diff_x < proc->types.pointer.scroll_area.x1) {
 570:Drivers/lvgl/src/core/lv_indev_scroll.c ****             *diff_x = proc->types.pointer.scroll_area.x1 - proc->types.pointer.scroll_sum.x;
 571:Drivers/lvgl/src/core/lv_indev_scroll.c ****         }
 572:Drivers/lvgl/src/core/lv_indev_scroll.c **** 
 573:Drivers/lvgl/src/core/lv_indev_scroll.c ****         if(proc->types.pointer.scroll_sum.x + *diff_x > proc->types.pointer.scroll_area.x2) {
 574:Drivers/lvgl/src/core/lv_indev_scroll.c ****             *diff_x = proc->types.pointer.scroll_area.x2 - proc->types.pointer.scroll_sum.x;
 575:Drivers/lvgl/src/core/lv_indev_scroll.c ****         }
 576:Drivers/lvgl/src/core/lv_indev_scroll.c ****     }
 577:Drivers/lvgl/src/core/lv_indev_scroll.c **** }
 578:Drivers/lvgl/src/core/lv_indev_scroll.c **** 
 579:Drivers/lvgl/src/core/lv_indev_scroll.c **** 
 580:Drivers/lvgl/src/core/lv_indev_scroll.c **** 
 581:Drivers/lvgl/src/core/lv_indev_scroll.c **** static lv_coord_t scroll_throw_predict_y(_lv_indev_proc_t * proc)
 582:Drivers/lvgl/src/core/lv_indev_scroll.c **** {
 583:Drivers/lvgl/src/core/lv_indev_scroll.c ****     lv_coord_t y = proc->types.pointer.scroll_throw_vect.y;
 584:Drivers/lvgl/src/core/lv_indev_scroll.c ****     lv_coord_t move = 0;
 585:Drivers/lvgl/src/core/lv_indev_scroll.c **** 
 586:Drivers/lvgl/src/core/lv_indev_scroll.c ****     lv_indev_t * indev_act = lv_indev_get_act();
 587:Drivers/lvgl/src/core/lv_indev_scroll.c ****     lv_coord_t scroll_throw = indev_act->driver->scroll_throw;
 588:Drivers/lvgl/src/core/lv_indev_scroll.c **** 
 589:Drivers/lvgl/src/core/lv_indev_scroll.c ****     while(y) {
 590:Drivers/lvgl/src/core/lv_indev_scroll.c ****         move += y;
 591:Drivers/lvgl/src/core/lv_indev_scroll.c ****         y = y * (100 - scroll_throw) / 100;
 592:Drivers/lvgl/src/core/lv_indev_scroll.c ****     }
 593:Drivers/lvgl/src/core/lv_indev_scroll.c ****     return move;
 594:Drivers/lvgl/src/core/lv_indev_scroll.c **** }
 595:Drivers/lvgl/src/core/lv_indev_scroll.c **** 
 596:Drivers/lvgl/src/core/lv_indev_scroll.c **** 
 597:Drivers/lvgl/src/core/lv_indev_scroll.c **** static lv_coord_t scroll_throw_predict_x(_lv_indev_proc_t * proc)
 598:Drivers/lvgl/src/core/lv_indev_scroll.c **** {
 599:Drivers/lvgl/src/core/lv_indev_scroll.c ****     lv_coord_t x = proc->types.pointer.scroll_throw_vect.x;
 600:Drivers/lvgl/src/core/lv_indev_scroll.c ****     lv_coord_t move = 0;
 601:Drivers/lvgl/src/core/lv_indev_scroll.c **** 
 602:Drivers/lvgl/src/core/lv_indev_scroll.c ****     lv_indev_t * indev_act = lv_indev_get_act();
 603:Drivers/lvgl/src/core/lv_indev_scroll.c ****     lv_coord_t scroll_throw = indev_act->driver->scroll_throw;
 604:Drivers/lvgl/src/core/lv_indev_scroll.c **** 
 605:Drivers/lvgl/src/core/lv_indev_scroll.c ****     while(x) {
ARM GAS  /var/folders/lp/x54gwt890xv47sdkqj1k04q40000gn/T//cc5DBzfs.s 			page 33


 606:Drivers/lvgl/src/core/lv_indev_scroll.c ****         move += x;
 607:Drivers/lvgl/src/core/lv_indev_scroll.c ****         x = x * (100 - scroll_throw) / 100;
 608:Drivers/lvgl/src/core/lv_indev_scroll.c ****     }
 609:Drivers/lvgl/src/core/lv_indev_scroll.c ****     return move;
 610:Drivers/lvgl/src/core/lv_indev_scroll.c **** }
 611:Drivers/lvgl/src/core/lv_indev_scroll.c **** 
 612:Drivers/lvgl/src/core/lv_indev_scroll.c **** static lv_coord_t elastic_diff(lv_obj_t * scroll_obj, lv_coord_t diff, lv_coord_t scroll_start, lv_
 772              		.loc 1 612 19 view -0
 773              		.cfi_startproc
 774              		@ args = 4, pretend = 0, frame = 0
 775              		@ frame_needed = 0, uses_anonymous_args = 0
 776              	.LBB133:
 613:Drivers/lvgl/src/core/lv_indev_scroll.c ****                                lv_dir_t dir)
 614:Drivers/lvgl/src/core/lv_indev_scroll.c **** {
 615:Drivers/lvgl/src/core/lv_indev_scroll.c ****     if(lv_obj_has_flag(scroll_obj, LV_OBJ_FLAG_SCROLL_ELASTIC)) {
 616:Drivers/lvgl/src/core/lv_indev_scroll.c ****         /*If there is snapping in the current direction don't use the elastic factor because
 617:Drivers/lvgl/src/core/lv_indev_scroll.c ****          *it's natural that the first and last items are scrolled (snapped) in.*/
 618:Drivers/lvgl/src/core/lv_indev_scroll.c ****         lv_scroll_snap_t snap;
 777              		.loc 1 618 9 view .LVU237
 619:Drivers/lvgl/src/core/lv_indev_scroll.c ****         snap = dir == LV_DIR_HOR ? lv_obj_get_scroll_snap_x(scroll_obj) : lv_obj_get_scroll_snap_y(
 778              		.loc 1 619 9 view .LVU238
 779              	.LBE133:
 612:Drivers/lvgl/src/core/lv_indev_scroll.c ****                                lv_dir_t dir)
 780              		.loc 1 612 19 is_stmt 0 view .LVU239
 781 0000 2DE9F047 		push	{r4, r5, r6, r7, r8, r9, r10, lr}
 782              		.cfi_def_cfa_offset 32
 783              		.cfi_offset 4, -32
 784              		.cfi_offset 5, -28
 785              		.cfi_offset 6, -24
 786              		.cfi_offset 7, -20
 787              		.cfi_offset 8, -16
 788              		.cfi_offset 9, -12
 789              		.cfi_offset 10, -8
 790              		.cfi_offset 14, -4
 612:Drivers/lvgl/src/core/lv_indev_scroll.c ****                                lv_dir_t dir)
 791              		.loc 1 612 19 view .LVU240
 792 0004 1F46     		mov	r7, r3
 793 0006 9DF82030 		ldrb	r3, [sp, #32]	@ zero_extendqisi2
 794              	.LVL63:
 795              	.LBB179:
 796              		.loc 1 619 14 view .LVU241
 797 000a 032B     		cmp	r3, #3
 798              	.LBE179:
 612:Drivers/lvgl/src/core/lv_indev_scroll.c ****                                lv_dir_t dir)
 799              		.loc 1 612 19 view .LVU242
 800 000c 0646     		mov	r6, r0
 801 000e 0C46     		mov	r4, r1
 802 0010 9046     		mov	r8, r2
 803              	.LBB180:
 804              		.loc 1 619 14 view .LVU243
 805 0012 39D0     		beq	.L89
 806              		.loc 1 619 75 discriminator 2 view .LVU244
 807 0014 FFF7FEFF 		bl	lv_obj_get_scroll_snap_y
 808              	.LVL64:
 809              		.loc 1 619 75 discriminator 2 view .LVU245
 810 0018 8146     		mov	r9, r0
 811              	.LVL65:
ARM GAS  /var/folders/lp/x54gwt890xv47sdkqj1k04q40000gn/T//cc5DBzfs.s 			page 34


 620:Drivers/lvgl/src/core/lv_indev_scroll.c **** 
 621:Drivers/lvgl/src/core/lv_indev_scroll.c ****         lv_obj_t * act_obj = lv_indev_get_obj_act();
 812              		.loc 1 621 9 is_stmt 1 view .LVU246
 813              		.loc 1 621 30 is_stmt 0 view .LVU247
 814 001a FFF7FEFF 		bl	lv_indev_get_obj_act
 815              	.LVL66:
 816              	.LBB134:
 817              	.LBB135:
 818              	.LBB136:
 105:Drivers/lvgl/src/core/lv_obj_style_gen.h ****     return (lv_coord_t)v.num;
 819              		.loc 2 105 26 view .LVU248
 820 001e 1022     		movs	r2, #16
 821 0020 0021     		movs	r1, #0
 822              	.LBE136:
 823              	.LBE135:
 824              	.LBE134:
 825              		.loc 1 621 30 view .LVU249
 826 0022 8246     		mov	r10, r0
 827              	.LVL67:
 622:Drivers/lvgl/src/core/lv_indev_scroll.c ****         lv_coord_t snap_point = 0;
 828              		.loc 1 622 9 is_stmt 1 view .LVU250
 623:Drivers/lvgl/src/core/lv_indev_scroll.c ****         lv_coord_t act_obj_point = 0;
 829              		.loc 1 623 9 view .LVU251
 624:Drivers/lvgl/src/core/lv_indev_scroll.c **** 
 625:Drivers/lvgl/src/core/lv_indev_scroll.c ****         if(dir == LV_DIR_HOR) {
 830              		.loc 1 625 9 view .LVU252
 831              	.LBB151:
 626:Drivers/lvgl/src/core/lv_indev_scroll.c ****             lv_coord_t pad_left = lv_obj_get_style_pad_left(scroll_obj, LV_PART_MAIN);
 627:Drivers/lvgl/src/core/lv_indev_scroll.c ****             lv_coord_t pad_right = lv_obj_get_style_pad_right(scroll_obj, LV_PART_MAIN);
 628:Drivers/lvgl/src/core/lv_indev_scroll.c **** 
 629:Drivers/lvgl/src/core/lv_indev_scroll.c ****             switch(snap) {
 630:Drivers/lvgl/src/core/lv_indev_scroll.c ****                 case LV_SCROLL_SNAP_CENTER:
 631:Drivers/lvgl/src/core/lv_indev_scroll.c ****                     snap_point = pad_left + (lv_area_get_width(&scroll_obj->coords) - pad_left - pa
 632:Drivers/lvgl/src/core/lv_indev_scroll.c ****                     act_obj_point = lv_area_get_width(&act_obj->coords) / 2 + act_obj->coords.x1;
 633:Drivers/lvgl/src/core/lv_indev_scroll.c ****                     break;
 634:Drivers/lvgl/src/core/lv_indev_scroll.c ****                 case LV_SCROLL_SNAP_START:
 635:Drivers/lvgl/src/core/lv_indev_scroll.c ****                     snap_point = scroll_obj->coords.x1 + pad_left;
 636:Drivers/lvgl/src/core/lv_indev_scroll.c ****                     act_obj_point = act_obj->coords.x1;
 637:Drivers/lvgl/src/core/lv_indev_scroll.c ****                     break;
 638:Drivers/lvgl/src/core/lv_indev_scroll.c ****                 case LV_SCROLL_SNAP_END:
 639:Drivers/lvgl/src/core/lv_indev_scroll.c ****                     snap_point = scroll_obj->coords.x2 - pad_right;
 640:Drivers/lvgl/src/core/lv_indev_scroll.c ****                     act_obj_point = act_obj->coords.x2;
 641:Drivers/lvgl/src/core/lv_indev_scroll.c ****                     break;
 642:Drivers/lvgl/src/core/lv_indev_scroll.c ****             }
 643:Drivers/lvgl/src/core/lv_indev_scroll.c ****         }
 644:Drivers/lvgl/src/core/lv_indev_scroll.c ****         else {
 645:Drivers/lvgl/src/core/lv_indev_scroll.c ****             lv_coord_t pad_top = lv_obj_get_style_pad_top(scroll_obj, LV_PART_MAIN);
 832              		.loc 1 645 13 view .LVU253
 833              	.LBB139:
 834              	.LBI135:
 103:Drivers/lvgl/src/core/lv_obj_style_gen.h **** {
 835              		.loc 2 103 26 view .LVU254
 836              	.LBB137:
 105:Drivers/lvgl/src/core/lv_obj_style_gen.h ****     return (lv_coord_t)v.num;
 837              		.loc 2 105 5 view .LVU255
 105:Drivers/lvgl/src/core/lv_obj_style_gen.h ****     return (lv_coord_t)v.num;
 838              		.loc 2 105 26 is_stmt 0 view .LVU256
ARM GAS  /var/folders/lp/x54gwt890xv47sdkqj1k04q40000gn/T//cc5DBzfs.s 			page 35


 839 0024 3046     		mov	r0, r6
 840              	.LVL68:
 105:Drivers/lvgl/src/core/lv_obj_style_gen.h ****     return (lv_coord_t)v.num;
 841              		.loc 2 105 26 view .LVU257
 842 0026 FFF7FEFF 		bl	lv_obj_get_style_prop
 843              	.LVL69:
 844              	.LBE137:
 845              	.LBE139:
 846              	.LBB140:
 847              	.LBB141:
 111:Drivers/lvgl/src/core/lv_obj_style_gen.h ****     return (lv_coord_t)v.num;
 848              		.loc 2 111 26 view .LVU258
 849 002a 1122     		movs	r2, #17
 850              	.LBE141:
 851              	.LBE140:
 852              	.LBB143:
 853              	.LBB138:
 105:Drivers/lvgl/src/core/lv_obj_style_gen.h ****     return (lv_coord_t)v.num;
 854              		.loc 2 105 26 view .LVU259
 855 002c 0546     		mov	r5, r0
 856              	.LVL70:
 106:Drivers/lvgl/src/core/lv_obj_style_gen.h **** }
 857              		.loc 2 106 5 is_stmt 1 view .LVU260
 106:Drivers/lvgl/src/core/lv_obj_style_gen.h **** }
 858              		.loc 2 106 5 is_stmt 0 view .LVU261
 859              	.LBE138:
 860              	.LBE143:
 646:Drivers/lvgl/src/core/lv_indev_scroll.c ****             lv_coord_t pad_bottom = lv_obj_get_style_pad_bottom(scroll_obj, LV_PART_MAIN);
 861              		.loc 1 646 13 is_stmt 1 view .LVU262
 862              	.LBB144:
 863              	.LBI140:
 109:Drivers/lvgl/src/core/lv_obj_style_gen.h **** {
 864              		.loc 2 109 26 view .LVU263
 865              	.LBB142:
 111:Drivers/lvgl/src/core/lv_obj_style_gen.h ****     return (lv_coord_t)v.num;
 866              		.loc 2 111 5 view .LVU264
 111:Drivers/lvgl/src/core/lv_obj_style_gen.h ****     return (lv_coord_t)v.num;
 867              		.loc 2 111 26 is_stmt 0 view .LVU265
 868 002e 0021     		movs	r1, #0
 869 0030 3046     		mov	r0, r6
 870 0032 FFF7FEFF 		bl	lv_obj_get_style_prop
 871              	.LVL71:
 112:Drivers/lvgl/src/core/lv_obj_style_gen.h **** }
 872              		.loc 2 112 5 is_stmt 1 view .LVU266
 112:Drivers/lvgl/src/core/lv_obj_style_gen.h **** }
 873              		.loc 2 112 5 is_stmt 0 view .LVU267
 874              	.LBE142:
 875              	.LBE144:
 647:Drivers/lvgl/src/core/lv_indev_scroll.c **** 
 648:Drivers/lvgl/src/core/lv_indev_scroll.c ****             switch(snap) {
 876              		.loc 1 648 13 is_stmt 1 view .LVU268
 877 0036 B9F1020F 		cmp	r9, #2
 878 003a 0DD0     		beq	.L44
 879 003c B9F1030F 		cmp	r9, #3
 880 0040 71D0     		beq	.L45
 881 0042 B9F1010F 		cmp	r9, #1
 882 0046 47D0     		beq	.L46
ARM GAS  /var/folders/lp/x54gwt890xv47sdkqj1k04q40000gn/T//cc5DBzfs.s 			page 36


 883              	.LVL72:
 884              	.L68:
 885              		.loc 1 648 13 is_stmt 0 view .LVU269
 886              	.LBE151:
 649:Drivers/lvgl/src/core/lv_indev_scroll.c ****                 case LV_SCROLL_SNAP_CENTER:
 650:Drivers/lvgl/src/core/lv_indev_scroll.c ****                     snap_point = pad_top + (lv_area_get_height(&scroll_obj->coords) - pad_top - pad
 651:Drivers/lvgl/src/core/lv_indev_scroll.c ****                     act_obj_point = lv_area_get_height(&act_obj->coords) / 2 + act_obj->coords.y1;
 652:Drivers/lvgl/src/core/lv_indev_scroll.c ****                     break;
 653:Drivers/lvgl/src/core/lv_indev_scroll.c ****                 case LV_SCROLL_SNAP_START:
 654:Drivers/lvgl/src/core/lv_indev_scroll.c ****                     snap_point = scroll_obj->coords.y1 + pad_top;
 655:Drivers/lvgl/src/core/lv_indev_scroll.c ****                     act_obj_point = act_obj->coords.y1;
 656:Drivers/lvgl/src/core/lv_indev_scroll.c ****                     break;
 657:Drivers/lvgl/src/core/lv_indev_scroll.c ****                 case LV_SCROLL_SNAP_END:
 658:Drivers/lvgl/src/core/lv_indev_scroll.c ****                     snap_point = scroll_obj->coords.y2 - pad_bottom;
 659:Drivers/lvgl/src/core/lv_indev_scroll.c ****                     act_obj_point = act_obj->coords.y2;
 660:Drivers/lvgl/src/core/lv_indev_scroll.c ****                     break;
 661:Drivers/lvgl/src/core/lv_indev_scroll.c ****             }
 662:Drivers/lvgl/src/core/lv_indev_scroll.c ****         }
 663:Drivers/lvgl/src/core/lv_indev_scroll.c **** 
 664:Drivers/lvgl/src/core/lv_indev_scroll.c ****         if(scroll_end < 0) {
 887              		.loc 1 664 9 is_stmt 1 view .LVU270
 888              		.loc 1 664 11 is_stmt 0 view .LVU271
 889 0048 002F     		cmp	r7, #0
 890 004a 0EDB     		blt	.L51
 665:Drivers/lvgl/src/core/lv_indev_scroll.c ****             if(snap != LV_SCROLL_SNAP_NONE && act_obj_point > snap_point) return diff;
 666:Drivers/lvgl/src/core/lv_indev_scroll.c **** 
 667:Drivers/lvgl/src/core/lv_indev_scroll.c ****             /*Rounding*/
 668:Drivers/lvgl/src/core/lv_indev_scroll.c ****             if(diff < 0) diff -= ELASTIC_SLOWNESS_FACTOR / 2;
 669:Drivers/lvgl/src/core/lv_indev_scroll.c ****             if(diff > 0) diff += ELASTIC_SLOWNESS_FACTOR / 2;
 670:Drivers/lvgl/src/core/lv_indev_scroll.c ****             return diff / ELASTIC_SLOWNESS_FACTOR;
 671:Drivers/lvgl/src/core/lv_indev_scroll.c ****         }
 672:Drivers/lvgl/src/core/lv_indev_scroll.c ****         else if(scroll_start < 0) {
 891              		.loc 1 672 14 is_stmt 1 view .LVU272
 892              		.loc 1 672 16 is_stmt 0 view .LVU273
 893 004c B8F1000F 		cmp	r8, #0
 894 0050 0BDB     		blt	.L51
 895              	.LVL73:
 896              	.L63:
 665:Drivers/lvgl/src/core/lv_indev_scroll.c ****             if(snap != LV_SCROLL_SNAP_NONE && act_obj_point > snap_point) return diff;
 897              		.loc 1 665 82 discriminator 2 view .LVU274
 898 0052 2046     		mov	r0, r4
 899              	.LVL74:
 900              	.L90:
 665:Drivers/lvgl/src/core/lv_indev_scroll.c ****             if(snap != LV_SCROLL_SNAP_NONE && act_obj_point > snap_point) return diff;
 901              		.loc 1 665 82 discriminator 2 view .LVU275
 902              	.LBE180:
 673:Drivers/lvgl/src/core/lv_indev_scroll.c ****             if(snap != LV_SCROLL_SNAP_NONE && act_obj_point < snap_point) return diff;
 674:Drivers/lvgl/src/core/lv_indev_scroll.c **** 
 675:Drivers/lvgl/src/core/lv_indev_scroll.c ****             /*Rounding*/
 676:Drivers/lvgl/src/core/lv_indev_scroll.c ****             if(diff < 0) diff -= ELASTIC_SLOWNESS_FACTOR / 2;
 677:Drivers/lvgl/src/core/lv_indev_scroll.c ****             if(diff > 0) diff += ELASTIC_SLOWNESS_FACTOR / 2;
 678:Drivers/lvgl/src/core/lv_indev_scroll.c ****             return diff / ELASTIC_SLOWNESS_FACTOR;
 679:Drivers/lvgl/src/core/lv_indev_scroll.c ****         }
 680:Drivers/lvgl/src/core/lv_indev_scroll.c ****     }
 681:Drivers/lvgl/src/core/lv_indev_scroll.c ****     else {
 682:Drivers/lvgl/src/core/lv_indev_scroll.c ****         /*Scroll back to the boundary if required*/
 683:Drivers/lvgl/src/core/lv_indev_scroll.c ****         if(scroll_end + diff < 0) diff = - scroll_end;
ARM GAS  /var/folders/lp/x54gwt890xv47sdkqj1k04q40000gn/T//cc5DBzfs.s 			page 37


 684:Drivers/lvgl/src/core/lv_indev_scroll.c ****         if(scroll_start - diff < 0) diff = scroll_start;
 685:Drivers/lvgl/src/core/lv_indev_scroll.c ****     }
 686:Drivers/lvgl/src/core/lv_indev_scroll.c **** 
 687:Drivers/lvgl/src/core/lv_indev_scroll.c ****     return diff;
 688:Drivers/lvgl/src/core/lv_indev_scroll.c **** }
 903              		.loc 1 688 1 view .LVU276
 904 0054 BDE8F087 		pop	{r4, r5, r6, r7, r8, r9, r10, pc}
 905              	.LVL75:
 906              	.L44:
 907              	.LBB181:
 908              	.LBB152:
 658:Drivers/lvgl/src/core/lv_indev_scroll.c ****                     act_obj_point = act_obj->coords.y2;
 909              		.loc 1 658 21 is_stmt 1 view .LVU277
 658:Drivers/lvgl/src/core/lv_indev_scroll.c ****                     act_obj_point = act_obj->coords.y2;
 910              		.loc 1 658 56 is_stmt 0 view .LVU278
 911 0058 758B     		ldrh	r5, [r6, #26]
 912              	.LVL76:
 659:Drivers/lvgl/src/core/lv_indev_scroll.c ****                     break;
 913              		.loc 1 659 35 view .LVU279
 914 005a BAF91A30 		ldrsh	r3, [r10, #26]
 658:Drivers/lvgl/src/core/lv_indev_scroll.c ****                     act_obj_point = act_obj->coords.y2;
 915              		.loc 1 658 56 view .LVU280
 916 005e 2D1A     		subs	r5, r5, r0
 917              	.LBE152:
 664:Drivers/lvgl/src/core/lv_indev_scroll.c ****             if(snap != LV_SCROLL_SNAP_NONE && act_obj_point > snap_point) return diff;
 918              		.loc 1 664 11 view .LVU281
 919 0060 002F     		cmp	r7, #0
 920              	.LBB153:
 658:Drivers/lvgl/src/core/lv_indev_scroll.c ****                     act_obj_point = act_obj->coords.y2;
 921              		.loc 1 658 32 view .LVU282
 922 0062 2DB2     		sxth	r5, r5
 923              	.LVL77:
 659:Drivers/lvgl/src/core/lv_indev_scroll.c ****                     break;
 924              		.loc 1 659 21 is_stmt 1 view .LVU283
 660:Drivers/lvgl/src/core/lv_indev_scroll.c ****             }
 925              		.loc 1 660 21 view .LVU284
 660:Drivers/lvgl/src/core/lv_indev_scroll.c ****             }
 926              		.loc 1 660 21 is_stmt 0 view .LVU285
 927              	.LBE153:
 664:Drivers/lvgl/src/core/lv_indev_scroll.c ****             if(snap != LV_SCROLL_SNAP_NONE && act_obj_point > snap_point) return diff;
 928              		.loc 1 664 9 is_stmt 1 view .LVU286
 664:Drivers/lvgl/src/core/lv_indev_scroll.c ****             if(snap != LV_SCROLL_SNAP_NONE && act_obj_point > snap_point) return diff;
 929              		.loc 1 664 11 is_stmt 0 view .LVU287
 930 0064 31DA     		bge	.L70
 931              	.LVL78:
 932              	.L55:
 665:Drivers/lvgl/src/core/lv_indev_scroll.c **** 
 933              		.loc 1 665 44 discriminator 1 view .LVU288
 934 0066 9D42     		cmp	r5, r3
 935 0068 F3DB     		blt	.L63
 936              	.LVL79:
 937              	.L51:
 676:Drivers/lvgl/src/core/lv_indev_scroll.c ****             if(diff > 0) diff += ELASTIC_SLOWNESS_FACTOR / 2;
 938              		.loc 1 676 13 is_stmt 1 view .LVU289
 676:Drivers/lvgl/src/core/lv_indev_scroll.c ****             if(diff > 0) diff += ELASTIC_SLOWNESS_FACTOR / 2;
 939              		.loc 1 676 15 is_stmt 0 view .LVU290
 940 006a 002C     		cmp	r4, #0
ARM GAS  /var/folders/lp/x54gwt890xv47sdkqj1k04q40000gn/T//cc5DBzfs.s 			page 38


 941 006c 01DA     		bge	.L54
 676:Drivers/lvgl/src/core/lv_indev_scroll.c ****             if(diff > 0) diff += ELASTIC_SLOWNESS_FACTOR / 2;
 942              		.loc 1 676 26 is_stmt 1 discriminator 1 view .LVU291
 676:Drivers/lvgl/src/core/lv_indev_scroll.c ****             if(diff > 0) diff += ELASTIC_SLOWNESS_FACTOR / 2;
 943              		.loc 1 676 31 is_stmt 0 discriminator 1 view .LVU292
 944 006e 023C     		subs	r4, r4, #2
 945              	.LVL80:
 676:Drivers/lvgl/src/core/lv_indev_scroll.c ****             if(diff > 0) diff += ELASTIC_SLOWNESS_FACTOR / 2;
 946              		.loc 1 676 31 discriminator 1 view .LVU293
 947 0070 24B2     		sxth	r4, r4
 948              	.LVL81:
 949              	.L54:
 677:Drivers/lvgl/src/core/lv_indev_scroll.c ****             return diff / ELASTIC_SLOWNESS_FACTOR;
 950              		.loc 1 677 13 is_stmt 1 view .LVU294
 677:Drivers/lvgl/src/core/lv_indev_scroll.c ****             return diff / ELASTIC_SLOWNESS_FACTOR;
 951              		.loc 1 677 26 discriminator 1 view .LVU295
 677:Drivers/lvgl/src/core/lv_indev_scroll.c ****             return diff / ELASTIC_SLOWNESS_FACTOR;
 952              		.loc 1 677 15 is_stmt 0 view .LVU296
 953 0072 002C     		cmp	r4, #0
 677:Drivers/lvgl/src/core/lv_indev_scroll.c ****             return diff / ELASTIC_SLOWNESS_FACTOR;
 954              		.loc 1 677 31 discriminator 1 view .LVU297
 955 0074 C4BF     		itt	gt
 956 0076 0234     		addgt	r4, r4, #2
 957              	.LVL82:
 677:Drivers/lvgl/src/core/lv_indev_scroll.c ****             return diff / ELASTIC_SLOWNESS_FACTOR;
 958              		.loc 1 677 31 discriminator 1 view .LVU298
 959 0078 24B2     		sxthgt	r4, r4
 960              	.LVL83:
 678:Drivers/lvgl/src/core/lv_indev_scroll.c ****         }
 961              		.loc 1 678 13 is_stmt 1 view .LVU299
 678:Drivers/lvgl/src/core/lv_indev_scroll.c ****         }
 962              		.loc 1 678 25 is_stmt 0 view .LVU300
 963 007a 002C     		cmp	r4, #0
 678:Drivers/lvgl/src/core/lv_indev_scroll.c ****         }
 964              		.loc 1 678 25 view .LVU301
 965 007c B8BF     		it	lt
 966 007e 0334     		addlt	r4, r4, #3
 967              	.LVL84:
 678:Drivers/lvgl/src/core/lv_indev_scroll.c ****         }
 968              		.loc 1 678 25 view .LVU302
 969 0080 44F38F00 		sbfx	r0, r4, #2, #16
 970              	.LVL85:
 678:Drivers/lvgl/src/core/lv_indev_scroll.c ****         }
 971              		.loc 1 678 25 view .LVU303
 972              	.LBE181:
 973              		.loc 1 688 1 view .LVU304
 974 0084 BDE8F087 		pop	{r4, r5, r6, r7, r8, r9, r10, pc}
 975              	.LVL86:
 976              	.L89:
 977              	.LBB182:
 619:Drivers/lvgl/src/core/lv_indev_scroll.c **** 
 978              		.loc 1 619 36 discriminator 1 view .LVU305
 979 0088 FFF7FEFF 		bl	lv_obj_get_scroll_snap_x
 980              	.LVL87:
 619:Drivers/lvgl/src/core/lv_indev_scroll.c **** 
 981              		.loc 1 619 36 discriminator 1 view .LVU306
 982 008c 8146     		mov	r9, r0
ARM GAS  /var/folders/lp/x54gwt890xv47sdkqj1k04q40000gn/T//cc5DBzfs.s 			page 39


 983              	.LVL88:
 621:Drivers/lvgl/src/core/lv_indev_scroll.c ****         lv_coord_t snap_point = 0;
 984              		.loc 1 621 9 is_stmt 1 view .LVU307
 621:Drivers/lvgl/src/core/lv_indev_scroll.c ****         lv_coord_t snap_point = 0;
 985              		.loc 1 621 30 is_stmt 0 view .LVU308
 986 008e FFF7FEFF 		bl	lv_indev_get_obj_act
 987              	.LVL89:
 988              	.LBB154:
 989              	.LBB155:
 990              	.LBB156:
 117:Drivers/lvgl/src/core/lv_obj_style_gen.h ****     return (lv_coord_t)v.num;
 991              		.loc 2 117 26 view .LVU309
 992 0092 1222     		movs	r2, #18
 993 0094 0021     		movs	r1, #0
 994              	.LBE156:
 995              	.LBE155:
 996              	.LBE154:
 621:Drivers/lvgl/src/core/lv_indev_scroll.c ****         lv_coord_t snap_point = 0;
 997              		.loc 1 621 30 view .LVU310
 998 0096 8246     		mov	r10, r0
 999              	.LVL90:
 622:Drivers/lvgl/src/core/lv_indev_scroll.c ****         lv_coord_t act_obj_point = 0;
 1000              		.loc 1 622 9 is_stmt 1 view .LVU311
 623:Drivers/lvgl/src/core/lv_indev_scroll.c **** 
 1001              		.loc 1 623 9 view .LVU312
 625:Drivers/lvgl/src/core/lv_indev_scroll.c ****             lv_coord_t pad_left = lv_obj_get_style_pad_left(scroll_obj, LV_PART_MAIN);
 1002              		.loc 1 625 9 view .LVU313
 1003              	.LBB169:
 626:Drivers/lvgl/src/core/lv_indev_scroll.c ****             lv_coord_t pad_right = lv_obj_get_style_pad_right(scroll_obj, LV_PART_MAIN);
 1004              		.loc 1 626 13 view .LVU314
 1005              	.LBB159:
 1006              	.LBI155:
 115:Drivers/lvgl/src/core/lv_obj_style_gen.h **** {
 1007              		.loc 2 115 26 view .LVU315
 1008              	.LBB157:
 117:Drivers/lvgl/src/core/lv_obj_style_gen.h ****     return (lv_coord_t)v.num;
 1009              		.loc 2 117 5 view .LVU316
 117:Drivers/lvgl/src/core/lv_obj_style_gen.h ****     return (lv_coord_t)v.num;
 1010              		.loc 2 117 26 is_stmt 0 view .LVU317
 1011 0098 3046     		mov	r0, r6
 1012              	.LVL91:
 117:Drivers/lvgl/src/core/lv_obj_style_gen.h ****     return (lv_coord_t)v.num;
 1013              		.loc 2 117 26 view .LVU318
 1014 009a FFF7FEFF 		bl	lv_obj_get_style_prop
 1015              	.LVL92:
 1016              	.LBE157:
 1017              	.LBE159:
 1018              	.LBB160:
 1019              	.LBB161:
 123:Drivers/lvgl/src/core/lv_obj_style_gen.h ****     return (lv_coord_t)v.num;
 1020              		.loc 2 123 26 view .LVU319
 1021 009e 1322     		movs	r2, #19
 1022              	.LBE161:
 1023              	.LBE160:
 1024              	.LBB163:
 1025              	.LBB158:
 117:Drivers/lvgl/src/core/lv_obj_style_gen.h ****     return (lv_coord_t)v.num;
ARM GAS  /var/folders/lp/x54gwt890xv47sdkqj1k04q40000gn/T//cc5DBzfs.s 			page 40


 1026              		.loc 2 117 26 view .LVU320
 1027 00a0 0546     		mov	r5, r0
 118:Drivers/lvgl/src/core/lv_obj_style_gen.h **** }
 1028              		.loc 2 118 5 is_stmt 1 view .LVU321
 1029              	.LVL93:
 118:Drivers/lvgl/src/core/lv_obj_style_gen.h **** }
 1030              		.loc 2 118 5 is_stmt 0 view .LVU322
 1031              	.LBE158:
 1032              	.LBE163:
 627:Drivers/lvgl/src/core/lv_indev_scroll.c **** 
 1033              		.loc 1 627 13 is_stmt 1 view .LVU323
 1034              	.LBB164:
 1035              	.LBI160:
 121:Drivers/lvgl/src/core/lv_obj_style_gen.h **** {
 1036              		.loc 2 121 26 view .LVU324
 1037              	.LBB162:
 123:Drivers/lvgl/src/core/lv_obj_style_gen.h ****     return (lv_coord_t)v.num;
 1038              		.loc 2 123 5 view .LVU325
 123:Drivers/lvgl/src/core/lv_obj_style_gen.h ****     return (lv_coord_t)v.num;
 1039              		.loc 2 123 26 is_stmt 0 view .LVU326
 1040 00a2 0021     		movs	r1, #0
 1041 00a4 3046     		mov	r0, r6
 1042 00a6 FFF7FEFF 		bl	lv_obj_get_style_prop
 1043              	.LVL94:
 1044              		.loc 2 124 5 is_stmt 1 view .LVU327
 1045              		.loc 2 124 5 is_stmt 0 view .LVU328
 1046              	.LBE162:
 1047              	.LBE164:
 629:Drivers/lvgl/src/core/lv_indev_scroll.c ****                 case LV_SCROLL_SNAP_CENTER:
 1048              		.loc 1 629 13 is_stmt 1 view .LVU329
 1049 00aa B9F1020F 		cmp	r9, #2
 1050 00ae 4ED0     		beq	.L40
 1051 00b0 B9F1030F 		cmp	r9, #3
 1052 00b4 18D0     		beq	.L41
 1053 00b6 B9F1010F 		cmp	r9, #1
 1054 00ba C5D1     		bne	.L68
 635:Drivers/lvgl/src/core/lv_indev_scroll.c ****                     act_obj_point = act_obj->coords.x1;
 1055              		.loc 1 635 21 view .LVU330
 635:Drivers/lvgl/src/core/lv_indev_scroll.c ****                     act_obj_point = act_obj->coords.x1;
 1056              		.loc 1 635 56 is_stmt 0 view .LVU331
 1057 00bc B38A     		ldrh	r3, [r6, #20]
 1058              	.LBE169:
 664:Drivers/lvgl/src/core/lv_indev_scroll.c ****             if(snap != LV_SCROLL_SNAP_NONE && act_obj_point > snap_point) return diff;
 1059              		.loc 1 664 11 view .LVU332
 1060 00be 002F     		cmp	r7, #0
 1061              	.LBB170:
 635:Drivers/lvgl/src/core/lv_indev_scroll.c ****                     act_obj_point = act_obj->coords.x1;
 1062              		.loc 1 635 56 view .LVU333
 1063 00c0 1D44     		add	r5, r5, r3
 1064              	.LVL95:
 635:Drivers/lvgl/src/core/lv_indev_scroll.c ****                     act_obj_point = act_obj->coords.x1;
 1065              		.loc 1 635 32 view .LVU334
 1066 00c2 2DB2     		sxth	r5, r5
 1067              	.LVL96:
 636:Drivers/lvgl/src/core/lv_indev_scroll.c ****                     break;
 1068              		.loc 1 636 21 is_stmt 1 view .LVU335
 636:Drivers/lvgl/src/core/lv_indev_scroll.c ****                     break;
ARM GAS  /var/folders/lp/x54gwt890xv47sdkqj1k04q40000gn/T//cc5DBzfs.s 			page 41


 1069              		.loc 1 636 35 is_stmt 0 view .LVU336
 1070 00c4 BAF91430 		ldrsh	r3, [r10, #20]
 1071              	.LVL97:
 637:Drivers/lvgl/src/core/lv_indev_scroll.c ****                 case LV_SCROLL_SNAP_END:
 1072              		.loc 1 637 21 is_stmt 1 view .LVU337
 637:Drivers/lvgl/src/core/lv_indev_scroll.c ****                 case LV_SCROLL_SNAP_END:
 1073              		.loc 1 637 21 is_stmt 0 view .LVU338
 1074              	.LBE170:
 664:Drivers/lvgl/src/core/lv_indev_scroll.c ****             if(snap != LV_SCROLL_SNAP_NONE && act_obj_point > snap_point) return diff;
 1075              		.loc 1 664 9 is_stmt 1 view .LVU339
 664:Drivers/lvgl/src/core/lv_indev_scroll.c ****             if(snap != LV_SCROLL_SNAP_NONE && act_obj_point > snap_point) return diff;
 1076              		.loc 1 664 11 is_stmt 0 view .LVU340
 1077 00c8 CDDB     		blt	.L55
 1078              	.LVL98:
 1079              	.L70:
 672:Drivers/lvgl/src/core/lv_indev_scroll.c ****             if(snap != LV_SCROLL_SNAP_NONE && act_obj_point < snap_point) return diff;
 1080              		.loc 1 672 14 is_stmt 1 view .LVU341
 672:Drivers/lvgl/src/core/lv_indev_scroll.c ****             if(snap != LV_SCROLL_SNAP_NONE && act_obj_point < snap_point) return diff;
 1081              		.loc 1 672 16 is_stmt 0 view .LVU342
 1082 00ca B8F1000F 		cmp	r8, #0
 1083 00ce C0DA     		bge	.L63
 673:Drivers/lvgl/src/core/lv_indev_scroll.c **** 
 1084              		.loc 1 673 44 discriminator 1 view .LVU343
 1085 00d0 9D42     		cmp	r5, r3
 1086 00d2 CADD     		ble	.L51
 665:Drivers/lvgl/src/core/lv_indev_scroll.c **** 
 1087              		.loc 1 665 82 discriminator 2 view .LVU344
 1088 00d4 2046     		mov	r0, r4
 665:Drivers/lvgl/src/core/lv_indev_scroll.c **** 
 1089              		.loc 1 665 82 discriminator 2 view .LVU345
 1090 00d6 BDE7     		b	.L90
 1091              	.LVL99:
 1092              	.L46:
 1093              	.LBB171:
 654:Drivers/lvgl/src/core/lv_indev_scroll.c ****                     act_obj_point = act_obj->coords.y1;
 1094              		.loc 1 654 21 is_stmt 1 view .LVU346
 654:Drivers/lvgl/src/core/lv_indev_scroll.c ****                     act_obj_point = act_obj->coords.y1;
 1095              		.loc 1 654 56 is_stmt 0 view .LVU347
 1096 00d8 F38A     		ldrh	r3, [r6, #22]
 1097              	.LBE171:
 664:Drivers/lvgl/src/core/lv_indev_scroll.c ****             if(snap != LV_SCROLL_SNAP_NONE && act_obj_point > snap_point) return diff;
 1098              		.loc 1 664 11 view .LVU348
 1099 00da 002F     		cmp	r7, #0
 1100              	.LBB172:
 654:Drivers/lvgl/src/core/lv_indev_scroll.c ****                     act_obj_point = act_obj->coords.y1;
 1101              		.loc 1 654 56 view .LVU349
 1102 00dc 1D44     		add	r5, r5, r3
 1103              	.LVL100:
 654:Drivers/lvgl/src/core/lv_indev_scroll.c ****                     act_obj_point = act_obj->coords.y1;
 1104              		.loc 1 654 32 view .LVU350
 1105 00de 2DB2     		sxth	r5, r5
 1106              	.LVL101:
 655:Drivers/lvgl/src/core/lv_indev_scroll.c ****                     break;
 1107              		.loc 1 655 21 is_stmt 1 view .LVU351
 655:Drivers/lvgl/src/core/lv_indev_scroll.c ****                     break;
 1108              		.loc 1 655 35 is_stmt 0 view .LVU352
 1109 00e0 BAF91630 		ldrsh	r3, [r10, #22]
ARM GAS  /var/folders/lp/x54gwt890xv47sdkqj1k04q40000gn/T//cc5DBzfs.s 			page 42


 1110              	.LVL102:
 656:Drivers/lvgl/src/core/lv_indev_scroll.c ****                 case LV_SCROLL_SNAP_END:
 1111              		.loc 1 656 21 is_stmt 1 view .LVU353
 656:Drivers/lvgl/src/core/lv_indev_scroll.c ****                 case LV_SCROLL_SNAP_END:
 1112              		.loc 1 656 21 is_stmt 0 view .LVU354
 1113              	.LBE172:
 664:Drivers/lvgl/src/core/lv_indev_scroll.c ****             if(snap != LV_SCROLL_SNAP_NONE && act_obj_point > snap_point) return diff;
 1114              		.loc 1 664 9 is_stmt 1 view .LVU355
 664:Drivers/lvgl/src/core/lv_indev_scroll.c ****             if(snap != LV_SCROLL_SNAP_NONE && act_obj_point > snap_point) return diff;
 1115              		.loc 1 664 11 is_stmt 0 view .LVU356
 1116 00e4 F1DA     		bge	.L70
 1117 00e6 BEE7     		b	.L55
 1118              	.LVL103:
 1119              	.L41:
 1120              	.LBB173:
 631:Drivers/lvgl/src/core/lv_indev_scroll.c ****                     act_obj_point = lv_area_get_width(&act_obj->coords) / 2 + act_obj->coords.x1;
 1121              		.loc 1 631 21 is_stmt 1 view .LVU357
 1122              	.LBB165:
 1123              	.LBI165:
 123:Drivers/lvgl/src/core/../misc/../font/../misc/lv_area.h **** {
 1124              		.loc 3 123 26 view .LVU358
 1125              	.LBB166:
 125:Drivers/lvgl/src/core/../misc/../font/../misc/lv_area.h **** }
 1126              		.loc 3 125 5 view .LVU359
 125:Drivers/lvgl/src/core/../misc/../font/../misc/lv_area.h **** }
 1127              		.loc 3 125 49 is_stmt 0 view .LVU360
 1128 00e8 338B     		ldrh	r3, [r6, #24]
 125:Drivers/lvgl/src/core/../misc/../font/../misc/lv_area.h **** }
 1129              		.loc 3 125 44 view .LVU361
 1130 00ea B28A     		ldrh	r2, [r6, #20]
 1131              	.LVL104:
 125:Drivers/lvgl/src/core/../misc/../font/../misc/lv_area.h **** }
 1132              		.loc 3 125 49 view .LVU362
 1133 00ec 0133     		adds	r3, r3, #1
 1134 00ee 9B1A     		subs	r3, r3, r2
 1135              	.LBE166:
 1136              	.LBE165:
 631:Drivers/lvgl/src/core/lv_indev_scroll.c ****                     act_obj_point = lv_area_get_width(&act_obj->coords) / 2 + act_obj->coords.x1;
 1137              		.loc 1 631 46 discriminator 1 view .LVU363
 1138 00f0 1BB2     		sxth	r3, r3
 631:Drivers/lvgl/src/core/lv_indev_scroll.c ****                     act_obj_point = lv_area_get_width(&act_obj->coords) / 2 + act_obj->coords.x1;
 1139              		.loc 1 631 113 discriminator 1 view .LVU364
 1140 00f2 2A44     		add	r2, r2, r5
 631:Drivers/lvgl/src/core/lv_indev_scroll.c ****                     act_obj_point = lv_area_get_width(&act_obj->coords) / 2 + act_obj->coords.x1;
 1141              		.loc 1 631 85 discriminator 1 view .LVU365
 1142 00f4 2DB2     		sxth	r5, r5
 631:Drivers/lvgl/src/core/lv_indev_scroll.c ****                     act_obj_point = lv_area_get_width(&act_obj->coords) / 2 + act_obj->coords.x1;
 1143              		.loc 1 631 85 discriminator 1 view .LVU366
 1144 00f6 5B1B     		subs	r3, r3, r5
 631:Drivers/lvgl/src/core/lv_indev_scroll.c ****                     act_obj_point = lv_area_get_width(&act_obj->coords) / 2 + act_obj->coords.x1;
 1145              		.loc 1 631 96 discriminator 1 view .LVU367
 1146 00f8 00B2     		sxth	r0, r0
 631:Drivers/lvgl/src/core/lv_indev_scroll.c ****                     act_obj_point = lv_area_get_width(&act_obj->coords) / 2 + act_obj->coords.x1;
 1147              		.loc 1 631 96 discriminator 1 view .LVU368
 1148 00fa 1B1A     		subs	r3, r3, r0
 631:Drivers/lvgl/src/core/lv_indev_scroll.c ****                     act_obj_point = lv_area_get_width(&act_obj->coords) / 2 + act_obj->coords.x1;
 1149              		.loc 1 631 109 discriminator 1 view .LVU369
ARM GAS  /var/folders/lp/x54gwt890xv47sdkqj1k04q40000gn/T//cc5DBzfs.s 			page 43


 1150 00fc 03EBD373 		add	r3, r3, r3, lsr #31
 631:Drivers/lvgl/src/core/lv_indev_scroll.c ****                     act_obj_point = lv_area_get_width(&act_obj->coords) / 2 + act_obj->coords.x1;
 1151              		.loc 1 631 113 discriminator 1 view .LVU370
 1152 0100 02EB6302 		add	r2, r2, r3, asr #1
 631:Drivers/lvgl/src/core/lv_indev_scroll.c ****                     act_obj_point = lv_area_get_width(&act_obj->coords) / 2 + act_obj->coords.x1;
 1153              		.loc 1 631 32 discriminator 1 view .LVU371
 1154 0104 15B2     		sxth	r5, r2
 1155              	.LVL105:
 632:Drivers/lvgl/src/core/lv_indev_scroll.c ****                     break;
 1156              		.loc 1 632 21 is_stmt 1 view .LVU372
 1157              	.LBB167:
 1158              	.LBI167:
 123:Drivers/lvgl/src/core/../misc/../font/../misc/lv_area.h **** {
 1159              		.loc 3 123 26 view .LVU373
 1160              	.LBB168:
 125:Drivers/lvgl/src/core/../misc/../font/../misc/lv_area.h **** }
 1161              		.loc 3 125 5 view .LVU374
 125:Drivers/lvgl/src/core/../misc/../font/../misc/lv_area.h **** }
 1162              		.loc 3 125 44 is_stmt 0 view .LVU375
 1163 0106 BAF81430 		ldrh	r3, [r10, #20]
 1164              	.LVL106:
 125:Drivers/lvgl/src/core/../misc/../font/../misc/lv_area.h **** }
 1165              		.loc 3 125 49 view .LVU376
 1166 010a BAF81820 		ldrh	r2, [r10, #24]
 1167              	.LVL107:
 1168              	.L87:
 125:Drivers/lvgl/src/core/../misc/../font/../misc/lv_area.h **** }
 1169              		.loc 3 125 49 view .LVU377
 1170              	.LBE168:
 1171              	.LBE167:
 1172              	.LBE173:
 1173              	.LBB174:
 1174              	.LBB145:
 1175              	.LBB146:
 1176              		.loc 3 135 49 view .LVU378
 1177 010e 0132     		adds	r2, r2, #1
 1178 0110 D21A     		subs	r2, r2, r3
 1179              	.LBE146:
 1180              	.LBE145:
 651:Drivers/lvgl/src/core/lv_indev_scroll.c ****                     break;
 1181              		.loc 1 651 78 discriminator 1 view .LVU379
 1182 0112 C2F3C031 		ubfx	r1, r2, #15, #1
 1183 0116 01FA82F2 		sxtah	r2, r1, r2
 1184 011a 03EB6203 		add	r3, r3, r2, asr #1
 1185              	.LBE174:
 664:Drivers/lvgl/src/core/lv_indev_scroll.c ****             if(snap != LV_SCROLL_SNAP_NONE && act_obj_point > snap_point) return diff;
 1186              		.loc 1 664 11 view .LVU380
 1187 011e 002F     		cmp	r7, #0
 1188              	.LBB175:
 651:Drivers/lvgl/src/core/lv_indev_scroll.c ****                     break;
 1189              		.loc 1 651 35 discriminator 1 view .LVU381
 1190 0120 1BB2     		sxth	r3, r3
 1191              	.LVL108:
 652:Drivers/lvgl/src/core/lv_indev_scroll.c ****                 case LV_SCROLL_SNAP_START:
 1192              		.loc 1 652 21 is_stmt 1 view .LVU382
 652:Drivers/lvgl/src/core/lv_indev_scroll.c ****                 case LV_SCROLL_SNAP_START:
 1193              		.loc 1 652 21 is_stmt 0 view .LVU383
ARM GAS  /var/folders/lp/x54gwt890xv47sdkqj1k04q40000gn/T//cc5DBzfs.s 			page 44


 1194              	.LBE175:
 664:Drivers/lvgl/src/core/lv_indev_scroll.c ****             if(snap != LV_SCROLL_SNAP_NONE && act_obj_point > snap_point) return diff;
 1195              		.loc 1 664 9 is_stmt 1 view .LVU384
 664:Drivers/lvgl/src/core/lv_indev_scroll.c ****             if(snap != LV_SCROLL_SNAP_NONE && act_obj_point > snap_point) return diff;
 1196              		.loc 1 664 11 is_stmt 0 view .LVU385
 1197 0122 D2DA     		bge	.L70
 664:Drivers/lvgl/src/core/lv_indev_scroll.c ****             if(snap != LV_SCROLL_SNAP_NONE && act_obj_point > snap_point) return diff;
 1198              		.loc 1 664 11 view .LVU386
 1199 0124 9FE7     		b	.L55
 1200              	.LVL109:
 1201              	.L45:
 1202              	.LBB176:
 650:Drivers/lvgl/src/core/lv_indev_scroll.c ****                     act_obj_point = lv_area_get_height(&act_obj->coords) / 2 + act_obj->coords.y1;
 1203              		.loc 1 650 21 is_stmt 1 view .LVU387
 1204              	.LBB148:
 1205              	.LBI148:
 133:Drivers/lvgl/src/core/../misc/../font/../misc/lv_area.h **** {
 1206              		.loc 3 133 26 view .LVU388
 1207              	.LBB149:
 1208              		.loc 3 135 5 view .LVU389
 1209              		.loc 3 135 49 is_stmt 0 view .LVU390
 1210 0126 738B     		ldrh	r3, [r6, #26]
 1211              		.loc 3 135 44 view .LVU391
 1212 0128 F28A     		ldrh	r2, [r6, #22]
 1213              	.LVL110:
 1214              		.loc 3 135 49 view .LVU392
 1215 012a 0133     		adds	r3, r3, #1
 1216 012c 9B1A     		subs	r3, r3, r2
 1217              	.LBE149:
 1218              	.LBE148:
 650:Drivers/lvgl/src/core/lv_indev_scroll.c ****                     act_obj_point = lv_area_get_height(&act_obj->coords) / 2 + act_obj->coords.y1;
 1219              		.loc 1 650 45 discriminator 1 view .LVU393
 1220 012e 1BB2     		sxth	r3, r3
 650:Drivers/lvgl/src/core/lv_indev_scroll.c ****                     act_obj_point = lv_area_get_height(&act_obj->coords) / 2 + act_obj->coords.y1;
 1221              		.loc 1 650 113 discriminator 1 view .LVU394
 1222 0130 2A44     		add	r2, r2, r5
 650:Drivers/lvgl/src/core/lv_indev_scroll.c ****                     act_obj_point = lv_area_get_height(&act_obj->coords) / 2 + act_obj->coords.y1;
 1223              		.loc 1 650 85 discriminator 1 view .LVU395
 1224 0132 2DB2     		sxth	r5, r5
 650:Drivers/lvgl/src/core/lv_indev_scroll.c ****                     act_obj_point = lv_area_get_height(&act_obj->coords) / 2 + act_obj->coords.y1;
 1225              		.loc 1 650 85 discriminator 1 view .LVU396
 1226 0134 5B1B     		subs	r3, r3, r5
 650:Drivers/lvgl/src/core/lv_indev_scroll.c ****                     act_obj_point = lv_area_get_height(&act_obj->coords) / 2 + act_obj->coords.y1;
 1227              		.loc 1 650 95 discriminator 1 view .LVU397
 1228 0136 00B2     		sxth	r0, r0
 650:Drivers/lvgl/src/core/lv_indev_scroll.c ****                     act_obj_point = lv_area_get_height(&act_obj->coords) / 2 + act_obj->coords.y1;
 1229              		.loc 1 650 95 discriminator 1 view .LVU398
 1230 0138 1B1A     		subs	r3, r3, r0
 650:Drivers/lvgl/src/core/lv_indev_scroll.c ****                     act_obj_point = lv_area_get_height(&act_obj->coords) / 2 + act_obj->coords.y1;
 1231              		.loc 1 650 109 discriminator 1 view .LVU399
 1232 013a 03EBD373 		add	r3, r3, r3, lsr #31
 650:Drivers/lvgl/src/core/lv_indev_scroll.c ****                     act_obj_point = lv_area_get_height(&act_obj->coords) / 2 + act_obj->coords.y1;
 1233              		.loc 1 650 113 discriminator 1 view .LVU400
 1234 013e 02EB6302 		add	r2, r2, r3, asr #1
 650:Drivers/lvgl/src/core/lv_indev_scroll.c ****                     act_obj_point = lv_area_get_height(&act_obj->coords) / 2 + act_obj->coords.y1;
 1235              		.loc 1 650 32 discriminator 1 view .LVU401
 1236 0142 15B2     		sxth	r5, r2
ARM GAS  /var/folders/lp/x54gwt890xv47sdkqj1k04q40000gn/T//cc5DBzfs.s 			page 45


 1237              	.LVL111:
 651:Drivers/lvgl/src/core/lv_indev_scroll.c ****                     break;
 1238              		.loc 1 651 21 is_stmt 1 view .LVU402
 1239              	.LBB150:
 1240              	.LBI145:
 133:Drivers/lvgl/src/core/../misc/../font/../misc/lv_area.h **** {
 1241              		.loc 3 133 26 view .LVU403
 1242              	.LBB147:
 1243              		.loc 3 135 5 view .LVU404
 1244              		.loc 3 135 44 is_stmt 0 view .LVU405
 1245 0144 BAF81630 		ldrh	r3, [r10, #22]
 1246              		.loc 3 135 49 view .LVU406
 1247 0148 BAF81A20 		ldrh	r2, [r10, #26]
 1248 014c DFE7     		b	.L87
 1249              	.LVL112:
 1250              	.L40:
 1251              		.loc 3 135 49 view .LVU407
 1252              	.LBE147:
 1253              	.LBE150:
 1254              	.LBE176:
 1255              	.LBB177:
 639:Drivers/lvgl/src/core/lv_indev_scroll.c ****                     act_obj_point = act_obj->coords.x2;
 1256              		.loc 1 639 21 is_stmt 1 view .LVU408
 639:Drivers/lvgl/src/core/lv_indev_scroll.c ****                     act_obj_point = act_obj->coords.x2;
 1257              		.loc 1 639 56 is_stmt 0 view .LVU409
 1258 014e 358B     		ldrh	r5, [r6, #24]
 1259              	.LVL113:
 640:Drivers/lvgl/src/core/lv_indev_scroll.c ****                     break;
 1260              		.loc 1 640 35 view .LVU410
 1261 0150 BAF91830 		ldrsh	r3, [r10, #24]
 639:Drivers/lvgl/src/core/lv_indev_scroll.c ****                     act_obj_point = act_obj->coords.x2;
 1262              		.loc 1 639 56 view .LVU411
 1263 0154 2D1A     		subs	r5, r5, r0
 1264              	.LBE177:
 664:Drivers/lvgl/src/core/lv_indev_scroll.c ****             if(snap != LV_SCROLL_SNAP_NONE && act_obj_point > snap_point) return diff;
 1265              		.loc 1 664 11 view .LVU412
 1266 0156 002F     		cmp	r7, #0
 1267              	.LBB178:
 639:Drivers/lvgl/src/core/lv_indev_scroll.c ****                     act_obj_point = act_obj->coords.x2;
 1268              		.loc 1 639 32 view .LVU413
 1269 0158 2DB2     		sxth	r5, r5
 1270              	.LVL114:
 640:Drivers/lvgl/src/core/lv_indev_scroll.c ****                     break;
 1271              		.loc 1 640 21 is_stmt 1 view .LVU414
 641:Drivers/lvgl/src/core/lv_indev_scroll.c ****             }
 1272              		.loc 1 641 21 view .LVU415
 641:Drivers/lvgl/src/core/lv_indev_scroll.c ****             }
 1273              		.loc 1 641 21 is_stmt 0 view .LVU416
 1274              	.LBE178:
 664:Drivers/lvgl/src/core/lv_indev_scroll.c ****             if(snap != LV_SCROLL_SNAP_NONE && act_obj_point > snap_point) return diff;
 1275              		.loc 1 664 9 is_stmt 1 view .LVU417
 664:Drivers/lvgl/src/core/lv_indev_scroll.c ****             if(snap != LV_SCROLL_SNAP_NONE && act_obj_point > snap_point) return diff;
 1276              		.loc 1 664 11 is_stmt 0 view .LVU418
 1277 015a B6DA     		bge	.L70
 1278 015c 83E7     		b	.L55
 1279              	.LBE182:
 1280              		.cfi_endproc
ARM GAS  /var/folders/lp/x54gwt890xv47sdkqj1k04q40000gn/T//cc5DBzfs.s 			page 46


 1281              	.LFE173:
 1283 015e 00BF     		.section	.text._lv_indev_scroll_handler,"ax",%progbits
 1284              		.align	1
 1285              		.p2align 2,,3
 1286              		.global	_lv_indev_scroll_handler
 1287              		.syntax unified
 1288              		.thumb
 1289              		.thumb_func
 1291              	_lv_indev_scroll_handler:
 1292              	.LVL115:
 1293              	.LFB161:
  47:Drivers/lvgl/src/core/lv_indev_scroll.c ****     if(proc->types.pointer.vect.x == 0 && proc->types.pointer.vect.y == 0) {
 1294              		.loc 1 47 1 is_stmt 1 view -0
 1295              		.cfi_startproc
 1296              		@ args = 0, pretend = 0, frame = 40
 1297              		@ frame_needed = 0, uses_anonymous_args = 0
  48:Drivers/lvgl/src/core/lv_indev_scroll.c ****         return;
 1298              		.loc 1 48 5 view .LVU420
  48:Drivers/lvgl/src/core/lv_indev_scroll.c ****         return;
 1299              		.loc 1 48 7 is_stmt 0 view .LVU421
 1300 0000 4369     		ldr	r3, [r0, #20]
 1301 0002 002B     		cmp	r3, #0
 1302 0004 00F09D80 		beq	.L256
  52:Drivers/lvgl/src/core/lv_indev_scroll.c ****     /*If there is no scroll object yet try to find one*/
 1303              		.loc 1 52 5 is_stmt 1 view .LVU422
  47:Drivers/lvgl/src/core/lv_indev_scroll.c ****     if(proc->types.pointer.vect.x == 0 && proc->types.pointer.vect.y == 0) {
 1304              		.loc 1 47 1 is_stmt 0 view .LVU423
 1305 0008 2DE9F04F 		push	{r4, r5, r6, r7, r8, r9, r10, fp, lr}
 1306              		.cfi_def_cfa_offset 36
 1307              		.cfi_offset 4, -36
 1308              		.cfi_offset 5, -32
 1309              		.cfi_offset 6, -28
 1310              		.cfi_offset 7, -24
 1311              		.cfi_offset 8, -20
 1312              		.cfi_offset 9, -16
 1313              		.cfi_offset 10, -12
 1314              		.cfi_offset 11, -8
 1315              		.cfi_offset 14, -4
  52:Drivers/lvgl/src/core/lv_indev_scroll.c ****     /*If there is no scroll object yet try to find one*/
 1316              		.loc 1 52 16 view .LVU424
 1317 000c C56A     		ldr	r5, [r0, #44]
 1318              	.LVL116:
  54:Drivers/lvgl/src/core/lv_indev_scroll.c ****         scroll_obj = find_scroll_obj(proc);
 1319              		.loc 1 54 5 is_stmt 1 view .LVU425
  47:Drivers/lvgl/src/core/lv_indev_scroll.c ****     if(proc->types.pointer.vect.x == 0 && proc->types.pointer.vect.y == 0) {
 1320              		.loc 1 47 1 is_stmt 0 view .LVU426
 1321 000e 8DB0     		sub	sp, sp, #52
 1322              		.cfi_def_cfa_offset 88
 1323 0010 0446     		mov	r4, r0
  54:Drivers/lvgl/src/core/lv_indev_scroll.c ****         scroll_obj = find_scroll_obj(proc);
 1324              		.loc 1 54 7 view .LVU427
 1325 0012 002D     		cmp	r5, #0
 1326 0014 00F0DE80 		beq	.L262
 1327              	.LVL117:
 1328              	.L94:
  67:Drivers/lvgl/src/core/lv_indev_scroll.c ****     while(parent) {
 1329              		.loc 1 67 16 view .LVU428
ARM GAS  /var/folders/lp/x54gwt890xv47sdkqj1k04q40000gn/T//cc5DBzfs.s 			page 47


 1330 0018 A946     		mov	r9, r5
  66:Drivers/lvgl/src/core/lv_indev_scroll.c ****     lv_obj_t * parent = scroll_obj;
 1331              		.loc 1 66 13 view .LVU429
 1332 001a 4FF48076 		mov	r6, #256
  65:Drivers/lvgl/src/core/lv_indev_scroll.c ****     int16_t zoom = 256;
 1333              		.loc 1 65 13 view .LVU430
 1334 001e 4FF00008 		mov	r8, #0
 1335              	.L158:
 1336              	.LVL118:
  69:Drivers/lvgl/src/core/lv_indev_scroll.c ****         zoom *= (lv_obj_get_style_transform_zoom(parent, 0) / 256);
 1337              		.loc 1 69 9 is_stmt 1 view .LVU431
 1338              	.LBB212:
 1339              	.LBI212:
  85:Drivers/lvgl/src/core/lv_obj_style_gen.h **** {
 1340              		.loc 2 85 26 view .LVU432
 1341              	.LBB213:
  87:Drivers/lvgl/src/core/lv_obj_style_gen.h ****     return (lv_coord_t)v.num;
 1342              		.loc 2 87 5 view .LVU433
  87:Drivers/lvgl/src/core/lv_obj_style_gen.h ****     return (lv_coord_t)v.num;
 1343              		.loc 2 87 26 is_stmt 0 view .LVU434
 1344 0022 6E22     		movs	r2, #110
 1345 0024 0021     		movs	r1, #0
 1346 0026 4846     		mov	r0, r9
 1347 0028 FFF7FEFF 		bl	lv_obj_get_style_prop
 1348              	.LVL119:
  88:Drivers/lvgl/src/core/lv_obj_style_gen.h **** }
 1349              		.loc 2 88 5 is_stmt 1 view .LVU435
  88:Drivers/lvgl/src/core/lv_obj_style_gen.h **** }
 1350              		.loc 2 88 5 is_stmt 0 view .LVU436
 1351              	.LBE213:
 1352              	.LBE212:
 1353              	.LBB214:
 1354              	.LBB215:
  81:Drivers/lvgl/src/core/lv_obj_style_gen.h ****     return (lv_coord_t)v.num;
 1355              		.loc 2 81 26 view .LVU437
 1356 002c 6D22     		movs	r2, #109
 1357              	.LBE215:
 1358              	.LBE214:
  69:Drivers/lvgl/src/core/lv_indev_scroll.c ****         zoom *= (lv_obj_get_style_transform_zoom(parent, 0) / 256);
 1359              		.loc 1 69 15 discriminator 1 view .LVU438
 1360 002e 00EB0803 		add	r3, r0, r8
 1361              	.LBB218:
 1362              	.LBB216:
  81:Drivers/lvgl/src/core/lv_obj_style_gen.h ****     return (lv_coord_t)v.num;
 1363              		.loc 2 81 26 view .LVU439
 1364 0032 0021     		movs	r1, #0
 1365 0034 4846     		mov	r0, r9
 1366              	.LBE216:
 1367              	.LBE218:
  69:Drivers/lvgl/src/core/lv_indev_scroll.c ****         zoom *= (lv_obj_get_style_transform_zoom(parent, 0) / 256);
 1368              		.loc 1 69 15 discriminator 1 view .LVU440
 1369 0036 9FB2     		uxth	r7, r3
 1370 0038 0FFA83F8 		sxth	r8, r3
 1371              	.LVL120:
  70:Drivers/lvgl/src/core/lv_indev_scroll.c ****         parent = lv_obj_get_parent(parent);
 1372              		.loc 1 70 9 is_stmt 1 view .LVU441
 1373              	.LBB219:
ARM GAS  /var/folders/lp/x54gwt890xv47sdkqj1k04q40000gn/T//cc5DBzfs.s 			page 48


 1374              	.LBI214:
  79:Drivers/lvgl/src/core/lv_obj_style_gen.h **** {
 1375              		.loc 2 79 26 view .LVU442
 1376              	.LBB217:
  81:Drivers/lvgl/src/core/lv_obj_style_gen.h ****     return (lv_coord_t)v.num;
 1377              		.loc 2 81 5 view .LVU443
  81:Drivers/lvgl/src/core/lv_obj_style_gen.h ****     return (lv_coord_t)v.num;
 1378              		.loc 2 81 26 is_stmt 0 view .LVU444
 1379 003c FFF7FEFF 		bl	lv_obj_get_style_prop
 1380              	.LVL121:
  82:Drivers/lvgl/src/core/lv_obj_style_gen.h **** }
 1381              		.loc 2 82 5 is_stmt 1 view .LVU445
  82:Drivers/lvgl/src/core/lv_obj_style_gen.h **** }
 1382              		.loc 2 82 12 is_stmt 0 view .LVU446
 1383 0040 03B2     		sxth	r3, r0
 1384              	.LVL122:
  82:Drivers/lvgl/src/core/lv_obj_style_gen.h **** }
 1385              		.loc 2 82 12 view .LVU447
 1386              	.LBE217:
 1387              	.LBE219:
  70:Drivers/lvgl/src/core/lv_indev_scroll.c ****         parent = lv_obj_get_parent(parent);
 1388              		.loc 1 70 61 discriminator 1 view .LVU448
 1389 0042 002B     		cmp	r3, #0
 1390 0044 B8BF     		it	lt
 1391 0046 FF33     		addlt	r3, r3, #255
 1392 0048 1B12     		asrs	r3, r3, #8
  71:Drivers/lvgl/src/core/lv_indev_scroll.c ****     }
 1393              		.loc 1 71 18 view .LVU449
 1394 004a 4846     		mov	r0, r9
  70:Drivers/lvgl/src/core/lv_indev_scroll.c ****         parent = lv_obj_get_parent(parent);
 1395              		.loc 1 70 14 discriminator 1 view .LVU450
 1396 004c 13FB06F3 		smulbb	r3, r3, r6
 1397 0050 1EB2     		sxth	r6, r3
 1398              	.LVL123:
  71:Drivers/lvgl/src/core/lv_indev_scroll.c ****     }
 1399              		.loc 1 71 9 is_stmt 1 view .LVU451
  71:Drivers/lvgl/src/core/lv_indev_scroll.c ****     }
 1400              		.loc 1 71 18 is_stmt 0 view .LVU452
 1401 0052 FFF7FEFF 		bl	lv_obj_get_parent
 1402              	.LVL124:
  68:Drivers/lvgl/src/core/lv_indev_scroll.c ****         angle += lv_obj_get_style_transform_angle(parent, 0);
 1403              		.loc 1 68 11 is_stmt 1 view .LVU453
 1404 0056 8146     		mov	r9, r0
 1405 0058 0028     		cmp	r0, #0
 1406 005a E2D1     		bne	.L158
  74:Drivers/lvgl/src/core/lv_indev_scroll.c ****         angle = -angle;
 1407              		.loc 1 74 5 view .LVU454
  74:Drivers/lvgl/src/core/lv_indev_scroll.c ****         angle = -angle;
 1408              		.loc 1 74 7 is_stmt 0 view .LVU455
 1409 005c B8F1000F 		cmp	r8, #0
 1410 0060 02D1     		bne	.L159
  74:Drivers/lvgl/src/core/lv_indev_scroll.c ****         angle = -angle;
 1411              		.loc 1 74 19 discriminator 1 view .LVU456
 1412 0062 B6F5807F 		cmp	r6, #256
 1413 0066 0DD0     		beq	.L160
 1414              	.L159:
 1415              	.LBB220:
ARM GAS  /var/folders/lp/x54gwt890xv47sdkqj1k04q40000gn/T//cc5DBzfs.s 			page 49


  75:Drivers/lvgl/src/core/lv_indev_scroll.c ****         zoom = (256 * 256) / zoom;
 1416              		.loc 1 75 9 is_stmt 1 view .LVU457
 1417              	.LVL125:
  76:Drivers/lvgl/src/core/lv_indev_scroll.c ****         lv_point_t pivot = { 0, 0 };
 1418              		.loc 1 76 9 view .LVU458
  77:Drivers/lvgl/src/core/lv_indev_scroll.c ****         lv_point_transform(&proc->types.pointer.vect, angle, zoom, &pivot);
 1419              		.loc 1 77 20 is_stmt 0 view .LVU459
 1420 0068 0023     		movs	r3, #0
  75:Drivers/lvgl/src/core/lv_indev_scroll.c ****         zoom = (256 * 256) / zoom;
 1421              		.loc 1 75 15 view .LVU460
 1422 006a 7942     		rsbs	r1, r7, #0
  76:Drivers/lvgl/src/core/lv_indev_scroll.c ****         lv_point_t pivot = { 0, 0 };
 1423              		.loc 1 76 28 view .LVU461
 1424 006c 4FF48032 		mov	r2, #65536
  77:Drivers/lvgl/src/core/lv_indev_scroll.c ****         lv_point_transform(&proc->types.pointer.vect, angle, zoom, &pivot);
 1425              		.loc 1 77 20 view .LVU462
 1426 0070 0B93     		str	r3, [sp, #44]
  76:Drivers/lvgl/src/core/lv_indev_scroll.c ****         lv_point_t pivot = { 0, 0 };
 1427              		.loc 1 76 28 view .LVU463
 1428 0072 92FBF6F2 		sdiv	r2, r2, r6
 1429              	.LVL126:
  77:Drivers/lvgl/src/core/lv_indev_scroll.c ****         lv_point_transform(&proc->types.pointer.vect, angle, zoom, &pivot);
 1430              		.loc 1 77 9 is_stmt 1 view .LVU464
  78:Drivers/lvgl/src/core/lv_indev_scroll.c ****     }
 1431              		.loc 1 78 9 view .LVU465
 1432 0076 09B2     		sxth	r1, r1
 1433 0078 12B2     		sxth	r2, r2
  78:Drivers/lvgl/src/core/lv_indev_scroll.c ****     }
 1434              		.loc 1 78 9 is_stmt 0 view .LVU466
 1435 007a 0BAB     		add	r3, sp, #44
 1436 007c 04F11400 		add	r0, r4, #20
 1437              	.LVL127:
  78:Drivers/lvgl/src/core/lv_indev_scroll.c ****     }
 1438              		.loc 1 78 9 view .LVU467
 1439 0080 FFF7FEFF 		bl	lv_point_transform
 1440              	.LVL128:
 1441              	.L160:
  78:Drivers/lvgl/src/core/lv_indev_scroll.c ****     }
 1442              		.loc 1 78 9 view .LVU468
 1443              	.LBE220:
  83:Drivers/lvgl/src/core/lv_indev_scroll.c ****     lv_coord_t diff_y = 0;
 1444              		.loc 1 83 5 is_stmt 1 view .LVU469
  84:Drivers/lvgl/src/core/lv_indev_scroll.c ****     if(proc->types.pointer.scroll_dir == LV_DIR_HOR) {
 1445              		.loc 1 84 5 view .LVU470
  85:Drivers/lvgl/src/core/lv_indev_scroll.c ****         lv_coord_t sr = lv_obj_get_scroll_right(scroll_obj);
 1446              		.loc 1 85 5 view .LVU471
  85:Drivers/lvgl/src/core/lv_indev_scroll.c ****         lv_coord_t sr = lv_obj_get_scroll_right(scroll_obj);
 1447              		.loc 1 85 39 is_stmt 0 view .LVU472
 1448 0084 94F84060 		ldrb	r6, [r4, #64]	@ zero_extendqisi2
  85:Drivers/lvgl/src/core/lv_indev_scroll.c ****         lv_coord_t sr = lv_obj_get_scroll_right(scroll_obj);
 1449              		.loc 1 85 7 view .LVU473
 1450 0088 06F00F06 		and	r6, r6, #15
 1451 008c 032E     		cmp	r6, #3
 1452              	.LBB221:
  86:Drivers/lvgl/src/core/lv_indev_scroll.c ****         lv_coord_t sl = lv_obj_get_scroll_left(scroll_obj);
 1453              		.loc 1 86 25 view .LVU474
 1454 008e 2846     		mov	r0, r5
ARM GAS  /var/folders/lp/x54gwt890xv47sdkqj1k04q40000gn/T//cc5DBzfs.s 			page 50


 1455              	.LBE221:
  85:Drivers/lvgl/src/core/lv_indev_scroll.c ****         lv_coord_t sr = lv_obj_get_scroll_right(scroll_obj);
 1456              		.loc 1 85 7 view .LVU475
 1457 0090 58D0     		beq	.L263
 1458              	.LBB232:
  91:Drivers/lvgl/src/core/lv_indev_scroll.c ****         lv_coord_t sb = lv_obj_get_scroll_bottom(scroll_obj);
 1459              		.loc 1 91 9 is_stmt 1 view .LVU476
  91:Drivers/lvgl/src/core/lv_indev_scroll.c ****         lv_coord_t sb = lv_obj_get_scroll_bottom(scroll_obj);
 1460              		.loc 1 91 25 is_stmt 0 view .LVU477
 1461 0092 FFF7FEFF 		bl	lv_obj_get_scroll_top
 1462              	.LVL129:
 1463 0096 8046     		mov	r8, r0
 1464              	.LVL130:
  92:Drivers/lvgl/src/core/lv_indev_scroll.c ****         diff_y = elastic_diff(scroll_obj, proc->types.pointer.vect.y, st, sb, LV_DIR_VER);
 1465              		.loc 1 92 9 is_stmt 1 view .LVU478
  92:Drivers/lvgl/src/core/lv_indev_scroll.c ****         diff_y = elastic_diff(scroll_obj, proc->types.pointer.vect.y, st, sb, LV_DIR_VER);
 1466              		.loc 1 92 25 is_stmt 0 view .LVU479
 1467 0098 2846     		mov	r0, r5
 1468 009a FFF7FEFF 		bl	lv_obj_get_scroll_bottom
 1469              	.LVL131:
 1470              	.LBB233:
 1471              	.LBB234:
 615:Drivers/lvgl/src/core/lv_indev_scroll.c ****         /*If there is snapping in the current direction don't use the elastic factor because
 1472              		.loc 1 615 8 view .LVU480
 1473 009e 2021     		movs	r1, #32
 1474              	.LBE234:
 1475              	.LBE233:
  92:Drivers/lvgl/src/core/lv_indev_scroll.c ****         diff_y = elastic_diff(scroll_obj, proc->types.pointer.vect.y, st, sb, LV_DIR_VER);
 1476              		.loc 1 92 25 view .LVU481
 1477 00a0 0746     		mov	r7, r0
 1478              	.LVL132:
  93:Drivers/lvgl/src/core/lv_indev_scroll.c ****     }
 1479              		.loc 1 93 9 is_stmt 1 view .LVU482
 1480              	.LBB241:
 1481              	.LBB235:
 615:Drivers/lvgl/src/core/lv_indev_scroll.c ****         /*If there is snapping in the current direction don't use the elastic factor because
 1482              		.loc 1 615 8 is_stmt 0 view .LVU483
 1483 00a2 2846     		mov	r0, r5
 1484              	.LBE235:
 1485              	.LBE241:
  93:Drivers/lvgl/src/core/lv_indev_scroll.c ****     }
 1486              		.loc 1 93 18 view .LVU484
 1487 00a4 B4F91660 		ldrsh	r6, [r4, #22]
 1488              	.LVL133:
 1489              	.LBB242:
 1490              	.LBI233:
 612:Drivers/lvgl/src/core/lv_indev_scroll.c ****                                lv_dir_t dir)
 1491              		.loc 1 612 19 is_stmt 1 view .LVU485
 1492              	.LBB236:
 615:Drivers/lvgl/src/core/lv_indev_scroll.c ****         /*If there is snapping in the current direction don't use the elastic factor because
 1493              		.loc 1 615 5 view .LVU486
 615:Drivers/lvgl/src/core/lv_indev_scroll.c ****         /*If there is snapping in the current direction don't use the elastic factor because
 1494              		.loc 1 615 8 is_stmt 0 view .LVU487
 1495 00a8 FFF7FEFF 		bl	lv_obj_has_flag
 1496              	.LVL134:
 615:Drivers/lvgl/src/core/lv_indev_scroll.c ****         /*If there is snapping in the current direction don't use the elastic factor because
 1497              		.loc 1 615 7 discriminator 1 view .LVU488
ARM GAS  /var/folders/lp/x54gwt890xv47sdkqj1k04q40000gn/T//cc5DBzfs.s 			page 51


 1498 00ac 0028     		cmp	r0, #0
 1499 00ae 73D1     		bne	.L264
 683:Drivers/lvgl/src/core/lv_indev_scroll.c ****         if(scroll_start - diff < 0) diff = scroll_start;
 1500              		.loc 1 683 9 is_stmt 1 view .LVU489
 683:Drivers/lvgl/src/core/lv_indev_scroll.c ****         if(scroll_start - diff < 0) diff = scroll_start;
 1501              		.loc 1 683 11 is_stmt 0 view .LVU490
 1502 00b0 F742     		cmn	r7, r6
 683:Drivers/lvgl/src/core/lv_indev_scroll.c ****         if(scroll_start - diff < 0) diff = scroll_start;
 1503              		.loc 1 683 35 is_stmt 1 discriminator 1 view .LVU491
 683:Drivers/lvgl/src/core/lv_indev_scroll.c ****         if(scroll_start - diff < 0) diff = scroll_start;
 1504              		.loc 1 683 40 is_stmt 0 discriminator 1 view .LVU492
 1505 00b2 44BF     		itt	mi
 1506 00b4 7F42     		rsbmi	r7, r7, #0
 1507              	.LVL135:
 683:Drivers/lvgl/src/core/lv_indev_scroll.c ****         if(scroll_start - diff < 0) diff = scroll_start;
 1508              		.loc 1 683 40 discriminator 1 view .LVU493
 1509 00b6 3EB2     		sxthmi	r6, r7
 1510              	.LVL136:
 684:Drivers/lvgl/src/core/lv_indev_scroll.c ****     }
 1511              		.loc 1 684 9 is_stmt 1 view .LVU494
 684:Drivers/lvgl/src/core/lv_indev_scroll.c ****     }
 1512              		.loc 1 684 11 is_stmt 0 view .LVU495
 1513 00b8 B045     		cmp	r8, r6
 1514              	.LBE236:
 1515              	.LBE242:
 1516              	.LBE232:
  96:Drivers/lvgl/src/core/lv_indev_scroll.c ****     if((scroll_dir & LV_DIR_LEFT)   == 0 && diff_x > 0) diff_x = 0;
 1517              		.loc 1 96 27 view .LVU496
 1518 00ba 2846     		mov	r0, r5
 1519              	.LBB247:
 1520              	.LBB243:
 1521              	.LBB237:
 684:Drivers/lvgl/src/core/lv_indev_scroll.c ****     }
 1522              		.loc 1 684 11 view .LVU497
 1523 00bc C0F21F82 		blt	.L265
 1524              	.LVL137:
 684:Drivers/lvgl/src/core/lv_indev_scroll.c ****     }
 1525              		.loc 1 684 11 view .LVU498
 1526              	.LBE237:
 1527              	.LBE243:
 1528              	.LBE247:
  96:Drivers/lvgl/src/core/lv_indev_scroll.c ****     if((scroll_dir & LV_DIR_LEFT)   == 0 && diff_x > 0) diff_x = 0;
 1529              		.loc 1 96 5 is_stmt 1 view .LVU499
  96:Drivers/lvgl/src/core/lv_indev_scroll.c ****     if((scroll_dir & LV_DIR_LEFT)   == 0 && diff_x > 0) diff_x = 0;
 1530              		.loc 1 96 27 is_stmt 0 view .LVU500
 1531 00c0 FFF7FEFF 		bl	lv_obj_get_scroll_dir
 1532              	.LVL138:
  97:Drivers/lvgl/src/core/lv_indev_scroll.c ****     if((scroll_dir & LV_DIR_RIGHT)  == 0 && diff_x < 0) diff_x = 0;
 1533              		.loc 1 97 5 is_stmt 1 view .LVU501
  83:Drivers/lvgl/src/core/lv_indev_scroll.c ****     lv_coord_t diff_y = 0;
 1534              		.loc 1 83 16 is_stmt 0 view .LVU502
 1535 00c4 0027     		movs	r7, #0
 1536              	.LVL139:
 1537              	.L167:
  98:Drivers/lvgl/src/core/lv_indev_scroll.c ****     if((scroll_dir & LV_DIR_TOP)    == 0 && diff_y > 0) diff_y = 0;
 1538              		.loc 1 98 5 is_stmt 1 view .LVU503
  98:Drivers/lvgl/src/core/lv_indev_scroll.c ****     if((scroll_dir & LV_DIR_TOP)    == 0 && diff_y > 0) diff_y = 0;
ARM GAS  /var/folders/lp/x54gwt890xv47sdkqj1k04q40000gn/T//cc5DBzfs.s 			page 52


 1539              		.loc 1 98 7 is_stmt 0 view .LVU504
 1540 00c6 8107     		lsls	r1, r0, #30
  98:Drivers/lvgl/src/core/lv_indev_scroll.c ****     if((scroll_dir & LV_DIR_TOP)    == 0 && diff_y > 0) diff_y = 0;
 1541              		.loc 1 98 42 discriminator 1 view .LVU505
 1542 00c8 5CBF     		itt	pl
 1543 00ca 27EAE777 		bicpl	r7, r7, r7, asr #31
 1544              	.LVL140:
  98:Drivers/lvgl/src/core/lv_indev_scroll.c ****     if((scroll_dir & LV_DIR_TOP)    == 0 && diff_y > 0) diff_y = 0;
 1545              		.loc 1 98 42 discriminator 1 view .LVU506
 1546 00ce 3FB2     		sxthpl	r7, r7
 1547              	.LVL141:
  99:Drivers/lvgl/src/core/lv_indev_scroll.c ****     if((scroll_dir & LV_DIR_BOTTOM) == 0 && diff_y < 0) diff_y = 0;
 1548              		.loc 1 99 5 is_stmt 1 view .LVU507
  99:Drivers/lvgl/src/core/lv_indev_scroll.c ****     if((scroll_dir & LV_DIR_BOTTOM) == 0 && diff_y < 0) diff_y = 0;
 1549              		.loc 1 99 7 is_stmt 0 view .LVU508
 1550 00d0 10F00402 		ands	r2, r0, #4
 1551              	.LBB248:
 1552              	.LBB249:
 569:Drivers/lvgl/src/core/lv_indev_scroll.c ****             *diff_x = proc->types.pointer.scroll_area.x1 - proc->types.pointer.scroll_sum.x;
 1553              		.loc 1 569 47 view .LVU509
 1554 00d4 3B46     		mov	r3, r7
 1555              	.LBE249:
 1556              	.LBE248:
  99:Drivers/lvgl/src/core/lv_indev_scroll.c ****     if((scroll_dir & LV_DIR_BOTTOM) == 0 && diff_y < 0) diff_y = 0;
 1557              		.loc 1 99 7 view .LVU510
 1558 00d6 58D1     		bne	.L170
  99:Drivers/lvgl/src/core/lv_indev_scroll.c ****     if((scroll_dir & LV_DIR_BOTTOM) == 0 && diff_y < 0) diff_y = 0;
 1559              		.loc 1 99 42 discriminator 1 view .LVU511
 1560 00d8 002E     		cmp	r6, #0
 1561 00da 56DD     		ble	.L170
 1562 00dc 1646     		mov	r6, r2
 1563              	.LVL142:
 1564              	.L261:
  99:Drivers/lvgl/src/core/lv_indev_scroll.c ****     if((scroll_dir & LV_DIR_BOTTOM) == 0 && diff_y < 0) diff_y = 0;
 1565              		.loc 1 99 64 discriminator 2 view .LVU512
 1566 00de 3246     		mov	r2, r6
 1567              	.L172:
 1568              	.LVL143:
 103:Drivers/lvgl/src/core/lv_indev_scroll.c **** 
 1569              		.loc 1 103 5 is_stmt 1 view .LVU513
 1570              	.LBB252:
 1571              	.LBI248:
 556:Drivers/lvgl/src/core/lv_indev_scroll.c **** {
 1572              		.loc 1 556 13 view .LVU514
 1573              	.LBB250:
 558:Drivers/lvgl/src/core/lv_indev_scroll.c ****         if(proc->types.pointer.scroll_sum.y + *diff_y < proc->types.pointer.scroll_area.y1) {
 1574              		.loc 1 558 5 view .LVU515
 559:Drivers/lvgl/src/core/lv_indev_scroll.c ****             *diff_y = proc->types.pointer.scroll_area.y1 - proc->types.pointer.scroll_sum.y;
 1575              		.loc 1 559 9 view .LVU516
 559:Drivers/lvgl/src/core/lv_indev_scroll.c ****             *diff_y = proc->types.pointer.scroll_area.y1 - proc->types.pointer.scroll_sum.y;
 1576              		.loc 1 559 42 is_stmt 0 view .LVU517
 1577 00e0 B4F91A00 		ldrsh	r0, [r4, #26]
 1578              	.LVL144:
 559:Drivers/lvgl/src/core/lv_indev_scroll.c ****             *diff_y = proc->types.pointer.scroll_area.y1 - proc->types.pointer.scroll_sum.y;
 1579              		.loc 1 559 88 view .LVU518
 1580 00e4 B4F93610 		ldrsh	r1, [r4, #54]
 559:Drivers/lvgl/src/core/lv_indev_scroll.c ****             *diff_y = proc->types.pointer.scroll_area.y1 - proc->types.pointer.scroll_sum.y;
ARM GAS  /var/folders/lp/x54gwt890xv47sdkqj1k04q40000gn/T//cc5DBzfs.s 			page 53


 1581              		.loc 1 559 45 view .LVU519
 1582 00e8 0244     		add	r2, r2, r0
 559:Drivers/lvgl/src/core/lv_indev_scroll.c ****             *diff_y = proc->types.pointer.scroll_area.y1 - proc->types.pointer.scroll_sum.y;
 1583              		.loc 1 559 11 view .LVU520
 1584 00ea 8A42     		cmp	r2, r1
 1585 00ec 02DA     		bge	.L174
 560:Drivers/lvgl/src/core/lv_indev_scroll.c ****         }
 1586              		.loc 1 560 13 is_stmt 1 view .LVU521
 560:Drivers/lvgl/src/core/lv_indev_scroll.c ****         }
 1587              		.loc 1 560 58 is_stmt 0 view .LVU522
 1588 00ee 091A     		subs	r1, r1, r0
 1589 00f0 0EB2     		sxth	r6, r1
 1590              	.LVL145:
 563:Drivers/lvgl/src/core/lv_indev_scroll.c ****             *diff_y = proc->types.pointer.scroll_area.y2 - proc->types.pointer.scroll_sum.y;
 1591              		.loc 1 563 45 view .LVU523
 1592 00f2 3218     		adds	r2, r6, r0
 1593              	.L174:
 563:Drivers/lvgl/src/core/lv_indev_scroll.c ****             *diff_y = proc->types.pointer.scroll_area.y2 - proc->types.pointer.scroll_sum.y;
 1594              		.loc 1 563 9 is_stmt 1 view .LVU524
 563:Drivers/lvgl/src/core/lv_indev_scroll.c ****             *diff_y = proc->types.pointer.scroll_area.y2 - proc->types.pointer.scroll_sum.y;
 1595              		.loc 1 563 88 is_stmt 0 view .LVU525
 1596 00f4 B4F93A10 		ldrsh	r1, [r4, #58]
 563:Drivers/lvgl/src/core/lv_indev_scroll.c ****             *diff_y = proc->types.pointer.scroll_area.y2 - proc->types.pointer.scroll_sum.y;
 1597              		.loc 1 563 11 view .LVU526
 1598 00f8 9142     		cmp	r1, r2
 564:Drivers/lvgl/src/core/lv_indev_scroll.c ****         }
 1599              		.loc 1 564 13 is_stmt 1 view .LVU527
 564:Drivers/lvgl/src/core/lv_indev_scroll.c ****         }
 1600              		.loc 1 564 58 is_stmt 0 view .LVU528
 1601 00fa BCBF     		itt	lt
 1602 00fc 091A     		sublt	r1, r1, r0
 1603 00fe 0EB2     		sxthlt	r6, r1
 1604              	.LVL146:
 568:Drivers/lvgl/src/core/lv_indev_scroll.c ****         if(proc->types.pointer.scroll_sum.x + *diff_x < proc->types.pointer.scroll_area.x1) {
 1605              		.loc 1 568 5 is_stmt 1 view .LVU529
 569:Drivers/lvgl/src/core/lv_indev_scroll.c ****             *diff_x = proc->types.pointer.scroll_area.x1 - proc->types.pointer.scroll_sum.x;
 1606              		.loc 1 569 9 view .LVU530
 569:Drivers/lvgl/src/core/lv_indev_scroll.c ****             *diff_x = proc->types.pointer.scroll_area.x1 - proc->types.pointer.scroll_sum.x;
 1607              		.loc 1 569 42 is_stmt 0 view .LVU531
 1608 0100 B4F91810 		ldrsh	r1, [r4, #24]
 569:Drivers/lvgl/src/core/lv_indev_scroll.c ****             *diff_x = proc->types.pointer.scroll_area.x1 - proc->types.pointer.scroll_sum.x;
 1609              		.loc 1 569 88 view .LVU532
 1610 0104 B4F93420 		ldrsh	r2, [r4, #52]
 569:Drivers/lvgl/src/core/lv_indev_scroll.c ****             *diff_x = proc->types.pointer.scroll_area.x1 - proc->types.pointer.scroll_sum.x;
 1611              		.loc 1 569 45 view .LVU533
 1612 0108 0B44     		add	r3, r3, r1
 569:Drivers/lvgl/src/core/lv_indev_scroll.c ****             *diff_x = proc->types.pointer.scroll_area.x1 - proc->types.pointer.scroll_sum.x;
 1613              		.loc 1 569 11 view .LVU534
 1614 010a 9342     		cmp	r3, r2
 1615 010c 02DA     		bge	.L176
 570:Drivers/lvgl/src/core/lv_indev_scroll.c ****         }
 1616              		.loc 1 570 13 is_stmt 1 view .LVU535
 570:Drivers/lvgl/src/core/lv_indev_scroll.c ****         }
 1617              		.loc 1 570 58 is_stmt 0 view .LVU536
 1618 010e 521A     		subs	r2, r2, r1
 1619 0110 17B2     		sxth	r7, r2
 1620              	.LVL147:
ARM GAS  /var/folders/lp/x54gwt890xv47sdkqj1k04q40000gn/T//cc5DBzfs.s 			page 54


 573:Drivers/lvgl/src/core/lv_indev_scroll.c ****             *diff_x = proc->types.pointer.scroll_area.x2 - proc->types.pointer.scroll_sum.x;
 1621              		.loc 1 573 45 view .LVU537
 1622 0112 7B18     		adds	r3, r7, r1
 1623              	.LVL148:
 1624              	.L176:
 573:Drivers/lvgl/src/core/lv_indev_scroll.c ****             *diff_x = proc->types.pointer.scroll_area.x2 - proc->types.pointer.scroll_sum.x;
 1625              		.loc 1 573 9 is_stmt 1 view .LVU538
 573:Drivers/lvgl/src/core/lv_indev_scroll.c ****             *diff_x = proc->types.pointer.scroll_area.x2 - proc->types.pointer.scroll_sum.x;
 1626              		.loc 1 573 88 is_stmt 0 view .LVU539
 1627 0114 B4F93820 		ldrsh	r2, [r4, #56]
 573:Drivers/lvgl/src/core/lv_indev_scroll.c ****             *diff_x = proc->types.pointer.scroll_area.x2 - proc->types.pointer.scroll_sum.x;
 1628              		.loc 1 573 11 view .LVU540
 1629 0118 9A42     		cmp	r2, r3
 574:Drivers/lvgl/src/core/lv_indev_scroll.c ****         }
 1630              		.loc 1 574 13 is_stmt 1 view .LVU541
 574:Drivers/lvgl/src/core/lv_indev_scroll.c ****         }
 1631              		.loc 1 574 58 is_stmt 0 view .LVU542
 1632 011a BCBF     		itt	lt
 1633 011c 521A     		sublt	r2, r2, r1
 1634 011e 17B2     		sxthlt	r7, r2
 1635              	.LVL149:
 574:Drivers/lvgl/src/core/lv_indev_scroll.c ****         }
 1636              		.loc 1 574 58 view .LVU543
 1637              	.LBE250:
 1638              	.LBE252:
 105:Drivers/lvgl/src/core/lv_indev_scroll.c ****     if(proc->reset_query) return;
 1639              		.loc 1 105 5 is_stmt 1 view .LVU544
 1640 0120 2846     		mov	r0, r5
 1641 0122 3246     		mov	r2, r6
 1642 0124 3946     		mov	r1, r7
 1643 0126 FFF7FEFF 		bl	_lv_obj_scroll_by_raw
 1644              	.LVL150:
 106:Drivers/lvgl/src/core/lv_indev_scroll.c ****     proc->types.pointer.scroll_sum.x += diff_x;
 1645              		.loc 1 106 5 view .LVU545
 106:Drivers/lvgl/src/core/lv_indev_scroll.c ****     proc->types.pointer.scroll_sum.x += diff_x;
 1646              		.loc 1 106 8 is_stmt 0 view .LVU546
 1647 012a 6378     		ldrb	r3, [r4, #1]	@ zero_extendqisi2
 106:Drivers/lvgl/src/core/lv_indev_scroll.c ****     proc->types.pointer.scroll_sum.x += diff_x;
 1648              		.loc 1 106 7 view .LVU547
 1649 012c 9B07     		lsls	r3, r3, #30
 1650 012e 05D4     		bmi	.L91
 107:Drivers/lvgl/src/core/lv_indev_scroll.c ****     proc->types.pointer.scroll_sum.y += diff_y;
 1651              		.loc 1 107 5 is_stmt 1 view .LVU548
 107:Drivers/lvgl/src/core/lv_indev_scroll.c ****     proc->types.pointer.scroll_sum.y += diff_y;
 1652              		.loc 1 107 38 is_stmt 0 view .LVU549
 1653 0130 228B     		ldrh	r2, [r4, #24]
 108:Drivers/lvgl/src/core/lv_indev_scroll.c **** }
 1654              		.loc 1 108 38 view .LVU550
 1655 0132 638B     		ldrh	r3, [r4, #26]
 107:Drivers/lvgl/src/core/lv_indev_scroll.c ****     proc->types.pointer.scroll_sum.y += diff_y;
 1656              		.loc 1 107 38 view .LVU551
 1657 0134 1744     		add	r7, r7, r2
 1658              	.LVL151:
 108:Drivers/lvgl/src/core/lv_indev_scroll.c **** }
 1659              		.loc 1 108 38 view .LVU552
 1660 0136 1E44     		add	r6, r6, r3
 1661              	.LVL152:
ARM GAS  /var/folders/lp/x54gwt890xv47sdkqj1k04q40000gn/T//cc5DBzfs.s 			page 55


 107:Drivers/lvgl/src/core/lv_indev_scroll.c ****     proc->types.pointer.scroll_sum.y += diff_y;
 1662              		.loc 1 107 38 view .LVU553
 1663 0138 2783     		strh	r7, [r4, #24]	@ movhi
 108:Drivers/lvgl/src/core/lv_indev_scroll.c **** }
 1664              		.loc 1 108 5 is_stmt 1 view .LVU554
 108:Drivers/lvgl/src/core/lv_indev_scroll.c **** }
 1665              		.loc 1 108 38 is_stmt 0 view .LVU555
 1666 013a 6683     		strh	r6, [r4, #26]	@ movhi
 1667              	.LVL153:
 1668              	.L91:
 109:Drivers/lvgl/src/core/lv_indev_scroll.c **** 
 1669              		.loc 1 109 1 view .LVU556
 1670 013c 0DB0     		add	sp, sp, #52
 1671              		.cfi_def_cfa_offset 36
 1672              		@ sp needed
 1673 013e BDE8F08F 		pop	{r4, r5, r6, r7, r8, r9, r10, fp, pc}
 1674              	.LVL154:
 1675              	.L256:
 1676              		.cfi_def_cfa_offset 0
 1677              		.cfi_restore 4
 1678              		.cfi_restore 5
 1679              		.cfi_restore 6
 1680              		.cfi_restore 7
 1681              		.cfi_restore 8
 1682              		.cfi_restore 9
 1683              		.cfi_restore 10
 1684              		.cfi_restore 11
 1685              		.cfi_restore 14
 109:Drivers/lvgl/src/core/lv_indev_scroll.c **** 
 1686              		.loc 1 109 1 view .LVU557
 1687 0142 7047     		bx	lr
 1688              	.LVL155:
 1689              	.L263:
 1690              		.cfi_def_cfa_offset 88
 1691              		.cfi_offset 4, -36
 1692              		.cfi_offset 5, -32
 1693              		.cfi_offset 6, -28
 1694              		.cfi_offset 7, -24
 1695              		.cfi_offset 8, -20
 1696              		.cfi_offset 9, -16
 1697              		.cfi_offset 10, -12
 1698              		.cfi_offset 11, -8
 1699              		.cfi_offset 14, -4
 1700              	.LBB253:
  86:Drivers/lvgl/src/core/lv_indev_scroll.c ****         lv_coord_t sl = lv_obj_get_scroll_left(scroll_obj);
 1701              		.loc 1 86 9 is_stmt 1 view .LVU558
  86:Drivers/lvgl/src/core/lv_indev_scroll.c ****         lv_coord_t sl = lv_obj_get_scroll_left(scroll_obj);
 1702              		.loc 1 86 25 is_stmt 0 view .LVU559
 1703 0144 FFF7FEFF 		bl	lv_obj_get_scroll_right
 1704              	.LVL156:
 1705 0148 8046     		mov	r8, r0
 1706              	.LVL157:
  87:Drivers/lvgl/src/core/lv_indev_scroll.c ****         diff_x = elastic_diff(scroll_obj, proc->types.pointer.vect.x, sl, sr, LV_DIR_HOR);
 1707              		.loc 1 87 9 is_stmt 1 view .LVU560
  87:Drivers/lvgl/src/core/lv_indev_scroll.c ****         diff_x = elastic_diff(scroll_obj, proc->types.pointer.vect.x, sl, sr, LV_DIR_HOR);
 1708              		.loc 1 87 25 is_stmt 0 view .LVU561
 1709 014a 2846     		mov	r0, r5
ARM GAS  /var/folders/lp/x54gwt890xv47sdkqj1k04q40000gn/T//cc5DBzfs.s 			page 56


 1710 014c FFF7FEFF 		bl	lv_obj_get_scroll_left
 1711              	.LVL158:
 1712              	.LBB222:
 1713              	.LBB223:
 615:Drivers/lvgl/src/core/lv_indev_scroll.c ****         /*If there is snapping in the current direction don't use the elastic factor because
 1714              		.loc 1 615 8 view .LVU562
 1715 0150 2021     		movs	r1, #32
 1716              	.LBE223:
 1717              	.LBE222:
  87:Drivers/lvgl/src/core/lv_indev_scroll.c ****         diff_x = elastic_diff(scroll_obj, proc->types.pointer.vect.x, sl, sr, LV_DIR_HOR);
 1718              		.loc 1 87 25 view .LVU563
 1719 0152 0746     		mov	r7, r0
 1720              	.LVL159:
  88:Drivers/lvgl/src/core/lv_indev_scroll.c ****     }
 1721              		.loc 1 88 9 is_stmt 1 view .LVU564
 1722              	.LBB228:
 1723              	.LBB224:
 615:Drivers/lvgl/src/core/lv_indev_scroll.c ****         /*If there is snapping in the current direction don't use the elastic factor because
 1724              		.loc 1 615 8 is_stmt 0 view .LVU565
 1725 0154 2846     		mov	r0, r5
 1726              	.LBE224:
 1727              	.LBE228:
  88:Drivers/lvgl/src/core/lv_indev_scroll.c ****     }
 1728              		.loc 1 88 18 view .LVU566
 1729 0156 B4F91490 		ldrsh	r9, [r4, #20]
 1730              	.LVL160:
 1731              	.LBB229:
 1732              	.LBI222:
 612:Drivers/lvgl/src/core/lv_indev_scroll.c ****                                lv_dir_t dir)
 1733              		.loc 1 612 19 is_stmt 1 view .LVU567
 1734              	.LBB225:
 615:Drivers/lvgl/src/core/lv_indev_scroll.c ****         /*If there is snapping in the current direction don't use the elastic factor because
 1735              		.loc 1 615 5 view .LVU568
 615:Drivers/lvgl/src/core/lv_indev_scroll.c ****         /*If there is snapping in the current direction don't use the elastic factor because
 1736              		.loc 1 615 8 is_stmt 0 view .LVU569
 1737 015a FFF7FEFF 		bl	lv_obj_has_flag
 1738              	.LVL161:
 615:Drivers/lvgl/src/core/lv_indev_scroll.c ****         /*If there is snapping in the current direction don't use the elastic factor because
 1739              		.loc 1 615 7 discriminator 1 view .LVU570
 1740 015e 48BB     		cbnz	r0, .L266
 683:Drivers/lvgl/src/core/lv_indev_scroll.c ****         if(scroll_start - diff < 0) diff = scroll_start;
 1741              		.loc 1 683 9 is_stmt 1 view .LVU571
 683:Drivers/lvgl/src/core/lv_indev_scroll.c ****         if(scroll_start - diff < 0) diff = scroll_start;
 1742              		.loc 1 683 11 is_stmt 0 view .LVU572
 1743 0160 18EB090F 		cmn	r8, r9
 683:Drivers/lvgl/src/core/lv_indev_scroll.c ****         if(scroll_start - diff < 0) diff = scroll_start;
 1744              		.loc 1 683 35 is_stmt 1 discriminator 1 view .LVU573
 683:Drivers/lvgl/src/core/lv_indev_scroll.c ****         if(scroll_start - diff < 0) diff = scroll_start;
 1745              		.loc 1 683 40 is_stmt 0 discriminator 1 view .LVU574
 1746 0164 44BF     		itt	mi
 1747 0166 C8F10008 		rsbmi	r8, r8, #0
 1748              	.LVL162:
 683:Drivers/lvgl/src/core/lv_indev_scroll.c ****         if(scroll_start - diff < 0) diff = scroll_start;
 1749              		.loc 1 683 40 discriminator 1 view .LVU575
 1750 016a 0FFA88F9 		sxthmi	r9, r8
 1751              	.LVL163:
 684:Drivers/lvgl/src/core/lv_indev_scroll.c ****     }
ARM GAS  /var/folders/lp/x54gwt890xv47sdkqj1k04q40000gn/T//cc5DBzfs.s 			page 57


 1752              		.loc 1 684 9 is_stmt 1 view .LVU576
 684:Drivers/lvgl/src/core/lv_indev_scroll.c ****     }
 1753              		.loc 1 684 11 is_stmt 0 view .LVU577
 1754 016e 4F45     		cmp	r7, r9
 1755              	.LBE225:
 1756              	.LBE229:
 1757              	.LBE253:
  96:Drivers/lvgl/src/core/lv_indev_scroll.c ****     if((scroll_dir & LV_DIR_LEFT)   == 0 && diff_x > 0) diff_x = 0;
 1758              		.loc 1 96 27 view .LVU578
 1759 0170 2846     		mov	r0, r5
 1760              	.LBB254:
 1761              	.LBB230:
 1762              	.LBB226:
 684:Drivers/lvgl/src/core/lv_indev_scroll.c ****     }
 1763              		.loc 1 684 11 view .LVU579
 1764 0172 A8BF     		it	ge
 1765 0174 4F46     		movge	r7, r9
 1766              	.LVL164:
 684:Drivers/lvgl/src/core/lv_indev_scroll.c ****     }
 1767              		.loc 1 684 11 view .LVU580
 1768              	.LBE226:
 1769              	.LBE230:
 1770              	.LBE254:
  96:Drivers/lvgl/src/core/lv_indev_scroll.c ****     if((scroll_dir & LV_DIR_LEFT)   == 0 && diff_x > 0) diff_x = 0;
 1771              		.loc 1 96 5 is_stmt 1 view .LVU581
  96:Drivers/lvgl/src/core/lv_indev_scroll.c ****     if((scroll_dir & LV_DIR_LEFT)   == 0 && diff_x > 0) diff_x = 0;
 1772              		.loc 1 96 27 is_stmt 0 view .LVU582
 1773 0176 FFF7FEFF 		bl	lv_obj_get_scroll_dir
 1774              	.LVL165:
  97:Drivers/lvgl/src/core/lv_indev_scroll.c ****     if((scroll_dir & LV_DIR_RIGHT)  == 0 && diff_x < 0) diff_x = 0;
 1775              		.loc 1 97 5 is_stmt 1 view .LVU583
  97:Drivers/lvgl/src/core/lv_indev_scroll.c ****     if((scroll_dir & LV_DIR_RIGHT)  == 0 && diff_x < 0) diff_x = 0;
 1776              		.loc 1 97 7 is_stmt 0 view .LVU584
 1777 017a 10F00103 		ands	r3, r0, #1
 1778 017e 27D1     		bne	.L195
 1779              	.L267:
  97:Drivers/lvgl/src/core/lv_indev_scroll.c ****     if((scroll_dir & LV_DIR_RIGHT)  == 0 && diff_x < 0) diff_x = 0;
 1780              		.loc 1 97 42 discriminator 1 view .LVU585
 1781 0180 002F     		cmp	r7, #0
 1782 0182 1E46     		mov	r6, r3
  97:Drivers/lvgl/src/core/lv_indev_scroll.c ****     if((scroll_dir & LV_DIR_RIGHT)  == 0 && diff_x < 0) diff_x = 0;
 1783              		.loc 1 97 64 discriminator 2 view .LVU586
 1784 0184 C8BF     		it	gt
 1785 0186 1F46     		movgt	r7, r3
 1786              	.LVL166:
  97:Drivers/lvgl/src/core/lv_indev_scroll.c ****     if((scroll_dir & LV_DIR_RIGHT)  == 0 && diff_x < 0) diff_x = 0;
 1787              		.loc 1 97 42 discriminator 1 view .LVU587
 1788 0188 9DDD     		ble	.L167
 1789              	.LVL167:
 1790              	.L170:
 100:Drivers/lvgl/src/core/lv_indev_scroll.c **** 
 1791              		.loc 1 100 5 is_stmt 1 view .LVU588
 100:Drivers/lvgl/src/core/lv_indev_scroll.c **** 
 1792              		.loc 1 100 7 is_stmt 0 view .LVU589
 1793 018a 0207     		lsls	r2, r0, #28
 1794 018c A7D4     		bmi	.L261
 100:Drivers/lvgl/src/core/lv_indev_scroll.c **** 
ARM GAS  /var/folders/lp/x54gwt890xv47sdkqj1k04q40000gn/T//cc5DBzfs.s 			page 58


 1795              		.loc 1 100 42 discriminator 1 view .LVU590
 1796 018e 26EAE676 		bic	r6, r6, r6, asr #31
 1797              	.LVL168:
 100:Drivers/lvgl/src/core/lv_indev_scroll.c **** 
 1798              		.loc 1 100 42 discriminator 1 view .LVU591
 1799 0192 36B2     		sxth	r6, r6
 1800              	.LBB255:
 1801              	.LBB251:
 559:Drivers/lvgl/src/core/lv_indev_scroll.c ****             *diff_y = proc->types.pointer.scroll_area.y1 - proc->types.pointer.scroll_sum.y;
 1802              		.loc 1 559 47 view .LVU592
 1803 0194 3246     		mov	r2, r6
 1804              	.LBE251:
 1805              	.LBE255:
 1806 0196 A3E7     		b	.L172
 1807              	.LVL169:
 1808              	.L264:
 1809              	.LBB256:
 1810              	.LBB244:
 1811              	.LBB238:
 559:Drivers/lvgl/src/core/lv_indev_scroll.c ****             *diff_y = proc->types.pointer.scroll_area.y1 - proc->types.pointer.scroll_sum.y;
 1812              		.loc 1 559 47 view .LVU593
 1813 0198 0C20     		movs	r0, #12
 1814 019a 3B46     		mov	r3, r7
 1815 019c 3146     		mov	r1, r6
 1816 019e 4246     		mov	r2, r8
 1817 01a0 0090     		str	r0, [sp]
 1818 01a2 2846     		mov	r0, r5
 1819 01a4 FFF7FEFF 		bl	elastic_diff.part.0
 1820              	.LVL170:
 1821 01a8 0646     		mov	r6, r0
 1822              	.LVL171:
 559:Drivers/lvgl/src/core/lv_indev_scroll.c ****             *diff_y = proc->types.pointer.scroll_area.y1 - proc->types.pointer.scroll_sum.y;
 1823              		.loc 1 559 47 view .LVU594
 1824              	.LBE238:
 1825              	.LBE244:
 1826              	.LBE256:
  96:Drivers/lvgl/src/core/lv_indev_scroll.c ****     if((scroll_dir & LV_DIR_LEFT)   == 0 && diff_x > 0) diff_x = 0;
 1827              		.loc 1 96 5 is_stmt 1 view .LVU595
  96:Drivers/lvgl/src/core/lv_indev_scroll.c ****     if((scroll_dir & LV_DIR_LEFT)   == 0 && diff_x > 0) diff_x = 0;
 1828              		.loc 1 96 27 is_stmt 0 view .LVU596
 1829 01aa 2846     		mov	r0, r5
 1830 01ac FFF7FEFF 		bl	lv_obj_get_scroll_dir
 1831              	.LVL172:
  97:Drivers/lvgl/src/core/lv_indev_scroll.c ****     if((scroll_dir & LV_DIR_RIGHT)  == 0 && diff_x < 0) diff_x = 0;
 1832              		.loc 1 97 5 is_stmt 1 view .LVU597
  83:Drivers/lvgl/src/core/lv_indev_scroll.c ****     lv_coord_t diff_y = 0;
 1833              		.loc 1 83 16 is_stmt 0 view .LVU598
 1834 01b0 0027     		movs	r7, #0
 1835              	.LVL173:
  83:Drivers/lvgl/src/core/lv_indev_scroll.c ****     lv_coord_t diff_y = 0;
 1836              		.loc 1 83 16 view .LVU599
 1837 01b2 88E7     		b	.L167
 1838              	.LVL174:
 1839              	.L266:
 1840              	.LBB257:
 1841              	.LBB231:
 1842              	.LBB227:
ARM GAS  /var/folders/lp/x54gwt890xv47sdkqj1k04q40000gn/T//cc5DBzfs.s 			page 59


  83:Drivers/lvgl/src/core/lv_indev_scroll.c ****     lv_coord_t diff_y = 0;
 1843              		.loc 1 83 16 view .LVU600
 1844 01b4 4346     		mov	r3, r8
 1845 01b6 3A46     		mov	r2, r7
 1846 01b8 4946     		mov	r1, r9
 1847 01ba 0096     		str	r6, [sp]
 1848 01bc 2846     		mov	r0, r5
 1849 01be FFF7FEFF 		bl	elastic_diff.part.0
 1850              	.LVL175:
 1851 01c2 0746     		mov	r7, r0
 1852              	.LVL176:
  83:Drivers/lvgl/src/core/lv_indev_scroll.c ****     lv_coord_t diff_y = 0;
 1853              		.loc 1 83 16 view .LVU601
 1854              	.LBE227:
 1855              	.LBE231:
 1856              	.LBE257:
  96:Drivers/lvgl/src/core/lv_indev_scroll.c ****     if((scroll_dir & LV_DIR_LEFT)   == 0 && diff_x > 0) diff_x = 0;
 1857              		.loc 1 96 5 is_stmt 1 view .LVU602
  96:Drivers/lvgl/src/core/lv_indev_scroll.c ****     if((scroll_dir & LV_DIR_LEFT)   == 0 && diff_x > 0) diff_x = 0;
 1858              		.loc 1 96 27 is_stmt 0 view .LVU603
 1859 01c4 2846     		mov	r0, r5
 1860 01c6 FFF7FEFF 		bl	lv_obj_get_scroll_dir
 1861              	.LVL177:
  97:Drivers/lvgl/src/core/lv_indev_scroll.c ****     if((scroll_dir & LV_DIR_RIGHT)  == 0 && diff_x < 0) diff_x = 0;
 1862              		.loc 1 97 5 is_stmt 1 view .LVU604
  97:Drivers/lvgl/src/core/lv_indev_scroll.c ****     if((scroll_dir & LV_DIR_RIGHT)  == 0 && diff_x < 0) diff_x = 0;
 1863              		.loc 1 97 7 is_stmt 0 view .LVU605
 1864 01ca 10F00103 		ands	r3, r0, #1
 1865 01ce D7D0     		beq	.L267
 1866              	.LVL178:
 1867              	.L195:
  97:Drivers/lvgl/src/core/lv_indev_scroll.c ****     if((scroll_dir & LV_DIR_RIGHT)  == 0 && diff_x < 0) diff_x = 0;
 1868              		.loc 1 97 7 view .LVU606
 1869 01d0 0026     		movs	r6, #0
 1870 01d2 78E7     		b	.L167
 1871              	.LVL179:
 1872              	.L262:
  55:Drivers/lvgl/src/core/lv_indev_scroll.c ****         if(scroll_obj == NULL) return;
 1873              		.loc 1 55 9 is_stmt 1 view .LVU607
 1874              	.LBB258:
 1875              	.LBI258:
 258:Drivers/lvgl/src/core/lv_indev_scroll.c **** {
 1876              		.loc 1 258 19 view .LVU608
 1877              	.LBB259:
 260:Drivers/lvgl/src/core/lv_indev_scroll.c ****     lv_dir_t dir_candidate = LV_DIR_NONE;
 1878              		.loc 1 260 5 view .LVU609
 261:Drivers/lvgl/src/core/lv_indev_scroll.c ****     lv_indev_t * indev_act = lv_indev_get_act();
 1879              		.loc 1 261 5 view .LVU610
 262:Drivers/lvgl/src/core/lv_indev_scroll.c ****     lv_coord_t scroll_limit = indev_act->driver->scroll_limit;
 1880              		.loc 1 262 5 view .LVU611
 262:Drivers/lvgl/src/core/lv_indev_scroll.c ****     lv_coord_t scroll_limit = indev_act->driver->scroll_limit;
 1881              		.loc 1 262 30 is_stmt 0 view .LVU612
 1882 01d4 FFF7FEFF 		bl	lv_indev_get_act
 1883              	.LVL180:
 263:Drivers/lvgl/src/core/lv_indev_scroll.c **** 
 1884              		.loc 1 263 5 is_stmt 1 view .LVU613
 263:Drivers/lvgl/src/core/lv_indev_scroll.c **** 
ARM GAS  /var/folders/lp/x54gwt890xv47sdkqj1k04q40000gn/T//cc5DBzfs.s 			page 60


 1885              		.loc 1 263 48 is_stmt 0 view .LVU614
 1886 01d8 0368     		ldr	r3, [r0]
 278:Drivers/lvgl/src/core/lv_indev_scroll.c ****     proc->types.pointer.scroll_sum.y += proc->types.pointer.vect.y;
 1887              		.loc 1 278 38 view .LVU615
 1888 01da 228B     		ldrh	r2, [r4, #24]
 263:Drivers/lvgl/src/core/lv_indev_scroll.c **** 
 1889              		.loc 1 263 48 view .LVU616
 1890 01dc 1B7E     		ldrb	r3, [r3, #24]	@ zero_extendqisi2
 278:Drivers/lvgl/src/core/lv_indev_scroll.c ****     proc->types.pointer.scroll_sum.y += proc->types.pointer.vect.y;
 1891              		.loc 1 278 38 view .LVU617
 1892 01de A18A     		ldrh	r1, [r4, #20]
 263:Drivers/lvgl/src/core/lv_indev_scroll.c **** 
 1893              		.loc 1 263 48 view .LVU618
 1894 01e0 0593     		str	r3, [sp, #20]
 278:Drivers/lvgl/src/core/lv_indev_scroll.c ****     proc->types.pointer.scroll_sum.y += proc->types.pointer.vect.y;
 1895              		.loc 1 278 38 view .LVU619
 1896 01e2 0A44     		add	r2, r2, r1
 263:Drivers/lvgl/src/core/lv_indev_scroll.c **** 
 1897              		.loc 1 263 16 view .LVU620
 1898 01e4 1BB2     		sxth	r3, r3
 1899 01e6 0493     		str	r3, [sp, #16]
 1900              	.LVL181:
 272:Drivers/lvgl/src/core/lv_indev_scroll.c **** 
 1901              		.loc 1 272 5 is_stmt 1 view .LVU621
 278:Drivers/lvgl/src/core/lv_indev_scroll.c ****     proc->types.pointer.scroll_sum.y += proc->types.pointer.vect.y;
 1902              		.loc 1 278 38 is_stmt 0 view .LVU622
 1903 01e8 2283     		strh	r2, [r4, #24]	@ movhi
 279:Drivers/lvgl/src/core/lv_indev_scroll.c **** 
 1904              		.loc 1 279 38 view .LVU623
 1905 01ea 638B     		ldrh	r3, [r4, #26]
 1906 01ec E28A     		ldrh	r2, [r4, #22]
 272:Drivers/lvgl/src/core/lv_indev_scroll.c **** 
 1907              		.loc 1 272 16 view .LVU624
 1908 01ee 666A     		ldr	r6, [r4, #36]
 1909              	.LVL182:
 275:Drivers/lvgl/src/core/lv_indev_scroll.c ****     bool ver_en = false;
 1910              		.loc 1 275 5 is_stmt 1 view .LVU625
 276:Drivers/lvgl/src/core/lv_indev_scroll.c **** 
 1911              		.loc 1 276 5 view .LVU626
 278:Drivers/lvgl/src/core/lv_indev_scroll.c ****     proc->types.pointer.scroll_sum.y += proc->types.pointer.vect.y;
 1912              		.loc 1 278 5 view .LVU627
 279:Drivers/lvgl/src/core/lv_indev_scroll.c **** 
 1913              		.loc 1 279 5 view .LVU628
 279:Drivers/lvgl/src/core/lv_indev_scroll.c **** 
 1914              		.loc 1 279 38 is_stmt 0 view .LVU629
 1915 01f0 1344     		add	r3, r3, r2
 1916 01f2 6383     		strh	r3, [r4, #26]	@ movhi
 281:Drivers/lvgl/src/core/lv_indev_scroll.c ****         /*Get the transformed scroll_sum with this object*/
 1917              		.loc 1 281 5 is_stmt 1 view .LVU630
 281:Drivers/lvgl/src/core/lv_indev_scroll.c ****         /*Get the transformed scroll_sum with this object*/
 1918              		.loc 1 281 11 view .LVU631
 1919 01f4 002E     		cmp	r6, #0
 1920 01f6 A1D0     		beq	.L91
 1921              	.LBB260:
 285:Drivers/lvgl/src/core/lv_indev_scroll.c ****         lv_obj_t * parent = obj_act;
 1922              		.loc 1 285 20 is_stmt 0 view .LVU632
 1923 01f8 A346     		mov	fp, r4
ARM GAS  /var/folders/lp/x54gwt890xv47sdkqj1k04q40000gn/T//cc5DBzfs.s 			page 61


 1924              	.LBE260:
 261:Drivers/lvgl/src/core/lv_indev_scroll.c ****     lv_indev_t * indev_act = lv_indev_get_act();
 1925              		.loc 1 261 14 view .LVU633
 1926 01fa 0395     		str	r5, [sp, #12]
 276:Drivers/lvgl/src/core/lv_indev_scroll.c **** 
 1927              		.loc 1 276 10 view .LVU634
 1928 01fc 2F46     		mov	r7, r5
 1929              	.LBB270:
 285:Drivers/lvgl/src/core/lv_indev_scroll.c ****         lv_obj_t * parent = obj_act;
 1930              		.loc 1 285 20 view .LVU635
 1931 01fe 0295     		str	r5, [sp, #8]
 1932 0200 2C46     		mov	r4, r5
 1933              	.LVL183:
 1934              	.L142:
 283:Drivers/lvgl/src/core/lv_indev_scroll.c ****         int32_t zoom = 256;
 1935              		.loc 1 283 9 is_stmt 1 view .LVU636
 284:Drivers/lvgl/src/core/lv_indev_scroll.c ****         lv_point_t pivot = { 0, 0 };
 1936              		.loc 1 284 9 view .LVU637
 285:Drivers/lvgl/src/core/lv_indev_scroll.c ****         lv_obj_t * parent = obj_act;
 1937              		.loc 1 285 9 view .LVU638
 285:Drivers/lvgl/src/core/lv_indev_scroll.c ****         lv_obj_t * parent = obj_act;
 1938              		.loc 1 285 20 is_stmt 0 view .LVU639
 1939 0202 0023     		movs	r3, #0
 1940 0204 0A93     		str	r3, [sp, #40]
 286:Drivers/lvgl/src/core/lv_indev_scroll.c ****         while(parent) {
 1941              		.loc 1 286 9 is_stmt 1 view .LVU640
 1942              	.LVL184:
 287:Drivers/lvgl/src/core/lv_indev_scroll.c ****             angle += lv_obj_get_style_transform_angle(parent, 0);
 1943              		.loc 1 287 9 view .LVU641
 287:Drivers/lvgl/src/core/lv_indev_scroll.c ****             angle += lv_obj_get_style_transform_angle(parent, 0);
 1944              		.loc 1 287 15 view .LVU642
 286:Drivers/lvgl/src/core/lv_indev_scroll.c ****         while(parent) {
 1945              		.loc 1 286 20 is_stmt 0 view .LVU643
 1946 0206 B146     		mov	r9, r6
 284:Drivers/lvgl/src/core/lv_indev_scroll.c ****         lv_point_t pivot = { 0, 0 };
 1947              		.loc 1 284 17 view .LVU644
 1948 0208 4FF4807A 		mov	r10, #256
 283:Drivers/lvgl/src/core/lv_indev_scroll.c ****         int32_t zoom = 256;
 1949              		.loc 1 283 17 view .LVU645
 1950 020c 1D46     		mov	r5, r3
 1951              	.LVL185:
 1952              	.L96:
 1953              	.LBB261:
 288:Drivers/lvgl/src/core/lv_indev_scroll.c ****             int32_t zoom_act = lv_obj_get_style_transform_zoom(parent, 0);
 1954              		.loc 1 288 13 is_stmt 1 view .LVU646
 1955              	.LBB262:
 1956              	.LBI262:
  85:Drivers/lvgl/src/core/lv_obj_style_gen.h **** {
 1957              		.loc 2 85 26 view .LVU647
 1958              	.LBB263:
  87:Drivers/lvgl/src/core/lv_obj_style_gen.h ****     return (lv_coord_t)v.num;
 1959              		.loc 2 87 5 view .LVU648
  87:Drivers/lvgl/src/core/lv_obj_style_gen.h ****     return (lv_coord_t)v.num;
 1960              		.loc 2 87 26 is_stmt 0 view .LVU649
 1961 020e 6E22     		movs	r2, #110
 1962 0210 0021     		movs	r1, #0
 1963 0212 4846     		mov	r0, r9
ARM GAS  /var/folders/lp/x54gwt890xv47sdkqj1k04q40000gn/T//cc5DBzfs.s 			page 62


 1964 0214 FFF7FEFF 		bl	lv_obj_get_style_prop
 1965              	.LVL186:
  88:Drivers/lvgl/src/core/lv_obj_style_gen.h **** }
 1966              		.loc 2 88 5 is_stmt 1 view .LVU650
  88:Drivers/lvgl/src/core/lv_obj_style_gen.h **** }
 1967              		.loc 2 88 5 is_stmt 0 view .LVU651
 1968              	.LBE263:
 1969              	.LBE262:
 1970              	.LBB264:
 1971              	.LBB265:
  81:Drivers/lvgl/src/core/lv_obj_style_gen.h ****     return (lv_coord_t)v.num;
 1972              		.loc 2 81 26 view .LVU652
 1973 0218 6D22     		movs	r2, #109
 1974              	.LBE265:
 1975              	.LBE264:
 288:Drivers/lvgl/src/core/lv_indev_scroll.c ****             int32_t zoom_act = lv_obj_get_style_transform_zoom(parent, 0);
 1976              		.loc 1 288 19 discriminator 1 view .LVU653
 1977 021a 4319     		adds	r3, r0, r5
 1978              	.LBB268:
 1979              	.LBB266:
  81:Drivers/lvgl/src/core/lv_obj_style_gen.h ****     return (lv_coord_t)v.num;
 1980              		.loc 2 81 26 view .LVU654
 1981 021c 0021     		movs	r1, #0
 1982 021e 4846     		mov	r0, r9
 1983              	.LBE266:
 1984              	.LBE268:
 288:Drivers/lvgl/src/core/lv_indev_scroll.c ****             int32_t zoom_act = lv_obj_get_style_transform_zoom(parent, 0);
 1985              		.loc 1 288 19 discriminator 1 view .LVU655
 1986 0220 1FFA83F8 		uxth	r8, r3
 1987 0224 1DB2     		sxth	r5, r3
 1988              	.LVL187:
 289:Drivers/lvgl/src/core/lv_indev_scroll.c ****             zoom = (zoom * zoom_act) >> 8;
 1989              		.loc 1 289 13 is_stmt 1 view .LVU656
 1990              	.LBB269:
 1991              	.LBI264:
  79:Drivers/lvgl/src/core/lv_obj_style_gen.h **** {
 1992              		.loc 2 79 26 view .LVU657
 1993              	.LBB267:
  81:Drivers/lvgl/src/core/lv_obj_style_gen.h ****     return (lv_coord_t)v.num;
 1994              		.loc 2 81 5 view .LVU658
  81:Drivers/lvgl/src/core/lv_obj_style_gen.h ****     return (lv_coord_t)v.num;
 1995              		.loc 2 81 26 is_stmt 0 view .LVU659
 1996 0226 FFF7FEFF 		bl	lv_obj_get_style_prop
 1997              	.LVL188:
  82:Drivers/lvgl/src/core/lv_obj_style_gen.h **** }
 1998              		.loc 2 82 5 is_stmt 1 view .LVU660
  82:Drivers/lvgl/src/core/lv_obj_style_gen.h **** }
 1999              		.loc 2 82 12 is_stmt 0 view .LVU661
 2000 022a 00B2     		sxth	r0, r0
 2001              	.LVL189:
  82:Drivers/lvgl/src/core/lv_obj_style_gen.h **** }
 2002              		.loc 2 82 12 view .LVU662
 2003              	.LBE267:
 2004              	.LBE269:
 290:Drivers/lvgl/src/core/lv_indev_scroll.c ****             parent = lv_obj_get_parent(parent);
 2005              		.loc 1 290 13 is_stmt 1 view .LVU663
 290:Drivers/lvgl/src/core/lv_indev_scroll.c ****             parent = lv_obj_get_parent(parent);
ARM GAS  /var/folders/lp/x54gwt890xv47sdkqj1k04q40000gn/T//cc5DBzfs.s 			page 63


 2006              		.loc 1 290 26 is_stmt 0 view .LVU664
 2007 022c 0AFB00FA 		mul	r10, r10, r0
 2008              	.LVL190:
 291:Drivers/lvgl/src/core/lv_indev_scroll.c ****         }
 2009              		.loc 1 291 22 view .LVU665
 2010 0230 4846     		mov	r0, r9
 2011              	.LVL191:
 291:Drivers/lvgl/src/core/lv_indev_scroll.c ****         }
 2012              		.loc 1 291 22 view .LVU666
 2013 0232 FFF7FEFF 		bl	lv_obj_get_parent
 2014              	.LVL192:
 290:Drivers/lvgl/src/core/lv_indev_scroll.c ****             parent = lv_obj_get_parent(parent);
 2015              		.loc 1 290 18 view .LVU667
 2016 0236 4FEA2A2A 		asr	r10, r10, #8
 2017              	.LVL193:
 291:Drivers/lvgl/src/core/lv_indev_scroll.c ****         }
 2018              		.loc 1 291 13 is_stmt 1 view .LVU668
 291:Drivers/lvgl/src/core/lv_indev_scroll.c ****         }
 2019              		.loc 1 291 13 is_stmt 0 view .LVU669
 2020              	.LBE261:
 287:Drivers/lvgl/src/core/lv_indev_scroll.c ****             angle += lv_obj_get_style_transform_angle(parent, 0);
 2021              		.loc 1 287 15 is_stmt 1 view .LVU670
 2022 023a 8146     		mov	r9, r0
 2023 023c 0028     		cmp	r0, #0
 2024 023e E6D1     		bne	.L96
 294:Drivers/lvgl/src/core/lv_indev_scroll.c ****         if(angle != 0 || zoom != LV_IMG_ZOOM_NONE) {
 2025              		.loc 1 294 9 view .LVU671
 294:Drivers/lvgl/src/core/lv_indev_scroll.c ****         if(angle != 0 || zoom != LV_IMG_ZOOM_NONE) {
 2026              		.loc 1 294 20 is_stmt 0 view .LVU672
 2027 0240 DBF81820 		ldr	r2, [fp, #24]
 2028 0244 0B92     		str	r2, [sp, #44]
 295:Drivers/lvgl/src/core/lv_indev_scroll.c ****             angle = -angle;
 2029              		.loc 1 295 9 is_stmt 1 view .LVU673
 295:Drivers/lvgl/src/core/lv_indev_scroll.c ****             angle = -angle;
 2030              		.loc 1 295 11 is_stmt 0 view .LVU674
 2031 0246 15B9     		cbnz	r5, .L97
 295:Drivers/lvgl/src/core/lv_indev_scroll.c ****             angle = -angle;
 2032              		.loc 1 295 23 discriminator 1 view .LVU675
 2033 0248 BAF5807F 		cmp	r10, #256
 2034 024c 0AD0     		beq	.L98
 2035              	.L97:
 296:Drivers/lvgl/src/core/lv_indev_scroll.c ****             zoom = (256 * 256) / zoom;
 2036              		.loc 1 296 13 is_stmt 1 view .LVU676
 2037              	.LVL194:
 297:Drivers/lvgl/src/core/lv_indev_scroll.c ****             lv_point_transform(&obj_scroll_sum, angle, zoom, &pivot);
 2038              		.loc 1 297 13 view .LVU677
 298:Drivers/lvgl/src/core/lv_indev_scroll.c ****         }
 2039              		.loc 1 298 13 view .LVU678
 296:Drivers/lvgl/src/core/lv_indev_scroll.c ****             zoom = (256 * 256) / zoom;
 2040              		.loc 1 296 19 is_stmt 0 view .LVU679
 2041 024e C8F10001 		rsb	r1, r8, #0
 297:Drivers/lvgl/src/core/lv_indev_scroll.c ****             lv_point_transform(&obj_scroll_sum, angle, zoom, &pivot);
 2042              		.loc 1 297 18 view .LVU680
 2043 0252 4FF48032 		mov	r2, #65536
 298:Drivers/lvgl/src/core/lv_indev_scroll.c ****         }
 2044              		.loc 1 298 13 view .LVU681
 2045 0256 09B2     		sxth	r1, r1
ARM GAS  /var/folders/lp/x54gwt890xv47sdkqj1k04q40000gn/T//cc5DBzfs.s 			page 64


 2046 0258 0AAB     		add	r3, sp, #40
 2047 025a 0BA8     		add	r0, sp, #44
 2048              	.LVL195:
 298:Drivers/lvgl/src/core/lv_indev_scroll.c ****         }
 2049              		.loc 1 298 13 view .LVU682
 2050 025c 92FBFAF2 		sdiv	r2, r2, r10
 2051              	.LVL196:
 298:Drivers/lvgl/src/core/lv_indev_scroll.c ****         }
 2052              		.loc 1 298 13 view .LVU683
 2053 0260 FFF7FEFF 		bl	lv_point_transform
 2054              	.LVL197:
 2055              	.L98:
 301:Drivers/lvgl/src/core/lv_indev_scroll.c ****             hor_en = true;
 2056              		.loc 1 301 9 is_stmt 1 view .LVU684
 301:Drivers/lvgl/src/core/lv_indev_scroll.c ****             hor_en = true;
 2057              		.loc 1 301 12 is_stmt 0 view .LVU685
 2058 0264 BDF92C20 		ldrsh	r2, [sp, #44]
 301:Drivers/lvgl/src/core/lv_indev_scroll.c ****             hor_en = true;
 2059              		.loc 1 301 39 view .LVU686
 2060 0268 BDF92E30 		ldrsh	r3, [sp, #46]
 301:Drivers/lvgl/src/core/lv_indev_scroll.c ****             hor_en = true;
 2061              		.loc 1 301 12 view .LVU687
 2062 026c 002A     		cmp	r2, #0
 2063 026e B8BF     		it	lt
 2064 0270 5242     		rsblt	r2, r2, #0
 301:Drivers/lvgl/src/core/lv_indev_scroll.c ****             hor_en = true;
 2065              		.loc 1 301 39 view .LVU688
 2066 0272 002B     		cmp	r3, #0
 2067 0274 B8BF     		it	lt
 2068 0276 5B42     		rsblt	r3, r3, #0
 301:Drivers/lvgl/src/core/lv_indev_scroll.c ****             hor_en = true;
 2069              		.loc 1 301 11 view .LVU689
 2070 0278 92B2     		uxth	r2, r2
 2071 027a 9BB2     		uxth	r3, r3
 302:Drivers/lvgl/src/core/lv_indev_scroll.c ****         }
 2072              		.loc 1 302 20 view .LVU690
 2073 027c 9A42     		cmp	r2, r3
 308:Drivers/lvgl/src/core/lv_indev_scroll.c ****             /*If this object don't want to chain the scroll to the parent stop searching*/
 2074              		.loc 1 308 12 view .LVU691
 2075 027e 4FF01001 		mov	r1, #16
 2076 0282 3046     		mov	r0, r6
 302:Drivers/lvgl/src/core/lv_indev_scroll.c ****         }
 2077              		.loc 1 302 20 view .LVU692
 2078 0284 8CBF     		ite	hi
 2079 0286 0124     		movhi	r4, #1
 2080              	.LVL198:
 302:Drivers/lvgl/src/core/lv_indev_scroll.c ****         }
 2081              		.loc 1 302 20 view .LVU693
 2082 0288 0127     		movls	r7, #1
 2083              	.LVL199:
 308:Drivers/lvgl/src/core/lv_indev_scroll.c ****             /*If this object don't want to chain the scroll to the parent stop searching*/
 2084              		.loc 1 308 9 is_stmt 1 view .LVU694
 308:Drivers/lvgl/src/core/lv_indev_scroll.c ****             /*If this object don't want to chain the scroll to the parent stop searching*/
 2085              		.loc 1 308 12 is_stmt 0 view .LVU695
 2086 028a FFF7FEFF 		bl	lv_obj_has_flag
 2087              	.LVL200:
 308:Drivers/lvgl/src/core/lv_indev_scroll.c ****             /*If this object don't want to chain the scroll to the parent stop searching*/
ARM GAS  /var/folders/lp/x54gwt890xv47sdkqj1k04q40000gn/T//cc5DBzfs.s 			page 65


 2088              		.loc 1 308 11 discriminator 1 view .LVU696
 2089 028e 0028     		cmp	r0, #0
 2090 0290 40F08980 		bne	.L100
 310:Drivers/lvgl/src/core/lv_indev_scroll.c ****             if(lv_obj_has_flag(obj_act, LV_OBJ_FLAG_SCROLL_CHAIN_VER) == false && ver_en) break;
 2091              		.loc 1 310 13 is_stmt 1 view .LVU697
 310:Drivers/lvgl/src/core/lv_indev_scroll.c ****             if(lv_obj_has_flag(obj_act, LV_OBJ_FLAG_SCROLL_CHAIN_VER) == false && ver_en) break;
 2092              		.loc 1 310 16 is_stmt 0 view .LVU698
 2093 0294 4FF48071 		mov	r1, #256
 2094 0298 3046     		mov	r0, r6
 2095 029a FFF7FEFF 		bl	lv_obj_has_flag
 2096              	.LVL201:
 310:Drivers/lvgl/src/core/lv_indev_scroll.c ****             if(lv_obj_has_flag(obj_act, LV_OBJ_FLAG_SCROLL_CHAIN_VER) == false && ver_en) break;
 2097              		.loc 1 310 15 discriminator 1 view .LVU699
 2098 029e 00B9     		cbnz	r0, .L101
 310:Drivers/lvgl/src/core/lv_indev_scroll.c ****             if(lv_obj_has_flag(obj_act, LV_OBJ_FLAG_SCROLL_CHAIN_VER) == false && ver_en) break;
 2099              		.loc 1 310 80 discriminator 1 view .LVU700
 2100 02a0 54B9     		cbnz	r4, .L254
 2101              	.L101:
 311:Drivers/lvgl/src/core/lv_indev_scroll.c **** 
 2102              		.loc 1 311 13 is_stmt 1 view .LVU701
 311:Drivers/lvgl/src/core/lv_indev_scroll.c **** 
 2103              		.loc 1 311 16 is_stmt 0 view .LVU702
 2104 02a2 4FF40071 		mov	r1, #512
 2105 02a6 3046     		mov	r0, r6
 2106 02a8 FFF7FEFF 		bl	lv_obj_has_flag
 2107              	.LVL202:
 311:Drivers/lvgl/src/core/lv_indev_scroll.c **** 
 2108              		.loc 1 311 15 discriminator 1 view .LVU703
 2109 02ac 0028     		cmp	r0, #0
 2110 02ae 40F00F81 		bne	.L140
 311:Drivers/lvgl/src/core/lv_indev_scroll.c **** 
 2111              		.loc 1 311 80 discriminator 1 view .LVU704
 2112 02b2 002F     		cmp	r7, #0
 2113 02b4 00F00C81 		beq	.L140
 2114              	.LVL203:
 2115              	.L254:
 311:Drivers/lvgl/src/core/lv_indev_scroll.c **** 
 2116              		.loc 1 311 80 discriminator 1 view .LVU705
 2117 02b8 029D     		ldr	r5, [sp, #8]
 2118 02ba 5C46     		mov	r4, fp
 2119              	.LVL204:
 2120              	.L141:
 311:Drivers/lvgl/src/core/lv_indev_scroll.c **** 
 2121              		.loc 1 311 80 discriminator 1 view .LVU706
 2122              	.LBE270:
 377:Drivers/lvgl/src/core/lv_indev_scroll.c ****         proc->types.pointer.scroll_dir = dir_candidate;
 2123              		.loc 1 377 5 is_stmt 1 view .LVU707
 377:Drivers/lvgl/src/core/lv_indev_scroll.c ****         proc->types.pointer.scroll_dir = dir_candidate;
 2124              		.loc 1 377 7 is_stmt 0 view .LVU708
 2125 02bc 002D     		cmp	r5, #0
 2126 02be 3FF43DAF 		beq	.L91
 378:Drivers/lvgl/src/core/lv_indev_scroll.c ****         proc->types.pointer.scroll_obj = obj_candidate;
 2127              		.loc 1 378 9 is_stmt 1 view .LVU709
 378:Drivers/lvgl/src/core/lv_indev_scroll.c ****         proc->types.pointer.scroll_obj = obj_candidate;
 2128              		.loc 1 378 40 is_stmt 0 view .LVU710
 2129 02c2 94F84030 		ldrb	r3, [r4, #64]	@ zero_extendqisi2
 2130 02c6 039A     		ldr	r2, [sp, #12]
ARM GAS  /var/folders/lp/x54gwt890xv47sdkqj1k04q40000gn/T//cc5DBzfs.s 			page 66


 379:Drivers/lvgl/src/core/lv_indev_scroll.c ****         proc->types.pointer.scroll_sum.x = 0;
 2131              		.loc 1 379 40 view .LVU711
 2132 02c8 E562     		str	r5, [r4, #44]
 380:Drivers/lvgl/src/core/lv_indev_scroll.c ****         proc->types.pointer.scroll_sum.y = 0;
 2133              		.loc 1 380 42 view .LVU712
 2134 02ca 0026     		movs	r6, #0
 2135              	.LVL205:
 378:Drivers/lvgl/src/core/lv_indev_scroll.c ****         proc->types.pointer.scroll_obj = obj_candidate;
 2136              		.loc 1 378 40 view .LVU713
 2137 02cc 62F30303 		bfi	r3, r2, #0, #4
 2138 02d0 84F84030 		strb	r3, [r4, #64]
 379:Drivers/lvgl/src/core/lv_indev_scroll.c ****         proc->types.pointer.scroll_sum.x = 0;
 2139              		.loc 1 379 9 is_stmt 1 view .LVU714
 380:Drivers/lvgl/src/core/lv_indev_scroll.c ****         proc->types.pointer.scroll_sum.y = 0;
 2140              		.loc 1 380 9 view .LVU715
 381:Drivers/lvgl/src/core/lv_indev_scroll.c ****     }
 2141              		.loc 1 381 9 view .LVU716
 380:Drivers/lvgl/src/core/lv_indev_scroll.c ****         proc->types.pointer.scroll_sum.y = 0;
 2142              		.loc 1 380 42 is_stmt 0 view .LVU717
 2143 02d4 A661     		str	r6, [r4, #24]
 384:Drivers/lvgl/src/core/lv_indev_scroll.c **** }
 2144              		.loc 1 384 5 is_stmt 1 view .LVU718
 2145              	.LVL206:
 384:Drivers/lvgl/src/core/lv_indev_scroll.c **** }
 2146              		.loc 1 384 5 is_stmt 0 view .LVU719
 2147              	.LBE259:
 2148              	.LBE258:
  56:Drivers/lvgl/src/core/lv_indev_scroll.c **** 
 2149              		.loc 1 56 9 is_stmt 1 view .LVU720
  58:Drivers/lvgl/src/core/lv_indev_scroll.c **** 
 2150              		.loc 1 58 9 view .LVU721
 2151              	.LBB282:
 2152              	.LBI282:
 387:Drivers/lvgl/src/core/lv_indev_scroll.c **** {
 2153              		.loc 1 387 13 view .LVU722
 2154              	.LBB283:
 389:Drivers/lvgl/src/core/lv_indev_scroll.c ****     /*If there no STOP allow scrolling anywhere*/
 2155              		.loc 1 389 5 view .LVU723
 391:Drivers/lvgl/src/core/lv_indev_scroll.c ****         lv_area_set(&proc->types.pointer.scroll_area, LV_COORD_MIN, LV_COORD_MIN, LV_COORD_MAX, LV_
 2156              		.loc 1 391 5 view .LVU724
 391:Drivers/lvgl/src/core/lv_indev_scroll.c ****         lv_area_set(&proc->types.pointer.scroll_area, LV_COORD_MIN, LV_COORD_MIN, LV_COORD_MAX, LV_
 2157              		.loc 1 391 8 is_stmt 0 view .LVU725
 2158 02d6 8021     		movs	r1, #128
 2159 02d8 2846     		mov	r0, r5
 2160 02da FFF7FEFF 		bl	lv_obj_has_flag
 2161              	.LVL207:
 391:Drivers/lvgl/src/core/lv_indev_scroll.c ****         lv_area_set(&proc->types.pointer.scroll_area, LV_COORD_MIN, LV_COORD_MIN, LV_COORD_MAX, LV_
 2162              		.loc 1 391 7 discriminator 1 view .LVU726
 2163 02de 0028     		cmp	r0, #0
 2164 02e0 00F03081 		beq	.L268
 396:Drivers/lvgl/src/core/lv_indev_scroll.c ****             case LV_SCROLL_SNAP_START:
 2165              		.loc 1 396 9 is_stmt 1 view .LVU727
 396:Drivers/lvgl/src/core/lv_indev_scroll.c ****             case LV_SCROLL_SNAP_START:
 2166              		.loc 1 396 16 is_stmt 0 view .LVU728
 2167 02e4 2846     		mov	r0, r5
 2168 02e6 FFF7FEFF 		bl	lv_obj_get_scroll_snap_y
 2169              	.LVL208:
ARM GAS  /var/folders/lp/x54gwt890xv47sdkqj1k04q40000gn/T//cc5DBzfs.s 			page 67


 396:Drivers/lvgl/src/core/lv_indev_scroll.c ****             case LV_SCROLL_SNAP_START:
 2170              		.loc 1 396 9 discriminator 1 view .LVU729
 2171 02ea 0228     		cmp	r0, #2
 2172 02ec 00F0CB81 		beq	.L145
 2173 02f0 0328     		cmp	r0, #3
 2174 02f2 00F0B181 		beq	.L146
 2175 02f6 0128     		cmp	r0, #1
 2176 02f8 40F0A881 		bne	.L147
 398:Drivers/lvgl/src/core/lv_indev_scroll.c ****                 proc->types.pointer.scroll_area.y2 = find_snap_point_y(obj, LV_COORD_MIN, obj->coor
 2177              		.loc 1 398 17 is_stmt 1 view .LVU730
 398:Drivers/lvgl/src/core/lv_indev_scroll.c ****                 proc->types.pointer.scroll_area.y2 = find_snap_point_y(obj, LV_COORD_MIN, obj->coor
 2178              		.loc 1 398 92 is_stmt 0 view .LVU731
 2179 02fc E98A     		ldrh	r1, [r5, #22]
 2180 02fe 0131     		adds	r1, r1, #1
 398:Drivers/lvgl/src/core/lv_indev_scroll.c ****                 proc->types.pointer.scroll_area.y2 = find_snap_point_y(obj, LV_COORD_MIN, obj->coor
 2181              		.loc 1 398 54 view .LVU732
 2182 0300 09B2     		sxth	r1, r1
 2183 0302 41F6FF72 		movw	r2, #8191
 2184 0306 3346     		mov	r3, r6
 2185 0308 2846     		mov	r0, r5
 2186 030a FFF7FEFF 		bl	find_snap_point_y
 2187              	.LVL209:
 399:Drivers/lvgl/src/core/lv_indev_scroll.c ****                 break;
 2188              		.loc 1 399 106 view .LVU733
 2189 030e EA8A     		ldrh	r2, [r5, #22]
 399:Drivers/lvgl/src/core/lv_indev_scroll.c ****                 break;
 2190              		.loc 1 399 54 view .LVU734
 2191 0310 A549     		ldr	r1, .L281
 398:Drivers/lvgl/src/core/lv_indev_scroll.c ****                 proc->types.pointer.scroll_area.y2 = find_snap_point_y(obj, LV_COORD_MIN, obj->coor
 2192              		.loc 1 398 52 discriminator 1 view .LVU735
 2193 0312 E086     		strh	r0, [r4, #54]	@ movhi
 399:Drivers/lvgl/src/core/lv_indev_scroll.c ****                 break;
 2194              		.loc 1 399 17 is_stmt 1 view .LVU736
 399:Drivers/lvgl/src/core/lv_indev_scroll.c ****                 break;
 2195              		.loc 1 399 106 is_stmt 0 view .LVU737
 2196 0314 013A     		subs	r2, r2, #1
 2197              	.L259:
 2198              	.LBB284:
 408:Drivers/lvgl/src/core/lv_indev_scroll.c ****                     break;
 2199              		.loc 1 408 58 view .LVU738
 2200 0316 3346     		mov	r3, r6
 2201 0318 12B2     		sxth	r2, r2
 2202 031a 2846     		mov	r0, r5
 2203 031c FFF7FEFF 		bl	find_snap_point_y
 2204              	.LVL210:
 2205 0320 0346     		mov	r3, r0
 409:Drivers/lvgl/src/core/lv_indev_scroll.c ****                 }
 2206              		.loc 1 409 21 is_stmt 1 view .LVU739
 2207              	.L148:
 409:Drivers/lvgl/src/core/lv_indev_scroll.c ****                 }
 2208              		.loc 1 409 21 is_stmt 0 view .LVU740
 2209              	.LBE284:
 399:Drivers/lvgl/src/core/lv_indev_scroll.c ****                 break;
 2210              		.loc 1 399 52 discriminator 1 view .LVU741
 2211 0322 6387     		strh	r3, [r4, #58]	@ movhi
 417:Drivers/lvgl/src/core/lv_indev_scroll.c ****             case LV_SCROLL_SNAP_START:
 2212              		.loc 1 417 9 is_stmt 1 view .LVU742
ARM GAS  /var/folders/lp/x54gwt890xv47sdkqj1k04q40000gn/T//cc5DBzfs.s 			page 68


 417:Drivers/lvgl/src/core/lv_indev_scroll.c ****             case LV_SCROLL_SNAP_START:
 2213              		.loc 1 417 16 is_stmt 0 view .LVU743
 2214 0324 2846     		mov	r0, r5
 2215 0326 FFF7FEFF 		bl	lv_obj_get_scroll_snap_x
 2216              	.LVL211:
 417:Drivers/lvgl/src/core/lv_indev_scroll.c ****             case LV_SCROLL_SNAP_START:
 2217              		.loc 1 417 9 discriminator 1 view .LVU744
 2218 032a 0228     		cmp	r0, #2
 2219 032c 00F08281 		beq	.L149
 2220 0330 0328     		cmp	r0, #3
 2221 0332 00F06281 		beq	.L150
 2222 0336 0128     		cmp	r0, #1
 2223 0338 40F05881 		bne	.L151
 419:Drivers/lvgl/src/core/lv_indev_scroll.c ****                 proc->types.pointer.scroll_area.x2 = find_snap_point_x(obj, LV_COORD_MIN, obj->coor
 2224              		.loc 1 419 17 is_stmt 1 view .LVU745
 419:Drivers/lvgl/src/core/lv_indev_scroll.c ****                 proc->types.pointer.scroll_area.x2 = find_snap_point_x(obj, LV_COORD_MIN, obj->coor
 2225              		.loc 1 419 54 is_stmt 0 view .LVU746
 2226 033c B5F91410 		ldrsh	r1, [r5, #20]
 2227 0340 41F6FF72 		movw	r2, #8191
 2228 0344 0023     		movs	r3, #0
 2229 0346 2846     		mov	r0, r5
 2230 0348 FFF7FEFF 		bl	find_snap_point_x
 2231              	.LVL212:
 420:Drivers/lvgl/src/core/lv_indev_scroll.c ****                 break;
 2232              		.loc 1 420 54 view .LVU747
 2233 034c 9649     		ldr	r1, .L281
 2234 034e B5F91420 		ldrsh	r2, [r5, #20]
 2235              	.L260:
 423:Drivers/lvgl/src/core/lv_indev_scroll.c ****                 proc->types.pointer.scroll_area.x2 = find_snap_point_x(obj, LV_COORD_MIN, obj->coor
 2236              		.loc 1 423 52 discriminator 1 view .LVU748
 2237 0352 A086     		strh	r0, [r4, #52]	@ movhi
 424:Drivers/lvgl/src/core/lv_indev_scroll.c ****                 break;
 2238              		.loc 1 424 17 is_stmt 1 view .LVU749
 424:Drivers/lvgl/src/core/lv_indev_scroll.c ****                 break;
 2239              		.loc 1 424 54 is_stmt 0 view .LVU750
 2240 0354 0023     		movs	r3, #0
 2241 0356 2846     		mov	r0, r5
 2242 0358 FFF7FEFF 		bl	find_snap_point_x
 2243              	.LVL213:
 424:Drivers/lvgl/src/core/lv_indev_scroll.c ****                 break;
 2244              		.loc 1 424 52 discriminator 1 view .LVU751
 2245 035c 2087     		strh	r0, [r4, #56]	@ movhi
 425:Drivers/lvgl/src/core/lv_indev_scroll.c ****             case LV_SCROLL_SNAP_CENTER: {
 2246              		.loc 1 425 17 is_stmt 1 view .LVU752
 2247              	.L144:
 440:Drivers/lvgl/src/core/lv_indev_scroll.c ****     if(proc->types.pointer.scroll_area.x2 == 0) proc->types.pointer.scroll_area.x2 = LV_COORD_MAX;
 2248              		.loc 1 440 5 view .LVU753
 440:Drivers/lvgl/src/core/lv_indev_scroll.c ****     if(proc->types.pointer.scroll_area.x2 == 0) proc->types.pointer.scroll_area.x2 = LV_COORD_MAX;
 2249              		.loc 1 440 7 is_stmt 0 view .LVU754
 2250 035e B4F93430 		ldrsh	r3, [r4, #52]
 2251 0362 002B     		cmp	r3, #0
 2252 0364 40F01881 		bne	.L269
 440:Drivers/lvgl/src/core/lv_indev_scroll.c ****     if(proc->types.pointer.scroll_area.x2 == 0) proc->types.pointer.scroll_area.x2 = LV_COORD_MAX;
 2253              		.loc 1 440 49 is_stmt 1 discriminator 1 view .LVU755
 440:Drivers/lvgl/src/core/lv_indev_scroll.c ****     if(proc->types.pointer.scroll_area.x2 == 0) proc->types.pointer.scroll_area.x2 = LV_COORD_MAX;
 2254              		.loc 1 440 84 is_stmt 0 discriminator 1 view .LVU756
 2255 0368 4EF20102 		movw	r2, #57345
ARM GAS  /var/folders/lp/x54gwt890xv47sdkqj1k04q40000gn/T//cc5DBzfs.s 			page 69


 441:Drivers/lvgl/src/core/lv_indev_scroll.c ****     if(proc->types.pointer.scroll_area.y1 == 0) proc->types.pointer.scroll_area.y1 = LV_COORD_MIN;
 2256              		.loc 1 441 39 view .LVU757
 2257 036c B4F93830 		ldrsh	r3, [r4, #56]
 440:Drivers/lvgl/src/core/lv_indev_scroll.c ****     if(proc->types.pointer.scroll_area.x2 == 0) proc->types.pointer.scroll_area.x2 = LV_COORD_MAX;
 2258              		.loc 1 440 84 discriminator 1 view .LVU758
 2259 0370 A286     		strh	r2, [r4, #52]	@ movhi
 2260              	.L154:
 441:Drivers/lvgl/src/core/lv_indev_scroll.c ****     if(proc->types.pointer.scroll_area.y1 == 0) proc->types.pointer.scroll_area.y1 = LV_COORD_MIN;
 2261              		.loc 1 441 5 is_stmt 1 view .LVU759
 441:Drivers/lvgl/src/core/lv_indev_scroll.c ****     if(proc->types.pointer.scroll_area.y1 == 0) proc->types.pointer.scroll_area.y1 = LV_COORD_MIN;
 2262              		.loc 1 441 7 is_stmt 0 view .LVU760
 2263 0372 13B9     		cbnz	r3, .L152
 441:Drivers/lvgl/src/core/lv_indev_scroll.c ****     if(proc->types.pointer.scroll_area.y1 == 0) proc->types.pointer.scroll_area.y1 = LV_COORD_MIN;
 2264              		.loc 1 441 49 is_stmt 1 discriminator 1 view .LVU761
 441:Drivers/lvgl/src/core/lv_indev_scroll.c ****     if(proc->types.pointer.scroll_area.y1 == 0) proc->types.pointer.scroll_area.y1 = LV_COORD_MIN;
 2265              		.loc 1 441 84 is_stmt 0 discriminator 1 view .LVU762
 2266 0374 41F6FF73 		movw	r3, #8191
 2267 0378 2387     		strh	r3, [r4, #56]	@ movhi
 2268              	.L152:
 442:Drivers/lvgl/src/core/lv_indev_scroll.c ****     if(proc->types.pointer.scroll_area.y2 == 0) proc->types.pointer.scroll_area.y2 = LV_COORD_MAX;
 2269              		.loc 1 442 5 is_stmt 1 view .LVU763
 442:Drivers/lvgl/src/core/lv_indev_scroll.c ****     if(proc->types.pointer.scroll_area.y2 == 0) proc->types.pointer.scroll_area.y2 = LV_COORD_MAX;
 2270              		.loc 1 442 7 is_stmt 0 view .LVU764
 2271 037a B4F93630 		ldrsh	r3, [r4, #54]
 2272 037e 13B9     		cbnz	r3, .L155
 442:Drivers/lvgl/src/core/lv_indev_scroll.c ****     if(proc->types.pointer.scroll_area.y2 == 0) proc->types.pointer.scroll_area.y2 = LV_COORD_MAX;
 2273              		.loc 1 442 49 is_stmt 1 discriminator 1 view .LVU765
 442:Drivers/lvgl/src/core/lv_indev_scroll.c ****     if(proc->types.pointer.scroll_area.y2 == 0) proc->types.pointer.scroll_area.y2 = LV_COORD_MAX;
 2274              		.loc 1 442 84 is_stmt 0 discriminator 1 view .LVU766
 2275 0380 4EF20103 		movw	r3, #57345
 2276 0384 E386     		strh	r3, [r4, #54]	@ movhi
 2277              	.L155:
 443:Drivers/lvgl/src/core/lv_indev_scroll.c **** }
 2278              		.loc 1 443 5 is_stmt 1 view .LVU767
 443:Drivers/lvgl/src/core/lv_indev_scroll.c **** }
 2279              		.loc 1 443 7 is_stmt 0 view .LVU768
 2280 0386 B4F93A30 		ldrsh	r3, [r4, #58]
 2281 038a 13B9     		cbnz	r3, .L156
 443:Drivers/lvgl/src/core/lv_indev_scroll.c **** }
 2282              		.loc 1 443 49 is_stmt 1 discriminator 1 view .LVU769
 443:Drivers/lvgl/src/core/lv_indev_scroll.c **** }
 2283              		.loc 1 443 84 is_stmt 0 discriminator 1 view .LVU770
 2284 038c 41F6FF73 		movw	r3, #8191
 2285 0390 6387     		strh	r3, [r4, #58]	@ movhi
 2286              	.L156:
 2287              	.LVL214:
 443:Drivers/lvgl/src/core/lv_indev_scroll.c **** }
 2288              		.loc 1 443 84 discriminator 1 view .LVU771
 2289              	.LBE283:
 2290              	.LBE282:
  60:Drivers/lvgl/src/core/lv_indev_scroll.c ****         if(proc->reset_query) return;
 2291              		.loc 1 60 9 is_stmt 1 view .LVU772
 2292 0392 0022     		movs	r2, #0
 2293 0394 0921     		movs	r1, #9
 2294 0396 2846     		mov	r0, r5
 2295 0398 FFF7FEFF 		bl	lv_event_send
 2296              	.LVL215:
ARM GAS  /var/folders/lp/x54gwt890xv47sdkqj1k04q40000gn/T//cc5DBzfs.s 			page 70


  61:Drivers/lvgl/src/core/lv_indev_scroll.c ****     }
 2297              		.loc 1 61 9 view .LVU773
  61:Drivers/lvgl/src/core/lv_indev_scroll.c ****     }
 2298              		.loc 1 61 12 is_stmt 0 view .LVU774
 2299 039c 6378     		ldrb	r3, [r4, #1]	@ zero_extendqisi2
  61:Drivers/lvgl/src/core/lv_indev_scroll.c ****     }
 2300              		.loc 1 61 11 view .LVU775
 2301 039e 9807     		lsls	r0, r3, #30
 2302 03a0 3FF5CCAE 		bmi	.L91
 2303 03a4 38E6     		b	.L94
 2304              	.LVL216:
 2305              	.L100:
 2306              	.LBB298:
 2307              	.LBB277:
 2308              	.LBB271:
 318:Drivers/lvgl/src/core/lv_indev_scroll.c ****         bool down_en = ver_en;
 2309              		.loc 1 318 9 is_stmt 1 view .LVU776
 319:Drivers/lvgl/src/core/lv_indev_scroll.c ****         bool left_en = hor_en;
 2310              		.loc 1 319 9 view .LVU777
 320:Drivers/lvgl/src/core/lv_indev_scroll.c ****         bool right_en = hor_en;
 2311              		.loc 1 320 9 view .LVU778
 321:Drivers/lvgl/src/core/lv_indev_scroll.c **** 
 2312              		.loc 1 321 9 view .LVU779
 324:Drivers/lvgl/src/core/lv_indev_scroll.c ****         if((scroll_dir & LV_DIR_LEFT) == 0) left_en = false;
 2313              		.loc 1 324 9 view .LVU780
 324:Drivers/lvgl/src/core/lv_indev_scroll.c ****         if((scroll_dir & LV_DIR_LEFT) == 0) left_en = false;
 2314              		.loc 1 324 31 is_stmt 0 view .LVU781
 2315 03a6 3046     		mov	r0, r6
 2316 03a8 FFF7FEFF 		bl	lv_obj_get_scroll_dir
 2317              	.LVL217:
 325:Drivers/lvgl/src/core/lv_indev_scroll.c ****         if((scroll_dir & LV_DIR_RIGHT) == 0) right_en = false;
 2318              		.loc 1 325 9 is_stmt 1 view .LVU782
 320:Drivers/lvgl/src/core/lv_indev_scroll.c ****         bool right_en = hor_en;
 2319              		.loc 1 320 14 is_stmt 0 view .LVU783
 2320 03ac 10F0010F 		tst	r0, #1
 2321 03b0 14BF     		ite	ne
 2322 03b2 2146     		movne	r1, r4
 2323 03b4 0021     		moveq	r1, #0
 321:Drivers/lvgl/src/core/lv_indev_scroll.c **** 
 2324              		.loc 1 321 14 view .LVU784
 2325 03b6 10F0020F 		tst	r0, #2
 2326 03ba 14BF     		ite	ne
 2327 03bc 2346     		movne	r3, r4
 2328 03be 0023     		moveq	r3, #0
 318:Drivers/lvgl/src/core/lv_indev_scroll.c ****         bool down_en = ver_en;
 2329              		.loc 1 318 14 view .LVU785
 2330 03c0 10F0040F 		tst	r0, #4
 321:Drivers/lvgl/src/core/lv_indev_scroll.c **** 
 2331              		.loc 1 321 14 view .LVU786
 2332 03c4 0693     		str	r3, [sp, #24]
 318:Drivers/lvgl/src/core/lv_indev_scroll.c ****         bool down_en = ver_en;
 2333              		.loc 1 318 14 view .LVU787
 2334 03c6 14BF     		ite	ne
 2335 03c8 3B46     		movne	r3, r7
 2336 03ca 0023     		moveq	r3, #0
 319:Drivers/lvgl/src/core/lv_indev_scroll.c ****         bool left_en = hor_en;
 2337              		.loc 1 319 14 view .LVU788
ARM GAS  /var/folders/lp/x54gwt890xv47sdkqj1k04q40000gn/T//cc5DBzfs.s 			page 71


 2338 03cc 10F0080F 		tst	r0, #8
 2339 03d0 14BF     		ite	ne
 2340 03d2 3A46     		movne	r2, r7
 2341 03d4 0022     		moveq	r2, #0
 331:Drivers/lvgl/src/core/lv_indev_scroll.c ****         lv_coord_t sb = lv_obj_get_scroll_bottom(obj_act);
 2342              		.loc 1 331 25 view .LVU789
 2343 03d6 3046     		mov	r0, r6
 2344              	.LVL218:
 320:Drivers/lvgl/src/core/lv_indev_scroll.c ****         bool right_en = hor_en;
 2345              		.loc 1 320 14 view .LVU790
 2346 03d8 0991     		str	r1, [sp, #36]
 2347              	.LVL219:
 326:Drivers/lvgl/src/core/lv_indev_scroll.c ****         if((scroll_dir & LV_DIR_TOP) == 0) up_en = false;
 2348              		.loc 1 326 9 is_stmt 1 view .LVU791
 327:Drivers/lvgl/src/core/lv_indev_scroll.c ****         if((scroll_dir & LV_DIR_BOTTOM) == 0) down_en = false;
 2349              		.loc 1 327 9 view .LVU792
 318:Drivers/lvgl/src/core/lv_indev_scroll.c ****         bool down_en = ver_en;
 2350              		.loc 1 318 14 is_stmt 0 view .LVU793
 2351 03da 0893     		str	r3, [sp, #32]
 2352              	.LVL220:
 328:Drivers/lvgl/src/core/lv_indev_scroll.c **** 
 2353              		.loc 1 328 9 is_stmt 1 view .LVU794
 319:Drivers/lvgl/src/core/lv_indev_scroll.c ****         bool left_en = hor_en;
 2354              		.loc 1 319 14 is_stmt 0 view .LVU795
 2355 03dc 0792     		str	r2, [sp, #28]
 2356              	.LVL221:
 331:Drivers/lvgl/src/core/lv_indev_scroll.c ****         lv_coord_t sb = lv_obj_get_scroll_bottom(obj_act);
 2357              		.loc 1 331 9 is_stmt 1 view .LVU796
 331:Drivers/lvgl/src/core/lv_indev_scroll.c ****         lv_coord_t sb = lv_obj_get_scroll_bottom(obj_act);
 2358              		.loc 1 331 25 is_stmt 0 view .LVU797
 2359 03de FFF7FEFF 		bl	lv_obj_get_scroll_top
 2360              	.LVL222:
 2361 03e2 8046     		mov	r8, r0
 2362              	.LVL223:
 332:Drivers/lvgl/src/core/lv_indev_scroll.c ****         lv_coord_t sl = lv_obj_get_scroll_left(obj_act);
 2363              		.loc 1 332 9 is_stmt 1 view .LVU798
 332:Drivers/lvgl/src/core/lv_indev_scroll.c ****         lv_coord_t sl = lv_obj_get_scroll_left(obj_act);
 2364              		.loc 1 332 25 is_stmt 0 view .LVU799
 2365 03e4 3046     		mov	r0, r6
 2366 03e6 FFF7FEFF 		bl	lv_obj_get_scroll_bottom
 2367              	.LVL224:
 2368 03ea 8246     		mov	r10, r0
 2369              	.LVL225:
 333:Drivers/lvgl/src/core/lv_indev_scroll.c ****         lv_coord_t sr = lv_obj_get_scroll_right(obj_act);
 2370              		.loc 1 333 9 is_stmt 1 view .LVU800
 333:Drivers/lvgl/src/core/lv_indev_scroll.c ****         lv_coord_t sr = lv_obj_get_scroll_right(obj_act);
 2371              		.loc 1 333 25 is_stmt 0 view .LVU801
 2372 03ec 3046     		mov	r0, r6
 2373 03ee FFF7FEFF 		bl	lv_obj_get_scroll_left
 2374              	.LVL226:
 2375 03f2 8146     		mov	r9, r0
 2376              	.LVL227:
 334:Drivers/lvgl/src/core/lv_indev_scroll.c **** 
 2377              		.loc 1 334 9 is_stmt 1 view .LVU802
 334:Drivers/lvgl/src/core/lv_indev_scroll.c **** 
 2378              		.loc 1 334 25 is_stmt 0 view .LVU803
 2379 03f4 3046     		mov	r0, r6
ARM GAS  /var/folders/lp/x54gwt890xv47sdkqj1k04q40000gn/T//cc5DBzfs.s 			page 72


 2380 03f6 FFF7FEFF 		bl	lv_obj_get_scroll_right
 2381              	.LVL228:
 340:Drivers/lvgl/src/core/lv_indev_scroll.c ****            ((up_en    && obj_scroll_sum.y >=   scroll_limit) ||
 2382              		.loc 1 340 9 is_stmt 1 view .LVU804
 340:Drivers/lvgl/src/core/lv_indev_scroll.c ****            ((up_en    && obj_scroll_sum.y >=   scroll_limit) ||
 2383              		.loc 1 340 11 is_stmt 0 view .LVU805
 2384 03fa B8F1000F 		cmp	r8, #0
 2385 03fe DDE90723 		ldrd	r2, r3, [sp, #28]
 2386 0402 0999     		ldr	r1, [sp, #36]
 2387 0404 6CDD     		ble	.L270
 2388              	.L110:
 340:Drivers/lvgl/src/core/lv_indev_scroll.c ****            ((up_en    && obj_scroll_sum.y >=   scroll_limit) ||
 2389              		.loc 1 340 32 discriminator 3 view .LVU806
 2390 0406 2BB1     		cbz	r3, .L112
 341:Drivers/lvgl/src/core/lv_indev_scroll.c ****             (down_en  && obj_scroll_sum.y <= - scroll_limit))) {
 2391              		.loc 1 341 23 view .LVU807
 2392 0408 BDF92EC0 		ldrsh	ip, [sp, #46]
 2393 040c 049D     		ldr	r5, [sp, #16]
 2394 040e AC45     		cmp	ip, r5
 2395 0410 80F2A280 		bge	.L184
 2396              	.L112:
 341:Drivers/lvgl/src/core/lv_indev_scroll.c ****             (down_en  && obj_scroll_sum.y <= - scroll_limit))) {
 2397              		.loc 1 341 62 discriminator 1 view .LVU808
 2398 0414 6AB1     		cbz	r2, .L111
 342:Drivers/lvgl/src/core/lv_indev_scroll.c ****             obj_candidate = obj_act;
 2399              		.loc 1 342 46 view .LVU809
 2400 0416 059D     		ldr	r5, [sp, #20]
 342:Drivers/lvgl/src/core/lv_indev_scroll.c ****             obj_candidate = obj_act;
 2401              		.loc 1 342 40 view .LVU810
 2402 0418 BDF92EE0 		ldrsh	lr, [sp, #46]
 342:Drivers/lvgl/src/core/lv_indev_scroll.c ****             obj_candidate = obj_act;
 2403              		.loc 1 342 46 view .LVU811
 2404 041c C5F1000C 		rsb	ip, r5, #0
 344:Drivers/lvgl/src/core/lv_indev_scroll.c ****         }
 2405              		.loc 1 344 27 view .LVU812
 2406 0420 E645     		cmp	lr, ip
 2407 0422 029D     		ldr	r5, [sp, #8]
 2408 0424 D8BF     		it	le
 2409 0426 3546     		movle	r5, r6
 2410 0428 0295     		str	r5, [sp, #8]
 2411              	.LVL229:
 344:Drivers/lvgl/src/core/lv_indev_scroll.c ****         }
 2412              		.loc 1 344 27 view .LVU813
 2413 042a 039D     		ldr	r5, [sp, #12]
 2414 042c D8BF     		it	le
 2415 042e 0C25     		movle	r5, #12
 2416 0430 0395     		str	r5, [sp, #12]
 2417              	.LVL230:
 2418              	.L111:
 347:Drivers/lvgl/src/core/lv_indev_scroll.c ****            ((left_en   && obj_scroll_sum.x >=   scroll_limit) ||
 2419              		.loc 1 347 9 is_stmt 1 view .LVU814
 347:Drivers/lvgl/src/core/lv_indev_scroll.c ****            ((left_en   && obj_scroll_sum.x >=   scroll_limit) ||
 2420              		.loc 1 347 11 is_stmt 0 view .LVU815
 2421 0432 B9F1000F 		cmp	r9, #0
 2422 0436 57DD     		ble	.L271
 2423              	.L113:
 347:Drivers/lvgl/src/core/lv_indev_scroll.c ****            ((left_en   && obj_scroll_sum.x >=   scroll_limit) ||
ARM GAS  /var/folders/lp/x54gwt890xv47sdkqj1k04q40000gn/T//cc5DBzfs.s 			page 73


 2424              		.loc 1 347 32 discriminator 3 view .LVU816
 2425 0438 29B1     		cbz	r1, .L117
 348:Drivers/lvgl/src/core/lv_indev_scroll.c ****             (right_en  && obj_scroll_sum.x <= - scroll_limit))) {
 2426              		.loc 1 348 24 view .LVU817
 2427 043a BDF92CC0 		ldrsh	ip, [sp, #44]
 2428 043e 049D     		ldr	r5, [sp, #16]
 2429 0440 AC45     		cmp	ip, r5
 2430 0442 80F28D80 		bge	.L186
 2431              	.L117:
 348:Drivers/lvgl/src/core/lv_indev_scroll.c ****             (right_en  && obj_scroll_sum.x <= - scroll_limit))) {
 2432              		.loc 1 348 63 discriminator 1 view .LVU818
 2433 0446 069D     		ldr	r5, [sp, #24]
 2434 0448 6DB1     		cbz	r5, .L118
 349:Drivers/lvgl/src/core/lv_indev_scroll.c ****             obj_candidate = obj_act;
 2435              		.loc 1 349 47 view .LVU819
 2436 044a 059D     		ldr	r5, [sp, #20]
 349:Drivers/lvgl/src/core/lv_indev_scroll.c ****             obj_candidate = obj_act;
 2437              		.loc 1 349 41 view .LVU820
 2438 044c BDF92CE0 		ldrsh	lr, [sp, #44]
 349:Drivers/lvgl/src/core/lv_indev_scroll.c ****             obj_candidate = obj_act;
 2439              		.loc 1 349 47 view .LVU821
 2440 0450 C5F1000C 		rsb	ip, r5, #0
 351:Drivers/lvgl/src/core/lv_indev_scroll.c ****         }
 2441              		.loc 1 351 27 view .LVU822
 2442 0454 E645     		cmp	lr, ip
 2443 0456 029D     		ldr	r5, [sp, #8]
 2444 0458 D8BF     		it	le
 2445 045a 3546     		movle	r5, r6
 2446 045c 0295     		str	r5, [sp, #8]
 2447              	.LVL231:
 351:Drivers/lvgl/src/core/lv_indev_scroll.c ****         }
 2448              		.loc 1 351 27 view .LVU823
 2449 045e 039D     		ldr	r5, [sp, #12]
 2450 0460 D8BF     		it	le
 2451 0462 0325     		movle	r5, #3
 2452 0464 0395     		str	r5, [sp, #12]
 2453              	.LVL232:
 2454              	.L118:
 354:Drivers/lvgl/src/core/lv_indev_scroll.c ****         if(sb <= 0) down_en = false;
 2455              		.loc 1 354 9 is_stmt 1 view .LVU824
 354:Drivers/lvgl/src/core/lv_indev_scroll.c ****         if(sb <= 0) down_en = false;
 2456              		.loc 1 354 11 is_stmt 0 view .LVU825
 2457 0466 B8F1000F 		cmp	r8, #0
 2458 046a 4DDD     		ble	.L272
 2459              	.LVL233:
 355:Drivers/lvgl/src/core/lv_indev_scroll.c ****         if(sl <= 0) left_en = false;
 2460              		.loc 1 355 9 is_stmt 1 view .LVU826
 355:Drivers/lvgl/src/core/lv_indev_scroll.c ****         if(sl <= 0) left_en = false;
 2461              		.loc 1 355 11 is_stmt 0 view .LVU827
 2462 046c BAF1000F 		cmp	r10, #0
 2463 0470 40F38D80 		ble	.L273
 2464              	.LVL234:
 356:Drivers/lvgl/src/core/lv_indev_scroll.c ****         if(sr <= 0) right_en = false;
 2465              		.loc 1 356 9 is_stmt 1 view .LVU828
 356:Drivers/lvgl/src/core/lv_indev_scroll.c ****         if(sr <= 0) right_en = false;
 2466              		.loc 1 356 11 is_stmt 0 view .LVU829
 2467 0474 B9F1000F 		cmp	r9, #0
ARM GAS  /var/folders/lp/x54gwt890xv47sdkqj1k04q40000gn/T//cc5DBzfs.s 			page 74


 2468 0478 3EDD     		ble	.L128
 2469              	.LVL235:
 2470              	.L130:
 357:Drivers/lvgl/src/core/lv_indev_scroll.c **** 
 2471              		.loc 1 357 9 is_stmt 1 view .LVU830
 357:Drivers/lvgl/src/core/lv_indev_scroll.c **** 
 2472              		.loc 1 357 11 is_stmt 0 view .LVU831
 2473 047a 0028     		cmp	r0, #0
 2474 047c 74DD     		ble	.L274
 360:Drivers/lvgl/src/core/lv_indev_scroll.c ****            (right_en && obj_scroll_sum.x <= - scroll_limit) ||
 2475              		.loc 1 360 9 is_stmt 1 view .LVU832
 360:Drivers/lvgl/src/core/lv_indev_scroll.c ****            (right_en && obj_scroll_sum.x <= - scroll_limit) ||
 2476              		.loc 1 360 11 is_stmt 0 view .LVU833
 2477 047e 0029     		cmp	r1, #0
 2478 0480 4DD1     		bne	.L275
 2479              	.LVL236:
 2480              	.L131:
 360:Drivers/lvgl/src/core/lv_indev_scroll.c ****            (right_en && obj_scroll_sum.x <= - scroll_limit) ||
 2481              		.loc 1 360 61 discriminator 3 view .LVU834
 2482 0482 0699     		ldr	r1, [sp, #24]
 2483 0484 29B1     		cbz	r1, .L133
 2484              	.L178:
 361:Drivers/lvgl/src/core/lv_indev_scroll.c ****            (up_en    && obj_scroll_sum.y >=   scroll_limit) ||
 2485              		.loc 1 361 45 view .LVU835
 2486 0486 0599     		ldr	r1, [sp, #20]
 361:Drivers/lvgl/src/core/lv_indev_scroll.c ****            (up_en    && obj_scroll_sum.y >=   scroll_limit) ||
 2487              		.loc 1 361 39 view .LVU836
 2488 0488 BDF92C00 		ldrsh	r0, [sp, #44]
 361:Drivers/lvgl/src/core/lv_indev_scroll.c ****            (up_en    && obj_scroll_sum.y >=   scroll_limit) ||
 2489              		.loc 1 361 45 view .LVU837
 2490 048c 4942     		rsbs	r1, r1, #0
 361:Drivers/lvgl/src/core/lv_indev_scroll.c ****            (up_en    && obj_scroll_sum.y >=   scroll_limit) ||
 2491              		.loc 1 361 22 view .LVU838
 2492 048e 8842     		cmp	r0, r1
 2493 0490 4ADD     		ble	.L252
 2494              	.L133:
 361:Drivers/lvgl/src/core/lv_indev_scroll.c ****            (up_en    && obj_scroll_sum.y >=   scroll_limit) ||
 2495              		.loc 1 361 61 discriminator 1 view .LVU839
 2496 0492 23B1     		cbz	r3, .L125
 362:Drivers/lvgl/src/core/lv_indev_scroll.c ****            (down_en  && obj_scroll_sum.y <= - scroll_limit)) {
 2497              		.loc 1 362 22 view .LVU840
 2498 0494 BDF92E30 		ldrsh	r3, [sp, #46]
 2499 0498 0499     		ldr	r1, [sp, #16]
 2500 049a 8B42     		cmp	r3, r1
 2501 049c 44DA     		bge	.L252
 2502              	.L125:
 362:Drivers/lvgl/src/core/lv_indev_scroll.c ****            (down_en  && obj_scroll_sum.y <= - scroll_limit)) {
 2503              		.loc 1 362 61 discriminator 1 view .LVU841
 2504 049e 2AB1     		cbz	r2, .L122
 363:Drivers/lvgl/src/core/lv_indev_scroll.c ****             proc->types.pointer.scroll_dir = hor_en ? LV_DIR_HOR : LV_DIR_VER;
 2505              		.loc 1 363 45 view .LVU842
 2506 04a0 059B     		ldr	r3, [sp, #20]
 363:Drivers/lvgl/src/core/lv_indev_scroll.c ****             proc->types.pointer.scroll_dir = hor_en ? LV_DIR_HOR : LV_DIR_VER;
 2507              		.loc 1 363 39 view .LVU843
 2508 04a2 BDF92E20 		ldrsh	r2, [sp, #46]
 363:Drivers/lvgl/src/core/lv_indev_scroll.c ****             proc->types.pointer.scroll_dir = hor_en ? LV_DIR_HOR : LV_DIR_VER;
 2509              		.loc 1 363 45 view .LVU844
ARM GAS  /var/folders/lp/x54gwt890xv47sdkqj1k04q40000gn/T//cc5DBzfs.s 			page 75


 2510 04a6 5B42     		rsbs	r3, r3, #0
 363:Drivers/lvgl/src/core/lv_indev_scroll.c ****             proc->types.pointer.scroll_dir = hor_en ? LV_DIR_HOR : LV_DIR_VER;
 2511              		.loc 1 363 22 view .LVU845
 2512 04a8 9A42     		cmp	r2, r3
 2513 04aa 3DDD     		ble	.L252
 2514              	.L122:
 369:Drivers/lvgl/src/core/lv_indev_scroll.c ****         if(lv_obj_has_flag(obj_act, LV_OBJ_FLAG_SCROLL_CHAIN_VER) == false && ver_en) break;
 2515              		.loc 1 369 9 is_stmt 1 view .LVU846
 369:Drivers/lvgl/src/core/lv_indev_scroll.c ****         if(lv_obj_has_flag(obj_act, LV_OBJ_FLAG_SCROLL_CHAIN_VER) == false && ver_en) break;
 2516              		.loc 1 369 12 is_stmt 0 view .LVU847
 2517 04ac 4FF48071 		mov	r1, #256
 2518 04b0 3046     		mov	r0, r6
 2519 04b2 FFF7FEFF 		bl	lv_obj_has_flag
 2520              	.LVL237:
 369:Drivers/lvgl/src/core/lv_indev_scroll.c ****         if(lv_obj_has_flag(obj_act, LV_OBJ_FLAG_SCROLL_CHAIN_VER) == false && ver_en) break;
 2521              		.loc 1 369 11 discriminator 1 view .LVU848
 2522 04b6 10B9     		cbnz	r0, .L138
 369:Drivers/lvgl/src/core/lv_indev_scroll.c ****         if(lv_obj_has_flag(obj_act, LV_OBJ_FLAG_SCROLL_CHAIN_VER) == false && ver_en) break;
 2523              		.loc 1 369 76 discriminator 1 view .LVU849
 2524 04b8 002C     		cmp	r4, #0
 2525 04ba 7FF4FDAE 		bne	.L254
 2526              	.L138:
 370:Drivers/lvgl/src/core/lv_indev_scroll.c **** 
 2527              		.loc 1 370 9 is_stmt 1 view .LVU850
 370:Drivers/lvgl/src/core/lv_indev_scroll.c **** 
 2528              		.loc 1 370 12 is_stmt 0 view .LVU851
 2529 04be 4FF40071 		mov	r1, #512
 2530 04c2 3046     		mov	r0, r6
 2531 04c4 FFF7FEFF 		bl	lv_obj_has_flag
 2532              	.LVL238:
 370:Drivers/lvgl/src/core/lv_indev_scroll.c **** 
 2533              		.loc 1 370 11 discriminator 1 view .LVU852
 2534 04c8 10B9     		cbnz	r0, .L140
 370:Drivers/lvgl/src/core/lv_indev_scroll.c **** 
 2535              		.loc 1 370 76 discriminator 1 view .LVU853
 2536 04ca 002F     		cmp	r7, #0
 2537 04cc 7FF4F4AE 		bne	.L254
 2538              	.LVL239:
 2539              	.L140:
 373:Drivers/lvgl/src/core/lv_indev_scroll.c ****     }
 2540              		.loc 1 373 9 is_stmt 1 view .LVU854
 373:Drivers/lvgl/src/core/lv_indev_scroll.c ****     }
 2541              		.loc 1 373 19 is_stmt 0 view .LVU855
 2542 04d0 3046     		mov	r0, r6
 2543 04d2 FFF7FEFF 		bl	lv_obj_get_parent
 2544              	.LVL240:
 2545 04d6 0646     		mov	r6, r0
 2546              	.LVL241:
 373:Drivers/lvgl/src/core/lv_indev_scroll.c ****     }
 2547              		.loc 1 373 19 view .LVU856
 2548              	.LBE271:
 281:Drivers/lvgl/src/core/lv_indev_scroll.c ****         /*Get the transformed scroll_sum with this object*/
 2549              		.loc 1 281 11 is_stmt 1 view .LVU857
 2550 04d8 0028     		cmp	r0, #0
 2551 04da 7FF492AE 		bne	.L142
 2552 04de EBE6     		b	.L254
 2553              	.LVL242:
ARM GAS  /var/folders/lp/x54gwt890xv47sdkqj1k04q40000gn/T//cc5DBzfs.s 			page 76


 2554              	.L270:
 2555              	.LBB272:
 340:Drivers/lvgl/src/core/lv_indev_scroll.c ****            ((up_en    && obj_scroll_sum.y >=   scroll_limit) ||
 2556              		.loc 1 340 20 is_stmt 0 discriminator 2 view .LVU858
 2557 04e0 BAF1000F 		cmp	r10, #0
 2558 04e4 8FDC     		bgt	.L110
 2559 04e6 A4E7     		b	.L111
 2560              	.L271:
 347:Drivers/lvgl/src/core/lv_indev_scroll.c ****            ((left_en   && obj_scroll_sum.x >=   scroll_limit) ||
 2561              		.loc 1 347 20 discriminator 2 view .LVU859
 2562 04e8 0028     		cmp	r0, #0
 2563 04ea A5DC     		bgt	.L113
 354:Drivers/lvgl/src/core/lv_indev_scroll.c ****         if(sb <= 0) down_en = false;
 2564              		.loc 1 354 9 is_stmt 1 view .LVU860
 354:Drivers/lvgl/src/core/lv_indev_scroll.c ****         if(sb <= 0) down_en = false;
 2565              		.loc 1 354 11 is_stmt 0 view .LVU861
 2566 04ec B8F1000F 		cmp	r8, #0
 2567 04f0 6BDD     		ble	.L276
 2568              	.LVL243:
 355:Drivers/lvgl/src/core/lv_indev_scroll.c ****         if(sl <= 0) left_en = false;
 2569              		.loc 1 355 9 is_stmt 1 view .LVU862
 355:Drivers/lvgl/src/core/lv_indev_scroll.c ****         if(sl <= 0) left_en = false;
 2570              		.loc 1 355 11 is_stmt 0 view .LVU863
 2571 04f2 BAF1000F 		cmp	r10, #0
 2572 04f6 52DD     		ble	.L127
 2573              	.LVL244:
 2574              	.L128:
 356:Drivers/lvgl/src/core/lv_indev_scroll.c ****         if(sr <= 0) right_en = false;
 2575              		.loc 1 356 21 is_stmt 1 discriminator 1 view .LVU864
 357:Drivers/lvgl/src/core/lv_indev_scroll.c **** 
 2576              		.loc 1 357 9 view .LVU865
 357:Drivers/lvgl/src/core/lv_indev_scroll.c **** 
 2577              		.loc 1 357 11 is_stmt 0 view .LVU866
 2578 04f8 0028     		cmp	r0, #0
 2579 04fa C2DC     		bgt	.L131
 2580 04fc C9E7     		b	.L133
 2581              	.LVL245:
 2582              	.L265:
 357:Drivers/lvgl/src/core/lv_indev_scroll.c **** 
 2583              		.loc 1 357 11 view .LVU867
 2584              	.LBE272:
 2585              	.LBE277:
 2586              	.LBE298:
 2587              	.LBB299:
 2588              	.LBB245:
 2589              	.LBB239:
 684:Drivers/lvgl/src/core/lv_indev_scroll.c ****     }
 2590              		.loc 1 684 37 is_stmt 1 discriminator 1 view .LVU868
 684:Drivers/lvgl/src/core/lv_indev_scroll.c ****     }
 2591              		.loc 1 684 37 is_stmt 0 discriminator 1 view .LVU869
 2592              	.LBE239:
 2593              	.LBE245:
 2594              	.LBE299:
  96:Drivers/lvgl/src/core/lv_indev_scroll.c ****     if((scroll_dir & LV_DIR_LEFT)   == 0 && diff_x > 0) diff_x = 0;
 2595              		.loc 1 96 5 is_stmt 1 view .LVU870
  96:Drivers/lvgl/src/core/lv_indev_scroll.c ****     if((scroll_dir & LV_DIR_LEFT)   == 0 && diff_x > 0) diff_x = 0;
 2596              		.loc 1 96 27 is_stmt 0 view .LVU871
ARM GAS  /var/folders/lp/x54gwt890xv47sdkqj1k04q40000gn/T//cc5DBzfs.s 			page 77


 2597 04fe FFF7FEFF 		bl	lv_obj_get_scroll_dir
 2598              	.LVL246:
  97:Drivers/lvgl/src/core/lv_indev_scroll.c ****     if((scroll_dir & LV_DIR_RIGHT)  == 0 && diff_x < 0) diff_x = 0;
 2599              		.loc 1 97 5 is_stmt 1 view .LVU872
 2600              	.LBB300:
 2601              	.LBB246:
 2602              	.LBB240:
 684:Drivers/lvgl/src/core/lv_indev_scroll.c ****     }
 2603              		.loc 1 684 42 is_stmt 0 discriminator 1 view .LVU873
 2604 0502 4646     		mov	r6, r8
 2605              	.LBE240:
 2606              	.LBE246:
 2607              	.LBE300:
  83:Drivers/lvgl/src/core/lv_indev_scroll.c ****     lv_coord_t diff_y = 0;
 2608              		.loc 1 83 16 view .LVU874
 2609 0504 0027     		movs	r7, #0
 2610 0506 DEE5     		b	.L167
 2611              	.LVL247:
 2612              	.L272:
 2613              	.LBB301:
 2614              	.LBB278:
 2615              	.LBB273:
 355:Drivers/lvgl/src/core/lv_indev_scroll.c ****         if(sl <= 0) left_en = false;
 2616              		.loc 1 355 9 is_stmt 1 view .LVU875
 355:Drivers/lvgl/src/core/lv_indev_scroll.c ****         if(sl <= 0) left_en = false;
 2617              		.loc 1 355 11 is_stmt 0 view .LVU876
 2618 0508 BAF1000F 		cmp	r10, #0
 2619 050c 34DD     		ble	.L277
 2620              	.LVL248:
 356:Drivers/lvgl/src/core/lv_indev_scroll.c ****         if(sr <= 0) right_en = false;
 2621              		.loc 1 356 9 is_stmt 1 view .LVU877
 356:Drivers/lvgl/src/core/lv_indev_scroll.c ****         if(sr <= 0) right_en = false;
 2622              		.loc 1 356 11 is_stmt 0 view .LVU878
 2623 050e B9F1000F 		cmp	r9, #0
 2624 0512 4BDD     		ble	.L116
 2625              	.LVL249:
 357:Drivers/lvgl/src/core/lv_indev_scroll.c **** 
 2626              		.loc 1 357 9 is_stmt 1 view .LVU879
 357:Drivers/lvgl/src/core/lv_indev_scroll.c **** 
 2627              		.loc 1 357 11 is_stmt 0 view .LVU880
 2628 0514 0028     		cmp	r0, #0
 2629 0516 65DD     		ble	.L278
 354:Drivers/lvgl/src/core/lv_indev_scroll.c ****         if(sb <= 0) down_en = false;
 2630              		.loc 1 354 27 discriminator 1 view .LVU881
 2631 0518 0023     		movs	r3, #0
 360:Drivers/lvgl/src/core/lv_indev_scroll.c ****            (right_en && obj_scroll_sum.x <= - scroll_limit) ||
 2632              		.loc 1 360 9 is_stmt 1 view .LVU882
 360:Drivers/lvgl/src/core/lv_indev_scroll.c ****            (right_en && obj_scroll_sum.x <= - scroll_limit) ||
 2633              		.loc 1 360 11 is_stmt 0 view .LVU883
 2634 051a 0029     		cmp	r1, #0
 2635 051c B1D0     		beq	.L131
 2636              	.LVL250:
 2637              	.L275:
 360:Drivers/lvgl/src/core/lv_indev_scroll.c ****            (right_en && obj_scroll_sum.x <= - scroll_limit) ||
 2638              		.loc 1 360 22 discriminator 1 view .LVU884
 2639 051e BDF92C10 		ldrsh	r1, [sp, #44]
 2640              	.LVL251:
ARM GAS  /var/folders/lp/x54gwt890xv47sdkqj1k04q40000gn/T//cc5DBzfs.s 			page 78


 360:Drivers/lvgl/src/core/lv_indev_scroll.c ****            (right_en && obj_scroll_sum.x <= - scroll_limit) ||
 2641              		.loc 1 360 22 discriminator 1 view .LVU885
 2642 0522 0498     		ldr	r0, [sp, #16]
 2643              	.LVL252:
 360:Drivers/lvgl/src/core/lv_indev_scroll.c ****            (right_en && obj_scroll_sum.x <= - scroll_limit) ||
 2644              		.loc 1 360 22 discriminator 1 view .LVU886
 2645 0524 8142     		cmp	r1, r0
 2646 0526 ACDB     		blt	.L131
 2647              	.LVL253:
 2648              	.L252:
 364:Drivers/lvgl/src/core/lv_indev_scroll.c ****             break;
 2649              		.loc 1 364 13 is_stmt 1 view .LVU887
 2650 0528 2246     		mov	r2, r4
 364:Drivers/lvgl/src/core/lv_indev_scroll.c ****             break;
 2651              		.loc 1 364 44 is_stmt 0 discriminator 4 view .LVU888
 2652 052a 9BF84030 		ldrb	r3, [fp, #64]	@ zero_extendqisi2
 2653 052e 029D     		ldr	r5, [sp, #8]
 364:Drivers/lvgl/src/core/lv_indev_scroll.c ****             break;
 2654              		.loc 1 364 66 discriminator 1 view .LVU889
 2655 0530 002A     		cmp	r2, #0
 2656 0532 0CBF     		ite	eq
 2657 0534 0C22     		moveq	r2, #12
 2658 0536 0322     		movne	r2, #3
 364:Drivers/lvgl/src/core/lv_indev_scroll.c ****             break;
 2659              		.loc 1 364 44 discriminator 4 view .LVU890
 2660 0538 62F30303 		bfi	r3, r2, #0, #4
 2661 053c 5C46     		mov	r4, fp
 2662              	.LVL254:
 364:Drivers/lvgl/src/core/lv_indev_scroll.c ****             break;
 2663              		.loc 1 364 44 discriminator 4 view .LVU891
 2664 053e 8BF84030 		strb	r3, [fp, #64]
 365:Drivers/lvgl/src/core/lv_indev_scroll.c ****         }
 2665              		.loc 1 365 13 is_stmt 1 view .LVU892
 2666 0542 BBE6     		b	.L141
 2667              	.LVL255:
 2668              	.L268:
 365:Drivers/lvgl/src/core/lv_indev_scroll.c ****         }
 2669              		.loc 1 365 13 is_stmt 0 view .LVU893
 2670              	.LBE273:
 2671              	.LBE278:
 2672              	.LBE301:
 2673              	.LBB302:
 2674              	.LBB295:
 392:Drivers/lvgl/src/core/lv_indev_scroll.c ****     }
 2675              		.loc 1 392 9 is_stmt 1 view .LVU894
 2676 0544 184A     		ldr	r2, .L281
 2677 0546 41F6FF73 		movw	r3, #8191
 2678 054a 0093     		str	r3, [sp]
 2679 054c 1146     		mov	r1, r2
 2680 054e 04F13400 		add	r0, r4, #52
 2681 0552 FFF7FEFF 		bl	lv_area_set
 2682              	.LVL256:
 2683 0556 02E7     		b	.L144
 2684              	.LVL257:
 2685              	.L184:
 392:Drivers/lvgl/src/core/lv_indev_scroll.c ****     }
 2686              		.loc 1 392 9 is_stmt 0 view .LVU895
ARM GAS  /var/folders/lp/x54gwt890xv47sdkqj1k04q40000gn/T//cc5DBzfs.s 			page 79


 2687              	.LBE295:
 2688              	.LBE302:
 2689              	.LBB303:
 2690              	.LBB279:
 2691              	.LBB274:
 344:Drivers/lvgl/src/core/lv_indev_scroll.c ****         }
 2692              		.loc 1 344 27 view .LVU896
 2693 0558 0C25     		movs	r5, #12
 343:Drivers/lvgl/src/core/lv_indev_scroll.c ****             dir_candidate = LV_DIR_VER;
 2694              		.loc 1 343 27 view .LVU897
 2695 055a 0296     		str	r6, [sp, #8]
 2696              	.LVL258:
 344:Drivers/lvgl/src/core/lv_indev_scroll.c ****         }
 2697              		.loc 1 344 27 view .LVU898
 2698 055c 0395     		str	r5, [sp, #12]
 2699              	.LVL259:
 344:Drivers/lvgl/src/core/lv_indev_scroll.c ****         }
 2700              		.loc 1 344 27 view .LVU899
 2701 055e 68E7     		b	.L111
 2702              	.LVL260:
 2703              	.L186:
 351:Drivers/lvgl/src/core/lv_indev_scroll.c ****         }
 2704              		.loc 1 351 27 view .LVU900
 2705 0560 0325     		movs	r5, #3
 350:Drivers/lvgl/src/core/lv_indev_scroll.c ****             dir_candidate = LV_DIR_HOR;
 2706              		.loc 1 350 27 view .LVU901
 2707 0562 0296     		str	r6, [sp, #8]
 2708              	.LVL261:
 351:Drivers/lvgl/src/core/lv_indev_scroll.c ****         }
 2709              		.loc 1 351 27 view .LVU902
 2710 0564 0395     		str	r5, [sp, #12]
 2711              	.LVL262:
 351:Drivers/lvgl/src/core/lv_indev_scroll.c ****         }
 2712              		.loc 1 351 27 view .LVU903
 2713 0566 7EE7     		b	.L118
 2714              	.LVL263:
 2715              	.L274:
 357:Drivers/lvgl/src/core/lv_indev_scroll.c **** 
 2716              		.loc 1 357 21 is_stmt 1 discriminator 1 view .LVU904
 360:Drivers/lvgl/src/core/lv_indev_scroll.c ****            (right_en && obj_scroll_sum.x <= - scroll_limit) ||
 2717              		.loc 1 360 9 view .LVU905
 360:Drivers/lvgl/src/core/lv_indev_scroll.c ****            (right_en && obj_scroll_sum.x <= - scroll_limit) ||
 2718              		.loc 1 360 11 is_stmt 0 view .LVU906
 2719 0568 0029     		cmp	r1, #0
 2720 056a 92D0     		beq	.L133
 2721              	.LVL264:
 2722              	.L135:
 360:Drivers/lvgl/src/core/lv_indev_scroll.c ****            (right_en && obj_scroll_sum.x <= - scroll_limit) ||
 2723              		.loc 1 360 22 discriminator 1 view .LVU907
 2724 056c BDF92C10 		ldrsh	r1, [sp, #44]
 2725              	.LVL265:
 360:Drivers/lvgl/src/core/lv_indev_scroll.c ****            (right_en && obj_scroll_sum.x <= - scroll_limit) ||
 2726              		.loc 1 360 22 discriminator 1 view .LVU908
 2727 0570 0498     		ldr	r0, [sp, #16]
 2728              	.LVL266:
 360:Drivers/lvgl/src/core/lv_indev_scroll.c ****            (right_en && obj_scroll_sum.x <= - scroll_limit) ||
 2729              		.loc 1 360 22 discriminator 1 view .LVU909
ARM GAS  /var/folders/lp/x54gwt890xv47sdkqj1k04q40000gn/T//cc5DBzfs.s 			page 80


 2730 0572 8142     		cmp	r1, r0
 2731 0574 8DDB     		blt	.L133
 2732 0576 D7E7     		b	.L252
 2733              	.LVL267:
 2734              	.L277:
 356:Drivers/lvgl/src/core/lv_indev_scroll.c ****         if(sr <= 0) right_en = false;
 2735              		.loc 1 356 9 is_stmt 1 view .LVU910
 356:Drivers/lvgl/src/core/lv_indev_scroll.c ****         if(sr <= 0) right_en = false;
 2736              		.loc 1 356 11 is_stmt 0 view .LVU911
 2737 0578 B9F1000F 		cmp	r9, #0
 2738 057c 28DD     		ble	.L115
 2739              	.LVL268:
 357:Drivers/lvgl/src/core/lv_indev_scroll.c **** 
 2740              		.loc 1 357 9 is_stmt 1 view .LVU912
 357:Drivers/lvgl/src/core/lv_indev_scroll.c **** 
 2741              		.loc 1 357 11 is_stmt 0 view .LVU913
 2742 057e 0028     		cmp	r0, #0
 2743 0580 40F39380 		ble	.L279
 354:Drivers/lvgl/src/core/lv_indev_scroll.c ****         if(sb <= 0) down_en = false;
 2744              		.loc 1 354 27 discriminator 1 view .LVU914
 2745 0584 0023     		movs	r3, #0
 355:Drivers/lvgl/src/core/lv_indev_scroll.c ****         if(sl <= 0) left_en = false;
 2746              		.loc 1 355 29 discriminator 1 view .LVU915
 2747 0586 1A46     		mov	r2, r3
 360:Drivers/lvgl/src/core/lv_indev_scroll.c ****            (right_en && obj_scroll_sum.x <= - scroll_limit) ||
 2748              		.loc 1 360 9 is_stmt 1 view .LVU916
 360:Drivers/lvgl/src/core/lv_indev_scroll.c ****            (right_en && obj_scroll_sum.x <= - scroll_limit) ||
 2749              		.loc 1 360 11 is_stmt 0 view .LVU917
 2750 0588 0029     		cmp	r1, #0
 2751 058a C8D1     		bne	.L275
 2752 058c 79E7     		b	.L131
 2753              	.LVL269:
 2754              	.L273:
 356:Drivers/lvgl/src/core/lv_indev_scroll.c ****         if(sr <= 0) right_en = false;
 2755              		.loc 1 356 9 is_stmt 1 view .LVU918
 356:Drivers/lvgl/src/core/lv_indev_scroll.c ****         if(sr <= 0) right_en = false;
 2756              		.loc 1 356 11 is_stmt 0 view .LVU919
 2757 058e B9F1000F 		cmp	r9, #0
 2758 0592 04DD     		ble	.L127
 355:Drivers/lvgl/src/core/lv_indev_scroll.c ****         if(sl <= 0) left_en = false;
 2759              		.loc 1 355 29 discriminator 1 view .LVU920
 2760 0594 0022     		movs	r2, #0
 2761 0596 70E7     		b	.L130
 2762              	.LVL270:
 2763              	.L269:
 355:Drivers/lvgl/src/core/lv_indev_scroll.c ****         if(sl <= 0) left_en = false;
 2764              		.loc 1 355 29 discriminator 1 view .LVU921
 2765              	.LBE274:
 2766              	.LBE279:
 2767              	.LBE303:
 2768              	.LBB304:
 2769              	.LBB296:
 441:Drivers/lvgl/src/core/lv_indev_scroll.c ****     if(proc->types.pointer.scroll_area.y1 == 0) proc->types.pointer.scroll_area.y1 = LV_COORD_MIN;
 2770              		.loc 1 441 39 view .LVU922
 2771 0598 B4F93830 		ldrsh	r3, [r4, #56]
 2772 059c E9E6     		b	.L154
 2773              	.LVL271:
ARM GAS  /var/folders/lp/x54gwt890xv47sdkqj1k04q40000gn/T//cc5DBzfs.s 			page 81


 2774              	.L127:
 441:Drivers/lvgl/src/core/lv_indev_scroll.c ****     if(proc->types.pointer.scroll_area.y1 == 0) proc->types.pointer.scroll_area.y1 = LV_COORD_MIN;
 2775              		.loc 1 441 39 view .LVU923
 2776              	.LBE296:
 2777              	.LBE304:
 2778              	.LBB305:
 2779              	.LBB280:
 2780              	.LBB275:
 356:Drivers/lvgl/src/core/lv_indev_scroll.c ****         if(sr <= 0) right_en = false;
 2781              		.loc 1 356 21 is_stmt 1 discriminator 1 view .LVU924
 357:Drivers/lvgl/src/core/lv_indev_scroll.c **** 
 2782              		.loc 1 357 9 view .LVU925
 357:Drivers/lvgl/src/core/lv_indev_scroll.c **** 
 2783              		.loc 1 357 11 is_stmt 0 view .LVU926
 2784 059e 0028     		cmp	r0, #0
 2785 05a0 40F38980 		ble	.L280
 355:Drivers/lvgl/src/core/lv_indev_scroll.c ****         if(sl <= 0) left_en = false;
 2786              		.loc 1 355 29 discriminator 1 view .LVU927
 2787 05a4 0022     		movs	r2, #0
 2788 05a6 6CE7     		b	.L131
 2789              	.L282:
 2790              		.align	2
 2791              	.L281:
 2792 05a8 01E0FFFF 		.word	-8191
 2793              	.LVL272:
 2794              	.L116:
 356:Drivers/lvgl/src/core/lv_indev_scroll.c ****         if(sr <= 0) right_en = false;
 2795              		.loc 1 356 21 is_stmt 1 discriminator 1 view .LVU928
 357:Drivers/lvgl/src/core/lv_indev_scroll.c **** 
 2796              		.loc 1 357 9 view .LVU929
 357:Drivers/lvgl/src/core/lv_indev_scroll.c **** 
 2797              		.loc 1 357 11 is_stmt 0 view .LVU930
 2798 05ac 0028     		cmp	r0, #0
 2799 05ae 7FF776AF 		ble	.L125
 2800              	.LVL273:
 360:Drivers/lvgl/src/core/lv_indev_scroll.c ****            (right_en && obj_scroll_sum.x <= - scroll_limit) ||
 2801              		.loc 1 360 61 discriminator 3 view .LVU931
 2802 05b2 069B     		ldr	r3, [sp, #24]
 2803 05b4 002B     		cmp	r3, #0
 2804 05b6 3FF472AF 		beq	.L125
 361:Drivers/lvgl/src/core/lv_indev_scroll.c ****            (up_en    && obj_scroll_sum.y >=   scroll_limit) ||
 2805              		.loc 1 361 45 view .LVU932
 2806 05ba 0599     		ldr	r1, [sp, #20]
 361:Drivers/lvgl/src/core/lv_indev_scroll.c ****            (up_en    && obj_scroll_sum.y >=   scroll_limit) ||
 2807              		.loc 1 361 39 view .LVU933
 2808 05bc BDF92C30 		ldrsh	r3, [sp, #44]
 361:Drivers/lvgl/src/core/lv_indev_scroll.c ****            (up_en    && obj_scroll_sum.y >=   scroll_limit) ||
 2809              		.loc 1 361 45 view .LVU934
 2810 05c0 4942     		rsbs	r1, r1, #0
 361:Drivers/lvgl/src/core/lv_indev_scroll.c ****            (up_en    && obj_scroll_sum.y >=   scroll_limit) ||
 2811              		.loc 1 361 22 view .LVU935
 2812 05c2 9942     		cmp	r1, r3
 2813 05c4 FFF66BAF 		blt	.L125
 2814 05c8 AEE7     		b	.L252
 2815              	.LVL274:
 2816              	.L276:
 355:Drivers/lvgl/src/core/lv_indev_scroll.c ****         if(sl <= 0) left_en = false;
ARM GAS  /var/folders/lp/x54gwt890xv47sdkqj1k04q40000gn/T//cc5DBzfs.s 			page 82


 2817              		.loc 1 355 9 is_stmt 1 view .LVU936
 355:Drivers/lvgl/src/core/lv_indev_scroll.c ****         if(sl <= 0) left_en = false;
 2818              		.loc 1 355 11 is_stmt 0 view .LVU937
 2819 05ca BAF1000F 		cmp	r10, #0
 2820 05ce EDDC     		bgt	.L116
 2821              	.LVL275:
 2822              	.L115:
 356:Drivers/lvgl/src/core/lv_indev_scroll.c ****         if(sr <= 0) right_en = false;
 2823              		.loc 1 356 21 is_stmt 1 discriminator 1 view .LVU938
 357:Drivers/lvgl/src/core/lv_indev_scroll.c **** 
 2824              		.loc 1 357 9 view .LVU939
 357:Drivers/lvgl/src/core/lv_indev_scroll.c **** 
 2825              		.loc 1 357 11 is_stmt 0 view .LVU940
 2826 05d0 0028     		cmp	r0, #0
 2827 05d2 7FF76BAF 		ble	.L122
 2828              	.LVL276:
 360:Drivers/lvgl/src/core/lv_indev_scroll.c ****            (right_en && obj_scroll_sum.x <= - scroll_limit) ||
 2829              		.loc 1 360 61 discriminator 3 view .LVU941
 2830 05d6 069B     		ldr	r3, [sp, #24]
 2831 05d8 002B     		cmp	r3, #0
 2832 05da 3FF467AF 		beq	.L122
 354:Drivers/lvgl/src/core/lv_indev_scroll.c ****         if(sb <= 0) down_en = false;
 2833              		.loc 1 354 27 discriminator 1 view .LVU942
 2834 05de 0023     		movs	r3, #0
 355:Drivers/lvgl/src/core/lv_indev_scroll.c ****         if(sl <= 0) left_en = false;
 2835              		.loc 1 355 29 discriminator 1 view .LVU943
 2836 05e0 1A46     		mov	r2, r3
 2837 05e2 50E7     		b	.L178
 2838              	.LVL277:
 2839              	.L278:
 357:Drivers/lvgl/src/core/lv_indev_scroll.c **** 
 2840              		.loc 1 357 21 is_stmt 1 discriminator 1 view .LVU944
 360:Drivers/lvgl/src/core/lv_indev_scroll.c ****            (right_en && obj_scroll_sum.x <= - scroll_limit) ||
 2841              		.loc 1 360 9 view .LVU945
 354:Drivers/lvgl/src/core/lv_indev_scroll.c ****         if(sb <= 0) down_en = false;
 2842              		.loc 1 354 27 is_stmt 0 discriminator 1 view .LVU946
 2843 05e4 0023     		movs	r3, #0
 360:Drivers/lvgl/src/core/lv_indev_scroll.c ****            (right_en && obj_scroll_sum.x <= - scroll_limit) ||
 2844              		.loc 1 360 11 view .LVU947
 2845 05e6 0029     		cmp	r1, #0
 2846 05e8 C0D1     		bne	.L135
 2847 05ea 58E7     		b	.L125
 2848              	.LVL278:
 2849              	.L151:
 360:Drivers/lvgl/src/core/lv_indev_scroll.c ****            (right_en && obj_scroll_sum.x <= - scroll_limit) ||
 2850              		.loc 1 360 11 view .LVU948
 2851              	.LBE275:
 2852              	.LBE280:
 2853              	.LBE305:
 2854              	.LBB306:
 2855              	.LBB297:
 433:Drivers/lvgl/src/core/lv_indev_scroll.c ****                 proc->types.pointer.scroll_area.x2 = LV_COORD_MAX;
 2856              		.loc 1 433 17 is_stmt 1 view .LVU949
 433:Drivers/lvgl/src/core/lv_indev_scroll.c ****                 proc->types.pointer.scroll_area.x2 = LV_COORD_MAX;
 2857              		.loc 1 433 52 is_stmt 0 view .LVU950
 2858 05ec 4EF20102 		movw	r2, #57345
 434:Drivers/lvgl/src/core/lv_indev_scroll.c ****                 break;
ARM GAS  /var/folders/lp/x54gwt890xv47sdkqj1k04q40000gn/T//cc5DBzfs.s 			page 83


 2859              		.loc 1 434 52 view .LVU951
 2860 05f0 41F6FF73 		movw	r3, #8191
 433:Drivers/lvgl/src/core/lv_indev_scroll.c ****                 proc->types.pointer.scroll_area.x2 = LV_COORD_MAX;
 2861              		.loc 1 433 52 view .LVU952
 2862 05f4 A286     		strh	r2, [r4, #52]	@ movhi
 434:Drivers/lvgl/src/core/lv_indev_scroll.c ****                 break;
 2863              		.loc 1 434 17 is_stmt 1 view .LVU953
 434:Drivers/lvgl/src/core/lv_indev_scroll.c ****                 break;
 2864              		.loc 1 434 52 is_stmt 0 view .LVU954
 2865 05f6 2387     		strh	r3, [r4, #56]	@ movhi
 435:Drivers/lvgl/src/core/lv_indev_scroll.c ****         }
 2866              		.loc 1 435 17 is_stmt 1 view .LVU955
 440:Drivers/lvgl/src/core/lv_indev_scroll.c ****     if(proc->types.pointer.scroll_area.x2 == 0) proc->types.pointer.scroll_area.x2 = LV_COORD_MAX;
 2867              		.loc 1 440 5 view .LVU956
 441:Drivers/lvgl/src/core/lv_indev_scroll.c ****     if(proc->types.pointer.scroll_area.y1 == 0) proc->types.pointer.scroll_area.y1 = LV_COORD_MIN;
 2868              		.loc 1 441 5 view .LVU957
 2869 05f8 BFE6     		b	.L152
 2870              	.L150:
 2871              	.LBB289:
 427:Drivers/lvgl/src/core/lv_indev_scroll.c ****                     proc->types.pointer.scroll_area.x1 = find_snap_point_x(obj, x_mid + 1, LV_COORD
 2872              		.loc 1 427 21 view .LVU958
 2873              	.LBB290:
 2874              	.LBB291:
 125:Drivers/lvgl/src/core/../misc/../font/../misc/lv_area.h **** }
 2875              		.loc 3 125 49 is_stmt 0 view .LVU959
 2876 05fa 2A8B     		ldrh	r2, [r5, #24]
 2877              	.LBE291:
 2878              	.LBE290:
 427:Drivers/lvgl/src/core/lv_indev_scroll.c ****                     proc->types.pointer.scroll_area.x1 = find_snap_point_x(obj, x_mid + 1, LV_COORD
 2879              		.loc 1 427 51 view .LVU960
 2880 05fc AB8A     		ldrh	r3, [r5, #20]
 2881              	.LVL279:
 2882              	.LBB293:
 2883              	.LBI290:
 123:Drivers/lvgl/src/core/../misc/../font/../misc/lv_area.h **** {
 2884              		.loc 3 123 26 is_stmt 1 view .LVU961
 2885              	.LBB292:
 125:Drivers/lvgl/src/core/../misc/../font/../misc/lv_area.h **** }
 2886              		.loc 3 125 5 view .LVU962
 125:Drivers/lvgl/src/core/../misc/../font/../misc/lv_area.h **** }
 2887              		.loc 3 125 49 is_stmt 0 view .LVU963
 2888 05fe 0132     		adds	r2, r2, #1
 2889 0600 D21A     		subs	r2, r2, r3
 2890              	.LBE292:
 2891              	.LBE293:
 427:Drivers/lvgl/src/core/lv_indev_scroll.c ****                     proc->types.pointer.scroll_area.x1 = find_snap_point_x(obj, x_mid + 1, LV_COORD
 2892              		.loc 1 427 55 discriminator 1 view .LVU964
 2893 0602 C2F3C031 		ubfx	r1, r2, #15, #1
 2894 0606 01FA82F2 		sxtah	r2, r1, r2
 2895 060a 03EB6203 		add	r3, r3, r2, asr #1
 2896 060e 9EB2     		uxth	r6, r3
 2897              	.LVL280:
 428:Drivers/lvgl/src/core/lv_indev_scroll.c ****                     proc->types.pointer.scroll_area.x2 = find_snap_point_x(obj, LV_COORD_MIN, x_mid
 2898              		.loc 1 428 21 is_stmt 1 view .LVU965
 428:Drivers/lvgl/src/core/lv_indev_scroll.c ****                     proc->types.pointer.scroll_area.x2 = find_snap_point_x(obj, LV_COORD_MIN, x_mid
 2899              		.loc 1 428 87 is_stmt 0 view .LVU966
 2900 0610 711C     		adds	r1, r6, #1
ARM GAS  /var/folders/lp/x54gwt890xv47sdkqj1k04q40000gn/T//cc5DBzfs.s 			page 84


 428:Drivers/lvgl/src/core/lv_indev_scroll.c ****                     proc->types.pointer.scroll_area.x2 = find_snap_point_x(obj, LV_COORD_MIN, x_mid
 2901              		.loc 1 428 58 view .LVU967
 2902 0612 0023     		movs	r3, #0
 2903 0614 09B2     		sxth	r1, r1
 2904 0616 41F6FF72 		movw	r2, #8191
 2905 061a 2846     		mov	r0, r5
 2906 061c FFF7FEFF 		bl	find_snap_point_x
 2907              	.LVL281:
 429:Drivers/lvgl/src/core/lv_indev_scroll.c ****                     break;
 2908              		.loc 1 429 101 view .LVU968
 2909 0620 721E     		subs	r2, r6, #1
 428:Drivers/lvgl/src/core/lv_indev_scroll.c ****                     proc->types.pointer.scroll_area.x2 = find_snap_point_x(obj, LV_COORD_MIN, x_mid
 2910              		.loc 1 428 56 discriminator 1 view .LVU969
 2911 0622 A086     		strh	r0, [r4, #52]	@ movhi
 429:Drivers/lvgl/src/core/lv_indev_scroll.c ****                     break;
 2912              		.loc 1 429 21 is_stmt 1 view .LVU970
 429:Drivers/lvgl/src/core/lv_indev_scroll.c ****                     break;
 2913              		.loc 1 429 58 is_stmt 0 view .LVU971
 2914 0624 2949     		ldr	r1, .L283
 2915 0626 0023     		movs	r3, #0
 2916 0628 12B2     		sxth	r2, r2
 2917 062a 2846     		mov	r0, r5
 2918 062c FFF7FEFF 		bl	find_snap_point_x
 2919              	.LVL282:
 429:Drivers/lvgl/src/core/lv_indev_scroll.c ****                     break;
 2920              		.loc 1 429 56 discriminator 1 view .LVU972
 2921 0630 2087     		strh	r0, [r4, #56]	@ movhi
 430:Drivers/lvgl/src/core/lv_indev_scroll.c ****                 }
 2922              		.loc 1 430 21 is_stmt 1 view .LVU973
 2923 0632 94E6     		b	.L144
 2924              	.LVL283:
 2925              	.L149:
 430:Drivers/lvgl/src/core/lv_indev_scroll.c ****                 }
 2926              		.loc 1 430 21 is_stmt 0 view .LVU974
 2927              	.LBE289:
 423:Drivers/lvgl/src/core/lv_indev_scroll.c ****                 proc->types.pointer.scroll_area.x2 = find_snap_point_x(obj, LV_COORD_MIN, obj->coor
 2928              		.loc 1 423 17 is_stmt 1 view .LVU975
 423:Drivers/lvgl/src/core/lv_indev_scroll.c ****                 proc->types.pointer.scroll_area.x2 = find_snap_point_x(obj, LV_COORD_MIN, obj->coor
 2929              		.loc 1 423 54 is_stmt 0 view .LVU976
 2930 0634 B5F91810 		ldrsh	r1, [r5, #24]
 2931 0638 41F6FF72 		movw	r2, #8191
 2932 063c 0023     		movs	r3, #0
 2933 063e 2846     		mov	r0, r5
 2934 0640 FFF7FEFF 		bl	find_snap_point_x
 2935              	.LVL284:
 424:Drivers/lvgl/src/core/lv_indev_scroll.c ****                 break;
 2936              		.loc 1 424 54 view .LVU977
 2937 0644 2149     		ldr	r1, .L283
 2938 0646 B5F91820 		ldrsh	r2, [r5, #24]
 2939 064a 82E6     		b	.L260
 2940              	.L147:
 412:Drivers/lvgl/src/core/lv_indev_scroll.c ****                 proc->types.pointer.scroll_area.y2 = LV_COORD_MAX;
 2941              		.loc 1 412 17 is_stmt 1 view .LVU978
 412:Drivers/lvgl/src/core/lv_indev_scroll.c ****                 proc->types.pointer.scroll_area.y2 = LV_COORD_MAX;
 2942              		.loc 1 412 52 is_stmt 0 view .LVU979
 2943 064c 4EF20103 		movw	r3, #57345
 2944 0650 E386     		strh	r3, [r4, #54]	@ movhi
ARM GAS  /var/folders/lp/x54gwt890xv47sdkqj1k04q40000gn/T//cc5DBzfs.s 			page 85


 413:Drivers/lvgl/src/core/lv_indev_scroll.c ****                 break;
 2945              		.loc 1 413 17 is_stmt 1 view .LVU980
 414:Drivers/lvgl/src/core/lv_indev_scroll.c ****         }
 2946              		.loc 1 414 17 view .LVU981
 2947 0652 41F6FF73 		movw	r3, #8191
 2948 0656 64E6     		b	.L148
 2949              	.L146:
 2950              	.LBB294:
 406:Drivers/lvgl/src/core/lv_indev_scroll.c ****                     proc->types.pointer.scroll_area.y1 = find_snap_point_y(obj, y_mid + 1, LV_COORD
 2951              		.loc 1 406 21 view .LVU982
 2952              	.LBB285:
 2953              	.LBB286:
 2954              		.loc 3 135 49 is_stmt 0 view .LVU983
 2955 0658 6A8B     		ldrh	r2, [r5, #26]
 2956              	.LBE286:
 2957              	.LBE285:
 406:Drivers/lvgl/src/core/lv_indev_scroll.c ****                     proc->types.pointer.scroll_area.y1 = find_snap_point_y(obj, y_mid + 1, LV_COORD
 2958              		.loc 1 406 51 view .LVU984
 2959 065a EB8A     		ldrh	r3, [r5, #22]
 2960              	.LVL285:
 2961              	.LBB288:
 2962              	.LBI285:
 133:Drivers/lvgl/src/core/../misc/../font/../misc/lv_area.h **** {
 2963              		.loc 3 133 26 is_stmt 1 view .LVU985
 2964              	.LBB287:
 2965              		.loc 3 135 5 view .LVU986
 2966              		.loc 3 135 49 is_stmt 0 view .LVU987
 2967 065c 0132     		adds	r2, r2, #1
 2968 065e D21A     		subs	r2, r2, r3
 2969              	.LBE287:
 2970              	.LBE288:
 406:Drivers/lvgl/src/core/lv_indev_scroll.c ****                     proc->types.pointer.scroll_area.y1 = find_snap_point_y(obj, y_mid + 1, LV_COORD
 2971              		.loc 1 406 55 discriminator 1 view .LVU988
 2972 0660 C2F3C031 		ubfx	r1, r2, #15, #1
 2973 0664 01FA82F2 		sxtah	r2, r1, r2
 2974 0668 03EB6203 		add	r3, r3, r2, asr #1
 2975 066c 9FB2     		uxth	r7, r3
 2976              	.LVL286:
 407:Drivers/lvgl/src/core/lv_indev_scroll.c ****                     proc->types.pointer.scroll_area.y2 = find_snap_point_y(obj, LV_COORD_MIN, y_mid
 2977              		.loc 1 407 21 is_stmt 1 view .LVU989
 407:Drivers/lvgl/src/core/lv_indev_scroll.c ****                     proc->types.pointer.scroll_area.y2 = find_snap_point_y(obj, LV_COORD_MIN, y_mid
 2978              		.loc 1 407 87 is_stmt 0 view .LVU990
 2979 066e 791C     		adds	r1, r7, #1
 407:Drivers/lvgl/src/core/lv_indev_scroll.c ****                     proc->types.pointer.scroll_area.y2 = find_snap_point_y(obj, LV_COORD_MIN, y_mid
 2980              		.loc 1 407 58 view .LVU991
 2981 0670 09B2     		sxth	r1, r1
 2982 0672 41F6FF72 		movw	r2, #8191
 2983 0676 3346     		mov	r3, r6
 2984 0678 2846     		mov	r0, r5
 2985 067a FFF7FEFF 		bl	find_snap_point_y
 2986              	.LVL287:
 408:Drivers/lvgl/src/core/lv_indev_scroll.c ****                     break;
 2987              		.loc 1 408 58 view .LVU992
 2988 067e 1349     		ldr	r1, .L283
 407:Drivers/lvgl/src/core/lv_indev_scroll.c ****                     proc->types.pointer.scroll_area.y2 = find_snap_point_y(obj, LV_COORD_MIN, y_mid
 2989              		.loc 1 407 56 discriminator 1 view .LVU993
 2990 0680 E086     		strh	r0, [r4, #54]	@ movhi
ARM GAS  /var/folders/lp/x54gwt890xv47sdkqj1k04q40000gn/T//cc5DBzfs.s 			page 86


 408:Drivers/lvgl/src/core/lv_indev_scroll.c ****                     break;
 2991              		.loc 1 408 21 is_stmt 1 view .LVU994
 408:Drivers/lvgl/src/core/lv_indev_scroll.c ****                     break;
 2992              		.loc 1 408 101 is_stmt 0 view .LVU995
 2993 0682 7A1E     		subs	r2, r7, #1
 2994 0684 47E6     		b	.L259
 2995              	.LVL288:
 2996              	.L145:
 408:Drivers/lvgl/src/core/lv_indev_scroll.c ****                     break;
 2997              		.loc 1 408 101 view .LVU996
 2998              	.LBE294:
 402:Drivers/lvgl/src/core/lv_indev_scroll.c ****                 proc->types.pointer.scroll_area.y2 = find_snap_point_y(obj, LV_COORD_MIN, obj->coor
 2999              		.loc 1 402 17 is_stmt 1 view .LVU997
 402:Drivers/lvgl/src/core/lv_indev_scroll.c ****                 proc->types.pointer.scroll_area.y2 = find_snap_point_y(obj, LV_COORD_MIN, obj->coor
 3000              		.loc 1 402 54 is_stmt 0 view .LVU998
 3001 0686 B5F91A10 		ldrsh	r1, [r5, #26]
 3002 068a 3346     		mov	r3, r6
 3003 068c 41F6FF72 		movw	r2, #8191
 3004 0690 2846     		mov	r0, r5
 3005 0692 FFF7FEFF 		bl	find_snap_point_y
 3006              	.LVL289:
 403:Drivers/lvgl/src/core/lv_indev_scroll.c ****                 break;
 3007              		.loc 1 403 54 view .LVU999
 3008 0696 B5F91A20 		ldrsh	r2, [r5, #26]
 3009 069a 0C49     		ldr	r1, .L283
 402:Drivers/lvgl/src/core/lv_indev_scroll.c ****                 proc->types.pointer.scroll_area.y2 = find_snap_point_y(obj, LV_COORD_MIN, obj->coor
 3010              		.loc 1 402 52 discriminator 1 view .LVU1000
 3011 069c E086     		strh	r0, [r4, #54]	@ movhi
 403:Drivers/lvgl/src/core/lv_indev_scroll.c ****                 break;
 3012              		.loc 1 403 17 is_stmt 1 view .LVU1001
 403:Drivers/lvgl/src/core/lv_indev_scroll.c ****                 break;
 3013              		.loc 1 403 54 is_stmt 0 view .LVU1002
 3014 069e 3346     		mov	r3, r6
 3015 06a0 2846     		mov	r0, r5
 3016 06a2 FFF7FEFF 		bl	find_snap_point_y
 3017              	.LVL290:
 3018 06a6 0346     		mov	r3, r0
 404:Drivers/lvgl/src/core/lv_indev_scroll.c ****             case LV_SCROLL_SNAP_CENTER: {
 3019              		.loc 1 404 17 is_stmt 1 view .LVU1003
 3020 06a8 3BE6     		b	.L148
 3021              	.LVL291:
 3022              	.L279:
 404:Drivers/lvgl/src/core/lv_indev_scroll.c ****             case LV_SCROLL_SNAP_CENTER: {
 3023              		.loc 1 404 17 is_stmt 0 view .LVU1004
 3024              	.LBE297:
 3025              	.LBE306:
 3026              	.LBB307:
 3027              	.LBB281:
 3028              	.LBB276:
 357:Drivers/lvgl/src/core/lv_indev_scroll.c **** 
 3029              		.loc 1 357 21 is_stmt 1 discriminator 1 view .LVU1005
 360:Drivers/lvgl/src/core/lv_indev_scroll.c ****            (right_en && obj_scroll_sum.x <= - scroll_limit) ||
 3030              		.loc 1 360 9 view .LVU1006
 360:Drivers/lvgl/src/core/lv_indev_scroll.c ****            (right_en && obj_scroll_sum.x <= - scroll_limit) ||
 3031              		.loc 1 360 11 is_stmt 0 view .LVU1007
 3032 06aa 0029     		cmp	r1, #0
 3033 06ac 3FF4FEAE 		beq	.L122
ARM GAS  /var/folders/lp/x54gwt890xv47sdkqj1k04q40000gn/T//cc5DBzfs.s 			page 87


 354:Drivers/lvgl/src/core/lv_indev_scroll.c ****         if(sb <= 0) down_en = false;
 3034              		.loc 1 354 27 discriminator 1 view .LVU1008
 3035 06b0 0023     		movs	r3, #0
 355:Drivers/lvgl/src/core/lv_indev_scroll.c ****         if(sl <= 0) left_en = false;
 3036              		.loc 1 355 29 discriminator 1 view .LVU1009
 3037 06b2 1A46     		mov	r2, r3
 3038 06b4 5AE7     		b	.L135
 3039              	.LVL292:
 3040              	.L280:
 361:Drivers/lvgl/src/core/lv_indev_scroll.c ****            (up_en    && obj_scroll_sum.y >=   scroll_limit) ||
 3041              		.loc 1 361 61 discriminator 1 view .LVU1010
 3042 06b6 002B     		cmp	r3, #0
 3043 06b8 3FF4F8AE 		beq	.L122
 362:Drivers/lvgl/src/core/lv_indev_scroll.c ****            (down_en  && obj_scroll_sum.y <= - scroll_limit)) {
 3044              		.loc 1 362 22 view .LVU1011
 3045 06bc BDF92E30 		ldrsh	r3, [sp, #46]
 3046              	.LVL293:
 362:Drivers/lvgl/src/core/lv_indev_scroll.c ****            (down_en  && obj_scroll_sum.y <= - scroll_limit)) {
 3047              		.loc 1 362 22 view .LVU1012
 3048 06c0 049A     		ldr	r2, [sp, #16]
 3049 06c2 9342     		cmp	r3, r2
 3050 06c4 FFF6F2AE 		blt	.L122
 3051 06c8 2EE7     		b	.L252
 3052              	.L284:
 3053 06ca 00BF     		.align	2
 3054              	.L283:
 3055 06cc 01E0FFFF 		.word	-8191
 3056              	.LBE276:
 3057              	.LBE281:
 3058              	.LBE307:
 3059              		.cfi_endproc
 3060              	.LFE161:
 3062              		.section	.text._lv_indev_scroll_throw_handler,"ax",%progbits
 3063              		.align	1
 3064              		.p2align 2,,3
 3065              		.global	_lv_indev_scroll_throw_handler
 3066              		.syntax unified
 3067              		.thumb
 3068              		.thumb_func
 3070              	_lv_indev_scroll_throw_handler:
 3071              	.LVL294:
 3072              	.LFB162:
 113:Drivers/lvgl/src/core/lv_indev_scroll.c ****     lv_obj_t * scroll_obj = proc->types.pointer.scroll_obj;
 3073              		.loc 1 113 1 is_stmt 1 view -0
 3074              		.cfi_startproc
 3075              		@ args = 0, pretend = 0, frame = 8
 3076              		@ frame_needed = 0, uses_anonymous_args = 0
 114:Drivers/lvgl/src/core/lv_indev_scroll.c ****     if(scroll_obj == NULL) return;
 3077              		.loc 1 114 5 view .LVU1014
 113:Drivers/lvgl/src/core/lv_indev_scroll.c ****     lv_obj_t * scroll_obj = proc->types.pointer.scroll_obj;
 3078              		.loc 1 113 1 is_stmt 0 view .LVU1015
 3079 0000 2DE9F04F 		push	{r4, r5, r6, r7, r8, r9, r10, fp, lr}
 3080              		.cfi_def_cfa_offset 36
 3081              		.cfi_offset 4, -36
 3082              		.cfi_offset 5, -32
 3083              		.cfi_offset 6, -28
 3084              		.cfi_offset 7, -24
ARM GAS  /var/folders/lp/x54gwt890xv47sdkqj1k04q40000gn/T//cc5DBzfs.s 			page 88


 3085              		.cfi_offset 8, -20
 3086              		.cfi_offset 9, -16
 3087              		.cfi_offset 10, -12
 3088              		.cfi_offset 11, -8
 3089              		.cfi_offset 14, -4
 114:Drivers/lvgl/src/core/lv_indev_scroll.c ****     if(scroll_obj == NULL) return;
 3090              		.loc 1 114 16 view .LVU1016
 3091 0004 C66A     		ldr	r6, [r0, #44]
 3092              	.LVL295:
 115:Drivers/lvgl/src/core/lv_indev_scroll.c ****     if(proc->types.pointer.scroll_dir == LV_DIR_NONE) return;
 3093              		.loc 1 115 5 is_stmt 1 view .LVU1017
 113:Drivers/lvgl/src/core/lv_indev_scroll.c ****     lv_obj_t * scroll_obj = proc->types.pointer.scroll_obj;
 3094              		.loc 1 113 1 is_stmt 0 view .LVU1018
 3095 0006 85B0     		sub	sp, sp, #20
 3096              		.cfi_def_cfa_offset 56
 115:Drivers/lvgl/src/core/lv_indev_scroll.c ****     if(proc->types.pointer.scroll_dir == LV_DIR_NONE) return;
 3097              		.loc 1 115 7 view .LVU1019
 3098 0008 26B1     		cbz	r6, .L285
 116:Drivers/lvgl/src/core/lv_indev_scroll.c **** 
 3099              		.loc 1 116 5 is_stmt 1 view .LVU1020
 116:Drivers/lvgl/src/core/lv_indev_scroll.c **** 
 3100              		.loc 1 116 39 is_stmt 0 view .LVU1021
 3101 000a 90F84030 		ldrb	r3, [r0, #64]	@ zero_extendqisi2
 116:Drivers/lvgl/src/core/lv_indev_scroll.c **** 
 3102              		.loc 1 116 7 view .LVU1022
 3103 000e 1B07     		lsls	r3, r3, #28
 3104 0010 0446     		mov	r4, r0
 3105 0012 02D1     		bne	.L351
 3106              	.LVL296:
 3107              	.L285:
 215:Drivers/lvgl/src/core/lv_indev_scroll.c **** 
 3108              		.loc 1 215 1 view .LVU1023
 3109 0014 05B0     		add	sp, sp, #20
 3110              		.cfi_remember_state
 3111              		.cfi_def_cfa_offset 36
 3112              		@ sp needed
 3113 0016 BDE8F08F 		pop	{r4, r5, r6, r7, r8, r9, r10, fp, pc}
 3114              	.LVL297:
 3115              	.L351:
 3116              		.cfi_restore_state
 118:Drivers/lvgl/src/core/lv_indev_scroll.c ****     lv_coord_t scroll_throw = indev_act->driver->scroll_throw;
 3117              		.loc 1 118 5 is_stmt 1 view .LVU1024
 118:Drivers/lvgl/src/core/lv_indev_scroll.c ****     lv_coord_t scroll_throw = indev_act->driver->scroll_throw;
 3118              		.loc 1 118 30 is_stmt 0 view .LVU1025
 3119 001a FFF7FEFF 		bl	lv_indev_get_act
 3120              	.LVL298:
 119:Drivers/lvgl/src/core/lv_indev_scroll.c **** 
 3121              		.loc 1 119 48 view .LVU1026
 3122 001e 0368     		ldr	r3, [r0]
 118:Drivers/lvgl/src/core/lv_indev_scroll.c ****     lv_coord_t scroll_throw = indev_act->driver->scroll_throw;
 3123              		.loc 1 118 30 view .LVU1027
 3124 0020 0746     		mov	r7, r0
 3125              	.LVL299:
 119:Drivers/lvgl/src/core/lv_indev_scroll.c **** 
 3126              		.loc 1 119 5 is_stmt 1 view .LVU1028
 121:Drivers/lvgl/src/core/lv_indev_scroll.c ****         proc->types.pointer.scroll_throw_vect.y = 0;
 3127              		.loc 1 121 8 is_stmt 0 view .LVU1029
ARM GAS  /var/folders/lp/x54gwt890xv47sdkqj1k04q40000gn/T//cc5DBzfs.s 			page 89


 3128 0022 4021     		movs	r1, #64
 3129 0024 3046     		mov	r0, r6
 3130              	.LVL300:
 119:Drivers/lvgl/src/core/lv_indev_scroll.c **** 
 3131              		.loc 1 119 48 view .LVU1030
 3132 0026 5D7E     		ldrb	r5, [r3, #25]	@ zero_extendqisi2
 3133              	.LVL301:
 121:Drivers/lvgl/src/core/lv_indev_scroll.c ****         proc->types.pointer.scroll_throw_vect.y = 0;
 3134              		.loc 1 121 5 is_stmt 1 view .LVU1031
 121:Drivers/lvgl/src/core/lv_indev_scroll.c ****         proc->types.pointer.scroll_throw_vect.y = 0;
 3135              		.loc 1 121 8 is_stmt 0 view .LVU1032
 3136 0028 FFF7FEFF 		bl	lv_obj_has_flag
 3137              	.LVL302:
 121:Drivers/lvgl/src/core/lv_indev_scroll.c ****         proc->types.pointer.scroll_throw_vect.y = 0;
 3138              		.loc 1 121 7 discriminator 1 view .LVU1033
 3139 002c 00B9     		cbnz	r0, .L289
 122:Drivers/lvgl/src/core/lv_indev_scroll.c ****         proc->types.pointer.scroll_throw_vect.x = 0;
 3140              		.loc 1 122 9 is_stmt 1 view .LVU1034
 123:Drivers/lvgl/src/core/lv_indev_scroll.c ****     }
 3141              		.loc 1 123 9 view .LVU1035
 123:Drivers/lvgl/src/core/lv_indev_scroll.c ****     }
 3142              		.loc 1 123 49 is_stmt 0 view .LVU1036
 3143 002e E061     		str	r0, [r4, #28]
 3144              	.L289:
 126:Drivers/lvgl/src/core/lv_indev_scroll.c ****     lv_scroll_snap_t align_y = lv_obj_get_scroll_snap_y(scroll_obj);
 3145              		.loc 1 126 5 is_stmt 1 view .LVU1037
 126:Drivers/lvgl/src/core/lv_indev_scroll.c ****     lv_scroll_snap_t align_y = lv_obj_get_scroll_snap_y(scroll_obj);
 3146              		.loc 1 126 32 is_stmt 0 view .LVU1038
 3147 0030 3046     		mov	r0, r6
 3148 0032 FFF7FEFF 		bl	lv_obj_get_scroll_snap_x
 3149              	.LVL303:
 3150 0036 8046     		mov	r8, r0
 3151              	.LVL304:
 127:Drivers/lvgl/src/core/lv_indev_scroll.c **** 
 3152              		.loc 1 127 5 is_stmt 1 view .LVU1039
 127:Drivers/lvgl/src/core/lv_indev_scroll.c **** 
 3153              		.loc 1 127 32 is_stmt 0 view .LVU1040
 3154 0038 3046     		mov	r0, r6
 3155 003a FFF7FEFF 		bl	lv_obj_get_scroll_snap_y
 3156              	.LVL305:
 129:Drivers/lvgl/src/core/lv_indev_scroll.c ****         proc->types.pointer.scroll_throw_vect.x = 0;
 3157              		.loc 1 129 39 view .LVU1041
 3158 003e 94F840A0 		ldrb	r10, [r4, #64]	@ zero_extendqisi2
 3159 0042 0AF00F0A 		and	r10, r10, #15
 129:Drivers/lvgl/src/core/lv_indev_scroll.c ****         proc->types.pointer.scroll_throw_vect.x = 0;
 3160              		.loc 1 129 7 view .LVU1042
 3161 0046 BAF10C0F 		cmp	r10, #12
 127:Drivers/lvgl/src/core/lv_indev_scroll.c **** 
 3162              		.loc 1 127 32 view .LVU1043
 3163 004a 8146     		mov	r9, r0
 3164              	.LVL306:
 129:Drivers/lvgl/src/core/lv_indev_scroll.c ****         proc->types.pointer.scroll_throw_vect.x = 0;
 3165              		.loc 1 129 5 is_stmt 1 view .LVU1044
 129:Drivers/lvgl/src/core/lv_indev_scroll.c ****         proc->types.pointer.scroll_throw_vect.x = 0;
 3166              		.loc 1 129 7 is_stmt 0 view .LVU1045
 3167 004c 6ED0     		beq	.L352
 153:Drivers/lvgl/src/core/lv_indev_scroll.c ****         proc->types.pointer.scroll_throw_vect.y = 0;
ARM GAS  /var/folders/lp/x54gwt890xv47sdkqj1k04q40000gn/T//cc5DBzfs.s 			page 90


 3168              		.loc 1 153 10 is_stmt 1 view .LVU1046
 153:Drivers/lvgl/src/core/lv_indev_scroll.c ****         proc->types.pointer.scroll_throw_vect.y = 0;
 3169              		.loc 1 153 12 is_stmt 0 view .LVU1047
 3170 004e BAF1030F 		cmp	r10, #3
 3171 0052 1BD0     		beq	.L353
 179:Drivers/lvgl/src/core/lv_indev_scroll.c ****         /*Revert if scrolled in*/
 3172              		.loc 1 179 5 is_stmt 1 view .LVU1048
 179:Drivers/lvgl/src/core/lv_indev_scroll.c ****         /*Revert if scrolled in*/
 3173              		.loc 1 179 7 is_stmt 0 view .LVU1049
 3174 0054 E369     		ldr	r3, [r4, #28]
 3175 0056 002B     		cmp	r3, #0
 3176 0058 DCD1     		bne	.L285
 182:Drivers/lvgl/src/core/lv_indev_scroll.c ****             lv_coord_t st = lv_obj_get_scroll_top(scroll_obj);
 3177              		.loc 1 182 9 is_stmt 1 view .LVU1050
 182:Drivers/lvgl/src/core/lv_indev_scroll.c ****             lv_coord_t st = lv_obj_get_scroll_top(scroll_obj);
 3178              		.loc 1 182 11 is_stmt 0 view .LVU1051
 3179 005a 0028     		cmp	r0, #0
 3180 005c 00F09F80 		beq	.L314
 3181              	.LVL307:
 3182              	.L302:
 196:Drivers/lvgl/src/core/lv_indev_scroll.c ****             lv_coord_t sl = lv_obj_get_scroll_left(scroll_obj);
 3183              		.loc 1 196 9 is_stmt 1 view .LVU1052
 196:Drivers/lvgl/src/core/lv_indev_scroll.c ****             lv_coord_t sl = lv_obj_get_scroll_left(scroll_obj);
 3184              		.loc 1 196 11 is_stmt 0 view .LVU1053
 3185 0060 B8F1000F 		cmp	r8, #0
 3186 0064 4ED0     		beq	.L319
 3187              	.L315:
 209:Drivers/lvgl/src/core/lv_indev_scroll.c ****         if(proc->reset_query) return;
 3188              		.loc 1 209 9 is_stmt 1 view .LVU1054
 3189 0066 3A46     		mov	r2, r7
 3190 0068 0A21     		movs	r1, #10
 3191 006a 3046     		mov	r0, r6
 3192 006c FFF7FEFF 		bl	lv_event_send
 3193              	.LVL308:
 210:Drivers/lvgl/src/core/lv_indev_scroll.c **** 
 3194              		.loc 1 210 9 view .LVU1055
 210:Drivers/lvgl/src/core/lv_indev_scroll.c **** 
 3195              		.loc 1 210 12 is_stmt 0 view .LVU1056
 3196 0070 6378     		ldrb	r3, [r4, #1]	@ zero_extendqisi2
 210:Drivers/lvgl/src/core/lv_indev_scroll.c **** 
 3197              		.loc 1 210 11 view .LVU1057
 3198 0072 13F00203 		ands	r3, r3, #2
 3199 0076 CDD1     		bne	.L285
 212:Drivers/lvgl/src/core/lv_indev_scroll.c ****         proc->types.pointer.scroll_obj = NULL;
 3200              		.loc 1 212 9 is_stmt 1 view .LVU1058
 212:Drivers/lvgl/src/core/lv_indev_scroll.c ****         proc->types.pointer.scroll_obj = NULL;
 3201              		.loc 1 212 40 is_stmt 0 view .LVU1059
 3202 0078 94F84020 		ldrb	r2, [r4, #64]	@ zero_extendqisi2
 213:Drivers/lvgl/src/core/lv_indev_scroll.c ****     }
 3203              		.loc 1 213 40 view .LVU1060
 3204 007c E362     		str	r3, [r4, #44]
 212:Drivers/lvgl/src/core/lv_indev_scroll.c ****         proc->types.pointer.scroll_obj = NULL;
 3205              		.loc 1 212 40 view .LVU1061
 3206 007e 63F30302 		bfi	r2, r3, #0, #4
 3207 0082 84F84020 		strb	r2, [r4, #64]
 213:Drivers/lvgl/src/core/lv_indev_scroll.c ****     }
 3208              		.loc 1 213 9 is_stmt 1 view .LVU1062
ARM GAS  /var/folders/lp/x54gwt890xv47sdkqj1k04q40000gn/T//cc5DBzfs.s 			page 91


 215:Drivers/lvgl/src/core/lv_indev_scroll.c **** 
 3209              		.loc 1 215 1 is_stmt 0 view .LVU1063
 3210 0086 05B0     		add	sp, sp, #20
 3211              		.cfi_remember_state
 3212              		.cfi_def_cfa_offset 36
 3213              		@ sp needed
 3214 0088 BDE8F08F 		pop	{r4, r5, r6, r7, r8, r9, r10, fp, pc}
 3215              	.LVL309:
 3216              	.L353:
 3217              		.cfi_restore_state
 154:Drivers/lvgl/src/core/lv_indev_scroll.c ****         /*If no snapping "throw"*/
 3218              		.loc 1 154 9 is_stmt 1 view .LVU1064
 154:Drivers/lvgl/src/core/lv_indev_scroll.c ****         /*If no snapping "throw"*/
 3219              		.loc 1 154 49 is_stmt 0 view .LVU1065
 3220 008c 4FF0000B 		mov	fp, #0
 3221 0090 A4F81EB0 		strh	fp, [r4, #30]	@ movhi
 156:Drivers/lvgl/src/core/lv_indev_scroll.c ****             proc->types.pointer.scroll_throw_vect.x =
 3222              		.loc 1 156 9 is_stmt 1 view .LVU1066
 156:Drivers/lvgl/src/core/lv_indev_scroll.c ****             proc->types.pointer.scroll_throw_vect.x =
 3223              		.loc 1 156 11 is_stmt 0 view .LVU1067
 3224 0094 B8F1000F 		cmp	r8, #0
 3225 0098 40F0D780 		bne	.L304
 3226              	.LBB326:
 157:Drivers/lvgl/src/core/lv_indev_scroll.c ****                 proc->types.pointer.scroll_throw_vect.x * (100 - scroll_throw) / 100;
 3227              		.loc 1 157 13 is_stmt 1 view .LVU1068
 158:Drivers/lvgl/src/core/lv_indev_scroll.c **** 
 3228              		.loc 1 158 54 is_stmt 0 view .LVU1069
 3229 009c B4F91C30 		ldrsh	r3, [r4, #28]
 158:Drivers/lvgl/src/core/lv_indev_scroll.c **** 
 3230              		.loc 1 158 80 view .LVU1070
 3231 00a0 A54A     		ldr	r2, .L357
 158:Drivers/lvgl/src/core/lv_indev_scroll.c **** 
 3232              		.loc 1 158 64 view .LVU1071
 3233 00a2 C5F16405 		rsb	r5, r5, #100
 3234              	.LVL310:
 158:Drivers/lvgl/src/core/lv_indev_scroll.c **** 
 3235              		.loc 1 158 57 view .LVU1072
 3236 00a6 05FB03F3 		mul	r3, r5, r3
 158:Drivers/lvgl/src/core/lv_indev_scroll.c **** 
 3237              		.loc 1 158 80 view .LVU1073
 3238 00aa 82FB0312 		smull	r1, r2, r2, r3
 3239 00ae DB17     		asrs	r3, r3, #31
 3240 00b0 C3EB6213 		rsb	r3, r3, r2, asr #5
 157:Drivers/lvgl/src/core/lv_indev_scroll.c ****                 proc->types.pointer.scroll_throw_vect.x * (100 - scroll_throw) / 100;
 3241              		.loc 1 157 53 view .LVU1074
 3242 00b4 A383     		strh	r3, [r4, #28]	@ movhi
 160:Drivers/lvgl/src/core/lv_indev_scroll.c ****             lv_coord_t sr = lv_obj_get_scroll_right(scroll_obj);
 3243              		.loc 1 160 13 is_stmt 1 view .LVU1075
 160:Drivers/lvgl/src/core/lv_indev_scroll.c ****             lv_coord_t sr = lv_obj_get_scroll_right(scroll_obj);
 3244              		.loc 1 160 29 is_stmt 0 view .LVU1076
 3245 00b6 3046     		mov	r0, r6
 3246              	.LVL311:
 160:Drivers/lvgl/src/core/lv_indev_scroll.c ****             lv_coord_t sr = lv_obj_get_scroll_right(scroll_obj);
 3247              		.loc 1 160 29 view .LVU1077
 3248 00b8 FFF7FEFF 		bl	lv_obj_get_scroll_left
 3249              	.LVL312:
 3250 00bc 0546     		mov	r5, r0
ARM GAS  /var/folders/lp/x54gwt890xv47sdkqj1k04q40000gn/T//cc5DBzfs.s 			page 92


 3251              	.LVL313:
 161:Drivers/lvgl/src/core/lv_indev_scroll.c **** 
 3252              		.loc 1 161 13 is_stmt 1 view .LVU1078
 161:Drivers/lvgl/src/core/lv_indev_scroll.c **** 
 3253              		.loc 1 161 29 is_stmt 0 view .LVU1079
 3254 00be 3046     		mov	r0, r6
 3255 00c0 FFF7FEFF 		bl	lv_obj_get_scroll_right
 3256              	.LVL314:
 3257              	.LBB327:
 3258              	.LBB328:
 615:Drivers/lvgl/src/core/lv_indev_scroll.c ****         /*If there is snapping in the current direction don't use the elastic factor because
 3259              		.loc 1 615 8 view .LVU1080
 3260 00c4 2021     		movs	r1, #32
 3261              	.LBE328:
 3262              	.LBE327:
 161:Drivers/lvgl/src/core/lv_indev_scroll.c **** 
 3263              		.loc 1 161 29 view .LVU1081
 3264 00c6 0390     		str	r0, [sp, #12]
 3265              	.LVL315:
 163:Drivers/lvgl/src/core/lv_indev_scroll.c ****                                                                    LV_DIR_HOR);
 3266              		.loc 1 163 13 is_stmt 1 view .LVU1082
 3267              	.LBB332:
 3268              	.LBB329:
 615:Drivers/lvgl/src/core/lv_indev_scroll.c ****         /*If there is snapping in the current direction don't use the elastic factor because
 3269              		.loc 1 615 8 is_stmt 0 view .LVU1083
 3270 00c8 3046     		mov	r0, r6
 3271              	.LBE329:
 3272              	.LBE332:
 163:Drivers/lvgl/src/core/lv_indev_scroll.c ****                                                                    LV_DIR_HOR);
 3273              		.loc 1 163 55 view .LVU1084
 3274 00ca B4F91CB0 		ldrsh	fp, [r4, #28]
 3275              	.LVL316:
 3276              	.LBB333:
 3277              	.LBI327:
 612:Drivers/lvgl/src/core/lv_indev_scroll.c ****                                lv_dir_t dir)
 3278              		.loc 1 612 19 is_stmt 1 view .LVU1085
 3279              	.LBB330:
 615:Drivers/lvgl/src/core/lv_indev_scroll.c ****         /*If there is snapping in the current direction don't use the elastic factor because
 3280              		.loc 1 615 5 view .LVU1086
 615:Drivers/lvgl/src/core/lv_indev_scroll.c ****         /*If there is snapping in the current direction don't use the elastic factor because
 3281              		.loc 1 615 8 is_stmt 0 view .LVU1087
 3282 00ce FFF7FEFF 		bl	lv_obj_has_flag
 3283              	.LVL317:
 615:Drivers/lvgl/src/core/lv_indev_scroll.c ****         /*If there is snapping in the current direction don't use the elastic factor because
 3284              		.loc 1 615 7 discriminator 1 view .LVU1088
 3285 00d2 039B     		ldr	r3, [sp, #12]
 3286 00d4 0028     		cmp	r0, #0
 3287 00d6 00F02081 		beq	.L305
 3288 00da 2A46     		mov	r2, r5
 3289 00dc CDF800A0 		str	r10, [sp]
 3290 00e0 5946     		mov	r1, fp
 3291 00e2 3046     		mov	r0, r6
 3292 00e4 FFF7FEFF 		bl	elastic_diff.part.0
 3293              	.LVL318:
 3294 00e8 0546     		mov	r5, r0
 3295              	.LVL319:
 3296              	.L306:
ARM GAS  /var/folders/lp/x54gwt890xv47sdkqj1k04q40000gn/T//cc5DBzfs.s 			page 93


 615:Drivers/lvgl/src/core/lv_indev_scroll.c ****         /*If there is snapping in the current direction don't use the elastic factor because
 3297              		.loc 1 615 7 discriminator 1 view .LVU1089
 3298              	.LBE330:
 3299              	.LBE333:
 166:Drivers/lvgl/src/core/lv_indev_scroll.c ****         }
 3300              		.loc 1 166 13 view .LVU1090
 3301 00ea 0023     		movs	r3, #0
 3302 00ec 1A46     		mov	r2, r3
 163:Drivers/lvgl/src/core/lv_indev_scroll.c ****                                                                    LV_DIR_HOR);
 3303              		.loc 1 163 53 discriminator 1 view .LVU1091
 3304 00ee A583     		strh	r5, [r4, #28]	@ movhi
 166:Drivers/lvgl/src/core/lv_indev_scroll.c ****         }
 3305              		.loc 1 166 13 is_stmt 1 view .LVU1092
 3306 00f0 2946     		mov	r1, r5
 3307 00f2 3046     		mov	r0, r6
 3308 00f4 FFF7FEFF 		bl	lv_obj_scroll_by
 3309              	.LVL320:
 3310              	.LBE326:
 179:Drivers/lvgl/src/core/lv_indev_scroll.c ****         /*Revert if scrolled in*/
 3311              		.loc 1 179 5 view .LVU1093
 179:Drivers/lvgl/src/core/lv_indev_scroll.c ****         /*Revert if scrolled in*/
 3312              		.loc 1 179 7 is_stmt 0 view .LVU1094
 3313 00f8 E369     		ldr	r3, [r4, #28]
 3314 00fa 002B     		cmp	r3, #0
 3315 00fc 8AD1     		bne	.L285
 182:Drivers/lvgl/src/core/lv_indev_scroll.c ****             lv_coord_t st = lv_obj_get_scroll_top(scroll_obj);
 3316              		.loc 1 182 9 is_stmt 1 view .LVU1095
 182:Drivers/lvgl/src/core/lv_indev_scroll.c ****             lv_coord_t st = lv_obj_get_scroll_top(scroll_obj);
 3317              		.loc 1 182 11 is_stmt 0 view .LVU1096
 3318 00fe B9F1000F 		cmp	r9, #0
 3319 0102 4CD0     		beq	.L314
 3320              	.LVL321:
 3321              	.L319:
 3322              	.LBB335:
 197:Drivers/lvgl/src/core/lv_indev_scroll.c ****             lv_coord_t sr = lv_obj_get_scroll_right(scroll_obj);
 3323              		.loc 1 197 13 is_stmt 1 view .LVU1097
 197:Drivers/lvgl/src/core/lv_indev_scroll.c ****             lv_coord_t sr = lv_obj_get_scroll_right(scroll_obj);
 3324              		.loc 1 197 29 is_stmt 0 view .LVU1098
 3325 0104 3046     		mov	r0, r6
 3326 0106 FFF7FEFF 		bl	lv_obj_get_scroll_left
 3327              	.LVL322:
 3328 010a 0546     		mov	r5, r0
 3329              	.LVL323:
 198:Drivers/lvgl/src/core/lv_indev_scroll.c ****             if(sl > 0 || sr > 0) {
 3330              		.loc 1 198 13 is_stmt 1 view .LVU1099
 198:Drivers/lvgl/src/core/lv_indev_scroll.c ****             if(sl > 0 || sr > 0) {
 3331              		.loc 1 198 29 is_stmt 0 view .LVU1100
 3332 010c 3046     		mov	r0, r6
 3333 010e FFF7FEFF 		bl	lv_obj_get_scroll_right
 3334              	.LVL324:
 199:Drivers/lvgl/src/core/lv_indev_scroll.c ****                 if(sl < 0) {
 3335              		.loc 1 199 13 is_stmt 1 view .LVU1101
 199:Drivers/lvgl/src/core/lv_indev_scroll.c ****                 if(sl < 0) {
 3336              		.loc 1 199 15 is_stmt 0 view .LVU1102
 3337 0112 002D     		cmp	r5, #0
 3338 0114 40F3E780 		ble	.L354
 203:Drivers/lvgl/src/core/lv_indev_scroll.c ****                     lv_obj_scroll_by(scroll_obj, -sr, 0, LV_ANIM_ON);
ARM GAS  /var/folders/lp/x54gwt890xv47sdkqj1k04q40000gn/T//cc5DBzfs.s 			page 94


 3339              		.loc 1 203 22 is_stmt 1 view .LVU1103
 203:Drivers/lvgl/src/core/lv_indev_scroll.c ****                     lv_obj_scroll_by(scroll_obj, -sr, 0, LV_ANIM_ON);
 3340              		.loc 1 203 24 is_stmt 0 view .LVU1104
 3341 0118 0028     		cmp	r0, #0
 3342 011a A4DA     		bge	.L315
 204:Drivers/lvgl/src/core/lv_indev_scroll.c ****                 }
 3343              		.loc 1 204 21 is_stmt 1 view .LVU1105
 3344 011c 4142     		rsbs	r1, r0, #0
 3345 011e 0123     		movs	r3, #1
 3346 0120 09B2     		sxth	r1, r1
 3347 0122 0022     		movs	r2, #0
 3348 0124 3046     		mov	r0, r6
 3349              	.LVL325:
 204:Drivers/lvgl/src/core/lv_indev_scroll.c ****                 }
 3350              		.loc 1 204 21 is_stmt 0 view .LVU1106
 3351 0126 FFF7FEFF 		bl	lv_obj_scroll_by
 3352              	.LVL326:
 3353 012a 9CE7     		b	.L315
 3354              	.LVL327:
 3355              	.L352:
 204:Drivers/lvgl/src/core/lv_indev_scroll.c ****                 }
 3356              		.loc 1 204 21 view .LVU1107
 3357              	.LBE335:
 130:Drivers/lvgl/src/core/lv_indev_scroll.c ****         /*If no snapping "throw"*/
 3358              		.loc 1 130 9 is_stmt 1 view .LVU1108
 130:Drivers/lvgl/src/core/lv_indev_scroll.c ****         /*If no snapping "throw"*/
 3359              		.loc 1 130 49 is_stmt 0 view .LVU1109
 3360 012c 4FF0000B 		mov	fp, #0
 3361 0130 A4F81CB0 		strh	fp, [r4, #28]	@ movhi
 132:Drivers/lvgl/src/core/lv_indev_scroll.c ****             proc->types.pointer.scroll_throw_vect.y =
 3362              		.loc 1 132 9 is_stmt 1 view .LVU1110
 132:Drivers/lvgl/src/core/lv_indev_scroll.c ****             proc->types.pointer.scroll_throw_vect.y =
 3363              		.loc 1 132 11 is_stmt 0 view .LVU1111
 3364 0134 0028     		cmp	r0, #0
 3365 0136 47D1     		bne	.L291
 3366              	.LBB336:
 133:Drivers/lvgl/src/core/lv_indev_scroll.c ****                 proc->types.pointer.scroll_throw_vect.y * (100 - scroll_throw) / 100;
 3367              		.loc 1 133 13 is_stmt 1 view .LVU1112
 134:Drivers/lvgl/src/core/lv_indev_scroll.c **** 
 3368              		.loc 1 134 54 is_stmt 0 view .LVU1113
 3369 0138 B4F91E30 		ldrsh	r3, [r4, #30]
 134:Drivers/lvgl/src/core/lv_indev_scroll.c **** 
 3370              		.loc 1 134 80 view .LVU1114
 3371 013c 7E4A     		ldr	r2, .L357
 134:Drivers/lvgl/src/core/lv_indev_scroll.c **** 
 3372              		.loc 1 134 64 view .LVU1115
 3373 013e C5F16405 		rsb	r5, r5, #100
 3374              	.LVL328:
 134:Drivers/lvgl/src/core/lv_indev_scroll.c **** 
 3375              		.loc 1 134 57 view .LVU1116
 3376 0142 05FB03F3 		mul	r3, r5, r3
 134:Drivers/lvgl/src/core/lv_indev_scroll.c **** 
 3377              		.loc 1 134 80 view .LVU1117
 3378 0146 82FB0312 		smull	r1, r2, r2, r3
 3379 014a DB17     		asrs	r3, r3, #31
 3380 014c C3EB6213 		rsb	r3, r3, r2, asr #5
 133:Drivers/lvgl/src/core/lv_indev_scroll.c ****                 proc->types.pointer.scroll_throw_vect.y * (100 - scroll_throw) / 100;
ARM GAS  /var/folders/lp/x54gwt890xv47sdkqj1k04q40000gn/T//cc5DBzfs.s 			page 95


 3381              		.loc 1 133 53 view .LVU1118
 3382 0150 E383     		strh	r3, [r4, #30]	@ movhi
 136:Drivers/lvgl/src/core/lv_indev_scroll.c ****             lv_coord_t st = lv_obj_get_scroll_top(scroll_obj);
 3383              		.loc 1 136 13 is_stmt 1 view .LVU1119
 136:Drivers/lvgl/src/core/lv_indev_scroll.c ****             lv_coord_t st = lv_obj_get_scroll_top(scroll_obj);
 3384              		.loc 1 136 29 is_stmt 0 view .LVU1120
 3385 0152 3046     		mov	r0, r6
 3386              	.LVL329:
 136:Drivers/lvgl/src/core/lv_indev_scroll.c ****             lv_coord_t st = lv_obj_get_scroll_top(scroll_obj);
 3387              		.loc 1 136 29 view .LVU1121
 3388 0154 FFF7FEFF 		bl	lv_obj_get_scroll_bottom
 3389              	.LVL330:
 3390 0158 8146     		mov	r9, r0
 3391              	.LVL331:
 137:Drivers/lvgl/src/core/lv_indev_scroll.c **** 
 3392              		.loc 1 137 13 is_stmt 1 view .LVU1122
 137:Drivers/lvgl/src/core/lv_indev_scroll.c **** 
 3393              		.loc 1 137 29 is_stmt 0 view .LVU1123
 3394 015a 3046     		mov	r0, r6
 3395 015c FFF7FEFF 		bl	lv_obj_get_scroll_top
 3396              	.LVL332:
 3397              	.LBB337:
 3398              	.LBB338:
 615:Drivers/lvgl/src/core/lv_indev_scroll.c ****         /*If there is snapping in the current direction don't use the elastic factor because
 3399              		.loc 1 615 8 view .LVU1124
 3400 0160 2021     		movs	r1, #32
 3401              	.LBE338:
 3402              	.LBE337:
 137:Drivers/lvgl/src/core/lv_indev_scroll.c **** 
 3403              		.loc 1 137 29 view .LVU1125
 3404 0162 0546     		mov	r5, r0
 3405              	.LVL333:
 139:Drivers/lvgl/src/core/lv_indev_scroll.c ****                                                                    LV_DIR_VER);
 3406              		.loc 1 139 13 is_stmt 1 view .LVU1126
 3407              	.LBB342:
 3408              	.LBB339:
 615:Drivers/lvgl/src/core/lv_indev_scroll.c ****         /*If there is snapping in the current direction don't use the elastic factor because
 3409              		.loc 1 615 8 is_stmt 0 view .LVU1127
 3410 0164 3046     		mov	r0, r6
 3411              	.LBE339:
 3412              	.LBE342:
 139:Drivers/lvgl/src/core/lv_indev_scroll.c ****                                                                    LV_DIR_VER);
 3413              		.loc 1 139 55 view .LVU1128
 3414 0166 B4F91EB0 		ldrsh	fp, [r4, #30]
 3415              	.LVL334:
 3416              	.LBB343:
 3417              	.LBI337:
 612:Drivers/lvgl/src/core/lv_indev_scroll.c ****                                lv_dir_t dir)
 3418              		.loc 1 612 19 is_stmt 1 view .LVU1129
 3419              	.LBB340:
 615:Drivers/lvgl/src/core/lv_indev_scroll.c ****         /*If there is snapping in the current direction don't use the elastic factor because
 3420              		.loc 1 615 5 view .LVU1130
 615:Drivers/lvgl/src/core/lv_indev_scroll.c ****         /*If there is snapping in the current direction don't use the elastic factor because
 3421              		.loc 1 615 8 is_stmt 0 view .LVU1131
 3422 016a FFF7FEFF 		bl	lv_obj_has_flag
 3423              	.LVL335:
 615:Drivers/lvgl/src/core/lv_indev_scroll.c ****         /*If there is snapping in the current direction don't use the elastic factor because
ARM GAS  /var/folders/lp/x54gwt890xv47sdkqj1k04q40000gn/T//cc5DBzfs.s 			page 96


 3424              		.loc 1 615 7 discriminator 1 view .LVU1132
 3425 016e 0028     		cmp	r0, #0
 3426 0170 40F0AF80 		bne	.L355
 683:Drivers/lvgl/src/core/lv_indev_scroll.c ****         if(scroll_start - diff < 0) diff = scroll_start;
 3427              		.loc 1 683 9 is_stmt 1 view .LVU1133
 683:Drivers/lvgl/src/core/lv_indev_scroll.c ****         if(scroll_start - diff < 0) diff = scroll_start;
 3428              		.loc 1 683 11 is_stmt 0 view .LVU1134
 3429 0174 19EB0B0F 		cmn	r9, fp
 683:Drivers/lvgl/src/core/lv_indev_scroll.c ****         if(scroll_start - diff < 0) diff = scroll_start;
 3430              		.loc 1 683 35 is_stmt 1 discriminator 1 view .LVU1135
 683:Drivers/lvgl/src/core/lv_indev_scroll.c ****         if(scroll_start - diff < 0) diff = scroll_start;
 3431              		.loc 1 683 40 is_stmt 0 discriminator 1 view .LVU1136
 3432 0178 44BF     		itt	mi
 3433 017a C9F10009 		rsbmi	r9, r9, #0
 3434              	.LVL336:
 683:Drivers/lvgl/src/core/lv_indev_scroll.c ****         if(scroll_start - diff < 0) diff = scroll_start;
 3435              		.loc 1 683 40 discriminator 1 view .LVU1137
 3436 017e 0FFA89FB 		sxthmi	fp, r9
 3437              	.LVL337:
 684:Drivers/lvgl/src/core/lv_indev_scroll.c ****     }
 3438              		.loc 1 684 9 is_stmt 1 view .LVU1138
 684:Drivers/lvgl/src/core/lv_indev_scroll.c ****     }
 3439              		.loc 1 684 11 is_stmt 0 view .LVU1139
 3440 0182 5D45     		cmp	r5, fp
 3441 0184 A8BF     		it	ge
 3442 0186 5D46     		movge	r5, fp
 3443              	.LVL338:
 3444              	.L293:
 684:Drivers/lvgl/src/core/lv_indev_scroll.c ****     }
 3445              		.loc 1 684 11 view .LVU1140
 3446              	.LBE340:
 3447              	.LBE343:
 142:Drivers/lvgl/src/core/lv_indev_scroll.c ****         }
 3448              		.loc 1 142 13 view .LVU1141
 3449 0188 0023     		movs	r3, #0
 3450 018a 1946     		mov	r1, r3
 139:Drivers/lvgl/src/core/lv_indev_scroll.c ****                                                                    LV_DIR_VER);
 3451              		.loc 1 139 53 discriminator 1 view .LVU1142
 3452 018c E583     		strh	r5, [r4, #30]	@ movhi
 142:Drivers/lvgl/src/core/lv_indev_scroll.c ****         }
 3453              		.loc 1 142 13 is_stmt 1 view .LVU1143
 3454 018e 2A46     		mov	r2, r5
 3455 0190 3046     		mov	r0, r6
 3456 0192 FFF7FEFF 		bl	lv_obj_scroll_by
 3457              	.LVL339:
 3458              	.LBE336:
 179:Drivers/lvgl/src/core/lv_indev_scroll.c ****         /*Revert if scrolled in*/
 3459              		.loc 1 179 5 view .LVU1144
 179:Drivers/lvgl/src/core/lv_indev_scroll.c ****         /*Revert if scrolled in*/
 3460              		.loc 1 179 7 is_stmt 0 view .LVU1145
 3461 0196 E369     		ldr	r3, [r4, #28]
 3462 0198 002B     		cmp	r3, #0
 3463 019a 7FF43BAF 		bne	.L285
 3464              	.LVL340:
 3465              	.L314:
 3466              	.LBB345:
 183:Drivers/lvgl/src/core/lv_indev_scroll.c ****             lv_coord_t sb = lv_obj_get_scroll_bottom(scroll_obj);
ARM GAS  /var/folders/lp/x54gwt890xv47sdkqj1k04q40000gn/T//cc5DBzfs.s 			page 97


 3467              		.loc 1 183 13 is_stmt 1 view .LVU1146
 183:Drivers/lvgl/src/core/lv_indev_scroll.c ****             lv_coord_t sb = lv_obj_get_scroll_bottom(scroll_obj);
 3468              		.loc 1 183 29 is_stmt 0 view .LVU1147
 3469 019e 3046     		mov	r0, r6
 3470 01a0 FFF7FEFF 		bl	lv_obj_get_scroll_top
 3471              	.LVL341:
 3472 01a4 0546     		mov	r5, r0
 3473              	.LVL342:
 184:Drivers/lvgl/src/core/lv_indev_scroll.c ****             if(st > 0 || sb > 0) {
 3474              		.loc 1 184 13 is_stmt 1 view .LVU1148
 184:Drivers/lvgl/src/core/lv_indev_scroll.c ****             if(st > 0 || sb > 0) {
 3475              		.loc 1 184 29 is_stmt 0 view .LVU1149
 3476 01a6 3046     		mov	r0, r6
 3477 01a8 FFF7FEFF 		bl	lv_obj_get_scroll_bottom
 3478              	.LVL343:
 185:Drivers/lvgl/src/core/lv_indev_scroll.c ****                 if(st < 0) {
 3479              		.loc 1 185 13 is_stmt 1 view .LVU1150
 185:Drivers/lvgl/src/core/lv_indev_scroll.c ****                 if(st < 0) {
 3480              		.loc 1 185 15 is_stmt 0 view .LVU1151
 3481 01ac 002D     		cmp	r5, #0
 3482 01ae 40F3A780 		ble	.L356
 189:Drivers/lvgl/src/core/lv_indev_scroll.c ****                     lv_obj_scroll_by(scroll_obj, 0, -sb, LV_ANIM_ON);
 3483              		.loc 1 189 22 is_stmt 1 view .LVU1152
 189:Drivers/lvgl/src/core/lv_indev_scroll.c ****                     lv_obj_scroll_by(scroll_obj, 0, -sb, LV_ANIM_ON);
 3484              		.loc 1 189 24 is_stmt 0 view .LVU1153
 3485 01b2 0028     		cmp	r0, #0
 3486 01b4 BFF654AF 		bge	.L302
 190:Drivers/lvgl/src/core/lv_indev_scroll.c ****                 }
 3487              		.loc 1 190 21 is_stmt 1 view .LVU1154
 3488 01b8 4242     		rsbs	r2, r0, #0
 3489 01ba 12B2     		sxth	r2, r2
 3490 01bc 0123     		movs	r3, #1
 3491 01be 0021     		movs	r1, #0
 3492 01c0 3046     		mov	r0, r6
 3493              	.LVL344:
 190:Drivers/lvgl/src/core/lv_indev_scroll.c ****                 }
 3494              		.loc 1 190 21 is_stmt 0 view .LVU1155
 3495 01c2 FFF7FEFF 		bl	lv_obj_scroll_by
 3496              	.LVL345:
 3497 01c6 4BE7     		b	.L302
 3498              	.LVL346:
 3499              	.L291:
 190:Drivers/lvgl/src/core/lv_indev_scroll.c ****                 }
 3500              		.loc 1 190 21 view .LVU1156
 3501              	.LBE345:
 3502              	.LBB346:
 146:Drivers/lvgl/src/core/lv_indev_scroll.c ****             proc->types.pointer.scroll_throw_vect.y = 0;
 3503              		.loc 1 146 13 is_stmt 1 view .LVU1157
 3504 01c8 B4F91E50 		ldrsh	r5, [r4, #30]
 3505              	.LVL347:
 3506              	.LBB347:
 3507              	.LBI347:
 581:Drivers/lvgl/src/core/lv_indev_scroll.c **** {
 3508              		.loc 1 581 19 view .LVU1158
 3509              	.LBB348:
 583:Drivers/lvgl/src/core/lv_indev_scroll.c ****     lv_coord_t move = 0;
 3510              		.loc 1 583 5 view .LVU1159
ARM GAS  /var/folders/lp/x54gwt890xv47sdkqj1k04q40000gn/T//cc5DBzfs.s 			page 98


 584:Drivers/lvgl/src/core/lv_indev_scroll.c **** 
 3511              		.loc 1 584 5 view .LVU1160
 586:Drivers/lvgl/src/core/lv_indev_scroll.c ****     lv_coord_t scroll_throw = indev_act->driver->scroll_throw;
 3512              		.loc 1 586 5 view .LVU1161
 586:Drivers/lvgl/src/core/lv_indev_scroll.c ****     lv_coord_t scroll_throw = indev_act->driver->scroll_throw;
 3513              		.loc 1 586 30 is_stmt 0 view .LVU1162
 3514 01cc FFF7FEFF 		bl	lv_indev_get_act
 3515              	.LVL348:
 587:Drivers/lvgl/src/core/lv_indev_scroll.c **** 
 3516              		.loc 1 587 5 is_stmt 1 view .LVU1163
 587:Drivers/lvgl/src/core/lv_indev_scroll.c **** 
 3517              		.loc 1 587 48 is_stmt 0 view .LVU1164
 3518 01d0 0368     		ldr	r3, [r0]
 3519 01d2 597E     		ldrb	r1, [r3, #25]	@ zero_extendqisi2
 3520              	.LVL349:
 589:Drivers/lvgl/src/core/lv_indev_scroll.c ****         move += y;
 3521              		.loc 1 589 5 is_stmt 1 view .LVU1165
 589:Drivers/lvgl/src/core/lv_indev_scroll.c ****         move += y;
 3522              		.loc 1 589 11 view .LVU1166
 3523 01d4 002D     		cmp	r5, #0
 3524 01d6 00F0AA80 		beq	.L321
 591:Drivers/lvgl/src/core/lv_indev_scroll.c ****     }
 3525              		.loc 1 591 38 is_stmt 0 view .LVU1167
 3526 01da 5748     		ldr	r0, .L357
 3527              	.LVL350:
 591:Drivers/lvgl/src/core/lv_indev_scroll.c ****     }
 3528              		.loc 1 591 22 view .LVU1168
 3529 01dc C1F16401 		rsb	r1, r1, #100
 584:Drivers/lvgl/src/core/lv_indev_scroll.c **** 
 3530              		.loc 1 584 16 view .LVU1169
 3531 01e0 5B46     		mov	r3, fp
 3532              	.LVL351:
 3533              	.L298:
 590:Drivers/lvgl/src/core/lv_indev_scroll.c ****         y = y * (100 - scroll_throw) / 100;
 3534              		.loc 1 590 9 is_stmt 1 view .LVU1170
 590:Drivers/lvgl/src/core/lv_indev_scroll.c ****         y = y * (100 - scroll_throw) / 100;
 3535              		.loc 1 590 14 is_stmt 0 view .LVU1171
 3536 01e2 2B44     		add	r3, r3, r5
 3537              	.LVL352:
 591:Drivers/lvgl/src/core/lv_indev_scroll.c ****     }
 3538              		.loc 1 591 15 view .LVU1172
 3539 01e4 01FB05F5 		mul	r5, r1, r5
 3540              	.LVL353:
 591:Drivers/lvgl/src/core/lv_indev_scroll.c ****     }
 3541              		.loc 1 591 38 view .LVU1173
 3542 01e8 80FB05C2 		smull	ip, r2, r0, r5
 3543 01ec ED17     		asrs	r5, r5, #31
 3544 01ee C5EB6215 		rsb	r5, r5, r2, asr #5
 591:Drivers/lvgl/src/core/lv_indev_scroll.c ****     }
 3545              		.loc 1 591 11 view .LVU1174
 3546 01f2 2DB2     		sxth	r5, r5
 590:Drivers/lvgl/src/core/lv_indev_scroll.c ****         y = y * (100 - scroll_throw) / 100;
 3547              		.loc 1 590 14 view .LVU1175
 3548 01f4 1BB2     		sxth	r3, r3
 3549              	.LVL354:
 591:Drivers/lvgl/src/core/lv_indev_scroll.c ****     }
 3550              		.loc 1 591 9 is_stmt 1 view .LVU1176
ARM GAS  /var/folders/lp/x54gwt890xv47sdkqj1k04q40000gn/T//cc5DBzfs.s 			page 99


 589:Drivers/lvgl/src/core/lv_indev_scroll.c ****         move += y;
 3551              		.loc 1 589 11 view .LVU1177
 3552 01f6 002D     		cmp	r5, #0
 3553 01f8 F3D1     		bne	.L298
 3554              	.LVL355:
 3555              	.L349:
 589:Drivers/lvgl/src/core/lv_indev_scroll.c ****         move += y;
 3556              		.loc 1 589 11 is_stmt 0 view .LVU1178
 3557              	.LBE348:
 3558              	.LBE347:
 3559              	.LBB351:
 3560              	.LBB352:
 559:Drivers/lvgl/src/core/lv_indev_scroll.c ****             *diff_y = proc->types.pointer.scroll_area.y1 - proc->types.pointer.scroll_sum.y;
 3561              		.loc 1 559 42 view .LVU1179
 3562 01fa B4F91A00 		ldrsh	r0, [r4, #26]
 559:Drivers/lvgl/src/core/lv_indev_scroll.c ****             *diff_y = proc->types.pointer.scroll_area.y1 - proc->types.pointer.scroll_sum.y;
 3563              		.loc 1 559 88 view .LVU1180
 3564 01fe B4F93610 		ldrsh	r1, [r4, #54]
 3565              	.LBE352:
 3566              	.LBE351:
 3567              	.LBB357:
 3568              	.LBB349:
 589:Drivers/lvgl/src/core/lv_indev_scroll.c ****         move += y;
 3569              		.loc 1 589 11 view .LVU1181
 3570 0202 1A46     		mov	r2, r3
 593:Drivers/lvgl/src/core/lv_indev_scroll.c **** }
 3571              		.loc 1 593 5 is_stmt 1 view .LVU1182
 3572              	.LVL356:
 593:Drivers/lvgl/src/core/lv_indev_scroll.c **** }
 3573              		.loc 1 593 5 is_stmt 0 view .LVU1183
 3574              	.LBE349:
 3575              	.LBE357:
 147:Drivers/lvgl/src/core/lv_indev_scroll.c ****             scroll_limit_diff(proc, NULL, &diff_y);
 3576              		.loc 1 147 13 is_stmt 1 view .LVU1184
 3577              	.LBB358:
 3578              	.LBB353:
 559:Drivers/lvgl/src/core/lv_indev_scroll.c ****             *diff_y = proc->types.pointer.scroll_area.y1 - proc->types.pointer.scroll_sum.y;
 3579              		.loc 1 559 45 is_stmt 0 view .LVU1185
 3580 0204 0244     		add	r2, r2, r0
 3581              	.LBE353:
 3582              	.LBE358:
 147:Drivers/lvgl/src/core/lv_indev_scroll.c ****             scroll_limit_diff(proc, NULL, &diff_y);
 3583              		.loc 1 147 53 view .LVU1186
 3584 0206 0025     		movs	r5, #0
 3585              	.LBB359:
 3586              	.LBB354:
 559:Drivers/lvgl/src/core/lv_indev_scroll.c ****             *diff_y = proc->types.pointer.scroll_area.y1 - proc->types.pointer.scroll_sum.y;
 3587              		.loc 1 559 11 view .LVU1187
 3588 0208 8A42     		cmp	r2, r1
 3589              	.LBE354:
 3590              	.LBE359:
 147:Drivers/lvgl/src/core/lv_indev_scroll.c ****             scroll_limit_diff(proc, NULL, &diff_y);
 3591              		.loc 1 147 53 view .LVU1188
 3592 020a E583     		strh	r5, [r4, #30]	@ movhi
 148:Drivers/lvgl/src/core/lv_indev_scroll.c ****             lv_coord_t y = find_snap_point_y(scroll_obj, LV_COORD_MIN, LV_COORD_MAX, diff_y);
 3593              		.loc 1 148 13 is_stmt 1 view .LVU1189
 3594              	.LVL357:
ARM GAS  /var/folders/lp/x54gwt890xv47sdkqj1k04q40000gn/T//cc5DBzfs.s 			page 100


 3595              	.LBB360:
 3596              	.LBI351:
 556:Drivers/lvgl/src/core/lv_indev_scroll.c **** {
 3597              		.loc 1 556 13 view .LVU1190
 3598              	.LBB355:
 558:Drivers/lvgl/src/core/lv_indev_scroll.c ****         if(proc->types.pointer.scroll_sum.y + *diff_y < proc->types.pointer.scroll_area.y1) {
 3599              		.loc 1 558 5 view .LVU1191
 559:Drivers/lvgl/src/core/lv_indev_scroll.c ****             *diff_y = proc->types.pointer.scroll_area.y1 - proc->types.pointer.scroll_sum.y;
 3600              		.loc 1 559 9 view .LVU1192
 559:Drivers/lvgl/src/core/lv_indev_scroll.c ****             *diff_y = proc->types.pointer.scroll_area.y1 - proc->types.pointer.scroll_sum.y;
 3601              		.loc 1 559 11 is_stmt 0 view .LVU1193
 3602 020c 02DA     		bge	.L299
 560:Drivers/lvgl/src/core/lv_indev_scroll.c ****         }
 3603              		.loc 1 560 13 is_stmt 1 view .LVU1194
 560:Drivers/lvgl/src/core/lv_indev_scroll.c ****         }
 3604              		.loc 1 560 58 is_stmt 0 view .LVU1195
 3605 020e 091A     		subs	r1, r1, r0
 3606 0210 0BB2     		sxth	r3, r1
 3607              	.LVL358:
 563:Drivers/lvgl/src/core/lv_indev_scroll.c ****             *diff_y = proc->types.pointer.scroll_area.y2 - proc->types.pointer.scroll_sum.y;
 3608              		.loc 1 563 45 view .LVU1196
 3609 0212 1A18     		adds	r2, r3, r0
 3610              	.L299:
 563:Drivers/lvgl/src/core/lv_indev_scroll.c ****             *diff_y = proc->types.pointer.scroll_area.y2 - proc->types.pointer.scroll_sum.y;
 3611              		.loc 1 563 9 is_stmt 1 view .LVU1197
 563:Drivers/lvgl/src/core/lv_indev_scroll.c ****             *diff_y = proc->types.pointer.scroll_area.y2 - proc->types.pointer.scroll_sum.y;
 3612              		.loc 1 563 88 is_stmt 0 view .LVU1198
 3613 0214 B4F93A10 		ldrsh	r1, [r4, #58]
 563:Drivers/lvgl/src/core/lv_indev_scroll.c ****             *diff_y = proc->types.pointer.scroll_area.y2 - proc->types.pointer.scroll_sum.y;
 3614              		.loc 1 563 11 view .LVU1199
 3615 0218 9142     		cmp	r1, r2
 564:Drivers/lvgl/src/core/lv_indev_scroll.c ****         }
 3616              		.loc 1 564 58 view .LVU1200
 3617 021a BEBF     		ittt	lt
 3618 021c 091A     		sublt	r1, r1, r0
 3619 021e 8DB2     		uxthlt	r5, r1
 3620 0220 0BB2     		sxthlt	r3, r1
 3621              	.LVL359:
 564:Drivers/lvgl/src/core/lv_indev_scroll.c ****         }
 3622              		.loc 1 564 58 view .LVU1201
 3623              	.LBE355:
 3624              	.LBE360:
 149:Drivers/lvgl/src/core/lv_indev_scroll.c ****             lv_obj_scroll_by(scroll_obj, 0, diff_y + y, LV_ANIM_ON);
 3625              		.loc 1 149 28 view .LVU1202
 3626 0222 41F6FF72 		movw	r2, #8191
 3627 0226 4549     		ldr	r1, .L357+4
 3628 0228 3046     		mov	r0, r6
 150:Drivers/lvgl/src/core/lv_indev_scroll.c ****         }
 3629              		.loc 1 150 52 view .LVU1203
 3630 022a A8BF     		it	ge
 3631 022c 9DB2     		uxthge	r5, r3
 3632              	.LBB361:
 3633              	.LBB356:
 564:Drivers/lvgl/src/core/lv_indev_scroll.c ****         }
 3634              		.loc 1 564 13 is_stmt 1 view .LVU1204
 3635              	.LVL360:
 568:Drivers/lvgl/src/core/lv_indev_scroll.c ****         if(proc->types.pointer.scroll_sum.x + *diff_x < proc->types.pointer.scroll_area.x1) {
ARM GAS  /var/folders/lp/x54gwt890xv47sdkqj1k04q40000gn/T//cc5DBzfs.s 			page 101


 3636              		.loc 1 568 5 view .LVU1205
 568:Drivers/lvgl/src/core/lv_indev_scroll.c ****         if(proc->types.pointer.scroll_sum.x + *diff_x < proc->types.pointer.scroll_area.x1) {
 3637              		.loc 1 568 5 is_stmt 0 view .LVU1206
 3638              	.LBE356:
 3639              	.LBE361:
 149:Drivers/lvgl/src/core/lv_indev_scroll.c ****             lv_obj_scroll_by(scroll_obj, 0, diff_y + y, LV_ANIM_ON);
 3640              		.loc 1 149 13 is_stmt 1 view .LVU1207
 149:Drivers/lvgl/src/core/lv_indev_scroll.c ****             lv_obj_scroll_by(scroll_obj, 0, diff_y + y, LV_ANIM_ON);
 3641              		.loc 1 149 28 is_stmt 0 view .LVU1208
 3642 022e FFF7FEFF 		bl	find_snap_point_y
 3643              	.LVL361:
 150:Drivers/lvgl/src/core/lv_indev_scroll.c ****         }
 3644              		.loc 1 150 13 is_stmt 1 view .LVU1209
 150:Drivers/lvgl/src/core/lv_indev_scroll.c ****         }
 3645              		.loc 1 150 52 is_stmt 0 view .LVU1210
 3646 0232 2A18     		adds	r2, r5, r0
 150:Drivers/lvgl/src/core/lv_indev_scroll.c ****         }
 3647              		.loc 1 150 13 view .LVU1211
 3648 0234 0123     		movs	r3, #1
 3649 0236 12B2     		sxth	r2, r2
 3650 0238 0021     		movs	r1, #0
 3651 023a 3046     		mov	r0, r6
 3652              	.LVL362:
 150:Drivers/lvgl/src/core/lv_indev_scroll.c ****         }
 3653              		.loc 1 150 13 view .LVU1212
 3654 023c FFF7FEFF 		bl	lv_obj_scroll_by
 3655              	.LVL363:
 150:Drivers/lvgl/src/core/lv_indev_scroll.c ****         }
 3656              		.loc 1 150 13 view .LVU1213
 3657              	.LBE346:
 179:Drivers/lvgl/src/core/lv_indev_scroll.c ****         /*Revert if scrolled in*/
 3658              		.loc 1 179 5 is_stmt 1 view .LVU1214
 179:Drivers/lvgl/src/core/lv_indev_scroll.c ****         /*Revert if scrolled in*/
 3659              		.loc 1 179 7 is_stmt 0 view .LVU1215
 3660 0240 E369     		ldr	r3, [r4, #28]
 3661 0242 002B     		cmp	r3, #0
 3662 0244 7FF4E6AE 		bne	.L285
 3663 0248 0AE7     		b	.L302
 3664              	.LVL364:
 3665              	.L304:
 3666              	.LBB363:
 170:Drivers/lvgl/src/core/lv_indev_scroll.c ****             proc->types.pointer.scroll_throw_vect.x = 0;
 3667              		.loc 1 170 13 is_stmt 1 view .LVU1216
 3668 024a B4F91C50 		ldrsh	r5, [r4, #28]
 3669              	.LVL365:
 3670              	.LBB364:
 3671              	.LBI364:
 597:Drivers/lvgl/src/core/lv_indev_scroll.c **** {
 3672              		.loc 1 597 19 view .LVU1217
 3673              	.LBB365:
 599:Drivers/lvgl/src/core/lv_indev_scroll.c ****     lv_coord_t move = 0;
 3674              		.loc 1 599 5 view .LVU1218
 600:Drivers/lvgl/src/core/lv_indev_scroll.c **** 
 3675              		.loc 1 600 5 view .LVU1219
 602:Drivers/lvgl/src/core/lv_indev_scroll.c ****     lv_coord_t scroll_throw = indev_act->driver->scroll_throw;
 3676              		.loc 1 602 5 view .LVU1220
 602:Drivers/lvgl/src/core/lv_indev_scroll.c ****     lv_coord_t scroll_throw = indev_act->driver->scroll_throw;
ARM GAS  /var/folders/lp/x54gwt890xv47sdkqj1k04q40000gn/T//cc5DBzfs.s 			page 102


 3677              		.loc 1 602 30 is_stmt 0 view .LVU1221
 3678 024e FFF7FEFF 		bl	lv_indev_get_act
 3679              	.LVL366:
 603:Drivers/lvgl/src/core/lv_indev_scroll.c **** 
 3680              		.loc 1 603 5 is_stmt 1 view .LVU1222
 603:Drivers/lvgl/src/core/lv_indev_scroll.c **** 
 3681              		.loc 1 603 48 is_stmt 0 view .LVU1223
 3682 0252 0368     		ldr	r3, [r0]
 3683 0254 597E     		ldrb	r1, [r3, #25]	@ zero_extendqisi2
 3684              	.LVL367:
 605:Drivers/lvgl/src/core/lv_indev_scroll.c ****         move += x;
 3685              		.loc 1 605 5 is_stmt 1 view .LVU1224
 605:Drivers/lvgl/src/core/lv_indev_scroll.c ****         move += x;
 3686              		.loc 1 605 11 view .LVU1225
 3687 0256 002D     		cmp	r5, #0
 3688 0258 6BD0     		beq	.L322
 607:Drivers/lvgl/src/core/lv_indev_scroll.c ****     }
 3689              		.loc 1 607 38 is_stmt 0 view .LVU1226
 3690 025a 3748     		ldr	r0, .L357
 3691              	.LVL368:
 607:Drivers/lvgl/src/core/lv_indev_scroll.c ****     }
 3692              		.loc 1 607 22 view .LVU1227
 3693 025c C1F16401 		rsb	r1, r1, #100
 600:Drivers/lvgl/src/core/lv_indev_scroll.c **** 
 3694              		.loc 1 600 16 view .LVU1228
 3695 0260 5B46     		mov	r3, fp
 3696              	.LVL369:
 3697              	.L310:
 606:Drivers/lvgl/src/core/lv_indev_scroll.c ****         x = x * (100 - scroll_throw) / 100;
 3698              		.loc 1 606 9 is_stmt 1 view .LVU1229
 606:Drivers/lvgl/src/core/lv_indev_scroll.c ****         x = x * (100 - scroll_throw) / 100;
 3699              		.loc 1 606 14 is_stmt 0 view .LVU1230
 3700 0262 2B44     		add	r3, r3, r5
 3701              	.LVL370:
 607:Drivers/lvgl/src/core/lv_indev_scroll.c ****     }
 3702              		.loc 1 607 15 view .LVU1231
 3703 0264 01FB05F5 		mul	r5, r1, r5
 3704              	.LVL371:
 607:Drivers/lvgl/src/core/lv_indev_scroll.c ****     }
 3705              		.loc 1 607 38 view .LVU1232
 3706 0268 80FB05C2 		smull	ip, r2, r0, r5
 3707 026c ED17     		asrs	r5, r5, #31
 3708 026e C5EB6215 		rsb	r5, r5, r2, asr #5
 607:Drivers/lvgl/src/core/lv_indev_scroll.c ****     }
 3709              		.loc 1 607 11 view .LVU1233
 3710 0272 2DB2     		sxth	r5, r5
 606:Drivers/lvgl/src/core/lv_indev_scroll.c ****         x = x * (100 - scroll_throw) / 100;
 3711              		.loc 1 606 14 view .LVU1234
 3712 0274 1BB2     		sxth	r3, r3
 3713              	.LVL372:
 607:Drivers/lvgl/src/core/lv_indev_scroll.c ****     }
 3714              		.loc 1 607 9 is_stmt 1 view .LVU1235
 605:Drivers/lvgl/src/core/lv_indev_scroll.c ****         move += x;
 3715              		.loc 1 605 11 view .LVU1236
 3716 0276 002D     		cmp	r5, #0
 3717 0278 F3D1     		bne	.L310
 3718              	.LVL373:
ARM GAS  /var/folders/lp/x54gwt890xv47sdkqj1k04q40000gn/T//cc5DBzfs.s 			page 103


 3719              	.L350:
 605:Drivers/lvgl/src/core/lv_indev_scroll.c ****         move += x;
 3720              		.loc 1 605 11 is_stmt 0 view .LVU1237
 3721              	.LBE365:
 3722              	.LBE364:
 3723              	.LBB368:
 3724              	.LBB369:
 569:Drivers/lvgl/src/core/lv_indev_scroll.c ****             *diff_x = proc->types.pointer.scroll_area.x1 - proc->types.pointer.scroll_sum.x;
 3725              		.loc 1 569 42 view .LVU1238
 3726 027a B4F91800 		ldrsh	r0, [r4, #24]
 569:Drivers/lvgl/src/core/lv_indev_scroll.c ****             *diff_x = proc->types.pointer.scroll_area.x1 - proc->types.pointer.scroll_sum.x;
 3727              		.loc 1 569 88 view .LVU1239
 3728 027e B4F93410 		ldrsh	r1, [r4, #52]
 3729              	.LBE369:
 3730              	.LBE368:
 3731              	.LBB374:
 3732              	.LBB366:
 605:Drivers/lvgl/src/core/lv_indev_scroll.c ****         move += x;
 3733              		.loc 1 605 11 view .LVU1240
 3734 0282 1A46     		mov	r2, r3
 609:Drivers/lvgl/src/core/lv_indev_scroll.c **** }
 3735              		.loc 1 609 5 is_stmt 1 view .LVU1241
 3736              	.LVL374:
 609:Drivers/lvgl/src/core/lv_indev_scroll.c **** }
 3737              		.loc 1 609 5 is_stmt 0 view .LVU1242
 3738              	.LBE366:
 3739              	.LBE374:
 171:Drivers/lvgl/src/core/lv_indev_scroll.c ****             scroll_limit_diff(proc, &diff_x, NULL);
 3740              		.loc 1 171 13 is_stmt 1 view .LVU1243
 3741              	.LBB375:
 3742              	.LBB370:
 569:Drivers/lvgl/src/core/lv_indev_scroll.c ****             *diff_x = proc->types.pointer.scroll_area.x1 - proc->types.pointer.scroll_sum.x;
 3743              		.loc 1 569 45 is_stmt 0 view .LVU1244
 3744 0284 0244     		add	r2, r2, r0
 3745              	.LBE370:
 3746              	.LBE375:
 171:Drivers/lvgl/src/core/lv_indev_scroll.c ****             scroll_limit_diff(proc, &diff_x, NULL);
 3747              		.loc 1 171 53 view .LVU1245
 3748 0286 0025     		movs	r5, #0
 3749              	.LBB376:
 3750              	.LBB371:
 569:Drivers/lvgl/src/core/lv_indev_scroll.c ****             *diff_x = proc->types.pointer.scroll_area.x1 - proc->types.pointer.scroll_sum.x;
 3751              		.loc 1 569 11 view .LVU1246
 3752 0288 8A42     		cmp	r2, r1
 3753              	.LBE371:
 3754              	.LBE376:
 171:Drivers/lvgl/src/core/lv_indev_scroll.c ****             scroll_limit_diff(proc, &diff_x, NULL);
 3755              		.loc 1 171 53 view .LVU1247
 3756 028a A583     		strh	r5, [r4, #28]	@ movhi
 172:Drivers/lvgl/src/core/lv_indev_scroll.c ****             lv_coord_t x = find_snap_point_x(scroll_obj, LV_COORD_MIN, LV_COORD_MAX, diff_x);
 3757              		.loc 1 172 13 is_stmt 1 view .LVU1248
 3758              	.LVL375:
 3759              	.LBB377:
 3760              	.LBI368:
 556:Drivers/lvgl/src/core/lv_indev_scroll.c **** {
 3761              		.loc 1 556 13 view .LVU1249
 3762              	.LBB372:
ARM GAS  /var/folders/lp/x54gwt890xv47sdkqj1k04q40000gn/T//cc5DBzfs.s 			page 104


 558:Drivers/lvgl/src/core/lv_indev_scroll.c ****         if(proc->types.pointer.scroll_sum.y + *diff_y < proc->types.pointer.scroll_area.y1) {
 3763              		.loc 1 558 5 view .LVU1250
 568:Drivers/lvgl/src/core/lv_indev_scroll.c ****         if(proc->types.pointer.scroll_sum.x + *diff_x < proc->types.pointer.scroll_area.x1) {
 3764              		.loc 1 568 5 view .LVU1251
 569:Drivers/lvgl/src/core/lv_indev_scroll.c ****             *diff_x = proc->types.pointer.scroll_area.x1 - proc->types.pointer.scroll_sum.x;
 3765              		.loc 1 569 9 view .LVU1252
 569:Drivers/lvgl/src/core/lv_indev_scroll.c ****             *diff_x = proc->types.pointer.scroll_area.x1 - proc->types.pointer.scroll_sum.x;
 3766              		.loc 1 569 11 is_stmt 0 view .LVU1253
 3767 028c 02DA     		bge	.L311
 570:Drivers/lvgl/src/core/lv_indev_scroll.c ****         }
 3768              		.loc 1 570 13 is_stmt 1 view .LVU1254
 570:Drivers/lvgl/src/core/lv_indev_scroll.c ****         }
 3769              		.loc 1 570 58 is_stmt 0 view .LVU1255
 3770 028e 091A     		subs	r1, r1, r0
 3771 0290 0BB2     		sxth	r3, r1
 3772              	.LVL376:
 573:Drivers/lvgl/src/core/lv_indev_scroll.c ****             *diff_x = proc->types.pointer.scroll_area.x2 - proc->types.pointer.scroll_sum.x;
 3773              		.loc 1 573 45 view .LVU1256
 3774 0292 1A18     		adds	r2, r3, r0
 3775              	.L311:
 573:Drivers/lvgl/src/core/lv_indev_scroll.c ****             *diff_x = proc->types.pointer.scroll_area.x2 - proc->types.pointer.scroll_sum.x;
 3776              		.loc 1 573 9 is_stmt 1 view .LVU1257
 573:Drivers/lvgl/src/core/lv_indev_scroll.c ****             *diff_x = proc->types.pointer.scroll_area.x2 - proc->types.pointer.scroll_sum.x;
 3777              		.loc 1 573 88 is_stmt 0 view .LVU1258
 3778 0294 B4F93810 		ldrsh	r1, [r4, #56]
 573:Drivers/lvgl/src/core/lv_indev_scroll.c ****             *diff_x = proc->types.pointer.scroll_area.x2 - proc->types.pointer.scroll_sum.x;
 3779              		.loc 1 573 11 view .LVU1259
 3780 0298 8A42     		cmp	r2, r1
 574:Drivers/lvgl/src/core/lv_indev_scroll.c ****         }
 3781              		.loc 1 574 58 view .LVU1260
 3782 029a C2BF     		ittt	gt
 3783 029c 091A     		subgt	r1, r1, r0
 3784 029e 8DB2     		uxthgt	r5, r1
 3785 02a0 0BB2     		sxthgt	r3, r1
 3786              	.LVL377:
 574:Drivers/lvgl/src/core/lv_indev_scroll.c ****         }
 3787              		.loc 1 574 58 view .LVU1261
 3788              	.LBE372:
 3789              	.LBE377:
 173:Drivers/lvgl/src/core/lv_indev_scroll.c ****             lv_obj_scroll_by(scroll_obj, x + diff_x, 0, LV_ANIM_ON);
 3790              		.loc 1 173 28 view .LVU1262
 3791 02a2 41F6FF72 		movw	r2, #8191
 3792 02a6 2549     		ldr	r1, .L357+4
 3793 02a8 3046     		mov	r0, r6
 174:Drivers/lvgl/src/core/lv_indev_scroll.c ****         }
 3794              		.loc 1 174 44 view .LVU1263
 3795 02aa D8BF     		it	le
 3796 02ac 9DB2     		uxthle	r5, r3
 3797              	.LBB378:
 3798              	.LBB373:
 574:Drivers/lvgl/src/core/lv_indev_scroll.c ****         }
 3799              		.loc 1 574 13 is_stmt 1 view .LVU1264
 3800              	.LVL378:
 574:Drivers/lvgl/src/core/lv_indev_scroll.c ****         }
 3801              		.loc 1 574 13 is_stmt 0 view .LVU1265
 3802              	.LBE373:
 3803              	.LBE378:
ARM GAS  /var/folders/lp/x54gwt890xv47sdkqj1k04q40000gn/T//cc5DBzfs.s 			page 105


 173:Drivers/lvgl/src/core/lv_indev_scroll.c ****             lv_obj_scroll_by(scroll_obj, x + diff_x, 0, LV_ANIM_ON);
 3804              		.loc 1 173 13 is_stmt 1 view .LVU1266
 173:Drivers/lvgl/src/core/lv_indev_scroll.c ****             lv_obj_scroll_by(scroll_obj, x + diff_x, 0, LV_ANIM_ON);
 3805              		.loc 1 173 28 is_stmt 0 view .LVU1267
 3806 02ae FFF7FEFF 		bl	find_snap_point_x
 3807              	.LVL379:
 174:Drivers/lvgl/src/core/lv_indev_scroll.c ****         }
 3808              		.loc 1 174 13 is_stmt 1 view .LVU1268
 174:Drivers/lvgl/src/core/lv_indev_scroll.c ****         }
 3809              		.loc 1 174 44 is_stmt 0 view .LVU1269
 3810 02b2 2918     		adds	r1, r5, r0
 174:Drivers/lvgl/src/core/lv_indev_scroll.c ****         }
 3811              		.loc 1 174 13 view .LVU1270
 3812 02b4 0123     		movs	r3, #1
 3813 02b6 09B2     		sxth	r1, r1
 3814 02b8 0022     		movs	r2, #0
 3815 02ba 3046     		mov	r0, r6
 3816              	.LVL380:
 174:Drivers/lvgl/src/core/lv_indev_scroll.c ****         }
 3817              		.loc 1 174 13 view .LVU1271
 3818 02bc FFF7FEFF 		bl	lv_obj_scroll_by
 3819              	.LVL381:
 174:Drivers/lvgl/src/core/lv_indev_scroll.c ****         }
 3820              		.loc 1 174 13 view .LVU1272
 3821              	.LBE363:
 179:Drivers/lvgl/src/core/lv_indev_scroll.c ****         /*Revert if scrolled in*/
 3822              		.loc 1 179 5 is_stmt 1 view .LVU1273
 179:Drivers/lvgl/src/core/lv_indev_scroll.c ****         /*Revert if scrolled in*/
 3823              		.loc 1 179 7 is_stmt 0 view .LVU1274
 3824 02c0 E369     		ldr	r3, [r4, #28]
 3825 02c2 002B     		cmp	r3, #0
 3826 02c4 7FF4A6AE 		bne	.L285
 182:Drivers/lvgl/src/core/lv_indev_scroll.c ****             lv_coord_t st = lv_obj_get_scroll_top(scroll_obj);
 3827              		.loc 1 182 9 is_stmt 1 view .LVU1275
 182:Drivers/lvgl/src/core/lv_indev_scroll.c ****             lv_coord_t st = lv_obj_get_scroll_top(scroll_obj);
 3828              		.loc 1 182 11 is_stmt 0 view .LVU1276
 3829 02c8 B9F1000F 		cmp	r9, #0
 3830 02cc 7FF4CBAE 		bne	.L315
 3831 02d0 65E7     		b	.L314
 3832              	.LVL382:
 3833              	.L355:
 3834              	.LBB380:
 3835              	.LBB344:
 3836              	.LBB341:
 182:Drivers/lvgl/src/core/lv_indev_scroll.c ****             lv_coord_t st = lv_obj_get_scroll_top(scroll_obj);
 3837              		.loc 1 182 11 view .LVU1277
 3838 02d2 2A46     		mov	r2, r5
 3839 02d4 CDF800A0 		str	r10, [sp]
 3840 02d8 4B46     		mov	r3, r9
 3841 02da 5946     		mov	r1, fp
 3842 02dc 3046     		mov	r0, r6
 3843 02de FFF7FEFF 		bl	elastic_diff.part.0
 3844              	.LVL383:
 3845 02e2 0546     		mov	r5, r0
 3846              	.LVL384:
 182:Drivers/lvgl/src/core/lv_indev_scroll.c ****             lv_coord_t st = lv_obj_get_scroll_top(scroll_obj);
 3847              		.loc 1 182 11 view .LVU1278
ARM GAS  /var/folders/lp/x54gwt890xv47sdkqj1k04q40000gn/T//cc5DBzfs.s 			page 106


 3848 02e4 50E7     		b	.L293
 3849              	.LVL385:
 3850              	.L354:
 182:Drivers/lvgl/src/core/lv_indev_scroll.c ****             lv_coord_t st = lv_obj_get_scroll_top(scroll_obj);
 3851              		.loc 1 182 11 view .LVU1279
 3852              	.LBE341:
 3853              	.LBE344:
 3854              	.LBE380:
 3855              	.LBB381:
 199:Drivers/lvgl/src/core/lv_indev_scroll.c ****                 if(sl < 0) {
 3856              		.loc 1 199 23 discriminator 1 view .LVU1280
 3857 02e6 0028     		cmp	r0, #0
 3858 02e8 7FF7BDAE 		ble	.L315
 200:Drivers/lvgl/src/core/lv_indev_scroll.c ****                     lv_obj_scroll_by(scroll_obj, sl, 0, LV_ANIM_ON);
 3859              		.loc 1 200 17 is_stmt 1 view .LVU1281
 200:Drivers/lvgl/src/core/lv_indev_scroll.c ****                     lv_obj_scroll_by(scroll_obj, sl, 0, LV_ANIM_ON);
 3860              		.loc 1 200 19 is_stmt 0 view .LVU1282
 3861 02ec 002D     		cmp	r5, #0
 3862 02ee 3FF4BAAE 		beq	.L315
 201:Drivers/lvgl/src/core/lv_indev_scroll.c ****                 }
 3863              		.loc 1 201 21 is_stmt 1 view .LVU1283
 3864 02f2 0123     		movs	r3, #1
 3865 02f4 2946     		mov	r1, r5
 3866 02f6 0022     		movs	r2, #0
 3867 02f8 3046     		mov	r0, r6
 3868              	.LVL386:
 201:Drivers/lvgl/src/core/lv_indev_scroll.c ****                 }
 3869              		.loc 1 201 21 is_stmt 0 view .LVU1284
 3870 02fa FFF7FEFF 		bl	lv_obj_scroll_by
 3871              	.LVL387:
 3872 02fe B2E6     		b	.L315
 3873              	.LVL388:
 3874              	.L356:
 201:Drivers/lvgl/src/core/lv_indev_scroll.c ****                 }
 3875              		.loc 1 201 21 view .LVU1285
 3876              	.LBE381:
 3877              	.LBB382:
 185:Drivers/lvgl/src/core/lv_indev_scroll.c ****                 if(st < 0) {
 3878              		.loc 1 185 23 discriminator 1 view .LVU1286
 3879 0300 0028     		cmp	r0, #0
 3880 0302 7FF7ADAE 		ble	.L302
 186:Drivers/lvgl/src/core/lv_indev_scroll.c ****                     lv_obj_scroll_by(scroll_obj, 0, st, LV_ANIM_ON);
 3881              		.loc 1 186 17 is_stmt 1 view .LVU1287
 186:Drivers/lvgl/src/core/lv_indev_scroll.c ****                     lv_obj_scroll_by(scroll_obj, 0, st, LV_ANIM_ON);
 3882              		.loc 1 186 19 is_stmt 0 view .LVU1288
 3883 0306 002D     		cmp	r5, #0
 3884 0308 3FF4AAAE 		beq	.L302
 187:Drivers/lvgl/src/core/lv_indev_scroll.c ****                 }
 3885              		.loc 1 187 21 is_stmt 1 view .LVU1289
 3886 030c 2A46     		mov	r2, r5
 3887 030e 0123     		movs	r3, #1
 3888 0310 0021     		movs	r1, #0
 3889 0312 3046     		mov	r0, r6
 3890              	.LVL389:
 187:Drivers/lvgl/src/core/lv_indev_scroll.c ****                 }
 3891              		.loc 1 187 21 is_stmt 0 view .LVU1290
 3892 0314 FFF7FEFF 		bl	lv_obj_scroll_by
ARM GAS  /var/folders/lp/x54gwt890xv47sdkqj1k04q40000gn/T//cc5DBzfs.s 			page 107


 3893              	.LVL390:
 3894 0318 A2E6     		b	.L302
 3895              	.LVL391:
 3896              	.L305:
 187:Drivers/lvgl/src/core/lv_indev_scroll.c ****                 }
 3897              		.loc 1 187 21 view .LVU1291
 3898              	.LBE382:
 3899              	.LBB383:
 3900              	.LBB334:
 3901              	.LBB331:
 683:Drivers/lvgl/src/core/lv_indev_scroll.c ****         if(scroll_start - diff < 0) diff = scroll_start;
 3902              		.loc 1 683 9 is_stmt 1 view .LVU1292
 683:Drivers/lvgl/src/core/lv_indev_scroll.c ****         if(scroll_start - diff < 0) diff = scroll_start;
 3903              		.loc 1 683 11 is_stmt 0 view .LVU1293
 3904 031a 13EB0B0F 		cmn	r3, fp
 683:Drivers/lvgl/src/core/lv_indev_scroll.c ****         if(scroll_start - diff < 0) diff = scroll_start;
 3905              		.loc 1 683 35 is_stmt 1 discriminator 1 view .LVU1294
 683:Drivers/lvgl/src/core/lv_indev_scroll.c ****         if(scroll_start - diff < 0) diff = scroll_start;
 3906              		.loc 1 683 40 is_stmt 0 discriminator 1 view .LVU1295
 3907 031e 44BF     		itt	mi
 3908 0320 5B42     		rsbmi	r3, r3, #0
 3909 0322 0FFA83FB 		sxthmi	fp, r3
 3910              	.LVL392:
 684:Drivers/lvgl/src/core/lv_indev_scroll.c ****     }
 3911              		.loc 1 684 9 is_stmt 1 view .LVU1296
 684:Drivers/lvgl/src/core/lv_indev_scroll.c ****     }
 3912              		.loc 1 684 11 is_stmt 0 view .LVU1297
 3913 0326 5D45     		cmp	r5, fp
 3914 0328 A8BF     		it	ge
 3915 032a 5D46     		movge	r5, fp
 3916              	.LVL393:
 684:Drivers/lvgl/src/core/lv_indev_scroll.c ****     }
 3917              		.loc 1 684 11 view .LVU1298
 3918 032c DDE6     		b	.L306
 3919              	.LVL394:
 3920              	.L321:
 684:Drivers/lvgl/src/core/lv_indev_scroll.c ****     }
 3921              		.loc 1 684 11 view .LVU1299
 3922              	.LBE331:
 3923              	.LBE334:
 3924              	.LBE383:
 3925              	.LBB384:
 3926              	.LBB362:
 3927              	.LBB350:
 584:Drivers/lvgl/src/core/lv_indev_scroll.c **** 
 3928              		.loc 1 584 16 view .LVU1300
 3929 032e 2B46     		mov	r3, r5
 3930              	.LVL395:
 584:Drivers/lvgl/src/core/lv_indev_scroll.c **** 
 3931              		.loc 1 584 16 view .LVU1301
 3932 0330 63E7     		b	.L349
 3933              	.LVL396:
 3934              	.L322:
 584:Drivers/lvgl/src/core/lv_indev_scroll.c **** 
 3935              		.loc 1 584 16 view .LVU1302
 3936              	.LBE350:
 3937              	.LBE362:
ARM GAS  /var/folders/lp/x54gwt890xv47sdkqj1k04q40000gn/T//cc5DBzfs.s 			page 108


 3938              	.LBE384:
 3939              	.LBB385:
 3940              	.LBB379:
 3941              	.LBB367:
 600:Drivers/lvgl/src/core/lv_indev_scroll.c **** 
 3942              		.loc 1 600 16 view .LVU1303
 3943 0332 2B46     		mov	r3, r5
 3944              	.LVL397:
 600:Drivers/lvgl/src/core/lv_indev_scroll.c **** 
 3945              		.loc 1 600 16 view .LVU1304
 3946 0334 A1E7     		b	.L350
 3947              	.L358:
 3948 0336 00BF     		.align	2
 3949              	.L357:
 3950 0338 1F85EB51 		.word	1374389535
 3951 033c 01E0FFFF 		.word	-8191
 3952              	.LBE367:
 3953              	.LBE379:
 3954              	.LBE385:
 3955              		.cfi_endproc
 3956              	.LFE162:
 3958              		.section	.text.lv_indev_scroll_throw_predict,"ax",%progbits
 3959              		.align	1
 3960              		.p2align 2,,3
 3961              		.global	lv_indev_scroll_throw_predict
 3962              		.syntax unified
 3963              		.thumb
 3964              		.thumb_func
 3966              	lv_indev_scroll_throw_predict:
 3967              	.LVL398:
 3968              	.LFB163:
 224:Drivers/lvgl/src/core/lv_indev_scroll.c ****     if(indev == NULL) return 0;
 3969              		.loc 1 224 1 is_stmt 1 view -0
 3970              		.cfi_startproc
 3971              		@ args = 0, pretend = 0, frame = 0
 3972              		@ frame_needed = 0, uses_anonymous_args = 0
 225:Drivers/lvgl/src/core/lv_indev_scroll.c ****     lv_coord_t v;
 3973              		.loc 1 225 5 view .LVU1306
 225:Drivers/lvgl/src/core/lv_indev_scroll.c ****     lv_coord_t v;
 3974              		.loc 1 225 7 is_stmt 0 view .LVU1307
 3975 0000 00B3     		cbz	r0, .L369
 226:Drivers/lvgl/src/core/lv_indev_scroll.c ****     switch(dir) {
 3976              		.loc 1 226 5 is_stmt 1 view .LVU1308
 227:Drivers/lvgl/src/core/lv_indev_scroll.c ****         case LV_DIR_VER:
 3977              		.loc 1 227 5 view .LVU1309
 3978 0002 0329     		cmp	r1, #3
 3979 0004 1BD0     		beq	.L361
 3980 0006 0C29     		cmp	r1, #12
 3981 0008 17D1     		bne	.L365
 229:Drivers/lvgl/src/core/lv_indev_scroll.c ****             break;
 3982              		.loc 1 229 13 view .LVU1310
 229:Drivers/lvgl/src/core/lv_indev_scroll.c ****             break;
 3983              		.loc 1 229 15 is_stmt 0 view .LVU1311
 3984 000a B0F92620 		ldrsh	r2, [r0, #38]
 3985              	.LVL399:
 230:Drivers/lvgl/src/core/lv_indev_scroll.c ****         case LV_DIR_HOR:
 3986              		.loc 1 230 13 is_stmt 1 view .LVU1312
ARM GAS  /var/folders/lp/x54gwt890xv47sdkqj1k04q40000gn/T//cc5DBzfs.s 			page 109


 3987              	.L362:
 238:Drivers/lvgl/src/core/lv_indev_scroll.c ****     lv_coord_t sum = 0;
 3988              		.loc 1 238 5 view .LVU1313
 238:Drivers/lvgl/src/core/lv_indev_scroll.c ****     lv_coord_t sum = 0;
 3989              		.loc 1 238 44 is_stmt 0 view .LVU1314
 3990 000e 0368     		ldr	r3, [r0]
 3991 0010 93F819C0 		ldrb	ip, [r3, #25]	@ zero_extendqisi2
 3992              	.LVL400:
 239:Drivers/lvgl/src/core/lv_indev_scroll.c ****     while(v) {
 3993              		.loc 1 239 5 is_stmt 1 view .LVU1315
 240:Drivers/lvgl/src/core/lv_indev_scroll.c ****         sum += v;
 3994              		.loc 1 240 5 view .LVU1316
 240:Drivers/lvgl/src/core/lv_indev_scroll.c ****         sum += v;
 3995              		.loc 1 240 11 view .LVU1317
 3996 0014 8AB1     		cbz	r2, .L365
 224:Drivers/lvgl/src/core/lv_indev_scroll.c ****     if(indev == NULL) return 0;
 3997              		.loc 1 224 1 is_stmt 0 view .LVU1318
 3998 0016 10B5     		push	{r4, lr}
 3999              		.cfi_def_cfa_offset 8
 4000              		.cfi_offset 4, -8
 4001              		.cfi_offset 14, -4
 242:Drivers/lvgl/src/core/lv_indev_scroll.c ****     }
 4002              		.loc 1 242 38 view .LVU1319
 4003 0018 0B4C     		ldr	r4, .L372
 242:Drivers/lvgl/src/core/lv_indev_scroll.c ****     }
 4004              		.loc 1 242 22 view .LVU1320
 4005 001a CCF1640C 		rsb	ip, ip, #100
 239:Drivers/lvgl/src/core/lv_indev_scroll.c ****     while(v) {
 4006              		.loc 1 239 16 view .LVU1321
 4007 001e 0020     		movs	r0, #0
 4008              	.LVL401:
 4009              	.L363:
 241:Drivers/lvgl/src/core/lv_indev_scroll.c ****         v = v * (100 - scroll_throw) / 100;
 4010              		.loc 1 241 9 is_stmt 1 view .LVU1322
 242:Drivers/lvgl/src/core/lv_indev_scroll.c ****     }
 4011              		.loc 1 242 15 is_stmt 0 view .LVU1323
 4012 0020 0CFB02F3 		mul	r3, ip, r2
 242:Drivers/lvgl/src/core/lv_indev_scroll.c ****     }
 4013              		.loc 1 242 38 view .LVU1324
 4014 0024 84FB03E1 		smull	lr, r1, r4, r3
 4015 0028 DB17     		asrs	r3, r3, #31
 4016 002a C3EB6113 		rsb	r3, r3, r1, asr #5
 241:Drivers/lvgl/src/core/lv_indev_scroll.c ****         v = v * (100 - scroll_throw) / 100;
 4017              		.loc 1 241 13 view .LVU1325
 4018 002e 1044     		add	r0, r0, r2
 4019              	.LVL402:
 242:Drivers/lvgl/src/core/lv_indev_scroll.c ****     }
 4020              		.loc 1 242 11 view .LVU1326
 4021 0030 1AB2     		sxth	r2, r3
 4022              	.LVL403:
 241:Drivers/lvgl/src/core/lv_indev_scroll.c ****         v = v * (100 - scroll_throw) / 100;
 4023              		.loc 1 241 13 view .LVU1327
 4024 0032 00B2     		sxth	r0, r0
 4025              	.LVL404:
 242:Drivers/lvgl/src/core/lv_indev_scroll.c ****     }
 4026              		.loc 1 242 9 is_stmt 1 view .LVU1328
 240:Drivers/lvgl/src/core/lv_indev_scroll.c ****         sum += v;
ARM GAS  /var/folders/lp/x54gwt890xv47sdkqj1k04q40000gn/T//cc5DBzfs.s 			page 110


 4027              		.loc 1 240 11 view .LVU1329
 4028 0034 002A     		cmp	r2, #0
 4029 0036 F3D1     		bne	.L363
 246:Drivers/lvgl/src/core/lv_indev_scroll.c **** 
 4030              		.loc 1 246 1 is_stmt 0 view .LVU1330
 4031 0038 10BD     		pop	{r4, pc}
 4032              	.LVL405:
 4033              	.L365:
 4034              		.cfi_def_cfa_offset 0
 4035              		.cfi_restore 4
 4036              		.cfi_restore 14
 225:Drivers/lvgl/src/core/lv_indev_scroll.c ****     lv_coord_t v;
 4037              		.loc 1 225 30 discriminator 1 view .LVU1331
 4038 003a 0020     		movs	r0, #0
 4039              	.LVL406:
 225:Drivers/lvgl/src/core/lv_indev_scroll.c ****     lv_coord_t v;
 4040              		.loc 1 225 30 discriminator 1 view .LVU1332
 4041 003c 7047     		bx	lr
 4042              	.LVL407:
 4043              	.L361:
 232:Drivers/lvgl/src/core/lv_indev_scroll.c ****             break;
 4044              		.loc 1 232 13 is_stmt 1 view .LVU1333
 232:Drivers/lvgl/src/core/lv_indev_scroll.c ****             break;
 4045              		.loc 1 232 15 is_stmt 0 view .LVU1334
 4046 003e B0F92420 		ldrsh	r2, [r0, #36]
 4047              	.LVL408:
 233:Drivers/lvgl/src/core/lv_indev_scroll.c ****         default:
 4048              		.loc 1 233 13 is_stmt 1 view .LVU1335
 4049 0042 E4E7     		b	.L362
 4050              	.LVL409:
 4051              	.L369:
 246:Drivers/lvgl/src/core/lv_indev_scroll.c **** 
 4052              		.loc 1 246 1 is_stmt 0 view .LVU1336
 4053 0044 7047     		bx	lr
 4054              	.L373:
 4055 0046 00BF     		.align	2
 4056              	.L372:
 4057 0048 1F85EB51 		.word	1374389535
 4058              		.cfi_endproc
 4059              	.LFE163:
 4061              		.section	.text.lv_indev_scroll_get_snap_dist,"ax",%progbits
 4062              		.align	1
 4063              		.p2align 2,,3
 4064              		.global	lv_indev_scroll_get_snap_dist
 4065              		.syntax unified
 4066              		.thumb
 4067              		.thumb_func
 4069              	lv_indev_scroll_get_snap_dist:
 4070              	.LVL410:
 4071              	.LFB164:
 249:Drivers/lvgl/src/core/lv_indev_scroll.c ****     p->x = find_snap_point_x(obj, obj->coords.x1, obj->coords.x2, 0);
 4072              		.loc 1 249 1 is_stmt 1 view -0
 4073              		.cfi_startproc
 4074              		@ args = 0, pretend = 0, frame = 0
 4075              		@ frame_needed = 0, uses_anonymous_args = 0
 250:Drivers/lvgl/src/core/lv_indev_scroll.c ****     p->y = find_snap_point_y(obj, obj->coords.y1, obj->coords.y2, 0);
 4076              		.loc 1 250 5 view .LVU1338
ARM GAS  /var/folders/lp/x54gwt890xv47sdkqj1k04q40000gn/T//cc5DBzfs.s 			page 111


 249:Drivers/lvgl/src/core/lv_indev_scroll.c ****     p->x = find_snap_point_x(obj, obj->coords.x1, obj->coords.x2, 0);
 4077              		.loc 1 249 1 is_stmt 0 view .LVU1339
 4078 0000 38B5     		push	{r3, r4, r5, lr}
 4079              		.cfi_def_cfa_offset 16
 4080              		.cfi_offset 3, -16
 4081              		.cfi_offset 4, -12
 4082              		.cfi_offset 5, -8
 4083              		.cfi_offset 14, -4
 250:Drivers/lvgl/src/core/lv_indev_scroll.c ****     p->y = find_snap_point_y(obj, obj->coords.y1, obj->coords.y2, 0);
 4084              		.loc 1 250 12 view .LVU1340
 4085 0002 B0F91820 		ldrsh	r2, [r0, #24]
 249:Drivers/lvgl/src/core/lv_indev_scroll.c ****     p->x = find_snap_point_x(obj, obj->coords.x1, obj->coords.x2, 0);
 4086              		.loc 1 249 1 view .LVU1341
 4087 0006 0D46     		mov	r5, r1
 250:Drivers/lvgl/src/core/lv_indev_scroll.c ****     p->y = find_snap_point_y(obj, obj->coords.y1, obj->coords.y2, 0);
 4088              		.loc 1 250 12 view .LVU1342
 4089 0008 0023     		movs	r3, #0
 4090 000a B0F91410 		ldrsh	r1, [r0, #20]
 4091              	.LVL411:
 249:Drivers/lvgl/src/core/lv_indev_scroll.c ****     p->x = find_snap_point_x(obj, obj->coords.x1, obj->coords.x2, 0);
 4092              		.loc 1 249 1 view .LVU1343
 4093 000e 0446     		mov	r4, r0
 250:Drivers/lvgl/src/core/lv_indev_scroll.c ****     p->y = find_snap_point_y(obj, obj->coords.y1, obj->coords.y2, 0);
 4094              		.loc 1 250 12 view .LVU1344
 4095 0010 FFF7FEFF 		bl	find_snap_point_x
 4096              	.LVL412:
 251:Drivers/lvgl/src/core/lv_indev_scroll.c **** }
 4097              		.loc 1 251 12 view .LVU1345
 4098 0014 B4F91A20 		ldrsh	r2, [r4, #26]
 4099 0018 B4F91610 		ldrsh	r1, [r4, #22]
 250:Drivers/lvgl/src/core/lv_indev_scroll.c ****     p->y = find_snap_point_y(obj, obj->coords.y1, obj->coords.y2, 0);
 4100              		.loc 1 250 10 discriminator 1 view .LVU1346
 4101 001c 2880     		strh	r0, [r5]	@ movhi
 251:Drivers/lvgl/src/core/lv_indev_scroll.c **** }
 4102              		.loc 1 251 5 is_stmt 1 view .LVU1347
 251:Drivers/lvgl/src/core/lv_indev_scroll.c **** }
 4103              		.loc 1 251 12 is_stmt 0 view .LVU1348
 4104 001e 0023     		movs	r3, #0
 4105 0020 2046     		mov	r0, r4
 4106 0022 FFF7FEFF 		bl	find_snap_point_y
 4107              	.LVL413:
 251:Drivers/lvgl/src/core/lv_indev_scroll.c **** }
 4108              		.loc 1 251 10 discriminator 1 view .LVU1349
 4109 0026 6880     		strh	r0, [r5, #2]	@ movhi
 252:Drivers/lvgl/src/core/lv_indev_scroll.c **** 
 4110              		.loc 1 252 1 view .LVU1350
 4111 0028 38BD     		pop	{r3, r4, r5, pc}
 252:Drivers/lvgl/src/core/lv_indev_scroll.c **** 
 4112              		.loc 1 252 1 view .LVU1351
 4113              		.cfi_endproc
 4114              	.LFE164:
 4116 002a 00BF     		.text
 4117              	.Letext0:
 4118              		.file 4 "/Users/jr/Library/Application Support/Code/User/globalStorage/bmd.stm32-for-vscode/@xpack
 4119              		.file 5 "/Users/jr/Library/Application Support/Code/User/globalStorage/bmd.stm32-for-vscode/@xpack
 4120              		.file 6 "/Users/jr/Library/Application Support/Code/User/globalStorage/bmd.stm32-for-vscode/@xpack
 4121              		.file 7 "Drivers/lvgl/src/core/../misc/../font/lv_font.h"
ARM GAS  /var/folders/lp/x54gwt890xv47sdkqj1k04q40000gn/T//cc5DBzfs.s 			page 112


 4122              		.file 8 "Drivers/lvgl/src/core/../misc/lv_types.h"
 4123              		.file 9 "Drivers/lvgl/src/core/../misc/lv_color.h"
 4124              		.file 10 "Drivers/lvgl/src/core/../misc/lv_anim.h"
 4125              		.file 11 "Drivers/lvgl/src/core/../misc/lv_txt.h"
 4126              		.file 12 "Drivers/lvgl/src/core/../misc/lv_bidi.h"
 4127              		.file 13 "Drivers/lvgl/src/core/../misc/lv_style.h"
 4128              		.file 14 "Drivers/lvgl/src/core/../hal/../draw/lv_img_buf.h"
 4129              		.file 15 "Drivers/lvgl/src/core/lv_obj.h"
 4130              		.file 16 "Drivers/lvgl/src/core/../hal/../draw/lv_draw_rect.h"
 4131              		.file 17 "Drivers/lvgl/src/core/../hal/../draw/lv_draw_label.h"
 4132              		.file 18 "Drivers/lvgl/src/core/../hal/../draw/lv_draw_img.h"
 4133              		.file 19 "Drivers/lvgl/src/core/../hal/../draw/lv_draw_line.h"
 4134              		.file 20 "Drivers/lvgl/src/core/../hal/../draw/lv_draw_arc.h"
 4135              		.file 21 "Drivers/lvgl/src/core/../hal/../draw/lv_draw_layer.h"
 4136              		.file 22 "Drivers/lvgl/src/core/../hal/../draw/lv_draw.h"
 4137              		.file 23 "Drivers/lvgl/src/core/../hal/../misc/lv_ll.h"
 4138              		.file 24 "Drivers/lvgl/src/core/../hal/../misc/lv_timer.h"
 4139              		.file 25 "Drivers/lvgl/src/core/../hal/lv_hal_disp.h"
 4140              		.file 26 "Drivers/lvgl/src/core/../hal/lv_hal_indev.h"
 4141              		.file 27 "Drivers/lvgl/src/core/lv_group.h"
 4142              		.file 28 "Drivers/lvgl/src/core/lv_obj_scroll.h"
 4143              		.file 29 "Drivers/lvgl/src/core/lv_obj_style.h"
 4144              		.file 30 "Drivers/lvgl/src/core/lv_obj_class.h"
 4145              		.file 31 "Drivers/lvgl/src/core/lv_event.h"
 4146              		.file 32 "Drivers/lvgl/src/core/lv_obj_tree.h"
 4147              		.file 33 "Drivers/lvgl/src/core/lv_indev.h"
ARM GAS  /var/folders/lp/x54gwt890xv47sdkqj1k04q40000gn/T//cc5DBzfs.s 			page 113


DEFINED SYMBOLS
                            *ABS*:00000000 lv_indev_scroll.c
/var/folders/lp/x54gwt890xv47sdkqj1k04q40000gn/T//cc5DBzfs.s:21     .text.find_snap_point_y:00000000 $t
/var/folders/lp/x54gwt890xv47sdkqj1k04q40000gn/T//cc5DBzfs.s:27     .text.find_snap_point_y:00000000 find_snap_point_y
/var/folders/lp/x54gwt890xv47sdkqj1k04q40000gn/T//cc5DBzfs.s:386    .text.find_snap_point_y:00000128 $d
/var/folders/lp/x54gwt890xv47sdkqj1k04q40000gn/T//cc5DBzfs.s:393    .text.find_snap_point_x:00000000 $t
/var/folders/lp/x54gwt890xv47sdkqj1k04q40000gn/T//cc5DBzfs.s:399    .text.find_snap_point_x:00000000 find_snap_point_x
/var/folders/lp/x54gwt890xv47sdkqj1k04q40000gn/T//cc5DBzfs.s:756    .text.find_snap_point_x:00000128 $d
/var/folders/lp/x54gwt890xv47sdkqj1k04q40000gn/T//cc5DBzfs.s:763    .text.elastic_diff.part.0:00000000 $t
/var/folders/lp/x54gwt890xv47sdkqj1k04q40000gn/T//cc5DBzfs.s:769    .text.elastic_diff.part.0:00000000 elastic_diff.part.0
/var/folders/lp/x54gwt890xv47sdkqj1k04q40000gn/T//cc5DBzfs.s:1284   .text._lv_indev_scroll_handler:00000000 $t
/var/folders/lp/x54gwt890xv47sdkqj1k04q40000gn/T//cc5DBzfs.s:1291   .text._lv_indev_scroll_handler:00000000 _lv_indev_scroll_handler
/var/folders/lp/x54gwt890xv47sdkqj1k04q40000gn/T//cc5DBzfs.s:2792   .text._lv_indev_scroll_handler:000005a8 $d
/var/folders/lp/x54gwt890xv47sdkqj1k04q40000gn/T//cc5DBzfs.s:2798   .text._lv_indev_scroll_handler:000005ac $t
/var/folders/lp/x54gwt890xv47sdkqj1k04q40000gn/T//cc5DBzfs.s:3055   .text._lv_indev_scroll_handler:000006cc $d
/var/folders/lp/x54gwt890xv47sdkqj1k04q40000gn/T//cc5DBzfs.s:3063   .text._lv_indev_scroll_throw_handler:00000000 $t
/var/folders/lp/x54gwt890xv47sdkqj1k04q40000gn/T//cc5DBzfs.s:3070   .text._lv_indev_scroll_throw_handler:00000000 _lv_indev_scroll_throw_handler
/var/folders/lp/x54gwt890xv47sdkqj1k04q40000gn/T//cc5DBzfs.s:3950   .text._lv_indev_scroll_throw_handler:00000338 $d
/var/folders/lp/x54gwt890xv47sdkqj1k04q40000gn/T//cc5DBzfs.s:3959   .text.lv_indev_scroll_throw_predict:00000000 $t
/var/folders/lp/x54gwt890xv47sdkqj1k04q40000gn/T//cc5DBzfs.s:3966   .text.lv_indev_scroll_throw_predict:00000000 lv_indev_scroll_throw_predict
/var/folders/lp/x54gwt890xv47sdkqj1k04q40000gn/T//cc5DBzfs.s:4057   .text.lv_indev_scroll_throw_predict:00000048 $d
/var/folders/lp/x54gwt890xv47sdkqj1k04q40000gn/T//cc5DBzfs.s:4062   .text.lv_indev_scroll_get_snap_dist:00000000 $t
/var/folders/lp/x54gwt890xv47sdkqj1k04q40000gn/T//cc5DBzfs.s:4069   .text.lv_indev_scroll_get_snap_dist:00000000 lv_indev_scroll_get_snap_dist

UNDEFINED SYMBOLS
lv_obj_get_scroll_snap_y
lv_obj_get_style_prop
lv_obj_get_child_cnt
lv_obj_has_flag_any
lv_obj_has_flag
lv_obj_get_scroll_snap_x
lv_indev_get_obj_act
lv_obj_get_parent
lv_point_transform
lv_obj_get_scroll_top
lv_obj_get_scroll_bottom
lv_obj_get_scroll_dir
_lv_obj_scroll_by_raw
lv_obj_get_scroll_right
lv_obj_get_scroll_left
lv_indev_get_act
lv_event_send
lv_area_set
lv_obj_scroll_by
