ARM GAS  /var/folders/0z/tsy30v1j4xl4_7kw94k978ww0000gn/T//ccOGqK87.s 			page 1


   1              		.cpu cortex-m4
   2              		.arch armv7e-m
   3              		.fpu fpv4-sp-d16
   4              		.eabi_attribute 27, 1
   5              		.eabi_attribute 28, 1
   6              		.eabi_attribute 23, 1
   7              		.eabi_attribute 24, 1
   8              		.eabi_attribute 25, 1
   9              		.eabi_attribute 26, 1
  10              		.eabi_attribute 30, 2
  11              		.eabi_attribute 34, 1
  12              		.eabi_attribute 18, 4
  13              		.file	"lv_imgbtn.c"
  14              		.text
  15              	.Ltext0:
  16              		.cfi_sections	.debug_frame
  17              		.section	.text.lv_imgbtn_constructor,"ax",%progbits
  18              		.align	1
  19              		.p2align 2,,3
  20              		.syntax unified
  21              		.thumb
  22              		.thumb_func
  24              	lv_imgbtn_constructor:
  25              	.LVL0:
  26              	.LFB210:
  27              		.file 1 "Drivers/lvgl/src/extra/widgets/imgbtn/lv_imgbtn.c"
   1:Drivers/lvgl/src/extra/widgets/imgbtn/lv_imgbtn.c **** /**
   2:Drivers/lvgl/src/extra/widgets/imgbtn/lv_imgbtn.c ****  * @file lv_imgbtn.c
   3:Drivers/lvgl/src/extra/widgets/imgbtn/lv_imgbtn.c ****  *
   4:Drivers/lvgl/src/extra/widgets/imgbtn/lv_imgbtn.c ****  */
   5:Drivers/lvgl/src/extra/widgets/imgbtn/lv_imgbtn.c **** 
   6:Drivers/lvgl/src/extra/widgets/imgbtn/lv_imgbtn.c **** /*********************
   7:Drivers/lvgl/src/extra/widgets/imgbtn/lv_imgbtn.c ****  *      INCLUDES
   8:Drivers/lvgl/src/extra/widgets/imgbtn/lv_imgbtn.c ****  *********************/
   9:Drivers/lvgl/src/extra/widgets/imgbtn/lv_imgbtn.c **** 
  10:Drivers/lvgl/src/extra/widgets/imgbtn/lv_imgbtn.c **** #include "lv_imgbtn.h"
  11:Drivers/lvgl/src/extra/widgets/imgbtn/lv_imgbtn.c **** 
  12:Drivers/lvgl/src/extra/widgets/imgbtn/lv_imgbtn.c **** #if LV_USE_IMGBTN != 0
  13:Drivers/lvgl/src/extra/widgets/imgbtn/lv_imgbtn.c **** 
  14:Drivers/lvgl/src/extra/widgets/imgbtn/lv_imgbtn.c **** /*********************
  15:Drivers/lvgl/src/extra/widgets/imgbtn/lv_imgbtn.c ****  *      DEFINES
  16:Drivers/lvgl/src/extra/widgets/imgbtn/lv_imgbtn.c ****  *********************/
  17:Drivers/lvgl/src/extra/widgets/imgbtn/lv_imgbtn.c **** #define MY_CLASS &lv_imgbtn_class
  18:Drivers/lvgl/src/extra/widgets/imgbtn/lv_imgbtn.c **** 
  19:Drivers/lvgl/src/extra/widgets/imgbtn/lv_imgbtn.c **** /**********************
  20:Drivers/lvgl/src/extra/widgets/imgbtn/lv_imgbtn.c ****  *      TYPEDEFS
  21:Drivers/lvgl/src/extra/widgets/imgbtn/lv_imgbtn.c ****  **********************/
  22:Drivers/lvgl/src/extra/widgets/imgbtn/lv_imgbtn.c **** 
  23:Drivers/lvgl/src/extra/widgets/imgbtn/lv_imgbtn.c **** /**********************
  24:Drivers/lvgl/src/extra/widgets/imgbtn/lv_imgbtn.c ****  *  STATIC PROTOTYPES
  25:Drivers/lvgl/src/extra/widgets/imgbtn/lv_imgbtn.c ****  **********************/
  26:Drivers/lvgl/src/extra/widgets/imgbtn/lv_imgbtn.c **** static void lv_imgbtn_constructor(const lv_obj_class_t * class_p, lv_obj_t * obj);
  27:Drivers/lvgl/src/extra/widgets/imgbtn/lv_imgbtn.c **** static void draw_main(lv_event_t * e);
  28:Drivers/lvgl/src/extra/widgets/imgbtn/lv_imgbtn.c **** static void lv_imgbtn_event(const lv_obj_class_t * class_p, lv_event_t * e);
  29:Drivers/lvgl/src/extra/widgets/imgbtn/lv_imgbtn.c **** static void refr_img(lv_obj_t * imgbtn);
  30:Drivers/lvgl/src/extra/widgets/imgbtn/lv_imgbtn.c **** static lv_imgbtn_state_t suggest_state(lv_obj_t * imgbtn, lv_imgbtn_state_t state);
  31:Drivers/lvgl/src/extra/widgets/imgbtn/lv_imgbtn.c **** lv_imgbtn_state_t get_state(const lv_obj_t * imgbtn);
ARM GAS  /var/folders/0z/tsy30v1j4xl4_7kw94k978ww0000gn/T//ccOGqK87.s 			page 2


  32:Drivers/lvgl/src/extra/widgets/imgbtn/lv_imgbtn.c **** 
  33:Drivers/lvgl/src/extra/widgets/imgbtn/lv_imgbtn.c **** /**********************
  34:Drivers/lvgl/src/extra/widgets/imgbtn/lv_imgbtn.c ****  *  STATIC VARIABLES
  35:Drivers/lvgl/src/extra/widgets/imgbtn/lv_imgbtn.c ****  **********************/
  36:Drivers/lvgl/src/extra/widgets/imgbtn/lv_imgbtn.c **** const lv_obj_class_t lv_imgbtn_class = {
  37:Drivers/lvgl/src/extra/widgets/imgbtn/lv_imgbtn.c ****     .base_class = &lv_obj_class,
  38:Drivers/lvgl/src/extra/widgets/imgbtn/lv_imgbtn.c ****     .instance_size = sizeof(lv_imgbtn_t),
  39:Drivers/lvgl/src/extra/widgets/imgbtn/lv_imgbtn.c ****     .constructor_cb = lv_imgbtn_constructor,
  40:Drivers/lvgl/src/extra/widgets/imgbtn/lv_imgbtn.c ****     .event_cb = lv_imgbtn_event,
  41:Drivers/lvgl/src/extra/widgets/imgbtn/lv_imgbtn.c **** };
  42:Drivers/lvgl/src/extra/widgets/imgbtn/lv_imgbtn.c **** 
  43:Drivers/lvgl/src/extra/widgets/imgbtn/lv_imgbtn.c **** /**********************
  44:Drivers/lvgl/src/extra/widgets/imgbtn/lv_imgbtn.c ****  *      MACROS
  45:Drivers/lvgl/src/extra/widgets/imgbtn/lv_imgbtn.c ****  **********************/
  46:Drivers/lvgl/src/extra/widgets/imgbtn/lv_imgbtn.c **** 
  47:Drivers/lvgl/src/extra/widgets/imgbtn/lv_imgbtn.c **** /**********************
  48:Drivers/lvgl/src/extra/widgets/imgbtn/lv_imgbtn.c ****  *   GLOBAL FUNCTIONS
  49:Drivers/lvgl/src/extra/widgets/imgbtn/lv_imgbtn.c ****  **********************/
  50:Drivers/lvgl/src/extra/widgets/imgbtn/lv_imgbtn.c **** 
  51:Drivers/lvgl/src/extra/widgets/imgbtn/lv_imgbtn.c **** /**
  52:Drivers/lvgl/src/extra/widgets/imgbtn/lv_imgbtn.c ****  * Create an image button object
  53:Drivers/lvgl/src/extra/widgets/imgbtn/lv_imgbtn.c ****  * @param parent pointer to an object, it will be the parent of the new image button
  54:Drivers/lvgl/src/extra/widgets/imgbtn/lv_imgbtn.c ****  * @return pointer to the created image button
  55:Drivers/lvgl/src/extra/widgets/imgbtn/lv_imgbtn.c ****  */
  56:Drivers/lvgl/src/extra/widgets/imgbtn/lv_imgbtn.c **** lv_obj_t * lv_imgbtn_create(lv_obj_t * parent)
  57:Drivers/lvgl/src/extra/widgets/imgbtn/lv_imgbtn.c **** {
  58:Drivers/lvgl/src/extra/widgets/imgbtn/lv_imgbtn.c ****     LV_LOG_INFO("begin");
  59:Drivers/lvgl/src/extra/widgets/imgbtn/lv_imgbtn.c ****     lv_obj_t * obj = lv_obj_class_create_obj(MY_CLASS, parent);
  60:Drivers/lvgl/src/extra/widgets/imgbtn/lv_imgbtn.c ****     lv_obj_class_init_obj(obj);
  61:Drivers/lvgl/src/extra/widgets/imgbtn/lv_imgbtn.c ****     return obj;
  62:Drivers/lvgl/src/extra/widgets/imgbtn/lv_imgbtn.c **** }
  63:Drivers/lvgl/src/extra/widgets/imgbtn/lv_imgbtn.c **** 
  64:Drivers/lvgl/src/extra/widgets/imgbtn/lv_imgbtn.c **** /*=====================
  65:Drivers/lvgl/src/extra/widgets/imgbtn/lv_imgbtn.c ****  * Setter functions
  66:Drivers/lvgl/src/extra/widgets/imgbtn/lv_imgbtn.c ****  *====================*/
  67:Drivers/lvgl/src/extra/widgets/imgbtn/lv_imgbtn.c **** 
  68:Drivers/lvgl/src/extra/widgets/imgbtn/lv_imgbtn.c **** /**
  69:Drivers/lvgl/src/extra/widgets/imgbtn/lv_imgbtn.c ****  * Set images for a state of the image button
  70:Drivers/lvgl/src/extra/widgets/imgbtn/lv_imgbtn.c ****  * @param obj pointer to an image button object
  71:Drivers/lvgl/src/extra/widgets/imgbtn/lv_imgbtn.c ****  * @param state for which state set the new image
  72:Drivers/lvgl/src/extra/widgets/imgbtn/lv_imgbtn.c ****  * @param src_left pointer to an image source for the left side of the button (a C array or path to
  73:Drivers/lvgl/src/extra/widgets/imgbtn/lv_imgbtn.c ****  * a file)
  74:Drivers/lvgl/src/extra/widgets/imgbtn/lv_imgbtn.c ****  * @param src_mid pointer to an image source for the middle of the button (ideally 1px wide) (a C
  75:Drivers/lvgl/src/extra/widgets/imgbtn/lv_imgbtn.c ****  * array or path to a file)
  76:Drivers/lvgl/src/extra/widgets/imgbtn/lv_imgbtn.c ****  * @param src_right pointer to an image source for the right side of the button (a C array or path
  77:Drivers/lvgl/src/extra/widgets/imgbtn/lv_imgbtn.c ****  * to a file)
  78:Drivers/lvgl/src/extra/widgets/imgbtn/lv_imgbtn.c ****  */
  79:Drivers/lvgl/src/extra/widgets/imgbtn/lv_imgbtn.c **** void lv_imgbtn_set_src(lv_obj_t * obj, lv_imgbtn_state_t state, const void * src_left, const void *
  80:Drivers/lvgl/src/extra/widgets/imgbtn/lv_imgbtn.c ****                        const void * src_right)
  81:Drivers/lvgl/src/extra/widgets/imgbtn/lv_imgbtn.c **** {
  82:Drivers/lvgl/src/extra/widgets/imgbtn/lv_imgbtn.c ****     LV_ASSERT_OBJ(obj, MY_CLASS);
  83:Drivers/lvgl/src/extra/widgets/imgbtn/lv_imgbtn.c **** 
  84:Drivers/lvgl/src/extra/widgets/imgbtn/lv_imgbtn.c ****     lv_imgbtn_t * imgbtn = (lv_imgbtn_t *)obj;
  85:Drivers/lvgl/src/extra/widgets/imgbtn/lv_imgbtn.c **** 
  86:Drivers/lvgl/src/extra/widgets/imgbtn/lv_imgbtn.c ****     imgbtn->img_src_left[state] = src_left;
  87:Drivers/lvgl/src/extra/widgets/imgbtn/lv_imgbtn.c ****     imgbtn->img_src_mid[state] = src_mid;
  88:Drivers/lvgl/src/extra/widgets/imgbtn/lv_imgbtn.c ****     imgbtn->img_src_right[state] = src_right;
ARM GAS  /var/folders/0z/tsy30v1j4xl4_7kw94k978ww0000gn/T//ccOGqK87.s 			page 3


  89:Drivers/lvgl/src/extra/widgets/imgbtn/lv_imgbtn.c **** 
  90:Drivers/lvgl/src/extra/widgets/imgbtn/lv_imgbtn.c ****     refr_img(obj);
  91:Drivers/lvgl/src/extra/widgets/imgbtn/lv_imgbtn.c **** }
  92:Drivers/lvgl/src/extra/widgets/imgbtn/lv_imgbtn.c **** 
  93:Drivers/lvgl/src/extra/widgets/imgbtn/lv_imgbtn.c **** void lv_imgbtn_set_state(lv_obj_t * obj, lv_imgbtn_state_t state)
  94:Drivers/lvgl/src/extra/widgets/imgbtn/lv_imgbtn.c **** {
  95:Drivers/lvgl/src/extra/widgets/imgbtn/lv_imgbtn.c ****     LV_ASSERT_OBJ(obj, MY_CLASS);
  96:Drivers/lvgl/src/extra/widgets/imgbtn/lv_imgbtn.c **** 
  97:Drivers/lvgl/src/extra/widgets/imgbtn/lv_imgbtn.c ****     lv_state_t obj_state = LV_STATE_DEFAULT;
  98:Drivers/lvgl/src/extra/widgets/imgbtn/lv_imgbtn.c ****     if(state == LV_IMGBTN_STATE_PRESSED || state == LV_IMGBTN_STATE_CHECKED_PRESSED) obj_state |= L
  99:Drivers/lvgl/src/extra/widgets/imgbtn/lv_imgbtn.c ****     if(state == LV_IMGBTN_STATE_DISABLED || state == LV_IMGBTN_STATE_CHECKED_DISABLED) obj_state |=
 100:Drivers/lvgl/src/extra/widgets/imgbtn/lv_imgbtn.c ****     if(state == LV_IMGBTN_STATE_CHECKED_DISABLED || state == LV_IMGBTN_STATE_CHECKED_PRESSED ||
 101:Drivers/lvgl/src/extra/widgets/imgbtn/lv_imgbtn.c ****        state == LV_IMGBTN_STATE_CHECKED_RELEASED) {
 102:Drivers/lvgl/src/extra/widgets/imgbtn/lv_imgbtn.c ****         obj_state |= LV_STATE_CHECKED;
 103:Drivers/lvgl/src/extra/widgets/imgbtn/lv_imgbtn.c ****     }
 104:Drivers/lvgl/src/extra/widgets/imgbtn/lv_imgbtn.c **** 
 105:Drivers/lvgl/src/extra/widgets/imgbtn/lv_imgbtn.c ****     lv_obj_clear_state(obj, LV_STATE_CHECKED | LV_STATE_PRESSED | LV_STATE_DISABLED);
 106:Drivers/lvgl/src/extra/widgets/imgbtn/lv_imgbtn.c ****     lv_obj_add_state(obj, obj_state);
 107:Drivers/lvgl/src/extra/widgets/imgbtn/lv_imgbtn.c **** 
 108:Drivers/lvgl/src/extra/widgets/imgbtn/lv_imgbtn.c ****     refr_img(obj);
 109:Drivers/lvgl/src/extra/widgets/imgbtn/lv_imgbtn.c **** }
 110:Drivers/lvgl/src/extra/widgets/imgbtn/lv_imgbtn.c **** 
 111:Drivers/lvgl/src/extra/widgets/imgbtn/lv_imgbtn.c **** /*=====================
 112:Drivers/lvgl/src/extra/widgets/imgbtn/lv_imgbtn.c ****  * Getter functions
 113:Drivers/lvgl/src/extra/widgets/imgbtn/lv_imgbtn.c ****  *====================*/
 114:Drivers/lvgl/src/extra/widgets/imgbtn/lv_imgbtn.c **** 
 115:Drivers/lvgl/src/extra/widgets/imgbtn/lv_imgbtn.c **** 
 116:Drivers/lvgl/src/extra/widgets/imgbtn/lv_imgbtn.c **** /**
 117:Drivers/lvgl/src/extra/widgets/imgbtn/lv_imgbtn.c ****  * Get the left image in a given state
 118:Drivers/lvgl/src/extra/widgets/imgbtn/lv_imgbtn.c ****  * @param obj pointer to an image button object
 119:Drivers/lvgl/src/extra/widgets/imgbtn/lv_imgbtn.c ****  * @param state the state where to get the image (from `lv_btn_state_t`) `
 120:Drivers/lvgl/src/extra/widgets/imgbtn/lv_imgbtn.c ****  * @return pointer to the left image source (a C array or path to a file)
 121:Drivers/lvgl/src/extra/widgets/imgbtn/lv_imgbtn.c ****  */
 122:Drivers/lvgl/src/extra/widgets/imgbtn/lv_imgbtn.c **** const void * lv_imgbtn_get_src_left(lv_obj_t * obj, lv_imgbtn_state_t state)
 123:Drivers/lvgl/src/extra/widgets/imgbtn/lv_imgbtn.c **** {
 124:Drivers/lvgl/src/extra/widgets/imgbtn/lv_imgbtn.c ****     LV_ASSERT_OBJ(obj, MY_CLASS);
 125:Drivers/lvgl/src/extra/widgets/imgbtn/lv_imgbtn.c **** 
 126:Drivers/lvgl/src/extra/widgets/imgbtn/lv_imgbtn.c ****     lv_imgbtn_t * imgbtn = (lv_imgbtn_t *)obj;
 127:Drivers/lvgl/src/extra/widgets/imgbtn/lv_imgbtn.c **** 
 128:Drivers/lvgl/src/extra/widgets/imgbtn/lv_imgbtn.c ****     return imgbtn->img_src_left[state];
 129:Drivers/lvgl/src/extra/widgets/imgbtn/lv_imgbtn.c **** }
 130:Drivers/lvgl/src/extra/widgets/imgbtn/lv_imgbtn.c **** 
 131:Drivers/lvgl/src/extra/widgets/imgbtn/lv_imgbtn.c **** /**
 132:Drivers/lvgl/src/extra/widgets/imgbtn/lv_imgbtn.c ****  * Get the middle image in a given state
 133:Drivers/lvgl/src/extra/widgets/imgbtn/lv_imgbtn.c ****  * @param obj pointer to an image button object
 134:Drivers/lvgl/src/extra/widgets/imgbtn/lv_imgbtn.c ****  * @param state the state where to get the image (from `lv_btn_state_t`) `
 135:Drivers/lvgl/src/extra/widgets/imgbtn/lv_imgbtn.c ****  * @return pointer to the middle image source (a C array or path to a file)
 136:Drivers/lvgl/src/extra/widgets/imgbtn/lv_imgbtn.c ****  */
 137:Drivers/lvgl/src/extra/widgets/imgbtn/lv_imgbtn.c **** const void * lv_imgbtn_get_src_middle(lv_obj_t * obj, lv_imgbtn_state_t state)
 138:Drivers/lvgl/src/extra/widgets/imgbtn/lv_imgbtn.c **** {
 139:Drivers/lvgl/src/extra/widgets/imgbtn/lv_imgbtn.c ****     LV_ASSERT_OBJ(obj, MY_CLASS);
 140:Drivers/lvgl/src/extra/widgets/imgbtn/lv_imgbtn.c ****     lv_imgbtn_t * imgbtn = (lv_imgbtn_t *)obj;
 141:Drivers/lvgl/src/extra/widgets/imgbtn/lv_imgbtn.c **** 
 142:Drivers/lvgl/src/extra/widgets/imgbtn/lv_imgbtn.c ****     return imgbtn->img_src_mid[state];
 143:Drivers/lvgl/src/extra/widgets/imgbtn/lv_imgbtn.c **** }
 144:Drivers/lvgl/src/extra/widgets/imgbtn/lv_imgbtn.c **** 
 145:Drivers/lvgl/src/extra/widgets/imgbtn/lv_imgbtn.c **** /**
ARM GAS  /var/folders/0z/tsy30v1j4xl4_7kw94k978ww0000gn/T//ccOGqK87.s 			page 4


 146:Drivers/lvgl/src/extra/widgets/imgbtn/lv_imgbtn.c ****  * Get the right image in a given state
 147:Drivers/lvgl/src/extra/widgets/imgbtn/lv_imgbtn.c ****  * @param obj pointer to an image button object
 148:Drivers/lvgl/src/extra/widgets/imgbtn/lv_imgbtn.c ****  * @param state the state where to get the image (from `lv_btn_state_t`) `
 149:Drivers/lvgl/src/extra/widgets/imgbtn/lv_imgbtn.c ****  * @return pointer to the left image source (a C array or path to a file)
 150:Drivers/lvgl/src/extra/widgets/imgbtn/lv_imgbtn.c ****  */
 151:Drivers/lvgl/src/extra/widgets/imgbtn/lv_imgbtn.c **** const void * lv_imgbtn_get_src_right(lv_obj_t * obj, lv_imgbtn_state_t state)
 152:Drivers/lvgl/src/extra/widgets/imgbtn/lv_imgbtn.c **** {
 153:Drivers/lvgl/src/extra/widgets/imgbtn/lv_imgbtn.c ****     LV_ASSERT_OBJ(obj, MY_CLASS);
 154:Drivers/lvgl/src/extra/widgets/imgbtn/lv_imgbtn.c ****     lv_imgbtn_t * imgbtn = (lv_imgbtn_t *)obj;
 155:Drivers/lvgl/src/extra/widgets/imgbtn/lv_imgbtn.c **** 
 156:Drivers/lvgl/src/extra/widgets/imgbtn/lv_imgbtn.c ****     return imgbtn->img_src_right[state];
 157:Drivers/lvgl/src/extra/widgets/imgbtn/lv_imgbtn.c **** }
 158:Drivers/lvgl/src/extra/widgets/imgbtn/lv_imgbtn.c **** 
 159:Drivers/lvgl/src/extra/widgets/imgbtn/lv_imgbtn.c **** 
 160:Drivers/lvgl/src/extra/widgets/imgbtn/lv_imgbtn.c **** /**********************
 161:Drivers/lvgl/src/extra/widgets/imgbtn/lv_imgbtn.c ****  *   STATIC FUNCTIONS
 162:Drivers/lvgl/src/extra/widgets/imgbtn/lv_imgbtn.c ****  **********************/
 163:Drivers/lvgl/src/extra/widgets/imgbtn/lv_imgbtn.c **** 
 164:Drivers/lvgl/src/extra/widgets/imgbtn/lv_imgbtn.c **** static void lv_imgbtn_constructor(const lv_obj_class_t * class_p, lv_obj_t * obj)
 165:Drivers/lvgl/src/extra/widgets/imgbtn/lv_imgbtn.c **** {
  28              		.loc 1 165 1 view -0
  29              		.cfi_startproc
  30              		@ args = 0, pretend = 0, frame = 0
  31              		@ frame_needed = 0, uses_anonymous_args = 0
 166:Drivers/lvgl/src/extra/widgets/imgbtn/lv_imgbtn.c ****     LV_UNUSED(class_p);
  32              		.loc 1 166 5 view .LVU1
 167:Drivers/lvgl/src/extra/widgets/imgbtn/lv_imgbtn.c ****     lv_imgbtn_t * imgbtn = (lv_imgbtn_t *)obj;
  33              		.loc 1 167 5 view .LVU2
 165:Drivers/lvgl/src/extra/widgets/imgbtn/lv_imgbtn.c ****     LV_UNUSED(class_p);
  34              		.loc 1 165 1 is_stmt 0 view .LVU3
  35 0000 10B5     		push	{r4, lr}
  36              		.cfi_def_cfa_offset 8
  37              		.cfi_offset 4, -8
  38              		.cfi_offset 14, -4
 165:Drivers/lvgl/src/extra/widgets/imgbtn/lv_imgbtn.c ****     LV_UNUSED(class_p);
  39              		.loc 1 165 1 view .LVU4
  40 0002 0C46     		mov	r4, r1
  41              	.LVL1:
 168:Drivers/lvgl/src/extra/widgets/imgbtn/lv_imgbtn.c ****     /*Initialize the allocated 'ext'*/
 169:Drivers/lvgl/src/extra/widgets/imgbtn/lv_imgbtn.c ****     lv_memset_00((void *)imgbtn->img_src_mid, sizeof(imgbtn->img_src_mid));
  42              		.loc 1 169 5 is_stmt 1 view .LVU5
  43 0004 04F12400 		add	r0, r4, #36
  44              	.LVL2:
  45              		.loc 1 169 5 is_stmt 0 view .LVU6
  46 0008 1821     		movs	r1, #24
  47              	.LVL3:
  48              		.loc 1 169 5 view .LVU7
  49 000a FFF7FEFF 		bl	lv_memset_00
  50              	.LVL4:
 170:Drivers/lvgl/src/extra/widgets/imgbtn/lv_imgbtn.c ****     lv_memset_00(imgbtn->img_src_left, sizeof(imgbtn->img_src_left));
  51              		.loc 1 170 5 is_stmt 1 view .LVU8
  52 000e 1821     		movs	r1, #24
  53 0010 04F13C00 		add	r0, r4, #60
  54 0014 FFF7FEFF 		bl	lv_memset_00
  55              	.LVL5:
 171:Drivers/lvgl/src/extra/widgets/imgbtn/lv_imgbtn.c ****     lv_memset_00(imgbtn->img_src_right, sizeof(imgbtn->img_src_right));
  56              		.loc 1 171 5 view .LVU9
ARM GAS  /var/folders/0z/tsy30v1j4xl4_7kw94k978ww0000gn/T//ccOGqK87.s 			page 5


  57 0018 1821     		movs	r1, #24
  58 001a 04F15400 		add	r0, r4, #84
  59 001e FFF7FEFF 		bl	lv_memset_00
  60              	.LVL6:
 172:Drivers/lvgl/src/extra/widgets/imgbtn/lv_imgbtn.c **** 
 173:Drivers/lvgl/src/extra/widgets/imgbtn/lv_imgbtn.c ****     imgbtn->act_cf = LV_IMG_CF_UNKNOWN;
  61              		.loc 1 173 5 view .LVU10
  62              		.loc 1 173 20 is_stmt 0 view .LVU11
  63 0022 0023     		movs	r3, #0
  64 0024 84F86C30 		strb	r3, [r4, #108]
 174:Drivers/lvgl/src/extra/widgets/imgbtn/lv_imgbtn.c **** }
  65              		.loc 1 174 1 view .LVU12
  66 0028 10BD     		pop	{r4, pc}
  67              		.loc 1 174 1 view .LVU13
  68              		.cfi_endproc
  69              	.LFE210:
  71 002a 00BF     		.section	.text.suggest_state,"ax",%progbits
  72              		.align	1
  73              		.p2align 2,,3
  74              		.syntax unified
  75              		.thumb
  76              		.thumb_func
  78              	suggest_state:
  79              	.LVL7:
  80              	.LFB214:
 175:Drivers/lvgl/src/extra/widgets/imgbtn/lv_imgbtn.c **** 
 176:Drivers/lvgl/src/extra/widgets/imgbtn/lv_imgbtn.c **** 
 177:Drivers/lvgl/src/extra/widgets/imgbtn/lv_imgbtn.c **** static void lv_imgbtn_event(const lv_obj_class_t * class_p, lv_event_t * e)
 178:Drivers/lvgl/src/extra/widgets/imgbtn/lv_imgbtn.c **** {
 179:Drivers/lvgl/src/extra/widgets/imgbtn/lv_imgbtn.c ****     LV_UNUSED(class_p);
 180:Drivers/lvgl/src/extra/widgets/imgbtn/lv_imgbtn.c **** 
 181:Drivers/lvgl/src/extra/widgets/imgbtn/lv_imgbtn.c ****     lv_res_t res = lv_obj_event_base(&lv_imgbtn_class, e);
 182:Drivers/lvgl/src/extra/widgets/imgbtn/lv_imgbtn.c ****     if(res != LV_RES_OK) return;
 183:Drivers/lvgl/src/extra/widgets/imgbtn/lv_imgbtn.c **** 
 184:Drivers/lvgl/src/extra/widgets/imgbtn/lv_imgbtn.c ****     lv_event_code_t code = lv_event_get_code(e);
 185:Drivers/lvgl/src/extra/widgets/imgbtn/lv_imgbtn.c ****     lv_obj_t * obj = lv_event_get_target(e);
 186:Drivers/lvgl/src/extra/widgets/imgbtn/lv_imgbtn.c ****     if(code == LV_EVENT_PRESSED || code == LV_EVENT_RELEASED || code == LV_EVENT_PRESS_LOST) {
 187:Drivers/lvgl/src/extra/widgets/imgbtn/lv_imgbtn.c ****         refr_img(obj);
 188:Drivers/lvgl/src/extra/widgets/imgbtn/lv_imgbtn.c ****     }
 189:Drivers/lvgl/src/extra/widgets/imgbtn/lv_imgbtn.c ****     else if(code == LV_EVENT_DRAW_MAIN) {
 190:Drivers/lvgl/src/extra/widgets/imgbtn/lv_imgbtn.c ****         draw_main(e);
 191:Drivers/lvgl/src/extra/widgets/imgbtn/lv_imgbtn.c ****     }
 192:Drivers/lvgl/src/extra/widgets/imgbtn/lv_imgbtn.c ****     else if(code == LV_EVENT_COVER_CHECK) {
 193:Drivers/lvgl/src/extra/widgets/imgbtn/lv_imgbtn.c ****         lv_cover_check_info_t * info = lv_event_get_param(e);
 194:Drivers/lvgl/src/extra/widgets/imgbtn/lv_imgbtn.c ****         if(info->res != LV_COVER_RES_MASKED) info->res = LV_COVER_RES_NOT_COVER;
 195:Drivers/lvgl/src/extra/widgets/imgbtn/lv_imgbtn.c ****     }
 196:Drivers/lvgl/src/extra/widgets/imgbtn/lv_imgbtn.c ****     else if(code == LV_EVENT_GET_SELF_SIZE) {
 197:Drivers/lvgl/src/extra/widgets/imgbtn/lv_imgbtn.c ****         lv_point_t * p = lv_event_get_self_size_info(e);
 198:Drivers/lvgl/src/extra/widgets/imgbtn/lv_imgbtn.c ****         lv_imgbtn_t * imgbtn = (lv_imgbtn_t *)obj;
 199:Drivers/lvgl/src/extra/widgets/imgbtn/lv_imgbtn.c ****         lv_imgbtn_state_t state  = suggest_state(obj, get_state(obj));
 200:Drivers/lvgl/src/extra/widgets/imgbtn/lv_imgbtn.c ****         if(imgbtn->img_src_left[state] == NULL &&
 201:Drivers/lvgl/src/extra/widgets/imgbtn/lv_imgbtn.c ****            imgbtn->img_src_mid[state] != NULL &&
 202:Drivers/lvgl/src/extra/widgets/imgbtn/lv_imgbtn.c ****            imgbtn->img_src_right[state] == NULL) {
 203:Drivers/lvgl/src/extra/widgets/imgbtn/lv_imgbtn.c ****             lv_img_header_t header;
 204:Drivers/lvgl/src/extra/widgets/imgbtn/lv_imgbtn.c ****             lv_img_decoder_get_info(imgbtn->img_src_mid[state], &header);
 205:Drivers/lvgl/src/extra/widgets/imgbtn/lv_imgbtn.c ****             p->x = LV_MAX(p->x, header.w);
 206:Drivers/lvgl/src/extra/widgets/imgbtn/lv_imgbtn.c ****         }
ARM GAS  /var/folders/0z/tsy30v1j4xl4_7kw94k978ww0000gn/T//ccOGqK87.s 			page 6


 207:Drivers/lvgl/src/extra/widgets/imgbtn/lv_imgbtn.c ****     }
 208:Drivers/lvgl/src/extra/widgets/imgbtn/lv_imgbtn.c ****     /*Sent when the widget is checked due to LV_OBJ_FLAG_CHECKABLE */
 209:Drivers/lvgl/src/extra/widgets/imgbtn/lv_imgbtn.c ****     else if(code == LV_EVENT_VALUE_CHANGED) {
 210:Drivers/lvgl/src/extra/widgets/imgbtn/lv_imgbtn.c ****         if(lv_obj_has_state(obj, LV_STATE_CHECKED)) {
 211:Drivers/lvgl/src/extra/widgets/imgbtn/lv_imgbtn.c ****             lv_imgbtn_set_state(obj, LV_IMGBTN_STATE_CHECKED_RELEASED);
 212:Drivers/lvgl/src/extra/widgets/imgbtn/lv_imgbtn.c ****         }
 213:Drivers/lvgl/src/extra/widgets/imgbtn/lv_imgbtn.c ****         else {
 214:Drivers/lvgl/src/extra/widgets/imgbtn/lv_imgbtn.c ****             lv_imgbtn_set_state(obj, LV_IMGBTN_STATE_RELEASED);
 215:Drivers/lvgl/src/extra/widgets/imgbtn/lv_imgbtn.c ****         }
 216:Drivers/lvgl/src/extra/widgets/imgbtn/lv_imgbtn.c ****     }
 217:Drivers/lvgl/src/extra/widgets/imgbtn/lv_imgbtn.c **** }
 218:Drivers/lvgl/src/extra/widgets/imgbtn/lv_imgbtn.c **** 
 219:Drivers/lvgl/src/extra/widgets/imgbtn/lv_imgbtn.c **** static void draw_main(lv_event_t * e)
 220:Drivers/lvgl/src/extra/widgets/imgbtn/lv_imgbtn.c **** {
 221:Drivers/lvgl/src/extra/widgets/imgbtn/lv_imgbtn.c ****     lv_obj_t * obj = lv_event_get_target(e);
 222:Drivers/lvgl/src/extra/widgets/imgbtn/lv_imgbtn.c ****     lv_imgbtn_t * imgbtn = (lv_imgbtn_t *)obj;
 223:Drivers/lvgl/src/extra/widgets/imgbtn/lv_imgbtn.c ****     lv_draw_ctx_t * draw_ctx = lv_event_get_draw_ctx(e);
 224:Drivers/lvgl/src/extra/widgets/imgbtn/lv_imgbtn.c **** 
 225:Drivers/lvgl/src/extra/widgets/imgbtn/lv_imgbtn.c ****     /*Just draw_main an image*/
 226:Drivers/lvgl/src/extra/widgets/imgbtn/lv_imgbtn.c ****     lv_imgbtn_state_t state  = suggest_state(obj, get_state(obj));
 227:Drivers/lvgl/src/extra/widgets/imgbtn/lv_imgbtn.c **** 
 228:Drivers/lvgl/src/extra/widgets/imgbtn/lv_imgbtn.c ****     /*Simply draw the middle src if no tiled*/
 229:Drivers/lvgl/src/extra/widgets/imgbtn/lv_imgbtn.c ****     const void * src = imgbtn->img_src_left[state];
 230:Drivers/lvgl/src/extra/widgets/imgbtn/lv_imgbtn.c **** 
 231:Drivers/lvgl/src/extra/widgets/imgbtn/lv_imgbtn.c ****     lv_coord_t tw = lv_obj_get_style_transform_width(obj, LV_PART_MAIN);
 232:Drivers/lvgl/src/extra/widgets/imgbtn/lv_imgbtn.c ****     lv_coord_t th = lv_obj_get_style_transform_height(obj, LV_PART_MAIN);
 233:Drivers/lvgl/src/extra/widgets/imgbtn/lv_imgbtn.c ****     lv_area_t coords;
 234:Drivers/lvgl/src/extra/widgets/imgbtn/lv_imgbtn.c ****     lv_area_copy(&coords, &obj->coords);
 235:Drivers/lvgl/src/extra/widgets/imgbtn/lv_imgbtn.c ****     coords.x1 -= tw;
 236:Drivers/lvgl/src/extra/widgets/imgbtn/lv_imgbtn.c ****     coords.x2 += tw;
 237:Drivers/lvgl/src/extra/widgets/imgbtn/lv_imgbtn.c ****     coords.y1 -= th;
 238:Drivers/lvgl/src/extra/widgets/imgbtn/lv_imgbtn.c ****     coords.y2 += th;
 239:Drivers/lvgl/src/extra/widgets/imgbtn/lv_imgbtn.c **** 
 240:Drivers/lvgl/src/extra/widgets/imgbtn/lv_imgbtn.c ****     lv_draw_img_dsc_t img_dsc;
 241:Drivers/lvgl/src/extra/widgets/imgbtn/lv_imgbtn.c ****     lv_draw_img_dsc_init(&img_dsc);
 242:Drivers/lvgl/src/extra/widgets/imgbtn/lv_imgbtn.c ****     lv_obj_init_draw_img_dsc(obj, LV_PART_MAIN, &img_dsc);
 243:Drivers/lvgl/src/extra/widgets/imgbtn/lv_imgbtn.c **** 
 244:Drivers/lvgl/src/extra/widgets/imgbtn/lv_imgbtn.c ****     lv_img_header_t header;
 245:Drivers/lvgl/src/extra/widgets/imgbtn/lv_imgbtn.c ****     lv_area_t coords_part;
 246:Drivers/lvgl/src/extra/widgets/imgbtn/lv_imgbtn.c ****     lv_coord_t left_w = 0;
 247:Drivers/lvgl/src/extra/widgets/imgbtn/lv_imgbtn.c ****     lv_coord_t right_w = 0;
 248:Drivers/lvgl/src/extra/widgets/imgbtn/lv_imgbtn.c **** 
 249:Drivers/lvgl/src/extra/widgets/imgbtn/lv_imgbtn.c ****     if(src) {
 250:Drivers/lvgl/src/extra/widgets/imgbtn/lv_imgbtn.c ****         lv_img_decoder_get_info(src, &header);
 251:Drivers/lvgl/src/extra/widgets/imgbtn/lv_imgbtn.c ****         left_w = header.w;
 252:Drivers/lvgl/src/extra/widgets/imgbtn/lv_imgbtn.c ****         coords_part.x1 = coords.x1;
 253:Drivers/lvgl/src/extra/widgets/imgbtn/lv_imgbtn.c ****         coords_part.y1 = coords.y1;
 254:Drivers/lvgl/src/extra/widgets/imgbtn/lv_imgbtn.c ****         coords_part.x2 = coords.x1 + header.w - 1;
 255:Drivers/lvgl/src/extra/widgets/imgbtn/lv_imgbtn.c ****         coords_part.y2 = coords.y1 + header.h - 1;
 256:Drivers/lvgl/src/extra/widgets/imgbtn/lv_imgbtn.c ****         lv_draw_img(draw_ctx, &img_dsc, &coords_part, src);
 257:Drivers/lvgl/src/extra/widgets/imgbtn/lv_imgbtn.c ****     }
 258:Drivers/lvgl/src/extra/widgets/imgbtn/lv_imgbtn.c **** 
 259:Drivers/lvgl/src/extra/widgets/imgbtn/lv_imgbtn.c ****     src = imgbtn->img_src_right[state];
 260:Drivers/lvgl/src/extra/widgets/imgbtn/lv_imgbtn.c ****     if(src) {
 261:Drivers/lvgl/src/extra/widgets/imgbtn/lv_imgbtn.c ****         lv_img_decoder_get_info(src, &header);
 262:Drivers/lvgl/src/extra/widgets/imgbtn/lv_imgbtn.c ****         right_w = header.w;
 263:Drivers/lvgl/src/extra/widgets/imgbtn/lv_imgbtn.c ****         coords_part.x1 = coords.x2 - header.w + 1;
ARM GAS  /var/folders/0z/tsy30v1j4xl4_7kw94k978ww0000gn/T//ccOGqK87.s 			page 7


 264:Drivers/lvgl/src/extra/widgets/imgbtn/lv_imgbtn.c ****         coords_part.y1 = coords.y1;
 265:Drivers/lvgl/src/extra/widgets/imgbtn/lv_imgbtn.c ****         coords_part.x2 = coords.x2;
 266:Drivers/lvgl/src/extra/widgets/imgbtn/lv_imgbtn.c ****         coords_part.y2 = coords.y1 + header.h - 1;
 267:Drivers/lvgl/src/extra/widgets/imgbtn/lv_imgbtn.c ****         lv_draw_img(draw_ctx, &img_dsc, &coords_part, src);
 268:Drivers/lvgl/src/extra/widgets/imgbtn/lv_imgbtn.c ****     }
 269:Drivers/lvgl/src/extra/widgets/imgbtn/lv_imgbtn.c **** 
 270:Drivers/lvgl/src/extra/widgets/imgbtn/lv_imgbtn.c ****     src = imgbtn->img_src_mid[state];
 271:Drivers/lvgl/src/extra/widgets/imgbtn/lv_imgbtn.c ****     if(src) {
 272:Drivers/lvgl/src/extra/widgets/imgbtn/lv_imgbtn.c ****         lv_area_t clip_area_center;
 273:Drivers/lvgl/src/extra/widgets/imgbtn/lv_imgbtn.c ****         clip_area_center.x1 = coords.x1 + left_w;
 274:Drivers/lvgl/src/extra/widgets/imgbtn/lv_imgbtn.c ****         clip_area_center.x2 = coords.x2 - right_w;
 275:Drivers/lvgl/src/extra/widgets/imgbtn/lv_imgbtn.c ****         clip_area_center.y1 = coords.y1;
 276:Drivers/lvgl/src/extra/widgets/imgbtn/lv_imgbtn.c ****         clip_area_center.y2 = coords.y2;
 277:Drivers/lvgl/src/extra/widgets/imgbtn/lv_imgbtn.c **** 
 278:Drivers/lvgl/src/extra/widgets/imgbtn/lv_imgbtn.c **** 
 279:Drivers/lvgl/src/extra/widgets/imgbtn/lv_imgbtn.c ****         bool comm_res;
 280:Drivers/lvgl/src/extra/widgets/imgbtn/lv_imgbtn.c ****         comm_res = _lv_area_intersect(&clip_area_center, &clip_area_center, draw_ctx->clip_area);
 281:Drivers/lvgl/src/extra/widgets/imgbtn/lv_imgbtn.c ****         if(comm_res) {
 282:Drivers/lvgl/src/extra/widgets/imgbtn/lv_imgbtn.c ****             lv_coord_t i;
 283:Drivers/lvgl/src/extra/widgets/imgbtn/lv_imgbtn.c ****             lv_img_decoder_get_info(src, &header);
 284:Drivers/lvgl/src/extra/widgets/imgbtn/lv_imgbtn.c **** 
 285:Drivers/lvgl/src/extra/widgets/imgbtn/lv_imgbtn.c ****             const lv_area_t * clip_area_ori = draw_ctx->clip_area;
 286:Drivers/lvgl/src/extra/widgets/imgbtn/lv_imgbtn.c ****             draw_ctx->clip_area = &clip_area_center;
 287:Drivers/lvgl/src/extra/widgets/imgbtn/lv_imgbtn.c **** 
 288:Drivers/lvgl/src/extra/widgets/imgbtn/lv_imgbtn.c ****             coords_part.x1 = coords.x1 + left_w;
 289:Drivers/lvgl/src/extra/widgets/imgbtn/lv_imgbtn.c ****             coords_part.y1 = coords.y1;
 290:Drivers/lvgl/src/extra/widgets/imgbtn/lv_imgbtn.c ****             coords_part.x2 = coords_part.x1 + header.w - 1;
 291:Drivers/lvgl/src/extra/widgets/imgbtn/lv_imgbtn.c ****             coords_part.y2 = coords_part.y1 + header.h - 1;
 292:Drivers/lvgl/src/extra/widgets/imgbtn/lv_imgbtn.c **** 
 293:Drivers/lvgl/src/extra/widgets/imgbtn/lv_imgbtn.c ****             for(i = coords_part.x1; i < (lv_coord_t)(clip_area_center.x2 + header.w - 1); i += head
 294:Drivers/lvgl/src/extra/widgets/imgbtn/lv_imgbtn.c ****                 lv_draw_img(draw_ctx, &img_dsc, &coords_part, src);
 295:Drivers/lvgl/src/extra/widgets/imgbtn/lv_imgbtn.c ****                 coords_part.x1 = coords_part.x2 + 1;
 296:Drivers/lvgl/src/extra/widgets/imgbtn/lv_imgbtn.c ****                 coords_part.x2 += header.w;
 297:Drivers/lvgl/src/extra/widgets/imgbtn/lv_imgbtn.c ****             }
 298:Drivers/lvgl/src/extra/widgets/imgbtn/lv_imgbtn.c ****             draw_ctx->clip_area = clip_area_ori;
 299:Drivers/lvgl/src/extra/widgets/imgbtn/lv_imgbtn.c ****         }
 300:Drivers/lvgl/src/extra/widgets/imgbtn/lv_imgbtn.c ****     }
 301:Drivers/lvgl/src/extra/widgets/imgbtn/lv_imgbtn.c **** }
 302:Drivers/lvgl/src/extra/widgets/imgbtn/lv_imgbtn.c **** 
 303:Drivers/lvgl/src/extra/widgets/imgbtn/lv_imgbtn.c **** static void refr_img(lv_obj_t * obj)
 304:Drivers/lvgl/src/extra/widgets/imgbtn/lv_imgbtn.c **** {
 305:Drivers/lvgl/src/extra/widgets/imgbtn/lv_imgbtn.c ****     lv_imgbtn_t * imgbtn = (lv_imgbtn_t *)obj;
 306:Drivers/lvgl/src/extra/widgets/imgbtn/lv_imgbtn.c ****     lv_imgbtn_state_t state  = suggest_state(obj, get_state(obj));
 307:Drivers/lvgl/src/extra/widgets/imgbtn/lv_imgbtn.c ****     lv_img_header_t header;
 308:Drivers/lvgl/src/extra/widgets/imgbtn/lv_imgbtn.c **** 
 309:Drivers/lvgl/src/extra/widgets/imgbtn/lv_imgbtn.c ****     const void * src = imgbtn->img_src_mid[state];
 310:Drivers/lvgl/src/extra/widgets/imgbtn/lv_imgbtn.c ****     if(src == NULL) return;
 311:Drivers/lvgl/src/extra/widgets/imgbtn/lv_imgbtn.c **** 
 312:Drivers/lvgl/src/extra/widgets/imgbtn/lv_imgbtn.c ****     lv_res_t info_res = LV_RES_OK;
 313:Drivers/lvgl/src/extra/widgets/imgbtn/lv_imgbtn.c ****     info_res = lv_img_decoder_get_info(src, &header);
 314:Drivers/lvgl/src/extra/widgets/imgbtn/lv_imgbtn.c **** 
 315:Drivers/lvgl/src/extra/widgets/imgbtn/lv_imgbtn.c ****     if(info_res == LV_RES_OK) {
 316:Drivers/lvgl/src/extra/widgets/imgbtn/lv_imgbtn.c ****         imgbtn->act_cf = header.cf;
 317:Drivers/lvgl/src/extra/widgets/imgbtn/lv_imgbtn.c ****         lv_obj_refresh_self_size(obj);
 318:Drivers/lvgl/src/extra/widgets/imgbtn/lv_imgbtn.c ****         lv_obj_set_height(obj, header.h); /*Keep the user defined width*/
 319:Drivers/lvgl/src/extra/widgets/imgbtn/lv_imgbtn.c ****     }
 320:Drivers/lvgl/src/extra/widgets/imgbtn/lv_imgbtn.c ****     else {
ARM GAS  /var/folders/0z/tsy30v1j4xl4_7kw94k978ww0000gn/T//ccOGqK87.s 			page 8


 321:Drivers/lvgl/src/extra/widgets/imgbtn/lv_imgbtn.c ****         imgbtn->act_cf = LV_IMG_CF_UNKNOWN;
 322:Drivers/lvgl/src/extra/widgets/imgbtn/lv_imgbtn.c ****     }
 323:Drivers/lvgl/src/extra/widgets/imgbtn/lv_imgbtn.c **** 
 324:Drivers/lvgl/src/extra/widgets/imgbtn/lv_imgbtn.c ****     lv_obj_invalidate(obj);
 325:Drivers/lvgl/src/extra/widgets/imgbtn/lv_imgbtn.c **** }
 326:Drivers/lvgl/src/extra/widgets/imgbtn/lv_imgbtn.c **** 
 327:Drivers/lvgl/src/extra/widgets/imgbtn/lv_imgbtn.c **** /**
 328:Drivers/lvgl/src/extra/widgets/imgbtn/lv_imgbtn.c ****  * If `src` is not defined for the current state try to get a state which is related to the current
 329:Drivers/lvgl/src/extra/widgets/imgbtn/lv_imgbtn.c ****  * E.g. if the PRESSED src is not set but the RELEASED does, use the RELEASED.
 330:Drivers/lvgl/src/extra/widgets/imgbtn/lv_imgbtn.c ****  * @param imgbtn pointer to an image button
 331:Drivers/lvgl/src/extra/widgets/imgbtn/lv_imgbtn.c ****  * @param state the state to convert
 332:Drivers/lvgl/src/extra/widgets/imgbtn/lv_imgbtn.c ****  * @return the suggested state
 333:Drivers/lvgl/src/extra/widgets/imgbtn/lv_imgbtn.c ****  */
 334:Drivers/lvgl/src/extra/widgets/imgbtn/lv_imgbtn.c **** static lv_imgbtn_state_t suggest_state(lv_obj_t * obj, lv_imgbtn_state_t state)
 335:Drivers/lvgl/src/extra/widgets/imgbtn/lv_imgbtn.c **** {
  81              		.loc 1 335 1 is_stmt 1 view -0
  82              		.cfi_startproc
  83              		@ args = 0, pretend = 0, frame = 0
  84              		@ frame_needed = 0, uses_anonymous_args = 0
  85              		@ link register save eliminated.
 336:Drivers/lvgl/src/extra/widgets/imgbtn/lv_imgbtn.c ****     lv_imgbtn_t * imgbtn = (lv_imgbtn_t *)obj;
  86              		.loc 1 336 5 view .LVU15
 337:Drivers/lvgl/src/extra/widgets/imgbtn/lv_imgbtn.c ****     if(imgbtn->img_src_mid[state] == NULL) {
  87              		.loc 1 337 5 view .LVU16
  88              		.loc 1 337 27 is_stmt 0 view .LVU17
  89 0000 00EB8103 		add	r3, r0, r1, lsl #2
  90              		.loc 1 337 7 view .LVU18
  91 0004 5B6A     		ldr	r3, [r3, #36]
  92 0006 0BB1     		cbz	r3, .L20
  93              	.LVL8:
  94              	.L5:
 338:Drivers/lvgl/src/extra/widgets/imgbtn/lv_imgbtn.c ****         switch(state) {
 339:Drivers/lvgl/src/extra/widgets/imgbtn/lv_imgbtn.c ****             case LV_IMGBTN_STATE_PRESSED:
 340:Drivers/lvgl/src/extra/widgets/imgbtn/lv_imgbtn.c ****                 if(imgbtn->img_src_mid[LV_IMGBTN_STATE_RELEASED]) return LV_IMGBTN_STATE_RELEASED;
 341:Drivers/lvgl/src/extra/widgets/imgbtn/lv_imgbtn.c ****                 break;
 342:Drivers/lvgl/src/extra/widgets/imgbtn/lv_imgbtn.c ****             case LV_IMGBTN_STATE_CHECKED_RELEASED:
 343:Drivers/lvgl/src/extra/widgets/imgbtn/lv_imgbtn.c ****                 if(imgbtn->img_src_mid[LV_IMGBTN_STATE_RELEASED]) return LV_IMGBTN_STATE_RELEASED;
 344:Drivers/lvgl/src/extra/widgets/imgbtn/lv_imgbtn.c ****                 break;
 345:Drivers/lvgl/src/extra/widgets/imgbtn/lv_imgbtn.c ****             case LV_IMGBTN_STATE_CHECKED_PRESSED:
 346:Drivers/lvgl/src/extra/widgets/imgbtn/lv_imgbtn.c ****                 if(imgbtn->img_src_mid[LV_IMGBTN_STATE_CHECKED_RELEASED]) return LV_IMGBTN_STATE_CH
 347:Drivers/lvgl/src/extra/widgets/imgbtn/lv_imgbtn.c ****                 if(imgbtn->img_src_mid[LV_IMGBTN_STATE_PRESSED]) return LV_IMGBTN_STATE_PRESSED;
 348:Drivers/lvgl/src/extra/widgets/imgbtn/lv_imgbtn.c ****                 if(imgbtn->img_src_mid[LV_IMGBTN_STATE_RELEASED]) return LV_IMGBTN_STATE_RELEASED;
 349:Drivers/lvgl/src/extra/widgets/imgbtn/lv_imgbtn.c ****                 break;
 350:Drivers/lvgl/src/extra/widgets/imgbtn/lv_imgbtn.c ****             case LV_IMGBTN_STATE_DISABLED:
 351:Drivers/lvgl/src/extra/widgets/imgbtn/lv_imgbtn.c ****                 if(imgbtn->img_src_mid[LV_IMGBTN_STATE_RELEASED]) return LV_IMGBTN_STATE_RELEASED;
 352:Drivers/lvgl/src/extra/widgets/imgbtn/lv_imgbtn.c ****                 break;
 353:Drivers/lvgl/src/extra/widgets/imgbtn/lv_imgbtn.c ****             case LV_IMGBTN_STATE_CHECKED_DISABLED:
 354:Drivers/lvgl/src/extra/widgets/imgbtn/lv_imgbtn.c ****                 if(imgbtn->img_src_mid[LV_IMGBTN_STATE_CHECKED_RELEASED]) return LV_IMGBTN_STATE_CH
 355:Drivers/lvgl/src/extra/widgets/imgbtn/lv_imgbtn.c ****                 if(imgbtn->img_src_mid[LV_IMGBTN_STATE_RELEASED]) return LV_IMGBTN_STATE_RELEASED;
 356:Drivers/lvgl/src/extra/widgets/imgbtn/lv_imgbtn.c ****                 break;
 357:Drivers/lvgl/src/extra/widgets/imgbtn/lv_imgbtn.c ****             default:
 358:Drivers/lvgl/src/extra/widgets/imgbtn/lv_imgbtn.c ****                 break;
 359:Drivers/lvgl/src/extra/widgets/imgbtn/lv_imgbtn.c ****         }
 360:Drivers/lvgl/src/extra/widgets/imgbtn/lv_imgbtn.c ****     }
 361:Drivers/lvgl/src/extra/widgets/imgbtn/lv_imgbtn.c **** 
 362:Drivers/lvgl/src/extra/widgets/imgbtn/lv_imgbtn.c ****     return state;
 363:Drivers/lvgl/src/extra/widgets/imgbtn/lv_imgbtn.c **** }
ARM GAS  /var/folders/0z/tsy30v1j4xl4_7kw94k978ww0000gn/T//ccOGqK87.s 			page 9


  95              		.loc 1 363 1 view .LVU19
  96 0008 0846     		mov	r0, r1
  97              	.LVL9:
  98              		.loc 1 363 1 view .LVU20
  99 000a 7047     		bx	lr
 100              	.LVL10:
 101              	.L20:
 338:Drivers/lvgl/src/extra/widgets/imgbtn/lv_imgbtn.c ****         switch(state) {
 102              		.loc 1 338 9 is_stmt 1 view .LVU21
 103 000c 4B1E     		subs	r3, r1, #1
 104 000e 042B     		cmp	r3, #4
 105 0010 FAD8     		bhi	.L5
 106 0012 DFE803F0 		tbb	[pc, r3]
 107              	.L7:
 108 0016 19       		.byte	(.L11-.L7)/2
 109 0017 08       		.byte	(.L10-.L7)/2
 110 0018 03       		.byte	(.L19-.L7)/2
 111 0019 0E       		.byte	(.L8-.L7)/2
 112 001a 14       		.byte	(.L6-.L7)/2
 113 001b 00       		.p2align 1
 114              	.L19:
 355:Drivers/lvgl/src/extra/widgets/imgbtn/lv_imgbtn.c ****                 break;
 115              		.loc 1 355 17 view .LVU22
 355:Drivers/lvgl/src/extra/widgets/imgbtn/lv_imgbtn.c ****                 break;
 116              		.loc 1 355 19 is_stmt 0 view .LVU23
 117 001c 436A     		ldr	r3, [r0, #36]
 343:Drivers/lvgl/src/extra/widgets/imgbtn/lv_imgbtn.c ****                 break;
 118              		.loc 1 343 74 view .LVU24
 119 001e 002B     		cmp	r3, #0
 120 0020 18BF     		it	ne
 121 0022 0021     		movne	r1, #0
 122              	.LVL11:
 343:Drivers/lvgl/src/extra/widgets/imgbtn/lv_imgbtn.c ****                 break;
 123              		.loc 1 343 74 view .LVU25
 124 0024 F0E7     		b	.L5
 125              	.LVL12:
 126              	.L10:
 351:Drivers/lvgl/src/extra/widgets/imgbtn/lv_imgbtn.c ****                 break;
 127              		.loc 1 351 17 is_stmt 1 view .LVU26
 351:Drivers/lvgl/src/extra/widgets/imgbtn/lv_imgbtn.c ****                 break;
 128              		.loc 1 351 19 is_stmt 0 view .LVU27
 129 0026 416A     		ldr	r1, [r0, #36]
 130              	.LVL13:
 351:Drivers/lvgl/src/extra/widgets/imgbtn/lv_imgbtn.c ****                 break;
 131              		.loc 1 351 19 view .LVU28
 132 0028 B1FA81F1 		clz	r1, r1
 133 002c 4909     		lsrs	r1, r1, #5
 134 002e 4900     		lsls	r1, r1, #1
 135 0030 EAE7     		b	.L5
 136              	.LVL14:
 137              	.L8:
 346:Drivers/lvgl/src/extra/widgets/imgbtn/lv_imgbtn.c ****                 if(imgbtn->img_src_mid[LV_IMGBTN_STATE_PRESSED]) return LV_IMGBTN_STATE_PRESSED;
 138              		.loc 1 346 17 is_stmt 1 view .LVU29
 346:Drivers/lvgl/src/extra/widgets/imgbtn/lv_imgbtn.c ****                 if(imgbtn->img_src_mid[LV_IMGBTN_STATE_PRESSED]) return LV_IMGBTN_STATE_PRESSED;
 139              		.loc 1 346 19 is_stmt 0 view .LVU30
 140 0032 036B     		ldr	r3, [r0, #48]
 141 0034 33B9     		cbnz	r3, .L14
ARM GAS  /var/folders/0z/tsy30v1j4xl4_7kw94k978ww0000gn/T//ccOGqK87.s 			page 10


 142              	.LVL15:
 143              	.LBB15:
 144              	.LBI15:
 334:Drivers/lvgl/src/extra/widgets/imgbtn/lv_imgbtn.c **** {
 145              		.loc 1 334 26 is_stmt 1 view .LVU31
 146              	.LBB16:
 347:Drivers/lvgl/src/extra/widgets/imgbtn/lv_imgbtn.c ****                 if(imgbtn->img_src_mid[LV_IMGBTN_STATE_RELEASED]) return LV_IMGBTN_STATE_RELEASED;
 147              		.loc 1 347 17 view .LVU32
 347:Drivers/lvgl/src/extra/widgets/imgbtn/lv_imgbtn.c ****                 if(imgbtn->img_src_mid[LV_IMGBTN_STATE_RELEASED]) return LV_IMGBTN_STATE_RELEASED;
 148              		.loc 1 347 19 is_stmt 0 view .LVU33
 149 0036 836A     		ldr	r3, [r0, #40]
 150 0038 5BB1     		cbz	r3, .L21
 347:Drivers/lvgl/src/extra/widgets/imgbtn/lv_imgbtn.c ****                 if(imgbtn->img_src_mid[LV_IMGBTN_STATE_RELEASED]) return LV_IMGBTN_STATE_RELEASED;
 151              		.loc 1 347 73 view .LVU34
 152 003a 0121     		movs	r1, #1
 153              	.LVL16:
 347:Drivers/lvgl/src/extra/widgets/imgbtn/lv_imgbtn.c ****                 if(imgbtn->img_src_mid[LV_IMGBTN_STATE_RELEASED]) return LV_IMGBTN_STATE_RELEASED;
 154              		.loc 1 347 73 view .LVU35
 155 003c E4E7     		b	.L5
 156              	.LVL17:
 157              	.L6:
 347:Drivers/lvgl/src/extra/widgets/imgbtn/lv_imgbtn.c ****                 if(imgbtn->img_src_mid[LV_IMGBTN_STATE_RELEASED]) return LV_IMGBTN_STATE_RELEASED;
 158              		.loc 1 347 73 view .LVU36
 159              	.LBE16:
 160              	.LBE15:
 354:Drivers/lvgl/src/extra/widgets/imgbtn/lv_imgbtn.c ****                 if(imgbtn->img_src_mid[LV_IMGBTN_STATE_RELEASED]) return LV_IMGBTN_STATE_RELEASED;
 161              		.loc 1 354 17 is_stmt 1 view .LVU37
 354:Drivers/lvgl/src/extra/widgets/imgbtn/lv_imgbtn.c ****                 if(imgbtn->img_src_mid[LV_IMGBTN_STATE_RELEASED]) return LV_IMGBTN_STATE_RELEASED;
 162              		.loc 1 354 19 is_stmt 0 view .LVU38
 163 003e 036B     		ldr	r3, [r0, #48]
 164 0040 002B     		cmp	r3, #0
 165 0042 EBD0     		beq	.L19
 166              	.L14:
 362:Drivers/lvgl/src/extra/widgets/imgbtn/lv_imgbtn.c **** }
 167              		.loc 1 362 12 view .LVU39
 168 0044 0321     		movs	r1, #3
 169              	.LVL18:
 362:Drivers/lvgl/src/extra/widgets/imgbtn/lv_imgbtn.c **** }
 170              		.loc 1 362 12 view .LVU40
 171 0046 DFE7     		b	.L5
 172              	.LVL19:
 173              	.L11:
 340:Drivers/lvgl/src/extra/widgets/imgbtn/lv_imgbtn.c ****                 break;
 174              		.loc 1 340 17 is_stmt 1 view .LVU41
 340:Drivers/lvgl/src/extra/widgets/imgbtn/lv_imgbtn.c ****                 break;
 175              		.loc 1 340 19 is_stmt 0 view .LVU42
 176 0048 416A     		ldr	r1, [r0, #36]
 177              	.LVL20:
 340:Drivers/lvgl/src/extra/widgets/imgbtn/lv_imgbtn.c ****                 break;
 178              		.loc 1 340 74 view .LVU43
 179 004a B1FA81F1 		clz	r1, r1
 180 004e 4909     		lsrs	r1, r1, #5
 181 0050 DAE7     		b	.L5
 182              	.LVL21:
 183              	.L21:
 184              	.LBB18:
 185              	.LBB17:
ARM GAS  /var/folders/0z/tsy30v1j4xl4_7kw94k978ww0000gn/T//ccOGqK87.s 			page 11


 348:Drivers/lvgl/src/extra/widgets/imgbtn/lv_imgbtn.c ****                 break;
 186              		.loc 1 348 17 is_stmt 1 view .LVU44
 348:Drivers/lvgl/src/extra/widgets/imgbtn/lv_imgbtn.c ****                 break;
 187              		.loc 1 348 19 is_stmt 0 view .LVU45
 188 0052 416A     		ldr	r1, [r0, #36]
 189              	.LVL22:
 348:Drivers/lvgl/src/extra/widgets/imgbtn/lv_imgbtn.c ****                 break;
 190              		.loc 1 348 19 view .LVU46
 191 0054 B1FA81F1 		clz	r1, r1
 192 0058 4909     		lsrs	r1, r1, #5
 193 005a 8900     		lsls	r1, r1, #2
 194 005c D4E7     		b	.L5
 195              	.LBE17:
 196              	.LBE18:
 197              		.cfi_endproc
 198              	.LFE214:
 200 005e 00BF     		.section	.text.refr_img,"ax",%progbits
 201              		.align	1
 202              		.p2align 2,,3
 203              		.syntax unified
 204              		.thumb
 205              		.thumb_func
 207              	refr_img:
 208              	.LVL23:
 209              	.LFB213:
 304:Drivers/lvgl/src/extra/widgets/imgbtn/lv_imgbtn.c ****     lv_imgbtn_t * imgbtn = (lv_imgbtn_t *)obj;
 210              		.loc 1 304 1 is_stmt 1 view -0
 211              		.cfi_startproc
 212              		@ args = 0, pretend = 0, frame = 8
 213              		@ frame_needed = 0, uses_anonymous_args = 0
 305:Drivers/lvgl/src/extra/widgets/imgbtn/lv_imgbtn.c ****     lv_imgbtn_state_t state  = suggest_state(obj, get_state(obj));
 214              		.loc 1 305 5 view .LVU48
 304:Drivers/lvgl/src/extra/widgets/imgbtn/lv_imgbtn.c ****     lv_imgbtn_t * imgbtn = (lv_imgbtn_t *)obj;
 215              		.loc 1 304 1 is_stmt 0 view .LVU49
 216 0000 10B5     		push	{r4, lr}
 217              		.cfi_def_cfa_offset 8
 218              		.cfi_offset 4, -8
 219              		.cfi_offset 14, -4
 220 0002 82B0     		sub	sp, sp, #8
 221              		.cfi_def_cfa_offset 16
 304:Drivers/lvgl/src/extra/widgets/imgbtn/lv_imgbtn.c ****     lv_imgbtn_t * imgbtn = (lv_imgbtn_t *)obj;
 222              		.loc 1 304 1 view .LVU50
 223 0004 0446     		mov	r4, r0
 224              	.LVL24:
 306:Drivers/lvgl/src/extra/widgets/imgbtn/lv_imgbtn.c ****     lv_img_header_t header;
 225              		.loc 1 306 5 is_stmt 1 view .LVU51
 226              	.LBB25:
 227              	.LBI25:
 364:Drivers/lvgl/src/extra/widgets/imgbtn/lv_imgbtn.c **** 
 365:Drivers/lvgl/src/extra/widgets/imgbtn/lv_imgbtn.c **** lv_imgbtn_state_t get_state(const lv_obj_t * imgbtn)
 228              		.loc 1 365 19 view .LVU52
 229              	.LBB26:
 366:Drivers/lvgl/src/extra/widgets/imgbtn/lv_imgbtn.c **** {
 367:Drivers/lvgl/src/extra/widgets/imgbtn/lv_imgbtn.c ****     LV_ASSERT_OBJ(imgbtn, MY_CLASS);
 230              		.loc 1 367 5 view .LVU53
 231              		.loc 1 367 5 view .LVU54
 232              		.loc 1 367 5 view .LVU55
ARM GAS  /var/folders/0z/tsy30v1j4xl4_7kw94k978ww0000gn/T//ccOGqK87.s 			page 12


 368:Drivers/lvgl/src/extra/widgets/imgbtn/lv_imgbtn.c **** 
 369:Drivers/lvgl/src/extra/widgets/imgbtn/lv_imgbtn.c ****     lv_state_t obj_state = lv_obj_get_state(imgbtn);
 233              		.loc 1 369 5 view .LVU56
 234              		.loc 1 369 28 is_stmt 0 view .LVU57
 235 0006 FFF7FEFF 		bl	lv_obj_get_state
 236              	.LVL25:
 370:Drivers/lvgl/src/extra/widgets/imgbtn/lv_imgbtn.c **** 
 371:Drivers/lvgl/src/extra/widgets/imgbtn/lv_imgbtn.c ****     if(obj_state & LV_STATE_DISABLED) {
 237              		.loc 1 371 5 is_stmt 1 view .LVU58
 238              		.loc 1 371 7 is_stmt 0 view .LVU59
 239 000a 0306     		lsls	r3, r0, #24
 240 000c 10D5     		bpl	.L23
 372:Drivers/lvgl/src/extra/widgets/imgbtn/lv_imgbtn.c ****         if(obj_state & LV_STATE_CHECKED) return LV_IMGBTN_STATE_CHECKED_DISABLED;
 241              		.loc 1 372 9 is_stmt 1 view .LVU60
 242              		.loc 1 372 11 is_stmt 0 view .LVU61
 243 000e C107     		lsls	r1, r0, #31
 244 0010 2AD5     		bpl	.L24
 245              	.LVL26:
 246              		.loc 1 372 11 view .LVU62
 247              	.LBE26:
 248              	.LBE25:
 249              	.LBB30:
 250              	.LBI30:
 334:Drivers/lvgl/src/extra/widgets/imgbtn/lv_imgbtn.c **** {
 251              		.loc 1 334 26 is_stmt 1 view .LVU63
 252              	.LBB31:
 336:Drivers/lvgl/src/extra/widgets/imgbtn/lv_imgbtn.c ****     if(imgbtn->img_src_mid[state] == NULL) {
 253              		.loc 1 336 5 view .LVU64
 337:Drivers/lvgl/src/extra/widgets/imgbtn/lv_imgbtn.c ****         switch(state) {
 254              		.loc 1 337 5 view .LVU65
 337:Drivers/lvgl/src/extra/widgets/imgbtn/lv_imgbtn.c ****         switch(state) {
 255              		.loc 1 337 27 is_stmt 0 view .LVU66
 256 0012 A06B     		ldr	r0, [r4, #56]
 337:Drivers/lvgl/src/extra/widgets/imgbtn/lv_imgbtn.c ****         switch(state) {
 257              		.loc 1 337 7 view .LVU67
 258 0014 80B1     		cbz	r0, .L25
 259              	.LVL27:
 260              	.L38:
 337:Drivers/lvgl/src/extra/widgets/imgbtn/lv_imgbtn.c ****         switch(state) {
 261              		.loc 1 337 7 view .LVU68
 262              	.LBE31:
 263              	.LBE30:
 312:Drivers/lvgl/src/extra/widgets/imgbtn/lv_imgbtn.c ****     info_res = lv_img_decoder_get_info(src, &header);
 264              		.loc 1 312 5 is_stmt 1 view .LVU69
 313:Drivers/lvgl/src/extra/widgets/imgbtn/lv_imgbtn.c **** 
 265              		.loc 1 313 5 view .LVU70
 313:Drivers/lvgl/src/extra/widgets/imgbtn/lv_imgbtn.c **** 
 266              		.loc 1 313 16 is_stmt 0 view .LVU71
 267 0016 01A9     		add	r1, sp, #4
 268 0018 FFF7FEFF 		bl	lv_img_decoder_get_info
 269              	.LVL28:
 315:Drivers/lvgl/src/extra/widgets/imgbtn/lv_imgbtn.c ****         imgbtn->act_cf = header.cf;
 270              		.loc 1 315 5 is_stmt 1 view .LVU72
 315:Drivers/lvgl/src/extra/widgets/imgbtn/lv_imgbtn.c ****         imgbtn->act_cf = header.cf;
 271              		.loc 1 315 7 is_stmt 0 view .LVU73
 272 001c 0128     		cmp	r0, #1
 273 001e 3BD0     		beq	.L48
ARM GAS  /var/folders/0z/tsy30v1j4xl4_7kw94k978ww0000gn/T//ccOGqK87.s 			page 13


 321:Drivers/lvgl/src/extra/widgets/imgbtn/lv_imgbtn.c ****     }
 274              		.loc 1 321 9 is_stmt 1 view .LVU74
 321:Drivers/lvgl/src/extra/widgets/imgbtn/lv_imgbtn.c ****     }
 275              		.loc 1 321 24 is_stmt 0 view .LVU75
 276 0020 0023     		movs	r3, #0
 277 0022 84F86C30 		strb	r3, [r4, #108]
 278              	.LVL29:
 279              	.L37:
 324:Drivers/lvgl/src/extra/widgets/imgbtn/lv_imgbtn.c **** }
 280              		.loc 1 324 5 is_stmt 1 view .LVU76
 281 0026 2046     		mov	r0, r4
 282 0028 FFF7FEFF 		bl	lv_obj_invalidate
 283              	.LVL30:
 284              	.L22:
 325:Drivers/lvgl/src/extra/widgets/imgbtn/lv_imgbtn.c **** 
 285              		.loc 1 325 1 is_stmt 0 view .LVU77
 286 002c 02B0     		add	sp, sp, #8
 287              		.cfi_remember_state
 288              		.cfi_def_cfa_offset 8
 289              		@ sp needed
 290 002e 10BD     		pop	{r4, pc}
 291              	.LVL31:
 292              	.L23:
 293              		.cfi_restore_state
 294              	.LBB42:
 295              	.LBB27:
 373:Drivers/lvgl/src/extra/widgets/imgbtn/lv_imgbtn.c ****         else return LV_IMGBTN_STATE_DISABLED;
 374:Drivers/lvgl/src/extra/widgets/imgbtn/lv_imgbtn.c ****     }
 375:Drivers/lvgl/src/extra/widgets/imgbtn/lv_imgbtn.c **** 
 376:Drivers/lvgl/src/extra/widgets/imgbtn/lv_imgbtn.c ****     if(obj_state & LV_STATE_CHECKED) {
 296              		.loc 1 376 5 is_stmt 1 view .LVU78
 297              		.loc 1 376 7 is_stmt 0 view .LVU79
 298 0030 C207     		lsls	r2, r0, #31
 299 0032 08D5     		bpl	.L27
 377:Drivers/lvgl/src/extra/widgets/imgbtn/lv_imgbtn.c ****         if(obj_state & LV_STATE_PRESSED) return LV_IMGBTN_STATE_CHECKED_PRESSED;
 300              		.loc 1 377 9 is_stmt 1 view .LVU80
 301              		.loc 1 377 11 is_stmt 0 view .LVU81
 302 0034 8306     		lsls	r3, r0, #26
 303 0036 20D4     		bmi	.L28
 304              	.LVL32:
 305              	.L25:
 306              		.loc 1 377 11 view .LVU82
 307              	.LBE27:
 308              	.LBE42:
 309              	.LBB43:
 310              	.LBB36:
 338:Drivers/lvgl/src/extra/widgets/imgbtn/lv_imgbtn.c ****             case LV_IMGBTN_STATE_PRESSED:
 311              		.loc 1 338 9 is_stmt 1 view .LVU83
 354:Drivers/lvgl/src/extra/widgets/imgbtn/lv_imgbtn.c ****                 if(imgbtn->img_src_mid[LV_IMGBTN_STATE_RELEASED]) return LV_IMGBTN_STATE_RELEASED;
 312              		.loc 1 354 17 view .LVU84
 354:Drivers/lvgl/src/extra/widgets/imgbtn/lv_imgbtn.c ****                 if(imgbtn->img_src_mid[LV_IMGBTN_STATE_RELEASED]) return LV_IMGBTN_STATE_RELEASED;
 313              		.loc 1 354 39 is_stmt 0 view .LVU85
 314 0038 206B     		ldr	r0, [r4, #48]
 354:Drivers/lvgl/src/extra/widgets/imgbtn/lv_imgbtn.c ****                 if(imgbtn->img_src_mid[LV_IMGBTN_STATE_RELEASED]) return LV_IMGBTN_STATE_RELEASED;
 315              		.loc 1 354 19 view .LVU86
 316 003a 0028     		cmp	r0, #0
 317 003c EBD1     		bne	.L38
ARM GAS  /var/folders/0z/tsy30v1j4xl4_7kw94k978ww0000gn/T//ccOGqK87.s 			page 14


 355:Drivers/lvgl/src/extra/widgets/imgbtn/lv_imgbtn.c ****                 break;
 318              		.loc 1 355 17 is_stmt 1 view .LVU87
 355:Drivers/lvgl/src/extra/widgets/imgbtn/lv_imgbtn.c ****                 break;
 319              		.loc 1 355 39 is_stmt 0 view .LVU88
 320 003e 606A     		ldr	r0, [r4, #36]
 355:Drivers/lvgl/src/extra/widgets/imgbtn/lv_imgbtn.c ****                 break;
 321              		.loc 1 355 19 view .LVU89
 322 0040 0028     		cmp	r0, #0
 323 0042 E8D1     		bne	.L38
 324 0044 F2E7     		b	.L22
 325              	.LVL33:
 326              	.L27:
 355:Drivers/lvgl/src/extra/widgets/imgbtn/lv_imgbtn.c ****                 break;
 327              		.loc 1 355 19 view .LVU90
 328              	.LBE36:
 329              	.LBE43:
 330              	.LBB44:
 331              	.LBB28:
 378:Drivers/lvgl/src/extra/widgets/imgbtn/lv_imgbtn.c ****         else return LV_IMGBTN_STATE_CHECKED_RELEASED;
 379:Drivers/lvgl/src/extra/widgets/imgbtn/lv_imgbtn.c ****     }
 380:Drivers/lvgl/src/extra/widgets/imgbtn/lv_imgbtn.c ****     else {
 381:Drivers/lvgl/src/extra/widgets/imgbtn/lv_imgbtn.c ****         if(obj_state & LV_STATE_PRESSED) return LV_IMGBTN_STATE_PRESSED;
 332              		.loc 1 381 9 is_stmt 1 view .LVU91
 333              		.loc 1 381 11 is_stmt 0 view .LVU92
 334 0046 10F02003 		ands	r3, r0, #32
 335 004a 06D0     		beq	.L30
 336              	.LVL34:
 337              		.loc 1 381 11 view .LVU93
 338              	.LBE28:
 339              	.LBE44:
 340              	.LBB45:
 334:Drivers/lvgl/src/extra/widgets/imgbtn/lv_imgbtn.c **** {
 341              		.loc 1 334 26 is_stmt 1 view .LVU94
 342              	.LBB37:
 336:Drivers/lvgl/src/extra/widgets/imgbtn/lv_imgbtn.c ****     if(imgbtn->img_src_mid[state] == NULL) {
 343              		.loc 1 336 5 view .LVU95
 337:Drivers/lvgl/src/extra/widgets/imgbtn/lv_imgbtn.c ****         switch(state) {
 344              		.loc 1 337 5 view .LVU96
 337:Drivers/lvgl/src/extra/widgets/imgbtn/lv_imgbtn.c ****         switch(state) {
 345              		.loc 1 337 27 is_stmt 0 view .LVU97
 346 004c A06A     		ldr	r0, [r4, #40]
 337:Drivers/lvgl/src/extra/widgets/imgbtn/lv_imgbtn.c ****         switch(state) {
 347              		.loc 1 337 7 view .LVU98
 348 004e 0028     		cmp	r0, #0
 349 0050 E1D1     		bne	.L38
 338:Drivers/lvgl/src/extra/widgets/imgbtn/lv_imgbtn.c ****             case LV_IMGBTN_STATE_PRESSED:
 350              		.loc 1 338 9 is_stmt 1 view .LVU99
 340:Drivers/lvgl/src/extra/widgets/imgbtn/lv_imgbtn.c ****                 break;
 351              		.loc 1 340 17 view .LVU100
 340:Drivers/lvgl/src/extra/widgets/imgbtn/lv_imgbtn.c ****                 break;
 352              		.loc 1 340 19 is_stmt 0 view .LVU101
 353 0052 636A     		ldr	r3, [r4, #36]
 354 0054 B3FA83F3 		clz	r3, r3
 355 0058 5B09     		lsrs	r3, r3, #5
 356              	.LVL35:
 357              	.L30:
 340:Drivers/lvgl/src/extra/widgets/imgbtn/lv_imgbtn.c ****                 break;
ARM GAS  /var/folders/0z/tsy30v1j4xl4_7kw94k978ww0000gn/T//ccOGqK87.s 			page 15


 358              		.loc 1 340 19 view .LVU102
 359              	.LBE37:
 360              	.LBE45:
 307:Drivers/lvgl/src/extra/widgets/imgbtn/lv_imgbtn.c **** 
 361              		.loc 1 307 5 is_stmt 1 view .LVU103
 309:Drivers/lvgl/src/extra/widgets/imgbtn/lv_imgbtn.c ****     if(src == NULL) return;
 362              		.loc 1 309 5 view .LVU104
 309:Drivers/lvgl/src/extra/widgets/imgbtn/lv_imgbtn.c ****     if(src == NULL) return;
 363              		.loc 1 309 18 is_stmt 0 view .LVU105
 364 005a 04EB8303 		add	r3, r4, r3, lsl #2
 365 005e 586A     		ldr	r0, [r3, #36]
 366              	.LVL36:
 310:Drivers/lvgl/src/extra/widgets/imgbtn/lv_imgbtn.c **** 
 367              		.loc 1 310 5 is_stmt 1 view .LVU106
 310:Drivers/lvgl/src/extra/widgets/imgbtn/lv_imgbtn.c **** 
 368              		.loc 1 310 7 is_stmt 0 view .LVU107
 369 0060 0028     		cmp	r0, #0
 370 0062 D8D1     		bne	.L38
 325:Drivers/lvgl/src/extra/widgets/imgbtn/lv_imgbtn.c **** 
 371              		.loc 1 325 1 view .LVU108
 372 0064 02B0     		add	sp, sp, #8
 373              		.cfi_remember_state
 374              		.cfi_def_cfa_offset 8
 375              		@ sp needed
 376 0066 10BD     		pop	{r4, pc}
 377              	.LVL37:
 378              	.L24:
 379              		.cfi_restore_state
 380              	.LBB46:
 381              	.LBB29:
 373:Drivers/lvgl/src/extra/widgets/imgbtn/lv_imgbtn.c ****     }
 382              		.loc 1 373 14 is_stmt 1 view .LVU109
 373:Drivers/lvgl/src/extra/widgets/imgbtn/lv_imgbtn.c ****     }
 383              		.loc 1 373 14 is_stmt 0 view .LVU110
 384              	.LBE29:
 385              	.LBE46:
 386              	.LBB47:
 334:Drivers/lvgl/src/extra/widgets/imgbtn/lv_imgbtn.c **** {
 387              		.loc 1 334 26 is_stmt 1 view .LVU111
 388              	.LBB38:
 336:Drivers/lvgl/src/extra/widgets/imgbtn/lv_imgbtn.c ****     if(imgbtn->img_src_mid[state] == NULL) {
 389              		.loc 1 336 5 view .LVU112
 337:Drivers/lvgl/src/extra/widgets/imgbtn/lv_imgbtn.c ****         switch(state) {
 390              		.loc 1 337 5 view .LVU113
 337:Drivers/lvgl/src/extra/widgets/imgbtn/lv_imgbtn.c ****         switch(state) {
 391              		.loc 1 337 27 is_stmt 0 view .LVU114
 392 0068 E06A     		ldr	r0, [r4, #44]
 337:Drivers/lvgl/src/extra/widgets/imgbtn/lv_imgbtn.c ****         switch(state) {
 393              		.loc 1 337 7 view .LVU115
 394 006a 0028     		cmp	r0, #0
 395 006c D3D1     		bne	.L38
 338:Drivers/lvgl/src/extra/widgets/imgbtn/lv_imgbtn.c ****             case LV_IMGBTN_STATE_PRESSED:
 396              		.loc 1 338 9 is_stmt 1 view .LVU116
 351:Drivers/lvgl/src/extra/widgets/imgbtn/lv_imgbtn.c ****                 break;
 397              		.loc 1 351 17 view .LVU117
 351:Drivers/lvgl/src/extra/widgets/imgbtn/lv_imgbtn.c ****                 break;
 398              		.loc 1 351 19 is_stmt 0 view .LVU118
ARM GAS  /var/folders/0z/tsy30v1j4xl4_7kw94k978ww0000gn/T//ccOGqK87.s 			page 16


 399 006e 636A     		ldr	r3, [r4, #36]
 400 0070 B3FA83F3 		clz	r3, r3
 401 0074 5B09     		lsrs	r3, r3, #5
 402              	.LBE38:
 403              	.LBE47:
 309:Drivers/lvgl/src/extra/widgets/imgbtn/lv_imgbtn.c ****     if(src == NULL) return;
 404              		.loc 1 309 43 view .LVU119
 405 0076 5B00     		lsls	r3, r3, #1
 406              	.LBB48:
 407              	.LBB39:
 408 0078 EFE7     		b	.L30
 409              	.LVL38:
 410              	.L28:
 309:Drivers/lvgl/src/extra/widgets/imgbtn/lv_imgbtn.c ****     if(src == NULL) return;
 411              		.loc 1 309 43 view .LVU120
 412              	.LBE39:
 334:Drivers/lvgl/src/extra/widgets/imgbtn/lv_imgbtn.c **** {
 413              		.loc 1 334 26 is_stmt 1 view .LVU121
 414              	.LBB40:
 336:Drivers/lvgl/src/extra/widgets/imgbtn/lv_imgbtn.c ****     if(imgbtn->img_src_mid[state] == NULL) {
 415              		.loc 1 336 5 view .LVU122
 337:Drivers/lvgl/src/extra/widgets/imgbtn/lv_imgbtn.c ****         switch(state) {
 416              		.loc 1 337 5 view .LVU123
 337:Drivers/lvgl/src/extra/widgets/imgbtn/lv_imgbtn.c ****         switch(state) {
 417              		.loc 1 337 27 is_stmt 0 view .LVU124
 418 007a 606B     		ldr	r0, [r4, #52]
 337:Drivers/lvgl/src/extra/widgets/imgbtn/lv_imgbtn.c ****         switch(state) {
 419              		.loc 1 337 7 view .LVU125
 420 007c 0028     		cmp	r0, #0
 421 007e CAD1     		bne	.L38
 338:Drivers/lvgl/src/extra/widgets/imgbtn/lv_imgbtn.c ****             case LV_IMGBTN_STATE_PRESSED:
 422              		.loc 1 338 9 is_stmt 1 view .LVU126
 346:Drivers/lvgl/src/extra/widgets/imgbtn/lv_imgbtn.c ****                 if(imgbtn->img_src_mid[LV_IMGBTN_STATE_PRESSED]) return LV_IMGBTN_STATE_PRESSED;
 423              		.loc 1 346 17 view .LVU127
 346:Drivers/lvgl/src/extra/widgets/imgbtn/lv_imgbtn.c ****                 if(imgbtn->img_src_mid[LV_IMGBTN_STATE_PRESSED]) return LV_IMGBTN_STATE_PRESSED;
 424              		.loc 1 346 39 is_stmt 0 view .LVU128
 425 0080 206B     		ldr	r0, [r4, #48]
 346:Drivers/lvgl/src/extra/widgets/imgbtn/lv_imgbtn.c ****                 if(imgbtn->img_src_mid[LV_IMGBTN_STATE_PRESSED]) return LV_IMGBTN_STATE_PRESSED;
 426              		.loc 1 346 19 view .LVU129
 427 0082 0028     		cmp	r0, #0
 428 0084 C7D1     		bne	.L38
 429              	.LVL39:
 430              	.LBB32:
 431              	.LBI32:
 334:Drivers/lvgl/src/extra/widgets/imgbtn/lv_imgbtn.c **** {
 432              		.loc 1 334 26 is_stmt 1 view .LVU130
 433              	.LBB33:
 347:Drivers/lvgl/src/extra/widgets/imgbtn/lv_imgbtn.c ****                 if(imgbtn->img_src_mid[LV_IMGBTN_STATE_RELEASED]) return LV_IMGBTN_STATE_RELEASED;
 434              		.loc 1 347 17 view .LVU131
 347:Drivers/lvgl/src/extra/widgets/imgbtn/lv_imgbtn.c ****                 if(imgbtn->img_src_mid[LV_IMGBTN_STATE_RELEASED]) return LV_IMGBTN_STATE_RELEASED;
 435              		.loc 1 347 39 is_stmt 0 view .LVU132
 436 0086 A06A     		ldr	r0, [r4, #40]
 347:Drivers/lvgl/src/extra/widgets/imgbtn/lv_imgbtn.c ****                 if(imgbtn->img_src_mid[LV_IMGBTN_STATE_RELEASED]) return LV_IMGBTN_STATE_RELEASED;
 437              		.loc 1 347 19 view .LVU133
 438 0088 0028     		cmp	r0, #0
 439 008a C4D1     		bne	.L38
 348:Drivers/lvgl/src/extra/widgets/imgbtn/lv_imgbtn.c ****                 break;
ARM GAS  /var/folders/0z/tsy30v1j4xl4_7kw94k978ww0000gn/T//ccOGqK87.s 			page 17


 440              		.loc 1 348 17 is_stmt 1 view .LVU134
 348:Drivers/lvgl/src/extra/widgets/imgbtn/lv_imgbtn.c ****                 break;
 441              		.loc 1 348 19 is_stmt 0 view .LVU135
 442 008c 636A     		ldr	r3, [r4, #36]
 443 008e B3FA83F3 		clz	r3, r3
 444 0092 5B09     		lsrs	r3, r3, #5
 445              	.LBE33:
 446              	.LBE32:
 447              	.LBE40:
 448              	.LBE48:
 309:Drivers/lvgl/src/extra/widgets/imgbtn/lv_imgbtn.c ****     if(src == NULL) return;
 449              		.loc 1 309 43 view .LVU136
 450 0094 9B00     		lsls	r3, r3, #2
 451              	.LBB49:
 452              	.LBB41:
 453              	.LBB35:
 454              	.LBB34:
 455 0096 E0E7     		b	.L30
 456              	.LVL40:
 457              	.L48:
 309:Drivers/lvgl/src/extra/widgets/imgbtn/lv_imgbtn.c ****     if(src == NULL) return;
 458              		.loc 1 309 43 view .LVU137
 459              	.LBE34:
 460              	.LBE35:
 461              	.LBE41:
 462              	.LBE49:
 316:Drivers/lvgl/src/extra/widgets/imgbtn/lv_imgbtn.c ****         lv_obj_refresh_self_size(obj);
 463              		.loc 1 316 9 is_stmt 1 view .LVU138
 316:Drivers/lvgl/src/extra/widgets/imgbtn/lv_imgbtn.c ****         lv_obj_refresh_self_size(obj);
 464              		.loc 1 316 32 is_stmt 0 view .LVU139
 465 0098 9DF80430 		ldrb	r3, [sp, #4]	@ zero_extendqisi2
 466 009c C3F30403 		ubfx	r3, r3, #0, #5
 317:Drivers/lvgl/src/extra/widgets/imgbtn/lv_imgbtn.c ****         lv_obj_set_height(obj, header.h); /*Keep the user defined width*/
 467              		.loc 1 317 9 view .LVU140
 468 00a0 2046     		mov	r0, r4
 469              	.LVL41:
 316:Drivers/lvgl/src/extra/widgets/imgbtn/lv_imgbtn.c ****         lv_obj_refresh_self_size(obj);
 470              		.loc 1 316 24 view .LVU141
 471 00a2 84F86C30 		strb	r3, [r4, #108]
 317:Drivers/lvgl/src/extra/widgets/imgbtn/lv_imgbtn.c ****         lv_obj_set_height(obj, header.h); /*Keep the user defined width*/
 472              		.loc 1 317 9 is_stmt 1 view .LVU142
 473 00a6 FFF7FEFF 		bl	lv_obj_refresh_self_size
 474              	.LVL42:
 318:Drivers/lvgl/src/extra/widgets/imgbtn/lv_imgbtn.c ****     }
 475              		.loc 1 318 9 view .LVU143
 318:Drivers/lvgl/src/extra/widgets/imgbtn/lv_imgbtn.c ****     }
 476              		.loc 1 318 38 is_stmt 0 view .LVU144
 477 00aa BDF80610 		ldrh	r1, [sp, #6]
 318:Drivers/lvgl/src/extra/widgets/imgbtn/lv_imgbtn.c ****     }
 478              		.loc 1 318 9 view .LVU145
 479 00ae 2046     		mov	r0, r4
 480 00b0 C1F34A11 		ubfx	r1, r1, #5, #11
 481 00b4 FFF7FEFF 		bl	lv_obj_set_height
 482              	.LVL43:
 483 00b8 B5E7     		b	.L37
 484              		.cfi_endproc
 485              	.LFE213:
ARM GAS  /var/folders/0z/tsy30v1j4xl4_7kw94k978ww0000gn/T//ccOGqK87.s 			page 18


 487 00ba 00BF     		.section	.text.lv_imgbtn_event,"ax",%progbits
 488              		.align	1
 489              		.p2align 2,,3
 490              		.syntax unified
 491              		.thumb
 492              		.thumb_func
 494              	lv_imgbtn_event:
 495              	.LVL44:
 496              	.LFB211:
 178:Drivers/lvgl/src/extra/widgets/imgbtn/lv_imgbtn.c ****     LV_UNUSED(class_p);
 497              		.loc 1 178 1 is_stmt 1 view -0
 498              		.cfi_startproc
 499              		@ args = 0, pretend = 0, frame = 56
 500              		@ frame_needed = 0, uses_anonymous_args = 0
 179:Drivers/lvgl/src/extra/widgets/imgbtn/lv_imgbtn.c **** 
 501              		.loc 1 179 5 view .LVU147
 181:Drivers/lvgl/src/extra/widgets/imgbtn/lv_imgbtn.c ****     if(res != LV_RES_OK) return;
 502              		.loc 1 181 5 view .LVU148
 178:Drivers/lvgl/src/extra/widgets/imgbtn/lv_imgbtn.c ****     LV_UNUSED(class_p);
 503              		.loc 1 178 1 is_stmt 0 view .LVU149
 504 0000 2DE9F04F 		push	{r4, r5, r6, r7, r8, r9, r10, fp, lr}
 505              		.cfi_def_cfa_offset 36
 506              		.cfi_offset 4, -36
 507              		.cfi_offset 5, -32
 508              		.cfi_offset 6, -28
 509              		.cfi_offset 7, -24
 510              		.cfi_offset 8, -20
 511              		.cfi_offset 9, -16
 512              		.cfi_offset 10, -12
 513              		.cfi_offset 11, -8
 514              		.cfi_offset 14, -4
 181:Drivers/lvgl/src/extra/widgets/imgbtn/lv_imgbtn.c ****     if(res != LV_RES_OK) return;
 515              		.loc 1 181 20 view .LVU150
 516 0004 CD48     		ldr	r0, .L101
 517              	.LVL45:
 178:Drivers/lvgl/src/extra/widgets/imgbtn/lv_imgbtn.c ****     LV_UNUSED(class_p);
 518              		.loc 1 178 1 view .LVU151
 519 0006 8FB0     		sub	sp, sp, #60
 520              		.cfi_def_cfa_offset 96
 178:Drivers/lvgl/src/extra/widgets/imgbtn/lv_imgbtn.c ****     LV_UNUSED(class_p);
 521              		.loc 1 178 1 view .LVU152
 522 0008 0D46     		mov	r5, r1
 181:Drivers/lvgl/src/extra/widgets/imgbtn/lv_imgbtn.c ****     if(res != LV_RES_OK) return;
 523              		.loc 1 181 20 view .LVU153
 524 000a FFF7FEFF 		bl	lv_obj_event_base
 525              	.LVL46:
 182:Drivers/lvgl/src/extra/widgets/imgbtn/lv_imgbtn.c **** 
 526              		.loc 1 182 5 is_stmt 1 view .LVU154
 182:Drivers/lvgl/src/extra/widgets/imgbtn/lv_imgbtn.c **** 
 527              		.loc 1 182 7 is_stmt 0 view .LVU155
 528 000e 0128     		cmp	r0, #1
 529 0010 02D0     		beq	.L100
 530              	.LVL47:
 531              	.L49:
 217:Drivers/lvgl/src/extra/widgets/imgbtn/lv_imgbtn.c **** 
 532              		.loc 1 217 1 view .LVU156
 533 0012 0FB0     		add	sp, sp, #60
ARM GAS  /var/folders/0z/tsy30v1j4xl4_7kw94k978ww0000gn/T//ccOGqK87.s 			page 19


 534              		.cfi_remember_state
 535              		.cfi_def_cfa_offset 36
 536              		@ sp needed
 537 0014 BDE8F08F 		pop	{r4, r5, r6, r7, r8, r9, r10, fp, pc}
 538              	.LVL48:
 539              	.L100:
 540              		.cfi_restore_state
 541              	.LBB73:
 542              	.LBI73:
 177:Drivers/lvgl/src/extra/widgets/imgbtn/lv_imgbtn.c **** {
 543              		.loc 1 177 13 is_stmt 1 view .LVU157
 544              	.LBB74:
 184:Drivers/lvgl/src/extra/widgets/imgbtn/lv_imgbtn.c ****     lv_obj_t * obj = lv_event_get_target(e);
 545              		.loc 1 184 5 view .LVU158
 184:Drivers/lvgl/src/extra/widgets/imgbtn/lv_imgbtn.c ****     lv_obj_t * obj = lv_event_get_target(e);
 546              		.loc 1 184 28 is_stmt 0 view .LVU159
 547 0018 2846     		mov	r0, r5
 548              	.LVL49:
 184:Drivers/lvgl/src/extra/widgets/imgbtn/lv_imgbtn.c ****     lv_obj_t * obj = lv_event_get_target(e);
 549              		.loc 1 184 28 view .LVU160
 550 001a FFF7FEFF 		bl	lv_event_get_code
 551              	.LVL50:
 552 001e 0446     		mov	r4, r0
 185:Drivers/lvgl/src/extra/widgets/imgbtn/lv_imgbtn.c ****     if(code == LV_EVENT_PRESSED || code == LV_EVENT_RELEASED || code == LV_EVENT_PRESS_LOST) {
 553              		.loc 1 185 22 view .LVU161
 554 0020 2846     		mov	r0, r5
 555              	.LVL51:
 185:Drivers/lvgl/src/extra/widgets/imgbtn/lv_imgbtn.c ****     if(code == LV_EVENT_PRESSED || code == LV_EVENT_RELEASED || code == LV_EVENT_PRESS_LOST) {
 556              		.loc 1 185 5 is_stmt 1 view .LVU162
 185:Drivers/lvgl/src/extra/widgets/imgbtn/lv_imgbtn.c ****     if(code == LV_EVENT_PRESSED || code == LV_EVENT_RELEASED || code == LV_EVENT_PRESS_LOST) {
 557              		.loc 1 185 22 is_stmt 0 view .LVU163
 558 0022 FFF7FEFF 		bl	lv_event_get_target
 559              	.LVL52:
 186:Drivers/lvgl/src/extra/widgets/imgbtn/lv_imgbtn.c ****         refr_img(obj);
 560              		.loc 1 186 7 view .LVU164
 561 0026 012C     		cmp	r4, #1
 185:Drivers/lvgl/src/extra/widgets/imgbtn/lv_imgbtn.c ****     if(code == LV_EVENT_PRESSED || code == LV_EVENT_RELEASED || code == LV_EVENT_PRESS_LOST) {
 562              		.loc 1 185 22 view .LVU165
 563 0028 0646     		mov	r6, r0
 564              	.LVL53:
 186:Drivers/lvgl/src/extra/widgets/imgbtn/lv_imgbtn.c ****         refr_img(obj);
 565              		.loc 1 186 5 is_stmt 1 view .LVU166
 186:Drivers/lvgl/src/extra/widgets/imgbtn/lv_imgbtn.c ****         refr_img(obj);
 566              		.loc 1 186 7 is_stmt 0 view .LVU167
 567 002a 68D0     		beq	.L98
 568 002c 033C     		subs	r4, r4, #3
 569              	.LVL54:
 186:Drivers/lvgl/src/extra/widgets/imgbtn/lv_imgbtn.c ****         refr_img(obj);
 570              		.loc 1 186 7 view .LVU168
 571 002e 292C     		cmp	r4, #41
 572 0030 EFD8     		bhi	.L49
 573 0032 01A3     		adr	r3, .L54
 574 0034 53F824F0 		ldr	pc, [r3, r4, lsl #2]
 575              		.p2align 2
 576              	.L54:
 577 0038 FF000000 		.word	.L98+1
 578 003c 13000000 		.word	.L49+1
ARM GAS  /var/folders/0z/tsy30v1j4xl4_7kw94k978ww0000gn/T//ccOGqK87.s 			page 20


 579 0040 13000000 		.word	.L49+1
 580 0044 13000000 		.word	.L49+1
 581 0048 13000000 		.word	.L49+1
 582 004c FF000000 		.word	.L98+1
 583 0050 13000000 		.word	.L49+1
 584 0054 13000000 		.word	.L49+1
 585 0058 13000000 		.word	.L49+1
 586 005c 13000000 		.word	.L49+1
 587 0060 13000000 		.word	.L49+1
 588 0064 13000000 		.word	.L49+1
 589 0068 13000000 		.word	.L49+1
 590 006c 13000000 		.word	.L49+1
 591 0070 13000000 		.word	.L49+1
 592 0074 65010000 		.word	.L57+1
 593 0078 13000000 		.word	.L49+1
 594 007c 13000000 		.word	.L49+1
 595 0080 79010000 		.word	.L56+1
 596 0084 13000000 		.word	.L49+1
 597 0088 13000000 		.word	.L49+1
 598 008c 13000000 		.word	.L49+1
 599 0090 13000000 		.word	.L49+1
 600 0094 13000000 		.word	.L49+1
 601 0098 13000000 		.word	.L49+1
 602 009c E1000000 		.word	.L55+1
 603 00a0 13000000 		.word	.L49+1
 604 00a4 13000000 		.word	.L49+1
 605 00a8 13000000 		.word	.L49+1
 606 00ac 13000000 		.word	.L49+1
 607 00b0 13000000 		.word	.L49+1
 608 00b4 13000000 		.word	.L49+1
 609 00b8 13000000 		.word	.L49+1
 610 00bc 13000000 		.word	.L49+1
 611 00c0 13000000 		.word	.L49+1
 612 00c4 13000000 		.word	.L49+1
 613 00c8 13000000 		.word	.L49+1
 614 00cc 13000000 		.word	.L49+1
 615 00d0 13000000 		.word	.L49+1
 616 00d4 13000000 		.word	.L49+1
 617 00d8 13000000 		.word	.L49+1
 618 00dc 0B010000 		.word	.L53+1
 619              		.p2align 1
 620              	.L55:
 210:Drivers/lvgl/src/extra/widgets/imgbtn/lv_imgbtn.c ****             lv_imgbtn_set_state(obj, LV_IMGBTN_STATE_CHECKED_RELEASED);
 621              		.loc 1 210 9 is_stmt 1 view .LVU169
 210:Drivers/lvgl/src/extra/widgets/imgbtn/lv_imgbtn.c ****             lv_imgbtn_set_state(obj, LV_IMGBTN_STATE_CHECKED_RELEASED);
 622              		.loc 1 210 12 is_stmt 0 view .LVU170
 623 00e0 0121     		movs	r1, #1
 624 00e2 FFF7FEFF 		bl	lv_obj_has_state
 625              	.LVL55:
 210:Drivers/lvgl/src/extra/widgets/imgbtn/lv_imgbtn.c ****             lv_imgbtn_set_state(obj, LV_IMGBTN_STATE_CHECKED_RELEASED);
 626              		.loc 1 210 11 view .LVU171
 627 00e6 0446     		mov	r4, r0
 628              	.LBB75:
 629              	.LBB76:
 105:Drivers/lvgl/src/extra/widgets/imgbtn/lv_imgbtn.c ****     lv_obj_add_state(obj, obj_state);
 630              		.loc 1 105 5 view .LVU172
 631 00e8 A121     		movs	r1, #161
ARM GAS  /var/folders/0z/tsy30v1j4xl4_7kw94k978ww0000gn/T//ccOGqK87.s 			page 21


 632 00ea 3046     		mov	r0, r6
 633              	.LBE76:
 634              	.LBE75:
 210:Drivers/lvgl/src/extra/widgets/imgbtn/lv_imgbtn.c ****             lv_imgbtn_set_state(obj, LV_IMGBTN_STATE_CHECKED_RELEASED);
 635              		.loc 1 210 11 view .LVU173
 636 00ec 002C     		cmp	r4, #0
 637 00ee 00F03781 		beq	.L71
 638              	.LVL56:
 211:Drivers/lvgl/src/extra/widgets/imgbtn/lv_imgbtn.c ****         }
 639              		.loc 1 211 13 is_stmt 1 view .LVU174
 640              	.LBB78:
 641              	.LBI75:
  93:Drivers/lvgl/src/extra/widgets/imgbtn/lv_imgbtn.c **** {
 642              		.loc 1 93 6 view .LVU175
 643              	.LBB77:
  95:Drivers/lvgl/src/extra/widgets/imgbtn/lv_imgbtn.c **** 
 644              		.loc 1 95 5 view .LVU176
  95:Drivers/lvgl/src/extra/widgets/imgbtn/lv_imgbtn.c **** 
 645              		.loc 1 95 5 view .LVU177
  95:Drivers/lvgl/src/extra/widgets/imgbtn/lv_imgbtn.c **** 
 646              		.loc 1 95 5 view .LVU178
  97:Drivers/lvgl/src/extra/widgets/imgbtn/lv_imgbtn.c ****     if(state == LV_IMGBTN_STATE_PRESSED || state == LV_IMGBTN_STATE_CHECKED_PRESSED) obj_state |= L
 647              		.loc 1 97 5 view .LVU179
  98:Drivers/lvgl/src/extra/widgets/imgbtn/lv_imgbtn.c ****     if(state == LV_IMGBTN_STATE_DISABLED || state == LV_IMGBTN_STATE_CHECKED_DISABLED) obj_state |=
 648              		.loc 1 98 5 view .LVU180
  99:Drivers/lvgl/src/extra/widgets/imgbtn/lv_imgbtn.c ****     if(state == LV_IMGBTN_STATE_CHECKED_DISABLED || state == LV_IMGBTN_STATE_CHECKED_PRESSED ||
 649              		.loc 1 99 5 view .LVU181
 100:Drivers/lvgl/src/extra/widgets/imgbtn/lv_imgbtn.c ****        state == LV_IMGBTN_STATE_CHECKED_RELEASED) {
 650              		.loc 1 100 5 view .LVU182
 102:Drivers/lvgl/src/extra/widgets/imgbtn/lv_imgbtn.c ****     }
 651              		.loc 1 102 9 view .LVU183
 105:Drivers/lvgl/src/extra/widgets/imgbtn/lv_imgbtn.c ****     lv_obj_add_state(obj, obj_state);
 652              		.loc 1 105 5 view .LVU184
 653 00f2 FFF7FEFF 		bl	lv_obj_clear_state
 654              	.LVL57:
 106:Drivers/lvgl/src/extra/widgets/imgbtn/lv_imgbtn.c **** 
 655              		.loc 1 106 5 view .LVU185
 656 00f6 0121     		movs	r1, #1
 657              	.LVL58:
 658              	.L99:
 106:Drivers/lvgl/src/extra/widgets/imgbtn/lv_imgbtn.c **** 
 659              		.loc 1 106 5 is_stmt 0 view .LVU186
 660              	.LBE77:
 661              	.LBE78:
 662              	.LBB79:
 663              	.LBB80:
 664 00f8 3046     		mov	r0, r6
 665 00fa FFF7FEFF 		bl	lv_obj_add_state
 666              	.LVL59:
 667              	.L98:
 108:Drivers/lvgl/src/extra/widgets/imgbtn/lv_imgbtn.c **** }
 668              		.loc 1 108 5 is_stmt 1 view .LVU187
 669 00fe 3046     		mov	r0, r6
 670              	.LBE80:
 671              	.LBE79:
 672              	.LBE74:
 673              	.LBE73:
ARM GAS  /var/folders/0z/tsy30v1j4xl4_7kw94k978ww0000gn/T//ccOGqK87.s 			page 22


 217:Drivers/lvgl/src/extra/widgets/imgbtn/lv_imgbtn.c **** 
 674              		.loc 1 217 1 is_stmt 0 view .LVU188
 675 0100 0FB0     		add	sp, sp, #60
 676              		.cfi_remember_state
 677              		.cfi_def_cfa_offset 36
 678              		@ sp needed
 679 0102 BDE8F04F 		pop	{r4, r5, r6, r7, r8, r9, r10, fp, lr}
 680              		.cfi_restore 14
 681              		.cfi_restore 11
 682              		.cfi_restore 10
 683              		.cfi_restore 9
 684              		.cfi_restore 8
 685              		.cfi_restore 7
 686              		.cfi_restore 6
 687              		.cfi_restore 5
 688              		.cfi_restore 4
 689              		.cfi_def_cfa_offset 0
 690              	.LVL60:
 691              	.LBB131:
 692              	.LBB130:
 693              	.LBB83:
 694              	.LBB81:
 108:Drivers/lvgl/src/extra/widgets/imgbtn/lv_imgbtn.c **** }
 695              		.loc 1 108 5 view .LVU189
 696 0106 FFF7FEBF 		b	refr_img
 697              	.LVL61:
 698              	.L53:
 699              		.cfi_restore_state
 108:Drivers/lvgl/src/extra/widgets/imgbtn/lv_imgbtn.c **** }
 700              		.loc 1 108 5 view .LVU190
 701              	.LBE81:
 702              	.LBE83:
 703              	.LBB84:
 197:Drivers/lvgl/src/extra/widgets/imgbtn/lv_imgbtn.c ****         lv_imgbtn_t * imgbtn = (lv_imgbtn_t *)obj;
 704              		.loc 1 197 9 is_stmt 1 view .LVU191
 197:Drivers/lvgl/src/extra/widgets/imgbtn/lv_imgbtn.c ****         lv_imgbtn_t * imgbtn = (lv_imgbtn_t *)obj;
 705              		.loc 1 197 26 is_stmt 0 view .LVU192
 706 010a 2846     		mov	r0, r5
 707              	.LVL62:
 197:Drivers/lvgl/src/extra/widgets/imgbtn/lv_imgbtn.c ****         lv_imgbtn_t * imgbtn = (lv_imgbtn_t *)obj;
 708              		.loc 1 197 26 view .LVU193
 709 010c FFF7FEFF 		bl	lv_event_get_self_size_info
 710              	.LVL63:
 711 0110 0446     		mov	r4, r0
 712              	.LBB85:
 713              	.LBB86:
 369:Drivers/lvgl/src/extra/widgets/imgbtn/lv_imgbtn.c **** 
 714              		.loc 1 369 28 view .LVU194
 715 0112 3046     		mov	r0, r6
 716              	.LVL64:
 369:Drivers/lvgl/src/extra/widgets/imgbtn/lv_imgbtn.c **** 
 717              		.loc 1 369 28 view .LVU195
 718              	.LBE86:
 719              	.LBE85:
 198:Drivers/lvgl/src/extra/widgets/imgbtn/lv_imgbtn.c ****         lv_imgbtn_state_t state  = suggest_state(obj, get_state(obj));
 720              		.loc 1 198 9 is_stmt 1 view .LVU196
 199:Drivers/lvgl/src/extra/widgets/imgbtn/lv_imgbtn.c ****         if(imgbtn->img_src_left[state] == NULL &&
ARM GAS  /var/folders/0z/tsy30v1j4xl4_7kw94k978ww0000gn/T//ccOGqK87.s 			page 23


 721              		.loc 1 199 9 view .LVU197
 722              	.LBB90:
 723              	.LBI85:
 365:Drivers/lvgl/src/extra/widgets/imgbtn/lv_imgbtn.c **** {
 724              		.loc 1 365 19 view .LVU198
 725              	.LBB87:
 367:Drivers/lvgl/src/extra/widgets/imgbtn/lv_imgbtn.c **** 
 726              		.loc 1 367 5 view .LVU199
 367:Drivers/lvgl/src/extra/widgets/imgbtn/lv_imgbtn.c **** 
 727              		.loc 1 367 5 view .LVU200
 367:Drivers/lvgl/src/extra/widgets/imgbtn/lv_imgbtn.c **** 
 728              		.loc 1 367 5 view .LVU201
 369:Drivers/lvgl/src/extra/widgets/imgbtn/lv_imgbtn.c **** 
 729              		.loc 1 369 5 view .LVU202
 369:Drivers/lvgl/src/extra/widgets/imgbtn/lv_imgbtn.c **** 
 730              		.loc 1 369 28 is_stmt 0 view .LVU203
 731 0114 FFF7FEFF 		bl	lv_obj_get_state
 732              	.LVL65:
 371:Drivers/lvgl/src/extra/widgets/imgbtn/lv_imgbtn.c ****         if(obj_state & LV_STATE_CHECKED) return LV_IMGBTN_STATE_CHECKED_DISABLED;
 733              		.loc 1 371 5 is_stmt 1 view .LVU204
 371:Drivers/lvgl/src/extra/widgets/imgbtn/lv_imgbtn.c ****         if(obj_state & LV_STATE_CHECKED) return LV_IMGBTN_STATE_CHECKED_DISABLED;
 734              		.loc 1 371 7 is_stmt 0 view .LVU205
 735 0118 0206     		lsls	r2, r0, #24
 736 011a 40F11981 		bpl	.L68
 372:Drivers/lvgl/src/extra/widgets/imgbtn/lv_imgbtn.c ****         else return LV_IMGBTN_STATE_DISABLED;
 737              		.loc 1 372 9 is_stmt 1 view .LVU206
 373:Drivers/lvgl/src/extra/widgets/imgbtn/lv_imgbtn.c ****     }
 738              		.loc 1 373 21 is_stmt 0 view .LVU207
 739 011e 10F0010F 		tst	r0, #1
 740 0122 14BF     		ite	ne
 741 0124 0521     		movne	r1, #5
 742 0126 0221     		moveq	r1, #2
 743              	.L69:
 744              	.LVL66:
 373:Drivers/lvgl/src/extra/widgets/imgbtn/lv_imgbtn.c ****     }
 745              		.loc 1 373 21 view .LVU208
 746              	.LBE87:
 747              	.LBE90:
 199:Drivers/lvgl/src/extra/widgets/imgbtn/lv_imgbtn.c ****         if(imgbtn->img_src_left[state] == NULL &&
 748              		.loc 1 199 36 view .LVU209
 749 0128 3046     		mov	r0, r6
 750 012a FFF7FEFF 		bl	suggest_state
 751              	.LVL67:
 200:Drivers/lvgl/src/extra/widgets/imgbtn/lv_imgbtn.c ****            imgbtn->img_src_mid[state] != NULL &&
 752              		.loc 1 200 9 is_stmt 1 view .LVU210
 753 012e 06EB8003 		add	r3, r6, r0, lsl #2
 200:Drivers/lvgl/src/extra/widgets/imgbtn/lv_imgbtn.c ****            imgbtn->img_src_mid[state] != NULL &&
 754              		.loc 1 200 11 is_stmt 0 view .LVU211
 755 0132 DA6B     		ldr	r2, [r3, #60]
 756 0134 002A     		cmp	r2, #0
 757 0136 7FF46CAF 		bne	.L49
 201:Drivers/lvgl/src/extra/widgets/imgbtn/lv_imgbtn.c ****            imgbtn->img_src_right[state] == NULL) {
 758              		.loc 1 201 31 view .LVU212
 759 013a 586A     		ldr	r0, [r3, #36]
 760              	.LVL68:
 200:Drivers/lvgl/src/extra/widgets/imgbtn/lv_imgbtn.c ****            imgbtn->img_src_mid[state] != NULL &&
 761              		.loc 1 200 48 view .LVU213
ARM GAS  /var/folders/0z/tsy30v1j4xl4_7kw94k978ww0000gn/T//ccOGqK87.s 			page 24


 762 013c 0028     		cmp	r0, #0
 763 013e 3FF468AF 		beq	.L49
 201:Drivers/lvgl/src/extra/widgets/imgbtn/lv_imgbtn.c ****            imgbtn->img_src_right[state] == NULL) {
 764              		.loc 1 201 47 view .LVU214
 765 0142 5B6D     		ldr	r3, [r3, #84]
 766 0144 002B     		cmp	r3, #0
 767 0146 7FF464AF 		bne	.L49
 768              	.LBB91:
 203:Drivers/lvgl/src/extra/widgets/imgbtn/lv_imgbtn.c ****             lv_img_decoder_get_info(imgbtn->img_src_mid[state], &header);
 769              		.loc 1 203 13 is_stmt 1 view .LVU215
 204:Drivers/lvgl/src/extra/widgets/imgbtn/lv_imgbtn.c ****             p->x = LV_MAX(p->x, header.w);
 770              		.loc 1 204 13 view .LVU216
 771 014a 08A9     		add	r1, sp, #32
 772 014c FFF7FEFF 		bl	lv_img_decoder_get_info
 773              	.LVL69:
 205:Drivers/lvgl/src/extra/widgets/imgbtn/lv_imgbtn.c ****         }
 774              		.loc 1 205 13 view .LVU217
 205:Drivers/lvgl/src/extra/widgets/imgbtn/lv_imgbtn.c ****         }
 775              		.loc 1 205 20 is_stmt 0 view .LVU218
 776 0150 089B     		ldr	r3, [sp, #32]
 777 0152 B4F90020 		ldrsh	r2, [r4]
 778 0156 C3F38A23 		ubfx	r3, r3, #10, #11
 779 015a 9342     		cmp	r3, r2
 780 015c B8BF     		it	lt
 781 015e 1346     		movlt	r3, r2
 205:Drivers/lvgl/src/extra/widgets/imgbtn/lv_imgbtn.c ****         }
 782              		.loc 1 205 18 view .LVU219
 783 0160 2380     		strh	r3, [r4]	@ movhi
 784 0162 56E7     		b	.L49
 785              	.LVL70:
 786              	.L57:
 205:Drivers/lvgl/src/extra/widgets/imgbtn/lv_imgbtn.c ****         }
 787              		.loc 1 205 18 view .LVU220
 788              	.LBE91:
 789              	.LBE84:
 790              	.LBB94:
 193:Drivers/lvgl/src/extra/widgets/imgbtn/lv_imgbtn.c ****         if(info->res != LV_COVER_RES_MASKED) info->res = LV_COVER_RES_NOT_COVER;
 791              		.loc 1 193 9 is_stmt 1 view .LVU221
 193:Drivers/lvgl/src/extra/widgets/imgbtn/lv_imgbtn.c ****         if(info->res != LV_COVER_RES_MASKED) info->res = LV_COVER_RES_NOT_COVER;
 792              		.loc 1 193 40 is_stmt 0 view .LVU222
 793 0164 2846     		mov	r0, r5
 794              	.LVL71:
 193:Drivers/lvgl/src/extra/widgets/imgbtn/lv_imgbtn.c ****         if(info->res != LV_COVER_RES_MASKED) info->res = LV_COVER_RES_NOT_COVER;
 795              		.loc 1 193 40 view .LVU223
 796 0166 FFF7FEFF 		bl	lv_event_get_param
 797              	.LVL72:
 194:Drivers/lvgl/src/extra/widgets/imgbtn/lv_imgbtn.c ****     }
 798              		.loc 1 194 9 is_stmt 1 view .LVU224
 194:Drivers/lvgl/src/extra/widgets/imgbtn/lv_imgbtn.c ****     }
 799              		.loc 1 194 11 is_stmt 0 view .LVU225
 800 016a 0378     		ldrb	r3, [r0]	@ zero_extendqisi2
 801 016c 022B     		cmp	r3, #2
 802 016e 3FF450AF 		beq	.L49
 194:Drivers/lvgl/src/extra/widgets/imgbtn/lv_imgbtn.c ****     }
 803              		.loc 1 194 46 is_stmt 1 view .LVU226
 194:Drivers/lvgl/src/extra/widgets/imgbtn/lv_imgbtn.c ****     }
 804              		.loc 1 194 56 is_stmt 0 view .LVU227
ARM GAS  /var/folders/0z/tsy30v1j4xl4_7kw94k978ww0000gn/T//ccOGqK87.s 			page 25


 805 0172 0123     		movs	r3, #1
 806 0174 0370     		strb	r3, [r0]
 807 0176 4CE7     		b	.L49
 808              	.LVL73:
 809              	.L56:
 194:Drivers/lvgl/src/extra/widgets/imgbtn/lv_imgbtn.c ****     }
 810              		.loc 1 194 56 view .LVU228
 811              	.LBE94:
 190:Drivers/lvgl/src/extra/widgets/imgbtn/lv_imgbtn.c ****     }
 812              		.loc 1 190 9 is_stmt 1 view .LVU229
 813              	.LBB95:
 814              	.LBI95:
 219:Drivers/lvgl/src/extra/widgets/imgbtn/lv_imgbtn.c **** {
 815              		.loc 1 219 13 view .LVU230
 816              	.LBB96:
 221:Drivers/lvgl/src/extra/widgets/imgbtn/lv_imgbtn.c ****     lv_imgbtn_t * imgbtn = (lv_imgbtn_t *)obj;
 817              		.loc 1 221 5 view .LVU231
 221:Drivers/lvgl/src/extra/widgets/imgbtn/lv_imgbtn.c ****     lv_imgbtn_t * imgbtn = (lv_imgbtn_t *)obj;
 818              		.loc 1 221 22 is_stmt 0 view .LVU232
 819 0178 2846     		mov	r0, r5
 820              	.LVL74:
 221:Drivers/lvgl/src/extra/widgets/imgbtn/lv_imgbtn.c ****     lv_imgbtn_t * imgbtn = (lv_imgbtn_t *)obj;
 821              		.loc 1 221 22 view .LVU233
 822 017a FFF7FEFF 		bl	lv_event_get_target
 823              	.LVL75:
 824 017e 0746     		mov	r7, r0
 825              	.LVL76:
 222:Drivers/lvgl/src/extra/widgets/imgbtn/lv_imgbtn.c ****     lv_draw_ctx_t * draw_ctx = lv_event_get_draw_ctx(e);
 826              		.loc 1 222 5 is_stmt 1 view .LVU234
 223:Drivers/lvgl/src/extra/widgets/imgbtn/lv_imgbtn.c **** 
 827              		.loc 1 223 5 view .LVU235
 223:Drivers/lvgl/src/extra/widgets/imgbtn/lv_imgbtn.c **** 
 828              		.loc 1 223 32 is_stmt 0 view .LVU236
 829 0180 2846     		mov	r0, r5
 830              	.LVL77:
 223:Drivers/lvgl/src/extra/widgets/imgbtn/lv_imgbtn.c **** 
 831              		.loc 1 223 32 view .LVU237
 832 0182 FFF7FEFF 		bl	lv_event_get_draw_ctx
 833              	.LVL78:
 834 0186 8046     		mov	r8, r0
 835              	.LBB97:
 836              	.LBB98:
 369:Drivers/lvgl/src/extra/widgets/imgbtn/lv_imgbtn.c **** 
 837              		.loc 1 369 28 view .LVU238
 838 0188 3846     		mov	r0, r7
 839              	.LVL79:
 369:Drivers/lvgl/src/extra/widgets/imgbtn/lv_imgbtn.c **** 
 840              		.loc 1 369 28 view .LVU239
 841              	.LBE98:
 842              	.LBE97:
 226:Drivers/lvgl/src/extra/widgets/imgbtn/lv_imgbtn.c **** 
 843              		.loc 1 226 5 is_stmt 1 view .LVU240
 844              	.LBB102:
 845              	.LBI97:
 365:Drivers/lvgl/src/extra/widgets/imgbtn/lv_imgbtn.c **** {
 846              		.loc 1 365 19 view .LVU241
 847              	.LBB99:
ARM GAS  /var/folders/0z/tsy30v1j4xl4_7kw94k978ww0000gn/T//ccOGqK87.s 			page 26


 367:Drivers/lvgl/src/extra/widgets/imgbtn/lv_imgbtn.c **** 
 848              		.loc 1 367 5 view .LVU242
 367:Drivers/lvgl/src/extra/widgets/imgbtn/lv_imgbtn.c **** 
 849              		.loc 1 367 5 view .LVU243
 367:Drivers/lvgl/src/extra/widgets/imgbtn/lv_imgbtn.c **** 
 850              		.loc 1 367 5 view .LVU244
 369:Drivers/lvgl/src/extra/widgets/imgbtn/lv_imgbtn.c **** 
 851              		.loc 1 369 5 view .LVU245
 369:Drivers/lvgl/src/extra/widgets/imgbtn/lv_imgbtn.c **** 
 852              		.loc 1 369 28 is_stmt 0 view .LVU246
 853 018a FFF7FEFF 		bl	lv_obj_get_state
 854              	.LVL80:
 371:Drivers/lvgl/src/extra/widgets/imgbtn/lv_imgbtn.c ****         if(obj_state & LV_STATE_CHECKED) return LV_IMGBTN_STATE_CHECKED_DISABLED;
 855              		.loc 1 371 5 is_stmt 1 view .LVU247
 371:Drivers/lvgl/src/extra/widgets/imgbtn/lv_imgbtn.c ****         if(obj_state & LV_STATE_CHECKED) return LV_IMGBTN_STATE_CHECKED_DISABLED;
 856              		.loc 1 371 7 is_stmt 0 view .LVU248
 857 018e 0506     		lsls	r5, r0, #24
 858              	.LVL81:
 371:Drivers/lvgl/src/extra/widgets/imgbtn/lv_imgbtn.c ****         if(obj_state & LV_STATE_CHECKED) return LV_IMGBTN_STATE_CHECKED_DISABLED;
 859              		.loc 1 371 7 view .LVU249
 860 0190 40F1D680 		bpl	.L58
 372:Drivers/lvgl/src/extra/widgets/imgbtn/lv_imgbtn.c ****         else return LV_IMGBTN_STATE_DISABLED;
 861              		.loc 1 372 9 is_stmt 1 view .LVU250
 373:Drivers/lvgl/src/extra/widgets/imgbtn/lv_imgbtn.c ****     }
 862              		.loc 1 373 21 is_stmt 0 view .LVU251
 863 0194 10F0010F 		tst	r0, #1
 864 0198 14BF     		ite	ne
 865 019a 0521     		movne	r1, #5
 866 019c 0221     		moveq	r1, #2
 867              	.L59:
 868              	.LVL82:
 373:Drivers/lvgl/src/extra/widgets/imgbtn/lv_imgbtn.c ****     }
 869              		.loc 1 373 21 view .LVU252
 870              	.LBE99:
 871              	.LBE102:
 226:Drivers/lvgl/src/extra/widgets/imgbtn/lv_imgbtn.c **** 
 872              		.loc 1 226 32 view .LVU253
 873 019e 3846     		mov	r0, r7
 874 01a0 FFF7FEFF 		bl	suggest_state
 875              	.LVL83:
 229:Drivers/lvgl/src/extra/widgets/imgbtn/lv_imgbtn.c **** 
 876              		.loc 1 229 5 is_stmt 1 view .LVU254
 877 01a4 07EB8009 		add	r9, r7, r0, lsl #2
 878              	.LBB103:
 879              	.LBB104:
 880              		.file 2 "Drivers/lvgl/src/extra/widgets/imgbtn/../../../../src/core/lv_obj_style_gen.h"
   1:Drivers/lvgl/src/extra/widgets/imgbtn/../../../../src/core/lv_obj_style_gen.h **** static inline lv_coord_t lv_obj_get_style_width(const struct _lv_obj_t * obj, uint32_t part)
   2:Drivers/lvgl/src/extra/widgets/imgbtn/../../../../src/core/lv_obj_style_gen.h **** {
   3:Drivers/lvgl/src/extra/widgets/imgbtn/../../../../src/core/lv_obj_style_gen.h ****     lv_style_value_t v = lv_obj_get_style_prop(obj, part, LV_STYLE_WIDTH);
   4:Drivers/lvgl/src/extra/widgets/imgbtn/../../../../src/core/lv_obj_style_gen.h ****     return (lv_coord_t)v.num;
   5:Drivers/lvgl/src/extra/widgets/imgbtn/../../../../src/core/lv_obj_style_gen.h **** }
   6:Drivers/lvgl/src/extra/widgets/imgbtn/../../../../src/core/lv_obj_style_gen.h **** 
   7:Drivers/lvgl/src/extra/widgets/imgbtn/../../../../src/core/lv_obj_style_gen.h **** static inline lv_coord_t lv_obj_get_style_min_width(const struct _lv_obj_t * obj, uint32_t part)
   8:Drivers/lvgl/src/extra/widgets/imgbtn/../../../../src/core/lv_obj_style_gen.h **** {
   9:Drivers/lvgl/src/extra/widgets/imgbtn/../../../../src/core/lv_obj_style_gen.h ****     lv_style_value_t v = lv_obj_get_style_prop(obj, part, LV_STYLE_MIN_WIDTH);
  10:Drivers/lvgl/src/extra/widgets/imgbtn/../../../../src/core/lv_obj_style_gen.h ****     return (lv_coord_t)v.num;
  11:Drivers/lvgl/src/extra/widgets/imgbtn/../../../../src/core/lv_obj_style_gen.h **** }
ARM GAS  /var/folders/0z/tsy30v1j4xl4_7kw94k978ww0000gn/T//ccOGqK87.s 			page 27


  12:Drivers/lvgl/src/extra/widgets/imgbtn/../../../../src/core/lv_obj_style_gen.h **** 
  13:Drivers/lvgl/src/extra/widgets/imgbtn/../../../../src/core/lv_obj_style_gen.h **** static inline lv_coord_t lv_obj_get_style_max_width(const struct _lv_obj_t * obj, uint32_t part)
  14:Drivers/lvgl/src/extra/widgets/imgbtn/../../../../src/core/lv_obj_style_gen.h **** {
  15:Drivers/lvgl/src/extra/widgets/imgbtn/../../../../src/core/lv_obj_style_gen.h ****     lv_style_value_t v = lv_obj_get_style_prop(obj, part, LV_STYLE_MAX_WIDTH);
  16:Drivers/lvgl/src/extra/widgets/imgbtn/../../../../src/core/lv_obj_style_gen.h ****     return (lv_coord_t)v.num;
  17:Drivers/lvgl/src/extra/widgets/imgbtn/../../../../src/core/lv_obj_style_gen.h **** }
  18:Drivers/lvgl/src/extra/widgets/imgbtn/../../../../src/core/lv_obj_style_gen.h **** 
  19:Drivers/lvgl/src/extra/widgets/imgbtn/../../../../src/core/lv_obj_style_gen.h **** static inline lv_coord_t lv_obj_get_style_height(const struct _lv_obj_t * obj, uint32_t part)
  20:Drivers/lvgl/src/extra/widgets/imgbtn/../../../../src/core/lv_obj_style_gen.h **** {
  21:Drivers/lvgl/src/extra/widgets/imgbtn/../../../../src/core/lv_obj_style_gen.h ****     lv_style_value_t v = lv_obj_get_style_prop(obj, part, LV_STYLE_HEIGHT);
  22:Drivers/lvgl/src/extra/widgets/imgbtn/../../../../src/core/lv_obj_style_gen.h ****     return (lv_coord_t)v.num;
  23:Drivers/lvgl/src/extra/widgets/imgbtn/../../../../src/core/lv_obj_style_gen.h **** }
  24:Drivers/lvgl/src/extra/widgets/imgbtn/../../../../src/core/lv_obj_style_gen.h **** 
  25:Drivers/lvgl/src/extra/widgets/imgbtn/../../../../src/core/lv_obj_style_gen.h **** static inline lv_coord_t lv_obj_get_style_min_height(const struct _lv_obj_t * obj, uint32_t part)
  26:Drivers/lvgl/src/extra/widgets/imgbtn/../../../../src/core/lv_obj_style_gen.h **** {
  27:Drivers/lvgl/src/extra/widgets/imgbtn/../../../../src/core/lv_obj_style_gen.h ****     lv_style_value_t v = lv_obj_get_style_prop(obj, part, LV_STYLE_MIN_HEIGHT);
  28:Drivers/lvgl/src/extra/widgets/imgbtn/../../../../src/core/lv_obj_style_gen.h ****     return (lv_coord_t)v.num;
  29:Drivers/lvgl/src/extra/widgets/imgbtn/../../../../src/core/lv_obj_style_gen.h **** }
  30:Drivers/lvgl/src/extra/widgets/imgbtn/../../../../src/core/lv_obj_style_gen.h **** 
  31:Drivers/lvgl/src/extra/widgets/imgbtn/../../../../src/core/lv_obj_style_gen.h **** static inline lv_coord_t lv_obj_get_style_max_height(const struct _lv_obj_t * obj, uint32_t part)
  32:Drivers/lvgl/src/extra/widgets/imgbtn/../../../../src/core/lv_obj_style_gen.h **** {
  33:Drivers/lvgl/src/extra/widgets/imgbtn/../../../../src/core/lv_obj_style_gen.h ****     lv_style_value_t v = lv_obj_get_style_prop(obj, part, LV_STYLE_MAX_HEIGHT);
  34:Drivers/lvgl/src/extra/widgets/imgbtn/../../../../src/core/lv_obj_style_gen.h ****     return (lv_coord_t)v.num;
  35:Drivers/lvgl/src/extra/widgets/imgbtn/../../../../src/core/lv_obj_style_gen.h **** }
  36:Drivers/lvgl/src/extra/widgets/imgbtn/../../../../src/core/lv_obj_style_gen.h **** 
  37:Drivers/lvgl/src/extra/widgets/imgbtn/../../../../src/core/lv_obj_style_gen.h **** static inline lv_coord_t lv_obj_get_style_x(const struct _lv_obj_t * obj, uint32_t part)
  38:Drivers/lvgl/src/extra/widgets/imgbtn/../../../../src/core/lv_obj_style_gen.h **** {
  39:Drivers/lvgl/src/extra/widgets/imgbtn/../../../../src/core/lv_obj_style_gen.h ****     lv_style_value_t v = lv_obj_get_style_prop(obj, part, LV_STYLE_X);
  40:Drivers/lvgl/src/extra/widgets/imgbtn/../../../../src/core/lv_obj_style_gen.h ****     return (lv_coord_t)v.num;
  41:Drivers/lvgl/src/extra/widgets/imgbtn/../../../../src/core/lv_obj_style_gen.h **** }
  42:Drivers/lvgl/src/extra/widgets/imgbtn/../../../../src/core/lv_obj_style_gen.h **** 
  43:Drivers/lvgl/src/extra/widgets/imgbtn/../../../../src/core/lv_obj_style_gen.h **** static inline lv_coord_t lv_obj_get_style_y(const struct _lv_obj_t * obj, uint32_t part)
  44:Drivers/lvgl/src/extra/widgets/imgbtn/../../../../src/core/lv_obj_style_gen.h **** {
  45:Drivers/lvgl/src/extra/widgets/imgbtn/../../../../src/core/lv_obj_style_gen.h ****     lv_style_value_t v = lv_obj_get_style_prop(obj, part, LV_STYLE_Y);
  46:Drivers/lvgl/src/extra/widgets/imgbtn/../../../../src/core/lv_obj_style_gen.h ****     return (lv_coord_t)v.num;
  47:Drivers/lvgl/src/extra/widgets/imgbtn/../../../../src/core/lv_obj_style_gen.h **** }
  48:Drivers/lvgl/src/extra/widgets/imgbtn/../../../../src/core/lv_obj_style_gen.h **** 
  49:Drivers/lvgl/src/extra/widgets/imgbtn/../../../../src/core/lv_obj_style_gen.h **** static inline lv_align_t lv_obj_get_style_align(const struct _lv_obj_t * obj, uint32_t part)
  50:Drivers/lvgl/src/extra/widgets/imgbtn/../../../../src/core/lv_obj_style_gen.h **** {
  51:Drivers/lvgl/src/extra/widgets/imgbtn/../../../../src/core/lv_obj_style_gen.h ****     lv_style_value_t v = lv_obj_get_style_prop(obj, part, LV_STYLE_ALIGN);
  52:Drivers/lvgl/src/extra/widgets/imgbtn/../../../../src/core/lv_obj_style_gen.h ****     return (lv_align_t)v.num;
  53:Drivers/lvgl/src/extra/widgets/imgbtn/../../../../src/core/lv_obj_style_gen.h **** }
  54:Drivers/lvgl/src/extra/widgets/imgbtn/../../../../src/core/lv_obj_style_gen.h **** 
  55:Drivers/lvgl/src/extra/widgets/imgbtn/../../../../src/core/lv_obj_style_gen.h **** static inline lv_coord_t lv_obj_get_style_transform_width(const struct _lv_obj_t * obj, uint32_t pa
  56:Drivers/lvgl/src/extra/widgets/imgbtn/../../../../src/core/lv_obj_style_gen.h **** {
  57:Drivers/lvgl/src/extra/widgets/imgbtn/../../../../src/core/lv_obj_style_gen.h ****     lv_style_value_t v = lv_obj_get_style_prop(obj, part, LV_STYLE_TRANSFORM_WIDTH);
 881              		.loc 2 57 26 is_stmt 0 view .LVU255
 882 01a8 6922     		movs	r2, #105
 883 01aa 0021     		movs	r1, #0
 884 01ac 3846     		mov	r0, r7
 885              	.LVL84:
 886              		.loc 2 57 26 view .LVU256
 887              	.LBE104:
 888              	.LBE103:
 229:Drivers/lvgl/src/extra/widgets/imgbtn/lv_imgbtn.c **** 
 889              		.loc 1 229 18 view .LVU257
 890 01ae D9F83CB0 		ldr	fp, [r9, #60]
ARM GAS  /var/folders/0z/tsy30v1j4xl4_7kw94k978ww0000gn/T//ccOGqK87.s 			page 28


 891              	.LVL85:
 231:Drivers/lvgl/src/extra/widgets/imgbtn/lv_imgbtn.c ****     lv_coord_t th = lv_obj_get_style_transform_height(obj, LV_PART_MAIN);
 892              		.loc 1 231 5 is_stmt 1 view .LVU258
 893              	.LBB107:
 894              	.LBI103:
  55:Drivers/lvgl/src/extra/widgets/imgbtn/../../../../src/core/lv_obj_style_gen.h **** {
 895              		.loc 2 55 26 view .LVU259
 896              	.LBB105:
 897              		.loc 2 57 5 view .LVU260
 898              		.loc 2 57 26 is_stmt 0 view .LVU261
 899 01b2 FFF7FEFF 		bl	lv_obj_get_style_prop
 900              	.LVL86:
 901              	.LBE105:
 902              	.LBE107:
 903              	.LBB108:
 904              	.LBB109:
  58:Drivers/lvgl/src/extra/widgets/imgbtn/../../../../src/core/lv_obj_style_gen.h ****     return (lv_coord_t)v.num;
  59:Drivers/lvgl/src/extra/widgets/imgbtn/../../../../src/core/lv_obj_style_gen.h **** }
  60:Drivers/lvgl/src/extra/widgets/imgbtn/../../../../src/core/lv_obj_style_gen.h **** 
  61:Drivers/lvgl/src/extra/widgets/imgbtn/../../../../src/core/lv_obj_style_gen.h **** static inline lv_coord_t lv_obj_get_style_transform_height(const struct _lv_obj_t * obj, uint32_t p
  62:Drivers/lvgl/src/extra/widgets/imgbtn/../../../../src/core/lv_obj_style_gen.h **** {
  63:Drivers/lvgl/src/extra/widgets/imgbtn/../../../../src/core/lv_obj_style_gen.h ****     lv_style_value_t v = lv_obj_get_style_prop(obj, part, LV_STYLE_TRANSFORM_HEIGHT);
 905              		.loc 2 63 26 view .LVU262
 906 01b6 0021     		movs	r1, #0
 907              	.LBE109:
 908              	.LBE108:
 909              	.LBB111:
 910              	.LBB106:
  57:Drivers/lvgl/src/extra/widgets/imgbtn/../../../../src/core/lv_obj_style_gen.h ****     return (lv_coord_t)v.num;
 911              		.loc 2 57 26 view .LVU263
 912 01b8 0446     		mov	r4, r0
 913              	.LVL87:
  58:Drivers/lvgl/src/extra/widgets/imgbtn/../../../../src/core/lv_obj_style_gen.h ****     return (lv_coord_t)v.num;
 914              		.loc 2 58 5 is_stmt 1 view .LVU264
  58:Drivers/lvgl/src/extra/widgets/imgbtn/../../../../src/core/lv_obj_style_gen.h ****     return (lv_coord_t)v.num;
 915              		.loc 2 58 5 is_stmt 0 view .LVU265
 916              	.LBE106:
 917              	.LBE111:
 232:Drivers/lvgl/src/extra/widgets/imgbtn/lv_imgbtn.c ****     lv_area_t coords;
 918              		.loc 1 232 5 is_stmt 1 view .LVU266
 919              	.LBB112:
 920              	.LBI108:
  61:Drivers/lvgl/src/extra/widgets/imgbtn/../../../../src/core/lv_obj_style_gen.h **** {
 921              		.loc 2 61 26 view .LVU267
 922              	.LBB110:
 923              		.loc 2 63 5 view .LVU268
 924              		.loc 2 63 26 is_stmt 0 view .LVU269
 925 01ba 6A22     		movs	r2, #106
 926 01bc 3846     		mov	r0, r7
 927 01be FFF7FEFF 		bl	lv_obj_get_style_prop
 928              	.LVL88:
  64:Drivers/lvgl/src/extra/widgets/imgbtn/../../../../src/core/lv_obj_style_gen.h ****     return (lv_coord_t)v.num;
 929              		.loc 2 64 5 is_stmt 1 view .LVU270
 930              		.loc 2 64 5 is_stmt 0 view .LVU271
 931              	.LBE110:
 932              	.LBE112:
 233:Drivers/lvgl/src/extra/widgets/imgbtn/lv_imgbtn.c ****     lv_area_copy(&coords, &obj->coords);
ARM GAS  /var/folders/0z/tsy30v1j4xl4_7kw94k978ww0000gn/T//ccOGqK87.s 			page 29


 933              		.loc 1 233 5 is_stmt 1 view .LVU272
 234:Drivers/lvgl/src/extra/widgets/imgbtn/lv_imgbtn.c ****     coords.x1 -= tw;
 934              		.loc 1 234 5 view .LVU273
 935              	.LBB113:
 936              	.LBI113:
 937              		.file 3 "Drivers/lvgl/src/extra/widgets/imgbtn/../../../../src/hal/../draw/../misc/../font/../misc
   1:Drivers/lvgl/src/extra/widgets/imgbtn/../../../../src/hal/../draw/../misc/../font/../misc/lv_area.h **** /**
   2:Drivers/lvgl/src/extra/widgets/imgbtn/../../../../src/hal/../draw/../misc/../font/../misc/lv_area.h ****  * @file lv_area.h
   3:Drivers/lvgl/src/extra/widgets/imgbtn/../../../../src/hal/../draw/../misc/../font/../misc/lv_area.h ****  *
   4:Drivers/lvgl/src/extra/widgets/imgbtn/../../../../src/hal/../draw/../misc/../font/../misc/lv_area.h ****  */
   5:Drivers/lvgl/src/extra/widgets/imgbtn/../../../../src/hal/../draw/../misc/../font/../misc/lv_area.h **** 
   6:Drivers/lvgl/src/extra/widgets/imgbtn/../../../../src/hal/../draw/../misc/../font/../misc/lv_area.h **** #ifndef LV_AREA_H
   7:Drivers/lvgl/src/extra/widgets/imgbtn/../../../../src/hal/../draw/../misc/../font/../misc/lv_area.h **** #define LV_AREA_H
   8:Drivers/lvgl/src/extra/widgets/imgbtn/../../../../src/hal/../draw/../misc/../font/../misc/lv_area.h **** 
   9:Drivers/lvgl/src/extra/widgets/imgbtn/../../../../src/hal/../draw/../misc/../font/../misc/lv_area.h **** #ifdef __cplusplus
  10:Drivers/lvgl/src/extra/widgets/imgbtn/../../../../src/hal/../draw/../misc/../font/../misc/lv_area.h **** extern "C" {
  11:Drivers/lvgl/src/extra/widgets/imgbtn/../../../../src/hal/../draw/../misc/../font/../misc/lv_area.h **** #endif
  12:Drivers/lvgl/src/extra/widgets/imgbtn/../../../../src/hal/../draw/../misc/../font/../misc/lv_area.h **** 
  13:Drivers/lvgl/src/extra/widgets/imgbtn/../../../../src/hal/../draw/../misc/../font/../misc/lv_area.h **** /*********************
  14:Drivers/lvgl/src/extra/widgets/imgbtn/../../../../src/hal/../draw/../misc/../font/../misc/lv_area.h ****  *      INCLUDES
  15:Drivers/lvgl/src/extra/widgets/imgbtn/../../../../src/hal/../draw/../misc/../font/../misc/lv_area.h ****  *********************/
  16:Drivers/lvgl/src/extra/widgets/imgbtn/../../../../src/hal/../draw/../misc/../font/../misc/lv_area.h **** #include "../lv_conf_internal.h"
  17:Drivers/lvgl/src/extra/widgets/imgbtn/../../../../src/hal/../draw/../misc/../font/../misc/lv_area.h **** #include <stdbool.h>
  18:Drivers/lvgl/src/extra/widgets/imgbtn/../../../../src/hal/../draw/../misc/../font/../misc/lv_area.h **** #include <stdint.h>
  19:Drivers/lvgl/src/extra/widgets/imgbtn/../../../../src/hal/../draw/../misc/../font/../misc/lv_area.h **** 
  20:Drivers/lvgl/src/extra/widgets/imgbtn/../../../../src/hal/../draw/../misc/../font/../misc/lv_area.h **** /*********************
  21:Drivers/lvgl/src/extra/widgets/imgbtn/../../../../src/hal/../draw/../misc/../font/../misc/lv_area.h ****  *      DEFINES
  22:Drivers/lvgl/src/extra/widgets/imgbtn/../../../../src/hal/../draw/../misc/../font/../misc/lv_area.h ****  *********************/
  23:Drivers/lvgl/src/extra/widgets/imgbtn/../../../../src/hal/../draw/../misc/../font/../misc/lv_area.h **** 
  24:Drivers/lvgl/src/extra/widgets/imgbtn/../../../../src/hal/../draw/../misc/../font/../misc/lv_area.h **** #if LV_USE_LARGE_COORD
  25:Drivers/lvgl/src/extra/widgets/imgbtn/../../../../src/hal/../draw/../misc/../font/../misc/lv_area.h **** typedef int32_t lv_coord_t;
  26:Drivers/lvgl/src/extra/widgets/imgbtn/../../../../src/hal/../draw/../misc/../font/../misc/lv_area.h **** #else
  27:Drivers/lvgl/src/extra/widgets/imgbtn/../../../../src/hal/../draw/../misc/../font/../misc/lv_area.h **** typedef int16_t lv_coord_t;
  28:Drivers/lvgl/src/extra/widgets/imgbtn/../../../../src/hal/../draw/../misc/../font/../misc/lv_area.h **** #endif
  29:Drivers/lvgl/src/extra/widgets/imgbtn/../../../../src/hal/../draw/../misc/../font/../misc/lv_area.h **** 
  30:Drivers/lvgl/src/extra/widgets/imgbtn/../../../../src/hal/../draw/../misc/../font/../misc/lv_area.h **** /**********************
  31:Drivers/lvgl/src/extra/widgets/imgbtn/../../../../src/hal/../draw/../misc/../font/../misc/lv_area.h ****  *      TYPEDEFS
  32:Drivers/lvgl/src/extra/widgets/imgbtn/../../../../src/hal/../draw/../misc/../font/../misc/lv_area.h ****  **********************/
  33:Drivers/lvgl/src/extra/widgets/imgbtn/../../../../src/hal/../draw/../misc/../font/../misc/lv_area.h **** 
  34:Drivers/lvgl/src/extra/widgets/imgbtn/../../../../src/hal/../draw/../misc/../font/../misc/lv_area.h **** /**
  35:Drivers/lvgl/src/extra/widgets/imgbtn/../../../../src/hal/../draw/../misc/../font/../misc/lv_area.h ****  * Represents a point on the screen.
  36:Drivers/lvgl/src/extra/widgets/imgbtn/../../../../src/hal/../draw/../misc/../font/../misc/lv_area.h ****  */
  37:Drivers/lvgl/src/extra/widgets/imgbtn/../../../../src/hal/../draw/../misc/../font/../misc/lv_area.h **** typedef struct {
  38:Drivers/lvgl/src/extra/widgets/imgbtn/../../../../src/hal/../draw/../misc/../font/../misc/lv_area.h ****     lv_coord_t x;
  39:Drivers/lvgl/src/extra/widgets/imgbtn/../../../../src/hal/../draw/../misc/../font/../misc/lv_area.h ****     lv_coord_t y;
  40:Drivers/lvgl/src/extra/widgets/imgbtn/../../../../src/hal/../draw/../misc/../font/../misc/lv_area.h **** } lv_point_t;
  41:Drivers/lvgl/src/extra/widgets/imgbtn/../../../../src/hal/../draw/../misc/../font/../misc/lv_area.h **** 
  42:Drivers/lvgl/src/extra/widgets/imgbtn/../../../../src/hal/../draw/../misc/../font/../misc/lv_area.h **** /** Represents an area of the screen.*/
  43:Drivers/lvgl/src/extra/widgets/imgbtn/../../../../src/hal/../draw/../misc/../font/../misc/lv_area.h **** typedef struct {
  44:Drivers/lvgl/src/extra/widgets/imgbtn/../../../../src/hal/../draw/../misc/../font/../misc/lv_area.h ****     lv_coord_t x1;
  45:Drivers/lvgl/src/extra/widgets/imgbtn/../../../../src/hal/../draw/../misc/../font/../misc/lv_area.h ****     lv_coord_t y1;
  46:Drivers/lvgl/src/extra/widgets/imgbtn/../../../../src/hal/../draw/../misc/../font/../misc/lv_area.h ****     lv_coord_t x2;
  47:Drivers/lvgl/src/extra/widgets/imgbtn/../../../../src/hal/../draw/../misc/../font/../misc/lv_area.h ****     lv_coord_t y2;
  48:Drivers/lvgl/src/extra/widgets/imgbtn/../../../../src/hal/../draw/../misc/../font/../misc/lv_area.h **** } lv_area_t;
  49:Drivers/lvgl/src/extra/widgets/imgbtn/../../../../src/hal/../draw/../misc/../font/../misc/lv_area.h **** 
  50:Drivers/lvgl/src/extra/widgets/imgbtn/../../../../src/hal/../draw/../misc/../font/../misc/lv_area.h **** /** Alignments*/
  51:Drivers/lvgl/src/extra/widgets/imgbtn/../../../../src/hal/../draw/../misc/../font/../misc/lv_area.h **** enum {
ARM GAS  /var/folders/0z/tsy30v1j4xl4_7kw94k978ww0000gn/T//ccOGqK87.s 			page 30


  52:Drivers/lvgl/src/extra/widgets/imgbtn/../../../../src/hal/../draw/../misc/../font/../misc/lv_area.h ****     LV_ALIGN_DEFAULT = 0,
  53:Drivers/lvgl/src/extra/widgets/imgbtn/../../../../src/hal/../draw/../misc/../font/../misc/lv_area.h ****     LV_ALIGN_TOP_LEFT,
  54:Drivers/lvgl/src/extra/widgets/imgbtn/../../../../src/hal/../draw/../misc/../font/../misc/lv_area.h ****     LV_ALIGN_TOP_MID,
  55:Drivers/lvgl/src/extra/widgets/imgbtn/../../../../src/hal/../draw/../misc/../font/../misc/lv_area.h ****     LV_ALIGN_TOP_RIGHT,
  56:Drivers/lvgl/src/extra/widgets/imgbtn/../../../../src/hal/../draw/../misc/../font/../misc/lv_area.h ****     LV_ALIGN_BOTTOM_LEFT,
  57:Drivers/lvgl/src/extra/widgets/imgbtn/../../../../src/hal/../draw/../misc/../font/../misc/lv_area.h ****     LV_ALIGN_BOTTOM_MID,
  58:Drivers/lvgl/src/extra/widgets/imgbtn/../../../../src/hal/../draw/../misc/../font/../misc/lv_area.h ****     LV_ALIGN_BOTTOM_RIGHT,
  59:Drivers/lvgl/src/extra/widgets/imgbtn/../../../../src/hal/../draw/../misc/../font/../misc/lv_area.h ****     LV_ALIGN_LEFT_MID,
  60:Drivers/lvgl/src/extra/widgets/imgbtn/../../../../src/hal/../draw/../misc/../font/../misc/lv_area.h ****     LV_ALIGN_RIGHT_MID,
  61:Drivers/lvgl/src/extra/widgets/imgbtn/../../../../src/hal/../draw/../misc/../font/../misc/lv_area.h ****     LV_ALIGN_CENTER,
  62:Drivers/lvgl/src/extra/widgets/imgbtn/../../../../src/hal/../draw/../misc/../font/../misc/lv_area.h **** 
  63:Drivers/lvgl/src/extra/widgets/imgbtn/../../../../src/hal/../draw/../misc/../font/../misc/lv_area.h ****     LV_ALIGN_OUT_TOP_LEFT,
  64:Drivers/lvgl/src/extra/widgets/imgbtn/../../../../src/hal/../draw/../misc/../font/../misc/lv_area.h ****     LV_ALIGN_OUT_TOP_MID,
  65:Drivers/lvgl/src/extra/widgets/imgbtn/../../../../src/hal/../draw/../misc/../font/../misc/lv_area.h ****     LV_ALIGN_OUT_TOP_RIGHT,
  66:Drivers/lvgl/src/extra/widgets/imgbtn/../../../../src/hal/../draw/../misc/../font/../misc/lv_area.h ****     LV_ALIGN_OUT_BOTTOM_LEFT,
  67:Drivers/lvgl/src/extra/widgets/imgbtn/../../../../src/hal/../draw/../misc/../font/../misc/lv_area.h ****     LV_ALIGN_OUT_BOTTOM_MID,
  68:Drivers/lvgl/src/extra/widgets/imgbtn/../../../../src/hal/../draw/../misc/../font/../misc/lv_area.h ****     LV_ALIGN_OUT_BOTTOM_RIGHT,
  69:Drivers/lvgl/src/extra/widgets/imgbtn/../../../../src/hal/../draw/../misc/../font/../misc/lv_area.h ****     LV_ALIGN_OUT_LEFT_TOP,
  70:Drivers/lvgl/src/extra/widgets/imgbtn/../../../../src/hal/../draw/../misc/../font/../misc/lv_area.h ****     LV_ALIGN_OUT_LEFT_MID,
  71:Drivers/lvgl/src/extra/widgets/imgbtn/../../../../src/hal/../draw/../misc/../font/../misc/lv_area.h ****     LV_ALIGN_OUT_LEFT_BOTTOM,
  72:Drivers/lvgl/src/extra/widgets/imgbtn/../../../../src/hal/../draw/../misc/../font/../misc/lv_area.h ****     LV_ALIGN_OUT_RIGHT_TOP,
  73:Drivers/lvgl/src/extra/widgets/imgbtn/../../../../src/hal/../draw/../misc/../font/../misc/lv_area.h ****     LV_ALIGN_OUT_RIGHT_MID,
  74:Drivers/lvgl/src/extra/widgets/imgbtn/../../../../src/hal/../draw/../misc/../font/../misc/lv_area.h ****     LV_ALIGN_OUT_RIGHT_BOTTOM,
  75:Drivers/lvgl/src/extra/widgets/imgbtn/../../../../src/hal/../draw/../misc/../font/../misc/lv_area.h **** };
  76:Drivers/lvgl/src/extra/widgets/imgbtn/../../../../src/hal/../draw/../misc/../font/../misc/lv_area.h **** typedef uint8_t lv_align_t;
  77:Drivers/lvgl/src/extra/widgets/imgbtn/../../../../src/hal/../draw/../misc/../font/../misc/lv_area.h **** 
  78:Drivers/lvgl/src/extra/widgets/imgbtn/../../../../src/hal/../draw/../misc/../font/../misc/lv_area.h **** enum {
  79:Drivers/lvgl/src/extra/widgets/imgbtn/../../../../src/hal/../draw/../misc/../font/../misc/lv_area.h ****     LV_DIR_NONE     = 0x00,
  80:Drivers/lvgl/src/extra/widgets/imgbtn/../../../../src/hal/../draw/../misc/../font/../misc/lv_area.h ****     LV_DIR_LEFT     = (1 << 0),
  81:Drivers/lvgl/src/extra/widgets/imgbtn/../../../../src/hal/../draw/../misc/../font/../misc/lv_area.h ****     LV_DIR_RIGHT    = (1 << 1),
  82:Drivers/lvgl/src/extra/widgets/imgbtn/../../../../src/hal/../draw/../misc/../font/../misc/lv_area.h ****     LV_DIR_TOP      = (1 << 2),
  83:Drivers/lvgl/src/extra/widgets/imgbtn/../../../../src/hal/../draw/../misc/../font/../misc/lv_area.h ****     LV_DIR_BOTTOM   = (1 << 3),
  84:Drivers/lvgl/src/extra/widgets/imgbtn/../../../../src/hal/../draw/../misc/../font/../misc/lv_area.h ****     LV_DIR_HOR      = LV_DIR_LEFT | LV_DIR_RIGHT,
  85:Drivers/lvgl/src/extra/widgets/imgbtn/../../../../src/hal/../draw/../misc/../font/../misc/lv_area.h ****     LV_DIR_VER      = LV_DIR_TOP | LV_DIR_BOTTOM,
  86:Drivers/lvgl/src/extra/widgets/imgbtn/../../../../src/hal/../draw/../misc/../font/../misc/lv_area.h ****     LV_DIR_ALL      = LV_DIR_HOR | LV_DIR_VER,
  87:Drivers/lvgl/src/extra/widgets/imgbtn/../../../../src/hal/../draw/../misc/../font/../misc/lv_area.h **** };
  88:Drivers/lvgl/src/extra/widgets/imgbtn/../../../../src/hal/../draw/../misc/../font/../misc/lv_area.h **** 
  89:Drivers/lvgl/src/extra/widgets/imgbtn/../../../../src/hal/../draw/../misc/../font/../misc/lv_area.h **** typedef uint8_t lv_dir_t;
  90:Drivers/lvgl/src/extra/widgets/imgbtn/../../../../src/hal/../draw/../misc/../font/../misc/lv_area.h **** 
  91:Drivers/lvgl/src/extra/widgets/imgbtn/../../../../src/hal/../draw/../misc/../font/../misc/lv_area.h **** /**********************
  92:Drivers/lvgl/src/extra/widgets/imgbtn/../../../../src/hal/../draw/../misc/../font/../misc/lv_area.h ****  * GLOBAL PROTOTYPES
  93:Drivers/lvgl/src/extra/widgets/imgbtn/../../../../src/hal/../draw/../misc/../font/../misc/lv_area.h ****  **********************/
  94:Drivers/lvgl/src/extra/widgets/imgbtn/../../../../src/hal/../draw/../misc/../font/../misc/lv_area.h **** 
  95:Drivers/lvgl/src/extra/widgets/imgbtn/../../../../src/hal/../draw/../misc/../font/../misc/lv_area.h **** /**
  96:Drivers/lvgl/src/extra/widgets/imgbtn/../../../../src/hal/../draw/../misc/../font/../misc/lv_area.h ****  * Initialize an area
  97:Drivers/lvgl/src/extra/widgets/imgbtn/../../../../src/hal/../draw/../misc/../font/../misc/lv_area.h ****  * @param area_p pointer to an area
  98:Drivers/lvgl/src/extra/widgets/imgbtn/../../../../src/hal/../draw/../misc/../font/../misc/lv_area.h ****  * @param x1 left coordinate of the area
  99:Drivers/lvgl/src/extra/widgets/imgbtn/../../../../src/hal/../draw/../misc/../font/../misc/lv_area.h ****  * @param y1 top coordinate of the area
 100:Drivers/lvgl/src/extra/widgets/imgbtn/../../../../src/hal/../draw/../misc/../font/../misc/lv_area.h ****  * @param x2 right coordinate of the area
 101:Drivers/lvgl/src/extra/widgets/imgbtn/../../../../src/hal/../draw/../misc/../font/../misc/lv_area.h ****  * @param y2 bottom coordinate of the area
 102:Drivers/lvgl/src/extra/widgets/imgbtn/../../../../src/hal/../draw/../misc/../font/../misc/lv_area.h ****  */
 103:Drivers/lvgl/src/extra/widgets/imgbtn/../../../../src/hal/../draw/../misc/../font/../misc/lv_area.h **** void lv_area_set(lv_area_t * area_p, lv_coord_t x1, lv_coord_t y1, lv_coord_t x2, lv_coord_t y2);
 104:Drivers/lvgl/src/extra/widgets/imgbtn/../../../../src/hal/../draw/../misc/../font/../misc/lv_area.h **** 
 105:Drivers/lvgl/src/extra/widgets/imgbtn/../../../../src/hal/../draw/../misc/../font/../misc/lv_area.h **** /**
 106:Drivers/lvgl/src/extra/widgets/imgbtn/../../../../src/hal/../draw/../misc/../font/../misc/lv_area.h ****  * Copy an area
 107:Drivers/lvgl/src/extra/widgets/imgbtn/../../../../src/hal/../draw/../misc/../font/../misc/lv_area.h ****  * @param dest pointer to the destination area
 108:Drivers/lvgl/src/extra/widgets/imgbtn/../../../../src/hal/../draw/../misc/../font/../misc/lv_area.h ****  * @param src pointer to the source area
ARM GAS  /var/folders/0z/tsy30v1j4xl4_7kw94k978ww0000gn/T//ccOGqK87.s 			page 31


 109:Drivers/lvgl/src/extra/widgets/imgbtn/../../../../src/hal/../draw/../misc/../font/../misc/lv_area.h ****  */
 110:Drivers/lvgl/src/extra/widgets/imgbtn/../../../../src/hal/../draw/../misc/../font/../misc/lv_area.h **** inline static void lv_area_copy(lv_area_t * dest, const lv_area_t * src)
 938              		.loc 3 110 20 view .LVU274
 939              	.LBB114:
 111:Drivers/lvgl/src/extra/widgets/imgbtn/../../../../src/hal/../draw/../misc/../font/../misc/lv_area.h **** {
 112:Drivers/lvgl/src/extra/widgets/imgbtn/../../../../src/hal/../draw/../misc/../font/../misc/lv_area.h ****     dest->x1 = src->x1;
 940              		.loc 3 112 5 view .LVU275
 113:Drivers/lvgl/src/extra/widgets/imgbtn/../../../../src/hal/../draw/../misc/../font/../misc/lv_area.h ****     dest->y1 = src->y1;
 941              		.loc 3 113 5 view .LVU276
 114:Drivers/lvgl/src/extra/widgets/imgbtn/../../../../src/hal/../draw/../misc/../font/../misc/lv_area.h ****     dest->x2 = src->x2;
 942              		.loc 3 114 5 view .LVU277
 115:Drivers/lvgl/src/extra/widgets/imgbtn/../../../../src/hal/../draw/../misc/../font/../misc/lv_area.h ****     dest->y2 = src->y2;
 943              		.loc 3 115 5 view .LVU278
 944              	.LBE114:
 945              	.LBE113:
 237:Drivers/lvgl/src/extra/widgets/imgbtn/lv_imgbtn.c ****     coords.y2 += th;
 946              		.loc 1 237 15 is_stmt 0 view .LVU279
 947 01c2 FE8A     		ldrh	r6, [r7, #22]
 948              	.LVL89:
 236:Drivers/lvgl/src/extra/widgets/imgbtn/lv_imgbtn.c ****     coords.y1 -= th;
 949              		.loc 1 236 15 view .LVU280
 950 01c4 3A8B     		ldrh	r2, [r7, #24]
 951              	.LBB117:
 952              	.LBB115:
 953              		.loc 3 115 19 view .LVU281
 954 01c6 B7F91A30 		ldrsh	r3, [r7, #26]
 955              	.LBE115:
 956              	.LBE117:
 235:Drivers/lvgl/src/extra/widgets/imgbtn/lv_imgbtn.c ****     coords.x2 += tw;
 957              		.loc 1 235 15 view .LVU282
 958 01ca BD8A     		ldrh	r5, [r7, #20]
 959              	.LBB118:
 960              	.LBB116:
 961              		.loc 3 115 19 view .LVU283
 962 01cc 0193     		str	r3, [sp, #4]
 963              	.LVL90:
 964              		.loc 3 115 19 view .LVU284
 965              	.LBE116:
 966              	.LBE118:
 235:Drivers/lvgl/src/extra/widgets/imgbtn/lv_imgbtn.c ****     coords.x2 += tw;
 967              		.loc 1 235 5 is_stmt 1 view .LVU285
 237:Drivers/lvgl/src/extra/widgets/imgbtn/lv_imgbtn.c ****     coords.y2 += th;
 968              		.loc 1 237 15 is_stmt 0 view .LVU286
 969 01ce 1FFA80FA 		uxth	r10, r0
 970 01d2 A6EB0A06 		sub	r6, r6, r10
 971 01d6 B3B2     		uxth	r3, r6
 235:Drivers/lvgl/src/extra/widgets/imgbtn/lv_imgbtn.c ****     coords.x2 += tw;
 972              		.loc 1 235 15 view .LVU287
 973 01d8 A4B2     		uxth	r4, r4
 241:Drivers/lvgl/src/extra/widgets/imgbtn/lv_imgbtn.c ****     lv_obj_init_draw_img_dsc(obj, LV_PART_MAIN, &img_dsc);
 974              		.loc 1 241 5 view .LVU288
 975 01da 08A8     		add	r0, sp, #32
 976              	.LVL91:
 235:Drivers/lvgl/src/extra/widgets/imgbtn/lv_imgbtn.c ****     coords.x2 += tw;
 977              		.loc 1 235 15 view .LVU289
 978 01dc 2D1B     		subs	r5, r5, r4
 237:Drivers/lvgl/src/extra/widgets/imgbtn/lv_imgbtn.c ****     coords.y2 += th;
ARM GAS  /var/folders/0z/tsy30v1j4xl4_7kw94k978ww0000gn/T//ccOGqK87.s 			page 32


 979              		.loc 1 237 15 view .LVU290
 980 01de 0093     		str	r3, [sp]
 236:Drivers/lvgl/src/extra/widgets/imgbtn/lv_imgbtn.c ****     coords.y1 -= th;
 981              		.loc 1 236 15 view .LVU291
 982 01e0 1444     		add	r4, r4, r2
 983              	.LVL92:
 241:Drivers/lvgl/src/extra/widgets/imgbtn/lv_imgbtn.c ****     lv_obj_init_draw_img_dsc(obj, LV_PART_MAIN, &img_dsc);
 984              		.loc 1 241 5 view .LVU292
 985 01e2 FFF7FEFF 		bl	lv_draw_img_dsc_init
 986              	.LVL93:
 242:Drivers/lvgl/src/extra/widgets/imgbtn/lv_imgbtn.c **** 
 987              		.loc 1 242 5 view .LVU293
 988 01e6 08AA     		add	r2, sp, #32
 989 01e8 3846     		mov	r0, r7
 990 01ea 0021     		movs	r1, #0
 235:Drivers/lvgl/src/extra/widgets/imgbtn/lv_imgbtn.c ****     coords.x2 += tw;
 991              		.loc 1 235 15 view .LVU294
 992 01ec ADB2     		uxth	r5, r5
 993              	.LVL94:
 236:Drivers/lvgl/src/extra/widgets/imgbtn/lv_imgbtn.c ****     coords.y1 -= th;
 994              		.loc 1 236 5 is_stmt 1 view .LVU295
 236:Drivers/lvgl/src/extra/widgets/imgbtn/lv_imgbtn.c ****     coords.y1 -= th;
 995              		.loc 1 236 15 is_stmt 0 view .LVU296
 996 01ee A4B2     		uxth	r4, r4
 997              	.LVL95:
 237:Drivers/lvgl/src/extra/widgets/imgbtn/lv_imgbtn.c ****     coords.y2 += th;
 998              		.loc 1 237 5 is_stmt 1 view .LVU297
 237:Drivers/lvgl/src/extra/widgets/imgbtn/lv_imgbtn.c ****     coords.y2 += th;
 999              		.loc 1 237 15 is_stmt 0 view .LVU298
 1000 01f0 36B2     		sxth	r6, r6
 1001              	.LVL96:
 238:Drivers/lvgl/src/extra/widgets/imgbtn/lv_imgbtn.c **** 
 1002              		.loc 1 238 5 is_stmt 1 view .LVU299
 240:Drivers/lvgl/src/extra/widgets/imgbtn/lv_imgbtn.c ****     lv_draw_img_dsc_init(&img_dsc);
 1003              		.loc 1 240 5 view .LVU300
 241:Drivers/lvgl/src/extra/widgets/imgbtn/lv_imgbtn.c ****     lv_obj_init_draw_img_dsc(obj, LV_PART_MAIN, &img_dsc);
 1004              		.loc 1 241 5 view .LVU301
 242:Drivers/lvgl/src/extra/widgets/imgbtn/lv_imgbtn.c **** 
 1005              		.loc 1 242 5 view .LVU302
 1006 01f2 FFF7FEFF 		bl	lv_obj_init_draw_img_dsc
 1007              	.LVL97:
 244:Drivers/lvgl/src/extra/widgets/imgbtn/lv_imgbtn.c ****     lv_area_t coords_part;
 1008              		.loc 1 244 5 view .LVU303
 245:Drivers/lvgl/src/extra/widgets/imgbtn/lv_imgbtn.c ****     lv_coord_t left_w = 0;
 1009              		.loc 1 245 5 view .LVU304
 246:Drivers/lvgl/src/extra/widgets/imgbtn/lv_imgbtn.c ****     lv_coord_t right_w = 0;
 1010              		.loc 1 246 5 view .LVU305
 247:Drivers/lvgl/src/extra/widgets/imgbtn/lv_imgbtn.c **** 
 1011              		.loc 1 247 5 view .LVU306
 249:Drivers/lvgl/src/extra/widgets/imgbtn/lv_imgbtn.c ****         lv_img_decoder_get_info(src, &header);
 1012              		.loc 1 249 5 view .LVU307
 249:Drivers/lvgl/src/extra/widgets/imgbtn/lv_imgbtn.c ****         lv_img_decoder_get_info(src, &header);
 1013              		.loc 1 249 7 is_stmt 0 view .LVU308
 1014 01f6 BBF1000F 		cmp	fp, #0
 1015 01fa 1ED0     		beq	.L61
 250:Drivers/lvgl/src/extra/widgets/imgbtn/lv_imgbtn.c ****         left_w = header.w;
 1016              		.loc 1 250 9 is_stmt 1 view .LVU309
ARM GAS  /var/folders/0z/tsy30v1j4xl4_7kw94k978ww0000gn/T//ccOGqK87.s 			page 33


 1017 01fc 03A9     		add	r1, sp, #12
 1018 01fe 5846     		mov	r0, fp
 1019 0200 FFF7FEFF 		bl	lv_img_decoder_get_info
 1020              	.LVL98:
 251:Drivers/lvgl/src/extra/widgets/imgbtn/lv_imgbtn.c ****         coords_part.x1 = coords.x1;
 1021              		.loc 1 251 9 view .LVU310
 251:Drivers/lvgl/src/extra/widgets/imgbtn/lv_imgbtn.c ****         coords_part.x1 = coords.x1;
 1022              		.loc 1 251 24 is_stmt 0 view .LVU311
 1023 0204 039A     		ldr	r2, [sp, #12]
 1024              	.LVL99:
 252:Drivers/lvgl/src/extra/widgets/imgbtn/lv_imgbtn.c ****         coords_part.y1 = coords.y1;
 1025              		.loc 1 252 9 is_stmt 1 view .LVU312
 253:Drivers/lvgl/src/extra/widgets/imgbtn/lv_imgbtn.c ****         coords_part.x2 = coords.x1 + header.w - 1;
 1026              		.loc 1 253 9 view .LVU313
 254:Drivers/lvgl/src/extra/widgets/imgbtn/lv_imgbtn.c ****         coords_part.y2 = coords.y1 + header.h - 1;
 1027              		.loc 1 254 9 view .LVU314
 255:Drivers/lvgl/src/extra/widgets/imgbtn/lv_imgbtn.c ****         lv_draw_img(draw_ctx, &img_dsc, &coords_part, src);
 1028              		.loc 1 255 47 is_stmt 0 view .LVU315
 1029 0206 0099     		ldr	r1, [sp]
 252:Drivers/lvgl/src/extra/widgets/imgbtn/lv_imgbtn.c ****         coords_part.y1 = coords.y1;
 1030              		.loc 1 252 24 view .LVU316
 1031 0208 ADF81050 		strh	r5, [sp, #16]	@ movhi
 254:Drivers/lvgl/src/extra/widgets/imgbtn/lv_imgbtn.c ****         coords_part.y2 = coords.y1 + header.h - 1;
 1032              		.loc 1 254 44 view .LVU317
 1033 020c C2F38A20 		ubfx	r0, r2, #10, #11
 255:Drivers/lvgl/src/extra/widgets/imgbtn/lv_imgbtn.c ****         lv_draw_img(draw_ctx, &img_dsc, &coords_part, src);
 1034              		.loc 1 255 44 view .LVU318
 1035 0210 BDF80E20 		ldrh	r2, [sp, #14]
 1036              	.LVL100:
 253:Drivers/lvgl/src/extra/widgets/imgbtn/lv_imgbtn.c ****         coords_part.x2 = coords.x1 + header.w - 1;
 1037              		.loc 1 253 24 view .LVU319
 1038 0214 ADF81260 		strh	r6, [sp, #18]	@ movhi
 255:Drivers/lvgl/src/extra/widgets/imgbtn/lv_imgbtn.c ****         lv_draw_img(draw_ctx, &img_dsc, &coords_part, src);
 1039              		.loc 1 255 44 view .LVU320
 1040 0218 C2F34A12 		ubfx	r2, r2, #5, #11
 255:Drivers/lvgl/src/extra/widgets/imgbtn/lv_imgbtn.c ****         lv_draw_img(draw_ctx, &img_dsc, &coords_part, src);
 1041              		.loc 1 255 47 view .LVU321
 1042 021c 013A     		subs	r2, r2, #1
 1043 021e 0A44     		add	r2, r2, r1
 255:Drivers/lvgl/src/extra/widgets/imgbtn/lv_imgbtn.c ****         lv_draw_img(draw_ctx, &img_dsc, &coords_part, src);
 1044              		.loc 1 255 24 view .LVU322
 1045 0220 ADF81620 		strh	r2, [sp, #22]	@ movhi
 254:Drivers/lvgl/src/extra/widgets/imgbtn/lv_imgbtn.c ****         coords_part.y2 = coords.y1 + header.h - 1;
 1046              		.loc 1 254 47 view .LVU323
 1047 0224 421E     		subs	r2, r0, #1
 1048 0226 2A44     		add	r2, r2, r5
 256:Drivers/lvgl/src/extra/widgets/imgbtn/lv_imgbtn.c ****     }
 1049              		.loc 1 256 9 view .LVU324
 1050 0228 5B46     		mov	r3, fp
 254:Drivers/lvgl/src/extra/widgets/imgbtn/lv_imgbtn.c ****         coords_part.y2 = coords.y1 + header.h - 1;
 1051              		.loc 1 254 24 view .LVU325
 1052 022a ADF81420 		strh	r2, [sp, #20]	@ movhi
 255:Drivers/lvgl/src/extra/widgets/imgbtn/lv_imgbtn.c ****         lv_draw_img(draw_ctx, &img_dsc, &coords_part, src);
 1053              		.loc 1 255 9 is_stmt 1 view .LVU326
 256:Drivers/lvgl/src/extra/widgets/imgbtn/lv_imgbtn.c ****     }
 1054              		.loc 1 256 9 view .LVU327
 254:Drivers/lvgl/src/extra/widgets/imgbtn/lv_imgbtn.c ****         coords_part.y2 = coords.y1 + header.h - 1;
ARM GAS  /var/folders/0z/tsy30v1j4xl4_7kw94k978ww0000gn/T//ccOGqK87.s 			page 34


 1055              		.loc 1 254 44 is_stmt 0 view .LVU328
 1056 022e 8346     		mov	fp, r0
 1057              	.LVL101:
 256:Drivers/lvgl/src/extra/widgets/imgbtn/lv_imgbtn.c ****     }
 1058              		.loc 1 256 9 view .LVU329
 1059 0230 04AA     		add	r2, sp, #16
 1060 0232 08A9     		add	r1, sp, #32
 1061 0234 4046     		mov	r0, r8
 1062 0236 FFF7FEFF 		bl	lv_draw_img
 1063              	.LVL102:
 1064              	.L61:
 259:Drivers/lvgl/src/extra/widgets/imgbtn/lv_imgbtn.c ****     if(src) {
 1065              		.loc 1 259 5 is_stmt 1 view .LVU330
 259:Drivers/lvgl/src/extra/widgets/imgbtn/lv_imgbtn.c ****     if(src) {
 1066              		.loc 1 259 9 is_stmt 0 view .LVU331
 1067 023a D9F85470 		ldr	r7, [r9, #84]
 1068              	.LVL103:
 260:Drivers/lvgl/src/extra/widgets/imgbtn/lv_imgbtn.c ****         lv_img_decoder_get_info(src, &header);
 1069              		.loc 1 260 5 is_stmt 1 view .LVU332
 260:Drivers/lvgl/src/extra/widgets/imgbtn/lv_imgbtn.c ****         lv_img_decoder_get_info(src, &header);
 1070              		.loc 1 260 7 is_stmt 0 view .LVU333
 1071 023e F7B1     		cbz	r7, .L62
 261:Drivers/lvgl/src/extra/widgets/imgbtn/lv_imgbtn.c ****         right_w = header.w;
 1072              		.loc 1 261 9 is_stmt 1 view .LVU334
 1073 0240 03A9     		add	r1, sp, #12
 1074 0242 3846     		mov	r0, r7
 1075 0244 FFF7FEFF 		bl	lv_img_decoder_get_info
 1076              	.LVL104:
 262:Drivers/lvgl/src/extra/widgets/imgbtn/lv_imgbtn.c ****         coords_part.x1 = coords.x2 - header.w + 1;
 1077              		.loc 1 262 9 view .LVU335
 263:Drivers/lvgl/src/extra/widgets/imgbtn/lv_imgbtn.c ****         coords_part.y1 = coords.y1;
 1078              		.loc 1 263 9 view .LVU336
 266:Drivers/lvgl/src/extra/widgets/imgbtn/lv_imgbtn.c ****         lv_draw_img(draw_ctx, &img_dsc, &coords_part, src);
 1079              		.loc 1 266 44 is_stmt 0 view .LVU337
 1080 0248 BDF80E20 		ldrh	r2, [sp, #14]
 266:Drivers/lvgl/src/extra/widgets/imgbtn/lv_imgbtn.c ****         lv_draw_img(draw_ctx, &img_dsc, &coords_part, src);
 1081              		.loc 1 266 47 view .LVU338
 1082 024c 0099     		ldr	r1, [sp]
 264:Drivers/lvgl/src/extra/widgets/imgbtn/lv_imgbtn.c ****         coords_part.x2 = coords.x2;
 1083              		.loc 1 264 24 view .LVU339
 1084 024e ADF81260 		strh	r6, [sp, #18]	@ movhi
 267:Drivers/lvgl/src/extra/widgets/imgbtn/lv_imgbtn.c ****     }
 1085              		.loc 1 267 9 view .LVU340
 1086 0252 3B46     		mov	r3, r7
 266:Drivers/lvgl/src/extra/widgets/imgbtn/lv_imgbtn.c ****         lv_draw_img(draw_ctx, &img_dsc, &coords_part, src);
 1087              		.loc 1 266 44 view .LVU341
 1088 0254 C2F34A12 		ubfx	r2, r2, #5, #11
 262:Drivers/lvgl/src/extra/widgets/imgbtn/lv_imgbtn.c ****         coords_part.x1 = coords.x2 - header.w + 1;
 1089              		.loc 1 262 25 view .LVU342
 1090 0258 039F     		ldr	r7, [sp, #12]
 1091              	.LVL105:
 265:Drivers/lvgl/src/extra/widgets/imgbtn/lv_imgbtn.c ****         coords_part.y2 = coords.y1 + header.h - 1;
 1092              		.loc 1 265 24 view .LVU343
 1093 025a ADF81440 		strh	r4, [sp, #20]	@ movhi
 266:Drivers/lvgl/src/extra/widgets/imgbtn/lv_imgbtn.c ****         lv_draw_img(draw_ctx, &img_dsc, &coords_part, src);
 1094              		.loc 1 266 47 view .LVU344
 1095 025e 013A     		subs	r2, r2, #1
ARM GAS  /var/folders/0z/tsy30v1j4xl4_7kw94k978ww0000gn/T//ccOGqK87.s 			page 35


 1096 0260 0A44     		add	r2, r2, r1
 263:Drivers/lvgl/src/extra/widgets/imgbtn/lv_imgbtn.c ****         coords_part.y1 = coords.y1;
 1097              		.loc 1 263 44 view .LVU345
 1098 0262 C7F38A27 		ubfx	r7, r7, #10, #11
 266:Drivers/lvgl/src/extra/widgets/imgbtn/lv_imgbtn.c ****         lv_draw_img(draw_ctx, &img_dsc, &coords_part, src);
 1099              		.loc 1 266 24 view .LVU346
 1100 0266 ADF81620 		strh	r2, [sp, #22]	@ movhi
 263:Drivers/lvgl/src/extra/widgets/imgbtn/lv_imgbtn.c ****         coords_part.y1 = coords.y1;
 1101              		.loc 1 263 47 view .LVU347
 1102 026a C7F10102 		rsb	r2, r7, #1
 1103 026e 2244     		add	r2, r2, r4
 263:Drivers/lvgl/src/extra/widgets/imgbtn/lv_imgbtn.c ****         coords_part.y1 = coords.y1;
 1104              		.loc 1 263 24 view .LVU348
 1105 0270 ADF81020 		strh	r2, [sp, #16]	@ movhi
 264:Drivers/lvgl/src/extra/widgets/imgbtn/lv_imgbtn.c ****         coords_part.x2 = coords.x2;
 1106              		.loc 1 264 9 is_stmt 1 view .LVU349
 265:Drivers/lvgl/src/extra/widgets/imgbtn/lv_imgbtn.c ****         coords_part.y2 = coords.y1 + header.h - 1;
 1107              		.loc 1 265 9 view .LVU350
 266:Drivers/lvgl/src/extra/widgets/imgbtn/lv_imgbtn.c ****         lv_draw_img(draw_ctx, &img_dsc, &coords_part, src);
 1108              		.loc 1 266 9 view .LVU351
 267:Drivers/lvgl/src/extra/widgets/imgbtn/lv_imgbtn.c ****     }
 1109              		.loc 1 267 9 view .LVU352
 1110 0274 08A9     		add	r1, sp, #32
 1111 0276 04AA     		add	r2, sp, #16
 1112 0278 4046     		mov	r0, r8
 1113 027a FFF7FEFF 		bl	lv_draw_img
 1114              	.LVL106:
 1115              	.L62:
 270:Drivers/lvgl/src/extra/widgets/imgbtn/lv_imgbtn.c ****     if(src) {
 1116              		.loc 1 270 5 view .LVU353
 270:Drivers/lvgl/src/extra/widgets/imgbtn/lv_imgbtn.c ****     if(src) {
 1117              		.loc 1 270 9 is_stmt 0 view .LVU354
 1118 027e D9F82490 		ldr	r9, [r9, #36]
 1119              	.LVL107:
 271:Drivers/lvgl/src/extra/widgets/imgbtn/lv_imgbtn.c ****         lv_area_t clip_area_center;
 1120              		.loc 1 271 5 is_stmt 1 view .LVU355
 271:Drivers/lvgl/src/extra/widgets/imgbtn/lv_imgbtn.c ****         lv_area_t clip_area_center;
 1121              		.loc 1 271 7 is_stmt 0 view .LVU356
 1122 0282 B9F1000F 		cmp	r9, #0
 1123 0286 3FF4C4AE 		beq	.L49
 1124              	.LBB119:
 272:Drivers/lvgl/src/extra/widgets/imgbtn/lv_imgbtn.c ****         clip_area_center.x1 = coords.x1 + left_w;
 1125              		.loc 1 272 9 is_stmt 1 view .LVU357
 273:Drivers/lvgl/src/extra/widgets/imgbtn/lv_imgbtn.c ****         clip_area_center.x2 = coords.x2 - right_w;
 1126              		.loc 1 273 9 view .LVU358
 1127              	.LBE119:
 238:Drivers/lvgl/src/extra/widgets/imgbtn/lv_imgbtn.c **** 
 1128              		.loc 1 238 15 is_stmt 0 view .LVU359
 1129 028a 019B     		ldr	r3, [sp, #4]
 1130              	.LBB121:
 280:Drivers/lvgl/src/extra/widgets/imgbtn/lv_imgbtn.c ****         if(comm_res) {
 1131              		.loc 1 280 20 view .LVU360
 1132 028c D8F80820 		ldr	r2, [r8, #8]
 275:Drivers/lvgl/src/extra/widgets/imgbtn/lv_imgbtn.c ****         clip_area_center.y2 = coords.y2;
 1133              		.loc 1 275 29 view .LVU361
 1134 0290 ADF81A60 		strh	r6, [sp, #26]	@ movhi
 273:Drivers/lvgl/src/extra/widgets/imgbtn/lv_imgbtn.c ****         clip_area_center.x2 = coords.x2 - right_w;
ARM GAS  /var/folders/0z/tsy30v1j4xl4_7kw94k978ww0000gn/T//ccOGqK87.s 			page 36


 1135              		.loc 1 273 41 view .LVU362
 1136 0294 5D44     		add	r5, r5, fp
 1137              	.LVL108:
 274:Drivers/lvgl/src/extra/widgets/imgbtn/lv_imgbtn.c ****         clip_area_center.y1 = coords.y1;
 1138              		.loc 1 274 41 view .LVU363
 1139 0296 E41B     		subs	r4, r4, r7
 1140              	.LVL109:
 280:Drivers/lvgl/src/extra/widgets/imgbtn/lv_imgbtn.c ****         if(comm_res) {
 1141              		.loc 1 280 20 view .LVU364
 1142 0298 06A9     		add	r1, sp, #24
 1143              	.LBE121:
 238:Drivers/lvgl/src/extra/widgets/imgbtn/lv_imgbtn.c **** 
 1144              		.loc 1 238 15 view .LVU365
 1145 029a 9A44     		add	r10, r10, r3
 1146              	.LVL110:
 1147              	.LBB122:
 274:Drivers/lvgl/src/extra/widgets/imgbtn/lv_imgbtn.c ****         clip_area_center.y1 = coords.y1;
 1148              		.loc 1 274 29 view .LVU366
 1149 029c ADF81C40 		strh	r4, [sp, #28]	@ movhi
 280:Drivers/lvgl/src/extra/widgets/imgbtn/lv_imgbtn.c ****         if(comm_res) {
 1150              		.loc 1 280 20 view .LVU367
 1151 02a0 0846     		mov	r0, r1
 273:Drivers/lvgl/src/extra/widgets/imgbtn/lv_imgbtn.c ****         clip_area_center.x2 = coords.x2 - right_w;
 1152              		.loc 1 273 41 view .LVU368
 1153 02a2 2CB2     		sxth	r4, r5
 276:Drivers/lvgl/src/extra/widgets/imgbtn/lv_imgbtn.c **** 
 1154              		.loc 1 276 29 view .LVU369
 1155 02a4 ADF81EA0 		strh	r10, [sp, #30]	@ movhi
 273:Drivers/lvgl/src/extra/widgets/imgbtn/lv_imgbtn.c ****         clip_area_center.x2 = coords.x2 - right_w;
 1156              		.loc 1 273 41 view .LVU370
 1157 02a8 ADB2     		uxth	r5, r5
 273:Drivers/lvgl/src/extra/widgets/imgbtn/lv_imgbtn.c ****         clip_area_center.x2 = coords.x2 - right_w;
 1158              		.loc 1 273 29 view .LVU371
 1159 02aa ADF81840 		strh	r4, [sp, #24]	@ movhi
 274:Drivers/lvgl/src/extra/widgets/imgbtn/lv_imgbtn.c ****         clip_area_center.y1 = coords.y1;
 1160              		.loc 1 274 9 is_stmt 1 view .LVU372
 275:Drivers/lvgl/src/extra/widgets/imgbtn/lv_imgbtn.c ****         clip_area_center.y2 = coords.y2;
 1161              		.loc 1 275 9 view .LVU373
 276:Drivers/lvgl/src/extra/widgets/imgbtn/lv_imgbtn.c **** 
 1162              		.loc 1 276 9 view .LVU374
 279:Drivers/lvgl/src/extra/widgets/imgbtn/lv_imgbtn.c ****         comm_res = _lv_area_intersect(&clip_area_center, &clip_area_center, draw_ctx->clip_area);
 1163              		.loc 1 279 9 view .LVU375
 280:Drivers/lvgl/src/extra/widgets/imgbtn/lv_imgbtn.c ****         if(comm_res) {
 1164              		.loc 1 280 9 view .LVU376
 280:Drivers/lvgl/src/extra/widgets/imgbtn/lv_imgbtn.c ****         if(comm_res) {
 1165              		.loc 1 280 20 is_stmt 0 view .LVU377
 1166 02ae FFF7FEFF 		bl	_lv_area_intersect
 1167              	.LVL111:
 281:Drivers/lvgl/src/extra/widgets/imgbtn/lv_imgbtn.c ****             lv_coord_t i;
 1168              		.loc 1 281 9 is_stmt 1 view .LVU378
 281:Drivers/lvgl/src/extra/widgets/imgbtn/lv_imgbtn.c ****             lv_coord_t i;
 1169              		.loc 1 281 11 is_stmt 0 view .LVU379
 1170 02b2 0028     		cmp	r0, #0
 1171 02b4 3FF4ADAE 		beq	.L49
 1172              	.LBB120:
 282:Drivers/lvgl/src/extra/widgets/imgbtn/lv_imgbtn.c ****             lv_img_decoder_get_info(src, &header);
 1173              		.loc 1 282 13 is_stmt 1 view .LVU380
ARM GAS  /var/folders/0z/tsy30v1j4xl4_7kw94k978ww0000gn/T//ccOGqK87.s 			page 37


 283:Drivers/lvgl/src/extra/widgets/imgbtn/lv_imgbtn.c **** 
 1174              		.loc 1 283 13 view .LVU381
 1175 02b8 03A9     		add	r1, sp, #12
 1176 02ba 4846     		mov	r0, r9
 1177              	.LVL112:
 283:Drivers/lvgl/src/extra/widgets/imgbtn/lv_imgbtn.c **** 
 1178              		.loc 1 283 13 is_stmt 0 view .LVU382
 1179 02bc FFF7FEFF 		bl	lv_img_decoder_get_info
 1180              	.LVL113:
 285:Drivers/lvgl/src/extra/widgets/imgbtn/lv_imgbtn.c ****             draw_ctx->clip_area = &clip_area_center;
 1181              		.loc 1 285 13 is_stmt 1 view .LVU383
 291:Drivers/lvgl/src/extra/widgets/imgbtn/lv_imgbtn.c **** 
 1182              		.loc 1 291 53 is_stmt 0 view .LVU384
 1183 02c0 BDF80E30 		ldrh	r3, [sp, #14]
 291:Drivers/lvgl/src/extra/widgets/imgbtn/lv_imgbtn.c **** 
 1184              		.loc 1 291 56 view .LVU385
 1185 02c4 0099     		ldr	r1, [sp]
 290:Drivers/lvgl/src/extra/widgets/imgbtn/lv_imgbtn.c ****             coords_part.y2 = coords_part.y1 + header.h - 1;
 1186              		.loc 1 290 53 view .LVU386
 1187 02c6 039A     		ldr	r2, [sp, #12]
 289:Drivers/lvgl/src/extra/widgets/imgbtn/lv_imgbtn.c ****             coords_part.x2 = coords_part.x1 + header.w - 1;
 1188              		.loc 1 289 28 view .LVU387
 1189 02c8 ADF81260 		strh	r6, [sp, #18]	@ movhi
 291:Drivers/lvgl/src/extra/widgets/imgbtn/lv_imgbtn.c **** 
 1190              		.loc 1 291 53 view .LVU388
 1191 02cc C3F34A13 		ubfx	r3, r3, #5, #11
 291:Drivers/lvgl/src/extra/widgets/imgbtn/lv_imgbtn.c **** 
 1192              		.loc 1 291 56 view .LVU389
 1193 02d0 013B     		subs	r3, r3, #1
 1194 02d2 1944     		add	r1, r1, r3
 293:Drivers/lvgl/src/extra/widgets/imgbtn/lv_imgbtn.c ****                 lv_draw_img(draw_ctx, &img_dsc, &coords_part, src);
 1195              		.loc 1 293 74 view .LVU390
 1196 02d4 BDF81C30 		ldrh	r3, [sp, #28]
 288:Drivers/lvgl/src/extra/widgets/imgbtn/lv_imgbtn.c ****             coords_part.y1 = coords.y1;
 1197              		.loc 1 288 28 view .LVU391
 1198 02d8 ADF81040 		strh	r4, [sp, #16]	@ movhi
 290:Drivers/lvgl/src/extra/widgets/imgbtn/lv_imgbtn.c ****             coords_part.y2 = coords_part.y1 + header.h - 1;
 1199              		.loc 1 290 53 view .LVU392
 1200 02dc C2F38A22 		ubfx	r2, r2, #10, #11
 293:Drivers/lvgl/src/extra/widgets/imgbtn/lv_imgbtn.c ****                 lv_draw_img(draw_ctx, &img_dsc, &coords_part, src);
 1201              		.loc 1 293 74 view .LVU393
 1202 02e0 1344     		add	r3, r3, r2
 293:Drivers/lvgl/src/extra/widgets/imgbtn/lv_imgbtn.c ****                 lv_draw_img(draw_ctx, &img_dsc, &coords_part, src);
 1203              		.loc 1 293 85 view .LVU394
 1204 02e2 013B     		subs	r3, r3, #1
 290:Drivers/lvgl/src/extra/widgets/imgbtn/lv_imgbtn.c ****             coords_part.y2 = coords_part.y1 + header.h - 1;
 1205              		.loc 1 290 56 view .LVU395
 1206 02e4 013A     		subs	r2, r2, #1
 293:Drivers/lvgl/src/extra/widgets/imgbtn/lv_imgbtn.c ****                 lv_draw_img(draw_ctx, &img_dsc, &coords_part, src);
 1207              		.loc 1 293 39 view .LVU396
 1208 02e6 1BB2     		sxth	r3, r3
 290:Drivers/lvgl/src/extra/widgets/imgbtn/lv_imgbtn.c ****             coords_part.y2 = coords_part.y1 + header.h - 1;
 1209              		.loc 1 290 56 view .LVU397
 1210 02e8 1544     		add	r5, r5, r2
 293:Drivers/lvgl/src/extra/widgets/imgbtn/lv_imgbtn.c ****                 lv_draw_img(draw_ctx, &img_dsc, &coords_part, src);
 1211              		.loc 1 293 39 view .LVU398
 1212 02ea 9C42     		cmp	r4, r3
ARM GAS  /var/folders/0z/tsy30v1j4xl4_7kw94k978ww0000gn/T//ccOGqK87.s 			page 38


 286:Drivers/lvgl/src/extra/widgets/imgbtn/lv_imgbtn.c **** 
 1213              		.loc 1 286 33 view .LVU399
 1214 02ec 06AA     		add	r2, sp, #24
 290:Drivers/lvgl/src/extra/widgets/imgbtn/lv_imgbtn.c ****             coords_part.y2 = coords_part.y1 + header.h - 1;
 1215              		.loc 1 290 28 view .LVU400
 1216 02ee ADF81450 		strh	r5, [sp, #20]	@ movhi
 291:Drivers/lvgl/src/extra/widgets/imgbtn/lv_imgbtn.c **** 
 1217              		.loc 1 291 28 view .LVU401
 1218 02f2 ADF81610 		strh	r1, [sp, #22]	@ movhi
 285:Drivers/lvgl/src/extra/widgets/imgbtn/lv_imgbtn.c ****             draw_ctx->clip_area = &clip_area_center;
 1219              		.loc 1 285 31 view .LVU402
 1220 02f6 D8F80850 		ldr	r5, [r8, #8]
 1221              	.LVL114:
 286:Drivers/lvgl/src/extra/widgets/imgbtn/lv_imgbtn.c **** 
 1222              		.loc 1 286 13 is_stmt 1 view .LVU403
 286:Drivers/lvgl/src/extra/widgets/imgbtn/lv_imgbtn.c **** 
 1223              		.loc 1 286 33 is_stmt 0 view .LVU404
 1224 02fa C8F80820 		str	r2, [r8, #8]
 288:Drivers/lvgl/src/extra/widgets/imgbtn/lv_imgbtn.c ****             coords_part.y1 = coords.y1;
 1225              		.loc 1 288 13 is_stmt 1 view .LVU405
 289:Drivers/lvgl/src/extra/widgets/imgbtn/lv_imgbtn.c ****             coords_part.x2 = coords_part.x1 + header.w - 1;
 1226              		.loc 1 289 13 view .LVU406
 290:Drivers/lvgl/src/extra/widgets/imgbtn/lv_imgbtn.c ****             coords_part.y2 = coords_part.y1 + header.h - 1;
 1227              		.loc 1 290 13 view .LVU407
 291:Drivers/lvgl/src/extra/widgets/imgbtn/lv_imgbtn.c **** 
 1228              		.loc 1 291 13 view .LVU408
 293:Drivers/lvgl/src/extra/widgets/imgbtn/lv_imgbtn.c ****                 lv_draw_img(draw_ctx, &img_dsc, &coords_part, src);
 1229              		.loc 1 293 13 view .LVU409
 1230              	.LVL115:
 293:Drivers/lvgl/src/extra/widgets/imgbtn/lv_imgbtn.c ****                 lv_draw_img(draw_ctx, &img_dsc, &coords_part, src);
 1231              		.loc 1 293 39 view .LVU410
 1232 02fe 1ADA     		bge	.L66
 1233              	.L65:
 294:Drivers/lvgl/src/extra/widgets/imgbtn/lv_imgbtn.c ****                 coords_part.x1 = coords_part.x2 + 1;
 1234              		.loc 1 294 17 view .LVU411
 1235 0300 4B46     		mov	r3, r9
 1236 0302 04AA     		add	r2, sp, #16
 1237 0304 08A9     		add	r1, sp, #32
 1238 0306 4046     		mov	r0, r8
 1239 0308 FFF7FEFF 		bl	lv_draw_img
 1240              	.LVL116:
 295:Drivers/lvgl/src/extra/widgets/imgbtn/lv_imgbtn.c ****                 coords_part.x2 += header.w;
 1241              		.loc 1 295 17 view .LVU412
 296:Drivers/lvgl/src/extra/widgets/imgbtn/lv_imgbtn.c ****             }
 1242              		.loc 1 296 41 is_stmt 0 view .LVU413
 1243 030c 0399     		ldr	r1, [sp, #12]
 293:Drivers/lvgl/src/extra/widgets/imgbtn/lv_imgbtn.c ****                 lv_draw_img(draw_ctx, &img_dsc, &coords_part, src);
 1244              		.loc 1 293 74 view .LVU414
 1245 030e BDF81C20 		ldrh	r2, [sp, #28]
 295:Drivers/lvgl/src/extra/widgets/imgbtn/lv_imgbtn.c ****                 coords_part.x2 += header.w;
 1246              		.loc 1 295 45 view .LVU415
 1247 0312 BDF81430 		ldrh	r3, [sp, #20]
 296:Drivers/lvgl/src/extra/widgets/imgbtn/lv_imgbtn.c ****             }
 1248              		.loc 1 296 41 view .LVU416
 1249 0316 C1F38A21 		ubfx	r1, r1, #10, #11
 293:Drivers/lvgl/src/extra/widgets/imgbtn/lv_imgbtn.c ****                 lv_draw_img(draw_ctx, &img_dsc, &coords_part, src);
 1250              		.loc 1 293 74 view .LVU417
ARM GAS  /var/folders/0z/tsy30v1j4xl4_7kw94k978ww0000gn/T//ccOGqK87.s 			page 39


 1251 031a 0A44     		add	r2, r2, r1
 293:Drivers/lvgl/src/extra/widgets/imgbtn/lv_imgbtn.c ****                 lv_draw_img(draw_ctx, &img_dsc, &coords_part, src);
 1252              		.loc 1 293 93 view .LVU418
 1253 031c 0C44     		add	r4, r4, r1
 1254              	.LVL117:
 293:Drivers/lvgl/src/extra/widgets/imgbtn/lv_imgbtn.c ****                 lv_draw_img(draw_ctx, &img_dsc, &coords_part, src);
 1255              		.loc 1 293 85 view .LVU419
 1256 031e 013A     		subs	r2, r2, #1
 293:Drivers/lvgl/src/extra/widgets/imgbtn/lv_imgbtn.c ****                 lv_draw_img(draw_ctx, &img_dsc, &coords_part, src);
 1257              		.loc 1 293 93 view .LVU420
 1258 0320 24B2     		sxth	r4, r4
 293:Drivers/lvgl/src/extra/widgets/imgbtn/lv_imgbtn.c ****                 lv_draw_img(draw_ctx, &img_dsc, &coords_part, src);
 1259              		.loc 1 293 39 view .LVU421
 1260 0322 12B2     		sxth	r2, r2
 296:Drivers/lvgl/src/extra/widgets/imgbtn/lv_imgbtn.c ****             }
 1261              		.loc 1 296 32 view .LVU422
 1262 0324 1944     		add	r1, r1, r3
 293:Drivers/lvgl/src/extra/widgets/imgbtn/lv_imgbtn.c ****                 lv_draw_img(draw_ctx, &img_dsc, &coords_part, src);
 1263              		.loc 1 293 39 view .LVU423
 1264 0326 9442     		cmp	r4, r2
 295:Drivers/lvgl/src/extra/widgets/imgbtn/lv_imgbtn.c ****                 coords_part.x2 += header.w;
 1265              		.loc 1 295 49 view .LVU424
 1266 0328 03F10103 		add	r3, r3, #1
 296:Drivers/lvgl/src/extra/widgets/imgbtn/lv_imgbtn.c ****             }
 1267              		.loc 1 296 32 view .LVU425
 1268 032c ADF81410 		strh	r1, [sp, #20]	@ movhi
 295:Drivers/lvgl/src/extra/widgets/imgbtn/lv_imgbtn.c ****                 coords_part.x2 += header.w;
 1269              		.loc 1 295 32 view .LVU426
 1270 0330 ADF81030 		strh	r3, [sp, #16]	@ movhi
 296:Drivers/lvgl/src/extra/widgets/imgbtn/lv_imgbtn.c ****             }
 1271              		.loc 1 296 17 is_stmt 1 view .LVU427
 293:Drivers/lvgl/src/extra/widgets/imgbtn/lv_imgbtn.c ****                 lv_draw_img(draw_ctx, &img_dsc, &coords_part, src);
 1272              		.loc 1 293 93 view .LVU428
 1273              	.LVL118:
 293:Drivers/lvgl/src/extra/widgets/imgbtn/lv_imgbtn.c ****                 lv_draw_img(draw_ctx, &img_dsc, &coords_part, src);
 1274              		.loc 1 293 39 view .LVU429
 1275 0334 E4DB     		blt	.L65
 1276              	.L66:
 298:Drivers/lvgl/src/extra/widgets/imgbtn/lv_imgbtn.c ****         }
 1277              		.loc 1 298 13 view .LVU430
 298:Drivers/lvgl/src/extra/widgets/imgbtn/lv_imgbtn.c ****         }
 1278              		.loc 1 298 33 is_stmt 0 view .LVU431
 1279 0336 C8F80850 		str	r5, [r8, #8]
 1280 033a 6AE6     		b	.L49
 1281              	.L102:
 1282              		.align	2
 1283              	.L101:
 1284 033c 00000000 		.word	.LANCHOR0
 1285              	.LVL119:
 1286              	.L58:
 298:Drivers/lvgl/src/extra/widgets/imgbtn/lv_imgbtn.c ****         }
 1287              		.loc 1 298 33 view .LVU432
 1288              	.LBE120:
 1289              	.LBE122:
 1290              	.LBB123:
 1291              	.LBB100:
 376:Drivers/lvgl/src/extra/widgets/imgbtn/lv_imgbtn.c ****         if(obj_state & LV_STATE_PRESSED) return LV_IMGBTN_STATE_CHECKED_PRESSED;
ARM GAS  /var/folders/0z/tsy30v1j4xl4_7kw94k978ww0000gn/T//ccOGqK87.s 			page 40


 1292              		.loc 1 376 5 is_stmt 1 view .LVU433
 376:Drivers/lvgl/src/extra/widgets/imgbtn/lv_imgbtn.c ****         if(obj_state & LV_STATE_PRESSED) return LV_IMGBTN_STATE_CHECKED_PRESSED;
 1293              		.loc 1 376 7 is_stmt 0 view .LVU434
 1294 0340 C407     		lsls	r4, r0, #31
 1295 0342 11D5     		bpl	.L60
 377:Drivers/lvgl/src/extra/widgets/imgbtn/lv_imgbtn.c ****         else return LV_IMGBTN_STATE_CHECKED_RELEASED;
 1296              		.loc 1 377 9 is_stmt 1 view .LVU435
 378:Drivers/lvgl/src/extra/widgets/imgbtn/lv_imgbtn.c ****     }
 1297              		.loc 1 378 21 is_stmt 0 view .LVU436
 1298 0344 10F0200F 		tst	r0, #32
 1299 0348 14BF     		ite	ne
 1300 034a 0421     		movne	r1, #4
 1301 034c 0321     		moveq	r1, #3
 1302 034e 26E7     		b	.L59
 1303              	.LVL120:
 1304              	.L68:
 378:Drivers/lvgl/src/extra/widgets/imgbtn/lv_imgbtn.c ****     }
 1305              		.loc 1 378 21 view .LVU437
 1306              	.LBE100:
 1307              	.LBE123:
 1308              	.LBE96:
 1309              	.LBE95:
 1310              	.LBB126:
 1311              	.LBB92:
 1312              	.LBB88:
 376:Drivers/lvgl/src/extra/widgets/imgbtn/lv_imgbtn.c ****         if(obj_state & LV_STATE_PRESSED) return LV_IMGBTN_STATE_CHECKED_PRESSED;
 1313              		.loc 1 376 5 is_stmt 1 view .LVU438
 376:Drivers/lvgl/src/extra/widgets/imgbtn/lv_imgbtn.c ****         if(obj_state & LV_STATE_PRESSED) return LV_IMGBTN_STATE_CHECKED_PRESSED;
 1314              		.loc 1 376 7 is_stmt 0 view .LVU439
 1315 0350 C307     		lsls	r3, r0, #31
 1316 0352 0CD5     		bpl	.L70
 377:Drivers/lvgl/src/extra/widgets/imgbtn/lv_imgbtn.c ****         else return LV_IMGBTN_STATE_CHECKED_RELEASED;
 1317              		.loc 1 377 9 is_stmt 1 view .LVU440
 378:Drivers/lvgl/src/extra/widgets/imgbtn/lv_imgbtn.c ****     }
 1318              		.loc 1 378 21 is_stmt 0 view .LVU441
 1319 0354 10F0200F 		tst	r0, #32
 1320 0358 14BF     		ite	ne
 1321 035a 0421     		movne	r1, #4
 1322 035c 0321     		moveq	r1, #3
 1323 035e E3E6     		b	.L69
 1324              	.LVL121:
 1325              	.L71:
 378:Drivers/lvgl/src/extra/widgets/imgbtn/lv_imgbtn.c ****     }
 1326              		.loc 1 378 21 view .LVU442
 1327              	.LBE88:
 1328              	.LBE92:
 1329              	.LBE126:
 214:Drivers/lvgl/src/extra/widgets/imgbtn/lv_imgbtn.c ****         }
 1330              		.loc 1 214 13 is_stmt 1 view .LVU443
 1331              	.LBB127:
 1332              	.LBI79:
  93:Drivers/lvgl/src/extra/widgets/imgbtn/lv_imgbtn.c **** {
 1333              		.loc 1 93 6 view .LVU444
 1334              	.LBB82:
  95:Drivers/lvgl/src/extra/widgets/imgbtn/lv_imgbtn.c **** 
 1335              		.loc 1 95 5 view .LVU445
  95:Drivers/lvgl/src/extra/widgets/imgbtn/lv_imgbtn.c **** 
ARM GAS  /var/folders/0z/tsy30v1j4xl4_7kw94k978ww0000gn/T//ccOGqK87.s 			page 41


 1336              		.loc 1 95 5 view .LVU446
  95:Drivers/lvgl/src/extra/widgets/imgbtn/lv_imgbtn.c **** 
 1337              		.loc 1 95 5 view .LVU447
  97:Drivers/lvgl/src/extra/widgets/imgbtn/lv_imgbtn.c ****     if(state == LV_IMGBTN_STATE_PRESSED || state == LV_IMGBTN_STATE_CHECKED_PRESSED) obj_state |= L
 1338              		.loc 1 97 5 view .LVU448
  98:Drivers/lvgl/src/extra/widgets/imgbtn/lv_imgbtn.c ****     if(state == LV_IMGBTN_STATE_DISABLED || state == LV_IMGBTN_STATE_CHECKED_DISABLED) obj_state |=
 1339              		.loc 1 98 5 view .LVU449
  99:Drivers/lvgl/src/extra/widgets/imgbtn/lv_imgbtn.c ****     if(state == LV_IMGBTN_STATE_CHECKED_DISABLED || state == LV_IMGBTN_STATE_CHECKED_PRESSED ||
 1340              		.loc 1 99 5 view .LVU450
 100:Drivers/lvgl/src/extra/widgets/imgbtn/lv_imgbtn.c ****        state == LV_IMGBTN_STATE_CHECKED_RELEASED) {
 1341              		.loc 1 100 5 view .LVU451
 105:Drivers/lvgl/src/extra/widgets/imgbtn/lv_imgbtn.c ****     lv_obj_add_state(obj, obj_state);
 1342              		.loc 1 105 5 view .LVU452
 1343 0360 FFF7FEFF 		bl	lv_obj_clear_state
 1344              	.LVL122:
 106:Drivers/lvgl/src/extra/widgets/imgbtn/lv_imgbtn.c **** 
 1345              		.loc 1 106 5 view .LVU453
 1346 0364 2146     		mov	r1, r4
 1347 0366 C7E6     		b	.L99
 1348              	.LVL123:
 1349              	.L60:
 106:Drivers/lvgl/src/extra/widgets/imgbtn/lv_imgbtn.c **** 
 1350              		.loc 1 106 5 is_stmt 0 view .LVU454
 1351              	.LBE82:
 1352              	.LBE127:
 1353              	.LBB128:
 1354              	.LBB125:
 1355              	.LBB124:
 1356              	.LBB101:
 1357              		.loc 1 381 9 is_stmt 1 view .LVU455
 372:Drivers/lvgl/src/extra/widgets/imgbtn/lv_imgbtn.c ****         else return LV_IMGBTN_STATE_DISABLED;
 1358              		.loc 1 372 49 is_stmt 0 view .LVU456
 1359 0368 C0F34011 		ubfx	r1, r0, #5, #1
 1360 036c 17E7     		b	.L59
 1361              	.LVL124:
 1362              	.L70:
 372:Drivers/lvgl/src/extra/widgets/imgbtn/lv_imgbtn.c ****         else return LV_IMGBTN_STATE_DISABLED;
 1363              		.loc 1 372 49 view .LVU457
 1364              	.LBE101:
 1365              	.LBE124:
 1366              	.LBE125:
 1367              	.LBE128:
 1368              	.LBB129:
 1369              	.LBB93:
 1370              	.LBB89:
 1371              		.loc 1 381 9 is_stmt 1 view .LVU458
 372:Drivers/lvgl/src/extra/widgets/imgbtn/lv_imgbtn.c ****         else return LV_IMGBTN_STATE_DISABLED;
 1372              		.loc 1 372 49 is_stmt 0 view .LVU459
 1373 036e C0F34011 		ubfx	r1, r0, #5, #1
 1374 0372 D9E6     		b	.L69
 1375              	.LBE89:
 1376              	.LBE93:
 1377              	.LBE129:
 1378              	.LBE130:
 1379              	.LBE131:
 1380              		.cfi_endproc
 1381              	.LFE211:
ARM GAS  /var/folders/0z/tsy30v1j4xl4_7kw94k978ww0000gn/T//ccOGqK87.s 			page 42


 1383              		.section	.text.lv_imgbtn_create,"ax",%progbits
 1384              		.align	1
 1385              		.p2align 2,,3
 1386              		.global	lv_imgbtn_create
 1387              		.syntax unified
 1388              		.thumb
 1389              		.thumb_func
 1391              	lv_imgbtn_create:
 1392              	.LVL125:
 1393              	.LFB204:
  57:Drivers/lvgl/src/extra/widgets/imgbtn/lv_imgbtn.c ****     LV_LOG_INFO("begin");
 1394              		.loc 1 57 1 is_stmt 1 view -0
 1395              		.cfi_startproc
 1396              		@ args = 0, pretend = 0, frame = 0
 1397              		@ frame_needed = 0, uses_anonymous_args = 0
  58:Drivers/lvgl/src/extra/widgets/imgbtn/lv_imgbtn.c ****     lv_obj_t * obj = lv_obj_class_create_obj(MY_CLASS, parent);
 1398              		.loc 1 58 5 view .LVU461
  58:Drivers/lvgl/src/extra/widgets/imgbtn/lv_imgbtn.c ****     lv_obj_t * obj = lv_obj_class_create_obj(MY_CLASS, parent);
 1399              		.loc 1 58 5 view .LVU462
  58:Drivers/lvgl/src/extra/widgets/imgbtn/lv_imgbtn.c ****     lv_obj_t * obj = lv_obj_class_create_obj(MY_CLASS, parent);
 1400              		.loc 1 58 5 view .LVU463
  59:Drivers/lvgl/src/extra/widgets/imgbtn/lv_imgbtn.c ****     lv_obj_class_init_obj(obj);
 1401              		.loc 1 59 5 view .LVU464
  57:Drivers/lvgl/src/extra/widgets/imgbtn/lv_imgbtn.c ****     LV_LOG_INFO("begin");
 1402              		.loc 1 57 1 is_stmt 0 view .LVU465
 1403 0000 10B5     		push	{r4, lr}
 1404              		.cfi_def_cfa_offset 8
 1405              		.cfi_offset 4, -8
 1406              		.cfi_offset 14, -4
  57:Drivers/lvgl/src/extra/widgets/imgbtn/lv_imgbtn.c ****     LV_LOG_INFO("begin");
 1407              		.loc 1 57 1 view .LVU466
 1408 0002 0146     		mov	r1, r0
  59:Drivers/lvgl/src/extra/widgets/imgbtn/lv_imgbtn.c ****     lv_obj_class_init_obj(obj);
 1409              		.loc 1 59 22 view .LVU467
 1410 0004 0348     		ldr	r0, .L105
 1411              	.LVL126:
  59:Drivers/lvgl/src/extra/widgets/imgbtn/lv_imgbtn.c ****     lv_obj_class_init_obj(obj);
 1412              		.loc 1 59 22 view .LVU468
 1413 0006 FFF7FEFF 		bl	lv_obj_class_create_obj
 1414              	.LVL127:
  59:Drivers/lvgl/src/extra/widgets/imgbtn/lv_imgbtn.c ****     lv_obj_class_init_obj(obj);
 1415              		.loc 1 59 22 view .LVU469
 1416 000a 0446     		mov	r4, r0
 1417              	.LVL128:
  60:Drivers/lvgl/src/extra/widgets/imgbtn/lv_imgbtn.c ****     return obj;
 1418              		.loc 1 60 5 is_stmt 1 view .LVU470
 1419 000c FFF7FEFF 		bl	lv_obj_class_init_obj
 1420              	.LVL129:
  61:Drivers/lvgl/src/extra/widgets/imgbtn/lv_imgbtn.c **** }
 1421              		.loc 1 61 5 view .LVU471
  62:Drivers/lvgl/src/extra/widgets/imgbtn/lv_imgbtn.c **** 
 1422              		.loc 1 62 1 is_stmt 0 view .LVU472
 1423 0010 2046     		mov	r0, r4
 1424 0012 10BD     		pop	{r4, pc}
 1425              	.LVL130:
 1426              	.L106:
  62:Drivers/lvgl/src/extra/widgets/imgbtn/lv_imgbtn.c **** 
ARM GAS  /var/folders/0z/tsy30v1j4xl4_7kw94k978ww0000gn/T//ccOGqK87.s 			page 43


 1427              		.loc 1 62 1 view .LVU473
 1428              		.align	2
 1429              	.L105:
 1430 0014 00000000 		.word	.LANCHOR0
 1431              		.cfi_endproc
 1432              	.LFE204:
 1434              		.section	.text.lv_imgbtn_set_src,"ax",%progbits
 1435              		.align	1
 1436              		.p2align 2,,3
 1437              		.global	lv_imgbtn_set_src
 1438              		.syntax unified
 1439              		.thumb
 1440              		.thumb_func
 1442              	lv_imgbtn_set_src:
 1443              	.LVL131:
 1444              	.LFB205:
  81:Drivers/lvgl/src/extra/widgets/imgbtn/lv_imgbtn.c ****     LV_ASSERT_OBJ(obj, MY_CLASS);
 1445              		.loc 1 81 1 is_stmt 1 view -0
 1446              		.cfi_startproc
 1447              		@ args = 4, pretend = 0, frame = 8
 1448              		@ frame_needed = 0, uses_anonymous_args = 0
  82:Drivers/lvgl/src/extra/widgets/imgbtn/lv_imgbtn.c **** 
 1449              		.loc 1 82 5 view .LVU475
  82:Drivers/lvgl/src/extra/widgets/imgbtn/lv_imgbtn.c **** 
 1450              		.loc 1 82 5 view .LVU476
  82:Drivers/lvgl/src/extra/widgets/imgbtn/lv_imgbtn.c **** 
 1451              		.loc 1 82 5 view .LVU477
  84:Drivers/lvgl/src/extra/widgets/imgbtn/lv_imgbtn.c **** 
 1452              		.loc 1 84 5 view .LVU478
  81:Drivers/lvgl/src/extra/widgets/imgbtn/lv_imgbtn.c ****     LV_ASSERT_OBJ(obj, MY_CLASS);
 1453              		.loc 1 81 1 is_stmt 0 view .LVU479
 1454 0000 10B5     		push	{r4, lr}
 1455              		.cfi_def_cfa_offset 8
 1456              		.cfi_offset 4, -8
 1457              		.cfi_offset 14, -4
 1458 0002 00EB8101 		add	r1, r0, r1, lsl #2
 1459              	.LVL132:
  81:Drivers/lvgl/src/extra/widgets/imgbtn/lv_imgbtn.c ****     LV_ASSERT_OBJ(obj, MY_CLASS);
 1460              		.loc 1 81 1 view .LVU480
 1461 0006 82B0     		sub	sp, sp, #8
 1462              		.cfi_def_cfa_offset 16
  87:Drivers/lvgl/src/extra/widgets/imgbtn/lv_imgbtn.c ****     imgbtn->img_src_right[state] = src_right;
 1463              		.loc 1 87 32 view .LVU481
 1464 0008 4B62     		str	r3, [r1, #36]
  81:Drivers/lvgl/src/extra/widgets/imgbtn/lv_imgbtn.c ****     LV_ASSERT_OBJ(obj, MY_CLASS);
 1465              		.loc 1 81 1 view .LVU482
 1466 000a 049B     		ldr	r3, [sp, #16]
 1467              	.LVL133:
  88:Drivers/lvgl/src/extra/widgets/imgbtn/lv_imgbtn.c **** 
 1468              		.loc 1 88 34 view .LVU483
 1469 000c 4B65     		str	r3, [r1, #84]
  86:Drivers/lvgl/src/extra/widgets/imgbtn/lv_imgbtn.c ****     imgbtn->img_src_mid[state] = src_mid;
 1470              		.loc 1 86 33 view .LVU484
 1471 000e CA63     		str	r2, [r1, #60]
  81:Drivers/lvgl/src/extra/widgets/imgbtn/lv_imgbtn.c ****     LV_ASSERT_OBJ(obj, MY_CLASS);
 1472              		.loc 1 81 1 view .LVU485
 1473 0010 0446     		mov	r4, r0
ARM GAS  /var/folders/0z/tsy30v1j4xl4_7kw94k978ww0000gn/T//ccOGqK87.s 			page 44


 1474              	.LVL134:
  86:Drivers/lvgl/src/extra/widgets/imgbtn/lv_imgbtn.c ****     imgbtn->img_src_mid[state] = src_mid;
 1475              		.loc 1 86 5 is_stmt 1 view .LVU486
  87:Drivers/lvgl/src/extra/widgets/imgbtn/lv_imgbtn.c ****     imgbtn->img_src_right[state] = src_right;
 1476              		.loc 1 87 5 view .LVU487
  88:Drivers/lvgl/src/extra/widgets/imgbtn/lv_imgbtn.c **** 
 1477              		.loc 1 88 5 view .LVU488
  90:Drivers/lvgl/src/extra/widgets/imgbtn/lv_imgbtn.c **** }
 1478              		.loc 1 90 5 view .LVU489
 1479              	.LBB140:
 1480              	.LBI140:
 303:Drivers/lvgl/src/extra/widgets/imgbtn/lv_imgbtn.c **** {
 1481              		.loc 1 303 13 view .LVU490
 1482              	.LBB141:
 305:Drivers/lvgl/src/extra/widgets/imgbtn/lv_imgbtn.c ****     lv_imgbtn_state_t state  = suggest_state(obj, get_state(obj));
 1483              		.loc 1 305 5 view .LVU491
 306:Drivers/lvgl/src/extra/widgets/imgbtn/lv_imgbtn.c ****     lv_img_header_t header;
 1484              		.loc 1 306 5 view .LVU492
 1485              	.LBB142:
 1486              	.LBI142:
 365:Drivers/lvgl/src/extra/widgets/imgbtn/lv_imgbtn.c **** {
 1487              		.loc 1 365 19 view .LVU493
 1488              	.LBB143:
 367:Drivers/lvgl/src/extra/widgets/imgbtn/lv_imgbtn.c **** 
 1489              		.loc 1 367 5 view .LVU494
 367:Drivers/lvgl/src/extra/widgets/imgbtn/lv_imgbtn.c **** 
 1490              		.loc 1 367 5 view .LVU495
 367:Drivers/lvgl/src/extra/widgets/imgbtn/lv_imgbtn.c **** 
 1491              		.loc 1 367 5 view .LVU496
 369:Drivers/lvgl/src/extra/widgets/imgbtn/lv_imgbtn.c **** 
 1492              		.loc 1 369 5 view .LVU497
 369:Drivers/lvgl/src/extra/widgets/imgbtn/lv_imgbtn.c **** 
 1493              		.loc 1 369 28 is_stmt 0 view .LVU498
 1494 0012 FFF7FEFF 		bl	lv_obj_get_state
 1495              	.LVL135:
 371:Drivers/lvgl/src/extra/widgets/imgbtn/lv_imgbtn.c ****         if(obj_state & LV_STATE_CHECKED) return LV_IMGBTN_STATE_CHECKED_DISABLED;
 1496              		.loc 1 371 5 is_stmt 1 view .LVU499
 371:Drivers/lvgl/src/extra/widgets/imgbtn/lv_imgbtn.c ****         if(obj_state & LV_STATE_CHECKED) return LV_IMGBTN_STATE_CHECKED_DISABLED;
 1497              		.loc 1 371 7 is_stmt 0 view .LVU500
 1498 0016 0306     		lsls	r3, r0, #24
 1499 0018 10D5     		bpl	.L108
 372:Drivers/lvgl/src/extra/widgets/imgbtn/lv_imgbtn.c ****         else return LV_IMGBTN_STATE_DISABLED;
 1500              		.loc 1 372 9 is_stmt 1 view .LVU501
 372:Drivers/lvgl/src/extra/widgets/imgbtn/lv_imgbtn.c ****         else return LV_IMGBTN_STATE_DISABLED;
 1501              		.loc 1 372 11 is_stmt 0 view .LVU502
 1502 001a C107     		lsls	r1, r0, #31
 1503 001c 2AD5     		bpl	.L109
 1504              	.LVL136:
 372:Drivers/lvgl/src/extra/widgets/imgbtn/lv_imgbtn.c ****         else return LV_IMGBTN_STATE_DISABLED;
 1505              		.loc 1 372 11 view .LVU503
 1506              	.LBE143:
 1507              	.LBE142:
 1508              	.LBB147:
 1509              	.LBI147:
 334:Drivers/lvgl/src/extra/widgets/imgbtn/lv_imgbtn.c **** {
 1510              		.loc 1 334 26 is_stmt 1 view .LVU504
 1511              	.LBB148:
ARM GAS  /var/folders/0z/tsy30v1j4xl4_7kw94k978ww0000gn/T//ccOGqK87.s 			page 45


 336:Drivers/lvgl/src/extra/widgets/imgbtn/lv_imgbtn.c ****     if(imgbtn->img_src_mid[state] == NULL) {
 1512              		.loc 1 336 5 view .LVU505
 337:Drivers/lvgl/src/extra/widgets/imgbtn/lv_imgbtn.c ****         switch(state) {
 1513              		.loc 1 337 5 view .LVU506
 337:Drivers/lvgl/src/extra/widgets/imgbtn/lv_imgbtn.c ****         switch(state) {
 1514              		.loc 1 337 27 is_stmt 0 view .LVU507
 1515 001e A06B     		ldr	r0, [r4, #56]
 337:Drivers/lvgl/src/extra/widgets/imgbtn/lv_imgbtn.c ****         switch(state) {
 1516              		.loc 1 337 7 view .LVU508
 1517 0020 80B1     		cbz	r0, .L110
 1518              	.LVL137:
 1519              	.L123:
 337:Drivers/lvgl/src/extra/widgets/imgbtn/lv_imgbtn.c ****         switch(state) {
 1520              		.loc 1 337 7 view .LVU509
 1521              	.LBE148:
 1522              	.LBE147:
 312:Drivers/lvgl/src/extra/widgets/imgbtn/lv_imgbtn.c ****     info_res = lv_img_decoder_get_info(src, &header);
 1523              		.loc 1 312 5 is_stmt 1 view .LVU510
 313:Drivers/lvgl/src/extra/widgets/imgbtn/lv_imgbtn.c **** 
 1524              		.loc 1 313 5 view .LVU511
 313:Drivers/lvgl/src/extra/widgets/imgbtn/lv_imgbtn.c **** 
 1525              		.loc 1 313 16 is_stmt 0 view .LVU512
 1526 0022 01A9     		add	r1, sp, #4
 1527 0024 FFF7FEFF 		bl	lv_img_decoder_get_info
 1528              	.LVL138:
 315:Drivers/lvgl/src/extra/widgets/imgbtn/lv_imgbtn.c ****         imgbtn->act_cf = header.cf;
 1529              		.loc 1 315 5 is_stmt 1 view .LVU513
 315:Drivers/lvgl/src/extra/widgets/imgbtn/lv_imgbtn.c ****         imgbtn->act_cf = header.cf;
 1530              		.loc 1 315 7 is_stmt 0 view .LVU514
 1531 0028 0128     		cmp	r0, #1
 1532 002a 3BD0     		beq	.L133
 321:Drivers/lvgl/src/extra/widgets/imgbtn/lv_imgbtn.c ****     }
 1533              		.loc 1 321 9 is_stmt 1 view .LVU515
 321:Drivers/lvgl/src/extra/widgets/imgbtn/lv_imgbtn.c ****     }
 1534              		.loc 1 321 24 is_stmt 0 view .LVU516
 1535 002c 0023     		movs	r3, #0
 1536 002e 84F86C30 		strb	r3, [r4, #108]
 1537              	.LVL139:
 1538              	.L122:
 324:Drivers/lvgl/src/extra/widgets/imgbtn/lv_imgbtn.c **** }
 1539              		.loc 1 324 5 is_stmt 1 view .LVU517
 1540 0032 2046     		mov	r0, r4
 1541 0034 FFF7FEFF 		bl	lv_obj_invalidate
 1542              	.LVL140:
 1543              	.L107:
 324:Drivers/lvgl/src/extra/widgets/imgbtn/lv_imgbtn.c **** }
 1544              		.loc 1 324 5 is_stmt 0 view .LVU518
 1545              	.LBE141:
 1546              	.LBE140:
  91:Drivers/lvgl/src/extra/widgets/imgbtn/lv_imgbtn.c **** 
 1547              		.loc 1 91 1 view .LVU519
 1548 0038 02B0     		add	sp, sp, #8
 1549              		.cfi_remember_state
 1550              		.cfi_def_cfa_offset 8
 1551              		@ sp needed
 1552 003a 10BD     		pop	{r4, pc}
 1553              	.LVL141:
ARM GAS  /var/folders/0z/tsy30v1j4xl4_7kw94k978ww0000gn/T//ccOGqK87.s 			page 46


 1554              	.L108:
 1555              		.cfi_restore_state
 1556              	.LBB169:
 1557              	.LBB167:
 1558              	.LBB159:
 1559              	.LBB144:
 376:Drivers/lvgl/src/extra/widgets/imgbtn/lv_imgbtn.c ****         if(obj_state & LV_STATE_PRESSED) return LV_IMGBTN_STATE_CHECKED_PRESSED;
 1560              		.loc 1 376 5 is_stmt 1 view .LVU520
 376:Drivers/lvgl/src/extra/widgets/imgbtn/lv_imgbtn.c ****         if(obj_state & LV_STATE_PRESSED) return LV_IMGBTN_STATE_CHECKED_PRESSED;
 1561              		.loc 1 376 7 is_stmt 0 view .LVU521
 1562 003c C207     		lsls	r2, r0, #31
 1563 003e 08D5     		bpl	.L112
 377:Drivers/lvgl/src/extra/widgets/imgbtn/lv_imgbtn.c ****         else return LV_IMGBTN_STATE_CHECKED_RELEASED;
 1564              		.loc 1 377 9 is_stmt 1 view .LVU522
 377:Drivers/lvgl/src/extra/widgets/imgbtn/lv_imgbtn.c ****         else return LV_IMGBTN_STATE_CHECKED_RELEASED;
 1565              		.loc 1 377 11 is_stmt 0 view .LVU523
 1566 0040 8306     		lsls	r3, r0, #26
 1567 0042 20D4     		bmi	.L113
 1568              	.LVL142:
 1569              	.L110:
 377:Drivers/lvgl/src/extra/widgets/imgbtn/lv_imgbtn.c ****         else return LV_IMGBTN_STATE_CHECKED_RELEASED;
 1570              		.loc 1 377 11 view .LVU524
 1571              	.LBE144:
 1572              	.LBE159:
 1573              	.LBB160:
 1574              	.LBB153:
 338:Drivers/lvgl/src/extra/widgets/imgbtn/lv_imgbtn.c ****             case LV_IMGBTN_STATE_PRESSED:
 1575              		.loc 1 338 9 is_stmt 1 view .LVU525
 354:Drivers/lvgl/src/extra/widgets/imgbtn/lv_imgbtn.c ****                 if(imgbtn->img_src_mid[LV_IMGBTN_STATE_RELEASED]) return LV_IMGBTN_STATE_RELEASED;
 1576              		.loc 1 354 17 view .LVU526
 354:Drivers/lvgl/src/extra/widgets/imgbtn/lv_imgbtn.c ****                 if(imgbtn->img_src_mid[LV_IMGBTN_STATE_RELEASED]) return LV_IMGBTN_STATE_RELEASED;
 1577              		.loc 1 354 39 is_stmt 0 view .LVU527
 1578 0044 206B     		ldr	r0, [r4, #48]
 354:Drivers/lvgl/src/extra/widgets/imgbtn/lv_imgbtn.c ****                 if(imgbtn->img_src_mid[LV_IMGBTN_STATE_RELEASED]) return LV_IMGBTN_STATE_RELEASED;
 1579              		.loc 1 354 19 view .LVU528
 1580 0046 0028     		cmp	r0, #0
 1581 0048 EBD1     		bne	.L123
 355:Drivers/lvgl/src/extra/widgets/imgbtn/lv_imgbtn.c ****                 break;
 1582              		.loc 1 355 17 is_stmt 1 view .LVU529
 355:Drivers/lvgl/src/extra/widgets/imgbtn/lv_imgbtn.c ****                 break;
 1583              		.loc 1 355 39 is_stmt 0 view .LVU530
 1584 004a 606A     		ldr	r0, [r4, #36]
 355:Drivers/lvgl/src/extra/widgets/imgbtn/lv_imgbtn.c ****                 break;
 1585              		.loc 1 355 19 view .LVU531
 1586 004c 0028     		cmp	r0, #0
 1587 004e E8D1     		bne	.L123
 1588 0050 F2E7     		b	.L107
 1589              	.LVL143:
 1590              	.L112:
 355:Drivers/lvgl/src/extra/widgets/imgbtn/lv_imgbtn.c ****                 break;
 1591              		.loc 1 355 19 view .LVU532
 1592              	.LBE153:
 1593              	.LBE160:
 1594              	.LBB161:
 1595              	.LBB145:
 1596              		.loc 1 381 9 is_stmt 1 view .LVU533
 1597              		.loc 1 381 11 is_stmt 0 view .LVU534
ARM GAS  /var/folders/0z/tsy30v1j4xl4_7kw94k978ww0000gn/T//ccOGqK87.s 			page 47


 1598 0052 10F02003 		ands	r3, r0, #32
 1599 0056 06D0     		beq	.L115
 1600              	.LVL144:
 1601              		.loc 1 381 11 view .LVU535
 1602              	.LBE145:
 1603              	.LBE161:
 1604              	.LBB162:
 334:Drivers/lvgl/src/extra/widgets/imgbtn/lv_imgbtn.c **** {
 1605              		.loc 1 334 26 is_stmt 1 view .LVU536
 1606              	.LBB154:
 336:Drivers/lvgl/src/extra/widgets/imgbtn/lv_imgbtn.c ****     if(imgbtn->img_src_mid[state] == NULL) {
 1607              		.loc 1 336 5 view .LVU537
 337:Drivers/lvgl/src/extra/widgets/imgbtn/lv_imgbtn.c ****         switch(state) {
 1608              		.loc 1 337 5 view .LVU538
 337:Drivers/lvgl/src/extra/widgets/imgbtn/lv_imgbtn.c ****         switch(state) {
 1609              		.loc 1 337 27 is_stmt 0 view .LVU539
 1610 0058 A06A     		ldr	r0, [r4, #40]
 337:Drivers/lvgl/src/extra/widgets/imgbtn/lv_imgbtn.c ****         switch(state) {
 1611              		.loc 1 337 7 view .LVU540
 1612 005a 0028     		cmp	r0, #0
 1613 005c E1D1     		bne	.L123
 338:Drivers/lvgl/src/extra/widgets/imgbtn/lv_imgbtn.c ****             case LV_IMGBTN_STATE_PRESSED:
 1614              		.loc 1 338 9 is_stmt 1 view .LVU541
 340:Drivers/lvgl/src/extra/widgets/imgbtn/lv_imgbtn.c ****                 break;
 1615              		.loc 1 340 17 view .LVU542
 340:Drivers/lvgl/src/extra/widgets/imgbtn/lv_imgbtn.c ****                 break;
 1616              		.loc 1 340 19 is_stmt 0 view .LVU543
 1617 005e 636A     		ldr	r3, [r4, #36]
 1618 0060 B3FA83F3 		clz	r3, r3
 1619 0064 5B09     		lsrs	r3, r3, #5
 1620              	.LVL145:
 1621              	.L115:
 340:Drivers/lvgl/src/extra/widgets/imgbtn/lv_imgbtn.c ****                 break;
 1622              		.loc 1 340 19 view .LVU544
 1623              	.LBE154:
 1624              	.LBE162:
 307:Drivers/lvgl/src/extra/widgets/imgbtn/lv_imgbtn.c **** 
 1625              		.loc 1 307 5 is_stmt 1 view .LVU545
 309:Drivers/lvgl/src/extra/widgets/imgbtn/lv_imgbtn.c ****     if(src == NULL) return;
 1626              		.loc 1 309 5 view .LVU546
 309:Drivers/lvgl/src/extra/widgets/imgbtn/lv_imgbtn.c ****     if(src == NULL) return;
 1627              		.loc 1 309 18 is_stmt 0 view .LVU547
 1628 0066 04EB8303 		add	r3, r4, r3, lsl #2
 1629 006a 586A     		ldr	r0, [r3, #36]
 1630              	.LVL146:
 310:Drivers/lvgl/src/extra/widgets/imgbtn/lv_imgbtn.c **** 
 1631              		.loc 1 310 5 is_stmt 1 view .LVU548
 310:Drivers/lvgl/src/extra/widgets/imgbtn/lv_imgbtn.c **** 
 1632              		.loc 1 310 7 is_stmt 0 view .LVU549
 1633 006c 0028     		cmp	r0, #0
 1634 006e D8D1     		bne	.L123
 1635              	.LBE167:
 1636              	.LBE169:
  91:Drivers/lvgl/src/extra/widgets/imgbtn/lv_imgbtn.c **** 
 1637              		.loc 1 91 1 view .LVU550
 1638 0070 02B0     		add	sp, sp, #8
 1639              		.cfi_remember_state
ARM GAS  /var/folders/0z/tsy30v1j4xl4_7kw94k978ww0000gn/T//ccOGqK87.s 			page 48


 1640              		.cfi_def_cfa_offset 8
 1641              		@ sp needed
 1642 0072 10BD     		pop	{r4, pc}
 1643              	.LVL147:
 1644              	.L109:
 1645              		.cfi_restore_state
 1646              	.LBB170:
 1647              	.LBB168:
 1648              	.LBB163:
 1649              	.LBB146:
 373:Drivers/lvgl/src/extra/widgets/imgbtn/lv_imgbtn.c ****     }
 1650              		.loc 1 373 14 is_stmt 1 view .LVU551
 373:Drivers/lvgl/src/extra/widgets/imgbtn/lv_imgbtn.c ****     }
 1651              		.loc 1 373 14 is_stmt 0 view .LVU552
 1652              	.LBE146:
 1653              	.LBE163:
 1654              	.LBB164:
 334:Drivers/lvgl/src/extra/widgets/imgbtn/lv_imgbtn.c **** {
 1655              		.loc 1 334 26 is_stmt 1 view .LVU553
 1656              	.LBB155:
 336:Drivers/lvgl/src/extra/widgets/imgbtn/lv_imgbtn.c ****     if(imgbtn->img_src_mid[state] == NULL) {
 1657              		.loc 1 336 5 view .LVU554
 337:Drivers/lvgl/src/extra/widgets/imgbtn/lv_imgbtn.c ****         switch(state) {
 1658              		.loc 1 337 5 view .LVU555
 337:Drivers/lvgl/src/extra/widgets/imgbtn/lv_imgbtn.c ****         switch(state) {
 1659              		.loc 1 337 27 is_stmt 0 view .LVU556
 1660 0074 E06A     		ldr	r0, [r4, #44]
 337:Drivers/lvgl/src/extra/widgets/imgbtn/lv_imgbtn.c ****         switch(state) {
 1661              		.loc 1 337 7 view .LVU557
 1662 0076 0028     		cmp	r0, #0
 1663 0078 D3D1     		bne	.L123
 338:Drivers/lvgl/src/extra/widgets/imgbtn/lv_imgbtn.c ****             case LV_IMGBTN_STATE_PRESSED:
 1664              		.loc 1 338 9 is_stmt 1 view .LVU558
 351:Drivers/lvgl/src/extra/widgets/imgbtn/lv_imgbtn.c ****                 break;
 1665              		.loc 1 351 17 view .LVU559
 351:Drivers/lvgl/src/extra/widgets/imgbtn/lv_imgbtn.c ****                 break;
 1666              		.loc 1 351 19 is_stmt 0 view .LVU560
 1667 007a 636A     		ldr	r3, [r4, #36]
 1668 007c B3FA83F3 		clz	r3, r3
 1669 0080 5B09     		lsrs	r3, r3, #5
 1670              	.LBE155:
 1671              	.LBE164:
 309:Drivers/lvgl/src/extra/widgets/imgbtn/lv_imgbtn.c ****     if(src == NULL) return;
 1672              		.loc 1 309 43 view .LVU561
 1673 0082 5B00     		lsls	r3, r3, #1
 1674              	.LBB165:
 1675              	.LBB156:
 1676 0084 EFE7     		b	.L115
 1677              	.LVL148:
 1678              	.L113:
 309:Drivers/lvgl/src/extra/widgets/imgbtn/lv_imgbtn.c ****     if(src == NULL) return;
 1679              		.loc 1 309 43 view .LVU562
 1680              	.LBE156:
 334:Drivers/lvgl/src/extra/widgets/imgbtn/lv_imgbtn.c **** {
 1681              		.loc 1 334 26 is_stmt 1 view .LVU563
 1682              	.LBB157:
 336:Drivers/lvgl/src/extra/widgets/imgbtn/lv_imgbtn.c ****     if(imgbtn->img_src_mid[state] == NULL) {
ARM GAS  /var/folders/0z/tsy30v1j4xl4_7kw94k978ww0000gn/T//ccOGqK87.s 			page 49


 1683              		.loc 1 336 5 view .LVU564
 337:Drivers/lvgl/src/extra/widgets/imgbtn/lv_imgbtn.c ****         switch(state) {
 1684              		.loc 1 337 5 view .LVU565
 337:Drivers/lvgl/src/extra/widgets/imgbtn/lv_imgbtn.c ****         switch(state) {
 1685              		.loc 1 337 27 is_stmt 0 view .LVU566
 1686 0086 606B     		ldr	r0, [r4, #52]
 337:Drivers/lvgl/src/extra/widgets/imgbtn/lv_imgbtn.c ****         switch(state) {
 1687              		.loc 1 337 7 view .LVU567
 1688 0088 0028     		cmp	r0, #0
 1689 008a CAD1     		bne	.L123
 338:Drivers/lvgl/src/extra/widgets/imgbtn/lv_imgbtn.c ****             case LV_IMGBTN_STATE_PRESSED:
 1690              		.loc 1 338 9 is_stmt 1 view .LVU568
 346:Drivers/lvgl/src/extra/widgets/imgbtn/lv_imgbtn.c ****                 if(imgbtn->img_src_mid[LV_IMGBTN_STATE_PRESSED]) return LV_IMGBTN_STATE_PRESSED;
 1691              		.loc 1 346 17 view .LVU569
 346:Drivers/lvgl/src/extra/widgets/imgbtn/lv_imgbtn.c ****                 if(imgbtn->img_src_mid[LV_IMGBTN_STATE_PRESSED]) return LV_IMGBTN_STATE_PRESSED;
 1692              		.loc 1 346 39 is_stmt 0 view .LVU570
 1693 008c 206B     		ldr	r0, [r4, #48]
 346:Drivers/lvgl/src/extra/widgets/imgbtn/lv_imgbtn.c ****                 if(imgbtn->img_src_mid[LV_IMGBTN_STATE_PRESSED]) return LV_IMGBTN_STATE_PRESSED;
 1694              		.loc 1 346 19 view .LVU571
 1695 008e 0028     		cmp	r0, #0
 1696 0090 C7D1     		bne	.L123
 1697              	.LVL149:
 1698              	.LBB149:
 1699              	.LBI149:
 334:Drivers/lvgl/src/extra/widgets/imgbtn/lv_imgbtn.c **** {
 1700              		.loc 1 334 26 is_stmt 1 view .LVU572
 1701              	.LBB150:
 347:Drivers/lvgl/src/extra/widgets/imgbtn/lv_imgbtn.c ****                 if(imgbtn->img_src_mid[LV_IMGBTN_STATE_RELEASED]) return LV_IMGBTN_STATE_RELEASED;
 1702              		.loc 1 347 17 view .LVU573
 347:Drivers/lvgl/src/extra/widgets/imgbtn/lv_imgbtn.c ****                 if(imgbtn->img_src_mid[LV_IMGBTN_STATE_RELEASED]) return LV_IMGBTN_STATE_RELEASED;
 1703              		.loc 1 347 39 is_stmt 0 view .LVU574
 1704 0092 A06A     		ldr	r0, [r4, #40]
 347:Drivers/lvgl/src/extra/widgets/imgbtn/lv_imgbtn.c ****                 if(imgbtn->img_src_mid[LV_IMGBTN_STATE_RELEASED]) return LV_IMGBTN_STATE_RELEASED;
 1705              		.loc 1 347 19 view .LVU575
 1706 0094 0028     		cmp	r0, #0
 1707 0096 C4D1     		bne	.L123
 348:Drivers/lvgl/src/extra/widgets/imgbtn/lv_imgbtn.c ****                 break;
 1708              		.loc 1 348 17 is_stmt 1 view .LVU576
 348:Drivers/lvgl/src/extra/widgets/imgbtn/lv_imgbtn.c ****                 break;
 1709              		.loc 1 348 19 is_stmt 0 view .LVU577
 1710 0098 636A     		ldr	r3, [r4, #36]
 1711 009a B3FA83F3 		clz	r3, r3
 1712 009e 5B09     		lsrs	r3, r3, #5
 1713              	.LBE150:
 1714              	.LBE149:
 1715              	.LBE157:
 1716              	.LBE165:
 309:Drivers/lvgl/src/extra/widgets/imgbtn/lv_imgbtn.c ****     if(src == NULL) return;
 1717              		.loc 1 309 43 view .LVU578
 1718 00a0 9B00     		lsls	r3, r3, #2
 1719              	.LBB166:
 1720              	.LBB158:
 1721              	.LBB152:
 1722              	.LBB151:
 1723 00a2 E0E7     		b	.L115
 1724              	.LVL150:
 1725              	.L133:
ARM GAS  /var/folders/0z/tsy30v1j4xl4_7kw94k978ww0000gn/T//ccOGqK87.s 			page 50


 309:Drivers/lvgl/src/extra/widgets/imgbtn/lv_imgbtn.c ****     if(src == NULL) return;
 1726              		.loc 1 309 43 view .LVU579
 1727              	.LBE151:
 1728              	.LBE152:
 1729              	.LBE158:
 1730              	.LBE166:
 316:Drivers/lvgl/src/extra/widgets/imgbtn/lv_imgbtn.c ****         lv_obj_refresh_self_size(obj);
 1731              		.loc 1 316 9 is_stmt 1 view .LVU580
 316:Drivers/lvgl/src/extra/widgets/imgbtn/lv_imgbtn.c ****         lv_obj_refresh_self_size(obj);
 1732              		.loc 1 316 32 is_stmt 0 view .LVU581
 1733 00a4 9DF80430 		ldrb	r3, [sp, #4]	@ zero_extendqisi2
 1734 00a8 C3F30403 		ubfx	r3, r3, #0, #5
 317:Drivers/lvgl/src/extra/widgets/imgbtn/lv_imgbtn.c ****         lv_obj_set_height(obj, header.h); /*Keep the user defined width*/
 1735              		.loc 1 317 9 view .LVU582
 1736 00ac 2046     		mov	r0, r4
 1737              	.LVL151:
 316:Drivers/lvgl/src/extra/widgets/imgbtn/lv_imgbtn.c ****         lv_obj_refresh_self_size(obj);
 1738              		.loc 1 316 24 view .LVU583
 1739 00ae 84F86C30 		strb	r3, [r4, #108]
 317:Drivers/lvgl/src/extra/widgets/imgbtn/lv_imgbtn.c ****         lv_obj_set_height(obj, header.h); /*Keep the user defined width*/
 1740              		.loc 1 317 9 is_stmt 1 view .LVU584
 1741 00b2 FFF7FEFF 		bl	lv_obj_refresh_self_size
 1742              	.LVL152:
 318:Drivers/lvgl/src/extra/widgets/imgbtn/lv_imgbtn.c ****     }
 1743              		.loc 1 318 9 view .LVU585
 318:Drivers/lvgl/src/extra/widgets/imgbtn/lv_imgbtn.c ****     }
 1744              		.loc 1 318 38 is_stmt 0 view .LVU586
 1745 00b6 BDF80610 		ldrh	r1, [sp, #6]
 318:Drivers/lvgl/src/extra/widgets/imgbtn/lv_imgbtn.c ****     }
 1746              		.loc 1 318 9 view .LVU587
 1747 00ba 2046     		mov	r0, r4
 1748 00bc C1F34A11 		ubfx	r1, r1, #5, #11
 1749 00c0 FFF7FEFF 		bl	lv_obj_set_height
 1750              	.LVL153:
 1751 00c4 B5E7     		b	.L122
 1752              	.LBE168:
 1753              	.LBE170:
 1754              		.cfi_endproc
 1755              	.LFE205:
 1757 00c6 00BF     		.section	.text.lv_imgbtn_set_state,"ax",%progbits
 1758              		.align	1
 1759              		.p2align 2,,3
 1760              		.global	lv_imgbtn_set_state
 1761              		.syntax unified
 1762              		.thumb
 1763              		.thumb_func
 1765              	lv_imgbtn_set_state:
 1766              	.LVL154:
 1767              	.LFB206:
  94:Drivers/lvgl/src/extra/widgets/imgbtn/lv_imgbtn.c ****     LV_ASSERT_OBJ(obj, MY_CLASS);
 1768              		.loc 1 94 1 is_stmt 1 view -0
 1769              		.cfi_startproc
 1770              		@ args = 0, pretend = 0, frame = 8
 1771              		@ frame_needed = 0, uses_anonymous_args = 0
  95:Drivers/lvgl/src/extra/widgets/imgbtn/lv_imgbtn.c **** 
 1772              		.loc 1 95 5 view .LVU589
  95:Drivers/lvgl/src/extra/widgets/imgbtn/lv_imgbtn.c **** 
ARM GAS  /var/folders/0z/tsy30v1j4xl4_7kw94k978ww0000gn/T//ccOGqK87.s 			page 51


 1773              		.loc 1 95 5 view .LVU590
  95:Drivers/lvgl/src/extra/widgets/imgbtn/lv_imgbtn.c **** 
 1774              		.loc 1 95 5 view .LVU591
  97:Drivers/lvgl/src/extra/widgets/imgbtn/lv_imgbtn.c ****     if(state == LV_IMGBTN_STATE_PRESSED || state == LV_IMGBTN_STATE_CHECKED_PRESSED) obj_state |= L
 1775              		.loc 1 97 5 view .LVU592
  98:Drivers/lvgl/src/extra/widgets/imgbtn/lv_imgbtn.c ****     if(state == LV_IMGBTN_STATE_DISABLED || state == LV_IMGBTN_STATE_CHECKED_DISABLED) obj_state |=
 1776              		.loc 1 98 5 view .LVU593
  94:Drivers/lvgl/src/extra/widgets/imgbtn/lv_imgbtn.c ****     LV_ASSERT_OBJ(obj, MY_CLASS);
 1777              		.loc 1 94 1 is_stmt 0 view .LVU594
 1778 0000 10B5     		push	{r4, lr}
 1779              		.cfi_def_cfa_offset 8
 1780              		.cfi_offset 4, -8
 1781              		.cfi_offset 14, -4
  98:Drivers/lvgl/src/extra/widgets/imgbtn/lv_imgbtn.c ****     if(state == LV_IMGBTN_STATE_DISABLED || state == LV_IMGBTN_STATE_CHECKED_DISABLED) obj_state |=
 1782              		.loc 1 98 7 view .LVU595
 1783 0002 0129     		cmp	r1, #1
  94:Drivers/lvgl/src/extra/widgets/imgbtn/lv_imgbtn.c ****     LV_ASSERT_OBJ(obj, MY_CLASS);
 1784              		.loc 1 94 1 view .LVU596
 1785 0004 82B0     		sub	sp, sp, #8
 1786              		.cfi_def_cfa_offset 16
  98:Drivers/lvgl/src/extra/widgets/imgbtn/lv_imgbtn.c ****     if(state == LV_IMGBTN_STATE_DISABLED || state == LV_IMGBTN_STATE_CHECKED_DISABLED) obj_state |=
 1787              		.loc 1 98 7 view .LVU597
 1788 0006 20D0     		beq	.L138
  98:Drivers/lvgl/src/extra/widgets/imgbtn/lv_imgbtn.c ****     if(state == LV_IMGBTN_STATE_DISABLED || state == LV_IMGBTN_STATE_CHECKED_DISABLED) obj_state |=
 1789              		.loc 1 98 41 discriminator 2 view .LVU598
 1790 0008 A1F10404 		sub	r4, r1, #4
 1791 000c B4FA84F4 		clz	r4, r4
 1792 0010 6409     		lsrs	r4, r4, #5
  99:Drivers/lvgl/src/extra/widgets/imgbtn/lv_imgbtn.c ****     if(state == LV_IMGBTN_STATE_CHECKED_DISABLED || state == LV_IMGBTN_STATE_CHECKED_PRESSED ||
 1793              		.loc 1 99 7 discriminator 2 view .LVU599
 1794 0012 0229     		cmp	r1, #2
  98:Drivers/lvgl/src/extra/widgets/imgbtn/lv_imgbtn.c ****     if(state == LV_IMGBTN_STATE_DISABLED || state == LV_IMGBTN_STATE_CHECKED_DISABLED) obj_state |=
 1795              		.loc 1 98 41 discriminator 2 view .LVU600
 1796 0014 4FEA4414 		lsl	r4, r4, #5
 1797              	.LVL155:
  99:Drivers/lvgl/src/extra/widgets/imgbtn/lv_imgbtn.c ****     if(state == LV_IMGBTN_STATE_CHECKED_DISABLED || state == LV_IMGBTN_STATE_CHECKED_PRESSED ||
 1798              		.loc 1 99 5 is_stmt 1 discriminator 2 view .LVU601
  99:Drivers/lvgl/src/extra/widgets/imgbtn/lv_imgbtn.c ****     if(state == LV_IMGBTN_STATE_CHECKED_DISABLED || state == LV_IMGBTN_STATE_CHECKED_PRESSED ||
 1799              		.loc 1 99 7 is_stmt 0 discriminator 2 view .LVU602
 1800 0018 14D1     		bne	.L143
 1801              	.L136:
  99:Drivers/lvgl/src/extra/widgets/imgbtn/lv_imgbtn.c ****     if(state == LV_IMGBTN_STATE_CHECKED_DISABLED || state == LV_IMGBTN_STATE_CHECKED_PRESSED ||
 1802              		.loc 1 99 88 is_stmt 1 discriminator 3 view .LVU603
  99:Drivers/lvgl/src/extra/widgets/imgbtn/lv_imgbtn.c ****     if(state == LV_IMGBTN_STATE_CHECKED_DISABLED || state == LV_IMGBTN_STATE_CHECKED_PRESSED ||
 1803              		.loc 1 99 98 is_stmt 0 discriminator 3 view .LVU604
 1804 001a 44F08004 		orr	r4, r4, #128
 1805              	.LVL156:
 1806              	.L137:
 100:Drivers/lvgl/src/extra/widgets/imgbtn/lv_imgbtn.c ****        state == LV_IMGBTN_STATE_CHECKED_RELEASED) {
 1807              		.loc 1 100 5 is_stmt 1 view .LVU605
 100:Drivers/lvgl/src/extra/widgets/imgbtn/lv_imgbtn.c ****        state == LV_IMGBTN_STATE_CHECKED_RELEASED) {
 1808              		.loc 1 100 7 is_stmt 0 view .LVU606
 1809 001e 0339     		subs	r1, r1, #3
 1810              	.LVL157:
 100:Drivers/lvgl/src/extra/widgets/imgbtn/lv_imgbtn.c ****        state == LV_IMGBTN_STATE_CHECKED_RELEASED) {
 1811              		.loc 1 100 7 view .LVU607
 1812 0020 0229     		cmp	r1, #2
ARM GAS  /var/folders/0z/tsy30v1j4xl4_7kw94k978ww0000gn/T//ccOGqK87.s 			page 52


 1813 0022 01D8     		bhi	.L135
 102:Drivers/lvgl/src/extra/widgets/imgbtn/lv_imgbtn.c ****     }
 1814              		.loc 1 102 9 is_stmt 1 view .LVU608
 102:Drivers/lvgl/src/extra/widgets/imgbtn/lv_imgbtn.c ****     }
 1815              		.loc 1 102 19 is_stmt 0 view .LVU609
 1816 0024 44F00104 		orr	r4, r4, #1
 1817              	.LVL158:
 1818              	.L135:
 105:Drivers/lvgl/src/extra/widgets/imgbtn/lv_imgbtn.c ****     lv_obj_add_state(obj, obj_state);
 1819              		.loc 1 105 5 is_stmt 1 view .LVU610
 1820 0028 A121     		movs	r1, #161
 1821 002a 0190     		str	r0, [sp, #4]
 1822 002c FFF7FEFF 		bl	lv_obj_clear_state
 1823              	.LVL159:
 106:Drivers/lvgl/src/extra/widgets/imgbtn/lv_imgbtn.c **** 
 1824              		.loc 1 106 5 view .LVU611
 1825 0030 0198     		ldr	r0, [sp, #4]
 1826 0032 2146     		mov	r1, r4
 1827 0034 FFF7FEFF 		bl	lv_obj_add_state
 1828              	.LVL160:
 108:Drivers/lvgl/src/extra/widgets/imgbtn/lv_imgbtn.c **** }
 1829              		.loc 1 108 5 view .LVU612
 1830 0038 0198     		ldr	r0, [sp, #4]
 109:Drivers/lvgl/src/extra/widgets/imgbtn/lv_imgbtn.c **** 
 1831              		.loc 1 109 1 is_stmt 0 view .LVU613
 1832 003a 02B0     		add	sp, sp, #8
 1833              		.cfi_remember_state
 1834              		.cfi_def_cfa_offset 8
 1835              		@ sp needed
 1836 003c BDE81040 		pop	{r4, lr}
 1837              		.cfi_restore 14
 1838              		.cfi_restore 4
 1839              		.cfi_def_cfa_offset 0
 1840              	.LVL161:
 108:Drivers/lvgl/src/extra/widgets/imgbtn/lv_imgbtn.c **** }
 1841              		.loc 1 108 5 view .LVU614
 1842 0040 FFF7FEBF 		b	refr_img
 1843              	.LVL162:
 1844              	.L143:
 1845              		.cfi_restore_state
  99:Drivers/lvgl/src/extra/widgets/imgbtn/lv_imgbtn.c ****     if(state == LV_IMGBTN_STATE_CHECKED_DISABLED || state == LV_IMGBTN_STATE_CHECKED_PRESSED ||
 1846              		.loc 1 99 42 discriminator 2 view .LVU615
 1847 0044 0529     		cmp	r1, #5
 1848 0046 E8D0     		beq	.L136
 1849 0048 E9E7     		b	.L137
 1850              	.LVL163:
 1851              	.L138:
  98:Drivers/lvgl/src/extra/widgets/imgbtn/lv_imgbtn.c ****     if(state == LV_IMGBTN_STATE_DISABLED || state == LV_IMGBTN_STATE_CHECKED_DISABLED) obj_state |=
 1852              		.loc 1 98 96 view .LVU616
 1853 004a 2024     		movs	r4, #32
 1854 004c ECE7     		b	.L135
 1855              		.cfi_endproc
 1856              	.LFE206:
 1858 004e 00BF     		.section	.text.lv_imgbtn_get_src_left,"ax",%progbits
 1859              		.align	1
 1860              		.p2align 2,,3
 1861              		.global	lv_imgbtn_get_src_left
ARM GAS  /var/folders/0z/tsy30v1j4xl4_7kw94k978ww0000gn/T//ccOGqK87.s 			page 53


 1862              		.syntax unified
 1863              		.thumb
 1864              		.thumb_func
 1866              	lv_imgbtn_get_src_left:
 1867              	.LVL164:
 1868              	.LFB207:
 123:Drivers/lvgl/src/extra/widgets/imgbtn/lv_imgbtn.c ****     LV_ASSERT_OBJ(obj, MY_CLASS);
 1869              		.loc 1 123 1 is_stmt 1 view -0
 1870              		.cfi_startproc
 1871              		@ args = 0, pretend = 0, frame = 0
 1872              		@ frame_needed = 0, uses_anonymous_args = 0
 1873              		@ link register save eliminated.
 124:Drivers/lvgl/src/extra/widgets/imgbtn/lv_imgbtn.c **** 
 1874              		.loc 1 124 5 view .LVU618
 124:Drivers/lvgl/src/extra/widgets/imgbtn/lv_imgbtn.c **** 
 1875              		.loc 1 124 5 view .LVU619
 124:Drivers/lvgl/src/extra/widgets/imgbtn/lv_imgbtn.c **** 
 1876              		.loc 1 124 5 view .LVU620
 126:Drivers/lvgl/src/extra/widgets/imgbtn/lv_imgbtn.c **** 
 1877              		.loc 1 126 5 view .LVU621
 128:Drivers/lvgl/src/extra/widgets/imgbtn/lv_imgbtn.c **** }
 1878              		.loc 1 128 5 view .LVU622
 128:Drivers/lvgl/src/extra/widgets/imgbtn/lv_imgbtn.c **** }
 1879              		.loc 1 128 32 is_stmt 0 view .LVU623
 1880 0000 00EB8101 		add	r1, r0, r1, lsl #2
 1881              	.LVL165:
 129:Drivers/lvgl/src/extra/widgets/imgbtn/lv_imgbtn.c **** 
 1882              		.loc 1 129 1 view .LVU624
 1883 0004 C86B     		ldr	r0, [r1, #60]
 1884              	.LVL166:
 129:Drivers/lvgl/src/extra/widgets/imgbtn/lv_imgbtn.c **** 
 1885              		.loc 1 129 1 view .LVU625
 1886 0006 7047     		bx	lr
 1887              		.cfi_endproc
 1888              	.LFE207:
 1890              		.section	.text.lv_imgbtn_get_src_middle,"ax",%progbits
 1891              		.align	1
 1892              		.p2align 2,,3
 1893              		.global	lv_imgbtn_get_src_middle
 1894              		.syntax unified
 1895              		.thumb
 1896              		.thumb_func
 1898              	lv_imgbtn_get_src_middle:
 1899              	.LVL167:
 1900              	.LFB208:
 138:Drivers/lvgl/src/extra/widgets/imgbtn/lv_imgbtn.c ****     LV_ASSERT_OBJ(obj, MY_CLASS);
 1901              		.loc 1 138 1 is_stmt 1 view -0
 1902              		.cfi_startproc
 1903              		@ args = 0, pretend = 0, frame = 0
 1904              		@ frame_needed = 0, uses_anonymous_args = 0
 1905              		@ link register save eliminated.
 139:Drivers/lvgl/src/extra/widgets/imgbtn/lv_imgbtn.c ****     lv_imgbtn_t * imgbtn = (lv_imgbtn_t *)obj;
 1906              		.loc 1 139 5 view .LVU627
 139:Drivers/lvgl/src/extra/widgets/imgbtn/lv_imgbtn.c ****     lv_imgbtn_t * imgbtn = (lv_imgbtn_t *)obj;
 1907              		.loc 1 139 5 view .LVU628
 139:Drivers/lvgl/src/extra/widgets/imgbtn/lv_imgbtn.c ****     lv_imgbtn_t * imgbtn = (lv_imgbtn_t *)obj;
 1908              		.loc 1 139 5 view .LVU629
ARM GAS  /var/folders/0z/tsy30v1j4xl4_7kw94k978ww0000gn/T//ccOGqK87.s 			page 54


 140:Drivers/lvgl/src/extra/widgets/imgbtn/lv_imgbtn.c **** 
 1909              		.loc 1 140 5 view .LVU630
 142:Drivers/lvgl/src/extra/widgets/imgbtn/lv_imgbtn.c **** }
 1910              		.loc 1 142 5 view .LVU631
 142:Drivers/lvgl/src/extra/widgets/imgbtn/lv_imgbtn.c **** }
 1911              		.loc 1 142 31 is_stmt 0 view .LVU632
 1912 0000 00EB8101 		add	r1, r0, r1, lsl #2
 1913              	.LVL168:
 143:Drivers/lvgl/src/extra/widgets/imgbtn/lv_imgbtn.c **** 
 1914              		.loc 1 143 1 view .LVU633
 1915 0004 486A     		ldr	r0, [r1, #36]
 1916              	.LVL169:
 143:Drivers/lvgl/src/extra/widgets/imgbtn/lv_imgbtn.c **** 
 1917              		.loc 1 143 1 view .LVU634
 1918 0006 7047     		bx	lr
 1919              		.cfi_endproc
 1920              	.LFE208:
 1922              		.section	.text.lv_imgbtn_get_src_right,"ax",%progbits
 1923              		.align	1
 1924              		.p2align 2,,3
 1925              		.global	lv_imgbtn_get_src_right
 1926              		.syntax unified
 1927              		.thumb
 1928              		.thumb_func
 1930              	lv_imgbtn_get_src_right:
 1931              	.LVL170:
 1932              	.LFB209:
 152:Drivers/lvgl/src/extra/widgets/imgbtn/lv_imgbtn.c ****     LV_ASSERT_OBJ(obj, MY_CLASS);
 1933              		.loc 1 152 1 is_stmt 1 view -0
 1934              		.cfi_startproc
 1935              		@ args = 0, pretend = 0, frame = 0
 1936              		@ frame_needed = 0, uses_anonymous_args = 0
 1937              		@ link register save eliminated.
 153:Drivers/lvgl/src/extra/widgets/imgbtn/lv_imgbtn.c ****     lv_imgbtn_t * imgbtn = (lv_imgbtn_t *)obj;
 1938              		.loc 1 153 5 view .LVU636
 153:Drivers/lvgl/src/extra/widgets/imgbtn/lv_imgbtn.c ****     lv_imgbtn_t * imgbtn = (lv_imgbtn_t *)obj;
 1939              		.loc 1 153 5 view .LVU637
 153:Drivers/lvgl/src/extra/widgets/imgbtn/lv_imgbtn.c ****     lv_imgbtn_t * imgbtn = (lv_imgbtn_t *)obj;
 1940              		.loc 1 153 5 view .LVU638
 154:Drivers/lvgl/src/extra/widgets/imgbtn/lv_imgbtn.c **** 
 1941              		.loc 1 154 5 view .LVU639
 156:Drivers/lvgl/src/extra/widgets/imgbtn/lv_imgbtn.c **** }
 1942              		.loc 1 156 5 view .LVU640
 156:Drivers/lvgl/src/extra/widgets/imgbtn/lv_imgbtn.c **** }
 1943              		.loc 1 156 33 is_stmt 0 view .LVU641
 1944 0000 00EB8101 		add	r1, r0, r1, lsl #2
 1945              	.LVL171:
 157:Drivers/lvgl/src/extra/widgets/imgbtn/lv_imgbtn.c **** 
 1946              		.loc 1 157 1 view .LVU642
 1947 0004 486D     		ldr	r0, [r1, #84]
 1948              	.LVL172:
 157:Drivers/lvgl/src/extra/widgets/imgbtn/lv_imgbtn.c **** 
 1949              		.loc 1 157 1 view .LVU643
 1950 0006 7047     		bx	lr
 1951              		.cfi_endproc
 1952              	.LFE209:
 1954              		.section	.text.get_state,"ax",%progbits
ARM GAS  /var/folders/0z/tsy30v1j4xl4_7kw94k978ww0000gn/T//ccOGqK87.s 			page 55


 1955              		.align	1
 1956              		.p2align 2,,3
 1957              		.global	get_state
 1958              		.syntax unified
 1959              		.thumb
 1960              		.thumb_func
 1962              	get_state:
 1963              	.LVL173:
 1964              	.LFB215:
 366:Drivers/lvgl/src/extra/widgets/imgbtn/lv_imgbtn.c ****     LV_ASSERT_OBJ(imgbtn, MY_CLASS);
 1965              		.loc 1 366 1 is_stmt 1 view -0
 1966              		.cfi_startproc
 1967              		@ args = 0, pretend = 0, frame = 0
 1968              		@ frame_needed = 0, uses_anonymous_args = 0
 367:Drivers/lvgl/src/extra/widgets/imgbtn/lv_imgbtn.c **** 
 1969              		.loc 1 367 5 view .LVU645
 367:Drivers/lvgl/src/extra/widgets/imgbtn/lv_imgbtn.c **** 
 1970              		.loc 1 367 5 view .LVU646
 367:Drivers/lvgl/src/extra/widgets/imgbtn/lv_imgbtn.c **** 
 1971              		.loc 1 367 5 view .LVU647
 369:Drivers/lvgl/src/extra/widgets/imgbtn/lv_imgbtn.c **** 
 1972              		.loc 1 369 5 view .LVU648
 366:Drivers/lvgl/src/extra/widgets/imgbtn/lv_imgbtn.c ****     LV_ASSERT_OBJ(imgbtn, MY_CLASS);
 1973              		.loc 1 366 1 is_stmt 0 view .LVU649
 1974 0000 08B5     		push	{r3, lr}
 1975              		.cfi_def_cfa_offset 8
 1976              		.cfi_offset 3, -8
 1977              		.cfi_offset 14, -4
 369:Drivers/lvgl/src/extra/widgets/imgbtn/lv_imgbtn.c **** 
 1978              		.loc 1 369 28 view .LVU650
 1979 0002 FFF7FEFF 		bl	lv_obj_get_state
 1980              	.LVL174:
 371:Drivers/lvgl/src/extra/widgets/imgbtn/lv_imgbtn.c ****         if(obj_state & LV_STATE_CHECKED) return LV_IMGBTN_STATE_CHECKED_DISABLED;
 1981              		.loc 1 371 5 is_stmt 1 view .LVU651
 371:Drivers/lvgl/src/extra/widgets/imgbtn/lv_imgbtn.c ****         if(obj_state & LV_STATE_CHECKED) return LV_IMGBTN_STATE_CHECKED_DISABLED;
 1982              		.loc 1 371 7 is_stmt 0 view .LVU652
 1983 0006 0206     		lsls	r2, r0, #24
 1984 0008 05D5     		bpl	.L148
 372:Drivers/lvgl/src/extra/widgets/imgbtn/lv_imgbtn.c ****         else return LV_IMGBTN_STATE_DISABLED;
 1985              		.loc 1 372 9 is_stmt 1 view .LVU653
 373:Drivers/lvgl/src/extra/widgets/imgbtn/lv_imgbtn.c ****     }
 1986              		.loc 1 373 21 is_stmt 0 view .LVU654
 1987 000a 10F0010F 		tst	r0, #1
 1988 000e 14BF     		ite	ne
 1989 0010 0520     		movne	r0, #5
 1990              	.LVL175:
 373:Drivers/lvgl/src/extra/widgets/imgbtn/lv_imgbtn.c ****     }
 1991              		.loc 1 373 21 view .LVU655
 1992 0012 0220     		moveq	r0, #2
 382:Drivers/lvgl/src/extra/widgets/imgbtn/lv_imgbtn.c ****         else return LV_IMGBTN_STATE_RELEASED;
 383:Drivers/lvgl/src/extra/widgets/imgbtn/lv_imgbtn.c ****     }
 384:Drivers/lvgl/src/extra/widgets/imgbtn/lv_imgbtn.c **** }
 1993              		.loc 1 384 1 view .LVU656
 1994 0014 08BD     		pop	{r3, pc}
 1995              	.LVL176:
 1996              	.L148:
 376:Drivers/lvgl/src/extra/widgets/imgbtn/lv_imgbtn.c ****         if(obj_state & LV_STATE_PRESSED) return LV_IMGBTN_STATE_CHECKED_PRESSED;
ARM GAS  /var/folders/0z/tsy30v1j4xl4_7kw94k978ww0000gn/T//ccOGqK87.s 			page 56


 1997              		.loc 1 376 5 is_stmt 1 view .LVU657
 376:Drivers/lvgl/src/extra/widgets/imgbtn/lv_imgbtn.c ****         if(obj_state & LV_STATE_PRESSED) return LV_IMGBTN_STATE_CHECKED_PRESSED;
 1998              		.loc 1 376 7 is_stmt 0 view .LVU658
 1999 0016 C307     		lsls	r3, r0, #31
 2000 0018 05D5     		bpl	.L150
 377:Drivers/lvgl/src/extra/widgets/imgbtn/lv_imgbtn.c ****         else return LV_IMGBTN_STATE_CHECKED_RELEASED;
 2001              		.loc 1 377 9 is_stmt 1 view .LVU659
 378:Drivers/lvgl/src/extra/widgets/imgbtn/lv_imgbtn.c ****     }
 2002              		.loc 1 378 21 is_stmt 0 view .LVU660
 2003 001a 10F0200F 		tst	r0, #32
 2004 001e 14BF     		ite	ne
 2005 0020 0420     		movne	r0, #4
 2006              	.LVL177:
 378:Drivers/lvgl/src/extra/widgets/imgbtn/lv_imgbtn.c ****     }
 2007              		.loc 1 378 21 view .LVU661
 2008 0022 0320     		moveq	r0, #3
 2009              		.loc 1 384 1 view .LVU662
 2010 0024 08BD     		pop	{r3, pc}
 2011              	.LVL178:
 2012              	.L150:
 381:Drivers/lvgl/src/extra/widgets/imgbtn/lv_imgbtn.c ****         else return LV_IMGBTN_STATE_RELEASED;
 2013              		.loc 1 381 9 is_stmt 1 view .LVU663
 372:Drivers/lvgl/src/extra/widgets/imgbtn/lv_imgbtn.c ****         else return LV_IMGBTN_STATE_DISABLED;
 2014              		.loc 1 372 49 is_stmt 0 view .LVU664
 2015 0026 C0F34010 		ubfx	r0, r0, #5, #1
 2016              	.LVL179:
 2017              		.loc 1 384 1 view .LVU665
 2018 002a 08BD     		pop	{r3, pc}
 2019              		.cfi_endproc
 2020              	.LFE215:
 2022              		.global	lv_imgbtn_class
 2023              		.section	.rodata.lv_imgbtn_class,"a"
 2024              		.align	2
 2025              		.set	.LANCHOR0,. + 0
 2028              	lv_imgbtn_class:
 2029 0000 00000000 		.word	lv_obj_class
 2030 0004 00000000 		.word	lv_imgbtn_constructor
 2031 0008 00000000 		.space	8
 2031      00000000 
 2032 0010 00000000 		.word	lv_imgbtn_event
 2033 0014 00000000 		.space	4
 2034 0018 00       		.byte	0
 2035 0019 07       		.byte	7
 2036 001a 00       		.byte	0
 2037 001b 00       		.space	1
 2038              		.text
 2039              	.Letext0:
 2040              		.file 4 "/Users/johannes/Library/Application Support/Code/User/globalStorage/bmd.stm32-for-vscode/
 2041              		.file 5 "/Users/johannes/Library/Application Support/Code/User/globalStorage/bmd.stm32-for-vscode/
 2042              		.file 6 "Drivers/lvgl/src/extra/widgets/imgbtn/../../../../src/misc/lv_types.h"
 2043              		.file 7 "/Users/johannes/Library/Application Support/Code/User/globalStorage/bmd.stm32-for-vscode/
 2044              		.file 8 "Drivers/lvgl/src/extra/widgets/imgbtn/../../../../src/hal/../draw/../misc/../font/lv_font
 2045              		.file 9 "Drivers/lvgl/src/extra/widgets/imgbtn/../../../../src/hal/../draw/../misc/lv_color.h"
 2046              		.file 10 "Drivers/lvgl/src/extra/widgets/imgbtn/../../../../src/hal/../draw/../misc/lv_txt.h"
 2047              		.file 11 "Drivers/lvgl/src/extra/widgets/imgbtn/../../../../src/hal/../draw/../misc/lv_bidi.h"
 2048              		.file 12 "Drivers/lvgl/src/extra/widgets/imgbtn/../../../../src/hal/../draw/../misc/lv_style.h"
 2049              		.file 13 "Drivers/lvgl/src/extra/widgets/imgbtn/../../../../src/hal/../draw/lv_img_buf.h"
ARM GAS  /var/folders/0z/tsy30v1j4xl4_7kw94k978ww0000gn/T//ccOGqK87.s 			page 57


 2050              		.file 14 "Drivers/lvgl/src/extra/widgets/imgbtn/../../../../src/core/lv_obj.h"
 2051              		.file 15 "Drivers/lvgl/src/extra/widgets/imgbtn/../../../../src/hal/../draw/lv_draw_rect.h"
 2052              		.file 16 "Drivers/lvgl/src/extra/widgets/imgbtn/../../../../src/hal/../draw/lv_draw_label.h"
 2053              		.file 17 "Drivers/lvgl/src/extra/widgets/imgbtn/../../../../src/hal/../draw/lv_draw_img.h"
 2054              		.file 18 "Drivers/lvgl/src/extra/widgets/imgbtn/../../../../src/hal/../draw/lv_draw_line.h"
 2055              		.file 19 "Drivers/lvgl/src/extra/widgets/imgbtn/../../../../src/hal/../draw/lv_draw_arc.h"
 2056              		.file 20 "Drivers/lvgl/src/extra/widgets/imgbtn/../../../../src/hal/../draw/lv_draw_layer.h"
 2057              		.file 21 "Drivers/lvgl/src/extra/widgets/imgbtn/../../../../src/hal/../draw/lv_draw.h"
 2058              		.file 22 "Drivers/lvgl/src/extra/widgets/imgbtn/../../../../src/hal/../misc/lv_ll.h"
 2059              		.file 23 "Drivers/lvgl/src/extra/widgets/imgbtn/../../../../src/core/lv_group.h"
 2060              		.file 24 "Drivers/lvgl/src/extra/widgets/imgbtn/../../../../src/core/lv_obj_scroll.h"
 2061              		.file 25 "Drivers/lvgl/src/extra/widgets/imgbtn/../../../../src/core/lv_obj_style.h"
 2062              		.file 26 "Drivers/lvgl/src/extra/widgets/imgbtn/../../../../src/core/lv_obj_draw.h"
 2063              		.file 27 "Drivers/lvgl/src/extra/widgets/imgbtn/../../../../src/core/lv_obj_class.h"
 2064              		.file 28 "Drivers/lvgl/src/extra/widgets/imgbtn/../../../../src/core/lv_event.h"
 2065              		.file 29 "Drivers/lvgl/src/extra/widgets/imgbtn/../../../../src/widgets/lv_bar.h"
 2066              		.file 30 "Drivers/lvgl/src/extra/widgets/imgbtn/lv_imgbtn.h"
 2067              		.file 31 "Drivers/lvgl/src/extra/widgets/imgbtn/../../../../src/misc/lv_mem.h"
 2068              		.file 32 "Drivers/lvgl/src/extra/widgets/imgbtn/../../../../src/hal/../draw/sw/../../core/lv_obj_p
 2069              		.file 33 "Drivers/lvgl/src/extra/widgets/imgbtn/../../../../src/hal/../draw/lv_img_decoder.h"
ARM GAS  /var/folders/0z/tsy30v1j4xl4_7kw94k978ww0000gn/T//ccOGqK87.s 			page 58

