ARM GAS  /var/folders/lp/x54gwt890xv47sdkqj1k04q40000gn/T//cc18aQ1b.s 			page 1


   1              		.cpu cortex-m4
   2              		.arch armv7e-m
   3              		.fpu fpv4-sp-d16
   4              		.eabi_attribute 27, 1
   5              		.eabi_attribute 28, 1
   6              		.eabi_attribute 20, 1
   7              		.eabi_attribute 21, 1
   8              		.eabi_attribute 23, 3
   9              		.eabi_attribute 24, 1
  10              		.eabi_attribute 25, 1
  11              		.eabi_attribute 26, 1
  12              		.eabi_attribute 30, 2
  13              		.eabi_attribute 34, 1
  14              		.eabi_attribute 18, 4
  15              		.file	"lv_imgbtn.c"
  16              		.text
  17              	.Ltext0:
  18              		.cfi_sections	.debug_frame
  19              		.file 1 "Drivers/lvgl/src/extra/widgets/imgbtn/lv_imgbtn.c"
  20              		.section	.text.lv_imgbtn_constructor,"ax",%progbits
  21              		.align	1
  22              		.p2align 2,,3
  23              		.syntax unified
  24              		.thumb
  25              		.thumb_func
  27              	lv_imgbtn_constructor:
  28              	.LVL0:
  29              	.LFB210:
   1:Drivers/lvgl/src/extra/widgets/imgbtn/lv_imgbtn.c **** /**
   2:Drivers/lvgl/src/extra/widgets/imgbtn/lv_imgbtn.c ****  * @file lv_imgbtn.c
   3:Drivers/lvgl/src/extra/widgets/imgbtn/lv_imgbtn.c ****  *
   4:Drivers/lvgl/src/extra/widgets/imgbtn/lv_imgbtn.c ****  */
   5:Drivers/lvgl/src/extra/widgets/imgbtn/lv_imgbtn.c **** 
   6:Drivers/lvgl/src/extra/widgets/imgbtn/lv_imgbtn.c **** /*********************
   7:Drivers/lvgl/src/extra/widgets/imgbtn/lv_imgbtn.c ****  *      INCLUDES
   8:Drivers/lvgl/src/extra/widgets/imgbtn/lv_imgbtn.c ****  *********************/
   9:Drivers/lvgl/src/extra/widgets/imgbtn/lv_imgbtn.c **** 
  10:Drivers/lvgl/src/extra/widgets/imgbtn/lv_imgbtn.c **** #include "lv_imgbtn.h"
  11:Drivers/lvgl/src/extra/widgets/imgbtn/lv_imgbtn.c **** 
  12:Drivers/lvgl/src/extra/widgets/imgbtn/lv_imgbtn.c **** #if LV_USE_IMGBTN != 0
  13:Drivers/lvgl/src/extra/widgets/imgbtn/lv_imgbtn.c **** 
  14:Drivers/lvgl/src/extra/widgets/imgbtn/lv_imgbtn.c **** /*********************
  15:Drivers/lvgl/src/extra/widgets/imgbtn/lv_imgbtn.c ****  *      DEFINES
  16:Drivers/lvgl/src/extra/widgets/imgbtn/lv_imgbtn.c ****  *********************/
  17:Drivers/lvgl/src/extra/widgets/imgbtn/lv_imgbtn.c **** #define MY_CLASS &lv_imgbtn_class
  18:Drivers/lvgl/src/extra/widgets/imgbtn/lv_imgbtn.c **** 
  19:Drivers/lvgl/src/extra/widgets/imgbtn/lv_imgbtn.c **** /**********************
  20:Drivers/lvgl/src/extra/widgets/imgbtn/lv_imgbtn.c ****  *      TYPEDEFS
  21:Drivers/lvgl/src/extra/widgets/imgbtn/lv_imgbtn.c ****  **********************/
  22:Drivers/lvgl/src/extra/widgets/imgbtn/lv_imgbtn.c **** 
  23:Drivers/lvgl/src/extra/widgets/imgbtn/lv_imgbtn.c **** /**********************
  24:Drivers/lvgl/src/extra/widgets/imgbtn/lv_imgbtn.c ****  *  STATIC PROTOTYPES
  25:Drivers/lvgl/src/extra/widgets/imgbtn/lv_imgbtn.c ****  **********************/
  26:Drivers/lvgl/src/extra/widgets/imgbtn/lv_imgbtn.c **** static void lv_imgbtn_constructor(const lv_obj_class_t * class_p, lv_obj_t * obj);
  27:Drivers/lvgl/src/extra/widgets/imgbtn/lv_imgbtn.c **** static void draw_main(lv_event_t * e);
  28:Drivers/lvgl/src/extra/widgets/imgbtn/lv_imgbtn.c **** static void lv_imgbtn_event(const lv_obj_class_t * class_p, lv_event_t * e);
  29:Drivers/lvgl/src/extra/widgets/imgbtn/lv_imgbtn.c **** static void refr_img(lv_obj_t * imgbtn);
ARM GAS  /var/folders/lp/x54gwt890xv47sdkqj1k04q40000gn/T//cc18aQ1b.s 			page 2


  30:Drivers/lvgl/src/extra/widgets/imgbtn/lv_imgbtn.c **** static lv_imgbtn_state_t suggest_state(lv_obj_t * imgbtn, lv_imgbtn_state_t state);
  31:Drivers/lvgl/src/extra/widgets/imgbtn/lv_imgbtn.c **** lv_imgbtn_state_t get_state(const lv_obj_t * imgbtn);
  32:Drivers/lvgl/src/extra/widgets/imgbtn/lv_imgbtn.c **** 
  33:Drivers/lvgl/src/extra/widgets/imgbtn/lv_imgbtn.c **** /**********************
  34:Drivers/lvgl/src/extra/widgets/imgbtn/lv_imgbtn.c ****  *  STATIC VARIABLES
  35:Drivers/lvgl/src/extra/widgets/imgbtn/lv_imgbtn.c ****  **********************/
  36:Drivers/lvgl/src/extra/widgets/imgbtn/lv_imgbtn.c **** const lv_obj_class_t lv_imgbtn_class = {
  37:Drivers/lvgl/src/extra/widgets/imgbtn/lv_imgbtn.c ****     .base_class = &lv_obj_class,
  38:Drivers/lvgl/src/extra/widgets/imgbtn/lv_imgbtn.c ****     .instance_size = sizeof(lv_imgbtn_t),
  39:Drivers/lvgl/src/extra/widgets/imgbtn/lv_imgbtn.c ****     .constructor_cb = lv_imgbtn_constructor,
  40:Drivers/lvgl/src/extra/widgets/imgbtn/lv_imgbtn.c ****     .event_cb = lv_imgbtn_event,
  41:Drivers/lvgl/src/extra/widgets/imgbtn/lv_imgbtn.c **** };
  42:Drivers/lvgl/src/extra/widgets/imgbtn/lv_imgbtn.c **** 
  43:Drivers/lvgl/src/extra/widgets/imgbtn/lv_imgbtn.c **** /**********************
  44:Drivers/lvgl/src/extra/widgets/imgbtn/lv_imgbtn.c ****  *      MACROS
  45:Drivers/lvgl/src/extra/widgets/imgbtn/lv_imgbtn.c ****  **********************/
  46:Drivers/lvgl/src/extra/widgets/imgbtn/lv_imgbtn.c **** 
  47:Drivers/lvgl/src/extra/widgets/imgbtn/lv_imgbtn.c **** /**********************
  48:Drivers/lvgl/src/extra/widgets/imgbtn/lv_imgbtn.c ****  *   GLOBAL FUNCTIONS
  49:Drivers/lvgl/src/extra/widgets/imgbtn/lv_imgbtn.c ****  **********************/
  50:Drivers/lvgl/src/extra/widgets/imgbtn/lv_imgbtn.c **** 
  51:Drivers/lvgl/src/extra/widgets/imgbtn/lv_imgbtn.c **** /**
  52:Drivers/lvgl/src/extra/widgets/imgbtn/lv_imgbtn.c ****  * Create an image button object
  53:Drivers/lvgl/src/extra/widgets/imgbtn/lv_imgbtn.c ****  * @param parent pointer to an object, it will be the parent of the new image button
  54:Drivers/lvgl/src/extra/widgets/imgbtn/lv_imgbtn.c ****  * @return pointer to the created image button
  55:Drivers/lvgl/src/extra/widgets/imgbtn/lv_imgbtn.c ****  */
  56:Drivers/lvgl/src/extra/widgets/imgbtn/lv_imgbtn.c **** lv_obj_t * lv_imgbtn_create(lv_obj_t * parent)
  57:Drivers/lvgl/src/extra/widgets/imgbtn/lv_imgbtn.c **** {
  58:Drivers/lvgl/src/extra/widgets/imgbtn/lv_imgbtn.c ****     LV_LOG_INFO("begin");
  59:Drivers/lvgl/src/extra/widgets/imgbtn/lv_imgbtn.c ****     lv_obj_t * obj = lv_obj_class_create_obj(MY_CLASS, parent);
  60:Drivers/lvgl/src/extra/widgets/imgbtn/lv_imgbtn.c ****     lv_obj_class_init_obj(obj);
  61:Drivers/lvgl/src/extra/widgets/imgbtn/lv_imgbtn.c ****     return obj;
  62:Drivers/lvgl/src/extra/widgets/imgbtn/lv_imgbtn.c **** }
  63:Drivers/lvgl/src/extra/widgets/imgbtn/lv_imgbtn.c **** 
  64:Drivers/lvgl/src/extra/widgets/imgbtn/lv_imgbtn.c **** /*=====================
  65:Drivers/lvgl/src/extra/widgets/imgbtn/lv_imgbtn.c ****  * Setter functions
  66:Drivers/lvgl/src/extra/widgets/imgbtn/lv_imgbtn.c ****  *====================*/
  67:Drivers/lvgl/src/extra/widgets/imgbtn/lv_imgbtn.c **** 
  68:Drivers/lvgl/src/extra/widgets/imgbtn/lv_imgbtn.c **** /**
  69:Drivers/lvgl/src/extra/widgets/imgbtn/lv_imgbtn.c ****  * Set images for a state of the image button
  70:Drivers/lvgl/src/extra/widgets/imgbtn/lv_imgbtn.c ****  * @param obj pointer to an image button object
  71:Drivers/lvgl/src/extra/widgets/imgbtn/lv_imgbtn.c ****  * @param state for which state set the new image
  72:Drivers/lvgl/src/extra/widgets/imgbtn/lv_imgbtn.c ****  * @param src_left pointer to an image source for the left side of the button (a C array or path to
  73:Drivers/lvgl/src/extra/widgets/imgbtn/lv_imgbtn.c ****  * a file)
  74:Drivers/lvgl/src/extra/widgets/imgbtn/lv_imgbtn.c ****  * @param src_mid pointer to an image source for the middle of the button (ideally 1px wide) (a C
  75:Drivers/lvgl/src/extra/widgets/imgbtn/lv_imgbtn.c ****  * array or path to a file)
  76:Drivers/lvgl/src/extra/widgets/imgbtn/lv_imgbtn.c ****  * @param src_right pointer to an image source for the right side of the button (a C array or path
  77:Drivers/lvgl/src/extra/widgets/imgbtn/lv_imgbtn.c ****  * to a file)
  78:Drivers/lvgl/src/extra/widgets/imgbtn/lv_imgbtn.c ****  */
  79:Drivers/lvgl/src/extra/widgets/imgbtn/lv_imgbtn.c **** void lv_imgbtn_set_src(lv_obj_t * obj, lv_imgbtn_state_t state, const void * src_left, const void *
  80:Drivers/lvgl/src/extra/widgets/imgbtn/lv_imgbtn.c ****                        const void * src_right)
  81:Drivers/lvgl/src/extra/widgets/imgbtn/lv_imgbtn.c **** {
  82:Drivers/lvgl/src/extra/widgets/imgbtn/lv_imgbtn.c ****     LV_ASSERT_OBJ(obj, MY_CLASS);
  83:Drivers/lvgl/src/extra/widgets/imgbtn/lv_imgbtn.c **** 
  84:Drivers/lvgl/src/extra/widgets/imgbtn/lv_imgbtn.c ****     lv_imgbtn_t * imgbtn = (lv_imgbtn_t *)obj;
  85:Drivers/lvgl/src/extra/widgets/imgbtn/lv_imgbtn.c **** 
  86:Drivers/lvgl/src/extra/widgets/imgbtn/lv_imgbtn.c ****     imgbtn->img_src_left[state] = src_left;
ARM GAS  /var/folders/lp/x54gwt890xv47sdkqj1k04q40000gn/T//cc18aQ1b.s 			page 3


  87:Drivers/lvgl/src/extra/widgets/imgbtn/lv_imgbtn.c ****     imgbtn->img_src_mid[state] = src_mid;
  88:Drivers/lvgl/src/extra/widgets/imgbtn/lv_imgbtn.c ****     imgbtn->img_src_right[state] = src_right;
  89:Drivers/lvgl/src/extra/widgets/imgbtn/lv_imgbtn.c **** 
  90:Drivers/lvgl/src/extra/widgets/imgbtn/lv_imgbtn.c ****     refr_img(obj);
  91:Drivers/lvgl/src/extra/widgets/imgbtn/lv_imgbtn.c **** }
  92:Drivers/lvgl/src/extra/widgets/imgbtn/lv_imgbtn.c **** 
  93:Drivers/lvgl/src/extra/widgets/imgbtn/lv_imgbtn.c **** void lv_imgbtn_set_state(lv_obj_t * obj, lv_imgbtn_state_t state)
  94:Drivers/lvgl/src/extra/widgets/imgbtn/lv_imgbtn.c **** {
  95:Drivers/lvgl/src/extra/widgets/imgbtn/lv_imgbtn.c ****     LV_ASSERT_OBJ(obj, MY_CLASS);
  96:Drivers/lvgl/src/extra/widgets/imgbtn/lv_imgbtn.c **** 
  97:Drivers/lvgl/src/extra/widgets/imgbtn/lv_imgbtn.c ****     lv_state_t obj_state = LV_STATE_DEFAULT;
  98:Drivers/lvgl/src/extra/widgets/imgbtn/lv_imgbtn.c ****     if(state == LV_IMGBTN_STATE_PRESSED || state == LV_IMGBTN_STATE_CHECKED_PRESSED) obj_state |= L
  99:Drivers/lvgl/src/extra/widgets/imgbtn/lv_imgbtn.c ****     if(state == LV_IMGBTN_STATE_DISABLED || state == LV_IMGBTN_STATE_CHECKED_DISABLED) obj_state |=
 100:Drivers/lvgl/src/extra/widgets/imgbtn/lv_imgbtn.c ****     if(state == LV_IMGBTN_STATE_CHECKED_DISABLED || state == LV_IMGBTN_STATE_CHECKED_PRESSED ||
 101:Drivers/lvgl/src/extra/widgets/imgbtn/lv_imgbtn.c ****        state == LV_IMGBTN_STATE_CHECKED_RELEASED) {
 102:Drivers/lvgl/src/extra/widgets/imgbtn/lv_imgbtn.c ****         obj_state |= LV_STATE_CHECKED;
 103:Drivers/lvgl/src/extra/widgets/imgbtn/lv_imgbtn.c ****     }
 104:Drivers/lvgl/src/extra/widgets/imgbtn/lv_imgbtn.c **** 
 105:Drivers/lvgl/src/extra/widgets/imgbtn/lv_imgbtn.c ****     lv_obj_clear_state(obj, LV_STATE_CHECKED | LV_STATE_PRESSED | LV_STATE_DISABLED);
 106:Drivers/lvgl/src/extra/widgets/imgbtn/lv_imgbtn.c ****     lv_obj_add_state(obj, obj_state);
 107:Drivers/lvgl/src/extra/widgets/imgbtn/lv_imgbtn.c **** 
 108:Drivers/lvgl/src/extra/widgets/imgbtn/lv_imgbtn.c ****     refr_img(obj);
 109:Drivers/lvgl/src/extra/widgets/imgbtn/lv_imgbtn.c **** }
 110:Drivers/lvgl/src/extra/widgets/imgbtn/lv_imgbtn.c **** 
 111:Drivers/lvgl/src/extra/widgets/imgbtn/lv_imgbtn.c **** /*=====================
 112:Drivers/lvgl/src/extra/widgets/imgbtn/lv_imgbtn.c ****  * Getter functions
 113:Drivers/lvgl/src/extra/widgets/imgbtn/lv_imgbtn.c ****  *====================*/
 114:Drivers/lvgl/src/extra/widgets/imgbtn/lv_imgbtn.c **** 
 115:Drivers/lvgl/src/extra/widgets/imgbtn/lv_imgbtn.c **** 
 116:Drivers/lvgl/src/extra/widgets/imgbtn/lv_imgbtn.c **** /**
 117:Drivers/lvgl/src/extra/widgets/imgbtn/lv_imgbtn.c ****  * Get the left image in a given state
 118:Drivers/lvgl/src/extra/widgets/imgbtn/lv_imgbtn.c ****  * @param obj pointer to an image button object
 119:Drivers/lvgl/src/extra/widgets/imgbtn/lv_imgbtn.c ****  * @param state the state where to get the image (from `lv_btn_state_t`) `
 120:Drivers/lvgl/src/extra/widgets/imgbtn/lv_imgbtn.c ****  * @return pointer to the left image source (a C array or path to a file)
 121:Drivers/lvgl/src/extra/widgets/imgbtn/lv_imgbtn.c ****  */
 122:Drivers/lvgl/src/extra/widgets/imgbtn/lv_imgbtn.c **** const void * lv_imgbtn_get_src_left(lv_obj_t * obj, lv_imgbtn_state_t state)
 123:Drivers/lvgl/src/extra/widgets/imgbtn/lv_imgbtn.c **** {
 124:Drivers/lvgl/src/extra/widgets/imgbtn/lv_imgbtn.c ****     LV_ASSERT_OBJ(obj, MY_CLASS);
 125:Drivers/lvgl/src/extra/widgets/imgbtn/lv_imgbtn.c **** 
 126:Drivers/lvgl/src/extra/widgets/imgbtn/lv_imgbtn.c ****     lv_imgbtn_t * imgbtn = (lv_imgbtn_t *)obj;
 127:Drivers/lvgl/src/extra/widgets/imgbtn/lv_imgbtn.c **** 
 128:Drivers/lvgl/src/extra/widgets/imgbtn/lv_imgbtn.c ****     return imgbtn->img_src_left[state];
 129:Drivers/lvgl/src/extra/widgets/imgbtn/lv_imgbtn.c **** }
 130:Drivers/lvgl/src/extra/widgets/imgbtn/lv_imgbtn.c **** 
 131:Drivers/lvgl/src/extra/widgets/imgbtn/lv_imgbtn.c **** /**
 132:Drivers/lvgl/src/extra/widgets/imgbtn/lv_imgbtn.c ****  * Get the middle image in a given state
 133:Drivers/lvgl/src/extra/widgets/imgbtn/lv_imgbtn.c ****  * @param obj pointer to an image button object
 134:Drivers/lvgl/src/extra/widgets/imgbtn/lv_imgbtn.c ****  * @param state the state where to get the image (from `lv_btn_state_t`) `
 135:Drivers/lvgl/src/extra/widgets/imgbtn/lv_imgbtn.c ****  * @return pointer to the middle image source (a C array or path to a file)
 136:Drivers/lvgl/src/extra/widgets/imgbtn/lv_imgbtn.c ****  */
 137:Drivers/lvgl/src/extra/widgets/imgbtn/lv_imgbtn.c **** const void * lv_imgbtn_get_src_middle(lv_obj_t * obj, lv_imgbtn_state_t state)
 138:Drivers/lvgl/src/extra/widgets/imgbtn/lv_imgbtn.c **** {
 139:Drivers/lvgl/src/extra/widgets/imgbtn/lv_imgbtn.c ****     LV_ASSERT_OBJ(obj, MY_CLASS);
 140:Drivers/lvgl/src/extra/widgets/imgbtn/lv_imgbtn.c ****     lv_imgbtn_t * imgbtn = (lv_imgbtn_t *)obj;
 141:Drivers/lvgl/src/extra/widgets/imgbtn/lv_imgbtn.c **** 
 142:Drivers/lvgl/src/extra/widgets/imgbtn/lv_imgbtn.c ****     return imgbtn->img_src_mid[state];
 143:Drivers/lvgl/src/extra/widgets/imgbtn/lv_imgbtn.c **** }
ARM GAS  /var/folders/lp/x54gwt890xv47sdkqj1k04q40000gn/T//cc18aQ1b.s 			page 4


 144:Drivers/lvgl/src/extra/widgets/imgbtn/lv_imgbtn.c **** 
 145:Drivers/lvgl/src/extra/widgets/imgbtn/lv_imgbtn.c **** /**
 146:Drivers/lvgl/src/extra/widgets/imgbtn/lv_imgbtn.c ****  * Get the right image in a given state
 147:Drivers/lvgl/src/extra/widgets/imgbtn/lv_imgbtn.c ****  * @param obj pointer to an image button object
 148:Drivers/lvgl/src/extra/widgets/imgbtn/lv_imgbtn.c ****  * @param state the state where to get the image (from `lv_btn_state_t`) `
 149:Drivers/lvgl/src/extra/widgets/imgbtn/lv_imgbtn.c ****  * @return pointer to the left image source (a C array or path to a file)
 150:Drivers/lvgl/src/extra/widgets/imgbtn/lv_imgbtn.c ****  */
 151:Drivers/lvgl/src/extra/widgets/imgbtn/lv_imgbtn.c **** const void * lv_imgbtn_get_src_right(lv_obj_t * obj, lv_imgbtn_state_t state)
 152:Drivers/lvgl/src/extra/widgets/imgbtn/lv_imgbtn.c **** {
 153:Drivers/lvgl/src/extra/widgets/imgbtn/lv_imgbtn.c ****     LV_ASSERT_OBJ(obj, MY_CLASS);
 154:Drivers/lvgl/src/extra/widgets/imgbtn/lv_imgbtn.c ****     lv_imgbtn_t * imgbtn = (lv_imgbtn_t *)obj;
 155:Drivers/lvgl/src/extra/widgets/imgbtn/lv_imgbtn.c **** 
 156:Drivers/lvgl/src/extra/widgets/imgbtn/lv_imgbtn.c ****     return imgbtn->img_src_right[state];
 157:Drivers/lvgl/src/extra/widgets/imgbtn/lv_imgbtn.c **** }
 158:Drivers/lvgl/src/extra/widgets/imgbtn/lv_imgbtn.c **** 
 159:Drivers/lvgl/src/extra/widgets/imgbtn/lv_imgbtn.c **** 
 160:Drivers/lvgl/src/extra/widgets/imgbtn/lv_imgbtn.c **** /**********************
 161:Drivers/lvgl/src/extra/widgets/imgbtn/lv_imgbtn.c ****  *   STATIC FUNCTIONS
 162:Drivers/lvgl/src/extra/widgets/imgbtn/lv_imgbtn.c ****  **********************/
 163:Drivers/lvgl/src/extra/widgets/imgbtn/lv_imgbtn.c **** 
 164:Drivers/lvgl/src/extra/widgets/imgbtn/lv_imgbtn.c **** static void lv_imgbtn_constructor(const lv_obj_class_t * class_p, lv_obj_t * obj)
 165:Drivers/lvgl/src/extra/widgets/imgbtn/lv_imgbtn.c **** {
  30              		.loc 1 165 1 view -0
  31              		.cfi_startproc
  32              		@ args = 0, pretend = 0, frame = 0
  33              		@ frame_needed = 0, uses_anonymous_args = 0
 166:Drivers/lvgl/src/extra/widgets/imgbtn/lv_imgbtn.c ****     LV_UNUSED(class_p);
  34              		.loc 1 166 5 view .LVU1
 167:Drivers/lvgl/src/extra/widgets/imgbtn/lv_imgbtn.c ****     lv_imgbtn_t * imgbtn = (lv_imgbtn_t *)obj;
  35              		.loc 1 167 5 view .LVU2
 165:Drivers/lvgl/src/extra/widgets/imgbtn/lv_imgbtn.c ****     LV_UNUSED(class_p);
  36              		.loc 1 165 1 is_stmt 0 view .LVU3
  37 0000 10B5     		push	{r4, lr}
  38              		.cfi_def_cfa_offset 8
  39              		.cfi_offset 4, -8
  40              		.cfi_offset 14, -4
 165:Drivers/lvgl/src/extra/widgets/imgbtn/lv_imgbtn.c ****     LV_UNUSED(class_p);
  41              		.loc 1 165 1 view .LVU4
  42 0002 0C46     		mov	r4, r1
  43              	.LVL1:
 168:Drivers/lvgl/src/extra/widgets/imgbtn/lv_imgbtn.c ****     /*Initialize the allocated 'ext'*/
 169:Drivers/lvgl/src/extra/widgets/imgbtn/lv_imgbtn.c ****     lv_memset_00((void *)imgbtn->img_src_mid, sizeof(imgbtn->img_src_mid));
  44              		.loc 1 169 5 is_stmt 1 view .LVU5
  45 0004 04F12400 		add	r0, r4, #36
  46              	.LVL2:
  47              		.loc 1 169 5 is_stmt 0 view .LVU6
  48 0008 1821     		movs	r1, #24
  49              	.LVL3:
  50              		.loc 1 169 5 view .LVU7
  51 000a FFF7FEFF 		bl	lv_memset_00
  52              	.LVL4:
 170:Drivers/lvgl/src/extra/widgets/imgbtn/lv_imgbtn.c ****     lv_memset_00(imgbtn->img_src_left, sizeof(imgbtn->img_src_left));
  53              		.loc 1 170 5 is_stmt 1 view .LVU8
  54 000e 1821     		movs	r1, #24
  55 0010 04F13C00 		add	r0, r4, #60
  56 0014 FFF7FEFF 		bl	lv_memset_00
  57              	.LVL5:
ARM GAS  /var/folders/lp/x54gwt890xv47sdkqj1k04q40000gn/T//cc18aQ1b.s 			page 5


 171:Drivers/lvgl/src/extra/widgets/imgbtn/lv_imgbtn.c ****     lv_memset_00(imgbtn->img_src_right, sizeof(imgbtn->img_src_right));
  58              		.loc 1 171 5 view .LVU9
  59 0018 1821     		movs	r1, #24
  60 001a 04F15400 		add	r0, r4, #84
  61 001e FFF7FEFF 		bl	lv_memset_00
  62              	.LVL6:
 172:Drivers/lvgl/src/extra/widgets/imgbtn/lv_imgbtn.c **** 
 173:Drivers/lvgl/src/extra/widgets/imgbtn/lv_imgbtn.c ****     imgbtn->act_cf = LV_IMG_CF_UNKNOWN;
  63              		.loc 1 173 5 view .LVU10
  64              		.loc 1 173 20 is_stmt 0 view .LVU11
  65 0022 0023     		movs	r3, #0
  66 0024 84F86C30 		strb	r3, [r4, #108]
 174:Drivers/lvgl/src/extra/widgets/imgbtn/lv_imgbtn.c **** }
  67              		.loc 1 174 1 view .LVU12
  68 0028 10BD     		pop	{r4, pc}
  69              		.loc 1 174 1 view .LVU13
  70              		.cfi_endproc
  71              	.LFE210:
  73 002a 00BF     		.section	.text.suggest_state.part.0,"ax",%progbits
  74              		.align	1
  75              		.p2align 2,,3
  76              		.syntax unified
  77              		.thumb
  78              		.thumb_func
  80              	suggest_state.part.0:
  81              	.LVL7:
  82              	.LFB216:
 175:Drivers/lvgl/src/extra/widgets/imgbtn/lv_imgbtn.c **** 
 176:Drivers/lvgl/src/extra/widgets/imgbtn/lv_imgbtn.c **** 
 177:Drivers/lvgl/src/extra/widgets/imgbtn/lv_imgbtn.c **** static void lv_imgbtn_event(const lv_obj_class_t * class_p, lv_event_t * e)
 178:Drivers/lvgl/src/extra/widgets/imgbtn/lv_imgbtn.c **** {
 179:Drivers/lvgl/src/extra/widgets/imgbtn/lv_imgbtn.c ****     LV_UNUSED(class_p);
 180:Drivers/lvgl/src/extra/widgets/imgbtn/lv_imgbtn.c **** 
 181:Drivers/lvgl/src/extra/widgets/imgbtn/lv_imgbtn.c ****     lv_res_t res = lv_obj_event_base(&lv_imgbtn_class, e);
 182:Drivers/lvgl/src/extra/widgets/imgbtn/lv_imgbtn.c ****     if(res != LV_RES_OK) return;
 183:Drivers/lvgl/src/extra/widgets/imgbtn/lv_imgbtn.c **** 
 184:Drivers/lvgl/src/extra/widgets/imgbtn/lv_imgbtn.c ****     lv_event_code_t code = lv_event_get_code(e);
 185:Drivers/lvgl/src/extra/widgets/imgbtn/lv_imgbtn.c ****     lv_obj_t * obj = lv_event_get_target(e);
 186:Drivers/lvgl/src/extra/widgets/imgbtn/lv_imgbtn.c ****     if(code == LV_EVENT_PRESSED || code == LV_EVENT_RELEASED || code == LV_EVENT_PRESS_LOST) {
 187:Drivers/lvgl/src/extra/widgets/imgbtn/lv_imgbtn.c ****         refr_img(obj);
 188:Drivers/lvgl/src/extra/widgets/imgbtn/lv_imgbtn.c ****     }
 189:Drivers/lvgl/src/extra/widgets/imgbtn/lv_imgbtn.c ****     else if(code == LV_EVENT_DRAW_MAIN) {
 190:Drivers/lvgl/src/extra/widgets/imgbtn/lv_imgbtn.c ****         draw_main(e);
 191:Drivers/lvgl/src/extra/widgets/imgbtn/lv_imgbtn.c ****     }
 192:Drivers/lvgl/src/extra/widgets/imgbtn/lv_imgbtn.c ****     else if(code == LV_EVENT_COVER_CHECK) {
 193:Drivers/lvgl/src/extra/widgets/imgbtn/lv_imgbtn.c ****         lv_cover_check_info_t * info = lv_event_get_param(e);
 194:Drivers/lvgl/src/extra/widgets/imgbtn/lv_imgbtn.c ****         if(info->res != LV_COVER_RES_MASKED) info->res = LV_COVER_RES_NOT_COVER;
 195:Drivers/lvgl/src/extra/widgets/imgbtn/lv_imgbtn.c ****     }
 196:Drivers/lvgl/src/extra/widgets/imgbtn/lv_imgbtn.c ****     else if(code == LV_EVENT_GET_SELF_SIZE) {
 197:Drivers/lvgl/src/extra/widgets/imgbtn/lv_imgbtn.c ****         lv_point_t * p = lv_event_get_self_size_info(e);
 198:Drivers/lvgl/src/extra/widgets/imgbtn/lv_imgbtn.c ****         lv_imgbtn_t * imgbtn = (lv_imgbtn_t *)obj;
 199:Drivers/lvgl/src/extra/widgets/imgbtn/lv_imgbtn.c ****         lv_imgbtn_state_t state  = suggest_state(obj, get_state(obj));
 200:Drivers/lvgl/src/extra/widgets/imgbtn/lv_imgbtn.c ****         if(imgbtn->img_src_left[state] == NULL &&
 201:Drivers/lvgl/src/extra/widgets/imgbtn/lv_imgbtn.c ****            imgbtn->img_src_mid[state] != NULL &&
 202:Drivers/lvgl/src/extra/widgets/imgbtn/lv_imgbtn.c ****            imgbtn->img_src_right[state] == NULL) {
 203:Drivers/lvgl/src/extra/widgets/imgbtn/lv_imgbtn.c ****             lv_img_header_t header;
 204:Drivers/lvgl/src/extra/widgets/imgbtn/lv_imgbtn.c ****             lv_img_decoder_get_info(imgbtn->img_src_mid[state], &header);
ARM GAS  /var/folders/lp/x54gwt890xv47sdkqj1k04q40000gn/T//cc18aQ1b.s 			page 6


 205:Drivers/lvgl/src/extra/widgets/imgbtn/lv_imgbtn.c ****             p->x = LV_MAX(p->x, header.w);
 206:Drivers/lvgl/src/extra/widgets/imgbtn/lv_imgbtn.c ****         }
 207:Drivers/lvgl/src/extra/widgets/imgbtn/lv_imgbtn.c ****     }
 208:Drivers/lvgl/src/extra/widgets/imgbtn/lv_imgbtn.c ****     /*Sent when the widget is checked due to LV_OBJ_FLAG_CHECKABLE */
 209:Drivers/lvgl/src/extra/widgets/imgbtn/lv_imgbtn.c ****     else if(code == LV_EVENT_VALUE_CHANGED) {
 210:Drivers/lvgl/src/extra/widgets/imgbtn/lv_imgbtn.c ****         if(lv_obj_has_state(obj, LV_STATE_CHECKED)) {
 211:Drivers/lvgl/src/extra/widgets/imgbtn/lv_imgbtn.c ****             lv_imgbtn_set_state(obj, LV_IMGBTN_STATE_CHECKED_RELEASED);
 212:Drivers/lvgl/src/extra/widgets/imgbtn/lv_imgbtn.c ****         }
 213:Drivers/lvgl/src/extra/widgets/imgbtn/lv_imgbtn.c ****         else {
 214:Drivers/lvgl/src/extra/widgets/imgbtn/lv_imgbtn.c ****             lv_imgbtn_set_state(obj, LV_IMGBTN_STATE_RELEASED);
 215:Drivers/lvgl/src/extra/widgets/imgbtn/lv_imgbtn.c ****         }
 216:Drivers/lvgl/src/extra/widgets/imgbtn/lv_imgbtn.c ****     }
 217:Drivers/lvgl/src/extra/widgets/imgbtn/lv_imgbtn.c **** }
 218:Drivers/lvgl/src/extra/widgets/imgbtn/lv_imgbtn.c **** 
 219:Drivers/lvgl/src/extra/widgets/imgbtn/lv_imgbtn.c **** static void draw_main(lv_event_t * e)
 220:Drivers/lvgl/src/extra/widgets/imgbtn/lv_imgbtn.c **** {
 221:Drivers/lvgl/src/extra/widgets/imgbtn/lv_imgbtn.c ****     lv_obj_t * obj = lv_event_get_target(e);
 222:Drivers/lvgl/src/extra/widgets/imgbtn/lv_imgbtn.c ****     lv_imgbtn_t * imgbtn = (lv_imgbtn_t *)obj;
 223:Drivers/lvgl/src/extra/widgets/imgbtn/lv_imgbtn.c ****     lv_draw_ctx_t * draw_ctx = lv_event_get_draw_ctx(e);
 224:Drivers/lvgl/src/extra/widgets/imgbtn/lv_imgbtn.c **** 
 225:Drivers/lvgl/src/extra/widgets/imgbtn/lv_imgbtn.c ****     /*Just draw_main an image*/
 226:Drivers/lvgl/src/extra/widgets/imgbtn/lv_imgbtn.c ****     lv_imgbtn_state_t state  = suggest_state(obj, get_state(obj));
 227:Drivers/lvgl/src/extra/widgets/imgbtn/lv_imgbtn.c **** 
 228:Drivers/lvgl/src/extra/widgets/imgbtn/lv_imgbtn.c ****     /*Simply draw the middle src if no tiled*/
 229:Drivers/lvgl/src/extra/widgets/imgbtn/lv_imgbtn.c ****     const void * src = imgbtn->img_src_left[state];
 230:Drivers/lvgl/src/extra/widgets/imgbtn/lv_imgbtn.c **** 
 231:Drivers/lvgl/src/extra/widgets/imgbtn/lv_imgbtn.c ****     lv_coord_t tw = lv_obj_get_style_transform_width(obj, LV_PART_MAIN);
 232:Drivers/lvgl/src/extra/widgets/imgbtn/lv_imgbtn.c ****     lv_coord_t th = lv_obj_get_style_transform_height(obj, LV_PART_MAIN);
 233:Drivers/lvgl/src/extra/widgets/imgbtn/lv_imgbtn.c ****     lv_area_t coords;
 234:Drivers/lvgl/src/extra/widgets/imgbtn/lv_imgbtn.c ****     lv_area_copy(&coords, &obj->coords);
 235:Drivers/lvgl/src/extra/widgets/imgbtn/lv_imgbtn.c ****     coords.x1 -= tw;
 236:Drivers/lvgl/src/extra/widgets/imgbtn/lv_imgbtn.c ****     coords.x2 += tw;
 237:Drivers/lvgl/src/extra/widgets/imgbtn/lv_imgbtn.c ****     coords.y1 -= th;
 238:Drivers/lvgl/src/extra/widgets/imgbtn/lv_imgbtn.c ****     coords.y2 += th;
 239:Drivers/lvgl/src/extra/widgets/imgbtn/lv_imgbtn.c **** 
 240:Drivers/lvgl/src/extra/widgets/imgbtn/lv_imgbtn.c ****     lv_draw_img_dsc_t img_dsc;
 241:Drivers/lvgl/src/extra/widgets/imgbtn/lv_imgbtn.c ****     lv_draw_img_dsc_init(&img_dsc);
 242:Drivers/lvgl/src/extra/widgets/imgbtn/lv_imgbtn.c ****     lv_obj_init_draw_img_dsc(obj, LV_PART_MAIN, &img_dsc);
 243:Drivers/lvgl/src/extra/widgets/imgbtn/lv_imgbtn.c **** 
 244:Drivers/lvgl/src/extra/widgets/imgbtn/lv_imgbtn.c ****     lv_img_header_t header;
 245:Drivers/lvgl/src/extra/widgets/imgbtn/lv_imgbtn.c ****     lv_area_t coords_part;
 246:Drivers/lvgl/src/extra/widgets/imgbtn/lv_imgbtn.c ****     lv_coord_t left_w = 0;
 247:Drivers/lvgl/src/extra/widgets/imgbtn/lv_imgbtn.c ****     lv_coord_t right_w = 0;
 248:Drivers/lvgl/src/extra/widgets/imgbtn/lv_imgbtn.c **** 
 249:Drivers/lvgl/src/extra/widgets/imgbtn/lv_imgbtn.c ****     if(src) {
 250:Drivers/lvgl/src/extra/widgets/imgbtn/lv_imgbtn.c ****         lv_img_decoder_get_info(src, &header);
 251:Drivers/lvgl/src/extra/widgets/imgbtn/lv_imgbtn.c ****         left_w = header.w;
 252:Drivers/lvgl/src/extra/widgets/imgbtn/lv_imgbtn.c ****         coords_part.x1 = coords.x1;
 253:Drivers/lvgl/src/extra/widgets/imgbtn/lv_imgbtn.c ****         coords_part.y1 = coords.y1;
 254:Drivers/lvgl/src/extra/widgets/imgbtn/lv_imgbtn.c ****         coords_part.x2 = coords.x1 + header.w - 1;
 255:Drivers/lvgl/src/extra/widgets/imgbtn/lv_imgbtn.c ****         coords_part.y2 = coords.y1 + header.h - 1;
 256:Drivers/lvgl/src/extra/widgets/imgbtn/lv_imgbtn.c ****         lv_draw_img(draw_ctx, &img_dsc, &coords_part, src);
 257:Drivers/lvgl/src/extra/widgets/imgbtn/lv_imgbtn.c ****     }
 258:Drivers/lvgl/src/extra/widgets/imgbtn/lv_imgbtn.c **** 
 259:Drivers/lvgl/src/extra/widgets/imgbtn/lv_imgbtn.c ****     src = imgbtn->img_src_right[state];
 260:Drivers/lvgl/src/extra/widgets/imgbtn/lv_imgbtn.c ****     if(src) {
 261:Drivers/lvgl/src/extra/widgets/imgbtn/lv_imgbtn.c ****         lv_img_decoder_get_info(src, &header);
ARM GAS  /var/folders/lp/x54gwt890xv47sdkqj1k04q40000gn/T//cc18aQ1b.s 			page 7


 262:Drivers/lvgl/src/extra/widgets/imgbtn/lv_imgbtn.c ****         right_w = header.w;
 263:Drivers/lvgl/src/extra/widgets/imgbtn/lv_imgbtn.c ****         coords_part.x1 = coords.x2 - header.w + 1;
 264:Drivers/lvgl/src/extra/widgets/imgbtn/lv_imgbtn.c ****         coords_part.y1 = coords.y1;
 265:Drivers/lvgl/src/extra/widgets/imgbtn/lv_imgbtn.c ****         coords_part.x2 = coords.x2;
 266:Drivers/lvgl/src/extra/widgets/imgbtn/lv_imgbtn.c ****         coords_part.y2 = coords.y1 + header.h - 1;
 267:Drivers/lvgl/src/extra/widgets/imgbtn/lv_imgbtn.c ****         lv_draw_img(draw_ctx, &img_dsc, &coords_part, src);
 268:Drivers/lvgl/src/extra/widgets/imgbtn/lv_imgbtn.c ****     }
 269:Drivers/lvgl/src/extra/widgets/imgbtn/lv_imgbtn.c **** 
 270:Drivers/lvgl/src/extra/widgets/imgbtn/lv_imgbtn.c ****     src = imgbtn->img_src_mid[state];
 271:Drivers/lvgl/src/extra/widgets/imgbtn/lv_imgbtn.c ****     if(src) {
 272:Drivers/lvgl/src/extra/widgets/imgbtn/lv_imgbtn.c ****         lv_area_t clip_area_center;
 273:Drivers/lvgl/src/extra/widgets/imgbtn/lv_imgbtn.c ****         clip_area_center.x1 = coords.x1 + left_w;
 274:Drivers/lvgl/src/extra/widgets/imgbtn/lv_imgbtn.c ****         clip_area_center.x2 = coords.x2 - right_w;
 275:Drivers/lvgl/src/extra/widgets/imgbtn/lv_imgbtn.c ****         clip_area_center.y1 = coords.y1;
 276:Drivers/lvgl/src/extra/widgets/imgbtn/lv_imgbtn.c ****         clip_area_center.y2 = coords.y2;
 277:Drivers/lvgl/src/extra/widgets/imgbtn/lv_imgbtn.c **** 
 278:Drivers/lvgl/src/extra/widgets/imgbtn/lv_imgbtn.c **** 
 279:Drivers/lvgl/src/extra/widgets/imgbtn/lv_imgbtn.c ****         bool comm_res;
 280:Drivers/lvgl/src/extra/widgets/imgbtn/lv_imgbtn.c ****         comm_res = _lv_area_intersect(&clip_area_center, &clip_area_center, draw_ctx->clip_area);
 281:Drivers/lvgl/src/extra/widgets/imgbtn/lv_imgbtn.c ****         if(comm_res) {
 282:Drivers/lvgl/src/extra/widgets/imgbtn/lv_imgbtn.c ****             lv_coord_t i;
 283:Drivers/lvgl/src/extra/widgets/imgbtn/lv_imgbtn.c ****             lv_img_decoder_get_info(src, &header);
 284:Drivers/lvgl/src/extra/widgets/imgbtn/lv_imgbtn.c **** 
 285:Drivers/lvgl/src/extra/widgets/imgbtn/lv_imgbtn.c ****             const lv_area_t * clip_area_ori = draw_ctx->clip_area;
 286:Drivers/lvgl/src/extra/widgets/imgbtn/lv_imgbtn.c ****             draw_ctx->clip_area = &clip_area_center;
 287:Drivers/lvgl/src/extra/widgets/imgbtn/lv_imgbtn.c **** 
 288:Drivers/lvgl/src/extra/widgets/imgbtn/lv_imgbtn.c ****             coords_part.x1 = coords.x1 + left_w;
 289:Drivers/lvgl/src/extra/widgets/imgbtn/lv_imgbtn.c ****             coords_part.y1 = coords.y1;
 290:Drivers/lvgl/src/extra/widgets/imgbtn/lv_imgbtn.c ****             coords_part.x2 = coords_part.x1 + header.w - 1;
 291:Drivers/lvgl/src/extra/widgets/imgbtn/lv_imgbtn.c ****             coords_part.y2 = coords_part.y1 + header.h - 1;
 292:Drivers/lvgl/src/extra/widgets/imgbtn/lv_imgbtn.c **** 
 293:Drivers/lvgl/src/extra/widgets/imgbtn/lv_imgbtn.c ****             for(i = coords_part.x1; i < (lv_coord_t)(clip_area_center.x2 + header.w - 1); i += head
 294:Drivers/lvgl/src/extra/widgets/imgbtn/lv_imgbtn.c ****                 lv_draw_img(draw_ctx, &img_dsc, &coords_part, src);
 295:Drivers/lvgl/src/extra/widgets/imgbtn/lv_imgbtn.c ****                 coords_part.x1 = coords_part.x2 + 1;
 296:Drivers/lvgl/src/extra/widgets/imgbtn/lv_imgbtn.c ****                 coords_part.x2 += header.w;
 297:Drivers/lvgl/src/extra/widgets/imgbtn/lv_imgbtn.c ****             }
 298:Drivers/lvgl/src/extra/widgets/imgbtn/lv_imgbtn.c ****             draw_ctx->clip_area = clip_area_ori;
 299:Drivers/lvgl/src/extra/widgets/imgbtn/lv_imgbtn.c ****         }
 300:Drivers/lvgl/src/extra/widgets/imgbtn/lv_imgbtn.c ****     }
 301:Drivers/lvgl/src/extra/widgets/imgbtn/lv_imgbtn.c **** }
 302:Drivers/lvgl/src/extra/widgets/imgbtn/lv_imgbtn.c **** 
 303:Drivers/lvgl/src/extra/widgets/imgbtn/lv_imgbtn.c **** static void refr_img(lv_obj_t * obj)
 304:Drivers/lvgl/src/extra/widgets/imgbtn/lv_imgbtn.c **** {
 305:Drivers/lvgl/src/extra/widgets/imgbtn/lv_imgbtn.c ****     lv_imgbtn_t * imgbtn = (lv_imgbtn_t *)obj;
 306:Drivers/lvgl/src/extra/widgets/imgbtn/lv_imgbtn.c ****     lv_imgbtn_state_t state  = suggest_state(obj, get_state(obj));
 307:Drivers/lvgl/src/extra/widgets/imgbtn/lv_imgbtn.c ****     lv_img_header_t header;
 308:Drivers/lvgl/src/extra/widgets/imgbtn/lv_imgbtn.c **** 
 309:Drivers/lvgl/src/extra/widgets/imgbtn/lv_imgbtn.c ****     const void * src = imgbtn->img_src_mid[state];
 310:Drivers/lvgl/src/extra/widgets/imgbtn/lv_imgbtn.c ****     if(src == NULL) return;
 311:Drivers/lvgl/src/extra/widgets/imgbtn/lv_imgbtn.c **** 
 312:Drivers/lvgl/src/extra/widgets/imgbtn/lv_imgbtn.c ****     lv_res_t info_res = LV_RES_OK;
 313:Drivers/lvgl/src/extra/widgets/imgbtn/lv_imgbtn.c ****     info_res = lv_img_decoder_get_info(src, &header);
 314:Drivers/lvgl/src/extra/widgets/imgbtn/lv_imgbtn.c **** 
 315:Drivers/lvgl/src/extra/widgets/imgbtn/lv_imgbtn.c ****     if(info_res == LV_RES_OK) {
 316:Drivers/lvgl/src/extra/widgets/imgbtn/lv_imgbtn.c ****         imgbtn->act_cf = header.cf;
 317:Drivers/lvgl/src/extra/widgets/imgbtn/lv_imgbtn.c ****         lv_obj_refresh_self_size(obj);
 318:Drivers/lvgl/src/extra/widgets/imgbtn/lv_imgbtn.c ****         lv_obj_set_height(obj, header.h); /*Keep the user defined width*/
ARM GAS  /var/folders/lp/x54gwt890xv47sdkqj1k04q40000gn/T//cc18aQ1b.s 			page 8


 319:Drivers/lvgl/src/extra/widgets/imgbtn/lv_imgbtn.c ****     }
 320:Drivers/lvgl/src/extra/widgets/imgbtn/lv_imgbtn.c ****     else {
 321:Drivers/lvgl/src/extra/widgets/imgbtn/lv_imgbtn.c ****         imgbtn->act_cf = LV_IMG_CF_UNKNOWN;
 322:Drivers/lvgl/src/extra/widgets/imgbtn/lv_imgbtn.c ****     }
 323:Drivers/lvgl/src/extra/widgets/imgbtn/lv_imgbtn.c **** 
 324:Drivers/lvgl/src/extra/widgets/imgbtn/lv_imgbtn.c ****     lv_obj_invalidate(obj);
 325:Drivers/lvgl/src/extra/widgets/imgbtn/lv_imgbtn.c **** }
 326:Drivers/lvgl/src/extra/widgets/imgbtn/lv_imgbtn.c **** 
 327:Drivers/lvgl/src/extra/widgets/imgbtn/lv_imgbtn.c **** /**
 328:Drivers/lvgl/src/extra/widgets/imgbtn/lv_imgbtn.c ****  * If `src` is not defined for the current state try to get a state which is related to the current
 329:Drivers/lvgl/src/extra/widgets/imgbtn/lv_imgbtn.c ****  * E.g. if the PRESSED src is not set but the RELEASED does, use the RELEASED.
 330:Drivers/lvgl/src/extra/widgets/imgbtn/lv_imgbtn.c ****  * @param imgbtn pointer to an image button
 331:Drivers/lvgl/src/extra/widgets/imgbtn/lv_imgbtn.c ****  * @param state the state to convert
 332:Drivers/lvgl/src/extra/widgets/imgbtn/lv_imgbtn.c ****  * @return the suggested state
 333:Drivers/lvgl/src/extra/widgets/imgbtn/lv_imgbtn.c ****  */
 334:Drivers/lvgl/src/extra/widgets/imgbtn/lv_imgbtn.c **** static lv_imgbtn_state_t suggest_state(lv_obj_t * obj, lv_imgbtn_state_t state)
  83              		.loc 1 334 26 is_stmt 1 view -0
  84              		.cfi_startproc
  85              		@ args = 0, pretend = 0, frame = 0
  86              		@ frame_needed = 0, uses_anonymous_args = 0
  87              		@ link register save eliminated.
 335:Drivers/lvgl/src/extra/widgets/imgbtn/lv_imgbtn.c **** {
 336:Drivers/lvgl/src/extra/widgets/imgbtn/lv_imgbtn.c ****     lv_imgbtn_t * imgbtn = (lv_imgbtn_t *)obj;
 337:Drivers/lvgl/src/extra/widgets/imgbtn/lv_imgbtn.c ****     if(imgbtn->img_src_mid[state] == NULL) {
 338:Drivers/lvgl/src/extra/widgets/imgbtn/lv_imgbtn.c ****         switch(state) {
  88              		.loc 1 338 9 view .LVU15
  89 0000 4B1E     		subs	r3, r1, #1
  90 0002 042B     		cmp	r3, #4
  91 0004 26D8     		bhi	.L12
  92 0006 DFE803F0 		tbb	[pc, r3]
  93              	.L7:
  94 000a 1A       		.byte	(.L11-.L7)/2
  95 000b 09       		.byte	(.L10-.L7)/2
  96 000c 03       		.byte	(.L18-.L7)/2
  97 000d 0F       		.byte	(.L8-.L7)/2
  98 000e 15       		.byte	(.L6-.L7)/2
  99 000f 00       		.p2align 1
 100              	.L18:
 339:Drivers/lvgl/src/extra/widgets/imgbtn/lv_imgbtn.c ****             case LV_IMGBTN_STATE_PRESSED:
 340:Drivers/lvgl/src/extra/widgets/imgbtn/lv_imgbtn.c ****                 if(imgbtn->img_src_mid[LV_IMGBTN_STATE_RELEASED]) return LV_IMGBTN_STATE_RELEASED;
 341:Drivers/lvgl/src/extra/widgets/imgbtn/lv_imgbtn.c ****                 break;
 342:Drivers/lvgl/src/extra/widgets/imgbtn/lv_imgbtn.c ****             case LV_IMGBTN_STATE_CHECKED_RELEASED:
 343:Drivers/lvgl/src/extra/widgets/imgbtn/lv_imgbtn.c ****                 if(imgbtn->img_src_mid[LV_IMGBTN_STATE_RELEASED]) return LV_IMGBTN_STATE_RELEASED;
 344:Drivers/lvgl/src/extra/widgets/imgbtn/lv_imgbtn.c ****                 break;
 345:Drivers/lvgl/src/extra/widgets/imgbtn/lv_imgbtn.c ****             case LV_IMGBTN_STATE_CHECKED_PRESSED:
 346:Drivers/lvgl/src/extra/widgets/imgbtn/lv_imgbtn.c ****                 if(imgbtn->img_src_mid[LV_IMGBTN_STATE_CHECKED_RELEASED]) return LV_IMGBTN_STATE_CH
 347:Drivers/lvgl/src/extra/widgets/imgbtn/lv_imgbtn.c ****                 if(imgbtn->img_src_mid[LV_IMGBTN_STATE_PRESSED]) return LV_IMGBTN_STATE_PRESSED;
 348:Drivers/lvgl/src/extra/widgets/imgbtn/lv_imgbtn.c ****                 if(imgbtn->img_src_mid[LV_IMGBTN_STATE_RELEASED]) return LV_IMGBTN_STATE_RELEASED;
 349:Drivers/lvgl/src/extra/widgets/imgbtn/lv_imgbtn.c ****                 break;
 350:Drivers/lvgl/src/extra/widgets/imgbtn/lv_imgbtn.c ****             case LV_IMGBTN_STATE_DISABLED:
 351:Drivers/lvgl/src/extra/widgets/imgbtn/lv_imgbtn.c ****                 if(imgbtn->img_src_mid[LV_IMGBTN_STATE_RELEASED]) return LV_IMGBTN_STATE_RELEASED;
 352:Drivers/lvgl/src/extra/widgets/imgbtn/lv_imgbtn.c ****                 break;
 353:Drivers/lvgl/src/extra/widgets/imgbtn/lv_imgbtn.c ****             case LV_IMGBTN_STATE_CHECKED_DISABLED:
 354:Drivers/lvgl/src/extra/widgets/imgbtn/lv_imgbtn.c ****                 if(imgbtn->img_src_mid[LV_IMGBTN_STATE_CHECKED_RELEASED]) return LV_IMGBTN_STATE_CH
 355:Drivers/lvgl/src/extra/widgets/imgbtn/lv_imgbtn.c ****                 if(imgbtn->img_src_mid[LV_IMGBTN_STATE_RELEASED]) return LV_IMGBTN_STATE_RELEASED;
 101              		.loc 1 355 17 view .LVU16
 102              		.loc 1 355 19 is_stmt 0 view .LVU17
ARM GAS  /var/folders/lp/x54gwt890xv47sdkqj1k04q40000gn/T//cc18aQ1b.s 			page 9


 103 0010 436A     		ldr	r3, [r0, #36]
 356:Drivers/lvgl/src/extra/widgets/imgbtn/lv_imgbtn.c ****                 break;
 357:Drivers/lvgl/src/extra/widgets/imgbtn/lv_imgbtn.c ****             default:
 358:Drivers/lvgl/src/extra/widgets/imgbtn/lv_imgbtn.c ****                 break;
 359:Drivers/lvgl/src/extra/widgets/imgbtn/lv_imgbtn.c ****         }
 360:Drivers/lvgl/src/extra/widgets/imgbtn/lv_imgbtn.c ****     }
 361:Drivers/lvgl/src/extra/widgets/imgbtn/lv_imgbtn.c **** 
 362:Drivers/lvgl/src/extra/widgets/imgbtn/lv_imgbtn.c ****     return state;
 104              		.loc 1 362 12 view .LVU18
 105 0012 002B     		cmp	r3, #0
 106 0014 0CBF     		ite	eq
 107 0016 0846     		moveq	r0, r1
 108              	.LVL8:
 109              		.loc 1 362 12 view .LVU19
 110 0018 0020     		movne	r0, #0
 111 001a 7047     		bx	lr
 112              	.LVL9:
 113              	.L10:
 351:Drivers/lvgl/src/extra/widgets/imgbtn/lv_imgbtn.c ****                 break;
 114              		.loc 1 351 17 is_stmt 1 view .LVU20
 351:Drivers/lvgl/src/extra/widgets/imgbtn/lv_imgbtn.c ****                 break;
 115              		.loc 1 351 19 is_stmt 0 view .LVU21
 116 001c 416A     		ldr	r1, [r0, #36]
 117              	.LVL10:
 351:Drivers/lvgl/src/extra/widgets/imgbtn/lv_imgbtn.c ****                 break;
 118              		.loc 1 351 19 view .LVU22
 119 001e B1FA81F1 		clz	r1, r1
 120 0022 4909     		lsrs	r1, r1, #5
 121 0024 4800     		lsls	r0, r1, #1
 122              	.LVL11:
 351:Drivers/lvgl/src/extra/widgets/imgbtn/lv_imgbtn.c ****                 break;
 123              		.loc 1 351 19 view .LVU23
 124 0026 7047     		bx	lr
 125              	.LVL12:
 126              	.L8:
 346:Drivers/lvgl/src/extra/widgets/imgbtn/lv_imgbtn.c ****                 if(imgbtn->img_src_mid[LV_IMGBTN_STATE_PRESSED]) return LV_IMGBTN_STATE_PRESSED;
 127              		.loc 1 346 17 is_stmt 1 view .LVU24
 346:Drivers/lvgl/src/extra/widgets/imgbtn/lv_imgbtn.c ****                 if(imgbtn->img_src_mid[LV_IMGBTN_STATE_PRESSED]) return LV_IMGBTN_STATE_PRESSED;
 128              		.loc 1 346 19 is_stmt 0 view .LVU25
 129 0028 036B     		ldr	r3, [r0, #48]
 130 002a 33B9     		cbnz	r3, .L16
 347:Drivers/lvgl/src/extra/widgets/imgbtn/lv_imgbtn.c ****                 if(imgbtn->img_src_mid[LV_IMGBTN_STATE_RELEASED]) return LV_IMGBTN_STATE_RELEASED;
 131              		.loc 1 347 17 is_stmt 1 view .LVU26
 347:Drivers/lvgl/src/extra/widgets/imgbtn/lv_imgbtn.c ****                 if(imgbtn->img_src_mid[LV_IMGBTN_STATE_RELEASED]) return LV_IMGBTN_STATE_RELEASED;
 132              		.loc 1 347 19 is_stmt 0 view .LVU27
 133 002c 836A     		ldr	r3, [r0, #40]
 134 002e 5BB1     		cbz	r3, .L19
 347:Drivers/lvgl/src/extra/widgets/imgbtn/lv_imgbtn.c ****                 if(imgbtn->img_src_mid[LV_IMGBTN_STATE_RELEASED]) return LV_IMGBTN_STATE_RELEASED;
 135              		.loc 1 347 73 discriminator 1 view .LVU28
 136 0030 0120     		movs	r0, #1
 137              	.LVL13:
 347:Drivers/lvgl/src/extra/widgets/imgbtn/lv_imgbtn.c ****                 if(imgbtn->img_src_mid[LV_IMGBTN_STATE_RELEASED]) return LV_IMGBTN_STATE_RELEASED;
 138              		.loc 1 347 73 discriminator 1 view .LVU29
 139 0032 7047     		bx	lr
 140              	.LVL14:
 141              	.L6:
 354:Drivers/lvgl/src/extra/widgets/imgbtn/lv_imgbtn.c ****                 if(imgbtn->img_src_mid[LV_IMGBTN_STATE_RELEASED]) return LV_IMGBTN_STATE_RELEASED;
ARM GAS  /var/folders/lp/x54gwt890xv47sdkqj1k04q40000gn/T//cc18aQ1b.s 			page 10


 142              		.loc 1 354 17 is_stmt 1 view .LVU30
 354:Drivers/lvgl/src/extra/widgets/imgbtn/lv_imgbtn.c ****                 if(imgbtn->img_src_mid[LV_IMGBTN_STATE_RELEASED]) return LV_IMGBTN_STATE_RELEASED;
 143              		.loc 1 354 19 is_stmt 0 view .LVU31
 144 0034 036B     		ldr	r3, [r0, #48]
 145 0036 002B     		cmp	r3, #0
 146 0038 EAD0     		beq	.L18
 147              	.L16:
 346:Drivers/lvgl/src/extra/widgets/imgbtn/lv_imgbtn.c ****                 if(imgbtn->img_src_mid[LV_IMGBTN_STATE_PRESSED]) return LV_IMGBTN_STATE_PRESSED;
 148              		.loc 1 346 82 discriminator 1 view .LVU32
 149 003a 0320     		movs	r0, #3
 150              	.LVL15:
 363:Drivers/lvgl/src/extra/widgets/imgbtn/lv_imgbtn.c **** }
 151              		.loc 1 363 1 view .LVU33
 152 003c 7047     		bx	lr
 153              	.LVL16:
 154              	.L11:
 340:Drivers/lvgl/src/extra/widgets/imgbtn/lv_imgbtn.c ****                 break;
 155              		.loc 1 340 17 is_stmt 1 view .LVU34
 340:Drivers/lvgl/src/extra/widgets/imgbtn/lv_imgbtn.c ****                 break;
 156              		.loc 1 340 19 is_stmt 0 view .LVU35
 157 003e 406A     		ldr	r0, [r0, #36]
 158              	.LVL17:
 340:Drivers/lvgl/src/extra/widgets/imgbtn/lv_imgbtn.c ****                 break;
 159              		.loc 1 340 19 view .LVU36
 160 0040 B0FA80F0 		clz	r0, r0
 161 0044 4009     		lsrs	r0, r0, #5
 162 0046 7047     		bx	lr
 163              	.LVL18:
 164              	.L19:
 348:Drivers/lvgl/src/extra/widgets/imgbtn/lv_imgbtn.c ****                 break;
 165              		.loc 1 348 17 is_stmt 1 view .LVU37
 348:Drivers/lvgl/src/extra/widgets/imgbtn/lv_imgbtn.c ****                 break;
 166              		.loc 1 348 19 is_stmt 0 view .LVU38
 167 0048 416A     		ldr	r1, [r0, #36]
 168              	.LVL19:
 348:Drivers/lvgl/src/extra/widgets/imgbtn/lv_imgbtn.c ****                 break;
 169              		.loc 1 348 19 view .LVU39
 170 004a B1FA81F1 		clz	r1, r1
 171 004e 4909     		lsrs	r1, r1, #5
 172 0050 8800     		lsls	r0, r1, #2
 173              	.LVL20:
 348:Drivers/lvgl/src/extra/widgets/imgbtn/lv_imgbtn.c ****                 break;
 174              		.loc 1 348 19 view .LVU40
 175 0052 7047     		bx	lr
 176              	.LVL21:
 177              	.L12:
 338:Drivers/lvgl/src/extra/widgets/imgbtn/lv_imgbtn.c ****             case LV_IMGBTN_STATE_PRESSED:
 178              		.loc 1 338 9 view .LVU41
 179 0054 0846     		mov	r0, r1
 180              	.LVL22:
 338:Drivers/lvgl/src/extra/widgets/imgbtn/lv_imgbtn.c ****             case LV_IMGBTN_STATE_PRESSED:
 181              		.loc 1 338 9 view .LVU42
 182 0056 7047     		bx	lr
 183              		.cfi_endproc
 184              	.LFE216:
 186              		.section	.text.lv_imgbtn_create,"ax",%progbits
 187              		.align	1
ARM GAS  /var/folders/lp/x54gwt890xv47sdkqj1k04q40000gn/T//cc18aQ1b.s 			page 11


 188              		.p2align 2,,3
 189              		.global	lv_imgbtn_create
 190              		.syntax unified
 191              		.thumb
 192              		.thumb_func
 194              	lv_imgbtn_create:
 195              	.LVL23:
 196              	.LFB204:
  57:Drivers/lvgl/src/extra/widgets/imgbtn/lv_imgbtn.c ****     LV_LOG_INFO("begin");
 197              		.loc 1 57 1 is_stmt 1 view -0
 198              		.cfi_startproc
 199              		@ args = 0, pretend = 0, frame = 0
 200              		@ frame_needed = 0, uses_anonymous_args = 0
  58:Drivers/lvgl/src/extra/widgets/imgbtn/lv_imgbtn.c ****     lv_obj_t * obj = lv_obj_class_create_obj(MY_CLASS, parent);
 201              		.loc 1 58 5 view .LVU44
  58:Drivers/lvgl/src/extra/widgets/imgbtn/lv_imgbtn.c ****     lv_obj_t * obj = lv_obj_class_create_obj(MY_CLASS, parent);
 202              		.loc 1 58 5 view .LVU45
  58:Drivers/lvgl/src/extra/widgets/imgbtn/lv_imgbtn.c ****     lv_obj_t * obj = lv_obj_class_create_obj(MY_CLASS, parent);
 203              		.loc 1 58 5 view .LVU46
  59:Drivers/lvgl/src/extra/widgets/imgbtn/lv_imgbtn.c ****     lv_obj_class_init_obj(obj);
 204              		.loc 1 59 5 view .LVU47
  57:Drivers/lvgl/src/extra/widgets/imgbtn/lv_imgbtn.c ****     LV_LOG_INFO("begin");
 205              		.loc 1 57 1 is_stmt 0 view .LVU48
 206 0000 10B5     		push	{r4, lr}
 207              		.cfi_def_cfa_offset 8
 208              		.cfi_offset 4, -8
 209              		.cfi_offset 14, -4
  57:Drivers/lvgl/src/extra/widgets/imgbtn/lv_imgbtn.c ****     LV_LOG_INFO("begin");
 210              		.loc 1 57 1 view .LVU49
 211 0002 0146     		mov	r1, r0
  59:Drivers/lvgl/src/extra/widgets/imgbtn/lv_imgbtn.c ****     lv_obj_class_init_obj(obj);
 212              		.loc 1 59 22 view .LVU50
 213 0004 0348     		ldr	r0, .L22
 214              	.LVL24:
  59:Drivers/lvgl/src/extra/widgets/imgbtn/lv_imgbtn.c ****     lv_obj_class_init_obj(obj);
 215              		.loc 1 59 22 view .LVU51
 216 0006 FFF7FEFF 		bl	lv_obj_class_create_obj
 217              	.LVL25:
  59:Drivers/lvgl/src/extra/widgets/imgbtn/lv_imgbtn.c ****     lv_obj_class_init_obj(obj);
 218              		.loc 1 59 22 view .LVU52
 219 000a 0446     		mov	r4, r0
 220              	.LVL26:
  60:Drivers/lvgl/src/extra/widgets/imgbtn/lv_imgbtn.c ****     return obj;
 221              		.loc 1 60 5 is_stmt 1 view .LVU53
 222 000c FFF7FEFF 		bl	lv_obj_class_init_obj
 223              	.LVL27:
  61:Drivers/lvgl/src/extra/widgets/imgbtn/lv_imgbtn.c **** }
 224              		.loc 1 61 5 view .LVU54
  62:Drivers/lvgl/src/extra/widgets/imgbtn/lv_imgbtn.c **** 
 225              		.loc 1 62 1 is_stmt 0 view .LVU55
 226 0010 2046     		mov	r0, r4
 227 0012 10BD     		pop	{r4, pc}
 228              	.LVL28:
 229              	.L23:
  62:Drivers/lvgl/src/extra/widgets/imgbtn/lv_imgbtn.c **** 
 230              		.loc 1 62 1 view .LVU56
 231              		.align	2
ARM GAS  /var/folders/lp/x54gwt890xv47sdkqj1k04q40000gn/T//cc18aQ1b.s 			page 12


 232              	.L22:
 233 0014 00000000 		.word	lv_imgbtn_class
 234              		.cfi_endproc
 235              	.LFE204:
 237              		.section	.text.lv_imgbtn_get_src_left,"ax",%progbits
 238              		.align	1
 239              		.p2align 2,,3
 240              		.global	lv_imgbtn_get_src_left
 241              		.syntax unified
 242              		.thumb
 243              		.thumb_func
 245              	lv_imgbtn_get_src_left:
 246              	.LVL29:
 247              	.LFB207:
 123:Drivers/lvgl/src/extra/widgets/imgbtn/lv_imgbtn.c ****     LV_ASSERT_OBJ(obj, MY_CLASS);
 248              		.loc 1 123 1 is_stmt 1 view -0
 249              		.cfi_startproc
 250              		@ args = 0, pretend = 0, frame = 0
 251              		@ frame_needed = 0, uses_anonymous_args = 0
 252              		@ link register save eliminated.
 124:Drivers/lvgl/src/extra/widgets/imgbtn/lv_imgbtn.c **** 
 253              		.loc 1 124 5 view .LVU58
 124:Drivers/lvgl/src/extra/widgets/imgbtn/lv_imgbtn.c **** 
 254              		.loc 1 124 5 view .LVU59
 124:Drivers/lvgl/src/extra/widgets/imgbtn/lv_imgbtn.c **** 
 255              		.loc 1 124 5 view .LVU60
 126:Drivers/lvgl/src/extra/widgets/imgbtn/lv_imgbtn.c **** 
 256              		.loc 1 126 5 view .LVU61
 128:Drivers/lvgl/src/extra/widgets/imgbtn/lv_imgbtn.c **** }
 257              		.loc 1 128 5 view .LVU62
 128:Drivers/lvgl/src/extra/widgets/imgbtn/lv_imgbtn.c **** }
 258              		.loc 1 128 32 is_stmt 0 view .LVU63
 259 0000 00EB8100 		add	r0, r0, r1, lsl #2
 260              	.LVL30:
 129:Drivers/lvgl/src/extra/widgets/imgbtn/lv_imgbtn.c **** 
 261              		.loc 1 129 1 view .LVU64
 262 0004 C06B     		ldr	r0, [r0, #60]
 263 0006 7047     		bx	lr
 264              		.cfi_endproc
 265              	.LFE207:
 267              		.section	.text.lv_imgbtn_get_src_middle,"ax",%progbits
 268              		.align	1
 269              		.p2align 2,,3
 270              		.global	lv_imgbtn_get_src_middle
 271              		.syntax unified
 272              		.thumb
 273              		.thumb_func
 275              	lv_imgbtn_get_src_middle:
 276              	.LVL31:
 277              	.LFB208:
 138:Drivers/lvgl/src/extra/widgets/imgbtn/lv_imgbtn.c ****     LV_ASSERT_OBJ(obj, MY_CLASS);
 278              		.loc 1 138 1 is_stmt 1 view -0
 279              		.cfi_startproc
 280              		@ args = 0, pretend = 0, frame = 0
 281              		@ frame_needed = 0, uses_anonymous_args = 0
 282              		@ link register save eliminated.
 139:Drivers/lvgl/src/extra/widgets/imgbtn/lv_imgbtn.c ****     lv_imgbtn_t * imgbtn = (lv_imgbtn_t *)obj;
ARM GAS  /var/folders/lp/x54gwt890xv47sdkqj1k04q40000gn/T//cc18aQ1b.s 			page 13


 283              		.loc 1 139 5 view .LVU66
 139:Drivers/lvgl/src/extra/widgets/imgbtn/lv_imgbtn.c ****     lv_imgbtn_t * imgbtn = (lv_imgbtn_t *)obj;
 284              		.loc 1 139 5 view .LVU67
 139:Drivers/lvgl/src/extra/widgets/imgbtn/lv_imgbtn.c ****     lv_imgbtn_t * imgbtn = (lv_imgbtn_t *)obj;
 285              		.loc 1 139 5 view .LVU68
 140:Drivers/lvgl/src/extra/widgets/imgbtn/lv_imgbtn.c **** 
 286              		.loc 1 140 5 view .LVU69
 142:Drivers/lvgl/src/extra/widgets/imgbtn/lv_imgbtn.c **** }
 287              		.loc 1 142 5 view .LVU70
 142:Drivers/lvgl/src/extra/widgets/imgbtn/lv_imgbtn.c **** }
 288              		.loc 1 142 31 is_stmt 0 view .LVU71
 289 0000 00EB8100 		add	r0, r0, r1, lsl #2
 290              	.LVL32:
 143:Drivers/lvgl/src/extra/widgets/imgbtn/lv_imgbtn.c **** 
 291              		.loc 1 143 1 view .LVU72
 292 0004 406A     		ldr	r0, [r0, #36]
 293 0006 7047     		bx	lr
 294              		.cfi_endproc
 295              	.LFE208:
 297              		.section	.text.lv_imgbtn_get_src_right,"ax",%progbits
 298              		.align	1
 299              		.p2align 2,,3
 300              		.global	lv_imgbtn_get_src_right
 301              		.syntax unified
 302              		.thumb
 303              		.thumb_func
 305              	lv_imgbtn_get_src_right:
 306              	.LVL33:
 307              	.LFB209:
 152:Drivers/lvgl/src/extra/widgets/imgbtn/lv_imgbtn.c ****     LV_ASSERT_OBJ(obj, MY_CLASS);
 308              		.loc 1 152 1 is_stmt 1 view -0
 309              		.cfi_startproc
 310              		@ args = 0, pretend = 0, frame = 0
 311              		@ frame_needed = 0, uses_anonymous_args = 0
 312              		@ link register save eliminated.
 153:Drivers/lvgl/src/extra/widgets/imgbtn/lv_imgbtn.c ****     lv_imgbtn_t * imgbtn = (lv_imgbtn_t *)obj;
 313              		.loc 1 153 5 view .LVU74
 153:Drivers/lvgl/src/extra/widgets/imgbtn/lv_imgbtn.c ****     lv_imgbtn_t * imgbtn = (lv_imgbtn_t *)obj;
 314              		.loc 1 153 5 view .LVU75
 153:Drivers/lvgl/src/extra/widgets/imgbtn/lv_imgbtn.c ****     lv_imgbtn_t * imgbtn = (lv_imgbtn_t *)obj;
 315              		.loc 1 153 5 view .LVU76
 154:Drivers/lvgl/src/extra/widgets/imgbtn/lv_imgbtn.c **** 
 316              		.loc 1 154 5 view .LVU77
 156:Drivers/lvgl/src/extra/widgets/imgbtn/lv_imgbtn.c **** }
 317              		.loc 1 156 5 view .LVU78
 156:Drivers/lvgl/src/extra/widgets/imgbtn/lv_imgbtn.c **** }
 318              		.loc 1 156 33 is_stmt 0 view .LVU79
 319 0000 00EB8100 		add	r0, r0, r1, lsl #2
 320              	.LVL34:
 157:Drivers/lvgl/src/extra/widgets/imgbtn/lv_imgbtn.c **** 
 321              		.loc 1 157 1 view .LVU80
 322 0004 406D     		ldr	r0, [r0, #84]
 323 0006 7047     		bx	lr
 324              		.cfi_endproc
 325              	.LFE209:
 327              		.section	.text.get_state,"ax",%progbits
 328              		.align	1
ARM GAS  /var/folders/lp/x54gwt890xv47sdkqj1k04q40000gn/T//cc18aQ1b.s 			page 14


 329              		.p2align 2,,3
 330              		.global	get_state
 331              		.syntax unified
 332              		.thumb
 333              		.thumb_func
 335              	get_state:
 336              	.LVL35:
 337              	.LFB215:
 364:Drivers/lvgl/src/extra/widgets/imgbtn/lv_imgbtn.c **** 
 365:Drivers/lvgl/src/extra/widgets/imgbtn/lv_imgbtn.c **** lv_imgbtn_state_t get_state(const lv_obj_t * imgbtn)
 366:Drivers/lvgl/src/extra/widgets/imgbtn/lv_imgbtn.c **** {
 338              		.loc 1 366 1 is_stmt 1 view -0
 339              		.cfi_startproc
 340              		@ args = 0, pretend = 0, frame = 0
 341              		@ frame_needed = 0, uses_anonymous_args = 0
 367:Drivers/lvgl/src/extra/widgets/imgbtn/lv_imgbtn.c ****     LV_ASSERT_OBJ(imgbtn, MY_CLASS);
 342              		.loc 1 367 5 view .LVU82
 343              		.loc 1 367 5 view .LVU83
 344              		.loc 1 367 5 view .LVU84
 368:Drivers/lvgl/src/extra/widgets/imgbtn/lv_imgbtn.c **** 
 369:Drivers/lvgl/src/extra/widgets/imgbtn/lv_imgbtn.c ****     lv_state_t obj_state = lv_obj_get_state(imgbtn);
 345              		.loc 1 369 5 view .LVU85
 366:Drivers/lvgl/src/extra/widgets/imgbtn/lv_imgbtn.c ****     LV_ASSERT_OBJ(imgbtn, MY_CLASS);
 346              		.loc 1 366 1 is_stmt 0 view .LVU86
 347 0000 08B5     		push	{r3, lr}
 348              		.cfi_def_cfa_offset 8
 349              		.cfi_offset 3, -8
 350              		.cfi_offset 14, -4
 351              		.loc 1 369 28 view .LVU87
 352 0002 FFF7FEFF 		bl	lv_obj_get_state
 353              	.LVL36:
 370:Drivers/lvgl/src/extra/widgets/imgbtn/lv_imgbtn.c **** 
 371:Drivers/lvgl/src/extra/widgets/imgbtn/lv_imgbtn.c ****     if(obj_state & LV_STATE_DISABLED) {
 354              		.loc 1 371 5 is_stmt 1 view .LVU88
 355              		.loc 1 371 7 is_stmt 0 view .LVU89
 356 0006 0106     		lsls	r1, r0, #24
 357 0008 05D5     		bpl	.L28
 372:Drivers/lvgl/src/extra/widgets/imgbtn/lv_imgbtn.c ****         if(obj_state & LV_STATE_CHECKED) return LV_IMGBTN_STATE_CHECKED_DISABLED;
 358              		.loc 1 372 9 is_stmt 1 view .LVU90
 359              		.loc 1 372 49 is_stmt 0 discriminator 1 view .LVU91
 360 000a 10F0010F 		tst	r0, #1
 361 000e 0CBF     		ite	eq
 362 0010 0220     		moveq	r0, #2
 363              	.LVL37:
 364              		.loc 1 372 49 discriminator 1 view .LVU92
 365 0012 0520     		movne	r0, #5
 373:Drivers/lvgl/src/extra/widgets/imgbtn/lv_imgbtn.c ****         else return LV_IMGBTN_STATE_DISABLED;
 374:Drivers/lvgl/src/extra/widgets/imgbtn/lv_imgbtn.c ****     }
 375:Drivers/lvgl/src/extra/widgets/imgbtn/lv_imgbtn.c **** 
 376:Drivers/lvgl/src/extra/widgets/imgbtn/lv_imgbtn.c ****     if(obj_state & LV_STATE_CHECKED) {
 377:Drivers/lvgl/src/extra/widgets/imgbtn/lv_imgbtn.c ****         if(obj_state & LV_STATE_PRESSED) return LV_IMGBTN_STATE_CHECKED_PRESSED;
 378:Drivers/lvgl/src/extra/widgets/imgbtn/lv_imgbtn.c ****         else return LV_IMGBTN_STATE_CHECKED_RELEASED;
 379:Drivers/lvgl/src/extra/widgets/imgbtn/lv_imgbtn.c ****     }
 380:Drivers/lvgl/src/extra/widgets/imgbtn/lv_imgbtn.c ****     else {
 381:Drivers/lvgl/src/extra/widgets/imgbtn/lv_imgbtn.c ****         if(obj_state & LV_STATE_PRESSED) return LV_IMGBTN_STATE_PRESSED;
 382:Drivers/lvgl/src/extra/widgets/imgbtn/lv_imgbtn.c ****         else return LV_IMGBTN_STATE_RELEASED;
 383:Drivers/lvgl/src/extra/widgets/imgbtn/lv_imgbtn.c ****     }
ARM GAS  /var/folders/lp/x54gwt890xv47sdkqj1k04q40000gn/T//cc18aQ1b.s 			page 15


 384:Drivers/lvgl/src/extra/widgets/imgbtn/lv_imgbtn.c **** }
 366              		.loc 1 384 1 view .LVU93
 367 0014 08BD     		pop	{r3, pc}
 368              	.LVL38:
 369              	.L28:
 376:Drivers/lvgl/src/extra/widgets/imgbtn/lv_imgbtn.c ****         if(obj_state & LV_STATE_PRESSED) return LV_IMGBTN_STATE_CHECKED_PRESSED;
 370              		.loc 1 376 5 is_stmt 1 view .LVU94
 376:Drivers/lvgl/src/extra/widgets/imgbtn/lv_imgbtn.c ****         if(obj_state & LV_STATE_PRESSED) return LV_IMGBTN_STATE_CHECKED_PRESSED;
 371              		.loc 1 376 7 is_stmt 0 view .LVU95
 372 0016 C207     		lsls	r2, r0, #31
 373 0018 00F02003 		and	r3, r0, #32
 374 001c 04D5     		bpl	.L30
 377:Drivers/lvgl/src/extra/widgets/imgbtn/lv_imgbtn.c ****         else return LV_IMGBTN_STATE_CHECKED_RELEASED;
 375              		.loc 1 377 9 is_stmt 1 view .LVU96
 377:Drivers/lvgl/src/extra/widgets/imgbtn/lv_imgbtn.c ****         else return LV_IMGBTN_STATE_CHECKED_RELEASED;
 376              		.loc 1 377 49 is_stmt 0 discriminator 1 view .LVU97
 377 001e 002B     		cmp	r3, #0
 378 0020 0CBF     		ite	eq
 379 0022 0320     		moveq	r0, #3
 380              	.LVL39:
 377:Drivers/lvgl/src/extra/widgets/imgbtn/lv_imgbtn.c ****         else return LV_IMGBTN_STATE_CHECKED_RELEASED;
 381              		.loc 1 377 49 discriminator 1 view .LVU98
 382 0024 0420     		movne	r0, #4
 383              		.loc 1 384 1 view .LVU99
 384 0026 08BD     		pop	{r3, pc}
 385              	.LVL40:
 386              	.L30:
 381:Drivers/lvgl/src/extra/widgets/imgbtn/lv_imgbtn.c ****         else return LV_IMGBTN_STATE_RELEASED;
 387              		.loc 1 381 9 is_stmt 1 view .LVU100
 381:Drivers/lvgl/src/extra/widgets/imgbtn/lv_imgbtn.c ****         else return LV_IMGBTN_STATE_RELEASED;
 388              		.loc 1 381 11 is_stmt 0 view .LVU101
 389 0028 181E     		subs	r0, r3, #0
 390              	.LVL41:
 381:Drivers/lvgl/src/extra/widgets/imgbtn/lv_imgbtn.c ****         else return LV_IMGBTN_STATE_RELEASED;
 391              		.loc 1 381 11 view .LVU102
 392 002a 18BF     		it	ne
 393 002c 0120     		movne	r0, #1
 394              		.loc 1 384 1 view .LVU103
 395 002e 08BD     		pop	{r3, pc}
 396              		.cfi_endproc
 397              	.LFE215:
 399              		.section	.text.refr_img,"ax",%progbits
 400              		.align	1
 401              		.p2align 2,,3
 402              		.syntax unified
 403              		.thumb
 404              		.thumb_func
 406              	refr_img:
 407              	.LVL42:
 408              	.LFB213:
 304:Drivers/lvgl/src/extra/widgets/imgbtn/lv_imgbtn.c ****     lv_imgbtn_t * imgbtn = (lv_imgbtn_t *)obj;
 409              		.loc 1 304 1 is_stmt 1 view -0
 410              		.cfi_startproc
 411              		@ args = 0, pretend = 0, frame = 8
 412              		@ frame_needed = 0, uses_anonymous_args = 0
 305:Drivers/lvgl/src/extra/widgets/imgbtn/lv_imgbtn.c ****     lv_imgbtn_state_t state  = suggest_state(obj, get_state(obj));
 413              		.loc 1 305 5 view .LVU105
ARM GAS  /var/folders/lp/x54gwt890xv47sdkqj1k04q40000gn/T//cc18aQ1b.s 			page 16


 304:Drivers/lvgl/src/extra/widgets/imgbtn/lv_imgbtn.c ****     lv_imgbtn_t * imgbtn = (lv_imgbtn_t *)obj;
 414              		.loc 1 304 1 is_stmt 0 view .LVU106
 415 0000 10B5     		push	{r4, lr}
 416              		.cfi_def_cfa_offset 8
 417              		.cfi_offset 4, -8
 418              		.cfi_offset 14, -4
 419 0002 82B0     		sub	sp, sp, #8
 420              		.cfi_def_cfa_offset 16
 304:Drivers/lvgl/src/extra/widgets/imgbtn/lv_imgbtn.c ****     lv_imgbtn_t * imgbtn = (lv_imgbtn_t *)obj;
 421              		.loc 1 304 1 view .LVU107
 422 0004 0446     		mov	r4, r0
 423              	.LVL43:
 306:Drivers/lvgl/src/extra/widgets/imgbtn/lv_imgbtn.c ****     lv_img_header_t header;
 424              		.loc 1 306 5 is_stmt 1 view .LVU108
 306:Drivers/lvgl/src/extra/widgets/imgbtn/lv_imgbtn.c ****     lv_img_header_t header;
 425              		.loc 1 306 32 is_stmt 0 view .LVU109
 426 0006 FFF7FEFF 		bl	get_state
 427              	.LVL44:
 428              	.LBB15:
 429              	.LBB16:
 337:Drivers/lvgl/src/extra/widgets/imgbtn/lv_imgbtn.c ****         switch(state) {
 430              		.loc 1 337 27 view .LVU110
 431 000a 04EB8003 		add	r3, r4, r0, lsl #2
 432              	.LBE16:
 433              	.LBE15:
 306:Drivers/lvgl/src/extra/widgets/imgbtn/lv_imgbtn.c ****     lv_img_header_t header;
 434              		.loc 1 306 32 view .LVU111
 435 000e 0146     		mov	r1, r0
 436              	.LVL45:
 437              	.LBB19:
 438              	.LBI15:
 334:Drivers/lvgl/src/extra/widgets/imgbtn/lv_imgbtn.c **** {
 439              		.loc 1 334 26 is_stmt 1 view .LVU112
 440              	.LBB17:
 336:Drivers/lvgl/src/extra/widgets/imgbtn/lv_imgbtn.c ****     if(imgbtn->img_src_mid[state] == NULL) {
 441              		.loc 1 336 5 view .LVU113
 337:Drivers/lvgl/src/extra/widgets/imgbtn/lv_imgbtn.c ****         switch(state) {
 442              		.loc 1 337 5 view .LVU114
 337:Drivers/lvgl/src/extra/widgets/imgbtn/lv_imgbtn.c ****         switch(state) {
 443              		.loc 1 337 27 is_stmt 0 view .LVU115
 444 0010 586A     		ldr	r0, [r3, #36]
 445              	.LVL46:
 337:Drivers/lvgl/src/extra/widgets/imgbtn/lv_imgbtn.c ****         switch(state) {
 446              		.loc 1 337 7 view .LVU116
 447 0012 60B1     		cbz	r0, .L44
 448              	.LVL47:
 449              	.L35:
 337:Drivers/lvgl/src/extra/widgets/imgbtn/lv_imgbtn.c ****         switch(state) {
 450              		.loc 1 337 7 view .LVU117
 451              	.LBE17:
 452              	.LBE19:
 312:Drivers/lvgl/src/extra/widgets/imgbtn/lv_imgbtn.c ****     info_res = lv_img_decoder_get_info(src, &header);
 453              		.loc 1 312 5 is_stmt 1 view .LVU118
 313:Drivers/lvgl/src/extra/widgets/imgbtn/lv_imgbtn.c **** 
 454              		.loc 1 313 5 view .LVU119
 313:Drivers/lvgl/src/extra/widgets/imgbtn/lv_imgbtn.c **** 
 455              		.loc 1 313 16 is_stmt 0 view .LVU120
ARM GAS  /var/folders/lp/x54gwt890xv47sdkqj1k04q40000gn/T//cc18aQ1b.s 			page 17


 456 0014 01A9     		add	r1, sp, #4
 457 0016 FFF7FEFF 		bl	lv_img_decoder_get_info
 458              	.LVL48:
 315:Drivers/lvgl/src/extra/widgets/imgbtn/lv_imgbtn.c ****         imgbtn->act_cf = header.cf;
 459              		.loc 1 315 5 is_stmt 1 view .LVU121
 315:Drivers/lvgl/src/extra/widgets/imgbtn/lv_imgbtn.c ****         imgbtn->act_cf = header.cf;
 460              		.loc 1 315 7 is_stmt 0 view .LVU122
 461 001a 0128     		cmp	r0, #1
 462 001c 11D0     		beq	.L45
 321:Drivers/lvgl/src/extra/widgets/imgbtn/lv_imgbtn.c ****     }
 463              		.loc 1 321 9 is_stmt 1 view .LVU123
 321:Drivers/lvgl/src/extra/widgets/imgbtn/lv_imgbtn.c ****     }
 464              		.loc 1 321 24 is_stmt 0 view .LVU124
 465 001e 0023     		movs	r3, #0
 466 0020 84F86C30 		strb	r3, [r4, #108]
 467              	.LVL49:
 468              	.L38:
 324:Drivers/lvgl/src/extra/widgets/imgbtn/lv_imgbtn.c **** }
 469              		.loc 1 324 5 is_stmt 1 view .LVU125
 470 0024 2046     		mov	r0, r4
 471 0026 FFF7FEFF 		bl	lv_obj_invalidate
 472              	.LVL50:
 325:Drivers/lvgl/src/extra/widgets/imgbtn/lv_imgbtn.c **** 
 473              		.loc 1 325 1 is_stmt 0 view .LVU126
 474 002a 02B0     		add	sp, sp, #8
 475              		.cfi_remember_state
 476              		.cfi_def_cfa_offset 8
 477              		@ sp needed
 478 002c 10BD     		pop	{r4, pc}
 479              	.LVL51:
 480              	.L44:
 481              		.cfi_restore_state
 482              	.LBB20:
 483              	.LBB18:
 325:Drivers/lvgl/src/extra/widgets/imgbtn/lv_imgbtn.c **** 
 484              		.loc 1 325 1 view .LVU127
 485 002e 2046     		mov	r0, r4
 486 0030 FFF7FEFF 		bl	suggest_state.part.0
 487              	.LVL52:
 325:Drivers/lvgl/src/extra/widgets/imgbtn/lv_imgbtn.c **** 
 488              		.loc 1 325 1 view .LVU128
 489              	.LBE18:
 490              	.LBE20:
 307:Drivers/lvgl/src/extra/widgets/imgbtn/lv_imgbtn.c **** 
 491              		.loc 1 307 5 is_stmt 1 view .LVU129
 309:Drivers/lvgl/src/extra/widgets/imgbtn/lv_imgbtn.c ****     if(src == NULL) return;
 492              		.loc 1 309 5 view .LVU130
 309:Drivers/lvgl/src/extra/widgets/imgbtn/lv_imgbtn.c ****     if(src == NULL) return;
 493              		.loc 1 309 18 is_stmt 0 view .LVU131
 494 0034 04EB8000 		add	r0, r4, r0, lsl #2
 495              	.LVL53:
 309:Drivers/lvgl/src/extra/widgets/imgbtn/lv_imgbtn.c ****     if(src == NULL) return;
 496              		.loc 1 309 18 view .LVU132
 497 0038 406A     		ldr	r0, [r0, #36]
 498              	.LVL54:
 310:Drivers/lvgl/src/extra/widgets/imgbtn/lv_imgbtn.c **** 
 499              		.loc 1 310 5 is_stmt 1 view .LVU133
ARM GAS  /var/folders/lp/x54gwt890xv47sdkqj1k04q40000gn/T//cc18aQ1b.s 			page 18


 310:Drivers/lvgl/src/extra/widgets/imgbtn/lv_imgbtn.c **** 
 500              		.loc 1 310 7 is_stmt 0 view .LVU134
 501 003a 0028     		cmp	r0, #0
 502 003c EAD1     		bne	.L35
 325:Drivers/lvgl/src/extra/widgets/imgbtn/lv_imgbtn.c **** 
 503              		.loc 1 325 1 view .LVU135
 504 003e 02B0     		add	sp, sp, #8
 505              		.cfi_remember_state
 506              		.cfi_def_cfa_offset 8
 507              		@ sp needed
 508 0040 10BD     		pop	{r4, pc}
 509              	.LVL55:
 510              	.L45:
 511              		.cfi_restore_state
 316:Drivers/lvgl/src/extra/widgets/imgbtn/lv_imgbtn.c ****         lv_obj_refresh_self_size(obj);
 512              		.loc 1 316 9 is_stmt 1 view .LVU136
 316:Drivers/lvgl/src/extra/widgets/imgbtn/lv_imgbtn.c ****         lv_obj_refresh_self_size(obj);
 513              		.loc 1 316 32 is_stmt 0 view .LVU137
 514 0042 9DF80430 		ldrb	r3, [sp, #4]	@ zero_extendqisi2
 515 0046 C3F30403 		ubfx	r3, r3, #0, #5
 317:Drivers/lvgl/src/extra/widgets/imgbtn/lv_imgbtn.c ****         lv_obj_set_height(obj, header.h); /*Keep the user defined width*/
 516              		.loc 1 317 9 view .LVU138
 517 004a 2046     		mov	r0, r4
 518              	.LVL56:
 316:Drivers/lvgl/src/extra/widgets/imgbtn/lv_imgbtn.c ****         lv_obj_refresh_self_size(obj);
 519              		.loc 1 316 24 view .LVU139
 520 004c 84F86C30 		strb	r3, [r4, #108]
 317:Drivers/lvgl/src/extra/widgets/imgbtn/lv_imgbtn.c ****         lv_obj_set_height(obj, header.h); /*Keep the user defined width*/
 521              		.loc 1 317 9 is_stmt 1 view .LVU140
 522 0050 FFF7FEFF 		bl	lv_obj_refresh_self_size
 523              	.LVL57:
 318:Drivers/lvgl/src/extra/widgets/imgbtn/lv_imgbtn.c ****     }
 524              		.loc 1 318 9 view .LVU141
 318:Drivers/lvgl/src/extra/widgets/imgbtn/lv_imgbtn.c ****     }
 525              		.loc 1 318 38 is_stmt 0 view .LVU142
 526 0054 BDF80610 		ldrh	r1, [sp, #6]
 318:Drivers/lvgl/src/extra/widgets/imgbtn/lv_imgbtn.c ****     }
 527              		.loc 1 318 9 view .LVU143
 528 0058 2046     		mov	r0, r4
 529 005a C1F34A11 		ubfx	r1, r1, #5, #11
 530 005e FFF7FEFF 		bl	lv_obj_set_height
 531              	.LVL58:
 532 0062 DFE7     		b	.L38
 533              		.cfi_endproc
 534              	.LFE213:
 536              		.section	.text.lv_imgbtn_set_src,"ax",%progbits
 537              		.align	1
 538              		.p2align 2,,3
 539              		.global	lv_imgbtn_set_src
 540              		.syntax unified
 541              		.thumb
 542              		.thumb_func
 544              	lv_imgbtn_set_src:
 545              	.LVL59:
 546              	.LFB205:
  81:Drivers/lvgl/src/extra/widgets/imgbtn/lv_imgbtn.c ****     LV_ASSERT_OBJ(obj, MY_CLASS);
 547              		.loc 1 81 1 is_stmt 1 view -0
ARM GAS  /var/folders/lp/x54gwt890xv47sdkqj1k04q40000gn/T//cc18aQ1b.s 			page 19


 548              		.cfi_startproc
 549              		@ args = 4, pretend = 0, frame = 0
 550              		@ frame_needed = 0, uses_anonymous_args = 0
 551              		@ link register save eliminated.
  82:Drivers/lvgl/src/extra/widgets/imgbtn/lv_imgbtn.c **** 
 552              		.loc 1 82 5 view .LVU145
  82:Drivers/lvgl/src/extra/widgets/imgbtn/lv_imgbtn.c **** 
 553              		.loc 1 82 5 view .LVU146
  82:Drivers/lvgl/src/extra/widgets/imgbtn/lv_imgbtn.c **** 
 554              		.loc 1 82 5 view .LVU147
  84:Drivers/lvgl/src/extra/widgets/imgbtn/lv_imgbtn.c **** 
 555              		.loc 1 84 5 view .LVU148
  86:Drivers/lvgl/src/extra/widgets/imgbtn/lv_imgbtn.c ****     imgbtn->img_src_mid[state] = src_mid;
 556              		.loc 1 86 5 view .LVU149
 557 0000 00EB8101 		add	r1, r0, r1, lsl #2
 558              	.LVL60:
  87:Drivers/lvgl/src/extra/widgets/imgbtn/lv_imgbtn.c ****     imgbtn->img_src_right[state] = src_right;
 559              		.loc 1 87 32 is_stmt 0 view .LVU150
 560 0004 4B62     		str	r3, [r1, #36]
  81:Drivers/lvgl/src/extra/widgets/imgbtn/lv_imgbtn.c ****     LV_ASSERT_OBJ(obj, MY_CLASS);
 561              		.loc 1 81 1 view .LVU151
 562 0006 009B     		ldr	r3, [sp]
 563              	.LVL61:
  86:Drivers/lvgl/src/extra/widgets/imgbtn/lv_imgbtn.c ****     imgbtn->img_src_mid[state] = src_mid;
 564              		.loc 1 86 33 view .LVU152
 565 0008 CA63     		str	r2, [r1, #60]
  87:Drivers/lvgl/src/extra/widgets/imgbtn/lv_imgbtn.c ****     imgbtn->img_src_right[state] = src_right;
 566              		.loc 1 87 5 is_stmt 1 view .LVU153
  88:Drivers/lvgl/src/extra/widgets/imgbtn/lv_imgbtn.c **** 
 567              		.loc 1 88 5 view .LVU154
  88:Drivers/lvgl/src/extra/widgets/imgbtn/lv_imgbtn.c **** 
 568              		.loc 1 88 34 is_stmt 0 view .LVU155
 569 000a 4B65     		str	r3, [r1, #84]
  90:Drivers/lvgl/src/extra/widgets/imgbtn/lv_imgbtn.c **** }
 570              		.loc 1 90 5 is_stmt 1 view .LVU156
 571 000c FFF7FEBF 		b	refr_img
 572              	.LVL62:
  90:Drivers/lvgl/src/extra/widgets/imgbtn/lv_imgbtn.c **** }
 573              		.loc 1 90 5 is_stmt 0 view .LVU157
 574              		.cfi_endproc
 575              	.LFE205:
 577              		.section	.text.lv_imgbtn_set_state,"ax",%progbits
 578              		.align	1
 579              		.p2align 2,,3
 580              		.global	lv_imgbtn_set_state
 581              		.syntax unified
 582              		.thumb
 583              		.thumb_func
 585              	lv_imgbtn_set_state:
 586              	.LVL63:
 587              	.LFB206:
  94:Drivers/lvgl/src/extra/widgets/imgbtn/lv_imgbtn.c ****     LV_ASSERT_OBJ(obj, MY_CLASS);
 588              		.loc 1 94 1 is_stmt 1 view -0
 589              		.cfi_startproc
 590              		@ args = 0, pretend = 0, frame = 0
 591              		@ frame_needed = 0, uses_anonymous_args = 0
  95:Drivers/lvgl/src/extra/widgets/imgbtn/lv_imgbtn.c **** 
ARM GAS  /var/folders/lp/x54gwt890xv47sdkqj1k04q40000gn/T//cc18aQ1b.s 			page 20


 592              		.loc 1 95 5 view .LVU159
  95:Drivers/lvgl/src/extra/widgets/imgbtn/lv_imgbtn.c **** 
 593              		.loc 1 95 5 view .LVU160
  95:Drivers/lvgl/src/extra/widgets/imgbtn/lv_imgbtn.c **** 
 594              		.loc 1 95 5 view .LVU161
  97:Drivers/lvgl/src/extra/widgets/imgbtn/lv_imgbtn.c ****     if(state == LV_IMGBTN_STATE_PRESSED || state == LV_IMGBTN_STATE_CHECKED_PRESSED) obj_state |= L
 595              		.loc 1 97 5 view .LVU162
  98:Drivers/lvgl/src/extra/widgets/imgbtn/lv_imgbtn.c ****     if(state == LV_IMGBTN_STATE_DISABLED || state == LV_IMGBTN_STATE_CHECKED_DISABLED) obj_state |=
 596              		.loc 1 98 5 view .LVU163
  98:Drivers/lvgl/src/extra/widgets/imgbtn/lv_imgbtn.c ****     if(state == LV_IMGBTN_STATE_DISABLED || state == LV_IMGBTN_STATE_CHECKED_DISABLED) obj_state |=
 597              		.loc 1 98 7 is_stmt 0 view .LVU164
 598 0000 0129     		cmp	r1, #1
  94:Drivers/lvgl/src/extra/widgets/imgbtn/lv_imgbtn.c ****     LV_ASSERT_OBJ(obj, MY_CLASS);
 599              		.loc 1 94 1 view .LVU165
 600 0002 38B5     		push	{r3, r4, r5, lr}
 601              		.cfi_def_cfa_offset 16
 602              		.cfi_offset 3, -16
 603              		.cfi_offset 4, -12
 604              		.cfi_offset 5, -8
 605              		.cfi_offset 14, -4
  94:Drivers/lvgl/src/extra/widgets/imgbtn/lv_imgbtn.c ****     LV_ASSERT_OBJ(obj, MY_CLASS);
 606              		.loc 1 94 1 view .LVU166
 607 0004 0546     		mov	r5, r0
  98:Drivers/lvgl/src/extra/widgets/imgbtn/lv_imgbtn.c ****     if(state == LV_IMGBTN_STATE_DISABLED || state == LV_IMGBTN_STATE_CHECKED_DISABLED) obj_state |=
 608              		.loc 1 98 7 view .LVU167
 609 0006 1BD0     		beq	.L50
  98:Drivers/lvgl/src/extra/widgets/imgbtn/lv_imgbtn.c ****     if(state == LV_IMGBTN_STATE_DISABLED || state == LV_IMGBTN_STATE_CHECKED_DISABLED) obj_state |=
 610              		.loc 1 98 41 discriminator 2 view .LVU168
 611 0008 0429     		cmp	r1, #4
 612 000a 05D0     		beq	.L51
  99:Drivers/lvgl/src/extra/widgets/imgbtn/lv_imgbtn.c ****     if(state == LV_IMGBTN_STATE_CHECKED_DISABLED || state == LV_IMGBTN_STATE_CHECKED_PRESSED ||
 613              		.loc 1 99 5 is_stmt 1 view .LVU169
  99:Drivers/lvgl/src/extra/widgets/imgbtn/lv_imgbtn.c ****     if(state == LV_IMGBTN_STATE_CHECKED_DISABLED || state == LV_IMGBTN_STATE_CHECKED_PRESSED ||
 614              		.loc 1 99 7 is_stmt 0 view .LVU170
 615 000c 0229     		cmp	r1, #2
 616 000e 19D0     		beq	.L52
 617              	.LVL64:
  99:Drivers/lvgl/src/extra/widgets/imgbtn/lv_imgbtn.c ****     if(state == LV_IMGBTN_STATE_CHECKED_DISABLED || state == LV_IMGBTN_STATE_CHECKED_PRESSED ||
 618              		.loc 1 99 42 discriminator 2 view .LVU171
 619 0010 0529     		cmp	r1, #5
 620 0012 0FD1     		bne	.L56
 621 0014 8124     		movs	r4, #129
 102:Drivers/lvgl/src/extra/widgets/imgbtn/lv_imgbtn.c ****     }
 622              		.loc 1 102 9 is_stmt 1 view .LVU172
 623 0016 00E0     		b	.L48
 624              	.LVL65:
 625              	.L51:
 102:Drivers/lvgl/src/extra/widgets/imgbtn/lv_imgbtn.c ****     }
 626              		.loc 1 102 9 is_stmt 0 view .LVU173
 627 0018 2124     		movs	r4, #33
 628              	.LVL66:
 629              	.L48:
 105:Drivers/lvgl/src/extra/widgets/imgbtn/lv_imgbtn.c ****     lv_obj_add_state(obj, obj_state);
 630              		.loc 1 105 5 is_stmt 1 view .LVU174
 631 001a 2846     		mov	r0, r5
 632              	.LVL67:
 105:Drivers/lvgl/src/extra/widgets/imgbtn/lv_imgbtn.c ****     lv_obj_add_state(obj, obj_state);
ARM GAS  /var/folders/lp/x54gwt890xv47sdkqj1k04q40000gn/T//cc18aQ1b.s 			page 21


 633              		.loc 1 105 5 is_stmt 0 view .LVU175
 634 001c A121     		movs	r1, #161
 635 001e FFF7FEFF 		bl	lv_obj_clear_state
 636              	.LVL68:
 106:Drivers/lvgl/src/extra/widgets/imgbtn/lv_imgbtn.c **** 
 637              		.loc 1 106 5 is_stmt 1 view .LVU176
 638 0022 2846     		mov	r0, r5
 639 0024 2146     		mov	r1, r4
 640 0026 FFF7FEFF 		bl	lv_obj_add_state
 641              	.LVL69:
 108:Drivers/lvgl/src/extra/widgets/imgbtn/lv_imgbtn.c **** }
 642              		.loc 1 108 5 view .LVU177
 643 002a 2846     		mov	r0, r5
 109:Drivers/lvgl/src/extra/widgets/imgbtn/lv_imgbtn.c **** 
 644              		.loc 1 109 1 is_stmt 0 view .LVU178
 645 002c BDE83840 		pop	{r3, r4, r5, lr}
 646              		.cfi_remember_state
 647              		.cfi_restore 14
 648              		.cfi_restore 5
 649              		.cfi_restore 4
 650              		.cfi_restore 3
 651              		.cfi_def_cfa_offset 0
 652              	.LVL70:
 108:Drivers/lvgl/src/extra/widgets/imgbtn/lv_imgbtn.c **** }
 653              		.loc 1 108 5 view .LVU179
 654 0030 FFF7FEBF 		b	refr_img
 655              	.LVL71:
 656              	.L56:
 657              		.cfi_restore_state
 100:Drivers/lvgl/src/extra/widgets/imgbtn/lv_imgbtn.c ****        state == LV_IMGBTN_STATE_CHECKED_RELEASED) {
 658              		.loc 1 100 5 is_stmt 1 view .LVU180
 100:Drivers/lvgl/src/extra/widgets/imgbtn/lv_imgbtn.c ****        state == LV_IMGBTN_STATE_CHECKED_RELEASED) {
 659              		.loc 1 100 7 is_stmt 0 view .LVU181
 660 0034 0339     		subs	r1, r1, #3
 661              	.LVL72:
 100:Drivers/lvgl/src/extra/widgets/imgbtn/lv_imgbtn.c ****        state == LV_IMGBTN_STATE_CHECKED_RELEASED) {
 662              		.loc 1 100 7 view .LVU182
 663 0036 0229     		cmp	r1, #2
 664 0038 8CBF     		ite	hi
 665 003a 0024     		movhi	r4, #0
 666 003c 0124     		movls	r4, #1
 667 003e ECE7     		b	.L48
 668              	.LVL73:
 669              	.L50:
  98:Drivers/lvgl/src/extra/widgets/imgbtn/lv_imgbtn.c ****     if(state == LV_IMGBTN_STATE_DISABLED || state == LV_IMGBTN_STATE_CHECKED_DISABLED) obj_state |=
 670              		.loc 1 98 96 discriminator 3 view .LVU183
 671 0040 2024     		movs	r4, #32
 672 0042 EAE7     		b	.L48
 673              	.L52:
  99:Drivers/lvgl/src/extra/widgets/imgbtn/lv_imgbtn.c ****     if(state == LV_IMGBTN_STATE_CHECKED_DISABLED || state == LV_IMGBTN_STATE_CHECKED_PRESSED ||
 674              		.loc 1 99 98 discriminator 3 view .LVU184
 675 0044 8024     		movs	r4, #128
 676 0046 E8E7     		b	.L48
 677              		.cfi_endproc
 678              	.LFE206:
 680              		.section	.text.lv_imgbtn_event,"ax",%progbits
 681              		.align	1
ARM GAS  /var/folders/lp/x54gwt890xv47sdkqj1k04q40000gn/T//cc18aQ1b.s 			page 22


 682              		.p2align 2,,3
 683              		.syntax unified
 684              		.thumb
 685              		.thumb_func
 687              	lv_imgbtn_event:
 688              	.LVL74:
 689              	.LFB211:
 178:Drivers/lvgl/src/extra/widgets/imgbtn/lv_imgbtn.c ****     LV_UNUSED(class_p);
 690              		.loc 1 178 1 is_stmt 1 view -0
 691              		.cfi_startproc
 692              		@ args = 0, pretend = 0, frame = 56
 693              		@ frame_needed = 0, uses_anonymous_args = 0
 179:Drivers/lvgl/src/extra/widgets/imgbtn/lv_imgbtn.c **** 
 694              		.loc 1 179 5 view .LVU186
 181:Drivers/lvgl/src/extra/widgets/imgbtn/lv_imgbtn.c ****     if(res != LV_RES_OK) return;
 695              		.loc 1 181 5 view .LVU187
 178:Drivers/lvgl/src/extra/widgets/imgbtn/lv_imgbtn.c ****     LV_UNUSED(class_p);
 696              		.loc 1 178 1 is_stmt 0 view .LVU188
 697 0000 2DE9F04F 		push	{r4, r5, r6, r7, r8, r9, r10, fp, lr}
 698              		.cfi_def_cfa_offset 36
 699              		.cfi_offset 4, -36
 700              		.cfi_offset 5, -32
 701              		.cfi_offset 6, -28
 702              		.cfi_offset 7, -24
 703              		.cfi_offset 8, -20
 704              		.cfi_offset 9, -16
 705              		.cfi_offset 10, -12
 706              		.cfi_offset 11, -8
 707              		.cfi_offset 14, -4
 181:Drivers/lvgl/src/extra/widgets/imgbtn/lv_imgbtn.c ****     if(res != LV_RES_OK) return;
 708              		.loc 1 181 20 view .LVU189
 709 0004 D048     		ldr	r0, .L117
 710              	.LVL75:
 178:Drivers/lvgl/src/extra/widgets/imgbtn/lv_imgbtn.c ****     LV_UNUSED(class_p);
 711              		.loc 1 178 1 view .LVU190
 712 0006 8FB0     		sub	sp, sp, #60
 713              		.cfi_def_cfa_offset 96
 178:Drivers/lvgl/src/extra/widgets/imgbtn/lv_imgbtn.c ****     LV_UNUSED(class_p);
 714              		.loc 1 178 1 view .LVU191
 715 0008 0D46     		mov	r5, r1
 181:Drivers/lvgl/src/extra/widgets/imgbtn/lv_imgbtn.c ****     if(res != LV_RES_OK) return;
 716              		.loc 1 181 20 view .LVU192
 717 000a FFF7FEFF 		bl	lv_obj_event_base
 718              	.LVL76:
 182:Drivers/lvgl/src/extra/widgets/imgbtn/lv_imgbtn.c **** 
 719              		.loc 1 182 5 is_stmt 1 view .LVU193
 182:Drivers/lvgl/src/extra/widgets/imgbtn/lv_imgbtn.c **** 
 720              		.loc 1 182 7 is_stmt 0 view .LVU194
 721 000e 0128     		cmp	r0, #1
 722 0010 02D0     		beq	.L111
 723              	.LVL77:
 724              	.L57:
 217:Drivers/lvgl/src/extra/widgets/imgbtn/lv_imgbtn.c **** 
 725              		.loc 1 217 1 view .LVU195
 726 0012 0FB0     		add	sp, sp, #60
 727              		.cfi_remember_state
 728              		.cfi_def_cfa_offset 36
ARM GAS  /var/folders/lp/x54gwt890xv47sdkqj1k04q40000gn/T//cc18aQ1b.s 			page 23


 729              		@ sp needed
 730 0014 BDE8F08F 		pop	{r4, r5, r6, r7, r8, r9, r10, fp, pc}
 731              	.LVL78:
 732              	.L111:
 733              		.cfi_restore_state
 734              	.LBB46:
 735              	.LBI46:
 177:Drivers/lvgl/src/extra/widgets/imgbtn/lv_imgbtn.c **** {
 736              		.loc 1 177 13 is_stmt 1 view .LVU196
 737              	.LBB47:
 184:Drivers/lvgl/src/extra/widgets/imgbtn/lv_imgbtn.c ****     lv_obj_t * obj = lv_event_get_target(e);
 738              		.loc 1 184 5 view .LVU197
 184:Drivers/lvgl/src/extra/widgets/imgbtn/lv_imgbtn.c ****     lv_obj_t * obj = lv_event_get_target(e);
 739              		.loc 1 184 28 is_stmt 0 view .LVU198
 740 0018 2846     		mov	r0, r5
 741              	.LVL79:
 184:Drivers/lvgl/src/extra/widgets/imgbtn/lv_imgbtn.c ****     lv_obj_t * obj = lv_event_get_target(e);
 742              		.loc 1 184 28 view .LVU199
 743 001a FFF7FEFF 		bl	lv_event_get_code
 744              	.LVL80:
 745 001e 0446     		mov	r4, r0
 746              	.LVL81:
 185:Drivers/lvgl/src/extra/widgets/imgbtn/lv_imgbtn.c ****     if(code == LV_EVENT_PRESSED || code == LV_EVENT_RELEASED || code == LV_EVENT_PRESS_LOST) {
 747              		.loc 1 185 5 is_stmt 1 view .LVU200
 185:Drivers/lvgl/src/extra/widgets/imgbtn/lv_imgbtn.c ****     if(code == LV_EVENT_PRESSED || code == LV_EVENT_RELEASED || code == LV_EVENT_PRESS_LOST) {
 748              		.loc 1 185 22 is_stmt 0 view .LVU201
 749 0020 2846     		mov	r0, r5
 750 0022 FFF7FEFF 		bl	lv_event_get_target
 751              	.LVL82:
 752 0026 631E     		subs	r3, r4, #1
 753 0028 0646     		mov	r6, r0
 754              	.LVL83:
 186:Drivers/lvgl/src/extra/widgets/imgbtn/lv_imgbtn.c ****         refr_img(obj);
 755              		.loc 1 186 5 is_stmt 1 view .LVU202
 756 002a 2B2B     		cmp	r3, #43
 757 002c F1D8     		bhi	.L57
 758 002e 01A2     		adr	r2, .L61
 759 0030 52F823F0 		ldr	pc, [r2, r3, lsl #2]
 760              		.p2align 2
 761              	.L61:
 762 0034 03010000 		.word	.L109+1
 763 0038 13000000 		.word	.L57+1
 764 003c 03010000 		.word	.L109+1
 765 0040 13000000 		.word	.L57+1
 766 0044 13000000 		.word	.L57+1
 767 0048 13000000 		.word	.L57+1
 768 004c 13000000 		.word	.L57+1
 769 0050 03010000 		.word	.L109+1
 770 0054 13000000 		.word	.L57+1
 771 0058 13000000 		.word	.L57+1
 772 005c 13000000 		.word	.L57+1
 773 0060 13000000 		.word	.L57+1
 774 0064 13000000 		.word	.L57+1
 775 0068 13000000 		.word	.L57+1
 776 006c 13000000 		.word	.L57+1
 777 0070 13000000 		.word	.L57+1
 778 0074 13000000 		.word	.L57+1
ARM GAS  /var/folders/lp/x54gwt890xv47sdkqj1k04q40000gn/T//cc18aQ1b.s 			page 24


 779 0078 21030000 		.word	.L64+1
 780 007c 13000000 		.word	.L57+1
 781 0080 13000000 		.word	.L57+1
 782 0084 5F010000 		.word	.L63+1
 783 0088 13000000 		.word	.L57+1
 784 008c 13000000 		.word	.L57+1
 785 0090 13000000 		.word	.L57+1
 786 0094 13000000 		.word	.L57+1
 787 0098 13000000 		.word	.L57+1
 788 009c 13000000 		.word	.L57+1
 789 00a0 E5000000 		.word	.L62+1
 790 00a4 13000000 		.word	.L57+1
 791 00a8 13000000 		.word	.L57+1
 792 00ac 13000000 		.word	.L57+1
 793 00b0 13000000 		.word	.L57+1
 794 00b4 13000000 		.word	.L57+1
 795 00b8 13000000 		.word	.L57+1
 796 00bc 13000000 		.word	.L57+1
 797 00c0 13000000 		.word	.L57+1
 798 00c4 13000000 		.word	.L57+1
 799 00c8 13000000 		.word	.L57+1
 800 00cc 13000000 		.word	.L57+1
 801 00d0 13000000 		.word	.L57+1
 802 00d4 13000000 		.word	.L57+1
 803 00d8 13000000 		.word	.L57+1
 804 00dc 13000000 		.word	.L57+1
 805 00e0 0F010000 		.word	.L60+1
 806              		.p2align 1
 807              	.L62:
 210:Drivers/lvgl/src/extra/widgets/imgbtn/lv_imgbtn.c ****             lv_imgbtn_set_state(obj, LV_IMGBTN_STATE_CHECKED_RELEASED);
 808              		.loc 1 210 9 view .LVU203
 210:Drivers/lvgl/src/extra/widgets/imgbtn/lv_imgbtn.c ****             lv_imgbtn_set_state(obj, LV_IMGBTN_STATE_CHECKED_RELEASED);
 809              		.loc 1 210 12 is_stmt 0 view .LVU204
 810 00e4 0121     		movs	r1, #1
 811 00e6 FFF7FEFF 		bl	lv_obj_has_state
 812              	.LVL84:
 210:Drivers/lvgl/src/extra/widgets/imgbtn/lv_imgbtn.c ****             lv_imgbtn_set_state(obj, LV_IMGBTN_STATE_CHECKED_RELEASED);
 813              		.loc 1 210 11 discriminator 1 view .LVU205
 814 00ea 0446     		mov	r4, r0
 815              	.LVL85:
 816              	.LBB48:
 817              	.LBB49:
 105:Drivers/lvgl/src/extra/widgets/imgbtn/lv_imgbtn.c ****     lv_obj_add_state(obj, obj_state);
 818              		.loc 1 105 5 view .LVU206
 819 00ec A121     		movs	r1, #161
 820 00ee 3046     		mov	r0, r6
 821              	.LBE49:
 822              	.LBE48:
 210:Drivers/lvgl/src/extra/widgets/imgbtn/lv_imgbtn.c ****             lv_imgbtn_set_state(obj, LV_IMGBTN_STATE_CHECKED_RELEASED);
 823              		.loc 1 210 11 discriminator 1 view .LVU207
 824 00f0 002C     		cmp	r4, #0
 825 00f2 40F01F81 		bne	.L112
 826              	.LVL86:
 214:Drivers/lvgl/src/extra/widgets/imgbtn/lv_imgbtn.c ****         }
 827              		.loc 1 214 13 is_stmt 1 view .LVU208
 828              	.LBB51:
 829              	.LBI51:
ARM GAS  /var/folders/lp/x54gwt890xv47sdkqj1k04q40000gn/T//cc18aQ1b.s 			page 25


  93:Drivers/lvgl/src/extra/widgets/imgbtn/lv_imgbtn.c **** {
 830              		.loc 1 93 6 view .LVU209
 831              	.LBB52:
  95:Drivers/lvgl/src/extra/widgets/imgbtn/lv_imgbtn.c **** 
 832              		.loc 1 95 5 view .LVU210
  95:Drivers/lvgl/src/extra/widgets/imgbtn/lv_imgbtn.c **** 
 833              		.loc 1 95 5 view .LVU211
  95:Drivers/lvgl/src/extra/widgets/imgbtn/lv_imgbtn.c **** 
 834              		.loc 1 95 5 view .LVU212
  97:Drivers/lvgl/src/extra/widgets/imgbtn/lv_imgbtn.c ****     if(state == LV_IMGBTN_STATE_PRESSED || state == LV_IMGBTN_STATE_CHECKED_PRESSED) obj_state |= L
 835              		.loc 1 97 5 view .LVU213
  98:Drivers/lvgl/src/extra/widgets/imgbtn/lv_imgbtn.c ****     if(state == LV_IMGBTN_STATE_DISABLED || state == LV_IMGBTN_STATE_CHECKED_DISABLED) obj_state |=
 836              		.loc 1 98 5 view .LVU214
  99:Drivers/lvgl/src/extra/widgets/imgbtn/lv_imgbtn.c ****     if(state == LV_IMGBTN_STATE_CHECKED_DISABLED || state == LV_IMGBTN_STATE_CHECKED_PRESSED ||
 837              		.loc 1 99 5 view .LVU215
 100:Drivers/lvgl/src/extra/widgets/imgbtn/lv_imgbtn.c ****        state == LV_IMGBTN_STATE_CHECKED_RELEASED) {
 838              		.loc 1 100 5 view .LVU216
 105:Drivers/lvgl/src/extra/widgets/imgbtn/lv_imgbtn.c ****     lv_obj_add_state(obj, obj_state);
 839              		.loc 1 105 5 view .LVU217
 840 00f6 FFF7FEFF 		bl	lv_obj_clear_state
 841              	.LVL87:
 106:Drivers/lvgl/src/extra/widgets/imgbtn/lv_imgbtn.c **** 
 842              		.loc 1 106 5 view .LVU218
 843 00fa 2146     		mov	r1, r4
 844              	.LVL88:
 845              	.L110:
 106:Drivers/lvgl/src/extra/widgets/imgbtn/lv_imgbtn.c **** 
 846              		.loc 1 106 5 is_stmt 0 view .LVU219
 847 00fc 3046     		mov	r0, r6
 848 00fe FFF7FEFF 		bl	lv_obj_add_state
 849              	.LVL89:
 850              	.L109:
 108:Drivers/lvgl/src/extra/widgets/imgbtn/lv_imgbtn.c **** }
 851              		.loc 1 108 5 is_stmt 1 view .LVU220
 852 0102 3046     		mov	r0, r6
 853              	.LBE52:
 854              	.LBE51:
 855              	.LBE47:
 856              	.LBE46:
 217:Drivers/lvgl/src/extra/widgets/imgbtn/lv_imgbtn.c **** 
 857              		.loc 1 217 1 is_stmt 0 view .LVU221
 858 0104 0FB0     		add	sp, sp, #60
 859              		.cfi_remember_state
 860              		.cfi_def_cfa_offset 36
 861              		@ sp needed
 862 0106 BDE8F04F 		pop	{r4, r5, r6, r7, r8, r9, r10, fp, lr}
 863              		.cfi_restore 14
 864              		.cfi_restore 11
 865              		.cfi_restore 10
 866              		.cfi_restore 9
 867              		.cfi_restore 8
 868              		.cfi_restore 7
 869              		.cfi_restore 6
 870              		.cfi_restore 5
 871              		.cfi_restore 4
 872              		.cfi_def_cfa_offset 0
 873              	.LVL90:
ARM GAS  /var/folders/lp/x54gwt890xv47sdkqj1k04q40000gn/T//cc18aQ1b.s 			page 26


 874              	.LBB107:
 875              	.LBB106:
 876              	.LBB54:
 877              	.LBB53:
 108:Drivers/lvgl/src/extra/widgets/imgbtn/lv_imgbtn.c **** }
 878              		.loc 1 108 5 view .LVU222
 879 010a FFF7FEBF 		b	refr_img
 880              	.LVL91:
 881              	.L60:
 882              		.cfi_restore_state
 108:Drivers/lvgl/src/extra/widgets/imgbtn/lv_imgbtn.c **** }
 883              		.loc 1 108 5 view .LVU223
 884              	.LBE53:
 885              	.LBE54:
 886              	.LBB55:
 197:Drivers/lvgl/src/extra/widgets/imgbtn/lv_imgbtn.c ****         lv_imgbtn_t * imgbtn = (lv_imgbtn_t *)obj;
 887              		.loc 1 197 9 is_stmt 1 view .LVU224
 197:Drivers/lvgl/src/extra/widgets/imgbtn/lv_imgbtn.c ****         lv_imgbtn_t * imgbtn = (lv_imgbtn_t *)obj;
 888              		.loc 1 197 26 is_stmt 0 view .LVU225
 889 010e 2846     		mov	r0, r5
 890              	.LVL92:
 197:Drivers/lvgl/src/extra/widgets/imgbtn/lv_imgbtn.c ****         lv_imgbtn_t * imgbtn = (lv_imgbtn_t *)obj;
 891              		.loc 1 197 26 view .LVU226
 892 0110 FFF7FEFF 		bl	lv_event_get_self_size_info
 893              	.LVL93:
 894 0114 0446     		mov	r4, r0
 895              	.LVL94:
 198:Drivers/lvgl/src/extra/widgets/imgbtn/lv_imgbtn.c ****         lv_imgbtn_state_t state  = suggest_state(obj, get_state(obj));
 896              		.loc 1 198 9 is_stmt 1 view .LVU227
 199:Drivers/lvgl/src/extra/widgets/imgbtn/lv_imgbtn.c ****         if(imgbtn->img_src_left[state] == NULL &&
 897              		.loc 1 199 9 view .LVU228
 199:Drivers/lvgl/src/extra/widgets/imgbtn/lv_imgbtn.c ****         if(imgbtn->img_src_left[state] == NULL &&
 898              		.loc 1 199 36 is_stmt 0 view .LVU229
 899 0116 3046     		mov	r0, r6
 900              	.LVL95:
 199:Drivers/lvgl/src/extra/widgets/imgbtn/lv_imgbtn.c ****         if(imgbtn->img_src_left[state] == NULL &&
 901              		.loc 1 199 36 view .LVU230
 902 0118 FFF7FEFF 		bl	get_state
 903              	.LVL96:
 904              	.LBB56:
 905              	.LBI56:
 334:Drivers/lvgl/src/extra/widgets/imgbtn/lv_imgbtn.c **** {
 906              		.loc 1 334 26 is_stmt 1 view .LVU231
 907              	.LBB57:
 336:Drivers/lvgl/src/extra/widgets/imgbtn/lv_imgbtn.c ****     if(imgbtn->img_src_mid[state] == NULL) {
 908              		.loc 1 336 5 view .LVU232
 337:Drivers/lvgl/src/extra/widgets/imgbtn/lv_imgbtn.c ****         switch(state) {
 909              		.loc 1 337 5 view .LVU233
 337:Drivers/lvgl/src/extra/widgets/imgbtn/lv_imgbtn.c ****         switch(state) {
 910              		.loc 1 337 27 is_stmt 0 view .LVU234
 911 011c 06EB8003 		add	r3, r6, r0, lsl #2
 337:Drivers/lvgl/src/extra/widgets/imgbtn/lv_imgbtn.c ****         switch(state) {
 912              		.loc 1 337 7 view .LVU235
 913 0120 5B6A     		ldr	r3, [r3, #36]
 914 0122 002B     		cmp	r3, #0
 915 0124 00F01281 		beq	.L113
 916              	.LVL97:
ARM GAS  /var/folders/lp/x54gwt890xv47sdkqj1k04q40000gn/T//cc18aQ1b.s 			page 27


 917              	.L74:
 337:Drivers/lvgl/src/extra/widgets/imgbtn/lv_imgbtn.c ****         switch(state) {
 918              		.loc 1 337 7 view .LVU236
 919              	.LBE57:
 920              	.LBE56:
 200:Drivers/lvgl/src/extra/widgets/imgbtn/lv_imgbtn.c ****            imgbtn->img_src_mid[state] != NULL &&
 921              		.loc 1 200 9 is_stmt 1 view .LVU237
 922 0128 06EB8003 		add	r3, r6, r0, lsl #2
 200:Drivers/lvgl/src/extra/widgets/imgbtn/lv_imgbtn.c ****            imgbtn->img_src_mid[state] != NULL &&
 923              		.loc 1 200 11 is_stmt 0 view .LVU238
 924 012c DA6B     		ldr	r2, [r3, #60]
 925 012e 002A     		cmp	r2, #0
 926 0130 7FF46FAF 		bne	.L57
 201:Drivers/lvgl/src/extra/widgets/imgbtn/lv_imgbtn.c ****            imgbtn->img_src_right[state] == NULL) {
 927              		.loc 1 201 31 view .LVU239
 928 0134 5A6A     		ldr	r2, [r3, #36]
 929              	.L83:
 202:Drivers/lvgl/src/extra/widgets/imgbtn/lv_imgbtn.c ****             lv_img_header_t header;
 930              		.loc 1 202 33 view .LVU240
 931 0136 06EB8003 		add	r3, r6, r0, lsl #2
 201:Drivers/lvgl/src/extra/widgets/imgbtn/lv_imgbtn.c ****            imgbtn->img_src_right[state] == NULL) {
 932              		.loc 1 201 47 view .LVU241
 933 013a 5B6D     		ldr	r3, [r3, #84]
 934 013c 002B     		cmp	r3, #0
 935 013e 7FF468AF 		bne	.L57
 936              	.LBB70:
 203:Drivers/lvgl/src/extra/widgets/imgbtn/lv_imgbtn.c ****             lv_img_decoder_get_info(imgbtn->img_src_mid[state], &header);
 937              		.loc 1 203 13 is_stmt 1 view .LVU242
 204:Drivers/lvgl/src/extra/widgets/imgbtn/lv_imgbtn.c ****             p->x = LV_MAX(p->x, header.w);
 938              		.loc 1 204 13 view .LVU243
 939 0142 1046     		mov	r0, r2
 940 0144 08A9     		add	r1, sp, #32
 941 0146 FFF7FEFF 		bl	lv_img_decoder_get_info
 942              	.LVL98:
 205:Drivers/lvgl/src/extra/widgets/imgbtn/lv_imgbtn.c ****         }
 943              		.loc 1 205 13 view .LVU244
 205:Drivers/lvgl/src/extra/widgets/imgbtn/lv_imgbtn.c ****         }
 944              		.loc 1 205 20 is_stmt 0 view .LVU245
 945 014a 089B     		ldr	r3, [sp, #32]
 946 014c B4F90020 		ldrsh	r2, [r4]
 947 0150 C3F38A23 		ubfx	r3, r3, #10, #11
 948 0154 9342     		cmp	r3, r2
 949 0156 B8BF     		it	lt
 950 0158 1346     		movlt	r3, r2
 205:Drivers/lvgl/src/extra/widgets/imgbtn/lv_imgbtn.c ****         }
 951              		.loc 1 205 18 view .LVU246
 952 015a 2380     		strh	r3, [r4]	@ movhi
 953 015c 59E7     		b	.L57
 954              	.LVL99:
 955              	.L63:
 205:Drivers/lvgl/src/extra/widgets/imgbtn/lv_imgbtn.c ****         }
 956              		.loc 1 205 18 view .LVU247
 957              	.LBE70:
 958              	.LBE55:
 190:Drivers/lvgl/src/extra/widgets/imgbtn/lv_imgbtn.c ****     }
 959              		.loc 1 190 9 is_stmt 1 view .LVU248
 960              	.LBB75:
ARM GAS  /var/folders/lp/x54gwt890xv47sdkqj1k04q40000gn/T//cc18aQ1b.s 			page 28


 961              	.LBI75:
 219:Drivers/lvgl/src/extra/widgets/imgbtn/lv_imgbtn.c **** {
 962              		.loc 1 219 13 view .LVU249
 963              	.LBB76:
 221:Drivers/lvgl/src/extra/widgets/imgbtn/lv_imgbtn.c ****     lv_imgbtn_t * imgbtn = (lv_imgbtn_t *)obj;
 964              		.loc 1 221 5 view .LVU250
 221:Drivers/lvgl/src/extra/widgets/imgbtn/lv_imgbtn.c ****     lv_imgbtn_t * imgbtn = (lv_imgbtn_t *)obj;
 965              		.loc 1 221 22 is_stmt 0 view .LVU251
 966 015e 2846     		mov	r0, r5
 967              	.LVL100:
 221:Drivers/lvgl/src/extra/widgets/imgbtn/lv_imgbtn.c ****     lv_imgbtn_t * imgbtn = (lv_imgbtn_t *)obj;
 968              		.loc 1 221 22 view .LVU252
 969 0160 FFF7FEFF 		bl	lv_event_get_target
 970              	.LVL101:
 971 0164 0446     		mov	r4, r0
 972              	.LVL102:
 222:Drivers/lvgl/src/extra/widgets/imgbtn/lv_imgbtn.c ****     lv_draw_ctx_t * draw_ctx = lv_event_get_draw_ctx(e);
 973              		.loc 1 222 5 is_stmt 1 view .LVU253
 223:Drivers/lvgl/src/extra/widgets/imgbtn/lv_imgbtn.c **** 
 974              		.loc 1 223 5 view .LVU254
 223:Drivers/lvgl/src/extra/widgets/imgbtn/lv_imgbtn.c **** 
 975              		.loc 1 223 32 is_stmt 0 view .LVU255
 976 0166 2846     		mov	r0, r5
 977              	.LVL103:
 223:Drivers/lvgl/src/extra/widgets/imgbtn/lv_imgbtn.c **** 
 978              		.loc 1 223 32 view .LVU256
 979 0168 FFF7FEFF 		bl	lv_event_get_draw_ctx
 980              	.LVL104:
 981 016c 8146     		mov	r9, r0
 982              	.LVL105:
 226:Drivers/lvgl/src/extra/widgets/imgbtn/lv_imgbtn.c **** 
 983              		.loc 1 226 5 is_stmt 1 view .LVU257
 226:Drivers/lvgl/src/extra/widgets/imgbtn/lv_imgbtn.c **** 
 984              		.loc 1 226 32 is_stmt 0 view .LVU258
 985 016e 2046     		mov	r0, r4
 986              	.LVL106:
 226:Drivers/lvgl/src/extra/widgets/imgbtn/lv_imgbtn.c **** 
 987              		.loc 1 226 32 view .LVU259
 988 0170 FFF7FEFF 		bl	get_state
 989              	.LVL107:
 990              	.LBB77:
 991              	.LBI77:
 334:Drivers/lvgl/src/extra/widgets/imgbtn/lv_imgbtn.c **** {
 992              		.loc 1 334 26 is_stmt 1 view .LVU260
 993              	.LBB78:
 336:Drivers/lvgl/src/extra/widgets/imgbtn/lv_imgbtn.c ****     if(imgbtn->img_src_mid[state] == NULL) {
 994              		.loc 1 336 5 view .LVU261
 337:Drivers/lvgl/src/extra/widgets/imgbtn/lv_imgbtn.c ****         switch(state) {
 995              		.loc 1 337 5 view .LVU262
 337:Drivers/lvgl/src/extra/widgets/imgbtn/lv_imgbtn.c ****         switch(state) {
 996              		.loc 1 337 27 is_stmt 0 view .LVU263
 997 0174 04EB8003 		add	r3, r4, r0, lsl #2
 337:Drivers/lvgl/src/extra/widgets/imgbtn/lv_imgbtn.c ****         switch(state) {
 998              		.loc 1 337 7 view .LVU264
 999 0178 5B6A     		ldr	r3, [r3, #36]
 1000 017a 002B     		cmp	r3, #0
 1001 017c 00F0DE80 		beq	.L114
ARM GAS  /var/folders/lp/x54gwt890xv47sdkqj1k04q40000gn/T//cc18aQ1b.s 			page 29


 1002              	.LVL108:
 1003              	.L66:
 337:Drivers/lvgl/src/extra/widgets/imgbtn/lv_imgbtn.c ****         switch(state) {
 1004              		.loc 1 337 7 view .LVU265
 1005              	.LBE78:
 1006              	.LBE77:
 229:Drivers/lvgl/src/extra/widgets/imgbtn/lv_imgbtn.c **** 
 1007              		.loc 1 229 5 is_stmt 1 view .LVU266
 1008 0180 04EB8006 		add	r6, r4, r0, lsl #2
 1009              	.LVL109:
 1010              	.LBB80:
 1011              	.LBB81:
 1012              		.file 2 "Drivers/lvgl/src/extra/widgets/imgbtn/../../../../src/core/lv_obj_style_gen.h"
   1:Drivers/lvgl/src/extra/widgets/imgbtn/../../../../src/core/lv_obj_style_gen.h **** static inline lv_coord_t lv_obj_get_style_width(const struct _lv_obj_t * obj, uint32_t part)
   2:Drivers/lvgl/src/extra/widgets/imgbtn/../../../../src/core/lv_obj_style_gen.h **** {
   3:Drivers/lvgl/src/extra/widgets/imgbtn/../../../../src/core/lv_obj_style_gen.h ****     lv_style_value_t v = lv_obj_get_style_prop(obj, part, LV_STYLE_WIDTH);
   4:Drivers/lvgl/src/extra/widgets/imgbtn/../../../../src/core/lv_obj_style_gen.h ****     return (lv_coord_t)v.num;
   5:Drivers/lvgl/src/extra/widgets/imgbtn/../../../../src/core/lv_obj_style_gen.h **** }
   6:Drivers/lvgl/src/extra/widgets/imgbtn/../../../../src/core/lv_obj_style_gen.h **** 
   7:Drivers/lvgl/src/extra/widgets/imgbtn/../../../../src/core/lv_obj_style_gen.h **** static inline lv_coord_t lv_obj_get_style_min_width(const struct _lv_obj_t * obj, uint32_t part)
   8:Drivers/lvgl/src/extra/widgets/imgbtn/../../../../src/core/lv_obj_style_gen.h **** {
   9:Drivers/lvgl/src/extra/widgets/imgbtn/../../../../src/core/lv_obj_style_gen.h ****     lv_style_value_t v = lv_obj_get_style_prop(obj, part, LV_STYLE_MIN_WIDTH);
  10:Drivers/lvgl/src/extra/widgets/imgbtn/../../../../src/core/lv_obj_style_gen.h ****     return (lv_coord_t)v.num;
  11:Drivers/lvgl/src/extra/widgets/imgbtn/../../../../src/core/lv_obj_style_gen.h **** }
  12:Drivers/lvgl/src/extra/widgets/imgbtn/../../../../src/core/lv_obj_style_gen.h **** 
  13:Drivers/lvgl/src/extra/widgets/imgbtn/../../../../src/core/lv_obj_style_gen.h **** static inline lv_coord_t lv_obj_get_style_max_width(const struct _lv_obj_t * obj, uint32_t part)
  14:Drivers/lvgl/src/extra/widgets/imgbtn/../../../../src/core/lv_obj_style_gen.h **** {
  15:Drivers/lvgl/src/extra/widgets/imgbtn/../../../../src/core/lv_obj_style_gen.h ****     lv_style_value_t v = lv_obj_get_style_prop(obj, part, LV_STYLE_MAX_WIDTH);
  16:Drivers/lvgl/src/extra/widgets/imgbtn/../../../../src/core/lv_obj_style_gen.h ****     return (lv_coord_t)v.num;
  17:Drivers/lvgl/src/extra/widgets/imgbtn/../../../../src/core/lv_obj_style_gen.h **** }
  18:Drivers/lvgl/src/extra/widgets/imgbtn/../../../../src/core/lv_obj_style_gen.h **** 
  19:Drivers/lvgl/src/extra/widgets/imgbtn/../../../../src/core/lv_obj_style_gen.h **** static inline lv_coord_t lv_obj_get_style_height(const struct _lv_obj_t * obj, uint32_t part)
  20:Drivers/lvgl/src/extra/widgets/imgbtn/../../../../src/core/lv_obj_style_gen.h **** {
  21:Drivers/lvgl/src/extra/widgets/imgbtn/../../../../src/core/lv_obj_style_gen.h ****     lv_style_value_t v = lv_obj_get_style_prop(obj, part, LV_STYLE_HEIGHT);
  22:Drivers/lvgl/src/extra/widgets/imgbtn/../../../../src/core/lv_obj_style_gen.h ****     return (lv_coord_t)v.num;
  23:Drivers/lvgl/src/extra/widgets/imgbtn/../../../../src/core/lv_obj_style_gen.h **** }
  24:Drivers/lvgl/src/extra/widgets/imgbtn/../../../../src/core/lv_obj_style_gen.h **** 
  25:Drivers/lvgl/src/extra/widgets/imgbtn/../../../../src/core/lv_obj_style_gen.h **** static inline lv_coord_t lv_obj_get_style_min_height(const struct _lv_obj_t * obj, uint32_t part)
  26:Drivers/lvgl/src/extra/widgets/imgbtn/../../../../src/core/lv_obj_style_gen.h **** {
  27:Drivers/lvgl/src/extra/widgets/imgbtn/../../../../src/core/lv_obj_style_gen.h ****     lv_style_value_t v = lv_obj_get_style_prop(obj, part, LV_STYLE_MIN_HEIGHT);
  28:Drivers/lvgl/src/extra/widgets/imgbtn/../../../../src/core/lv_obj_style_gen.h ****     return (lv_coord_t)v.num;
  29:Drivers/lvgl/src/extra/widgets/imgbtn/../../../../src/core/lv_obj_style_gen.h **** }
  30:Drivers/lvgl/src/extra/widgets/imgbtn/../../../../src/core/lv_obj_style_gen.h **** 
  31:Drivers/lvgl/src/extra/widgets/imgbtn/../../../../src/core/lv_obj_style_gen.h **** static inline lv_coord_t lv_obj_get_style_max_height(const struct _lv_obj_t * obj, uint32_t part)
  32:Drivers/lvgl/src/extra/widgets/imgbtn/../../../../src/core/lv_obj_style_gen.h **** {
  33:Drivers/lvgl/src/extra/widgets/imgbtn/../../../../src/core/lv_obj_style_gen.h ****     lv_style_value_t v = lv_obj_get_style_prop(obj, part, LV_STYLE_MAX_HEIGHT);
  34:Drivers/lvgl/src/extra/widgets/imgbtn/../../../../src/core/lv_obj_style_gen.h ****     return (lv_coord_t)v.num;
  35:Drivers/lvgl/src/extra/widgets/imgbtn/../../../../src/core/lv_obj_style_gen.h **** }
  36:Drivers/lvgl/src/extra/widgets/imgbtn/../../../../src/core/lv_obj_style_gen.h **** 
  37:Drivers/lvgl/src/extra/widgets/imgbtn/../../../../src/core/lv_obj_style_gen.h **** static inline lv_coord_t lv_obj_get_style_x(const struct _lv_obj_t * obj, uint32_t part)
  38:Drivers/lvgl/src/extra/widgets/imgbtn/../../../../src/core/lv_obj_style_gen.h **** {
  39:Drivers/lvgl/src/extra/widgets/imgbtn/../../../../src/core/lv_obj_style_gen.h ****     lv_style_value_t v = lv_obj_get_style_prop(obj, part, LV_STYLE_X);
  40:Drivers/lvgl/src/extra/widgets/imgbtn/../../../../src/core/lv_obj_style_gen.h ****     return (lv_coord_t)v.num;
  41:Drivers/lvgl/src/extra/widgets/imgbtn/../../../../src/core/lv_obj_style_gen.h **** }
  42:Drivers/lvgl/src/extra/widgets/imgbtn/../../../../src/core/lv_obj_style_gen.h **** 
  43:Drivers/lvgl/src/extra/widgets/imgbtn/../../../../src/core/lv_obj_style_gen.h **** static inline lv_coord_t lv_obj_get_style_y(const struct _lv_obj_t * obj, uint32_t part)
  44:Drivers/lvgl/src/extra/widgets/imgbtn/../../../../src/core/lv_obj_style_gen.h **** {
ARM GAS  /var/folders/lp/x54gwt890xv47sdkqj1k04q40000gn/T//cc18aQ1b.s 			page 30


  45:Drivers/lvgl/src/extra/widgets/imgbtn/../../../../src/core/lv_obj_style_gen.h ****     lv_style_value_t v = lv_obj_get_style_prop(obj, part, LV_STYLE_Y);
  46:Drivers/lvgl/src/extra/widgets/imgbtn/../../../../src/core/lv_obj_style_gen.h ****     return (lv_coord_t)v.num;
  47:Drivers/lvgl/src/extra/widgets/imgbtn/../../../../src/core/lv_obj_style_gen.h **** }
  48:Drivers/lvgl/src/extra/widgets/imgbtn/../../../../src/core/lv_obj_style_gen.h **** 
  49:Drivers/lvgl/src/extra/widgets/imgbtn/../../../../src/core/lv_obj_style_gen.h **** static inline lv_align_t lv_obj_get_style_align(const struct _lv_obj_t * obj, uint32_t part)
  50:Drivers/lvgl/src/extra/widgets/imgbtn/../../../../src/core/lv_obj_style_gen.h **** {
  51:Drivers/lvgl/src/extra/widgets/imgbtn/../../../../src/core/lv_obj_style_gen.h ****     lv_style_value_t v = lv_obj_get_style_prop(obj, part, LV_STYLE_ALIGN);
  52:Drivers/lvgl/src/extra/widgets/imgbtn/../../../../src/core/lv_obj_style_gen.h ****     return (lv_align_t)v.num;
  53:Drivers/lvgl/src/extra/widgets/imgbtn/../../../../src/core/lv_obj_style_gen.h **** }
  54:Drivers/lvgl/src/extra/widgets/imgbtn/../../../../src/core/lv_obj_style_gen.h **** 
  55:Drivers/lvgl/src/extra/widgets/imgbtn/../../../../src/core/lv_obj_style_gen.h **** static inline lv_coord_t lv_obj_get_style_transform_width(const struct _lv_obj_t * obj, uint32_t pa
  56:Drivers/lvgl/src/extra/widgets/imgbtn/../../../../src/core/lv_obj_style_gen.h **** {
  57:Drivers/lvgl/src/extra/widgets/imgbtn/../../../../src/core/lv_obj_style_gen.h ****     lv_style_value_t v = lv_obj_get_style_prop(obj, part, LV_STYLE_TRANSFORM_WIDTH);
 1013              		.loc 2 57 26 is_stmt 0 view .LVU267
 1014 0184 6922     		movs	r2, #105
 1015 0186 0021     		movs	r1, #0
 1016 0188 2046     		mov	r0, r4
 1017              	.LBE81:
 1018              	.LBE80:
 229:Drivers/lvgl/src/extra/widgets/imgbtn/lv_imgbtn.c **** 
 1019              		.loc 1 229 18 view .LVU268
 1020 018a D6F83CB0 		ldr	fp, [r6, #60]
 1021              	.LVL110:
 231:Drivers/lvgl/src/extra/widgets/imgbtn/lv_imgbtn.c ****     lv_coord_t th = lv_obj_get_style_transform_height(obj, LV_PART_MAIN);
 1022              		.loc 1 231 5 is_stmt 1 view .LVU269
 1023              	.LBB84:
 1024              	.LBI80:
  55:Drivers/lvgl/src/extra/widgets/imgbtn/../../../../src/core/lv_obj_style_gen.h **** {
 1025              		.loc 2 55 26 view .LVU270
 1026              	.LBB82:
 1027              		.loc 2 57 5 view .LVU271
 1028              		.loc 2 57 26 is_stmt 0 view .LVU272
 1029 018e FFF7FEFF 		bl	lv_obj_get_style_prop
 1030              	.LVL111:
 1031              		.loc 2 57 26 view .LVU273
 1032              	.LBE82:
 1033              	.LBE84:
 1034              	.LBB85:
 1035              	.LBB86:
  58:Drivers/lvgl/src/extra/widgets/imgbtn/../../../../src/core/lv_obj_style_gen.h ****     return (lv_coord_t)v.num;
  59:Drivers/lvgl/src/extra/widgets/imgbtn/../../../../src/core/lv_obj_style_gen.h **** }
  60:Drivers/lvgl/src/extra/widgets/imgbtn/../../../../src/core/lv_obj_style_gen.h **** 
  61:Drivers/lvgl/src/extra/widgets/imgbtn/../../../../src/core/lv_obj_style_gen.h **** static inline lv_coord_t lv_obj_get_style_transform_height(const struct _lv_obj_t * obj, uint32_t p
  62:Drivers/lvgl/src/extra/widgets/imgbtn/../../../../src/core/lv_obj_style_gen.h **** {
  63:Drivers/lvgl/src/extra/widgets/imgbtn/../../../../src/core/lv_obj_style_gen.h ****     lv_style_value_t v = lv_obj_get_style_prop(obj, part, LV_STYLE_TRANSFORM_HEIGHT);
 1036              		.loc 2 63 26 view .LVU274
 1037 0192 0021     		movs	r1, #0
 1038              	.LBE86:
 1039              	.LBE85:
 1040              	.LBB88:
 1041              	.LBB83:
  57:Drivers/lvgl/src/extra/widgets/imgbtn/../../../../src/core/lv_obj_style_gen.h ****     return (lv_coord_t)v.num;
 1042              		.loc 2 57 26 view .LVU275
 1043 0194 0546     		mov	r5, r0
 1044              	.LVL112:
  58:Drivers/lvgl/src/extra/widgets/imgbtn/../../../../src/core/lv_obj_style_gen.h ****     return (lv_coord_t)v.num;
 1045              		.loc 2 58 5 is_stmt 1 view .LVU276
ARM GAS  /var/folders/lp/x54gwt890xv47sdkqj1k04q40000gn/T//cc18aQ1b.s 			page 31


  58:Drivers/lvgl/src/extra/widgets/imgbtn/../../../../src/core/lv_obj_style_gen.h ****     return (lv_coord_t)v.num;
 1046              		.loc 2 58 5 is_stmt 0 view .LVU277
 1047              	.LBE83:
 1048              	.LBE88:
 232:Drivers/lvgl/src/extra/widgets/imgbtn/lv_imgbtn.c ****     lv_area_t coords;
 1049              		.loc 1 232 5 is_stmt 1 view .LVU278
 1050              	.LBB89:
 1051              	.LBI85:
  61:Drivers/lvgl/src/extra/widgets/imgbtn/../../../../src/core/lv_obj_style_gen.h **** {
 1052              		.loc 2 61 26 view .LVU279
 1053              	.LBB87:
 1054              		.loc 2 63 5 view .LVU280
 1055              		.loc 2 63 26 is_stmt 0 view .LVU281
 1056 0196 6A22     		movs	r2, #106
 1057 0198 2046     		mov	r0, r4
 1058 019a FFF7FEFF 		bl	lv_obj_get_style_prop
 1059              	.LVL113:
  64:Drivers/lvgl/src/extra/widgets/imgbtn/../../../../src/core/lv_obj_style_gen.h ****     return (lv_coord_t)v.num;
 1060              		.loc 2 64 5 is_stmt 1 view .LVU282
 1061              		.loc 2 64 5 is_stmt 0 view .LVU283
 1062              	.LBE87:
 1063              	.LBE89:
 233:Drivers/lvgl/src/extra/widgets/imgbtn/lv_imgbtn.c ****     lv_area_copy(&coords, &obj->coords);
 1064              		.loc 1 233 5 is_stmt 1 view .LVU284
 234:Drivers/lvgl/src/extra/widgets/imgbtn/lv_imgbtn.c ****     coords.x1 -= tw;
 1065              		.loc 1 234 5 view .LVU285
 1066              	.LBB90:
 1067              	.LBI90:
 1068              		.file 3 "Drivers/lvgl/src/extra/widgets/imgbtn/../../../../src/hal/../draw/../misc/../font/../misc
   1:Drivers/lvgl/src/extra/widgets/imgbtn/../../../../src/hal/../draw/../misc/../font/../misc/lv_area.h **** /**
   2:Drivers/lvgl/src/extra/widgets/imgbtn/../../../../src/hal/../draw/../misc/../font/../misc/lv_area.h ****  * @file lv_area.h
   3:Drivers/lvgl/src/extra/widgets/imgbtn/../../../../src/hal/../draw/../misc/../font/../misc/lv_area.h ****  *
   4:Drivers/lvgl/src/extra/widgets/imgbtn/../../../../src/hal/../draw/../misc/../font/../misc/lv_area.h ****  */
   5:Drivers/lvgl/src/extra/widgets/imgbtn/../../../../src/hal/../draw/../misc/../font/../misc/lv_area.h **** 
   6:Drivers/lvgl/src/extra/widgets/imgbtn/../../../../src/hal/../draw/../misc/../font/../misc/lv_area.h **** #ifndef LV_AREA_H
   7:Drivers/lvgl/src/extra/widgets/imgbtn/../../../../src/hal/../draw/../misc/../font/../misc/lv_area.h **** #define LV_AREA_H
   8:Drivers/lvgl/src/extra/widgets/imgbtn/../../../../src/hal/../draw/../misc/../font/../misc/lv_area.h **** 
   9:Drivers/lvgl/src/extra/widgets/imgbtn/../../../../src/hal/../draw/../misc/../font/../misc/lv_area.h **** #ifdef __cplusplus
  10:Drivers/lvgl/src/extra/widgets/imgbtn/../../../../src/hal/../draw/../misc/../font/../misc/lv_area.h **** extern "C" {
  11:Drivers/lvgl/src/extra/widgets/imgbtn/../../../../src/hal/../draw/../misc/../font/../misc/lv_area.h **** #endif
  12:Drivers/lvgl/src/extra/widgets/imgbtn/../../../../src/hal/../draw/../misc/../font/../misc/lv_area.h **** 
  13:Drivers/lvgl/src/extra/widgets/imgbtn/../../../../src/hal/../draw/../misc/../font/../misc/lv_area.h **** /*********************
  14:Drivers/lvgl/src/extra/widgets/imgbtn/../../../../src/hal/../draw/../misc/../font/../misc/lv_area.h ****  *      INCLUDES
  15:Drivers/lvgl/src/extra/widgets/imgbtn/../../../../src/hal/../draw/../misc/../font/../misc/lv_area.h ****  *********************/
  16:Drivers/lvgl/src/extra/widgets/imgbtn/../../../../src/hal/../draw/../misc/../font/../misc/lv_area.h **** #include "../lv_conf_internal.h"
  17:Drivers/lvgl/src/extra/widgets/imgbtn/../../../../src/hal/../draw/../misc/../font/../misc/lv_area.h **** #include <stdbool.h>
  18:Drivers/lvgl/src/extra/widgets/imgbtn/../../../../src/hal/../draw/../misc/../font/../misc/lv_area.h **** #include <stdint.h>
  19:Drivers/lvgl/src/extra/widgets/imgbtn/../../../../src/hal/../draw/../misc/../font/../misc/lv_area.h **** 
  20:Drivers/lvgl/src/extra/widgets/imgbtn/../../../../src/hal/../draw/../misc/../font/../misc/lv_area.h **** /*********************
  21:Drivers/lvgl/src/extra/widgets/imgbtn/../../../../src/hal/../draw/../misc/../font/../misc/lv_area.h ****  *      DEFINES
  22:Drivers/lvgl/src/extra/widgets/imgbtn/../../../../src/hal/../draw/../misc/../font/../misc/lv_area.h ****  *********************/
  23:Drivers/lvgl/src/extra/widgets/imgbtn/../../../../src/hal/../draw/../misc/../font/../misc/lv_area.h **** 
  24:Drivers/lvgl/src/extra/widgets/imgbtn/../../../../src/hal/../draw/../misc/../font/../misc/lv_area.h **** #if LV_USE_LARGE_COORD
  25:Drivers/lvgl/src/extra/widgets/imgbtn/../../../../src/hal/../draw/../misc/../font/../misc/lv_area.h **** typedef int32_t lv_coord_t;
  26:Drivers/lvgl/src/extra/widgets/imgbtn/../../../../src/hal/../draw/../misc/../font/../misc/lv_area.h **** #else
  27:Drivers/lvgl/src/extra/widgets/imgbtn/../../../../src/hal/../draw/../misc/../font/../misc/lv_area.h **** typedef int16_t lv_coord_t;
  28:Drivers/lvgl/src/extra/widgets/imgbtn/../../../../src/hal/../draw/../misc/../font/../misc/lv_area.h **** #endif
ARM GAS  /var/folders/lp/x54gwt890xv47sdkqj1k04q40000gn/T//cc18aQ1b.s 			page 32


  29:Drivers/lvgl/src/extra/widgets/imgbtn/../../../../src/hal/../draw/../misc/../font/../misc/lv_area.h **** 
  30:Drivers/lvgl/src/extra/widgets/imgbtn/../../../../src/hal/../draw/../misc/../font/../misc/lv_area.h **** /**********************
  31:Drivers/lvgl/src/extra/widgets/imgbtn/../../../../src/hal/../draw/../misc/../font/../misc/lv_area.h ****  *      TYPEDEFS
  32:Drivers/lvgl/src/extra/widgets/imgbtn/../../../../src/hal/../draw/../misc/../font/../misc/lv_area.h ****  **********************/
  33:Drivers/lvgl/src/extra/widgets/imgbtn/../../../../src/hal/../draw/../misc/../font/../misc/lv_area.h **** 
  34:Drivers/lvgl/src/extra/widgets/imgbtn/../../../../src/hal/../draw/../misc/../font/../misc/lv_area.h **** /**
  35:Drivers/lvgl/src/extra/widgets/imgbtn/../../../../src/hal/../draw/../misc/../font/../misc/lv_area.h ****  * Represents a point on the screen.
  36:Drivers/lvgl/src/extra/widgets/imgbtn/../../../../src/hal/../draw/../misc/../font/../misc/lv_area.h ****  */
  37:Drivers/lvgl/src/extra/widgets/imgbtn/../../../../src/hal/../draw/../misc/../font/../misc/lv_area.h **** typedef struct {
  38:Drivers/lvgl/src/extra/widgets/imgbtn/../../../../src/hal/../draw/../misc/../font/../misc/lv_area.h ****     lv_coord_t x;
  39:Drivers/lvgl/src/extra/widgets/imgbtn/../../../../src/hal/../draw/../misc/../font/../misc/lv_area.h ****     lv_coord_t y;
  40:Drivers/lvgl/src/extra/widgets/imgbtn/../../../../src/hal/../draw/../misc/../font/../misc/lv_area.h **** } lv_point_t;
  41:Drivers/lvgl/src/extra/widgets/imgbtn/../../../../src/hal/../draw/../misc/../font/../misc/lv_area.h **** 
  42:Drivers/lvgl/src/extra/widgets/imgbtn/../../../../src/hal/../draw/../misc/../font/../misc/lv_area.h **** /** Represents an area of the screen.*/
  43:Drivers/lvgl/src/extra/widgets/imgbtn/../../../../src/hal/../draw/../misc/../font/../misc/lv_area.h **** typedef struct {
  44:Drivers/lvgl/src/extra/widgets/imgbtn/../../../../src/hal/../draw/../misc/../font/../misc/lv_area.h ****     lv_coord_t x1;
  45:Drivers/lvgl/src/extra/widgets/imgbtn/../../../../src/hal/../draw/../misc/../font/../misc/lv_area.h ****     lv_coord_t y1;
  46:Drivers/lvgl/src/extra/widgets/imgbtn/../../../../src/hal/../draw/../misc/../font/../misc/lv_area.h ****     lv_coord_t x2;
  47:Drivers/lvgl/src/extra/widgets/imgbtn/../../../../src/hal/../draw/../misc/../font/../misc/lv_area.h ****     lv_coord_t y2;
  48:Drivers/lvgl/src/extra/widgets/imgbtn/../../../../src/hal/../draw/../misc/../font/../misc/lv_area.h **** } lv_area_t;
  49:Drivers/lvgl/src/extra/widgets/imgbtn/../../../../src/hal/../draw/../misc/../font/../misc/lv_area.h **** 
  50:Drivers/lvgl/src/extra/widgets/imgbtn/../../../../src/hal/../draw/../misc/../font/../misc/lv_area.h **** /** Alignments*/
  51:Drivers/lvgl/src/extra/widgets/imgbtn/../../../../src/hal/../draw/../misc/../font/../misc/lv_area.h **** enum {
  52:Drivers/lvgl/src/extra/widgets/imgbtn/../../../../src/hal/../draw/../misc/../font/../misc/lv_area.h ****     LV_ALIGN_DEFAULT = 0,
  53:Drivers/lvgl/src/extra/widgets/imgbtn/../../../../src/hal/../draw/../misc/../font/../misc/lv_area.h ****     LV_ALIGN_TOP_LEFT,
  54:Drivers/lvgl/src/extra/widgets/imgbtn/../../../../src/hal/../draw/../misc/../font/../misc/lv_area.h ****     LV_ALIGN_TOP_MID,
  55:Drivers/lvgl/src/extra/widgets/imgbtn/../../../../src/hal/../draw/../misc/../font/../misc/lv_area.h ****     LV_ALIGN_TOP_RIGHT,
  56:Drivers/lvgl/src/extra/widgets/imgbtn/../../../../src/hal/../draw/../misc/../font/../misc/lv_area.h ****     LV_ALIGN_BOTTOM_LEFT,
  57:Drivers/lvgl/src/extra/widgets/imgbtn/../../../../src/hal/../draw/../misc/../font/../misc/lv_area.h ****     LV_ALIGN_BOTTOM_MID,
  58:Drivers/lvgl/src/extra/widgets/imgbtn/../../../../src/hal/../draw/../misc/../font/../misc/lv_area.h ****     LV_ALIGN_BOTTOM_RIGHT,
  59:Drivers/lvgl/src/extra/widgets/imgbtn/../../../../src/hal/../draw/../misc/../font/../misc/lv_area.h ****     LV_ALIGN_LEFT_MID,
  60:Drivers/lvgl/src/extra/widgets/imgbtn/../../../../src/hal/../draw/../misc/../font/../misc/lv_area.h ****     LV_ALIGN_RIGHT_MID,
  61:Drivers/lvgl/src/extra/widgets/imgbtn/../../../../src/hal/../draw/../misc/../font/../misc/lv_area.h ****     LV_ALIGN_CENTER,
  62:Drivers/lvgl/src/extra/widgets/imgbtn/../../../../src/hal/../draw/../misc/../font/../misc/lv_area.h **** 
  63:Drivers/lvgl/src/extra/widgets/imgbtn/../../../../src/hal/../draw/../misc/../font/../misc/lv_area.h ****     LV_ALIGN_OUT_TOP_LEFT,
  64:Drivers/lvgl/src/extra/widgets/imgbtn/../../../../src/hal/../draw/../misc/../font/../misc/lv_area.h ****     LV_ALIGN_OUT_TOP_MID,
  65:Drivers/lvgl/src/extra/widgets/imgbtn/../../../../src/hal/../draw/../misc/../font/../misc/lv_area.h ****     LV_ALIGN_OUT_TOP_RIGHT,
  66:Drivers/lvgl/src/extra/widgets/imgbtn/../../../../src/hal/../draw/../misc/../font/../misc/lv_area.h ****     LV_ALIGN_OUT_BOTTOM_LEFT,
  67:Drivers/lvgl/src/extra/widgets/imgbtn/../../../../src/hal/../draw/../misc/../font/../misc/lv_area.h ****     LV_ALIGN_OUT_BOTTOM_MID,
  68:Drivers/lvgl/src/extra/widgets/imgbtn/../../../../src/hal/../draw/../misc/../font/../misc/lv_area.h ****     LV_ALIGN_OUT_BOTTOM_RIGHT,
  69:Drivers/lvgl/src/extra/widgets/imgbtn/../../../../src/hal/../draw/../misc/../font/../misc/lv_area.h ****     LV_ALIGN_OUT_LEFT_TOP,
  70:Drivers/lvgl/src/extra/widgets/imgbtn/../../../../src/hal/../draw/../misc/../font/../misc/lv_area.h ****     LV_ALIGN_OUT_LEFT_MID,
  71:Drivers/lvgl/src/extra/widgets/imgbtn/../../../../src/hal/../draw/../misc/../font/../misc/lv_area.h ****     LV_ALIGN_OUT_LEFT_BOTTOM,
  72:Drivers/lvgl/src/extra/widgets/imgbtn/../../../../src/hal/../draw/../misc/../font/../misc/lv_area.h ****     LV_ALIGN_OUT_RIGHT_TOP,
  73:Drivers/lvgl/src/extra/widgets/imgbtn/../../../../src/hal/../draw/../misc/../font/../misc/lv_area.h ****     LV_ALIGN_OUT_RIGHT_MID,
  74:Drivers/lvgl/src/extra/widgets/imgbtn/../../../../src/hal/../draw/../misc/../font/../misc/lv_area.h ****     LV_ALIGN_OUT_RIGHT_BOTTOM,
  75:Drivers/lvgl/src/extra/widgets/imgbtn/../../../../src/hal/../draw/../misc/../font/../misc/lv_area.h **** };
  76:Drivers/lvgl/src/extra/widgets/imgbtn/../../../../src/hal/../draw/../misc/../font/../misc/lv_area.h **** typedef uint8_t lv_align_t;
  77:Drivers/lvgl/src/extra/widgets/imgbtn/../../../../src/hal/../draw/../misc/../font/../misc/lv_area.h **** 
  78:Drivers/lvgl/src/extra/widgets/imgbtn/../../../../src/hal/../draw/../misc/../font/../misc/lv_area.h **** enum {
  79:Drivers/lvgl/src/extra/widgets/imgbtn/../../../../src/hal/../draw/../misc/../font/../misc/lv_area.h ****     LV_DIR_NONE     = 0x00,
  80:Drivers/lvgl/src/extra/widgets/imgbtn/../../../../src/hal/../draw/../misc/../font/../misc/lv_area.h ****     LV_DIR_LEFT     = (1 << 0),
  81:Drivers/lvgl/src/extra/widgets/imgbtn/../../../../src/hal/../draw/../misc/../font/../misc/lv_area.h ****     LV_DIR_RIGHT    = (1 << 1),
  82:Drivers/lvgl/src/extra/widgets/imgbtn/../../../../src/hal/../draw/../misc/../font/../misc/lv_area.h ****     LV_DIR_TOP      = (1 << 2),
  83:Drivers/lvgl/src/extra/widgets/imgbtn/../../../../src/hal/../draw/../misc/../font/../misc/lv_area.h ****     LV_DIR_BOTTOM   = (1 << 3),
  84:Drivers/lvgl/src/extra/widgets/imgbtn/../../../../src/hal/../draw/../misc/../font/../misc/lv_area.h ****     LV_DIR_HOR      = LV_DIR_LEFT | LV_DIR_RIGHT,
  85:Drivers/lvgl/src/extra/widgets/imgbtn/../../../../src/hal/../draw/../misc/../font/../misc/lv_area.h ****     LV_DIR_VER      = LV_DIR_TOP | LV_DIR_BOTTOM,
ARM GAS  /var/folders/lp/x54gwt890xv47sdkqj1k04q40000gn/T//cc18aQ1b.s 			page 33


  86:Drivers/lvgl/src/extra/widgets/imgbtn/../../../../src/hal/../draw/../misc/../font/../misc/lv_area.h ****     LV_DIR_ALL      = LV_DIR_HOR | LV_DIR_VER,
  87:Drivers/lvgl/src/extra/widgets/imgbtn/../../../../src/hal/../draw/../misc/../font/../misc/lv_area.h **** };
  88:Drivers/lvgl/src/extra/widgets/imgbtn/../../../../src/hal/../draw/../misc/../font/../misc/lv_area.h **** 
  89:Drivers/lvgl/src/extra/widgets/imgbtn/../../../../src/hal/../draw/../misc/../font/../misc/lv_area.h **** typedef uint8_t lv_dir_t;
  90:Drivers/lvgl/src/extra/widgets/imgbtn/../../../../src/hal/../draw/../misc/../font/../misc/lv_area.h **** 
  91:Drivers/lvgl/src/extra/widgets/imgbtn/../../../../src/hal/../draw/../misc/../font/../misc/lv_area.h **** /**********************
  92:Drivers/lvgl/src/extra/widgets/imgbtn/../../../../src/hal/../draw/../misc/../font/../misc/lv_area.h ****  * GLOBAL PROTOTYPES
  93:Drivers/lvgl/src/extra/widgets/imgbtn/../../../../src/hal/../draw/../misc/../font/../misc/lv_area.h ****  **********************/
  94:Drivers/lvgl/src/extra/widgets/imgbtn/../../../../src/hal/../draw/../misc/../font/../misc/lv_area.h **** 
  95:Drivers/lvgl/src/extra/widgets/imgbtn/../../../../src/hal/../draw/../misc/../font/../misc/lv_area.h **** /**
  96:Drivers/lvgl/src/extra/widgets/imgbtn/../../../../src/hal/../draw/../misc/../font/../misc/lv_area.h ****  * Initialize an area
  97:Drivers/lvgl/src/extra/widgets/imgbtn/../../../../src/hal/../draw/../misc/../font/../misc/lv_area.h ****  * @param area_p pointer to an area
  98:Drivers/lvgl/src/extra/widgets/imgbtn/../../../../src/hal/../draw/../misc/../font/../misc/lv_area.h ****  * @param x1 left coordinate of the area
  99:Drivers/lvgl/src/extra/widgets/imgbtn/../../../../src/hal/../draw/../misc/../font/../misc/lv_area.h ****  * @param y1 top coordinate of the area
 100:Drivers/lvgl/src/extra/widgets/imgbtn/../../../../src/hal/../draw/../misc/../font/../misc/lv_area.h ****  * @param x2 right coordinate of the area
 101:Drivers/lvgl/src/extra/widgets/imgbtn/../../../../src/hal/../draw/../misc/../font/../misc/lv_area.h ****  * @param y2 bottom coordinate of the area
 102:Drivers/lvgl/src/extra/widgets/imgbtn/../../../../src/hal/../draw/../misc/../font/../misc/lv_area.h ****  */
 103:Drivers/lvgl/src/extra/widgets/imgbtn/../../../../src/hal/../draw/../misc/../font/../misc/lv_area.h **** void lv_area_set(lv_area_t * area_p, lv_coord_t x1, lv_coord_t y1, lv_coord_t x2, lv_coord_t y2);
 104:Drivers/lvgl/src/extra/widgets/imgbtn/../../../../src/hal/../draw/../misc/../font/../misc/lv_area.h **** 
 105:Drivers/lvgl/src/extra/widgets/imgbtn/../../../../src/hal/../draw/../misc/../font/../misc/lv_area.h **** /**
 106:Drivers/lvgl/src/extra/widgets/imgbtn/../../../../src/hal/../draw/../misc/../font/../misc/lv_area.h ****  * Copy an area
 107:Drivers/lvgl/src/extra/widgets/imgbtn/../../../../src/hal/../draw/../misc/../font/../misc/lv_area.h ****  * @param dest pointer to the destination area
 108:Drivers/lvgl/src/extra/widgets/imgbtn/../../../../src/hal/../draw/../misc/../font/../misc/lv_area.h ****  * @param src pointer to the source area
 109:Drivers/lvgl/src/extra/widgets/imgbtn/../../../../src/hal/../draw/../misc/../font/../misc/lv_area.h ****  */
 110:Drivers/lvgl/src/extra/widgets/imgbtn/../../../../src/hal/../draw/../misc/../font/../misc/lv_area.h **** inline static void lv_area_copy(lv_area_t * dest, const lv_area_t * src)
 1069              		.loc 3 110 20 view .LVU286
 1070              	.LBB91:
 111:Drivers/lvgl/src/extra/widgets/imgbtn/../../../../src/hal/../draw/../misc/../font/../misc/lv_area.h **** {
 112:Drivers/lvgl/src/extra/widgets/imgbtn/../../../../src/hal/../draw/../misc/../font/../misc/lv_area.h ****     dest->x1 = src->x1;
 1071              		.loc 3 112 5 view .LVU287
 113:Drivers/lvgl/src/extra/widgets/imgbtn/../../../../src/hal/../draw/../misc/../font/../misc/lv_area.h ****     dest->y1 = src->y1;
 1072              		.loc 3 113 5 view .LVU288
 114:Drivers/lvgl/src/extra/widgets/imgbtn/../../../../src/hal/../draw/../misc/../font/../misc/lv_area.h ****     dest->x2 = src->x2;
 1073              		.loc 3 114 5 view .LVU289
 115:Drivers/lvgl/src/extra/widgets/imgbtn/../../../../src/hal/../draw/../misc/../font/../misc/lv_area.h ****     dest->y2 = src->y2;
 1074              		.loc 3 115 5 view .LVU290
 1075              	.LBE91:
 1076              	.LBE90:
 237:Drivers/lvgl/src/extra/widgets/imgbtn/lv_imgbtn.c ****     coords.y2 += th;
 1077              		.loc 1 237 15 is_stmt 0 view .LVU291
 1078 019e B4F81680 		ldrh	r8, [r4, #22]
 236:Drivers/lvgl/src/extra/widgets/imgbtn/lv_imgbtn.c ****     coords.y1 -= th;
 1079              		.loc 1 236 15 view .LVU292
 1080 01a2 228B     		ldrh	r2, [r4, #24]
 1081              	.LBB94:
 1082              	.LBB92:
 1083              		.loc 3 115 19 view .LVU293
 1084 01a4 B4F91A30 		ldrsh	r3, [r4, #26]
 1085              	.LBE92:
 1086              	.LBE94:
 235:Drivers/lvgl/src/extra/widgets/imgbtn/lv_imgbtn.c ****     coords.x2 += tw;
 1087              		.loc 1 235 15 view .LVU294
 1088 01a8 A78A     		ldrh	r7, [r4, #20]
 1089              	.LBB95:
 1090              	.LBB93:
 1091              		.loc 3 115 19 view .LVU295
 1092 01aa 0193     		str	r3, [sp, #4]
ARM GAS  /var/folders/lp/x54gwt890xv47sdkqj1k04q40000gn/T//cc18aQ1b.s 			page 34


 1093              	.LVL114:
 1094              		.loc 3 115 19 view .LVU296
 1095              	.LBE93:
 1096              	.LBE95:
 235:Drivers/lvgl/src/extra/widgets/imgbtn/lv_imgbtn.c ****     coords.x2 += tw;
 1097              		.loc 1 235 5 is_stmt 1 view .LVU297
 237:Drivers/lvgl/src/extra/widgets/imgbtn/lv_imgbtn.c ****     coords.y2 += th;
 1098              		.loc 1 237 15 is_stmt 0 view .LVU298
 1099 01ac 1FFA80FA 		uxth	r10, r0
 1100 01b0 A8EB0A08 		sub	r8, r8, r10
 1101 01b4 1FFA88F3 		uxth	r3, r8
 235:Drivers/lvgl/src/extra/widgets/imgbtn/lv_imgbtn.c ****     coords.x2 += tw;
 1102              		.loc 1 235 15 view .LVU299
 1103 01b8 ADB2     		uxth	r5, r5
 241:Drivers/lvgl/src/extra/widgets/imgbtn/lv_imgbtn.c ****     lv_obj_init_draw_img_dsc(obj, LV_PART_MAIN, &img_dsc);
 1104              		.loc 1 241 5 view .LVU300
 1105 01ba 08A8     		add	r0, sp, #32
 1106              	.LVL115:
 235:Drivers/lvgl/src/extra/widgets/imgbtn/lv_imgbtn.c ****     coords.x2 += tw;
 1107              		.loc 1 235 15 view .LVU301
 1108 01bc 7F1B     		subs	r7, r7, r5
 237:Drivers/lvgl/src/extra/widgets/imgbtn/lv_imgbtn.c ****     coords.y2 += th;
 1109              		.loc 1 237 15 view .LVU302
 1110 01be 0093     		str	r3, [sp]
 236:Drivers/lvgl/src/extra/widgets/imgbtn/lv_imgbtn.c ****     coords.y1 -= th;
 1111              		.loc 1 236 15 view .LVU303
 1112 01c0 1544     		add	r5, r5, r2
 1113              	.LVL116:
 241:Drivers/lvgl/src/extra/widgets/imgbtn/lv_imgbtn.c ****     lv_obj_init_draw_img_dsc(obj, LV_PART_MAIN, &img_dsc);
 1114              		.loc 1 241 5 view .LVU304
 1115 01c2 FFF7FEFF 		bl	lv_draw_img_dsc_init
 1116              	.LVL117:
 242:Drivers/lvgl/src/extra/widgets/imgbtn/lv_imgbtn.c **** 
 1117              		.loc 1 242 5 view .LVU305
 1118 01c6 08AA     		add	r2, sp, #32
 1119 01c8 2046     		mov	r0, r4
 1120 01ca 0021     		movs	r1, #0
 235:Drivers/lvgl/src/extra/widgets/imgbtn/lv_imgbtn.c ****     coords.x2 += tw;
 1121              		.loc 1 235 15 view .LVU306
 1122 01cc BFB2     		uxth	r7, r7
 1123              	.LVL118:
 236:Drivers/lvgl/src/extra/widgets/imgbtn/lv_imgbtn.c ****     coords.y1 -= th;
 1124              		.loc 1 236 5 is_stmt 1 view .LVU307
 236:Drivers/lvgl/src/extra/widgets/imgbtn/lv_imgbtn.c ****     coords.y1 -= th;
 1125              		.loc 1 236 15 is_stmt 0 view .LVU308
 1126 01ce ADB2     		uxth	r5, r5
 1127              	.LVL119:
 237:Drivers/lvgl/src/extra/widgets/imgbtn/lv_imgbtn.c ****     coords.y2 += th;
 1128              		.loc 1 237 5 is_stmt 1 view .LVU309
 237:Drivers/lvgl/src/extra/widgets/imgbtn/lv_imgbtn.c ****     coords.y2 += th;
 1129              		.loc 1 237 15 is_stmt 0 view .LVU310
 1130 01d0 0FFA88F8 		sxth	r8, r8
 1131              	.LVL120:
 238:Drivers/lvgl/src/extra/widgets/imgbtn/lv_imgbtn.c **** 
 1132              		.loc 1 238 5 is_stmt 1 view .LVU311
 240:Drivers/lvgl/src/extra/widgets/imgbtn/lv_imgbtn.c ****     lv_draw_img_dsc_init(&img_dsc);
 1133              		.loc 1 240 5 view .LVU312
ARM GAS  /var/folders/lp/x54gwt890xv47sdkqj1k04q40000gn/T//cc18aQ1b.s 			page 35


 241:Drivers/lvgl/src/extra/widgets/imgbtn/lv_imgbtn.c ****     lv_obj_init_draw_img_dsc(obj, LV_PART_MAIN, &img_dsc);
 1134              		.loc 1 241 5 view .LVU313
 242:Drivers/lvgl/src/extra/widgets/imgbtn/lv_imgbtn.c **** 
 1135              		.loc 1 242 5 view .LVU314
 1136 01d4 FFF7FEFF 		bl	lv_obj_init_draw_img_dsc
 1137              	.LVL121:
 244:Drivers/lvgl/src/extra/widgets/imgbtn/lv_imgbtn.c ****     lv_area_t coords_part;
 1138              		.loc 1 244 5 view .LVU315
 245:Drivers/lvgl/src/extra/widgets/imgbtn/lv_imgbtn.c ****     lv_coord_t left_w = 0;
 1139              		.loc 1 245 5 view .LVU316
 246:Drivers/lvgl/src/extra/widgets/imgbtn/lv_imgbtn.c ****     lv_coord_t right_w = 0;
 1140              		.loc 1 246 5 view .LVU317
 247:Drivers/lvgl/src/extra/widgets/imgbtn/lv_imgbtn.c **** 
 1141              		.loc 1 247 5 view .LVU318
 249:Drivers/lvgl/src/extra/widgets/imgbtn/lv_imgbtn.c ****         lv_img_decoder_get_info(src, &header);
 1142              		.loc 1 249 5 view .LVU319
 249:Drivers/lvgl/src/extra/widgets/imgbtn/lv_imgbtn.c ****         lv_img_decoder_get_info(src, &header);
 1143              		.loc 1 249 7 is_stmt 0 view .LVU320
 1144 01d8 BBF1000F 		cmp	fp, #0
 1145 01dc 20D0     		beq	.L67
 250:Drivers/lvgl/src/extra/widgets/imgbtn/lv_imgbtn.c ****         left_w = header.w;
 1146              		.loc 1 250 9 is_stmt 1 view .LVU321
 1147 01de 03A9     		add	r1, sp, #12
 1148 01e0 5846     		mov	r0, fp
 1149 01e2 FFF7FEFF 		bl	lv_img_decoder_get_info
 1150              	.LVL122:
 251:Drivers/lvgl/src/extra/widgets/imgbtn/lv_imgbtn.c ****         coords_part.x1 = coords.x1;
 1151              		.loc 1 251 9 view .LVU322
 255:Drivers/lvgl/src/extra/widgets/imgbtn/lv_imgbtn.c ****         lv_draw_img(draw_ctx, &img_dsc, &coords_part, src);
 1152              		.loc 1 255 44 is_stmt 0 view .LVU323
 1153 01e6 BDF80E20 		ldrh	r2, [sp, #14]
 255:Drivers/lvgl/src/extra/widgets/imgbtn/lv_imgbtn.c ****         lv_draw_img(draw_ctx, &img_dsc, &coords_part, src);
 1154              		.loc 1 255 47 view .LVU324
 1155 01ea 0098     		ldr	r0, [sp]
 251:Drivers/lvgl/src/extra/widgets/imgbtn/lv_imgbtn.c ****         coords_part.x1 = coords.x1;
 1156              		.loc 1 251 24 view .LVU325
 1157 01ec 0399     		ldr	r1, [sp, #12]
 252:Drivers/lvgl/src/extra/widgets/imgbtn/lv_imgbtn.c ****         coords_part.y1 = coords.y1;
 1158              		.loc 1 252 24 view .LVU326
 1159 01ee ADF81070 		strh	r7, [sp, #16]	@ movhi
 255:Drivers/lvgl/src/extra/widgets/imgbtn/lv_imgbtn.c ****         lv_draw_img(draw_ctx, &img_dsc, &coords_part, src);
 1160              		.loc 1 255 44 view .LVU327
 1161 01f2 C2F34A12 		ubfx	r2, r2, #5, #11
 255:Drivers/lvgl/src/extra/widgets/imgbtn/lv_imgbtn.c ****         lv_draw_img(draw_ctx, &img_dsc, &coords_part, src);
 1162              		.loc 1 255 47 view .LVU328
 1163 01f6 013A     		subs	r2, r2, #1
 1164 01f8 0244     		add	r2, r2, r0
 255:Drivers/lvgl/src/extra/widgets/imgbtn/lv_imgbtn.c ****         lv_draw_img(draw_ctx, &img_dsc, &coords_part, src);
 1165              		.loc 1 255 24 view .LVU329
 1166 01fa ADF81620 		strh	r2, [sp, #22]	@ movhi
 251:Drivers/lvgl/src/extra/widgets/imgbtn/lv_imgbtn.c ****         coords_part.x1 = coords.x1;
 1167              		.loc 1 251 24 view .LVU330
 1168 01fe C1F38A22 		ubfx	r2, r1, #10, #11
 254:Drivers/lvgl/src/extra/widgets/imgbtn/lv_imgbtn.c ****         coords_part.y2 = coords.y1 + header.h - 1;
 1169              		.loc 1 254 47 view .LVU331
 1170 0202 013A     		subs	r2, r2, #1
 1171 0204 3A44     		add	r2, r2, r7
ARM GAS  /var/folders/lp/x54gwt890xv47sdkqj1k04q40000gn/T//cc18aQ1b.s 			page 36


 254:Drivers/lvgl/src/extra/widgets/imgbtn/lv_imgbtn.c ****         coords_part.y2 = coords.y1 + header.h - 1;
 1172              		.loc 1 254 24 view .LVU332
 1173 0206 ADF81420 		strh	r2, [sp, #20]	@ movhi
 251:Drivers/lvgl/src/extra/widgets/imgbtn/lv_imgbtn.c ****         coords_part.x1 = coords.x1;
 1174              		.loc 1 251 16 view .LVU333
 1175 020a C1F38A22 		ubfx	r2, r1, #10, #11
 256:Drivers/lvgl/src/extra/widgets/imgbtn/lv_imgbtn.c ****     }
 1176              		.loc 1 256 9 view .LVU334
 1177 020e 5B46     		mov	r3, fp
 1178 0210 08A9     		add	r1, sp, #32
 251:Drivers/lvgl/src/extra/widgets/imgbtn/lv_imgbtn.c ****         coords_part.x1 = coords.x1;
 1179              		.loc 1 251 16 view .LVU335
 1180 0212 9346     		mov	fp, r2
 1181              	.LVL123:
 252:Drivers/lvgl/src/extra/widgets/imgbtn/lv_imgbtn.c ****         coords_part.y1 = coords.y1;
 1182              		.loc 1 252 9 is_stmt 1 view .LVU336
 253:Drivers/lvgl/src/extra/widgets/imgbtn/lv_imgbtn.c ****         coords_part.x2 = coords.x1 + header.w - 1;
 1183              		.loc 1 253 9 view .LVU337
 254:Drivers/lvgl/src/extra/widgets/imgbtn/lv_imgbtn.c ****         coords_part.y2 = coords.y1 + header.h - 1;
 1184              		.loc 1 254 9 view .LVU338
 255:Drivers/lvgl/src/extra/widgets/imgbtn/lv_imgbtn.c ****         lv_draw_img(draw_ctx, &img_dsc, &coords_part, src);
 1185              		.loc 1 255 9 view .LVU339
 256:Drivers/lvgl/src/extra/widgets/imgbtn/lv_imgbtn.c ****     }
 1186              		.loc 1 256 9 view .LVU340
 1187 0214 4846     		mov	r0, r9
 1188 0216 04AA     		add	r2, sp, #16
 253:Drivers/lvgl/src/extra/widgets/imgbtn/lv_imgbtn.c ****         coords_part.x2 = coords.x1 + header.w - 1;
 1189              		.loc 1 253 24 is_stmt 0 view .LVU341
 1190 0218 ADF81280 		strh	r8, [sp, #18]	@ movhi
 256:Drivers/lvgl/src/extra/widgets/imgbtn/lv_imgbtn.c ****     }
 1191              		.loc 1 256 9 view .LVU342
 1192 021c FFF7FEFF 		bl	lv_draw_img
 1193              	.LVL124:
 1194              	.L67:
 259:Drivers/lvgl/src/extra/widgets/imgbtn/lv_imgbtn.c ****     if(src) {
 1195              		.loc 1 259 5 is_stmt 1 view .LVU343
 259:Drivers/lvgl/src/extra/widgets/imgbtn/lv_imgbtn.c ****     if(src) {
 1196              		.loc 1 259 9 is_stmt 0 view .LVU344
 1197 0220 746D     		ldr	r4, [r6, #84]
 1198              	.LVL125:
 260:Drivers/lvgl/src/extra/widgets/imgbtn/lv_imgbtn.c ****         lv_img_decoder_get_info(src, &header);
 1199              		.loc 1 260 5 is_stmt 1 view .LVU345
 260:Drivers/lvgl/src/extra/widgets/imgbtn/lv_imgbtn.c ****         lv_img_decoder_get_info(src, &header);
 1200              		.loc 1 260 7 is_stmt 0 view .LVU346
 1201 0222 04B3     		cbz	r4, .L68
 261:Drivers/lvgl/src/extra/widgets/imgbtn/lv_imgbtn.c ****         right_w = header.w;
 1202              		.loc 1 261 9 is_stmt 1 view .LVU347
 1203 0224 03A9     		add	r1, sp, #12
 1204 0226 2046     		mov	r0, r4
 1205 0228 FFF7FEFF 		bl	lv_img_decoder_get_info
 1206              	.LVL126:
 262:Drivers/lvgl/src/extra/widgets/imgbtn/lv_imgbtn.c ****         coords_part.x1 = coords.x2 - header.w + 1;
 1207              		.loc 1 262 9 view .LVU348
 266:Drivers/lvgl/src/extra/widgets/imgbtn/lv_imgbtn.c ****         lv_draw_img(draw_ctx, &img_dsc, &coords_part, src);
 1208              		.loc 1 266 44 is_stmt 0 view .LVU349
 1209 022c BDF80E20 		ldrh	r2, [sp, #14]
 266:Drivers/lvgl/src/extra/widgets/imgbtn/lv_imgbtn.c ****         lv_draw_img(draw_ctx, &img_dsc, &coords_part, src);
ARM GAS  /var/folders/lp/x54gwt890xv47sdkqj1k04q40000gn/T//cc18aQ1b.s 			page 37


 1210              		.loc 1 266 47 view .LVU350
 1211 0230 0099     		ldr	r1, [sp]
 264:Drivers/lvgl/src/extra/widgets/imgbtn/lv_imgbtn.c ****         coords_part.x2 = coords.x2;
 1212              		.loc 1 264 24 view .LVU351
 1213 0232 ADF81280 		strh	r8, [sp, #18]	@ movhi
 266:Drivers/lvgl/src/extra/widgets/imgbtn/lv_imgbtn.c ****         lv_draw_img(draw_ctx, &img_dsc, &coords_part, src);
 1214              		.loc 1 266 44 view .LVU352
 1215 0236 C2F34A12 		ubfx	r2, r2, #5, #11
 267:Drivers/lvgl/src/extra/widgets/imgbtn/lv_imgbtn.c ****     }
 1216              		.loc 1 267 9 view .LVU353
 1217 023a 2346     		mov	r3, r4
 266:Drivers/lvgl/src/extra/widgets/imgbtn/lv_imgbtn.c ****         lv_draw_img(draw_ctx, &img_dsc, &coords_part, src);
 1218              		.loc 1 266 47 view .LVU354
 1219 023c 013A     		subs	r2, r2, #1
 262:Drivers/lvgl/src/extra/widgets/imgbtn/lv_imgbtn.c ****         coords_part.x1 = coords.x2 - header.w + 1;
 1220              		.loc 1 262 25 view .LVU355
 1221 023e 039C     		ldr	r4, [sp, #12]
 1222              	.LVL127:
 265:Drivers/lvgl/src/extra/widgets/imgbtn/lv_imgbtn.c ****         coords_part.y2 = coords.y1 + header.h - 1;
 1223              		.loc 1 265 24 view .LVU356
 1224 0240 ADF81450 		strh	r5, [sp, #20]	@ movhi
 266:Drivers/lvgl/src/extra/widgets/imgbtn/lv_imgbtn.c ****         lv_draw_img(draw_ctx, &img_dsc, &coords_part, src);
 1225              		.loc 1 266 47 view .LVU357
 1226 0244 0A44     		add	r2, r2, r1
 266:Drivers/lvgl/src/extra/widgets/imgbtn/lv_imgbtn.c ****         lv_draw_img(draw_ctx, &img_dsc, &coords_part, src);
 1227              		.loc 1 266 24 view .LVU358
 1228 0246 ADF81620 		strh	r2, [sp, #22]	@ movhi
 262:Drivers/lvgl/src/extra/widgets/imgbtn/lv_imgbtn.c ****         coords_part.x1 = coords.x2 - header.w + 1;
 1229              		.loc 1 262 25 view .LVU359
 1230 024a C4F38A22 		ubfx	r2, r4, #10, #11
 263:Drivers/lvgl/src/extra/widgets/imgbtn/lv_imgbtn.c ****         coords_part.y1 = coords.y1;
 1231              		.loc 1 263 47 view .LVU360
 1232 024e C2F10102 		rsb	r2, r2, #1
 1233 0252 2A44     		add	r2, r2, r5
 263:Drivers/lvgl/src/extra/widgets/imgbtn/lv_imgbtn.c ****         coords_part.y1 = coords.y1;
 1234              		.loc 1 263 24 view .LVU361
 1235 0254 ADF81020 		strh	r2, [sp, #16]	@ movhi
 267:Drivers/lvgl/src/extra/widgets/imgbtn/lv_imgbtn.c ****     }
 1236              		.loc 1 267 9 view .LVU362
 1237 0258 08A9     		add	r1, sp, #32
 1238 025a 04AA     		add	r2, sp, #16
 1239 025c 4846     		mov	r0, r9
 262:Drivers/lvgl/src/extra/widgets/imgbtn/lv_imgbtn.c ****         coords_part.x1 = coords.x2 - header.w + 1;
 1240              		.loc 1 262 17 view .LVU363
 1241 025e C4F38A24 		ubfx	r4, r4, #10, #11
 1242              	.LVL128:
 263:Drivers/lvgl/src/extra/widgets/imgbtn/lv_imgbtn.c ****         coords_part.y1 = coords.y1;
 1243              		.loc 1 263 9 is_stmt 1 view .LVU364
 264:Drivers/lvgl/src/extra/widgets/imgbtn/lv_imgbtn.c ****         coords_part.x2 = coords.x2;
 1244              		.loc 1 264 9 view .LVU365
 265:Drivers/lvgl/src/extra/widgets/imgbtn/lv_imgbtn.c ****         coords_part.y2 = coords.y1 + header.h - 1;
 1245              		.loc 1 265 9 view .LVU366
 266:Drivers/lvgl/src/extra/widgets/imgbtn/lv_imgbtn.c ****         lv_draw_img(draw_ctx, &img_dsc, &coords_part, src);
 1246              		.loc 1 266 9 view .LVU367
 267:Drivers/lvgl/src/extra/widgets/imgbtn/lv_imgbtn.c ****     }
 1247              		.loc 1 267 9 view .LVU368
 1248 0262 FFF7FEFF 		bl	lv_draw_img
ARM GAS  /var/folders/lp/x54gwt890xv47sdkqj1k04q40000gn/T//cc18aQ1b.s 			page 38


 1249              	.LVL129:
 1250              	.L68:
 270:Drivers/lvgl/src/extra/widgets/imgbtn/lv_imgbtn.c ****     if(src) {
 1251              		.loc 1 270 5 view .LVU369
 270:Drivers/lvgl/src/extra/widgets/imgbtn/lv_imgbtn.c ****     if(src) {
 1252              		.loc 1 270 9 is_stmt 0 view .LVU370
 1253 0266 766A     		ldr	r6, [r6, #36]
 1254              	.LVL130:
 271:Drivers/lvgl/src/extra/widgets/imgbtn/lv_imgbtn.c ****         lv_area_t clip_area_center;
 1255              		.loc 1 271 5 is_stmt 1 view .LVU371
 271:Drivers/lvgl/src/extra/widgets/imgbtn/lv_imgbtn.c ****         lv_area_t clip_area_center;
 1256              		.loc 1 271 7 is_stmt 0 view .LVU372
 1257 0268 002E     		cmp	r6, #0
 1258 026a 3FF4D2AE 		beq	.L57
 1259              	.LBB96:
 272:Drivers/lvgl/src/extra/widgets/imgbtn/lv_imgbtn.c ****         clip_area_center.x1 = coords.x1 + left_w;
 1260              		.loc 1 272 9 is_stmt 1 view .LVU373
 273:Drivers/lvgl/src/extra/widgets/imgbtn/lv_imgbtn.c ****         clip_area_center.x2 = coords.x2 - right_w;
 1261              		.loc 1 273 9 view .LVU374
 1262              	.LBE96:
 238:Drivers/lvgl/src/extra/widgets/imgbtn/lv_imgbtn.c **** 
 1263              		.loc 1 238 15 is_stmt 0 view .LVU375
 1264 026e 019B     		ldr	r3, [sp, #4]
 1265              	.LBB98:
 280:Drivers/lvgl/src/extra/widgets/imgbtn/lv_imgbtn.c ****         if(comm_res) {
 1266              		.loc 1 280 20 view .LVU376
 1267 0270 D9F80820 		ldr	r2, [r9, #8]
 275:Drivers/lvgl/src/extra/widgets/imgbtn/lv_imgbtn.c ****         clip_area_center.y2 = coords.y2;
 1268              		.loc 1 275 29 view .LVU377
 1269 0274 ADF81A80 		strh	r8, [sp, #26]	@ movhi
 273:Drivers/lvgl/src/extra/widgets/imgbtn/lv_imgbtn.c ****         clip_area_center.x2 = coords.x2 - right_w;
 1270              		.loc 1 273 41 view .LVU378
 1271 0278 5F44     		add	r7, r7, fp
 1272              	.LVL131:
 280:Drivers/lvgl/src/extra/widgets/imgbtn/lv_imgbtn.c ****         if(comm_res) {
 1273              		.loc 1 280 20 view .LVU379
 1274 027a 06A9     		add	r1, sp, #24
 274:Drivers/lvgl/src/extra/widgets/imgbtn/lv_imgbtn.c ****         clip_area_center.y1 = coords.y1;
 1275              		.loc 1 274 41 view .LVU380
 1276 027c 2D1B     		subs	r5, r5, r4
 1277              	.LVL132:
 274:Drivers/lvgl/src/extra/widgets/imgbtn/lv_imgbtn.c ****         clip_area_center.y1 = coords.y1;
 1278              		.loc 1 274 41 view .LVU381
 1279              	.LBE98:
 238:Drivers/lvgl/src/extra/widgets/imgbtn/lv_imgbtn.c **** 
 1280              		.loc 1 238 15 view .LVU382
 1281 027e 9A44     		add	r10, r10, r3
 1282              	.LVL133:
 1283              	.LBB99:
 273:Drivers/lvgl/src/extra/widgets/imgbtn/lv_imgbtn.c ****         clip_area_center.x2 = coords.x2 - right_w;
 1284              		.loc 1 273 41 view .LVU383
 1285 0280 3CB2     		sxth	r4, r7
 1286              	.LVL134:
 280:Drivers/lvgl/src/extra/widgets/imgbtn/lv_imgbtn.c ****         if(comm_res) {
 1287              		.loc 1 280 20 view .LVU384
 1288 0282 0846     		mov	r0, r1
 274:Drivers/lvgl/src/extra/widgets/imgbtn/lv_imgbtn.c ****         clip_area_center.y1 = coords.y1;
ARM GAS  /var/folders/lp/x54gwt890xv47sdkqj1k04q40000gn/T//cc18aQ1b.s 			page 39


 1289              		.loc 1 274 29 view .LVU385
 1290 0284 ADF81C50 		strh	r5, [sp, #28]	@ movhi
 276:Drivers/lvgl/src/extra/widgets/imgbtn/lv_imgbtn.c **** 
 1291              		.loc 1 276 29 view .LVU386
 1292 0288 ADF81EA0 		strh	r10, [sp, #30]	@ movhi
 273:Drivers/lvgl/src/extra/widgets/imgbtn/lv_imgbtn.c ****         clip_area_center.x2 = coords.x2 - right_w;
 1293              		.loc 1 273 41 view .LVU387
 1294 028c BFB2     		uxth	r7, r7
 273:Drivers/lvgl/src/extra/widgets/imgbtn/lv_imgbtn.c ****         clip_area_center.x2 = coords.x2 - right_w;
 1295              		.loc 1 273 29 view .LVU388
 1296 028e ADF81840 		strh	r4, [sp, #24]	@ movhi
 274:Drivers/lvgl/src/extra/widgets/imgbtn/lv_imgbtn.c ****         clip_area_center.y1 = coords.y1;
 1297              		.loc 1 274 9 is_stmt 1 view .LVU389
 275:Drivers/lvgl/src/extra/widgets/imgbtn/lv_imgbtn.c ****         clip_area_center.y2 = coords.y2;
 1298              		.loc 1 275 9 view .LVU390
 276:Drivers/lvgl/src/extra/widgets/imgbtn/lv_imgbtn.c **** 
 1299              		.loc 1 276 9 view .LVU391
 279:Drivers/lvgl/src/extra/widgets/imgbtn/lv_imgbtn.c ****         comm_res = _lv_area_intersect(&clip_area_center, &clip_area_center, draw_ctx->clip_area);
 1300              		.loc 1 279 9 view .LVU392
 280:Drivers/lvgl/src/extra/widgets/imgbtn/lv_imgbtn.c ****         if(comm_res) {
 1301              		.loc 1 280 9 view .LVU393
 280:Drivers/lvgl/src/extra/widgets/imgbtn/lv_imgbtn.c ****         if(comm_res) {
 1302              		.loc 1 280 20 is_stmt 0 view .LVU394
 1303 0292 FFF7FEFF 		bl	_lv_area_intersect
 1304              	.LVL135:
 281:Drivers/lvgl/src/extra/widgets/imgbtn/lv_imgbtn.c ****             lv_coord_t i;
 1305              		.loc 1 281 9 is_stmt 1 view .LVU395
 281:Drivers/lvgl/src/extra/widgets/imgbtn/lv_imgbtn.c ****             lv_coord_t i;
 1306              		.loc 1 281 11 is_stmt 0 view .LVU396
 1307 0296 0028     		cmp	r0, #0
 1308 0298 3FF4BBAE 		beq	.L57
 1309              	.LBB97:
 282:Drivers/lvgl/src/extra/widgets/imgbtn/lv_imgbtn.c ****             lv_img_decoder_get_info(src, &header);
 1310              		.loc 1 282 13 is_stmt 1 view .LVU397
 283:Drivers/lvgl/src/extra/widgets/imgbtn/lv_imgbtn.c **** 
 1311              		.loc 1 283 13 view .LVU398
 1312 029c 03A9     		add	r1, sp, #12
 1313 029e 3046     		mov	r0, r6
 1314              	.LVL136:
 283:Drivers/lvgl/src/extra/widgets/imgbtn/lv_imgbtn.c **** 
 1315              		.loc 1 283 13 is_stmt 0 view .LVU399
 1316 02a0 FFF7FEFF 		bl	lv_img_decoder_get_info
 1317              	.LVL137:
 285:Drivers/lvgl/src/extra/widgets/imgbtn/lv_imgbtn.c ****             draw_ctx->clip_area = &clip_area_center;
 1318              		.loc 1 285 13 is_stmt 1 view .LVU400
 291:Drivers/lvgl/src/extra/widgets/imgbtn/lv_imgbtn.c **** 
 1319              		.loc 1 291 53 is_stmt 0 view .LVU401
 1320 02a4 BDF80E30 		ldrh	r3, [sp, #14]
 291:Drivers/lvgl/src/extra/widgets/imgbtn/lv_imgbtn.c **** 
 1321              		.loc 1 291 56 view .LVU402
 1322 02a8 0099     		ldr	r1, [sp]
 290:Drivers/lvgl/src/extra/widgets/imgbtn/lv_imgbtn.c ****             coords_part.y2 = coords_part.y1 + header.h - 1;
 1323              		.loc 1 290 53 view .LVU403
 1324 02aa 039A     		ldr	r2, [sp, #12]
 285:Drivers/lvgl/src/extra/widgets/imgbtn/lv_imgbtn.c ****             draw_ctx->clip_area = &clip_area_center;
 1325              		.loc 1 285 31 view .LVU404
 1326 02ac D9F80850 		ldr	r5, [r9, #8]
ARM GAS  /var/folders/lp/x54gwt890xv47sdkqj1k04q40000gn/T//cc18aQ1b.s 			page 40


 1327              	.LVL138:
 286:Drivers/lvgl/src/extra/widgets/imgbtn/lv_imgbtn.c **** 
 1328              		.loc 1 286 13 is_stmt 1 view .LVU405
 289:Drivers/lvgl/src/extra/widgets/imgbtn/lv_imgbtn.c ****             coords_part.x2 = coords_part.x1 + header.w - 1;
 1329              		.loc 1 289 28 is_stmt 0 view .LVU406
 1330 02b0 ADF81280 		strh	r8, [sp, #18]	@ movhi
 291:Drivers/lvgl/src/extra/widgets/imgbtn/lv_imgbtn.c **** 
 1331              		.loc 1 291 53 view .LVU407
 1332 02b4 C3F34A13 		ubfx	r3, r3, #5, #11
 291:Drivers/lvgl/src/extra/widgets/imgbtn/lv_imgbtn.c **** 
 1333              		.loc 1 291 56 view .LVU408
 1334 02b8 013B     		subs	r3, r3, #1
 1335 02ba 1944     		add	r1, r1, r3
 293:Drivers/lvgl/src/extra/widgets/imgbtn/lv_imgbtn.c ****                 lv_draw_img(draw_ctx, &img_dsc, &coords_part, src);
 1336              		.loc 1 293 74 discriminator 1 view .LVU409
 1337 02bc BDF81C30 		ldrh	r3, [sp, #28]
 288:Drivers/lvgl/src/extra/widgets/imgbtn/lv_imgbtn.c ****             coords_part.y1 = coords.y1;
 1338              		.loc 1 288 28 view .LVU410
 1339 02c0 ADF81040 		strh	r4, [sp, #16]	@ movhi
 290:Drivers/lvgl/src/extra/widgets/imgbtn/lv_imgbtn.c ****             coords_part.y2 = coords_part.y1 + header.h - 1;
 1340              		.loc 1 290 53 view .LVU411
 1341 02c4 C2F38A22 		ubfx	r2, r2, #10, #11
 293:Drivers/lvgl/src/extra/widgets/imgbtn/lv_imgbtn.c ****                 lv_draw_img(draw_ctx, &img_dsc, &coords_part, src);
 1342              		.loc 1 293 74 discriminator 1 view .LVU412
 1343 02c8 1344     		add	r3, r3, r2
 293:Drivers/lvgl/src/extra/widgets/imgbtn/lv_imgbtn.c ****                 lv_draw_img(draw_ctx, &img_dsc, &coords_part, src);
 1344              		.loc 1 293 85 discriminator 1 view .LVU413
 1345 02ca 013B     		subs	r3, r3, #1
 290:Drivers/lvgl/src/extra/widgets/imgbtn/lv_imgbtn.c ****             coords_part.y2 = coords_part.y1 + header.h - 1;
 1346              		.loc 1 290 56 view .LVU414
 1347 02cc 013A     		subs	r2, r2, #1
 293:Drivers/lvgl/src/extra/widgets/imgbtn/lv_imgbtn.c ****                 lv_draw_img(draw_ctx, &img_dsc, &coords_part, src);
 1348              		.loc 1 293 39 discriminator 1 view .LVU415
 1349 02ce 1BB2     		sxth	r3, r3
 290:Drivers/lvgl/src/extra/widgets/imgbtn/lv_imgbtn.c ****             coords_part.y2 = coords_part.y1 + header.h - 1;
 1350              		.loc 1 290 56 view .LVU416
 1351 02d0 1744     		add	r7, r7, r2
 293:Drivers/lvgl/src/extra/widgets/imgbtn/lv_imgbtn.c ****                 lv_draw_img(draw_ctx, &img_dsc, &coords_part, src);
 1352              		.loc 1 293 39 discriminator 1 view .LVU417
 1353 02d2 9C42     		cmp	r4, r3
 286:Drivers/lvgl/src/extra/widgets/imgbtn/lv_imgbtn.c **** 
 1354              		.loc 1 286 33 view .LVU418
 1355 02d4 06AA     		add	r2, sp, #24
 291:Drivers/lvgl/src/extra/widgets/imgbtn/lv_imgbtn.c **** 
 1356              		.loc 1 291 28 view .LVU419
 1357 02d6 ADF81610 		strh	r1, [sp, #22]	@ movhi
 290:Drivers/lvgl/src/extra/widgets/imgbtn/lv_imgbtn.c ****             coords_part.y2 = coords_part.y1 + header.h - 1;
 1358              		.loc 1 290 28 view .LVU420
 1359 02da ADF81470 		strh	r7, [sp, #20]	@ movhi
 286:Drivers/lvgl/src/extra/widgets/imgbtn/lv_imgbtn.c **** 
 1360              		.loc 1 286 33 view .LVU421
 1361 02de C9F80820 		str	r2, [r9, #8]
 288:Drivers/lvgl/src/extra/widgets/imgbtn/lv_imgbtn.c ****             coords_part.y1 = coords.y1;
 1362              		.loc 1 288 13 is_stmt 1 view .LVU422
 289:Drivers/lvgl/src/extra/widgets/imgbtn/lv_imgbtn.c ****             coords_part.x2 = coords_part.x1 + header.w - 1;
 1363              		.loc 1 289 13 view .LVU423
 290:Drivers/lvgl/src/extra/widgets/imgbtn/lv_imgbtn.c ****             coords_part.y2 = coords_part.y1 + header.h - 1;
ARM GAS  /var/folders/lp/x54gwt890xv47sdkqj1k04q40000gn/T//cc18aQ1b.s 			page 41


 1364              		.loc 1 290 13 view .LVU424
 291:Drivers/lvgl/src/extra/widgets/imgbtn/lv_imgbtn.c **** 
 1365              		.loc 1 291 13 view .LVU425
 293:Drivers/lvgl/src/extra/widgets/imgbtn/lv_imgbtn.c ****                 lv_draw_img(draw_ctx, &img_dsc, &coords_part, src);
 1366              		.loc 1 293 13 view .LVU426
 1367              	.LVL139:
 293:Drivers/lvgl/src/extra/widgets/imgbtn/lv_imgbtn.c ****                 lv_draw_img(draw_ctx, &img_dsc, &coords_part, src);
 1368              		.loc 1 293 39 discriminator 1 view .LVU427
 1369 02e2 1ADA     		bge	.L72
 1370              	.L71:
 294:Drivers/lvgl/src/extra/widgets/imgbtn/lv_imgbtn.c ****                 coords_part.x1 = coords_part.x2 + 1;
 1371              		.loc 1 294 17 view .LVU428
 1372 02e4 3346     		mov	r3, r6
 1373 02e6 04AA     		add	r2, sp, #16
 1374 02e8 08A9     		add	r1, sp, #32
 1375 02ea 4846     		mov	r0, r9
 1376 02ec FFF7FEFF 		bl	lv_draw_img
 1377              	.LVL140:
 295:Drivers/lvgl/src/extra/widgets/imgbtn/lv_imgbtn.c ****                 coords_part.x2 += header.w;
 1378              		.loc 1 295 17 view .LVU429
 296:Drivers/lvgl/src/extra/widgets/imgbtn/lv_imgbtn.c ****             }
 1379              		.loc 1 296 41 is_stmt 0 view .LVU430
 1380 02f0 039A     		ldr	r2, [sp, #12]
 293:Drivers/lvgl/src/extra/widgets/imgbtn/lv_imgbtn.c ****                 lv_draw_img(draw_ctx, &img_dsc, &coords_part, src);
 1381              		.loc 1 293 74 discriminator 1 view .LVU431
 1382 02f2 BDF81C30 		ldrh	r3, [sp, #28]
 295:Drivers/lvgl/src/extra/widgets/imgbtn/lv_imgbtn.c ****                 coords_part.x2 += header.w;
 1383              		.loc 1 295 45 view .LVU432
 1384 02f6 BDF81410 		ldrh	r1, [sp, #20]
 296:Drivers/lvgl/src/extra/widgets/imgbtn/lv_imgbtn.c ****             }
 1385              		.loc 1 296 41 view .LVU433
 1386 02fa C2F38A22 		ubfx	r2, r2, #10, #11
 293:Drivers/lvgl/src/extra/widgets/imgbtn/lv_imgbtn.c ****                 lv_draw_img(draw_ctx, &img_dsc, &coords_part, src);
 1387              		.loc 1 293 74 discriminator 1 view .LVU434
 1388 02fe 1344     		add	r3, r3, r2
 293:Drivers/lvgl/src/extra/widgets/imgbtn/lv_imgbtn.c ****                 lv_draw_img(draw_ctx, &img_dsc, &coords_part, src);
 1389              		.loc 1 293 93 discriminator 3 view .LVU435
 1390 0300 1444     		add	r4, r4, r2
 1391              	.LVL141:
 293:Drivers/lvgl/src/extra/widgets/imgbtn/lv_imgbtn.c ****                 lv_draw_img(draw_ctx, &img_dsc, &coords_part, src);
 1392              		.loc 1 293 85 discriminator 1 view .LVU436
 1393 0302 013B     		subs	r3, r3, #1
 293:Drivers/lvgl/src/extra/widgets/imgbtn/lv_imgbtn.c ****                 lv_draw_img(draw_ctx, &img_dsc, &coords_part, src);
 1394              		.loc 1 293 93 discriminator 3 view .LVU437
 1395 0304 24B2     		sxth	r4, r4
 293:Drivers/lvgl/src/extra/widgets/imgbtn/lv_imgbtn.c ****                 lv_draw_img(draw_ctx, &img_dsc, &coords_part, src);
 1396              		.loc 1 293 39 discriminator 1 view .LVU438
 1397 0306 1BB2     		sxth	r3, r3
 296:Drivers/lvgl/src/extra/widgets/imgbtn/lv_imgbtn.c ****             }
 1398              		.loc 1 296 32 view .LVU439
 1399 0308 0A44     		add	r2, r2, r1
 293:Drivers/lvgl/src/extra/widgets/imgbtn/lv_imgbtn.c ****                 lv_draw_img(draw_ctx, &img_dsc, &coords_part, src);
 1400              		.loc 1 293 39 discriminator 1 view .LVU440
 1401 030a 9C42     		cmp	r4, r3
 295:Drivers/lvgl/src/extra/widgets/imgbtn/lv_imgbtn.c ****                 coords_part.x2 += header.w;
 1402              		.loc 1 295 49 view .LVU441
 1403 030c 01F10101 		add	r1, r1, #1
ARM GAS  /var/folders/lp/x54gwt890xv47sdkqj1k04q40000gn/T//cc18aQ1b.s 			page 42


 296:Drivers/lvgl/src/extra/widgets/imgbtn/lv_imgbtn.c ****             }
 1404              		.loc 1 296 32 view .LVU442
 1405 0310 ADF81420 		strh	r2, [sp, #20]	@ movhi
 295:Drivers/lvgl/src/extra/widgets/imgbtn/lv_imgbtn.c ****                 coords_part.x2 += header.w;
 1406              		.loc 1 295 32 view .LVU443
 1407 0314 ADF81010 		strh	r1, [sp, #16]	@ movhi
 296:Drivers/lvgl/src/extra/widgets/imgbtn/lv_imgbtn.c ****             }
 1408              		.loc 1 296 17 is_stmt 1 view .LVU444
 293:Drivers/lvgl/src/extra/widgets/imgbtn/lv_imgbtn.c ****                 lv_draw_img(draw_ctx, &img_dsc, &coords_part, src);
 1409              		.loc 1 293 93 discriminator 3 view .LVU445
 1410              	.LVL142:
 293:Drivers/lvgl/src/extra/widgets/imgbtn/lv_imgbtn.c ****                 lv_draw_img(draw_ctx, &img_dsc, &coords_part, src);
 1411              		.loc 1 293 39 discriminator 1 view .LVU446
 1412 0318 E4DB     		blt	.L71
 1413              	.L72:
 298:Drivers/lvgl/src/extra/widgets/imgbtn/lv_imgbtn.c ****         }
 1414              		.loc 1 298 13 view .LVU447
 298:Drivers/lvgl/src/extra/widgets/imgbtn/lv_imgbtn.c ****         }
 1415              		.loc 1 298 33 is_stmt 0 view .LVU448
 1416 031a C9F80850 		str	r5, [r9, #8]
 1417 031e 78E6     		b	.L57
 1418              	.LVL143:
 1419              	.L64:
 298:Drivers/lvgl/src/extra/widgets/imgbtn/lv_imgbtn.c ****         }
 1420              		.loc 1 298 33 view .LVU449
 1421              	.LBE97:
 1422              	.LBE99:
 1423              	.LBE76:
 1424              	.LBE75:
 1425              	.LBB102:
 193:Drivers/lvgl/src/extra/widgets/imgbtn/lv_imgbtn.c ****         if(info->res != LV_COVER_RES_MASKED) info->res = LV_COVER_RES_NOT_COVER;
 1426              		.loc 1 193 9 is_stmt 1 view .LVU450
 193:Drivers/lvgl/src/extra/widgets/imgbtn/lv_imgbtn.c ****         if(info->res != LV_COVER_RES_MASKED) info->res = LV_COVER_RES_NOT_COVER;
 1427              		.loc 1 193 40 is_stmt 0 view .LVU451
 1428 0320 2846     		mov	r0, r5
 1429              	.LVL144:
 193:Drivers/lvgl/src/extra/widgets/imgbtn/lv_imgbtn.c ****         if(info->res != LV_COVER_RES_MASKED) info->res = LV_COVER_RES_NOT_COVER;
 1430              		.loc 1 193 40 view .LVU452
 1431 0322 FFF7FEFF 		bl	lv_event_get_param
 1432              	.LVL145:
 194:Drivers/lvgl/src/extra/widgets/imgbtn/lv_imgbtn.c ****     }
 1433              		.loc 1 194 9 is_stmt 1 view .LVU453
 194:Drivers/lvgl/src/extra/widgets/imgbtn/lv_imgbtn.c ****     }
 1434              		.loc 1 194 11 is_stmt 0 view .LVU454
 1435 0326 0378     		ldrb	r3, [r0]	@ zero_extendqisi2
 1436 0328 022B     		cmp	r3, #2
 1437 032a 3FF472AE 		beq	.L57
 194:Drivers/lvgl/src/extra/widgets/imgbtn/lv_imgbtn.c ****     }
 1438              		.loc 1 194 46 is_stmt 1 discriminator 1 view .LVU455
 194:Drivers/lvgl/src/extra/widgets/imgbtn/lv_imgbtn.c ****     }
 1439              		.loc 1 194 56 is_stmt 0 discriminator 1 view .LVU456
 1440 032e 0123     		movs	r3, #1
 1441 0330 0370     		strb	r3, [r0]
 1442 0332 6EE6     		b	.L57
 1443              	.LVL146:
 1444              	.L112:
 194:Drivers/lvgl/src/extra/widgets/imgbtn/lv_imgbtn.c ****     }
ARM GAS  /var/folders/lp/x54gwt890xv47sdkqj1k04q40000gn/T//cc18aQ1b.s 			page 43


 1445              		.loc 1 194 56 discriminator 1 view .LVU457
 1446              	.LBE102:
 211:Drivers/lvgl/src/extra/widgets/imgbtn/lv_imgbtn.c ****         }
 1447              		.loc 1 211 13 is_stmt 1 view .LVU458
 1448              	.LBB103:
 1449              	.LBI48:
  93:Drivers/lvgl/src/extra/widgets/imgbtn/lv_imgbtn.c **** {
 1450              		.loc 1 93 6 view .LVU459
 1451              	.LBB50:
  95:Drivers/lvgl/src/extra/widgets/imgbtn/lv_imgbtn.c **** 
 1452              		.loc 1 95 5 view .LVU460
  95:Drivers/lvgl/src/extra/widgets/imgbtn/lv_imgbtn.c **** 
 1453              		.loc 1 95 5 view .LVU461
  95:Drivers/lvgl/src/extra/widgets/imgbtn/lv_imgbtn.c **** 
 1454              		.loc 1 95 5 view .LVU462
  97:Drivers/lvgl/src/extra/widgets/imgbtn/lv_imgbtn.c ****     if(state == LV_IMGBTN_STATE_PRESSED || state == LV_IMGBTN_STATE_CHECKED_PRESSED) obj_state |= L
 1455              		.loc 1 97 5 view .LVU463
  98:Drivers/lvgl/src/extra/widgets/imgbtn/lv_imgbtn.c ****     if(state == LV_IMGBTN_STATE_DISABLED || state == LV_IMGBTN_STATE_CHECKED_DISABLED) obj_state |=
 1456              		.loc 1 98 5 view .LVU464
  99:Drivers/lvgl/src/extra/widgets/imgbtn/lv_imgbtn.c ****     if(state == LV_IMGBTN_STATE_CHECKED_DISABLED || state == LV_IMGBTN_STATE_CHECKED_PRESSED ||
 1457              		.loc 1 99 5 view .LVU465
 100:Drivers/lvgl/src/extra/widgets/imgbtn/lv_imgbtn.c ****        state == LV_IMGBTN_STATE_CHECKED_RELEASED) {
 1458              		.loc 1 100 5 view .LVU466
 102:Drivers/lvgl/src/extra/widgets/imgbtn/lv_imgbtn.c ****     }
 1459              		.loc 1 102 9 view .LVU467
 105:Drivers/lvgl/src/extra/widgets/imgbtn/lv_imgbtn.c ****     lv_obj_add_state(obj, obj_state);
 1460              		.loc 1 105 5 view .LVU468
 1461 0334 FFF7FEFF 		bl	lv_obj_clear_state
 1462              	.LVL147:
 106:Drivers/lvgl/src/extra/widgets/imgbtn/lv_imgbtn.c **** 
 1463              		.loc 1 106 5 view .LVU469
 1464 0338 0121     		movs	r1, #1
 1465 033a DFE6     		b	.L110
 1466              	.LVL148:
 1467              	.L114:
 106:Drivers/lvgl/src/extra/widgets/imgbtn/lv_imgbtn.c **** 
 1468              		.loc 1 106 5 is_stmt 0 view .LVU470
 1469              	.LBE50:
 1470              	.LBE103:
 1471              	.LBB104:
 1472              	.LBB101:
 1473              	.LBB100:
 1474              	.LBB79:
 1475 033c 0146     		mov	r1, r0
 1476 033e 2046     		mov	r0, r4
 1477              	.LVL149:
 106:Drivers/lvgl/src/extra/widgets/imgbtn/lv_imgbtn.c **** 
 1478              		.loc 1 106 5 view .LVU471
 1479 0340 FFF7FEFF 		bl	suggest_state.part.0
 1480              	.LVL150:
 106:Drivers/lvgl/src/extra/widgets/imgbtn/lv_imgbtn.c **** 
 1481              		.loc 1 106 5 view .LVU472
 1482 0344 1CE7     		b	.L66
 1483              	.L118:
 1484 0346 00BF     		.align	2
 1485              	.L117:
 1486 0348 00000000 		.word	lv_imgbtn_class
ARM GAS  /var/folders/lp/x54gwt890xv47sdkqj1k04q40000gn/T//cc18aQ1b.s 			page 44


 1487              	.LVL151:
 1488              	.L113:
 106:Drivers/lvgl/src/extra/widgets/imgbtn/lv_imgbtn.c **** 
 1489              		.loc 1 106 5 view .LVU473
 1490              	.LBE79:
 1491              	.LBE100:
 1492              	.LBE101:
 1493              	.LBE104:
 1494              	.LBB105:
 1495              	.LBB71:
 1496              	.LBB66:
 1497              	.LBB58:
 1498              	.LBI58:
 334:Drivers/lvgl/src/extra/widgets/imgbtn/lv_imgbtn.c **** {
 1499              		.loc 1 334 26 is_stmt 1 view .LVU474
 1500              	.LBB59:
 338:Drivers/lvgl/src/extra/widgets/imgbtn/lv_imgbtn.c ****             case LV_IMGBTN_STATE_PRESSED:
 1501              		.loc 1 338 9 view .LVU475
 1502 034c 431E     		subs	r3, r0, #1
 1503 034e 042B     		cmp	r3, #4
 1504 0350 0BD8     		bhi	.L75
 1505 0352 DFE803F0 		tbb	[pc, r3]
 1506              	.L77:
 1507 0356 1F       		.byte	(.L81-.L77)/2
 1508 0357 24       		.byte	(.L80-.L77)/2
 1509 0358 1B       		.byte	(.L79-.L77)/2
 1510 0359 15       		.byte	(.L78-.L77)/2
 1511 035a 03       		.byte	(.L76-.L77)/2
 1512 035b 00       		.p2align 1
 1513              	.L76:
 354:Drivers/lvgl/src/extra/widgets/imgbtn/lv_imgbtn.c ****                 if(imgbtn->img_src_mid[LV_IMGBTN_STATE_RELEASED]) return LV_IMGBTN_STATE_RELEASED;
 1514              		.loc 1 354 17 view .LVU476
 354:Drivers/lvgl/src/extra/widgets/imgbtn/lv_imgbtn.c ****                 if(imgbtn->img_src_mid[LV_IMGBTN_STATE_RELEASED]) return LV_IMGBTN_STATE_RELEASED;
 1515              		.loc 1 354 19 is_stmt 0 view .LVU477
 1516 035c 306B     		ldr	r0, [r6, #48]
 1517              	.LVL152:
 354:Drivers/lvgl/src/extra/widgets/imgbtn/lv_imgbtn.c ****                 if(imgbtn->img_src_mid[LV_IMGBTN_STATE_RELEASED]) return LV_IMGBTN_STATE_RELEASED;
 1518              		.loc 1 354 19 view .LVU478
 1519 035e 20BB     		cbnz	r0, .L90
 355:Drivers/lvgl/src/extra/widgets/imgbtn/lv_imgbtn.c ****                 break;
 1520              		.loc 1 355 17 is_stmt 1 view .LVU479
 355:Drivers/lvgl/src/extra/widgets/imgbtn/lv_imgbtn.c ****                 break;
 1521              		.loc 1 355 19 is_stmt 0 view .LVU480
 1522 0360 726A     		ldr	r2, [r6, #36]
 1523 0362 002A     		cmp	r2, #0
 1524 0364 7FF4E0AE 		bne	.L74
 1525 0368 0520     		movs	r0, #5
 1526              	.LVL153:
 1527              	.L75:
 355:Drivers/lvgl/src/extra/widgets/imgbtn/lv_imgbtn.c ****                 break;
 1528              		.loc 1 355 19 view .LVU481
 1529              	.LBE59:
 1530              	.LBE58:
 1531              	.LBE66:
 1532              	.LBE71:
 200:Drivers/lvgl/src/extra/widgets/imgbtn/lv_imgbtn.c ****            imgbtn->img_src_mid[state] != NULL &&
 1533              		.loc 1 200 9 is_stmt 1 view .LVU482
ARM GAS  /var/folders/lp/x54gwt890xv47sdkqj1k04q40000gn/T//cc18aQ1b.s 			page 45


 1534 036a 06EB8003 		add	r3, r6, r0, lsl #2
 200:Drivers/lvgl/src/extra/widgets/imgbtn/lv_imgbtn.c ****            imgbtn->img_src_mid[state] != NULL &&
 1535              		.loc 1 200 11 is_stmt 0 view .LVU483
 1536 036e DA6B     		ldr	r2, [r3, #60]
 1537 0370 002A     		cmp	r2, #0
 1538 0372 7FF44EAE 		bne	.L57
 201:Drivers/lvgl/src/extra/widgets/imgbtn/lv_imgbtn.c ****            imgbtn->img_src_right[state] == NULL) {
 1539              		.loc 1 201 31 view .LVU484
 1540 0376 5A6A     		ldr	r2, [r3, #36]
 200:Drivers/lvgl/src/extra/widgets/imgbtn/lv_imgbtn.c ****            imgbtn->img_src_mid[state] != NULL &&
 1541              		.loc 1 200 48 discriminator 1 view .LVU485
 1542 0378 002A     		cmp	r2, #0
 1543 037a 3FF44AAE 		beq	.L57
 1544 037e DAE6     		b	.L83
 1545              	.LVL154:
 1546              	.L78:
 1547              	.LBB72:
 1548              	.LBB67:
 1549              	.LBB63:
 1550              	.LBB60:
 346:Drivers/lvgl/src/extra/widgets/imgbtn/lv_imgbtn.c ****                 if(imgbtn->img_src_mid[LV_IMGBTN_STATE_PRESSED]) return LV_IMGBTN_STATE_PRESSED;
 1551              		.loc 1 346 17 is_stmt 1 view .LVU486
 346:Drivers/lvgl/src/extra/widgets/imgbtn/lv_imgbtn.c ****                 if(imgbtn->img_src_mid[LV_IMGBTN_STATE_PRESSED]) return LV_IMGBTN_STATE_PRESSED;
 1552              		.loc 1 346 19 is_stmt 0 view .LVU487
 1553 0380 336B     		ldr	r3, [r6, #48]
 1554 0382 93B9     		cbnz	r3, .L90
 347:Drivers/lvgl/src/extra/widgets/imgbtn/lv_imgbtn.c ****                 if(imgbtn->img_src_mid[LV_IMGBTN_STATE_RELEASED]) return LV_IMGBTN_STATE_RELEASED;
 1555              		.loc 1 347 17 is_stmt 1 view .LVU488
 347:Drivers/lvgl/src/extra/widgets/imgbtn/lv_imgbtn.c ****                 if(imgbtn->img_src_mid[LV_IMGBTN_STATE_RELEASED]) return LV_IMGBTN_STATE_RELEASED;
 1556              		.loc 1 347 19 is_stmt 0 view .LVU489
 1557 0384 B36A     		ldr	r3, [r6, #40]
 1558 0386 A3B1     		cbz	r3, .L115
 1559 0388 0120     		movs	r0, #1
 1560              	.LVL155:
 347:Drivers/lvgl/src/extra/widgets/imgbtn/lv_imgbtn.c ****                 if(imgbtn->img_src_mid[LV_IMGBTN_STATE_RELEASED]) return LV_IMGBTN_STATE_RELEASED;
 1561              		.loc 1 347 19 view .LVU490
 1562 038a CDE6     		b	.L74
 1563              	.LVL156:
 1564              	.L79:
 343:Drivers/lvgl/src/extra/widgets/imgbtn/lv_imgbtn.c ****                 break;
 1565              		.loc 1 343 17 is_stmt 1 view .LVU491
 343:Drivers/lvgl/src/extra/widgets/imgbtn/lv_imgbtn.c ****                 break;
 1566              		.loc 1 343 19 is_stmt 0 view .LVU492
 1567 038c 736A     		ldr	r3, [r6, #36]
 1568 038e 73B1     		cbz	r3, .L116
 1569 0390 0020     		movs	r0, #0
 1570              	.LVL157:
 343:Drivers/lvgl/src/extra/widgets/imgbtn/lv_imgbtn.c ****                 break;
 1571              		.loc 1 343 19 view .LVU493
 1572 0392 C9E6     		b	.L74
 1573              	.LVL158:
 1574              	.L81:
 340:Drivers/lvgl/src/extra/widgets/imgbtn/lv_imgbtn.c ****                 break;
 1575              		.loc 1 340 17 is_stmt 1 view .LVU494
 340:Drivers/lvgl/src/extra/widgets/imgbtn/lv_imgbtn.c ****                 break;
 1576              		.loc 1 340 19 is_stmt 0 view .LVU495
 1577 0394 706A     		ldr	r0, [r6, #36]
ARM GAS  /var/folders/lp/x54gwt890xv47sdkqj1k04q40000gn/T//cc18aQ1b.s 			page 46


 1578              	.LVL159:
 340:Drivers/lvgl/src/extra/widgets/imgbtn/lv_imgbtn.c ****                 break;
 1579              		.loc 1 340 19 view .LVU496
 1580 0396 B0FA80F0 		clz	r0, r0
 1581 039a 4009     		lsrs	r0, r0, #5
 1582 039c E5E7     		b	.L75
 1583              	.LVL160:
 1584              	.L80:
 351:Drivers/lvgl/src/extra/widgets/imgbtn/lv_imgbtn.c ****                 break;
 1585              		.loc 1 351 17 is_stmt 1 view .LVU497
 351:Drivers/lvgl/src/extra/widgets/imgbtn/lv_imgbtn.c ****                 break;
 1586              		.loc 1 351 19 is_stmt 0 view .LVU498
 1587 039e 736A     		ldr	r3, [r6, #36]
 1588 03a0 B3FA83F3 		clz	r3, r3
 1589 03a4 5B09     		lsrs	r3, r3, #5
 1590              	.LBE60:
 1591              	.LBE63:
 1592              	.LBE67:
 1593              	.LBE72:
 200:Drivers/lvgl/src/extra/widgets/imgbtn/lv_imgbtn.c ****            imgbtn->img_src_mid[state] != NULL &&
 1594              		.loc 1 200 32 view .LVU499
 1595 03a6 5800     		lsls	r0, r3, #1
 1596              	.LVL161:
 1597              	.LBB73:
 1598              	.LBB68:
 1599              	.LBB64:
 1600              	.LBB61:
 200:Drivers/lvgl/src/extra/widgets/imgbtn/lv_imgbtn.c ****            imgbtn->img_src_mid[state] != NULL &&
 1601              		.loc 1 200 32 view .LVU500
 1602 03a8 DFE7     		b	.L75
 1603              	.L90:
 200:Drivers/lvgl/src/extra/widgets/imgbtn/lv_imgbtn.c ****            imgbtn->img_src_mid[state] != NULL &&
 1604              		.loc 1 200 32 view .LVU501
 1605 03aa 0320     		movs	r0, #3
 1606 03ac BCE6     		b	.L74
 1607              	.LVL162:
 1608              	.L116:
 200:Drivers/lvgl/src/extra/widgets/imgbtn/lv_imgbtn.c ****            imgbtn->img_src_mid[state] != NULL &&
 1609              		.loc 1 200 32 view .LVU502
 1610 03ae 0320     		movs	r0, #3
 1611              	.LVL163:
 200:Drivers/lvgl/src/extra/widgets/imgbtn/lv_imgbtn.c ****            imgbtn->img_src_mid[state] != NULL &&
 1612              		.loc 1 200 32 view .LVU503
 1613 03b0 DBE7     		b	.L75
 1614              	.LVL164:
 1615              	.L115:
 348:Drivers/lvgl/src/extra/widgets/imgbtn/lv_imgbtn.c ****                 break;
 1616              		.loc 1 348 17 is_stmt 1 view .LVU504
 348:Drivers/lvgl/src/extra/widgets/imgbtn/lv_imgbtn.c ****                 break;
 1617              		.loc 1 348 19 is_stmt 0 view .LVU505
 1618 03b2 706A     		ldr	r0, [r6, #36]
 1619              	.LVL165:
 348:Drivers/lvgl/src/extra/widgets/imgbtn/lv_imgbtn.c ****                 break;
 1620              		.loc 1 348 19 view .LVU506
 1621 03b4 B0FA80F0 		clz	r0, r0
 1622 03b8 4009     		lsrs	r0, r0, #5
 1623              	.LBE61:
ARM GAS  /var/folders/lp/x54gwt890xv47sdkqj1k04q40000gn/T//cc18aQ1b.s 			page 47


 1624              	.LBE64:
 1625              	.LBE68:
 1626              	.LBE73:
 200:Drivers/lvgl/src/extra/widgets/imgbtn/lv_imgbtn.c ****            imgbtn->img_src_mid[state] != NULL &&
 1627              		.loc 1 200 32 view .LVU507
 1628 03ba 8000     		lsls	r0, r0, #2
 1629              	.LBB74:
 1630              	.LBB69:
 1631              	.LBB65:
 1632              	.LBB62:
 1633 03bc D5E7     		b	.L75
 1634              	.LBE62:
 1635              	.LBE65:
 1636              	.LBE69:
 1637              	.LBE74:
 1638              	.LBE105:
 1639              	.LBE106:
 1640              	.LBE107:
 1641              		.cfi_endproc
 1642              	.LFE211:
 1644              		.global	lv_imgbtn_class
 1645 03be 00BF     		.section	.rodata.lv_imgbtn_class,"a"
 1646              		.align	2
 1649              	lv_imgbtn_class:
 1650 0000 00000000 		.word	lv_obj_class
 1651 0004 00000000 		.word	lv_imgbtn_constructor
 1652 0008 00000000 		.space	8
 1652      00000000 
 1653 0010 00000000 		.word	lv_imgbtn_event
 1654 0014 00000000 		.space	4
 1655 0018 00       		.byte	0
 1656 0019 07       		.byte	7
 1657 001a 00       		.byte	0
 1658 001b 00       		.space	1
 1659              		.text
 1660              	.Letext0:
 1661              		.file 4 "/Users/jr/Library/Application Support/Code/User/globalStorage/bmd.stm32-for-vscode/@xpack
 1662              		.file 5 "/Users/jr/Library/Application Support/Code/User/globalStorage/bmd.stm32-for-vscode/@xpack
 1663              		.file 6 "Drivers/lvgl/src/extra/widgets/imgbtn/../../../../src/misc/lv_types.h"
 1664              		.file 7 "/Users/jr/Library/Application Support/Code/User/globalStorage/bmd.stm32-for-vscode/@xpack
 1665              		.file 8 "Drivers/lvgl/src/extra/widgets/imgbtn/../../../../src/hal/../draw/../misc/../font/lv_font
 1666              		.file 9 "Drivers/lvgl/src/extra/widgets/imgbtn/../../../../src/hal/../draw/../misc/lv_color.h"
 1667              		.file 10 "Drivers/lvgl/src/extra/widgets/imgbtn/../../../../src/hal/../draw/../misc/lv_txt.h"
 1668              		.file 11 "Drivers/lvgl/src/extra/widgets/imgbtn/../../../../src/hal/../draw/../misc/lv_bidi.h"
 1669              		.file 12 "Drivers/lvgl/src/extra/widgets/imgbtn/../../../../src/hal/../draw/../misc/lv_style.h"
 1670              		.file 13 "Drivers/lvgl/src/extra/widgets/imgbtn/../../../../src/hal/../draw/lv_img_buf.h"
 1671              		.file 14 "Drivers/lvgl/src/extra/widgets/imgbtn/../../../../src/core/lv_obj.h"
 1672              		.file 15 "Drivers/lvgl/src/extra/widgets/imgbtn/../../../../src/hal/../draw/lv_draw_rect.h"
 1673              		.file 16 "Drivers/lvgl/src/extra/widgets/imgbtn/../../../../src/hal/../draw/lv_draw_label.h"
 1674              		.file 17 "Drivers/lvgl/src/extra/widgets/imgbtn/../../../../src/hal/../draw/lv_draw_img.h"
 1675              		.file 18 "Drivers/lvgl/src/extra/widgets/imgbtn/../../../../src/hal/../draw/lv_draw_line.h"
 1676              		.file 19 "Drivers/lvgl/src/extra/widgets/imgbtn/../../../../src/hal/../draw/lv_draw_arc.h"
 1677              		.file 20 "Drivers/lvgl/src/extra/widgets/imgbtn/../../../../src/hal/../draw/lv_draw_layer.h"
 1678              		.file 21 "Drivers/lvgl/src/extra/widgets/imgbtn/../../../../src/hal/../draw/lv_draw.h"
 1679              		.file 22 "Drivers/lvgl/src/extra/widgets/imgbtn/../../../../src/hal/../misc/lv_ll.h"
 1680              		.file 23 "Drivers/lvgl/src/extra/widgets/imgbtn/../../../../src/core/lv_group.h"
 1681              		.file 24 "Drivers/lvgl/src/extra/widgets/imgbtn/../../../../src/core/lv_obj_scroll.h"
ARM GAS  /var/folders/lp/x54gwt890xv47sdkqj1k04q40000gn/T//cc18aQ1b.s 			page 48


 1682              		.file 25 "Drivers/lvgl/src/extra/widgets/imgbtn/../../../../src/core/lv_obj_style.h"
 1683              		.file 26 "Drivers/lvgl/src/extra/widgets/imgbtn/../../../../src/core/lv_obj_draw.h"
 1684              		.file 27 "Drivers/lvgl/src/extra/widgets/imgbtn/../../../../src/core/lv_obj_class.h"
 1685              		.file 28 "Drivers/lvgl/src/extra/widgets/imgbtn/../../../../src/core/lv_event.h"
 1686              		.file 29 "Drivers/lvgl/src/extra/widgets/imgbtn/../../../../src/widgets/lv_bar.h"
 1687              		.file 30 "Drivers/lvgl/src/extra/widgets/imgbtn/lv_imgbtn.h"
 1688              		.file 31 "Drivers/lvgl/src/extra/widgets/imgbtn/../../../../src/misc/lv_mem.h"
 1689              		.file 32 "Drivers/lvgl/src/extra/widgets/imgbtn/../../../../src/hal/../draw/sw/../../core/lv_obj_p
 1690              		.file 33 "Drivers/lvgl/src/extra/widgets/imgbtn/../../../../src/hal/../draw/lv_img_decoder.h"
ARM GAS  /var/folders/lp/x54gwt890xv47sdkqj1k04q40000gn/T//cc18aQ1b.s 			page 49


DEFINED SYMBOLS
                            *ABS*:00000000 lv_imgbtn.c
/var/folders/lp/x54gwt890xv47sdkqj1k04q40000gn/T//cc18aQ1b.s:21     .text.lv_imgbtn_constructor:00000000 $t
/var/folders/lp/x54gwt890xv47sdkqj1k04q40000gn/T//cc18aQ1b.s:27     .text.lv_imgbtn_constructor:00000000 lv_imgbtn_constructor
/var/folders/lp/x54gwt890xv47sdkqj1k04q40000gn/T//cc18aQ1b.s:74     .text.suggest_state.part.0:00000000 $t
/var/folders/lp/x54gwt890xv47sdkqj1k04q40000gn/T//cc18aQ1b.s:80     .text.suggest_state.part.0:00000000 suggest_state.part.0
/var/folders/lp/x54gwt890xv47sdkqj1k04q40000gn/T//cc18aQ1b.s:94     .text.suggest_state.part.0:0000000a $d
/var/folders/lp/x54gwt890xv47sdkqj1k04q40000gn/T//cc18aQ1b.s:187    .text.lv_imgbtn_create:00000000 $t
/var/folders/lp/x54gwt890xv47sdkqj1k04q40000gn/T//cc18aQ1b.s:194    .text.lv_imgbtn_create:00000000 lv_imgbtn_create
/var/folders/lp/x54gwt890xv47sdkqj1k04q40000gn/T//cc18aQ1b.s:233    .text.lv_imgbtn_create:00000014 $d
/var/folders/lp/x54gwt890xv47sdkqj1k04q40000gn/T//cc18aQ1b.s:1649   .rodata.lv_imgbtn_class:00000000 lv_imgbtn_class
/var/folders/lp/x54gwt890xv47sdkqj1k04q40000gn/T//cc18aQ1b.s:238    .text.lv_imgbtn_get_src_left:00000000 $t
/var/folders/lp/x54gwt890xv47sdkqj1k04q40000gn/T//cc18aQ1b.s:245    .text.lv_imgbtn_get_src_left:00000000 lv_imgbtn_get_src_left
/var/folders/lp/x54gwt890xv47sdkqj1k04q40000gn/T//cc18aQ1b.s:268    .text.lv_imgbtn_get_src_middle:00000000 $t
/var/folders/lp/x54gwt890xv47sdkqj1k04q40000gn/T//cc18aQ1b.s:275    .text.lv_imgbtn_get_src_middle:00000000 lv_imgbtn_get_src_middle
/var/folders/lp/x54gwt890xv47sdkqj1k04q40000gn/T//cc18aQ1b.s:298    .text.lv_imgbtn_get_src_right:00000000 $t
/var/folders/lp/x54gwt890xv47sdkqj1k04q40000gn/T//cc18aQ1b.s:305    .text.lv_imgbtn_get_src_right:00000000 lv_imgbtn_get_src_right
/var/folders/lp/x54gwt890xv47sdkqj1k04q40000gn/T//cc18aQ1b.s:328    .text.get_state:00000000 $t
/var/folders/lp/x54gwt890xv47sdkqj1k04q40000gn/T//cc18aQ1b.s:335    .text.get_state:00000000 get_state
/var/folders/lp/x54gwt890xv47sdkqj1k04q40000gn/T//cc18aQ1b.s:400    .text.refr_img:00000000 $t
/var/folders/lp/x54gwt890xv47sdkqj1k04q40000gn/T//cc18aQ1b.s:406    .text.refr_img:00000000 refr_img
/var/folders/lp/x54gwt890xv47sdkqj1k04q40000gn/T//cc18aQ1b.s:537    .text.lv_imgbtn_set_src:00000000 $t
/var/folders/lp/x54gwt890xv47sdkqj1k04q40000gn/T//cc18aQ1b.s:544    .text.lv_imgbtn_set_src:00000000 lv_imgbtn_set_src
/var/folders/lp/x54gwt890xv47sdkqj1k04q40000gn/T//cc18aQ1b.s:578    .text.lv_imgbtn_set_state:00000000 $t
/var/folders/lp/x54gwt890xv47sdkqj1k04q40000gn/T//cc18aQ1b.s:585    .text.lv_imgbtn_set_state:00000000 lv_imgbtn_set_state
/var/folders/lp/x54gwt890xv47sdkqj1k04q40000gn/T//cc18aQ1b.s:681    .text.lv_imgbtn_event:00000000 $t
/var/folders/lp/x54gwt890xv47sdkqj1k04q40000gn/T//cc18aQ1b.s:687    .text.lv_imgbtn_event:00000000 lv_imgbtn_event
/var/folders/lp/x54gwt890xv47sdkqj1k04q40000gn/T//cc18aQ1b.s:762    .text.lv_imgbtn_event:00000034 $d
/var/folders/lp/x54gwt890xv47sdkqj1k04q40000gn/T//cc18aQ1b.s:806    .text.lv_imgbtn_event:000000e4 $t
/var/folders/lp/x54gwt890xv47sdkqj1k04q40000gn/T//cc18aQ1b.s:1486   .text.lv_imgbtn_event:00000348 $d
/var/folders/lp/x54gwt890xv47sdkqj1k04q40000gn/T//cc18aQ1b.s:1502   .text.lv_imgbtn_event:0000034c $t
/var/folders/lp/x54gwt890xv47sdkqj1k04q40000gn/T//cc18aQ1b.s:1507   .text.lv_imgbtn_event:00000356 $d
/var/folders/lp/x54gwt890xv47sdkqj1k04q40000gn/T//cc18aQ1b.s:1646   .rodata.lv_imgbtn_class:00000000 $d
/var/folders/lp/x54gwt890xv47sdkqj1k04q40000gn/T//cc18aQ1b.s:99     .text.suggest_state.part.0:0000000f $d
/var/folders/lp/x54gwt890xv47sdkqj1k04q40000gn/T//cc18aQ1b.s:99     .text.suggest_state.part.0:00000010 $t
/var/folders/lp/x54gwt890xv47sdkqj1k04q40000gn/T//cc18aQ1b.s:1512   .text.lv_imgbtn_event:0000035b $d
/var/folders/lp/x54gwt890xv47sdkqj1k04q40000gn/T//cc18aQ1b.s:1512   .text.lv_imgbtn_event:0000035c $t

UNDEFINED SYMBOLS
lv_memset_00
lv_obj_class_create_obj
lv_obj_class_init_obj
lv_obj_get_state
lv_img_decoder_get_info
lv_obj_invalidate
lv_obj_refresh_self_size
lv_obj_set_height
lv_obj_clear_state
lv_obj_add_state
lv_obj_event_base
lv_event_get_code
lv_event_get_target
lv_obj_has_state
lv_event_get_self_size_info
lv_event_get_draw_ctx
lv_obj_get_style_prop
lv_draw_img_dsc_init
ARM GAS  /var/folders/lp/x54gwt890xv47sdkqj1k04q40000gn/T//cc18aQ1b.s 			page 50


lv_obj_init_draw_img_dsc
lv_draw_img
_lv_area_intersect
lv_event_get_param
lv_obj_class
