ARM GAS  /var/folders/lp/x54gwt890xv47sdkqj1k04q40000gn/T//ccfgQDQQ.s 			page 1


   1              		.cpu cortex-m4
   2              		.arch armv7e-m
   3              		.fpu fpv4-sp-d16
   4              		.eabi_attribute 27, 1
   5              		.eabi_attribute 28, 1
   6              		.eabi_attribute 20, 1
   7              		.eabi_attribute 21, 1
   8              		.eabi_attribute 23, 3
   9              		.eabi_attribute 24, 1
  10              		.eabi_attribute 25, 1
  11              		.eabi_attribute 26, 1
  12              		.eabi_attribute 30, 2
  13              		.eabi_attribute 34, 1
  14              		.eabi_attribute 18, 4
  15              		.file	"lv_indev.c"
  16              		.text
  17              	.Ltext0:
  18              		.cfi_sections	.debug_frame
  19              		.file 1 "Drivers/lvgl/src/core/lv_indev.c"
  20              		.section	.text.indev_proc_release,"ax",%progbits
  21              		.align	1
  22              		.p2align 2,,3
  23              		.syntax unified
  24              		.thumb
  25              		.thumb_func
  27              	indev_proc_release:
  28              	.LVL0:
  29              	.LFB191:
   1:Drivers/lvgl/src/core/lv_indev.c **** /**
   2:Drivers/lvgl/src/core/lv_indev.c ****  * @file lv_indev.c
   3:Drivers/lvgl/src/core/lv_indev.c ****  *
   4:Drivers/lvgl/src/core/lv_indev.c ****  */
   5:Drivers/lvgl/src/core/lv_indev.c **** 
   6:Drivers/lvgl/src/core/lv_indev.c **** /*********************
   7:Drivers/lvgl/src/core/lv_indev.c ****  *      INCLUDES
   8:Drivers/lvgl/src/core/lv_indev.c ****  ********************/
   9:Drivers/lvgl/src/core/lv_indev.c **** #include "lv_indev.h"
  10:Drivers/lvgl/src/core/lv_indev.c **** #include "lv_disp.h"
  11:Drivers/lvgl/src/core/lv_indev.c **** #include "lv_obj.h"
  12:Drivers/lvgl/src/core/lv_indev.c **** #include "lv_indev_scroll.h"
  13:Drivers/lvgl/src/core/lv_indev.c **** #include "lv_group.h"
  14:Drivers/lvgl/src/core/lv_indev.c **** #include "lv_refr.h"
  15:Drivers/lvgl/src/core/lv_indev.c **** 
  16:Drivers/lvgl/src/core/lv_indev.c **** #include "../hal/lv_hal_tick.h"
  17:Drivers/lvgl/src/core/lv_indev.c **** #include "../misc/lv_timer.h"
  18:Drivers/lvgl/src/core/lv_indev.c **** #include "../misc/lv_math.h"
  19:Drivers/lvgl/src/core/lv_indev.c **** 
  20:Drivers/lvgl/src/core/lv_indev.c **** /*********************
  21:Drivers/lvgl/src/core/lv_indev.c ****  *      DEFINES
  22:Drivers/lvgl/src/core/lv_indev.c ****  *********************/
  23:Drivers/lvgl/src/core/lv_indev.c **** #if LV_INDEV_DEF_SCROLL_THROW <= 0
  24:Drivers/lvgl/src/core/lv_indev.c ****     #warning "LV_INDEV_DRAG_THROW must be greater than 0"
  25:Drivers/lvgl/src/core/lv_indev.c **** #endif
  26:Drivers/lvgl/src/core/lv_indev.c **** 
  27:Drivers/lvgl/src/core/lv_indev.c **** /**********************
  28:Drivers/lvgl/src/core/lv_indev.c ****  *      TYPEDEFS
  29:Drivers/lvgl/src/core/lv_indev.c ****  **********************/
ARM GAS  /var/folders/lp/x54gwt890xv47sdkqj1k04q40000gn/T//ccfgQDQQ.s 			page 2


  30:Drivers/lvgl/src/core/lv_indev.c **** 
  31:Drivers/lvgl/src/core/lv_indev.c **** /**********************
  32:Drivers/lvgl/src/core/lv_indev.c ****  *  STATIC PROTOTYPES
  33:Drivers/lvgl/src/core/lv_indev.c ****  **********************/
  34:Drivers/lvgl/src/core/lv_indev.c **** static void indev_pointer_proc(lv_indev_t * i, lv_indev_data_t * data);
  35:Drivers/lvgl/src/core/lv_indev.c **** static void indev_keypad_proc(lv_indev_t * i, lv_indev_data_t * data);
  36:Drivers/lvgl/src/core/lv_indev.c **** static void indev_encoder_proc(lv_indev_t * i, lv_indev_data_t * data);
  37:Drivers/lvgl/src/core/lv_indev.c **** static void indev_button_proc(lv_indev_t * i, lv_indev_data_t * data);
  38:Drivers/lvgl/src/core/lv_indev.c **** static void indev_proc_press(_lv_indev_proc_t * proc);
  39:Drivers/lvgl/src/core/lv_indev.c **** static void indev_proc_release(_lv_indev_proc_t * proc);
  40:Drivers/lvgl/src/core/lv_indev.c **** static void indev_proc_reset_query_handler(lv_indev_t * indev);
  41:Drivers/lvgl/src/core/lv_indev.c **** static void indev_click_focus(_lv_indev_proc_t * proc);
  42:Drivers/lvgl/src/core/lv_indev.c **** static void indev_gesture(_lv_indev_proc_t * proc);
  43:Drivers/lvgl/src/core/lv_indev.c **** static bool indev_reset_check(_lv_indev_proc_t * proc);
  44:Drivers/lvgl/src/core/lv_indev.c **** 
  45:Drivers/lvgl/src/core/lv_indev.c **** /**********************
  46:Drivers/lvgl/src/core/lv_indev.c ****  *  STATIC VARIABLES
  47:Drivers/lvgl/src/core/lv_indev.c ****  **********************/
  48:Drivers/lvgl/src/core/lv_indev.c **** static lv_indev_t * indev_act;
  49:Drivers/lvgl/src/core/lv_indev.c **** static lv_obj_t * indev_obj_act = NULL;
  50:Drivers/lvgl/src/core/lv_indev.c **** 
  51:Drivers/lvgl/src/core/lv_indev.c **** /**********************
  52:Drivers/lvgl/src/core/lv_indev.c ****  *      MACROS
  53:Drivers/lvgl/src/core/lv_indev.c ****  **********************/
  54:Drivers/lvgl/src/core/lv_indev.c **** #if LV_LOG_TRACE_INDEV
  55:Drivers/lvgl/src/core/lv_indev.c ****     #define INDEV_TRACE(...) LV_LOG_TRACE(__VA_ARGS__)
  56:Drivers/lvgl/src/core/lv_indev.c **** #else
  57:Drivers/lvgl/src/core/lv_indev.c ****     #define INDEV_TRACE(...)
  58:Drivers/lvgl/src/core/lv_indev.c **** #endif
  59:Drivers/lvgl/src/core/lv_indev.c **** 
  60:Drivers/lvgl/src/core/lv_indev.c **** /**********************
  61:Drivers/lvgl/src/core/lv_indev.c ****  *   GLOBAL FUNCTIONS
  62:Drivers/lvgl/src/core/lv_indev.c ****  **********************/
  63:Drivers/lvgl/src/core/lv_indev.c **** 
  64:Drivers/lvgl/src/core/lv_indev.c **** void lv_indev_read_timer_cb(lv_timer_t * timer)
  65:Drivers/lvgl/src/core/lv_indev.c **** {
  66:Drivers/lvgl/src/core/lv_indev.c ****     INDEV_TRACE("begin");
  67:Drivers/lvgl/src/core/lv_indev.c **** 
  68:Drivers/lvgl/src/core/lv_indev.c ****     lv_indev_data_t data;
  69:Drivers/lvgl/src/core/lv_indev.c **** 
  70:Drivers/lvgl/src/core/lv_indev.c ****     indev_act = timer->user_data;
  71:Drivers/lvgl/src/core/lv_indev.c **** 
  72:Drivers/lvgl/src/core/lv_indev.c ****     /*Read and process all indevs*/
  73:Drivers/lvgl/src/core/lv_indev.c ****     if(indev_act->driver->disp == NULL) return; /*Not assigned to any displays*/
  74:Drivers/lvgl/src/core/lv_indev.c **** 
  75:Drivers/lvgl/src/core/lv_indev.c ****     /*Handle reset query before processing the point*/
  76:Drivers/lvgl/src/core/lv_indev.c ****     indev_proc_reset_query_handler(indev_act);
  77:Drivers/lvgl/src/core/lv_indev.c **** 
  78:Drivers/lvgl/src/core/lv_indev.c ****     if(indev_act->proc.disabled ||
  79:Drivers/lvgl/src/core/lv_indev.c ****        indev_act->driver->disp->prev_scr != NULL) return; /*Input disabled or screen animation acti
  80:Drivers/lvgl/src/core/lv_indev.c ****     bool continue_reading;
  81:Drivers/lvgl/src/core/lv_indev.c ****     do {
  82:Drivers/lvgl/src/core/lv_indev.c ****         /*Read the data*/
  83:Drivers/lvgl/src/core/lv_indev.c ****         _lv_indev_read(indev_act, &data);
  84:Drivers/lvgl/src/core/lv_indev.c ****         continue_reading = data.continue_reading;
  85:Drivers/lvgl/src/core/lv_indev.c **** 
  86:Drivers/lvgl/src/core/lv_indev.c ****         /*The active object might be deleted even in the read function*/
ARM GAS  /var/folders/lp/x54gwt890xv47sdkqj1k04q40000gn/T//ccfgQDQQ.s 			page 3


  87:Drivers/lvgl/src/core/lv_indev.c ****         indev_proc_reset_query_handler(indev_act);
  88:Drivers/lvgl/src/core/lv_indev.c ****         indev_obj_act = NULL;
  89:Drivers/lvgl/src/core/lv_indev.c **** 
  90:Drivers/lvgl/src/core/lv_indev.c ****         indev_act->proc.state = data.state;
  91:Drivers/lvgl/src/core/lv_indev.c **** 
  92:Drivers/lvgl/src/core/lv_indev.c ****         /*Save the last activity time*/
  93:Drivers/lvgl/src/core/lv_indev.c ****         if(indev_act->proc.state == LV_INDEV_STATE_PRESSED) {
  94:Drivers/lvgl/src/core/lv_indev.c ****             indev_act->driver->disp->last_activity_time = lv_tick_get();
  95:Drivers/lvgl/src/core/lv_indev.c ****         }
  96:Drivers/lvgl/src/core/lv_indev.c ****         else if(indev_act->driver->type == LV_INDEV_TYPE_ENCODER && data.enc_diff) {
  97:Drivers/lvgl/src/core/lv_indev.c ****             indev_act->driver->disp->last_activity_time = lv_tick_get();
  98:Drivers/lvgl/src/core/lv_indev.c ****         }
  99:Drivers/lvgl/src/core/lv_indev.c **** 
 100:Drivers/lvgl/src/core/lv_indev.c ****         if(indev_act->driver->type == LV_INDEV_TYPE_POINTER) {
 101:Drivers/lvgl/src/core/lv_indev.c ****             indev_pointer_proc(indev_act, &data);
 102:Drivers/lvgl/src/core/lv_indev.c ****         }
 103:Drivers/lvgl/src/core/lv_indev.c ****         else if(indev_act->driver->type == LV_INDEV_TYPE_KEYPAD) {
 104:Drivers/lvgl/src/core/lv_indev.c ****             indev_keypad_proc(indev_act, &data);
 105:Drivers/lvgl/src/core/lv_indev.c ****         }
 106:Drivers/lvgl/src/core/lv_indev.c ****         else if(indev_act->driver->type == LV_INDEV_TYPE_ENCODER) {
 107:Drivers/lvgl/src/core/lv_indev.c ****             indev_encoder_proc(indev_act, &data);
 108:Drivers/lvgl/src/core/lv_indev.c ****         }
 109:Drivers/lvgl/src/core/lv_indev.c ****         else if(indev_act->driver->type == LV_INDEV_TYPE_BUTTON) {
 110:Drivers/lvgl/src/core/lv_indev.c ****             indev_button_proc(indev_act, &data);
 111:Drivers/lvgl/src/core/lv_indev.c ****         }
 112:Drivers/lvgl/src/core/lv_indev.c ****         /*Handle reset query if it happened in during processing*/
 113:Drivers/lvgl/src/core/lv_indev.c ****         indev_proc_reset_query_handler(indev_act);
 114:Drivers/lvgl/src/core/lv_indev.c ****     } while(continue_reading);
 115:Drivers/lvgl/src/core/lv_indev.c **** 
 116:Drivers/lvgl/src/core/lv_indev.c ****     /*End of indev processing, so no act indev*/
 117:Drivers/lvgl/src/core/lv_indev.c ****     indev_act     = NULL;
 118:Drivers/lvgl/src/core/lv_indev.c ****     indev_obj_act = NULL;
 119:Drivers/lvgl/src/core/lv_indev.c **** 
 120:Drivers/lvgl/src/core/lv_indev.c ****     INDEV_TRACE("finished");
 121:Drivers/lvgl/src/core/lv_indev.c **** }
 122:Drivers/lvgl/src/core/lv_indev.c **** 
 123:Drivers/lvgl/src/core/lv_indev.c **** void lv_indev_enable(lv_indev_t * indev, bool en)
 124:Drivers/lvgl/src/core/lv_indev.c **** {
 125:Drivers/lvgl/src/core/lv_indev.c ****     uint8_t enable = en ? 0 : 1;
 126:Drivers/lvgl/src/core/lv_indev.c **** 
 127:Drivers/lvgl/src/core/lv_indev.c ****     if(indev) {
 128:Drivers/lvgl/src/core/lv_indev.c ****         indev->proc.disabled = enable;
 129:Drivers/lvgl/src/core/lv_indev.c ****     }
 130:Drivers/lvgl/src/core/lv_indev.c ****     else {
 131:Drivers/lvgl/src/core/lv_indev.c ****         lv_indev_t * i = lv_indev_get_next(NULL);
 132:Drivers/lvgl/src/core/lv_indev.c ****         while(i) {
 133:Drivers/lvgl/src/core/lv_indev.c ****             i->proc.disabled = enable;
 134:Drivers/lvgl/src/core/lv_indev.c ****             i = lv_indev_get_next(i);
 135:Drivers/lvgl/src/core/lv_indev.c ****         }
 136:Drivers/lvgl/src/core/lv_indev.c ****     }
 137:Drivers/lvgl/src/core/lv_indev.c **** }
 138:Drivers/lvgl/src/core/lv_indev.c **** 
 139:Drivers/lvgl/src/core/lv_indev.c **** lv_indev_t * lv_indev_get_act(void)
 140:Drivers/lvgl/src/core/lv_indev.c **** {
 141:Drivers/lvgl/src/core/lv_indev.c ****     return indev_act;
 142:Drivers/lvgl/src/core/lv_indev.c **** }
 143:Drivers/lvgl/src/core/lv_indev.c **** 
ARM GAS  /var/folders/lp/x54gwt890xv47sdkqj1k04q40000gn/T//ccfgQDQQ.s 			page 4


 144:Drivers/lvgl/src/core/lv_indev.c **** lv_indev_type_t lv_indev_get_type(const lv_indev_t * indev)
 145:Drivers/lvgl/src/core/lv_indev.c **** {
 146:Drivers/lvgl/src/core/lv_indev.c ****     if(indev == NULL) return LV_INDEV_TYPE_NONE;
 147:Drivers/lvgl/src/core/lv_indev.c **** 
 148:Drivers/lvgl/src/core/lv_indev.c ****     return indev->driver->type;
 149:Drivers/lvgl/src/core/lv_indev.c **** }
 150:Drivers/lvgl/src/core/lv_indev.c **** 
 151:Drivers/lvgl/src/core/lv_indev.c **** void lv_indev_reset(lv_indev_t * indev, lv_obj_t * obj)
 152:Drivers/lvgl/src/core/lv_indev.c **** {
 153:Drivers/lvgl/src/core/lv_indev.c ****     if(indev) {
 154:Drivers/lvgl/src/core/lv_indev.c ****         indev->proc.reset_query = 1;
 155:Drivers/lvgl/src/core/lv_indev.c ****         if(indev_act == indev) indev_obj_act = NULL;
 156:Drivers/lvgl/src/core/lv_indev.c ****         if(indev->driver->type == LV_INDEV_TYPE_POINTER || indev->driver->type == LV_INDEV_TYPE_KEY
 157:Drivers/lvgl/src/core/lv_indev.c ****             if(obj == NULL || indev->proc.types.pointer.last_pressed == obj) {
 158:Drivers/lvgl/src/core/lv_indev.c ****                 indev->proc.types.pointer.last_pressed = NULL;
 159:Drivers/lvgl/src/core/lv_indev.c ****             }
 160:Drivers/lvgl/src/core/lv_indev.c ****             if(obj == NULL || indev->proc.types.pointer.act_obj == obj) {
 161:Drivers/lvgl/src/core/lv_indev.c ****                 indev->proc.types.pointer.act_obj = NULL;
 162:Drivers/lvgl/src/core/lv_indev.c ****             }
 163:Drivers/lvgl/src/core/lv_indev.c ****             if(obj == NULL || indev->proc.types.pointer.last_obj == obj) {
 164:Drivers/lvgl/src/core/lv_indev.c ****                 indev->proc.types.pointer.last_obj = NULL;
 165:Drivers/lvgl/src/core/lv_indev.c ****             }
 166:Drivers/lvgl/src/core/lv_indev.c ****         }
 167:Drivers/lvgl/src/core/lv_indev.c ****     }
 168:Drivers/lvgl/src/core/lv_indev.c ****     else {
 169:Drivers/lvgl/src/core/lv_indev.c ****         lv_indev_t * i = lv_indev_get_next(NULL);
 170:Drivers/lvgl/src/core/lv_indev.c ****         while(i) {
 171:Drivers/lvgl/src/core/lv_indev.c ****             i->proc.reset_query = 1;
 172:Drivers/lvgl/src/core/lv_indev.c ****             if(i->driver->type == LV_INDEV_TYPE_POINTER || i->driver->type == LV_INDEV_TYPE_KEYPAD)
 173:Drivers/lvgl/src/core/lv_indev.c ****                 if(obj == NULL || i->proc.types.pointer.last_pressed == obj) {
 174:Drivers/lvgl/src/core/lv_indev.c ****                     i->proc.types.pointer.last_pressed = NULL;
 175:Drivers/lvgl/src/core/lv_indev.c ****                 }
 176:Drivers/lvgl/src/core/lv_indev.c ****                 if(obj == NULL || i->proc.types.pointer.act_obj == obj) {
 177:Drivers/lvgl/src/core/lv_indev.c ****                     i->proc.types.pointer.act_obj = NULL;
 178:Drivers/lvgl/src/core/lv_indev.c ****                 }
 179:Drivers/lvgl/src/core/lv_indev.c ****                 if(obj == NULL || i->proc.types.pointer.last_obj == obj) {
 180:Drivers/lvgl/src/core/lv_indev.c ****                     i->proc.types.pointer.last_obj = NULL;
 181:Drivers/lvgl/src/core/lv_indev.c ****                 }
 182:Drivers/lvgl/src/core/lv_indev.c ****             }
 183:Drivers/lvgl/src/core/lv_indev.c ****             i = lv_indev_get_next(i);
 184:Drivers/lvgl/src/core/lv_indev.c ****         }
 185:Drivers/lvgl/src/core/lv_indev.c ****         indev_obj_act = NULL;
 186:Drivers/lvgl/src/core/lv_indev.c ****     }
 187:Drivers/lvgl/src/core/lv_indev.c **** }
 188:Drivers/lvgl/src/core/lv_indev.c **** 
 189:Drivers/lvgl/src/core/lv_indev.c **** void lv_indev_reset_long_press(lv_indev_t * indev)
 190:Drivers/lvgl/src/core/lv_indev.c **** {
 191:Drivers/lvgl/src/core/lv_indev.c ****     indev->proc.long_pr_sent         = 0;
 192:Drivers/lvgl/src/core/lv_indev.c ****     indev->proc.longpr_rep_timestamp = lv_tick_get();
 193:Drivers/lvgl/src/core/lv_indev.c ****     indev->proc.pr_timestamp         = lv_tick_get();
 194:Drivers/lvgl/src/core/lv_indev.c **** }
 195:Drivers/lvgl/src/core/lv_indev.c **** 
 196:Drivers/lvgl/src/core/lv_indev.c **** void lv_indev_set_cursor(lv_indev_t * indev, lv_obj_t * cur_obj)
 197:Drivers/lvgl/src/core/lv_indev.c **** {
 198:Drivers/lvgl/src/core/lv_indev.c ****     if(indev->driver->type != LV_INDEV_TYPE_POINTER) return;
 199:Drivers/lvgl/src/core/lv_indev.c **** 
 200:Drivers/lvgl/src/core/lv_indev.c ****     indev->cursor = cur_obj;
ARM GAS  /var/folders/lp/x54gwt890xv47sdkqj1k04q40000gn/T//ccfgQDQQ.s 			page 5


 201:Drivers/lvgl/src/core/lv_indev.c ****     lv_obj_set_parent(indev->cursor, lv_disp_get_layer_sys(indev->driver->disp));
 202:Drivers/lvgl/src/core/lv_indev.c ****     lv_obj_set_pos(indev->cursor, indev->proc.types.pointer.act_point.x, indev->proc.types.pointer.
 203:Drivers/lvgl/src/core/lv_indev.c ****     lv_obj_clear_flag(indev->cursor, LV_OBJ_FLAG_CLICKABLE);
 204:Drivers/lvgl/src/core/lv_indev.c ****     lv_obj_add_flag(indev->cursor, LV_OBJ_FLAG_IGNORE_LAYOUT | LV_OBJ_FLAG_FLOATING);
 205:Drivers/lvgl/src/core/lv_indev.c **** }
 206:Drivers/lvgl/src/core/lv_indev.c **** 
 207:Drivers/lvgl/src/core/lv_indev.c **** void lv_indev_set_group(lv_indev_t * indev, lv_group_t * group)
 208:Drivers/lvgl/src/core/lv_indev.c **** {
 209:Drivers/lvgl/src/core/lv_indev.c ****     if(indev->driver->type == LV_INDEV_TYPE_KEYPAD || indev->driver->type == LV_INDEV_TYPE_ENCODER)
 210:Drivers/lvgl/src/core/lv_indev.c ****         indev->group = group;
 211:Drivers/lvgl/src/core/lv_indev.c ****     }
 212:Drivers/lvgl/src/core/lv_indev.c **** }
 213:Drivers/lvgl/src/core/lv_indev.c **** 
 214:Drivers/lvgl/src/core/lv_indev.c **** void lv_indev_set_button_points(lv_indev_t * indev, const lv_point_t points[])
 215:Drivers/lvgl/src/core/lv_indev.c **** {
 216:Drivers/lvgl/src/core/lv_indev.c ****     if(indev->driver->type == LV_INDEV_TYPE_BUTTON) {
 217:Drivers/lvgl/src/core/lv_indev.c ****         indev->btn_points = points;
 218:Drivers/lvgl/src/core/lv_indev.c ****     }
 219:Drivers/lvgl/src/core/lv_indev.c **** }
 220:Drivers/lvgl/src/core/lv_indev.c **** 
 221:Drivers/lvgl/src/core/lv_indev.c **** void lv_indev_get_point(const lv_indev_t * indev, lv_point_t * point)
 222:Drivers/lvgl/src/core/lv_indev.c **** {
 223:Drivers/lvgl/src/core/lv_indev.c ****     if(indev == NULL) {
 224:Drivers/lvgl/src/core/lv_indev.c ****         point->x = 0;
 225:Drivers/lvgl/src/core/lv_indev.c ****         point->y = 0;
 226:Drivers/lvgl/src/core/lv_indev.c ****         return;
 227:Drivers/lvgl/src/core/lv_indev.c ****     }
 228:Drivers/lvgl/src/core/lv_indev.c ****     if(indev->driver->type != LV_INDEV_TYPE_POINTER && indev->driver->type != LV_INDEV_TYPE_BUTTON)
 229:Drivers/lvgl/src/core/lv_indev.c ****         point->x = -1;
 230:Drivers/lvgl/src/core/lv_indev.c ****         point->y = -1;
 231:Drivers/lvgl/src/core/lv_indev.c ****     }
 232:Drivers/lvgl/src/core/lv_indev.c ****     else {
 233:Drivers/lvgl/src/core/lv_indev.c ****         point->x = indev->proc.types.pointer.act_point.x;
 234:Drivers/lvgl/src/core/lv_indev.c ****         point->y = indev->proc.types.pointer.act_point.y;
 235:Drivers/lvgl/src/core/lv_indev.c ****     }
 236:Drivers/lvgl/src/core/lv_indev.c **** }
 237:Drivers/lvgl/src/core/lv_indev.c **** 
 238:Drivers/lvgl/src/core/lv_indev.c **** lv_dir_t lv_indev_get_gesture_dir(const lv_indev_t * indev)
 239:Drivers/lvgl/src/core/lv_indev.c **** {
 240:Drivers/lvgl/src/core/lv_indev.c ****     return indev->proc.types.pointer.gesture_dir;
 241:Drivers/lvgl/src/core/lv_indev.c **** }
 242:Drivers/lvgl/src/core/lv_indev.c **** 
 243:Drivers/lvgl/src/core/lv_indev.c **** uint32_t lv_indev_get_key(const lv_indev_t * indev)
 244:Drivers/lvgl/src/core/lv_indev.c **** {
 245:Drivers/lvgl/src/core/lv_indev.c ****     if(indev->driver->type != LV_INDEV_TYPE_KEYPAD)
 246:Drivers/lvgl/src/core/lv_indev.c ****         return 0;
 247:Drivers/lvgl/src/core/lv_indev.c ****     else
 248:Drivers/lvgl/src/core/lv_indev.c ****         return indev->proc.types.keypad.last_key;
 249:Drivers/lvgl/src/core/lv_indev.c **** }
 250:Drivers/lvgl/src/core/lv_indev.c **** 
 251:Drivers/lvgl/src/core/lv_indev.c **** lv_dir_t lv_indev_get_scroll_dir(const lv_indev_t * indev)
 252:Drivers/lvgl/src/core/lv_indev.c **** {
 253:Drivers/lvgl/src/core/lv_indev.c ****     if(indev == NULL) return false;
 254:Drivers/lvgl/src/core/lv_indev.c ****     if(indev->driver->type != LV_INDEV_TYPE_POINTER && indev->driver->type != LV_INDEV_TYPE_BUTTON)
 255:Drivers/lvgl/src/core/lv_indev.c ****     return indev->proc.types.pointer.scroll_dir;
 256:Drivers/lvgl/src/core/lv_indev.c **** }
 257:Drivers/lvgl/src/core/lv_indev.c **** 
ARM GAS  /var/folders/lp/x54gwt890xv47sdkqj1k04q40000gn/T//ccfgQDQQ.s 			page 6


 258:Drivers/lvgl/src/core/lv_indev.c **** lv_obj_t * lv_indev_get_scroll_obj(const lv_indev_t * indev)
 259:Drivers/lvgl/src/core/lv_indev.c **** {
 260:Drivers/lvgl/src/core/lv_indev.c ****     if(indev == NULL) return NULL;
 261:Drivers/lvgl/src/core/lv_indev.c ****     if(indev->driver->type != LV_INDEV_TYPE_POINTER && indev->driver->type != LV_INDEV_TYPE_BUTTON)
 262:Drivers/lvgl/src/core/lv_indev.c ****     return indev->proc.types.pointer.scroll_obj;
 263:Drivers/lvgl/src/core/lv_indev.c **** }
 264:Drivers/lvgl/src/core/lv_indev.c **** 
 265:Drivers/lvgl/src/core/lv_indev.c **** void lv_indev_get_vect(const lv_indev_t * indev, lv_point_t * point)
 266:Drivers/lvgl/src/core/lv_indev.c **** {
 267:Drivers/lvgl/src/core/lv_indev.c ****     point->x = 0;
 268:Drivers/lvgl/src/core/lv_indev.c ****     point->y = 0;
 269:Drivers/lvgl/src/core/lv_indev.c **** 
 270:Drivers/lvgl/src/core/lv_indev.c ****     if(indev == NULL) return;
 271:Drivers/lvgl/src/core/lv_indev.c **** 
 272:Drivers/lvgl/src/core/lv_indev.c ****     if(indev->driver->type == LV_INDEV_TYPE_POINTER || indev->driver->type == LV_INDEV_TYPE_BUTTON)
 273:Drivers/lvgl/src/core/lv_indev.c ****         point->x = indev->proc.types.pointer.vect.x;
 274:Drivers/lvgl/src/core/lv_indev.c ****         point->y = indev->proc.types.pointer.vect.y;
 275:Drivers/lvgl/src/core/lv_indev.c ****     }
 276:Drivers/lvgl/src/core/lv_indev.c **** }
 277:Drivers/lvgl/src/core/lv_indev.c **** 
 278:Drivers/lvgl/src/core/lv_indev.c **** void lv_indev_wait_release(lv_indev_t * indev)
 279:Drivers/lvgl/src/core/lv_indev.c **** {
 280:Drivers/lvgl/src/core/lv_indev.c ****     if(indev == NULL)return;
 281:Drivers/lvgl/src/core/lv_indev.c ****     indev->proc.wait_until_release = 1;
 282:Drivers/lvgl/src/core/lv_indev.c **** }
 283:Drivers/lvgl/src/core/lv_indev.c **** 
 284:Drivers/lvgl/src/core/lv_indev.c **** lv_obj_t * lv_indev_get_obj_act(void)
 285:Drivers/lvgl/src/core/lv_indev.c **** {
 286:Drivers/lvgl/src/core/lv_indev.c ****     return indev_obj_act;
 287:Drivers/lvgl/src/core/lv_indev.c **** }
 288:Drivers/lvgl/src/core/lv_indev.c **** 
 289:Drivers/lvgl/src/core/lv_indev.c **** lv_timer_t * lv_indev_get_read_timer(lv_disp_t * indev)
 290:Drivers/lvgl/src/core/lv_indev.c **** {
 291:Drivers/lvgl/src/core/lv_indev.c ****     if(!indev) {
 292:Drivers/lvgl/src/core/lv_indev.c ****         LV_LOG_WARN("lv_indev_get_read_timer: indev was NULL");
 293:Drivers/lvgl/src/core/lv_indev.c ****         return NULL;
 294:Drivers/lvgl/src/core/lv_indev.c ****     }
 295:Drivers/lvgl/src/core/lv_indev.c **** 
 296:Drivers/lvgl/src/core/lv_indev.c ****     return indev->refr_timer;
 297:Drivers/lvgl/src/core/lv_indev.c **** }
 298:Drivers/lvgl/src/core/lv_indev.c **** 
 299:Drivers/lvgl/src/core/lv_indev.c **** 
 300:Drivers/lvgl/src/core/lv_indev.c **** lv_obj_t * lv_indev_search_obj(lv_obj_t * obj, lv_point_t * point)
 301:Drivers/lvgl/src/core/lv_indev.c **** {
 302:Drivers/lvgl/src/core/lv_indev.c ****     lv_obj_t * found_p = NULL;
 303:Drivers/lvgl/src/core/lv_indev.c **** 
 304:Drivers/lvgl/src/core/lv_indev.c ****     /*If this obj is hidden the children are hidden too so return immediately*/
 305:Drivers/lvgl/src/core/lv_indev.c ****     if(lv_obj_has_flag(obj, LV_OBJ_FLAG_HIDDEN)) return NULL;
 306:Drivers/lvgl/src/core/lv_indev.c **** 
 307:Drivers/lvgl/src/core/lv_indev.c ****     lv_point_t p_trans = *point;
 308:Drivers/lvgl/src/core/lv_indev.c ****     lv_obj_transform_point(obj, &p_trans, false, true);
 309:Drivers/lvgl/src/core/lv_indev.c **** 
 310:Drivers/lvgl/src/core/lv_indev.c ****     bool hit_test_ok = lv_obj_hit_test(obj, &p_trans);
 311:Drivers/lvgl/src/core/lv_indev.c **** 
 312:Drivers/lvgl/src/core/lv_indev.c ****     /*If the point is on this object or has overflow visible check its children too*/
 313:Drivers/lvgl/src/core/lv_indev.c ****     if(_lv_area_is_point_on(&obj->coords, &p_trans, 0) || lv_obj_has_flag(obj, LV_OBJ_FLAG_OVERFLOW
 314:Drivers/lvgl/src/core/lv_indev.c ****         int32_t i;
ARM GAS  /var/folders/lp/x54gwt890xv47sdkqj1k04q40000gn/T//ccfgQDQQ.s 			page 7


 315:Drivers/lvgl/src/core/lv_indev.c ****         uint32_t child_cnt = lv_obj_get_child_cnt(obj);
 316:Drivers/lvgl/src/core/lv_indev.c **** 
 317:Drivers/lvgl/src/core/lv_indev.c ****         /*If a child matches use it*/
 318:Drivers/lvgl/src/core/lv_indev.c ****         for(i = child_cnt - 1; i >= 0; i--) {
 319:Drivers/lvgl/src/core/lv_indev.c ****             lv_obj_t * child = obj->spec_attr->children[i];
 320:Drivers/lvgl/src/core/lv_indev.c ****             found_p = lv_indev_search_obj(child, &p_trans);
 321:Drivers/lvgl/src/core/lv_indev.c ****             if(found_p) return found_p;
 322:Drivers/lvgl/src/core/lv_indev.c ****         }
 323:Drivers/lvgl/src/core/lv_indev.c ****     }
 324:Drivers/lvgl/src/core/lv_indev.c **** 
 325:Drivers/lvgl/src/core/lv_indev.c ****     /*If not return earlier for a clicked child and this obj's hittest was ok use it
 326:Drivers/lvgl/src/core/lv_indev.c ****      *else return NULL*/
 327:Drivers/lvgl/src/core/lv_indev.c ****     if(hit_test_ok) return obj;
 328:Drivers/lvgl/src/core/lv_indev.c ****     else return NULL;
 329:Drivers/lvgl/src/core/lv_indev.c **** }
 330:Drivers/lvgl/src/core/lv_indev.c **** 
 331:Drivers/lvgl/src/core/lv_indev.c **** /**********************
 332:Drivers/lvgl/src/core/lv_indev.c ****  *   STATIC FUNCTIONS
 333:Drivers/lvgl/src/core/lv_indev.c ****  **********************/
 334:Drivers/lvgl/src/core/lv_indev.c **** 
 335:Drivers/lvgl/src/core/lv_indev.c **** /**
 336:Drivers/lvgl/src/core/lv_indev.c ****  * Process a new point from LV_INDEV_TYPE_POINTER input device
 337:Drivers/lvgl/src/core/lv_indev.c ****  * @param i pointer to an input device
 338:Drivers/lvgl/src/core/lv_indev.c ****  * @param data pointer to the data read from the input device
 339:Drivers/lvgl/src/core/lv_indev.c ****  */
 340:Drivers/lvgl/src/core/lv_indev.c **** static void indev_pointer_proc(lv_indev_t * i, lv_indev_data_t * data)
 341:Drivers/lvgl/src/core/lv_indev.c **** {
 342:Drivers/lvgl/src/core/lv_indev.c ****     lv_disp_t * disp = i->driver->disp;
 343:Drivers/lvgl/src/core/lv_indev.c ****     /*Save the raw points so they can be used again in _lv_indev_read*/
 344:Drivers/lvgl/src/core/lv_indev.c ****     i->proc.types.pointer.last_raw_point.x = data->point.x;
 345:Drivers/lvgl/src/core/lv_indev.c ****     i->proc.types.pointer.last_raw_point.y = data->point.y;
 346:Drivers/lvgl/src/core/lv_indev.c **** 
 347:Drivers/lvgl/src/core/lv_indev.c ****     if(disp->driver->rotated == LV_DISP_ROT_180 || disp->driver->rotated == LV_DISP_ROT_270) {
 348:Drivers/lvgl/src/core/lv_indev.c ****         data->point.x = disp->driver->hor_res - data->point.x - 1;
 349:Drivers/lvgl/src/core/lv_indev.c ****         data->point.y = disp->driver->ver_res - data->point.y - 1;
 350:Drivers/lvgl/src/core/lv_indev.c ****     }
 351:Drivers/lvgl/src/core/lv_indev.c ****     if(disp->driver->rotated == LV_DISP_ROT_90 || disp->driver->rotated == LV_DISP_ROT_270) {
 352:Drivers/lvgl/src/core/lv_indev.c ****         lv_coord_t tmp = data->point.y;
 353:Drivers/lvgl/src/core/lv_indev.c ****         data->point.y = data->point.x;
 354:Drivers/lvgl/src/core/lv_indev.c ****         data->point.x = disp->driver->ver_res - tmp - 1;
 355:Drivers/lvgl/src/core/lv_indev.c ****     }
 356:Drivers/lvgl/src/core/lv_indev.c **** 
 357:Drivers/lvgl/src/core/lv_indev.c ****     /*Simple sanity check*/
 358:Drivers/lvgl/src/core/lv_indev.c ****     if(data->point.x < 0) {
 359:Drivers/lvgl/src/core/lv_indev.c ****         LV_LOG_WARN("X is %d which is smaller than zero", (int)data->point.x);
 360:Drivers/lvgl/src/core/lv_indev.c ****     }
 361:Drivers/lvgl/src/core/lv_indev.c ****     if(data->point.x >= lv_disp_get_hor_res(i->driver->disp)) {
 362:Drivers/lvgl/src/core/lv_indev.c ****         LV_LOG_WARN("X is %d which is greater than hor. res", (int)data->point.x);
 363:Drivers/lvgl/src/core/lv_indev.c ****     }
 364:Drivers/lvgl/src/core/lv_indev.c ****     if(data->point.y < 0) {
 365:Drivers/lvgl/src/core/lv_indev.c ****         LV_LOG_WARN("Y is %d which is smaller than zero", (int)data->point.y);
 366:Drivers/lvgl/src/core/lv_indev.c ****     }
 367:Drivers/lvgl/src/core/lv_indev.c ****     if(data->point.y >= lv_disp_get_ver_res(i->driver->disp)) {
 368:Drivers/lvgl/src/core/lv_indev.c ****         LV_LOG_WARN("Y is %d which is greater than ver. res", (int)data->point.y);
 369:Drivers/lvgl/src/core/lv_indev.c ****     }
 370:Drivers/lvgl/src/core/lv_indev.c **** 
 371:Drivers/lvgl/src/core/lv_indev.c ****     /*Move the cursor if set and moved*/
ARM GAS  /var/folders/lp/x54gwt890xv47sdkqj1k04q40000gn/T//ccfgQDQQ.s 			page 8


 372:Drivers/lvgl/src/core/lv_indev.c ****     if(i->cursor != NULL &&
 373:Drivers/lvgl/src/core/lv_indev.c ****        (i->proc.types.pointer.last_point.x != data->point.x || i->proc.types.pointer.last_point.y !
 374:Drivers/lvgl/src/core/lv_indev.c ****         lv_obj_set_pos(i->cursor, data->point.x, data->point.y);
 375:Drivers/lvgl/src/core/lv_indev.c ****     }
 376:Drivers/lvgl/src/core/lv_indev.c **** 
 377:Drivers/lvgl/src/core/lv_indev.c ****     i->proc.types.pointer.act_point.x = data->point.x;
 378:Drivers/lvgl/src/core/lv_indev.c ****     i->proc.types.pointer.act_point.y = data->point.y;
 379:Drivers/lvgl/src/core/lv_indev.c **** 
 380:Drivers/lvgl/src/core/lv_indev.c ****     if(i->proc.state == LV_INDEV_STATE_PRESSED) {
 381:Drivers/lvgl/src/core/lv_indev.c ****         indev_proc_press(&i->proc);
 382:Drivers/lvgl/src/core/lv_indev.c ****     }
 383:Drivers/lvgl/src/core/lv_indev.c ****     else {
 384:Drivers/lvgl/src/core/lv_indev.c ****         indev_proc_release(&i->proc);
 385:Drivers/lvgl/src/core/lv_indev.c ****     }
 386:Drivers/lvgl/src/core/lv_indev.c **** 
 387:Drivers/lvgl/src/core/lv_indev.c ****     i->proc.types.pointer.last_point.x = i->proc.types.pointer.act_point.x;
 388:Drivers/lvgl/src/core/lv_indev.c ****     i->proc.types.pointer.last_point.y = i->proc.types.pointer.act_point.y;
 389:Drivers/lvgl/src/core/lv_indev.c **** }
 390:Drivers/lvgl/src/core/lv_indev.c **** 
 391:Drivers/lvgl/src/core/lv_indev.c **** /**
 392:Drivers/lvgl/src/core/lv_indev.c ****  * Process a new point from LV_INDEV_TYPE_KEYPAD input device
 393:Drivers/lvgl/src/core/lv_indev.c ****  * @param i pointer to an input device
 394:Drivers/lvgl/src/core/lv_indev.c ****  * @param data pointer to the data read from the input device
 395:Drivers/lvgl/src/core/lv_indev.c ****  */
 396:Drivers/lvgl/src/core/lv_indev.c **** static void indev_keypad_proc(lv_indev_t * i, lv_indev_data_t * data)
 397:Drivers/lvgl/src/core/lv_indev.c **** {
 398:Drivers/lvgl/src/core/lv_indev.c ****     if(data->state == LV_INDEV_STATE_PRESSED && i->proc.wait_until_release) return;
 399:Drivers/lvgl/src/core/lv_indev.c **** 
 400:Drivers/lvgl/src/core/lv_indev.c ****     if(i->proc.wait_until_release) {
 401:Drivers/lvgl/src/core/lv_indev.c ****         i->proc.wait_until_release      = 0;
 402:Drivers/lvgl/src/core/lv_indev.c ****         i->proc.pr_timestamp            = 0;
 403:Drivers/lvgl/src/core/lv_indev.c ****         i->proc.long_pr_sent            = 0;
 404:Drivers/lvgl/src/core/lv_indev.c ****         i->proc.types.keypad.last_state = LV_INDEV_STATE_RELEASED; /*To skip the processing of rele
 405:Drivers/lvgl/src/core/lv_indev.c ****     }
 406:Drivers/lvgl/src/core/lv_indev.c **** 
 407:Drivers/lvgl/src/core/lv_indev.c ****     lv_group_t * g = i->group;
 408:Drivers/lvgl/src/core/lv_indev.c ****     if(g == NULL) return;
 409:Drivers/lvgl/src/core/lv_indev.c **** 
 410:Drivers/lvgl/src/core/lv_indev.c ****     indev_obj_act = lv_group_get_focused(g);
 411:Drivers/lvgl/src/core/lv_indev.c ****     if(indev_obj_act == NULL) return;
 412:Drivers/lvgl/src/core/lv_indev.c **** 
 413:Drivers/lvgl/src/core/lv_indev.c ****     bool dis = lv_obj_has_state(indev_obj_act, LV_STATE_DISABLED);
 414:Drivers/lvgl/src/core/lv_indev.c **** 
 415:Drivers/lvgl/src/core/lv_indev.c ****     /*Save the last key to compare it with the current latter on RELEASE*/
 416:Drivers/lvgl/src/core/lv_indev.c ****     uint32_t prev_key = i->proc.types.keypad.last_key;
 417:Drivers/lvgl/src/core/lv_indev.c **** 
 418:Drivers/lvgl/src/core/lv_indev.c ****     /*Save the last key.
 419:Drivers/lvgl/src/core/lv_indev.c ****      *It must be done here else `lv_indev_get_key` will return the last key in events*/
 420:Drivers/lvgl/src/core/lv_indev.c ****     i->proc.types.keypad.last_key = data->key;
 421:Drivers/lvgl/src/core/lv_indev.c **** 
 422:Drivers/lvgl/src/core/lv_indev.c ****     /*Save the previous state so we can detect state changes below and also set the last state now
 423:Drivers/lvgl/src/core/lv_indev.c ****      *so if any event handler on the way returns `LV_RES_INV` the last state is remembered
 424:Drivers/lvgl/src/core/lv_indev.c ****      *for the next time*/
 425:Drivers/lvgl/src/core/lv_indev.c ****     uint32_t prev_state             = i->proc.types.keypad.last_state;
 426:Drivers/lvgl/src/core/lv_indev.c ****     i->proc.types.keypad.last_state = data->state;
 427:Drivers/lvgl/src/core/lv_indev.c **** 
 428:Drivers/lvgl/src/core/lv_indev.c ****     /*Key press happened*/
ARM GAS  /var/folders/lp/x54gwt890xv47sdkqj1k04q40000gn/T//ccfgQDQQ.s 			page 9


 429:Drivers/lvgl/src/core/lv_indev.c ****     if(data->state == LV_INDEV_STATE_PRESSED && prev_state == LV_INDEV_STATE_RELEASED) {
 430:Drivers/lvgl/src/core/lv_indev.c ****         LV_LOG_INFO("%" LV_PRIu32 " key is pressed", data->key);
 431:Drivers/lvgl/src/core/lv_indev.c ****         i->proc.pr_timestamp = lv_tick_get();
 432:Drivers/lvgl/src/core/lv_indev.c **** 
 433:Drivers/lvgl/src/core/lv_indev.c ****         /*Move the focus on NEXT*/
 434:Drivers/lvgl/src/core/lv_indev.c ****         if(data->key == LV_KEY_NEXT) {
 435:Drivers/lvgl/src/core/lv_indev.c ****             lv_group_set_editing(g, false); /*Editing is not used by KEYPAD is be sure it is disabl
 436:Drivers/lvgl/src/core/lv_indev.c ****             lv_group_focus_next(g);
 437:Drivers/lvgl/src/core/lv_indev.c ****             if(indev_reset_check(&i->proc)) return;
 438:Drivers/lvgl/src/core/lv_indev.c ****         }
 439:Drivers/lvgl/src/core/lv_indev.c ****         /*Move the focus on PREV*/
 440:Drivers/lvgl/src/core/lv_indev.c ****         else if(data->key == LV_KEY_PREV) {
 441:Drivers/lvgl/src/core/lv_indev.c ****             lv_group_set_editing(g, false); /*Editing is not used by KEYPAD is be sure it is disabl
 442:Drivers/lvgl/src/core/lv_indev.c ****             lv_group_focus_prev(g);
 443:Drivers/lvgl/src/core/lv_indev.c ****             if(indev_reset_check(&i->proc)) return;
 444:Drivers/lvgl/src/core/lv_indev.c ****         }
 445:Drivers/lvgl/src/core/lv_indev.c ****         else if(!dis) {
 446:Drivers/lvgl/src/core/lv_indev.c ****             /*Simulate a press on the object if ENTER was pressed*/
 447:Drivers/lvgl/src/core/lv_indev.c ****             if(data->key == LV_KEY_ENTER) {
 448:Drivers/lvgl/src/core/lv_indev.c ****                 /*Send the ENTER as a normal KEY*/
 449:Drivers/lvgl/src/core/lv_indev.c ****                 lv_group_send_data(g, LV_KEY_ENTER);
 450:Drivers/lvgl/src/core/lv_indev.c ****                 if(indev_reset_check(&i->proc)) return;
 451:Drivers/lvgl/src/core/lv_indev.c **** 
 452:Drivers/lvgl/src/core/lv_indev.c ****                 if(!dis) lv_event_send(indev_obj_act, LV_EVENT_PRESSED, indev_act);
 453:Drivers/lvgl/src/core/lv_indev.c ****                 if(indev_reset_check(&i->proc)) return;
 454:Drivers/lvgl/src/core/lv_indev.c ****             }
 455:Drivers/lvgl/src/core/lv_indev.c ****             else if(data->key == LV_KEY_ESC) {
 456:Drivers/lvgl/src/core/lv_indev.c ****                 /*Send the ESC as a normal KEY*/
 457:Drivers/lvgl/src/core/lv_indev.c ****                 lv_group_send_data(g, LV_KEY_ESC);
 458:Drivers/lvgl/src/core/lv_indev.c ****                 if(indev_reset_check(&i->proc)) return;
 459:Drivers/lvgl/src/core/lv_indev.c **** 
 460:Drivers/lvgl/src/core/lv_indev.c ****                 lv_event_send(indev_obj_act, LV_EVENT_CANCEL, indev_act);
 461:Drivers/lvgl/src/core/lv_indev.c ****                 if(indev_reset_check(&i->proc)) return;
 462:Drivers/lvgl/src/core/lv_indev.c ****             }
 463:Drivers/lvgl/src/core/lv_indev.c ****             /*Just send other keys to the object (e.g. 'A' or `LV_GROUP_KEY_RIGHT`)*/
 464:Drivers/lvgl/src/core/lv_indev.c ****             else {
 465:Drivers/lvgl/src/core/lv_indev.c ****                 lv_group_send_data(g, data->key);
 466:Drivers/lvgl/src/core/lv_indev.c ****                 if(indev_reset_check(&i->proc)) return;
 467:Drivers/lvgl/src/core/lv_indev.c ****             }
 468:Drivers/lvgl/src/core/lv_indev.c ****         }
 469:Drivers/lvgl/src/core/lv_indev.c ****     }
 470:Drivers/lvgl/src/core/lv_indev.c ****     /*Pressing*/
 471:Drivers/lvgl/src/core/lv_indev.c ****     else if(!dis && data->state == LV_INDEV_STATE_PRESSED && prev_state == LV_INDEV_STATE_PRESSED) 
 472:Drivers/lvgl/src/core/lv_indev.c **** 
 473:Drivers/lvgl/src/core/lv_indev.c ****         if(data->key == LV_KEY_ENTER) {
 474:Drivers/lvgl/src/core/lv_indev.c ****             lv_event_send(indev_obj_act, LV_EVENT_PRESSING, indev_act);
 475:Drivers/lvgl/src/core/lv_indev.c ****             if(indev_reset_check(&i->proc)) return;
 476:Drivers/lvgl/src/core/lv_indev.c ****         }
 477:Drivers/lvgl/src/core/lv_indev.c **** 
 478:Drivers/lvgl/src/core/lv_indev.c ****         /*Long press time has elapsed?*/
 479:Drivers/lvgl/src/core/lv_indev.c ****         if(i->proc.long_pr_sent == 0 && lv_tick_elaps(i->proc.pr_timestamp) > i->driver->long_press
 480:Drivers/lvgl/src/core/lv_indev.c ****             i->proc.long_pr_sent = 1;
 481:Drivers/lvgl/src/core/lv_indev.c ****             if(data->key == LV_KEY_ENTER) {
 482:Drivers/lvgl/src/core/lv_indev.c ****                 i->proc.longpr_rep_timestamp = lv_tick_get();
 483:Drivers/lvgl/src/core/lv_indev.c ****                 lv_event_send(indev_obj_act, LV_EVENT_LONG_PRESSED, indev_act);
 484:Drivers/lvgl/src/core/lv_indev.c ****                 if(indev_reset_check(&i->proc)) return;
 485:Drivers/lvgl/src/core/lv_indev.c ****             }
ARM GAS  /var/folders/lp/x54gwt890xv47sdkqj1k04q40000gn/T//ccfgQDQQ.s 			page 10


 486:Drivers/lvgl/src/core/lv_indev.c ****         }
 487:Drivers/lvgl/src/core/lv_indev.c ****         /*Long press repeated time has elapsed?*/
 488:Drivers/lvgl/src/core/lv_indev.c ****         else if(i->proc.long_pr_sent != 0 &&
 489:Drivers/lvgl/src/core/lv_indev.c ****                 lv_tick_elaps(i->proc.longpr_rep_timestamp) > i->driver->long_press_repeat_time) {
 490:Drivers/lvgl/src/core/lv_indev.c **** 
 491:Drivers/lvgl/src/core/lv_indev.c ****             i->proc.longpr_rep_timestamp = lv_tick_get();
 492:Drivers/lvgl/src/core/lv_indev.c **** 
 493:Drivers/lvgl/src/core/lv_indev.c ****             /*Send LONG_PRESS_REP on ENTER*/
 494:Drivers/lvgl/src/core/lv_indev.c ****             if(data->key == LV_KEY_ENTER) {
 495:Drivers/lvgl/src/core/lv_indev.c ****                 lv_event_send(indev_obj_act, LV_EVENT_LONG_PRESSED_REPEAT, indev_act);
 496:Drivers/lvgl/src/core/lv_indev.c ****                 if(indev_reset_check(&i->proc)) return;
 497:Drivers/lvgl/src/core/lv_indev.c ****             }
 498:Drivers/lvgl/src/core/lv_indev.c ****             /*Move the focus on NEXT again*/
 499:Drivers/lvgl/src/core/lv_indev.c ****             else if(data->key == LV_KEY_NEXT) {
 500:Drivers/lvgl/src/core/lv_indev.c ****                 lv_group_set_editing(g, false); /*Editing is not used by KEYPAD is be sure it is di
 501:Drivers/lvgl/src/core/lv_indev.c ****                 lv_group_focus_next(g);
 502:Drivers/lvgl/src/core/lv_indev.c ****                 if(indev_reset_check(&i->proc)) return;
 503:Drivers/lvgl/src/core/lv_indev.c ****             }
 504:Drivers/lvgl/src/core/lv_indev.c ****             /*Move the focus on PREV again*/
 505:Drivers/lvgl/src/core/lv_indev.c ****             else if(data->key == LV_KEY_PREV) {
 506:Drivers/lvgl/src/core/lv_indev.c ****                 lv_group_set_editing(g, false); /*Editing is not used by KEYPAD is be sure it is di
 507:Drivers/lvgl/src/core/lv_indev.c ****                 lv_group_focus_prev(g);
 508:Drivers/lvgl/src/core/lv_indev.c ****                 if(indev_reset_check(&i->proc)) return;
 509:Drivers/lvgl/src/core/lv_indev.c ****             }
 510:Drivers/lvgl/src/core/lv_indev.c ****             /*Just send other keys again to the object (e.g. 'A' or `LV_GROUP_KEY_RIGHT)*/
 511:Drivers/lvgl/src/core/lv_indev.c ****             else {
 512:Drivers/lvgl/src/core/lv_indev.c ****                 lv_group_send_data(g, data->key);
 513:Drivers/lvgl/src/core/lv_indev.c ****                 if(indev_reset_check(&i->proc)) return;
 514:Drivers/lvgl/src/core/lv_indev.c ****             }
 515:Drivers/lvgl/src/core/lv_indev.c ****         }
 516:Drivers/lvgl/src/core/lv_indev.c ****     }
 517:Drivers/lvgl/src/core/lv_indev.c ****     /*Release happened*/
 518:Drivers/lvgl/src/core/lv_indev.c ****     else if(!dis && data->state == LV_INDEV_STATE_RELEASED && prev_state == LV_INDEV_STATE_PRESSED)
 519:Drivers/lvgl/src/core/lv_indev.c ****         LV_LOG_INFO("%" LV_PRIu32 " key is released", data->key);
 520:Drivers/lvgl/src/core/lv_indev.c ****         /*The user might clear the key when it was released. Always release the pressed key*/
 521:Drivers/lvgl/src/core/lv_indev.c ****         data->key = prev_key;
 522:Drivers/lvgl/src/core/lv_indev.c ****         if(data->key == LV_KEY_ENTER) {
 523:Drivers/lvgl/src/core/lv_indev.c **** 
 524:Drivers/lvgl/src/core/lv_indev.c ****             lv_event_send(indev_obj_act, LV_EVENT_RELEASED, indev_act);
 525:Drivers/lvgl/src/core/lv_indev.c ****             if(indev_reset_check(&i->proc)) return;
 526:Drivers/lvgl/src/core/lv_indev.c **** 
 527:Drivers/lvgl/src/core/lv_indev.c ****             if(i->proc.long_pr_sent == 0) {
 528:Drivers/lvgl/src/core/lv_indev.c ****                 lv_event_send(indev_obj_act, LV_EVENT_SHORT_CLICKED, indev_act);
 529:Drivers/lvgl/src/core/lv_indev.c ****                 if(indev_reset_check(&i->proc)) return;
 530:Drivers/lvgl/src/core/lv_indev.c ****             }
 531:Drivers/lvgl/src/core/lv_indev.c **** 
 532:Drivers/lvgl/src/core/lv_indev.c ****             lv_event_send(indev_obj_act, LV_EVENT_CLICKED, indev_act);
 533:Drivers/lvgl/src/core/lv_indev.c ****             if(indev_reset_check(&i->proc)) return;
 534:Drivers/lvgl/src/core/lv_indev.c **** 
 535:Drivers/lvgl/src/core/lv_indev.c ****         }
 536:Drivers/lvgl/src/core/lv_indev.c ****         i->proc.pr_timestamp = 0;
 537:Drivers/lvgl/src/core/lv_indev.c ****         i->proc.long_pr_sent = 0;
 538:Drivers/lvgl/src/core/lv_indev.c ****     }
 539:Drivers/lvgl/src/core/lv_indev.c ****     indev_obj_act = NULL;
 540:Drivers/lvgl/src/core/lv_indev.c **** }
 541:Drivers/lvgl/src/core/lv_indev.c **** 
 542:Drivers/lvgl/src/core/lv_indev.c **** /**
ARM GAS  /var/folders/lp/x54gwt890xv47sdkqj1k04q40000gn/T//ccfgQDQQ.s 			page 11


 543:Drivers/lvgl/src/core/lv_indev.c ****  * Process a new point from LV_INDEV_TYPE_ENCODER input device
 544:Drivers/lvgl/src/core/lv_indev.c ****  * @param i pointer to an input device
 545:Drivers/lvgl/src/core/lv_indev.c ****  * @param data pointer to the data read from the input device
 546:Drivers/lvgl/src/core/lv_indev.c ****  */
 547:Drivers/lvgl/src/core/lv_indev.c **** static void indev_encoder_proc(lv_indev_t * i, lv_indev_data_t * data)
 548:Drivers/lvgl/src/core/lv_indev.c **** {
 549:Drivers/lvgl/src/core/lv_indev.c ****     if(data->state == LV_INDEV_STATE_PRESSED && i->proc.wait_until_release) return;
 550:Drivers/lvgl/src/core/lv_indev.c **** 
 551:Drivers/lvgl/src/core/lv_indev.c ****     if(i->proc.wait_until_release) {
 552:Drivers/lvgl/src/core/lv_indev.c ****         i->proc.wait_until_release      = 0;
 553:Drivers/lvgl/src/core/lv_indev.c ****         i->proc.pr_timestamp            = 0;
 554:Drivers/lvgl/src/core/lv_indev.c ****         i->proc.long_pr_sent            = 0;
 555:Drivers/lvgl/src/core/lv_indev.c ****         i->proc.types.keypad.last_state = LV_INDEV_STATE_RELEASED; /*To skip the processing of rele
 556:Drivers/lvgl/src/core/lv_indev.c ****     }
 557:Drivers/lvgl/src/core/lv_indev.c **** 
 558:Drivers/lvgl/src/core/lv_indev.c ****     /*Save the last keys before anything else.
 559:Drivers/lvgl/src/core/lv_indev.c ****      *They need to be already saved if the function returns for any reason*/
 560:Drivers/lvgl/src/core/lv_indev.c ****     lv_indev_state_t last_state     = i->proc.types.keypad.last_state;
 561:Drivers/lvgl/src/core/lv_indev.c ****     i->proc.types.keypad.last_state = data->state;
 562:Drivers/lvgl/src/core/lv_indev.c ****     i->proc.types.keypad.last_key   = data->key;
 563:Drivers/lvgl/src/core/lv_indev.c **** 
 564:Drivers/lvgl/src/core/lv_indev.c ****     lv_group_t * g = i->group;
 565:Drivers/lvgl/src/core/lv_indev.c ****     if(g == NULL) return;
 566:Drivers/lvgl/src/core/lv_indev.c **** 
 567:Drivers/lvgl/src/core/lv_indev.c ****     indev_obj_act = lv_group_get_focused(g);
 568:Drivers/lvgl/src/core/lv_indev.c ****     if(indev_obj_act == NULL) return;
 569:Drivers/lvgl/src/core/lv_indev.c **** 
 570:Drivers/lvgl/src/core/lv_indev.c ****     /*Process the steps they are valid only with released button*/
 571:Drivers/lvgl/src/core/lv_indev.c ****     if(data->state != LV_INDEV_STATE_RELEASED) {
 572:Drivers/lvgl/src/core/lv_indev.c ****         data->enc_diff = 0;
 573:Drivers/lvgl/src/core/lv_indev.c ****     }
 574:Drivers/lvgl/src/core/lv_indev.c **** 
 575:Drivers/lvgl/src/core/lv_indev.c ****     /*Refresh the focused object. It might change due to lv_group_focus_prev/next*/
 576:Drivers/lvgl/src/core/lv_indev.c ****     indev_obj_act = lv_group_get_focused(g);
 577:Drivers/lvgl/src/core/lv_indev.c ****     if(indev_obj_act == NULL) return;
 578:Drivers/lvgl/src/core/lv_indev.c **** 
 579:Drivers/lvgl/src/core/lv_indev.c ****     /*Button press happened*/
 580:Drivers/lvgl/src/core/lv_indev.c ****     if(data->state == LV_INDEV_STATE_PRESSED && last_state == LV_INDEV_STATE_RELEASED) {
 581:Drivers/lvgl/src/core/lv_indev.c ****         LV_LOG_INFO("pressed");
 582:Drivers/lvgl/src/core/lv_indev.c **** 
 583:Drivers/lvgl/src/core/lv_indev.c ****         i->proc.pr_timestamp = lv_tick_get();
 584:Drivers/lvgl/src/core/lv_indev.c **** 
 585:Drivers/lvgl/src/core/lv_indev.c ****         if(data->key == LV_KEY_ENTER) {
 586:Drivers/lvgl/src/core/lv_indev.c ****             bool editable_or_scrollable = lv_obj_is_editable(indev_obj_act) ||
 587:Drivers/lvgl/src/core/lv_indev.c ****                                           lv_obj_has_flag(indev_obj_act, LV_OBJ_FLAG_SCROLLABLE);
 588:Drivers/lvgl/src/core/lv_indev.c ****             if(lv_group_get_editing(g) == true || editable_or_scrollable == false) {
 589:Drivers/lvgl/src/core/lv_indev.c ****                 lv_event_send(indev_obj_act, LV_EVENT_PRESSED, indev_act);
 590:Drivers/lvgl/src/core/lv_indev.c ****                 if(indev_reset_check(&i->proc)) return;
 591:Drivers/lvgl/src/core/lv_indev.c ****             }
 592:Drivers/lvgl/src/core/lv_indev.c ****         }
 593:Drivers/lvgl/src/core/lv_indev.c ****         else if(data->key == LV_KEY_LEFT) {
 594:Drivers/lvgl/src/core/lv_indev.c ****             /*emulate encoder left*/
 595:Drivers/lvgl/src/core/lv_indev.c ****             data->enc_diff--;
 596:Drivers/lvgl/src/core/lv_indev.c ****         }
 597:Drivers/lvgl/src/core/lv_indev.c ****         else if(data->key == LV_KEY_RIGHT) {
 598:Drivers/lvgl/src/core/lv_indev.c ****             /*emulate encoder right*/
 599:Drivers/lvgl/src/core/lv_indev.c ****             data->enc_diff++;
ARM GAS  /var/folders/lp/x54gwt890xv47sdkqj1k04q40000gn/T//ccfgQDQQ.s 			page 12


 600:Drivers/lvgl/src/core/lv_indev.c ****         }
 601:Drivers/lvgl/src/core/lv_indev.c ****         else if(data->key == LV_KEY_ESC) {
 602:Drivers/lvgl/src/core/lv_indev.c ****             /*Send the ESC as a normal KEY*/
 603:Drivers/lvgl/src/core/lv_indev.c ****             lv_group_send_data(g, LV_KEY_ESC);
 604:Drivers/lvgl/src/core/lv_indev.c ****             if(indev_reset_check(&i->proc)) return;
 605:Drivers/lvgl/src/core/lv_indev.c **** 
 606:Drivers/lvgl/src/core/lv_indev.c ****             lv_event_send(indev_obj_act, LV_EVENT_CANCEL, indev_act);
 607:Drivers/lvgl/src/core/lv_indev.c ****             if(indev_reset_check(&i->proc)) return;
 608:Drivers/lvgl/src/core/lv_indev.c ****         }
 609:Drivers/lvgl/src/core/lv_indev.c ****         /*Just send other keys to the object (e.g. 'A' or `LV_GROUP_KEY_RIGHT`)*/
 610:Drivers/lvgl/src/core/lv_indev.c ****         else {
 611:Drivers/lvgl/src/core/lv_indev.c ****             lv_group_send_data(g, data->key);
 612:Drivers/lvgl/src/core/lv_indev.c ****             if(indev_reset_check(&i->proc)) return;
 613:Drivers/lvgl/src/core/lv_indev.c ****         }
 614:Drivers/lvgl/src/core/lv_indev.c ****     }
 615:Drivers/lvgl/src/core/lv_indev.c ****     /*Pressing*/
 616:Drivers/lvgl/src/core/lv_indev.c ****     else if(data->state == LV_INDEV_STATE_PRESSED && last_state == LV_INDEV_STATE_PRESSED) {
 617:Drivers/lvgl/src/core/lv_indev.c ****         /*Long press*/
 618:Drivers/lvgl/src/core/lv_indev.c ****         if(i->proc.long_pr_sent == 0 && lv_tick_elaps(i->proc.pr_timestamp) > i->driver->long_press
 619:Drivers/lvgl/src/core/lv_indev.c **** 
 620:Drivers/lvgl/src/core/lv_indev.c ****             i->proc.long_pr_sent = 1;
 621:Drivers/lvgl/src/core/lv_indev.c ****             i->proc.longpr_rep_timestamp = lv_tick_get();
 622:Drivers/lvgl/src/core/lv_indev.c **** 
 623:Drivers/lvgl/src/core/lv_indev.c ****             if(data->key == LV_KEY_ENTER) {
 624:Drivers/lvgl/src/core/lv_indev.c ****                 bool editable_or_scrollable = lv_obj_is_editable(indev_obj_act) ||
 625:Drivers/lvgl/src/core/lv_indev.c ****                                               lv_obj_has_flag(indev_obj_act, LV_OBJ_FLAG_SCROLLABLE
 626:Drivers/lvgl/src/core/lv_indev.c **** 
 627:Drivers/lvgl/src/core/lv_indev.c ****                 /*On enter long press toggle edit mode.*/
 628:Drivers/lvgl/src/core/lv_indev.c ****                 if(editable_or_scrollable) {
 629:Drivers/lvgl/src/core/lv_indev.c ****                     /*Don't leave edit mode if there is only one object (nowhere to navigate)*/
 630:Drivers/lvgl/src/core/lv_indev.c ****                     if(lv_group_get_obj_count(g) > 1) {
 631:Drivers/lvgl/src/core/lv_indev.c ****                         LV_LOG_INFO("toggling edit mode");
 632:Drivers/lvgl/src/core/lv_indev.c ****                         lv_group_set_editing(g, lv_group_get_editing(g) ? false : true); /*Toggle e
 633:Drivers/lvgl/src/core/lv_indev.c ****                         lv_obj_clear_state(indev_obj_act, LV_STATE_PRESSED);    /*Remove the presse
 634:Drivers/lvgl/src/core/lv_indev.c ****                     }
 635:Drivers/lvgl/src/core/lv_indev.c ****                 }
 636:Drivers/lvgl/src/core/lv_indev.c ****                 /*If not editable then just send a long press Call the ancestor's event handler*/
 637:Drivers/lvgl/src/core/lv_indev.c ****                 else {
 638:Drivers/lvgl/src/core/lv_indev.c ****                     lv_event_send(indev_obj_act, LV_EVENT_LONG_PRESSED, indev_act);
 639:Drivers/lvgl/src/core/lv_indev.c ****                     if(indev_reset_check(&i->proc)) return;
 640:Drivers/lvgl/src/core/lv_indev.c ****                 }
 641:Drivers/lvgl/src/core/lv_indev.c ****             }
 642:Drivers/lvgl/src/core/lv_indev.c **** 
 643:Drivers/lvgl/src/core/lv_indev.c ****             i->proc.long_pr_sent = 1;
 644:Drivers/lvgl/src/core/lv_indev.c ****         }
 645:Drivers/lvgl/src/core/lv_indev.c ****         /*Long press repeated time has elapsed?*/
 646:Drivers/lvgl/src/core/lv_indev.c ****         else if(i->proc.long_pr_sent != 0 && lv_tick_elaps(i->proc.longpr_rep_timestamp) > i->drive
 647:Drivers/lvgl/src/core/lv_indev.c **** 
 648:Drivers/lvgl/src/core/lv_indev.c ****             i->proc.longpr_rep_timestamp = lv_tick_get();
 649:Drivers/lvgl/src/core/lv_indev.c **** 
 650:Drivers/lvgl/src/core/lv_indev.c ****             if(data->key == LV_KEY_ENTER) {
 651:Drivers/lvgl/src/core/lv_indev.c ****                 lv_event_send(indev_obj_act, LV_EVENT_LONG_PRESSED_REPEAT, indev_act);
 652:Drivers/lvgl/src/core/lv_indev.c ****                 if(indev_reset_check(&i->proc)) return;
 653:Drivers/lvgl/src/core/lv_indev.c ****             }
 654:Drivers/lvgl/src/core/lv_indev.c ****             else if(data->key == LV_KEY_LEFT) {
 655:Drivers/lvgl/src/core/lv_indev.c ****                 /*emulate encoder left*/
 656:Drivers/lvgl/src/core/lv_indev.c ****                 data->enc_diff--;
ARM GAS  /var/folders/lp/x54gwt890xv47sdkqj1k04q40000gn/T//ccfgQDQQ.s 			page 13


 657:Drivers/lvgl/src/core/lv_indev.c ****             }
 658:Drivers/lvgl/src/core/lv_indev.c ****             else if(data->key == LV_KEY_RIGHT) {
 659:Drivers/lvgl/src/core/lv_indev.c ****                 /*emulate encoder right*/
 660:Drivers/lvgl/src/core/lv_indev.c ****                 data->enc_diff++;
 661:Drivers/lvgl/src/core/lv_indev.c ****             }
 662:Drivers/lvgl/src/core/lv_indev.c ****             else {
 663:Drivers/lvgl/src/core/lv_indev.c ****                 lv_group_send_data(g, data->key);
 664:Drivers/lvgl/src/core/lv_indev.c ****                 if(indev_reset_check(&i->proc)) return;
 665:Drivers/lvgl/src/core/lv_indev.c ****             }
 666:Drivers/lvgl/src/core/lv_indev.c **** 
 667:Drivers/lvgl/src/core/lv_indev.c ****         }
 668:Drivers/lvgl/src/core/lv_indev.c **** 
 669:Drivers/lvgl/src/core/lv_indev.c ****     }
 670:Drivers/lvgl/src/core/lv_indev.c ****     /*Release happened*/
 671:Drivers/lvgl/src/core/lv_indev.c ****     else if(data->state == LV_INDEV_STATE_RELEASED && last_state == LV_INDEV_STATE_PRESSED) {
 672:Drivers/lvgl/src/core/lv_indev.c ****         LV_LOG_INFO("released");
 673:Drivers/lvgl/src/core/lv_indev.c **** 
 674:Drivers/lvgl/src/core/lv_indev.c ****         if(data->key == LV_KEY_ENTER) {
 675:Drivers/lvgl/src/core/lv_indev.c ****             bool editable_or_scrollable = lv_obj_is_editable(indev_obj_act) ||
 676:Drivers/lvgl/src/core/lv_indev.c ****                                           lv_obj_has_flag(indev_obj_act, LV_OBJ_FLAG_SCROLLABLE);
 677:Drivers/lvgl/src/core/lv_indev.c **** 
 678:Drivers/lvgl/src/core/lv_indev.c ****             /*The button was released on a non-editable object. Just send enter*/
 679:Drivers/lvgl/src/core/lv_indev.c ****             if(editable_or_scrollable == false) {
 680:Drivers/lvgl/src/core/lv_indev.c ****                 lv_event_send(indev_obj_act, LV_EVENT_RELEASED, indev_act);
 681:Drivers/lvgl/src/core/lv_indev.c ****                 if(indev_reset_check(&i->proc)) return;
 682:Drivers/lvgl/src/core/lv_indev.c **** 
 683:Drivers/lvgl/src/core/lv_indev.c ****                 if(i->proc.long_pr_sent == 0) lv_event_send(indev_obj_act, LV_EVENT_SHORT_CLICKED, 
 684:Drivers/lvgl/src/core/lv_indev.c ****                 if(indev_reset_check(&i->proc)) return;
 685:Drivers/lvgl/src/core/lv_indev.c **** 
 686:Drivers/lvgl/src/core/lv_indev.c ****                 lv_event_send(indev_obj_act, LV_EVENT_CLICKED, indev_act);
 687:Drivers/lvgl/src/core/lv_indev.c ****                 if(indev_reset_check(&i->proc)) return;
 688:Drivers/lvgl/src/core/lv_indev.c **** 
 689:Drivers/lvgl/src/core/lv_indev.c ****             }
 690:Drivers/lvgl/src/core/lv_indev.c ****             /*An object is being edited and the button is released.*/
 691:Drivers/lvgl/src/core/lv_indev.c ****             else if(lv_group_get_editing(g)) {
 692:Drivers/lvgl/src/core/lv_indev.c ****                 /*Ignore long pressed enter release because it comes from mode switch*/
 693:Drivers/lvgl/src/core/lv_indev.c ****                 if(!i->proc.long_pr_sent || lv_group_get_obj_count(g) <= 1) {
 694:Drivers/lvgl/src/core/lv_indev.c ****                     lv_event_send(indev_obj_act, LV_EVENT_RELEASED, indev_act);
 695:Drivers/lvgl/src/core/lv_indev.c ****                     if(indev_reset_check(&i->proc)) return;
 696:Drivers/lvgl/src/core/lv_indev.c **** 
 697:Drivers/lvgl/src/core/lv_indev.c ****                     lv_event_send(indev_obj_act, LV_EVENT_SHORT_CLICKED, indev_act);
 698:Drivers/lvgl/src/core/lv_indev.c ****                     if(indev_reset_check(&i->proc)) return;
 699:Drivers/lvgl/src/core/lv_indev.c **** 
 700:Drivers/lvgl/src/core/lv_indev.c ****                     lv_event_send(indev_obj_act, LV_EVENT_CLICKED, indev_act);
 701:Drivers/lvgl/src/core/lv_indev.c ****                     if(indev_reset_check(&i->proc)) return;
 702:Drivers/lvgl/src/core/lv_indev.c **** 
 703:Drivers/lvgl/src/core/lv_indev.c ****                     lv_group_send_data(g, LV_KEY_ENTER);
 704:Drivers/lvgl/src/core/lv_indev.c ****                     if(indev_reset_check(&i->proc)) return;
 705:Drivers/lvgl/src/core/lv_indev.c ****                 }
 706:Drivers/lvgl/src/core/lv_indev.c ****                 else {
 707:Drivers/lvgl/src/core/lv_indev.c ****                     lv_obj_clear_state(indev_obj_act, LV_STATE_PRESSED);    /*Remove the pressed st
 708:Drivers/lvgl/src/core/lv_indev.c ****                 }
 709:Drivers/lvgl/src/core/lv_indev.c ****             }
 710:Drivers/lvgl/src/core/lv_indev.c ****             /*If the focused object is editable and now in navigate mode then on enter switch edit
 711:Drivers/lvgl/src/core/lv_indev.c ****                mode*/
 712:Drivers/lvgl/src/core/lv_indev.c ****             else if(!i->proc.long_pr_sent) {
 713:Drivers/lvgl/src/core/lv_indev.c ****                 LV_LOG_INFO("entering edit mode");
ARM GAS  /var/folders/lp/x54gwt890xv47sdkqj1k04q40000gn/T//ccfgQDQQ.s 			page 14


 714:Drivers/lvgl/src/core/lv_indev.c ****                 lv_group_set_editing(g, true); /*Set edit mode*/
 715:Drivers/lvgl/src/core/lv_indev.c ****             }
 716:Drivers/lvgl/src/core/lv_indev.c ****         }
 717:Drivers/lvgl/src/core/lv_indev.c **** 
 718:Drivers/lvgl/src/core/lv_indev.c ****         i->proc.pr_timestamp = 0;
 719:Drivers/lvgl/src/core/lv_indev.c ****         i->proc.long_pr_sent = 0;
 720:Drivers/lvgl/src/core/lv_indev.c ****     }
 721:Drivers/lvgl/src/core/lv_indev.c ****     indev_obj_act = NULL;
 722:Drivers/lvgl/src/core/lv_indev.c **** 
 723:Drivers/lvgl/src/core/lv_indev.c ****     /*if encoder steps or simulated steps via left/right keys*/
 724:Drivers/lvgl/src/core/lv_indev.c ****     if(data->enc_diff != 0) {
 725:Drivers/lvgl/src/core/lv_indev.c ****         /*In edit mode send LEFT/RIGHT keys*/
 726:Drivers/lvgl/src/core/lv_indev.c ****         if(lv_group_get_editing(g)) {
 727:Drivers/lvgl/src/core/lv_indev.c ****             LV_LOG_INFO("rotated by %+d (edit)", data->enc_diff);
 728:Drivers/lvgl/src/core/lv_indev.c ****             int32_t s;
 729:Drivers/lvgl/src/core/lv_indev.c ****             if(data->enc_diff < 0) {
 730:Drivers/lvgl/src/core/lv_indev.c ****                 for(s = 0; s < -data->enc_diff; s++) {
 731:Drivers/lvgl/src/core/lv_indev.c ****                     lv_group_send_data(g, LV_KEY_LEFT);
 732:Drivers/lvgl/src/core/lv_indev.c ****                     if(indev_reset_check(&i->proc)) return;
 733:Drivers/lvgl/src/core/lv_indev.c ****                 }
 734:Drivers/lvgl/src/core/lv_indev.c ****             }
 735:Drivers/lvgl/src/core/lv_indev.c ****             else if(data->enc_diff > 0) {
 736:Drivers/lvgl/src/core/lv_indev.c ****                 for(s = 0; s < data->enc_diff; s++) {
 737:Drivers/lvgl/src/core/lv_indev.c ****                     lv_group_send_data(g, LV_KEY_RIGHT);
 738:Drivers/lvgl/src/core/lv_indev.c ****                     if(indev_reset_check(&i->proc)) return;
 739:Drivers/lvgl/src/core/lv_indev.c ****                 }
 740:Drivers/lvgl/src/core/lv_indev.c ****             }
 741:Drivers/lvgl/src/core/lv_indev.c ****         }
 742:Drivers/lvgl/src/core/lv_indev.c ****         /*In navigate mode focus on the next/prev objects*/
 743:Drivers/lvgl/src/core/lv_indev.c ****         else {
 744:Drivers/lvgl/src/core/lv_indev.c ****             LV_LOG_INFO("rotated by %+d (nav)", data->enc_diff);
 745:Drivers/lvgl/src/core/lv_indev.c ****             int32_t s;
 746:Drivers/lvgl/src/core/lv_indev.c ****             if(data->enc_diff < 0) {
 747:Drivers/lvgl/src/core/lv_indev.c ****                 for(s = 0; s < -data->enc_diff; s++) {
 748:Drivers/lvgl/src/core/lv_indev.c ****                     lv_group_focus_prev(g);
 749:Drivers/lvgl/src/core/lv_indev.c ****                     if(indev_reset_check(&i->proc)) return;
 750:Drivers/lvgl/src/core/lv_indev.c ****                 }
 751:Drivers/lvgl/src/core/lv_indev.c ****             }
 752:Drivers/lvgl/src/core/lv_indev.c ****             else if(data->enc_diff > 0) {
 753:Drivers/lvgl/src/core/lv_indev.c ****                 for(s = 0; s < data->enc_diff; s++) {
 754:Drivers/lvgl/src/core/lv_indev.c ****                     lv_group_focus_next(g);
 755:Drivers/lvgl/src/core/lv_indev.c ****                     if(indev_reset_check(&i->proc)) return;
 756:Drivers/lvgl/src/core/lv_indev.c ****                 }
 757:Drivers/lvgl/src/core/lv_indev.c ****             }
 758:Drivers/lvgl/src/core/lv_indev.c ****         }
 759:Drivers/lvgl/src/core/lv_indev.c ****     }
 760:Drivers/lvgl/src/core/lv_indev.c **** }
 761:Drivers/lvgl/src/core/lv_indev.c **** 
 762:Drivers/lvgl/src/core/lv_indev.c **** /**
 763:Drivers/lvgl/src/core/lv_indev.c ****  * Process new points from an input device. indev->state.pressed has to be set
 764:Drivers/lvgl/src/core/lv_indev.c ****  * @param indev pointer to an input device state
 765:Drivers/lvgl/src/core/lv_indev.c ****  * @param x x coordinate of the next point
 766:Drivers/lvgl/src/core/lv_indev.c ****  * @param y y coordinate of the next point
 767:Drivers/lvgl/src/core/lv_indev.c ****  */
 768:Drivers/lvgl/src/core/lv_indev.c **** static void indev_button_proc(lv_indev_t * i, lv_indev_data_t * data)
 769:Drivers/lvgl/src/core/lv_indev.c **** {
 770:Drivers/lvgl/src/core/lv_indev.c ****     /*Die gracefully if i->btn_points is NULL*/
ARM GAS  /var/folders/lp/x54gwt890xv47sdkqj1k04q40000gn/T//ccfgQDQQ.s 			page 15


 771:Drivers/lvgl/src/core/lv_indev.c ****     if(i->btn_points == NULL) {
 772:Drivers/lvgl/src/core/lv_indev.c ****         LV_LOG_WARN("btn_points is NULL");
 773:Drivers/lvgl/src/core/lv_indev.c ****         return;
 774:Drivers/lvgl/src/core/lv_indev.c ****     }
 775:Drivers/lvgl/src/core/lv_indev.c **** 
 776:Drivers/lvgl/src/core/lv_indev.c ****     lv_coord_t x = i->btn_points[data->btn_id].x;
 777:Drivers/lvgl/src/core/lv_indev.c ****     lv_coord_t y = i->btn_points[data->btn_id].y;
 778:Drivers/lvgl/src/core/lv_indev.c **** 
 779:Drivers/lvgl/src/core/lv_indev.c ****     static lv_indev_state_t prev_state = LV_INDEV_STATE_RELEASED;
 780:Drivers/lvgl/src/core/lv_indev.c ****     if(prev_state != data->state) {
 781:Drivers/lvgl/src/core/lv_indev.c ****         if(data->state == LV_INDEV_STATE_PRESSED) {
 782:Drivers/lvgl/src/core/lv_indev.c ****             LV_LOG_INFO("button %" LV_PRIu32 " is pressed (x:%d y:%d)", data->btn_id, x, y);
 783:Drivers/lvgl/src/core/lv_indev.c ****         }
 784:Drivers/lvgl/src/core/lv_indev.c ****         else {
 785:Drivers/lvgl/src/core/lv_indev.c ****             LV_LOG_INFO("button %" LV_PRIu32 " is released (x:%d y:%d)", data->btn_id, x, y);
 786:Drivers/lvgl/src/core/lv_indev.c ****         }
 787:Drivers/lvgl/src/core/lv_indev.c ****     }
 788:Drivers/lvgl/src/core/lv_indev.c **** 
 789:Drivers/lvgl/src/core/lv_indev.c ****     /*If a new point comes always make a release*/
 790:Drivers/lvgl/src/core/lv_indev.c ****     if(data->state == LV_INDEV_STATE_PRESSED) {
 791:Drivers/lvgl/src/core/lv_indev.c ****         if(i->proc.types.pointer.last_point.x != x ||
 792:Drivers/lvgl/src/core/lv_indev.c ****            i->proc.types.pointer.last_point.y != y) {
 793:Drivers/lvgl/src/core/lv_indev.c ****             indev_proc_release(&i->proc);
 794:Drivers/lvgl/src/core/lv_indev.c ****         }
 795:Drivers/lvgl/src/core/lv_indev.c ****     }
 796:Drivers/lvgl/src/core/lv_indev.c **** 
 797:Drivers/lvgl/src/core/lv_indev.c ****     if(indev_reset_check(&i->proc)) return;
 798:Drivers/lvgl/src/core/lv_indev.c **** 
 799:Drivers/lvgl/src/core/lv_indev.c ****     /*Save the new points*/
 800:Drivers/lvgl/src/core/lv_indev.c ****     i->proc.types.pointer.act_point.x = x;
 801:Drivers/lvgl/src/core/lv_indev.c ****     i->proc.types.pointer.act_point.y = y;
 802:Drivers/lvgl/src/core/lv_indev.c **** 
 803:Drivers/lvgl/src/core/lv_indev.c ****     if(data->state == LV_INDEV_STATE_PRESSED) indev_proc_press(&i->proc);
 804:Drivers/lvgl/src/core/lv_indev.c ****     else indev_proc_release(&i->proc);
 805:Drivers/lvgl/src/core/lv_indev.c **** 
 806:Drivers/lvgl/src/core/lv_indev.c ****     if(indev_reset_check(&i->proc)) return;
 807:Drivers/lvgl/src/core/lv_indev.c **** 
 808:Drivers/lvgl/src/core/lv_indev.c ****     i->proc.types.pointer.last_point.x = i->proc.types.pointer.act_point.x;
 809:Drivers/lvgl/src/core/lv_indev.c ****     i->proc.types.pointer.last_point.y = i->proc.types.pointer.act_point.y;
 810:Drivers/lvgl/src/core/lv_indev.c **** }
 811:Drivers/lvgl/src/core/lv_indev.c **** 
 812:Drivers/lvgl/src/core/lv_indev.c **** /**
 813:Drivers/lvgl/src/core/lv_indev.c ****  * Process the pressed state of LV_INDEV_TYPE_POINTER input devices
 814:Drivers/lvgl/src/core/lv_indev.c ****  * @param indev pointer to an input device 'proc'
 815:Drivers/lvgl/src/core/lv_indev.c ****  * @return LV_RES_OK: no indev reset required; LV_RES_INV: indev reset is required
 816:Drivers/lvgl/src/core/lv_indev.c ****  */
 817:Drivers/lvgl/src/core/lv_indev.c **** static void indev_proc_press(_lv_indev_proc_t * proc)
 818:Drivers/lvgl/src/core/lv_indev.c **** {
 819:Drivers/lvgl/src/core/lv_indev.c ****     LV_LOG_INFO("pressed at x:%d y:%d", proc->types.pointer.act_point.x, proc->types.pointer.act_po
 820:Drivers/lvgl/src/core/lv_indev.c ****     indev_obj_act = proc->types.pointer.act_obj;
 821:Drivers/lvgl/src/core/lv_indev.c **** 
 822:Drivers/lvgl/src/core/lv_indev.c ****     if(proc->wait_until_release != 0) return;
 823:Drivers/lvgl/src/core/lv_indev.c **** 
 824:Drivers/lvgl/src/core/lv_indev.c ****     lv_disp_t * disp = indev_act->driver->disp;
 825:Drivers/lvgl/src/core/lv_indev.c ****     bool new_obj_searched = false;
 826:Drivers/lvgl/src/core/lv_indev.c **** 
 827:Drivers/lvgl/src/core/lv_indev.c ****     /*If there is no last object then search*/
ARM GAS  /var/folders/lp/x54gwt890xv47sdkqj1k04q40000gn/T//ccfgQDQQ.s 			page 16


 828:Drivers/lvgl/src/core/lv_indev.c ****     if(indev_obj_act == NULL) {
 829:Drivers/lvgl/src/core/lv_indev.c ****         indev_obj_act = lv_indev_search_obj(lv_disp_get_layer_sys(disp), &proc->types.pointer.act_p
 830:Drivers/lvgl/src/core/lv_indev.c ****         if(indev_obj_act == NULL) indev_obj_act = lv_indev_search_obj(lv_disp_get_layer_top(disp),
 831:Drivers/lvgl/src/core/lv_indev.c ****                                                                           &proc->types.pointer.act_
 832:Drivers/lvgl/src/core/lv_indev.c ****         if(indev_obj_act == NULL) indev_obj_act = lv_indev_search_obj(lv_disp_get_scr_act(disp),
 833:Drivers/lvgl/src/core/lv_indev.c ****                                                                           &proc->types.pointer.act_
 834:Drivers/lvgl/src/core/lv_indev.c ****         new_obj_searched = true;
 835:Drivers/lvgl/src/core/lv_indev.c ****     }
 836:Drivers/lvgl/src/core/lv_indev.c ****     /*If there is last object but it is not scrolled and not protected also search*/
 837:Drivers/lvgl/src/core/lv_indev.c ****     else if(proc->types.pointer.scroll_obj == NULL &&
 838:Drivers/lvgl/src/core/lv_indev.c ****             lv_obj_has_flag(indev_obj_act, LV_OBJ_FLAG_PRESS_LOCK) == false) {
 839:Drivers/lvgl/src/core/lv_indev.c ****         indev_obj_act = lv_indev_search_obj(lv_disp_get_layer_sys(disp), &proc->types.pointer.act_p
 840:Drivers/lvgl/src/core/lv_indev.c ****         if(indev_obj_act == NULL) indev_obj_act = lv_indev_search_obj(lv_disp_get_layer_top(disp),
 841:Drivers/lvgl/src/core/lv_indev.c ****                                                                           &proc->types.pointer.act_
 842:Drivers/lvgl/src/core/lv_indev.c ****         if(indev_obj_act == NULL) indev_obj_act = lv_indev_search_obj(lv_disp_get_scr_act(disp),
 843:Drivers/lvgl/src/core/lv_indev.c ****                                                                           &proc->types.pointer.act_
 844:Drivers/lvgl/src/core/lv_indev.c ****         new_obj_searched = true;
 845:Drivers/lvgl/src/core/lv_indev.c ****     }
 846:Drivers/lvgl/src/core/lv_indev.c **** 
 847:Drivers/lvgl/src/core/lv_indev.c ****     /*The last object might have scroll throw. Stop it manually*/
 848:Drivers/lvgl/src/core/lv_indev.c ****     if(new_obj_searched && proc->types.pointer.last_obj) {
 849:Drivers/lvgl/src/core/lv_indev.c ****         proc->types.pointer.scroll_throw_vect.x = 0;
 850:Drivers/lvgl/src/core/lv_indev.c ****         proc->types.pointer.scroll_throw_vect.y = 0;
 851:Drivers/lvgl/src/core/lv_indev.c ****         _lv_indev_scroll_throw_handler(proc);
 852:Drivers/lvgl/src/core/lv_indev.c ****         if(indev_reset_check(proc)) return;
 853:Drivers/lvgl/src/core/lv_indev.c ****     }
 854:Drivers/lvgl/src/core/lv_indev.c **** 
 855:Drivers/lvgl/src/core/lv_indev.c ****     /*If a new object was found reset some variables and send a pressed event handler*/
 856:Drivers/lvgl/src/core/lv_indev.c ****     if(indev_obj_act != proc->types.pointer.act_obj) {
 857:Drivers/lvgl/src/core/lv_indev.c ****         proc->types.pointer.last_point.x = proc->types.pointer.act_point.x;
 858:Drivers/lvgl/src/core/lv_indev.c ****         proc->types.pointer.last_point.y = proc->types.pointer.act_point.y;
 859:Drivers/lvgl/src/core/lv_indev.c **** 
 860:Drivers/lvgl/src/core/lv_indev.c ****         /*If a new object found the previous was lost, so send a Call the ancestor's event handler*
 861:Drivers/lvgl/src/core/lv_indev.c ****         if(proc->types.pointer.act_obj != NULL) {
 862:Drivers/lvgl/src/core/lv_indev.c ****             /*Save the obj because in special cases `act_obj` can change in the Call the ancestor's
 863:Drivers/lvgl/src/core/lv_indev.c ****             lv_obj_t * last_obj = proc->types.pointer.act_obj;
 864:Drivers/lvgl/src/core/lv_indev.c **** 
 865:Drivers/lvgl/src/core/lv_indev.c ****             lv_event_send(last_obj, LV_EVENT_PRESS_LOST, indev_act);
 866:Drivers/lvgl/src/core/lv_indev.c ****             if(indev_reset_check(proc)) return;
 867:Drivers/lvgl/src/core/lv_indev.c ****         }
 868:Drivers/lvgl/src/core/lv_indev.c **** 
 869:Drivers/lvgl/src/core/lv_indev.c ****         proc->types.pointer.act_obj  = indev_obj_act; /*Save the pressed object*/
 870:Drivers/lvgl/src/core/lv_indev.c ****         proc->types.pointer.last_obj = indev_obj_act;
 871:Drivers/lvgl/src/core/lv_indev.c **** 
 872:Drivers/lvgl/src/core/lv_indev.c ****         if(indev_obj_act != NULL) {
 873:Drivers/lvgl/src/core/lv_indev.c ****             /*Save the time when the obj pressed to count long press time.*/
 874:Drivers/lvgl/src/core/lv_indev.c ****             proc->pr_timestamp                 = lv_tick_get();
 875:Drivers/lvgl/src/core/lv_indev.c ****             proc->long_pr_sent                 = 0;
 876:Drivers/lvgl/src/core/lv_indev.c ****             proc->types.pointer.scroll_sum.x     = 0;
 877:Drivers/lvgl/src/core/lv_indev.c ****             proc->types.pointer.scroll_sum.y     = 0;
 878:Drivers/lvgl/src/core/lv_indev.c ****             proc->types.pointer.scroll_dir = LV_DIR_NONE;
 879:Drivers/lvgl/src/core/lv_indev.c ****             proc->types.pointer.gesture_dir = LV_DIR_NONE;
 880:Drivers/lvgl/src/core/lv_indev.c ****             proc->types.pointer.gesture_sent   = 0;
 881:Drivers/lvgl/src/core/lv_indev.c ****             proc->types.pointer.gesture_sum.x  = 0;
 882:Drivers/lvgl/src/core/lv_indev.c ****             proc->types.pointer.gesture_sum.y  = 0;
 883:Drivers/lvgl/src/core/lv_indev.c ****             proc->types.pointer.vect.x         = 0;
 884:Drivers/lvgl/src/core/lv_indev.c ****             proc->types.pointer.vect.y         = 0;
ARM GAS  /var/folders/lp/x54gwt890xv47sdkqj1k04q40000gn/T//ccfgQDQQ.s 			page 17


 885:Drivers/lvgl/src/core/lv_indev.c **** 
 886:Drivers/lvgl/src/core/lv_indev.c ****             /*Call the ancestor's event handler about the press*/
 887:Drivers/lvgl/src/core/lv_indev.c ****             lv_event_send(indev_obj_act, LV_EVENT_PRESSED, indev_act);
 888:Drivers/lvgl/src/core/lv_indev.c ****             if(indev_reset_check(proc)) return;
 889:Drivers/lvgl/src/core/lv_indev.c **** 
 890:Drivers/lvgl/src/core/lv_indev.c ****             if(indev_act->proc.wait_until_release) return;
 891:Drivers/lvgl/src/core/lv_indev.c **** 
 892:Drivers/lvgl/src/core/lv_indev.c ****             /*Handle focus*/
 893:Drivers/lvgl/src/core/lv_indev.c ****             indev_click_focus(&indev_act->proc);
 894:Drivers/lvgl/src/core/lv_indev.c ****             if(indev_reset_check(proc)) return;
 895:Drivers/lvgl/src/core/lv_indev.c **** 
 896:Drivers/lvgl/src/core/lv_indev.c ****         }
 897:Drivers/lvgl/src/core/lv_indev.c ****     }
 898:Drivers/lvgl/src/core/lv_indev.c **** 
 899:Drivers/lvgl/src/core/lv_indev.c ****     /*Calculate the vector and apply a low pass filter: new value = 0.5 * old_value + 0.5 * new_val
 900:Drivers/lvgl/src/core/lv_indev.c ****     proc->types.pointer.vect.x = proc->types.pointer.act_point.x - proc->types.pointer.last_point.x
 901:Drivers/lvgl/src/core/lv_indev.c ****     proc->types.pointer.vect.y = proc->types.pointer.act_point.y - proc->types.pointer.last_point.y
 902:Drivers/lvgl/src/core/lv_indev.c **** 
 903:Drivers/lvgl/src/core/lv_indev.c ****     proc->types.pointer.scroll_throw_vect.x = (proc->types.pointer.scroll_throw_vect.x + proc->type
 904:Drivers/lvgl/src/core/lv_indev.c ****     proc->types.pointer.scroll_throw_vect.y = (proc->types.pointer.scroll_throw_vect.y + proc->type
 905:Drivers/lvgl/src/core/lv_indev.c **** 
 906:Drivers/lvgl/src/core/lv_indev.c ****     proc->types.pointer.scroll_throw_vect_ori = proc->types.pointer.scroll_throw_vect;
 907:Drivers/lvgl/src/core/lv_indev.c **** 
 908:Drivers/lvgl/src/core/lv_indev.c ****     if(indev_obj_act) {
 909:Drivers/lvgl/src/core/lv_indev.c ****         lv_event_send(indev_obj_act, LV_EVENT_PRESSING, indev_act);
 910:Drivers/lvgl/src/core/lv_indev.c ****         if(indev_reset_check(proc)) return;
 911:Drivers/lvgl/src/core/lv_indev.c **** 
 912:Drivers/lvgl/src/core/lv_indev.c ****         if(indev_act->proc.wait_until_release) return;
 913:Drivers/lvgl/src/core/lv_indev.c **** 
 914:Drivers/lvgl/src/core/lv_indev.c ****         _lv_indev_scroll_handler(proc);
 915:Drivers/lvgl/src/core/lv_indev.c ****         if(indev_reset_check(proc)) return;
 916:Drivers/lvgl/src/core/lv_indev.c ****         indev_gesture(proc);
 917:Drivers/lvgl/src/core/lv_indev.c ****         if(indev_reset_check(proc)) return;
 918:Drivers/lvgl/src/core/lv_indev.c **** 
 919:Drivers/lvgl/src/core/lv_indev.c ****         /*If there is no scrolling then check for long press time*/
 920:Drivers/lvgl/src/core/lv_indev.c ****         if(proc->types.pointer.scroll_obj == NULL && proc->long_pr_sent == 0) {
 921:Drivers/lvgl/src/core/lv_indev.c ****             /*Call the ancestor's event handler about the long press if enough time elapsed*/
 922:Drivers/lvgl/src/core/lv_indev.c ****             if(lv_tick_elaps(proc->pr_timestamp) > indev_act->driver->long_press_time) {
 923:Drivers/lvgl/src/core/lv_indev.c ****                 lv_event_send(indev_obj_act, LV_EVENT_LONG_PRESSED, indev_act);
 924:Drivers/lvgl/src/core/lv_indev.c ****                 if(indev_reset_check(proc)) return;
 925:Drivers/lvgl/src/core/lv_indev.c **** 
 926:Drivers/lvgl/src/core/lv_indev.c ****                 /*Mark the Call the ancestor's event handler sending to do not send it again*/
 927:Drivers/lvgl/src/core/lv_indev.c ****                 proc->long_pr_sent = 1;
 928:Drivers/lvgl/src/core/lv_indev.c **** 
 929:Drivers/lvgl/src/core/lv_indev.c ****                 /*Save the long press time stamp for the long press repeat handler*/
 930:Drivers/lvgl/src/core/lv_indev.c ****                 proc->longpr_rep_timestamp = lv_tick_get();
 931:Drivers/lvgl/src/core/lv_indev.c ****             }
 932:Drivers/lvgl/src/core/lv_indev.c ****         }
 933:Drivers/lvgl/src/core/lv_indev.c **** 
 934:Drivers/lvgl/src/core/lv_indev.c ****         /*Send long press repeated Call the ancestor's event handler*/
 935:Drivers/lvgl/src/core/lv_indev.c ****         if(proc->types.pointer.scroll_obj == NULL && proc->long_pr_sent == 1) {
 936:Drivers/lvgl/src/core/lv_indev.c ****             /*Call the ancestor's event handler about the long press repeat if enough time elapsed*
 937:Drivers/lvgl/src/core/lv_indev.c ****             if(lv_tick_elaps(proc->longpr_rep_timestamp) > indev_act->driver->long_press_repeat_tim
 938:Drivers/lvgl/src/core/lv_indev.c ****                 lv_event_send(indev_obj_act, LV_EVENT_LONG_PRESSED_REPEAT, indev_act);
 939:Drivers/lvgl/src/core/lv_indev.c ****                 if(indev_reset_check(proc)) return;
 940:Drivers/lvgl/src/core/lv_indev.c ****                 proc->longpr_rep_timestamp = lv_tick_get();
 941:Drivers/lvgl/src/core/lv_indev.c ****             }
ARM GAS  /var/folders/lp/x54gwt890xv47sdkqj1k04q40000gn/T//ccfgQDQQ.s 			page 18


 942:Drivers/lvgl/src/core/lv_indev.c ****         }
 943:Drivers/lvgl/src/core/lv_indev.c ****     }
 944:Drivers/lvgl/src/core/lv_indev.c **** }
 945:Drivers/lvgl/src/core/lv_indev.c **** 
 946:Drivers/lvgl/src/core/lv_indev.c **** /**
 947:Drivers/lvgl/src/core/lv_indev.c ****  * Process the released state of LV_INDEV_TYPE_POINTER input devices
 948:Drivers/lvgl/src/core/lv_indev.c ****  * @param proc pointer to an input device 'proc'
 949:Drivers/lvgl/src/core/lv_indev.c ****  */
 950:Drivers/lvgl/src/core/lv_indev.c **** static void indev_proc_release(_lv_indev_proc_t * proc)
 951:Drivers/lvgl/src/core/lv_indev.c **** {
  30              		.loc 1 951 1 view -0
  31              		.cfi_startproc
  32              		@ args = 0, pretend = 0, frame = 8
  33              		@ frame_needed = 0, uses_anonymous_args = 0
 952:Drivers/lvgl/src/core/lv_indev.c ****     if(proc->wait_until_release != 0) {
  34              		.loc 1 952 5 view .LVU1
 951:Drivers/lvgl/src/core/lv_indev.c ****     if(proc->wait_until_release != 0) {
  35              		.loc 1 951 1 is_stmt 0 view .LVU2
  36 0000 2DE9F043 		push	{r4, r5, r6, r7, r8, r9, lr}
  37              		.cfi_def_cfa_offset 28
  38              		.cfi_offset 4, -28
  39              		.cfi_offset 5, -24
  40              		.cfi_offset 6, -20
  41              		.cfi_offset 7, -16
  42              		.cfi_offset 8, -12
  43              		.cfi_offset 9, -8
  44              		.cfi_offset 14, -4
  45              		.loc 1 952 33 view .LVU3
  46 0004 4378     		ldrb	r3, [r0, #1]	@ zero_extendqisi2
  47              		.loc 1 952 7 view .LVU4
  48 0006 13F00805 		ands	r5, r3, #8
 951:Drivers/lvgl/src/core/lv_indev.c ****     if(proc->wait_until_release != 0) {
  49              		.loc 1 951 1 view .LVU5
  50 000a 0446     		mov	r4, r0
  51 000c 83B0     		sub	sp, sp, #12
  52              		.cfi_def_cfa_offset 40
 953:Drivers/lvgl/src/core/lv_indev.c ****         lv_event_send(proc->types.pointer.act_obj, LV_EVENT_PRESS_LOST, indev_act);
  53              		.loc 1 953 9 view .LVU6
  54 000e 406A     		ldr	r0, [r0, #36]
  55              	.LVL1:
 952:Drivers/lvgl/src/core/lv_indev.c ****     if(proc->wait_until_release != 0) {
  56              		.loc 1 952 7 view .LVU7
  57 0010 5BD1     		bne	.L44
 954:Drivers/lvgl/src/core/lv_indev.c ****         if(indev_reset_check(proc)) return;
 955:Drivers/lvgl/src/core/lv_indev.c **** 
 956:Drivers/lvgl/src/core/lv_indev.c ****         proc->types.pointer.act_obj  = NULL;
 957:Drivers/lvgl/src/core/lv_indev.c ****         proc->types.pointer.last_obj = NULL;
 958:Drivers/lvgl/src/core/lv_indev.c ****         proc->pr_timestamp           = 0;
 959:Drivers/lvgl/src/core/lv_indev.c ****         proc->longpr_rep_timestamp   = 0;
 960:Drivers/lvgl/src/core/lv_indev.c ****         proc->wait_until_release     = 0;
 961:Drivers/lvgl/src/core/lv_indev.c ****     }
 962:Drivers/lvgl/src/core/lv_indev.c ****     indev_obj_act = proc->types.pointer.act_obj;
  58              		.loc 1 962 5 is_stmt 1 view .LVU8
  59              		.loc 1 962 19 is_stmt 0 view .LVU9
  60 0012 4F4F     		ldr	r7, .L46
 963:Drivers/lvgl/src/core/lv_indev.c ****     lv_obj_t * scroll_obj = proc->types.pointer.scroll_obj;
  61              		.loc 1 963 16 view .LVU10
ARM GAS  /var/folders/lp/x54gwt890xv47sdkqj1k04q40000gn/T//ccfgQDQQ.s 			page 19


  62 0014 D4F82C90 		ldr	r9, [r4, #44]
 962:Drivers/lvgl/src/core/lv_indev.c ****     lv_obj_t * scroll_obj = proc->types.pointer.scroll_obj;
  63              		.loc 1 962 19 view .LVU11
  64 0018 3860     		str	r0, [r7]
  65              		.loc 1 963 5 is_stmt 1 view .LVU12
  66              	.LVL2:
 964:Drivers/lvgl/src/core/lv_indev.c **** 
 965:Drivers/lvgl/src/core/lv_indev.c ****     /*Forget the act obj and send a released Call the ancestor's event handler*/
 966:Drivers/lvgl/src/core/lv_indev.c ****     if(indev_obj_act) {
  67              		.loc 1 966 5 view .LVU13
  68              		.loc 1 966 7 is_stmt 0 view .LVU14
  69 001a 0028     		cmp	r0, #0
  70 001c 6DD0     		beq	.L6
 967:Drivers/lvgl/src/core/lv_indev.c ****         LV_LOG_INFO("released");
  71              		.loc 1 967 9 is_stmt 1 view .LVU15
  72              		.loc 1 967 9 view .LVU16
  73              		.loc 1 967 9 view .LVU17
 968:Drivers/lvgl/src/core/lv_indev.c **** 
 969:Drivers/lvgl/src/core/lv_indev.c ****         /*Send RELEASE Call the ancestor's event handler and event*/
 970:Drivers/lvgl/src/core/lv_indev.c ****         lv_event_send(indev_obj_act, LV_EVENT_RELEASED, indev_act);
  74              		.loc 1 970 9 view .LVU18
  75 001e 4D4E     		ldr	r6, .L46+4
  76 0020 0821     		movs	r1, #8
  77 0022 3268     		ldr	r2, [r6]
  78 0024 FFF7FEFF 		bl	lv_event_send
  79              	.LVL3:
 971:Drivers/lvgl/src/core/lv_indev.c ****         if(indev_reset_check(proc)) return;
  80              		.loc 1 971 9 view .LVU19
  81              	.LBB131:
  82              	.LBI131:
 972:Drivers/lvgl/src/core/lv_indev.c **** 
 973:Drivers/lvgl/src/core/lv_indev.c ****         /*Send CLICK if no scrolling*/
 974:Drivers/lvgl/src/core/lv_indev.c ****         if(scroll_obj == NULL) {
 975:Drivers/lvgl/src/core/lv_indev.c ****             if(proc->long_pr_sent == 0) {
 976:Drivers/lvgl/src/core/lv_indev.c ****                 lv_event_send(indev_obj_act, LV_EVENT_SHORT_CLICKED, indev_act);
 977:Drivers/lvgl/src/core/lv_indev.c ****                 if(indev_reset_check(proc)) return;
 978:Drivers/lvgl/src/core/lv_indev.c ****             }
 979:Drivers/lvgl/src/core/lv_indev.c **** 
 980:Drivers/lvgl/src/core/lv_indev.c ****             lv_event_send(indev_obj_act, LV_EVENT_CLICKED, indev_act);
 981:Drivers/lvgl/src/core/lv_indev.c ****             if(indev_reset_check(proc)) return;
 982:Drivers/lvgl/src/core/lv_indev.c ****         }
 983:Drivers/lvgl/src/core/lv_indev.c **** 
 984:Drivers/lvgl/src/core/lv_indev.c ****         proc->types.pointer.act_obj = NULL;
 985:Drivers/lvgl/src/core/lv_indev.c ****         proc->pr_timestamp          = 0;
 986:Drivers/lvgl/src/core/lv_indev.c ****         proc->longpr_rep_timestamp  = 0;
 987:Drivers/lvgl/src/core/lv_indev.c **** 
 988:Drivers/lvgl/src/core/lv_indev.c **** 
 989:Drivers/lvgl/src/core/lv_indev.c ****         /*Get the transformed vector with this object*/
 990:Drivers/lvgl/src/core/lv_indev.c ****         if(scroll_obj) {
 991:Drivers/lvgl/src/core/lv_indev.c ****             int16_t angle = 0;
 992:Drivers/lvgl/src/core/lv_indev.c ****             int16_t zoom = 256;
 993:Drivers/lvgl/src/core/lv_indev.c ****             lv_point_t pivot = { 0, 0 };
 994:Drivers/lvgl/src/core/lv_indev.c ****             lv_obj_t * parent = scroll_obj;
 995:Drivers/lvgl/src/core/lv_indev.c ****             while(parent) {
 996:Drivers/lvgl/src/core/lv_indev.c ****                 angle += lv_obj_get_style_transform_angle(parent, 0);
 997:Drivers/lvgl/src/core/lv_indev.c ****                 zoom *= (lv_obj_get_style_transform_zoom(parent, 0) / 256);
 998:Drivers/lvgl/src/core/lv_indev.c ****                 parent = lv_obj_get_parent(parent);
ARM GAS  /var/folders/lp/x54gwt890xv47sdkqj1k04q40000gn/T//ccfgQDQQ.s 			page 20


 999:Drivers/lvgl/src/core/lv_indev.c ****             }
1000:Drivers/lvgl/src/core/lv_indev.c **** 
1001:Drivers/lvgl/src/core/lv_indev.c ****             if(angle != 0 || zoom != LV_IMG_ZOOM_NONE) {
1002:Drivers/lvgl/src/core/lv_indev.c ****                 angle = -angle;
1003:Drivers/lvgl/src/core/lv_indev.c ****                 zoom = (256 * 256) / zoom;
1004:Drivers/lvgl/src/core/lv_indev.c ****                 lv_point_transform(&proc->types.pointer.scroll_throw_vect, angle, zoom, &pivot);
1005:Drivers/lvgl/src/core/lv_indev.c ****                 lv_point_transform(&proc->types.pointer.scroll_throw_vect_ori, angle, zoom, &pivot)
1006:Drivers/lvgl/src/core/lv_indev.c ****             }
1007:Drivers/lvgl/src/core/lv_indev.c ****         }
1008:Drivers/lvgl/src/core/lv_indev.c **** 
1009:Drivers/lvgl/src/core/lv_indev.c ****     }
1010:Drivers/lvgl/src/core/lv_indev.c **** 
1011:Drivers/lvgl/src/core/lv_indev.c ****     /*The reset can be set in the Call the ancestor's event handler function.
1012:Drivers/lvgl/src/core/lv_indev.c ****      * In case of reset query ignore the remaining parts.*/
1013:Drivers/lvgl/src/core/lv_indev.c ****     if(scroll_obj) {
1014:Drivers/lvgl/src/core/lv_indev.c ****         _lv_indev_scroll_throw_handler(proc);
1015:Drivers/lvgl/src/core/lv_indev.c ****         if(indev_reset_check(proc)) return;
1016:Drivers/lvgl/src/core/lv_indev.c ****     }
1017:Drivers/lvgl/src/core/lv_indev.c **** }
1018:Drivers/lvgl/src/core/lv_indev.c **** 
1019:Drivers/lvgl/src/core/lv_indev.c **** /**
1020:Drivers/lvgl/src/core/lv_indev.c ****  * Process a new point from LV_INDEV_TYPE_BUTTON input device
1021:Drivers/lvgl/src/core/lv_indev.c ****  * @param i pointer to an input device
1022:Drivers/lvgl/src/core/lv_indev.c ****  * @param data pointer to the data read from the input device
1023:Drivers/lvgl/src/core/lv_indev.c ****  * Reset input device if a reset query has been sent to it
1024:Drivers/lvgl/src/core/lv_indev.c ****  * @param indev pointer to an input device
1025:Drivers/lvgl/src/core/lv_indev.c ****  */
1026:Drivers/lvgl/src/core/lv_indev.c **** static void indev_proc_reset_query_handler(lv_indev_t * indev)
1027:Drivers/lvgl/src/core/lv_indev.c **** {
1028:Drivers/lvgl/src/core/lv_indev.c ****     if(indev->proc.reset_query) {
1029:Drivers/lvgl/src/core/lv_indev.c ****         indev->proc.types.pointer.act_obj           = NULL;
1030:Drivers/lvgl/src/core/lv_indev.c ****         indev->proc.types.pointer.last_obj          = NULL;
1031:Drivers/lvgl/src/core/lv_indev.c ****         indev->proc.types.pointer.scroll_obj          = NULL;
1032:Drivers/lvgl/src/core/lv_indev.c ****         indev->proc.long_pr_sent                    = 0;
1033:Drivers/lvgl/src/core/lv_indev.c ****         indev->proc.pr_timestamp                    = 0;
1034:Drivers/lvgl/src/core/lv_indev.c ****         indev->proc.longpr_rep_timestamp            = 0;
1035:Drivers/lvgl/src/core/lv_indev.c ****         indev->proc.types.pointer.scroll_sum.x        = 0;
1036:Drivers/lvgl/src/core/lv_indev.c ****         indev->proc.types.pointer.scroll_sum.y        = 0;
1037:Drivers/lvgl/src/core/lv_indev.c ****         indev->proc.types.pointer.scroll_dir = LV_DIR_NONE;
1038:Drivers/lvgl/src/core/lv_indev.c ****         indev->proc.types.pointer.scroll_throw_vect.x = 0;
1039:Drivers/lvgl/src/core/lv_indev.c ****         indev->proc.types.pointer.scroll_throw_vect.y = 0;
1040:Drivers/lvgl/src/core/lv_indev.c ****         indev->proc.types.pointer.gesture_sum.x     = 0;
1041:Drivers/lvgl/src/core/lv_indev.c ****         indev->proc.types.pointer.gesture_sum.y     = 0;
1042:Drivers/lvgl/src/core/lv_indev.c ****         indev->proc.reset_query                     = 0;
1043:Drivers/lvgl/src/core/lv_indev.c ****         indev_obj_act                               = NULL;
1044:Drivers/lvgl/src/core/lv_indev.c ****     }
1045:Drivers/lvgl/src/core/lv_indev.c **** }
1046:Drivers/lvgl/src/core/lv_indev.c **** 
1047:Drivers/lvgl/src/core/lv_indev.c **** /**
1048:Drivers/lvgl/src/core/lv_indev.c ****  * Handle focus/defocus on click for POINTER input devices
1049:Drivers/lvgl/src/core/lv_indev.c ****  * @param proc pointer to the state of the indev
1050:Drivers/lvgl/src/core/lv_indev.c ****  */
1051:Drivers/lvgl/src/core/lv_indev.c **** static void indev_click_focus(_lv_indev_proc_t * proc)
1052:Drivers/lvgl/src/core/lv_indev.c **** {
1053:Drivers/lvgl/src/core/lv_indev.c ****     /*Handle click focus*/
1054:Drivers/lvgl/src/core/lv_indev.c ****     if(lv_obj_has_flag(indev_obj_act, LV_OBJ_FLAG_CLICK_FOCUSABLE) == false ||
1055:Drivers/lvgl/src/core/lv_indev.c ****        proc->types.pointer.last_pressed == indev_obj_act) {
ARM GAS  /var/folders/lp/x54gwt890xv47sdkqj1k04q40000gn/T//ccfgQDQQ.s 			page 21


1056:Drivers/lvgl/src/core/lv_indev.c ****         return;
1057:Drivers/lvgl/src/core/lv_indev.c ****     }
1058:Drivers/lvgl/src/core/lv_indev.c **** 
1059:Drivers/lvgl/src/core/lv_indev.c ****     lv_group_t * g_act = lv_obj_get_group(indev_obj_act);
1060:Drivers/lvgl/src/core/lv_indev.c ****     lv_group_t * g_prev = proc->types.pointer.last_pressed ? lv_obj_get_group(proc->types.pointer.l
1061:Drivers/lvgl/src/core/lv_indev.c **** 
1062:Drivers/lvgl/src/core/lv_indev.c ****     /*If both the last and act. obj. are in the same group (or have no group)*/
1063:Drivers/lvgl/src/core/lv_indev.c ****     if(g_act == g_prev) {
1064:Drivers/lvgl/src/core/lv_indev.c ****         /*The objects are in a group*/
1065:Drivers/lvgl/src/core/lv_indev.c ****         if(g_act) {
1066:Drivers/lvgl/src/core/lv_indev.c ****             lv_group_focus_obj(indev_obj_act);
1067:Drivers/lvgl/src/core/lv_indev.c ****             if(indev_reset_check(proc)) return;
1068:Drivers/lvgl/src/core/lv_indev.c ****         }
1069:Drivers/lvgl/src/core/lv_indev.c ****         /*The object are not in group*/
1070:Drivers/lvgl/src/core/lv_indev.c ****         else {
1071:Drivers/lvgl/src/core/lv_indev.c ****             if(proc->types.pointer.last_pressed) {
1072:Drivers/lvgl/src/core/lv_indev.c ****                 lv_event_send(proc->types.pointer.last_pressed, LV_EVENT_DEFOCUSED, indev_act);
1073:Drivers/lvgl/src/core/lv_indev.c ****                 if(indev_reset_check(proc)) return;
1074:Drivers/lvgl/src/core/lv_indev.c ****             }
1075:Drivers/lvgl/src/core/lv_indev.c **** 
1076:Drivers/lvgl/src/core/lv_indev.c ****             lv_event_send(indev_obj_act, LV_EVENT_FOCUSED, indev_act);
1077:Drivers/lvgl/src/core/lv_indev.c ****             if(indev_reset_check(proc)) return;
1078:Drivers/lvgl/src/core/lv_indev.c ****         }
1079:Drivers/lvgl/src/core/lv_indev.c ****     }
1080:Drivers/lvgl/src/core/lv_indev.c ****     /*The object are not in the same group (in different groups or one has no group)*/
1081:Drivers/lvgl/src/core/lv_indev.c ****     else {
1082:Drivers/lvgl/src/core/lv_indev.c ****         /*If the prev. obj. is not in a group then defocus it.*/
1083:Drivers/lvgl/src/core/lv_indev.c ****         if(g_prev == NULL && proc->types.pointer.last_pressed) {
1084:Drivers/lvgl/src/core/lv_indev.c ****             lv_event_send(proc->types.pointer.last_pressed, LV_EVENT_DEFOCUSED, indev_act);
1085:Drivers/lvgl/src/core/lv_indev.c ****             if(indev_reset_check(proc)) return;
1086:Drivers/lvgl/src/core/lv_indev.c ****         }
1087:Drivers/lvgl/src/core/lv_indev.c ****         /*Focus on a non-group object*/
1088:Drivers/lvgl/src/core/lv_indev.c ****         else {
1089:Drivers/lvgl/src/core/lv_indev.c ****             if(proc->types.pointer.last_pressed) {
1090:Drivers/lvgl/src/core/lv_indev.c ****                 /*If the prev. object also wasn't in a group defocus it*/
1091:Drivers/lvgl/src/core/lv_indev.c ****                 if(g_prev == NULL) {
1092:Drivers/lvgl/src/core/lv_indev.c ****                     lv_event_send(proc->types.pointer.last_pressed, LV_EVENT_DEFOCUSED, indev_act);
1093:Drivers/lvgl/src/core/lv_indev.c ****                     if(indev_reset_check(proc)) return;
1094:Drivers/lvgl/src/core/lv_indev.c ****                 }
1095:Drivers/lvgl/src/core/lv_indev.c ****                 /*If the prev. object also was in a group at least "LEAVE" it instead of defocus*/
1096:Drivers/lvgl/src/core/lv_indev.c ****                 else {
1097:Drivers/lvgl/src/core/lv_indev.c ****                     lv_event_send(proc->types.pointer.last_pressed, LV_EVENT_LEAVE, indev_act);
1098:Drivers/lvgl/src/core/lv_indev.c ****                     if(indev_reset_check(proc)) return;
1099:Drivers/lvgl/src/core/lv_indev.c ****                 }
1100:Drivers/lvgl/src/core/lv_indev.c ****             }
1101:Drivers/lvgl/src/core/lv_indev.c ****         }
1102:Drivers/lvgl/src/core/lv_indev.c **** 
1103:Drivers/lvgl/src/core/lv_indev.c ****         /*Focus to the act. in its group*/
1104:Drivers/lvgl/src/core/lv_indev.c ****         if(g_act) {
1105:Drivers/lvgl/src/core/lv_indev.c ****             lv_group_focus_obj(indev_obj_act);
1106:Drivers/lvgl/src/core/lv_indev.c ****             if(indev_reset_check(proc)) return;
1107:Drivers/lvgl/src/core/lv_indev.c ****         }
1108:Drivers/lvgl/src/core/lv_indev.c ****         else {
1109:Drivers/lvgl/src/core/lv_indev.c ****             lv_event_send(indev_obj_act, LV_EVENT_FOCUSED, indev_act);
1110:Drivers/lvgl/src/core/lv_indev.c ****             if(indev_reset_check(proc)) return;
1111:Drivers/lvgl/src/core/lv_indev.c ****         }
1112:Drivers/lvgl/src/core/lv_indev.c ****     }
ARM GAS  /var/folders/lp/x54gwt890xv47sdkqj1k04q40000gn/T//ccfgQDQQ.s 			page 22


1113:Drivers/lvgl/src/core/lv_indev.c ****     proc->types.pointer.last_pressed = indev_obj_act;
1114:Drivers/lvgl/src/core/lv_indev.c **** }
1115:Drivers/lvgl/src/core/lv_indev.c **** 
1116:Drivers/lvgl/src/core/lv_indev.c **** /**
1117:Drivers/lvgl/src/core/lv_indev.c **** * Handle the gesture of indev_proc_p->types.pointer.act_obj
1118:Drivers/lvgl/src/core/lv_indev.c **** * @param indev pointer to an input device state
1119:Drivers/lvgl/src/core/lv_indev.c **** */
1120:Drivers/lvgl/src/core/lv_indev.c **** void indev_gesture(_lv_indev_proc_t * proc)
1121:Drivers/lvgl/src/core/lv_indev.c **** {
1122:Drivers/lvgl/src/core/lv_indev.c **** 
1123:Drivers/lvgl/src/core/lv_indev.c ****     if(proc->types.pointer.scroll_obj) return;
1124:Drivers/lvgl/src/core/lv_indev.c ****     if(proc->types.pointer.gesture_sent) return;
1125:Drivers/lvgl/src/core/lv_indev.c **** 
1126:Drivers/lvgl/src/core/lv_indev.c ****     lv_obj_t * gesture_obj = proc->types.pointer.act_obj;
1127:Drivers/lvgl/src/core/lv_indev.c **** 
1128:Drivers/lvgl/src/core/lv_indev.c ****     /*If gesture parent is active check recursively the gesture attribute*/
1129:Drivers/lvgl/src/core/lv_indev.c ****     while(gesture_obj && lv_obj_has_flag(gesture_obj, LV_OBJ_FLAG_GESTURE_BUBBLE)) {
1130:Drivers/lvgl/src/core/lv_indev.c ****         gesture_obj = lv_obj_get_parent(gesture_obj);
1131:Drivers/lvgl/src/core/lv_indev.c ****     }
1132:Drivers/lvgl/src/core/lv_indev.c **** 
1133:Drivers/lvgl/src/core/lv_indev.c ****     if(gesture_obj == NULL) return;
1134:Drivers/lvgl/src/core/lv_indev.c **** 
1135:Drivers/lvgl/src/core/lv_indev.c ****     if((LV_ABS(proc->types.pointer.vect.x) < indev_act->driver->gesture_min_velocity) &&
1136:Drivers/lvgl/src/core/lv_indev.c ****        (LV_ABS(proc->types.pointer.vect.y) < indev_act->driver->gesture_min_velocity)) {
1137:Drivers/lvgl/src/core/lv_indev.c ****         proc->types.pointer.gesture_sum.x = 0;
1138:Drivers/lvgl/src/core/lv_indev.c ****         proc->types.pointer.gesture_sum.y = 0;
1139:Drivers/lvgl/src/core/lv_indev.c ****     }
1140:Drivers/lvgl/src/core/lv_indev.c **** 
1141:Drivers/lvgl/src/core/lv_indev.c ****     /*Count the movement by gesture*/
1142:Drivers/lvgl/src/core/lv_indev.c ****     proc->types.pointer.gesture_sum.x += proc->types.pointer.vect.x;
1143:Drivers/lvgl/src/core/lv_indev.c ****     proc->types.pointer.gesture_sum.y += proc->types.pointer.vect.y;
1144:Drivers/lvgl/src/core/lv_indev.c **** 
1145:Drivers/lvgl/src/core/lv_indev.c ****     if((LV_ABS(proc->types.pointer.gesture_sum.x) > indev_act->driver->gesture_limit) ||
1146:Drivers/lvgl/src/core/lv_indev.c ****        (LV_ABS(proc->types.pointer.gesture_sum.y) > indev_act->driver->gesture_limit)) {
1147:Drivers/lvgl/src/core/lv_indev.c **** 
1148:Drivers/lvgl/src/core/lv_indev.c ****         proc->types.pointer.gesture_sent = 1;
1149:Drivers/lvgl/src/core/lv_indev.c **** 
1150:Drivers/lvgl/src/core/lv_indev.c ****         if(LV_ABS(proc->types.pointer.gesture_sum.x) > LV_ABS(proc->types.pointer.gesture_sum.y)) {
1151:Drivers/lvgl/src/core/lv_indev.c ****             if(proc->types.pointer.gesture_sum.x > 0)
1152:Drivers/lvgl/src/core/lv_indev.c ****                 proc->types.pointer.gesture_dir = LV_DIR_RIGHT;
1153:Drivers/lvgl/src/core/lv_indev.c ****             else
1154:Drivers/lvgl/src/core/lv_indev.c ****                 proc->types.pointer.gesture_dir = LV_DIR_LEFT;
1155:Drivers/lvgl/src/core/lv_indev.c ****         }
1156:Drivers/lvgl/src/core/lv_indev.c ****         else {
1157:Drivers/lvgl/src/core/lv_indev.c ****             if(proc->types.pointer.gesture_sum.y > 0)
1158:Drivers/lvgl/src/core/lv_indev.c ****                 proc->types.pointer.gesture_dir = LV_DIR_BOTTOM;
1159:Drivers/lvgl/src/core/lv_indev.c ****             else
1160:Drivers/lvgl/src/core/lv_indev.c ****                 proc->types.pointer.gesture_dir = LV_DIR_TOP;
1161:Drivers/lvgl/src/core/lv_indev.c ****         }
1162:Drivers/lvgl/src/core/lv_indev.c **** 
1163:Drivers/lvgl/src/core/lv_indev.c ****         lv_event_send(gesture_obj, LV_EVENT_GESTURE, indev_act);
1164:Drivers/lvgl/src/core/lv_indev.c ****         if(indev_reset_check(proc)) return;
1165:Drivers/lvgl/src/core/lv_indev.c ****     }
1166:Drivers/lvgl/src/core/lv_indev.c **** }
1167:Drivers/lvgl/src/core/lv_indev.c **** 
1168:Drivers/lvgl/src/core/lv_indev.c **** /**
1169:Drivers/lvgl/src/core/lv_indev.c ****  * Checks if the reset_query flag has been set. If so, perform necessary global indev cleanup actio
ARM GAS  /var/folders/lp/x54gwt890xv47sdkqj1k04q40000gn/T//ccfgQDQQ.s 			page 23


1170:Drivers/lvgl/src/core/lv_indev.c ****  * @param proc pointer to an input device 'proc'
1171:Drivers/lvgl/src/core/lv_indev.c ****  * @return true if indev query should be immediately truncated.
1172:Drivers/lvgl/src/core/lv_indev.c ****  */
1173:Drivers/lvgl/src/core/lv_indev.c **** static bool indev_reset_check(_lv_indev_proc_t * proc)
  83              		.loc 1 1173 13 view .LVU20
  84              	.LBB132:
1174:Drivers/lvgl/src/core/lv_indev.c **** {
1175:Drivers/lvgl/src/core/lv_indev.c ****     if(proc->reset_query) {
  85              		.loc 1 1175 5 view .LVU21
  86              		.loc 1 1175 8 is_stmt 0 view .LVU22
  87 0028 6378     		ldrb	r3, [r4, #1]	@ zero_extendqisi2
  88              		.loc 1 1175 7 view .LVU23
  89 002a 9907     		lsls	r1, r3, #30
1176:Drivers/lvgl/src/core/lv_indev.c ****         indev_obj_act = NULL;
  90              		.loc 1 1176 9 is_stmt 1 view .LVU24
1177:Drivers/lvgl/src/core/lv_indev.c ****     }
1178:Drivers/lvgl/src/core/lv_indev.c **** 
1179:Drivers/lvgl/src/core/lv_indev.c ****     return proc->reset_query ? true : false;
  91              		.loc 1 1179 5 view .LVU25
  92              	.LVL4:
1176:Drivers/lvgl/src/core/lv_indev.c ****         indev_obj_act = NULL;
  93              		.loc 1 1176 23 is_stmt 0 view .LVU26
  94 002c 48BF     		it	mi
  95 002e 3D60     		strmi	r5, [r7]
  96              	.LBE132:
  97              	.LBE131:
 971:Drivers/lvgl/src/core/lv_indev.c **** 
  98              		.loc 1 971 11 discriminator 1 view .LVU27
  99 0030 9A07     		lsls	r2, r3, #30
 100 0032 C3F34005 		ubfx	r5, r3, #1, #1
 101 0036 63D4     		bmi	.L1
 974:Drivers/lvgl/src/core/lv_indev.c ****             if(proc->long_pr_sent == 0) {
 102              		.loc 1 974 9 is_stmt 1 view .LVU28
 974:Drivers/lvgl/src/core/lv_indev.c ****             if(proc->long_pr_sent == 0) {
 103              		.loc 1 974 11 is_stmt 0 view .LVU29
 104 0038 B9F1000F 		cmp	r9, #0
 105 003c 67D0     		beq	.L9
 984:Drivers/lvgl/src/core/lv_indev.c ****         proc->pr_timestamp          = 0;
 106              		.loc 1 984 9 is_stmt 1 view .LVU30
 986:Drivers/lvgl/src/core/lv_indev.c **** 
 107              		.loc 1 986 37 is_stmt 0 view .LVU31
 108 003e C4E91155 		strd	r5, r5, [r4, #68]
 984:Drivers/lvgl/src/core/lv_indev.c ****         proc->pr_timestamp          = 0;
 109              		.loc 1 984 37 view .LVU32
 110 0042 6562     		str	r5, [r4, #36]
 985:Drivers/lvgl/src/core/lv_indev.c ****         proc->longpr_rep_timestamp  = 0;
 111              		.loc 1 985 9 is_stmt 1 view .LVU33
 990:Drivers/lvgl/src/core/lv_indev.c ****             int16_t angle = 0;
 112              		.loc 1 990 9 view .LVU34
 113              	.LBB133:
 991:Drivers/lvgl/src/core/lv_indev.c ****             int16_t zoom = 256;
 114              		.loc 1 991 13 view .LVU35
 115              	.LVL5:
 992:Drivers/lvgl/src/core/lv_indev.c ****             lv_point_t pivot = { 0, 0 };
 116              		.loc 1 992 13 view .LVU36
 993:Drivers/lvgl/src/core/lv_indev.c ****             lv_obj_t * parent = scroll_obj;
 117              		.loc 1 993 13 view .LVU37
ARM GAS  /var/folders/lp/x54gwt890xv47sdkqj1k04q40000gn/T//ccfgQDQQ.s 			page 24


 993:Drivers/lvgl/src/core/lv_indev.c ****             lv_obj_t * parent = scroll_obj;
 118              		.loc 1 993 24 is_stmt 0 view .LVU38
 119 0044 0195     		str	r5, [sp, #4]
 994:Drivers/lvgl/src/core/lv_indev.c ****             while(parent) {
 120              		.loc 1 994 13 is_stmt 1 view .LVU39
 121              	.LVL6:
 995:Drivers/lvgl/src/core/lv_indev.c ****                 angle += lv_obj_get_style_transform_angle(parent, 0);
 122              		.loc 1 995 13 view .LVU40
 995:Drivers/lvgl/src/core/lv_indev.c ****                 angle += lv_obj_get_style_transform_angle(parent, 0);
 123              		.loc 1 995 19 view .LVU41
 992:Drivers/lvgl/src/core/lv_indev.c ****             lv_point_t pivot = { 0, 0 };
 124              		.loc 1 992 21 is_stmt 0 view .LVU42
 125 0046 4FF48078 		mov	r8, #256
 126              	.LVL7:
 127              	.L10:
 996:Drivers/lvgl/src/core/lv_indev.c ****                 zoom *= (lv_obj_get_style_transform_zoom(parent, 0) / 256);
 128              		.loc 1 996 17 is_stmt 1 view .LVU43
 129              	.LBB134:
 130              	.LBI134:
 131              		.file 2 "Drivers/lvgl/src/core/lv_obj_style_gen.h"
   1:Drivers/lvgl/src/core/lv_obj_style_gen.h **** static inline lv_coord_t lv_obj_get_style_width(const struct _lv_obj_t * obj, uint32_t part)
   2:Drivers/lvgl/src/core/lv_obj_style_gen.h **** {
   3:Drivers/lvgl/src/core/lv_obj_style_gen.h ****     lv_style_value_t v = lv_obj_get_style_prop(obj, part, LV_STYLE_WIDTH);
   4:Drivers/lvgl/src/core/lv_obj_style_gen.h ****     return (lv_coord_t)v.num;
   5:Drivers/lvgl/src/core/lv_obj_style_gen.h **** }
   6:Drivers/lvgl/src/core/lv_obj_style_gen.h **** 
   7:Drivers/lvgl/src/core/lv_obj_style_gen.h **** static inline lv_coord_t lv_obj_get_style_min_width(const struct _lv_obj_t * obj, uint32_t part)
   8:Drivers/lvgl/src/core/lv_obj_style_gen.h **** {
   9:Drivers/lvgl/src/core/lv_obj_style_gen.h ****     lv_style_value_t v = lv_obj_get_style_prop(obj, part, LV_STYLE_MIN_WIDTH);
  10:Drivers/lvgl/src/core/lv_obj_style_gen.h ****     return (lv_coord_t)v.num;
  11:Drivers/lvgl/src/core/lv_obj_style_gen.h **** }
  12:Drivers/lvgl/src/core/lv_obj_style_gen.h **** 
  13:Drivers/lvgl/src/core/lv_obj_style_gen.h **** static inline lv_coord_t lv_obj_get_style_max_width(const struct _lv_obj_t * obj, uint32_t part)
  14:Drivers/lvgl/src/core/lv_obj_style_gen.h **** {
  15:Drivers/lvgl/src/core/lv_obj_style_gen.h ****     lv_style_value_t v = lv_obj_get_style_prop(obj, part, LV_STYLE_MAX_WIDTH);
  16:Drivers/lvgl/src/core/lv_obj_style_gen.h ****     return (lv_coord_t)v.num;
  17:Drivers/lvgl/src/core/lv_obj_style_gen.h **** }
  18:Drivers/lvgl/src/core/lv_obj_style_gen.h **** 
  19:Drivers/lvgl/src/core/lv_obj_style_gen.h **** static inline lv_coord_t lv_obj_get_style_height(const struct _lv_obj_t * obj, uint32_t part)
  20:Drivers/lvgl/src/core/lv_obj_style_gen.h **** {
  21:Drivers/lvgl/src/core/lv_obj_style_gen.h ****     lv_style_value_t v = lv_obj_get_style_prop(obj, part, LV_STYLE_HEIGHT);
  22:Drivers/lvgl/src/core/lv_obj_style_gen.h ****     return (lv_coord_t)v.num;
  23:Drivers/lvgl/src/core/lv_obj_style_gen.h **** }
  24:Drivers/lvgl/src/core/lv_obj_style_gen.h **** 
  25:Drivers/lvgl/src/core/lv_obj_style_gen.h **** static inline lv_coord_t lv_obj_get_style_min_height(const struct _lv_obj_t * obj, uint32_t part)
  26:Drivers/lvgl/src/core/lv_obj_style_gen.h **** {
  27:Drivers/lvgl/src/core/lv_obj_style_gen.h ****     lv_style_value_t v = lv_obj_get_style_prop(obj, part, LV_STYLE_MIN_HEIGHT);
  28:Drivers/lvgl/src/core/lv_obj_style_gen.h ****     return (lv_coord_t)v.num;
  29:Drivers/lvgl/src/core/lv_obj_style_gen.h **** }
  30:Drivers/lvgl/src/core/lv_obj_style_gen.h **** 
  31:Drivers/lvgl/src/core/lv_obj_style_gen.h **** static inline lv_coord_t lv_obj_get_style_max_height(const struct _lv_obj_t * obj, uint32_t part)
  32:Drivers/lvgl/src/core/lv_obj_style_gen.h **** {
  33:Drivers/lvgl/src/core/lv_obj_style_gen.h ****     lv_style_value_t v = lv_obj_get_style_prop(obj, part, LV_STYLE_MAX_HEIGHT);
  34:Drivers/lvgl/src/core/lv_obj_style_gen.h ****     return (lv_coord_t)v.num;
  35:Drivers/lvgl/src/core/lv_obj_style_gen.h **** }
  36:Drivers/lvgl/src/core/lv_obj_style_gen.h **** 
  37:Drivers/lvgl/src/core/lv_obj_style_gen.h **** static inline lv_coord_t lv_obj_get_style_x(const struct _lv_obj_t * obj, uint32_t part)
ARM GAS  /var/folders/lp/x54gwt890xv47sdkqj1k04q40000gn/T//ccfgQDQQ.s 			page 25


  38:Drivers/lvgl/src/core/lv_obj_style_gen.h **** {
  39:Drivers/lvgl/src/core/lv_obj_style_gen.h ****     lv_style_value_t v = lv_obj_get_style_prop(obj, part, LV_STYLE_X);
  40:Drivers/lvgl/src/core/lv_obj_style_gen.h ****     return (lv_coord_t)v.num;
  41:Drivers/lvgl/src/core/lv_obj_style_gen.h **** }
  42:Drivers/lvgl/src/core/lv_obj_style_gen.h **** 
  43:Drivers/lvgl/src/core/lv_obj_style_gen.h **** static inline lv_coord_t lv_obj_get_style_y(const struct _lv_obj_t * obj, uint32_t part)
  44:Drivers/lvgl/src/core/lv_obj_style_gen.h **** {
  45:Drivers/lvgl/src/core/lv_obj_style_gen.h ****     lv_style_value_t v = lv_obj_get_style_prop(obj, part, LV_STYLE_Y);
  46:Drivers/lvgl/src/core/lv_obj_style_gen.h ****     return (lv_coord_t)v.num;
  47:Drivers/lvgl/src/core/lv_obj_style_gen.h **** }
  48:Drivers/lvgl/src/core/lv_obj_style_gen.h **** 
  49:Drivers/lvgl/src/core/lv_obj_style_gen.h **** static inline lv_align_t lv_obj_get_style_align(const struct _lv_obj_t * obj, uint32_t part)
  50:Drivers/lvgl/src/core/lv_obj_style_gen.h **** {
  51:Drivers/lvgl/src/core/lv_obj_style_gen.h ****     lv_style_value_t v = lv_obj_get_style_prop(obj, part, LV_STYLE_ALIGN);
  52:Drivers/lvgl/src/core/lv_obj_style_gen.h ****     return (lv_align_t)v.num;
  53:Drivers/lvgl/src/core/lv_obj_style_gen.h **** }
  54:Drivers/lvgl/src/core/lv_obj_style_gen.h **** 
  55:Drivers/lvgl/src/core/lv_obj_style_gen.h **** static inline lv_coord_t lv_obj_get_style_transform_width(const struct _lv_obj_t * obj, uint32_t pa
  56:Drivers/lvgl/src/core/lv_obj_style_gen.h **** {
  57:Drivers/lvgl/src/core/lv_obj_style_gen.h ****     lv_style_value_t v = lv_obj_get_style_prop(obj, part, LV_STYLE_TRANSFORM_WIDTH);
  58:Drivers/lvgl/src/core/lv_obj_style_gen.h ****     return (lv_coord_t)v.num;
  59:Drivers/lvgl/src/core/lv_obj_style_gen.h **** }
  60:Drivers/lvgl/src/core/lv_obj_style_gen.h **** 
  61:Drivers/lvgl/src/core/lv_obj_style_gen.h **** static inline lv_coord_t lv_obj_get_style_transform_height(const struct _lv_obj_t * obj, uint32_t p
  62:Drivers/lvgl/src/core/lv_obj_style_gen.h **** {
  63:Drivers/lvgl/src/core/lv_obj_style_gen.h ****     lv_style_value_t v = lv_obj_get_style_prop(obj, part, LV_STYLE_TRANSFORM_HEIGHT);
  64:Drivers/lvgl/src/core/lv_obj_style_gen.h ****     return (lv_coord_t)v.num;
  65:Drivers/lvgl/src/core/lv_obj_style_gen.h **** }
  66:Drivers/lvgl/src/core/lv_obj_style_gen.h **** 
  67:Drivers/lvgl/src/core/lv_obj_style_gen.h **** static inline lv_coord_t lv_obj_get_style_translate_x(const struct _lv_obj_t * obj, uint32_t part)
  68:Drivers/lvgl/src/core/lv_obj_style_gen.h **** {
  69:Drivers/lvgl/src/core/lv_obj_style_gen.h ****     lv_style_value_t v = lv_obj_get_style_prop(obj, part, LV_STYLE_TRANSLATE_X);
  70:Drivers/lvgl/src/core/lv_obj_style_gen.h ****     return (lv_coord_t)v.num;
  71:Drivers/lvgl/src/core/lv_obj_style_gen.h **** }
  72:Drivers/lvgl/src/core/lv_obj_style_gen.h **** 
  73:Drivers/lvgl/src/core/lv_obj_style_gen.h **** static inline lv_coord_t lv_obj_get_style_translate_y(const struct _lv_obj_t * obj, uint32_t part)
  74:Drivers/lvgl/src/core/lv_obj_style_gen.h **** {
  75:Drivers/lvgl/src/core/lv_obj_style_gen.h ****     lv_style_value_t v = lv_obj_get_style_prop(obj, part, LV_STYLE_TRANSLATE_Y);
  76:Drivers/lvgl/src/core/lv_obj_style_gen.h ****     return (lv_coord_t)v.num;
  77:Drivers/lvgl/src/core/lv_obj_style_gen.h **** }
  78:Drivers/lvgl/src/core/lv_obj_style_gen.h **** 
  79:Drivers/lvgl/src/core/lv_obj_style_gen.h **** static inline lv_coord_t lv_obj_get_style_transform_zoom(const struct _lv_obj_t * obj, uint32_t par
  80:Drivers/lvgl/src/core/lv_obj_style_gen.h **** {
  81:Drivers/lvgl/src/core/lv_obj_style_gen.h ****     lv_style_value_t v = lv_obj_get_style_prop(obj, part, LV_STYLE_TRANSFORM_ZOOM);
  82:Drivers/lvgl/src/core/lv_obj_style_gen.h ****     return (lv_coord_t)v.num;
  83:Drivers/lvgl/src/core/lv_obj_style_gen.h **** }
  84:Drivers/lvgl/src/core/lv_obj_style_gen.h **** 
  85:Drivers/lvgl/src/core/lv_obj_style_gen.h **** static inline lv_coord_t lv_obj_get_style_transform_angle(const struct _lv_obj_t * obj, uint32_t pa
 132              		.loc 2 85 26 view .LVU44
 133              	.LBB135:
  86:Drivers/lvgl/src/core/lv_obj_style_gen.h **** {
  87:Drivers/lvgl/src/core/lv_obj_style_gen.h ****     lv_style_value_t v = lv_obj_get_style_prop(obj, part, LV_STYLE_TRANSFORM_ANGLE);
 134              		.loc 2 87 5 view .LVU45
 135              		.loc 2 87 26 is_stmt 0 view .LVU46
 136 004a 6E22     		movs	r2, #110
 137 004c 0021     		movs	r1, #0
 138 004e 4846     		mov	r0, r9
ARM GAS  /var/folders/lp/x54gwt890xv47sdkqj1k04q40000gn/T//ccfgQDQQ.s 			page 26


 139 0050 FFF7FEFF 		bl	lv_obj_get_style_prop
 140              	.LVL8:
  88:Drivers/lvgl/src/core/lv_obj_style_gen.h ****     return (lv_coord_t)v.num;
 141              		.loc 2 88 5 is_stmt 1 view .LVU47
 142              		.loc 2 88 5 is_stmt 0 view .LVU48
 143              	.LBE135:
 144              	.LBE134:
 145              	.LBB136:
 146              	.LBB137:
  81:Drivers/lvgl/src/core/lv_obj_style_gen.h ****     return (lv_coord_t)v.num;
 147              		.loc 2 81 26 view .LVU49
 148 0054 6D22     		movs	r2, #109
 149              	.LBE137:
 150              	.LBE136:
 996:Drivers/lvgl/src/core/lv_indev.c ****                 zoom *= (lv_obj_get_style_transform_zoom(parent, 0) / 256);
 151              		.loc 1 996 23 discriminator 1 view .LVU50
 152 0056 4319     		adds	r3, r0, r5
 153              	.LBB140:
 154              	.LBB138:
  81:Drivers/lvgl/src/core/lv_obj_style_gen.h ****     return (lv_coord_t)v.num;
 155              		.loc 2 81 26 view .LVU51
 156 0058 0021     		movs	r1, #0
 157 005a 4846     		mov	r0, r9
 158              	.LBE138:
 159              	.LBE140:
 996:Drivers/lvgl/src/core/lv_indev.c ****                 zoom *= (lv_obj_get_style_transform_zoom(parent, 0) / 256);
 160              		.loc 1 996 23 discriminator 1 view .LVU52
 161 005c 9EB2     		uxth	r6, r3
 162 005e 1DB2     		sxth	r5, r3
 163              	.LVL9:
 997:Drivers/lvgl/src/core/lv_indev.c ****                 parent = lv_obj_get_parent(parent);
 164              		.loc 1 997 17 is_stmt 1 view .LVU53
 165              	.LBB141:
 166              	.LBI136:
  79:Drivers/lvgl/src/core/lv_obj_style_gen.h **** {
 167              		.loc 2 79 26 view .LVU54
 168              	.LBB139:
  81:Drivers/lvgl/src/core/lv_obj_style_gen.h ****     return (lv_coord_t)v.num;
 169              		.loc 2 81 5 view .LVU55
  81:Drivers/lvgl/src/core/lv_obj_style_gen.h ****     return (lv_coord_t)v.num;
 170              		.loc 2 81 26 is_stmt 0 view .LVU56
 171 0060 FFF7FEFF 		bl	lv_obj_get_style_prop
 172              	.LVL10:
  82:Drivers/lvgl/src/core/lv_obj_style_gen.h **** }
 173              		.loc 2 82 5 is_stmt 1 view .LVU57
  82:Drivers/lvgl/src/core/lv_obj_style_gen.h **** }
 174              		.loc 2 82 12 is_stmt 0 view .LVU58
 175 0064 03B2     		sxth	r3, r0
 176              	.LVL11:
  82:Drivers/lvgl/src/core/lv_obj_style_gen.h **** }
 177              		.loc 2 82 12 view .LVU59
 178              	.LBE139:
 179              	.LBE141:
 997:Drivers/lvgl/src/core/lv_indev.c ****                 parent = lv_obj_get_parent(parent);
 180              		.loc 1 997 69 discriminator 1 view .LVU60
 181 0066 002B     		cmp	r3, #0
 182 0068 B8BF     		it	lt
ARM GAS  /var/folders/lp/x54gwt890xv47sdkqj1k04q40000gn/T//ccfgQDQQ.s 			page 27


 183 006a FF33     		addlt	r3, r3, #255
 184 006c 1B12     		asrs	r3, r3, #8
 998:Drivers/lvgl/src/core/lv_indev.c ****             }
 185              		.loc 1 998 26 view .LVU61
 186 006e 4846     		mov	r0, r9
 997:Drivers/lvgl/src/core/lv_indev.c ****                 parent = lv_obj_get_parent(parent);
 187              		.loc 1 997 22 discriminator 1 view .LVU62
 188 0070 13FB08F3 		smulbb	r3, r3, r8
 189 0074 0FFA83F8 		sxth	r8, r3
 190              	.LVL12:
 998:Drivers/lvgl/src/core/lv_indev.c ****             }
 191              		.loc 1 998 17 is_stmt 1 view .LVU63
 998:Drivers/lvgl/src/core/lv_indev.c ****             }
 192              		.loc 1 998 26 is_stmt 0 view .LVU64
 193 0078 FFF7FEFF 		bl	lv_obj_get_parent
 194              	.LVL13:
 995:Drivers/lvgl/src/core/lv_indev.c ****                 angle += lv_obj_get_style_transform_angle(parent, 0);
 195              		.loc 1 995 19 is_stmt 1 view .LVU65
 196 007c 8146     		mov	r9, r0
 197 007e 0028     		cmp	r0, #0
 198 0080 E3D1     		bne	.L10
1001:Drivers/lvgl/src/core/lv_indev.c ****                 angle = -angle;
 199              		.loc 1 1001 13 view .LVU66
1001:Drivers/lvgl/src/core/lv_indev.c ****                 angle = -angle;
 200              		.loc 1 1001 15 is_stmt 0 view .LVU67
 201 0082 15B9     		cbnz	r5, .L17
1001:Drivers/lvgl/src/core/lv_indev.c ****                 angle = -angle;
 202              		.loc 1 1001 27 discriminator 1 view .LVU68
 203 0084 B8F5807F 		cmp	r8, #256
 204 0088 14D0     		beq	.L19
 205              	.L17:
1002:Drivers/lvgl/src/core/lv_indev.c ****                 zoom = (256 * 256) / zoom;
 206              		.loc 1 1002 17 is_stmt 1 view .LVU69
 207              	.LVL14:
1003:Drivers/lvgl/src/core/lv_indev.c ****                 lv_point_transform(&proc->types.pointer.scroll_throw_vect, angle, zoom, &pivot);
 208              		.loc 1 1003 17 view .LVU70
1002:Drivers/lvgl/src/core/lv_indev.c ****                 zoom = (256 * 256) / zoom;
 209              		.loc 1 1002 23 is_stmt 0 view .LVU71
 210 008a 7642     		rsbs	r6, r6, #0
 211              	.LVL15:
1004:Drivers/lvgl/src/core/lv_indev.c ****                 lv_point_transform(&proc->types.pointer.scroll_throw_vect_ori, angle, zoom, &pivot)
 212              		.loc 1 1004 17 view .LVU72
 213 008c 36B2     		sxth	r6, r6
1003:Drivers/lvgl/src/core/lv_indev.c ****                 lv_point_transform(&proc->types.pointer.scroll_throw_vect, angle, zoom, &pivot);
 214              		.loc 1 1003 36 view .LVU73
 215 008e 4FF48035 		mov	r5, #65536
 216              	.LVL16:
1003:Drivers/lvgl/src/core/lv_indev.c ****                 lv_point_transform(&proc->types.pointer.scroll_throw_vect, angle, zoom, &pivot);
 217              		.loc 1 1003 36 view .LVU74
 218 0092 95FBF8F5 		sdiv	r5, r5, r8
 219              	.LVL17:
1004:Drivers/lvgl/src/core/lv_indev.c ****                 lv_point_transform(&proc->types.pointer.scroll_throw_vect_ori, angle, zoom, &pivot)
 220              		.loc 1 1004 17 is_stmt 1 view .LVU75
 221 0096 2DB2     		sxth	r5, r5
1004:Drivers/lvgl/src/core/lv_indev.c ****                 lv_point_transform(&proc->types.pointer.scroll_throw_vect_ori, angle, zoom, &pivot)
 222              		.loc 1 1004 17 is_stmt 0 view .LVU76
 223 0098 01AB     		add	r3, sp, #4
ARM GAS  /var/folders/lp/x54gwt890xv47sdkqj1k04q40000gn/T//ccfgQDQQ.s 			page 28


 224 009a 2A46     		mov	r2, r5
 225 009c 3146     		mov	r1, r6
 226 009e 04F11C00 		add	r0, r4, #28
 227              	.LVL18:
1004:Drivers/lvgl/src/core/lv_indev.c ****                 lv_point_transform(&proc->types.pointer.scroll_throw_vect_ori, angle, zoom, &pivot)
 228              		.loc 1 1004 17 view .LVU77
 229 00a2 FFF7FEFF 		bl	lv_point_transform
 230              	.LVL19:
1005:Drivers/lvgl/src/core/lv_indev.c ****             }
 231              		.loc 1 1005 17 is_stmt 1 view .LVU78
 232 00a6 01AB     		add	r3, sp, #4
 233 00a8 2A46     		mov	r2, r5
 234 00aa 3146     		mov	r1, r6
 235 00ac 04F12000 		add	r0, r4, #32
 236 00b0 FFF7FEFF 		bl	lv_point_transform
 237              	.LVL20:
 238              	.LBE133:
1013:Drivers/lvgl/src/core/lv_indev.c ****         _lv_indev_scroll_throw_handler(proc);
 239              		.loc 1 1013 5 view .LVU79
 240              	.L19:
1014:Drivers/lvgl/src/core/lv_indev.c ****         if(indev_reset_check(proc)) return;
 241              		.loc 1 1014 9 view .LVU80
 242 00b4 2046     		mov	r0, r4
 243 00b6 FFF7FEFF 		bl	_lv_indev_scroll_throw_handler
 244              	.LVL21:
1015:Drivers/lvgl/src/core/lv_indev.c ****     }
 245              		.loc 1 1015 9 view .LVU81
 246              	.LBB142:
 247              	.LBI142:
1173:Drivers/lvgl/src/core/lv_indev.c **** {
 248              		.loc 1 1173 13 view .LVU82
 249              	.LBB143:
1175:Drivers/lvgl/src/core/lv_indev.c ****         indev_obj_act = NULL;
 250              		.loc 1 1175 5 view .LVU83
1175:Drivers/lvgl/src/core/lv_indev.c ****         indev_obj_act = NULL;
 251              		.loc 1 1175 8 is_stmt 0 view .LVU84
 252 00ba 6378     		ldrb	r3, [r4, #1]	@ zero_extendqisi2
1175:Drivers/lvgl/src/core/lv_indev.c ****         indev_obj_act = NULL;
 253              		.loc 1 1175 7 view .LVU85
 254 00bc 9B07     		lsls	r3, r3, #30
1176:Drivers/lvgl/src/core/lv_indev.c ****     }
 255              		.loc 1 1176 9 is_stmt 1 view .LVU86
1176:Drivers/lvgl/src/core/lv_indev.c ****     }
 256              		.loc 1 1176 23 is_stmt 0 view .LVU87
 257 00be 44BF     		itt	mi
 258 00c0 0023     		movmi	r3, #0
 259 00c2 3B60     		strmi	r3, [r7]
 260              	.LVL22:
1176:Drivers/lvgl/src/core/lv_indev.c ****     }
 261              		.loc 1 1176 23 view .LVU88
 262              	.LBE143:
 263              	.LBE142:
1017:Drivers/lvgl/src/core/lv_indev.c **** 
 264              		.loc 1 1017 1 view .LVU89
 265 00c4 03B0     		add	sp, sp, #12
 266              		.cfi_remember_state
 267              		.cfi_def_cfa_offset 28
ARM GAS  /var/folders/lp/x54gwt890xv47sdkqj1k04q40000gn/T//ccfgQDQQ.s 			page 29


 268              		@ sp needed
 269 00c6 BDE8F083 		pop	{r4, r5, r6, r7, r8, r9, pc}
 270              	.LVL23:
 271              	.L44:
 272              		.cfi_restore_state
 953:Drivers/lvgl/src/core/lv_indev.c ****         if(indev_reset_check(proc)) return;
 273              		.loc 1 953 9 is_stmt 1 view .LVU90
 274 00ca 224B     		ldr	r3, .L46+4
 275 00cc 0321     		movs	r1, #3
 276 00ce 1A68     		ldr	r2, [r3]
 277 00d0 FFF7FEFF 		bl	lv_event_send
 278              	.LVL24:
 954:Drivers/lvgl/src/core/lv_indev.c **** 
 279              		.loc 1 954 9 view .LVU91
 280              	.LBB144:
 281              	.LBI144:
1173:Drivers/lvgl/src/core/lv_indev.c **** {
 282              		.loc 1 1173 13 view .LVU92
 283              	.LBB145:
1175:Drivers/lvgl/src/core/lv_indev.c ****         indev_obj_act = NULL;
 284              		.loc 1 1175 5 view .LVU93
1175:Drivers/lvgl/src/core/lv_indev.c ****         indev_obj_act = NULL;
 285              		.loc 1 1175 8 is_stmt 0 view .LVU94
 286 00d4 6278     		ldrb	r2, [r4, #1]	@ zero_extendqisi2
1175:Drivers/lvgl/src/core/lv_indev.c ****         indev_obj_act = NULL;
 287              		.loc 1 1175 7 view .LVU95
 288 00d6 9507     		lsls	r5, r2, #30
 289 00d8 15D4     		bmi	.L45
 290              	.L3:
 291              		.loc 1 1179 5 is_stmt 1 view .LVU96
 292              	.LVL25:
 293              		.loc 1 1179 5 is_stmt 0 view .LVU97
 294              	.LBE145:
 295              	.LBE144:
 954:Drivers/lvgl/src/core/lv_indev.c **** 
 296              		.loc 1 954 11 discriminator 1 view .LVU98
 297 00da 9007     		lsls	r0, r2, #30
 298 00dc C2F34003 		ubfx	r3, r2, #1, #1
 299 00e0 0ED4     		bmi	.L1
 956:Drivers/lvgl/src/core/lv_indev.c ****         proc->types.pointer.last_obj = NULL;
 300              		.loc 1 956 9 is_stmt 1 view .LVU99
 960:Drivers/lvgl/src/core/lv_indev.c ****     }
 301              		.loc 1 960 38 is_stmt 0 view .LVU100
 302 00e2 6278     		ldrb	r2, [r4, #1]	@ zero_extendqisi2
 962:Drivers/lvgl/src/core/lv_indev.c ****     lv_obj_t * scroll_obj = proc->types.pointer.scroll_obj;
 303              		.loc 1 962 19 view .LVU101
 304 00e4 1A4F     		ldr	r7, .L46
 963:Drivers/lvgl/src/core/lv_indev.c **** 
 305              		.loc 1 963 16 view .LVU102
 306 00e6 D4F82C90 		ldr	r9, [r4, #44]
 962:Drivers/lvgl/src/core/lv_indev.c ****     lv_obj_t * scroll_obj = proc->types.pointer.scroll_obj;
 307              		.loc 1 962 19 view .LVU103
 308 00ea 3B60     		str	r3, [r7]
 957:Drivers/lvgl/src/core/lv_indev.c ****         proc->pr_timestamp           = 0;
 309              		.loc 1 957 38 view .LVU104
 310 00ec C4E90933 		strd	r3, r3, [r4, #36]
 958:Drivers/lvgl/src/core/lv_indev.c ****         proc->longpr_rep_timestamp   = 0;
ARM GAS  /var/folders/lp/x54gwt890xv47sdkqj1k04q40000gn/T//ccfgQDQQ.s 			page 30


 311              		.loc 1 958 9 is_stmt 1 view .LVU105
 959:Drivers/lvgl/src/core/lv_indev.c ****         proc->wait_until_release     = 0;
 312              		.loc 1 959 38 is_stmt 0 view .LVU106
 313 00f0 C4E91133 		strd	r3, r3, [r4, #68]
 960:Drivers/lvgl/src/core/lv_indev.c ****     }
 314              		.loc 1 960 9 is_stmt 1 view .LVU107
 960:Drivers/lvgl/src/core/lv_indev.c ****     }
 315              		.loc 1 960 38 is_stmt 0 view .LVU108
 316 00f4 63F3C302 		bfi	r2, r3, #3, #1
 317 00f8 6270     		strb	r2, [r4, #1]
 962:Drivers/lvgl/src/core/lv_indev.c ****     lv_obj_t * scroll_obj = proc->types.pointer.scroll_obj;
 318              		.loc 1 962 5 is_stmt 1 view .LVU109
 963:Drivers/lvgl/src/core/lv_indev.c **** 
 319              		.loc 1 963 5 view .LVU110
 320              	.LVL26:
 966:Drivers/lvgl/src/core/lv_indev.c ****         LV_LOG_INFO("released");
 321              		.loc 1 966 5 view .LVU111
 322              	.L6:
1013:Drivers/lvgl/src/core/lv_indev.c ****         _lv_indev_scroll_throw_handler(proc);
 323              		.loc 1 1013 5 view .LVU112
1013:Drivers/lvgl/src/core/lv_indev.c ****         _lv_indev_scroll_throw_handler(proc);
 324              		.loc 1 1013 7 is_stmt 0 view .LVU113
 325 00fa B9F1000F 		cmp	r9, #0
 326 00fe D9D1     		bne	.L19
 327              	.LVL27:
 328              	.L1:
1017:Drivers/lvgl/src/core/lv_indev.c **** 
 329              		.loc 1 1017 1 view .LVU114
 330 0100 03B0     		add	sp, sp, #12
 331              		.cfi_remember_state
 332              		.cfi_def_cfa_offset 28
 333              		@ sp needed
 334 0102 BDE8F083 		pop	{r4, r5, r6, r7, r8, r9, pc}
 335              	.LVL28:
 336              	.L45:
 337              		.cfi_restore_state
 338              	.LBB147:
 339              	.LBB146:
1176:Drivers/lvgl/src/core/lv_indev.c ****     }
 340              		.loc 1 1176 9 is_stmt 1 view .LVU115
1176:Drivers/lvgl/src/core/lv_indev.c ****     }
 341              		.loc 1 1176 23 is_stmt 0 view .LVU116
 342 0106 124B     		ldr	r3, .L46
 343 0108 0021     		movs	r1, #0
 344 010a 1960     		str	r1, [r3]
 345 010c E5E7     		b	.L3
 346              	.LVL29:
 347              	.L9:
1176:Drivers/lvgl/src/core/lv_indev.c ****     }
 348              		.loc 1 1176 23 view .LVU117
 349              	.LBE146:
 350              	.LBE147:
 975:Drivers/lvgl/src/core/lv_indev.c ****                 lv_event_send(indev_obj_act, LV_EVENT_SHORT_CLICKED, indev_act);
 351              		.loc 1 975 13 is_stmt 1 view .LVU118
 975:Drivers/lvgl/src/core/lv_indev.c ****                 lv_event_send(indev_obj_act, LV_EVENT_SHORT_CLICKED, indev_act);
 352              		.loc 1 975 15 is_stmt 0 view .LVU119
 353 010e DD07     		lsls	r5, r3, #31
ARM GAS  /var/folders/lp/x54gwt890xv47sdkqj1k04q40000gn/T//ccfgQDQQ.s 			page 31


 976:Drivers/lvgl/src/core/lv_indev.c ****                 if(indev_reset_check(proc)) return;
 354              		.loc 1 976 17 view .LVU120
 355 0110 3868     		ldr	r0, [r7]
 356 0112 3268     		ldr	r2, [r6]
 975:Drivers/lvgl/src/core/lv_indev.c ****                 lv_event_send(indev_obj_act, LV_EVENT_SHORT_CLICKED, indev_act);
 357              		.loc 1 975 15 view .LVU121
 358 0114 09D4     		bmi	.L15
 976:Drivers/lvgl/src/core/lv_indev.c ****                 if(indev_reset_check(proc)) return;
 359              		.loc 1 976 17 is_stmt 1 view .LVU122
 360 0116 0421     		movs	r1, #4
 361 0118 FFF7FEFF 		bl	lv_event_send
 362              	.LVL30:
 977:Drivers/lvgl/src/core/lv_indev.c ****             }
 363              		.loc 1 977 17 view .LVU123
 364              	.LBB148:
 365              	.LBI148:
1173:Drivers/lvgl/src/core/lv_indev.c **** {
 366              		.loc 1 1173 13 view .LVU124
 367              	.LBB149:
1175:Drivers/lvgl/src/core/lv_indev.c ****         indev_obj_act = NULL;
 368              		.loc 1 1175 5 view .LVU125
1175:Drivers/lvgl/src/core/lv_indev.c ****         indev_obj_act = NULL;
 369              		.loc 1 1175 8 is_stmt 0 view .LVU126
 370 011c 6378     		ldrb	r3, [r4, #1]	@ zero_extendqisi2
1175:Drivers/lvgl/src/core/lv_indev.c ****         indev_obj_act = NULL;
 371              		.loc 1 1175 7 view .LVU127
 372 011e 13F0020F 		tst	r3, #2
 373 0122 02D0     		beq	.L15
1176:Drivers/lvgl/src/core/lv_indev.c ****     }
 374              		.loc 1 1176 9 is_stmt 1 view .LVU128
1176:Drivers/lvgl/src/core/lv_indev.c ****     }
 375              		.loc 1 1176 23 is_stmt 0 view .LVU129
 376 0124 C7F80090 		str	r9, [r7]
 377              		.loc 1 1179 5 is_stmt 1 view .LVU130
 378              	.LVL31:
 379              		.loc 1 1179 5 is_stmt 0 view .LVU131
 380              	.LBE149:
 381              	.LBE148:
 977:Drivers/lvgl/src/core/lv_indev.c ****             }
 382              		.loc 1 977 19 discriminator 1 view .LVU132
 383 0128 EAD1     		bne	.L1
 384              	.L15:
 980:Drivers/lvgl/src/core/lv_indev.c ****             if(indev_reset_check(proc)) return;
 385              		.loc 1 980 13 is_stmt 1 view .LVU133
 386 012a 3268     		ldr	r2, [r6]
 387 012c 3868     		ldr	r0, [r7]
 388 012e 0721     		movs	r1, #7
 389 0130 FFF7FEFF 		bl	lv_event_send
 390              	.LVL32:
 981:Drivers/lvgl/src/core/lv_indev.c ****         }
 391              		.loc 1 981 13 view .LVU134
 392              	.LBB150:
 393              	.LBI150:
1173:Drivers/lvgl/src/core/lv_indev.c **** {
 394              		.loc 1 1173 13 view .LVU135
 395              	.LBB151:
1175:Drivers/lvgl/src/core/lv_indev.c ****         indev_obj_act = NULL;
ARM GAS  /var/folders/lp/x54gwt890xv47sdkqj1k04q40000gn/T//ccfgQDQQ.s 			page 32


 396              		.loc 1 1175 5 view .LVU136
1175:Drivers/lvgl/src/core/lv_indev.c ****         indev_obj_act = NULL;
 397              		.loc 1 1175 8 is_stmt 0 view .LVU137
 398 0134 6378     		ldrb	r3, [r4, #1]	@ zero_extendqisi2
1175:Drivers/lvgl/src/core/lv_indev.c ****         indev_obj_act = NULL;
 399              		.loc 1 1175 7 view .LVU138
 400 0136 9807     		lsls	r0, r3, #30
 401 0138 07D4     		bmi	.L12
 402              	.L13:
 403              		.loc 1 1179 5 is_stmt 1 view .LVU139
 404              	.LVL33:
 405              		.loc 1 1179 5 is_stmt 0 view .LVU140
 406              	.LBE151:
 407              	.LBE150:
 981:Drivers/lvgl/src/core/lv_indev.c ****         }
 408              		.loc 1 981 15 discriminator 1 view .LVU141
 409 013a 9907     		lsls	r1, r3, #30
 410 013c C3F34002 		ubfx	r2, r3, #1, #1
 411 0140 DED4     		bmi	.L1
 984:Drivers/lvgl/src/core/lv_indev.c ****         proc->pr_timestamp          = 0;
 412              		.loc 1 984 9 is_stmt 1 view .LVU142
 986:Drivers/lvgl/src/core/lv_indev.c **** 
 413              		.loc 1 986 37 is_stmt 0 view .LVU143
 414 0142 C4E91122 		strd	r2, r2, [r4, #68]
 984:Drivers/lvgl/src/core/lv_indev.c ****         proc->pr_timestamp          = 0;
 415              		.loc 1 984 37 view .LVU144
 416 0146 6262     		str	r2, [r4, #36]
 985:Drivers/lvgl/src/core/lv_indev.c ****         proc->longpr_rep_timestamp  = 0;
 417              		.loc 1 985 9 is_stmt 1 view .LVU145
 990:Drivers/lvgl/src/core/lv_indev.c ****             int16_t angle = 0;
 418              		.loc 1 990 9 view .LVU146
 419 0148 DAE7     		b	.L1
 420              	.LVL34:
 421              	.L12:
 422              	.LBB153:
 423              	.LBB152:
1176:Drivers/lvgl/src/core/lv_indev.c ****     }
 424              		.loc 1 1176 9 view .LVU147
1176:Drivers/lvgl/src/core/lv_indev.c ****     }
 425              		.loc 1 1176 23 is_stmt 0 view .LVU148
 426 014a 0022     		movs	r2, #0
 427 014c 3A60     		str	r2, [r7]
 428 014e F4E7     		b	.L13
 429              	.L47:
 430              		.align	2
 431              	.L46:
 432 0150 00000000 		.word	indev_obj_act
 433 0154 00000000 		.word	indev_act
 434              	.LBE152:
 435              	.LBE153:
 436              		.cfi_endproc
 437              	.LFE191:
 439              		.section	.text.lv_indev_enable,"ax",%progbits
 440              		.align	1
 441              		.p2align 2,,3
 442              		.global	lv_indev_enable
 443              		.syntax unified
ARM GAS  /var/folders/lp/x54gwt890xv47sdkqj1k04q40000gn/T//ccfgQDQQ.s 			page 33


 444              		.thumb
 445              		.thumb_func
 447              	lv_indev_enable:
 448              	.LVL35:
 449              	.LFB168:
 124:Drivers/lvgl/src/core/lv_indev.c ****     uint8_t enable = en ? 0 : 1;
 450              		.loc 1 124 1 is_stmt 1 view -0
 451              		.cfi_startproc
 452              		@ args = 0, pretend = 0, frame = 0
 453              		@ frame_needed = 0, uses_anonymous_args = 0
 125:Drivers/lvgl/src/core/lv_indev.c **** 
 454              		.loc 1 125 5 view .LVU150
 124:Drivers/lvgl/src/core/lv_indev.c ****     uint8_t enable = en ? 0 : 1;
 455              		.loc 1 124 1 is_stmt 0 view .LVU151
 456 0000 10B5     		push	{r4, lr}
 457              		.cfi_def_cfa_offset 8
 458              		.cfi_offset 4, -8
 459              		.cfi_offset 14, -4
 125:Drivers/lvgl/src/core/lv_indev.c **** 
 460              		.loc 1 125 29 view .LVU152
 461 0002 81F00104 		eor	r4, r1, #1
 462              	.LVL36:
 127:Drivers/lvgl/src/core/lv_indev.c ****         indev->proc.disabled = enable;
 463              		.loc 1 127 5 is_stmt 1 view .LVU153
 127:Drivers/lvgl/src/core/lv_indev.c ****         indev->proc.disabled = enable;
 464              		.loc 1 127 7 is_stmt 0 view .LVU154
 465 0006 40B1     		cbz	r0, .L58
 128:Drivers/lvgl/src/core/lv_indev.c ****     }
 466              		.loc 1 128 9 is_stmt 1 view .LVU155
 128:Drivers/lvgl/src/core/lv_indev.c ****     }
 467              		.loc 1 128 30 is_stmt 0 view .LVU156
 468 0008 4279     		ldrb	r2, [r0, #5]	@ zero_extendqisi2
 469 000a 64F38202 		bfi	r2, r4, #2, #1
 470 000e 4271     		strb	r2, [r0, #5]
 137:Drivers/lvgl/src/core/lv_indev.c **** 
 471              		.loc 1 137 1 view .LVU157
 472 0010 10BD     		pop	{r4, pc}
 473              	.LVL37:
 474              	.L52:
 475              	.LBB154:
 133:Drivers/lvgl/src/core/lv_indev.c ****             i = lv_indev_get_next(i);
 476              		.loc 1 133 13 is_stmt 1 view .LVU158
 133:Drivers/lvgl/src/core/lv_indev.c ****             i = lv_indev_get_next(i);
 477              		.loc 1 133 30 is_stmt 0 view .LVU159
 478 0012 4379     		ldrb	r3, [r0, #5]	@ zero_extendqisi2
 479 0014 64F38203 		bfi	r3, r4, #2, #1
 480 0018 4371     		strb	r3, [r0, #5]
 481              	.LVL38:
 482              	.L58:
 134:Drivers/lvgl/src/core/lv_indev.c ****         }
 483              		.loc 1 134 13 is_stmt 1 view .LVU160
 134:Drivers/lvgl/src/core/lv_indev.c ****         }
 484              		.loc 1 134 17 is_stmt 0 view .LVU161
 485 001a FFF7FEFF 		bl	lv_indev_get_next
 486              	.LVL39:
 132:Drivers/lvgl/src/core/lv_indev.c ****             i->proc.disabled = enable;
 487              		.loc 1 132 15 is_stmt 1 view .LVU162
ARM GAS  /var/folders/lp/x54gwt890xv47sdkqj1k04q40000gn/T//ccfgQDQQ.s 			page 34


 488 001e 0028     		cmp	r0, #0
 489 0020 F7D1     		bne	.L52
 490              	.LBE154:
 137:Drivers/lvgl/src/core/lv_indev.c **** 
 491              		.loc 1 137 1 is_stmt 0 view .LVU163
 492 0022 10BD     		pop	{r4, pc}
 137:Drivers/lvgl/src/core/lv_indev.c **** 
 493              		.loc 1 137 1 view .LVU164
 494              		.cfi_endproc
 495              	.LFE168:
 497              		.section	.text.lv_indev_get_act,"ax",%progbits
 498              		.align	1
 499              		.p2align 2,,3
 500              		.global	lv_indev_get_act
 501              		.syntax unified
 502              		.thumb
 503              		.thumb_func
 505              	lv_indev_get_act:
 506              	.LFB169:
 140:Drivers/lvgl/src/core/lv_indev.c ****     return indev_act;
 507              		.loc 1 140 1 is_stmt 1 view -0
 508              		.cfi_startproc
 509              		@ args = 0, pretend = 0, frame = 0
 510              		@ frame_needed = 0, uses_anonymous_args = 0
 511              		@ link register save eliminated.
 141:Drivers/lvgl/src/core/lv_indev.c **** }
 512              		.loc 1 141 5 view .LVU166
 141:Drivers/lvgl/src/core/lv_indev.c **** }
 513              		.loc 1 141 12 is_stmt 0 view .LVU167
 514 0000 014B     		ldr	r3, .L60
 142:Drivers/lvgl/src/core/lv_indev.c **** 
 515              		.loc 1 142 1 view .LVU168
 516 0002 1868     		ldr	r0, [r3]
 517 0004 7047     		bx	lr
 518              	.L61:
 519 0006 00BF     		.align	2
 520              	.L60:
 521 0008 00000000 		.word	indev_act
 522              		.cfi_endproc
 523              	.LFE169:
 525              		.section	.text.lv_indev_get_type,"ax",%progbits
 526              		.align	1
 527              		.p2align 2,,3
 528              		.global	lv_indev_get_type
 529              		.syntax unified
 530              		.thumb
 531              		.thumb_func
 533              	lv_indev_get_type:
 534              	.LVL40:
 535              	.LFB170:
 145:Drivers/lvgl/src/core/lv_indev.c ****     if(indev == NULL) return LV_INDEV_TYPE_NONE;
 536              		.loc 1 145 1 is_stmt 1 view -0
 537              		.cfi_startproc
 538              		@ args = 0, pretend = 0, frame = 0
 539              		@ frame_needed = 0, uses_anonymous_args = 0
 540              		@ link register save eliminated.
 146:Drivers/lvgl/src/core/lv_indev.c **** 
ARM GAS  /var/folders/lp/x54gwt890xv47sdkqj1k04q40000gn/T//ccfgQDQQ.s 			page 35


 541              		.loc 1 146 5 view .LVU170
 146:Drivers/lvgl/src/core/lv_indev.c **** 
 542              		.loc 1 146 7 is_stmt 0 view .LVU171
 543 0000 08B1     		cbz	r0, .L63
 148:Drivers/lvgl/src/core/lv_indev.c **** }
 544              		.loc 1 148 5 is_stmt 1 view .LVU172
 148:Drivers/lvgl/src/core/lv_indev.c **** }
 545              		.loc 1 148 25 is_stmt 0 view .LVU173
 546 0002 0368     		ldr	r3, [r0]
 547 0004 1878     		ldrb	r0, [r3]	@ zero_extendqisi2
 548              	.LVL41:
 549              	.L63:
 149:Drivers/lvgl/src/core/lv_indev.c **** 
 550              		.loc 1 149 1 view .LVU174
 551 0006 7047     		bx	lr
 552              		.cfi_endproc
 553              	.LFE170:
 555              		.section	.text.lv_indev_reset,"ax",%progbits
 556              		.align	1
 557              		.p2align 2,,3
 558              		.global	lv_indev_reset
 559              		.syntax unified
 560              		.thumb
 561              		.thumb_func
 563              	lv_indev_reset:
 564              	.LVL42:
 565              	.LFB171:
 152:Drivers/lvgl/src/core/lv_indev.c ****     if(indev) {
 566              		.loc 1 152 1 is_stmt 1 view -0
 567              		.cfi_startproc
 568              		@ args = 0, pretend = 0, frame = 0
 569              		@ frame_needed = 0, uses_anonymous_args = 0
 153:Drivers/lvgl/src/core/lv_indev.c ****         indev->proc.reset_query = 1;
 570              		.loc 1 153 5 view .LVU176
 152:Drivers/lvgl/src/core/lv_indev.c ****     if(indev) {
 571              		.loc 1 152 1 is_stmt 0 view .LVU177
 572 0000 38B5     		push	{r3, r4, r5, lr}
 573              		.cfi_def_cfa_offset 16
 574              		.cfi_offset 3, -16
 575              		.cfi_offset 4, -12
 576              		.cfi_offset 5, -8
 577              		.cfi_offset 14, -4
 152:Drivers/lvgl/src/core/lv_indev.c ****     if(indev) {
 578              		.loc 1 152 1 view .LVU178
 579 0002 0D46     		mov	r5, r1
 153:Drivers/lvgl/src/core/lv_indev.c ****         indev->proc.reset_query = 1;
 580              		.loc 1 153 7 view .LVU179
 581 0004 0446     		mov	r4, r0
 582 0006 88B1     		cbz	r0, .L66
 154:Drivers/lvgl/src/core/lv_indev.c ****         if(indev_act == indev) indev_obj_act = NULL;
 583              		.loc 1 154 9 is_stmt 1 view .LVU180
 155:Drivers/lvgl/src/core/lv_indev.c ****         if(indev->driver->type == LV_INDEV_TYPE_POINTER || indev->driver->type == LV_INDEV_TYPE_KEY
 584              		.loc 1 155 22 is_stmt 0 view .LVU181
 585 0008 274A     		ldr	r2, .L96
 154:Drivers/lvgl/src/core/lv_indev.c ****         if(indev_act == indev) indev_obj_act = NULL;
 586              		.loc 1 154 33 view .LVU182
 587 000a 4379     		ldrb	r3, [r0, #5]	@ zero_extendqisi2
ARM GAS  /var/folders/lp/x54gwt890xv47sdkqj1k04q40000gn/T//ccfgQDQQ.s 			page 36


 155:Drivers/lvgl/src/core/lv_indev.c ****         if(indev->driver->type == LV_INDEV_TYPE_POINTER || indev->driver->type == LV_INDEV_TYPE_KEY
 588              		.loc 1 155 11 view .LVU183
 589 000c 1268     		ldr	r2, [r2]
 154:Drivers/lvgl/src/core/lv_indev.c ****         if(indev_act == indev) indev_obj_act = NULL;
 590              		.loc 1 154 33 view .LVU184
 591 000e 43F00203 		orr	r3, r3, #2
 155:Drivers/lvgl/src/core/lv_indev.c ****         if(indev->driver->type == LV_INDEV_TYPE_POINTER || indev->driver->type == LV_INDEV_TYPE_KEY
 592              		.loc 1 155 11 view .LVU185
 593 0012 8242     		cmp	r2, r0
 154:Drivers/lvgl/src/core/lv_indev.c ****         if(indev_act == indev) indev_obj_act = NULL;
 594              		.loc 1 154 33 view .LVU186
 595 0014 4371     		strb	r3, [r0, #5]
 155:Drivers/lvgl/src/core/lv_indev.c ****         if(indev->driver->type == LV_INDEV_TYPE_POINTER || indev->driver->type == LV_INDEV_TYPE_KEY
 596              		.loc 1 155 9 is_stmt 1 view .LVU187
 155:Drivers/lvgl/src/core/lv_indev.c ****         if(indev->driver->type == LV_INDEV_TYPE_POINTER || indev->driver->type == LV_INDEV_TYPE_KEY
 597              		.loc 1 155 11 is_stmt 0 view .LVU188
 598 0016 3DD0     		beq	.L90
 599              	.L67:
 156:Drivers/lvgl/src/core/lv_indev.c ****             if(obj == NULL || indev->proc.types.pointer.last_pressed == obj) {
 600              		.loc 1 156 9 is_stmt 1 view .LVU189
 156:Drivers/lvgl/src/core/lv_indev.c ****             if(obj == NULL || indev->proc.types.pointer.last_pressed == obj) {
 601              		.loc 1 156 25 is_stmt 0 view .LVU190
 602 0018 2368     		ldr	r3, [r4]
 156:Drivers/lvgl/src/core/lv_indev.c ****             if(obj == NULL || indev->proc.types.pointer.last_pressed == obj) {
 603              		.loc 1 156 57 view .LVU191
 604 001a 1B78     		ldrb	r3, [r3]	@ zero_extendqisi2
 156:Drivers/lvgl/src/core/lv_indev.c ****             if(obj == NULL || indev->proc.types.pointer.last_pressed == obj) {
 605              		.loc 1 156 11 view .LVU192
 606 001c 013B     		subs	r3, r3, #1
 607 001e 012B     		cmp	r3, #1
 608 0020 27D9     		bls	.L91
 609              	.L65:
 187:Drivers/lvgl/src/core/lv_indev.c **** 
 610              		.loc 1 187 1 view .LVU193
 611 0022 38BD     		pop	{r3, r4, r5, pc}
 612              	.LVL43:
 613              	.L92:
 614              	.LBB155:
 176:Drivers/lvgl/src/core/lv_indev.c ****                     i->proc.types.pointer.act_obj = NULL;
 615              		.loc 1 176 17 is_stmt 1 view .LVU194
 179:Drivers/lvgl/src/core/lv_indev.c ****                     i->proc.types.pointer.last_obj = NULL;
 616              		.loc 1 179 17 view .LVU195
 173:Drivers/lvgl/src/core/lv_indev.c ****                     i->proc.types.pointer.last_pressed = NULL;
 617              		.loc 1 173 19 is_stmt 0 view .LVU196
 618 0024 B5B9     		cbnz	r5, .L78
 174:Drivers/lvgl/src/core/lv_indev.c ****                 }
 619              		.loc 1 174 21 is_stmt 1 view .LVU197
 174:Drivers/lvgl/src/core/lv_indev.c ****                 }
 620              		.loc 1 174 56 is_stmt 0 view .LVU198
 621 0026 4563     		str	r5, [r0, #52]
 176:Drivers/lvgl/src/core/lv_indev.c ****                     i->proc.types.pointer.act_obj = NULL;
 622              		.loc 1 176 17 is_stmt 1 view .LVU199
 177:Drivers/lvgl/src/core/lv_indev.c ****                 }
 623              		.loc 1 177 21 view .LVU200
 177:Drivers/lvgl/src/core/lv_indev.c ****                 }
 624              		.loc 1 177 51 is_stmt 0 view .LVU201
 625 0028 8562     		str	r5, [r0, #40]
ARM GAS  /var/folders/lp/x54gwt890xv47sdkqj1k04q40000gn/T//ccfgQDQQ.s 			page 37


 179:Drivers/lvgl/src/core/lv_indev.c ****                     i->proc.types.pointer.last_obj = NULL;
 626              		.loc 1 179 17 is_stmt 1 view .LVU202
 180:Drivers/lvgl/src/core/lv_indev.c ****                 }
 627              		.loc 1 180 21 view .LVU203
 180:Drivers/lvgl/src/core/lv_indev.c ****                 }
 628              		.loc 1 180 52 is_stmt 0 view .LVU204
 629 002a C462     		str	r4, [r0, #44]
 630              	.LVL44:
 631              	.L66:
 169:Drivers/lvgl/src/core/lv_indev.c ****         while(i) {
 632              		.loc 1 169 9 is_stmt 1 view .LVU205
 169:Drivers/lvgl/src/core/lv_indev.c ****         while(i) {
 633              		.loc 1 169 26 is_stmt 0 view .LVU206
 634 002c FFF7FEFF 		bl	lv_indev_get_next
 635              	.LVL45:
 170:Drivers/lvgl/src/core/lv_indev.c ****             i->proc.reset_query = 1;
 636              		.loc 1 170 9 is_stmt 1 view .LVU207
 170:Drivers/lvgl/src/core/lv_indev.c ****             i->proc.reset_query = 1;
 637              		.loc 1 170 15 view .LVU208
 638 0030 60B1     		cbz	r0, .L75
 639              	.L93:
 171:Drivers/lvgl/src/core/lv_indev.c ****             if(i->driver->type == LV_INDEV_TYPE_POINTER || i->driver->type == LV_INDEV_TYPE_KEYPAD)
 640              		.loc 1 171 13 view .LVU209
 173:Drivers/lvgl/src/core/lv_indev.c ****                     i->proc.types.pointer.last_pressed = NULL;
 641              		.loc 1 173 17 view .LVU210
 171:Drivers/lvgl/src/core/lv_indev.c ****             if(i->driver->type == LV_INDEV_TYPE_POINTER || i->driver->type == LV_INDEV_TYPE_KEYPAD)
 642              		.loc 1 171 33 is_stmt 0 view .LVU211
 643 0032 4379     		ldrb	r3, [r0, #5]	@ zero_extendqisi2
 172:Drivers/lvgl/src/core/lv_indev.c ****                 if(obj == NULL || i->proc.types.pointer.last_pressed == obj) {
 644              		.loc 1 172 25 view .LVU212
 645 0034 0268     		ldr	r2, [r0]
 171:Drivers/lvgl/src/core/lv_indev.c ****             if(i->driver->type == LV_INDEV_TYPE_POINTER || i->driver->type == LV_INDEV_TYPE_KEYPAD)
 646              		.loc 1 171 33 view .LVU213
 647 0036 43F00203 		orr	r3, r3, #2
 648 003a 4371     		strb	r3, [r0, #5]
 172:Drivers/lvgl/src/core/lv_indev.c ****                 if(obj == NULL || i->proc.types.pointer.last_pressed == obj) {
 649              		.loc 1 172 13 is_stmt 1 view .LVU214
 172:Drivers/lvgl/src/core/lv_indev.c ****                 if(obj == NULL || i->proc.types.pointer.last_pressed == obj) {
 650              		.loc 1 172 57 is_stmt 0 view .LVU215
 651 003c 1378     		ldrb	r3, [r2]	@ zero_extendqisi2
 172:Drivers/lvgl/src/core/lv_indev.c ****                 if(obj == NULL || i->proc.types.pointer.last_pressed == obj) {
 652              		.loc 1 172 15 view .LVU216
 653 003e 013B     		subs	r3, r3, #1
 654 0040 012B     		cmp	r3, #1
 655 0042 EFD9     		bls	.L92
 169:Drivers/lvgl/src/core/lv_indev.c ****         while(i) {
 656              		.loc 1 169 9 is_stmt 1 view .LVU217
 169:Drivers/lvgl/src/core/lv_indev.c ****         while(i) {
 657              		.loc 1 169 26 is_stmt 0 view .LVU218
 658 0044 FFF7FEFF 		bl	lv_indev_get_next
 659              	.LVL46:
 170:Drivers/lvgl/src/core/lv_indev.c ****             i->proc.reset_query = 1;
 660              		.loc 1 170 9 is_stmt 1 view .LVU219
 170:Drivers/lvgl/src/core/lv_indev.c ****             i->proc.reset_query = 1;
 661              		.loc 1 170 15 view .LVU220
 662 0048 0028     		cmp	r0, #0
 663 004a F2D1     		bne	.L93
ARM GAS  /var/folders/lp/x54gwt890xv47sdkqj1k04q40000gn/T//ccfgQDQQ.s 			page 38


 664              	.L75:
 185:Drivers/lvgl/src/core/lv_indev.c ****     }
 665              		.loc 1 185 9 view .LVU221
 185:Drivers/lvgl/src/core/lv_indev.c ****     }
 666              		.loc 1 185 23 is_stmt 0 view .LVU222
 667 004c 174B     		ldr	r3, .L96+4
 668 004e 0022     		movs	r2, #0
 669 0050 1A60     		str	r2, [r3]
 670              	.LBE155:
 187:Drivers/lvgl/src/core/lv_indev.c **** 
 671              		.loc 1 187 1 view .LVU223
 672 0052 38BD     		pop	{r3, r4, r5, pc}
 673              	.LVL47:
 674              	.L78:
 675              	.LBB156:
 173:Drivers/lvgl/src/core/lv_indev.c ****                     i->proc.types.pointer.last_pressed = NULL;
 676              		.loc 1 173 32 discriminator 1 view .LVU224
 677 0054 436B     		ldr	r3, [r0, #52]
 678 0056 AB42     		cmp	r3, r5
 174:Drivers/lvgl/src/core/lv_indev.c ****                 }
 679              		.loc 1 174 21 is_stmt 1 view .LVU225
 174:Drivers/lvgl/src/core/lv_indev.c ****                 }
 680              		.loc 1 174 56 is_stmt 0 view .LVU226
 681 0058 04BF     		itt	eq
 682 005a 0023     		moveq	r3, #0
 683 005c 4363     		streq	r3, [r0, #52]
 176:Drivers/lvgl/src/core/lv_indev.c ****                     i->proc.types.pointer.act_obj = NULL;
 684              		.loc 1 176 32 discriminator 1 view .LVU227
 685 005e 836A     		ldr	r3, [r0, #40]
 686 0060 AB42     		cmp	r3, r5
 177:Drivers/lvgl/src/core/lv_indev.c ****                 }
 687              		.loc 1 177 21 is_stmt 1 view .LVU228
 177:Drivers/lvgl/src/core/lv_indev.c ****                 }
 688              		.loc 1 177 51 is_stmt 0 view .LVU229
 689 0062 04BF     		itt	eq
 690 0064 0023     		moveq	r3, #0
 691 0066 8362     		streq	r3, [r0, #40]
 179:Drivers/lvgl/src/core/lv_indev.c ****                     i->proc.types.pointer.last_obj = NULL;
 692              		.loc 1 179 32 discriminator 1 view .LVU230
 693 0068 C36A     		ldr	r3, [r0, #44]
 694 006a AB42     		cmp	r3, r5
 695 006c DED1     		bne	.L66
 180:Drivers/lvgl/src/core/lv_indev.c ****                 }
 696              		.loc 1 180 21 is_stmt 1 view .LVU231
 180:Drivers/lvgl/src/core/lv_indev.c ****                 }
 697              		.loc 1 180 52 is_stmt 0 view .LVU232
 698 006e C462     		str	r4, [r0, #44]
 699 0070 DCE7     		b	.L66
 700              	.LVL48:
 701              	.L91:
 180:Drivers/lvgl/src/core/lv_indev.c ****                 }
 702              		.loc 1 180 52 view .LVU233
 703              	.LBE156:
 157:Drivers/lvgl/src/core/lv_indev.c ****                 indev->proc.types.pointer.last_pressed = NULL;
 704              		.loc 1 157 13 is_stmt 1 view .LVU234
 157:Drivers/lvgl/src/core/lv_indev.c ****                 indev->proc.types.pointer.last_pressed = NULL;
 705              		.loc 1 157 15 is_stmt 0 view .LVU235
ARM GAS  /var/folders/lp/x54gwt890xv47sdkqj1k04q40000gn/T//ccfgQDQQ.s 			page 39


 706 0072 9DB1     		cbz	r5, .L94
 157:Drivers/lvgl/src/core/lv_indev.c ****                 indev->proc.types.pointer.last_pressed = NULL;
 707              		.loc 1 157 28 discriminator 1 view .LVU236
 708 0074 636B     		ldr	r3, [r4, #52]
 709 0076 AB42     		cmp	r3, r5
 158:Drivers/lvgl/src/core/lv_indev.c ****             }
 710              		.loc 1 158 17 is_stmt 1 view .LVU237
 158:Drivers/lvgl/src/core/lv_indev.c ****             }
 711              		.loc 1 158 56 is_stmt 0 view .LVU238
 712 0078 04BF     		itt	eq
 713 007a 0023     		moveq	r3, #0
 714 007c 6363     		streq	r3, [r4, #52]
 160:Drivers/lvgl/src/core/lv_indev.c ****                 indev->proc.types.pointer.act_obj = NULL;
 715              		.loc 1 160 13 is_stmt 1 view .LVU239
 160:Drivers/lvgl/src/core/lv_indev.c ****                 indev->proc.types.pointer.act_obj = NULL;
 716              		.loc 1 160 28 is_stmt 0 discriminator 1 view .LVU240
 717 007e A36A     		ldr	r3, [r4, #40]
 718 0080 AB42     		cmp	r3, r5
 161:Drivers/lvgl/src/core/lv_indev.c ****             }
 719              		.loc 1 161 17 is_stmt 1 view .LVU241
 161:Drivers/lvgl/src/core/lv_indev.c ****             }
 720              		.loc 1 161 51 is_stmt 0 view .LVU242
 721 0082 04BF     		itt	eq
 722 0084 0023     		moveq	r3, #0
 723 0086 A362     		streq	r3, [r4, #40]
 163:Drivers/lvgl/src/core/lv_indev.c ****                 indev->proc.types.pointer.last_obj = NULL;
 724              		.loc 1 163 13 is_stmt 1 view .LVU243
 163:Drivers/lvgl/src/core/lv_indev.c ****                 indev->proc.types.pointer.last_obj = NULL;
 725              		.loc 1 163 28 is_stmt 0 discriminator 1 view .LVU244
 726 0088 E36A     		ldr	r3, [r4, #44]
 727 008a AB42     		cmp	r3, r5
 728 008c C9D1     		bne	.L65
 164:Drivers/lvgl/src/core/lv_indev.c ****             }
 729              		.loc 1 164 17 is_stmt 1 view .LVU245
 164:Drivers/lvgl/src/core/lv_indev.c ****             }
 730              		.loc 1 164 52 is_stmt 0 view .LVU246
 731 008e 0023     		movs	r3, #0
 732 0090 E362     		str	r3, [r4, #44]
 733              	.L95:
 187:Drivers/lvgl/src/core/lv_indev.c **** 
 734              		.loc 1 187 1 view .LVU247
 735 0092 38BD     		pop	{r3, r4, r5, pc}
 736              	.L90:
 155:Drivers/lvgl/src/core/lv_indev.c ****         if(indev->driver->type == LV_INDEV_TYPE_POINTER || indev->driver->type == LV_INDEV_TYPE_KEY
 737              		.loc 1 155 32 is_stmt 1 discriminator 1 view .LVU248
 155:Drivers/lvgl/src/core/lv_indev.c ****         if(indev->driver->type == LV_INDEV_TYPE_POINTER || indev->driver->type == LV_INDEV_TYPE_KEY
 738              		.loc 1 155 46 is_stmt 0 discriminator 1 view .LVU249
 739 0094 054B     		ldr	r3, .L96+4
 740 0096 0022     		movs	r2, #0
 741 0098 1A60     		str	r2, [r3]
 742 009a BDE7     		b	.L67
 743              	.L94:
 158:Drivers/lvgl/src/core/lv_indev.c ****             }
 744              		.loc 1 158 17 is_stmt 1 view .LVU250
 164:Drivers/lvgl/src/core/lv_indev.c ****             }
 745              		.loc 1 164 52 is_stmt 0 view .LVU251
 746 009c 0023     		movs	r3, #0
ARM GAS  /var/folders/lp/x54gwt890xv47sdkqj1k04q40000gn/T//ccfgQDQQ.s 			page 40


 158:Drivers/lvgl/src/core/lv_indev.c ****             }
 747              		.loc 1 158 56 view .LVU252
 748 009e 6563     		str	r5, [r4, #52]
 160:Drivers/lvgl/src/core/lv_indev.c ****                 indev->proc.types.pointer.act_obj = NULL;
 749              		.loc 1 160 13 is_stmt 1 view .LVU253
 161:Drivers/lvgl/src/core/lv_indev.c ****             }
 750              		.loc 1 161 17 view .LVU254
 161:Drivers/lvgl/src/core/lv_indev.c ****             }
 751              		.loc 1 161 51 is_stmt 0 view .LVU255
 752 00a0 A562     		str	r5, [r4, #40]
 163:Drivers/lvgl/src/core/lv_indev.c ****                 indev->proc.types.pointer.last_obj = NULL;
 753              		.loc 1 163 13 is_stmt 1 view .LVU256
 164:Drivers/lvgl/src/core/lv_indev.c ****             }
 754              		.loc 1 164 17 view .LVU257
 164:Drivers/lvgl/src/core/lv_indev.c ****             }
 755              		.loc 1 164 52 is_stmt 0 view .LVU258
 756 00a2 E362     		str	r3, [r4, #44]
 757 00a4 F5E7     		b	.L95
 758              	.L97:
 759 00a6 00BF     		.align	2
 760              	.L96:
 761 00a8 00000000 		.word	indev_act
 762 00ac 00000000 		.word	indev_obj_act
 763              		.cfi_endproc
 764              	.LFE171:
 766              		.section	.text.lv_indev_reset_long_press,"ax",%progbits
 767              		.align	1
 768              		.p2align 2,,3
 769              		.global	lv_indev_reset_long_press
 770              		.syntax unified
 771              		.thumb
 772              		.thumb_func
 774              	lv_indev_reset_long_press:
 775              	.LVL49:
 776              	.LFB172:
 190:Drivers/lvgl/src/core/lv_indev.c ****     indev->proc.long_pr_sent         = 0;
 777              		.loc 1 190 1 is_stmt 1 view -0
 778              		.cfi_startproc
 779              		@ args = 0, pretend = 0, frame = 0
 780              		@ frame_needed = 0, uses_anonymous_args = 0
 191:Drivers/lvgl/src/core/lv_indev.c ****     indev->proc.longpr_rep_timestamp = lv_tick_get();
 781              		.loc 1 191 5 view .LVU260
 191:Drivers/lvgl/src/core/lv_indev.c ****     indev->proc.longpr_rep_timestamp = lv_tick_get();
 782              		.loc 1 191 38 is_stmt 0 view .LVU261
 783 0000 4379     		ldrb	r3, [r0, #5]	@ zero_extendqisi2
 784 0002 23F00103 		bic	r3, r3, #1
 190:Drivers/lvgl/src/core/lv_indev.c ****     indev->proc.long_pr_sent         = 0;
 785              		.loc 1 190 1 view .LVU262
 786 0006 10B5     		push	{r4, lr}
 787              		.cfi_def_cfa_offset 8
 788              		.cfi_offset 4, -8
 789              		.cfi_offset 14, -4
 191:Drivers/lvgl/src/core/lv_indev.c ****     indev->proc.longpr_rep_timestamp = lv_tick_get();
 790              		.loc 1 191 38 view .LVU263
 791 0008 4371     		strb	r3, [r0, #5]
 192:Drivers/lvgl/src/core/lv_indev.c ****     indev->proc.pr_timestamp         = lv_tick_get();
 792              		.loc 1 192 5 is_stmt 1 view .LVU264
ARM GAS  /var/folders/lp/x54gwt890xv47sdkqj1k04q40000gn/T//ccfgQDQQ.s 			page 41


 190:Drivers/lvgl/src/core/lv_indev.c ****     indev->proc.long_pr_sent         = 0;
 793              		.loc 1 190 1 is_stmt 0 view .LVU265
 794 000a 0446     		mov	r4, r0
 192:Drivers/lvgl/src/core/lv_indev.c ****     indev->proc.pr_timestamp         = lv_tick_get();
 795              		.loc 1 192 40 view .LVU266
 796 000c FFF7FEFF 		bl	lv_tick_get
 797              	.LVL50:
 192:Drivers/lvgl/src/core/lv_indev.c ****     indev->proc.pr_timestamp         = lv_tick_get();
 798              		.loc 1 192 38 discriminator 1 view .LVU267
 799 0010 E064     		str	r0, [r4, #76]
 193:Drivers/lvgl/src/core/lv_indev.c **** }
 800              		.loc 1 193 5 is_stmt 1 view .LVU268
 193:Drivers/lvgl/src/core/lv_indev.c **** }
 801              		.loc 1 193 40 is_stmt 0 view .LVU269
 802 0012 FFF7FEFF 		bl	lv_tick_get
 803              	.LVL51:
 193:Drivers/lvgl/src/core/lv_indev.c **** }
 804              		.loc 1 193 38 discriminator 1 view .LVU270
 805 0016 A064     		str	r0, [r4, #72]
 194:Drivers/lvgl/src/core/lv_indev.c **** 
 806              		.loc 1 194 1 view .LVU271
 807 0018 10BD     		pop	{r4, pc}
 194:Drivers/lvgl/src/core/lv_indev.c **** 
 808              		.loc 1 194 1 view .LVU272
 809              		.cfi_endproc
 810              	.LFE172:
 812 001a 00BF     		.section	.text.lv_indev_set_cursor,"ax",%progbits
 813              		.align	1
 814              		.p2align 2,,3
 815              		.global	lv_indev_set_cursor
 816              		.syntax unified
 817              		.thumb
 818              		.thumb_func
 820              	lv_indev_set_cursor:
 821              	.LVL52:
 822              	.LFB173:
 197:Drivers/lvgl/src/core/lv_indev.c ****     if(indev->driver->type != LV_INDEV_TYPE_POINTER) return;
 823              		.loc 1 197 1 is_stmt 1 view -0
 824              		.cfi_startproc
 825              		@ args = 0, pretend = 0, frame = 0
 826              		@ frame_needed = 0, uses_anonymous_args = 0
 198:Drivers/lvgl/src/core/lv_indev.c **** 
 827              		.loc 1 198 5 view .LVU274
 197:Drivers/lvgl/src/core/lv_indev.c ****     if(indev->driver->type != LV_INDEV_TYPE_POINTER) return;
 828              		.loc 1 197 1 is_stmt 0 view .LVU275
 829 0000 38B5     		push	{r3, r4, r5, lr}
 830              		.cfi_def_cfa_offset 16
 831              		.cfi_offset 3, -16
 832              		.cfi_offset 4, -12
 833              		.cfi_offset 5, -8
 834              		.cfi_offset 14, -4
 198:Drivers/lvgl/src/core/lv_indev.c **** 
 835              		.loc 1 198 13 view .LVU276
 836 0002 0368     		ldr	r3, [r0]
 198:Drivers/lvgl/src/core/lv_indev.c **** 
 837              		.loc 1 198 7 view .LVU277
 838 0004 1A78     		ldrb	r2, [r3]	@ zero_extendqisi2
ARM GAS  /var/folders/lp/x54gwt890xv47sdkqj1k04q40000gn/T//ccfgQDQQ.s 			page 42


 839 0006 012A     		cmp	r2, #1
 840 0008 00D0     		beq	.L103
 205:Drivers/lvgl/src/core/lv_indev.c **** 
 841              		.loc 1 205 1 view .LVU278
 842 000a 38BD     		pop	{r3, r4, r5, pc}
 843              	.L103:
 200:Drivers/lvgl/src/core/lv_indev.c ****     lv_obj_set_parent(indev->cursor, lv_disp_get_layer_sys(indev->driver->disp));
 844              		.loc 1 200 5 is_stmt 1 view .LVU279
 845 000c 0446     		mov	r4, r0
 201:Drivers/lvgl/src/core/lv_indev.c ****     lv_obj_set_pos(indev->cursor, indev->proc.types.pointer.act_point.x, indev->proc.types.pointer.
 846              		.loc 1 201 38 is_stmt 0 view .LVU280
 847 000e 1869     		ldr	r0, [r3, #16]
 848              	.LVL53:
 200:Drivers/lvgl/src/core/lv_indev.c ****     lv_obj_set_parent(indev->cursor, lv_disp_get_layer_sys(indev->driver->disp));
 849              		.loc 1 200 19 view .LVU281
 850 0010 2165     		str	r1, [r4, #80]
 201:Drivers/lvgl/src/core/lv_indev.c ****     lv_obj_set_pos(indev->cursor, indev->proc.types.pointer.act_point.x, indev->proc.types.pointer.
 851              		.loc 1 201 5 is_stmt 1 view .LVU282
 852 0012 0D46     		mov	r5, r1
 201:Drivers/lvgl/src/core/lv_indev.c ****     lv_obj_set_pos(indev->cursor, indev->proc.types.pointer.act_point.x, indev->proc.types.pointer.
 853              		.loc 1 201 38 is_stmt 0 view .LVU283
 854 0014 FFF7FEFF 		bl	lv_disp_get_layer_sys
 855              	.LVL54:
 201:Drivers/lvgl/src/core/lv_indev.c ****     lv_obj_set_pos(indev->cursor, indev->proc.types.pointer.act_point.x, indev->proc.types.pointer.
 856              		.loc 1 201 38 view .LVU284
 857 0018 0146     		mov	r1, r0
 201:Drivers/lvgl/src/core/lv_indev.c ****     lv_obj_set_pos(indev->cursor, indev->proc.types.pointer.act_point.x, indev->proc.types.pointer.
 858              		.loc 1 201 5 discriminator 1 view .LVU285
 859 001a 2846     		mov	r0, r5
 860 001c FFF7FEFF 		bl	lv_obj_set_parent
 861              	.LVL55:
 202:Drivers/lvgl/src/core/lv_indev.c ****     lv_obj_clear_flag(indev->cursor, LV_OBJ_FLAG_CLICKABLE);
 862              		.loc 1 202 5 is_stmt 1 view .LVU286
 863 0020 B4F90A20 		ldrsh	r2, [r4, #10]
 864 0024 B4F90810 		ldrsh	r1, [r4, #8]
 865 0028 206D     		ldr	r0, [r4, #80]
 866 002a FFF7FEFF 		bl	lv_obj_set_pos
 867              	.LVL56:
 203:Drivers/lvgl/src/core/lv_indev.c ****     lv_obj_add_flag(indev->cursor, LV_OBJ_FLAG_IGNORE_LAYOUT | LV_OBJ_FLAG_FLOATING);
 868              		.loc 1 203 5 view .LVU287
 869 002e 206D     		ldr	r0, [r4, #80]
 870 0030 0221     		movs	r1, #2
 871 0032 FFF7FEFF 		bl	lv_obj_clear_flag
 872              	.LVL57:
 204:Drivers/lvgl/src/core/lv_indev.c **** }
 873              		.loc 1 204 5 view .LVU288
 874 0036 206D     		ldr	r0, [r4, #80]
 875 0038 4FF4C021 		mov	r1, #393216
 205:Drivers/lvgl/src/core/lv_indev.c **** 
 876              		.loc 1 205 1 is_stmt 0 view .LVU289
 877 003c BDE83840 		pop	{r3, r4, r5, lr}
 878              		.cfi_restore 14
 879              		.cfi_restore 5
 880              		.cfi_restore 4
 881              		.cfi_restore 3
 882              		.cfi_def_cfa_offset 0
 883              	.LVL58:
ARM GAS  /var/folders/lp/x54gwt890xv47sdkqj1k04q40000gn/T//ccfgQDQQ.s 			page 43


 204:Drivers/lvgl/src/core/lv_indev.c **** }
 884              		.loc 1 204 5 view .LVU290
 885 0040 FFF7FEBF 		b	lv_obj_add_flag
 886              	.LVL59:
 887              		.cfi_endproc
 888              	.LFE173:
 890              		.section	.text.lv_indev_set_group,"ax",%progbits
 891              		.align	1
 892              		.p2align 2,,3
 893              		.global	lv_indev_set_group
 894              		.syntax unified
 895              		.thumb
 896              		.thumb_func
 898              	lv_indev_set_group:
 899              	.LVL60:
 900              	.LFB174:
 208:Drivers/lvgl/src/core/lv_indev.c ****     if(indev->driver->type == LV_INDEV_TYPE_KEYPAD || indev->driver->type == LV_INDEV_TYPE_ENCODER)
 901              		.loc 1 208 1 is_stmt 1 view -0
 902              		.cfi_startproc
 903              		@ args = 0, pretend = 0, frame = 0
 904              		@ frame_needed = 0, uses_anonymous_args = 0
 905              		@ link register save eliminated.
 209:Drivers/lvgl/src/core/lv_indev.c ****         indev->group = group;
 906              		.loc 1 209 5 view .LVU292
 209:Drivers/lvgl/src/core/lv_indev.c ****         indev->group = group;
 907              		.loc 1 209 21 is_stmt 0 view .LVU293
 908 0000 0368     		ldr	r3, [r0]
 909 0002 1B78     		ldrb	r3, [r3]	@ zero_extendqisi2
 209:Drivers/lvgl/src/core/lv_indev.c ****         indev->group = group;
 910              		.loc 1 209 7 view .LVU294
 911 0004 022B     		cmp	r3, #2
 912 0006 02D0     		beq	.L105
 209:Drivers/lvgl/src/core/lv_indev.c ****         indev->group = group;
 913              		.loc 1 209 52 discriminator 1 view .LVU295
 914 0008 042B     		cmp	r3, #4
 915 000a 00D0     		beq	.L105
 212:Drivers/lvgl/src/core/lv_indev.c **** 
 916              		.loc 1 212 1 view .LVU296
 917 000c 7047     		bx	lr
 918              	.L105:
 210:Drivers/lvgl/src/core/lv_indev.c ****     }
 919              		.loc 1 210 9 is_stmt 1 view .LVU297
 210:Drivers/lvgl/src/core/lv_indev.c ****     }
 920              		.loc 1 210 22 is_stmt 0 view .LVU298
 921 000e 4165     		str	r1, [r0, #84]
 212:Drivers/lvgl/src/core/lv_indev.c **** 
 922              		.loc 1 212 1 view .LVU299
 923 0010 7047     		bx	lr
 924              		.cfi_endproc
 925              	.LFE174:
 927 0012 00BF     		.section	.text.lv_indev_set_button_points,"ax",%progbits
 928              		.align	1
 929              		.p2align 2,,3
 930              		.global	lv_indev_set_button_points
 931              		.syntax unified
 932              		.thumb
 933              		.thumb_func
ARM GAS  /var/folders/lp/x54gwt890xv47sdkqj1k04q40000gn/T//ccfgQDQQ.s 			page 44


 935              	lv_indev_set_button_points:
 936              	.LVL61:
 937              	.LFB175:
 215:Drivers/lvgl/src/core/lv_indev.c ****     if(indev->driver->type == LV_INDEV_TYPE_BUTTON) {
 938              		.loc 1 215 1 is_stmt 1 view -0
 939              		.cfi_startproc
 940              		@ args = 0, pretend = 0, frame = 0
 941              		@ frame_needed = 0, uses_anonymous_args = 0
 942              		@ link register save eliminated.
 216:Drivers/lvgl/src/core/lv_indev.c ****         indev->btn_points = points;
 943              		.loc 1 216 5 view .LVU301
 216:Drivers/lvgl/src/core/lv_indev.c ****         indev->btn_points = points;
 944              		.loc 1 216 21 is_stmt 0 view .LVU302
 945 0000 0368     		ldr	r3, [r0]
 216:Drivers/lvgl/src/core/lv_indev.c ****         indev->btn_points = points;
 946              		.loc 1 216 7 view .LVU303
 947 0002 1B78     		ldrb	r3, [r3]	@ zero_extendqisi2
 948 0004 032B     		cmp	r3, #3
 217:Drivers/lvgl/src/core/lv_indev.c ****     }
 949              		.loc 1 217 9 is_stmt 1 view .LVU304
 217:Drivers/lvgl/src/core/lv_indev.c ****     }
 950              		.loc 1 217 27 is_stmt 0 view .LVU305
 951 0006 08BF     		it	eq
 952 0008 8165     		streq	r1, [r0, #88]
 219:Drivers/lvgl/src/core/lv_indev.c **** 
 953              		.loc 1 219 1 view .LVU306
 954 000a 7047     		bx	lr
 955              		.cfi_endproc
 956              	.LFE175:
 958              		.section	.text.lv_indev_get_point,"ax",%progbits
 959              		.align	1
 960              		.p2align 2,,3
 961              		.global	lv_indev_get_point
 962              		.syntax unified
 963              		.thumb
 964              		.thumb_func
 966              	lv_indev_get_point:
 967              	.LVL62:
 968              	.LFB176:
 222:Drivers/lvgl/src/core/lv_indev.c ****     if(indev == NULL) {
 969              		.loc 1 222 1 is_stmt 1 view -0
 970              		.cfi_startproc
 971              		@ args = 0, pretend = 0, frame = 0
 972              		@ frame_needed = 0, uses_anonymous_args = 0
 973              		@ link register save eliminated.
 223:Drivers/lvgl/src/core/lv_indev.c ****         point->x = 0;
 974              		.loc 1 223 5 view .LVU308
 223:Drivers/lvgl/src/core/lv_indev.c ****         point->x = 0;
 975              		.loc 1 223 7 is_stmt 0 view .LVU309
 976 0000 98B1     		cbz	r0, .L116
 228:Drivers/lvgl/src/core/lv_indev.c ****         point->x = -1;
 977              		.loc 1 228 5 is_stmt 1 view .LVU310
 228:Drivers/lvgl/src/core/lv_indev.c ****         point->x = -1;
 978              		.loc 1 228 21 is_stmt 0 view .LVU311
 979 0002 0368     		ldr	r3, [r0]
 228:Drivers/lvgl/src/core/lv_indev.c ****         point->x = -1;
 980              		.loc 1 228 7 view .LVU312
ARM GAS  /var/folders/lp/x54gwt890xv47sdkqj1k04q40000gn/T//ccfgQDQQ.s 			page 45


 981 0004 1B78     		ldrb	r3, [r3]	@ zero_extendqisi2
 982 0006 03F0FD03 		and	r3, r3, #253
 983 000a 012B     		cmp	r3, #1
 984 000c 06D0     		beq	.L115
 229:Drivers/lvgl/src/core/lv_indev.c ****         point->y = -1;
 985              		.loc 1 229 9 is_stmt 1 view .LVU313
 229:Drivers/lvgl/src/core/lv_indev.c ****         point->y = -1;
 986              		.loc 1 229 18 is_stmt 0 view .LVU314
 987 000e 4FF6FF73 		movw	r3, #65535
 230:Drivers/lvgl/src/core/lv_indev.c ****     }
 988              		.loc 1 230 18 view .LVU315
 989 0012 4FF0FF30 		mov	r0, #-1
 990              	.LVL63:
 229:Drivers/lvgl/src/core/lv_indev.c ****         point->y = -1;
 991              		.loc 1 229 18 view .LVU316
 992 0016 0B80     		strh	r3, [r1]	@ movhi
 230:Drivers/lvgl/src/core/lv_indev.c ****     }
 993              		.loc 1 230 9 is_stmt 1 view .LVU317
 225:Drivers/lvgl/src/core/lv_indev.c ****         return;
 994              		.loc 1 225 18 is_stmt 0 view .LVU318
 995 0018 4880     		strh	r0, [r1, #2]	@ movhi
 236:Drivers/lvgl/src/core/lv_indev.c **** 
 996              		.loc 1 236 1 view .LVU319
 997 001a 7047     		bx	lr
 998              	.LVL64:
 999              	.L115:
 233:Drivers/lvgl/src/core/lv_indev.c ****         point->y = indev->proc.types.pointer.act_point.y;
 1000              		.loc 1 233 9 is_stmt 1 view .LVU320
 233:Drivers/lvgl/src/core/lv_indev.c ****         point->y = indev->proc.types.pointer.act_point.y;
 1001              		.loc 1 233 55 is_stmt 0 view .LVU321
 1002 001c B0F90830 		ldrsh	r3, [r0, #8]
 233:Drivers/lvgl/src/core/lv_indev.c ****         point->y = indev->proc.types.pointer.act_point.y;
 1003              		.loc 1 233 18 view .LVU322
 1004 0020 0B80     		strh	r3, [r1]	@ movhi
 234:Drivers/lvgl/src/core/lv_indev.c ****     }
 1005              		.loc 1 234 9 is_stmt 1 view .LVU323
 234:Drivers/lvgl/src/core/lv_indev.c ****     }
 1006              		.loc 1 234 55 is_stmt 0 view .LVU324
 1007 0022 B0F90A00 		ldrsh	r0, [r0, #10]
 1008              	.LVL65:
 225:Drivers/lvgl/src/core/lv_indev.c ****         return;
 1009              		.loc 1 225 18 view .LVU325
 1010 0026 4880     		strh	r0, [r1, #2]	@ movhi
 236:Drivers/lvgl/src/core/lv_indev.c **** 
 1011              		.loc 1 236 1 view .LVU326
 1012 0028 7047     		bx	lr
 1013              	.LVL66:
 1014              	.L116:
 224:Drivers/lvgl/src/core/lv_indev.c ****         point->y = 0;
 1015              		.loc 1 224 9 is_stmt 1 view .LVU327
 224:Drivers/lvgl/src/core/lv_indev.c ****         point->y = 0;
 1016              		.loc 1 224 18 is_stmt 0 view .LVU328
 1017 002a 0880     		strh	r0, [r1]	@ movhi
 225:Drivers/lvgl/src/core/lv_indev.c ****         return;
 1018              		.loc 1 225 9 is_stmt 1 view .LVU329
 226:Drivers/lvgl/src/core/lv_indev.c ****     }
 1019              		.loc 1 226 9 view .LVU330
ARM GAS  /var/folders/lp/x54gwt890xv47sdkqj1k04q40000gn/T//ccfgQDQQ.s 			page 46


 225:Drivers/lvgl/src/core/lv_indev.c ****         return;
 1020              		.loc 1 225 18 is_stmt 0 view .LVU331
 1021 002c 4880     		strh	r0, [r1, #2]	@ movhi
 236:Drivers/lvgl/src/core/lv_indev.c **** 
 1022              		.loc 1 236 1 view .LVU332
 1023 002e 7047     		bx	lr
 1024              		.cfi_endproc
 1025              	.LFE176:
 1027              		.section	.text.lv_indev_get_gesture_dir,"ax",%progbits
 1028              		.align	1
 1029              		.p2align 2,,3
 1030              		.global	lv_indev_get_gesture_dir
 1031              		.syntax unified
 1032              		.thumb
 1033              		.thumb_func
 1035              	lv_indev_get_gesture_dir:
 1036              	.LVL67:
 1037              	.LFB177:
 239:Drivers/lvgl/src/core/lv_indev.c ****     return indev->proc.types.pointer.gesture_dir;
 1038              		.loc 1 239 1 is_stmt 1 view -0
 1039              		.cfi_startproc
 1040              		@ args = 0, pretend = 0, frame = 0
 1041              		@ frame_needed = 0, uses_anonymous_args = 0
 1042              		@ link register save eliminated.
 240:Drivers/lvgl/src/core/lv_indev.c **** }
 1043              		.loc 1 240 5 view .LVU334
 240:Drivers/lvgl/src/core/lv_indev.c **** }
 1044              		.loc 1 240 37 is_stmt 0 view .LVU335
 1045 0000 90F84400 		ldrb	r0, [r0, #68]	@ zero_extendqisi2
 1046              	.LVL68:
 241:Drivers/lvgl/src/core/lv_indev.c **** 
 1047              		.loc 1 241 1 view .LVU336
 1048 0004 0009     		lsrs	r0, r0, #4
 1049 0006 7047     		bx	lr
 1050              		.cfi_endproc
 1051              	.LFE177:
 1053              		.section	.text.lv_indev_get_key,"ax",%progbits
 1054              		.align	1
 1055              		.p2align 2,,3
 1056              		.global	lv_indev_get_key
 1057              		.syntax unified
 1058              		.thumb
 1059              		.thumb_func
 1061              	lv_indev_get_key:
 1062              	.LVL69:
 1063              	.LFB178:
 244:Drivers/lvgl/src/core/lv_indev.c ****     if(indev->driver->type != LV_INDEV_TYPE_KEYPAD)
 1064              		.loc 1 244 1 is_stmt 1 view -0
 1065              		.cfi_startproc
 1066              		@ args = 0, pretend = 0, frame = 0
 1067              		@ frame_needed = 0, uses_anonymous_args = 0
 1068              		@ link register save eliminated.
 245:Drivers/lvgl/src/core/lv_indev.c ****         return 0;
 1069              		.loc 1 245 5 view .LVU338
 245:Drivers/lvgl/src/core/lv_indev.c ****         return 0;
 1070              		.loc 1 245 21 is_stmt 0 view .LVU339
 1071 0000 0368     		ldr	r3, [r0]
ARM GAS  /var/folders/lp/x54gwt890xv47sdkqj1k04q40000gn/T//ccfgQDQQ.s 			page 47


 245:Drivers/lvgl/src/core/lv_indev.c ****         return 0;
 1072              		.loc 1 245 7 view .LVU340
 1073 0002 1B78     		ldrb	r3, [r3]	@ zero_extendqisi2
 1074 0004 022B     		cmp	r3, #2
 248:Drivers/lvgl/src/core/lv_indev.c **** }
 1075              		.loc 1 248 9 is_stmt 1 view .LVU341
 248:Drivers/lvgl/src/core/lv_indev.c **** }
 1076              		.loc 1 248 40 is_stmt 0 view .LVU342
 1077 0006 0CBF     		ite	eq
 1078 0008 C068     		ldreq	r0, [r0, #12]
 1079              	.LVL70:
 246:Drivers/lvgl/src/core/lv_indev.c ****     else
 1080              		.loc 1 246 16 view .LVU343
 1081 000a 0020     		movne	r0, #0
 249:Drivers/lvgl/src/core/lv_indev.c **** 
 1082              		.loc 1 249 1 view .LVU344
 1083 000c 7047     		bx	lr
 1084              		.cfi_endproc
 1085              	.LFE178:
 1087              		.section	.text.lv_indev_get_scroll_dir,"ax",%progbits
 1088              		.align	1
 1089              		.p2align 2,,3
 1090              		.global	lv_indev_get_scroll_dir
 1091              		.syntax unified
 1092              		.thumb
 1093              		.thumb_func
 1095              	lv_indev_get_scroll_dir:
 1096              	.LVL71:
 1097              	.LFB179:
 252:Drivers/lvgl/src/core/lv_indev.c ****     if(indev == NULL) return false;
 1098              		.loc 1 252 1 is_stmt 1 view -0
 1099              		.cfi_startproc
 1100              		@ args = 0, pretend = 0, frame = 0
 1101              		@ frame_needed = 0, uses_anonymous_args = 0
 1102              		@ link register save eliminated.
 253:Drivers/lvgl/src/core/lv_indev.c ****     if(indev->driver->type != LV_INDEV_TYPE_POINTER && indev->driver->type != LV_INDEV_TYPE_BUTTON)
 1103              		.loc 1 253 5 view .LVU346
 253:Drivers/lvgl/src/core/lv_indev.c ****     if(indev->driver->type != LV_INDEV_TYPE_POINTER && indev->driver->type != LV_INDEV_TYPE_BUTTON)
 1104              		.loc 1 253 7 is_stmt 0 view .LVU347
 1105 0000 30B1     		cbz	r0, .L122
 254:Drivers/lvgl/src/core/lv_indev.c ****     return indev->proc.types.pointer.scroll_dir;
 1106              		.loc 1 254 5 is_stmt 1 view .LVU348
 254:Drivers/lvgl/src/core/lv_indev.c ****     return indev->proc.types.pointer.scroll_dir;
 1107              		.loc 1 254 21 is_stmt 0 view .LVU349
 1108 0002 0368     		ldr	r3, [r0]
 254:Drivers/lvgl/src/core/lv_indev.c ****     return indev->proc.types.pointer.scroll_dir;
 1109              		.loc 1 254 7 view .LVU350
 1110 0004 1B78     		ldrb	r3, [r3]	@ zero_extendqisi2
 1111 0006 03F0FD03 		and	r3, r3, #253
 1112 000a 012B     		cmp	r3, #1
 1113 000c 01D0     		beq	.L125
 253:Drivers/lvgl/src/core/lv_indev.c ****     if(indev->driver->type != LV_INDEV_TYPE_POINTER && indev->driver->type != LV_INDEV_TYPE_BUTTON)
 1114              		.loc 1 253 30 discriminator 1 view .LVU351
 1115 000e 0020     		movs	r0, #0
 1116              	.LVL72:
 1117              	.L122:
 256:Drivers/lvgl/src/core/lv_indev.c **** 
ARM GAS  /var/folders/lp/x54gwt890xv47sdkqj1k04q40000gn/T//ccfgQDQQ.s 			page 48


 1118              		.loc 1 256 1 view .LVU352
 1119 0010 7047     		bx	lr
 1120              	.LVL73:
 1121              	.L125:
 255:Drivers/lvgl/src/core/lv_indev.c **** }
 1122              		.loc 1 255 5 is_stmt 1 view .LVU353
 255:Drivers/lvgl/src/core/lv_indev.c **** }
 1123              		.loc 1 255 37 is_stmt 0 view .LVU354
 1124 0012 90F84400 		ldrb	r0, [r0, #68]	@ zero_extendqisi2
 1125              	.LVL74:
 255:Drivers/lvgl/src/core/lv_indev.c **** }
 1126              		.loc 1 255 37 view .LVU355
 1127 0016 00F00F00 		and	r0, r0, #15
 1128 001a 7047     		bx	lr
 1129              		.cfi_endproc
 1130              	.LFE179:
 1132              		.section	.text.lv_indev_get_scroll_obj,"ax",%progbits
 1133              		.align	1
 1134              		.p2align 2,,3
 1135              		.global	lv_indev_get_scroll_obj
 1136              		.syntax unified
 1137              		.thumb
 1138              		.thumb_func
 1140              	lv_indev_get_scroll_obj:
 1141              	.LVL75:
 1142              	.LFB180:
 259:Drivers/lvgl/src/core/lv_indev.c ****     if(indev == NULL) return NULL;
 1143              		.loc 1 259 1 is_stmt 1 view -0
 1144              		.cfi_startproc
 1145              		@ args = 0, pretend = 0, frame = 0
 1146              		@ frame_needed = 0, uses_anonymous_args = 0
 1147              		@ link register save eliminated.
 260:Drivers/lvgl/src/core/lv_indev.c ****     if(indev->driver->type != LV_INDEV_TYPE_POINTER && indev->driver->type != LV_INDEV_TYPE_BUTTON)
 1148              		.loc 1 260 5 view .LVU357
 260:Drivers/lvgl/src/core/lv_indev.c ****     if(indev->driver->type != LV_INDEV_TYPE_POINTER && indev->driver->type != LV_INDEV_TYPE_BUTTON)
 1149              		.loc 1 260 7 is_stmt 0 view .LVU358
 1150 0000 30B1     		cbz	r0, .L126
 261:Drivers/lvgl/src/core/lv_indev.c ****     return indev->proc.types.pointer.scroll_obj;
 1151              		.loc 1 261 5 is_stmt 1 view .LVU359
 261:Drivers/lvgl/src/core/lv_indev.c ****     return indev->proc.types.pointer.scroll_obj;
 1152              		.loc 1 261 21 is_stmt 0 view .LVU360
 1153 0002 0368     		ldr	r3, [r0]
 261:Drivers/lvgl/src/core/lv_indev.c ****     return indev->proc.types.pointer.scroll_obj;
 1154              		.loc 1 261 7 view .LVU361
 1155 0004 1B78     		ldrb	r3, [r3]	@ zero_extendqisi2
 1156 0006 03F0FD03 		and	r3, r3, #253
 1157 000a 012B     		cmp	r3, #1
 1158 000c 01D0     		beq	.L130
 260:Drivers/lvgl/src/core/lv_indev.c ****     if(indev->driver->type != LV_INDEV_TYPE_POINTER && indev->driver->type != LV_INDEV_TYPE_BUTTON)
 1159              		.loc 1 260 30 discriminator 1 view .LVU362
 1160 000e 0020     		movs	r0, #0
 1161              	.LVL76:
 1162              	.L126:
 263:Drivers/lvgl/src/core/lv_indev.c **** 
 1163              		.loc 1 263 1 view .LVU363
 1164 0010 7047     		bx	lr
 1165              	.LVL77:
ARM GAS  /var/folders/lp/x54gwt890xv47sdkqj1k04q40000gn/T//ccfgQDQQ.s 			page 49


 1166              	.L130:
 262:Drivers/lvgl/src/core/lv_indev.c **** }
 1167              		.loc 1 262 5 is_stmt 1 view .LVU364
 262:Drivers/lvgl/src/core/lv_indev.c **** }
 1168              		.loc 1 262 37 is_stmt 0 view .LVU365
 1169 0012 006B     		ldr	r0, [r0, #48]
 1170              	.LVL78:
 262:Drivers/lvgl/src/core/lv_indev.c **** }
 1171              		.loc 1 262 37 view .LVU366
 1172 0014 7047     		bx	lr
 1173              		.cfi_endproc
 1174              	.LFE180:
 1176 0016 00BF     		.section	.text.lv_indev_get_vect,"ax",%progbits
 1177              		.align	1
 1178              		.p2align 2,,3
 1179              		.global	lv_indev_get_vect
 1180              		.syntax unified
 1181              		.thumb
 1182              		.thumb_func
 1184              	lv_indev_get_vect:
 1185              	.LVL79:
 1186              	.LFB181:
 266:Drivers/lvgl/src/core/lv_indev.c ****     point->x = 0;
 1187              		.loc 1 266 1 is_stmt 1 view -0
 1188              		.cfi_startproc
 1189              		@ args = 0, pretend = 0, frame = 0
 1190              		@ frame_needed = 0, uses_anonymous_args = 0
 1191              		@ link register save eliminated.
 267:Drivers/lvgl/src/core/lv_indev.c ****     point->y = 0;
 1192              		.loc 1 267 5 view .LVU368
 268:Drivers/lvgl/src/core/lv_indev.c **** 
 1193              		.loc 1 268 5 view .LVU369
 267:Drivers/lvgl/src/core/lv_indev.c ****     point->y = 0;
 1194              		.loc 1 267 14 is_stmt 0 view .LVU370
 1195 0000 0023     		movs	r3, #0
 1196 0002 0B60     		str	r3, [r1]	@ unaligned
 270:Drivers/lvgl/src/core/lv_indev.c **** 
 1197              		.loc 1 270 5 is_stmt 1 view .LVU371
 270:Drivers/lvgl/src/core/lv_indev.c **** 
 1198              		.loc 1 270 7 is_stmt 0 view .LVU372
 1199 0004 58B1     		cbz	r0, .L131
 272:Drivers/lvgl/src/core/lv_indev.c ****         point->x = indev->proc.types.pointer.vect.x;
 1200              		.loc 1 272 5 is_stmt 1 view .LVU373
 272:Drivers/lvgl/src/core/lv_indev.c ****         point->x = indev->proc.types.pointer.vect.x;
 1201              		.loc 1 272 21 is_stmt 0 view .LVU374
 1202 0006 0368     		ldr	r3, [r0]
 272:Drivers/lvgl/src/core/lv_indev.c ****         point->x = indev->proc.types.pointer.vect.x;
 1203              		.loc 1 272 7 view .LVU375
 1204 0008 1B78     		ldrb	r3, [r3]	@ zero_extendqisi2
 1205 000a 03F0FD03 		and	r3, r3, #253
 1206 000e 012B     		cmp	r3, #1
 1207 0010 05D1     		bne	.L131
 273:Drivers/lvgl/src/core/lv_indev.c ****         point->y = indev->proc.types.pointer.vect.y;
 1208              		.loc 1 273 9 is_stmt 1 view .LVU376
 273:Drivers/lvgl/src/core/lv_indev.c ****         point->y = indev->proc.types.pointer.vect.y;
 1209              		.loc 1 273 50 is_stmt 0 view .LVU377
 1210 0012 B0F91830 		ldrsh	r3, [r0, #24]
ARM GAS  /var/folders/lp/x54gwt890xv47sdkqj1k04q40000gn/T//ccfgQDQQ.s 			page 50


 273:Drivers/lvgl/src/core/lv_indev.c ****         point->y = indev->proc.types.pointer.vect.y;
 1211              		.loc 1 273 18 view .LVU378
 1212 0016 0B80     		strh	r3, [r1]	@ movhi
 274:Drivers/lvgl/src/core/lv_indev.c ****     }
 1213              		.loc 1 274 9 is_stmt 1 view .LVU379
 274:Drivers/lvgl/src/core/lv_indev.c ****     }
 1214              		.loc 1 274 50 is_stmt 0 view .LVU380
 1215 0018 B0F91A30 		ldrsh	r3, [r0, #26]
 274:Drivers/lvgl/src/core/lv_indev.c ****     }
 1216              		.loc 1 274 18 view .LVU381
 1217 001c 4B80     		strh	r3, [r1, #2]	@ movhi
 1218              	.L131:
 276:Drivers/lvgl/src/core/lv_indev.c **** 
 1219              		.loc 1 276 1 view .LVU382
 1220 001e 7047     		bx	lr
 1221              		.cfi_endproc
 1222              	.LFE181:
 1224              		.section	.text.lv_indev_wait_release,"ax",%progbits
 1225              		.align	1
 1226              		.p2align 2,,3
 1227              		.global	lv_indev_wait_release
 1228              		.syntax unified
 1229              		.thumb
 1230              		.thumb_func
 1232              	lv_indev_wait_release:
 1233              	.LVL80:
 1234              	.LFB182:
 279:Drivers/lvgl/src/core/lv_indev.c ****     if(indev == NULL)return;
 1235              		.loc 1 279 1 is_stmt 1 view -0
 1236              		.cfi_startproc
 1237              		@ args = 0, pretend = 0, frame = 0
 1238              		@ frame_needed = 0, uses_anonymous_args = 0
 1239              		@ link register save eliminated.
 280:Drivers/lvgl/src/core/lv_indev.c ****     indev->proc.wait_until_release = 1;
 1240              		.loc 1 280 5 view .LVU384
 280:Drivers/lvgl/src/core/lv_indev.c ****     indev->proc.wait_until_release = 1;
 1241              		.loc 1 280 7 is_stmt 0 view .LVU385
 1242 0000 18B1     		cbz	r0, .L136
 281:Drivers/lvgl/src/core/lv_indev.c **** }
 1243              		.loc 1 281 5 is_stmt 1 view .LVU386
 281:Drivers/lvgl/src/core/lv_indev.c **** }
 1244              		.loc 1 281 36 is_stmt 0 view .LVU387
 1245 0002 4379     		ldrb	r3, [r0, #5]	@ zero_extendqisi2
 1246 0004 43F00803 		orr	r3, r3, #8
 1247 0008 4371     		strb	r3, [r0, #5]
 1248              	.L136:
 282:Drivers/lvgl/src/core/lv_indev.c **** 
 1249              		.loc 1 282 1 view .LVU388
 1250 000a 7047     		bx	lr
 1251              		.cfi_endproc
 1252              	.LFE182:
 1254              		.section	.text.lv_indev_get_obj_act,"ax",%progbits
 1255              		.align	1
 1256              		.p2align 2,,3
 1257              		.global	lv_indev_get_obj_act
 1258              		.syntax unified
 1259              		.thumb
ARM GAS  /var/folders/lp/x54gwt890xv47sdkqj1k04q40000gn/T//ccfgQDQQ.s 			page 51


 1260              		.thumb_func
 1262              	lv_indev_get_obj_act:
 1263              	.LFB183:
 285:Drivers/lvgl/src/core/lv_indev.c ****     return indev_obj_act;
 1264              		.loc 1 285 1 is_stmt 1 view -0
 1265              		.cfi_startproc
 1266              		@ args = 0, pretend = 0, frame = 0
 1267              		@ frame_needed = 0, uses_anonymous_args = 0
 1268              		@ link register save eliminated.
 286:Drivers/lvgl/src/core/lv_indev.c **** }
 1269              		.loc 1 286 5 view .LVU390
 286:Drivers/lvgl/src/core/lv_indev.c **** }
 1270              		.loc 1 286 12 is_stmt 0 view .LVU391
 1271 0000 014B     		ldr	r3, .L142
 287:Drivers/lvgl/src/core/lv_indev.c **** 
 1272              		.loc 1 287 1 view .LVU392
 1273 0002 1868     		ldr	r0, [r3]
 1274 0004 7047     		bx	lr
 1275              	.L143:
 1276 0006 00BF     		.align	2
 1277              	.L142:
 1278 0008 00000000 		.word	indev_obj_act
 1279              		.cfi_endproc
 1280              	.LFE183:
 1282              		.section	.text.lv_indev_get_read_timer,"ax",%progbits
 1283              		.align	1
 1284              		.p2align 2,,3
 1285              		.global	lv_indev_get_read_timer
 1286              		.syntax unified
 1287              		.thumb
 1288              		.thumb_func
 1290              	lv_indev_get_read_timer:
 1291              	.LVL81:
 1292              	.LFB184:
 290:Drivers/lvgl/src/core/lv_indev.c ****     if(!indev) {
 1293              		.loc 1 290 1 is_stmt 1 view -0
 1294              		.cfi_startproc
 1295              		@ args = 0, pretend = 0, frame = 0
 1296              		@ frame_needed = 0, uses_anonymous_args = 0
 1297              		@ link register save eliminated.
 291:Drivers/lvgl/src/core/lv_indev.c ****         LV_LOG_WARN("lv_indev_get_read_timer: indev was NULL");
 1298              		.loc 1 291 5 view .LVU394
 291:Drivers/lvgl/src/core/lv_indev.c ****         LV_LOG_WARN("lv_indev_get_read_timer: indev was NULL");
 1299              		.loc 1 291 7 is_stmt 0 view .LVU395
 1300 0000 00B1     		cbz	r0, .L144
 296:Drivers/lvgl/src/core/lv_indev.c **** }
 1301              		.loc 1 296 5 is_stmt 1 view .LVU396
 296:Drivers/lvgl/src/core/lv_indev.c **** }
 1302              		.loc 1 296 17 is_stmt 0 view .LVU397
 1303 0002 4068     		ldr	r0, [r0, #4]
 1304              	.LVL82:
 1305              	.L144:
 297:Drivers/lvgl/src/core/lv_indev.c **** 
 1306              		.loc 1 297 1 view .LVU398
 1307 0004 7047     		bx	lr
 1308              		.cfi_endproc
 1309              	.LFE184:
ARM GAS  /var/folders/lp/x54gwt890xv47sdkqj1k04q40000gn/T//ccfgQDQQ.s 			page 52


 1311 0006 00BF     		.section	.text.lv_indev_search_obj,"ax",%progbits
 1312              		.align	1
 1313              		.p2align 2,,3
 1314              		.global	lv_indev_search_obj
 1315              		.syntax unified
 1316              		.thumb
 1317              		.thumb_func
 1319              	lv_indev_search_obj:
 1320              	.LVL83:
 1321              	.LFB185:
 301:Drivers/lvgl/src/core/lv_indev.c ****     lv_obj_t * found_p = NULL;
 1322              		.loc 1 301 1 is_stmt 1 view -0
 1323              		.cfi_startproc
 1324              		@ args = 0, pretend = 0, frame = 8
 1325              		@ frame_needed = 0, uses_anonymous_args = 0
 302:Drivers/lvgl/src/core/lv_indev.c **** 
 1326              		.loc 1 302 5 view .LVU400
 305:Drivers/lvgl/src/core/lv_indev.c **** 
 1327              		.loc 1 305 5 view .LVU401
 301:Drivers/lvgl/src/core/lv_indev.c ****     lv_obj_t * found_p = NULL;
 1328              		.loc 1 301 1 is_stmt 0 view .LVU402
 1329 0000 70B5     		push	{r4, r5, r6, lr}
 1330              		.cfi_def_cfa_offset 16
 1331              		.cfi_offset 4, -16
 1332              		.cfi_offset 5, -12
 1333              		.cfi_offset 6, -8
 1334              		.cfi_offset 14, -4
 1335 0002 0E46     		mov	r6, r1
 1336 0004 82B0     		sub	sp, sp, #8
 1337              		.cfi_def_cfa_offset 24
 305:Drivers/lvgl/src/core/lv_indev.c **** 
 1338              		.loc 1 305 8 view .LVU403
 1339 0006 0121     		movs	r1, #1
 1340              	.LVL84:
 301:Drivers/lvgl/src/core/lv_indev.c ****     lv_obj_t * found_p = NULL;
 1341              		.loc 1 301 1 view .LVU404
 1342 0008 0446     		mov	r4, r0
 305:Drivers/lvgl/src/core/lv_indev.c **** 
 1343              		.loc 1 305 8 view .LVU405
 1344 000a FFF7FEFF 		bl	lv_obj_has_flag
 1345              	.LVL85:
 305:Drivers/lvgl/src/core/lv_indev.c **** 
 1346              		.loc 1 305 7 discriminator 1 view .LVU406
 1347 000e 0028     		cmp	r0, #0
 1348 0010 35D1     		bne	.L154
 307:Drivers/lvgl/src/core/lv_indev.c ****     lv_obj_transform_point(obj, &p_trans, false, true);
 1349              		.loc 1 307 5 is_stmt 1 view .LVU407
 1350 0012 0546     		mov	r5, r0
 307:Drivers/lvgl/src/core/lv_indev.c ****     lv_obj_transform_point(obj, &p_trans, false, true);
 1351              		.loc 1 307 16 is_stmt 0 view .LVU408
 1352 0014 3068     		ldr	r0, [r6]	@ unaligned
 1353 0016 0190     		str	r0, [sp, #4]
 308:Drivers/lvgl/src/core/lv_indev.c **** 
 1354              		.loc 1 308 5 is_stmt 1 view .LVU409
 1355 0018 2A46     		mov	r2, r5
 1356 001a 0123     		movs	r3, #1
 1357 001c 01A9     		add	r1, sp, #4
ARM GAS  /var/folders/lp/x54gwt890xv47sdkqj1k04q40000gn/T//ccfgQDQQ.s 			page 53


 1358 001e 2046     		mov	r0, r4
 1359 0020 FFF7FEFF 		bl	lv_obj_transform_point
 1360              	.LVL86:
 310:Drivers/lvgl/src/core/lv_indev.c **** 
 1361              		.loc 1 310 5 view .LVU410
 310:Drivers/lvgl/src/core/lv_indev.c **** 
 1362              		.loc 1 310 24 is_stmt 0 view .LVU411
 1363 0024 01A9     		add	r1, sp, #4
 1364 0026 2046     		mov	r0, r4
 1365 0028 FFF7FEFF 		bl	lv_obj_hit_test
 1366              	.LVL87:
 313:Drivers/lvgl/src/core/lv_indev.c ****         int32_t i;
 1367              		.loc 1 313 8 view .LVU412
 1368 002c 2A46     		mov	r2, r5
 310:Drivers/lvgl/src/core/lv_indev.c **** 
 1369              		.loc 1 310 24 view .LVU413
 1370 002e 0646     		mov	r6, r0
 1371              	.LVL88:
 313:Drivers/lvgl/src/core/lv_indev.c ****         int32_t i;
 1372              		.loc 1 313 5 is_stmt 1 view .LVU414
 313:Drivers/lvgl/src/core/lv_indev.c ****         int32_t i;
 1373              		.loc 1 313 8 is_stmt 0 view .LVU415
 1374 0030 01A9     		add	r1, sp, #4
 1375 0032 04F11400 		add	r0, r4, #20
 1376 0036 FFF7FEFF 		bl	_lv_area_is_point_on
 1377              	.LVL89:
 313:Drivers/lvgl/src/core/lv_indev.c ****         int32_t i;
 1378              		.loc 1 313 7 discriminator 1 view .LVU416
 1379 003a 98B1     		cbz	r0, .L150
 1380              	.LBB157:
 314:Drivers/lvgl/src/core/lv_indev.c ****         uint32_t child_cnt = lv_obj_get_child_cnt(obj);
 1381              		.loc 1 314 9 is_stmt 1 view .LVU417
 315:Drivers/lvgl/src/core/lv_indev.c **** 
 1382              		.loc 1 315 9 view .LVU418
 315:Drivers/lvgl/src/core/lv_indev.c **** 
 1383              		.loc 1 315 30 is_stmt 0 view .LVU419
 1384 003c 2046     		mov	r0, r4
 1385 003e FFF7FEFF 		bl	lv_obj_get_child_cnt
 1386              	.LVL90:
 318:Drivers/lvgl/src/core/lv_indev.c ****             lv_obj_t * child = obj->spec_attr->children[i];
 1387              		.loc 1 318 9 is_stmt 1 view .LVU420
 318:Drivers/lvgl/src/core/lv_indev.c ****             lv_obj_t * child = obj->spec_attr->children[i];
 1388              		.loc 1 318 34 discriminator 1 view .LVU421
 1389 0042 451E     		subs	r5, r0, #1
 1390              	.LVL91:
 318:Drivers/lvgl/src/core/lv_indev.c ****             lv_obj_t * child = obj->spec_attr->children[i];
 1391              		.loc 1 318 34 is_stmt 0 discriminator 1 view .LVU422
 1392 0044 0AD4     		bmi	.L152
 1393              	.LVL92:
 1394              	.L151:
 1395              	.LBB158:
 319:Drivers/lvgl/src/core/lv_indev.c ****             found_p = lv_indev_search_obj(child, &p_trans);
 1396              		.loc 1 319 13 is_stmt 1 view .LVU423
 320:Drivers/lvgl/src/core/lv_indev.c ****             if(found_p) return found_p;
 1397              		.loc 1 320 13 view .LVU424
 319:Drivers/lvgl/src/core/lv_indev.c ****             found_p = lv_indev_search_obj(child, &p_trans);
 1398              		.loc 1 319 46 is_stmt 0 view .LVU425
ARM GAS  /var/folders/lp/x54gwt890xv47sdkqj1k04q40000gn/T//ccfgQDQQ.s 			page 54


 1399 0046 A368     		ldr	r3, [r4, #8]
 319:Drivers/lvgl/src/core/lv_indev.c ****             found_p = lv_indev_search_obj(child, &p_trans);
 1400              		.loc 1 319 24 view .LVU426
 1401 0048 1B68     		ldr	r3, [r3]
 320:Drivers/lvgl/src/core/lv_indev.c ****             if(found_p) return found_p;
 1402              		.loc 1 320 23 view .LVU427
 1403 004a 01A9     		add	r1, sp, #4
 1404 004c 53F82500 		ldr	r0, [r3, r5, lsl #2]
 1405 0050 FFF7FEFF 		bl	lv_indev_search_obj
 1406              	.LVL93:
 320:Drivers/lvgl/src/core/lv_indev.c ****             if(found_p) return found_p;
 1407              		.loc 1 320 23 view .LVU428
 1408              	.LBE158:
 318:Drivers/lvgl/src/core/lv_indev.c ****             lv_obj_t * child = obj->spec_attr->children[i];
 1409              		.loc 1 318 41 is_stmt 1 discriminator 2 view .LVU429
 1410              	.LBB159:
 321:Drivers/lvgl/src/core/lv_indev.c ****         }
 1411              		.loc 1 321 13 view .LVU430
 1412              	.LBE159:
 318:Drivers/lvgl/src/core/lv_indev.c ****             lv_obj_t * child = obj->spec_attr->children[i];
 1413              		.loc 1 318 41 is_stmt 0 discriminator 2 view .LVU431
 1414 0054 013D     		subs	r5, r5, #1
 1415              	.LVL94:
 318:Drivers/lvgl/src/core/lv_indev.c ****             lv_obj_t * child = obj->spec_attr->children[i];
 1416              		.loc 1 318 34 is_stmt 1 discriminator 1 view .LVU432
 1417              	.LBB160:
 321:Drivers/lvgl/src/core/lv_indev.c ****         }
 1418              		.loc 1 321 15 is_stmt 0 view .LVU433
 1419 0056 18B9     		cbnz	r0, .L147
 1420              	.LBE160:
 318:Drivers/lvgl/src/core/lv_indev.c ****             lv_obj_t * child = obj->spec_attr->children[i];
 1421              		.loc 1 318 34 discriminator 1 view .LVU434
 1422 0058 6B1C     		adds	r3, r5, #1
 1423 005a F4D1     		bne	.L151
 1424              	.LVL95:
 1425              	.L152:
 318:Drivers/lvgl/src/core/lv_indev.c ****             lv_obj_t * child = obj->spec_attr->children[i];
 1426              		.loc 1 318 34 discriminator 1 view .LVU435
 1427              	.LBE157:
 327:Drivers/lvgl/src/core/lv_indev.c ****     else return NULL;
 1428              		.loc 1 327 5 is_stmt 1 view .LVU436
 327:Drivers/lvgl/src/core/lv_indev.c ****     else return NULL;
 1429              		.loc 1 327 7 is_stmt 0 view .LVU437
 1430 005c 7EB1     		cbz	r6, .L154
 327:Drivers/lvgl/src/core/lv_indev.c ****     else return NULL;
 1431              		.loc 1 327 28 discriminator 1 view .LVU438
 1432 005e 2046     		mov	r0, r4
 1433              	.L147:
 329:Drivers/lvgl/src/core/lv_indev.c **** 
 1434              		.loc 1 329 1 view .LVU439
 1435 0060 02B0     		add	sp, sp, #8
 1436              		.cfi_remember_state
 1437              		.cfi_def_cfa_offset 16
 1438              		@ sp needed
 1439 0062 70BD     		pop	{r4, r5, r6, pc}
 1440              	.LVL96:
 1441              	.L150:
ARM GAS  /var/folders/lp/x54gwt890xv47sdkqj1k04q40000gn/T//ccfgQDQQ.s 			page 55


 1442              		.cfi_restore_state
 313:Drivers/lvgl/src/core/lv_indev.c ****         int32_t i;
 1443              		.loc 1 313 59 discriminator 1 view .LVU440
 1444 0064 4FF40021 		mov	r1, #524288
 1445 0068 2046     		mov	r0, r4
 1446 006a FFF7FEFF 		bl	lv_obj_has_flag
 1447              	.LVL97:
 313:Drivers/lvgl/src/core/lv_indev.c ****         int32_t i;
 1448              		.loc 1 313 56 discriminator 1 view .LVU441
 1449 006e 0028     		cmp	r0, #0
 1450 0070 F4D0     		beq	.L152
 1451              	.LBB161:
 314:Drivers/lvgl/src/core/lv_indev.c ****         uint32_t child_cnt = lv_obj_get_child_cnt(obj);
 1452              		.loc 1 314 9 is_stmt 1 view .LVU442
 315:Drivers/lvgl/src/core/lv_indev.c **** 
 1453              		.loc 1 315 9 view .LVU443
 315:Drivers/lvgl/src/core/lv_indev.c **** 
 1454              		.loc 1 315 30 is_stmt 0 view .LVU444
 1455 0072 2046     		mov	r0, r4
 1456 0074 FFF7FEFF 		bl	lv_obj_get_child_cnt
 1457              	.LVL98:
 318:Drivers/lvgl/src/core/lv_indev.c ****             lv_obj_t * child = obj->spec_attr->children[i];
 1458              		.loc 1 318 9 is_stmt 1 view .LVU445
 318:Drivers/lvgl/src/core/lv_indev.c ****             lv_obj_t * child = obj->spec_attr->children[i];
 1459              		.loc 1 318 34 discriminator 1 view .LVU446
 1460 0078 451E     		subs	r5, r0, #1
 1461              	.LVL99:
 318:Drivers/lvgl/src/core/lv_indev.c ****             lv_obj_t * child = obj->spec_attr->children[i];
 1462              		.loc 1 318 34 is_stmt 0 discriminator 1 view .LVU447
 1463 007a E4D5     		bpl	.L151
 1464 007c EEE7     		b	.L152
 1465              	.LVL100:
 1466              	.L154:
 318:Drivers/lvgl/src/core/lv_indev.c ****             lv_obj_t * child = obj->spec_attr->children[i];
 1467              		.loc 1 318 34 discriminator 1 view .LVU448
 1468              	.LBE161:
 305:Drivers/lvgl/src/core/lv_indev.c **** 
 1469              		.loc 1 305 57 discriminator 1 view .LVU449
 1470 007e 0020     		movs	r0, #0
 329:Drivers/lvgl/src/core/lv_indev.c **** 
 1471              		.loc 1 329 1 view .LVU450
 1472 0080 02B0     		add	sp, sp, #8
 1473              		.cfi_def_cfa_offset 16
 1474              		@ sp needed
 1475 0082 70BD     		pop	{r4, r5, r6, pc}
 329:Drivers/lvgl/src/core/lv_indev.c **** 
 1476              		.loc 1 329 1 view .LVU451
 1477              		.cfi_endproc
 1478              	.LFE185:
 1480              		.section	.text.indev_proc_press,"ax",%progbits
 1481              		.align	1
 1482              		.p2align 2,,3
 1483              		.syntax unified
 1484              		.thumb
 1485              		.thumb_func
 1487              	indev_proc_press:
 1488              	.LVL101:
ARM GAS  /var/folders/lp/x54gwt890xv47sdkqj1k04q40000gn/T//ccfgQDQQ.s 			page 56


 1489              	.LFB190:
 818:Drivers/lvgl/src/core/lv_indev.c ****     LV_LOG_INFO("pressed at x:%d y:%d", proc->types.pointer.act_point.x, proc->types.pointer.act_po
 1490              		.loc 1 818 1 is_stmt 1 view -0
 1491              		.cfi_startproc
 1492              		@ args = 0, pretend = 0, frame = 0
 1493              		@ frame_needed = 0, uses_anonymous_args = 0
 819:Drivers/lvgl/src/core/lv_indev.c ****     indev_obj_act = proc->types.pointer.act_obj;
 1494              		.loc 1 819 5 view .LVU453
 819:Drivers/lvgl/src/core/lv_indev.c ****     indev_obj_act = proc->types.pointer.act_obj;
 1495              		.loc 1 819 5 view .LVU454
 819:Drivers/lvgl/src/core/lv_indev.c ****     indev_obj_act = proc->types.pointer.act_obj;
 1496              		.loc 1 819 5 view .LVU455
 820:Drivers/lvgl/src/core/lv_indev.c **** 
 1497              		.loc 1 820 5 view .LVU456
 822:Drivers/lvgl/src/core/lv_indev.c **** 
 1498              		.loc 1 822 33 is_stmt 0 view .LVU457
 1499 0000 4378     		ldrb	r3, [r0, #1]	@ zero_extendqisi2
 818:Drivers/lvgl/src/core/lv_indev.c ****     LV_LOG_INFO("pressed at x:%d y:%d", proc->types.pointer.act_point.x, proc->types.pointer.act_po
 1500              		.loc 1 818 1 view .LVU458
 1501 0002 2DE9F047 		push	{r4, r5, r6, r7, r8, r9, r10, lr}
 1502              		.cfi_def_cfa_offset 32
 1503              		.cfi_offset 4, -32
 1504              		.cfi_offset 5, -28
 1505              		.cfi_offset 6, -24
 1506              		.cfi_offset 7, -20
 1507              		.cfi_offset 8, -16
 1508              		.cfi_offset 9, -12
 1509              		.cfi_offset 10, -8
 1510              		.cfi_offset 14, -4
 820:Drivers/lvgl/src/core/lv_indev.c **** 
 1511              		.loc 1 820 19 view .LVU459
 1512 0006 734D     		ldr	r5, .L324
 818:Drivers/lvgl/src/core/lv_indev.c ****     LV_LOG_INFO("pressed at x:%d y:%d", proc->types.pointer.act_point.x, proc->types.pointer.act_po
 1513              		.loc 1 818 1 view .LVU460
 1514 0008 0446     		mov	r4, r0
 822:Drivers/lvgl/src/core/lv_indev.c **** 
 1515              		.loc 1 822 7 view .LVU461
 1516 000a 1E07     		lsls	r6, r3, #28
 820:Drivers/lvgl/src/core/lv_indev.c **** 
 1517              		.loc 1 820 40 view .LVU462
 1518 000c 406A     		ldr	r0, [r0, #36]
 1519              	.LVL102:
 820:Drivers/lvgl/src/core/lv_indev.c **** 
 1520              		.loc 1 820 19 view .LVU463
 1521 000e 2860     		str	r0, [r5]
 822:Drivers/lvgl/src/core/lv_indev.c **** 
 1522              		.loc 1 822 5 is_stmt 1 view .LVU464
 822:Drivers/lvgl/src/core/lv_indev.c **** 
 1523              		.loc 1 822 7 is_stmt 0 view .LVU465
 1524 0010 3BD4     		bmi	.L162
 824:Drivers/lvgl/src/core/lv_indev.c ****     bool new_obj_searched = false;
 1525              		.loc 1 824 5 is_stmt 1 view .LVU466
 824:Drivers/lvgl/src/core/lv_indev.c ****     bool new_obj_searched = false;
 1526              		.loc 1 824 33 is_stmt 0 view .LVU467
 1527 0012 714E     		ldr	r6, .L324+4
 1528 0014 3368     		ldr	r3, [r6]
 824:Drivers/lvgl/src/core/lv_indev.c ****     bool new_obj_searched = false;
ARM GAS  /var/folders/lp/x54gwt890xv47sdkqj1k04q40000gn/T//ccfgQDQQ.s 			page 57


 1529              		.loc 1 824 17 view .LVU468
 1530 0016 1B68     		ldr	r3, [r3]
 1531 0018 1F69     		ldr	r7, [r3, #16]
 1532              	.LVL103:
 825:Drivers/lvgl/src/core/lv_indev.c **** 
 1533              		.loc 1 825 5 is_stmt 1 view .LVU469
 828:Drivers/lvgl/src/core/lv_indev.c ****         indev_obj_act = lv_indev_search_obj(lv_disp_get_layer_sys(disp), &proc->types.pointer.act_p
 1534              		.loc 1 828 5 view .LVU470
 828:Drivers/lvgl/src/core/lv_indev.c ****         indev_obj_act = lv_indev_search_obj(lv_disp_get_layer_sys(disp), &proc->types.pointer.act_p
 1535              		.loc 1 828 7 is_stmt 0 view .LVU471
 1536 001a 0028     		cmp	r0, #0
 1537 001c 00F05181 		beq	.L170
 837:Drivers/lvgl/src/core/lv_indev.c ****             lv_obj_has_flag(indev_obj_act, LV_OBJ_FLAG_PRESS_LOCK) == false) {
 1538              		.loc 1 837 10 is_stmt 1 view .LVU472
 837:Drivers/lvgl/src/core/lv_indev.c ****             lv_obj_has_flag(indev_obj_act, LV_OBJ_FLAG_PRESS_LOCK) == false) {
 1539              		.loc 1 837 12 is_stmt 0 view .LVU473
 1540 0020 E36A     		ldr	r3, [r4, #44]
 1541 0022 002B     		cmp	r3, #0
 1542 0024 38D0     		beq	.L316
 1543              	.LVL104:
 1544              	.L169:
 900:Drivers/lvgl/src/core/lv_indev.c ****     proc->types.pointer.vect.y = proc->types.pointer.act_point.y - proc->types.pointer.last_point.y
 1545              		.loc 1 900 5 is_stmt 1 view .LVU474
 900:Drivers/lvgl/src/core/lv_indev.c ****     proc->types.pointer.vect.y = proc->types.pointer.act_point.y - proc->types.pointer.last_point.y
 1546              		.loc 1 900 66 is_stmt 0 view .LVU475
 1547 0026 A389     		ldrh	r3, [r4, #12]
 1548 0028 A188     		ldrh	r1, [r4, #4]
 901:Drivers/lvgl/src/core/lv_indev.c **** 
 1549              		.loc 1 901 66 view .LVU476
 1550 002a E288     		ldrh	r2, [r4, #6]
 900:Drivers/lvgl/src/core/lv_indev.c ****     proc->types.pointer.vect.y = proc->types.pointer.act_point.y - proc->types.pointer.last_point.y
 1551              		.loc 1 900 66 view .LVU477
 1552 002c C91A     		subs	r1, r1, r3
 901:Drivers/lvgl/src/core/lv_indev.c **** 
 1553              		.loc 1 901 66 view .LVU478
 1554 002e E389     		ldrh	r3, [r4, #14]
 1555 0030 D21A     		subs	r2, r2, r3
 903:Drivers/lvgl/src/core/lv_indev.c ****     proc->types.pointer.scroll_throw_vect.y = (proc->types.pointer.scroll_throw_vect.y + proc->type
 1556              		.loc 1 903 85 view .LVU479
 1557 0032 B4F91C30 		ldrsh	r3, [r4, #28]
 900:Drivers/lvgl/src/core/lv_indev.c ****     proc->types.pointer.vect.y = proc->types.pointer.act_point.y - proc->types.pointer.last_point.y
 1558              		.loc 1 900 66 view .LVU480
 1559 0036 09B2     		sxth	r1, r1
 903:Drivers/lvgl/src/core/lv_indev.c ****     proc->types.pointer.scroll_throw_vect.y = (proc->types.pointer.scroll_throw_vect.y + proc->type
 1560              		.loc 1 903 88 view .LVU481
 1561 0038 0B44     		add	r3, r3, r1
 903:Drivers/lvgl/src/core/lv_indev.c ****     proc->types.pointer.scroll_throw_vect.y = (proc->types.pointer.scroll_throw_vect.y + proc->type
 1562              		.loc 1 903 118 view .LVU482
 1563 003a 03EBD373 		add	r3, r3, r3, lsr #31
 1564 003e 5B10     		asrs	r3, r3, #1
 903:Drivers/lvgl/src/core/lv_indev.c ****     proc->types.pointer.scroll_throw_vect.y = (proc->types.pointer.scroll_throw_vect.y + proc->type
 1565              		.loc 1 903 45 view .LVU483
 1566 0040 A383     		strh	r3, [r4, #28]	@ movhi
 904:Drivers/lvgl/src/core/lv_indev.c **** 
 1567              		.loc 1 904 85 view .LVU484
 1568 0042 B4F91E30 		ldrsh	r3, [r4, #30]
 900:Drivers/lvgl/src/core/lv_indev.c ****     proc->types.pointer.vect.y = proc->types.pointer.act_point.y - proc->types.pointer.last_point.y
ARM GAS  /var/folders/lp/x54gwt890xv47sdkqj1k04q40000gn/T//ccfgQDQQ.s 			page 58


 1569              		.loc 1 900 32 view .LVU485
 1570 0046 A182     		strh	r1, [r4, #20]	@ movhi
 901:Drivers/lvgl/src/core/lv_indev.c **** 
 1571              		.loc 1 901 5 is_stmt 1 view .LVU486
 901:Drivers/lvgl/src/core/lv_indev.c **** 
 1572              		.loc 1 901 66 is_stmt 0 view .LVU487
 1573 0048 12B2     		sxth	r2, r2
 904:Drivers/lvgl/src/core/lv_indev.c **** 
 1574              		.loc 1 904 88 view .LVU488
 1575 004a 1344     		add	r3, r3, r2
 904:Drivers/lvgl/src/core/lv_indev.c **** 
 1576              		.loc 1 904 118 view .LVU489
 1577 004c 03EBD373 		add	r3, r3, r3, lsr #31
 1578 0050 5B10     		asrs	r3, r3, #1
 904:Drivers/lvgl/src/core/lv_indev.c **** 
 1579              		.loc 1 904 45 view .LVU490
 1580 0052 E383     		strh	r3, [r4, #30]	@ movhi
 906:Drivers/lvgl/src/core/lv_indev.c **** 
 1581              		.loc 1 906 47 view .LVU491
 1582 0054 E369     		ldr	r3, [r4, #28]
 901:Drivers/lvgl/src/core/lv_indev.c **** 
 1583              		.loc 1 901 32 view .LVU492
 1584 0056 E282     		strh	r2, [r4, #22]	@ movhi
 903:Drivers/lvgl/src/core/lv_indev.c ****     proc->types.pointer.scroll_throw_vect.y = (proc->types.pointer.scroll_throw_vect.y + proc->type
 1585              		.loc 1 903 5 is_stmt 1 view .LVU493
 904:Drivers/lvgl/src/core/lv_indev.c **** 
 1586              		.loc 1 904 5 view .LVU494
 906:Drivers/lvgl/src/core/lv_indev.c **** 
 1587              		.loc 1 906 5 view .LVU495
 906:Drivers/lvgl/src/core/lv_indev.c **** 
 1588              		.loc 1 906 47 is_stmt 0 view .LVU496
 1589 0058 2362     		str	r3, [r4, #32]
 908:Drivers/lvgl/src/core/lv_indev.c ****         lv_event_send(indev_obj_act, LV_EVENT_PRESSING, indev_act);
 1590              		.loc 1 908 5 is_stmt 1 view .LVU497
 908:Drivers/lvgl/src/core/lv_indev.c ****         lv_event_send(indev_obj_act, LV_EVENT_PRESSING, indev_act);
 1591              		.loc 1 908 7 is_stmt 0 view .LVU498
 1592 005a B0B1     		cbz	r0, .L162
 909:Drivers/lvgl/src/core/lv_indev.c ****         if(indev_reset_check(proc)) return;
 1593              		.loc 1 909 9 is_stmt 1 view .LVU499
 1594 005c 3268     		ldr	r2, [r6]
 1595 005e 0221     		movs	r1, #2
 1596 0060 FFF7FEFF 		bl	lv_event_send
 1597              	.LVL105:
 910:Drivers/lvgl/src/core/lv_indev.c **** 
 1598              		.loc 1 910 9 view .LVU500
 1599              	.LBB203:
 1600              	.LBI203:
1173:Drivers/lvgl/src/core/lv_indev.c **** {
 1601              		.loc 1 1173 13 view .LVU501
 1602              	.LBB204:
1175:Drivers/lvgl/src/core/lv_indev.c ****         indev_obj_act = NULL;
 1603              		.loc 1 1175 5 view .LVU502
1175:Drivers/lvgl/src/core/lv_indev.c ****         indev_obj_act = NULL;
 1604              		.loc 1 1175 8 is_stmt 0 view .LVU503
 1605 0064 6378     		ldrb	r3, [r4, #1]	@ zero_extendqisi2
1175:Drivers/lvgl/src/core/lv_indev.c ****         indev_obj_act = NULL;
 1606              		.loc 1 1175 7 view .LVU504
ARM GAS  /var/folders/lp/x54gwt890xv47sdkqj1k04q40000gn/T//ccfgQDQQ.s 			page 59


 1607 0066 13F0020F 		tst	r3, #2
 1608 006a 10D1     		bne	.L317
 1609              	.LVL106:
 1610              	.L300:
1175:Drivers/lvgl/src/core/lv_indev.c ****         indev_obj_act = NULL;
 1611              		.loc 1 1175 7 view .LVU505
 1612              	.LBE204:
 1613              	.LBE203:
 912:Drivers/lvgl/src/core/lv_indev.c **** 
 1614              		.loc 1 912 9 is_stmt 1 view .LVU506
 912:Drivers/lvgl/src/core/lv_indev.c **** 
 1615              		.loc 1 912 12 is_stmt 0 view .LVU507
 1616 006c 3368     		ldr	r3, [r6]
 1617 006e 5B79     		ldrb	r3, [r3, #5]	@ zero_extendqisi2
 912:Drivers/lvgl/src/core/lv_indev.c **** 
 1618              		.loc 1 912 11 view .LVU508
 1619 0070 13F00807 		ands	r7, r3, #8
 1620 0074 09D1     		bne	.L162
 914:Drivers/lvgl/src/core/lv_indev.c ****         if(indev_reset_check(proc)) return;
 1621              		.loc 1 914 9 is_stmt 1 view .LVU509
 1622 0076 2046     		mov	r0, r4
 1623 0078 FFF7FEFF 		bl	_lv_indev_scroll_handler
 1624              	.LVL107:
 915:Drivers/lvgl/src/core/lv_indev.c ****         indev_gesture(proc);
 1625              		.loc 1 915 9 view .LVU510
 1626              	.LBB206:
 1627              	.LBI206:
1173:Drivers/lvgl/src/core/lv_indev.c **** {
 1628              		.loc 1 1173 13 view .LVU511
 1629              	.LBB207:
1175:Drivers/lvgl/src/core/lv_indev.c ****         indev_obj_act = NULL;
 1630              		.loc 1 1175 5 view .LVU512
1175:Drivers/lvgl/src/core/lv_indev.c ****         indev_obj_act = NULL;
 1631              		.loc 1 1175 8 is_stmt 0 view .LVU513
 1632 007c 6278     		ldrb	r2, [r4, #1]	@ zero_extendqisi2
1175:Drivers/lvgl/src/core/lv_indev.c ****         indev_obj_act = NULL;
 1633              		.loc 1 1175 7 view .LVU514
 1634 007e 12F00201 		ands	r1, r2, #2
 1635 0082 2DD0     		beq	.L311
1176:Drivers/lvgl/src/core/lv_indev.c ****     }
 1636              		.loc 1 1176 9 is_stmt 1 view .LVU515
 1637              	.LBE207:
 1638              	.LBE206:
 915:Drivers/lvgl/src/core/lv_indev.c ****         indev_gesture(proc);
 1639              		.loc 1 915 11 is_stmt 0 discriminator 1 view .LVU516
 1640 0084 9307     		lsls	r3, r2, #30
 1641              	.LBB209:
 1642              	.LBB208:
1176:Drivers/lvgl/src/core/lv_indev.c ****     }
 1643              		.loc 1 1176 23 view .LVU517
 1644 0086 2F60     		str	r7, [r5]
 1645              		.loc 1 1179 5 is_stmt 1 view .LVU518
 1646              	.LVL108:
 1647              		.loc 1 1179 5 is_stmt 0 view .LVU519
 1648              	.LBE208:
 1649              	.LBE209:
 915:Drivers/lvgl/src/core/lv_indev.c ****         indev_gesture(proc);
ARM GAS  /var/folders/lp/x54gwt890xv47sdkqj1k04q40000gn/T//ccfgQDQQ.s 			page 60


 1650              		.loc 1 915 11 discriminator 1 view .LVU520
 1651 0088 2AD5     		bpl	.L311
 1652              	.LVL109:
 1653              	.L162:
 944:Drivers/lvgl/src/core/lv_indev.c **** 
 1654              		.loc 1 944 1 view .LVU521
 1655 008a BDE8F087 		pop	{r4, r5, r6, r7, r8, r9, r10, pc}
 1656              	.LVL110:
 1657              	.L317:
 1658              	.LBB210:
 1659              	.LBB205:
1176:Drivers/lvgl/src/core/lv_indev.c ****     }
 1660              		.loc 1 1176 9 is_stmt 1 view .LVU522
1176:Drivers/lvgl/src/core/lv_indev.c ****     }
 1661              		.loc 1 1176 23 is_stmt 0 view .LVU523
 1662 008e 4FF00002 		mov	r2, #0
 1663 0092 2A60     		str	r2, [r5]
 1664              		.loc 1 1179 5 is_stmt 1 view .LVU524
 1665              	.LVL111:
 1666              		.loc 1 1179 5 is_stmt 0 view .LVU525
 1667              	.LBE205:
 1668              	.LBE210:
 910:Drivers/lvgl/src/core/lv_indev.c **** 
 1669              		.loc 1 910 11 discriminator 1 view .LVU526
 1670 0094 F9D1     		bne	.L162
 1671 0096 E9E7     		b	.L300
 1672              	.LVL112:
 1673              	.L316:
 838:Drivers/lvgl/src/core/lv_indev.c ****         indev_obj_act = lv_indev_search_obj(lv_disp_get_layer_sys(disp), &proc->types.pointer.act_p
 1674              		.loc 1 838 13 view .LVU527
 1675 0098 4FF40051 		mov	r1, #8192
 1676 009c FFF7FEFF 		bl	lv_obj_has_flag
 1677              	.LVL113:
 837:Drivers/lvgl/src/core/lv_indev.c ****             lv_obj_has_flag(indev_obj_act, LV_OBJ_FLAG_PRESS_LOCK) == false) {
 1678              		.loc 1 837 52 discriminator 1 view .LVU528
 1679 00a0 0028     		cmp	r0, #0
 1680 00a2 00F00E81 		beq	.L170
 1681              	.LVL114:
 1682              	.L172:
 856:Drivers/lvgl/src/core/lv_indev.c ****         proc->types.pointer.last_point.x = proc->types.pointer.act_point.x;
 1683              		.loc 1 856 5 is_stmt 1 view .LVU529
 856:Drivers/lvgl/src/core/lv_indev.c ****         proc->types.pointer.last_point.x = proc->types.pointer.act_point.x;
 1684              		.loc 1 856 44 is_stmt 0 view .LVU530
 1685 00a6 636A     		ldr	r3, [r4, #36]
 856:Drivers/lvgl/src/core/lv_indev.c ****         proc->types.pointer.last_point.x = proc->types.pointer.act_point.x;
 1686              		.loc 1 856 22 view .LVU531
 1687 00a8 2868     		ldr	r0, [r5]
 857:Drivers/lvgl/src/core/lv_indev.c ****         proc->types.pointer.last_point.y = proc->types.pointer.act_point.y;
 1688              		.loc 1 857 73 view .LVU532
 1689 00aa 6268     		ldr	r2, [r4, #4]
 856:Drivers/lvgl/src/core/lv_indev.c ****         proc->types.pointer.last_point.x = proc->types.pointer.act_point.x;
 1690              		.loc 1 856 7 view .LVU533
 1691 00ac 8342     		cmp	r3, r0
 1692 00ae BAD0     		beq	.L169
 857:Drivers/lvgl/src/core/lv_indev.c ****         proc->types.pointer.last_point.y = proc->types.pointer.act_point.y;
 1693              		.loc 1 857 9 is_stmt 1 view .LVU534
 858:Drivers/lvgl/src/core/lv_indev.c **** 
ARM GAS  /var/folders/lp/x54gwt890xv47sdkqj1k04q40000gn/T//ccfgQDQQ.s 			page 61


 1694              		.loc 1 858 9 view .LVU535
 857:Drivers/lvgl/src/core/lv_indev.c ****         proc->types.pointer.last_point.y = proc->types.pointer.act_point.y;
 1695              		.loc 1 857 42 is_stmt 0 view .LVU536
 1696 00b0 E260     		str	r2, [r4, #12]
 861:Drivers/lvgl/src/core/lv_indev.c ****             /*Save the obj because in special cases `act_obj` can change in the Call the ancestor's
 1697              		.loc 1 861 9 is_stmt 1 view .LVU537
 861:Drivers/lvgl/src/core/lv_indev.c ****             /*Save the obj because in special cases `act_obj` can change in the Call the ancestor's
 1698              		.loc 1 861 11 is_stmt 0 view .LVU538
 1699 00b2 002B     		cmp	r3, #0
 1700 00b4 00F09380 		beq	.L175
 1701              	.LBB211:
 863:Drivers/lvgl/src/core/lv_indev.c **** 
 1702              		.loc 1 863 13 is_stmt 1 view .LVU539
 1703              	.LVL115:
 865:Drivers/lvgl/src/core/lv_indev.c ****             if(indev_reset_check(proc)) return;
 1704              		.loc 1 865 13 view .LVU540
 1705 00b8 1846     		mov	r0, r3
 1706 00ba 3268     		ldr	r2, [r6]
 1707 00bc 0321     		movs	r1, #3
 1708 00be FFF7FEFF 		bl	lv_event_send
 1709              	.LVL116:
 866:Drivers/lvgl/src/core/lv_indev.c ****         }
 1710              		.loc 1 866 13 view .LVU541
 1711              	.LBB212:
 1712              	.LBI212:
1173:Drivers/lvgl/src/core/lv_indev.c **** {
 1713              		.loc 1 1173 13 view .LVU542
 1714              	.LBB213:
1175:Drivers/lvgl/src/core/lv_indev.c ****         indev_obj_act = NULL;
 1715              		.loc 1 1175 5 view .LVU543
1175:Drivers/lvgl/src/core/lv_indev.c ****         indev_obj_act = NULL;
 1716              		.loc 1 1175 8 is_stmt 0 view .LVU544
 1717 00c2 6378     		ldrb	r3, [r4, #1]	@ zero_extendqisi2
1175:Drivers/lvgl/src/core/lv_indev.c ****         indev_obj_act = NULL;
 1718              		.loc 1 1175 7 view .LVU545
 1719 00c4 13F0020F 		tst	r3, #2
 1720 00c8 00F08880 		beq	.L176
1176:Drivers/lvgl/src/core/lv_indev.c ****     }
 1721              		.loc 1 1176 9 is_stmt 1 view .LVU546
1176:Drivers/lvgl/src/core/lv_indev.c ****     }
 1722              		.loc 1 1176 23 is_stmt 0 view .LVU547
 1723 00cc 4FF00002 		mov	r2, #0
 1724 00d0 2A60     		str	r2, [r5]
 1725              		.loc 1 1179 5 is_stmt 1 view .LVU548
 1726              	.LVL117:
 1727              		.loc 1 1179 5 is_stmt 0 view .LVU549
 1728              	.LBE213:
 1729              	.LBE212:
 866:Drivers/lvgl/src/core/lv_indev.c ****         }
 1730              		.loc 1 866 15 discriminator 1 view .LVU550
 1731 00d2 C3F34002 		ubfx	r2, r3, #1, #1
 1732 00d6 D8D1     		bne	.L162
 1733              	.LBE211:
 869:Drivers/lvgl/src/core/lv_indev.c ****         proc->types.pointer.last_obj = indev_obj_act;
 1734              		.loc 1 869 9 is_stmt 1 view .LVU551
 870:Drivers/lvgl/src/core/lv_indev.c **** 
 1735              		.loc 1 870 38 is_stmt 0 view .LVU552
ARM GAS  /var/folders/lp/x54gwt890xv47sdkqj1k04q40000gn/T//ccfgQDQQ.s 			page 62


 1736 00d8 C4E90922 		strd	r2, r2, [r4, #36]
 872:Drivers/lvgl/src/core/lv_indev.c ****             /*Save the time when the obj pressed to count long press time.*/
 1737              		.loc 1 872 9 is_stmt 1 view .LVU553
 1738              	.LVL118:
 1739              	.L227:
 818:Drivers/lvgl/src/core/lv_indev.c ****     LV_LOG_INFO("pressed at x:%d y:%d", proc->types.pointer.act_point.x, proc->types.pointer.act_po
 1740              		.loc 1 818 1 is_stmt 0 view .LVU554
 1741 00dc 0020     		movs	r0, #0
 1742 00de A2E7     		b	.L169
 1743              	.L311:
 916:Drivers/lvgl/src/core/lv_indev.c ****         if(indev_reset_check(proc)) return;
 1744              		.loc 1 916 9 is_stmt 1 view .LVU555
 1745              	.LVL119:
 1746              	.LBB216:
 1747              	.LBI216:
1120:Drivers/lvgl/src/core/lv_indev.c **** {
 1748              		.loc 1 1120 6 view .LVU556
 1749              	.LBB217:
1123:Drivers/lvgl/src/core/lv_indev.c ****     if(proc->types.pointer.gesture_sent) return;
 1750              		.loc 1 1123 5 view .LVU557
1123:Drivers/lvgl/src/core/lv_indev.c ****     if(proc->types.pointer.gesture_sent) return;
 1751              		.loc 1 1123 7 is_stmt 0 view .LVU558
 1752 00e0 E36A     		ldr	r3, [r4, #44]
 1753 00e2 002B     		cmp	r3, #0
 1754 00e4 D1D1     		bne	.L162
1124:Drivers/lvgl/src/core/lv_indev.c **** 
 1755              		.loc 1 1124 5 is_stmt 1 view .LVU559
1124:Drivers/lvgl/src/core/lv_indev.c **** 
 1756              		.loc 1 1124 8 is_stmt 0 view .LVU560
 1757 00e6 94F84130 		ldrb	r3, [r4, #65]	@ zero_extendqisi2
1124:Drivers/lvgl/src/core/lv_indev.c **** 
 1758              		.loc 1 1124 7 view .LVU561
 1759 00ea DF07     		lsls	r7, r3, #31
 1760 00ec 00F14181 		bmi	.L207
1126:Drivers/lvgl/src/core/lv_indev.c **** 
 1761              		.loc 1 1126 5 is_stmt 1 view .LVU562
1126:Drivers/lvgl/src/core/lv_indev.c **** 
 1762              		.loc 1 1126 16 is_stmt 0 view .LVU563
 1763 00f0 676A     		ldr	r7, [r4, #36]
 1764              	.LVL120:
1129:Drivers/lvgl/src/core/lv_indev.c ****         gesture_obj = lv_obj_get_parent(gesture_obj);
 1765              		.loc 1 1129 5 is_stmt 1 view .LVU564
1129:Drivers/lvgl/src/core/lv_indev.c ****         gesture_obj = lv_obj_get_parent(gesture_obj);
 1766              		.loc 1 1129 23 view .LVU565
 1767 00f2 2FB9     		cbnz	r7, .L208
 1768 00f4 3DE1     		b	.L207
 1769              	.LVL121:
 1770              	.L210:
1130:Drivers/lvgl/src/core/lv_indev.c ****     }
 1771              		.loc 1 1130 23 is_stmt 0 view .LVU566
 1772 00f6 FFF7FEFF 		bl	lv_obj_get_parent
 1773              	.LVL122:
1129:Drivers/lvgl/src/core/lv_indev.c ****         gesture_obj = lv_obj_get_parent(gesture_obj);
 1774              		.loc 1 1129 23 is_stmt 1 view .LVU567
 1775 00fa 0746     		mov	r7, r0
 1776 00fc 0028     		cmp	r0, #0
 1777 00fe 3AD0     		beq	.L209
ARM GAS  /var/folders/lp/x54gwt890xv47sdkqj1k04q40000gn/T//ccfgQDQQ.s 			page 63


 1778              	.LVL123:
 1779              	.L208:
1129:Drivers/lvgl/src/core/lv_indev.c ****         gesture_obj = lv_obj_get_parent(gesture_obj);
 1780              		.loc 1 1129 26 is_stmt 0 discriminator 1 view .LVU568
 1781 0100 4FF40041 		mov	r1, #32768
 1782 0104 3846     		mov	r0, r7
 1783 0106 FFF7FEFF 		bl	lv_obj_has_flag
 1784              	.LVL124:
1130:Drivers/lvgl/src/core/lv_indev.c ****     }
 1785              		.loc 1 1130 9 is_stmt 1 view .LVU569
1129:Drivers/lvgl/src/core/lv_indev.c ****         gesture_obj = lv_obj_get_parent(gesture_obj);
 1786              		.loc 1 1129 23 is_stmt 0 discriminator 1 view .LVU570
 1787 010a 0346     		mov	r3, r0
1130:Drivers/lvgl/src/core/lv_indev.c ****     }
 1788              		.loc 1 1130 23 view .LVU571
 1789 010c 3846     		mov	r0, r7
1129:Drivers/lvgl/src/core/lv_indev.c ****         gesture_obj = lv_obj_get_parent(gesture_obj);
 1790              		.loc 1 1129 23 discriminator 1 view .LVU572
 1791 010e 002B     		cmp	r3, #0
 1792 0110 F1D1     		bne	.L210
 1793              	.LVL125:
1133:Drivers/lvgl/src/core/lv_indev.c **** 
 1794              		.loc 1 1133 5 is_stmt 1 view .LVU573
1135:Drivers/lvgl/src/core/lv_indev.c ****        (LV_ABS(proc->types.pointer.vect.y) < indev_act->driver->gesture_min_velocity)) {
 1795              		.loc 1 1135 5 view .LVU574
1135:Drivers/lvgl/src/core/lv_indev.c ****        (LV_ABS(proc->types.pointer.vect.y) < indev_act->driver->gesture_min_velocity)) {
 1796              		.loc 1 1135 55 is_stmt 0 view .LVU575
 1797 0112 3268     		ldr	r2, [r6]
1135:Drivers/lvgl/src/core/lv_indev.c ****        (LV_ABS(proc->types.pointer.vect.y) < indev_act->driver->gesture_min_velocity)) {
 1798              		.loc 1 1135 9 view .LVU576
 1799 0114 B4F914C0 		ldrsh	ip, [r4, #20]
1135:Drivers/lvgl/src/core/lv_indev.c ****        (LV_ABS(proc->types.pointer.vect.y) < indev_act->driver->gesture_min_velocity)) {
 1800              		.loc 1 1135 55 view .LVU577
 1801 0118 1068     		ldr	r0, [r2]
 1802              	.LVL126:
1136:Drivers/lvgl/src/core/lv_indev.c ****         proc->types.pointer.gesture_sum.x = 0;
 1803              		.loc 1 1136 9 view .LVU578
 1804 011a B4F916E0 		ldrsh	lr, [r4, #22]
1135:Drivers/lvgl/src/core/lv_indev.c ****        (LV_ABS(proc->types.pointer.vect.y) < indev_act->driver->gesture_min_velocity)) {
 1805              		.loc 1 1135 44 view .LVU579
 1806 011e 90F81A80 		ldrb	r8, [r0, #26]	@ zero_extendqisi2
1135:Drivers/lvgl/src/core/lv_indev.c ****        (LV_ABS(proc->types.pointer.vect.y) < indev_act->driver->gesture_min_velocity)) {
 1807              		.loc 1 1135 9 view .LVU580
 1808 0122 8CEAEC71 		eor	r1, ip, ip, asr #31
 1809 0126 A1EBEC71 		sub	r1, r1, ip, asr #31
1135:Drivers/lvgl/src/core/lv_indev.c ****        (LV_ABS(proc->types.pointer.vect.y) < indev_act->driver->gesture_min_velocity)) {
 1810              		.loc 1 1135 7 view .LVU581
 1811 012a 89B2     		uxth	r1, r1
 1812 012c 4145     		cmp	r1, r8
 1813 012e 80F01D81 		bcs	.L213
1136:Drivers/lvgl/src/core/lv_indev.c ****         proc->types.pointer.gesture_sum.x = 0;
 1814              		.loc 1 1136 9 view .LVU582
 1815 0132 8EEAEE71 		eor	r1, lr, lr, asr #31
 1816 0136 A1EBEE71 		sub	r1, r1, lr, asr #31
1135:Drivers/lvgl/src/core/lv_indev.c ****        (LV_ABS(proc->types.pointer.vect.y) < indev_act->driver->gesture_min_velocity)) {
 1817              		.loc 1 1135 87 discriminator 1 view .LVU583
 1818 013a 89B2     		uxth	r1, r1
ARM GAS  /var/folders/lp/x54gwt890xv47sdkqj1k04q40000gn/T//ccfgQDQQ.s 			page 64


 1819 013c 8845     		cmp	r8, r1
 1820 013e 40F21581 		bls	.L213
 1821 0142 1946     		mov	r1, r3
 1822              	.L212:
1142:Drivers/lvgl/src/core/lv_indev.c ****     proc->types.pointer.gesture_sum.y += proc->types.pointer.vect.y;
 1823              		.loc 1 1142 5 is_stmt 1 view .LVU584
1142:Drivers/lvgl/src/core/lv_indev.c ****     proc->types.pointer.gesture_sum.y += proc->types.pointer.vect.y;
 1824              		.loc 1 1142 39 is_stmt 0 view .LVU585
 1825 0144 6144     		add	r1, r1, ip
1143:Drivers/lvgl/src/core/lv_indev.c **** 
 1826              		.loc 1 1143 39 view .LVU586
 1827 0146 7344     		add	r3, r3, lr
1142:Drivers/lvgl/src/core/lv_indev.c ****     proc->types.pointer.gesture_sum.y += proc->types.pointer.vect.y;
 1828              		.loc 1 1142 39 view .LVU587
 1829 0148 09B2     		sxth	r1, r1
1143:Drivers/lvgl/src/core/lv_indev.c **** 
 1830              		.loc 1 1143 39 view .LVU588
 1831 014a 1BB2     		sxth	r3, r3
1142:Drivers/lvgl/src/core/lv_indev.c ****     proc->types.pointer.gesture_sum.y += proc->types.pointer.vect.y;
 1832              		.loc 1 1142 39 view .LVU589
 1833 014c A187     		strh	r1, [r4, #60]	@ movhi
1143:Drivers/lvgl/src/core/lv_indev.c **** 
 1834              		.loc 1 1143 5 is_stmt 1 view .LVU590
1143:Drivers/lvgl/src/core/lv_indev.c **** 
 1835              		.loc 1 1143 39 is_stmt 0 view .LVU591
 1836 014e E387     		strh	r3, [r4, #62]	@ movhi
1145:Drivers/lvgl/src/core/lv_indev.c ****        (LV_ABS(proc->types.pointer.gesture_sum.y) > indev_act->driver->gesture_limit)) {
 1837              		.loc 1 1145 5 is_stmt 1 view .LVU592
1145:Drivers/lvgl/src/core/lv_indev.c ****        (LV_ABS(proc->types.pointer.gesture_sum.y) > indev_act->driver->gesture_limit)) {
 1838              		.loc 1 1145 51 is_stmt 0 view .LVU593
 1839 0150 90F81BE0 		ldrb	lr, [r0, #27]	@ zero_extendqisi2
1145:Drivers/lvgl/src/core/lv_indev.c ****        (LV_ABS(proc->types.pointer.gesture_sum.y) > indev_act->driver->gesture_limit)) {
 1840              		.loc 1 1145 9 view .LVU594
 1841 0154 81EAE170 		eor	r0, r1, r1, asr #31
 1842 0158 A0EBE170 		sub	r0, r0, r1, asr #31
 1843 015c 80B2     		uxth	r0, r0
1146:Drivers/lvgl/src/core/lv_indev.c **** 
 1844              		.loc 1 1146 9 view .LVU595
 1845 015e 83EAE37C 		eor	ip, r3, r3, asr #31
 1846 0162 ACEBE37C 		sub	ip, ip, r3, asr #31
1145:Drivers/lvgl/src/core/lv_indev.c ****        (LV_ABS(proc->types.pointer.gesture_sum.y) > indev_act->driver->gesture_limit)) {
 1847              		.loc 1 1145 7 view .LVU596
 1848 0166 7045     		cmp	r0, lr
1146:Drivers/lvgl/src/core/lv_indev.c **** 
 1849              		.loc 1 1146 9 view .LVU597
 1850 0168 1FFA8CFC 		uxth	ip, ip
1145:Drivers/lvgl/src/core/lv_indev.c ****        (LV_ABS(proc->types.pointer.gesture_sum.y) > indev_act->driver->gesture_limit)) {
 1851              		.loc 1 1145 7 view .LVU598
 1852 016c 00F2E380 		bhi	.L214
1145:Drivers/lvgl/src/core/lv_indev.c ****        (LV_ABS(proc->types.pointer.gesture_sum.y) > indev_act->driver->gesture_limit)) {
 1853              		.loc 1 1145 87 discriminator 1 view .LVU599
 1854 0170 E645     		cmp	lr, ip
 1855 0172 C0F0E080 		bcc	.L214
 1856              	.L209:
 1857              	.LVL127:
1145:Drivers/lvgl/src/core/lv_indev.c ****        (LV_ABS(proc->types.pointer.gesture_sum.y) > indev_act->driver->gesture_limit)) {
 1858              		.loc 1 1145 87 discriminator 1 view .LVU600
ARM GAS  /var/folders/lp/x54gwt890xv47sdkqj1k04q40000gn/T//ccfgQDQQ.s 			page 65


 1859              	.LBE217:
 1860              	.LBE216:
 917:Drivers/lvgl/src/core/lv_indev.c **** 
 1861              		.loc 1 917 9 is_stmt 1 view .LVU601
 1862              	.LBB223:
 1863              	.LBI223:
1173:Drivers/lvgl/src/core/lv_indev.c **** {
 1864              		.loc 1 1173 13 view .LVU602
 1865              	.LBB224:
1175:Drivers/lvgl/src/core/lv_indev.c ****         indev_obj_act = NULL;
 1866              		.loc 1 1175 5 view .LVU603
1175:Drivers/lvgl/src/core/lv_indev.c ****         indev_obj_act = NULL;
 1867              		.loc 1 1175 8 is_stmt 0 view .LVU604
 1868 0176 6278     		ldrb	r2, [r4, #1]	@ zero_extendqisi2
1175:Drivers/lvgl/src/core/lv_indev.c ****         indev_obj_act = NULL;
 1869              		.loc 1 1175 7 view .LVU605
 1870 0178 9107     		lsls	r1, r2, #30
 1871              		.loc 1 1179 37 view .LVU606
 1872 017a C2F34003 		ubfx	r3, r2, #1, #1
1175:Drivers/lvgl/src/core/lv_indev.c ****         indev_obj_act = NULL;
 1873              		.loc 1 1175 7 view .LVU607
 1874 017e 01D5     		bpl	.L217
 1875              	.L218:
1176:Drivers/lvgl/src/core/lv_indev.c ****     }
 1876              		.loc 1 1176 9 is_stmt 1 view .LVU608
1176:Drivers/lvgl/src/core/lv_indev.c ****     }
 1877              		.loc 1 1176 23 is_stmt 0 view .LVU609
 1878 0180 0021     		movs	r1, #0
 1879 0182 2960     		str	r1, [r5]
 1880              	.L217:
 1881              	.LVL128:
 1882              		.loc 1 1179 5 is_stmt 1 view .LVU610
 1883              	.LBE224:
 1884              	.LBE223:
 917:Drivers/lvgl/src/core/lv_indev.c **** 
 1885              		.loc 1 917 11 is_stmt 0 discriminator 1 view .LVU611
 1886 0184 002B     		cmp	r3, #0
 1887 0186 80D1     		bne	.L162
 1888              	.L312:
 920:Drivers/lvgl/src/core/lv_indev.c ****             /*Call the ancestor's event handler about the long press if enough time elapsed*/
 1889              		.loc 1 920 9 is_stmt 1 view .LVU612
 1890 0188 E36A     		ldr	r3, [r4, #44]
 920:Drivers/lvgl/src/core/lv_indev.c ****             /*Call the ancestor's event handler about the long press if enough time elapsed*/
 1891              		.loc 1 920 11 is_stmt 0 view .LVU613
 1892 018a 002B     		cmp	r3, #0
 1893 018c 7FF47DAF 		bne	.L162
 1894              	.L225:
 920:Drivers/lvgl/src/core/lv_indev.c ****             /*Call the ancestor's event handler about the long press if enough time elapsed*/
 1895              		.loc 1 920 51 discriminator 1 view .LVU614
 1896 0190 12F00107 		ands	r7, r2, #1
 1897 0194 00F02781 		beq	.L219
 1898              	.L223:
 935:Drivers/lvgl/src/core/lv_indev.c ****             /*Call the ancestor's event handler about the long press repeat if enough time elapsed*
 1899              		.loc 1 935 51 discriminator 1 view .LVU615
 1900 0198 D307     		lsls	r3, r2, #31
 1901 019a 7FF576AF 		bpl	.L162
 937:Drivers/lvgl/src/core/lv_indev.c ****                 lv_event_send(indev_obj_act, LV_EVENT_LONG_PRESSED_REPEAT, indev_act);
ARM GAS  /var/folders/lp/x54gwt890xv47sdkqj1k04q40000gn/T//ccfgQDQQ.s 			page 66


 1902              		.loc 1 937 13 is_stmt 1 view .LVU616
 937:Drivers/lvgl/src/core/lv_indev.c ****                 lv_event_send(indev_obj_act, LV_EVENT_LONG_PRESSED_REPEAT, indev_act);
 1903              		.loc 1 937 16 is_stmt 0 view .LVU617
 1904 019e A06C     		ldr	r0, [r4, #72]
 1905 01a0 FFF7FEFF 		bl	lv_tick_elaps
 1906              	.LVL129:
 937:Drivers/lvgl/src/core/lv_indev.c ****                 lv_event_send(indev_obj_act, LV_EVENT_LONG_PRESSED_REPEAT, indev_act);
 1907              		.loc 1 937 69 discriminator 1 view .LVU618
 1908 01a4 3268     		ldr	r2, [r6]
 937:Drivers/lvgl/src/core/lv_indev.c ****                 lv_event_send(indev_obj_act, LV_EVENT_LONG_PRESSED_REPEAT, indev_act);
 1909              		.loc 1 937 77 discriminator 1 view .LVU619
 1910 01a6 1368     		ldr	r3, [r2]
 937:Drivers/lvgl/src/core/lv_indev.c ****                 lv_event_send(indev_obj_act, LV_EVENT_LONG_PRESSED_REPEAT, indev_act);
 1911              		.loc 1 937 58 discriminator 1 view .LVU620
 1912 01a8 DB8B     		ldrh	r3, [r3, #30]
 937:Drivers/lvgl/src/core/lv_indev.c ****                 lv_event_send(indev_obj_act, LV_EVENT_LONG_PRESSED_REPEAT, indev_act);
 1913              		.loc 1 937 15 discriminator 1 view .LVU621
 1914 01aa 9842     		cmp	r0, r3
 1915 01ac 7FF66DAF 		bls	.L162
 938:Drivers/lvgl/src/core/lv_indev.c ****                 if(indev_reset_check(proc)) return;
 1916              		.loc 1 938 17 is_stmt 1 view .LVU622
 1917 01b0 2868     		ldr	r0, [r5]
 1918 01b2 0621     		movs	r1, #6
 1919 01b4 FFF7FEFF 		bl	lv_event_send
 1920              	.LVL130:
 939:Drivers/lvgl/src/core/lv_indev.c ****                 proc->longpr_rep_timestamp = lv_tick_get();
 1921              		.loc 1 939 17 view .LVU623
 1922              	.LBB227:
 1923              	.LBI227:
1173:Drivers/lvgl/src/core/lv_indev.c **** {
 1924              		.loc 1 1173 13 view .LVU624
 1925              	.LBB228:
1175:Drivers/lvgl/src/core/lv_indev.c ****         indev_obj_act = NULL;
 1926              		.loc 1 1175 5 view .LVU625
1175:Drivers/lvgl/src/core/lv_indev.c ****         indev_obj_act = NULL;
 1927              		.loc 1 1175 8 is_stmt 0 view .LVU626
 1928 01b8 6378     		ldrb	r3, [r4, #1]	@ zero_extendqisi2
1175:Drivers/lvgl/src/core/lv_indev.c ****         indev_obj_act = NULL;
 1929              		.loc 1 1175 7 view .LVU627
 1930 01ba 13F0020F 		tst	r3, #2
 1931 01be 04D0     		beq	.L302
1176:Drivers/lvgl/src/core/lv_indev.c ****     }
 1932              		.loc 1 1176 9 is_stmt 1 view .LVU628
1176:Drivers/lvgl/src/core/lv_indev.c ****     }
 1933              		.loc 1 1176 23 is_stmt 0 view .LVU629
 1934 01c0 4FF00002 		mov	r2, #0
 1935 01c4 2A60     		str	r2, [r5]
 1936              		.loc 1 1179 5 is_stmt 1 view .LVU630
 1937              	.LVL131:
 1938              		.loc 1 1179 5 is_stmt 0 view .LVU631
 1939              	.LBE228:
 1940              	.LBE227:
 939:Drivers/lvgl/src/core/lv_indev.c ****                 proc->longpr_rep_timestamp = lv_tick_get();
 1941              		.loc 1 939 19 discriminator 1 view .LVU632
 1942 01c6 7FF460AF 		bne	.L162
 1943              	.L302:
 940:Drivers/lvgl/src/core/lv_indev.c ****             }
ARM GAS  /var/folders/lp/x54gwt890xv47sdkqj1k04q40000gn/T//ccfgQDQQ.s 			page 67


 1944              		.loc 1 940 17 is_stmt 1 view .LVU633
 940:Drivers/lvgl/src/core/lv_indev.c ****             }
 1945              		.loc 1 940 46 is_stmt 0 view .LVU634
 1946 01ca FFF7FEFF 		bl	lv_tick_get
 1947              	.LVL132:
 940:Drivers/lvgl/src/core/lv_indev.c ****             }
 1948              		.loc 1 940 44 discriminator 1 view .LVU635
 1949 01ce A064     		str	r0, [r4, #72]
 1950 01d0 5BE7     		b	.L162
 1951              	.L325:
 1952 01d2 00BF     		.align	2
 1953              	.L324:
 1954 01d4 00000000 		.word	indev_obj_act
 1955 01d8 00000000 		.word	indev_act
 1956              	.LVL133:
 1957              	.L176:
 1958              	.LBB229:
 1959              	.LBB215:
 1960              	.LBB214:
 1961              		.loc 1 1179 5 is_stmt 1 view .LVU636
 1962              		.loc 1 1179 5 is_stmt 0 view .LVU637
 1963              	.LBE214:
 1964              	.LBE215:
 1965              	.LBE229:
 869:Drivers/lvgl/src/core/lv_indev.c ****         proc->types.pointer.last_obj = indev_obj_act;
 1966              		.loc 1 869 38 view .LVU638
 1967 01dc 2868     		ldr	r0, [r5]
 1968              	.LVL134:
 1969              	.L175:
 869:Drivers/lvgl/src/core/lv_indev.c ****         proc->types.pointer.last_obj = indev_obj_act;
 1970              		.loc 1 869 9 is_stmt 1 view .LVU639
 870:Drivers/lvgl/src/core/lv_indev.c **** 
 1971              		.loc 1 870 38 is_stmt 0 view .LVU640
 1972 01de C4E90900 		strd	r0, r0, [r4, #36]
 872:Drivers/lvgl/src/core/lv_indev.c ****             /*Save the time when the obj pressed to count long press time.*/
 1973              		.loc 1 872 9 is_stmt 1 view .LVU641
 872:Drivers/lvgl/src/core/lv_indev.c ****             /*Save the time when the obj pressed to count long press time.*/
 1974              		.loc 1 872 11 is_stmt 0 view .LVU642
 1975 01e2 0028     		cmp	r0, #0
 1976 01e4 3FF47AAF 		beq	.L227
 874:Drivers/lvgl/src/core/lv_indev.c ****             proc->long_pr_sent                 = 0;
 1977              		.loc 1 874 13 is_stmt 1 view .LVU643
 874:Drivers/lvgl/src/core/lv_indev.c ****             proc->long_pr_sent                 = 0;
 1978              		.loc 1 874 50 is_stmt 0 view .LVU644
 1979 01e8 FFF7FEFF 		bl	lv_tick_get
 1980              	.LVL135:
 875:Drivers/lvgl/src/core/lv_indev.c ****             proc->types.pointer.scroll_sum.x     = 0;
 1981              		.loc 1 875 48 view .LVU645
 1982 01ec 6378     		ldrb	r3, [r4, #1]	@ zero_extendqisi2
 874:Drivers/lvgl/src/core/lv_indev.c ****             proc->long_pr_sent                 = 0;
 1983              		.loc 1 874 48 discriminator 1 view .LVU646
 1984 01ee 6064     		str	r0, [r4, #68]
 875:Drivers/lvgl/src/core/lv_indev.c ****             proc->types.pointer.scroll_sum.x     = 0;
 1985              		.loc 1 875 13 is_stmt 1 view .LVU647
 875:Drivers/lvgl/src/core/lv_indev.c ****             proc->types.pointer.scroll_sum.x     = 0;
 1986              		.loc 1 875 48 is_stmt 0 view .LVU648
 1987 01f0 23F00103 		bic	r3, r3, #1
ARM GAS  /var/folders/lp/x54gwt890xv47sdkqj1k04q40000gn/T//ccfgQDQQ.s 			page 68


 1988 01f4 6370     		strb	r3, [r4, #1]
 876:Drivers/lvgl/src/core/lv_indev.c ****             proc->types.pointer.scroll_sum.y     = 0;
 1989              		.loc 1 876 13 is_stmt 1 view .LVU649
 877:Drivers/lvgl/src/core/lv_indev.c ****             proc->types.pointer.scroll_dir = LV_DIR_NONE;
 1990              		.loc 1 877 13 view .LVU650
 878:Drivers/lvgl/src/core/lv_indev.c ****             proc->types.pointer.gesture_dir = LV_DIR_NONE;
 1991              		.loc 1 878 44 is_stmt 0 view .LVU651
 1992 01f6 B4F84030 		ldrh	r3, [r4, #64]
 887:Drivers/lvgl/src/core/lv_indev.c ****             if(indev_reset_check(proc)) return;
 1993              		.loc 1 887 13 view .LVU652
 1994 01fa 3268     		ldr	r2, [r6]
 1995 01fc 2868     		ldr	r0, [r5]
 876:Drivers/lvgl/src/core/lv_indev.c ****             proc->types.pointer.scroll_sum.y     = 0;
 1996              		.loc 1 876 50 view .LVU653
 1997 01fe 0027     		movs	r7, #0
 878:Drivers/lvgl/src/core/lv_indev.c ****             proc->types.pointer.gesture_dir = LV_DIR_NONE;
 1998              		.loc 1 878 44 view .LVU654
 1999 0200 6FF30803 		bfc	r3, #0, #9
 2000 0204 A4F84030 		strh	r3, [r4, #64]	@ movhi
 876:Drivers/lvgl/src/core/lv_indev.c ****             proc->types.pointer.scroll_sum.y     = 0;
 2001              		.loc 1 876 50 view .LVU655
 2002 0208 A761     		str	r7, [r4, #24]
 878:Drivers/lvgl/src/core/lv_indev.c ****             proc->types.pointer.gesture_dir = LV_DIR_NONE;
 2003              		.loc 1 878 13 is_stmt 1 view .LVU656
 879:Drivers/lvgl/src/core/lv_indev.c ****             proc->types.pointer.gesture_sent   = 0;
 2004              		.loc 1 879 13 view .LVU657
 880:Drivers/lvgl/src/core/lv_indev.c ****             proc->types.pointer.gesture_sum.x  = 0;
 2005              		.loc 1 880 13 view .LVU658
 881:Drivers/lvgl/src/core/lv_indev.c ****             proc->types.pointer.gesture_sum.y  = 0;
 2006              		.loc 1 881 13 view .LVU659
 882:Drivers/lvgl/src/core/lv_indev.c ****             proc->types.pointer.vect.x         = 0;
 2007              		.loc 1 882 13 view .LVU660
 883:Drivers/lvgl/src/core/lv_indev.c ****             proc->types.pointer.vect.y         = 0;
 2008              		.loc 1 883 13 view .LVU661
 884:Drivers/lvgl/src/core/lv_indev.c **** 
 2009              		.loc 1 884 13 view .LVU662
 881:Drivers/lvgl/src/core/lv_indev.c ****             proc->types.pointer.gesture_sum.y  = 0;
 2010              		.loc 1 881 48 is_stmt 0 view .LVU663
 2011 020a E763     		str	r7, [r4, #60]
 883:Drivers/lvgl/src/core/lv_indev.c ****             proc->types.pointer.vect.y         = 0;
 2012              		.loc 1 883 48 view .LVU664
 2013 020c 6761     		str	r7, [r4, #20]
 887:Drivers/lvgl/src/core/lv_indev.c ****             if(indev_reset_check(proc)) return;
 2014              		.loc 1 887 13 is_stmt 1 view .LVU665
 2015 020e 0121     		movs	r1, #1
 2016 0210 FFF7FEFF 		bl	lv_event_send
 2017              	.LVL136:
 888:Drivers/lvgl/src/core/lv_indev.c **** 
 2018              		.loc 1 888 13 view .LVU666
 2019              	.LBB230:
 2020              	.LBI230:
1173:Drivers/lvgl/src/core/lv_indev.c **** {
 2021              		.loc 1 1173 13 view .LVU667
 2022              	.LBB231:
1175:Drivers/lvgl/src/core/lv_indev.c ****         indev_obj_act = NULL;
 2023              		.loc 1 1175 5 view .LVU668
1175:Drivers/lvgl/src/core/lv_indev.c ****         indev_obj_act = NULL;
ARM GAS  /var/folders/lp/x54gwt890xv47sdkqj1k04q40000gn/T//ccfgQDQQ.s 			page 69


 2024              		.loc 1 1175 8 is_stmt 0 view .LVU669
 2025 0214 6378     		ldrb	r3, [r4, #1]	@ zero_extendqisi2
1175:Drivers/lvgl/src/core/lv_indev.c ****         indev_obj_act = NULL;
 2026              		.loc 1 1175 7 view .LVU670
 2027 0216 13F0020F 		tst	r3, #2
 2028 021a 02D0     		beq	.L298
1176:Drivers/lvgl/src/core/lv_indev.c ****     }
 2029              		.loc 1 1176 9 is_stmt 1 view .LVU671
1176:Drivers/lvgl/src/core/lv_indev.c ****     }
 2030              		.loc 1 1176 23 is_stmt 0 view .LVU672
 2031 021c 2F60     		str	r7, [r5]
 2032              		.loc 1 1179 5 is_stmt 1 view .LVU673
 2033              	.LVL137:
 2034              		.loc 1 1179 5 is_stmt 0 view .LVU674
 2035              	.LBE231:
 2036              	.LBE230:
 888:Drivers/lvgl/src/core/lv_indev.c **** 
 2037              		.loc 1 888 15 discriminator 1 view .LVU675
 2038 021e 7FF434AF 		bne	.L162
 2039              	.L298:
 890:Drivers/lvgl/src/core/lv_indev.c **** 
 2040              		.loc 1 890 13 is_stmt 1 view .LVU676
 890:Drivers/lvgl/src/core/lv_indev.c **** 
 2041              		.loc 1 890 25 is_stmt 0 view .LVU677
 2042 0222 D6F80080 		ldr	r8, [r6]
 890:Drivers/lvgl/src/core/lv_indev.c **** 
 2043              		.loc 1 890 16 view .LVU678
 2044 0226 98F80530 		ldrb	r3, [r8, #5]	@ zero_extendqisi2
 890:Drivers/lvgl/src/core/lv_indev.c **** 
 2045              		.loc 1 890 15 view .LVU679
 2046 022a 13F00807 		ands	r7, r3, #8
 2047 022e 7FF42CAF 		bne	.L162
 893:Drivers/lvgl/src/core/lv_indev.c ****             if(indev_reset_check(proc)) return;
 2048              		.loc 1 893 13 is_stmt 1 view .LVU680
 2049              	.LVL138:
 2050              	.LBB232:
 2051              	.LBI232:
1051:Drivers/lvgl/src/core/lv_indev.c **** {
 2052              		.loc 1 1051 13 view .LVU681
 2053              	.LBB233:
1054:Drivers/lvgl/src/core/lv_indev.c ****        proc->types.pointer.last_pressed == indev_obj_act) {
 2054              		.loc 1 1054 5 view .LVU682
1054:Drivers/lvgl/src/core/lv_indev.c ****        proc->types.pointer.last_pressed == indev_obj_act) {
 2055              		.loc 1 1054 8 is_stmt 0 view .LVU683
 2056 0232 2868     		ldr	r0, [r5]
 2057 0234 0421     		movs	r1, #4
 2058 0236 FFF7FEFF 		bl	lv_obj_has_flag
 2059              	.LVL139:
1054:Drivers/lvgl/src/core/lv_indev.c ****        proc->types.pointer.last_pressed == indev_obj_act) {
 2060              		.loc 1 1054 7 discriminator 1 view .LVU684
 2061 023a 0028     		cmp	r0, #0
 2062 023c 36D0     		beq	.L181
1055:Drivers/lvgl/src/core/lv_indev.c ****         return;
 2063              		.loc 1 1055 41 view .LVU685
 2064 023e 2868     		ldr	r0, [r5]
1054:Drivers/lvgl/src/core/lv_indev.c ****        proc->types.pointer.last_pressed == indev_obj_act) {
 2065              		.loc 1 1054 77 discriminator 1 view .LVU686
ARM GAS  /var/folders/lp/x54gwt890xv47sdkqj1k04q40000gn/T//ccfgQDQQ.s 			page 70


 2066 0240 D8F83430 		ldr	r3, [r8, #52]
 2067 0244 8342     		cmp	r3, r0
 2068 0246 31D0     		beq	.L181
1059:Drivers/lvgl/src/core/lv_indev.c ****     lv_group_t * g_prev = proc->types.pointer.last_pressed ? lv_obj_get_group(proc->types.pointer.l
 2069              		.loc 1 1059 5 is_stmt 1 view .LVU687
1059:Drivers/lvgl/src/core/lv_indev.c ****     lv_group_t * g_prev = proc->types.pointer.last_pressed ? lv_obj_get_group(proc->types.pointer.l
 2070              		.loc 1 1059 26 is_stmt 0 view .LVU688
 2071 0248 FFF7FEFF 		bl	lv_obj_get_group
 2072              	.LVL140:
 2073 024c 8246     		mov	r10, r0
 2074              	.LVL141:
1060:Drivers/lvgl/src/core/lv_indev.c **** 
 2075              		.loc 1 1060 5 is_stmt 1 view .LVU689
1060:Drivers/lvgl/src/core/lv_indev.c **** 
 2076              		.loc 1 1060 46 is_stmt 0 view .LVU690
 2077 024e D8F83400 		ldr	r0, [r8, #52]
 2078              	.LVL142:
1060:Drivers/lvgl/src/core/lv_indev.c **** 
 2079              		.loc 1 1060 113 view .LVU691
 2080 0252 0028     		cmp	r0, #0
 2081 0254 62D0     		beq	.L318
1060:Drivers/lvgl/src/core/lv_indev.c **** 
 2082              		.loc 1 1060 62 discriminator 1 view .LVU692
 2083 0256 FFF7FEFF 		bl	lv_obj_get_group
 2084              	.LVL143:
1063:Drivers/lvgl/src/core/lv_indev.c ****         /*The objects are in a group*/
 2085              		.loc 1 1063 7 view .LVU693
 2086 025a 8245     		cmp	r10, r0
1060:Drivers/lvgl/src/core/lv_indev.c **** 
 2087              		.loc 1 1060 62 discriminator 1 view .LVU694
 2088 025c 8146     		mov	r9, r0
 2089              	.LVL144:
1063:Drivers/lvgl/src/core/lv_indev.c ****         /*The objects are in a group*/
 2090              		.loc 1 1063 5 is_stmt 1 view .LVU695
1063:Drivers/lvgl/src/core/lv_indev.c ****         /*The objects are in a group*/
 2091              		.loc 1 1063 7 is_stmt 0 view .LVU696
 2092 025e 00F08E80 		beq	.L319
1083:Drivers/lvgl/src/core/lv_indev.c ****             lv_event_send(proc->types.pointer.last_pressed, LV_EVENT_DEFOCUSED, indev_act);
 2093              		.loc 1 1083 9 is_stmt 1 view .LVU697
1071:Drivers/lvgl/src/core/lv_indev.c ****                 lv_event_send(proc->types.pointer.last_pressed, LV_EVENT_DEFOCUSED, indev_act);
 2094              		.loc 1 1071 35 is_stmt 0 view .LVU698
 2095 0262 D8F83400 		ldr	r0, [r8, #52]
 2096              	.LVL145:
1083:Drivers/lvgl/src/core/lv_indev.c ****             lv_event_send(proc->types.pointer.last_pressed, LV_EVENT_DEFOCUSED, indev_act);
 2097              		.loc 1 1083 11 view .LVU699
 2098 0266 B9F1000F 		cmp	r9, #0
 2099 026a 00F0DD80 		beq	.L320
1089:Drivers/lvgl/src/core/lv_indev.c ****                 /*If the prev. object also wasn't in a group defocus it*/
 2100              		.loc 1 1089 13 is_stmt 1 view .LVU700
1089:Drivers/lvgl/src/core/lv_indev.c ****                 /*If the prev. object also wasn't in a group defocus it*/
 2101              		.loc 1 1089 15 is_stmt 0 view .LVU701
 2102 026e 50B1     		cbz	r0, .L199
1091:Drivers/lvgl/src/core/lv_indev.c ****                     lv_event_send(proc->types.pointer.last_pressed, LV_EVENT_DEFOCUSED, indev_act);
 2103              		.loc 1 1091 17 is_stmt 1 view .LVU702
1097:Drivers/lvgl/src/core/lv_indev.c ****                     if(indev_reset_check(proc)) return;
 2104              		.loc 1 1097 21 view .LVU703
 2105 0270 3268     		ldr	r2, [r6]
ARM GAS  /var/folders/lp/x54gwt890xv47sdkqj1k04q40000gn/T//ccfgQDQQ.s 			page 71


 2106 0272 1021     		movs	r1, #16
 2107 0274 FFF7FEFF 		bl	lv_event_send
 2108              	.LVL146:
1098:Drivers/lvgl/src/core/lv_indev.c ****                 }
 2109              		.loc 1 1098 21 view .LVU704
 2110              	.LBB234:
 2111              	.LBI234:
1173:Drivers/lvgl/src/core/lv_indev.c **** {
 2112              		.loc 1 1173 13 view .LVU705
 2113              	.LBB235:
1175:Drivers/lvgl/src/core/lv_indev.c ****         indev_obj_act = NULL;
 2114              		.loc 1 1175 5 view .LVU706
1175:Drivers/lvgl/src/core/lv_indev.c ****         indev_obj_act = NULL;
 2115              		.loc 1 1175 8 is_stmt 0 view .LVU707
 2116 0278 98F80530 		ldrb	r3, [r8, #5]	@ zero_extendqisi2
1175:Drivers/lvgl/src/core/lv_indev.c ****         indev_obj_act = NULL;
 2117              		.loc 1 1175 7 view .LVU708
 2118 027c 13F0020F 		tst	r3, #2
 2119 0280 01D0     		beq	.L199
1176:Drivers/lvgl/src/core/lv_indev.c ****     }
 2120              		.loc 1 1176 9 is_stmt 1 view .LVU709
1176:Drivers/lvgl/src/core/lv_indev.c ****     }
 2121              		.loc 1 1176 23 is_stmt 0 view .LVU710
 2122 0282 2F60     		str	r7, [r5]
 2123              		.loc 1 1179 5 is_stmt 1 view .LVU711
 2124              	.LVL147:
 2125              		.loc 1 1179 5 is_stmt 0 view .LVU712
 2126              	.LBE235:
 2127              	.LBE234:
1098:Drivers/lvgl/src/core/lv_indev.c ****                 }
 2128              		.loc 1 1098 23 discriminator 1 view .LVU713
 2129 0284 12D1     		bne	.L181
 2130              	.L199:
1104:Drivers/lvgl/src/core/lv_indev.c ****             lv_group_focus_obj(indev_obj_act);
 2131              		.loc 1 1104 9 is_stmt 1 view .LVU714
1109:Drivers/lvgl/src/core/lv_indev.c ****             if(indev_reset_check(proc)) return;
 2132              		.loc 1 1109 13 is_stmt 0 view .LVU715
 2133 0286 2868     		ldr	r0, [r5]
1104:Drivers/lvgl/src/core/lv_indev.c ****             lv_group_focus_obj(indev_obj_act);
 2134              		.loc 1 1104 11 view .LVU716
 2135 0288 BAF1000F 		cmp	r10, #0
 2136 028c 00F08580 		beq	.L321
 2137              	.LVL148:
 2138              	.L196:
1105:Drivers/lvgl/src/core/lv_indev.c ****             if(indev_reset_check(proc)) return;
 2139              		.loc 1 1105 13 is_stmt 1 view .LVU717
 2140 0290 2868     		ldr	r0, [r5]
 2141 0292 FFF7FEFF 		bl	lv_group_focus_obj
 2142              	.LVL149:
1106:Drivers/lvgl/src/core/lv_indev.c ****         }
 2143              		.loc 1 1106 13 view .LVU718
 2144              	.LBB236:
 2145              	.LBI236:
1173:Drivers/lvgl/src/core/lv_indev.c **** {
 2146              		.loc 1 1173 13 view .LVU719
 2147              	.LBB237:
1175:Drivers/lvgl/src/core/lv_indev.c ****         indev_obj_act = NULL;
ARM GAS  /var/folders/lp/x54gwt890xv47sdkqj1k04q40000gn/T//ccfgQDQQ.s 			page 72


 2148              		.loc 1 1175 5 view .LVU720
1175:Drivers/lvgl/src/core/lv_indev.c ****         indev_obj_act = NULL;
 2149              		.loc 1 1175 8 is_stmt 0 view .LVU721
 2150 0296 98F80530 		ldrb	r3, [r8, #5]	@ zero_extendqisi2
1175:Drivers/lvgl/src/core/lv_indev.c ****         indev_obj_act = NULL;
 2151              		.loc 1 1175 7 view .LVU722
 2152 029a 9807     		lsls	r0, r3, #30
 2153 029c 03D5     		bpl	.L193
 2154              	.LVL150:
 2155              	.L185:
1176:Drivers/lvgl/src/core/lv_indev.c ****     }
 2156              		.loc 1 1176 9 is_stmt 1 view .LVU723
1176:Drivers/lvgl/src/core/lv_indev.c ****     }
 2157              		.loc 1 1176 23 is_stmt 0 view .LVU724
 2158 029e 0022     		movs	r2, #0
 2159 02a0 2A60     		str	r2, [r5]
 2160              		.loc 1 1179 5 is_stmt 1 view .LVU725
 2161              	.LBE237:
 2162              	.LBE236:
1106:Drivers/lvgl/src/core/lv_indev.c ****         }
 2163              		.loc 1 1106 15 is_stmt 0 discriminator 1 view .LVU726
 2164 02a2 9A07     		lsls	r2, r3, #30
 2165 02a4 02D4     		bmi	.L181
 2166              	.L193:
1113:Drivers/lvgl/src/core/lv_indev.c **** }
 2167              		.loc 1 1113 5 is_stmt 1 view .LVU727
1113:Drivers/lvgl/src/core/lv_indev.c **** }
 2168              		.loc 1 1113 38 is_stmt 0 view .LVU728
 2169 02a6 2B68     		ldr	r3, [r5]
 2170 02a8 C8F83430 		str	r3, [r8, #52]
 2171              	.LVL151:
 2172              	.L181:
1113:Drivers/lvgl/src/core/lv_indev.c **** }
 2173              		.loc 1 1113 38 view .LVU729
 2174              	.LBE233:
 2175              	.LBE232:
 894:Drivers/lvgl/src/core/lv_indev.c **** 
 2176              		.loc 1 894 13 is_stmt 1 view .LVU730
 2177              	.LBB252:
 2178              	.LBI252:
1173:Drivers/lvgl/src/core/lv_indev.c **** {
 2179              		.loc 1 1173 13 view .LVU731
 2180              	.LBB253:
1175:Drivers/lvgl/src/core/lv_indev.c ****         indev_obj_act = NULL;
 2181              		.loc 1 1175 5 view .LVU732
1175:Drivers/lvgl/src/core/lv_indev.c ****         indev_obj_act = NULL;
 2182              		.loc 1 1175 8 is_stmt 0 view .LVU733
 2183 02ac 6378     		ldrb	r3, [r4, #1]	@ zero_extendqisi2
1175:Drivers/lvgl/src/core/lv_indev.c ****         indev_obj_act = NULL;
 2184              		.loc 1 1175 7 view .LVU734
 2185 02ae 13F0020F 		tst	r3, #2
 2186 02b2 04D0     		beq	.L299
1176:Drivers/lvgl/src/core/lv_indev.c ****     }
 2187              		.loc 1 1176 9 is_stmt 1 view .LVU735
1176:Drivers/lvgl/src/core/lv_indev.c ****     }
 2188              		.loc 1 1176 23 is_stmt 0 view .LVU736
 2189 02b4 4FF00002 		mov	r2, #0
ARM GAS  /var/folders/lp/x54gwt890xv47sdkqj1k04q40000gn/T//ccfgQDQQ.s 			page 73


 2190 02b8 2A60     		str	r2, [r5]
 2191              		.loc 1 1179 5 is_stmt 1 view .LVU737
 2192              	.LVL152:
 2193              		.loc 1 1179 5 is_stmt 0 view .LVU738
 2194              	.LBE253:
 2195              	.LBE252:
 894:Drivers/lvgl/src/core/lv_indev.c **** 
 2196              		.loc 1 894 15 discriminator 1 view .LVU739
 2197 02ba 7FF4E6AE 		bne	.L162
 2198              	.L299:
 908:Drivers/lvgl/src/core/lv_indev.c ****         lv_event_send(indev_obj_act, LV_EVENT_PRESSING, indev_act);
 2199              		.loc 1 908 8 view .LVU740
 2200 02be 2868     		ldr	r0, [r5]
 2201 02c0 B1E6     		b	.L169
 2202              	.LVL153:
 2203              	.L170:
 839:Drivers/lvgl/src/core/lv_indev.c ****         if(indev_obj_act == NULL) indev_obj_act = lv_indev_search_obj(lv_disp_get_layer_top(disp),
 2204              		.loc 1 839 9 is_stmt 1 view .LVU741
 839:Drivers/lvgl/src/core/lv_indev.c ****         if(indev_obj_act == NULL) indev_obj_act = lv_indev_search_obj(lv_disp_get_layer_top(disp),
 2205              		.loc 1 839 25 is_stmt 0 view .LVU742
 2206 02c2 3846     		mov	r0, r7
 839:Drivers/lvgl/src/core/lv_indev.c ****         if(indev_obj_act == NULL) indev_obj_act = lv_indev_search_obj(lv_disp_get_layer_top(disp),
 2207              		.loc 1 839 25 discriminator 1 view .LVU743
 2208 02c4 04F10408 		add	r8, r4, #4
 839:Drivers/lvgl/src/core/lv_indev.c ****         if(indev_obj_act == NULL) indev_obj_act = lv_indev_search_obj(lv_disp_get_layer_top(disp),
 2209              		.loc 1 839 25 view .LVU744
 2210 02c8 FFF7FEFF 		bl	lv_disp_get_layer_sys
 2211              	.LVL154:
 839:Drivers/lvgl/src/core/lv_indev.c ****         if(indev_obj_act == NULL) indev_obj_act = lv_indev_search_obj(lv_disp_get_layer_top(disp),
 2212              		.loc 1 839 25 discriminator 1 view .LVU745
 2213 02cc 4146     		mov	r1, r8
 2214 02ce FFF7FEFF 		bl	lv_indev_search_obj
 2215              	.LVL155:
 839:Drivers/lvgl/src/core/lv_indev.c ****         if(indev_obj_act == NULL) indev_obj_act = lv_indev_search_obj(lv_disp_get_layer_top(disp),
 2216              		.loc 1 839 23 discriminator 2 view .LVU746
 2217 02d2 2860     		str	r0, [r5]
 840:Drivers/lvgl/src/core/lv_indev.c ****                                                                           &proc->types.pointer.act_
 2218              		.loc 1 840 9 is_stmt 1 view .LVU747
 840:Drivers/lvgl/src/core/lv_indev.c ****                                                                           &proc->types.pointer.act_
 2219              		.loc 1 840 11 is_stmt 0 view .LVU748
 2220 02d4 88B1     		cbz	r0, .L322
 2221              	.L167:
 2222              	.LVL156:
 848:Drivers/lvgl/src/core/lv_indev.c ****         proc->types.pointer.scroll_throw_vect.x = 0;
 2223              		.loc 1 848 25 discriminator 1 view .LVU749
 2224 02d6 A36A     		ldr	r3, [r4, #40]
 2225 02d8 002B     		cmp	r3, #0
 2226 02da 3FF4E4AE 		beq	.L172
 849:Drivers/lvgl/src/core/lv_indev.c ****         proc->types.pointer.scroll_throw_vect.y = 0;
 2227              		.loc 1 849 9 is_stmt 1 view .LVU750
 850:Drivers/lvgl/src/core/lv_indev.c ****         _lv_indev_scroll_throw_handler(proc);
 2228              		.loc 1 850 9 view .LVU751
 849:Drivers/lvgl/src/core/lv_indev.c ****         proc->types.pointer.scroll_throw_vect.y = 0;
 2229              		.loc 1 849 49 is_stmt 0 view .LVU752
 2230 02de 0027     		movs	r7, #0
 2231              	.LVL157:
 849:Drivers/lvgl/src/core/lv_indev.c ****         proc->types.pointer.scroll_throw_vect.y = 0;
ARM GAS  /var/folders/lp/x54gwt890xv47sdkqj1k04q40000gn/T//ccfgQDQQ.s 			page 74


 2232              		.loc 1 849 49 view .LVU753
 2233 02e0 E761     		str	r7, [r4, #28]
 851:Drivers/lvgl/src/core/lv_indev.c ****         if(indev_reset_check(proc)) return;
 2234              		.loc 1 851 9 is_stmt 1 view .LVU754
 2235 02e2 2046     		mov	r0, r4
 2236 02e4 FFF7FEFF 		bl	_lv_indev_scroll_throw_handler
 2237              	.LVL158:
 852:Drivers/lvgl/src/core/lv_indev.c ****     }
 2238              		.loc 1 852 9 view .LVU755
 2239              	.LBB254:
 2240              	.LBI254:
1173:Drivers/lvgl/src/core/lv_indev.c **** {
 2241              		.loc 1 1173 13 view .LVU756
 2242              	.LBB255:
1175:Drivers/lvgl/src/core/lv_indev.c ****         indev_obj_act = NULL;
 2243              		.loc 1 1175 5 view .LVU757
1175:Drivers/lvgl/src/core/lv_indev.c ****         indev_obj_act = NULL;
 2244              		.loc 1 1175 8 is_stmt 0 view .LVU758
 2245 02e8 6378     		ldrb	r3, [r4, #1]	@ zero_extendqisi2
1175:Drivers/lvgl/src/core/lv_indev.c ****         indev_obj_act = NULL;
 2246              		.loc 1 1175 7 view .LVU759
 2247 02ea 13F0020F 		tst	r3, #2
 2248 02ee 3FF4DAAE 		beq	.L172
1176:Drivers/lvgl/src/core/lv_indev.c ****     }
 2249              		.loc 1 1176 9 is_stmt 1 view .LVU760
1176:Drivers/lvgl/src/core/lv_indev.c ****     }
 2250              		.loc 1 1176 23 is_stmt 0 view .LVU761
 2251 02f2 2F60     		str	r7, [r5]
 2252              		.loc 1 1179 5 is_stmt 1 view .LVU762
 2253              	.LVL159:
 2254              		.loc 1 1179 5 is_stmt 0 view .LVU763
 2255              	.LBE255:
 2256              	.LBE254:
 852:Drivers/lvgl/src/core/lv_indev.c ****     }
 2257              		.loc 1 852 11 discriminator 1 view .LVU764
 2258 02f4 7FF4C9AE 		bne	.L162
 2259 02f8 D5E6     		b	.L172
 2260              	.LVL160:
 2261              	.L322:
 840:Drivers/lvgl/src/core/lv_indev.c ****                                                                           &proc->types.pointer.act_
 2262              		.loc 1 840 35 is_stmt 1 discriminator 1 view .LVU765
 840:Drivers/lvgl/src/core/lv_indev.c ****                                                                           &proc->types.pointer.act_
 2263              		.loc 1 840 51 is_stmt 0 discriminator 1 view .LVU766
 2264 02fa 3846     		mov	r0, r7
 2265 02fc FFF7FEFF 		bl	lv_disp_get_layer_top
 2266              	.LVL161:
 2267 0300 4146     		mov	r1, r8
 2268 0302 FFF7FEFF 		bl	lv_indev_search_obj
 2269              	.LVL162:
 840:Drivers/lvgl/src/core/lv_indev.c ****                                                                           &proc->types.pointer.act_
 2270              		.loc 1 840 49 discriminator 2 view .LVU767
 2271 0306 2860     		str	r0, [r5]
 842:Drivers/lvgl/src/core/lv_indev.c ****                                                                           &proc->types.pointer.act_
 2272              		.loc 1 842 9 is_stmt 1 view .LVU768
 842:Drivers/lvgl/src/core/lv_indev.c ****                                                                           &proc->types.pointer.act_
 2273              		.loc 1 842 11 is_stmt 0 view .LVU769
 2274 0308 0028     		cmp	r0, #0
ARM GAS  /var/folders/lp/x54gwt890xv47sdkqj1k04q40000gn/T//ccfgQDQQ.s 			page 75


 2275 030a E4D1     		bne	.L167
 842:Drivers/lvgl/src/core/lv_indev.c ****                                                                           &proc->types.pointer.act_
 2276              		.loc 1 842 35 is_stmt 1 discriminator 1 view .LVU770
 842:Drivers/lvgl/src/core/lv_indev.c ****                                                                           &proc->types.pointer.act_
 2277              		.loc 1 842 51 is_stmt 0 discriminator 1 view .LVU771
 2278 030c 3846     		mov	r0, r7
 2279 030e FFF7FEFF 		bl	lv_disp_get_scr_act
 2280              	.LVL163:
 2281 0312 4146     		mov	r1, r8
 2282 0314 FFF7FEFF 		bl	lv_indev_search_obj
 2283              	.LVL164:
 842:Drivers/lvgl/src/core/lv_indev.c ****                                                                           &proc->types.pointer.act_
 2284              		.loc 1 842 49 discriminator 2 view .LVU772
 2285 0318 2860     		str	r0, [r5]
 2286 031a DCE7     		b	.L167
 2287              	.LVL165:
 2288              	.L318:
 2289              	.LBB256:
 2290              	.LBB248:
1063:Drivers/lvgl/src/core/lv_indev.c ****         /*The objects are in a group*/
 2291              		.loc 1 1063 5 is_stmt 1 view .LVU773
1063:Drivers/lvgl/src/core/lv_indev.c ****         /*The objects are in a group*/
 2292              		.loc 1 1063 7 is_stmt 0 view .LVU774
 2293 031c BAF1000F 		cmp	r10, #0
 2294 0320 B6D1     		bne	.L196
 2295              	.LVL166:
 2296              	.L184:
1076:Drivers/lvgl/src/core/lv_indev.c ****             if(indev_reset_check(proc)) return;
 2297              		.loc 1 1076 13 is_stmt 1 view .LVU775
 2298 0322 0E21     		movs	r1, #14
 2299 0324 3268     		ldr	r2, [r6]
 2300 0326 2868     		ldr	r0, [r5]
 2301 0328 FFF7FEFF 		bl	lv_event_send
 2302              	.LVL167:
1077:Drivers/lvgl/src/core/lv_indev.c ****         }
 2303              		.loc 1 1077 13 view .LVU776
 2304              	.LBB238:
 2305              	.LBI238:
1173:Drivers/lvgl/src/core/lv_indev.c **** {
 2306              		.loc 1 1173 13 view .LVU777
 2307              	.LBB239:
1175:Drivers/lvgl/src/core/lv_indev.c ****         indev_obj_act = NULL;
 2308              		.loc 1 1175 5 view .LVU778
1175:Drivers/lvgl/src/core/lv_indev.c ****         indev_obj_act = NULL;
 2309              		.loc 1 1175 8 is_stmt 0 view .LVU779
 2310 032c 98F80530 		ldrb	r3, [r8, #5]	@ zero_extendqisi2
1175:Drivers/lvgl/src/core/lv_indev.c ****         indev_obj_act = NULL;
 2311              		.loc 1 1175 7 view .LVU780
 2312 0330 9907     		lsls	r1, r3, #30
 2313 0332 B4D4     		bmi	.L185
 2314 0334 B7E7     		b	.L193
 2315              	.LVL168:
 2316              	.L214:
1175:Drivers/lvgl/src/core/lv_indev.c ****         indev_obj_act = NULL;
 2317              		.loc 1 1175 7 view .LVU781
 2318              	.LBE239:
 2319              	.LBE238:
ARM GAS  /var/folders/lp/x54gwt890xv47sdkqj1k04q40000gn/T//ccfgQDQQ.s 			page 76


 2320              	.LBE248:
 2321              	.LBE256:
 2322              	.LBB257:
 2323              	.LBB220:
1148:Drivers/lvgl/src/core/lv_indev.c **** 
 2324              		.loc 1 1148 9 is_stmt 1 view .LVU782
1150:Drivers/lvgl/src/core/lv_indev.c ****             if(proc->types.pointer.gesture_sum.x > 0)
 2325              		.loc 1 1150 9 view .LVU783
1150:Drivers/lvgl/src/core/lv_indev.c ****             if(proc->types.pointer.gesture_sum.x > 0)
 2326              		.loc 1 1150 11 is_stmt 0 view .LVU784
 2327 0336 6045     		cmp	r0, ip
 2328 0338 3ED9     		bls	.L215
1151:Drivers/lvgl/src/core/lv_indev.c ****                 proc->types.pointer.gesture_dir = LV_DIR_RIGHT;
 2329              		.loc 1 1151 13 is_stmt 1 view .LVU785
1151:Drivers/lvgl/src/core/lv_indev.c ****                 proc->types.pointer.gesture_dir = LV_DIR_RIGHT;
 2330              		.loc 1 1151 15 is_stmt 0 view .LVU786
 2331 033a 0029     		cmp	r1, #0
 2332 033c CCBF     		ite	gt
 2333 033e 0223     		movgt	r3, #2
 2334 0340 0123     		movle	r3, #1
 2335              	.L216:
1152:Drivers/lvgl/src/core/lv_indev.c ****             else
 2336              		.loc 1 1152 49 view .LVU787
 2337 0342 B4F84010 		ldrh	r1, [r4, #64]
 2338 0346 1B01     		lsls	r3, r3, #4
 2339 0348 21F4F871 		bic	r1, r1, #496
 2340 034c 43F48073 		orr	r3, r3, #256
 2341 0350 0B43     		orrs	r3, r3, r1
1163:Drivers/lvgl/src/core/lv_indev.c ****         if(indev_reset_check(proc)) return;
 2342              		.loc 1 1163 9 view .LVU788
 2343 0352 3846     		mov	r0, r7
1152:Drivers/lvgl/src/core/lv_indev.c ****             else
 2344              		.loc 1 1152 49 view .LVU789
 2345 0354 A4F84030 		strh	r3, [r4, #64]	@ movhi
1163:Drivers/lvgl/src/core/lv_indev.c ****         if(indev_reset_check(proc)) return;
 2346              		.loc 1 1163 9 is_stmt 1 view .LVU790
 2347 0358 0C21     		movs	r1, #12
 2348 035a FFF7FEFF 		bl	lv_event_send
 2349              	.LVL169:
1164:Drivers/lvgl/src/core/lv_indev.c ****     }
 2350              		.loc 1 1164 9 view .LVU791
 2351              	.LBB218:
 2352              	.LBI218:
1173:Drivers/lvgl/src/core/lv_indev.c **** {
 2353              		.loc 1 1173 13 view .LVU792
 2354              	.LBB219:
1175:Drivers/lvgl/src/core/lv_indev.c ****         indev_obj_act = NULL;
 2355              		.loc 1 1175 5 view .LVU793
1175:Drivers/lvgl/src/core/lv_indev.c ****         indev_obj_act = NULL;
 2356              		.loc 1 1175 8 is_stmt 0 view .LVU794
 2357 035e 6278     		ldrb	r2, [r4, #1]	@ zero_extendqisi2
1175:Drivers/lvgl/src/core/lv_indev.c ****         indev_obj_act = NULL;
 2358              		.loc 1 1175 7 view .LVU795
 2359 0360 9007     		lsls	r0, r2, #30
 2360 0362 7FF511AF 		bpl	.L312
1176:Drivers/lvgl/src/core/lv_indev.c ****     }
 2361              		.loc 1 1176 9 is_stmt 1 view .LVU796
ARM GAS  /var/folders/lp/x54gwt890xv47sdkqj1k04q40000gn/T//ccfgQDQQ.s 			page 77


 2362              	.LVL170:
1176:Drivers/lvgl/src/core/lv_indev.c ****     }
 2363              		.loc 1 1176 9 is_stmt 0 view .LVU797
 2364              	.LBE219:
 2365              	.LBE218:
 2366              	.LBE220:
 2367              	.LBE257:
 917:Drivers/lvgl/src/core/lv_indev.c **** 
 2368              		.loc 1 917 9 is_stmt 1 view .LVU798
 2369              	.LBB258:
1173:Drivers/lvgl/src/core/lv_indev.c **** {
 2370              		.loc 1 1173 13 view .LVU799
 2371              	.LBB225:
1175:Drivers/lvgl/src/core/lv_indev.c ****         indev_obj_act = NULL;
 2372              		.loc 1 1175 5 view .LVU800
 2373              		.loc 1 1179 37 is_stmt 0 view .LVU801
 2374 0366 C2F34003 		ubfx	r3, r2, #1, #1
 2375 036a 09E7     		b	.L218
 2376              	.LVL171:
 2377              	.L213:
 2378              		.loc 1 1179 37 view .LVU802
 2379              	.LBE225:
 2380              	.LBE258:
 2381              	.LBB259:
 2382              	.LBB221:
1142:Drivers/lvgl/src/core/lv_indev.c ****     proc->types.pointer.gesture_sum.y += proc->types.pointer.vect.y;
 2383              		.loc 1 1142 36 view .LVU803
 2384 036c A18F     		ldrh	r1, [r4, #60]
1143:Drivers/lvgl/src/core/lv_indev.c **** 
 2385              		.loc 1 1143 36 view .LVU804
 2386 036e E38F     		ldrh	r3, [r4, #62]
 2387 0370 E8E6     		b	.L212
 2388              	.LVL172:
 2389              	.L207:
1143:Drivers/lvgl/src/core/lv_indev.c **** 
 2390              		.loc 1 1143 36 view .LVU805
 2391              	.LBE221:
 2392              	.LBE259:
 917:Drivers/lvgl/src/core/lv_indev.c **** 
 2393              		.loc 1 917 9 is_stmt 1 view .LVU806
 2394              	.LBB260:
1173:Drivers/lvgl/src/core/lv_indev.c **** {
 2395              		.loc 1 1173 13 view .LVU807
 2396              	.LBB226:
1175:Drivers/lvgl/src/core/lv_indev.c ****         indev_obj_act = NULL;
 2397              		.loc 1 1175 5 view .LVU808
1175:Drivers/lvgl/src/core/lv_indev.c ****         indev_obj_act = NULL;
 2398              		.loc 1 1175 7 is_stmt 0 view .LVU809
 2399 0372 0029     		cmp	r1, #0
 2400 0374 3FF40CAF 		beq	.L225
1176:Drivers/lvgl/src/core/lv_indev.c ****     }
 2401              		.loc 1 1176 9 is_stmt 1 view .LVU810
1176:Drivers/lvgl/src/core/lv_indev.c ****     }
 2402              		.loc 1 1176 23 is_stmt 0 view .LVU811
 2403 0378 0023     		movs	r3, #0
 2404 037a 2B60     		str	r3, [r5]
 2405              		.loc 1 1179 5 is_stmt 1 view .LVU812
ARM GAS  /var/folders/lp/x54gwt890xv47sdkqj1k04q40000gn/T//ccfgQDQQ.s 			page 78


 2406              	.LVL173:
 2407              		.loc 1 1179 5 is_stmt 0 view .LVU813
 2408 037c 08E7     		b	.L225
 2409              	.LVL174:
 2410              	.L319:
 2411              		.loc 1 1179 5 view .LVU814
 2412              	.LBE226:
 2413              	.LBE260:
 2414              	.LBB261:
 2415              	.LBB249:
1065:Drivers/lvgl/src/core/lv_indev.c ****             lv_group_focus_obj(indev_obj_act);
 2416              		.loc 1 1065 9 is_stmt 1 view .LVU815
1065:Drivers/lvgl/src/core/lv_indev.c ****             lv_group_focus_obj(indev_obj_act);
 2417              		.loc 1 1065 11 is_stmt 0 view .LVU816
 2418 037e BAF1000F 		cmp	r10, #0
 2419 0382 1ED0     		beq	.L190
1066:Drivers/lvgl/src/core/lv_indev.c ****             if(indev_reset_check(proc)) return;
 2420              		.loc 1 1066 13 is_stmt 1 view .LVU817
 2421 0384 2868     		ldr	r0, [r5]
 2422              	.LVL175:
1066:Drivers/lvgl/src/core/lv_indev.c ****             if(indev_reset_check(proc)) return;
 2423              		.loc 1 1066 13 is_stmt 0 view .LVU818
 2424 0386 FFF7FEFF 		bl	lv_group_focus_obj
 2425              	.LVL176:
1067:Drivers/lvgl/src/core/lv_indev.c ****         }
 2426              		.loc 1 1067 13 is_stmt 1 view .LVU819
 2427              	.LBB240:
 2428              	.LBI240:
1173:Drivers/lvgl/src/core/lv_indev.c **** {
 2429              		.loc 1 1173 13 view .LVU820
 2430              	.LBB241:
1175:Drivers/lvgl/src/core/lv_indev.c ****         indev_obj_act = NULL;
 2431              		.loc 1 1175 5 view .LVU821
1175:Drivers/lvgl/src/core/lv_indev.c ****         indev_obj_act = NULL;
 2432              		.loc 1 1175 8 is_stmt 0 view .LVU822
 2433 038a 98F80530 		ldrb	r3, [r8, #5]	@ zero_extendqisi2
1175:Drivers/lvgl/src/core/lv_indev.c ****         indev_obj_act = NULL;
 2434              		.loc 1 1175 7 view .LVU823
 2435 038e 13F0020F 		tst	r3, #2
 2436 0392 88D0     		beq	.L193
1176:Drivers/lvgl/src/core/lv_indev.c ****     }
 2437              		.loc 1 1176 9 is_stmt 1 view .LVU824
1176:Drivers/lvgl/src/core/lv_indev.c ****     }
 2438              		.loc 1 1176 23 is_stmt 0 view .LVU825
 2439 0394 2F60     		str	r7, [r5]
 2440              		.loc 1 1179 5 is_stmt 1 view .LVU826
 2441              	.LVL177:
 2442              		.loc 1 1179 5 is_stmt 0 view .LVU827
 2443              	.LBE241:
 2444              	.LBE240:
1067:Drivers/lvgl/src/core/lv_indev.c ****         }
 2445              		.loc 1 1067 15 discriminator 1 view .LVU828
 2446 0396 89D1     		bne	.L181
 2447 0398 85E7     		b	.L193
 2448              	.L321:
1109:Drivers/lvgl/src/core/lv_indev.c ****             if(indev_reset_check(proc)) return;
 2449              		.loc 1 1109 13 is_stmt 1 view .LVU829
ARM GAS  /var/folders/lp/x54gwt890xv47sdkqj1k04q40000gn/T//ccfgQDQQ.s 			page 79


 2450 039a 3268     		ldr	r2, [r6]
 2451 039c 0E21     		movs	r1, #14
 2452 039e FFF7FEFF 		bl	lv_event_send
 2453              	.LVL178:
1110:Drivers/lvgl/src/core/lv_indev.c ****         }
 2454              		.loc 1 1110 13 view .LVU830
 2455              	.LBB242:
 2456              	.LBI242:
1173:Drivers/lvgl/src/core/lv_indev.c **** {
 2457              		.loc 1 1173 13 view .LVU831
 2458              	.LBB243:
1175:Drivers/lvgl/src/core/lv_indev.c ****         indev_obj_act = NULL;
 2459              		.loc 1 1175 5 view .LVU832
1175:Drivers/lvgl/src/core/lv_indev.c ****         indev_obj_act = NULL;
 2460              		.loc 1 1175 8 is_stmt 0 view .LVU833
 2461 03a2 98F80530 		ldrb	r3, [r8, #5]	@ zero_extendqisi2
1175:Drivers/lvgl/src/core/lv_indev.c ****         indev_obj_act = NULL;
 2462              		.loc 1 1175 7 view .LVU834
 2463 03a6 13F0020F 		tst	r3, #2
 2464 03aa 3FF47CAF 		beq	.L193
1176:Drivers/lvgl/src/core/lv_indev.c ****     }
 2465              		.loc 1 1176 9 is_stmt 1 view .LVU835
1176:Drivers/lvgl/src/core/lv_indev.c ****     }
 2466              		.loc 1 1176 23 is_stmt 0 view .LVU836
 2467 03ae C5F800A0 		str	r10, [r5]
 2468              		.loc 1 1179 5 is_stmt 1 view .LVU837
 2469              	.LVL179:
 2470              		.loc 1 1179 5 is_stmt 0 view .LVU838
 2471              	.LBE243:
 2472              	.LBE242:
1110:Drivers/lvgl/src/core/lv_indev.c ****         }
 2473              		.loc 1 1110 15 discriminator 1 view .LVU839
 2474 03b2 7FF47BAF 		bne	.L181
1110:Drivers/lvgl/src/core/lv_indev.c ****         }
 2475              		.loc 1 1110 15 discriminator 1 view .LVU840
 2476 03b6 76E7     		b	.L193
 2477              	.LVL180:
 2478              	.L215:
1110:Drivers/lvgl/src/core/lv_indev.c ****         }
 2479              		.loc 1 1110 15 discriminator 1 view .LVU841
 2480              	.LBE249:
 2481              	.LBE261:
 2482              	.LBB262:
 2483              	.LBB222:
1157:Drivers/lvgl/src/core/lv_indev.c ****                 proc->types.pointer.gesture_dir = LV_DIR_BOTTOM;
 2484              		.loc 1 1157 13 is_stmt 1 view .LVU842
1157:Drivers/lvgl/src/core/lv_indev.c ****                 proc->types.pointer.gesture_dir = LV_DIR_BOTTOM;
 2485              		.loc 1 1157 15 is_stmt 0 view .LVU843
 2486 03b8 002B     		cmp	r3, #0
 2487 03ba CCBF     		ite	gt
 2488 03bc 0823     		movgt	r3, #8
 2489 03be 0423     		movle	r3, #4
 2490 03c0 BFE7     		b	.L216
 2491              	.LVL181:
 2492              	.L190:
1157:Drivers/lvgl/src/core/lv_indev.c ****                 proc->types.pointer.gesture_dir = LV_DIR_BOTTOM;
 2493              		.loc 1 1157 15 view .LVU844
ARM GAS  /var/folders/lp/x54gwt890xv47sdkqj1k04q40000gn/T//ccfgQDQQ.s 			page 80


 2494              	.LBE222:
 2495              	.LBE262:
 2496              	.LBB263:
 2497              	.LBB250:
1071:Drivers/lvgl/src/core/lv_indev.c ****                 lv_event_send(proc->types.pointer.last_pressed, LV_EVENT_DEFOCUSED, indev_act);
 2498              		.loc 1 1071 13 is_stmt 1 view .LVU845
1071:Drivers/lvgl/src/core/lv_indev.c ****                 lv_event_send(proc->types.pointer.last_pressed, LV_EVENT_DEFOCUSED, indev_act);
 2499              		.loc 1 1071 35 is_stmt 0 view .LVU846
 2500 03c2 D8F83400 		ldr	r0, [r8, #52]
 2501              	.LVL182:
1072:Drivers/lvgl/src/core/lv_indev.c ****                 if(indev_reset_check(proc)) return;
 2502              		.loc 1 1072 17 view .LVU847
 2503 03c6 3268     		ldr	r2, [r6]
1071:Drivers/lvgl/src/core/lv_indev.c ****                 lv_event_send(proc->types.pointer.last_pressed, LV_EVENT_DEFOCUSED, indev_act);
 2504              		.loc 1 1071 15 view .LVU848
 2505 03c8 0028     		cmp	r0, #0
 2506 03ca AAD0     		beq	.L184
1072:Drivers/lvgl/src/core/lv_indev.c ****                 if(indev_reset_check(proc)) return;
 2507              		.loc 1 1072 17 is_stmt 1 view .LVU849
 2508 03cc 0F21     		movs	r1, #15
 2509 03ce FFF7FEFF 		bl	lv_event_send
 2510              	.LVL183:
1073:Drivers/lvgl/src/core/lv_indev.c ****             }
 2511              		.loc 1 1073 17 view .LVU850
 2512              	.LBB244:
 2513              	.LBI244:
1173:Drivers/lvgl/src/core/lv_indev.c **** {
 2514              		.loc 1 1173 13 view .LVU851
 2515              	.LBB245:
1175:Drivers/lvgl/src/core/lv_indev.c ****         indev_obj_act = NULL;
 2516              		.loc 1 1175 5 view .LVU852
1175:Drivers/lvgl/src/core/lv_indev.c ****         indev_obj_act = NULL;
 2517              		.loc 1 1175 8 is_stmt 0 view .LVU853
 2518 03d2 98F80530 		ldrb	r3, [r8, #5]	@ zero_extendqisi2
1175:Drivers/lvgl/src/core/lv_indev.c ****         indev_obj_act = NULL;
 2519              		.loc 1 1175 7 view .LVU854
 2520 03d6 13F0020F 		tst	r3, #2
 2521 03da A2D0     		beq	.L184
1176:Drivers/lvgl/src/core/lv_indev.c ****     }
 2522              		.loc 1 1176 9 is_stmt 1 view .LVU855
1176:Drivers/lvgl/src/core/lv_indev.c ****     }
 2523              		.loc 1 1176 23 is_stmt 0 view .LVU856
 2524 03dc C5F800A0 		str	r10, [r5]
 2525              		.loc 1 1179 5 is_stmt 1 view .LVU857
 2526              	.LVL184:
 2527              		.loc 1 1179 5 is_stmt 0 view .LVU858
 2528              	.LBE245:
 2529              	.LBE244:
1073:Drivers/lvgl/src/core/lv_indev.c ****             }
 2530              		.loc 1 1073 19 discriminator 1 view .LVU859
 2531 03e0 7FF464AF 		bne	.L181
1073:Drivers/lvgl/src/core/lv_indev.c ****             }
 2532              		.loc 1 1073 19 discriminator 1 view .LVU860
 2533 03e4 9DE7     		b	.L184
 2534              	.LVL185:
 2535              	.L219:
1073:Drivers/lvgl/src/core/lv_indev.c ****             }
ARM GAS  /var/folders/lp/x54gwt890xv47sdkqj1k04q40000gn/T//ccfgQDQQ.s 			page 81


 2536              		.loc 1 1073 19 discriminator 1 view .LVU861
 2537              	.LBE250:
 2538              	.LBE263:
 922:Drivers/lvgl/src/core/lv_indev.c ****                 lv_event_send(indev_obj_act, LV_EVENT_LONG_PRESSED, indev_act);
 2539              		.loc 1 922 13 is_stmt 1 view .LVU862
 922:Drivers/lvgl/src/core/lv_indev.c ****                 lv_event_send(indev_obj_act, LV_EVENT_LONG_PRESSED, indev_act);
 2540              		.loc 1 922 16 is_stmt 0 view .LVU863
 2541 03e6 606C     		ldr	r0, [r4, #68]
 2542 03e8 FFF7FEFF 		bl	lv_tick_elaps
 2543              	.LVL186:
 922:Drivers/lvgl/src/core/lv_indev.c ****                 lv_event_send(indev_obj_act, LV_EVENT_LONG_PRESSED, indev_act);
 2544              		.loc 1 922 61 discriminator 1 view .LVU864
 2545 03ec 3268     		ldr	r2, [r6]
 922:Drivers/lvgl/src/core/lv_indev.c ****                 lv_event_send(indev_obj_act, LV_EVENT_LONG_PRESSED, indev_act);
 2546              		.loc 1 922 69 discriminator 1 view .LVU865
 2547 03ee 1368     		ldr	r3, [r2]
 922:Drivers/lvgl/src/core/lv_indev.c ****                 lv_event_send(indev_obj_act, LV_EVENT_LONG_PRESSED, indev_act);
 2548              		.loc 1 922 50 discriminator 1 view .LVU866
 2549 03f0 9B8B     		ldrh	r3, [r3, #28]
 922:Drivers/lvgl/src/core/lv_indev.c ****                 lv_event_send(indev_obj_act, LV_EVENT_LONG_PRESSED, indev_act);
 2550              		.loc 1 922 15 discriminator 1 view .LVU867
 2551 03f2 9842     		cmp	r0, r3
 2552 03f4 05D8     		bhi	.L323
 2553              	.L221:
 935:Drivers/lvgl/src/core/lv_indev.c ****             /*Call the ancestor's event handler about the long press repeat if enough time elapsed*
 2554              		.loc 1 935 9 is_stmt 1 view .LVU868
 935:Drivers/lvgl/src/core/lv_indev.c ****             /*Call the ancestor's event handler about the long press repeat if enough time elapsed*
 2555              		.loc 1 935 11 is_stmt 0 view .LVU869
 2556 03f6 E36A     		ldr	r3, [r4, #44]
 2557 03f8 002B     		cmp	r3, #0
 2558 03fa 7FF446AE 		bne	.L162
 2559 03fe 6278     		ldrb	r2, [r4, #1]	@ zero_extendqisi2
 2560 0400 CAE6     		b	.L223
 2561              	.L323:
 923:Drivers/lvgl/src/core/lv_indev.c ****                 if(indev_reset_check(proc)) return;
 2562              		.loc 1 923 17 is_stmt 1 view .LVU870
 2563 0402 2868     		ldr	r0, [r5]
 2564 0404 0521     		movs	r1, #5
 2565 0406 FFF7FEFF 		bl	lv_event_send
 2566              	.LVL187:
 924:Drivers/lvgl/src/core/lv_indev.c **** 
 2567              		.loc 1 924 17 view .LVU871
 2568              	.LBB264:
 2569              	.LBI264:
1173:Drivers/lvgl/src/core/lv_indev.c **** {
 2570              		.loc 1 1173 13 view .LVU872
 2571              	.LBB265:
1175:Drivers/lvgl/src/core/lv_indev.c ****         indev_obj_act = NULL;
 2572              		.loc 1 1175 5 view .LVU873
1175:Drivers/lvgl/src/core/lv_indev.c ****         indev_obj_act = NULL;
 2573              		.loc 1 1175 8 is_stmt 0 view .LVU874
 2574 040a 6378     		ldrb	r3, [r4, #1]	@ zero_extendqisi2
1175:Drivers/lvgl/src/core/lv_indev.c ****         indev_obj_act = NULL;
 2575              		.loc 1 1175 7 view .LVU875
 2576 040c 13F0020F 		tst	r3, #2
 2577 0410 02D0     		beq	.L301
1176:Drivers/lvgl/src/core/lv_indev.c ****     }
ARM GAS  /var/folders/lp/x54gwt890xv47sdkqj1k04q40000gn/T//ccfgQDQQ.s 			page 82


 2578              		.loc 1 1176 9 is_stmt 1 view .LVU876
1176:Drivers/lvgl/src/core/lv_indev.c ****     }
 2579              		.loc 1 1176 23 is_stmt 0 view .LVU877
 2580 0412 2F60     		str	r7, [r5]
 2581              		.loc 1 1179 5 is_stmt 1 view .LVU878
 2582              	.LVL188:
 2583              		.loc 1 1179 5 is_stmt 0 view .LVU879
 2584              	.LBE265:
 2585              	.LBE264:
 924:Drivers/lvgl/src/core/lv_indev.c **** 
 2586              		.loc 1 924 19 discriminator 1 view .LVU880
 2587 0414 7FF439AE 		bne	.L162
 2588              	.L301:
 927:Drivers/lvgl/src/core/lv_indev.c **** 
 2589              		.loc 1 927 17 is_stmt 1 view .LVU881
 927:Drivers/lvgl/src/core/lv_indev.c **** 
 2590              		.loc 1 927 36 is_stmt 0 view .LVU882
 2591 0418 6378     		ldrb	r3, [r4, #1]	@ zero_extendqisi2
 2592 041a 43F00103 		orr	r3, r3, #1
 2593 041e 6370     		strb	r3, [r4, #1]
 930:Drivers/lvgl/src/core/lv_indev.c ****             }
 2594              		.loc 1 930 17 is_stmt 1 view .LVU883
 930:Drivers/lvgl/src/core/lv_indev.c ****             }
 2595              		.loc 1 930 46 is_stmt 0 view .LVU884
 2596 0420 FFF7FEFF 		bl	lv_tick_get
 2597              	.LVL189:
 930:Drivers/lvgl/src/core/lv_indev.c ****             }
 2598              		.loc 1 930 44 discriminator 1 view .LVU885
 2599 0424 A064     		str	r0, [r4, #72]
 2600 0426 E6E7     		b	.L221
 2601              	.LVL190:
 2602              	.L320:
 2603              	.LBB266:
 2604              	.LBB251:
1083:Drivers/lvgl/src/core/lv_indev.c ****             lv_event_send(proc->types.pointer.last_pressed, LV_EVENT_DEFOCUSED, indev_act);
 2605              		.loc 1 1083 27 discriminator 1 view .LVU886
 2606 0428 0028     		cmp	r0, #0
 2607 042a 3FF42CAF 		beq	.L199
1084:Drivers/lvgl/src/core/lv_indev.c ****             if(indev_reset_check(proc)) return;
 2608              		.loc 1 1084 13 is_stmt 1 view .LVU887
 2609 042e 3268     		ldr	r2, [r6]
 2610 0430 0F21     		movs	r1, #15
 2611 0432 FFF7FEFF 		bl	lv_event_send
 2612              	.LVL191:
1085:Drivers/lvgl/src/core/lv_indev.c ****         }
 2613              		.loc 1 1085 13 view .LVU888
 2614              	.LBB246:
 2615              	.LBI246:
1173:Drivers/lvgl/src/core/lv_indev.c **** {
 2616              		.loc 1 1173 13 view .LVU889
 2617              	.LBB247:
1175:Drivers/lvgl/src/core/lv_indev.c ****         indev_obj_act = NULL;
 2618              		.loc 1 1175 5 view .LVU890
1175:Drivers/lvgl/src/core/lv_indev.c ****         indev_obj_act = NULL;
 2619              		.loc 1 1175 8 is_stmt 0 view .LVU891
 2620 0436 98F80530 		ldrb	r3, [r8, #5]	@ zero_extendqisi2
1175:Drivers/lvgl/src/core/lv_indev.c ****         indev_obj_act = NULL;
ARM GAS  /var/folders/lp/x54gwt890xv47sdkqj1k04q40000gn/T//ccfgQDQQ.s 			page 83


 2621              		.loc 1 1175 7 view .LVU892
 2622 043a 13F0020F 		tst	r3, #2
 2623 043e 3FF422AF 		beq	.L199
1176:Drivers/lvgl/src/core/lv_indev.c ****     }
 2624              		.loc 1 1176 9 is_stmt 1 view .LVU893
1176:Drivers/lvgl/src/core/lv_indev.c ****     }
 2625              		.loc 1 1176 23 is_stmt 0 view .LVU894
 2626 0442 C5F80090 		str	r9, [r5]
 2627              		.loc 1 1179 5 is_stmt 1 view .LVU895
 2628              	.LVL192:
 2629              		.loc 1 1179 5 is_stmt 0 view .LVU896
 2630              	.LBE247:
 2631              	.LBE246:
1085:Drivers/lvgl/src/core/lv_indev.c ****         }
 2632              		.loc 1 1085 15 discriminator 1 view .LVU897
 2633 0446 7FF431AF 		bne	.L181
1085:Drivers/lvgl/src/core/lv_indev.c ****         }
 2634              		.loc 1 1085 15 discriminator 1 view .LVU898
 2635 044a 1CE7     		b	.L199
 2636              	.LBE251:
 2637              	.LBE266:
 2638              		.cfi_endproc
 2639              	.LFE190:
 2641              		.section	.text.lv_indev_read_timer_cb,"ax",%progbits
 2642              		.align	1
 2643              		.p2align 2,,3
 2644              		.global	lv_indev_read_timer_cb
 2645              		.syntax unified
 2646              		.thumb
 2647              		.thumb_func
 2649              	lv_indev_read_timer_cb:
 2650              	.LVL193:
 2651              	.LFB167:
  65:Drivers/lvgl/src/core/lv_indev.c ****     INDEV_TRACE("begin");
 2652              		.loc 1 65 1 is_stmt 1 view -0
 2653              		.cfi_startproc
 2654              		@ args = 0, pretend = 0, frame = 24
 2655              		@ frame_needed = 0, uses_anonymous_args = 0
  66:Drivers/lvgl/src/core/lv_indev.c **** 
 2656              		.loc 1 66 25 view .LVU900
  68:Drivers/lvgl/src/core/lv_indev.c **** 
 2657              		.loc 1 68 5 view .LVU901
  70:Drivers/lvgl/src/core/lv_indev.c **** 
 2658              		.loc 1 70 5 view .LVU902
  65:Drivers/lvgl/src/core/lv_indev.c ****     INDEV_TRACE("begin");
 2659              		.loc 1 65 1 is_stmt 0 view .LVU903
 2660 0000 2DE9F04F 		push	{r4, r5, r6, r7, r8, r9, r10, fp, lr}
 2661              		.cfi_def_cfa_offset 36
 2662              		.cfi_offset 4, -36
 2663              		.cfi_offset 5, -32
 2664              		.cfi_offset 6, -28
 2665              		.cfi_offset 7, -24
 2666              		.cfi_offset 8, -20
 2667              		.cfi_offset 9, -16
 2668              		.cfi_offset 10, -12
 2669              		.cfi_offset 11, -8
 2670              		.cfi_offset 14, -4
ARM GAS  /var/folders/lp/x54gwt890xv47sdkqj1k04q40000gn/T//ccfgQDQQ.s 			page 84


  70:Drivers/lvgl/src/core/lv_indev.c **** 
 2671              		.loc 1 70 22 view .LVU904
 2672 0004 C468     		ldr	r4, [r0, #12]
  70:Drivers/lvgl/src/core/lv_indev.c **** 
 2673              		.loc 1 70 15 view .LVU905
 2674 0006 984E     		ldr	r6, .L711
  73:Drivers/lvgl/src/core/lv_indev.c **** 
 2675              		.loc 1 73 25 view .LVU906
 2676 0008 2368     		ldr	r3, [r4]
 2677 000a 1969     		ldr	r1, [r3, #16]
  65:Drivers/lvgl/src/core/lv_indev.c ****     INDEV_TRACE("begin");
 2678              		.loc 1 65 1 view .LVU907
 2679 000c 87B0     		sub	sp, sp, #28
 2680              		.cfi_def_cfa_offset 64
  70:Drivers/lvgl/src/core/lv_indev.c **** 
 2681              		.loc 1 70 15 view .LVU908
 2682 000e 3460     		str	r4, [r6]
  73:Drivers/lvgl/src/core/lv_indev.c **** 
 2683              		.loc 1 73 5 is_stmt 1 view .LVU909
  73:Drivers/lvgl/src/core/lv_indev.c **** 
 2684              		.loc 1 73 7 is_stmt 0 view .LVU910
 2685 0010 0029     		cmp	r1, #0
 2686 0012 7CD0     		beq	.L326
  76:Drivers/lvgl/src/core/lv_indev.c **** 
 2687              		.loc 1 76 5 is_stmt 1 view .LVU911
 2688              	.LVL194:
 2689              	.LBB365:
 2690              	.LBI365:
1026:Drivers/lvgl/src/core/lv_indev.c **** {
 2691              		.loc 1 1026 13 view .LVU912
 2692              	.LBB366:
1028:Drivers/lvgl/src/core/lv_indev.c ****         indev->proc.types.pointer.act_obj           = NULL;
 2693              		.loc 1 1028 5 view .LVU913
1028:Drivers/lvgl/src/core/lv_indev.c ****         indev->proc.types.pointer.act_obj           = NULL;
 2694              		.loc 1 1028 8 is_stmt 0 view .LVU914
 2695 0014 6379     		ldrb	r3, [r4, #5]	@ zero_extendqisi2
1028:Drivers/lvgl/src/core/lv_indev.c ****         indev->proc.types.pointer.act_obj           = NULL;
 2696              		.loc 1 1028 7 view .LVU915
 2697 0016 9D07     		lsls	r5, r3, #30
 2698 0018 13D5     		bpl	.L328
 2699              	.LVL195:
 2700              	.LBB367:
 2701              	.LBI367:
1026:Drivers/lvgl/src/core/lv_indev.c **** {
 2702              		.loc 1 1026 13 is_stmt 1 view .LVU916
 2703              	.LBB368:
1029:Drivers/lvgl/src/core/lv_indev.c ****         indev->proc.types.pointer.last_obj          = NULL;
 2704              		.loc 1 1029 9 view .LVU917
1029:Drivers/lvgl/src/core/lv_indev.c ****         indev->proc.types.pointer.last_obj          = NULL;
 2705              		.loc 1 1029 53 is_stmt 0 view .LVU918
 2706 001a 0022     		movs	r2, #0
1037:Drivers/lvgl/src/core/lv_indev.c ****         indev->proc.types.pointer.scroll_throw_vect.x = 0;
 2707              		.loc 1 1037 46 view .LVU919
 2708 001c 94F84400 		ldrb	r0, [r4, #68]	@ zero_extendqisi2
 2709              	.LVL196:
1043:Drivers/lvgl/src/core/lv_indev.c ****     }
 2710              		.loc 1 1043 53 view .LVU920
ARM GAS  /var/folders/lp/x54gwt890xv47sdkqj1k04q40000gn/T//ccfgQDQQ.s 			page 85


 2711 0020 924F     		ldr	r7, .L711+4
1031:Drivers/lvgl/src/core/lv_indev.c ****         indev->proc.long_pr_sent                    = 0;
 2712              		.loc 1 1031 55 view .LVU921
 2713 0022 2263     		str	r2, [r4, #48]
1030:Drivers/lvgl/src/core/lv_indev.c ****         indev->proc.types.pointer.scroll_obj          = NULL;
 2714              		.loc 1 1030 53 view .LVU922
 2715 0024 C4E90A22 		strd	r2, r2, [r4, #40]
1031:Drivers/lvgl/src/core/lv_indev.c ****         indev->proc.long_pr_sent                    = 0;
 2716              		.loc 1 1031 9 is_stmt 1 view .LVU923
1032:Drivers/lvgl/src/core/lv_indev.c ****         indev->proc.pr_timestamp                    = 0;
 2717              		.loc 1 1032 9 view .LVU924
1033:Drivers/lvgl/src/core/lv_indev.c ****         indev->proc.longpr_rep_timestamp            = 0;
 2718              		.loc 1 1033 9 view .LVU925
1034:Drivers/lvgl/src/core/lv_indev.c ****         indev->proc.types.pointer.scroll_sum.x        = 0;
 2719              		.loc 1 1034 53 is_stmt 0 view .LVU926
 2720 0028 C4E91222 		strd	r2, r2, [r4, #72]
1035:Drivers/lvgl/src/core/lv_indev.c ****         indev->proc.types.pointer.scroll_sum.y        = 0;
 2721              		.loc 1 1035 9 is_stmt 1 view .LVU927
1036:Drivers/lvgl/src/core/lv_indev.c ****         indev->proc.types.pointer.scroll_dir = LV_DIR_NONE;
 2722              		.loc 1 1036 9 view .LVU928
1038:Drivers/lvgl/src/core/lv_indev.c ****         indev->proc.types.pointer.scroll_throw_vect.y = 0;
 2723              		.loc 1 1038 55 is_stmt 0 view .LVU929
 2724 002c C4E90722 		strd	r2, r2, [r4, #28]
1032:Drivers/lvgl/src/core/lv_indev.c ****         indev->proc.pr_timestamp                    = 0;
 2725              		.loc 1 1032 53 view .LVU930
 2726 0030 23F00303 		bic	r3, r3, #3
1037:Drivers/lvgl/src/core/lv_indev.c ****         indev->proc.types.pointer.scroll_throw_vect.x = 0;
 2727              		.loc 1 1037 46 view .LVU931
 2728 0034 62F30300 		bfi	r0, r2, #0, #4
1040:Drivers/lvgl/src/core/lv_indev.c ****         indev->proc.types.pointer.gesture_sum.y     = 0;
 2729              		.loc 1 1040 53 view .LVU932
 2730 0038 2264     		str	r2, [r4, #64]
1032:Drivers/lvgl/src/core/lv_indev.c ****         indev->proc.pr_timestamp                    = 0;
 2731              		.loc 1 1032 53 view .LVU933
 2732 003a 6371     		strb	r3, [r4, #5]
1037:Drivers/lvgl/src/core/lv_indev.c ****         indev->proc.types.pointer.scroll_throw_vect.x = 0;
 2733              		.loc 1 1037 46 view .LVU934
 2734 003c 84F84400 		strb	r0, [r4, #68]
1038:Drivers/lvgl/src/core/lv_indev.c ****         indev->proc.types.pointer.scroll_throw_vect.y = 0;
 2735              		.loc 1 1038 9 is_stmt 1 view .LVU935
1039:Drivers/lvgl/src/core/lv_indev.c ****         indev->proc.types.pointer.gesture_sum.x     = 0;
 2736              		.loc 1 1039 9 view .LVU936
1040:Drivers/lvgl/src/core/lv_indev.c ****         indev->proc.types.pointer.gesture_sum.y     = 0;
 2737              		.loc 1 1040 9 view .LVU937
1041:Drivers/lvgl/src/core/lv_indev.c ****         indev->proc.reset_query                     = 0;
 2738              		.loc 1 1041 9 view .LVU938
1042:Drivers/lvgl/src/core/lv_indev.c ****         indev_obj_act                               = NULL;
 2739              		.loc 1 1042 9 view .LVU939
1043:Drivers/lvgl/src/core/lv_indev.c ****     }
 2740              		.loc 1 1043 9 view .LVU940
1043:Drivers/lvgl/src/core/lv_indev.c ****     }
 2741              		.loc 1 1043 53 is_stmt 0 view .LVU941
 2742 0040 3A60     		str	r2, [r7]
 2743              	.LVL197:
 2744              	.L328:
1043:Drivers/lvgl/src/core/lv_indev.c ****     }
 2745              		.loc 1 1043 53 view .LVU942
ARM GAS  /var/folders/lp/x54gwt890xv47sdkqj1k04q40000gn/T//ccfgQDQQ.s 			page 86


 2746              	.LBE368:
 2747              	.LBE367:
 2748              	.LBE366:
 2749              	.LBE365:
  78:Drivers/lvgl/src/core/lv_indev.c ****        indev_act->driver->disp->prev_scr != NULL) return; /*Input disabled or screen animation acti
 2750              		.loc 1 78 5 is_stmt 1 view .LVU943
  78:Drivers/lvgl/src/core/lv_indev.c ****        indev_act->driver->disp->prev_scr != NULL) return; /*Input disabled or screen animation acti
 2751              		.loc 1 78 7 is_stmt 0 view .LVU944
 2752 0042 5807     		lsls	r0, r3, #29
 2753 0044 63D4     		bmi	.L326
  78:Drivers/lvgl/src/core/lv_indev.c ****        indev_act->driver->disp->prev_scr != NULL) return; /*Input disabled or screen animation acti
 2754              		.loc 1 78 33 discriminator 1 view .LVU945
 2755 0046 4D69     		ldr	r5, [r1, #20]
 2756 0048 002D     		cmp	r5, #0
 2757 004a 60D1     		bne	.L326
 2758 004c 874F     		ldr	r7, .L711+4
 2759              	.L491:
  80:Drivers/lvgl/src/core/lv_indev.c ****     do {
 2760              		.loc 1 80 5 is_stmt 1 view .LVU946
  81:Drivers/lvgl/src/core/lv_indev.c ****         /*Read the data*/
 2761              		.loc 1 81 5 view .LVU947
  83:Drivers/lvgl/src/core/lv_indev.c ****         continue_reading = data.continue_reading;
 2762              		.loc 1 83 9 view .LVU948
 2763 004e 02A9     		add	r1, sp, #8
 2764 0050 2046     		mov	r0, r4
 2765 0052 FFF7FEFF 		bl	_lv_indev_read
 2766              	.LVL198:
  84:Drivers/lvgl/src/core/lv_indev.c **** 
 2767              		.loc 1 84 9 view .LVU949
  87:Drivers/lvgl/src/core/lv_indev.c ****         indev_obj_act = NULL;
 2768              		.loc 1 87 9 is_stmt 0 view .LVU950
 2769 0056 3468     		ldr	r4, [r6]
  84:Drivers/lvgl/src/core/lv_indev.c **** 
 2770              		.loc 1 84 26 view .LVU951
 2771 0058 9DF81780 		ldrb	r8, [sp, #23]	@ zero_extendqisi2
 2772              	.LVL199:
  87:Drivers/lvgl/src/core/lv_indev.c ****         indev_obj_act = NULL;
 2773              		.loc 1 87 9 is_stmt 1 view .LVU952
 2774              	.LBB369:
 2775              	.LBI369:
1026:Drivers/lvgl/src/core/lv_indev.c **** {
 2776              		.loc 1 1026 13 view .LVU953
 2777              	.LBB370:
1028:Drivers/lvgl/src/core/lv_indev.c ****         indev->proc.types.pointer.act_obj           = NULL;
 2778              		.loc 1 1028 5 view .LVU954
1028:Drivers/lvgl/src/core/lv_indev.c ****         indev->proc.types.pointer.act_obj           = NULL;
 2779              		.loc 1 1028 8 is_stmt 0 view .LVU955
 2780 005c 6379     		ldrb	r3, [r4, #5]	@ zero_extendqisi2
1028:Drivers/lvgl/src/core/lv_indev.c ****         indev->proc.types.pointer.act_obj           = NULL;
 2781              		.loc 1 1028 7 view .LVU956
 2782 005e 9907     		lsls	r1, r3, #30
 2783 0060 10D5     		bpl	.L329
 2784              	.LVL200:
 2785              	.LBB371:
 2786              	.LBI371:
1026:Drivers/lvgl/src/core/lv_indev.c **** {
 2787              		.loc 1 1026 13 is_stmt 1 view .LVU957
ARM GAS  /var/folders/lp/x54gwt890xv47sdkqj1k04q40000gn/T//ccfgQDQQ.s 			page 87


 2788              	.LBB372:
1029:Drivers/lvgl/src/core/lv_indev.c ****         indev->proc.types.pointer.last_obj          = NULL;
 2789              		.loc 1 1029 9 view .LVU958
1032:Drivers/lvgl/src/core/lv_indev.c ****         indev->proc.pr_timestamp                    = 0;
 2790              		.loc 1 1032 53 is_stmt 0 view .LVU959
 2791 0062 23F00303 		bic	r3, r3, #3
 2792 0066 6371     		strb	r3, [r4, #5]
1037:Drivers/lvgl/src/core/lv_indev.c ****         indev->proc.types.pointer.scroll_throw_vect.x = 0;
 2793              		.loc 1 1037 46 view .LVU960
 2794 0068 94F84430 		ldrb	r3, [r4, #68]	@ zero_extendqisi2
1031:Drivers/lvgl/src/core/lv_indev.c ****         indev->proc.long_pr_sent                    = 0;
 2795              		.loc 1 1031 55 view .LVU961
 2796 006c 2563     		str	r5, [r4, #48]
1030:Drivers/lvgl/src/core/lv_indev.c ****         indev->proc.types.pointer.scroll_obj          = NULL;
 2797              		.loc 1 1030 53 view .LVU962
 2798 006e C4E90A55 		strd	r5, r5, [r4, #40]
1031:Drivers/lvgl/src/core/lv_indev.c ****         indev->proc.long_pr_sent                    = 0;
 2799              		.loc 1 1031 9 is_stmt 1 view .LVU963
1032:Drivers/lvgl/src/core/lv_indev.c ****         indev->proc.pr_timestamp                    = 0;
 2800              		.loc 1 1032 9 view .LVU964
1033:Drivers/lvgl/src/core/lv_indev.c ****         indev->proc.longpr_rep_timestamp            = 0;
 2801              		.loc 1 1033 9 view .LVU965
1034:Drivers/lvgl/src/core/lv_indev.c ****         indev->proc.types.pointer.scroll_sum.x        = 0;
 2802              		.loc 1 1034 53 is_stmt 0 view .LVU966
 2803 0072 C4E91255 		strd	r5, r5, [r4, #72]
1035:Drivers/lvgl/src/core/lv_indev.c ****         indev->proc.types.pointer.scroll_sum.y        = 0;
 2804              		.loc 1 1035 9 is_stmt 1 view .LVU967
1036:Drivers/lvgl/src/core/lv_indev.c ****         indev->proc.types.pointer.scroll_dir = LV_DIR_NONE;
 2805              		.loc 1 1036 9 view .LVU968
1038:Drivers/lvgl/src/core/lv_indev.c ****         indev->proc.types.pointer.scroll_throw_vect.y = 0;
 2806              		.loc 1 1038 55 is_stmt 0 view .LVU969
 2807 0076 C4E90755 		strd	r5, r5, [r4, #28]
1037:Drivers/lvgl/src/core/lv_indev.c ****         indev->proc.types.pointer.scroll_throw_vect.x = 0;
 2808              		.loc 1 1037 46 view .LVU970
 2809 007a 65F30303 		bfi	r3, r5, #0, #4
1040:Drivers/lvgl/src/core/lv_indev.c ****         indev->proc.types.pointer.gesture_sum.y     = 0;
 2810              		.loc 1 1040 53 view .LVU971
 2811 007e 2564     		str	r5, [r4, #64]
1037:Drivers/lvgl/src/core/lv_indev.c ****         indev->proc.types.pointer.scroll_throw_vect.x = 0;
 2812              		.loc 1 1037 46 view .LVU972
 2813 0080 84F84430 		strb	r3, [r4, #68]
1038:Drivers/lvgl/src/core/lv_indev.c ****         indev->proc.types.pointer.scroll_throw_vect.y = 0;
 2814              		.loc 1 1038 9 is_stmt 1 view .LVU973
1039:Drivers/lvgl/src/core/lv_indev.c ****         indev->proc.types.pointer.gesture_sum.x     = 0;
 2815              		.loc 1 1039 9 view .LVU974
1040:Drivers/lvgl/src/core/lv_indev.c ****         indev->proc.types.pointer.gesture_sum.y     = 0;
 2816              		.loc 1 1040 9 view .LVU975
1041:Drivers/lvgl/src/core/lv_indev.c ****         indev->proc.reset_query                     = 0;
 2817              		.loc 1 1041 9 view .LVU976
1042:Drivers/lvgl/src/core/lv_indev.c ****         indev_obj_act                               = NULL;
 2818              		.loc 1 1042 9 view .LVU977
1043:Drivers/lvgl/src/core/lv_indev.c ****     }
 2819              		.loc 1 1043 9 view .LVU978
 2820              	.LVL201:
 2821              	.L329:
1043:Drivers/lvgl/src/core/lv_indev.c ****     }
 2822              		.loc 1 1043 9 is_stmt 0 view .LVU979
ARM GAS  /var/folders/lp/x54gwt890xv47sdkqj1k04q40000gn/T//ccfgQDQQ.s 			page 88


 2823              	.LBE372:
 2824              	.LBE371:
 2825              	.LBE370:
 2826              	.LBE369:
  88:Drivers/lvgl/src/core/lv_indev.c **** 
 2827              		.loc 1 88 9 is_stmt 1 view .LVU980
  90:Drivers/lvgl/src/core/lv_indev.c **** 
 2828              		.loc 1 90 37 is_stmt 0 view .LVU981
 2829 0084 9DF81620 		ldrb	r2, [sp, #22]	@ zero_extendqisi2
  94:Drivers/lvgl/src/core/lv_indev.c ****         }
 2830              		.loc 1 94 22 view .LVU982
 2831 0088 2168     		ldr	r1, [r4]
  88:Drivers/lvgl/src/core/lv_indev.c **** 
 2832              		.loc 1 88 23 view .LVU983
 2833 008a 3D60     		str	r5, [r7]
  90:Drivers/lvgl/src/core/lv_indev.c **** 
 2834              		.loc 1 90 9 is_stmt 1 view .LVU984
  93:Drivers/lvgl/src/core/lv_indev.c ****             indev_act->driver->disp->last_activity_time = lv_tick_get();
 2835              		.loc 1 93 11 is_stmt 0 view .LVU985
 2836 008c 012A     		cmp	r2, #1
  90:Drivers/lvgl/src/core/lv_indev.c **** 
 2837              		.loc 1 90 31 view .LVU986
 2838 008e 2271     		strb	r2, [r4, #4]
  93:Drivers/lvgl/src/core/lv_indev.c ****             indev_act->driver->disp->last_activity_time = lv_tick_get();
 2839              		.loc 1 93 9 is_stmt 1 view .LVU987
  93:Drivers/lvgl/src/core/lv_indev.c ****             indev_act->driver->disp->last_activity_time = lv_tick_get();
 2840              		.loc 1 93 11 is_stmt 0 view .LVU988
 2841 0090 00F0D380 		beq	.L658
  96:Drivers/lvgl/src/core/lv_indev.c ****             indev_act->driver->disp->last_activity_time = lv_tick_get();
 2842              		.loc 1 96 14 is_stmt 1 view .LVU989
  96:Drivers/lvgl/src/core/lv_indev.c ****             indev_act->driver->disp->last_activity_time = lv_tick_get();
 2843              		.loc 1 96 34 is_stmt 0 view .LVU990
 2844 0094 0B78     		ldrb	r3, [r1]	@ zero_extendqisi2
  96:Drivers/lvgl/src/core/lv_indev.c ****             indev_act->driver->disp->last_activity_time = lv_tick_get();
 2845              		.loc 1 96 16 view .LVU991
 2846 0096 042B     		cmp	r3, #4
 2847 0098 00F0EA80 		beq	.L686
 100:Drivers/lvgl/src/core/lv_indev.c ****             indev_pointer_proc(indev_act, &data);
 2848              		.loc 1 100 9 is_stmt 1 view .LVU992
 2849 009c 013B     		subs	r3, r3, #1
 2850 009e 022B     		cmp	r3, #2
 2851 00a0 18D8     		bhi	.L663
 2852 00a2 DFE803F0 		tbb	[pc, r3]
 2853              	.L495:
 2854 00a6 37       		.byte	(.L339-.L495)/2
 2855 00a7 78       		.byte	(.L347-.L495)/2
 2856 00a8 02       		.byte	(.L337-.L495)/2
 2857 00a9 00       		.p2align 1
 2858              	.L337:
 110:Drivers/lvgl/src/core/lv_indev.c ****         }
 2859              		.loc 1 110 13 view .LVU993
 2860              	.LVL202:
 2861              	.LBB373:
 2862              	.LBI373:
 768:Drivers/lvgl/src/core/lv_indev.c **** {
 2863              		.loc 1 768 13 view .LVU994
 2864              	.LBB374:
ARM GAS  /var/folders/lp/x54gwt890xv47sdkqj1k04q40000gn/T//ccfgQDQQ.s 			page 89


 771:Drivers/lvgl/src/core/lv_indev.c ****         LV_LOG_WARN("btn_points is NULL");
 2865              		.loc 1 771 5 view .LVU995
 771:Drivers/lvgl/src/core/lv_indev.c ****         LV_LOG_WARN("btn_points is NULL");
 2866              		.loc 1 771 9 is_stmt 0 view .LVU996
 2867 00aa A36D     		ldr	r3, [r4, #88]
 771:Drivers/lvgl/src/core/lv_indev.c ****         LV_LOG_WARN("btn_points is NULL");
 2868              		.loc 1 771 7 view .LVU997
 2869 00ac 8BB1     		cbz	r3, .L394
 776:Drivers/lvgl/src/core/lv_indev.c ****     lv_coord_t y = i->btn_points[data->btn_id].y;
 2870              		.loc 1 776 5 is_stmt 1 view .LVU998
 776:Drivers/lvgl/src/core/lv_indev.c ****     lv_coord_t y = i->btn_points[data->btn_id].y;
 2871              		.loc 1 776 33 is_stmt 0 view .LVU999
 2872 00ae 049A     		ldr	r2, [sp, #16]
 776:Drivers/lvgl/src/core/lv_indev.c ****     lv_coord_t y = i->btn_points[data->btn_id].y;
 2873              		.loc 1 776 16 view .LVU1000
 2874 00b0 53F82290 		ldr	r9, [r3, r2, lsl #2]	@ unaligned
 2875              	.LVL203:
 777:Drivers/lvgl/src/core/lv_indev.c **** 
 2876              		.loc 1 777 5 is_stmt 1 view .LVU1001
 779:Drivers/lvgl/src/core/lv_indev.c ****     if(prev_state != data->state) {
 2877              		.loc 1 779 5 view .LVU1002
 780:Drivers/lvgl/src/core/lv_indev.c ****         if(data->state == LV_INDEV_STATE_PRESSED) {
 2878              		.loc 1 780 5 view .LVU1003
 781:Drivers/lvgl/src/core/lv_indev.c ****             LV_LOG_INFO("button %" LV_PRIu32 " is pressed (x:%d y:%d)", data->btn_id, x, y);
 2879              		.loc 1 781 9 view .LVU1004
 782:Drivers/lvgl/src/core/lv_indev.c ****         }
 2880              		.loc 1 782 13 view .LVU1005
 782:Drivers/lvgl/src/core/lv_indev.c ****         }
 2881              		.loc 1 782 13 view .LVU1006
 782:Drivers/lvgl/src/core/lv_indev.c ****         }
 2882              		.loc 1 782 13 view .LVU1007
 785:Drivers/lvgl/src/core/lv_indev.c ****         }
 2883              		.loc 1 785 13 view .LVU1008
 785:Drivers/lvgl/src/core/lv_indev.c ****         }
 2884              		.loc 1 785 13 view .LVU1009
 785:Drivers/lvgl/src/core/lv_indev.c ****         }
 2885              		.loc 1 785 13 view .LVU1010
 790:Drivers/lvgl/src/core/lv_indev.c ****         if(i->proc.types.pointer.last_point.x != x ||
 2886              		.loc 1 790 5 view .LVU1011
 790:Drivers/lvgl/src/core/lv_indev.c ****         if(i->proc.types.pointer.last_point.x != x ||
 2887              		.loc 1 790 7 is_stmt 0 view .LVU1012
 2888 00b4 9DF81630 		ldrb	r3, [sp, #22]	@ zero_extendqisi2
 2889              	.LVL204:
 790:Drivers/lvgl/src/core/lv_indev.c ****         if(i->proc.types.pointer.last_point.x != x ||
 2890              		.loc 1 790 7 view .LVU1013
 2891 00b8 012B     		cmp	r3, #1
 2892 00ba 00F07C81 		beq	.L687
 2893              	.LVL205:
 2894              	.L482:
 797:Drivers/lvgl/src/core/lv_indev.c **** 
 2895              		.loc 1 797 5 is_stmt 1 view .LVU1014
 2896              	.LBB375:
 2897              	.LBI375:
1173:Drivers/lvgl/src/core/lv_indev.c **** {
 2898              		.loc 1 1173 13 view .LVU1015
 2899              	.LBB376:
1175:Drivers/lvgl/src/core/lv_indev.c ****         indev_obj_act = NULL;
ARM GAS  /var/folders/lp/x54gwt890xv47sdkqj1k04q40000gn/T//ccfgQDQQ.s 			page 90


 2900              		.loc 1 1175 5 view .LVU1016
1175:Drivers/lvgl/src/core/lv_indev.c ****         indev_obj_act = NULL;
 2901              		.loc 1 1175 8 is_stmt 0 view .LVU1017
 2902 00be 6379     		ldrb	r3, [r4, #5]	@ zero_extendqisi2
1175:Drivers/lvgl/src/core/lv_indev.c ****         indev_obj_act = NULL;
 2903              		.loc 1 1175 7 view .LVU1018
 2904 00c0 13F0020F 		tst	r3, #2
 2905 00c4 00F09F80 		beq	.L485
1176:Drivers/lvgl/src/core/lv_indev.c ****     }
 2906              		.loc 1 1176 9 is_stmt 1 view .LVU1019
1176:Drivers/lvgl/src/core/lv_indev.c ****     }
 2907              		.loc 1 1176 23 is_stmt 0 view .LVU1020
 2908 00c8 4FF00002 		mov	r2, #0
 2909 00cc 3A60     		str	r2, [r7]
 2910              		.loc 1 1179 5 is_stmt 1 view .LVU1021
 2911              	.LVL206:
 2912              		.loc 1 1179 5 is_stmt 0 view .LVU1022
 2913              	.LBE376:
 2914              	.LBE375:
 797:Drivers/lvgl/src/core/lv_indev.c **** 
 2915              		.loc 1 797 7 discriminator 1 view .LVU1023
 2916 00ce 00F09A80 		beq	.L485
 2917              	.LVL207:
 2918              	.L394:
 797:Drivers/lvgl/src/core/lv_indev.c **** 
 2919              		.loc 1 797 7 discriminator 1 view .LVU1024
 2920              	.LBE374:
 2921              	.LBE373:
 113:Drivers/lvgl/src/core/lv_indev.c ****     } while(continue_reading);
 2922              		.loc 1 113 9 view .LVU1025
 2923 00d2 3468     		ldr	r4, [r6]
 2924              	.L663:
 2925              	.LBB386:
 2926              	.LBB387:
1028:Drivers/lvgl/src/core/lv_indev.c ****         indev->proc.types.pointer.act_obj           = NULL;
 2927              		.loc 1 1028 8 view .LVU1026
 2928 00d4 6379     		ldrb	r3, [r4, #5]	@ zero_extendqisi2
 2929              	.L340:
 2930              	.LBE387:
 2931              	.LBE386:
 113:Drivers/lvgl/src/core/lv_indev.c ****     } while(continue_reading);
 2932              		.loc 1 113 9 is_stmt 1 view .LVU1027
 2933              	.LVL208:
 2934              	.LBB396:
 2935              	.LBI386:
1026:Drivers/lvgl/src/core/lv_indev.c **** {
 2936              		.loc 1 1026 13 view .LVU1028
 2937              	.LBB390:
1028:Drivers/lvgl/src/core/lv_indev.c ****         indev->proc.types.pointer.act_obj           = NULL;
 2938              		.loc 1 1028 5 view .LVU1029
1028:Drivers/lvgl/src/core/lv_indev.c ****         indev->proc.types.pointer.act_obj           = NULL;
 2939              		.loc 1 1028 7 is_stmt 0 view .LVU1030
 2940 00d6 9B07     		lsls	r3, r3, #30
 2941 00d8 12D5     		bpl	.L490
 2942              	.LVL209:
 2943              	.LBB388:
 2944              	.LBI388:
ARM GAS  /var/folders/lp/x54gwt890xv47sdkqj1k04q40000gn/T//ccfgQDQQ.s 			page 91


1026:Drivers/lvgl/src/core/lv_indev.c **** {
 2945              		.loc 1 1026 13 is_stmt 1 view .LVU1031
 2946              	.LBB389:
1029:Drivers/lvgl/src/core/lv_indev.c ****         indev->proc.types.pointer.last_obj          = NULL;
 2947              		.loc 1 1029 9 view .LVU1032
1037:Drivers/lvgl/src/core/lv_indev.c ****         indev->proc.types.pointer.scroll_throw_vect.x = 0;
 2948              		.loc 1 1037 46 is_stmt 0 view .LVU1033
 2949 00da 94F84430 		ldrb	r3, [r4, #68]	@ zero_extendqisi2
1031:Drivers/lvgl/src/core/lv_indev.c ****         indev->proc.long_pr_sent                    = 0;
 2950              		.loc 1 1031 55 view .LVU1034
 2951 00de 2563     		str	r5, [r4, #48]
1037:Drivers/lvgl/src/core/lv_indev.c ****         indev->proc.types.pointer.scroll_throw_vect.x = 0;
 2952              		.loc 1 1037 46 view .LVU1035
 2953 00e0 65F30303 		bfi	r3, r5, #0, #4
 2954 00e4 84F84430 		strb	r3, [r4, #68]
1032:Drivers/lvgl/src/core/lv_indev.c ****         indev->proc.pr_timestamp                    = 0;
 2955              		.loc 1 1032 53 view .LVU1036
 2956 00e8 6379     		ldrb	r3, [r4, #5]	@ zero_extendqisi2
1040:Drivers/lvgl/src/core/lv_indev.c ****         indev->proc.types.pointer.gesture_sum.y     = 0;
 2957              		.loc 1 1040 53 view .LVU1037
 2958 00ea 2564     		str	r5, [r4, #64]
1030:Drivers/lvgl/src/core/lv_indev.c ****         indev->proc.types.pointer.scroll_obj          = NULL;
 2959              		.loc 1 1030 53 view .LVU1038
 2960 00ec C4E90A55 		strd	r5, r5, [r4, #40]
1031:Drivers/lvgl/src/core/lv_indev.c ****         indev->proc.long_pr_sent                    = 0;
 2961              		.loc 1 1031 9 is_stmt 1 view .LVU1039
1032:Drivers/lvgl/src/core/lv_indev.c ****         indev->proc.pr_timestamp                    = 0;
 2962              		.loc 1 1032 9 view .LVU1040
1033:Drivers/lvgl/src/core/lv_indev.c ****         indev->proc.longpr_rep_timestamp            = 0;
 2963              		.loc 1 1033 9 view .LVU1041
1034:Drivers/lvgl/src/core/lv_indev.c ****         indev->proc.types.pointer.scroll_sum.x        = 0;
 2964              		.loc 1 1034 53 is_stmt 0 view .LVU1042
 2965 00f0 C4E91255 		strd	r5, r5, [r4, #72]
1035:Drivers/lvgl/src/core/lv_indev.c ****         indev->proc.types.pointer.scroll_sum.y        = 0;
 2966              		.loc 1 1035 9 is_stmt 1 view .LVU1043
1036:Drivers/lvgl/src/core/lv_indev.c ****         indev->proc.types.pointer.scroll_dir = LV_DIR_NONE;
 2967              		.loc 1 1036 9 view .LVU1044
1038:Drivers/lvgl/src/core/lv_indev.c ****         indev->proc.types.pointer.scroll_throw_vect.y = 0;
 2968              		.loc 1 1038 9 view .LVU1045
1039:Drivers/lvgl/src/core/lv_indev.c ****         indev->proc.types.pointer.gesture_sum.x     = 0;
 2969              		.loc 1 1039 9 view .LVU1046
1040:Drivers/lvgl/src/core/lv_indev.c ****         indev->proc.types.pointer.gesture_sum.y     = 0;
 2970              		.loc 1 1040 9 view .LVU1047
1041:Drivers/lvgl/src/core/lv_indev.c ****         indev->proc.reset_query                     = 0;
 2971              		.loc 1 1041 9 view .LVU1048
1042:Drivers/lvgl/src/core/lv_indev.c ****         indev_obj_act                               = NULL;
 2972              		.loc 1 1042 9 view .LVU1049
1038:Drivers/lvgl/src/core/lv_indev.c ****         indev->proc.types.pointer.scroll_throw_vect.y = 0;
 2973              		.loc 1 1038 55 is_stmt 0 view .LVU1050
 2974 00f4 C4E90755 		strd	r5, r5, [r4, #28]
1032:Drivers/lvgl/src/core/lv_indev.c ****         indev->proc.pr_timestamp                    = 0;
 2975              		.loc 1 1032 53 view .LVU1051
 2976 00f8 23F00303 		bic	r3, r3, #3
1043:Drivers/lvgl/src/core/lv_indev.c ****     }
 2977              		.loc 1 1043 53 view .LVU1052
 2978 00fc 3D60     		str	r5, [r7]
1032:Drivers/lvgl/src/core/lv_indev.c ****         indev->proc.pr_timestamp                    = 0;
ARM GAS  /var/folders/lp/x54gwt890xv47sdkqj1k04q40000gn/T//ccfgQDQQ.s 			page 92


 2979              		.loc 1 1032 53 view .LVU1053
 2980 00fe 6371     		strb	r3, [r4, #5]
1043:Drivers/lvgl/src/core/lv_indev.c ****     }
 2981              		.loc 1 1043 9 is_stmt 1 view .LVU1054
 2982              	.LVL210:
 2983              	.L490:
1043:Drivers/lvgl/src/core/lv_indev.c ****     }
 2984              		.loc 1 1043 9 is_stmt 0 view .LVU1055
 2985              	.LBE389:
 2986              	.LBE388:
 2987              	.LBE390:
 2988              	.LBE396:
 114:Drivers/lvgl/src/core/lv_indev.c **** 
 2989              		.loc 1 114 13 is_stmt 1 view .LVU1056
 2990 0100 B8F1000F 		cmp	r8, #0
 2991 0104 A3D1     		bne	.L491
 117:Drivers/lvgl/src/core/lv_indev.c ****     indev_obj_act = NULL;
 2992              		.loc 1 117 5 view .LVU1057
 117:Drivers/lvgl/src/core/lv_indev.c ****     indev_obj_act = NULL;
 2993              		.loc 1 117 19 is_stmt 0 view .LVU1058
 2994 0106 C6F80080 		str	r8, [r6]
 118:Drivers/lvgl/src/core/lv_indev.c **** 
 2995              		.loc 1 118 5 is_stmt 1 view .LVU1059
 118:Drivers/lvgl/src/core/lv_indev.c **** 
 2996              		.loc 1 118 19 is_stmt 0 view .LVU1060
 2997 010a C7F80080 		str	r8, [r7]
 120:Drivers/lvgl/src/core/lv_indev.c **** }
 2998              		.loc 1 120 28 is_stmt 1 view .LVU1061
 2999              	.LVL211:
 3000              	.L326:
 121:Drivers/lvgl/src/core/lv_indev.c **** 
 3001              		.loc 1 121 1 is_stmt 0 view .LVU1062
 3002 010e 07B0     		add	sp, sp, #28
 3003              		.cfi_remember_state
 3004              		.cfi_def_cfa_offset 36
 3005              		@ sp needed
 3006 0110 BDE8F08F 		pop	{r4, r5, r6, r7, r8, r9, r10, fp, pc}
 3007              	.LVL212:
 3008              	.L339:
 3009              		.cfi_restore_state
 101:Drivers/lvgl/src/core/lv_indev.c ****         }
 3010              		.loc 1 101 13 is_stmt 1 view .LVU1063
 3011              	.LBB397:
 3012              	.LBI397:
 340:Drivers/lvgl/src/core/lv_indev.c **** {
 3013              		.loc 1 340 13 view .LVU1064
 3014              	.LBB398:
 342:Drivers/lvgl/src/core/lv_indev.c ****     /*Save the raw points so they can be used again in _lv_indev_read*/
 3015              		.loc 1 342 5 view .LVU1065
 342:Drivers/lvgl/src/core/lv_indev.c ****     /*Save the raw points so they can be used again in _lv_indev_read*/
 3016              		.loc 1 342 17 is_stmt 0 view .LVU1066
 3017 0114 0869     		ldr	r0, [r1, #16]
 3018              	.LVL213:
 344:Drivers/lvgl/src/core/lv_indev.c ****     i->proc.types.pointer.last_raw_point.y = data->point.y;
 3019              		.loc 1 344 5 is_stmt 1 view .LVU1067
 344:Drivers/lvgl/src/core/lv_indev.c ****     i->proc.types.pointer.last_raw_point.y = data->point.y;
 3020              		.loc 1 344 57 is_stmt 0 view .LVU1068
ARM GAS  /var/folders/lp/x54gwt890xv47sdkqj1k04q40000gn/T//ccfgQDQQ.s 			page 93


 3021 0116 029A     		ldr	r2, [sp, #8]
 347:Drivers/lvgl/src/core/lv_indev.c ****         data->point.x = disp->driver->hor_res - data->point.x - 1;
 3022              		.loc 1 347 12 view .LVU1069
 3023 0118 0168     		ldr	r1, [r0]
 344:Drivers/lvgl/src/core/lv_indev.c ****     i->proc.types.pointer.last_raw_point.y = data->point.y;
 3024              		.loc 1 344 57 view .LVU1070
 3025 011a BDF908E0 		ldrsh	lr, [sp, #8]
 345:Drivers/lvgl/src/core/lv_indev.c **** 
 3026              		.loc 1 345 5 is_stmt 1 view .LVU1071
 347:Drivers/lvgl/src/core/lv_indev.c ****         data->point.x = disp->driver->hor_res - data->point.x - 1;
 3027              		.loc 1 347 5 view .LVU1072
 347:Drivers/lvgl/src/core/lv_indev.c ****         data->point.x = disp->driver->hor_res - data->point.x - 1;
 3028              		.loc 1 347 30 is_stmt 0 view .LVU1073
 3029 011e 0B7C     		ldrb	r3, [r1, #16]	@ zero_extendqisi2
 345:Drivers/lvgl/src/core/lv_indev.c **** 
 3030              		.loc 1 345 57 view .LVU1074
 3031 0120 BDF90AC0 		ldrsh	ip, [sp, #10]
 344:Drivers/lvgl/src/core/lv_indev.c ****     i->proc.types.pointer.last_raw_point.y = data->point.y;
 3032              		.loc 1 344 44 view .LVU1075
 3033 0124 6261     		str	r2, [r4, #20]
 347:Drivers/lvgl/src/core/lv_indev.c ****         data->point.x = disp->driver->hor_res - data->point.x - 1;
 3034              		.loc 1 347 30 view .LVU1076
 3035 0126 03F03003 		and	r3, r3, #48
 347:Drivers/lvgl/src/core/lv_indev.c ****         data->point.x = disp->driver->hor_res - data->point.x - 1;
 3036              		.loc 1 347 7 view .LVU1077
 3037 012a 202B     		cmp	r3, #32
 3038 012c 00F03681 		beq	.L341
 347:Drivers/lvgl/src/core/lv_indev.c ****         data->point.x = disp->driver->hor_res - data->point.x - 1;
 3039              		.loc 1 347 49 discriminator 1 view .LVU1078
 3040 0130 302B     		cmp	r3, #48
 3041 0132 42F30F4C 		sbfx	ip, r2, #16, #16
 3042 0136 12B2     		sxth	r2, r2
 3043 0138 00F01E81 		beq	.L342
 351:Drivers/lvgl/src/core/lv_indev.c ****         lv_coord_t tmp = data->point.y;
 3044              		.loc 1 351 5 is_stmt 1 view .LVU1079
 351:Drivers/lvgl/src/core/lv_indev.c ****         lv_coord_t tmp = data->point.y;
 3045              		.loc 1 351 7 is_stmt 0 view .LVU1080
 3046 013c 102B     		cmp	r3, #16
 3047 013e 09D1     		bne	.L343
 3048              	.LBB399:
 354:Drivers/lvgl/src/core/lv_indev.c ****     }
 3049              		.loc 1 354 37 view .LVU1081
 3050 0140 4B88     		ldrh	r3, [r1, #2]
 3051              	.LBE399:
 349:Drivers/lvgl/src/core/lv_indev.c ****     }
 3052              		.loc 1 349 60 view .LVU1082
 3053 0142 1FFA8CFC 		uxth	ip, ip
 3054              	.L493:
 3055              	.LBB400:
 352:Drivers/lvgl/src/core/lv_indev.c ****         data->point.y = data->point.x;
 3056              		.loc 1 352 9 is_stmt 1 view .LVU1083
 3057              	.LVL214:
 353:Drivers/lvgl/src/core/lv_indev.c ****         data->point.x = disp->driver->ver_res - tmp - 1;
 3058              		.loc 1 353 9 view .LVU1084
 354:Drivers/lvgl/src/core/lv_indev.c ****     }
 3059              		.loc 1 354 53 is_stmt 0 view .LVU1085
 3060 0146 013B     		subs	r3, r3, #1
ARM GAS  /var/folders/lp/x54gwt890xv47sdkqj1k04q40000gn/T//ccfgQDQQ.s 			page 94


 3061 0148 A3EB0C03 		sub	r3, r3, ip
 353:Drivers/lvgl/src/core/lv_indev.c ****         data->point.x = disp->driver->ver_res - tmp - 1;
 3062              		.loc 1 353 23 view .LVU1086
 3063 014c ADF80A20 		strh	r2, [sp, #10]	@ movhi
 3064              	.LVL215:
 354:Drivers/lvgl/src/core/lv_indev.c ****     }
 3065              		.loc 1 354 9 is_stmt 1 view .LVU1087
 354:Drivers/lvgl/src/core/lv_indev.c ****     }
 3066              		.loc 1 354 23 is_stmt 0 view .LVU1088
 3067 0150 ADF80830 		strh	r3, [sp, #8]	@ movhi
 3068              	.LVL216:
 3069              	.L343:
 354:Drivers/lvgl/src/core/lv_indev.c ****     }
 3070              		.loc 1 354 23 view .LVU1089
 3071              	.LBE400:
 358:Drivers/lvgl/src/core/lv_indev.c ****         LV_LOG_WARN("X is %d which is smaller than zero", (int)data->point.x);
 3072              		.loc 1 358 5 is_stmt 1 view .LVU1090
 359:Drivers/lvgl/src/core/lv_indev.c ****     }
 3073              		.loc 1 359 9 view .LVU1091
 359:Drivers/lvgl/src/core/lv_indev.c ****     }
 3074              		.loc 1 359 9 view .LVU1092
 359:Drivers/lvgl/src/core/lv_indev.c ****     }
 3075              		.loc 1 359 9 view .LVU1093
 361:Drivers/lvgl/src/core/lv_indev.c ****         LV_LOG_WARN("X is %d which is greater than hor. res", (int)data->point.x);
 3076              		.loc 1 361 5 view .LVU1094
 361:Drivers/lvgl/src/core/lv_indev.c ****         LV_LOG_WARN("X is %d which is greater than hor. res", (int)data->point.x);
 3077              		.loc 1 361 25 is_stmt 0 view .LVU1095
 3078 0154 FFF7FEFF 		bl	lv_disp_get_hor_res
 3079              	.LVL217:
 362:Drivers/lvgl/src/core/lv_indev.c ****     }
 3080              		.loc 1 362 9 is_stmt 1 view .LVU1096
 362:Drivers/lvgl/src/core/lv_indev.c ****     }
 3081              		.loc 1 362 9 view .LVU1097
 362:Drivers/lvgl/src/core/lv_indev.c ****     }
 3082              		.loc 1 362 9 view .LVU1098
 364:Drivers/lvgl/src/core/lv_indev.c ****         LV_LOG_WARN("Y is %d which is smaller than zero", (int)data->point.y);
 3083              		.loc 1 364 5 view .LVU1099
 365:Drivers/lvgl/src/core/lv_indev.c ****     }
 3084              		.loc 1 365 9 view .LVU1100
 365:Drivers/lvgl/src/core/lv_indev.c ****     }
 3085              		.loc 1 365 9 view .LVU1101
 365:Drivers/lvgl/src/core/lv_indev.c ****     }
 3086              		.loc 1 365 9 view .LVU1102
 367:Drivers/lvgl/src/core/lv_indev.c ****         LV_LOG_WARN("Y is %d which is greater than ver. res", (int)data->point.y);
 3087              		.loc 1 367 5 view .LVU1103
 367:Drivers/lvgl/src/core/lv_indev.c ****         LV_LOG_WARN("Y is %d which is greater than ver. res", (int)data->point.y);
 3088              		.loc 1 367 54 is_stmt 0 view .LVU1104
 3089 0158 2368     		ldr	r3, [r4]
 367:Drivers/lvgl/src/core/lv_indev.c ****         LV_LOG_WARN("Y is %d which is greater than ver. res", (int)data->point.y);
 3090              		.loc 1 367 25 view .LVU1105
 3091 015a 1869     		ldr	r0, [r3, #16]
 3092 015c FFF7FEFF 		bl	lv_disp_get_ver_res
 3093              	.LVL218:
 368:Drivers/lvgl/src/core/lv_indev.c ****     }
 3094              		.loc 1 368 9 is_stmt 1 view .LVU1106
 368:Drivers/lvgl/src/core/lv_indev.c ****     }
 3095              		.loc 1 368 9 view .LVU1107
ARM GAS  /var/folders/lp/x54gwt890xv47sdkqj1k04q40000gn/T//ccfgQDQQ.s 			page 95


 368:Drivers/lvgl/src/core/lv_indev.c ****     }
 3096              		.loc 1 368 9 view .LVU1108
 372:Drivers/lvgl/src/core/lv_indev.c ****        (i->proc.types.pointer.last_point.x != data->point.x || i->proc.types.pointer.last_point.y !
 3097              		.loc 1 372 5 view .LVU1109
 372:Drivers/lvgl/src/core/lv_indev.c ****        (i->proc.types.pointer.last_point.x != data->point.x || i->proc.types.pointer.last_point.y !
 3098              		.loc 1 372 9 is_stmt 0 view .LVU1110
 3099 0160 206D     		ldr	r0, [r4, #80]
 372:Drivers/lvgl/src/core/lv_indev.c ****        (i->proc.types.pointer.last_point.x != data->point.x || i->proc.types.pointer.last_point.y !
 3100              		.loc 1 372 7 view .LVU1111
 3101 0162 48B1     		cbz	r0, .L344
 372:Drivers/lvgl/src/core/lv_indev.c ****        (i->proc.types.pointer.last_point.x != data->point.x || i->proc.types.pointer.last_point.y !
 3102              		.loc 1 372 26 discriminator 1 view .LVU1112
 3103 0164 2269     		ldr	r2, [r4, #16]
 3104 0166 029B     		ldr	r3, [sp, #8]
 3105 0168 9A42     		cmp	r2, r3
 3106 016a 05D0     		beq	.L344
 374:Drivers/lvgl/src/core/lv_indev.c ****     }
 3107              		.loc 1 374 9 is_stmt 1 view .LVU1113
 3108 016c BDF90A20 		ldrsh	r2, [sp, #10]
 3109 0170 BDF90810 		ldrsh	r1, [sp, #8]
 3110 0174 FFF7FEFF 		bl	lv_obj_set_pos
 3111              	.LVL219:
 3112              	.L344:
 377:Drivers/lvgl/src/core/lv_indev.c ****     i->proc.types.pointer.act_point.y = data->point.y;
 3113              		.loc 1 377 5 view .LVU1114
 378:Drivers/lvgl/src/core/lv_indev.c **** 
 3114              		.loc 1 378 5 view .LVU1115
 380:Drivers/lvgl/src/core/lv_indev.c ****         indev_proc_press(&i->proc);
 3115              		.loc 1 380 7 is_stmt 0 view .LVU1116
 3116 0178 2379     		ldrb	r3, [r4, #4]	@ zero_extendqisi2
 377:Drivers/lvgl/src/core/lv_indev.c ****     i->proc.types.pointer.act_point.y = data->point.y;
 3117              		.loc 1 377 39 view .LVU1117
 3118 017a 029A     		ldr	r2, [sp, #8]
 3119 017c A260     		str	r2, [r4, #8]
 380:Drivers/lvgl/src/core/lv_indev.c ****         indev_proc_press(&i->proc);
 3120              		.loc 1 380 5 is_stmt 1 view .LVU1118
 380:Drivers/lvgl/src/core/lv_indev.c ****         indev_proc_press(&i->proc);
 3121              		.loc 1 380 7 is_stmt 0 view .LVU1119
 3122 017e 012B     		cmp	r3, #1
 381:Drivers/lvgl/src/core/lv_indev.c ****     }
 3123              		.loc 1 381 9 view .LVU1120
 3124 0180 04F10400 		add	r0, r4, #4
 380:Drivers/lvgl/src/core/lv_indev.c ****         indev_proc_press(&i->proc);
 3125              		.loc 1 380 7 view .LVU1121
 3126 0184 00F00781 		beq	.L688
 384:Drivers/lvgl/src/core/lv_indev.c ****     }
 3127              		.loc 1 384 9 is_stmt 1 view .LVU1122
 3128 0188 FFF7FEFF 		bl	indev_proc_release
 3129              	.LVL220:
 3130              	.L346:
 387:Drivers/lvgl/src/core/lv_indev.c ****     i->proc.types.pointer.last_point.y = i->proc.types.pointer.act_point.y;
 3131              		.loc 1 387 5 view .LVU1123
 388:Drivers/lvgl/src/core/lv_indev.c **** }
 3132              		.loc 1 388 5 view .LVU1124
 387:Drivers/lvgl/src/core/lv_indev.c ****     i->proc.types.pointer.last_point.y = i->proc.types.pointer.act_point.y;
 3133              		.loc 1 387 40 is_stmt 0 view .LVU1125
 3134 018c A368     		ldr	r3, [r4, #8]
ARM GAS  /var/folders/lp/x54gwt890xv47sdkqj1k04q40000gn/T//ccfgQDQQ.s 			page 96


 3135 018e 2361     		str	r3, [r4, #16]
 3136              	.LVL221:
 387:Drivers/lvgl/src/core/lv_indev.c ****     i->proc.types.pointer.last_point.y = i->proc.types.pointer.act_point.y;
 3137              		.loc 1 387 40 view .LVU1126
 3138              	.LBE398:
 3139              	.LBE397:
 113:Drivers/lvgl/src/core/lv_indev.c ****     } while(continue_reading);
 3140              		.loc 1 113 9 view .LVU1127
 3141 0190 3468     		ldr	r4, [r6]
 3142              	.LBB404:
 3143              	.LBB391:
1028:Drivers/lvgl/src/core/lv_indev.c ****         indev->proc.types.pointer.act_obj           = NULL;
 3144              		.loc 1 1028 8 view .LVU1128
 3145 0192 6379     		ldrb	r3, [r4, #5]	@ zero_extendqisi2
 3146              	.LBE391:
 3147              	.LBE404:
 3148              	.LBB405:
 3149              	.LBB401:
 389:Drivers/lvgl/src/core/lv_indev.c **** 
 3150              		.loc 1 389 1 view .LVU1129
 3151 0194 9FE7     		b	.L340
 3152              	.L347:
 3153              	.LBE401:
 3154              	.LBE405:
 3155              	.LBB406:
 3156              	.LBB407:
 400:Drivers/lvgl/src/core/lv_indev.c ****         i->proc.wait_until_release      = 0;
 3157              		.loc 1 400 5 is_stmt 1 view .LVU1130
 400:Drivers/lvgl/src/core/lv_indev.c ****         i->proc.wait_until_release      = 0;
 3158              		.loc 1 400 8 is_stmt 0 view .LVU1131
 3159 0196 6379     		ldrb	r3, [r4, #5]	@ zero_extendqisi2
 400:Drivers/lvgl/src/core/lv_indev.c ****         i->proc.wait_until_release      = 0;
 3160              		.loc 1 400 7 view .LVU1132
 3161 0198 1A07     		lsls	r2, r3, #28
 3162 019a 05D5     		bpl	.L348
 401:Drivers/lvgl/src/core/lv_indev.c ****         i->proc.pr_timestamp            = 0;
 3163              		.loc 1 401 9 is_stmt 1 view .LVU1133
 402:Drivers/lvgl/src/core/lv_indev.c ****         i->proc.long_pr_sent            = 0;
 3164              		.loc 1 402 9 view .LVU1134
 403:Drivers/lvgl/src/core/lv_indev.c ****         i->proc.types.keypad.last_state = LV_INDEV_STATE_RELEASED; /*To skip the processing of rele
 3165              		.loc 1 403 41 is_stmt 0 view .LVU1135
 3166 019c 23F00903 		bic	r3, r3, #9
 3167 01a0 6371     		strb	r3, [r4, #5]
 402:Drivers/lvgl/src/core/lv_indev.c ****         i->proc.long_pr_sent            = 0;
 3168              		.loc 1 402 41 view .LVU1136
 3169 01a2 0023     		movs	r3, #0
 3170 01a4 A364     		str	r3, [r4, #72]
 403:Drivers/lvgl/src/core/lv_indev.c ****         i->proc.types.keypad.last_state = LV_INDEV_STATE_RELEASED; /*To skip the processing of rele
 3171              		.loc 1 403 9 is_stmt 1 view .LVU1137
 404:Drivers/lvgl/src/core/lv_indev.c ****     }
 3172              		.loc 1 404 9 view .LVU1138
 404:Drivers/lvgl/src/core/lv_indev.c ****     }
 3173              		.loc 1 404 41 is_stmt 0 view .LVU1139
 3174 01a6 2372     		strb	r3, [r4, #8]
 3175              	.L348:
 407:Drivers/lvgl/src/core/lv_indev.c ****     if(g == NULL) return;
 3176              		.loc 1 407 5 is_stmt 1 view .LVU1140
ARM GAS  /var/folders/lp/x54gwt890xv47sdkqj1k04q40000gn/T//ccfgQDQQ.s 			page 97


 407:Drivers/lvgl/src/core/lv_indev.c ****     if(g == NULL) return;
 3177              		.loc 1 407 18 is_stmt 0 view .LVU1141
 3178 01a8 D4F85490 		ldr	r9, [r4, #84]
 3179              	.LVL222:
 408:Drivers/lvgl/src/core/lv_indev.c **** 
 3180              		.loc 1 408 5 is_stmt 1 view .LVU1142
 408:Drivers/lvgl/src/core/lv_indev.c **** 
 3181              		.loc 1 408 7 is_stmt 0 view .LVU1143
 3182 01ac B9F1000F 		cmp	r9, #0
 3183 01b0 8FD0     		beq	.L394
 410:Drivers/lvgl/src/core/lv_indev.c ****     if(indev_obj_act == NULL) return;
 3184              		.loc 1 410 5 is_stmt 1 view .LVU1144
 410:Drivers/lvgl/src/core/lv_indev.c ****     if(indev_obj_act == NULL) return;
 3185              		.loc 1 410 21 is_stmt 0 view .LVU1145
 3186 01b2 4846     		mov	r0, r9
 3187 01b4 FFF7FEFF 		bl	lv_group_get_focused
 3188              	.LVL223:
 410:Drivers/lvgl/src/core/lv_indev.c ****     if(indev_obj_act == NULL) return;
 3189              		.loc 1 410 19 discriminator 1 view .LVU1146
 3190 01b8 3860     		str	r0, [r7]
 411:Drivers/lvgl/src/core/lv_indev.c **** 
 3191              		.loc 1 411 5 is_stmt 1 view .LVU1147
 411:Drivers/lvgl/src/core/lv_indev.c **** 
 3192              		.loc 1 411 7 is_stmt 0 view .LVU1148
 3193 01ba 0028     		cmp	r0, #0
 3194 01bc 89D0     		beq	.L394
 413:Drivers/lvgl/src/core/lv_indev.c **** 
 3195              		.loc 1 413 5 is_stmt 1 view .LVU1149
 413:Drivers/lvgl/src/core/lv_indev.c **** 
 3196              		.loc 1 413 16 is_stmt 0 view .LVU1150
 3197 01be 8021     		movs	r1, #128
 3198 01c0 FFF7FEFF 		bl	lv_obj_has_state
 3199              	.LVL224:
 420:Drivers/lvgl/src/core/lv_indev.c **** 
 3200              		.loc 1 420 41 view .LVU1151
 3201 01c4 039A     		ldr	r2, [sp, #12]
 416:Drivers/lvgl/src/core/lv_indev.c **** 
 3202              		.loc 1 416 14 view .LVU1152
 3203 01c6 E168     		ldr	r1, [r4, #12]
 420:Drivers/lvgl/src/core/lv_indev.c **** 
 3204              		.loc 1 420 35 view .LVU1153
 3205 01c8 E260     		str	r2, [r4, #12]
 426:Drivers/lvgl/src/core/lv_indev.c **** 
 3206              		.loc 1 426 43 view .LVU1154
 3207 01ca 9DF81630 		ldrb	r3, [sp, #22]	@ zero_extendqisi2
 425:Drivers/lvgl/src/core/lv_indev.c ****     i->proc.types.keypad.last_state = data->state;
 3208              		.loc 1 425 14 view .LVU1155
 3209 01ce 94F808B0 		ldrb	fp, [r4, #8]	@ zero_extendqisi2
 426:Drivers/lvgl/src/core/lv_indev.c **** 
 3210              		.loc 1 426 37 view .LVU1156
 3211 01d2 2372     		strb	r3, [r4, #8]
 429:Drivers/lvgl/src/core/lv_indev.c ****         LV_LOG_INFO("%" LV_PRIu32 " key is pressed", data->key);
 3212              		.loc 1 429 7 view .LVU1157
 3213 01d4 012B     		cmp	r3, #1
 413:Drivers/lvgl/src/core/lv_indev.c **** 
 3214              		.loc 1 413 16 view .LVU1158
 3215 01d6 8246     		mov	r10, r0
ARM GAS  /var/folders/lp/x54gwt890xv47sdkqj1k04q40000gn/T//ccfgQDQQ.s 			page 98


 3216              	.LVL225:
 416:Drivers/lvgl/src/core/lv_indev.c **** 
 3217              		.loc 1 416 5 is_stmt 1 view .LVU1159
 420:Drivers/lvgl/src/core/lv_indev.c **** 
 3218              		.loc 1 420 5 view .LVU1160
 425:Drivers/lvgl/src/core/lv_indev.c ****     i->proc.types.keypad.last_state = data->state;
 3219              		.loc 1 425 5 view .LVU1161
 426:Drivers/lvgl/src/core/lv_indev.c **** 
 3220              		.loc 1 426 5 view .LVU1162
 429:Drivers/lvgl/src/core/lv_indev.c ****         LV_LOG_INFO("%" LV_PRIu32 " key is pressed", data->key);
 3221              		.loc 1 429 5 view .LVU1163
 429:Drivers/lvgl/src/core/lv_indev.c ****         LV_LOG_INFO("%" LV_PRIu32 " key is pressed", data->key);
 3222              		.loc 1 429 7 is_stmt 0 view .LVU1164
 3223 01d8 00F0FD80 		beq	.L689
 471:Drivers/lvgl/src/core/lv_indev.c **** 
 3224              		.loc 1 471 10 is_stmt 1 view .LVU1165
 474:Drivers/lvgl/src/core/lv_indev.c ****             if(indev_reset_check(&i->proc)) return;
 3225              		.loc 1 474 13 is_stmt 0 view .LVU1166
 3226 01dc 3268     		ldr	r2, [r6]
 471:Drivers/lvgl/src/core/lv_indev.c **** 
 3227              		.loc 1 471 12 view .LVU1167
 3228 01de 68B9     		cbnz	r0, .L357
 518:Drivers/lvgl/src/core/lv_indev.c ****         LV_LOG_INFO("%" LV_PRIu32 " key is released", data->key);
 3229              		.loc 1 518 10 is_stmt 1 view .LVU1168
 518:Drivers/lvgl/src/core/lv_indev.c ****         LV_LOG_INFO("%" LV_PRIu32 " key is released", data->key);
 3230              		.loc 1 518 18 is_stmt 0 discriminator 1 view .LVU1169
 3231 01e0 63B9     		cbnz	r3, .L357
 518:Drivers/lvgl/src/core/lv_indev.c ****         LV_LOG_INFO("%" LV_PRIu32 " key is released", data->key);
 3232              		.loc 1 518 60 discriminator 2 view .LVU1170
 3233 01e2 BBF1010F 		cmp	fp, #1
 3234 01e6 09D1     		bne	.L357
 519:Drivers/lvgl/src/core/lv_indev.c ****         /*The user might clear the key when it was released. Always release the pressed key*/
 3235              		.loc 1 519 9 is_stmt 1 view .LVU1171
 519:Drivers/lvgl/src/core/lv_indev.c ****         /*The user might clear the key when it was released. Always release the pressed key*/
 3236              		.loc 1 519 9 view .LVU1172
 519:Drivers/lvgl/src/core/lv_indev.c ****         /*The user might clear the key when it was released. Always release the pressed key*/
 3237              		.loc 1 519 9 view .LVU1173
 521:Drivers/lvgl/src/core/lv_indev.c ****         if(data->key == LV_KEY_ENTER) {
 3238              		.loc 1 521 9 view .LVU1174
 522:Drivers/lvgl/src/core/lv_indev.c **** 
 3239              		.loc 1 522 11 is_stmt 0 view .LVU1175
 3240 01e8 0A29     		cmp	r1, #10
 521:Drivers/lvgl/src/core/lv_indev.c ****         if(data->key == LV_KEY_ENTER) {
 3241              		.loc 1 521 19 view .LVU1176
 3242 01ea 0391     		str	r1, [sp, #12]
 522:Drivers/lvgl/src/core/lv_indev.c **** 
 3243              		.loc 1 522 9 is_stmt 1 view .LVU1177
 522:Drivers/lvgl/src/core/lv_indev.c **** 
 3244              		.loc 1 522 11 is_stmt 0 view .LVU1178
 3245 01ec 00F0DE82 		beq	.L690
 3246              	.LVL226:
 3247              	.L387:
 536:Drivers/lvgl/src/core/lv_indev.c ****         i->proc.long_pr_sent = 0;
 3248              		.loc 1 536 9 is_stmt 1 view .LVU1179
 537:Drivers/lvgl/src/core/lv_indev.c ****     }
 3249              		.loc 1 537 30 is_stmt 0 view .LVU1180
 3250 01f0 6379     		ldrb	r3, [r4, #5]	@ zero_extendqisi2
ARM GAS  /var/folders/lp/x54gwt890xv47sdkqj1k04q40000gn/T//ccfgQDQQ.s 			page 99


 536:Drivers/lvgl/src/core/lv_indev.c ****         i->proc.long_pr_sent = 0;
 3251              		.loc 1 536 30 view .LVU1181
 3252 01f2 0022     		movs	r2, #0
 537:Drivers/lvgl/src/core/lv_indev.c ****     }
 3253              		.loc 1 537 30 view .LVU1182
 3254 01f4 62F30003 		bfi	r3, r2, #0, #1
 536:Drivers/lvgl/src/core/lv_indev.c ****         i->proc.long_pr_sent = 0;
 3255              		.loc 1 536 30 view .LVU1183
 3256 01f8 A264     		str	r2, [r4, #72]
 537:Drivers/lvgl/src/core/lv_indev.c ****     }
 3257              		.loc 1 537 9 is_stmt 1 view .LVU1184
 537:Drivers/lvgl/src/core/lv_indev.c ****     }
 3258              		.loc 1 537 30 is_stmt 0 view .LVU1185
 3259 01fa 6371     		strb	r3, [r4, #5]
 3260              	.L357:
 539:Drivers/lvgl/src/core/lv_indev.c **** }
 3261              		.loc 1 539 5 is_stmt 1 view .LVU1186
 539:Drivers/lvgl/src/core/lv_indev.c **** }
 3262              		.loc 1 539 19 is_stmt 0 view .LVU1187
 3263 01fc 0023     		movs	r3, #0
 3264              	.LBE407:
 3265              	.LBE406:
 113:Drivers/lvgl/src/core/lv_indev.c ****     } while(continue_reading);
 3266              		.loc 1 113 9 view .LVU1188
 3267 01fe 3468     		ldr	r4, [r6]
 3268              	.LBB455:
 3269              	.LBB442:
 539:Drivers/lvgl/src/core/lv_indev.c **** }
 3270              		.loc 1 539 19 view .LVU1189
 3271 0200 3B60     		str	r3, [r7]
 3272              	.LBE442:
 3273              	.LBE455:
 3274              	.LBB456:
 3275              	.LBB392:
1028:Drivers/lvgl/src/core/lv_indev.c ****         indev->proc.types.pointer.act_obj           = NULL;
 3276              		.loc 1 1028 8 view .LVU1190
 3277 0202 6379     		ldrb	r3, [r4, #5]	@ zero_extendqisi2
 3278 0204 67E7     		b	.L340
 3279              	.LVL227:
 3280              	.L485:
1028:Drivers/lvgl/src/core/lv_indev.c ****         indev->proc.types.pointer.act_obj           = NULL;
 3281              		.loc 1 1028 8 view .LVU1191
 3282              	.LBE392:
 3283              	.LBE456:
 3284              	.LBB457:
 3285              	.LBB381:
 800:Drivers/lvgl/src/core/lv_indev.c ****     i->proc.types.pointer.act_point.y = y;
 3286              		.loc 1 800 5 is_stmt 1 view .LVU1192
 801:Drivers/lvgl/src/core/lv_indev.c **** 
 3287              		.loc 1 801 5 view .LVU1193
 800:Drivers/lvgl/src/core/lv_indev.c ****     i->proc.types.pointer.act_point.y = y;
 3288              		.loc 1 800 39 is_stmt 0 view .LVU1194
 3289 0206 C4F80890 		str	r9, [r4, #8]
 803:Drivers/lvgl/src/core/lv_indev.c ****     else indev_proc_release(&i->proc);
 3290              		.loc 1 803 5 is_stmt 1 view .LVU1195
 803:Drivers/lvgl/src/core/lv_indev.c ****     else indev_proc_release(&i->proc);
 3291              		.loc 1 803 7 is_stmt 0 view .LVU1196
ARM GAS  /var/folders/lp/x54gwt890xv47sdkqj1k04q40000gn/T//ccfgQDQQ.s 			page 100


 3292 020a 9DF81630 		ldrb	r3, [sp, #22]	@ zero_extendqisi2
 3293 020e 012B     		cmp	r3, #1
 803:Drivers/lvgl/src/core/lv_indev.c ****     else indev_proc_release(&i->proc);
 3294              		.loc 1 803 47 discriminator 1 view .LVU1197
 3295 0210 04F10400 		add	r0, r4, #4
 803:Drivers/lvgl/src/core/lv_indev.c ****     else indev_proc_release(&i->proc);
 3296              		.loc 1 803 7 view .LVU1198
 3297 0214 00F0BC80 		beq	.L691
 804:Drivers/lvgl/src/core/lv_indev.c **** 
 3298              		.loc 1 804 10 is_stmt 1 view .LVU1199
 3299 0218 FFF7FEFF 		bl	indev_proc_release
 3300              	.LVL228:
 3301              	.L487:
 806:Drivers/lvgl/src/core/lv_indev.c **** 
 3302              		.loc 1 806 5 view .LVU1200
 3303              	.LBB377:
 3304              	.LBI377:
1173:Drivers/lvgl/src/core/lv_indev.c **** {
 3305              		.loc 1 1173 13 view .LVU1201
 3306              	.LBB378:
1175:Drivers/lvgl/src/core/lv_indev.c ****         indev_obj_act = NULL;
 3307              		.loc 1 1175 5 view .LVU1202
1175:Drivers/lvgl/src/core/lv_indev.c ****         indev_obj_act = NULL;
 3308              		.loc 1 1175 8 is_stmt 0 view .LVU1203
 3309 021c 6279     		ldrb	r2, [r4, #5]	@ zero_extendqisi2
1175:Drivers/lvgl/src/core/lv_indev.c ****         indev_obj_act = NULL;
 3310              		.loc 1 1175 7 view .LVU1204
 3311 021e 9107     		lsls	r1, r2, #30
1176:Drivers/lvgl/src/core/lv_indev.c ****     }
 3312              		.loc 1 1176 9 is_stmt 1 view .LVU1205
 3313              		.loc 1 1179 5 view .LVU1206
 3314              	.LVL229:
1176:Drivers/lvgl/src/core/lv_indev.c ****     }
 3315              		.loc 1 1176 23 is_stmt 0 view .LVU1207
 3316 0220 48BF     		it	mi
 3317 0222 0023     		movmi	r3, #0
 3318              	.LBE378:
 3319              	.LBE377:
 3320              	.LBE381:
 3321              	.LBE457:
 113:Drivers/lvgl/src/core/lv_indev.c ****     } while(continue_reading);
 3322              		.loc 1 113 9 view .LVU1208
 3323 0224 3168     		ldr	r1, [r6]
 3324              	.LBB458:
 3325              	.LBB382:
 3326              	.LBB380:
 3327              	.LBB379:
1176:Drivers/lvgl/src/core/lv_indev.c ****     }
 3328              		.loc 1 1176 23 view .LVU1209
 3329 0226 48BF     		it	mi
 3330 0228 3B60     		strmi	r3, [r7]
 3331              	.LBE379:
 3332              	.LBE380:
 806:Drivers/lvgl/src/core/lv_indev.c **** 
 3333              		.loc 1 806 7 discriminator 1 view .LVU1210
 3334 022a 9207     		lsls	r2, r2, #30
 808:Drivers/lvgl/src/core/lv_indev.c ****     i->proc.types.pointer.last_point.y = i->proc.types.pointer.act_point.y;
ARM GAS  /var/folders/lp/x54gwt890xv47sdkqj1k04q40000gn/T//ccfgQDQQ.s 			page 101


 3335              		.loc 1 808 5 is_stmt 1 view .LVU1211
 809:Drivers/lvgl/src/core/lv_indev.c **** }
 3336              		.loc 1 809 5 view .LVU1212
 808:Drivers/lvgl/src/core/lv_indev.c ****     i->proc.types.pointer.last_point.y = i->proc.types.pointer.act_point.y;
 3337              		.loc 1 808 40 is_stmt 0 view .LVU1213
 3338 022c 58BF     		it	pl
 3339 022e A268     		ldrpl	r2, [r4, #8]
 3340              	.LBE382:
 3341              	.LBE458:
 3342              	.LBB459:
 3343              	.LBB393:
1028:Drivers/lvgl/src/core/lv_indev.c ****         indev->proc.types.pointer.act_obj           = NULL;
 3344              		.loc 1 1028 8 view .LVU1214
 3345 0230 4B79     		ldrb	r3, [r1, #5]	@ zero_extendqisi2
 3346              	.LBE393:
 3347              	.LBE459:
 3348              	.LBB460:
 3349              	.LBB383:
 808:Drivers/lvgl/src/core/lv_indev.c ****     i->proc.types.pointer.last_point.y = i->proc.types.pointer.act_point.y;
 3350              		.loc 1 808 40 view .LVU1215
 3351 0232 58BF     		it	pl
 3352 0234 2261     		strpl	r2, [r4, #16]
 3353              	.LBE383:
 3354              	.LBE460:
 3355              	.LBB461:
 3356              	.LBB462:
 3357              	.LBB463:
 753:Drivers/lvgl/src/core/lv_indev.c ****                     lv_group_focus_next(g);
 3358              		.loc 1 753 23 view .LVU1216
 3359 0236 0C46     		mov	r4, r1
 3360              	.LVL230:
 753:Drivers/lvgl/src/core/lv_indev.c ****                     lv_group_focus_next(g);
 3361              		.loc 1 753 23 view .LVU1217
 3362 0238 4DE7     		b	.L340
 3363              	.LVL231:
 3364              	.L658:
 753:Drivers/lvgl/src/core/lv_indev.c ****                     lv_group_focus_next(g);
 3365              		.loc 1 753 23 view .LVU1218
 3366              	.LBE463:
 3367              	.LBE462:
 3368              	.LBE461:
  97:Drivers/lvgl/src/core/lv_indev.c ****         }
 3369              		.loc 1 97 13 is_stmt 1 view .LVU1219
  97:Drivers/lvgl/src/core/lv_indev.c ****         }
 3370              		.loc 1 97 30 is_stmt 0 view .LVU1220
 3371 023a 0C69     		ldr	r4, [r1, #16]
  97:Drivers/lvgl/src/core/lv_indev.c ****         }
 3372              		.loc 1 97 59 view .LVU1221
 3373 023c FFF7FEFF 		bl	lv_tick_get
 3374              	.LVL232:
  97:Drivers/lvgl/src/core/lv_indev.c ****         }
 3375              		.loc 1 97 57 discriminator 1 view .LVU1222
 3376 0240 C4F86401 		str	r0, [r4, #356]
 100:Drivers/lvgl/src/core/lv_indev.c ****             indev_pointer_proc(indev_act, &data);
 3377              		.loc 1 100 9 is_stmt 1 view .LVU1223
 100:Drivers/lvgl/src/core/lv_indev.c ****             indev_pointer_proc(indev_act, &data);
 3378              		.loc 1 100 21 is_stmt 0 view .LVU1224
ARM GAS  /var/folders/lp/x54gwt890xv47sdkqj1k04q40000gn/T//ccfgQDQQ.s 			page 102


 3379 0244 3468     		ldr	r4, [r6]
 3380 0246 2168     		ldr	r1, [r4]
 3381 0248 0B78     		ldrb	r3, [r1]	@ zero_extendqisi2
 3382 024a 013B     		subs	r3, r3, #1
 3383 024c 032B     		cmp	r3, #3
 3384 024e 3FF641AF 		bhi	.L663
 3385 0252 01A2     		adr	r2, .L336
 3386 0254 52F823F0 		ldr	pc, [r2, r3, lsl #2]
 3387              		.p2align 2
 3388              	.L336:
 3389 0258 15010000 		.word	.L339+1
 3390 025c 47030000 		.word	.L338+1
 3391 0260 AB000000 		.word	.L337+1
 3392 0264 5F030000 		.word	.L335+1
 3393              		.p2align 1
 3394              	.L712:
 3395              		.align	2
 3396              	.L711:
 3397 0268 00000000 		.word	indev_act
 3398 026c 00000000 		.word	indev_obj_act
 3399              	.L686:
  96:Drivers/lvgl/src/core/lv_indev.c ****             indev_act->driver->disp->last_activity_time = lv_tick_get();
 3400              		.loc 1 96 66 discriminator 1 view .LVU1225
 3401 0270 BDF91430 		ldrsh	r3, [sp, #20]
 3402 0274 002B     		cmp	r3, #0
 3403 0276 E0D1     		bne	.L658
 107:Drivers/lvgl/src/core/lv_indev.c ****         }
 3404              		.loc 1 107 13 is_stmt 1 view .LVU1226
 3405              	.LVL233:
 3406              	.LBB558:
 3407              	.LBI461:
 547:Drivers/lvgl/src/core/lv_indev.c **** {
 3408              		.loc 1 547 13 view .LVU1227
 3409              	.LBB547:
 549:Drivers/lvgl/src/core/lv_indev.c **** 
 3410              		.loc 1 549 5 view .LVU1228
 549:Drivers/lvgl/src/core/lv_indev.c **** 
 3411              		.loc 1 549 46 is_stmt 0 discriminator 1 view .LVU1229
 3412 0278 6379     		ldrb	r3, [r4, #5]	@ zero_extendqisi2
 3413 027a 03F00803 		and	r3, r3, #8
 3414              	.L393:
 551:Drivers/lvgl/src/core/lv_indev.c ****         i->proc.wait_until_release      = 0;
 3415              		.loc 1 551 5 is_stmt 1 view .LVU1230
 551:Drivers/lvgl/src/core/lv_indev.c ****         i->proc.wait_until_release      = 0;
 3416              		.loc 1 551 7 is_stmt 0 view .LVU1231
 3417 027e 002B     		cmp	r3, #0
 3418 0280 77D0     		beq	.L659
 552:Drivers/lvgl/src/core/lv_indev.c ****         i->proc.pr_timestamp            = 0;
 3419              		.loc 1 552 9 is_stmt 1 view .LVU1232
 553:Drivers/lvgl/src/core/lv_indev.c ****         i->proc.long_pr_sent            = 0;
 3420              		.loc 1 553 9 view .LVU1233
 554:Drivers/lvgl/src/core/lv_indev.c ****         i->proc.types.keypad.last_state = LV_INDEV_STATE_RELEASED; /*To skip the processing of rele
 3421              		.loc 1 554 41 is_stmt 0 view .LVU1234
 3422 0282 6379     		ldrb	r3, [r4, #5]	@ zero_extendqisi2
 3423 0284 23F00903 		bic	r3, r3, #9
 3424 0288 6371     		strb	r3, [r4, #5]
 553:Drivers/lvgl/src/core/lv_indev.c ****         i->proc.long_pr_sent            = 0;
ARM GAS  /var/folders/lp/x54gwt890xv47sdkqj1k04q40000gn/T//ccfgQDQQ.s 			page 103


 3425              		.loc 1 553 41 view .LVU1235
 3426 028a 0023     		movs	r3, #0
 3427 028c A364     		str	r3, [r4, #72]
 554:Drivers/lvgl/src/core/lv_indev.c ****         i->proc.types.keypad.last_state = LV_INDEV_STATE_RELEASED; /*To skip the processing of rele
 3428              		.loc 1 554 9 is_stmt 1 view .LVU1236
 555:Drivers/lvgl/src/core/lv_indev.c ****     }
 3429              		.loc 1 555 9 view .LVU1237
 554:Drivers/lvgl/src/core/lv_indev.c ****         i->proc.types.keypad.last_state = LV_INDEV_STATE_RELEASED; /*To skip the processing of rele
 3430              		.loc 1 554 41 is_stmt 0 view .LVU1238
 3431 028e 9A46     		mov	r10, r3
 3432              	.L395:
 560:Drivers/lvgl/src/core/lv_indev.c ****     i->proc.types.keypad.last_state = data->state;
 3433              		.loc 1 560 5 is_stmt 1 view .LVU1239
 3434              	.LVL234:
 561:Drivers/lvgl/src/core/lv_indev.c ****     i->proc.types.keypad.last_key   = data->key;
 3435              		.loc 1 561 5 view .LVU1240
 564:Drivers/lvgl/src/core/lv_indev.c ****     if(g == NULL) return;
 3436              		.loc 1 564 18 is_stmt 0 view .LVU1241
 3437 0290 D4F85490 		ldr	r9, [r4, #84]
 562:Drivers/lvgl/src/core/lv_indev.c **** 
 3438              		.loc 1 562 37 view .LVU1242
 3439 0294 039B     		ldr	r3, [sp, #12]
 561:Drivers/lvgl/src/core/lv_indev.c ****     i->proc.types.keypad.last_key   = data->key;
 3440              		.loc 1 561 37 view .LVU1243
 3441 0296 2272     		strb	r2, [r4, #8]
 3442              	.LVL235:
 562:Drivers/lvgl/src/core/lv_indev.c **** 
 3443              		.loc 1 562 5 is_stmt 1 view .LVU1244
 562:Drivers/lvgl/src/core/lv_indev.c **** 
 3444              		.loc 1 562 37 is_stmt 0 view .LVU1245
 3445 0298 E360     		str	r3, [r4, #12]
 564:Drivers/lvgl/src/core/lv_indev.c ****     if(g == NULL) return;
 3446              		.loc 1 564 5 is_stmt 1 view .LVU1246
 3447              	.LVL236:
 565:Drivers/lvgl/src/core/lv_indev.c **** 
 3448              		.loc 1 565 5 view .LVU1247
 565:Drivers/lvgl/src/core/lv_indev.c **** 
 3449              		.loc 1 565 7 is_stmt 0 view .LVU1248
 3450 029a B9F1000F 		cmp	r9, #0
 3451 029e 3FF418AF 		beq	.L394
 567:Drivers/lvgl/src/core/lv_indev.c ****     if(indev_obj_act == NULL) return;
 3452              		.loc 1 567 5 is_stmt 1 view .LVU1249
 567:Drivers/lvgl/src/core/lv_indev.c ****     if(indev_obj_act == NULL) return;
 3453              		.loc 1 567 21 is_stmt 0 view .LVU1250
 3454 02a2 4846     		mov	r0, r9
 3455 02a4 FFF7FEFF 		bl	lv_group_get_focused
 3456              	.LVL237:
 567:Drivers/lvgl/src/core/lv_indev.c ****     if(indev_obj_act == NULL) return;
 3457              		.loc 1 567 19 discriminator 1 view .LVU1251
 3458 02a8 3860     		str	r0, [r7]
 568:Drivers/lvgl/src/core/lv_indev.c **** 
 3459              		.loc 1 568 5 is_stmt 1 view .LVU1252
 568:Drivers/lvgl/src/core/lv_indev.c **** 
 3460              		.loc 1 568 7 is_stmt 0 view .LVU1253
 3461 02aa 0028     		cmp	r0, #0
 3462 02ac 3FF411AF 		beq	.L394
 571:Drivers/lvgl/src/core/lv_indev.c ****         data->enc_diff = 0;
ARM GAS  /var/folders/lp/x54gwt890xv47sdkqj1k04q40000gn/T//ccfgQDQQ.s 			page 104


 3463              		.loc 1 571 5 is_stmt 1 view .LVU1254
 571:Drivers/lvgl/src/core/lv_indev.c ****         data->enc_diff = 0;
 3464              		.loc 1 571 7 is_stmt 0 view .LVU1255
 3465 02b0 9DF81630 		ldrb	r3, [sp, #22]	@ zero_extendqisi2
 3466 02b4 13B1     		cbz	r3, .L399
 572:Drivers/lvgl/src/core/lv_indev.c ****     }
 3467              		.loc 1 572 9 is_stmt 1 view .LVU1256
 572:Drivers/lvgl/src/core/lv_indev.c ****     }
 3468              		.loc 1 572 24 is_stmt 0 view .LVU1257
 3469 02b6 0023     		movs	r3, #0
 3470 02b8 ADF81430 		strh	r3, [sp, #20]	@ movhi
 3471              	.L399:
 576:Drivers/lvgl/src/core/lv_indev.c ****     if(indev_obj_act == NULL) return;
 3472              		.loc 1 576 5 is_stmt 1 view .LVU1258
 576:Drivers/lvgl/src/core/lv_indev.c ****     if(indev_obj_act == NULL) return;
 3473              		.loc 1 576 21 is_stmt 0 view .LVU1259
 3474 02bc 4846     		mov	r0, r9
 3475 02be FFF7FEFF 		bl	lv_group_get_focused
 3476              	.LVL238:
 576:Drivers/lvgl/src/core/lv_indev.c ****     if(indev_obj_act == NULL) return;
 3477              		.loc 1 576 19 discriminator 1 view .LVU1260
 3478 02c2 3860     		str	r0, [r7]
 577:Drivers/lvgl/src/core/lv_indev.c **** 
 3479              		.loc 1 577 5 is_stmt 1 view .LVU1261
 577:Drivers/lvgl/src/core/lv_indev.c **** 
 3480              		.loc 1 577 7 is_stmt 0 view .LVU1262
 3481 02c4 0028     		cmp	r0, #0
 3482 02c6 3FF404AF 		beq	.L394
 580:Drivers/lvgl/src/core/lv_indev.c ****         LV_LOG_INFO("pressed");
 3483              		.loc 1 580 5 is_stmt 1 view .LVU1263
 580:Drivers/lvgl/src/core/lv_indev.c ****         LV_LOG_INFO("pressed");
 3484              		.loc 1 580 12 is_stmt 0 view .LVU1264
 3485 02ca 9DF81630 		ldrb	r3, [sp, #22]	@ zero_extendqisi2
 580:Drivers/lvgl/src/core/lv_indev.c ****         LV_LOG_INFO("pressed");
 3486              		.loc 1 580 7 view .LVU1265
 3487 02ce 012B     		cmp	r3, #1
 3488 02d0 00F0B680 		beq	.L692
 616:Drivers/lvgl/src/core/lv_indev.c ****         /*Long press*/
 3489              		.loc 1 616 10 is_stmt 1 view .LVU1266
 671:Drivers/lvgl/src/core/lv_indev.c ****         LV_LOG_INFO("released");
 3490              		.loc 1 671 10 view .LVU1267
 671:Drivers/lvgl/src/core/lv_indev.c ****         LV_LOG_INFO("released");
 3491              		.loc 1 671 12 is_stmt 0 view .LVU1268
 3492 02d4 63B9     		cbnz	r3, .L660
 671:Drivers/lvgl/src/core/lv_indev.c ****         LV_LOG_INFO("released");
 3493              		.loc 1 671 52 discriminator 1 view .LVU1269
 3494 02d6 BAF1010F 		cmp	r10, #1
 3495 02da 09D1     		bne	.L660
 672:Drivers/lvgl/src/core/lv_indev.c **** 
 3496              		.loc 1 672 9 is_stmt 1 view .LVU1270
 672:Drivers/lvgl/src/core/lv_indev.c **** 
 3497              		.loc 1 672 9 view .LVU1271
 672:Drivers/lvgl/src/core/lv_indev.c **** 
 3498              		.loc 1 672 9 view .LVU1272
 674:Drivers/lvgl/src/core/lv_indev.c ****             bool editable_or_scrollable = lv_obj_is_editable(indev_obj_act) ||
 3499              		.loc 1 674 9 view .LVU1273
 674:Drivers/lvgl/src/core/lv_indev.c ****             bool editable_or_scrollable = lv_obj_is_editable(indev_obj_act) ||
ARM GAS  /var/folders/lp/x54gwt890xv47sdkqj1k04q40000gn/T//ccfgQDQQ.s 			page 105


 3500              		.loc 1 674 11 is_stmt 0 view .LVU1274
 3501 02dc 039B     		ldr	r3, [sp, #12]
 3502 02de 0A2B     		cmp	r3, #10
 3503 02e0 00F0DB81 		beq	.L693
 3504              	.L443:
 718:Drivers/lvgl/src/core/lv_indev.c ****         i->proc.long_pr_sent = 0;
 3505              		.loc 1 718 9 is_stmt 1 view .LVU1275
 719:Drivers/lvgl/src/core/lv_indev.c ****     }
 3506              		.loc 1 719 30 is_stmt 0 view .LVU1276
 3507 02e4 6279     		ldrb	r2, [r4, #5]	@ zero_extendqisi2
 718:Drivers/lvgl/src/core/lv_indev.c ****         i->proc.long_pr_sent = 0;
 3508              		.loc 1 718 30 view .LVU1277
 3509 02e6 0023     		movs	r3, #0
 719:Drivers/lvgl/src/core/lv_indev.c ****     }
 3510              		.loc 1 719 30 view .LVU1278
 3511 02e8 63F30002 		bfi	r2, r3, #0, #1
 3512 02ec 6271     		strb	r2, [r4, #5]
 718:Drivers/lvgl/src/core/lv_indev.c ****         i->proc.long_pr_sent = 0;
 3513              		.loc 1 718 30 view .LVU1279
 3514 02ee A364     		str	r3, [r4, #72]
 3515              	.L660:
 719:Drivers/lvgl/src/core/lv_indev.c ****     }
 3516              		.loc 1 719 9 is_stmt 1 view .LVU1280
 724:Drivers/lvgl/src/core/lv_indev.c ****         /*In edit mode send LEFT/RIGHT keys*/
 3517              		.loc 1 724 12 is_stmt 0 view .LVU1281
 3518 02f0 BDF91430 		ldrsh	r3, [sp, #20]
 3519              	.L412:
 721:Drivers/lvgl/src/core/lv_indev.c **** 
 3520              		.loc 1 721 5 is_stmt 1 view .LVU1282
 721:Drivers/lvgl/src/core/lv_indev.c **** 
 3521              		.loc 1 721 19 is_stmt 0 view .LVU1283
 3522 02f4 4FF0000A 		mov	r10, #0
 3523 02f8 C7F800A0 		str	r10, [r7]
 724:Drivers/lvgl/src/core/lv_indev.c ****         /*In edit mode send LEFT/RIGHT keys*/
 3524              		.loc 1 724 5 is_stmt 1 view .LVU1284
 724:Drivers/lvgl/src/core/lv_indev.c ****         /*In edit mode send LEFT/RIGHT keys*/
 3525              		.loc 1 724 7 is_stmt 0 view .LVU1285
 3526 02fc 002B     		cmp	r3, #0
 3527 02fe 3FF4E8AE 		beq	.L394
 726:Drivers/lvgl/src/core/lv_indev.c ****             LV_LOG_INFO("rotated by %+d (edit)", data->enc_diff);
 3528              		.loc 1 726 9 is_stmt 1 view .LVU1286
 726:Drivers/lvgl/src/core/lv_indev.c ****             LV_LOG_INFO("rotated by %+d (edit)", data->enc_diff);
 3529              		.loc 1 726 12 is_stmt 0 view .LVU1287
 3530 0302 4846     		mov	r0, r9
 3531 0304 FFF7FEFF 		bl	lv_group_get_editing
 3532              	.LVL239:
 3533              	.LBB480:
 729:Drivers/lvgl/src/core/lv_indev.c ****                 for(s = 0; s < -data->enc_diff; s++) {
 3534              		.loc 1 729 20 view .LVU1288
 3535 0308 BDF91430 		ldrsh	r3, [sp, #20]
 3536              	.LBE480:
 726:Drivers/lvgl/src/core/lv_indev.c ****             LV_LOG_INFO("rotated by %+d (edit)", data->enc_diff);
 3537              		.loc 1 726 11 discriminator 1 view .LVU1289
 3538 030c 0028     		cmp	r0, #0
 3539 030e 00F05F81 		beq	.L466
 3540              	.LBB497:
 727:Drivers/lvgl/src/core/lv_indev.c ****             int32_t s;
ARM GAS  /var/folders/lp/x54gwt890xv47sdkqj1k04q40000gn/T//ccfgQDQQ.s 			page 106


 3541              		.loc 1 727 13 is_stmt 1 view .LVU1290
 727:Drivers/lvgl/src/core/lv_indev.c ****             int32_t s;
 3542              		.loc 1 727 13 view .LVU1291
 727:Drivers/lvgl/src/core/lv_indev.c ****             int32_t s;
 3543              		.loc 1 727 13 view .LVU1292
 728:Drivers/lvgl/src/core/lv_indev.c ****             if(data->enc_diff < 0) {
 3544              		.loc 1 728 13 view .LVU1293
 729:Drivers/lvgl/src/core/lv_indev.c ****                 for(s = 0; s < -data->enc_diff; s++) {
 3545              		.loc 1 729 13 view .LVU1294
 729:Drivers/lvgl/src/core/lv_indev.c ****                 for(s = 0; s < -data->enc_diff; s++) {
 3546              		.loc 1 729 15 is_stmt 0 view .LVU1295
 3547 0312 002B     		cmp	r3, #0
 3548 0314 C0F28B81 		blt	.L694
 735:Drivers/lvgl/src/core/lv_indev.c ****                 for(s = 0; s < data->enc_diff; s++) {
 3549              		.loc 1 735 18 is_stmt 1 view .LVU1296
 735:Drivers/lvgl/src/core/lv_indev.c ****                 for(s = 0; s < data->enc_diff; s++) {
 3550              		.loc 1 735 20 is_stmt 0 view .LVU1297
 3551 0318 3FF4DBAE 		beq	.L394
 3552              	.LBB481:
 3553              	.LBB482:
1176:Drivers/lvgl/src/core/lv_indev.c ****     }
 3554              		.loc 1 1176 23 view .LVU1298
 3555 031c D346     		mov	fp, r10
 3556 031e 04E0     		b	.L471
 3557              	.LVL240:
 3558              	.L473:
1176:Drivers/lvgl/src/core/lv_indev.c ****     }
 3559              		.loc 1 1176 23 view .LVU1299
 3560              	.LBE482:
 3561              	.LBE481:
 736:Drivers/lvgl/src/core/lv_indev.c ****                     lv_group_send_data(g, LV_KEY_RIGHT);
 3562              		.loc 1 736 36 discriminator 1 view .LVU1300
 3563 0320 BDF91430 		ldrsh	r3, [sp, #20]
 736:Drivers/lvgl/src/core/lv_indev.c ****                     lv_group_send_data(g, LV_KEY_RIGHT);
 3564              		.loc 1 736 30 discriminator 1 view .LVU1301
 3565 0324 9A45     		cmp	r10, r3
 3566 0326 BFF6D4AE 		bge	.L394
 3567              	.LVL241:
 3568              	.L471:
 737:Drivers/lvgl/src/core/lv_indev.c ****                     if(indev_reset_check(&i->proc)) return;
 3569              		.loc 1 737 21 is_stmt 1 view .LVU1302
 3570 032a 1321     		movs	r1, #19
 3571 032c 4846     		mov	r0, r9
 3572 032e FFF7FEFF 		bl	lv_group_send_data
 3573              	.LVL242:
 738:Drivers/lvgl/src/core/lv_indev.c ****                 }
 3574              		.loc 1 738 21 view .LVU1303
 3575              	.LBB486:
 3576              	.LBI481:
1173:Drivers/lvgl/src/core/lv_indev.c **** {
 3577              		.loc 1 1173 13 view .LVU1304
 3578              	.LBB483:
1175:Drivers/lvgl/src/core/lv_indev.c ****         indev_obj_act = NULL;
 3579              		.loc 1 1175 5 view .LVU1305
1176:Drivers/lvgl/src/core/lv_indev.c ****     }
 3580              		.loc 1 1176 9 view .LVU1306
 3581              	.LBE483:
ARM GAS  /var/folders/lp/x54gwt890xv47sdkqj1k04q40000gn/T//ccfgQDQQ.s 			page 107


 3582              	.LBE486:
 736:Drivers/lvgl/src/core/lv_indev.c ****                     lv_group_send_data(g, LV_KEY_RIGHT);
 3583              		.loc 1 736 49 discriminator 2 view .LVU1307
 3584              	.LBB487:
 3585              	.LBB484:
1175:Drivers/lvgl/src/core/lv_indev.c ****         indev_obj_act = NULL;
 3586              		.loc 1 1175 8 is_stmt 0 view .LVU1308
 3587 0332 6379     		ldrb	r3, [r4, #5]	@ zero_extendqisi2
1175:Drivers/lvgl/src/core/lv_indev.c ****         indev_obj_act = NULL;
 3588              		.loc 1 1175 7 view .LVU1309
 3589 0334 13F0020F 		tst	r3, #2
 3590              	.LBE484:
 3591              	.LBE487:
 736:Drivers/lvgl/src/core/lv_indev.c ****                     lv_group_send_data(g, LV_KEY_RIGHT);
 3592              		.loc 1 736 49 discriminator 2 view .LVU1310
 3593 0338 0AF1010A 		add	r10, r10, #1
 3594              	.LVL243:
 736:Drivers/lvgl/src/core/lv_indev.c ****                     lv_group_send_data(g, LV_KEY_RIGHT);
 3595              		.loc 1 736 30 is_stmt 1 discriminator 1 view .LVU1311
 3596              	.LBB488:
 3597              	.LBB485:
1175:Drivers/lvgl/src/core/lv_indev.c ****         indev_obj_act = NULL;
 3598              		.loc 1 1175 7 is_stmt 0 view .LVU1312
 3599 033c F0D0     		beq	.L473
1176:Drivers/lvgl/src/core/lv_indev.c ****     }
 3600              		.loc 1 1176 23 view .LVU1313
 3601 033e C7F800B0 		str	fp, [r7]
 3602              		.loc 1 1179 5 is_stmt 1 view .LVU1314
 3603              	.LVL244:
 3604              		.loc 1 1179 5 is_stmt 0 view .LVU1315
 3605              	.LBE485:
 3606              	.LBE488:
 738:Drivers/lvgl/src/core/lv_indev.c ****                 }
 3607              		.loc 1 738 23 discriminator 1 view .LVU1316
 3608 0342 EDD0     		beq	.L473
 3609 0344 C5E6     		b	.L394
 3610              	.LVL245:
 3611              	.L338:
 738:Drivers/lvgl/src/core/lv_indev.c ****                 }
 3612              		.loc 1 738 23 discriminator 1 view .LVU1317
 3613              	.LBE497:
 3614              	.LBE547:
 3615              	.LBE558:
 104:Drivers/lvgl/src/core/lv_indev.c ****         }
 3616              		.loc 1 104 13 is_stmt 1 view .LVU1318
 3617              	.LBB559:
 3618              	.LBI406:
 396:Drivers/lvgl/src/core/lv_indev.c **** {
 3619              		.loc 1 396 13 view .LVU1319
 3620              	.LBB443:
 398:Drivers/lvgl/src/core/lv_indev.c **** 
 3621              		.loc 1 398 5 view .LVU1320
 398:Drivers/lvgl/src/core/lv_indev.c **** 
 3622              		.loc 1 398 7 is_stmt 0 view .LVU1321
 3623 0346 9DF81620 		ldrb	r2, [sp, #22]	@ zero_extendqisi2
 398:Drivers/lvgl/src/core/lv_indev.c **** 
 3624              		.loc 1 398 46 discriminator 1 view .LVU1322
ARM GAS  /var/folders/lp/x54gwt890xv47sdkqj1k04q40000gn/T//ccfgQDQQ.s 			page 108


 3625 034a 6379     		ldrb	r3, [r4, #5]	@ zero_extendqisi2
 398:Drivers/lvgl/src/core/lv_indev.c **** 
 3626              		.loc 1 398 7 view .LVU1323
 3627 034c 012A     		cmp	r2, #1
 398:Drivers/lvgl/src/core/lv_indev.c **** 
 3628              		.loc 1 398 46 discriminator 1 view .LVU1324
 3629 034e 03F00801 		and	r1, r3, #8
 398:Drivers/lvgl/src/core/lv_indev.c **** 
 3630              		.loc 1 398 7 view .LVU1325
 3631 0352 7FF420AF 		bne	.L347
 398:Drivers/lvgl/src/core/lv_indev.c **** 
 3632              		.loc 1 398 46 discriminator 1 view .LVU1326
 3633 0356 0029     		cmp	r1, #0
 3634 0358 3FF426AF 		beq	.L348
 3635 035c BBE6     		b	.L340
 3636              	.LVL246:
 3637              	.L335:
 398:Drivers/lvgl/src/core/lv_indev.c **** 
 3638              		.loc 1 398 12 view .LVU1327
 3639 035e 9DF81620 		ldrb	r2, [sp, #22]	@ zero_extendqisi2
 3640              	.LBE443:
 3641              	.LBE559:
 107:Drivers/lvgl/src/core/lv_indev.c ****         }
 3642              		.loc 1 107 13 is_stmt 1 view .LVU1328
 3643              	.LVL247:
 3644              	.LBB560:
 547:Drivers/lvgl/src/core/lv_indev.c **** {
 3645              		.loc 1 547 13 view .LVU1329
 3646              	.LBB548:
 549:Drivers/lvgl/src/core/lv_indev.c **** 
 3647              		.loc 1 549 5 view .LVU1330
 549:Drivers/lvgl/src/core/lv_indev.c **** 
 3648              		.loc 1 549 46 is_stmt 0 discriminator 1 view .LVU1331
 3649 0362 6379     		ldrb	r3, [r4, #5]	@ zero_extendqisi2
 549:Drivers/lvgl/src/core/lv_indev.c **** 
 3650              		.loc 1 549 7 view .LVU1332
 3651 0364 012A     		cmp	r2, #1
 549:Drivers/lvgl/src/core/lv_indev.c **** 
 3652              		.loc 1 549 46 discriminator 1 view .LVU1333
 3653 0366 03F00803 		and	r3, r3, #8
 549:Drivers/lvgl/src/core/lv_indev.c **** 
 3654              		.loc 1 549 7 view .LVU1334
 3655 036a 88D1     		bne	.L393
 549:Drivers/lvgl/src/core/lv_indev.c **** 
 3656              		.loc 1 549 46 discriminator 1 view .LVU1335
 3657 036c 002B     		cmp	r3, #0
 3658 036e 7FF4B0AE 		bne	.L394
 3659              	.L659:
 560:Drivers/lvgl/src/core/lv_indev.c ****     i->proc.types.keypad.last_state = data->state;
 3660              		.loc 1 560 22 view .LVU1336
 3661 0372 94F808A0 		ldrb	r10, [r4, #8]	@ zero_extendqisi2
 3662 0376 8BE7     		b	.L395
 3663              	.LVL248:
 3664              	.L342:
 560:Drivers/lvgl/src/core/lv_indev.c ****     i->proc.types.keypad.last_state = data->state;
 3665              		.loc 1 560 22 view .LVU1337
 3666              	.LBE548:
ARM GAS  /var/folders/lp/x54gwt890xv47sdkqj1k04q40000gn/T//ccfgQDQQ.s 			page 109


 3667              	.LBE560:
 3668              	.LBB561:
 3669              	.LBB402:
 348:Drivers/lvgl/src/core/lv_indev.c ****         data->point.y = disp->driver->ver_res - data->point.y - 1;
 3670              		.loc 1 348 9 is_stmt 1 view .LVU1338
 348:Drivers/lvgl/src/core/lv_indev.c ****         data->point.y = disp->driver->ver_res - data->point.y - 1;
 3671              		.loc 1 348 63 is_stmt 0 view .LVU1339
 3672 0378 0B88     		ldrh	r3, [r1]
 3673 037a 9A1A     		subs	r2, r3, r2
 349:Drivers/lvgl/src/core/lv_indev.c ****     }
 3674              		.loc 1 349 37 view .LVU1340
 3675 037c 4B88     		ldrh	r3, [r1, #2]
 349:Drivers/lvgl/src/core/lv_indev.c ****     }
 3676              		.loc 1 349 63 view .LVU1341
 3677 037e A3EB0C0C 		sub	ip, r3, ip
 348:Drivers/lvgl/src/core/lv_indev.c ****         data->point.y = disp->driver->ver_res - data->point.y - 1;
 3678              		.loc 1 348 63 view .LVU1342
 3679 0382 013A     		subs	r2, r2, #1
 349:Drivers/lvgl/src/core/lv_indev.c ****     }
 3680              		.loc 1 349 63 view .LVU1343
 3681 0384 0CF1FF3C 		add	ip, ip, #-1
 348:Drivers/lvgl/src/core/lv_indev.c ****         data->point.y = disp->driver->ver_res - data->point.y - 1;
 3682              		.loc 1 348 63 view .LVU1344
 3683 0388 12B2     		sxth	r2, r2
 349:Drivers/lvgl/src/core/lv_indev.c ****     }
 3684              		.loc 1 349 9 is_stmt 1 view .LVU1345
 349:Drivers/lvgl/src/core/lv_indev.c ****     }
 3685              		.loc 1 349 63 is_stmt 0 view .LVU1346
 3686 038a 1FFA8CFC 		uxth	ip, ip
 351:Drivers/lvgl/src/core/lv_indev.c ****         lv_coord_t tmp = data->point.y;
 3687              		.loc 1 351 5 is_stmt 1 view .LVU1347
 3688 038e DAE6     		b	.L493
 3689              	.LVL249:
 3690              	.L691:
 351:Drivers/lvgl/src/core/lv_indev.c ****         lv_coord_t tmp = data->point.y;
 3691              		.loc 1 351 5 is_stmt 0 view .LVU1348
 3692              	.LBE402:
 3693              	.LBE561:
 3694              	.LBB562:
 3695              	.LBB384:
 803:Drivers/lvgl/src/core/lv_indev.c ****     else indev_proc_release(&i->proc);
 3696              		.loc 1 803 47 is_stmt 1 discriminator 1 view .LVU1349
 3697 0390 FFF7FEFF 		bl	indev_proc_press
 3698              	.LVL250:
 3699 0394 42E7     		b	.L487
 3700              	.LVL251:
 3701              	.L688:
 803:Drivers/lvgl/src/core/lv_indev.c ****     else indev_proc_release(&i->proc);
 3702              		.loc 1 803 47 is_stmt 0 discriminator 1 view .LVU1350
 3703              	.LBE384:
 3704              	.LBE562:
 3705              	.LBB563:
 3706              	.LBB403:
 381:Drivers/lvgl/src/core/lv_indev.c ****     }
 3707              		.loc 1 381 9 is_stmt 1 view .LVU1351
 3708 0396 FFF7FEFF 		bl	indev_proc_press
 3709              	.LVL252:
ARM GAS  /var/folders/lp/x54gwt890xv47sdkqj1k04q40000gn/T//ccfgQDQQ.s 			page 110


 3710 039a F7E6     		b	.L346
 3711              	.LVL253:
 3712              	.L341:
 348:Drivers/lvgl/src/core/lv_indev.c ****         data->point.y = disp->driver->ver_res - data->point.y - 1;
 3713              		.loc 1 348 9 view .LVU1352
 348:Drivers/lvgl/src/core/lv_indev.c ****         data->point.y = disp->driver->ver_res - data->point.y - 1;
 3714              		.loc 1 348 63 is_stmt 0 view .LVU1353
 3715 039c 0A88     		ldrh	r2, [r1]
 349:Drivers/lvgl/src/core/lv_indev.c ****     }
 3716              		.loc 1 349 63 view .LVU1354
 3717 039e 4B88     		ldrh	r3, [r1, #2]
 348:Drivers/lvgl/src/core/lv_indev.c ****         data->point.y = disp->driver->ver_res - data->point.y - 1;
 3718              		.loc 1 348 63 view .LVU1355
 3719 03a0 A2EB0E02 		sub	r2, r2, lr
 349:Drivers/lvgl/src/core/lv_indev.c ****     }
 3720              		.loc 1 349 63 view .LVU1356
 3721 03a4 A3EB0C03 		sub	r3, r3, ip
 348:Drivers/lvgl/src/core/lv_indev.c ****         data->point.y = disp->driver->ver_res - data->point.y - 1;
 3722              		.loc 1 348 63 view .LVU1357
 3723 03a8 013A     		subs	r2, r2, #1
 349:Drivers/lvgl/src/core/lv_indev.c ****     }
 3724              		.loc 1 349 63 view .LVU1358
 3725 03aa 013B     		subs	r3, r3, #1
 348:Drivers/lvgl/src/core/lv_indev.c ****         data->point.y = disp->driver->ver_res - data->point.y - 1;
 3726              		.loc 1 348 23 view .LVU1359
 3727 03ac ADF80820 		strh	r2, [sp, #8]	@ movhi
 349:Drivers/lvgl/src/core/lv_indev.c ****     }
 3728              		.loc 1 349 9 is_stmt 1 view .LVU1360
 349:Drivers/lvgl/src/core/lv_indev.c ****     }
 3729              		.loc 1 349 23 is_stmt 0 view .LVU1361
 3730 03b0 ADF80A30 		strh	r3, [sp, #10]	@ movhi
 351:Drivers/lvgl/src/core/lv_indev.c ****         lv_coord_t tmp = data->point.y;
 3731              		.loc 1 351 5 is_stmt 1 view .LVU1362
 3732 03b4 CEE6     		b	.L343
 3733              	.LVL254:
 3734              	.L687:
 351:Drivers/lvgl/src/core/lv_indev.c ****         lv_coord_t tmp = data->point.y;
 3735              		.loc 1 351 5 is_stmt 0 view .LVU1363
 3736              	.LBE403:
 3737              	.LBE563:
 3738              	.LBB564:
 3739              	.LBB385:
 791:Drivers/lvgl/src/core/lv_indev.c ****            i->proc.types.pointer.last_point.y != y) {
 3740              		.loc 1 791 9 is_stmt 1 view .LVU1364
 791:Drivers/lvgl/src/core/lv_indev.c ****            i->proc.types.pointer.last_point.y != y) {
 3741              		.loc 1 791 11 is_stmt 0 view .LVU1365
 3742 03b6 B4F91020 		ldrsh	r2, [r4, #16]
 3743              	.LVL255:
 791:Drivers/lvgl/src/core/lv_indev.c ****            i->proc.types.pointer.last_point.y != y) {
 3744              		.loc 1 791 11 view .LVU1366
 3745 03ba 0FFA89F3 		sxth	r3, r9
 3746 03be 9A42     		cmp	r2, r3
 3747 03c0 05D1     		bne	.L483
 791:Drivers/lvgl/src/core/lv_indev.c ****            i->proc.types.pointer.last_point.y != y) {
 3748              		.loc 1 791 52 discriminator 1 view .LVU1367
 3749 03c2 B4F91230 		ldrsh	r3, [r4, #18]
 3750 03c6 B3EB294F 		cmp	r3, r9, asr #16
ARM GAS  /var/folders/lp/x54gwt890xv47sdkqj1k04q40000gn/T//ccfgQDQQ.s 			page 111


 3751 03ca 3FF478AE 		beq	.L482
 3752              	.L483:
 793:Drivers/lvgl/src/core/lv_indev.c ****         }
 3753              		.loc 1 793 13 is_stmt 1 view .LVU1368
 3754 03ce 201D     		adds	r0, r4, #4
 3755 03d0 FFF7FEFF 		bl	indev_proc_release
 3756              	.LVL256:
 793:Drivers/lvgl/src/core/lv_indev.c ****         }
 3757              		.loc 1 793 13 is_stmt 0 view .LVU1369
 3758 03d4 73E6     		b	.L482
 3759              	.LVL257:
 3760              	.L689:
 793:Drivers/lvgl/src/core/lv_indev.c ****         }
 3761              		.loc 1 793 13 view .LVU1370
 3762              	.LBE385:
 3763              	.LBE564:
 3764              	.LBB565:
 3765              	.LBB444:
 429:Drivers/lvgl/src/core/lv_indev.c ****         LV_LOG_INFO("%" LV_PRIu32 " key is pressed", data->key);
 3766              		.loc 1 429 46 discriminator 1 view .LVU1371
 3767 03d6 BBF1000F 		cmp	fp, #0
 3768 03da 56D0     		beq	.L695
 471:Drivers/lvgl/src/core/lv_indev.c **** 
 3769              		.loc 1 471 10 is_stmt 1 view .LVU1372
 471:Drivers/lvgl/src/core/lv_indev.c **** 
 3770              		.loc 1 471 12 is_stmt 0 view .LVU1373
 3771 03dc 0028     		cmp	r0, #0
 3772 03de 7FF40DAF 		bne	.L357
 471:Drivers/lvgl/src/core/lv_indev.c **** 
 3773              		.loc 1 471 59 discriminator 2 view .LVU1374
 3774 03e2 BBF1010F 		cmp	fp, #1
 3775 03e6 7FF409AF 		bne	.L357
 473:Drivers/lvgl/src/core/lv_indev.c ****             lv_event_send(indev_obj_act, LV_EVENT_PRESSING, indev_act);
 3776              		.loc 1 473 9 is_stmt 1 view .LVU1375
 473:Drivers/lvgl/src/core/lv_indev.c ****             lv_event_send(indev_obj_act, LV_EVENT_PRESSING, indev_act);
 3777              		.loc 1 473 11 is_stmt 0 view .LVU1376
 3778 03ea 0A2A     		cmp	r2, #10
 3779 03ec 00F01B82 		beq	.L372
 479:Drivers/lvgl/src/core/lv_indev.c ****             i->proc.long_pr_sent = 1;
 3780              		.loc 1 479 33 view .LVU1377
 3781 03f0 6379     		ldrb	r3, [r4, #5]	@ zero_extendqisi2
 3782              	.LVL258:
 3783              	.L373:
 479:Drivers/lvgl/src/core/lv_indev.c ****             i->proc.long_pr_sent = 1;
 3784              		.loc 1 479 9 is_stmt 1 view .LVU1378
 479:Drivers/lvgl/src/core/lv_indev.c ****             i->proc.long_pr_sent = 1;
 3785              		.loc 1 479 11 is_stmt 0 view .LVU1379
 3786 03f2 13F0010A 		ands	r10, r3, #1
 3787 03f6 00F0B781 		beq	.L375
 3788              	.L379:
 489:Drivers/lvgl/src/core/lv_indev.c **** 
 3789              		.loc 1 489 17 view .LVU1380
 3790 03fa E06C     		ldr	r0, [r4, #76]
 3791 03fc FFF7FEFF 		bl	lv_tick_elaps
 3792              	.LVL259:
 489:Drivers/lvgl/src/core/lv_indev.c **** 
 3793              		.loc 1 489 72 discriminator 1 view .LVU1381
ARM GAS  /var/folders/lp/x54gwt890xv47sdkqj1k04q40000gn/T//ccfgQDQQ.s 			page 112


 3794 0400 2368     		ldr	r3, [r4]
 489:Drivers/lvgl/src/core/lv_indev.c **** 
 3795              		.loc 1 489 61 discriminator 1 view .LVU1382
 3796 0402 DB8B     		ldrh	r3, [r3, #30]
 488:Drivers/lvgl/src/core/lv_indev.c ****                 lv_tick_elaps(i->proc.longpr_rep_timestamp) > i->driver->long_press_repeat_time) {
 3797              		.loc 1 488 43 discriminator 1 view .LVU1383
 3798 0404 9842     		cmp	r0, r3
 3799 0406 7FF6F9AE 		bls	.L357
 491:Drivers/lvgl/src/core/lv_indev.c **** 
 3800              		.loc 1 491 13 is_stmt 1 view .LVU1384
 491:Drivers/lvgl/src/core/lv_indev.c **** 
 3801              		.loc 1 491 44 is_stmt 0 view .LVU1385
 3802 040a FFF7FEFF 		bl	lv_tick_get
 3803              	.LVL260:
 494:Drivers/lvgl/src/core/lv_indev.c ****                 lv_event_send(indev_obj_act, LV_EVENT_LONG_PRESSED_REPEAT, indev_act);
 3804              		.loc 1 494 20 view .LVU1386
 3805 040e 0399     		ldr	r1, [sp, #12]
 491:Drivers/lvgl/src/core/lv_indev.c **** 
 3806              		.loc 1 491 42 discriminator 1 view .LVU1387
 3807 0410 E064     		str	r0, [r4, #76]
 494:Drivers/lvgl/src/core/lv_indev.c ****                 lv_event_send(indev_obj_act, LV_EVENT_LONG_PRESSED_REPEAT, indev_act);
 3808              		.loc 1 494 13 is_stmt 1 view .LVU1388
 494:Drivers/lvgl/src/core/lv_indev.c ****                 lv_event_send(indev_obj_act, LV_EVENT_LONG_PRESSED_REPEAT, indev_act);
 3809              		.loc 1 494 15 is_stmt 0 view .LVU1389
 3810 0412 0A29     		cmp	r1, #10
 3811 0414 00F09682 		beq	.L696
 499:Drivers/lvgl/src/core/lv_indev.c ****                 lv_group_set_editing(g, false); /*Editing is not used by KEYPAD is be sure it is di
 3812              		.loc 1 499 18 is_stmt 1 view .LVU1390
 499:Drivers/lvgl/src/core/lv_indev.c ****                 lv_group_set_editing(g, false); /*Editing is not used by KEYPAD is be sure it is di
 3813              		.loc 1 499 20 is_stmt 0 view .LVU1391
 3814 0418 0929     		cmp	r1, #9
 3815 041a 00F0AE82 		beq	.L697
 505:Drivers/lvgl/src/core/lv_indev.c ****                 lv_group_set_editing(g, false); /*Editing is not used by KEYPAD is be sure it is di
 3816              		.loc 1 505 18 is_stmt 1 view .LVU1392
 505:Drivers/lvgl/src/core/lv_indev.c ****                 lv_group_set_editing(g, false); /*Editing is not used by KEYPAD is be sure it is di
 3817              		.loc 1 505 20 is_stmt 0 view .LVU1393
 3818 041e 0B29     		cmp	r1, #11
 3819 0420 00F09F82 		beq	.L698
 512:Drivers/lvgl/src/core/lv_indev.c ****                 if(indev_reset_check(&i->proc)) return;
 3820              		.loc 1 512 17 is_stmt 1 view .LVU1394
 3821 0424 4846     		mov	r0, r9
 3822              	.LVL261:
 3823              	.L684:
 512:Drivers/lvgl/src/core/lv_indev.c ****                 if(indev_reset_check(&i->proc)) return;
 3824              		.loc 1 512 17 is_stmt 0 view .LVU1395
 3825 0426 FFF7FEFF 		bl	lv_group_send_data
 3826              	.LVL262:
 513:Drivers/lvgl/src/core/lv_indev.c ****             }
 3827              		.loc 1 513 17 is_stmt 1 view .LVU1396
 3828              	.LBB408:
 3829              	.LBI408:
1173:Drivers/lvgl/src/core/lv_indev.c **** {
 3830              		.loc 1 1173 13 view .LVU1397
 3831              	.LBB409:
1175:Drivers/lvgl/src/core/lv_indev.c ****         indev_obj_act = NULL;
 3832              		.loc 1 1175 5 view .LVU1398
1175:Drivers/lvgl/src/core/lv_indev.c ****         indev_obj_act = NULL;
ARM GAS  /var/folders/lp/x54gwt890xv47sdkqj1k04q40000gn/T//ccfgQDQQ.s 			page 113


 3833              		.loc 1 1175 8 is_stmt 0 view .LVU1399
 3834 042a 6279     		ldrb	r2, [r4, #5]	@ zero_extendqisi2
1175:Drivers/lvgl/src/core/lv_indev.c ****         indev_obj_act = NULL;
 3835              		.loc 1 1175 7 view .LVU1400
 3836 042c 9107     		lsls	r1, r2, #30
 3837 042e 01D5     		bpl	.L386
 3838              	.LVL263:
 3839              	.L676:
1176:Drivers/lvgl/src/core/lv_indev.c ****     }
 3840              		.loc 1 1176 9 is_stmt 1 view .LVU1401
1176:Drivers/lvgl/src/core/lv_indev.c ****     }
 3841              		.loc 1 1176 23 is_stmt 0 view .LVU1402
 3842 0430 0023     		movs	r3, #0
 3843 0432 3B60     		str	r3, [r7]
 3844              	.LVL264:
 3845              	.L386:
 3846              		.loc 1 1179 5 is_stmt 1 view .LVU1403
 3847              	.LBE409:
 3848              	.LBE408:
 3849              	.LBE444:
 3850              	.LBE565:
 113:Drivers/lvgl/src/core/lv_indev.c ****     } while(continue_reading);
 3851              		.loc 1 113 9 is_stmt 0 view .LVU1404
 3852 0434 3468     		ldr	r4, [r6]
 3853              	.LBB566:
 3854              	.LBB445:
 513:Drivers/lvgl/src/core/lv_indev.c ****             }
 3855              		.loc 1 513 19 discriminator 1 view .LVU1405
 3856 0436 9207     		lsls	r2, r2, #30
 3857              	.LBE445:
 3858              	.LBE566:
 3859              	.LBB567:
 3860              	.LBB394:
1028:Drivers/lvgl/src/core/lv_indev.c ****         indev->proc.types.pointer.act_obj           = NULL;
 3861              		.loc 1 1028 8 view .LVU1406
 3862 0438 6379     		ldrb	r3, [r4, #5]	@ zero_extendqisi2
 3863              	.LBE394:
 3864              	.LBE567:
 3865              	.LBB568:
 3866              	.LBB446:
 513:Drivers/lvgl/src/core/lv_indev.c ****             }
 3867              		.loc 1 513 19 discriminator 1 view .LVU1407
 3868 043a 7FF5DFAE 		bpl	.L357
 3869 043e 4AE6     		b	.L340
 3870              	.LVL265:
 3871              	.L692:
 513:Drivers/lvgl/src/core/lv_indev.c ****             }
 3872              		.loc 1 513 19 discriminator 1 view .LVU1408
 3873              	.LBE446:
 3874              	.LBE568:
 3875              	.LBB569:
 3876              	.LBB549:
 580:Drivers/lvgl/src/core/lv_indev.c ****         LV_LOG_INFO("pressed");
 3877              		.loc 1 580 46 discriminator 1 view .LVU1409
 3878 0440 BAF1000F 		cmp	r10, #0
 3879 0444 4CD0     		beq	.L699
 616:Drivers/lvgl/src/core/lv_indev.c ****         /*Long press*/
ARM GAS  /var/folders/lp/x54gwt890xv47sdkqj1k04q40000gn/T//ccfgQDQQ.s 			page 114


 3880              		.loc 1 616 10 is_stmt 1 view .LVU1410
 616:Drivers/lvgl/src/core/lv_indev.c ****         /*Long press*/
 3881              		.loc 1 616 51 is_stmt 0 discriminator 1 view .LVU1411
 3882 0446 BAF1010F 		cmp	r10, #1
 3883 044a 7FF451AF 		bne	.L660
 618:Drivers/lvgl/src/core/lv_indev.c **** 
 3884              		.loc 1 618 9 is_stmt 1 view .LVU1412
 618:Drivers/lvgl/src/core/lv_indev.c **** 
 3885              		.loc 1 618 33 is_stmt 0 view .LVU1413
 3886 044e 6379     		ldrb	r3, [r4, #5]	@ zero_extendqisi2
 618:Drivers/lvgl/src/core/lv_indev.c **** 
 3887              		.loc 1 618 11 view .LVU1414
 3888 0450 D907     		lsls	r1, r3, #31
 3889 0452 40F11581 		bpl	.L700
 3890              	.L424:
 646:Drivers/lvgl/src/core/lv_indev.c **** 
 3891              		.loc 1 646 46 discriminator 1 view .LVU1415
 3892 0456 E06C     		ldr	r0, [r4, #76]
 3893 0458 FFF7FEFF 		bl	lv_tick_elaps
 3894              	.LVL266:
 646:Drivers/lvgl/src/core/lv_indev.c **** 
 3895              		.loc 1 646 101 discriminator 1 view .LVU1416
 3896 045c 2368     		ldr	r3, [r4]
 646:Drivers/lvgl/src/core/lv_indev.c **** 
 3897              		.loc 1 646 90 discriminator 1 view .LVU1417
 3898 045e DB8B     		ldrh	r3, [r3, #30]
 646:Drivers/lvgl/src/core/lv_indev.c **** 
 3899              		.loc 1 646 43 discriminator 1 view .LVU1418
 3900 0460 9842     		cmp	r0, r3
 3901 0462 7FF645AF 		bls	.L660
 648:Drivers/lvgl/src/core/lv_indev.c **** 
 3902              		.loc 1 648 13 is_stmt 1 view .LVU1419
 648:Drivers/lvgl/src/core/lv_indev.c **** 
 3903              		.loc 1 648 44 is_stmt 0 view .LVU1420
 3904 0466 FFF7FEFF 		bl	lv_tick_get
 3905              	.LVL267:
 650:Drivers/lvgl/src/core/lv_indev.c ****                 lv_event_send(indev_obj_act, LV_EVENT_LONG_PRESSED_REPEAT, indev_act);
 3906              		.loc 1 650 20 view .LVU1421
 3907 046a 0399     		ldr	r1, [sp, #12]
 648:Drivers/lvgl/src/core/lv_indev.c **** 
 3908              		.loc 1 648 42 discriminator 1 view .LVU1422
 3909 046c E064     		str	r0, [r4, #76]
 650:Drivers/lvgl/src/core/lv_indev.c ****                 lv_event_send(indev_obj_act, LV_EVENT_LONG_PRESSED_REPEAT, indev_act);
 3910              		.loc 1 650 13 is_stmt 1 view .LVU1423
 650:Drivers/lvgl/src/core/lv_indev.c ****                 lv_event_send(indev_obj_act, LV_EVENT_LONG_PRESSED_REPEAT, indev_act);
 3911              		.loc 1 650 15 is_stmt 0 view .LVU1424
 3912 046e 0A29     		cmp	r1, #10
 3913 0470 00F03F82 		beq	.L701
 654:Drivers/lvgl/src/core/lv_indev.c ****                 /*emulate encoder left*/
 3914              		.loc 1 654 18 is_stmt 1 view .LVU1425
 654:Drivers/lvgl/src/core/lv_indev.c ****                 /*emulate encoder left*/
 3915              		.loc 1 654 20 is_stmt 0 view .LVU1426
 3916 0474 1429     		cmp	r1, #20
 3917 0476 71D0     		beq	.L661
 658:Drivers/lvgl/src/core/lv_indev.c ****                 /*emulate encoder right*/
 3918              		.loc 1 658 18 is_stmt 1 view .LVU1427
 658:Drivers/lvgl/src/core/lv_indev.c ****                 /*emulate encoder right*/
ARM GAS  /var/folders/lp/x54gwt890xv47sdkqj1k04q40000gn/T//ccfgQDQQ.s 			page 115


 3919              		.loc 1 658 20 is_stmt 0 view .LVU1428
 3920 0478 1329     		cmp	r1, #19
 3921 047a 61D1     		bne	.L438
 3922              	.L662:
 660:Drivers/lvgl/src/core/lv_indev.c ****             }
 3923              		.loc 1 660 17 is_stmt 1 view .LVU1429
 660:Drivers/lvgl/src/core/lv_indev.c ****             }
 3924              		.loc 1 660 31 is_stmt 0 view .LVU1430
 3925 047c BDF81430 		ldrh	r3, [sp, #20]
 3926 0480 0133     		adds	r3, r3, #1
 3927 0482 1BB2     		sxth	r3, r3
 3928 0484 ADF81430 		strh	r3, [sp, #20]	@ movhi
 3929 0488 34E7     		b	.L412
 3930              	.LVL268:
 3931              	.L695:
 660:Drivers/lvgl/src/core/lv_indev.c ****             }
 3932              		.loc 1 660 31 view .LVU1431
 3933              	.LBE549:
 3934              	.LBE569:
 3935              	.LBB570:
 3936              	.LBB447:
 430:Drivers/lvgl/src/core/lv_indev.c ****         i->proc.pr_timestamp = lv_tick_get();
 3937              		.loc 1 430 9 is_stmt 1 view .LVU1432
 430:Drivers/lvgl/src/core/lv_indev.c ****         i->proc.pr_timestamp = lv_tick_get();
 3938              		.loc 1 430 9 view .LVU1433
 430:Drivers/lvgl/src/core/lv_indev.c ****         i->proc.pr_timestamp = lv_tick_get();
 3939              		.loc 1 430 9 view .LVU1434
 431:Drivers/lvgl/src/core/lv_indev.c **** 
 3940              		.loc 1 431 9 view .LVU1435
 431:Drivers/lvgl/src/core/lv_indev.c **** 
 3941              		.loc 1 431 32 is_stmt 0 view .LVU1436
 3942 048a FFF7FEFF 		bl	lv_tick_get
 3943              	.LVL269:
 434:Drivers/lvgl/src/core/lv_indev.c ****             lv_group_set_editing(g, false); /*Editing is not used by KEYPAD is be sure it is disabl
 3944              		.loc 1 434 16 view .LVU1437
 3945 048e 0399     		ldr	r1, [sp, #12]
 431:Drivers/lvgl/src/core/lv_indev.c **** 
 3946              		.loc 1 431 30 discriminator 1 view .LVU1438
 3947 0490 A064     		str	r0, [r4, #72]
 434:Drivers/lvgl/src/core/lv_indev.c ****             lv_group_set_editing(g, false); /*Editing is not used by KEYPAD is be sure it is disabl
 3948              		.loc 1 434 9 is_stmt 1 view .LVU1439
 434:Drivers/lvgl/src/core/lv_indev.c ****             lv_group_set_editing(g, false); /*Editing is not used by KEYPAD is be sure it is disabl
 3949              		.loc 1 434 11 is_stmt 0 view .LVU1440
 3950 0492 0929     		cmp	r1, #9
 3951 0494 00F04E81 		beq	.L702
 440:Drivers/lvgl/src/core/lv_indev.c ****             lv_group_set_editing(g, false); /*Editing is not used by KEYPAD is be sure it is disabl
 3952              		.loc 1 440 14 is_stmt 1 view .LVU1441
 440:Drivers/lvgl/src/core/lv_indev.c ****             lv_group_set_editing(g, false); /*Editing is not used by KEYPAD is be sure it is disabl
 3953              		.loc 1 440 16 is_stmt 0 view .LVU1442
 3954 0498 0B29     		cmp	r1, #11
 3955 049a 00F05981 		beq	.L703
 445:Drivers/lvgl/src/core/lv_indev.c ****             /*Simulate a press on the object if ENTER was pressed*/
 3956              		.loc 1 445 14 is_stmt 1 view .LVU1443
 445:Drivers/lvgl/src/core/lv_indev.c ****             /*Simulate a press on the object if ENTER was pressed*/
 3957              		.loc 1 445 16 is_stmt 0 view .LVU1444
 3958 049e BAF1000F 		cmp	r10, #0
 3959 04a2 7FF4ABAE 		bne	.L357
ARM GAS  /var/folders/lp/x54gwt890xv47sdkqj1k04q40000gn/T//ccfgQDQQ.s 			page 116


 447:Drivers/lvgl/src/core/lv_indev.c ****                 /*Send the ENTER as a normal KEY*/
 3960              		.loc 1 447 13 is_stmt 1 view .LVU1445
 447:Drivers/lvgl/src/core/lv_indev.c ****                 /*Send the ENTER as a normal KEY*/
 3961              		.loc 1 447 15 is_stmt 0 view .LVU1446
 3962 04a6 0A29     		cmp	r1, #10
 449:Drivers/lvgl/src/core/lv_indev.c ****                 if(indev_reset_check(&i->proc)) return;
 3963              		.loc 1 449 17 view .LVU1447
 3964 04a8 4846     		mov	r0, r9
 447:Drivers/lvgl/src/core/lv_indev.c ****                 /*Send the ENTER as a normal KEY*/
 3965              		.loc 1 447 15 view .LVU1448
 3966 04aa 00F00282 		beq	.L704
 3967              	.LVL270:
 455:Drivers/lvgl/src/core/lv_indev.c ****                 /*Send the ESC as a normal KEY*/
 3968              		.loc 1 455 18 is_stmt 1 view .LVU1449
 455:Drivers/lvgl/src/core/lv_indev.c ****                 /*Send the ESC as a normal KEY*/
 3969              		.loc 1 455 20 is_stmt 0 view .LVU1450
 3970 04ae 1B29     		cmp	r1, #27
 3971 04b0 B9D1     		bne	.L684
 457:Drivers/lvgl/src/core/lv_indev.c ****                 if(indev_reset_check(&i->proc)) return;
 3972              		.loc 1 457 17 is_stmt 1 view .LVU1451
 3973 04b2 FFF7FEFF 		bl	lv_group_send_data
 3974              	.LVL271:
 458:Drivers/lvgl/src/core/lv_indev.c **** 
 3975              		.loc 1 458 17 view .LVU1452
 3976              	.LBB410:
 3977              	.LBI410:
1173:Drivers/lvgl/src/core/lv_indev.c **** {
 3978              		.loc 1 1173 13 view .LVU1453
 3979              	.LBB411:
1175:Drivers/lvgl/src/core/lv_indev.c ****         indev_obj_act = NULL;
 3980              		.loc 1 1175 5 view .LVU1454
1175:Drivers/lvgl/src/core/lv_indev.c ****         indev_obj_act = NULL;
 3981              		.loc 1 1175 8 is_stmt 0 view .LVU1455
 3982 04b6 6379     		ldrb	r3, [r4, #5]	@ zero_extendqisi2
1175:Drivers/lvgl/src/core/lv_indev.c ****         indev_obj_act = NULL;
 3983              		.loc 1 1175 7 view .LVU1456
 3984 04b8 9A07     		lsls	r2, r3, #30
1176:Drivers/lvgl/src/core/lv_indev.c ****     }
 3985              		.loc 1 1176 9 is_stmt 1 view .LVU1457
 3986              		.loc 1 1179 5 view .LVU1458
 3987              	.LVL272:
1176:Drivers/lvgl/src/core/lv_indev.c ****     }
 3988              		.loc 1 1176 23 is_stmt 0 view .LVU1459
 3989 04ba 44BF     		itt	mi
 3990 04bc 0022     		movmi	r2, #0
 3991 04be 3A60     		strmi	r2, [r7]
 3992              	.LBE411:
 3993              	.LBE410:
 458:Drivers/lvgl/src/core/lv_indev.c **** 
 3994              		.loc 1 458 19 discriminator 1 view .LVU1460
 3995 04c0 C3F34009 		ubfx	r9, r3, #1, #1
 3996              	.LVL273:
 458:Drivers/lvgl/src/core/lv_indev.c **** 
 3997              		.loc 1 458 19 discriminator 1 view .LVU1461
 3998 04c4 9B07     		lsls	r3, r3, #30
 460:Drivers/lvgl/src/core/lv_indev.c ****                 if(indev_reset_check(&i->proc)) return;
 3999              		.loc 1 460 17 view .LVU1462
ARM GAS  /var/folders/lp/x54gwt890xv47sdkqj1k04q40000gn/T//ccfgQDQQ.s 			page 117


 4000 04c6 3268     		ldr	r2, [r6]
 458:Drivers/lvgl/src/core/lv_indev.c **** 
 4001              		.loc 1 458 19 discriminator 1 view .LVU1463
 4002 04c8 00F1D780 		bmi	.L666
 460:Drivers/lvgl/src/core/lv_indev.c ****                 if(indev_reset_check(&i->proc)) return;
 4003              		.loc 1 460 17 is_stmt 1 view .LVU1464
 4004 04cc 3868     		ldr	r0, [r7]
 4005 04ce 2021     		movs	r1, #32
 4006 04d0 FFF7FEFF 		bl	lv_event_send
 4007              	.LVL274:
 461:Drivers/lvgl/src/core/lv_indev.c ****             }
 4008              		.loc 1 461 17 view .LVU1465
 4009              	.LBB412:
 4010              	.LBI412:
1173:Drivers/lvgl/src/core/lv_indev.c **** {
 4011              		.loc 1 1173 13 view .LVU1466
 4012              	.LBB413:
1175:Drivers/lvgl/src/core/lv_indev.c ****         indev_obj_act = NULL;
 4013              		.loc 1 1175 5 view .LVU1467
1175:Drivers/lvgl/src/core/lv_indev.c ****         indev_obj_act = NULL;
 4014              		.loc 1 1175 8 is_stmt 0 view .LVU1468
 4015 04d4 6279     		ldrb	r2, [r4, #5]	@ zero_extendqisi2
1175:Drivers/lvgl/src/core/lv_indev.c ****         indev_obj_act = NULL;
 4016              		.loc 1 1175 7 view .LVU1469
 4017 04d6 9007     		lsls	r0, r2, #30
 4018 04d8 ACD5     		bpl	.L386
 4019              	.LVL275:
 4020              	.L675:
1176:Drivers/lvgl/src/core/lv_indev.c ****     }
 4021              		.loc 1 1176 9 is_stmt 1 view .LVU1470
1176:Drivers/lvgl/src/core/lv_indev.c ****     }
 4022              		.loc 1 1176 23 is_stmt 0 view .LVU1471
 4023 04da C7F80090 		str	r9, [r7]
 4024 04de A9E7     		b	.L386
 4025              	.LVL276:
 4026              	.L699:
1176:Drivers/lvgl/src/core/lv_indev.c ****     }
 4027              		.loc 1 1176 23 view .LVU1472
 4028              	.LBE413:
 4029              	.LBE412:
 4030              	.LBE447:
 4031              	.LBE570:
 4032              	.LBB571:
 4033              	.LBB550:
 581:Drivers/lvgl/src/core/lv_indev.c **** 
 4034              		.loc 1 581 9 is_stmt 1 view .LVU1473
 581:Drivers/lvgl/src/core/lv_indev.c **** 
 4035              		.loc 1 581 9 view .LVU1474
 581:Drivers/lvgl/src/core/lv_indev.c **** 
 4036              		.loc 1 581 9 view .LVU1475
 583:Drivers/lvgl/src/core/lv_indev.c **** 
 4037              		.loc 1 583 9 view .LVU1476
 583:Drivers/lvgl/src/core/lv_indev.c **** 
 4038              		.loc 1 583 32 is_stmt 0 view .LVU1477
 4039 04e0 FFF7FEFF 		bl	lv_tick_get
 4040              	.LVL277:
 585:Drivers/lvgl/src/core/lv_indev.c ****             bool editable_or_scrollable = lv_obj_is_editable(indev_obj_act) ||
ARM GAS  /var/folders/lp/x54gwt890xv47sdkqj1k04q40000gn/T//ccfgQDQQ.s 			page 118


 4041              		.loc 1 585 16 view .LVU1478
 4042 04e4 0399     		ldr	r1, [sp, #12]
 583:Drivers/lvgl/src/core/lv_indev.c **** 
 4043              		.loc 1 583 30 discriminator 1 view .LVU1479
 4044 04e6 A064     		str	r0, [r4, #72]
 585:Drivers/lvgl/src/core/lv_indev.c ****             bool editable_or_scrollable = lv_obj_is_editable(indev_obj_act) ||
 4045              		.loc 1 585 9 is_stmt 1 view .LVU1480
 4046 04e8 A1F10A03 		sub	r3, r1, #10
 4047 04ec 112B     		cmp	r3, #17
 4048 04ee 27D8     		bhi	.L438
 4049 04f0 01A2     		adr	r2, .L405
 4050 04f2 52F823F0 		ldr	pc, [r2, r3, lsl #2]
 4051 04f6 00BF     		.p2align 2
 4052              	.L405:
 4053 04f8 A3050000 		.word	.L408+1
 4054 04fc 41050000 		.word	.L438+1
 4055 0500 41050000 		.word	.L438+1
 4056 0504 41050000 		.word	.L438+1
 4057 0508 41050000 		.word	.L438+1
 4058 050c 41050000 		.word	.L438+1
 4059 0510 41050000 		.word	.L438+1
 4060 0514 41050000 		.word	.L438+1
 4061 0518 41050000 		.word	.L438+1
 4062 051c 7D040000 		.word	.L662+1
 4063 0520 5D050000 		.word	.L661+1
 4064 0524 41050000 		.word	.L438+1
 4065 0528 41050000 		.word	.L438+1
 4066 052c 41050000 		.word	.L438+1
 4067 0530 41050000 		.word	.L438+1
 4068 0534 41050000 		.word	.L438+1
 4069 0538 41050000 		.word	.L438+1
 4070 053c 6B050000 		.word	.L404+1
 4071              		.p2align 1
 4072              	.L438:
 663:Drivers/lvgl/src/core/lv_indev.c ****                 if(indev_reset_check(&i->proc)) return;
 4073              		.loc 1 663 17 view .LVU1481
 4074 0540 4846     		mov	r0, r9
 4075 0542 FFF7FEFF 		bl	lv_group_send_data
 4076              	.LVL278:
 664:Drivers/lvgl/src/core/lv_indev.c ****             }
 4077              		.loc 1 664 17 view .LVU1482
 4078              	.LBB498:
 4079              	.LBI498:
1173:Drivers/lvgl/src/core/lv_indev.c **** {
 4080              		.loc 1 1173 13 view .LVU1483
 4081              	.LBB499:
1175:Drivers/lvgl/src/core/lv_indev.c ****         indev_obj_act = NULL;
 4082              		.loc 1 1175 5 view .LVU1484
1175:Drivers/lvgl/src/core/lv_indev.c ****         indev_obj_act = NULL;
 4083              		.loc 1 1175 8 is_stmt 0 view .LVU1485
 4084 0546 6379     		ldrb	r3, [r4, #5]	@ zero_extendqisi2
1175:Drivers/lvgl/src/core/lv_indev.c ****         indev_obj_act = NULL;
 4085              		.loc 1 1175 7 view .LVU1486
 4086 0548 13F0020F 		tst	r3, #2
 4087 054c 3FF4D0AE 		beq	.L660
 4088              	.LVL279:
 4089              	.L680:
ARM GAS  /var/folders/lp/x54gwt890xv47sdkqj1k04q40000gn/T//ccfgQDQQ.s 			page 119


1176:Drivers/lvgl/src/core/lv_indev.c ****     }
 4090              		.loc 1 1176 9 is_stmt 1 view .LVU1487
1176:Drivers/lvgl/src/core/lv_indev.c ****     }
 4091              		.loc 1 1176 23 is_stmt 0 view .LVU1488
 4092 0550 4FF00002 		mov	r2, #0
 4093 0554 3A60     		str	r2, [r7]
 4094              		.loc 1 1179 5 is_stmt 1 view .LVU1489
 4095              	.LBE499:
 4096              	.LBE498:
 664:Drivers/lvgl/src/core/lv_indev.c ****             }
 4097              		.loc 1 664 19 is_stmt 0 discriminator 1 view .LVU1490
 4098 0556 7FF4BCAD 		bne	.L394
 4099 055a C9E6     		b	.L660
 4100              	.L661:
 656:Drivers/lvgl/src/core/lv_indev.c ****             }
 4101              		.loc 1 656 17 is_stmt 1 view .LVU1491
 656:Drivers/lvgl/src/core/lv_indev.c ****             }
 4102              		.loc 1 656 31 is_stmt 0 view .LVU1492
 4103 055c BDF81430 		ldrh	r3, [sp, #20]
 4104 0560 013B     		subs	r3, r3, #1
 4105 0562 1BB2     		sxth	r3, r3
 4106 0564 ADF81430 		strh	r3, [sp, #20]	@ movhi
 4107 0568 C4E6     		b	.L412
 4108              	.L404:
 603:Drivers/lvgl/src/core/lv_indev.c ****             if(indev_reset_check(&i->proc)) return;
 4109              		.loc 1 603 13 is_stmt 1 view .LVU1493
 4110 056a 1B21     		movs	r1, #27
 4111 056c 4846     		mov	r0, r9
 4112 056e FFF7FEFF 		bl	lv_group_send_data
 4113              	.LVL280:
 604:Drivers/lvgl/src/core/lv_indev.c **** 
 4114              		.loc 1 604 13 view .LVU1494
 4115              	.LBB500:
 4116              	.LBI500:
1173:Drivers/lvgl/src/core/lv_indev.c **** {
 4117              		.loc 1 1173 13 view .LVU1495
 4118              	.LBB501:
1175:Drivers/lvgl/src/core/lv_indev.c ****         indev_obj_act = NULL;
 4119              		.loc 1 1175 5 view .LVU1496
1175:Drivers/lvgl/src/core/lv_indev.c ****         indev_obj_act = NULL;
 4120              		.loc 1 1175 8 is_stmt 0 view .LVU1497
 4121 0572 6379     		ldrb	r3, [r4, #5]	@ zero_extendqisi2
1175:Drivers/lvgl/src/core/lv_indev.c ****         indev_obj_act = NULL;
 4122              		.loc 1 1175 7 view .LVU1498
 4123 0574 9A07     		lsls	r2, r3, #30
1176:Drivers/lvgl/src/core/lv_indev.c ****     }
 4124              		.loc 1 1176 9 is_stmt 1 view .LVU1499
 4125              		.loc 1 1179 5 view .LVU1500
 4126              	.LVL281:
1176:Drivers/lvgl/src/core/lv_indev.c ****     }
 4127              		.loc 1 1176 23 is_stmt 0 view .LVU1501
 4128 0576 44BF     		itt	mi
 4129 0578 0022     		movmi	r2, #0
 4130 057a 3A60     		strmi	r2, [r7]
 4131              	.LBE501:
 4132              	.LBE500:
 604:Drivers/lvgl/src/core/lv_indev.c **** 
ARM GAS  /var/folders/lp/x54gwt890xv47sdkqj1k04q40000gn/T//ccfgQDQQ.s 			page 120


 4133              		.loc 1 604 15 discriminator 1 view .LVU1502
 4134 057c 9807     		lsls	r0, r3, #30
 606:Drivers/lvgl/src/core/lv_indev.c ****             if(indev_reset_check(&i->proc)) return;
 4135              		.loc 1 606 13 view .LVU1503
 4136 057e 3268     		ldr	r2, [r6]
 604:Drivers/lvgl/src/core/lv_indev.c **** 
 4137              		.loc 1 604 15 discriminator 1 view .LVU1504
 4138 0580 C3F3400A 		ubfx	r10, r3, #1, #1
 4139 0584 79D4     		bmi	.L666
 606:Drivers/lvgl/src/core/lv_indev.c ****             if(indev_reset_check(&i->proc)) return;
 4140              		.loc 1 606 13 is_stmt 1 view .LVU1505
 4141 0586 3868     		ldr	r0, [r7]
 4142 0588 2021     		movs	r1, #32
 4143 058a FFF7FEFF 		bl	lv_event_send
 4144              	.LVL282:
 607:Drivers/lvgl/src/core/lv_indev.c ****         }
 4145              		.loc 1 607 13 view .LVU1506
 4146              	.LBB502:
 4147              	.LBI502:
1173:Drivers/lvgl/src/core/lv_indev.c **** {
 4148              		.loc 1 1173 13 view .LVU1507
 4149              	.LBB503:
1175:Drivers/lvgl/src/core/lv_indev.c ****         indev_obj_act = NULL;
 4150              		.loc 1 1175 5 view .LVU1508
1175:Drivers/lvgl/src/core/lv_indev.c ****         indev_obj_act = NULL;
 4151              		.loc 1 1175 8 is_stmt 0 view .LVU1509
 4152 058e 6379     		ldrb	r3, [r4, #5]	@ zero_extendqisi2
1175:Drivers/lvgl/src/core/lv_indev.c ****         indev_obj_act = NULL;
 4153              		.loc 1 1175 7 view .LVU1510
 4154 0590 13F0020F 		tst	r3, #2
 4155 0594 3FF4ACAE 		beq	.L660
1176:Drivers/lvgl/src/core/lv_indev.c ****     }
 4156              		.loc 1 1176 9 is_stmt 1 view .LVU1511
1176:Drivers/lvgl/src/core/lv_indev.c ****     }
 4157              		.loc 1 1176 23 is_stmt 0 view .LVU1512
 4158 0598 C7F800A0 		str	r10, [r7]
 4159              		.loc 1 1179 5 is_stmt 1 view .LVU1513
 4160              	.LVL283:
 4161              		.loc 1 1179 5 is_stmt 0 view .LVU1514
 4162              	.LBE503:
 4163              	.LBE502:
 607:Drivers/lvgl/src/core/lv_indev.c ****         }
 4164              		.loc 1 607 15 discriminator 1 view .LVU1515
 4165 059c 7FF499AD 		bne	.L394
 4166 05a0 A6E6     		b	.L660
 4167              	.L408:
 4168              	.LBB504:
 586:Drivers/lvgl/src/core/lv_indev.c ****                                           lv_obj_has_flag(indev_obj_act, LV_OBJ_FLAG_SCROLLABLE);
 4169              		.loc 1 586 13 is_stmt 1 view .LVU1516
 586:Drivers/lvgl/src/core/lv_indev.c ****                                           lv_obj_has_flag(indev_obj_act, LV_OBJ_FLAG_SCROLLABLE);
 4170              		.loc 1 586 43 is_stmt 0 view .LVU1517
 4171 05a2 3868     		ldr	r0, [r7]
 4172 05a4 FFF7FEFF 		bl	lv_obj_is_editable
 4173              	.LVL284:
 586:Drivers/lvgl/src/core/lv_indev.c ****                                           lv_obj_has_flag(indev_obj_act, LV_OBJ_FLAG_SCROLLABLE);
 4174              		.loc 1 586 77 discriminator 1 view .LVU1518
 4175 05a8 0028     		cmp	r0, #0
ARM GAS  /var/folders/lp/x54gwt890xv47sdkqj1k04q40000gn/T//ccfgQDQQ.s 			page 121


 4176 05aa 00F06F81 		beq	.L409
 4177              	.L678:
 4178              	.LVL285:
 588:Drivers/lvgl/src/core/lv_indev.c ****                 lv_event_send(indev_obj_act, LV_EVENT_PRESSED, indev_act);
 4179              		.loc 1 588 13 is_stmt 1 view .LVU1519
 588:Drivers/lvgl/src/core/lv_indev.c ****                 lv_event_send(indev_obj_act, LV_EVENT_PRESSED, indev_act);
 4180              		.loc 1 588 16 is_stmt 0 view .LVU1520
 4181 05ae 4846     		mov	r0, r9
 4182 05b0 FFF7FEFF 		bl	lv_group_get_editing
 4183              	.LVL286:
 588:Drivers/lvgl/src/core/lv_indev.c ****                 lv_event_send(indev_obj_act, LV_EVENT_PRESSED, indev_act);
 4184              		.loc 1 588 15 discriminator 1 view .LVU1521
 4185 05b4 0028     		cmp	r0, #0
 4186 05b6 3FF49BAE 		beq	.L660
 4187              	.LVL287:
 4188              	.L411:
 589:Drivers/lvgl/src/core/lv_indev.c ****                 if(indev_reset_check(&i->proc)) return;
 4189              		.loc 1 589 17 is_stmt 1 view .LVU1522
 4190 05ba 3268     		ldr	r2, [r6]
 4191 05bc 3868     		ldr	r0, [r7]
 4192 05be 0121     		movs	r1, #1
 4193 05c0 FFF7FEFF 		bl	lv_event_send
 4194              	.LVL288:
 590:Drivers/lvgl/src/core/lv_indev.c ****             }
 4195              		.loc 1 590 17 view .LVU1523
 4196              	.LBB505:
 4197              	.LBI505:
1173:Drivers/lvgl/src/core/lv_indev.c **** {
 4198              		.loc 1 1173 13 view .LVU1524
 4199              	.LBB506:
1175:Drivers/lvgl/src/core/lv_indev.c ****         indev_obj_act = NULL;
 4200              		.loc 1 1175 5 view .LVU1525
1175:Drivers/lvgl/src/core/lv_indev.c ****         indev_obj_act = NULL;
 4201              		.loc 1 1175 8 is_stmt 0 view .LVU1526
 4202 05c4 6379     		ldrb	r3, [r4, #5]	@ zero_extendqisi2
1175:Drivers/lvgl/src/core/lv_indev.c ****         indev_obj_act = NULL;
 4203              		.loc 1 1175 7 view .LVU1527
 4204 05c6 13F0020F 		tst	r3, #2
 4205 05ca 3FF491AE 		beq	.L660
 4206 05ce BFE7     		b	.L680
 4207              	.LVL289:
 4208              	.L466:
1175:Drivers/lvgl/src/core/lv_indev.c ****         indev_obj_act = NULL;
 4209              		.loc 1 1175 7 view .LVU1528
 4210              	.LBE506:
 4211              	.LBE505:
 4212              	.LBE504:
 4213              	.LBB507:
 744:Drivers/lvgl/src/core/lv_indev.c ****             int32_t s;
 4214              		.loc 1 744 13 is_stmt 1 view .LVU1529
 744:Drivers/lvgl/src/core/lv_indev.c ****             int32_t s;
 4215              		.loc 1 744 13 view .LVU1530
 744:Drivers/lvgl/src/core/lv_indev.c ****             int32_t s;
 4216              		.loc 1 744 13 view .LVU1531
 745:Drivers/lvgl/src/core/lv_indev.c ****             if(data->enc_diff < 0) {
 4217              		.loc 1 745 13 view .LVU1532
 746:Drivers/lvgl/src/core/lv_indev.c ****                 for(s = 0; s < -data->enc_diff; s++) {
ARM GAS  /var/folders/lp/x54gwt890xv47sdkqj1k04q40000gn/T//ccfgQDQQ.s 			page 122


 4218              		.loc 1 746 13 view .LVU1533
 746:Drivers/lvgl/src/core/lv_indev.c ****                 for(s = 0; s < -data->enc_diff; s++) {
 4219              		.loc 1 746 15 is_stmt 0 view .LVU1534
 4220 05d0 002B     		cmp	r3, #0
 4221 05d2 16DB     		blt	.L705
 752:Drivers/lvgl/src/core/lv_indev.c ****                 for(s = 0; s < data->enc_diff; s++) {
 4222              		.loc 1 752 18 is_stmt 1 view .LVU1535
 752:Drivers/lvgl/src/core/lv_indev.c ****                 for(s = 0; s < data->enc_diff; s++) {
 4223              		.loc 1 752 20 is_stmt 0 view .LVU1536
 4224 05d4 3FF47DAD 		beq	.L394
 753:Drivers/lvgl/src/core/lv_indev.c ****                     lv_group_focus_next(g);
 4225              		.loc 1 753 23 view .LVU1537
 4226 05d8 8246     		mov	r10, r0
 4227              	.LBB464:
 4228              	.LBB465:
1176:Drivers/lvgl/src/core/lv_indev.c ****     }
 4229              		.loc 1 1176 23 view .LVU1538
 4230 05da 8346     		mov	fp, r0
 4231 05dc 04E0     		b	.L478
 4232              	.LVL290:
 4233              	.L480:
1176:Drivers/lvgl/src/core/lv_indev.c ****     }
 4234              		.loc 1 1176 23 view .LVU1539
 4235              	.LBE465:
 4236              	.LBE464:
 753:Drivers/lvgl/src/core/lv_indev.c ****                     lv_group_focus_next(g);
 4237              		.loc 1 753 36 discriminator 1 view .LVU1540
 4238 05de BDF91430 		ldrsh	r3, [sp, #20]
 753:Drivers/lvgl/src/core/lv_indev.c ****                     lv_group_focus_next(g);
 4239              		.loc 1 753 30 discriminator 1 view .LVU1541
 4240 05e2 9A45     		cmp	r10, r3
 4241 05e4 BFF675AD 		bge	.L394
 4242              	.LVL291:
 4243              	.L478:
 754:Drivers/lvgl/src/core/lv_indev.c ****                     if(indev_reset_check(&i->proc)) return;
 4244              		.loc 1 754 21 is_stmt 1 view .LVU1542
 4245 05e8 4846     		mov	r0, r9
 4246 05ea FFF7FEFF 		bl	lv_group_focus_next
 4247              	.LVL292:
 755:Drivers/lvgl/src/core/lv_indev.c ****                 }
 4248              		.loc 1 755 21 view .LVU1543
 4249              	.LBB469:
 4250              	.LBI464:
1173:Drivers/lvgl/src/core/lv_indev.c **** {
 4251              		.loc 1 1173 13 view .LVU1544
 4252              	.LBB466:
1175:Drivers/lvgl/src/core/lv_indev.c ****         indev_obj_act = NULL;
 4253              		.loc 1 1175 5 view .LVU1545
1176:Drivers/lvgl/src/core/lv_indev.c ****     }
 4254              		.loc 1 1176 9 view .LVU1546
 4255              	.LBE466:
 4256              	.LBE469:
 753:Drivers/lvgl/src/core/lv_indev.c ****                     lv_group_focus_next(g);
 4257              		.loc 1 753 49 discriminator 2 view .LVU1547
 4258              	.LBB470:
 4259              	.LBB467:
1175:Drivers/lvgl/src/core/lv_indev.c ****         indev_obj_act = NULL;
ARM GAS  /var/folders/lp/x54gwt890xv47sdkqj1k04q40000gn/T//ccfgQDQQ.s 			page 123


 4260              		.loc 1 1175 8 is_stmt 0 view .LVU1548
 4261 05ee 6379     		ldrb	r3, [r4, #5]	@ zero_extendqisi2
1175:Drivers/lvgl/src/core/lv_indev.c ****         indev_obj_act = NULL;
 4262              		.loc 1 1175 7 view .LVU1549
 4263 05f0 13F0020F 		tst	r3, #2
 4264              	.LBE467:
 4265              	.LBE470:
 753:Drivers/lvgl/src/core/lv_indev.c ****                     lv_group_focus_next(g);
 4266              		.loc 1 753 49 discriminator 2 view .LVU1550
 4267 05f4 0AF1010A 		add	r10, r10, #1
 4268              	.LVL293:
 753:Drivers/lvgl/src/core/lv_indev.c ****                     lv_group_focus_next(g);
 4269              		.loc 1 753 30 is_stmt 1 discriminator 1 view .LVU1551
 4270              	.LBB471:
 4271              	.LBB468:
1175:Drivers/lvgl/src/core/lv_indev.c ****         indev_obj_act = NULL;
 4272              		.loc 1 1175 7 is_stmt 0 view .LVU1552
 4273 05f8 F1D0     		beq	.L480
1176:Drivers/lvgl/src/core/lv_indev.c ****     }
 4274              		.loc 1 1176 23 view .LVU1553
 4275 05fa C7F800B0 		str	fp, [r7]
 4276              		.loc 1 1179 5 is_stmt 1 view .LVU1554
 4277              	.LVL294:
 4278              		.loc 1 1179 5 is_stmt 0 view .LVU1555
 4279              	.LBE468:
 4280              	.LBE471:
 755:Drivers/lvgl/src/core/lv_indev.c ****                 }
 4281              		.loc 1 755 23 discriminator 1 view .LVU1556
 4282 05fe EED0     		beq	.L480
 4283 0600 67E5     		b	.L394
 4284              	.LVL295:
 4285              	.L705:
 747:Drivers/lvgl/src/core/lv_indev.c ****                     lv_group_focus_prev(g);
 4286              		.loc 1 747 23 view .LVU1557
 4287 0602 8246     		mov	r10, r0
 4288              	.LBB472:
 4289              	.LBB473:
1176:Drivers/lvgl/src/core/lv_indev.c ****     }
 4290              		.loc 1 1176 23 view .LVU1558
 4291 0604 8346     		mov	fp, r0
 4292 0606 05E0     		b	.L477
 4293              	.LVL296:
 4294              	.L476:
1176:Drivers/lvgl/src/core/lv_indev.c ****     }
 4295              		.loc 1 1176 23 view .LVU1559
 4296              	.LBE473:
 4297              	.LBE472:
 747:Drivers/lvgl/src/core/lv_indev.c ****                     lv_group_focus_prev(g);
 4298              		.loc 1 747 37 discriminator 1 view .LVU1560
 4299 0608 BDF91430 		ldrsh	r3, [sp, #20]
 747:Drivers/lvgl/src/core/lv_indev.c ****                     lv_group_focus_prev(g);
 4300              		.loc 1 747 32 discriminator 1 view .LVU1561
 4301 060c 5B42     		rsbs	r3, r3, #0
 747:Drivers/lvgl/src/core/lv_indev.c ****                     lv_group_focus_prev(g);
 4302              		.loc 1 747 30 discriminator 1 view .LVU1562
 4303 060e 9A45     		cmp	r10, r3
 4304 0610 BFF65FAD 		bge	.L394
ARM GAS  /var/folders/lp/x54gwt890xv47sdkqj1k04q40000gn/T//ccfgQDQQ.s 			page 124


 4305              	.LVL297:
 4306              	.L477:
 748:Drivers/lvgl/src/core/lv_indev.c ****                     if(indev_reset_check(&i->proc)) return;
 4307              		.loc 1 748 21 is_stmt 1 view .LVU1563
 4308 0614 4846     		mov	r0, r9
 4309 0616 FFF7FEFF 		bl	lv_group_focus_prev
 4310              	.LVL298:
 749:Drivers/lvgl/src/core/lv_indev.c ****                 }
 4311              		.loc 1 749 21 view .LVU1564
 4312              	.LBB477:
 4313              	.LBI472:
1173:Drivers/lvgl/src/core/lv_indev.c **** {
 4314              		.loc 1 1173 13 view .LVU1565
 4315              	.LBB474:
1175:Drivers/lvgl/src/core/lv_indev.c ****         indev_obj_act = NULL;
 4316              		.loc 1 1175 5 view .LVU1566
1176:Drivers/lvgl/src/core/lv_indev.c ****     }
 4317              		.loc 1 1176 9 view .LVU1567
 4318              	.LBE474:
 4319              	.LBE477:
 747:Drivers/lvgl/src/core/lv_indev.c ****                     lv_group_focus_prev(g);
 4320              		.loc 1 747 50 discriminator 2 view .LVU1568
 4321              	.LBB478:
 4322              	.LBB475:
1175:Drivers/lvgl/src/core/lv_indev.c ****         indev_obj_act = NULL;
 4323              		.loc 1 1175 8 is_stmt 0 view .LVU1569
 4324 061a 6379     		ldrb	r3, [r4, #5]	@ zero_extendqisi2
1175:Drivers/lvgl/src/core/lv_indev.c ****         indev_obj_act = NULL;
 4325              		.loc 1 1175 7 view .LVU1570
 4326 061c 13F0020F 		tst	r3, #2
 4327              	.LBE475:
 4328              	.LBE478:
 747:Drivers/lvgl/src/core/lv_indev.c ****                     lv_group_focus_prev(g);
 4329              		.loc 1 747 50 discriminator 2 view .LVU1571
 4330 0620 0AF1010A 		add	r10, r10, #1
 4331              	.LVL299:
 747:Drivers/lvgl/src/core/lv_indev.c ****                     lv_group_focus_prev(g);
 4332              		.loc 1 747 30 is_stmt 1 discriminator 1 view .LVU1572
 4333              	.LBB479:
 4334              	.LBB476:
1175:Drivers/lvgl/src/core/lv_indev.c ****         indev_obj_act = NULL;
 4335              		.loc 1 1175 7 is_stmt 0 view .LVU1573
 4336 0624 F0D0     		beq	.L476
1176:Drivers/lvgl/src/core/lv_indev.c ****     }
 4337              		.loc 1 1176 23 view .LVU1574
 4338 0626 C7F800B0 		str	fp, [r7]
 4339              		.loc 1 1179 5 is_stmt 1 view .LVU1575
 4340              	.LVL300:
 4341              		.loc 1 1179 5 is_stmt 0 view .LVU1576
 4342              	.LBE476:
 4343              	.LBE479:
 749:Drivers/lvgl/src/core/lv_indev.c ****                 }
 4344              		.loc 1 749 23 discriminator 1 view .LVU1577
 4345 062a EDD0     		beq	.L476
 4346 062c 51E5     		b	.L394
 4347              	.LVL301:
 4348              	.L694:
ARM GAS  /var/folders/lp/x54gwt890xv47sdkqj1k04q40000gn/T//ccfgQDQQ.s 			page 125


 749:Drivers/lvgl/src/core/lv_indev.c ****                 }
 4349              		.loc 1 749 23 discriminator 1 view .LVU1578
 4350              	.LBE507:
 4351              	.LBB508:
 4352              	.LBB489:
 4353              	.LBB490:
1176:Drivers/lvgl/src/core/lv_indev.c ****     }
 4354              		.loc 1 1176 23 view .LVU1579
 4355 062e D346     		mov	fp, r10
 4356 0630 05E0     		b	.L470
 4357              	.LVL302:
 4358              	.L469:
1176:Drivers/lvgl/src/core/lv_indev.c ****     }
 4359              		.loc 1 1176 23 view .LVU1580
 4360              	.LBE490:
 4361              	.LBE489:
 730:Drivers/lvgl/src/core/lv_indev.c ****                     lv_group_send_data(g, LV_KEY_LEFT);
 4362              		.loc 1 730 37 discriminator 1 view .LVU1581
 4363 0632 BDF91430 		ldrsh	r3, [sp, #20]
 730:Drivers/lvgl/src/core/lv_indev.c ****                     lv_group_send_data(g, LV_KEY_LEFT);
 4364              		.loc 1 730 32 discriminator 1 view .LVU1582
 4365 0636 5B42     		rsbs	r3, r3, #0
 730:Drivers/lvgl/src/core/lv_indev.c ****                     lv_group_send_data(g, LV_KEY_LEFT);
 4366              		.loc 1 730 30 discriminator 1 view .LVU1583
 4367 0638 9A45     		cmp	r10, r3
 4368 063a BFF64AAD 		bge	.L394
 4369              	.LVL303:
 4370              	.L470:
 731:Drivers/lvgl/src/core/lv_indev.c ****                     if(indev_reset_check(&i->proc)) return;
 4371              		.loc 1 731 21 is_stmt 1 view .LVU1584
 4372 063e 1421     		movs	r1, #20
 4373 0640 4846     		mov	r0, r9
 4374 0642 FFF7FEFF 		bl	lv_group_send_data
 4375              	.LVL304:
 732:Drivers/lvgl/src/core/lv_indev.c ****                 }
 4376              		.loc 1 732 21 view .LVU1585
 4377              	.LBB494:
 4378              	.LBI489:
1173:Drivers/lvgl/src/core/lv_indev.c **** {
 4379              		.loc 1 1173 13 view .LVU1586
 4380              	.LBB491:
1175:Drivers/lvgl/src/core/lv_indev.c ****         indev_obj_act = NULL;
 4381              		.loc 1 1175 5 view .LVU1587
1176:Drivers/lvgl/src/core/lv_indev.c ****     }
 4382              		.loc 1 1176 9 view .LVU1588
 4383              	.LBE491:
 4384              	.LBE494:
 730:Drivers/lvgl/src/core/lv_indev.c ****                     lv_group_send_data(g, LV_KEY_LEFT);
 4385              		.loc 1 730 50 discriminator 2 view .LVU1589
 4386              	.LBB495:
 4387              	.LBB492:
1175:Drivers/lvgl/src/core/lv_indev.c ****         indev_obj_act = NULL;
 4388              		.loc 1 1175 8 is_stmt 0 view .LVU1590
 4389 0646 6379     		ldrb	r3, [r4, #5]	@ zero_extendqisi2
1175:Drivers/lvgl/src/core/lv_indev.c ****         indev_obj_act = NULL;
 4390              		.loc 1 1175 7 view .LVU1591
 4391 0648 13F0020F 		tst	r3, #2
ARM GAS  /var/folders/lp/x54gwt890xv47sdkqj1k04q40000gn/T//ccfgQDQQ.s 			page 126


 4392              	.LBE492:
 4393              	.LBE495:
 730:Drivers/lvgl/src/core/lv_indev.c ****                     lv_group_send_data(g, LV_KEY_LEFT);
 4394              		.loc 1 730 50 discriminator 2 view .LVU1592
 4395 064c 0AF1010A 		add	r10, r10, #1
 4396              	.LVL305:
 730:Drivers/lvgl/src/core/lv_indev.c ****                     lv_group_send_data(g, LV_KEY_LEFT);
 4397              		.loc 1 730 30 is_stmt 1 discriminator 1 view .LVU1593
 4398              	.LBB496:
 4399              	.LBB493:
1175:Drivers/lvgl/src/core/lv_indev.c ****         indev_obj_act = NULL;
 4400              		.loc 1 1175 7 is_stmt 0 view .LVU1594
 4401 0650 EFD0     		beq	.L469
1176:Drivers/lvgl/src/core/lv_indev.c ****     }
 4402              		.loc 1 1176 23 view .LVU1595
 4403 0652 C7F800B0 		str	fp, [r7]
 4404              		.loc 1 1179 5 is_stmt 1 view .LVU1596
 4405              	.LVL306:
 4406              		.loc 1 1179 5 is_stmt 0 view .LVU1597
 4407              	.LBE493:
 4408              	.LBE496:
 732:Drivers/lvgl/src/core/lv_indev.c ****                 }
 4409              		.loc 1 732 23 discriminator 1 view .LVU1598
 4410 0656 ECD0     		beq	.L469
 4411 0658 3BE5     		b	.L394
 4412              	.LVL307:
 4413              	.L445:
 732:Drivers/lvgl/src/core/lv_indev.c ****                 }
 4414              		.loc 1 732 23 discriminator 1 view .LVU1599
 4415              	.LBE508:
 4416              	.LBB509:
 4417              	.LBB510:
 4418              	.LBB511:
1176:Drivers/lvgl/src/core/lv_indev.c ****     }
 4419              		.loc 1 1176 9 is_stmt 1 view .LVU1600
 4420              	.LBE511:
 4421              	.LBE510:
 681:Drivers/lvgl/src/core/lv_indev.c **** 
 4422              		.loc 1 681 19 is_stmt 0 discriminator 1 view .LVU1601
 4423 065a 9807     		lsls	r0, r3, #30
 683:Drivers/lvgl/src/core/lv_indev.c ****                 if(indev_reset_check(&i->proc)) return;
 4424              		.loc 1 683 47 discriminator 1 view .LVU1602
 4425 065c 3268     		ldr	r2, [r6]
 4426              	.LBB514:
 4427              	.LBB512:
1176:Drivers/lvgl/src/core/lv_indev.c ****     }
 4428              		.loc 1 1176 23 view .LVU1603
 4429 065e C7F800A0 		str	r10, [r7]
 4430              		.loc 1 1179 5 is_stmt 1 view .LVU1604
 4431              	.LVL308:
 4432              		.loc 1 1179 37 is_stmt 0 view .LVU1605
 4433 0662 4FEA5301 		lsr	r1, r3, #1
 4434              	.LBE512:
 4435              	.LBE514:
 681:Drivers/lvgl/src/core/lv_indev.c **** 
 4436              		.loc 1 681 19 discriminator 1 view .LVU1606
 4437 0666 08D4     		bmi	.L666
ARM GAS  /var/folders/lp/x54gwt890xv47sdkqj1k04q40000gn/T//ccfgQDQQ.s 			page 127


 683:Drivers/lvgl/src/core/lv_indev.c ****                 if(indev_reset_check(&i->proc)) return;
 4438              		.loc 1 683 17 is_stmt 1 view .LVU1607
 683:Drivers/lvgl/src/core/lv_indev.c ****                 if(indev_reset_check(&i->proc)) return;
 4439              		.loc 1 683 19 is_stmt 0 view .LVU1608
 4440 0668 D807     		lsls	r0, r3, #31
 4441 066a 40F13881 		bpl	.L446
 4442              	.L449:
 4443              	.LBB515:
 4444              	.LBB516:
1176:Drivers/lvgl/src/core/lv_indev.c ****     }
 4445              		.loc 1 1176 9 is_stmt 1 view .LVU1609
1176:Drivers/lvgl/src/core/lv_indev.c ****     }
 4446              		.loc 1 1176 23 is_stmt 0 view .LVU1610
 4447 066e 0023     		movs	r3, #0
 4448 0670 3B60     		str	r3, [r7]
 4449              	.L450:
 4450              		.loc 1 1179 5 is_stmt 1 view .LVU1611
 4451              	.LBE516:
 4452              	.LBE515:
 684:Drivers/lvgl/src/core/lv_indev.c **** 
 4453              		.loc 1 684 19 is_stmt 0 discriminator 1 view .LVU1612
 4454 0672 C807     		lsls	r0, r1, #31
 4455              	.LBE509:
 4456              	.LBE550:
 4457              	.LBE571:
 113:Drivers/lvgl/src/core/lv_indev.c ****     } while(continue_reading);
 4458              		.loc 1 113 9 view .LVU1613
 4459 0674 3268     		ldr	r2, [r6]
 4460              	.LBB572:
 4461              	.LBB551:
 4462              	.LBB532:
 684:Drivers/lvgl/src/core/lv_indev.c **** 
 4463              		.loc 1 684 19 discriminator 1 view .LVU1614
 4464 0676 40F1F980 		bpl	.L447
 4465              	.LVL309:
 4466              	.L666:
 684:Drivers/lvgl/src/core/lv_indev.c **** 
 4467              		.loc 1 684 19 discriminator 1 view .LVU1615
 4468              	.LBE532:
 4469              	.LBE551:
 4470              	.LBE572:
 4471              	.LBB573:
 4472              	.LBB395:
1028:Drivers/lvgl/src/core/lv_indev.c ****         indev->proc.types.pointer.act_obj           = NULL;
 4473              		.loc 1 1028 8 view .LVU1616
 4474 067a 5379     		ldrb	r3, [r2, #5]	@ zero_extendqisi2
 4475 067c 1446     		mov	r4, r2
 4476 067e 2AE5     		b	.L340
 4477              	.LVL310:
 4478              	.L700:
1028:Drivers/lvgl/src/core/lv_indev.c ****         indev->proc.types.pointer.act_obj           = NULL;
 4479              		.loc 1 1028 8 view .LVU1617
 4480              	.LBE395:
 4481              	.LBE573:
 4482              	.LBB574:
 4483              	.LBB552:
 618:Drivers/lvgl/src/core/lv_indev.c **** 
ARM GAS  /var/folders/lp/x54gwt890xv47sdkqj1k04q40000gn/T//ccfgQDQQ.s 			page 128


 4484              		.loc 1 618 41 discriminator 1 view .LVU1618
 4485 0680 A06C     		ldr	r0, [r4, #72]
 4486 0682 FFF7FEFF 		bl	lv_tick_elaps
 4487              	.LVL311:
 618:Drivers/lvgl/src/core/lv_indev.c **** 
 4488              		.loc 1 618 88 discriminator 1 view .LVU1619
 4489 0686 2368     		ldr	r3, [r4]
 618:Drivers/lvgl/src/core/lv_indev.c **** 
 4490              		.loc 1 618 77 discriminator 1 view .LVU1620
 4491 0688 9B8B     		ldrh	r3, [r3, #28]
 618:Drivers/lvgl/src/core/lv_indev.c **** 
 4492              		.loc 1 618 38 discriminator 1 view .LVU1621
 4493 068a 9842     		cmp	r0, r3
 620:Drivers/lvgl/src/core/lv_indev.c ****             i->proc.longpr_rep_timestamp = lv_tick_get();
 4494              		.loc 1 620 34 view .LVU1622
 4495 068c 6379     		ldrb	r3, [r4, #5]	@ zero_extendqisi2
 618:Drivers/lvgl/src/core/lv_indev.c **** 
 4496              		.loc 1 618 38 discriminator 1 view .LVU1623
 4497 068e 00F2BA80 		bhi	.L706
 646:Drivers/lvgl/src/core/lv_indev.c **** 
 4498              		.loc 1 646 14 is_stmt 1 view .LVU1624
 646:Drivers/lvgl/src/core/lv_indev.c **** 
 4499              		.loc 1 646 16 is_stmt 0 view .LVU1625
 4500 0692 D907     		lsls	r1, r3, #31
 4501 0694 3FF5DFAE 		bmi	.L424
 4502 0698 2AE6     		b	.L660
 4503              	.L693:
 4504              	.LBB533:
 675:Drivers/lvgl/src/core/lv_indev.c ****                                           lv_obj_has_flag(indev_obj_act, LV_OBJ_FLAG_SCROLLABLE);
 4505              		.loc 1 675 13 is_stmt 1 view .LVU1626
 675:Drivers/lvgl/src/core/lv_indev.c ****                                           lv_obj_has_flag(indev_obj_act, LV_OBJ_FLAG_SCROLLABLE);
 4506              		.loc 1 675 43 is_stmt 0 view .LVU1627
 4507 069a FFF7FEFF 		bl	lv_obj_is_editable
 4508              	.LVL312:
 675:Drivers/lvgl/src/core/lv_indev.c ****                                           lv_obj_has_flag(indev_obj_act, LV_OBJ_FLAG_SCROLLABLE);
 4509              		.loc 1 675 77 discriminator 1 view .LVU1628
 4510 069e 0028     		cmp	r0, #0
 4511 06a0 00F0D080 		beq	.L707
 4512              	.L444:
 691:Drivers/lvgl/src/core/lv_indev.c ****                 /*Ignore long pressed enter release because it comes from mode switch*/
 4513              		.loc 1 691 18 is_stmt 1 view .LVU1629
 691:Drivers/lvgl/src/core/lv_indev.c ****                 /*Ignore long pressed enter release because it comes from mode switch*/
 4514              		.loc 1 691 21 is_stmt 0 view .LVU1630
 4515 06a4 4846     		mov	r0, r9
 4516 06a6 FFF7FEFF 		bl	lv_group_get_editing
 4517              	.LVL313:
 693:Drivers/lvgl/src/core/lv_indev.c ****                     lv_event_send(indev_obj_act, LV_EVENT_RELEASED, indev_act);
 4518              		.loc 1 693 20 view .LVU1631
 4519 06aa 6379     		ldrb	r3, [r4, #5]	@ zero_extendqisi2
 691:Drivers/lvgl/src/core/lv_indev.c ****                 /*Ignore long pressed enter release because it comes from mode switch*/
 4520              		.loc 1 691 20 discriminator 1 view .LVU1632
 4521 06ac 0028     		cmp	r0, #0
 4522 06ae 00F0F880 		beq	.L453
 693:Drivers/lvgl/src/core/lv_indev.c ****                     lv_event_send(indev_obj_act, LV_EVENT_RELEASED, indev_act);
 4523              		.loc 1 693 17 is_stmt 1 view .LVU1633
 693:Drivers/lvgl/src/core/lv_indev.c ****                     lv_event_send(indev_obj_act, LV_EVENT_RELEASED, indev_act);
 4524              		.loc 1 693 19 is_stmt 0 view .LVU1634
ARM GAS  /var/folders/lp/x54gwt890xv47sdkqj1k04q40000gn/T//ccfgQDQQ.s 			page 129


 4525 06b2 D907     		lsls	r1, r3, #31
 4526 06b4 05D5     		bpl	.L457
 693:Drivers/lvgl/src/core/lv_indev.c ****                     lv_event_send(indev_obj_act, LV_EVENT_RELEASED, indev_act);
 4527              		.loc 1 693 45 discriminator 1 view .LVU1635
 4528 06b6 4846     		mov	r0, r9
 4529 06b8 FFF7FEFF 		bl	lv_group_get_obj_count
 4530              	.LVL314:
 693:Drivers/lvgl/src/core/lv_indev.c ****                     lv_event_send(indev_obj_act, LV_EVENT_RELEASED, indev_act);
 4531              		.loc 1 693 42 discriminator 1 view .LVU1636
 4532 06bc 0128     		cmp	r0, #1
 4533 06be 00F24B81 		bhi	.L708
 4534              	.L457:
 694:Drivers/lvgl/src/core/lv_indev.c ****                     if(indev_reset_check(&i->proc)) return;
 4535              		.loc 1 694 21 is_stmt 1 view .LVU1637
 4536 06c2 3268     		ldr	r2, [r6]
 4537 06c4 3868     		ldr	r0, [r7]
 4538 06c6 0821     		movs	r1, #8
 4539 06c8 FFF7FEFF 		bl	lv_event_send
 4540              	.LVL315:
 695:Drivers/lvgl/src/core/lv_indev.c **** 
 4541              		.loc 1 695 21 view .LVU1638
 4542              	.LBB518:
 4543              	.LBI518:
1173:Drivers/lvgl/src/core/lv_indev.c **** {
 4544              		.loc 1 1173 13 view .LVU1639
 4545              	.LBB519:
1175:Drivers/lvgl/src/core/lv_indev.c ****         indev_obj_act = NULL;
 4546              		.loc 1 1175 5 view .LVU1640
1175:Drivers/lvgl/src/core/lv_indev.c ****         indev_obj_act = NULL;
 4547              		.loc 1 1175 8 is_stmt 0 view .LVU1641
 4548 06cc 6379     		ldrb	r3, [r4, #5]	@ zero_extendqisi2
1175:Drivers/lvgl/src/core/lv_indev.c ****         indev_obj_act = NULL;
 4549              		.loc 1 1175 7 view .LVU1642
 4550 06ce 9A07     		lsls	r2, r3, #30
 4551 06d0 01D5     		bpl	.L456
1176:Drivers/lvgl/src/core/lv_indev.c ****     }
 4552              		.loc 1 1176 9 is_stmt 1 view .LVU1643
1176:Drivers/lvgl/src/core/lv_indev.c ****     }
 4553              		.loc 1 1176 23 is_stmt 0 view .LVU1644
 4554 06d2 0022     		movs	r2, #0
 4555 06d4 3A60     		str	r2, [r7]
 4556              	.L456:
 4557              		.loc 1 1179 5 is_stmt 1 view .LVU1645
 4558              	.LVL316:
 4559              		.loc 1 1179 5 is_stmt 0 view .LVU1646
 4560              	.LBE519:
 4561              	.LBE518:
 695:Drivers/lvgl/src/core/lv_indev.c **** 
 4562              		.loc 1 695 23 discriminator 1 view .LVU1647
 4563 06d6 C3F3400A 		ubfx	r10, r3, #1, #1
 4564 06da 9B07     		lsls	r3, r3, #30
 697:Drivers/lvgl/src/core/lv_indev.c ****                     if(indev_reset_check(&i->proc)) return;
 4565              		.loc 1 697 21 view .LVU1648
 4566 06dc 3268     		ldr	r2, [r6]
 695:Drivers/lvgl/src/core/lv_indev.c **** 
 4567              		.loc 1 695 23 discriminator 1 view .LVU1649
 4568 06de CCD4     		bmi	.L666
ARM GAS  /var/folders/lp/x54gwt890xv47sdkqj1k04q40000gn/T//ccfgQDQQ.s 			page 130


 697:Drivers/lvgl/src/core/lv_indev.c ****                     if(indev_reset_check(&i->proc)) return;
 4569              		.loc 1 697 21 is_stmt 1 view .LVU1650
 4570 06e0 0421     		movs	r1, #4
 4571 06e2 3868     		ldr	r0, [r7]
 4572 06e4 FFF7FEFF 		bl	lv_event_send
 4573              	.LVL317:
 698:Drivers/lvgl/src/core/lv_indev.c **** 
 4574              		.loc 1 698 21 view .LVU1651
 4575              	.LBB520:
 4576              	.LBI520:
1173:Drivers/lvgl/src/core/lv_indev.c **** {
 4577              		.loc 1 1173 13 view .LVU1652
 4578              	.LBB521:
1175:Drivers/lvgl/src/core/lv_indev.c ****         indev_obj_act = NULL;
 4579              		.loc 1 1175 5 view .LVU1653
1175:Drivers/lvgl/src/core/lv_indev.c ****         indev_obj_act = NULL;
 4580              		.loc 1 1175 8 is_stmt 0 view .LVU1654
 4581 06e8 6379     		ldrb	r3, [r4, #5]	@ zero_extendqisi2
 4582              	.LBE521:
 4583              	.LBE520:
 700:Drivers/lvgl/src/core/lv_indev.c ****                     if(indev_reset_check(&i->proc)) return;
 4584              		.loc 1 700 21 view .LVU1655
 4585 06ea 3268     		ldr	r2, [r6]
 4586              	.LBB523:
 4587              	.LBB522:
1175:Drivers/lvgl/src/core/lv_indev.c ****         indev_obj_act = NULL;
 4588              		.loc 1 1175 7 view .LVU1656
 4589 06ec 9807     		lsls	r0, r3, #30
1176:Drivers/lvgl/src/core/lv_indev.c ****     }
 4590              		.loc 1 1176 9 is_stmt 1 view .LVU1657
 4591              		.loc 1 1179 5 view .LVU1658
 4592              	.LVL318:
1176:Drivers/lvgl/src/core/lv_indev.c ****     }
 4593              		.loc 1 1176 23 is_stmt 0 view .LVU1659
 4594 06ee 48BF     		it	mi
 4595 06f0 C7F800A0 		strmi	r10, [r7]
 4596              	.LBE522:
 4597              	.LBE523:
 698:Drivers/lvgl/src/core/lv_indev.c **** 
 4598              		.loc 1 698 23 discriminator 1 view .LVU1660
 4599 06f4 9907     		lsls	r1, r3, #30
 4600 06f6 C3F3400A 		ubfx	r10, r3, #1, #1
 4601 06fa BED4     		bmi	.L666
 700:Drivers/lvgl/src/core/lv_indev.c ****                     if(indev_reset_check(&i->proc)) return;
 4602              		.loc 1 700 21 is_stmt 1 view .LVU1661
 4603 06fc 3868     		ldr	r0, [r7]
 4604 06fe 0721     		movs	r1, #7
 4605 0700 FFF7FEFF 		bl	lv_event_send
 4606              	.LVL319:
 701:Drivers/lvgl/src/core/lv_indev.c **** 
 4607              		.loc 1 701 21 view .LVU1662
 4608              	.LBB524:
 4609              	.LBI524:
1173:Drivers/lvgl/src/core/lv_indev.c **** {
 4610              		.loc 1 1173 13 view .LVU1663
 4611              	.LBB525:
1175:Drivers/lvgl/src/core/lv_indev.c ****         indev_obj_act = NULL;
ARM GAS  /var/folders/lp/x54gwt890xv47sdkqj1k04q40000gn/T//ccfgQDQQ.s 			page 131


 4612              		.loc 1 1175 5 view .LVU1664
1175:Drivers/lvgl/src/core/lv_indev.c ****         indev_obj_act = NULL;
 4613              		.loc 1 1175 8 is_stmt 0 view .LVU1665
 4614 0704 6379     		ldrb	r3, [r4, #5]	@ zero_extendqisi2
1175:Drivers/lvgl/src/core/lv_indev.c ****         indev_obj_act = NULL;
 4615              		.loc 1 1175 7 view .LVU1666
 4616 0706 9A07     		lsls	r2, r3, #30
1176:Drivers/lvgl/src/core/lv_indev.c ****     }
 4617              		.loc 1 1176 9 is_stmt 1 view .LVU1667
 4618              		.loc 1 1179 5 view .LVU1668
 4619              	.LVL320:
1176:Drivers/lvgl/src/core/lv_indev.c ****     }
 4620              		.loc 1 1176 23 is_stmt 0 view .LVU1669
 4621 0708 48BF     		it	mi
 4622 070a C7F800A0 		strmi	r10, [r7]
 4623              	.LBE525:
 4624              	.LBE524:
 701:Drivers/lvgl/src/core/lv_indev.c **** 
 4625              		.loc 1 701 23 discriminator 1 view .LVU1670
 4626 070e C3F3400A 		ubfx	r10, r3, #1, #1
 4627 0712 9B07     		lsls	r3, r3, #30
 4628 0714 3FF5DDAC 		bmi	.L394
 703:Drivers/lvgl/src/core/lv_indev.c ****                     if(indev_reset_check(&i->proc)) return;
 4629              		.loc 1 703 21 is_stmt 1 view .LVU1671
 4630 0718 0A21     		movs	r1, #10
 4631 071a 4846     		mov	r0, r9
 4632 071c FFF7FEFF 		bl	lv_group_send_data
 4633              	.LVL321:
 704:Drivers/lvgl/src/core/lv_indev.c ****                 }
 4634              		.loc 1 704 21 view .LVU1672
 4635              	.LBB526:
 4636              	.LBI526:
1173:Drivers/lvgl/src/core/lv_indev.c **** {
 4637              		.loc 1 1173 13 view .LVU1673
 4638              	.LBB527:
1175:Drivers/lvgl/src/core/lv_indev.c ****         indev_obj_act = NULL;
 4639              		.loc 1 1175 5 view .LVU1674
1175:Drivers/lvgl/src/core/lv_indev.c ****         indev_obj_act = NULL;
 4640              		.loc 1 1175 8 is_stmt 0 view .LVU1675
 4641 0720 6379     		ldrb	r3, [r4, #5]	@ zero_extendqisi2
1175:Drivers/lvgl/src/core/lv_indev.c ****         indev_obj_act = NULL;
 4642              		.loc 1 1175 7 view .LVU1676
 4643 0722 13F0020F 		tst	r3, #2
 4644 0726 3FF4DDAD 		beq	.L443
1176:Drivers/lvgl/src/core/lv_indev.c ****     }
 4645              		.loc 1 1176 9 is_stmt 1 view .LVU1677
1176:Drivers/lvgl/src/core/lv_indev.c ****     }
 4646              		.loc 1 1176 23 is_stmt 0 view .LVU1678
 4647 072a C7F800A0 		str	r10, [r7]
 4648              		.loc 1 1179 5 is_stmt 1 view .LVU1679
 4649              	.LVL322:
 4650              		.loc 1 1179 5 is_stmt 0 view .LVU1680
 4651              	.LBE527:
 4652              	.LBE526:
 704:Drivers/lvgl/src/core/lv_indev.c ****                 }
 4653              		.loc 1 704 23 discriminator 1 view .LVU1681
 4654 072e 7FF4D0AC 		bne	.L394
ARM GAS  /var/folders/lp/x54gwt890xv47sdkqj1k04q40000gn/T//ccfgQDQQ.s 			page 132


 4655 0732 D7E5     		b	.L443
 4656              	.LVL323:
 4657              	.L702:
 704:Drivers/lvgl/src/core/lv_indev.c ****                 }
 4658              		.loc 1 704 23 discriminator 1 view .LVU1682
 4659              	.LBE533:
 4660              	.LBE552:
 4661              	.LBE574:
 4662              	.LBB575:
 4663              	.LBB448:
 435:Drivers/lvgl/src/core/lv_indev.c ****             lv_group_focus_next(g);
 4664              		.loc 1 435 13 is_stmt 1 view .LVU1683
 4665 0734 5946     		mov	r1, fp
 4666 0736 4846     		mov	r0, r9
 4667 0738 FFF7FEFF 		bl	lv_group_set_editing
 4668              	.LVL324:
 436:Drivers/lvgl/src/core/lv_indev.c ****             if(indev_reset_check(&i->proc)) return;
 4669              		.loc 1 436 13 view .LVU1684
 4670 073c 4846     		mov	r0, r9
 4671 073e FFF7FEFF 		bl	lv_group_focus_next
 4672              	.LVL325:
 437:Drivers/lvgl/src/core/lv_indev.c ****         }
 4673              		.loc 1 437 13 view .LVU1685
 4674              	.LBB414:
 4675              	.LBI414:
1173:Drivers/lvgl/src/core/lv_indev.c **** {
 4676              		.loc 1 1173 13 view .LVU1686
 4677              	.LBB415:
1175:Drivers/lvgl/src/core/lv_indev.c ****         indev_obj_act = NULL;
 4678              		.loc 1 1175 5 view .LVU1687
1175:Drivers/lvgl/src/core/lv_indev.c ****         indev_obj_act = NULL;
 4679              		.loc 1 1175 8 is_stmt 0 view .LVU1688
 4680 0742 6279     		ldrb	r2, [r4, #5]	@ zero_extendqisi2
1175:Drivers/lvgl/src/core/lv_indev.c ****         indev_obj_act = NULL;
 4681              		.loc 1 1175 7 view .LVU1689
 4682 0744 9007     		lsls	r0, r2, #30
 4683 0746 7FF575AE 		bpl	.L386
 4684              	.LVL326:
 4685              	.L674:
1175:Drivers/lvgl/src/core/lv_indev.c ****         indev_obj_act = NULL;
 4686              		.loc 1 1175 7 view .LVU1690
 4687              	.LBE415:
 4688              	.LBE414:
 4689              	.LBB416:
 4690              	.LBB417:
1176:Drivers/lvgl/src/core/lv_indev.c ****     }
 4691              		.loc 1 1176 9 is_stmt 1 view .LVU1691
1176:Drivers/lvgl/src/core/lv_indev.c ****     }
 4692              		.loc 1 1176 23 is_stmt 0 view .LVU1692
 4693 074a C7F800B0 		str	fp, [r7]
 4694 074e 71E6     		b	.L386
 4695              	.L703:
1176:Drivers/lvgl/src/core/lv_indev.c ****     }
 4696              		.loc 1 1176 23 view .LVU1693
 4697              	.LBE417:
 4698              	.LBE416:
 441:Drivers/lvgl/src/core/lv_indev.c ****             lv_group_focus_prev(g);
ARM GAS  /var/folders/lp/x54gwt890xv47sdkqj1k04q40000gn/T//ccfgQDQQ.s 			page 133


 4699              		.loc 1 441 13 is_stmt 1 view .LVU1694
 4700 0750 5946     		mov	r1, fp
 4701 0752 4846     		mov	r0, r9
 4702 0754 FFF7FEFF 		bl	lv_group_set_editing
 4703              	.LVL327:
 442:Drivers/lvgl/src/core/lv_indev.c ****             if(indev_reset_check(&i->proc)) return;
 4704              		.loc 1 442 13 view .LVU1695
 4705 0758 4846     		mov	r0, r9
 4706 075a FFF7FEFF 		bl	lv_group_focus_prev
 4707              	.LVL328:
 443:Drivers/lvgl/src/core/lv_indev.c ****         }
 4708              		.loc 1 443 13 view .LVU1696
 4709              	.LBB419:
 4710              	.LBI416:
1173:Drivers/lvgl/src/core/lv_indev.c **** {
 4711              		.loc 1 1173 13 view .LVU1697
 4712              	.LBB418:
1175:Drivers/lvgl/src/core/lv_indev.c ****         indev_obj_act = NULL;
 4713              		.loc 1 1175 5 view .LVU1698
1175:Drivers/lvgl/src/core/lv_indev.c ****         indev_obj_act = NULL;
 4714              		.loc 1 1175 8 is_stmt 0 view .LVU1699
 4715 075e 6279     		ldrb	r2, [r4, #5]	@ zero_extendqisi2
1175:Drivers/lvgl/src/core/lv_indev.c ****         indev_obj_act = NULL;
 4716              		.loc 1 1175 7 view .LVU1700
 4717 0760 9107     		lsls	r1, r2, #30
 4718 0762 7FF567AE 		bpl	.L386
 4719 0766 F0E7     		b	.L674
 4720              	.LVL329:
 4721              	.L375:
1175:Drivers/lvgl/src/core/lv_indev.c ****         indev_obj_act = NULL;
 4722              		.loc 1 1175 7 view .LVU1701
 4723              	.LBE418:
 4724              	.LBE419:
 479:Drivers/lvgl/src/core/lv_indev.c ****             i->proc.long_pr_sent = 1;
 4725              		.loc 1 479 41 discriminator 1 view .LVU1702
 4726 0768 A06C     		ldr	r0, [r4, #72]
 4727 076a FFF7FEFF 		bl	lv_tick_elaps
 4728              	.LVL330:
 479:Drivers/lvgl/src/core/lv_indev.c ****             i->proc.long_pr_sent = 1;
 4729              		.loc 1 479 88 discriminator 1 view .LVU1703
 4730 076e 2368     		ldr	r3, [r4]
 479:Drivers/lvgl/src/core/lv_indev.c ****             i->proc.long_pr_sent = 1;
 4731              		.loc 1 479 77 discriminator 1 view .LVU1704
 4732 0770 9B8B     		ldrh	r3, [r3, #28]
 479:Drivers/lvgl/src/core/lv_indev.c ****             i->proc.long_pr_sent = 1;
 4733              		.loc 1 479 38 discriminator 1 view .LVU1705
 4734 0772 9842     		cmp	r0, r3
 480:Drivers/lvgl/src/core/lv_indev.c ****             if(data->key == LV_KEY_ENTER) {
 4735              		.loc 1 480 34 view .LVU1706
 4736 0774 6379     		ldrb	r3, [r4, #5]	@ zero_extendqisi2
 479:Drivers/lvgl/src/core/lv_indev.c ****             i->proc.long_pr_sent = 1;
 4737              		.loc 1 479 38 discriminator 1 view .LVU1707
 4738 0776 15D9     		bls	.L377
 480:Drivers/lvgl/src/core/lv_indev.c ****             if(data->key == LV_KEY_ENTER) {
 4739              		.loc 1 480 13 is_stmt 1 view .LVU1708
 480:Drivers/lvgl/src/core/lv_indev.c ****             if(data->key == LV_KEY_ENTER) {
 4740              		.loc 1 480 34 is_stmt 0 view .LVU1709
ARM GAS  /var/folders/lp/x54gwt890xv47sdkqj1k04q40000gn/T//ccfgQDQQ.s 			page 134


 4741 0778 43F00103 		orr	r3, r3, #1
 4742 077c 6371     		strb	r3, [r4, #5]
 481:Drivers/lvgl/src/core/lv_indev.c ****                 i->proc.longpr_rep_timestamp = lv_tick_get();
 4743              		.loc 1 481 13 is_stmt 1 view .LVU1710
 481:Drivers/lvgl/src/core/lv_indev.c ****                 i->proc.longpr_rep_timestamp = lv_tick_get();
 4744              		.loc 1 481 15 is_stmt 0 view .LVU1711
 4745 077e 039B     		ldr	r3, [sp, #12]
 4746 0780 0A2B     		cmp	r3, #10
 4747 0782 7FF43BAD 		bne	.L357
 482:Drivers/lvgl/src/core/lv_indev.c ****                 lv_event_send(indev_obj_act, LV_EVENT_LONG_PRESSED, indev_act);
 4748              		.loc 1 482 17 is_stmt 1 view .LVU1712
 482:Drivers/lvgl/src/core/lv_indev.c ****                 lv_event_send(indev_obj_act, LV_EVENT_LONG_PRESSED, indev_act);
 4749              		.loc 1 482 48 is_stmt 0 view .LVU1713
 4750 0786 FFF7FEFF 		bl	lv_tick_get
 4751              	.LVL331:
 483:Drivers/lvgl/src/core/lv_indev.c ****                 if(indev_reset_check(&i->proc)) return;
 4752              		.loc 1 483 17 view .LVU1714
 4753 078a 3268     		ldr	r2, [r6]
 482:Drivers/lvgl/src/core/lv_indev.c ****                 lv_event_send(indev_obj_act, LV_EVENT_LONG_PRESSED, indev_act);
 4754              		.loc 1 482 46 discriminator 1 view .LVU1715
 4755 078c E064     		str	r0, [r4, #76]
 483:Drivers/lvgl/src/core/lv_indev.c ****                 if(indev_reset_check(&i->proc)) return;
 4756              		.loc 1 483 17 is_stmt 1 view .LVU1716
 4757 078e 0521     		movs	r1, #5
 4758 0790 3868     		ldr	r0, [r7]
 4759 0792 FFF7FEFF 		bl	lv_event_send
 4760              	.LVL332:
 484:Drivers/lvgl/src/core/lv_indev.c ****             }
 4761              		.loc 1 484 17 view .LVU1717
 4762              	.LBB420:
 4763              	.LBI420:
1173:Drivers/lvgl/src/core/lv_indev.c **** {
 4764              		.loc 1 1173 13 view .LVU1718
 4765              	.LBB421:
1175:Drivers/lvgl/src/core/lv_indev.c ****         indev_obj_act = NULL;
 4766              		.loc 1 1175 5 view .LVU1719
1175:Drivers/lvgl/src/core/lv_indev.c ****         indev_obj_act = NULL;
 4767              		.loc 1 1175 8 is_stmt 0 view .LVU1720
 4768 0796 6279     		ldrb	r2, [r4, #5]	@ zero_extendqisi2
1175:Drivers/lvgl/src/core/lv_indev.c ****         indev_obj_act = NULL;
 4769              		.loc 1 1175 7 view .LVU1721
 4770 0798 9107     		lsls	r1, r2, #30
 4771 079a 7FF54BAE 		bpl	.L386
1176:Drivers/lvgl/src/core/lv_indev.c ****     }
 4772              		.loc 1 1176 9 is_stmt 1 view .LVU1722
1176:Drivers/lvgl/src/core/lv_indev.c ****     }
 4773              		.loc 1 1176 23 is_stmt 0 view .LVU1723
 4774 079e C7F800A0 		str	r10, [r7]
 4775 07a2 47E6     		b	.L386
 4776              	.LVL333:
 4777              	.L377:
1176:Drivers/lvgl/src/core/lv_indev.c ****     }
 4778              		.loc 1 1176 23 view .LVU1724
 4779              	.LBE421:
 4780              	.LBE420:
 488:Drivers/lvgl/src/core/lv_indev.c ****                 lv_tick_elaps(i->proc.longpr_rep_timestamp) > i->driver->long_press_repeat_time) {
 4781              		.loc 1 488 14 is_stmt 1 view .LVU1725
ARM GAS  /var/folders/lp/x54gwt890xv47sdkqj1k04q40000gn/T//ccfgQDQQ.s 			page 135


 488:Drivers/lvgl/src/core/lv_indev.c ****                 lv_tick_elaps(i->proc.longpr_rep_timestamp) > i->driver->long_press_repeat_time) {
 4782              		.loc 1 488 16 is_stmt 0 view .LVU1726
 4783 07a4 DA07     		lsls	r2, r3, #31
 4784 07a6 7FF529AD 		bpl	.L357
 4785 07aa 26E6     		b	.L379
 4786              	.LVL334:
 4787              	.L690:
 524:Drivers/lvgl/src/core/lv_indev.c ****             if(indev_reset_check(&i->proc)) return;
 4788              		.loc 1 524 13 is_stmt 1 view .LVU1727
 4789 07ac 0821     		movs	r1, #8
 4790              	.LVL335:
 524:Drivers/lvgl/src/core/lv_indev.c ****             if(indev_reset_check(&i->proc)) return;
 4791              		.loc 1 524 13 is_stmt 0 view .LVU1728
 4792 07ae 3868     		ldr	r0, [r7]
 4793              	.LVL336:
 524:Drivers/lvgl/src/core/lv_indev.c ****             if(indev_reset_check(&i->proc)) return;
 4794              		.loc 1 524 13 view .LVU1729
 4795 07b0 0193     		str	r3, [sp, #4]
 4796 07b2 FFF7FEFF 		bl	lv_event_send
 4797              	.LVL337:
 525:Drivers/lvgl/src/core/lv_indev.c **** 
 4798              		.loc 1 525 13 is_stmt 1 view .LVU1730
 4799              	.LBB422:
 4800              	.LBI422:
1173:Drivers/lvgl/src/core/lv_indev.c **** {
 4801              		.loc 1 1173 13 view .LVU1731
 4802              	.LBB423:
1175:Drivers/lvgl/src/core/lv_indev.c ****         indev_obj_act = NULL;
 4803              		.loc 1 1175 5 view .LVU1732
1175:Drivers/lvgl/src/core/lv_indev.c ****         indev_obj_act = NULL;
 4804              		.loc 1 1175 8 is_stmt 0 view .LVU1733
 4805 07b6 6179     		ldrb	r1, [r4, #5]	@ zero_extendqisi2
 4806              	.LBE423:
 4807              	.LBE422:
 528:Drivers/lvgl/src/core/lv_indev.c ****                 if(indev_reset_check(&i->proc)) return;
 4808              		.loc 1 528 17 view .LVU1734
 4809 07b8 3268     		ldr	r2, [r6]
 4810              	.LBB425:
 4811              	.LBB424:
1175:Drivers/lvgl/src/core/lv_indev.c ****         indev_obj_act = NULL;
 4812              		.loc 1 1175 7 view .LVU1735
 4813 07ba 8B07     		lsls	r3, r1, #30
1176:Drivers/lvgl/src/core/lv_indev.c ****     }
 4814              		.loc 1 1176 9 is_stmt 1 view .LVU1736
 4815              		.loc 1 1179 5 view .LVU1737
 4816              	.LVL338:
1176:Drivers/lvgl/src/core/lv_indev.c ****     }
 4817              		.loc 1 1176 23 is_stmt 0 view .LVU1738
 4818 07bc 44BF     		itt	mi
 4819 07be 019B     		ldrmi	r3, [sp, #4]
 4820 07c0 3B60     		strmi	r3, [r7]
 4821              	.LBE424:
 4822              	.LBE425:
 525:Drivers/lvgl/src/core/lv_indev.c **** 
 4823              		.loc 1 525 15 discriminator 1 view .LVU1739
 4824 07c2 8807     		lsls	r0, r1, #30
 4825 07c4 3FF559AF 		bmi	.L666
ARM GAS  /var/folders/lp/x54gwt890xv47sdkqj1k04q40000gn/T//ccfgQDQQ.s 			page 136


 527:Drivers/lvgl/src/core/lv_indev.c ****                 lv_event_send(indev_obj_act, LV_EVENT_SHORT_CLICKED, indev_act);
 4826              		.loc 1 527 13 is_stmt 1 view .LVU1740
 527:Drivers/lvgl/src/core/lv_indev.c ****                 lv_event_send(indev_obj_act, LV_EVENT_SHORT_CLICKED, indev_act);
 4827              		.loc 1 527 15 is_stmt 0 view .LVU1741
 4828 07c8 11F00109 		ands	r9, r1, #1
 4829              	.LVL339:
 528:Drivers/lvgl/src/core/lv_indev.c ****                 if(indev_reset_check(&i->proc)) return;
 4830              		.loc 1 528 17 view .LVU1742
 4831 07cc 3868     		ldr	r0, [r7]
 527:Drivers/lvgl/src/core/lv_indev.c ****                 lv_event_send(indev_obj_act, LV_EVENT_SHORT_CLICKED, indev_act);
 4832              		.loc 1 527 15 view .LVU1743
 4833 07ce 0BD1     		bne	.L390
 528:Drivers/lvgl/src/core/lv_indev.c ****                 if(indev_reset_check(&i->proc)) return;
 4834              		.loc 1 528 17 is_stmt 1 view .LVU1744
 4835 07d0 0421     		movs	r1, #4
 4836 07d2 FFF7FEFF 		bl	lv_event_send
 4837              	.LVL340:
 529:Drivers/lvgl/src/core/lv_indev.c ****             }
 4838              		.loc 1 529 17 view .LVU1745
 4839              	.LBB426:
 4840              	.LBI426:
1173:Drivers/lvgl/src/core/lv_indev.c **** {
 4841              		.loc 1 1173 13 view .LVU1746
 4842              	.LBB427:
1175:Drivers/lvgl/src/core/lv_indev.c ****         indev_obj_act = NULL;
 4843              		.loc 1 1175 5 view .LVU1747
1175:Drivers/lvgl/src/core/lv_indev.c ****         indev_obj_act = NULL;
 4844              		.loc 1 1175 8 is_stmt 0 view .LVU1748
 4845 07d6 6379     		ldrb	r3, [r4, #5]	@ zero_extendqisi2
1175:Drivers/lvgl/src/core/lv_indev.c ****         indev_obj_act = NULL;
 4846              		.loc 1 1175 7 view .LVU1749
 4847 07d8 9A07     		lsls	r2, r3, #30
1176:Drivers/lvgl/src/core/lv_indev.c ****     }
 4848              		.loc 1 1176 9 is_stmt 1 view .LVU1750
 4849              		.loc 1 1179 5 view .LVU1751
 4850              	.LVL341:
1176:Drivers/lvgl/src/core/lv_indev.c ****     }
 4851              		.loc 1 1176 23 is_stmt 0 view .LVU1752
 4852 07da 48BF     		it	mi
 4853 07dc C7F80090 		strmi	r9, [r7]
 4854              	.LBE427:
 4855              	.LBE426:
 529:Drivers/lvgl/src/core/lv_indev.c ****             }
 4856              		.loc 1 529 19 discriminator 1 view .LVU1753
 4857 07e0 9B07     		lsls	r3, r3, #30
 4858              	.LBE448:
 4859              	.LBE575:
 113:Drivers/lvgl/src/core/lv_indev.c ****     } while(continue_reading);
 4860              		.loc 1 113 9 view .LVU1754
 4861 07e2 3268     		ldr	r2, [r6]
 4862              	.LBB576:
 4863              	.LBB449:
 529:Drivers/lvgl/src/core/lv_indev.c ****             }
 4864              		.loc 1 529 19 discriminator 1 view .LVU1755
 4865 07e4 3FF549AF 		bmi	.L666
 4866              	.L390:
 532:Drivers/lvgl/src/core/lv_indev.c ****             if(indev_reset_check(&i->proc)) return;
ARM GAS  /var/folders/lp/x54gwt890xv47sdkqj1k04q40000gn/T//ccfgQDQQ.s 			page 137


 4867              		.loc 1 532 13 is_stmt 1 view .LVU1756
 4868 07e8 3268     		ldr	r2, [r6]
 4869 07ea 3868     		ldr	r0, [r7]
 4870 07ec 0721     		movs	r1, #7
 4871 07ee FFF7FEFF 		bl	lv_event_send
 4872              	.LVL342:
 533:Drivers/lvgl/src/core/lv_indev.c **** 
 4873              		.loc 1 533 13 view .LVU1757
 4874              	.LBB428:
 4875              	.LBI428:
1173:Drivers/lvgl/src/core/lv_indev.c **** {
 4876              		.loc 1 1173 13 view .LVU1758
 4877              	.LBB429:
1175:Drivers/lvgl/src/core/lv_indev.c ****         indev_obj_act = NULL;
 4878              		.loc 1 1175 5 view .LVU1759
1175:Drivers/lvgl/src/core/lv_indev.c ****         indev_obj_act = NULL;
 4879              		.loc 1 1175 8 is_stmt 0 view .LVU1760
 4880 07f2 6379     		ldrb	r3, [r4, #5]	@ zero_extendqisi2
1175:Drivers/lvgl/src/core/lv_indev.c ****         indev_obj_act = NULL;
 4881              		.loc 1 1175 7 view .LVU1761
 4882 07f4 9807     		lsls	r0, r3, #30
1176:Drivers/lvgl/src/core/lv_indev.c ****     }
 4883              		.loc 1 1176 9 is_stmt 1 view .LVU1762
 4884              		.loc 1 1179 5 view .LVU1763
 4885              	.LVL343:
1176:Drivers/lvgl/src/core/lv_indev.c ****     }
 4886              		.loc 1 1176 23 is_stmt 0 view .LVU1764
 4887 07f6 44BF     		itt	mi
 4888 07f8 0022     		movmi	r2, #0
 4889 07fa 3A60     		strmi	r2, [r7]
 4890              	.LBE429:
 4891              	.LBE428:
 533:Drivers/lvgl/src/core/lv_indev.c **** 
 4892              		.loc 1 533 15 discriminator 1 view .LVU1765
 4893 07fc 9907     		lsls	r1, r3, #30
 4894              	.LBE449:
 4895              	.LBE576:
 113:Drivers/lvgl/src/core/lv_indev.c ****     } while(continue_reading);
 4896              		.loc 1 113 9 view .LVU1766
 4897 07fe 3268     		ldr	r2, [r6]
 4898              	.LBB577:
 4899              	.LBB450:
 533:Drivers/lvgl/src/core/lv_indev.c **** 
 4900              		.loc 1 533 15 discriminator 1 view .LVU1767
 4901 0800 7FF5F6AC 		bpl	.L387
 4902 0804 39E7     		b	.L666
 4903              	.LVL344:
 4904              	.L706:
 533:Drivers/lvgl/src/core/lv_indev.c **** 
 4905              		.loc 1 533 15 discriminator 1 view .LVU1768
 4906              	.LBE450:
 4907              	.LBE577:
 4908              	.LBB578:
 4909              	.LBB553:
 620:Drivers/lvgl/src/core/lv_indev.c ****             i->proc.longpr_rep_timestamp = lv_tick_get();
 4910              		.loc 1 620 13 is_stmt 1 view .LVU1769
 620:Drivers/lvgl/src/core/lv_indev.c ****             i->proc.longpr_rep_timestamp = lv_tick_get();
ARM GAS  /var/folders/lp/x54gwt890xv47sdkqj1k04q40000gn/T//ccfgQDQQ.s 			page 138


 4911              		.loc 1 620 34 is_stmt 0 view .LVU1770
 4912 0806 43F00103 		orr	r3, r3, #1
 4913 080a 6371     		strb	r3, [r4, #5]
 621:Drivers/lvgl/src/core/lv_indev.c **** 
 4914              		.loc 1 621 13 is_stmt 1 view .LVU1771
 621:Drivers/lvgl/src/core/lv_indev.c **** 
 4915              		.loc 1 621 44 is_stmt 0 view .LVU1772
 4916 080c FFF7FEFF 		bl	lv_tick_get
 4917              	.LVL345:
 623:Drivers/lvgl/src/core/lv_indev.c ****                 bool editable_or_scrollable = lv_obj_is_editable(indev_obj_act) ||
 4918              		.loc 1 623 15 view .LVU1773
 4919 0810 039B     		ldr	r3, [sp, #12]
 621:Drivers/lvgl/src/core/lv_indev.c **** 
 4920              		.loc 1 621 42 discriminator 1 view .LVU1774
 4921 0812 E064     		str	r0, [r4, #76]
 623:Drivers/lvgl/src/core/lv_indev.c ****                 bool editable_or_scrollable = lv_obj_is_editable(indev_obj_act) ||
 4922              		.loc 1 623 13 is_stmt 1 view .LVU1775
 623:Drivers/lvgl/src/core/lv_indev.c ****                 bool editable_or_scrollable = lv_obj_is_editable(indev_obj_act) ||
 4923              		.loc 1 623 15 is_stmt 0 view .LVU1776
 4924 0814 0A2B     		cmp	r3, #10
 4925 0816 77D0     		beq	.L709
 4926              	.L432:
 643:Drivers/lvgl/src/core/lv_indev.c ****         }
 4927              		.loc 1 643 13 is_stmt 1 view .LVU1777
 643:Drivers/lvgl/src/core/lv_indev.c ****         }
 4928              		.loc 1 643 34 is_stmt 0 view .LVU1778
 4929 0818 6379     		ldrb	r3, [r4, #5]	@ zero_extendqisi2
 4930 081a 43F00103 		orr	r3, r3, #1
 4931 081e 6371     		strb	r3, [r4, #5]
 724:Drivers/lvgl/src/core/lv_indev.c ****         /*In edit mode send LEFT/RIGHT keys*/
 4932              		.loc 1 724 12 view .LVU1779
 4933 0820 BDF91430 		ldrsh	r3, [sp, #20]
 643:Drivers/lvgl/src/core/lv_indev.c ****         }
 4934              		.loc 1 643 34 view .LVU1780
 4935 0824 66E5     		b	.L412
 4936              	.LVL346:
 4937              	.L372:
 643:Drivers/lvgl/src/core/lv_indev.c ****         }
 4938              		.loc 1 643 34 view .LVU1781
 4939              	.LBE553:
 4940              	.LBE578:
 4941              	.LBB579:
 4942              	.LBB451:
 474:Drivers/lvgl/src/core/lv_indev.c ****             if(indev_reset_check(&i->proc)) return;
 4943              		.loc 1 474 13 is_stmt 1 view .LVU1782
 4944 0826 3268     		ldr	r2, [r6]
 4945 0828 3868     		ldr	r0, [r7]
 4946              	.LVL347:
 474:Drivers/lvgl/src/core/lv_indev.c ****             if(indev_reset_check(&i->proc)) return;
 4947              		.loc 1 474 13 is_stmt 0 view .LVU1783
 4948 082a 0221     		movs	r1, #2
 4949              	.LVL348:
 474:Drivers/lvgl/src/core/lv_indev.c ****             if(indev_reset_check(&i->proc)) return;
 4950              		.loc 1 474 13 view .LVU1784
 4951 082c FFF7FEFF 		bl	lv_event_send
 4952              	.LVL349:
 475:Drivers/lvgl/src/core/lv_indev.c ****         }
ARM GAS  /var/folders/lp/x54gwt890xv47sdkqj1k04q40000gn/T//ccfgQDQQ.s 			page 139


 4953              		.loc 1 475 13 is_stmt 1 view .LVU1785
 4954              	.LBB430:
 4955              	.LBI430:
1173:Drivers/lvgl/src/core/lv_indev.c **** {
 4956              		.loc 1 1173 13 view .LVU1786
 4957              	.LBB431:
1175:Drivers/lvgl/src/core/lv_indev.c ****         indev_obj_act = NULL;
 4958              		.loc 1 1175 5 view .LVU1787
1175:Drivers/lvgl/src/core/lv_indev.c ****         indev_obj_act = NULL;
 4959              		.loc 1 1175 8 is_stmt 0 view .LVU1788
 4960 0830 6379     		ldrb	r3, [r4, #5]	@ zero_extendqisi2
1175:Drivers/lvgl/src/core/lv_indev.c ****         indev_obj_act = NULL;
 4961              		.loc 1 1175 7 view .LVU1789
 4962 0832 13F0020F 		tst	r3, #2
 4963 0836 3FF4DCAD 		beq	.L373
1176:Drivers/lvgl/src/core/lv_indev.c ****     }
 4964              		.loc 1 1176 9 is_stmt 1 view .LVU1790
1176:Drivers/lvgl/src/core/lv_indev.c ****     }
 4965              		.loc 1 1176 23 is_stmt 0 view .LVU1791
 4966 083a C7F800A0 		str	r10, [r7]
 4967              		.loc 1 1179 5 is_stmt 1 view .LVU1792
 4968              	.LVL350:
 4969              		.loc 1 1179 5 is_stmt 0 view .LVU1793
 4970              	.LBE431:
 4971              	.LBE430:
 475:Drivers/lvgl/src/core/lv_indev.c ****         }
 4972              		.loc 1 475 15 discriminator 1 view .LVU1794
 4973 083e 7FF448AC 		bne	.L394
 4974 0842 D6E5     		b	.L373
 4975              	.LVL351:
 4976              	.L707:
 475:Drivers/lvgl/src/core/lv_indev.c ****         }
 4977              		.loc 1 475 15 discriminator 1 view .LVU1795
 4978              	.LBE451:
 4979              	.LBE579:
 4980              	.LBB580:
 4981              	.LBB554:
 4982              	.LBB534:
 676:Drivers/lvgl/src/core/lv_indev.c **** 
 4983              		.loc 1 676 43 view .LVU1796
 4984 0844 3868     		ldr	r0, [r7]
 4985 0846 1021     		movs	r1, #16
 4986 0848 FFF7FEFF 		bl	lv_obj_has_flag
 4987              	.LVL352:
 675:Drivers/lvgl/src/core/lv_indev.c ****                                           lv_obj_has_flag(indev_obj_act, LV_OBJ_FLAG_SCROLLABLE);
 4988              		.loc 1 675 77 discriminator 2 view .LVU1797
 4989 084c 8246     		mov	r10, r0
 4990 084e 0028     		cmp	r0, #0
 4991 0850 7FF428AF 		bne	.L444
 4992              	.LVL353:
 679:Drivers/lvgl/src/core/lv_indev.c ****                 lv_event_send(indev_obj_act, LV_EVENT_RELEASED, indev_act);
 4993              		.loc 1 679 13 is_stmt 1 view .LVU1798
 680:Drivers/lvgl/src/core/lv_indev.c ****                 if(indev_reset_check(&i->proc)) return;
 4994              		.loc 1 680 17 view .LVU1799
 4995 0854 3268     		ldr	r2, [r6]
 4996 0856 3868     		ldr	r0, [r7]
 4997 0858 0821     		movs	r1, #8
ARM GAS  /var/folders/lp/x54gwt890xv47sdkqj1k04q40000gn/T//ccfgQDQQ.s 			page 140


 4998 085a FFF7FEFF 		bl	lv_event_send
 4999              	.LVL354:
 681:Drivers/lvgl/src/core/lv_indev.c **** 
 5000              		.loc 1 681 17 view .LVU1800
 5001              	.LBB528:
 5002              	.LBI510:
1173:Drivers/lvgl/src/core/lv_indev.c **** {
 5003              		.loc 1 1173 13 view .LVU1801
 5004              	.LBB513:
1175:Drivers/lvgl/src/core/lv_indev.c ****         indev_obj_act = NULL;
 5005              		.loc 1 1175 5 view .LVU1802
1175:Drivers/lvgl/src/core/lv_indev.c ****         indev_obj_act = NULL;
 5006              		.loc 1 1175 8 is_stmt 0 view .LVU1803
 5007 085e 6379     		ldrb	r3, [r4, #5]	@ zero_extendqisi2
1175:Drivers/lvgl/src/core/lv_indev.c ****         indev_obj_act = NULL;
 5008              		.loc 1 1175 7 view .LVU1804
 5009 0860 9A07     		lsls	r2, r3, #30
 5010 0862 3FF5FAAE 		bmi	.L445
 5011              		.loc 1 1179 5 is_stmt 1 view .LVU1805
 5012              	.LVL355:
 5013              		.loc 1 1179 5 is_stmt 0 view .LVU1806
 5014              	.LBE513:
 5015              	.LBE528:
 683:Drivers/lvgl/src/core/lv_indev.c ****                 if(indev_reset_check(&i->proc)) return;
 5016              		.loc 1 683 19 view .LVU1807
 5017 0866 DB07     		lsls	r3, r3, #31
 683:Drivers/lvgl/src/core/lv_indev.c ****                 if(indev_reset_check(&i->proc)) return;
 5018              		.loc 1 683 47 discriminator 1 view .LVU1808
 5019 0868 3268     		ldr	r2, [r6]
 683:Drivers/lvgl/src/core/lv_indev.c ****                 if(indev_reset_check(&i->proc)) return;
 5020              		.loc 1 683 17 is_stmt 1 view .LVU1809
 683:Drivers/lvgl/src/core/lv_indev.c ****                 if(indev_reset_check(&i->proc)) return;
 5021              		.loc 1 683 19 is_stmt 0 view .LVU1810
 5022 086a 38D5     		bpl	.L446
 5023              	.L447:
 686:Drivers/lvgl/src/core/lv_indev.c ****                 if(indev_reset_check(&i->proc)) return;
 5024              		.loc 1 686 17 is_stmt 1 view .LVU1811
 5025 086c 3268     		ldr	r2, [r6]
 5026 086e 3868     		ldr	r0, [r7]
 5027 0870 0721     		movs	r1, #7
 5028 0872 FFF7FEFF 		bl	lv_event_send
 5029              	.LVL356:
 687:Drivers/lvgl/src/core/lv_indev.c **** 
 5030              		.loc 1 687 17 view .LVU1812
 5031              	.LBB529:
 5032              	.LBI529:
1173:Drivers/lvgl/src/core/lv_indev.c **** {
 5033              		.loc 1 1173 13 view .LVU1813
 5034              	.LBB530:
1175:Drivers/lvgl/src/core/lv_indev.c ****         indev_obj_act = NULL;
 5035              		.loc 1 1175 5 view .LVU1814
1175:Drivers/lvgl/src/core/lv_indev.c ****         indev_obj_act = NULL;
 5036              		.loc 1 1175 8 is_stmt 0 view .LVU1815
 5037 0876 6379     		ldrb	r3, [r4, #5]	@ zero_extendqisi2
1175:Drivers/lvgl/src/core/lv_indev.c ****         indev_obj_act = NULL;
 5038              		.loc 1 1175 7 view .LVU1816
 5039 0878 13F0020F 		tst	r3, #2
ARM GAS  /var/folders/lp/x54gwt890xv47sdkqj1k04q40000gn/T//ccfgQDQQ.s 			page 141


 5040 087c 3FF432AD 		beq	.L443
1176:Drivers/lvgl/src/core/lv_indev.c ****     }
 5041              		.loc 1 1176 9 is_stmt 1 view .LVU1817
1176:Drivers/lvgl/src/core/lv_indev.c ****     }
 5042              		.loc 1 1176 23 is_stmt 0 view .LVU1818
 5043 0880 4FF00002 		mov	r2, #0
 5044 0884 3A60     		str	r2, [r7]
 5045              		.loc 1 1179 5 is_stmt 1 view .LVU1819
 5046              	.LVL357:
 5047              		.loc 1 1179 5 is_stmt 0 view .LVU1820
 5048              	.LBE530:
 5049              	.LBE529:
 687:Drivers/lvgl/src/core/lv_indev.c **** 
 5050              		.loc 1 687 19 discriminator 1 view .LVU1821
 5051 0886 7FF424AC 		bne	.L394
 5052 088a 2BE5     		b	.L443
 5053              	.LVL358:
 5054              	.L409:
 687:Drivers/lvgl/src/core/lv_indev.c **** 
 5055              		.loc 1 687 19 discriminator 1 view .LVU1822
 5056              	.LBE534:
 5057              	.LBB535:
 587:Drivers/lvgl/src/core/lv_indev.c ****             if(lv_group_get_editing(g) == true || editable_or_scrollable == false) {
 5058              		.loc 1 587 43 view .LVU1823
 5059 088c 3868     		ldr	r0, [r7]
 5060 088e 1021     		movs	r1, #16
 5061 0890 FFF7FEFF 		bl	lv_obj_has_flag
 5062              	.LVL359:
 586:Drivers/lvgl/src/core/lv_indev.c ****                                           lv_obj_has_flag(indev_obj_act, LV_OBJ_FLAG_SCROLLABLE);
 5063              		.loc 1 586 77 discriminator 2 view .LVU1824
 5064 0894 0028     		cmp	r0, #0
 5065 0896 7FF48AAE 		bne	.L678
 5066              	.LVL360:
 588:Drivers/lvgl/src/core/lv_indev.c ****                 lv_event_send(indev_obj_act, LV_EVENT_PRESSED, indev_act);
 5067              		.loc 1 588 13 is_stmt 1 view .LVU1825
 588:Drivers/lvgl/src/core/lv_indev.c ****                 lv_event_send(indev_obj_act, LV_EVENT_PRESSED, indev_act);
 5068              		.loc 1 588 16 is_stmt 0 view .LVU1826
 5069 089a 4846     		mov	r0, r9
 5070 089c FFF7FEFF 		bl	lv_group_get_editing
 5071              	.LVL361:
 5072 08a0 8BE6     		b	.L411
 5073              	.LVL362:
 5074              	.L453:
 588:Drivers/lvgl/src/core/lv_indev.c ****                 lv_event_send(indev_obj_act, LV_EVENT_PRESSED, indev_act);
 5075              		.loc 1 588 16 view .LVU1827
 5076              	.LBE535:
 5077              	.LBB536:
 712:Drivers/lvgl/src/core/lv_indev.c ****                 LV_LOG_INFO("entering edit mode");
 5078              		.loc 1 712 18 is_stmt 1 view .LVU1828
 712:Drivers/lvgl/src/core/lv_indev.c ****                 LV_LOG_INFO("entering edit mode");
 5079              		.loc 1 712 20 is_stmt 0 view .LVU1829
 5080 08a2 D807     		lsls	r0, r3, #31
 5081 08a4 3FF51EAD 		bmi	.L443
 713:Drivers/lvgl/src/core/lv_indev.c ****                 lv_group_set_editing(g, true); /*Set edit mode*/
 5082              		.loc 1 713 17 is_stmt 1 view .LVU1830
 713:Drivers/lvgl/src/core/lv_indev.c ****                 lv_group_set_editing(g, true); /*Set edit mode*/
 5083              		.loc 1 713 17 view .LVU1831
ARM GAS  /var/folders/lp/x54gwt890xv47sdkqj1k04q40000gn/T//ccfgQDQQ.s 			page 142


 713:Drivers/lvgl/src/core/lv_indev.c ****                 lv_group_set_editing(g, true); /*Set edit mode*/
 5084              		.loc 1 713 17 view .LVU1832
 714:Drivers/lvgl/src/core/lv_indev.c ****             }
 5085              		.loc 1 714 17 view .LVU1833
 5086 08a8 0121     		movs	r1, #1
 5087 08aa 4846     		mov	r0, r9
 5088 08ac FFF7FEFF 		bl	lv_group_set_editing
 5089              	.LVL363:
 5090 08b0 18E5     		b	.L443
 5091              	.LVL364:
 5092              	.L704:
 714:Drivers/lvgl/src/core/lv_indev.c ****             }
 5093              		.loc 1 714 17 is_stmt 0 view .LVU1834
 5094              	.LBE536:
 5095              	.LBE554:
 5096              	.LBE580:
 5097              	.LBB581:
 5098              	.LBB452:
 449:Drivers/lvgl/src/core/lv_indev.c ****                 if(indev_reset_check(&i->proc)) return;
 5099              		.loc 1 449 17 is_stmt 1 view .LVU1835
 5100 08b2 FFF7FEFF 		bl	lv_group_send_data
 5101              	.LVL365:
 450:Drivers/lvgl/src/core/lv_indev.c **** 
 5102              		.loc 1 450 17 view .LVU1836
 5103              	.LBB432:
 5104              	.LBI432:
1173:Drivers/lvgl/src/core/lv_indev.c **** {
 5105              		.loc 1 1173 13 view .LVU1837
 5106              	.LBB433:
1175:Drivers/lvgl/src/core/lv_indev.c ****         indev_obj_act = NULL;
 5107              		.loc 1 1175 5 view .LVU1838
1175:Drivers/lvgl/src/core/lv_indev.c ****         indev_obj_act = NULL;
 5108              		.loc 1 1175 8 is_stmt 0 view .LVU1839
 5109 08b6 6379     		ldrb	r3, [r4, #5]	@ zero_extendqisi2
1175:Drivers/lvgl/src/core/lv_indev.c ****         indev_obj_act = NULL;
 5110              		.loc 1 1175 7 view .LVU1840
 5111 08b8 9A07     		lsls	r2, r3, #30
1176:Drivers/lvgl/src/core/lv_indev.c ****     }
 5112              		.loc 1 1176 9 is_stmt 1 view .LVU1841
 5113              		.loc 1 1179 5 view .LVU1842
 5114              	.LVL366:
1176:Drivers/lvgl/src/core/lv_indev.c ****     }
 5115              		.loc 1 1176 23 is_stmt 0 view .LVU1843
 5116 08ba 48BF     		it	mi
 5117 08bc C7F800A0 		strmi	r10, [r7]
 5118              	.LBE433:
 5119              	.LBE432:
 450:Drivers/lvgl/src/core/lv_indev.c **** 
 5120              		.loc 1 450 19 discriminator 1 view .LVU1844
 5121 08c0 9807     		lsls	r0, r3, #30
 452:Drivers/lvgl/src/core/lv_indev.c ****                 if(indev_reset_check(&i->proc)) return;
 5122              		.loc 1 452 26 discriminator 1 view .LVU1845
 5123 08c2 3268     		ldr	r2, [r6]
 450:Drivers/lvgl/src/core/lv_indev.c **** 
 5124              		.loc 1 450 19 discriminator 1 view .LVU1846
 5125 08c4 C3F34009 		ubfx	r9, r3, #1, #1
 5126              	.LVL367:
ARM GAS  /var/folders/lp/x54gwt890xv47sdkqj1k04q40000gn/T//ccfgQDQQ.s 			page 143


 450:Drivers/lvgl/src/core/lv_indev.c **** 
 5127              		.loc 1 450 19 discriminator 1 view .LVU1847
 5128 08c8 3FF5D7AE 		bmi	.L666
 452:Drivers/lvgl/src/core/lv_indev.c ****                 if(indev_reset_check(&i->proc)) return;
 5129              		.loc 1 452 17 is_stmt 1 view .LVU1848
 452:Drivers/lvgl/src/core/lv_indev.c ****                 if(indev_reset_check(&i->proc)) return;
 5130              		.loc 1 452 26 discriminator 1 view .LVU1849
 5131 08cc 0121     		movs	r1, #1
 5132 08ce 3868     		ldr	r0, [r7]
 5133 08d0 FFF7FEFF 		bl	lv_event_send
 5134              	.LVL368:
 453:Drivers/lvgl/src/core/lv_indev.c ****             }
 5135              		.loc 1 453 17 view .LVU1850
 5136              	.LBB434:
 5137              	.LBI434:
1173:Drivers/lvgl/src/core/lv_indev.c **** {
 5138              		.loc 1 1173 13 view .LVU1851
 5139              	.LBB435:
1175:Drivers/lvgl/src/core/lv_indev.c ****         indev_obj_act = NULL;
 5140              		.loc 1 1175 5 view .LVU1852
1175:Drivers/lvgl/src/core/lv_indev.c ****         indev_obj_act = NULL;
 5141              		.loc 1 1175 8 is_stmt 0 view .LVU1853
 5142 08d4 6279     		ldrb	r2, [r4, #5]	@ zero_extendqisi2
1175:Drivers/lvgl/src/core/lv_indev.c ****         indev_obj_act = NULL;
 5143              		.loc 1 1175 7 view .LVU1854
 5144 08d6 9107     		lsls	r1, r2, #30
 5145 08d8 7FF5ACAD 		bpl	.L386
 5146 08dc FDE5     		b	.L675
 5147              	.LVL369:
 5148              	.L446:
1175:Drivers/lvgl/src/core/lv_indev.c ****         indev_obj_act = NULL;
 5149              		.loc 1 1175 7 view .LVU1855
 5150              	.LBE435:
 5151              	.LBE434:
 5152              	.LBE452:
 5153              	.LBE581:
 5154              	.LBB582:
 5155              	.LBB555:
 5156              	.LBB537:
 683:Drivers/lvgl/src/core/lv_indev.c ****                 if(indev_reset_check(&i->proc)) return;
 5157              		.loc 1 683 47 is_stmt 1 discriminator 1 view .LVU1856
 5158 08de 0421     		movs	r1, #4
 5159 08e0 3868     		ldr	r0, [r7]
 5160 08e2 FFF7FEFF 		bl	lv_event_send
 5161              	.LVL370:
 684:Drivers/lvgl/src/core/lv_indev.c **** 
 5162              		.loc 1 684 17 view .LVU1857
 5163              	.LBB531:
 5164              	.LBI515:
1173:Drivers/lvgl/src/core/lv_indev.c **** {
 5165              		.loc 1 1173 13 view .LVU1858
 5166              	.LBB517:
1175:Drivers/lvgl/src/core/lv_indev.c ****         indev_obj_act = NULL;
 5167              		.loc 1 1175 5 view .LVU1859
1175:Drivers/lvgl/src/core/lv_indev.c ****         indev_obj_act = NULL;
 5168              		.loc 1 1175 8 is_stmt 0 view .LVU1860
 5169 08e6 6379     		ldrb	r3, [r4, #5]	@ zero_extendqisi2
ARM GAS  /var/folders/lp/x54gwt890xv47sdkqj1k04q40000gn/T//ccfgQDQQ.s 			page 144


 5170 08e8 5908     		lsrs	r1, r3, #1
1175:Drivers/lvgl/src/core/lv_indev.c ****         indev_obj_act = NULL;
 5171              		.loc 1 1175 7 view .LVU1861
 5172 08ea 9B07     		lsls	r3, r3, #30
 5173 08ec 3FF5BFAE 		bmi	.L449
 5174 08f0 BFE6     		b	.L450
 5175              	.LVL371:
 5176              	.L701:
1175:Drivers/lvgl/src/core/lv_indev.c ****         indev_obj_act = NULL;
 5177              		.loc 1 1175 7 view .LVU1862
 5178              	.LBE517:
 5179              	.LBE531:
 5180              	.LBE537:
 651:Drivers/lvgl/src/core/lv_indev.c ****                 if(indev_reset_check(&i->proc)) return;
 5181              		.loc 1 651 17 is_stmt 1 view .LVU1863
 5182 08f2 3268     		ldr	r2, [r6]
 5183 08f4 3868     		ldr	r0, [r7]
 5184 08f6 0621     		movs	r1, #6
 5185 08f8 FFF7FEFF 		bl	lv_event_send
 5186              	.LVL372:
 652:Drivers/lvgl/src/core/lv_indev.c ****             }
 5187              		.loc 1 652 17 view .LVU1864
 5188              	.LBB538:
 5189              	.LBI538:
1173:Drivers/lvgl/src/core/lv_indev.c **** {
 5190              		.loc 1 1173 13 view .LVU1865
 5191              	.LBB539:
1175:Drivers/lvgl/src/core/lv_indev.c ****         indev_obj_act = NULL;
 5192              		.loc 1 1175 5 view .LVU1866
1175:Drivers/lvgl/src/core/lv_indev.c ****         indev_obj_act = NULL;
 5193              		.loc 1 1175 8 is_stmt 0 view .LVU1867
 5194 08fc 6379     		ldrb	r3, [r4, #5]	@ zero_extendqisi2
1175:Drivers/lvgl/src/core/lv_indev.c ****         indev_obj_act = NULL;
 5195              		.loc 1 1175 7 view .LVU1868
 5196 08fe 13F0020F 		tst	r3, #2
 5197 0902 3FF4F5AC 		beq	.L660
 5198 0906 23E6     		b	.L680
 5199              	.LVL373:
 5200              	.L709:
1175:Drivers/lvgl/src/core/lv_indev.c ****         indev_obj_act = NULL;
 5201              		.loc 1 1175 7 view .LVU1869
 5202              	.LBE539:
 5203              	.LBE538:
 5204              	.LBB540:
 624:Drivers/lvgl/src/core/lv_indev.c ****                                               lv_obj_has_flag(indev_obj_act, LV_OBJ_FLAG_SCROLLABLE
 5205              		.loc 1 624 17 is_stmt 1 view .LVU1870
 624:Drivers/lvgl/src/core/lv_indev.c ****                                               lv_obj_has_flag(indev_obj_act, LV_OBJ_FLAG_SCROLLABLE
 5206              		.loc 1 624 47 is_stmt 0 view .LVU1871
 5207 0908 3868     		ldr	r0, [r7]
 5208 090a FFF7FEFF 		bl	lv_obj_is_editable
 5209              	.LVL374:
 624:Drivers/lvgl/src/core/lv_indev.c ****                                               lv_obj_has_flag(indev_obj_act, LV_OBJ_FLAG_SCROLLABLE
 5210              		.loc 1 624 81 discriminator 1 view .LVU1872
 5211 090e 28B9     		cbnz	r0, .L429
 625:Drivers/lvgl/src/core/lv_indev.c **** 
 5212              		.loc 1 625 47 view .LVU1873
 5213 0910 3868     		ldr	r0, [r7]
ARM GAS  /var/folders/lp/x54gwt890xv47sdkqj1k04q40000gn/T//ccfgQDQQ.s 			page 145


 5214 0912 1021     		movs	r1, #16
 5215 0914 FFF7FEFF 		bl	lv_obj_has_flag
 5216              	.LVL375:
 624:Drivers/lvgl/src/core/lv_indev.c ****                                               lv_obj_has_flag(indev_obj_act, LV_OBJ_FLAG_SCROLLABLE
 5217              		.loc 1 624 81 discriminator 2 view .LVU1874
 5218 0918 0028     		cmp	r0, #0
 5219 091a 3AD0     		beq	.L710
 5220              	.L429:
 5221              	.LVL376:
 628:Drivers/lvgl/src/core/lv_indev.c ****                     /*Don't leave edit mode if there is only one object (nowhere to navigate)*/
 5222              		.loc 1 628 17 is_stmt 1 view .LVU1875
 630:Drivers/lvgl/src/core/lv_indev.c ****                         LV_LOG_INFO("toggling edit mode");
 5223              		.loc 1 630 21 view .LVU1876
 630:Drivers/lvgl/src/core/lv_indev.c ****                         LV_LOG_INFO("toggling edit mode");
 5224              		.loc 1 630 24 is_stmt 0 view .LVU1877
 5225 091c 4846     		mov	r0, r9
 5226 091e FFF7FEFF 		bl	lv_group_get_obj_count
 5227              	.LVL377:
 630:Drivers/lvgl/src/core/lv_indev.c ****                         LV_LOG_INFO("toggling edit mode");
 5228              		.loc 1 630 23 discriminator 1 view .LVU1878
 5229 0922 0128     		cmp	r0, #1
 5230 0924 7FF678AF 		bls	.L432
 631:Drivers/lvgl/src/core/lv_indev.c ****                         lv_group_set_editing(g, lv_group_get_editing(g) ? false : true); /*Toggle e
 5231              		.loc 1 631 25 is_stmt 1 view .LVU1879
 631:Drivers/lvgl/src/core/lv_indev.c ****                         lv_group_set_editing(g, lv_group_get_editing(g) ? false : true); /*Toggle e
 5232              		.loc 1 631 25 view .LVU1880
 631:Drivers/lvgl/src/core/lv_indev.c ****                         lv_group_set_editing(g, lv_group_get_editing(g) ? false : true); /*Toggle e
 5233              		.loc 1 631 25 view .LVU1881
 632:Drivers/lvgl/src/core/lv_indev.c ****                         lv_obj_clear_state(indev_obj_act, LV_STATE_PRESSED);    /*Remove the presse
 5234              		.loc 1 632 25 view .LVU1882
 632:Drivers/lvgl/src/core/lv_indev.c ****                         lv_obj_clear_state(indev_obj_act, LV_STATE_PRESSED);    /*Remove the presse
 5235              		.loc 1 632 49 is_stmt 0 view .LVU1883
 5236 0928 4846     		mov	r0, r9
 5237 092a FFF7FEFF 		bl	lv_group_get_editing
 5238              	.LVL378:
 632:Drivers/lvgl/src/core/lv_indev.c ****                         lv_obj_clear_state(indev_obj_act, LV_STATE_PRESSED);    /*Remove the presse
 5239              		.loc 1 632 25 discriminator 1 view .LVU1884
 5240 092e 80F00101 		eor	r1, r0, #1
 5241 0932 C9B2     		uxtb	r1, r1
 5242 0934 4846     		mov	r0, r9
 5243 0936 FFF7FEFF 		bl	lv_group_set_editing
 5244              	.LVL379:
 633:Drivers/lvgl/src/core/lv_indev.c ****                     }
 5245              		.loc 1 633 25 is_stmt 1 view .LVU1885
 5246 093a 3868     		ldr	r0, [r7]
 5247 093c 2021     		movs	r1, #32
 5248 093e FFF7FEFF 		bl	lv_obj_clear_state
 5249              	.LVL380:
 5250 0942 69E7     		b	.L432
 5251              	.LVL381:
 5252              	.L696:
 633:Drivers/lvgl/src/core/lv_indev.c ****                     }
 5253              		.loc 1 633 25 is_stmt 0 view .LVU1886
 5254              	.LBE540:
 5255              	.LBE555:
 5256              	.LBE582:
 5257              	.LBB583:
ARM GAS  /var/folders/lp/x54gwt890xv47sdkqj1k04q40000gn/T//ccfgQDQQ.s 			page 146


 5258              	.LBB453:
 495:Drivers/lvgl/src/core/lv_indev.c ****                 if(indev_reset_check(&i->proc)) return;
 5259              		.loc 1 495 17 is_stmt 1 view .LVU1887
 5260 0944 3268     		ldr	r2, [r6]
 5261 0946 3868     		ldr	r0, [r7]
 5262 0948 0621     		movs	r1, #6
 5263 094a FFF7FEFF 		bl	lv_event_send
 5264              	.LVL382:
 496:Drivers/lvgl/src/core/lv_indev.c ****             }
 5265              		.loc 1 496 17 view .LVU1888
 5266              	.LBB436:
 5267              	.LBI436:
1173:Drivers/lvgl/src/core/lv_indev.c **** {
 5268              		.loc 1 1173 13 view .LVU1889
 5269              	.LBB437:
1175:Drivers/lvgl/src/core/lv_indev.c ****         indev_obj_act = NULL;
 5270              		.loc 1 1175 5 view .LVU1890
1175:Drivers/lvgl/src/core/lv_indev.c ****         indev_obj_act = NULL;
 5271              		.loc 1 1175 8 is_stmt 0 view .LVU1891
 5272 094e 6279     		ldrb	r2, [r4, #5]	@ zero_extendqisi2
1175:Drivers/lvgl/src/core/lv_indev.c ****         indev_obj_act = NULL;
 5273              		.loc 1 1175 7 view .LVU1892
 5274 0950 9307     		lsls	r3, r2, #30
 5275 0952 7FF56FAD 		bpl	.L386
 5276 0956 6BE5     		b	.L676
 5277              	.LVL383:
 5278              	.L708:
1175:Drivers/lvgl/src/core/lv_indev.c ****         indev_obj_act = NULL;
 5279              		.loc 1 1175 7 view .LVU1893
 5280              	.LBE437:
 5281              	.LBE436:
 5282              	.LBE453:
 5283              	.LBE583:
 5284              	.LBB584:
 5285              	.LBB556:
 5286              	.LBB545:
 707:Drivers/lvgl/src/core/lv_indev.c ****                 }
 5287              		.loc 1 707 21 is_stmt 1 view .LVU1894
 5288 0958 3868     		ldr	r0, [r7]
 5289 095a 2021     		movs	r1, #32
 5290 095c FFF7FEFF 		bl	lv_obj_clear_state
 5291              	.LVL384:
 5292 0960 C0E4     		b	.L443
 5293              	.LVL385:
 5294              	.L698:
 707:Drivers/lvgl/src/core/lv_indev.c ****                 }
 5295              		.loc 1 707 21 is_stmt 0 view .LVU1895
 5296              	.LBE545:
 5297              	.LBE556:
 5298              	.LBE584:
 5299              	.LBB585:
 5300              	.LBB454:
 506:Drivers/lvgl/src/core/lv_indev.c ****                 lv_group_focus_prev(g);
 5301              		.loc 1 506 17 is_stmt 1 view .LVU1896
 5302 0962 0021     		movs	r1, #0
 5303 0964 4846     		mov	r0, r9
 5304 0966 FFF7FEFF 		bl	lv_group_set_editing
ARM GAS  /var/folders/lp/x54gwt890xv47sdkqj1k04q40000gn/T//ccfgQDQQ.s 			page 147


 5305              	.LVL386:
 507:Drivers/lvgl/src/core/lv_indev.c ****                 if(indev_reset_check(&i->proc)) return;
 5306              		.loc 1 507 17 view .LVU1897
 5307 096a 4846     		mov	r0, r9
 5308 096c FFF7FEFF 		bl	lv_group_focus_prev
 5309              	.LVL387:
 508:Drivers/lvgl/src/core/lv_indev.c ****             }
 5310              		.loc 1 508 17 view .LVU1898
 5311              	.LBB438:
 5312              	.LBI438:
1173:Drivers/lvgl/src/core/lv_indev.c **** {
 5313              		.loc 1 1173 13 view .LVU1899
 5314              	.LBB439:
1175:Drivers/lvgl/src/core/lv_indev.c ****         indev_obj_act = NULL;
 5315              		.loc 1 1175 5 view .LVU1900
1175:Drivers/lvgl/src/core/lv_indev.c ****         indev_obj_act = NULL;
 5316              		.loc 1 1175 8 is_stmt 0 view .LVU1901
 5317 0970 6279     		ldrb	r2, [r4, #5]	@ zero_extendqisi2
1175:Drivers/lvgl/src/core/lv_indev.c ****         indev_obj_act = NULL;
 5318              		.loc 1 1175 7 view .LVU1902
 5319 0972 9007     		lsls	r0, r2, #30
 5320 0974 7FF55EAD 		bpl	.L386
 5321 0978 5AE5     		b	.L676
 5322              	.LVL388:
 5323              	.L697:
1175:Drivers/lvgl/src/core/lv_indev.c ****         indev_obj_act = NULL;
 5324              		.loc 1 1175 7 view .LVU1903
 5325              	.LBE439:
 5326              	.LBE438:
 500:Drivers/lvgl/src/core/lv_indev.c ****                 lv_group_focus_next(g);
 5327              		.loc 1 500 17 is_stmt 1 view .LVU1904
 5328 097a 0021     		movs	r1, #0
 5329 097c 4846     		mov	r0, r9
 5330 097e FFF7FEFF 		bl	lv_group_set_editing
 5331              	.LVL389:
 501:Drivers/lvgl/src/core/lv_indev.c ****                 if(indev_reset_check(&i->proc)) return;
 5332              		.loc 1 501 17 view .LVU1905
 5333 0982 4846     		mov	r0, r9
 5334 0984 FFF7FEFF 		bl	lv_group_focus_next
 5335              	.LVL390:
 502:Drivers/lvgl/src/core/lv_indev.c ****             }
 5336              		.loc 1 502 17 view .LVU1906
 5337              	.LBB440:
 5338              	.LBI440:
1173:Drivers/lvgl/src/core/lv_indev.c **** {
 5339              		.loc 1 1173 13 view .LVU1907
 5340              	.LBB441:
1175:Drivers/lvgl/src/core/lv_indev.c ****         indev_obj_act = NULL;
 5341              		.loc 1 1175 5 view .LVU1908
1175:Drivers/lvgl/src/core/lv_indev.c ****         indev_obj_act = NULL;
 5342              		.loc 1 1175 8 is_stmt 0 view .LVU1909
 5343 0988 6279     		ldrb	r2, [r4, #5]	@ zero_extendqisi2
1175:Drivers/lvgl/src/core/lv_indev.c ****         indev_obj_act = NULL;
 5344              		.loc 1 1175 7 view .LVU1910
 5345 098a 9407     		lsls	r4, r2, #30
 5346              	.LVL391:
1175:Drivers/lvgl/src/core/lv_indev.c ****         indev_obj_act = NULL;
ARM GAS  /var/folders/lp/x54gwt890xv47sdkqj1k04q40000gn/T//ccfgQDQQ.s 			page 148


 5347              		.loc 1 1175 7 view .LVU1911
 5348 098c 7FF552AD 		bpl	.L386
 5349 0990 4EE5     		b	.L676
 5350              	.LVL392:
 5351              	.L710:
1175:Drivers/lvgl/src/core/lv_indev.c ****         indev_obj_act = NULL;
 5352              		.loc 1 1175 7 view .LVU1912
 5353              	.LBE441:
 5354              	.LBE440:
 5355              	.LBE454:
 5356              	.LBE585:
 5357              	.LBB586:
 5358              	.LBB557:
 5359              	.LBB546:
 628:Drivers/lvgl/src/core/lv_indev.c ****                     /*Don't leave edit mode if there is only one object (nowhere to navigate)*/
 5360              		.loc 1 628 17 is_stmt 1 view .LVU1913
 638:Drivers/lvgl/src/core/lv_indev.c ****                     if(indev_reset_check(&i->proc)) return;
 5361              		.loc 1 638 21 view .LVU1914
 5362 0992 3268     		ldr	r2, [r6]
 5363 0994 3868     		ldr	r0, [r7]
 5364 0996 0521     		movs	r1, #5
 5365 0998 FFF7FEFF 		bl	lv_event_send
 5366              	.LVL393:
 639:Drivers/lvgl/src/core/lv_indev.c ****                 }
 5367              		.loc 1 639 21 view .LVU1915
 5368              	.LBB541:
 5369              	.LBI541:
1173:Drivers/lvgl/src/core/lv_indev.c **** {
 5370              		.loc 1 1173 13 view .LVU1916
 5371              	.LBB542:
1175:Drivers/lvgl/src/core/lv_indev.c ****         indev_obj_act = NULL;
 5372              		.loc 1 1175 5 view .LVU1917
1175:Drivers/lvgl/src/core/lv_indev.c ****         indev_obj_act = NULL;
 5373              		.loc 1 1175 8 is_stmt 0 view .LVU1918
 5374 099c 6379     		ldrb	r3, [r4, #5]	@ zero_extendqisi2
1175:Drivers/lvgl/src/core/lv_indev.c ****         indev_obj_act = NULL;
 5375              		.loc 1 1175 7 view .LVU1919
 5376 099e 9A07     		lsls	r2, r3, #30
 5377 09a0 7FF53AAF 		bpl	.L432
1176:Drivers/lvgl/src/core/lv_indev.c ****     }
 5378              		.loc 1 1176 9 is_stmt 1 view .LVU1920
1176:Drivers/lvgl/src/core/lv_indev.c ****     }
 5379              		.loc 1 1176 23 is_stmt 0 view .LVU1921
 5380 09a4 0022     		movs	r2, #0
 5381              	.LBE542:
 5382              	.LBE541:
 639:Drivers/lvgl/src/core/lv_indev.c ****                 }
 5383              		.loc 1 639 23 discriminator 1 view .LVU1922
 5384 09a6 9807     		lsls	r0, r3, #30
 5385              	.LBB544:
 5386              	.LBB543:
1176:Drivers/lvgl/src/core/lv_indev.c ****     }
 5387              		.loc 1 1176 23 view .LVU1923
 5388 09a8 3A60     		str	r2, [r7]
 5389              		.loc 1 1179 5 is_stmt 1 view .LVU1924
 5390              	.LVL394:
 5391              		.loc 1 1179 5 is_stmt 0 view .LVU1925
ARM GAS  /var/folders/lp/x54gwt890xv47sdkqj1k04q40000gn/T//ccfgQDQQ.s 			page 149


 5392              	.LBE543:
 5393              	.LBE544:
 639:Drivers/lvgl/src/core/lv_indev.c ****                 }
 5394              		.loc 1 639 23 discriminator 1 view .LVU1926
 5395 09aa 7FF535AF 		bpl	.L432
 5396 09ae FFF790BB 		b	.L394
 5397              	.LBE546:
 5398              	.LBE557:
 5399              	.LBE586:
 5400              		.cfi_endproc
 5401              	.LFE167:
 5403 09b2 00BF     		.section	.bss.indev_obj_act,"aw",%nobits
 5404              		.align	2
 5407              	indev_obj_act:
 5408 0000 00000000 		.space	4
 5409              		.section	.bss.indev_act,"aw",%nobits
 5410              		.align	2
 5413              	indev_act:
 5414 0000 00000000 		.space	4
 5415              		.text
 5416              	.Letext0:
 5417              		.file 3 "/Users/jr/Library/Application Support/Code/User/globalStorage/bmd.stm32-for-vscode/@xpack
 5418              		.file 4 "/Users/jr/Library/Application Support/Code/User/globalStorage/bmd.stm32-for-vscode/@xpack
 5419              		.file 5 "/Users/jr/Library/Application Support/Code/User/globalStorage/bmd.stm32-for-vscode/@xpack
 5420              		.file 6 "Drivers/lvgl/src/core/../misc/../font/../misc/lv_area.h"
 5421              		.file 7 "Drivers/lvgl/src/core/../misc/../font/lv_font.h"
 5422              		.file 8 "Drivers/lvgl/src/core/../misc/lv_types.h"
 5423              		.file 9 "Drivers/lvgl/src/core/../misc/lv_color.h"
 5424              		.file 10 "Drivers/lvgl/src/core/../misc/lv_txt.h"
 5425              		.file 11 "Drivers/lvgl/src/core/../misc/lv_bidi.h"
 5426              		.file 12 "Drivers/lvgl/src/core/../misc/lv_style.h"
 5427              		.file 13 "Drivers/lvgl/src/core/../hal/../draw/lv_img_buf.h"
 5428              		.file 14 "Drivers/lvgl/src/core/lv_obj.h"
 5429              		.file 15 "Drivers/lvgl/src/core/../hal/../draw/lv_draw_rect.h"
 5430              		.file 16 "Drivers/lvgl/src/core/../hal/../draw/lv_draw_label.h"
 5431              		.file 17 "Drivers/lvgl/src/core/../hal/../draw/lv_draw_img.h"
 5432              		.file 18 "Drivers/lvgl/src/core/../hal/../draw/lv_draw_line.h"
 5433              		.file 19 "Drivers/lvgl/src/core/../hal/../draw/lv_draw_arc.h"
 5434              		.file 20 "Drivers/lvgl/src/core/../hal/../draw/lv_draw_layer.h"
 5435              		.file 21 "Drivers/lvgl/src/core/../hal/../draw/lv_draw.h"
 5436              		.file 22 "Drivers/lvgl/src/core/../hal/../misc/lv_ll.h"
 5437              		.file 23 "Drivers/lvgl/src/core/../hal/../misc/lv_timer.h"
 5438              		.file 24 "Drivers/lvgl/src/core/../hal/lv_hal_disp.h"
 5439              		.file 25 "Drivers/lvgl/src/core/lv_theme.h"
 5440              		.file 26 "Drivers/lvgl/src/core/../hal/lv_hal_indev.h"
 5441              		.file 27 "Drivers/lvgl/src/core/lv_group.h"
 5442              		.file 28 "Drivers/lvgl/src/core/lv_obj_scroll.h"
 5443              		.file 29 "Drivers/lvgl/src/core/lv_obj_style.h"
 5444              		.file 30 "Drivers/lvgl/src/core/lv_obj_class.h"
 5445              		.file 31 "Drivers/lvgl/src/core/lv_event.h"
 5446              		.file 32 "Drivers/lvgl/src/core/lv_obj_tree.h"
 5447              		.file 33 "Drivers/lvgl/src/core/../hal/../draw/sw/../../core/lv_obj_pos.h"
 5448              		.file 34 "Drivers/lvgl/src/core/../hal/../misc/../hal/lv_hal_tick.h"
 5449              		.file 35 "Drivers/lvgl/src/core/lv_indev_scroll.h"
 5450              		.file 36 "Drivers/lvgl/src/core/lv_disp.h"
ARM GAS  /var/folders/lp/x54gwt890xv47sdkqj1k04q40000gn/T//ccfgQDQQ.s 			page 150


DEFINED SYMBOLS
                            *ABS*:00000000 lv_indev.c
/var/folders/lp/x54gwt890xv47sdkqj1k04q40000gn/T//ccfgQDQQ.s:21     .text.indev_proc_release:00000000 $t
/var/folders/lp/x54gwt890xv47sdkqj1k04q40000gn/T//ccfgQDQQ.s:27     .text.indev_proc_release:00000000 indev_proc_release
/var/folders/lp/x54gwt890xv47sdkqj1k04q40000gn/T//ccfgQDQQ.s:432    .text.indev_proc_release:00000150 $d
/var/folders/lp/x54gwt890xv47sdkqj1k04q40000gn/T//ccfgQDQQ.s:5407   .bss.indev_obj_act:00000000 indev_obj_act
/var/folders/lp/x54gwt890xv47sdkqj1k04q40000gn/T//ccfgQDQQ.s:5413   .bss.indev_act:00000000 indev_act
/var/folders/lp/x54gwt890xv47sdkqj1k04q40000gn/T//ccfgQDQQ.s:440    .text.lv_indev_enable:00000000 $t
/var/folders/lp/x54gwt890xv47sdkqj1k04q40000gn/T//ccfgQDQQ.s:447    .text.lv_indev_enable:00000000 lv_indev_enable
/var/folders/lp/x54gwt890xv47sdkqj1k04q40000gn/T//ccfgQDQQ.s:498    .text.lv_indev_get_act:00000000 $t
/var/folders/lp/x54gwt890xv47sdkqj1k04q40000gn/T//ccfgQDQQ.s:505    .text.lv_indev_get_act:00000000 lv_indev_get_act
/var/folders/lp/x54gwt890xv47sdkqj1k04q40000gn/T//ccfgQDQQ.s:521    .text.lv_indev_get_act:00000008 $d
/var/folders/lp/x54gwt890xv47sdkqj1k04q40000gn/T//ccfgQDQQ.s:526    .text.lv_indev_get_type:00000000 $t
/var/folders/lp/x54gwt890xv47sdkqj1k04q40000gn/T//ccfgQDQQ.s:533    .text.lv_indev_get_type:00000000 lv_indev_get_type
/var/folders/lp/x54gwt890xv47sdkqj1k04q40000gn/T//ccfgQDQQ.s:556    .text.lv_indev_reset:00000000 $t
/var/folders/lp/x54gwt890xv47sdkqj1k04q40000gn/T//ccfgQDQQ.s:563    .text.lv_indev_reset:00000000 lv_indev_reset
/var/folders/lp/x54gwt890xv47sdkqj1k04q40000gn/T//ccfgQDQQ.s:761    .text.lv_indev_reset:000000a8 $d
/var/folders/lp/x54gwt890xv47sdkqj1k04q40000gn/T//ccfgQDQQ.s:767    .text.lv_indev_reset_long_press:00000000 $t
/var/folders/lp/x54gwt890xv47sdkqj1k04q40000gn/T//ccfgQDQQ.s:774    .text.lv_indev_reset_long_press:00000000 lv_indev_reset_long_press
/var/folders/lp/x54gwt890xv47sdkqj1k04q40000gn/T//ccfgQDQQ.s:813    .text.lv_indev_set_cursor:00000000 $t
/var/folders/lp/x54gwt890xv47sdkqj1k04q40000gn/T//ccfgQDQQ.s:820    .text.lv_indev_set_cursor:00000000 lv_indev_set_cursor
/var/folders/lp/x54gwt890xv47sdkqj1k04q40000gn/T//ccfgQDQQ.s:891    .text.lv_indev_set_group:00000000 $t
/var/folders/lp/x54gwt890xv47sdkqj1k04q40000gn/T//ccfgQDQQ.s:898    .text.lv_indev_set_group:00000000 lv_indev_set_group
/var/folders/lp/x54gwt890xv47sdkqj1k04q40000gn/T//ccfgQDQQ.s:928    .text.lv_indev_set_button_points:00000000 $t
/var/folders/lp/x54gwt890xv47sdkqj1k04q40000gn/T//ccfgQDQQ.s:935    .text.lv_indev_set_button_points:00000000 lv_indev_set_button_points
/var/folders/lp/x54gwt890xv47sdkqj1k04q40000gn/T//ccfgQDQQ.s:959    .text.lv_indev_get_point:00000000 $t
/var/folders/lp/x54gwt890xv47sdkqj1k04q40000gn/T//ccfgQDQQ.s:966    .text.lv_indev_get_point:00000000 lv_indev_get_point
/var/folders/lp/x54gwt890xv47sdkqj1k04q40000gn/T//ccfgQDQQ.s:1028   .text.lv_indev_get_gesture_dir:00000000 $t
/var/folders/lp/x54gwt890xv47sdkqj1k04q40000gn/T//ccfgQDQQ.s:1035   .text.lv_indev_get_gesture_dir:00000000 lv_indev_get_gesture_dir
/var/folders/lp/x54gwt890xv47sdkqj1k04q40000gn/T//ccfgQDQQ.s:1054   .text.lv_indev_get_key:00000000 $t
/var/folders/lp/x54gwt890xv47sdkqj1k04q40000gn/T//ccfgQDQQ.s:1061   .text.lv_indev_get_key:00000000 lv_indev_get_key
/var/folders/lp/x54gwt890xv47sdkqj1k04q40000gn/T//ccfgQDQQ.s:1088   .text.lv_indev_get_scroll_dir:00000000 $t
/var/folders/lp/x54gwt890xv47sdkqj1k04q40000gn/T//ccfgQDQQ.s:1095   .text.lv_indev_get_scroll_dir:00000000 lv_indev_get_scroll_dir
/var/folders/lp/x54gwt890xv47sdkqj1k04q40000gn/T//ccfgQDQQ.s:1133   .text.lv_indev_get_scroll_obj:00000000 $t
/var/folders/lp/x54gwt890xv47sdkqj1k04q40000gn/T//ccfgQDQQ.s:1140   .text.lv_indev_get_scroll_obj:00000000 lv_indev_get_scroll_obj
/var/folders/lp/x54gwt890xv47sdkqj1k04q40000gn/T//ccfgQDQQ.s:1177   .text.lv_indev_get_vect:00000000 $t
/var/folders/lp/x54gwt890xv47sdkqj1k04q40000gn/T//ccfgQDQQ.s:1184   .text.lv_indev_get_vect:00000000 lv_indev_get_vect
/var/folders/lp/x54gwt890xv47sdkqj1k04q40000gn/T//ccfgQDQQ.s:1225   .text.lv_indev_wait_release:00000000 $t
/var/folders/lp/x54gwt890xv47sdkqj1k04q40000gn/T//ccfgQDQQ.s:1232   .text.lv_indev_wait_release:00000000 lv_indev_wait_release
/var/folders/lp/x54gwt890xv47sdkqj1k04q40000gn/T//ccfgQDQQ.s:1255   .text.lv_indev_get_obj_act:00000000 $t
/var/folders/lp/x54gwt890xv47sdkqj1k04q40000gn/T//ccfgQDQQ.s:1262   .text.lv_indev_get_obj_act:00000000 lv_indev_get_obj_act
/var/folders/lp/x54gwt890xv47sdkqj1k04q40000gn/T//ccfgQDQQ.s:1278   .text.lv_indev_get_obj_act:00000008 $d
/var/folders/lp/x54gwt890xv47sdkqj1k04q40000gn/T//ccfgQDQQ.s:1283   .text.lv_indev_get_read_timer:00000000 $t
/var/folders/lp/x54gwt890xv47sdkqj1k04q40000gn/T//ccfgQDQQ.s:1290   .text.lv_indev_get_read_timer:00000000 lv_indev_get_read_timer
/var/folders/lp/x54gwt890xv47sdkqj1k04q40000gn/T//ccfgQDQQ.s:1312   .text.lv_indev_search_obj:00000000 $t
/var/folders/lp/x54gwt890xv47sdkqj1k04q40000gn/T//ccfgQDQQ.s:1319   .text.lv_indev_search_obj:00000000 lv_indev_search_obj
/var/folders/lp/x54gwt890xv47sdkqj1k04q40000gn/T//ccfgQDQQ.s:1481   .text.indev_proc_press:00000000 $t
/var/folders/lp/x54gwt890xv47sdkqj1k04q40000gn/T//ccfgQDQQ.s:1487   .text.indev_proc_press:00000000 indev_proc_press
/var/folders/lp/x54gwt890xv47sdkqj1k04q40000gn/T//ccfgQDQQ.s:1954   .text.indev_proc_press:000001d4 $d
/var/folders/lp/x54gwt890xv47sdkqj1k04q40000gn/T//ccfgQDQQ.s:1967   .text.indev_proc_press:000001dc $t
/var/folders/lp/x54gwt890xv47sdkqj1k04q40000gn/T//ccfgQDQQ.s:2642   .text.lv_indev_read_timer_cb:00000000 $t
/var/folders/lp/x54gwt890xv47sdkqj1k04q40000gn/T//ccfgQDQQ.s:2649   .text.lv_indev_read_timer_cb:00000000 lv_indev_read_timer_cb
/var/folders/lp/x54gwt890xv47sdkqj1k04q40000gn/T//ccfgQDQQ.s:2854   .text.lv_indev_read_timer_cb:000000a6 $d
/var/folders/lp/x54gwt890xv47sdkqj1k04q40000gn/T//ccfgQDQQ.s:3389   .text.lv_indev_read_timer_cb:00000258 $d
/var/folders/lp/x54gwt890xv47sdkqj1k04q40000gn/T//ccfgQDQQ.s:3397   .text.lv_indev_read_timer_cb:00000268 $d
/var/folders/lp/x54gwt890xv47sdkqj1k04q40000gn/T//ccfgQDQQ.s:3401   .text.lv_indev_read_timer_cb:00000270 $t
/var/folders/lp/x54gwt890xv47sdkqj1k04q40000gn/T//ccfgQDQQ.s:4053   .text.lv_indev_read_timer_cb:000004f8 $d
ARM GAS  /var/folders/lp/x54gwt890xv47sdkqj1k04q40000gn/T//ccfgQDQQ.s 			page 151


/var/folders/lp/x54gwt890xv47sdkqj1k04q40000gn/T//ccfgQDQQ.s:4071   .text.lv_indev_read_timer_cb:00000540 $t
/var/folders/lp/x54gwt890xv47sdkqj1k04q40000gn/T//ccfgQDQQ.s:5404   .bss.indev_obj_act:00000000 $d
/var/folders/lp/x54gwt890xv47sdkqj1k04q40000gn/T//ccfgQDQQ.s:5410   .bss.indev_act:00000000 $d
/var/folders/lp/x54gwt890xv47sdkqj1k04q40000gn/T//ccfgQDQQ.s:2857   .text.lv_indev_read_timer_cb:000000a9 $d
/var/folders/lp/x54gwt890xv47sdkqj1k04q40000gn/T//ccfgQDQQ.s:2857   .text.lv_indev_read_timer_cb:000000aa $t

UNDEFINED SYMBOLS
lv_event_send
lv_obj_get_style_prop
lv_obj_get_parent
lv_point_transform
_lv_indev_scroll_throw_handler
lv_indev_get_next
lv_tick_get
lv_disp_get_layer_sys
lv_obj_set_parent
lv_obj_set_pos
lv_obj_clear_flag
lv_obj_add_flag
lv_obj_has_flag
lv_obj_transform_point
lv_obj_hit_test
_lv_area_is_point_on
lv_obj_get_child_cnt
_lv_indev_scroll_handler
lv_tick_elaps
lv_obj_get_group
lv_group_focus_obj
lv_disp_get_layer_top
lv_disp_get_scr_act
_lv_indev_read
lv_disp_get_hor_res
lv_disp_get_ver_res
lv_group_get_focused
lv_obj_has_state
lv_group_get_editing
lv_group_send_data
lv_obj_is_editable
lv_group_focus_next
lv_group_focus_prev
lv_group_get_obj_count
lv_group_set_editing
lv_obj_clear_state
