ARM GAS  /var/folders/0z/tsy30v1j4xl4_7kw94k978ww0000gn/T//cc3yoOHj.s 			page 1


   1              		.cpu cortex-m4
   2              		.arch armv7e-m
   3              		.fpu fpv4-sp-d16
   4              		.eabi_attribute 27, 1
   5              		.eabi_attribute 28, 1
   6              		.eabi_attribute 20, 1
   7              		.eabi_attribute 21, 1
   8              		.eabi_attribute 23, 3
   9              		.eabi_attribute 24, 1
  10              		.eabi_attribute 25, 1
  11              		.eabi_attribute 26, 1
  12              		.eabi_attribute 30, 2
  13              		.eabi_attribute 34, 1
  14              		.eabi_attribute 18, 4
  15              		.file	"lv_indev_scroll.c"
  16              		.text
  17              	.Ltext0:
  18              		.cfi_sections	.debug_frame
  19              		.section	.text.find_snap_point_y,"ax",%progbits
  20              		.align	1
  21              		.p2align 2,,3
  22              		.syntax unified
  23              		.thumb
  24              		.thumb_func
  26              	find_snap_point_y:
  27              	.LVL0:
  28              	.LFB168:
  29              		.file 1 "Drivers/lvgl/src/core/lv_indev_scroll.c"
   1:Drivers/lvgl/src/core/lv_indev_scroll.c **** /**
   2:Drivers/lvgl/src/core/lv_indev_scroll.c ****  * @file lv_indev_scroll.c
   3:Drivers/lvgl/src/core/lv_indev_scroll.c ****  *
   4:Drivers/lvgl/src/core/lv_indev_scroll.c ****  */
   5:Drivers/lvgl/src/core/lv_indev_scroll.c **** 
   6:Drivers/lvgl/src/core/lv_indev_scroll.c **** /*********************
   7:Drivers/lvgl/src/core/lv_indev_scroll.c ****  *      INCLUDES
   8:Drivers/lvgl/src/core/lv_indev_scroll.c ****  *********************/
   9:Drivers/lvgl/src/core/lv_indev_scroll.c **** #include "lv_indev.h"
  10:Drivers/lvgl/src/core/lv_indev_scroll.c **** #include "lv_indev_scroll.h"
  11:Drivers/lvgl/src/core/lv_indev_scroll.c **** 
  12:Drivers/lvgl/src/core/lv_indev_scroll.c **** /*********************
  13:Drivers/lvgl/src/core/lv_indev_scroll.c ****  *      DEFINES
  14:Drivers/lvgl/src/core/lv_indev_scroll.c ****  *********************/
  15:Drivers/lvgl/src/core/lv_indev_scroll.c **** #define ELASTIC_SLOWNESS_FACTOR 4   /*Scrolling on elastic parts are slower by this factor*/
  16:Drivers/lvgl/src/core/lv_indev_scroll.c **** 
  17:Drivers/lvgl/src/core/lv_indev_scroll.c **** /**********************
  18:Drivers/lvgl/src/core/lv_indev_scroll.c ****  *      TYPEDEFS
  19:Drivers/lvgl/src/core/lv_indev_scroll.c ****  **********************/
  20:Drivers/lvgl/src/core/lv_indev_scroll.c **** 
  21:Drivers/lvgl/src/core/lv_indev_scroll.c **** /**********************
  22:Drivers/lvgl/src/core/lv_indev_scroll.c ****  *  STATIC PROTOTYPES
  23:Drivers/lvgl/src/core/lv_indev_scroll.c ****  **********************/
  24:Drivers/lvgl/src/core/lv_indev_scroll.c **** static lv_obj_t * find_scroll_obj(_lv_indev_proc_t * proc);
  25:Drivers/lvgl/src/core/lv_indev_scroll.c **** static void init_scroll_limits(_lv_indev_proc_t * proc);
  26:Drivers/lvgl/src/core/lv_indev_scroll.c **** static lv_coord_t find_snap_point_x(const lv_obj_t * obj, lv_coord_t min, lv_coord_t max, lv_coord_
  27:Drivers/lvgl/src/core/lv_indev_scroll.c **** static lv_coord_t find_snap_point_y(const lv_obj_t * obj, lv_coord_t min, lv_coord_t max, lv_coord_
  28:Drivers/lvgl/src/core/lv_indev_scroll.c **** static void scroll_limit_diff(_lv_indev_proc_t * proc, lv_coord_t * diff_x, lv_coord_t * diff_y);
  29:Drivers/lvgl/src/core/lv_indev_scroll.c **** static lv_coord_t scroll_throw_predict_y(_lv_indev_proc_t * proc);
ARM GAS  /var/folders/0z/tsy30v1j4xl4_7kw94k978ww0000gn/T//cc3yoOHj.s 			page 2


  30:Drivers/lvgl/src/core/lv_indev_scroll.c **** static lv_coord_t scroll_throw_predict_x(_lv_indev_proc_t * proc);
  31:Drivers/lvgl/src/core/lv_indev_scroll.c **** static lv_coord_t elastic_diff(lv_obj_t * scroll_obj, lv_coord_t diff, lv_coord_t scroll_start, lv_
  32:Drivers/lvgl/src/core/lv_indev_scroll.c ****                                lv_dir_t dir);
  33:Drivers/lvgl/src/core/lv_indev_scroll.c **** 
  34:Drivers/lvgl/src/core/lv_indev_scroll.c **** /**********************
  35:Drivers/lvgl/src/core/lv_indev_scroll.c ****  *  STATIC VARIABLES
  36:Drivers/lvgl/src/core/lv_indev_scroll.c ****  **********************/
  37:Drivers/lvgl/src/core/lv_indev_scroll.c **** 
  38:Drivers/lvgl/src/core/lv_indev_scroll.c **** /**********************
  39:Drivers/lvgl/src/core/lv_indev_scroll.c ****  *      MACROS
  40:Drivers/lvgl/src/core/lv_indev_scroll.c ****  **********************/
  41:Drivers/lvgl/src/core/lv_indev_scroll.c **** 
  42:Drivers/lvgl/src/core/lv_indev_scroll.c **** /**********************
  43:Drivers/lvgl/src/core/lv_indev_scroll.c ****  *   GLOBAL FUNCTIONS
  44:Drivers/lvgl/src/core/lv_indev_scroll.c ****  **********************/
  45:Drivers/lvgl/src/core/lv_indev_scroll.c **** 
  46:Drivers/lvgl/src/core/lv_indev_scroll.c **** void _lv_indev_scroll_handler(_lv_indev_proc_t * proc)
  47:Drivers/lvgl/src/core/lv_indev_scroll.c **** {
  48:Drivers/lvgl/src/core/lv_indev_scroll.c ****     if(proc->types.pointer.vect.x == 0 && proc->types.pointer.vect.y == 0) {
  49:Drivers/lvgl/src/core/lv_indev_scroll.c ****         return;
  50:Drivers/lvgl/src/core/lv_indev_scroll.c ****     }
  51:Drivers/lvgl/src/core/lv_indev_scroll.c **** 
  52:Drivers/lvgl/src/core/lv_indev_scroll.c ****     lv_obj_t * scroll_obj = proc->types.pointer.scroll_obj;
  53:Drivers/lvgl/src/core/lv_indev_scroll.c ****     /*If there is no scroll object yet try to find one*/
  54:Drivers/lvgl/src/core/lv_indev_scroll.c ****     if(scroll_obj == NULL) {
  55:Drivers/lvgl/src/core/lv_indev_scroll.c ****         scroll_obj = find_scroll_obj(proc);
  56:Drivers/lvgl/src/core/lv_indev_scroll.c ****         if(scroll_obj == NULL) return;
  57:Drivers/lvgl/src/core/lv_indev_scroll.c **** 
  58:Drivers/lvgl/src/core/lv_indev_scroll.c ****         init_scroll_limits(proc);
  59:Drivers/lvgl/src/core/lv_indev_scroll.c **** 
  60:Drivers/lvgl/src/core/lv_indev_scroll.c ****         lv_event_send(scroll_obj, LV_EVENT_SCROLL_BEGIN, NULL);
  61:Drivers/lvgl/src/core/lv_indev_scroll.c ****         if(proc->reset_query) return;
  62:Drivers/lvgl/src/core/lv_indev_scroll.c ****     }
  63:Drivers/lvgl/src/core/lv_indev_scroll.c **** 
  64:Drivers/lvgl/src/core/lv_indev_scroll.c ****     /*Set new position or scroll if the vector is not zero*/
  65:Drivers/lvgl/src/core/lv_indev_scroll.c ****     int16_t angle = 0;
  66:Drivers/lvgl/src/core/lv_indev_scroll.c ****     int16_t zoom = 256;
  67:Drivers/lvgl/src/core/lv_indev_scroll.c ****     lv_obj_t * parent = scroll_obj;
  68:Drivers/lvgl/src/core/lv_indev_scroll.c ****     while(parent) {
  69:Drivers/lvgl/src/core/lv_indev_scroll.c ****         angle += lv_obj_get_style_transform_angle(parent, 0);
  70:Drivers/lvgl/src/core/lv_indev_scroll.c ****         zoom *= (lv_obj_get_style_transform_zoom(parent, 0) / 256);
  71:Drivers/lvgl/src/core/lv_indev_scroll.c ****         parent = lv_obj_get_parent(parent);
  72:Drivers/lvgl/src/core/lv_indev_scroll.c ****     }
  73:Drivers/lvgl/src/core/lv_indev_scroll.c **** 
  74:Drivers/lvgl/src/core/lv_indev_scroll.c ****     if(angle != 0 || zoom != LV_IMG_ZOOM_NONE) {
  75:Drivers/lvgl/src/core/lv_indev_scroll.c ****         angle = -angle;
  76:Drivers/lvgl/src/core/lv_indev_scroll.c ****         zoom = (256 * 256) / zoom;
  77:Drivers/lvgl/src/core/lv_indev_scroll.c ****         lv_point_t pivot = { 0, 0 };
  78:Drivers/lvgl/src/core/lv_indev_scroll.c ****         lv_point_transform(&proc->types.pointer.vect, angle, zoom, &pivot);
  79:Drivers/lvgl/src/core/lv_indev_scroll.c ****     }
  80:Drivers/lvgl/src/core/lv_indev_scroll.c **** 
  81:Drivers/lvgl/src/core/lv_indev_scroll.c **** 
  82:Drivers/lvgl/src/core/lv_indev_scroll.c **** 
  83:Drivers/lvgl/src/core/lv_indev_scroll.c ****     lv_coord_t diff_x = 0;
  84:Drivers/lvgl/src/core/lv_indev_scroll.c ****     lv_coord_t diff_y = 0;
  85:Drivers/lvgl/src/core/lv_indev_scroll.c ****     if(proc->types.pointer.scroll_dir == LV_DIR_HOR) {
  86:Drivers/lvgl/src/core/lv_indev_scroll.c ****         lv_coord_t sr = lv_obj_get_scroll_right(scroll_obj);
ARM GAS  /var/folders/0z/tsy30v1j4xl4_7kw94k978ww0000gn/T//cc3yoOHj.s 			page 3


  87:Drivers/lvgl/src/core/lv_indev_scroll.c ****         lv_coord_t sl = lv_obj_get_scroll_left(scroll_obj);
  88:Drivers/lvgl/src/core/lv_indev_scroll.c ****         diff_x = elastic_diff(scroll_obj, proc->types.pointer.vect.x, sl, sr, LV_DIR_HOR);
  89:Drivers/lvgl/src/core/lv_indev_scroll.c ****     }
  90:Drivers/lvgl/src/core/lv_indev_scroll.c ****     else {
  91:Drivers/lvgl/src/core/lv_indev_scroll.c ****         lv_coord_t st = lv_obj_get_scroll_top(scroll_obj);
  92:Drivers/lvgl/src/core/lv_indev_scroll.c ****         lv_coord_t sb = lv_obj_get_scroll_bottom(scroll_obj);
  93:Drivers/lvgl/src/core/lv_indev_scroll.c ****         diff_y = elastic_diff(scroll_obj, proc->types.pointer.vect.y, st, sb, LV_DIR_VER);
  94:Drivers/lvgl/src/core/lv_indev_scroll.c ****     }
  95:Drivers/lvgl/src/core/lv_indev_scroll.c **** 
  96:Drivers/lvgl/src/core/lv_indev_scroll.c ****     lv_dir_t scroll_dir = lv_obj_get_scroll_dir(scroll_obj);
  97:Drivers/lvgl/src/core/lv_indev_scroll.c ****     if((scroll_dir & LV_DIR_LEFT)   == 0 && diff_x > 0) diff_x = 0;
  98:Drivers/lvgl/src/core/lv_indev_scroll.c ****     if((scroll_dir & LV_DIR_RIGHT)  == 0 && diff_x < 0) diff_x = 0;
  99:Drivers/lvgl/src/core/lv_indev_scroll.c ****     if((scroll_dir & LV_DIR_TOP)    == 0 && diff_y > 0) diff_y = 0;
 100:Drivers/lvgl/src/core/lv_indev_scroll.c ****     if((scroll_dir & LV_DIR_BOTTOM) == 0 && diff_y < 0) diff_y = 0;
 101:Drivers/lvgl/src/core/lv_indev_scroll.c **** 
 102:Drivers/lvgl/src/core/lv_indev_scroll.c ****     /*Respect the scroll limit area*/
 103:Drivers/lvgl/src/core/lv_indev_scroll.c ****     scroll_limit_diff(proc, &diff_x, &diff_y);
 104:Drivers/lvgl/src/core/lv_indev_scroll.c **** 
 105:Drivers/lvgl/src/core/lv_indev_scroll.c ****     _lv_obj_scroll_by_raw(scroll_obj, diff_x, diff_y);
 106:Drivers/lvgl/src/core/lv_indev_scroll.c ****     if(proc->reset_query) return;
 107:Drivers/lvgl/src/core/lv_indev_scroll.c ****     proc->types.pointer.scroll_sum.x += diff_x;
 108:Drivers/lvgl/src/core/lv_indev_scroll.c ****     proc->types.pointer.scroll_sum.y += diff_y;
 109:Drivers/lvgl/src/core/lv_indev_scroll.c **** }
 110:Drivers/lvgl/src/core/lv_indev_scroll.c **** 
 111:Drivers/lvgl/src/core/lv_indev_scroll.c **** 
 112:Drivers/lvgl/src/core/lv_indev_scroll.c **** void _lv_indev_scroll_throw_handler(_lv_indev_proc_t * proc)
 113:Drivers/lvgl/src/core/lv_indev_scroll.c **** {
 114:Drivers/lvgl/src/core/lv_indev_scroll.c ****     lv_obj_t * scroll_obj = proc->types.pointer.scroll_obj;
 115:Drivers/lvgl/src/core/lv_indev_scroll.c ****     if(scroll_obj == NULL) return;
 116:Drivers/lvgl/src/core/lv_indev_scroll.c ****     if(proc->types.pointer.scroll_dir == LV_DIR_NONE) return;
 117:Drivers/lvgl/src/core/lv_indev_scroll.c **** 
 118:Drivers/lvgl/src/core/lv_indev_scroll.c ****     lv_indev_t * indev_act = lv_indev_get_act();
 119:Drivers/lvgl/src/core/lv_indev_scroll.c ****     lv_coord_t scroll_throw = indev_act->driver->scroll_throw;
 120:Drivers/lvgl/src/core/lv_indev_scroll.c **** 
 121:Drivers/lvgl/src/core/lv_indev_scroll.c ****     if(lv_obj_has_flag(scroll_obj, LV_OBJ_FLAG_SCROLL_MOMENTUM) == false) {
 122:Drivers/lvgl/src/core/lv_indev_scroll.c ****         proc->types.pointer.scroll_throw_vect.y = 0;
 123:Drivers/lvgl/src/core/lv_indev_scroll.c ****         proc->types.pointer.scroll_throw_vect.x = 0;
 124:Drivers/lvgl/src/core/lv_indev_scroll.c ****     }
 125:Drivers/lvgl/src/core/lv_indev_scroll.c **** 
 126:Drivers/lvgl/src/core/lv_indev_scroll.c ****     lv_scroll_snap_t align_x = lv_obj_get_scroll_snap_x(scroll_obj);
 127:Drivers/lvgl/src/core/lv_indev_scroll.c ****     lv_scroll_snap_t align_y = lv_obj_get_scroll_snap_y(scroll_obj);
 128:Drivers/lvgl/src/core/lv_indev_scroll.c **** 
 129:Drivers/lvgl/src/core/lv_indev_scroll.c ****     if(proc->types.pointer.scroll_dir == LV_DIR_VER) {
 130:Drivers/lvgl/src/core/lv_indev_scroll.c ****         proc->types.pointer.scroll_throw_vect.x = 0;
 131:Drivers/lvgl/src/core/lv_indev_scroll.c ****         /*If no snapping "throw"*/
 132:Drivers/lvgl/src/core/lv_indev_scroll.c ****         if(align_y == LV_SCROLL_SNAP_NONE) {
 133:Drivers/lvgl/src/core/lv_indev_scroll.c ****             proc->types.pointer.scroll_throw_vect.y =
 134:Drivers/lvgl/src/core/lv_indev_scroll.c ****                 proc->types.pointer.scroll_throw_vect.y * (100 - scroll_throw) / 100;
 135:Drivers/lvgl/src/core/lv_indev_scroll.c **** 
 136:Drivers/lvgl/src/core/lv_indev_scroll.c ****             lv_coord_t sb = lv_obj_get_scroll_bottom(scroll_obj);
 137:Drivers/lvgl/src/core/lv_indev_scroll.c ****             lv_coord_t st = lv_obj_get_scroll_top(scroll_obj);
 138:Drivers/lvgl/src/core/lv_indev_scroll.c **** 
 139:Drivers/lvgl/src/core/lv_indev_scroll.c ****             proc->types.pointer.scroll_throw_vect.y = elastic_diff(scroll_obj, proc->types.pointer.
 140:Drivers/lvgl/src/core/lv_indev_scroll.c ****                                                                    LV_DIR_VER);
 141:Drivers/lvgl/src/core/lv_indev_scroll.c **** 
 142:Drivers/lvgl/src/core/lv_indev_scroll.c ****             lv_obj_scroll_by(scroll_obj, 0, proc->types.pointer.scroll_throw_vect.y, LV_ANIM_OFF);
 143:Drivers/lvgl/src/core/lv_indev_scroll.c ****         }
ARM GAS  /var/folders/0z/tsy30v1j4xl4_7kw94k978ww0000gn/T//cc3yoOHj.s 			page 4


 144:Drivers/lvgl/src/core/lv_indev_scroll.c ****         /*With snapping find the nearest snap point and scroll there*/
 145:Drivers/lvgl/src/core/lv_indev_scroll.c ****         else {
 146:Drivers/lvgl/src/core/lv_indev_scroll.c ****             lv_coord_t diff_y = scroll_throw_predict_y(proc);
 147:Drivers/lvgl/src/core/lv_indev_scroll.c ****             proc->types.pointer.scroll_throw_vect.y = 0;
 148:Drivers/lvgl/src/core/lv_indev_scroll.c ****             scroll_limit_diff(proc, NULL, &diff_y);
 149:Drivers/lvgl/src/core/lv_indev_scroll.c ****             lv_coord_t y = find_snap_point_y(scroll_obj, LV_COORD_MIN, LV_COORD_MAX, diff_y);
 150:Drivers/lvgl/src/core/lv_indev_scroll.c ****             lv_obj_scroll_by(scroll_obj, 0, diff_y + y, LV_ANIM_ON);
 151:Drivers/lvgl/src/core/lv_indev_scroll.c ****         }
 152:Drivers/lvgl/src/core/lv_indev_scroll.c ****     }
 153:Drivers/lvgl/src/core/lv_indev_scroll.c ****     else if(proc->types.pointer.scroll_dir == LV_DIR_HOR) {
 154:Drivers/lvgl/src/core/lv_indev_scroll.c ****         proc->types.pointer.scroll_throw_vect.y = 0;
 155:Drivers/lvgl/src/core/lv_indev_scroll.c ****         /*If no snapping "throw"*/
 156:Drivers/lvgl/src/core/lv_indev_scroll.c ****         if(align_x == LV_SCROLL_SNAP_NONE) {
 157:Drivers/lvgl/src/core/lv_indev_scroll.c ****             proc->types.pointer.scroll_throw_vect.x =
 158:Drivers/lvgl/src/core/lv_indev_scroll.c ****                 proc->types.pointer.scroll_throw_vect.x * (100 - scroll_throw) / 100;
 159:Drivers/lvgl/src/core/lv_indev_scroll.c **** 
 160:Drivers/lvgl/src/core/lv_indev_scroll.c ****             lv_coord_t sl = lv_obj_get_scroll_left(scroll_obj);
 161:Drivers/lvgl/src/core/lv_indev_scroll.c ****             lv_coord_t sr = lv_obj_get_scroll_right(scroll_obj);
 162:Drivers/lvgl/src/core/lv_indev_scroll.c **** 
 163:Drivers/lvgl/src/core/lv_indev_scroll.c ****             proc->types.pointer.scroll_throw_vect.x = elastic_diff(scroll_obj, proc->types.pointer.
 164:Drivers/lvgl/src/core/lv_indev_scroll.c ****                                                                    LV_DIR_HOR);
 165:Drivers/lvgl/src/core/lv_indev_scroll.c **** 
 166:Drivers/lvgl/src/core/lv_indev_scroll.c ****             lv_obj_scroll_by(scroll_obj, proc->types.pointer.scroll_throw_vect.x, 0, LV_ANIM_OFF);
 167:Drivers/lvgl/src/core/lv_indev_scroll.c ****         }
 168:Drivers/lvgl/src/core/lv_indev_scroll.c ****         /*With snapping find the nearest snap point and scroll there*/
 169:Drivers/lvgl/src/core/lv_indev_scroll.c ****         else {
 170:Drivers/lvgl/src/core/lv_indev_scroll.c ****             lv_coord_t diff_x = scroll_throw_predict_x(proc);
 171:Drivers/lvgl/src/core/lv_indev_scroll.c ****             proc->types.pointer.scroll_throw_vect.x = 0;
 172:Drivers/lvgl/src/core/lv_indev_scroll.c ****             scroll_limit_diff(proc, &diff_x, NULL);
 173:Drivers/lvgl/src/core/lv_indev_scroll.c ****             lv_coord_t x = find_snap_point_x(scroll_obj, LV_COORD_MIN, LV_COORD_MAX, diff_x);
 174:Drivers/lvgl/src/core/lv_indev_scroll.c ****             lv_obj_scroll_by(scroll_obj, x + diff_x, 0, LV_ANIM_ON);
 175:Drivers/lvgl/src/core/lv_indev_scroll.c ****         }
 176:Drivers/lvgl/src/core/lv_indev_scroll.c ****     }
 177:Drivers/lvgl/src/core/lv_indev_scroll.c **** 
 178:Drivers/lvgl/src/core/lv_indev_scroll.c ****     /*Check if the scroll has finished*/
 179:Drivers/lvgl/src/core/lv_indev_scroll.c ****     if(proc->types.pointer.scroll_throw_vect.x == 0 && proc->types.pointer.scroll_throw_vect.y == 0
 180:Drivers/lvgl/src/core/lv_indev_scroll.c ****         /*Revert if scrolled in*/
 181:Drivers/lvgl/src/core/lv_indev_scroll.c ****         /*If vertically scrollable and not controlled by snap*/
 182:Drivers/lvgl/src/core/lv_indev_scroll.c ****         if(align_y == LV_SCROLL_SNAP_NONE) {
 183:Drivers/lvgl/src/core/lv_indev_scroll.c ****             lv_coord_t st = lv_obj_get_scroll_top(scroll_obj);
 184:Drivers/lvgl/src/core/lv_indev_scroll.c ****             lv_coord_t sb = lv_obj_get_scroll_bottom(scroll_obj);
 185:Drivers/lvgl/src/core/lv_indev_scroll.c ****             if(st > 0 || sb > 0) {
 186:Drivers/lvgl/src/core/lv_indev_scroll.c ****                 if(st < 0) {
 187:Drivers/lvgl/src/core/lv_indev_scroll.c ****                     lv_obj_scroll_by(scroll_obj, 0, st, LV_ANIM_ON);
 188:Drivers/lvgl/src/core/lv_indev_scroll.c ****                 }
 189:Drivers/lvgl/src/core/lv_indev_scroll.c ****                 else if(sb < 0) {
 190:Drivers/lvgl/src/core/lv_indev_scroll.c ****                     lv_obj_scroll_by(scroll_obj, 0, -sb, LV_ANIM_ON);
 191:Drivers/lvgl/src/core/lv_indev_scroll.c ****                 }
 192:Drivers/lvgl/src/core/lv_indev_scroll.c ****             }
 193:Drivers/lvgl/src/core/lv_indev_scroll.c ****         }
 194:Drivers/lvgl/src/core/lv_indev_scroll.c **** 
 195:Drivers/lvgl/src/core/lv_indev_scroll.c ****         /*If horizontally scrollable and not controlled by snap*/
 196:Drivers/lvgl/src/core/lv_indev_scroll.c ****         if(align_x == LV_SCROLL_SNAP_NONE) {
 197:Drivers/lvgl/src/core/lv_indev_scroll.c ****             lv_coord_t sl = lv_obj_get_scroll_left(scroll_obj);
 198:Drivers/lvgl/src/core/lv_indev_scroll.c ****             lv_coord_t sr = lv_obj_get_scroll_right(scroll_obj);
 199:Drivers/lvgl/src/core/lv_indev_scroll.c ****             if(sl > 0 || sr > 0) {
 200:Drivers/lvgl/src/core/lv_indev_scroll.c ****                 if(sl < 0) {
ARM GAS  /var/folders/0z/tsy30v1j4xl4_7kw94k978ww0000gn/T//cc3yoOHj.s 			page 5


 201:Drivers/lvgl/src/core/lv_indev_scroll.c ****                     lv_obj_scroll_by(scroll_obj, sl, 0, LV_ANIM_ON);
 202:Drivers/lvgl/src/core/lv_indev_scroll.c ****                 }
 203:Drivers/lvgl/src/core/lv_indev_scroll.c ****                 else if(sr < 0) {
 204:Drivers/lvgl/src/core/lv_indev_scroll.c ****                     lv_obj_scroll_by(scroll_obj, -sr, 0, LV_ANIM_ON);
 205:Drivers/lvgl/src/core/lv_indev_scroll.c ****                 }
 206:Drivers/lvgl/src/core/lv_indev_scroll.c ****             }
 207:Drivers/lvgl/src/core/lv_indev_scroll.c ****         }
 208:Drivers/lvgl/src/core/lv_indev_scroll.c **** 
 209:Drivers/lvgl/src/core/lv_indev_scroll.c ****         lv_event_send(scroll_obj, LV_EVENT_SCROLL_END, indev_act);
 210:Drivers/lvgl/src/core/lv_indev_scroll.c ****         if(proc->reset_query) return;
 211:Drivers/lvgl/src/core/lv_indev_scroll.c **** 
 212:Drivers/lvgl/src/core/lv_indev_scroll.c ****         proc->types.pointer.scroll_dir = LV_DIR_NONE;
 213:Drivers/lvgl/src/core/lv_indev_scroll.c ****         proc->types.pointer.scroll_obj = NULL;
 214:Drivers/lvgl/src/core/lv_indev_scroll.c ****     }
 215:Drivers/lvgl/src/core/lv_indev_scroll.c **** }
 216:Drivers/lvgl/src/core/lv_indev_scroll.c **** 
 217:Drivers/lvgl/src/core/lv_indev_scroll.c **** /**
 218:Drivers/lvgl/src/core/lv_indev_scroll.c ****  * Predict where would a scroll throw end
 219:Drivers/lvgl/src/core/lv_indev_scroll.c ****  * @param indev pointer to an input device
 220:Drivers/lvgl/src/core/lv_indev_scroll.c ****  * @param dir `LV_DIR_VER` or `LV_DIR_HOR`
 221:Drivers/lvgl/src/core/lv_indev_scroll.c ****  * @return the difference compared to the current position when the throw would be finished
 222:Drivers/lvgl/src/core/lv_indev_scroll.c ****  */
 223:Drivers/lvgl/src/core/lv_indev_scroll.c **** lv_coord_t lv_indev_scroll_throw_predict(lv_indev_t * indev, lv_dir_t dir)
 224:Drivers/lvgl/src/core/lv_indev_scroll.c **** {
 225:Drivers/lvgl/src/core/lv_indev_scroll.c ****     if(indev == NULL) return 0;
 226:Drivers/lvgl/src/core/lv_indev_scroll.c ****     lv_coord_t v;
 227:Drivers/lvgl/src/core/lv_indev_scroll.c ****     switch(dir) {
 228:Drivers/lvgl/src/core/lv_indev_scroll.c ****         case LV_DIR_VER:
 229:Drivers/lvgl/src/core/lv_indev_scroll.c ****             v = indev->proc.types.pointer.scroll_throw_vect_ori.y;
 230:Drivers/lvgl/src/core/lv_indev_scroll.c ****             break;
 231:Drivers/lvgl/src/core/lv_indev_scroll.c ****         case LV_DIR_HOR:
 232:Drivers/lvgl/src/core/lv_indev_scroll.c ****             v = indev->proc.types.pointer.scroll_throw_vect_ori.x;
 233:Drivers/lvgl/src/core/lv_indev_scroll.c ****             break;
 234:Drivers/lvgl/src/core/lv_indev_scroll.c ****         default:
 235:Drivers/lvgl/src/core/lv_indev_scroll.c ****             return 0;
 236:Drivers/lvgl/src/core/lv_indev_scroll.c ****     }
 237:Drivers/lvgl/src/core/lv_indev_scroll.c **** 
 238:Drivers/lvgl/src/core/lv_indev_scroll.c ****     lv_coord_t scroll_throw = indev->driver->scroll_throw;
 239:Drivers/lvgl/src/core/lv_indev_scroll.c ****     lv_coord_t sum = 0;
 240:Drivers/lvgl/src/core/lv_indev_scroll.c ****     while(v) {
 241:Drivers/lvgl/src/core/lv_indev_scroll.c ****         sum += v;
 242:Drivers/lvgl/src/core/lv_indev_scroll.c ****         v = v * (100 - scroll_throw) / 100;
 243:Drivers/lvgl/src/core/lv_indev_scroll.c ****     }
 244:Drivers/lvgl/src/core/lv_indev_scroll.c **** 
 245:Drivers/lvgl/src/core/lv_indev_scroll.c ****     return sum;
 246:Drivers/lvgl/src/core/lv_indev_scroll.c **** }
 247:Drivers/lvgl/src/core/lv_indev_scroll.c **** 
 248:Drivers/lvgl/src/core/lv_indev_scroll.c **** void lv_indev_scroll_get_snap_dist(lv_obj_t * obj, lv_point_t * p)
 249:Drivers/lvgl/src/core/lv_indev_scroll.c **** {
 250:Drivers/lvgl/src/core/lv_indev_scroll.c ****     p->x = find_snap_point_x(obj, obj->coords.x1, obj->coords.x2, 0);
 251:Drivers/lvgl/src/core/lv_indev_scroll.c ****     p->y = find_snap_point_y(obj, obj->coords.y1, obj->coords.y2, 0);
 252:Drivers/lvgl/src/core/lv_indev_scroll.c **** }
 253:Drivers/lvgl/src/core/lv_indev_scroll.c **** 
 254:Drivers/lvgl/src/core/lv_indev_scroll.c **** /**********************
 255:Drivers/lvgl/src/core/lv_indev_scroll.c ****  *   STATIC FUNCTIONS
 256:Drivers/lvgl/src/core/lv_indev_scroll.c ****  **********************/
 257:Drivers/lvgl/src/core/lv_indev_scroll.c **** 
ARM GAS  /var/folders/0z/tsy30v1j4xl4_7kw94k978ww0000gn/T//cc3yoOHj.s 			page 6


 258:Drivers/lvgl/src/core/lv_indev_scroll.c **** static lv_obj_t * find_scroll_obj(_lv_indev_proc_t * proc)
 259:Drivers/lvgl/src/core/lv_indev_scroll.c **** {
 260:Drivers/lvgl/src/core/lv_indev_scroll.c ****     lv_obj_t * obj_candidate = NULL;
 261:Drivers/lvgl/src/core/lv_indev_scroll.c ****     lv_dir_t dir_candidate = LV_DIR_NONE;
 262:Drivers/lvgl/src/core/lv_indev_scroll.c ****     lv_indev_t * indev_act = lv_indev_get_act();
 263:Drivers/lvgl/src/core/lv_indev_scroll.c ****     lv_coord_t scroll_limit = indev_act->driver->scroll_limit;
 264:Drivers/lvgl/src/core/lv_indev_scroll.c **** 
 265:Drivers/lvgl/src/core/lv_indev_scroll.c ****     /*Go until find a scrollable object in the current direction
 266:Drivers/lvgl/src/core/lv_indev_scroll.c ****      *More precisely:
 267:Drivers/lvgl/src/core/lv_indev_scroll.c ****      * 1. Check the pressed object and all of its ancestors and try to find an object which is scro
 268:Drivers/lvgl/src/core/lv_indev_scroll.c ****      * 2. Scrollable means it has some content out of its area
 269:Drivers/lvgl/src/core/lv_indev_scroll.c ****      * 3. If an object can be scrolled into the current direction then use it ("real match"")
 270:Drivers/lvgl/src/core/lv_indev_scroll.c ****      * 4. If can be scrolled on the current axis (hor/ver) save it as candidate (at least show an e
 271:Drivers/lvgl/src/core/lv_indev_scroll.c ****      * 5. Use the last candidate. Always the "deepest" parent or the object from point 3*/
 272:Drivers/lvgl/src/core/lv_indev_scroll.c ****     lv_obj_t * obj_act = proc->types.pointer.act_obj;
 273:Drivers/lvgl/src/core/lv_indev_scroll.c **** 
 274:Drivers/lvgl/src/core/lv_indev_scroll.c ****     /*Decide if it's a horizontal or vertical scroll*/
 275:Drivers/lvgl/src/core/lv_indev_scroll.c ****     bool hor_en = false;
 276:Drivers/lvgl/src/core/lv_indev_scroll.c ****     bool ver_en = false;
 277:Drivers/lvgl/src/core/lv_indev_scroll.c **** 
 278:Drivers/lvgl/src/core/lv_indev_scroll.c ****     proc->types.pointer.scroll_sum.x += proc->types.pointer.vect.x;
 279:Drivers/lvgl/src/core/lv_indev_scroll.c ****     proc->types.pointer.scroll_sum.y += proc->types.pointer.vect.y;
 280:Drivers/lvgl/src/core/lv_indev_scroll.c **** 
 281:Drivers/lvgl/src/core/lv_indev_scroll.c ****     while(obj_act) {
 282:Drivers/lvgl/src/core/lv_indev_scroll.c ****         /*Get the transformed scroll_sum with this object*/
 283:Drivers/lvgl/src/core/lv_indev_scroll.c ****         int16_t angle = 0;
 284:Drivers/lvgl/src/core/lv_indev_scroll.c ****         int32_t zoom = 256;
 285:Drivers/lvgl/src/core/lv_indev_scroll.c ****         lv_point_t pivot = { 0, 0 };
 286:Drivers/lvgl/src/core/lv_indev_scroll.c ****         lv_obj_t * parent = obj_act;
 287:Drivers/lvgl/src/core/lv_indev_scroll.c ****         while(parent) {
 288:Drivers/lvgl/src/core/lv_indev_scroll.c ****             angle += lv_obj_get_style_transform_angle(parent, 0);
 289:Drivers/lvgl/src/core/lv_indev_scroll.c ****             int32_t zoom_act = lv_obj_get_style_transform_zoom(parent, 0);
 290:Drivers/lvgl/src/core/lv_indev_scroll.c ****             zoom = (zoom * zoom_act) >> 8;
 291:Drivers/lvgl/src/core/lv_indev_scroll.c ****             parent = lv_obj_get_parent(parent);
 292:Drivers/lvgl/src/core/lv_indev_scroll.c ****         }
 293:Drivers/lvgl/src/core/lv_indev_scroll.c **** 
 294:Drivers/lvgl/src/core/lv_indev_scroll.c ****         lv_point_t obj_scroll_sum = proc->types.pointer.scroll_sum;
 295:Drivers/lvgl/src/core/lv_indev_scroll.c ****         if(angle != 0 || zoom != LV_IMG_ZOOM_NONE) {
 296:Drivers/lvgl/src/core/lv_indev_scroll.c ****             angle = -angle;
 297:Drivers/lvgl/src/core/lv_indev_scroll.c ****             zoom = (256 * 256) / zoom;
 298:Drivers/lvgl/src/core/lv_indev_scroll.c ****             lv_point_transform(&obj_scroll_sum, angle, zoom, &pivot);
 299:Drivers/lvgl/src/core/lv_indev_scroll.c ****         }
 300:Drivers/lvgl/src/core/lv_indev_scroll.c **** 
 301:Drivers/lvgl/src/core/lv_indev_scroll.c ****         if(LV_ABS(obj_scroll_sum.x) > LV_ABS(obj_scroll_sum.y)) {
 302:Drivers/lvgl/src/core/lv_indev_scroll.c ****             hor_en = true;
 303:Drivers/lvgl/src/core/lv_indev_scroll.c ****         }
 304:Drivers/lvgl/src/core/lv_indev_scroll.c ****         else {
 305:Drivers/lvgl/src/core/lv_indev_scroll.c ****             ver_en = true;
 306:Drivers/lvgl/src/core/lv_indev_scroll.c ****         }
 307:Drivers/lvgl/src/core/lv_indev_scroll.c **** 
 308:Drivers/lvgl/src/core/lv_indev_scroll.c ****         if(lv_obj_has_flag(obj_act, LV_OBJ_FLAG_SCROLLABLE) == false) {
 309:Drivers/lvgl/src/core/lv_indev_scroll.c ****             /*If this object don't want to chain the scroll to the parent stop searching*/
 310:Drivers/lvgl/src/core/lv_indev_scroll.c ****             if(lv_obj_has_flag(obj_act, LV_OBJ_FLAG_SCROLL_CHAIN_HOR) == false && hor_en) break;
 311:Drivers/lvgl/src/core/lv_indev_scroll.c ****             if(lv_obj_has_flag(obj_act, LV_OBJ_FLAG_SCROLL_CHAIN_VER) == false && ver_en) break;
 312:Drivers/lvgl/src/core/lv_indev_scroll.c **** 
 313:Drivers/lvgl/src/core/lv_indev_scroll.c ****             obj_act = lv_obj_get_parent(obj_act);
 314:Drivers/lvgl/src/core/lv_indev_scroll.c ****             continue;
ARM GAS  /var/folders/0z/tsy30v1j4xl4_7kw94k978ww0000gn/T//cc3yoOHj.s 			page 7


 315:Drivers/lvgl/src/core/lv_indev_scroll.c ****         }
 316:Drivers/lvgl/src/core/lv_indev_scroll.c **** 
 317:Drivers/lvgl/src/core/lv_indev_scroll.c ****         /*Consider both up-down or left/right scrollable according to the current direction*/
 318:Drivers/lvgl/src/core/lv_indev_scroll.c ****         bool up_en = ver_en;
 319:Drivers/lvgl/src/core/lv_indev_scroll.c ****         bool down_en = ver_en;
 320:Drivers/lvgl/src/core/lv_indev_scroll.c ****         bool left_en = hor_en;
 321:Drivers/lvgl/src/core/lv_indev_scroll.c ****         bool right_en = hor_en;
 322:Drivers/lvgl/src/core/lv_indev_scroll.c **** 
 323:Drivers/lvgl/src/core/lv_indev_scroll.c ****         /*The object might have disabled some directions.*/
 324:Drivers/lvgl/src/core/lv_indev_scroll.c ****         lv_dir_t scroll_dir = lv_obj_get_scroll_dir(obj_act);
 325:Drivers/lvgl/src/core/lv_indev_scroll.c ****         if((scroll_dir & LV_DIR_LEFT) == 0) left_en = false;
 326:Drivers/lvgl/src/core/lv_indev_scroll.c ****         if((scroll_dir & LV_DIR_RIGHT) == 0) right_en = false;
 327:Drivers/lvgl/src/core/lv_indev_scroll.c ****         if((scroll_dir & LV_DIR_TOP) == 0) up_en = false;
 328:Drivers/lvgl/src/core/lv_indev_scroll.c ****         if((scroll_dir & LV_DIR_BOTTOM) == 0) down_en = false;
 329:Drivers/lvgl/src/core/lv_indev_scroll.c **** 
 330:Drivers/lvgl/src/core/lv_indev_scroll.c ****         /*The object is scrollable to a direction if its content overflow in that direction.*/
 331:Drivers/lvgl/src/core/lv_indev_scroll.c ****         lv_coord_t st = lv_obj_get_scroll_top(obj_act);
 332:Drivers/lvgl/src/core/lv_indev_scroll.c ****         lv_coord_t sb = lv_obj_get_scroll_bottom(obj_act);
 333:Drivers/lvgl/src/core/lv_indev_scroll.c ****         lv_coord_t sl = lv_obj_get_scroll_left(obj_act);
 334:Drivers/lvgl/src/core/lv_indev_scroll.c ****         lv_coord_t sr = lv_obj_get_scroll_right(obj_act);
 335:Drivers/lvgl/src/core/lv_indev_scroll.c **** 
 336:Drivers/lvgl/src/core/lv_indev_scroll.c ****         /*If this object is scrollable into the current scroll direction then save it as a candidat
 337:Drivers/lvgl/src/core/lv_indev_scroll.c ****          *It's important only to be scrollable on the current axis (hor/ver) because if the scroll
 338:Drivers/lvgl/src/core/lv_indev_scroll.c ****          *is propagated to this object it can show at least elastic scroll effect.
 339:Drivers/lvgl/src/core/lv_indev_scroll.c ****          *But if not hor/ver scrollable do not scroll it at all (so it's not a good candidate)*/
 340:Drivers/lvgl/src/core/lv_indev_scroll.c ****         if((st > 0 || sb > 0)  &&
 341:Drivers/lvgl/src/core/lv_indev_scroll.c ****            ((up_en    && obj_scroll_sum.y >=   scroll_limit) ||
 342:Drivers/lvgl/src/core/lv_indev_scroll.c ****             (down_en  && obj_scroll_sum.y <= - scroll_limit))) {
 343:Drivers/lvgl/src/core/lv_indev_scroll.c ****             obj_candidate = obj_act;
 344:Drivers/lvgl/src/core/lv_indev_scroll.c ****             dir_candidate = LV_DIR_VER;
 345:Drivers/lvgl/src/core/lv_indev_scroll.c ****         }
 346:Drivers/lvgl/src/core/lv_indev_scroll.c **** 
 347:Drivers/lvgl/src/core/lv_indev_scroll.c ****         if((sl > 0 || sr > 0)  &&
 348:Drivers/lvgl/src/core/lv_indev_scroll.c ****            ((left_en   && obj_scroll_sum.x >=   scroll_limit) ||
 349:Drivers/lvgl/src/core/lv_indev_scroll.c ****             (right_en  && obj_scroll_sum.x <= - scroll_limit))) {
 350:Drivers/lvgl/src/core/lv_indev_scroll.c ****             obj_candidate = obj_act;
 351:Drivers/lvgl/src/core/lv_indev_scroll.c ****             dir_candidate = LV_DIR_HOR;
 352:Drivers/lvgl/src/core/lv_indev_scroll.c ****         }
 353:Drivers/lvgl/src/core/lv_indev_scroll.c **** 
 354:Drivers/lvgl/src/core/lv_indev_scroll.c ****         if(st <= 0) up_en = false;
 355:Drivers/lvgl/src/core/lv_indev_scroll.c ****         if(sb <= 0) down_en = false;
 356:Drivers/lvgl/src/core/lv_indev_scroll.c ****         if(sl <= 0) left_en = false;
 357:Drivers/lvgl/src/core/lv_indev_scroll.c ****         if(sr <= 0) right_en = false;
 358:Drivers/lvgl/src/core/lv_indev_scroll.c **** 
 359:Drivers/lvgl/src/core/lv_indev_scroll.c ****         /*If the object really can be scrolled into the current direction then use it.*/
 360:Drivers/lvgl/src/core/lv_indev_scroll.c ****         if((left_en  && obj_scroll_sum.x >=   scroll_limit) ||
 361:Drivers/lvgl/src/core/lv_indev_scroll.c ****            (right_en && obj_scroll_sum.x <= - scroll_limit) ||
 362:Drivers/lvgl/src/core/lv_indev_scroll.c ****            (up_en    && obj_scroll_sum.y >=   scroll_limit) ||
 363:Drivers/lvgl/src/core/lv_indev_scroll.c ****            (down_en  && obj_scroll_sum.y <= - scroll_limit)) {
 364:Drivers/lvgl/src/core/lv_indev_scroll.c ****             proc->types.pointer.scroll_dir = hor_en ? LV_DIR_HOR : LV_DIR_VER;
 365:Drivers/lvgl/src/core/lv_indev_scroll.c ****             break;
 366:Drivers/lvgl/src/core/lv_indev_scroll.c ****         }
 367:Drivers/lvgl/src/core/lv_indev_scroll.c **** 
 368:Drivers/lvgl/src/core/lv_indev_scroll.c ****         /*If this object don't want to chain the scroll to the parent stop searching*/
 369:Drivers/lvgl/src/core/lv_indev_scroll.c ****         if(lv_obj_has_flag(obj_act, LV_OBJ_FLAG_SCROLL_CHAIN_HOR) == false && hor_en) break;
 370:Drivers/lvgl/src/core/lv_indev_scroll.c ****         if(lv_obj_has_flag(obj_act, LV_OBJ_FLAG_SCROLL_CHAIN_VER) == false && ver_en) break;
 371:Drivers/lvgl/src/core/lv_indev_scroll.c **** 
ARM GAS  /var/folders/0z/tsy30v1j4xl4_7kw94k978ww0000gn/T//cc3yoOHj.s 			page 8


 372:Drivers/lvgl/src/core/lv_indev_scroll.c ****         /*Try the parent*/
 373:Drivers/lvgl/src/core/lv_indev_scroll.c ****         obj_act = lv_obj_get_parent(obj_act);
 374:Drivers/lvgl/src/core/lv_indev_scroll.c ****     }
 375:Drivers/lvgl/src/core/lv_indev_scroll.c **** 
 376:Drivers/lvgl/src/core/lv_indev_scroll.c ****     /*Use the last candidate*/
 377:Drivers/lvgl/src/core/lv_indev_scroll.c ****     if(obj_candidate) {
 378:Drivers/lvgl/src/core/lv_indev_scroll.c ****         proc->types.pointer.scroll_dir = dir_candidate;
 379:Drivers/lvgl/src/core/lv_indev_scroll.c ****         proc->types.pointer.scroll_obj = obj_candidate;
 380:Drivers/lvgl/src/core/lv_indev_scroll.c ****         proc->types.pointer.scroll_sum.x = 0;
 381:Drivers/lvgl/src/core/lv_indev_scroll.c ****         proc->types.pointer.scroll_sum.y = 0;
 382:Drivers/lvgl/src/core/lv_indev_scroll.c ****     }
 383:Drivers/lvgl/src/core/lv_indev_scroll.c **** 
 384:Drivers/lvgl/src/core/lv_indev_scroll.c ****     return obj_candidate;
 385:Drivers/lvgl/src/core/lv_indev_scroll.c **** }
 386:Drivers/lvgl/src/core/lv_indev_scroll.c **** 
 387:Drivers/lvgl/src/core/lv_indev_scroll.c **** static void init_scroll_limits(_lv_indev_proc_t * proc)
 388:Drivers/lvgl/src/core/lv_indev_scroll.c **** {
 389:Drivers/lvgl/src/core/lv_indev_scroll.c ****     lv_obj_t * obj = proc->types.pointer.scroll_obj;
 390:Drivers/lvgl/src/core/lv_indev_scroll.c ****     /*If there no STOP allow scrolling anywhere*/
 391:Drivers/lvgl/src/core/lv_indev_scroll.c ****     if(lv_obj_has_flag(obj, LV_OBJ_FLAG_SCROLL_ONE) == false) {
 392:Drivers/lvgl/src/core/lv_indev_scroll.c ****         lv_area_set(&proc->types.pointer.scroll_area, LV_COORD_MIN, LV_COORD_MIN, LV_COORD_MAX, LV_
 393:Drivers/lvgl/src/core/lv_indev_scroll.c ****     }
 394:Drivers/lvgl/src/core/lv_indev_scroll.c ****     /*With STOP limit the scrolling to the perv and next snap point*/
 395:Drivers/lvgl/src/core/lv_indev_scroll.c ****     else {
 396:Drivers/lvgl/src/core/lv_indev_scroll.c ****         switch(lv_obj_get_scroll_snap_y(obj)) {
 397:Drivers/lvgl/src/core/lv_indev_scroll.c ****             case LV_SCROLL_SNAP_START:
 398:Drivers/lvgl/src/core/lv_indev_scroll.c ****                 proc->types.pointer.scroll_area.y1 = find_snap_point_y(obj, obj->coords.y1 + 1, LV_
 399:Drivers/lvgl/src/core/lv_indev_scroll.c ****                 proc->types.pointer.scroll_area.y2 = find_snap_point_y(obj, LV_COORD_MIN, obj->coor
 400:Drivers/lvgl/src/core/lv_indev_scroll.c ****                 break;
 401:Drivers/lvgl/src/core/lv_indev_scroll.c ****             case LV_SCROLL_SNAP_END:
 402:Drivers/lvgl/src/core/lv_indev_scroll.c ****                 proc->types.pointer.scroll_area.y1 = find_snap_point_y(obj, obj->coords.y2, LV_COOR
 403:Drivers/lvgl/src/core/lv_indev_scroll.c ****                 proc->types.pointer.scroll_area.y2 = find_snap_point_y(obj, LV_COORD_MIN, obj->coor
 404:Drivers/lvgl/src/core/lv_indev_scroll.c ****                 break;
 405:Drivers/lvgl/src/core/lv_indev_scroll.c ****             case LV_SCROLL_SNAP_CENTER: {
 406:Drivers/lvgl/src/core/lv_indev_scroll.c ****                     lv_coord_t y_mid = obj->coords.y1 + lv_area_get_height(&obj->coords) / 2;
 407:Drivers/lvgl/src/core/lv_indev_scroll.c ****                     proc->types.pointer.scroll_area.y1 = find_snap_point_y(obj, y_mid + 1, LV_COORD
 408:Drivers/lvgl/src/core/lv_indev_scroll.c ****                     proc->types.pointer.scroll_area.y2 = find_snap_point_y(obj, LV_COORD_MIN, y_mid
 409:Drivers/lvgl/src/core/lv_indev_scroll.c ****                     break;
 410:Drivers/lvgl/src/core/lv_indev_scroll.c ****                 }
 411:Drivers/lvgl/src/core/lv_indev_scroll.c ****             default:
 412:Drivers/lvgl/src/core/lv_indev_scroll.c ****                 proc->types.pointer.scroll_area.y1 = LV_COORD_MIN;
 413:Drivers/lvgl/src/core/lv_indev_scroll.c ****                 proc->types.pointer.scroll_area.y2 = LV_COORD_MAX;
 414:Drivers/lvgl/src/core/lv_indev_scroll.c ****                 break;
 415:Drivers/lvgl/src/core/lv_indev_scroll.c ****         }
 416:Drivers/lvgl/src/core/lv_indev_scroll.c **** 
 417:Drivers/lvgl/src/core/lv_indev_scroll.c ****         switch(lv_obj_get_scroll_snap_x(obj)) {
 418:Drivers/lvgl/src/core/lv_indev_scroll.c ****             case LV_SCROLL_SNAP_START:
 419:Drivers/lvgl/src/core/lv_indev_scroll.c ****                 proc->types.pointer.scroll_area.x1 = find_snap_point_x(obj, obj->coords.x1, LV_COOR
 420:Drivers/lvgl/src/core/lv_indev_scroll.c ****                 proc->types.pointer.scroll_area.x2 = find_snap_point_x(obj, LV_COORD_MIN, obj->coor
 421:Drivers/lvgl/src/core/lv_indev_scroll.c ****                 break;
 422:Drivers/lvgl/src/core/lv_indev_scroll.c ****             case LV_SCROLL_SNAP_END:
 423:Drivers/lvgl/src/core/lv_indev_scroll.c ****                 proc->types.pointer.scroll_area.x1 = find_snap_point_x(obj, obj->coords.x2, LV_COOR
 424:Drivers/lvgl/src/core/lv_indev_scroll.c ****                 proc->types.pointer.scroll_area.x2 = find_snap_point_x(obj, LV_COORD_MIN, obj->coor
 425:Drivers/lvgl/src/core/lv_indev_scroll.c ****                 break;
 426:Drivers/lvgl/src/core/lv_indev_scroll.c ****             case LV_SCROLL_SNAP_CENTER: {
 427:Drivers/lvgl/src/core/lv_indev_scroll.c ****                     lv_coord_t x_mid = obj->coords.x1 + lv_area_get_width(&obj->coords) / 2;
 428:Drivers/lvgl/src/core/lv_indev_scroll.c ****                     proc->types.pointer.scroll_area.x1 = find_snap_point_x(obj, x_mid + 1, LV_COORD
ARM GAS  /var/folders/0z/tsy30v1j4xl4_7kw94k978ww0000gn/T//cc3yoOHj.s 			page 9


 429:Drivers/lvgl/src/core/lv_indev_scroll.c ****                     proc->types.pointer.scroll_area.x2 = find_snap_point_x(obj, LV_COORD_MIN, x_mid
 430:Drivers/lvgl/src/core/lv_indev_scroll.c ****                     break;
 431:Drivers/lvgl/src/core/lv_indev_scroll.c ****                 }
 432:Drivers/lvgl/src/core/lv_indev_scroll.c ****             default:
 433:Drivers/lvgl/src/core/lv_indev_scroll.c ****                 proc->types.pointer.scroll_area.x1 = LV_COORD_MIN;
 434:Drivers/lvgl/src/core/lv_indev_scroll.c ****                 proc->types.pointer.scroll_area.x2 = LV_COORD_MAX;
 435:Drivers/lvgl/src/core/lv_indev_scroll.c ****                 break;
 436:Drivers/lvgl/src/core/lv_indev_scroll.c ****         }
 437:Drivers/lvgl/src/core/lv_indev_scroll.c ****     }
 438:Drivers/lvgl/src/core/lv_indev_scroll.c **** 
 439:Drivers/lvgl/src/core/lv_indev_scroll.c ****     /*Allow scrolling on the edges. It will be reverted to the edge due to snapping anyway*/
 440:Drivers/lvgl/src/core/lv_indev_scroll.c ****     if(proc->types.pointer.scroll_area.x1 == 0) proc->types.pointer.scroll_area.x1 = LV_COORD_MIN;
 441:Drivers/lvgl/src/core/lv_indev_scroll.c ****     if(proc->types.pointer.scroll_area.x2 == 0) proc->types.pointer.scroll_area.x2 = LV_COORD_MAX;
 442:Drivers/lvgl/src/core/lv_indev_scroll.c ****     if(proc->types.pointer.scroll_area.y1 == 0) proc->types.pointer.scroll_area.y1 = LV_COORD_MIN;
 443:Drivers/lvgl/src/core/lv_indev_scroll.c ****     if(proc->types.pointer.scroll_area.y2 == 0) proc->types.pointer.scroll_area.y2 = LV_COORD_MAX;
 444:Drivers/lvgl/src/core/lv_indev_scroll.c **** }
 445:Drivers/lvgl/src/core/lv_indev_scroll.c **** 
 446:Drivers/lvgl/src/core/lv_indev_scroll.c **** /**
 447:Drivers/lvgl/src/core/lv_indev_scroll.c ****  * Search for snap point in the `min` - `max` range.
 448:Drivers/lvgl/src/core/lv_indev_scroll.c ****  * @param obj the object on which snap point should be found
 449:Drivers/lvgl/src/core/lv_indev_scroll.c ****  * @param min ignore snap points smaller than this. (Absolute coordinate)
 450:Drivers/lvgl/src/core/lv_indev_scroll.c ****  * @param max ignore snap points greater than this. (Absolute coordinate)
 451:Drivers/lvgl/src/core/lv_indev_scroll.c ****  * @param ofs offset to snap points. Useful the get a snap point in an imagined case
 452:Drivers/lvgl/src/core/lv_indev_scroll.c ****  *            what if children are already moved by this value
 453:Drivers/lvgl/src/core/lv_indev_scroll.c ****  * @return the distance of the snap point.
 454:Drivers/lvgl/src/core/lv_indev_scroll.c ****  */
 455:Drivers/lvgl/src/core/lv_indev_scroll.c **** static lv_coord_t find_snap_point_x(const lv_obj_t * obj, lv_coord_t min, lv_coord_t max, lv_coord_
 456:Drivers/lvgl/src/core/lv_indev_scroll.c **** {
 457:Drivers/lvgl/src/core/lv_indev_scroll.c ****     lv_scroll_snap_t align = lv_obj_get_scroll_snap_x(obj);
 458:Drivers/lvgl/src/core/lv_indev_scroll.c ****     if(align == LV_SCROLL_SNAP_NONE) return 0;
 459:Drivers/lvgl/src/core/lv_indev_scroll.c **** 
 460:Drivers/lvgl/src/core/lv_indev_scroll.c ****     lv_coord_t dist = LV_COORD_MAX;
 461:Drivers/lvgl/src/core/lv_indev_scroll.c **** 
 462:Drivers/lvgl/src/core/lv_indev_scroll.c ****     lv_coord_t pad_left = lv_obj_get_style_pad_left(obj, LV_PART_MAIN);
 463:Drivers/lvgl/src/core/lv_indev_scroll.c ****     lv_coord_t pad_right = lv_obj_get_style_pad_right(obj, LV_PART_MAIN);
 464:Drivers/lvgl/src/core/lv_indev_scroll.c **** 
 465:Drivers/lvgl/src/core/lv_indev_scroll.c ****     uint32_t i;
 466:Drivers/lvgl/src/core/lv_indev_scroll.c ****     uint32_t child_cnt = lv_obj_get_child_cnt(obj);
 467:Drivers/lvgl/src/core/lv_indev_scroll.c ****     for(i = 0; i < child_cnt; i++) {
 468:Drivers/lvgl/src/core/lv_indev_scroll.c ****         lv_obj_t * child = obj->spec_attr->children[i];
 469:Drivers/lvgl/src/core/lv_indev_scroll.c ****         if(lv_obj_has_flag_any(child, LV_OBJ_FLAG_HIDDEN | LV_OBJ_FLAG_FLOATING)) continue;
 470:Drivers/lvgl/src/core/lv_indev_scroll.c ****         if(lv_obj_has_flag(child, LV_OBJ_FLAG_SNAPPABLE)) {
 471:Drivers/lvgl/src/core/lv_indev_scroll.c ****             lv_coord_t x_child = 0;
 472:Drivers/lvgl/src/core/lv_indev_scroll.c ****             lv_coord_t x_parent = 0;
 473:Drivers/lvgl/src/core/lv_indev_scroll.c ****             switch(align) {
 474:Drivers/lvgl/src/core/lv_indev_scroll.c ****                 case LV_SCROLL_SNAP_START:
 475:Drivers/lvgl/src/core/lv_indev_scroll.c ****                     x_child = child->coords.x1;
 476:Drivers/lvgl/src/core/lv_indev_scroll.c ****                     x_parent = obj->coords.x1 + pad_left;
 477:Drivers/lvgl/src/core/lv_indev_scroll.c ****                     break;
 478:Drivers/lvgl/src/core/lv_indev_scroll.c ****                 case LV_SCROLL_SNAP_END:
 479:Drivers/lvgl/src/core/lv_indev_scroll.c ****                     x_child = child->coords.x2;
 480:Drivers/lvgl/src/core/lv_indev_scroll.c ****                     x_parent = obj->coords.x2 - pad_right;
 481:Drivers/lvgl/src/core/lv_indev_scroll.c ****                     break;
 482:Drivers/lvgl/src/core/lv_indev_scroll.c ****                 case LV_SCROLL_SNAP_CENTER:
 483:Drivers/lvgl/src/core/lv_indev_scroll.c ****                     x_child = child->coords.x1 + lv_area_get_width(&child->coords) / 2;
 484:Drivers/lvgl/src/core/lv_indev_scroll.c ****                     x_parent = obj->coords.x1 + pad_left + (lv_area_get_width(&obj->coords) - pad_l
 485:Drivers/lvgl/src/core/lv_indev_scroll.c ****                     break;
ARM GAS  /var/folders/0z/tsy30v1j4xl4_7kw94k978ww0000gn/T//cc3yoOHj.s 			page 10


 486:Drivers/lvgl/src/core/lv_indev_scroll.c ****                 default:
 487:Drivers/lvgl/src/core/lv_indev_scroll.c ****                     continue;
 488:Drivers/lvgl/src/core/lv_indev_scroll.c ****             }
 489:Drivers/lvgl/src/core/lv_indev_scroll.c **** 
 490:Drivers/lvgl/src/core/lv_indev_scroll.c ****             x_child += ofs;
 491:Drivers/lvgl/src/core/lv_indev_scroll.c ****             if(x_child >= min && x_child <= max) {
 492:Drivers/lvgl/src/core/lv_indev_scroll.c ****                 lv_coord_t x = x_child -  x_parent;
 493:Drivers/lvgl/src/core/lv_indev_scroll.c ****                 if(LV_ABS(x) < LV_ABS(dist)) dist = x;
 494:Drivers/lvgl/src/core/lv_indev_scroll.c ****             }
 495:Drivers/lvgl/src/core/lv_indev_scroll.c ****         }
 496:Drivers/lvgl/src/core/lv_indev_scroll.c ****     }
 497:Drivers/lvgl/src/core/lv_indev_scroll.c **** 
 498:Drivers/lvgl/src/core/lv_indev_scroll.c ****     return dist == LV_COORD_MAX ? 0 : -dist;
 499:Drivers/lvgl/src/core/lv_indev_scroll.c **** }
 500:Drivers/lvgl/src/core/lv_indev_scroll.c **** 
 501:Drivers/lvgl/src/core/lv_indev_scroll.c **** /**
 502:Drivers/lvgl/src/core/lv_indev_scroll.c ****  * Search for snap point in the `min` - `max` range.
 503:Drivers/lvgl/src/core/lv_indev_scroll.c ****  * @param obj the object on which snap point should be found
 504:Drivers/lvgl/src/core/lv_indev_scroll.c ****  * @param min ignore snap points smaller than this. (Absolute coordinate)
 505:Drivers/lvgl/src/core/lv_indev_scroll.c ****  * @param max ignore snap points greater than this. (Absolute coordinate)
 506:Drivers/lvgl/src/core/lv_indev_scroll.c ****  * @param ofs offset to snap points. Useful to get a snap point in an imagined case
 507:Drivers/lvgl/src/core/lv_indev_scroll.c ****  *            what if children are already moved by this value
 508:Drivers/lvgl/src/core/lv_indev_scroll.c ****  * @return the distance of the snap point.
 509:Drivers/lvgl/src/core/lv_indev_scroll.c ****  */
 510:Drivers/lvgl/src/core/lv_indev_scroll.c **** static lv_coord_t find_snap_point_y(const lv_obj_t * obj, lv_coord_t min, lv_coord_t max, lv_coord_
 511:Drivers/lvgl/src/core/lv_indev_scroll.c **** {
  30              		.loc 1 511 1 view -0
  31              		.cfi_startproc
  32              		@ args = 0, pretend = 0, frame = 24
  33              		@ frame_needed = 0, uses_anonymous_args = 0
 512:Drivers/lvgl/src/core/lv_indev_scroll.c ****     lv_scroll_snap_t align = lv_obj_get_scroll_snap_y(obj);
  34              		.loc 1 512 5 view .LVU1
 511:Drivers/lvgl/src/core/lv_indev_scroll.c ****     lv_scroll_snap_t align = lv_obj_get_scroll_snap_y(obj);
  35              		.loc 1 511 1 is_stmt 0 view .LVU2
  36 0000 2DE9F04F 		push	{r4, r5, r6, r7, r8, r9, r10, fp, lr}
  37              		.cfi_def_cfa_offset 36
  38              		.cfi_offset 4, -36
  39              		.cfi_offset 5, -32
  40              		.cfi_offset 6, -28
  41              		.cfi_offset 7, -24
  42              		.cfi_offset 8, -20
  43              		.cfi_offset 9, -16
  44              		.cfi_offset 10, -12
  45              		.cfi_offset 11, -8
  46              		.cfi_offset 14, -4
  47 0004 87B0     		sub	sp, sp, #28
  48              		.cfi_def_cfa_offset 64
 511:Drivers/lvgl/src/core/lv_indev_scroll.c ****     lv_scroll_snap_t align = lv_obj_get_scroll_snap_y(obj);
  49              		.loc 1 511 1 view .LVU3
  50 0006 0446     		mov	r4, r0
  51 0008 8946     		mov	r9, r1
  52 000a 0092     		str	r2, [sp]
  53 000c 9A46     		mov	r10, r3
  54              		.loc 1 512 30 view .LVU4
  55 000e FFF7FEFF 		bl	lv_obj_get_scroll_snap_y
  56              	.LVL1:
 513:Drivers/lvgl/src/core/lv_indev_scroll.c ****     if(align == LV_SCROLL_SNAP_NONE) return 0;
ARM GAS  /var/folders/0z/tsy30v1j4xl4_7kw94k978ww0000gn/T//cc3yoOHj.s 			page 11


  57              		.loc 1 513 5 is_stmt 1 view .LVU5
  58              		.loc 1 513 7 is_stmt 0 view .LVU6
  59 0012 18B9     		cbnz	r0, .L2
  60              	.LVL2:
  61              	.L4:
  62              		.loc 1 513 45 view .LVU7
  63 0014 0020     		movs	r0, #0
 514:Drivers/lvgl/src/core/lv_indev_scroll.c **** 
 515:Drivers/lvgl/src/core/lv_indev_scroll.c ****     lv_coord_t dist = LV_COORD_MAX;
 516:Drivers/lvgl/src/core/lv_indev_scroll.c **** 
 517:Drivers/lvgl/src/core/lv_indev_scroll.c ****     lv_coord_t pad_top = lv_obj_get_style_pad_top(obj, LV_PART_MAIN);
 518:Drivers/lvgl/src/core/lv_indev_scroll.c ****     lv_coord_t pad_bottom = lv_obj_get_style_pad_bottom(obj, LV_PART_MAIN);
 519:Drivers/lvgl/src/core/lv_indev_scroll.c **** 
 520:Drivers/lvgl/src/core/lv_indev_scroll.c ****     uint32_t i;
 521:Drivers/lvgl/src/core/lv_indev_scroll.c ****     uint32_t child_cnt = lv_obj_get_child_cnt(obj);
 522:Drivers/lvgl/src/core/lv_indev_scroll.c ****     for(i = 0; i < child_cnt; i++) {
 523:Drivers/lvgl/src/core/lv_indev_scroll.c ****         lv_obj_t * child = obj->spec_attr->children[i];
 524:Drivers/lvgl/src/core/lv_indev_scroll.c ****         if(lv_obj_has_flag_any(child, LV_OBJ_FLAG_HIDDEN | LV_OBJ_FLAG_FLOATING)) continue;
 525:Drivers/lvgl/src/core/lv_indev_scroll.c ****         if(lv_obj_has_flag(child, LV_OBJ_FLAG_SNAPPABLE)) {
 526:Drivers/lvgl/src/core/lv_indev_scroll.c ****             lv_coord_t y_child = 0;
 527:Drivers/lvgl/src/core/lv_indev_scroll.c ****             lv_coord_t y_parent = 0;
 528:Drivers/lvgl/src/core/lv_indev_scroll.c ****             switch(align) {
 529:Drivers/lvgl/src/core/lv_indev_scroll.c ****                 case LV_SCROLL_SNAP_START:
 530:Drivers/lvgl/src/core/lv_indev_scroll.c ****                     y_child = child->coords.y1;
 531:Drivers/lvgl/src/core/lv_indev_scroll.c ****                     y_parent = obj->coords.y1 + pad_top;
 532:Drivers/lvgl/src/core/lv_indev_scroll.c ****                     break;
 533:Drivers/lvgl/src/core/lv_indev_scroll.c ****                 case LV_SCROLL_SNAP_END:
 534:Drivers/lvgl/src/core/lv_indev_scroll.c ****                     y_child = child->coords.y2;
 535:Drivers/lvgl/src/core/lv_indev_scroll.c ****                     y_parent = obj->coords.y2 - pad_bottom;
 536:Drivers/lvgl/src/core/lv_indev_scroll.c ****                     break;
 537:Drivers/lvgl/src/core/lv_indev_scroll.c ****                 case LV_SCROLL_SNAP_CENTER:
 538:Drivers/lvgl/src/core/lv_indev_scroll.c ****                     y_child = child->coords.y1 + lv_area_get_height(&child->coords) / 2;
 539:Drivers/lvgl/src/core/lv_indev_scroll.c ****                     y_parent = obj->coords.y1 + pad_top + (lv_area_get_height(&obj->coords) - pad_t
 540:Drivers/lvgl/src/core/lv_indev_scroll.c ****                     break;
 541:Drivers/lvgl/src/core/lv_indev_scroll.c ****                 default:
 542:Drivers/lvgl/src/core/lv_indev_scroll.c ****                     continue;
 543:Drivers/lvgl/src/core/lv_indev_scroll.c ****             }
 544:Drivers/lvgl/src/core/lv_indev_scroll.c **** 
 545:Drivers/lvgl/src/core/lv_indev_scroll.c ****             y_child += ofs;
 546:Drivers/lvgl/src/core/lv_indev_scroll.c ****             if(y_child >= min && y_child <= max) {
 547:Drivers/lvgl/src/core/lv_indev_scroll.c ****                 lv_coord_t y = y_child -  y_parent;
 548:Drivers/lvgl/src/core/lv_indev_scroll.c ****                 if(LV_ABS(y) < LV_ABS(dist)) dist = y;
 549:Drivers/lvgl/src/core/lv_indev_scroll.c ****             }
 550:Drivers/lvgl/src/core/lv_indev_scroll.c ****         }
 551:Drivers/lvgl/src/core/lv_indev_scroll.c ****     }
 552:Drivers/lvgl/src/core/lv_indev_scroll.c **** 
 553:Drivers/lvgl/src/core/lv_indev_scroll.c ****     return dist == LV_COORD_MAX ? 0 : -dist;
 554:Drivers/lvgl/src/core/lv_indev_scroll.c **** }
  64              		.loc 1 554 1 view .LVU8
  65 0016 07B0     		add	sp, sp, #28
  66              		.cfi_remember_state
  67              		.cfi_def_cfa_offset 36
  68              		@ sp needed
  69 0018 BDE8F08F 		pop	{r4, r5, r6, r7, r8, r9, r10, fp, pc}
  70              	.LVL3:
  71              	.L2:
  72              		.cfi_restore_state
ARM GAS  /var/folders/0z/tsy30v1j4xl4_7kw94k978ww0000gn/T//cc3yoOHj.s 			page 12


 515:Drivers/lvgl/src/core/lv_indev_scroll.c **** 
  73              		.loc 1 515 5 is_stmt 1 view .LVU9
 517:Drivers/lvgl/src/core/lv_indev_scroll.c ****     lv_coord_t pad_bottom = lv_obj_get_style_pad_bottom(obj, LV_PART_MAIN);
  74              		.loc 1 517 5 view .LVU10
  75              	.LBB81:
  76              	.LBI81:
  77              		.file 2 "Drivers/lvgl/src/core/lv_obj_style_gen.h"
   1:Drivers/lvgl/src/core/lv_obj_style_gen.h **** static inline lv_coord_t lv_obj_get_style_width(const struct _lv_obj_t * obj, uint32_t part)
   2:Drivers/lvgl/src/core/lv_obj_style_gen.h **** {
   3:Drivers/lvgl/src/core/lv_obj_style_gen.h ****     lv_style_value_t v = lv_obj_get_style_prop(obj, part, LV_STYLE_WIDTH);
   4:Drivers/lvgl/src/core/lv_obj_style_gen.h ****     return (lv_coord_t)v.num;
   5:Drivers/lvgl/src/core/lv_obj_style_gen.h **** }
   6:Drivers/lvgl/src/core/lv_obj_style_gen.h **** 
   7:Drivers/lvgl/src/core/lv_obj_style_gen.h **** static inline lv_coord_t lv_obj_get_style_min_width(const struct _lv_obj_t * obj, uint32_t part)
   8:Drivers/lvgl/src/core/lv_obj_style_gen.h **** {
   9:Drivers/lvgl/src/core/lv_obj_style_gen.h ****     lv_style_value_t v = lv_obj_get_style_prop(obj, part, LV_STYLE_MIN_WIDTH);
  10:Drivers/lvgl/src/core/lv_obj_style_gen.h ****     return (lv_coord_t)v.num;
  11:Drivers/lvgl/src/core/lv_obj_style_gen.h **** }
  12:Drivers/lvgl/src/core/lv_obj_style_gen.h **** 
  13:Drivers/lvgl/src/core/lv_obj_style_gen.h **** static inline lv_coord_t lv_obj_get_style_max_width(const struct _lv_obj_t * obj, uint32_t part)
  14:Drivers/lvgl/src/core/lv_obj_style_gen.h **** {
  15:Drivers/lvgl/src/core/lv_obj_style_gen.h ****     lv_style_value_t v = lv_obj_get_style_prop(obj, part, LV_STYLE_MAX_WIDTH);
  16:Drivers/lvgl/src/core/lv_obj_style_gen.h ****     return (lv_coord_t)v.num;
  17:Drivers/lvgl/src/core/lv_obj_style_gen.h **** }
  18:Drivers/lvgl/src/core/lv_obj_style_gen.h **** 
  19:Drivers/lvgl/src/core/lv_obj_style_gen.h **** static inline lv_coord_t lv_obj_get_style_height(const struct _lv_obj_t * obj, uint32_t part)
  20:Drivers/lvgl/src/core/lv_obj_style_gen.h **** {
  21:Drivers/lvgl/src/core/lv_obj_style_gen.h ****     lv_style_value_t v = lv_obj_get_style_prop(obj, part, LV_STYLE_HEIGHT);
  22:Drivers/lvgl/src/core/lv_obj_style_gen.h ****     return (lv_coord_t)v.num;
  23:Drivers/lvgl/src/core/lv_obj_style_gen.h **** }
  24:Drivers/lvgl/src/core/lv_obj_style_gen.h **** 
  25:Drivers/lvgl/src/core/lv_obj_style_gen.h **** static inline lv_coord_t lv_obj_get_style_min_height(const struct _lv_obj_t * obj, uint32_t part)
  26:Drivers/lvgl/src/core/lv_obj_style_gen.h **** {
  27:Drivers/lvgl/src/core/lv_obj_style_gen.h ****     lv_style_value_t v = lv_obj_get_style_prop(obj, part, LV_STYLE_MIN_HEIGHT);
  28:Drivers/lvgl/src/core/lv_obj_style_gen.h ****     return (lv_coord_t)v.num;
  29:Drivers/lvgl/src/core/lv_obj_style_gen.h **** }
  30:Drivers/lvgl/src/core/lv_obj_style_gen.h **** 
  31:Drivers/lvgl/src/core/lv_obj_style_gen.h **** static inline lv_coord_t lv_obj_get_style_max_height(const struct _lv_obj_t * obj, uint32_t part)
  32:Drivers/lvgl/src/core/lv_obj_style_gen.h **** {
  33:Drivers/lvgl/src/core/lv_obj_style_gen.h ****     lv_style_value_t v = lv_obj_get_style_prop(obj, part, LV_STYLE_MAX_HEIGHT);
  34:Drivers/lvgl/src/core/lv_obj_style_gen.h ****     return (lv_coord_t)v.num;
  35:Drivers/lvgl/src/core/lv_obj_style_gen.h **** }
  36:Drivers/lvgl/src/core/lv_obj_style_gen.h **** 
  37:Drivers/lvgl/src/core/lv_obj_style_gen.h **** static inline lv_coord_t lv_obj_get_style_x(const struct _lv_obj_t * obj, uint32_t part)
  38:Drivers/lvgl/src/core/lv_obj_style_gen.h **** {
  39:Drivers/lvgl/src/core/lv_obj_style_gen.h ****     lv_style_value_t v = lv_obj_get_style_prop(obj, part, LV_STYLE_X);
  40:Drivers/lvgl/src/core/lv_obj_style_gen.h ****     return (lv_coord_t)v.num;
  41:Drivers/lvgl/src/core/lv_obj_style_gen.h **** }
  42:Drivers/lvgl/src/core/lv_obj_style_gen.h **** 
  43:Drivers/lvgl/src/core/lv_obj_style_gen.h **** static inline lv_coord_t lv_obj_get_style_y(const struct _lv_obj_t * obj, uint32_t part)
  44:Drivers/lvgl/src/core/lv_obj_style_gen.h **** {
  45:Drivers/lvgl/src/core/lv_obj_style_gen.h ****     lv_style_value_t v = lv_obj_get_style_prop(obj, part, LV_STYLE_Y);
  46:Drivers/lvgl/src/core/lv_obj_style_gen.h ****     return (lv_coord_t)v.num;
  47:Drivers/lvgl/src/core/lv_obj_style_gen.h **** }
  48:Drivers/lvgl/src/core/lv_obj_style_gen.h **** 
  49:Drivers/lvgl/src/core/lv_obj_style_gen.h **** static inline lv_align_t lv_obj_get_style_align(const struct _lv_obj_t * obj, uint32_t part)
  50:Drivers/lvgl/src/core/lv_obj_style_gen.h **** {
ARM GAS  /var/folders/0z/tsy30v1j4xl4_7kw94k978ww0000gn/T//cc3yoOHj.s 			page 13


  51:Drivers/lvgl/src/core/lv_obj_style_gen.h ****     lv_style_value_t v = lv_obj_get_style_prop(obj, part, LV_STYLE_ALIGN);
  52:Drivers/lvgl/src/core/lv_obj_style_gen.h ****     return (lv_align_t)v.num;
  53:Drivers/lvgl/src/core/lv_obj_style_gen.h **** }
  54:Drivers/lvgl/src/core/lv_obj_style_gen.h **** 
  55:Drivers/lvgl/src/core/lv_obj_style_gen.h **** static inline lv_coord_t lv_obj_get_style_transform_width(const struct _lv_obj_t * obj, uint32_t pa
  56:Drivers/lvgl/src/core/lv_obj_style_gen.h **** {
  57:Drivers/lvgl/src/core/lv_obj_style_gen.h ****     lv_style_value_t v = lv_obj_get_style_prop(obj, part, LV_STYLE_TRANSFORM_WIDTH);
  58:Drivers/lvgl/src/core/lv_obj_style_gen.h ****     return (lv_coord_t)v.num;
  59:Drivers/lvgl/src/core/lv_obj_style_gen.h **** }
  60:Drivers/lvgl/src/core/lv_obj_style_gen.h **** 
  61:Drivers/lvgl/src/core/lv_obj_style_gen.h **** static inline lv_coord_t lv_obj_get_style_transform_height(const struct _lv_obj_t * obj, uint32_t p
  62:Drivers/lvgl/src/core/lv_obj_style_gen.h **** {
  63:Drivers/lvgl/src/core/lv_obj_style_gen.h ****     lv_style_value_t v = lv_obj_get_style_prop(obj, part, LV_STYLE_TRANSFORM_HEIGHT);
  64:Drivers/lvgl/src/core/lv_obj_style_gen.h ****     return (lv_coord_t)v.num;
  65:Drivers/lvgl/src/core/lv_obj_style_gen.h **** }
  66:Drivers/lvgl/src/core/lv_obj_style_gen.h **** 
  67:Drivers/lvgl/src/core/lv_obj_style_gen.h **** static inline lv_coord_t lv_obj_get_style_translate_x(const struct _lv_obj_t * obj, uint32_t part)
  68:Drivers/lvgl/src/core/lv_obj_style_gen.h **** {
  69:Drivers/lvgl/src/core/lv_obj_style_gen.h ****     lv_style_value_t v = lv_obj_get_style_prop(obj, part, LV_STYLE_TRANSLATE_X);
  70:Drivers/lvgl/src/core/lv_obj_style_gen.h ****     return (lv_coord_t)v.num;
  71:Drivers/lvgl/src/core/lv_obj_style_gen.h **** }
  72:Drivers/lvgl/src/core/lv_obj_style_gen.h **** 
  73:Drivers/lvgl/src/core/lv_obj_style_gen.h **** static inline lv_coord_t lv_obj_get_style_translate_y(const struct _lv_obj_t * obj, uint32_t part)
  74:Drivers/lvgl/src/core/lv_obj_style_gen.h **** {
  75:Drivers/lvgl/src/core/lv_obj_style_gen.h ****     lv_style_value_t v = lv_obj_get_style_prop(obj, part, LV_STYLE_TRANSLATE_Y);
  76:Drivers/lvgl/src/core/lv_obj_style_gen.h ****     return (lv_coord_t)v.num;
  77:Drivers/lvgl/src/core/lv_obj_style_gen.h **** }
  78:Drivers/lvgl/src/core/lv_obj_style_gen.h **** 
  79:Drivers/lvgl/src/core/lv_obj_style_gen.h **** static inline lv_coord_t lv_obj_get_style_transform_zoom(const struct _lv_obj_t * obj, uint32_t par
  80:Drivers/lvgl/src/core/lv_obj_style_gen.h **** {
  81:Drivers/lvgl/src/core/lv_obj_style_gen.h ****     lv_style_value_t v = lv_obj_get_style_prop(obj, part, LV_STYLE_TRANSFORM_ZOOM);
  82:Drivers/lvgl/src/core/lv_obj_style_gen.h ****     return (lv_coord_t)v.num;
  83:Drivers/lvgl/src/core/lv_obj_style_gen.h **** }
  84:Drivers/lvgl/src/core/lv_obj_style_gen.h **** 
  85:Drivers/lvgl/src/core/lv_obj_style_gen.h **** static inline lv_coord_t lv_obj_get_style_transform_angle(const struct _lv_obj_t * obj, uint32_t pa
  86:Drivers/lvgl/src/core/lv_obj_style_gen.h **** {
  87:Drivers/lvgl/src/core/lv_obj_style_gen.h ****     lv_style_value_t v = lv_obj_get_style_prop(obj, part, LV_STYLE_TRANSFORM_ANGLE);
  88:Drivers/lvgl/src/core/lv_obj_style_gen.h ****     return (lv_coord_t)v.num;
  89:Drivers/lvgl/src/core/lv_obj_style_gen.h **** }
  90:Drivers/lvgl/src/core/lv_obj_style_gen.h **** 
  91:Drivers/lvgl/src/core/lv_obj_style_gen.h **** static inline lv_coord_t lv_obj_get_style_transform_pivot_x(const struct _lv_obj_t * obj, uint32_t 
  92:Drivers/lvgl/src/core/lv_obj_style_gen.h **** {
  93:Drivers/lvgl/src/core/lv_obj_style_gen.h ****     lv_style_value_t v = lv_obj_get_style_prop(obj, part, LV_STYLE_TRANSFORM_PIVOT_X);
  94:Drivers/lvgl/src/core/lv_obj_style_gen.h ****     return (lv_coord_t)v.num;
  95:Drivers/lvgl/src/core/lv_obj_style_gen.h **** }
  96:Drivers/lvgl/src/core/lv_obj_style_gen.h **** 
  97:Drivers/lvgl/src/core/lv_obj_style_gen.h **** static inline lv_coord_t lv_obj_get_style_transform_pivot_y(const struct _lv_obj_t * obj, uint32_t 
  98:Drivers/lvgl/src/core/lv_obj_style_gen.h **** {
  99:Drivers/lvgl/src/core/lv_obj_style_gen.h ****     lv_style_value_t v = lv_obj_get_style_prop(obj, part, LV_STYLE_TRANSFORM_PIVOT_Y);
 100:Drivers/lvgl/src/core/lv_obj_style_gen.h ****     return (lv_coord_t)v.num;
 101:Drivers/lvgl/src/core/lv_obj_style_gen.h **** }
 102:Drivers/lvgl/src/core/lv_obj_style_gen.h **** 
 103:Drivers/lvgl/src/core/lv_obj_style_gen.h **** static inline lv_coord_t lv_obj_get_style_pad_top(const struct _lv_obj_t * obj, uint32_t part)
  78              		.loc 2 103 26 view .LVU11
  79              	.LBB82:
 104:Drivers/lvgl/src/core/lv_obj_style_gen.h **** {
 105:Drivers/lvgl/src/core/lv_obj_style_gen.h ****     lv_style_value_t v = lv_obj_get_style_prop(obj, part, LV_STYLE_PAD_TOP);
ARM GAS  /var/folders/0z/tsy30v1j4xl4_7kw94k978ww0000gn/T//cc3yoOHj.s 			page 14


  80              		.loc 2 105 5 view .LVU12
  81              		.loc 2 105 26 is_stmt 0 view .LVU13
  82 001c 1022     		movs	r2, #16
  83 001e 0021     		movs	r1, #0
  84 0020 0546     		mov	r5, r0
  85 0022 2046     		mov	r0, r4
  86              	.LVL4:
  87              		.loc 2 105 26 view .LVU14
  88 0024 FFF7FEFF 		bl	lv_obj_get_style_prop
  89              	.LVL5:
  90              	.LBE82:
  91              	.LBE81:
  92              	.LBB85:
  93              	.LBB86:
 106:Drivers/lvgl/src/core/lv_obj_style_gen.h ****     return (lv_coord_t)v.num;
 107:Drivers/lvgl/src/core/lv_obj_style_gen.h **** }
 108:Drivers/lvgl/src/core/lv_obj_style_gen.h **** 
 109:Drivers/lvgl/src/core/lv_obj_style_gen.h **** static inline lv_coord_t lv_obj_get_style_pad_bottom(const struct _lv_obj_t * obj, uint32_t part)
 110:Drivers/lvgl/src/core/lv_obj_style_gen.h **** {
 111:Drivers/lvgl/src/core/lv_obj_style_gen.h ****     lv_style_value_t v = lv_obj_get_style_prop(obj, part, LV_STYLE_PAD_BOTTOM);
  94              		.loc 2 111 26 view .LVU15
  95 0028 1122     		movs	r2, #17
  96              	.LBE86:
  97              	.LBE85:
  98              	.LBB89:
  99              	.LBB83:
 105:Drivers/lvgl/src/core/lv_obj_style_gen.h ****     return (lv_coord_t)v.num;
 100              		.loc 2 105 26 view .LVU16
 101 002a 0746     		mov	r7, r0
 102 002c 0290     		str	r0, [sp, #8]
 106:Drivers/lvgl/src/core/lv_obj_style_gen.h ****     return (lv_coord_t)v.num;
 103              		.loc 2 106 5 is_stmt 1 view .LVU17
 104              	.LBE83:
 105              	.LBE89:
 106              	.LBB90:
 107              	.LBB87:
 108              		.loc 2 111 26 is_stmt 0 view .LVU18
 109 002e 0021     		movs	r1, #0
 110 0030 2046     		mov	r0, r4
 111 0032 FFF7FEFF 		bl	lv_obj_get_style_prop
 112              	.LVL6:
 113 0036 0646     		mov	r6, r0
 114 0038 0490     		str	r0, [sp, #16]
 115              	.LBE87:
 116              	.LBE90:
 521:Drivers/lvgl/src/core/lv_indev_scroll.c ****     for(i = 0; i < child_cnt; i++) {
 117              		.loc 1 521 26 view .LVU19
 118 003a 2046     		mov	r0, r4
 119 003c FFF7FEFF 		bl	lv_obj_get_child_cnt
 120              	.LVL7:
 121              	.LBB91:
 122              	.LBB84:
 106:Drivers/lvgl/src/core/lv_obj_style_gen.h ****     return (lv_coord_t)v.num;
 123              		.loc 2 106 12 view .LVU20
 124 0040 3BB2     		sxth	r3, r7
 125 0042 0593     		str	r3, [sp, #20]
 126              	.LVL8:
ARM GAS  /var/folders/0z/tsy30v1j4xl4_7kw94k978ww0000gn/T//cc3yoOHj.s 			page 15


 106:Drivers/lvgl/src/core/lv_obj_style_gen.h ****     return (lv_coord_t)v.num;
 127              		.loc 2 106 12 view .LVU21
 128              	.LBE84:
 129              	.LBE91:
 518:Drivers/lvgl/src/core/lv_indev_scroll.c **** 
 130              		.loc 1 518 5 is_stmt 1 view .LVU22
 131              	.LBB92:
 132              	.LBI85:
 109:Drivers/lvgl/src/core/lv_obj_style_gen.h **** {
 133              		.loc 2 109 26 view .LVU23
 134              	.LBB88:
 135              		.loc 2 111 5 view .LVU24
 112:Drivers/lvgl/src/core/lv_obj_style_gen.h ****     return (lv_coord_t)v.num;
 136              		.loc 2 112 5 view .LVU25
 137              		.loc 2 112 12 is_stmt 0 view .LVU26
 138 0044 33B2     		sxth	r3, r6
 139 0046 0393     		str	r3, [sp, #12]
 140              	.LVL9:
 141              		.loc 2 112 12 view .LVU27
 142              	.LBE88:
 143              	.LBE92:
 520:Drivers/lvgl/src/core/lv_indev_scroll.c ****     uint32_t child_cnt = lv_obj_get_child_cnt(obj);
 144              		.loc 1 520 5 is_stmt 1 view .LVU28
 521:Drivers/lvgl/src/core/lv_indev_scroll.c ****     for(i = 0; i < child_cnt; i++) {
 145              		.loc 1 521 5 view .LVU29
 522:Drivers/lvgl/src/core/lv_indev_scroll.c ****         lv_obj_t * child = obj->spec_attr->children[i];
 146              		.loc 1 522 5 view .LVU30
 522:Drivers/lvgl/src/core/lv_indev_scroll.c ****         lv_obj_t * child = obj->spec_attr->children[i];
 147              		.loc 1 522 18 view .LVU31
 148 0048 0646     		mov	r6, r0
 149 004a 0028     		cmp	r0, #0
 150 004c E2D0     		beq	.L4
 515:Drivers/lvgl/src/core/lv_indev_scroll.c **** 
 151              		.loc 1 515 16 is_stmt 0 view .LVU32
 152 004e 41F6FF73 		movw	r3, #8191
 153              	.LBB93:
 524:Drivers/lvgl/src/core/lv_indev_scroll.c ****         if(lv_obj_has_flag(child, LV_OBJ_FLAG_SNAPPABLE)) {
 154              		.loc 1 524 12 view .LVU33
 155 0052 364F     		ldr	r7, .L20
 156              	.LBE93:
 515:Drivers/lvgl/src/core/lv_indev_scroll.c **** 
 157              		.loc 1 515 16 view .LVU34
 158 0054 0193     		str	r3, [sp, #4]
 522:Drivers/lvgl/src/core/lv_indev_scroll.c ****         lv_obj_t * child = obj->spec_attr->children[i];
 159              		.loc 1 522 11 view .LVU35
 160 0056 4FF0000B 		mov	fp, #0
 161              	.LVL10:
 162              	.L9:
 163              	.LBB109:
 523:Drivers/lvgl/src/core/lv_indev_scroll.c ****         if(lv_obj_has_flag_any(child, LV_OBJ_FLAG_HIDDEN | LV_OBJ_FLAG_FLOATING)) continue;
 164              		.loc 1 523 9 is_stmt 1 view .LVU36
 523:Drivers/lvgl/src/core/lv_indev_scroll.c ****         if(lv_obj_has_flag_any(child, LV_OBJ_FLAG_HIDDEN | LV_OBJ_FLAG_FLOATING)) continue;
 165              		.loc 1 523 42 is_stmt 0 view .LVU37
 166 005a A368     		ldr	r3, [r4, #8]
 523:Drivers/lvgl/src/core/lv_indev_scroll.c ****         if(lv_obj_has_flag_any(child, LV_OBJ_FLAG_HIDDEN | LV_OBJ_FLAG_FLOATING)) continue;
 167              		.loc 1 523 20 view .LVU38
 168 005c 1B68     		ldr	r3, [r3]
ARM GAS  /var/folders/0z/tsy30v1j4xl4_7kw94k978ww0000gn/T//cc3yoOHj.s 			page 16


 169 005e 53F82B80 		ldr	r8, [r3, fp, lsl #2]
 170              	.LVL11:
 524:Drivers/lvgl/src/core/lv_indev_scroll.c ****         if(lv_obj_has_flag(child, LV_OBJ_FLAG_SNAPPABLE)) {
 171              		.loc 1 524 9 is_stmt 1 view .LVU39
 524:Drivers/lvgl/src/core/lv_indev_scroll.c ****         if(lv_obj_has_flag(child, LV_OBJ_FLAG_SNAPPABLE)) {
 172              		.loc 1 524 12 is_stmt 0 view .LVU40
 173 0062 3946     		mov	r1, r7
 174 0064 4046     		mov	r0, r8
 175 0066 FFF7FEFF 		bl	lv_obj_has_flag_any
 176              	.LVL12:
 524:Drivers/lvgl/src/core/lv_indev_scroll.c ****         if(lv_obj_has_flag(child, LV_OBJ_FLAG_SNAPPABLE)) {
 177              		.loc 1 524 11 view .LVU41
 178 006a 58B9     		cbnz	r0, .L5
 525:Drivers/lvgl/src/core/lv_indev_scroll.c ****             lv_coord_t y_child = 0;
 179              		.loc 1 525 9 is_stmt 1 view .LVU42
 525:Drivers/lvgl/src/core/lv_indev_scroll.c ****             lv_coord_t y_child = 0;
 180              		.loc 1 525 12 is_stmt 0 view .LVU43
 181 006c 4FF48051 		mov	r1, #4096
 182 0070 4046     		mov	r0, r8
 183 0072 FFF7FEFF 		bl	lv_obj_has_flag
 184              	.LVL13:
 525:Drivers/lvgl/src/core/lv_indev_scroll.c ****             lv_coord_t y_child = 0;
 185              		.loc 1 525 11 view .LVU44
 186 0076 28B1     		cbz	r0, .L5
 187              	.LBB94:
 526:Drivers/lvgl/src/core/lv_indev_scroll.c ****             lv_coord_t y_parent = 0;
 188              		.loc 1 526 13 is_stmt 1 view .LVU45
 189              	.LVL14:
 527:Drivers/lvgl/src/core/lv_indev_scroll.c ****             switch(align) {
 190              		.loc 1 527 13 view .LVU46
 528:Drivers/lvgl/src/core/lv_indev_scroll.c ****                 case LV_SCROLL_SNAP_START:
 191              		.loc 1 528 13 view .LVU47
 192 0078 022D     		cmp	r5, #2
 193 007a 4FD0     		beq	.L6
 194 007c 032D     		cmp	r5, #3
 195 007e 2FD0     		beq	.L7
 196 0080 012D     		cmp	r5, #1
 197 0082 0DD0     		beq	.L19
 198              	.LVL15:
 199              	.L5:
 528:Drivers/lvgl/src/core/lv_indev_scroll.c ****                 case LV_SCROLL_SNAP_START:
 200              		.loc 1 528 13 is_stmt 0 view .LVU48
 201              	.LBE94:
 202              	.LBE109:
 522:Drivers/lvgl/src/core/lv_indev_scroll.c ****         lv_obj_t * child = obj->spec_attr->children[i];
 203              		.loc 1 522 32 is_stmt 1 discriminator 2 view .LVU49
 204 0084 0BF1010B 		add	fp, fp, #1
 205              	.LVL16:
 522:Drivers/lvgl/src/core/lv_indev_scroll.c ****         lv_obj_t * child = obj->spec_attr->children[i];
 206              		.loc 1 522 18 discriminator 2 view .LVU50
 207 0088 5E45     		cmp	r6, fp
 208 008a E6D1     		bne	.L9
 553:Drivers/lvgl/src/core/lv_indev_scroll.c **** }
 209              		.loc 1 553 5 view .LVU51
 553:Drivers/lvgl/src/core/lv_indev_scroll.c **** }
 210              		.loc 1 553 37 is_stmt 0 view .LVU52
 211 008c 019A     		ldr	r2, [sp, #4]
ARM GAS  /var/folders/0z/tsy30v1j4xl4_7kw94k978ww0000gn/T//cc3yoOHj.s 			page 17


 212 008e 41F6FF73 		movw	r3, #8191
 213 0092 9A42     		cmp	r2, r3
 214 0094 BED0     		beq	.L4
 553:Drivers/lvgl/src/core/lv_indev_scroll.c **** }
 215              		.loc 1 553 37 discriminator 1 view .LVU53
 216 0096 5042     		rsbs	r0, r2, #0
 217 0098 00B2     		sxth	r0, r0
 218              		.loc 1 554 1 discriminator 1 view .LVU54
 219 009a 07B0     		add	sp, sp, #28
 220              		.cfi_remember_state
 221              		.cfi_def_cfa_offset 36
 222              		@ sp needed
 223 009c BDE8F08F 		pop	{r4, r5, r6, r7, r8, r9, r10, fp, pc}
 224              	.LVL17:
 225              	.L19:
 226              		.cfi_restore_state
 227              	.LBB110:
 228              	.LBB108:
 530:Drivers/lvgl/src/core/lv_indev_scroll.c ****                     y_parent = obj->coords.y1 + pad_top;
 229              		.loc 1 530 21 is_stmt 1 view .LVU55
 531:Drivers/lvgl/src/core/lv_indev_scroll.c ****                     break;
 230              		.loc 1 531 21 view .LVU56
 531:Drivers/lvgl/src/core/lv_indev_scroll.c ****                     break;
 231              		.loc 1 531 47 is_stmt 0 view .LVU57
 232 00a0 E28A     		ldrh	r2, [r4, #22]
 233 00a2 0299     		ldr	r1, [sp, #8]
 538:Drivers/lvgl/src/core/lv_indev_scroll.c ****                     y_parent = obj->coords.y1 + pad_top + (lv_area_get_height(&obj->coords) - pad_t
 234              		.loc 1 538 44 view .LVU58
 235 00a4 B8F81630 		ldrh	r3, [r8, #22]
 531:Drivers/lvgl/src/core/lv_indev_scroll.c ****                     break;
 236              		.loc 1 531 47 view .LVU59
 237 00a8 0A44     		add	r2, r2, r1
 531:Drivers/lvgl/src/core/lv_indev_scroll.c ****                     break;
 238              		.loc 1 531 30 view .LVU60
 239 00aa 12B2     		sxth	r2, r2
 240              	.LVL18:
 532:Drivers/lvgl/src/core/lv_indev_scroll.c ****                 case LV_SCROLL_SNAP_END:
 241              		.loc 1 532 21 is_stmt 1 view .LVU61
 242              	.L8:
 545:Drivers/lvgl/src/core/lv_indev_scroll.c ****             if(y_child >= min && y_child <= max) {
 243              		.loc 1 545 13 view .LVU62
 545:Drivers/lvgl/src/core/lv_indev_scroll.c ****             if(y_child >= min && y_child <= max) {
 244              		.loc 1 545 21 is_stmt 0 view .LVU63
 245 00ac 5344     		add	r3, r3, r10
 246 00ae 19B2     		sxth	r1, r3
 247              	.LVL19:
 546:Drivers/lvgl/src/core/lv_indev_scroll.c ****                 lv_coord_t y = y_child -  y_parent;
 248              		.loc 1 546 13 is_stmt 1 view .LVU64
 546:Drivers/lvgl/src/core/lv_indev_scroll.c ****                 lv_coord_t y = y_child -  y_parent;
 249              		.loc 1 546 15 is_stmt 0 view .LVU65
 250 00b0 4945     		cmp	r1, r9
 545:Drivers/lvgl/src/core/lv_indev_scroll.c ****             if(y_child >= min && y_child <= max) {
 251              		.loc 1 545 21 view .LVU66
 252 00b2 9BB2     		uxth	r3, r3
 546:Drivers/lvgl/src/core/lv_indev_scroll.c ****                 lv_coord_t y = y_child -  y_parent;
 253              		.loc 1 546 15 view .LVU67
 254 00b4 E6DB     		blt	.L5
ARM GAS  /var/folders/0z/tsy30v1j4xl4_7kw94k978ww0000gn/T//cc3yoOHj.s 			page 18


 546:Drivers/lvgl/src/core/lv_indev_scroll.c ****                 lv_coord_t y = y_child -  y_parent;
 255              		.loc 1 546 31 discriminator 1 view .LVU68
 256 00b6 0098     		ldr	r0, [sp]
 257 00b8 8142     		cmp	r1, r0
 258 00ba E3DC     		bgt	.L5
 259              	.LBB95:
 547:Drivers/lvgl/src/core/lv_indev_scroll.c ****                 if(LV_ABS(y) < LV_ABS(dist)) dist = y;
 260              		.loc 1 547 17 is_stmt 1 view .LVU69
 548:Drivers/lvgl/src/core/lv_indev_scroll.c ****             }
 261              		.loc 1 548 32 is_stmt 0 view .LVU70
 262 00bc 0198     		ldr	r0, [sp, #4]
 547:Drivers/lvgl/src/core/lv_indev_scroll.c ****                 if(LV_ABS(y) < LV_ABS(dist)) dist = y;
 263              		.loc 1 547 40 view .LVU71
 264 00be 9B1A     		subs	r3, r3, r2
 547:Drivers/lvgl/src/core/lv_indev_scroll.c ****                 if(LV_ABS(y) < LV_ABS(dist)) dist = y;
 265              		.loc 1 547 28 view .LVU72
 266 00c0 1BB2     		sxth	r3, r3
 267              	.LVL20:
 548:Drivers/lvgl/src/core/lv_indev_scroll.c ****             }
 268              		.loc 1 548 17 is_stmt 1 view .LVU73
 548:Drivers/lvgl/src/core/lv_indev_scroll.c ****             }
 269              		.loc 1 548 32 is_stmt 0 view .LVU74
 270 00c2 80EAE072 		eor	r2, r0, r0, asr #31
 271              	.LVL21:
 548:Drivers/lvgl/src/core/lv_indev_scroll.c ****             }
 272              		.loc 1 548 20 view .LVU75
 273 00c6 83EAE371 		eor	r1, r3, r3, asr #31
 274              	.LVL22:
 548:Drivers/lvgl/src/core/lv_indev_scroll.c ****             }
 275              		.loc 1 548 32 view .LVU76
 276 00ca A2EBE072 		sub	r2, r2, r0, asr #31
 548:Drivers/lvgl/src/core/lv_indev_scroll.c ****             }
 277              		.loc 1 548 20 view .LVU77
 278 00ce A1EBE371 		sub	r1, r1, r3, asr #31
 548:Drivers/lvgl/src/core/lv_indev_scroll.c ****             }
 279              		.loc 1 548 19 view .LVU78
 280 00d2 92B2     		uxth	r2, r2
 281 00d4 89B2     		uxth	r1, r1
 548:Drivers/lvgl/src/core/lv_indev_scroll.c ****             }
 282              		.loc 1 548 51 view .LVU79
 283 00d6 9142     		cmp	r1, r2
 284 00d8 38BF     		it	cc
 285 00da 1846     		movcc	r0, r3
 286 00dc 0190     		str	r0, [sp, #4]
 287              	.LVL23:
 548:Drivers/lvgl/src/core/lv_indev_scroll.c ****             }
 288              		.loc 1 548 51 view .LVU80
 289 00de D1E7     		b	.L5
 290              	.LVL24:
 291              	.L7:
 548:Drivers/lvgl/src/core/lv_indev_scroll.c ****             }
 292              		.loc 1 548 51 view .LVU81
 293              	.LBE95:
 538:Drivers/lvgl/src/core/lv_indev_scroll.c ****                     y_parent = obj->coords.y1 + pad_top + (lv_area_get_height(&obj->coords) - pad_t
 294              		.loc 1 538 21 is_stmt 1 view .LVU82
 295              	.LBB96:
 296              	.LBB97:
ARM GAS  /var/folders/0z/tsy30v1j4xl4_7kw94k978ww0000gn/T//cc3yoOHj.s 			page 19


 297              		.file 3 "Drivers/lvgl/src/core/../misc/../font/../misc/lv_area.h"
   1:Drivers/lvgl/src/core/../misc/../font/../misc/lv_area.h **** /**
   2:Drivers/lvgl/src/core/../misc/../font/../misc/lv_area.h ****  * @file lv_area.h
   3:Drivers/lvgl/src/core/../misc/../font/../misc/lv_area.h ****  *
   4:Drivers/lvgl/src/core/../misc/../font/../misc/lv_area.h ****  */
   5:Drivers/lvgl/src/core/../misc/../font/../misc/lv_area.h **** 
   6:Drivers/lvgl/src/core/../misc/../font/../misc/lv_area.h **** #ifndef LV_AREA_H
   7:Drivers/lvgl/src/core/../misc/../font/../misc/lv_area.h **** #define LV_AREA_H
   8:Drivers/lvgl/src/core/../misc/../font/../misc/lv_area.h **** 
   9:Drivers/lvgl/src/core/../misc/../font/../misc/lv_area.h **** #ifdef __cplusplus
  10:Drivers/lvgl/src/core/../misc/../font/../misc/lv_area.h **** extern "C" {
  11:Drivers/lvgl/src/core/../misc/../font/../misc/lv_area.h **** #endif
  12:Drivers/lvgl/src/core/../misc/../font/../misc/lv_area.h **** 
  13:Drivers/lvgl/src/core/../misc/../font/../misc/lv_area.h **** /*********************
  14:Drivers/lvgl/src/core/../misc/../font/../misc/lv_area.h ****  *      INCLUDES
  15:Drivers/lvgl/src/core/../misc/../font/../misc/lv_area.h ****  *********************/
  16:Drivers/lvgl/src/core/../misc/../font/../misc/lv_area.h **** #include "../lv_conf_internal.h"
  17:Drivers/lvgl/src/core/../misc/../font/../misc/lv_area.h **** #include <stdbool.h>
  18:Drivers/lvgl/src/core/../misc/../font/../misc/lv_area.h **** #include <stdint.h>
  19:Drivers/lvgl/src/core/../misc/../font/../misc/lv_area.h **** 
  20:Drivers/lvgl/src/core/../misc/../font/../misc/lv_area.h **** /*********************
  21:Drivers/lvgl/src/core/../misc/../font/../misc/lv_area.h ****  *      DEFINES
  22:Drivers/lvgl/src/core/../misc/../font/../misc/lv_area.h ****  *********************/
  23:Drivers/lvgl/src/core/../misc/../font/../misc/lv_area.h **** 
  24:Drivers/lvgl/src/core/../misc/../font/../misc/lv_area.h **** #if LV_USE_LARGE_COORD
  25:Drivers/lvgl/src/core/../misc/../font/../misc/lv_area.h **** typedef int32_t lv_coord_t;
  26:Drivers/lvgl/src/core/../misc/../font/../misc/lv_area.h **** #else
  27:Drivers/lvgl/src/core/../misc/../font/../misc/lv_area.h **** typedef int16_t lv_coord_t;
  28:Drivers/lvgl/src/core/../misc/../font/../misc/lv_area.h **** #endif
  29:Drivers/lvgl/src/core/../misc/../font/../misc/lv_area.h **** 
  30:Drivers/lvgl/src/core/../misc/../font/../misc/lv_area.h **** /**********************
  31:Drivers/lvgl/src/core/../misc/../font/../misc/lv_area.h ****  *      TYPEDEFS
  32:Drivers/lvgl/src/core/../misc/../font/../misc/lv_area.h ****  **********************/
  33:Drivers/lvgl/src/core/../misc/../font/../misc/lv_area.h **** 
  34:Drivers/lvgl/src/core/../misc/../font/../misc/lv_area.h **** /**
  35:Drivers/lvgl/src/core/../misc/../font/../misc/lv_area.h ****  * Represents a point on the screen.
  36:Drivers/lvgl/src/core/../misc/../font/../misc/lv_area.h ****  */
  37:Drivers/lvgl/src/core/../misc/../font/../misc/lv_area.h **** typedef struct {
  38:Drivers/lvgl/src/core/../misc/../font/../misc/lv_area.h ****     lv_coord_t x;
  39:Drivers/lvgl/src/core/../misc/../font/../misc/lv_area.h ****     lv_coord_t y;
  40:Drivers/lvgl/src/core/../misc/../font/../misc/lv_area.h **** } lv_point_t;
  41:Drivers/lvgl/src/core/../misc/../font/../misc/lv_area.h **** 
  42:Drivers/lvgl/src/core/../misc/../font/../misc/lv_area.h **** /** Represents an area of the screen.*/
  43:Drivers/lvgl/src/core/../misc/../font/../misc/lv_area.h **** typedef struct {
  44:Drivers/lvgl/src/core/../misc/../font/../misc/lv_area.h ****     lv_coord_t x1;
  45:Drivers/lvgl/src/core/../misc/../font/../misc/lv_area.h ****     lv_coord_t y1;
  46:Drivers/lvgl/src/core/../misc/../font/../misc/lv_area.h ****     lv_coord_t x2;
  47:Drivers/lvgl/src/core/../misc/../font/../misc/lv_area.h ****     lv_coord_t y2;
  48:Drivers/lvgl/src/core/../misc/../font/../misc/lv_area.h **** } lv_area_t;
  49:Drivers/lvgl/src/core/../misc/../font/../misc/lv_area.h **** 
  50:Drivers/lvgl/src/core/../misc/../font/../misc/lv_area.h **** /** Alignments*/
  51:Drivers/lvgl/src/core/../misc/../font/../misc/lv_area.h **** enum {
  52:Drivers/lvgl/src/core/../misc/../font/../misc/lv_area.h ****     LV_ALIGN_DEFAULT = 0,
  53:Drivers/lvgl/src/core/../misc/../font/../misc/lv_area.h ****     LV_ALIGN_TOP_LEFT,
  54:Drivers/lvgl/src/core/../misc/../font/../misc/lv_area.h ****     LV_ALIGN_TOP_MID,
  55:Drivers/lvgl/src/core/../misc/../font/../misc/lv_area.h ****     LV_ALIGN_TOP_RIGHT,
  56:Drivers/lvgl/src/core/../misc/../font/../misc/lv_area.h ****     LV_ALIGN_BOTTOM_LEFT,
ARM GAS  /var/folders/0z/tsy30v1j4xl4_7kw94k978ww0000gn/T//cc3yoOHj.s 			page 20


  57:Drivers/lvgl/src/core/../misc/../font/../misc/lv_area.h ****     LV_ALIGN_BOTTOM_MID,
  58:Drivers/lvgl/src/core/../misc/../font/../misc/lv_area.h ****     LV_ALIGN_BOTTOM_RIGHT,
  59:Drivers/lvgl/src/core/../misc/../font/../misc/lv_area.h ****     LV_ALIGN_LEFT_MID,
  60:Drivers/lvgl/src/core/../misc/../font/../misc/lv_area.h ****     LV_ALIGN_RIGHT_MID,
  61:Drivers/lvgl/src/core/../misc/../font/../misc/lv_area.h ****     LV_ALIGN_CENTER,
  62:Drivers/lvgl/src/core/../misc/../font/../misc/lv_area.h **** 
  63:Drivers/lvgl/src/core/../misc/../font/../misc/lv_area.h ****     LV_ALIGN_OUT_TOP_LEFT,
  64:Drivers/lvgl/src/core/../misc/../font/../misc/lv_area.h ****     LV_ALIGN_OUT_TOP_MID,
  65:Drivers/lvgl/src/core/../misc/../font/../misc/lv_area.h ****     LV_ALIGN_OUT_TOP_RIGHT,
  66:Drivers/lvgl/src/core/../misc/../font/../misc/lv_area.h ****     LV_ALIGN_OUT_BOTTOM_LEFT,
  67:Drivers/lvgl/src/core/../misc/../font/../misc/lv_area.h ****     LV_ALIGN_OUT_BOTTOM_MID,
  68:Drivers/lvgl/src/core/../misc/../font/../misc/lv_area.h ****     LV_ALIGN_OUT_BOTTOM_RIGHT,
  69:Drivers/lvgl/src/core/../misc/../font/../misc/lv_area.h ****     LV_ALIGN_OUT_LEFT_TOP,
  70:Drivers/lvgl/src/core/../misc/../font/../misc/lv_area.h ****     LV_ALIGN_OUT_LEFT_MID,
  71:Drivers/lvgl/src/core/../misc/../font/../misc/lv_area.h ****     LV_ALIGN_OUT_LEFT_BOTTOM,
  72:Drivers/lvgl/src/core/../misc/../font/../misc/lv_area.h ****     LV_ALIGN_OUT_RIGHT_TOP,
  73:Drivers/lvgl/src/core/../misc/../font/../misc/lv_area.h ****     LV_ALIGN_OUT_RIGHT_MID,
  74:Drivers/lvgl/src/core/../misc/../font/../misc/lv_area.h ****     LV_ALIGN_OUT_RIGHT_BOTTOM,
  75:Drivers/lvgl/src/core/../misc/../font/../misc/lv_area.h **** };
  76:Drivers/lvgl/src/core/../misc/../font/../misc/lv_area.h **** typedef uint8_t lv_align_t;
  77:Drivers/lvgl/src/core/../misc/../font/../misc/lv_area.h **** 
  78:Drivers/lvgl/src/core/../misc/../font/../misc/lv_area.h **** enum {
  79:Drivers/lvgl/src/core/../misc/../font/../misc/lv_area.h ****     LV_DIR_NONE     = 0x00,
  80:Drivers/lvgl/src/core/../misc/../font/../misc/lv_area.h ****     LV_DIR_LEFT     = (1 << 0),
  81:Drivers/lvgl/src/core/../misc/../font/../misc/lv_area.h ****     LV_DIR_RIGHT    = (1 << 1),
  82:Drivers/lvgl/src/core/../misc/../font/../misc/lv_area.h ****     LV_DIR_TOP      = (1 << 2),
  83:Drivers/lvgl/src/core/../misc/../font/../misc/lv_area.h ****     LV_DIR_BOTTOM   = (1 << 3),
  84:Drivers/lvgl/src/core/../misc/../font/../misc/lv_area.h ****     LV_DIR_HOR      = LV_DIR_LEFT | LV_DIR_RIGHT,
  85:Drivers/lvgl/src/core/../misc/../font/../misc/lv_area.h ****     LV_DIR_VER      = LV_DIR_TOP | LV_DIR_BOTTOM,
  86:Drivers/lvgl/src/core/../misc/../font/../misc/lv_area.h ****     LV_DIR_ALL      = LV_DIR_HOR | LV_DIR_VER,
  87:Drivers/lvgl/src/core/../misc/../font/../misc/lv_area.h **** };
  88:Drivers/lvgl/src/core/../misc/../font/../misc/lv_area.h **** 
  89:Drivers/lvgl/src/core/../misc/../font/../misc/lv_area.h **** typedef uint8_t lv_dir_t;
  90:Drivers/lvgl/src/core/../misc/../font/../misc/lv_area.h **** 
  91:Drivers/lvgl/src/core/../misc/../font/../misc/lv_area.h **** /**********************
  92:Drivers/lvgl/src/core/../misc/../font/../misc/lv_area.h ****  * GLOBAL PROTOTYPES
  93:Drivers/lvgl/src/core/../misc/../font/../misc/lv_area.h ****  **********************/
  94:Drivers/lvgl/src/core/../misc/../font/../misc/lv_area.h **** 
  95:Drivers/lvgl/src/core/../misc/../font/../misc/lv_area.h **** /**
  96:Drivers/lvgl/src/core/../misc/../font/../misc/lv_area.h ****  * Initialize an area
  97:Drivers/lvgl/src/core/../misc/../font/../misc/lv_area.h ****  * @param area_p pointer to an area
  98:Drivers/lvgl/src/core/../misc/../font/../misc/lv_area.h ****  * @param x1 left coordinate of the area
  99:Drivers/lvgl/src/core/../misc/../font/../misc/lv_area.h ****  * @param y1 top coordinate of the area
 100:Drivers/lvgl/src/core/../misc/../font/../misc/lv_area.h ****  * @param x2 right coordinate of the area
 101:Drivers/lvgl/src/core/../misc/../font/../misc/lv_area.h ****  * @param y2 bottom coordinate of the area
 102:Drivers/lvgl/src/core/../misc/../font/../misc/lv_area.h ****  */
 103:Drivers/lvgl/src/core/../misc/../font/../misc/lv_area.h **** void lv_area_set(lv_area_t * area_p, lv_coord_t x1, lv_coord_t y1, lv_coord_t x2, lv_coord_t y2);
 104:Drivers/lvgl/src/core/../misc/../font/../misc/lv_area.h **** 
 105:Drivers/lvgl/src/core/../misc/../font/../misc/lv_area.h **** /**
 106:Drivers/lvgl/src/core/../misc/../font/../misc/lv_area.h ****  * Copy an area
 107:Drivers/lvgl/src/core/../misc/../font/../misc/lv_area.h ****  * @param dest pointer to the destination area
 108:Drivers/lvgl/src/core/../misc/../font/../misc/lv_area.h ****  * @param src pointer to the source area
 109:Drivers/lvgl/src/core/../misc/../font/../misc/lv_area.h ****  */
 110:Drivers/lvgl/src/core/../misc/../font/../misc/lv_area.h **** inline static void lv_area_copy(lv_area_t * dest, const lv_area_t * src)
 111:Drivers/lvgl/src/core/../misc/../font/../misc/lv_area.h **** {
 112:Drivers/lvgl/src/core/../misc/../font/../misc/lv_area.h ****     dest->x1 = src->x1;
 113:Drivers/lvgl/src/core/../misc/../font/../misc/lv_area.h ****     dest->y1 = src->y1;
ARM GAS  /var/folders/0z/tsy30v1j4xl4_7kw94k978ww0000gn/T//cc3yoOHj.s 			page 21


 114:Drivers/lvgl/src/core/../misc/../font/../misc/lv_area.h ****     dest->x2 = src->x2;
 115:Drivers/lvgl/src/core/../misc/../font/../misc/lv_area.h ****     dest->y2 = src->y2;
 116:Drivers/lvgl/src/core/../misc/../font/../misc/lv_area.h **** }
 117:Drivers/lvgl/src/core/../misc/../font/../misc/lv_area.h **** 
 118:Drivers/lvgl/src/core/../misc/../font/../misc/lv_area.h **** /**
 119:Drivers/lvgl/src/core/../misc/../font/../misc/lv_area.h ****  * Get the width of an area
 120:Drivers/lvgl/src/core/../misc/../font/../misc/lv_area.h ****  * @param area_p pointer to an area
 121:Drivers/lvgl/src/core/../misc/../font/../misc/lv_area.h ****  * @return the width of the area (if x1 == x2 -> width = 1)
 122:Drivers/lvgl/src/core/../misc/../font/../misc/lv_area.h ****  */
 123:Drivers/lvgl/src/core/../misc/../font/../misc/lv_area.h **** static inline lv_coord_t lv_area_get_width(const lv_area_t * area_p)
 124:Drivers/lvgl/src/core/../misc/../font/../misc/lv_area.h **** {
 125:Drivers/lvgl/src/core/../misc/../font/../misc/lv_area.h ****     return (lv_coord_t)(area_p->x2 - area_p->x1 + 1);
 126:Drivers/lvgl/src/core/../misc/../font/../misc/lv_area.h **** }
 127:Drivers/lvgl/src/core/../misc/../font/../misc/lv_area.h **** 
 128:Drivers/lvgl/src/core/../misc/../font/../misc/lv_area.h **** /**
 129:Drivers/lvgl/src/core/../misc/../font/../misc/lv_area.h ****  * Get the height of an area
 130:Drivers/lvgl/src/core/../misc/../font/../misc/lv_area.h ****  * @param area_p pointer to an area
 131:Drivers/lvgl/src/core/../misc/../font/../misc/lv_area.h ****  * @return the height of the area (if y1 == y2 -> height = 1)
 132:Drivers/lvgl/src/core/../misc/../font/../misc/lv_area.h ****  */
 133:Drivers/lvgl/src/core/../misc/../font/../misc/lv_area.h **** static inline lv_coord_t lv_area_get_height(const lv_area_t * area_p)
 134:Drivers/lvgl/src/core/../misc/../font/../misc/lv_area.h **** {
 135:Drivers/lvgl/src/core/../misc/../font/../misc/lv_area.h ****     return (lv_coord_t)(area_p->y2 - area_p->y1 + 1);
 298              		.loc 3 135 49 is_stmt 0 view .LVU83
 299 00e0 628B     		ldrh	r2, [r4, #26]
 300              	.LBE97:
 301              	.LBE96:
 539:Drivers/lvgl/src/core/lv_indev_scroll.c ****                     break;
 302              		.loc 1 539 43 view .LVU84
 303 00e2 E18A     		ldrh	r1, [r4, #22]
 539:Drivers/lvgl/src/core/lv_indev_scroll.c ****                     break;
 304              		.loc 1 539 93 view .LVU85
 305 00e4 059B     		ldr	r3, [sp, #20]
 306              	.LBB100:
 307              	.LBB98:
 308              		.loc 3 135 49 view .LVU86
 309 00e6 0132     		adds	r2, r2, #1
 310 00e8 521A     		subs	r2, r2, r1
 311              	.LBE98:
 312              	.LBE100:
 539:Drivers/lvgl/src/core/lv_indev_scroll.c ****                     break;
 313              		.loc 1 539 60 view .LVU87
 314 00ea 12B2     		sxth	r2, r2
 539:Drivers/lvgl/src/core/lv_indev_scroll.c ****                     break;
 315              		.loc 1 539 93 view .LVU88
 316 00ec D21A     		subs	r2, r2, r3
 539:Drivers/lvgl/src/core/lv_indev_scroll.c ****                     break;
 317              		.loc 1 539 103 view .LVU89
 318 00ee 039B     		ldr	r3, [sp, #12]
 319 00f0 D21A     		subs	r2, r2, r3
 539:Drivers/lvgl/src/core/lv_indev_scroll.c ****                     break;
 320              		.loc 1 539 47 view .LVU90
 321 00f2 029B     		ldr	r3, [sp, #8]
 539:Drivers/lvgl/src/core/lv_indev_scroll.c ****                     break;
 322              		.loc 1 539 117 view .LVU91
 323 00f4 02EBD272 		add	r2, r2, r2, lsr #31
 539:Drivers/lvgl/src/core/lv_indev_scroll.c ****                     break;
 324              		.loc 1 539 47 view .LVU92
ARM GAS  /var/folders/0z/tsy30v1j4xl4_7kw94k978ww0000gn/T//cc3yoOHj.s 			page 22


 325 00f8 1944     		add	r1, r1, r3
 539:Drivers/lvgl/src/core/lv_indev_scroll.c ****                     break;
 326              		.loc 1 539 57 view .LVU93
 327 00fa 01EB6202 		add	r2, r1, r2, asr #1
 328              	.LBB101:
 329              	.LBB102:
 330              		.loc 3 135 49 view .LVU94
 331 00fe B8F81A10 		ldrh	r1, [r8, #26]
 332              	.LBE102:
 333              	.LBE101:
 538:Drivers/lvgl/src/core/lv_indev_scroll.c ****                     y_parent = obj->coords.y1 + pad_top + (lv_area_get_height(&obj->coords) - pad_t
 334              		.loc 1 538 44 view .LVU95
 335 0102 B8F81630 		ldrh	r3, [r8, #22]
 336              	.LVL25:
 337              	.LBB105:
 338              	.LBI101:
 133:Drivers/lvgl/src/core/../misc/../font/../misc/lv_area.h **** {
 339              		.loc 3 133 26 is_stmt 1 view .LVU96
 340              	.LBB103:
 341              		.loc 3 135 5 view .LVU97
 342              		.loc 3 135 49 is_stmt 0 view .LVU98
 343 0106 0131     		adds	r1, r1, #1
 344 0108 C91A     		subs	r1, r1, r3
 345              	.LBE103:
 346              	.LBE105:
 538:Drivers/lvgl/src/core/lv_indev_scroll.c ****                     y_parent = obj->coords.y1 + pad_top + (lv_area_get_height(&obj->coords) - pad_t
 347              		.loc 1 538 48 view .LVU99
 348 010a C1F3C030 		ubfx	r0, r1, #15, #1
 349 010e 00FA81F1 		sxtah	r1, r0, r1
 350 0112 03EB6103 		add	r3, r3, r1, asr #1
 539:Drivers/lvgl/src/core/lv_indev_scroll.c ****                     break;
 351              		.loc 1 539 30 view .LVU100
 352 0116 12B2     		sxth	r2, r2
 538:Drivers/lvgl/src/core/lv_indev_scroll.c ****                     y_parent = obj->coords.y1 + pad_top + (lv_area_get_height(&obj->coords) - pad_t
 353              		.loc 1 538 48 view .LVU101
 354 0118 9BB2     		uxth	r3, r3
 355              	.LVL26:
 539:Drivers/lvgl/src/core/lv_indev_scroll.c ****                     break;
 356              		.loc 1 539 21 is_stmt 1 view .LVU102
 357              	.LBB106:
 358              	.LBI96:
 133:Drivers/lvgl/src/core/../misc/../font/../misc/lv_area.h **** {
 359              		.loc 3 133 26 view .LVU103
 360              	.LBB99:
 361              		.loc 3 135 5 view .LVU104
 362              		.loc 3 135 5 is_stmt 0 view .LVU105
 363              	.LBE99:
 364              	.LBE106:
 540:Drivers/lvgl/src/core/lv_indev_scroll.c ****                 default:
 365              		.loc 1 540 21 is_stmt 1 view .LVU106
 366 011a C7E7     		b	.L8
 367              	.LVL27:
 368              	.L6:
 534:Drivers/lvgl/src/core/lv_indev_scroll.c ****                     y_parent = obj->coords.y2 - pad_bottom;
 369              		.loc 1 534 21 view .LVU107
 535:Drivers/lvgl/src/core/lv_indev_scroll.c ****                     break;
 370              		.loc 1 535 21 view .LVU108
ARM GAS  /var/folders/0z/tsy30v1j4xl4_7kw94k978ww0000gn/T//cc3yoOHj.s 			page 23


 535:Drivers/lvgl/src/core/lv_indev_scroll.c ****                     break;
 371              		.loc 1 535 47 is_stmt 0 view .LVU109
 372 011c 628B     		ldrh	r2, [r4, #26]
 373 011e 0499     		ldr	r1, [sp, #16]
 374              	.LBB107:
 375              	.LBB104:
 376              		.loc 3 135 31 view .LVU110
 377 0120 B8F81A30 		ldrh	r3, [r8, #26]
 378              	.LBE104:
 379              	.LBE107:
 535:Drivers/lvgl/src/core/lv_indev_scroll.c ****                     break;
 380              		.loc 1 535 47 view .LVU111
 381 0124 521A     		subs	r2, r2, r1
 535:Drivers/lvgl/src/core/lv_indev_scroll.c ****                     break;
 382              		.loc 1 535 30 view .LVU112
 383 0126 12B2     		sxth	r2, r2
 384              	.LVL28:
 536:Drivers/lvgl/src/core/lv_indev_scroll.c ****                 case LV_SCROLL_SNAP_CENTER:
 385              		.loc 1 536 21 is_stmt 1 view .LVU113
 386 0128 C0E7     		b	.L8
 387              	.L21:
 388 012a 00BF     		.align	2
 389              	.L20:
 390 012c 01000400 		.word	262145
 391              	.LBE108:
 392              	.LBE110:
 393              		.cfi_endproc
 394              	.LFE168:
 396              		.section	.text.find_snap_point_x,"ax",%progbits
 397              		.align	1
 398              		.p2align 2,,3
 399              		.syntax unified
 400              		.thumb
 401              		.thumb_func
 403              	find_snap_point_x:
 404              	.LVL29:
 405              	.LFB167:
 456:Drivers/lvgl/src/core/lv_indev_scroll.c ****     lv_scroll_snap_t align = lv_obj_get_scroll_snap_x(obj);
 406              		.loc 1 456 1 view -0
 407              		.cfi_startproc
 408              		@ args = 0, pretend = 0, frame = 24
 409              		@ frame_needed = 0, uses_anonymous_args = 0
 457:Drivers/lvgl/src/core/lv_indev_scroll.c ****     if(align == LV_SCROLL_SNAP_NONE) return 0;
 410              		.loc 1 457 5 view .LVU115
 456:Drivers/lvgl/src/core/lv_indev_scroll.c ****     lv_scroll_snap_t align = lv_obj_get_scroll_snap_x(obj);
 411              		.loc 1 456 1 is_stmt 0 view .LVU116
 412 0000 2DE9F04F 		push	{r4, r5, r6, r7, r8, r9, r10, fp, lr}
 413              		.cfi_def_cfa_offset 36
 414              		.cfi_offset 4, -36
 415              		.cfi_offset 5, -32
 416              		.cfi_offset 6, -28
 417              		.cfi_offset 7, -24
 418              		.cfi_offset 8, -20
 419              		.cfi_offset 9, -16
 420              		.cfi_offset 10, -12
 421              		.cfi_offset 11, -8
 422              		.cfi_offset 14, -4
ARM GAS  /var/folders/0z/tsy30v1j4xl4_7kw94k978ww0000gn/T//cc3yoOHj.s 			page 24


 423 0004 87B0     		sub	sp, sp, #28
 424              		.cfi_def_cfa_offset 64
 456:Drivers/lvgl/src/core/lv_indev_scroll.c ****     lv_scroll_snap_t align = lv_obj_get_scroll_snap_x(obj);
 425              		.loc 1 456 1 view .LVU117
 426 0006 0446     		mov	r4, r0
 427 0008 8946     		mov	r9, r1
 428 000a 0092     		str	r2, [sp]
 429 000c 9A46     		mov	r10, r3
 457:Drivers/lvgl/src/core/lv_indev_scroll.c ****     if(align == LV_SCROLL_SNAP_NONE) return 0;
 430              		.loc 1 457 30 view .LVU118
 431 000e FFF7FEFF 		bl	lv_obj_get_scroll_snap_x
 432              	.LVL30:
 458:Drivers/lvgl/src/core/lv_indev_scroll.c **** 
 433              		.loc 1 458 5 is_stmt 1 view .LVU119
 458:Drivers/lvgl/src/core/lv_indev_scroll.c **** 
 434              		.loc 1 458 7 is_stmt 0 view .LVU120
 435 0012 18B9     		cbnz	r0, .L23
 436              	.LVL31:
 437              	.L25:
 458:Drivers/lvgl/src/core/lv_indev_scroll.c **** 
 438              		.loc 1 458 45 view .LVU121
 439 0014 0020     		movs	r0, #0
 499:Drivers/lvgl/src/core/lv_indev_scroll.c **** 
 440              		.loc 1 499 1 view .LVU122
 441 0016 07B0     		add	sp, sp, #28
 442              		.cfi_remember_state
 443              		.cfi_def_cfa_offset 36
 444              		@ sp needed
 445 0018 BDE8F08F 		pop	{r4, r5, r6, r7, r8, r9, r10, fp, pc}
 446              	.LVL32:
 447              	.L23:
 448              		.cfi_restore_state
 460:Drivers/lvgl/src/core/lv_indev_scroll.c **** 
 449              		.loc 1 460 5 is_stmt 1 view .LVU123
 462:Drivers/lvgl/src/core/lv_indev_scroll.c ****     lv_coord_t pad_right = lv_obj_get_style_pad_right(obj, LV_PART_MAIN);
 450              		.loc 1 462 5 view .LVU124
 451              	.LBB111:
 452              	.LBI111:
 113:Drivers/lvgl/src/core/lv_obj_style_gen.h **** }
 114:Drivers/lvgl/src/core/lv_obj_style_gen.h **** 
 115:Drivers/lvgl/src/core/lv_obj_style_gen.h **** static inline lv_coord_t lv_obj_get_style_pad_left(const struct _lv_obj_t * obj, uint32_t part)
 453              		.loc 2 115 26 view .LVU125
 454              	.LBB112:
 116:Drivers/lvgl/src/core/lv_obj_style_gen.h **** {
 117:Drivers/lvgl/src/core/lv_obj_style_gen.h ****     lv_style_value_t v = lv_obj_get_style_prop(obj, part, LV_STYLE_PAD_LEFT);
 455              		.loc 2 117 5 view .LVU126
 456              		.loc 2 117 26 is_stmt 0 view .LVU127
 457 001c 1222     		movs	r2, #18
 458 001e 0021     		movs	r1, #0
 459 0020 0546     		mov	r5, r0
 460 0022 2046     		mov	r0, r4
 461              	.LVL33:
 462              		.loc 2 117 26 view .LVU128
 463 0024 FFF7FEFF 		bl	lv_obj_get_style_prop
 464              	.LVL34:
 465              	.LBE112:
 466              	.LBE111:
ARM GAS  /var/folders/0z/tsy30v1j4xl4_7kw94k978ww0000gn/T//cc3yoOHj.s 			page 25


 467              	.LBB115:
 468              	.LBB116:
 118:Drivers/lvgl/src/core/lv_obj_style_gen.h ****     return (lv_coord_t)v.num;
 119:Drivers/lvgl/src/core/lv_obj_style_gen.h **** }
 120:Drivers/lvgl/src/core/lv_obj_style_gen.h **** 
 121:Drivers/lvgl/src/core/lv_obj_style_gen.h **** static inline lv_coord_t lv_obj_get_style_pad_right(const struct _lv_obj_t * obj, uint32_t part)
 122:Drivers/lvgl/src/core/lv_obj_style_gen.h **** {
 123:Drivers/lvgl/src/core/lv_obj_style_gen.h ****     lv_style_value_t v = lv_obj_get_style_prop(obj, part, LV_STYLE_PAD_RIGHT);
 469              		.loc 2 123 26 view .LVU129
 470 0028 1322     		movs	r2, #19
 471              	.LBE116:
 472              	.LBE115:
 473              	.LBB119:
 474              	.LBB113:
 117:Drivers/lvgl/src/core/lv_obj_style_gen.h ****     return (lv_coord_t)v.num;
 475              		.loc 2 117 26 view .LVU130
 476 002a 0746     		mov	r7, r0
 477 002c 0290     		str	r0, [sp, #8]
 118:Drivers/lvgl/src/core/lv_obj_style_gen.h ****     return (lv_coord_t)v.num;
 478              		.loc 2 118 5 is_stmt 1 view .LVU131
 479              	.LBE113:
 480              	.LBE119:
 481              	.LBB120:
 482              	.LBB117:
 483              		.loc 2 123 26 is_stmt 0 view .LVU132
 484 002e 0021     		movs	r1, #0
 485 0030 2046     		mov	r0, r4
 486 0032 FFF7FEFF 		bl	lv_obj_get_style_prop
 487              	.LVL35:
 488 0036 0646     		mov	r6, r0
 489 0038 0490     		str	r0, [sp, #16]
 490              	.LBE117:
 491              	.LBE120:
 466:Drivers/lvgl/src/core/lv_indev_scroll.c ****     for(i = 0; i < child_cnt; i++) {
 492              		.loc 1 466 26 view .LVU133
 493 003a 2046     		mov	r0, r4
 494 003c FFF7FEFF 		bl	lv_obj_get_child_cnt
 495              	.LVL36:
 496              	.LBB121:
 497              	.LBB114:
 118:Drivers/lvgl/src/core/lv_obj_style_gen.h ****     return (lv_coord_t)v.num;
 498              		.loc 2 118 12 view .LVU134
 499 0040 3BB2     		sxth	r3, r7
 500 0042 0593     		str	r3, [sp, #20]
 501              	.LVL37:
 118:Drivers/lvgl/src/core/lv_obj_style_gen.h ****     return (lv_coord_t)v.num;
 502              		.loc 2 118 12 view .LVU135
 503              	.LBE114:
 504              	.LBE121:
 463:Drivers/lvgl/src/core/lv_indev_scroll.c **** 
 505              		.loc 1 463 5 is_stmt 1 view .LVU136
 506              	.LBB122:
 507              	.LBI115:
 121:Drivers/lvgl/src/core/lv_obj_style_gen.h **** {
 508              		.loc 2 121 26 view .LVU137
 509              	.LBB118:
 510              		.loc 2 123 5 view .LVU138
ARM GAS  /var/folders/0z/tsy30v1j4xl4_7kw94k978ww0000gn/T//cc3yoOHj.s 			page 26


 124:Drivers/lvgl/src/core/lv_obj_style_gen.h ****     return (lv_coord_t)v.num;
 511              		.loc 2 124 5 view .LVU139
 512              		.loc 2 124 12 is_stmt 0 view .LVU140
 513 0044 33B2     		sxth	r3, r6
 514 0046 0393     		str	r3, [sp, #12]
 515              	.LVL38:
 516              		.loc 2 124 12 view .LVU141
 517              	.LBE118:
 518              	.LBE122:
 465:Drivers/lvgl/src/core/lv_indev_scroll.c ****     uint32_t child_cnt = lv_obj_get_child_cnt(obj);
 519              		.loc 1 465 5 is_stmt 1 view .LVU142
 466:Drivers/lvgl/src/core/lv_indev_scroll.c ****     for(i = 0; i < child_cnt; i++) {
 520              		.loc 1 466 5 view .LVU143
 467:Drivers/lvgl/src/core/lv_indev_scroll.c ****         lv_obj_t * child = obj->spec_attr->children[i];
 521              		.loc 1 467 5 view .LVU144
 467:Drivers/lvgl/src/core/lv_indev_scroll.c ****         lv_obj_t * child = obj->spec_attr->children[i];
 522              		.loc 1 467 18 view .LVU145
 523 0048 0646     		mov	r6, r0
 524 004a 0028     		cmp	r0, #0
 525 004c E2D0     		beq	.L25
 460:Drivers/lvgl/src/core/lv_indev_scroll.c **** 
 526              		.loc 1 460 16 is_stmt 0 view .LVU146
 527 004e 41F6FF73 		movw	r3, #8191
 528              	.LBB123:
 469:Drivers/lvgl/src/core/lv_indev_scroll.c ****         if(lv_obj_has_flag(child, LV_OBJ_FLAG_SNAPPABLE)) {
 529              		.loc 1 469 12 view .LVU147
 530 0052 364F     		ldr	r7, .L40
 531              	.LBE123:
 460:Drivers/lvgl/src/core/lv_indev_scroll.c **** 
 532              		.loc 1 460 16 view .LVU148
 533 0054 0193     		str	r3, [sp, #4]
 467:Drivers/lvgl/src/core/lv_indev_scroll.c ****         lv_obj_t * child = obj->spec_attr->children[i];
 534              		.loc 1 467 11 view .LVU149
 535 0056 4FF0000B 		mov	fp, #0
 536              	.LVL39:
 537              	.L30:
 538              	.LBB139:
 468:Drivers/lvgl/src/core/lv_indev_scroll.c ****         if(lv_obj_has_flag_any(child, LV_OBJ_FLAG_HIDDEN | LV_OBJ_FLAG_FLOATING)) continue;
 539              		.loc 1 468 9 is_stmt 1 view .LVU150
 468:Drivers/lvgl/src/core/lv_indev_scroll.c ****         if(lv_obj_has_flag_any(child, LV_OBJ_FLAG_HIDDEN | LV_OBJ_FLAG_FLOATING)) continue;
 540              		.loc 1 468 42 is_stmt 0 view .LVU151
 541 005a A368     		ldr	r3, [r4, #8]
 468:Drivers/lvgl/src/core/lv_indev_scroll.c ****         if(lv_obj_has_flag_any(child, LV_OBJ_FLAG_HIDDEN | LV_OBJ_FLAG_FLOATING)) continue;
 542              		.loc 1 468 20 view .LVU152
 543 005c 1B68     		ldr	r3, [r3]
 544 005e 53F82B80 		ldr	r8, [r3, fp, lsl #2]
 545              	.LVL40:
 469:Drivers/lvgl/src/core/lv_indev_scroll.c ****         if(lv_obj_has_flag(child, LV_OBJ_FLAG_SNAPPABLE)) {
 546              		.loc 1 469 9 is_stmt 1 view .LVU153
 469:Drivers/lvgl/src/core/lv_indev_scroll.c ****         if(lv_obj_has_flag(child, LV_OBJ_FLAG_SNAPPABLE)) {
 547              		.loc 1 469 12 is_stmt 0 view .LVU154
 548 0062 3946     		mov	r1, r7
 549 0064 4046     		mov	r0, r8
 550 0066 FFF7FEFF 		bl	lv_obj_has_flag_any
 551              	.LVL41:
 469:Drivers/lvgl/src/core/lv_indev_scroll.c ****         if(lv_obj_has_flag(child, LV_OBJ_FLAG_SNAPPABLE)) {
 552              		.loc 1 469 11 view .LVU155
ARM GAS  /var/folders/0z/tsy30v1j4xl4_7kw94k978ww0000gn/T//cc3yoOHj.s 			page 27


 553 006a 58B9     		cbnz	r0, .L26
 470:Drivers/lvgl/src/core/lv_indev_scroll.c ****             lv_coord_t x_child = 0;
 554              		.loc 1 470 9 is_stmt 1 view .LVU156
 470:Drivers/lvgl/src/core/lv_indev_scroll.c ****             lv_coord_t x_child = 0;
 555              		.loc 1 470 12 is_stmt 0 view .LVU157
 556 006c 4FF48051 		mov	r1, #4096
 557 0070 4046     		mov	r0, r8
 558 0072 FFF7FEFF 		bl	lv_obj_has_flag
 559              	.LVL42:
 470:Drivers/lvgl/src/core/lv_indev_scroll.c ****             lv_coord_t x_child = 0;
 560              		.loc 1 470 11 view .LVU158
 561 0076 28B1     		cbz	r0, .L26
 562              	.LBB124:
 471:Drivers/lvgl/src/core/lv_indev_scroll.c ****             lv_coord_t x_parent = 0;
 563              		.loc 1 471 13 is_stmt 1 view .LVU159
 564              	.LVL43:
 472:Drivers/lvgl/src/core/lv_indev_scroll.c ****             switch(align) {
 565              		.loc 1 472 13 view .LVU160
 473:Drivers/lvgl/src/core/lv_indev_scroll.c ****                 case LV_SCROLL_SNAP_START:
 566              		.loc 1 473 13 view .LVU161
 567 0078 022D     		cmp	r5, #2
 568 007a 4FD0     		beq	.L27
 569 007c 032D     		cmp	r5, #3
 570 007e 2FD0     		beq	.L28
 571 0080 012D     		cmp	r5, #1
 572 0082 0DD0     		beq	.L39
 573              	.LVL44:
 574              	.L26:
 473:Drivers/lvgl/src/core/lv_indev_scroll.c ****                 case LV_SCROLL_SNAP_START:
 575              		.loc 1 473 13 is_stmt 0 view .LVU162
 576              	.LBE124:
 577              	.LBE139:
 467:Drivers/lvgl/src/core/lv_indev_scroll.c ****         lv_obj_t * child = obj->spec_attr->children[i];
 578              		.loc 1 467 32 is_stmt 1 discriminator 2 view .LVU163
 579 0084 0BF1010B 		add	fp, fp, #1
 580              	.LVL45:
 467:Drivers/lvgl/src/core/lv_indev_scroll.c ****         lv_obj_t * child = obj->spec_attr->children[i];
 581              		.loc 1 467 18 discriminator 2 view .LVU164
 582 0088 5E45     		cmp	r6, fp
 583 008a E6D1     		bne	.L30
 498:Drivers/lvgl/src/core/lv_indev_scroll.c **** }
 584              		.loc 1 498 5 view .LVU165
 498:Drivers/lvgl/src/core/lv_indev_scroll.c **** }
 585              		.loc 1 498 37 is_stmt 0 view .LVU166
 586 008c 019A     		ldr	r2, [sp, #4]
 587 008e 41F6FF73 		movw	r3, #8191
 588 0092 9A42     		cmp	r2, r3
 589 0094 BED0     		beq	.L25
 498:Drivers/lvgl/src/core/lv_indev_scroll.c **** }
 590              		.loc 1 498 37 discriminator 1 view .LVU167
 591 0096 5042     		rsbs	r0, r2, #0
 592 0098 00B2     		sxth	r0, r0
 499:Drivers/lvgl/src/core/lv_indev_scroll.c **** 
 593              		.loc 1 499 1 discriminator 1 view .LVU168
 594 009a 07B0     		add	sp, sp, #28
 595              		.cfi_remember_state
 596              		.cfi_def_cfa_offset 36
ARM GAS  /var/folders/0z/tsy30v1j4xl4_7kw94k978ww0000gn/T//cc3yoOHj.s 			page 28


 597              		@ sp needed
 598 009c BDE8F08F 		pop	{r4, r5, r6, r7, r8, r9, r10, fp, pc}
 599              	.LVL46:
 600              	.L39:
 601              		.cfi_restore_state
 602              	.LBB140:
 603              	.LBB138:
 475:Drivers/lvgl/src/core/lv_indev_scroll.c ****                     x_parent = obj->coords.x1 + pad_left;
 604              		.loc 1 475 21 is_stmt 1 view .LVU169
 476:Drivers/lvgl/src/core/lv_indev_scroll.c ****                     break;
 605              		.loc 1 476 21 view .LVU170
 476:Drivers/lvgl/src/core/lv_indev_scroll.c ****                     break;
 606              		.loc 1 476 47 is_stmt 0 view .LVU171
 607 00a0 A28A     		ldrh	r2, [r4, #20]
 608 00a2 0299     		ldr	r1, [sp, #8]
 483:Drivers/lvgl/src/core/lv_indev_scroll.c ****                     x_parent = obj->coords.x1 + pad_left + (lv_area_get_width(&obj->coords) - pad_l
 609              		.loc 1 483 44 view .LVU172
 610 00a4 B8F81430 		ldrh	r3, [r8, #20]
 476:Drivers/lvgl/src/core/lv_indev_scroll.c ****                     break;
 611              		.loc 1 476 47 view .LVU173
 612 00a8 0A44     		add	r2, r2, r1
 476:Drivers/lvgl/src/core/lv_indev_scroll.c ****                     break;
 613              		.loc 1 476 30 view .LVU174
 614 00aa 12B2     		sxth	r2, r2
 615              	.LVL47:
 477:Drivers/lvgl/src/core/lv_indev_scroll.c ****                 case LV_SCROLL_SNAP_END:
 616              		.loc 1 477 21 is_stmt 1 view .LVU175
 617              	.L29:
 490:Drivers/lvgl/src/core/lv_indev_scroll.c ****             if(x_child >= min && x_child <= max) {
 618              		.loc 1 490 13 view .LVU176
 490:Drivers/lvgl/src/core/lv_indev_scroll.c ****             if(x_child >= min && x_child <= max) {
 619              		.loc 1 490 21 is_stmt 0 view .LVU177
 620 00ac 5344     		add	r3, r3, r10
 621 00ae 19B2     		sxth	r1, r3
 622              	.LVL48:
 491:Drivers/lvgl/src/core/lv_indev_scroll.c ****                 lv_coord_t x = x_child -  x_parent;
 623              		.loc 1 491 13 is_stmt 1 view .LVU178
 491:Drivers/lvgl/src/core/lv_indev_scroll.c ****                 lv_coord_t x = x_child -  x_parent;
 624              		.loc 1 491 15 is_stmt 0 view .LVU179
 625 00b0 4945     		cmp	r1, r9
 490:Drivers/lvgl/src/core/lv_indev_scroll.c ****             if(x_child >= min && x_child <= max) {
 626              		.loc 1 490 21 view .LVU180
 627 00b2 9BB2     		uxth	r3, r3
 491:Drivers/lvgl/src/core/lv_indev_scroll.c ****                 lv_coord_t x = x_child -  x_parent;
 628              		.loc 1 491 15 view .LVU181
 629 00b4 E6DB     		blt	.L26
 491:Drivers/lvgl/src/core/lv_indev_scroll.c ****                 lv_coord_t x = x_child -  x_parent;
 630              		.loc 1 491 31 discriminator 1 view .LVU182
 631 00b6 0098     		ldr	r0, [sp]
 632 00b8 8142     		cmp	r1, r0
 633 00ba E3DC     		bgt	.L26
 634              	.LBB125:
 492:Drivers/lvgl/src/core/lv_indev_scroll.c ****                 if(LV_ABS(x) < LV_ABS(dist)) dist = x;
 635              		.loc 1 492 17 is_stmt 1 view .LVU183
 493:Drivers/lvgl/src/core/lv_indev_scroll.c ****             }
 636              		.loc 1 493 32 is_stmt 0 view .LVU184
 637 00bc 0198     		ldr	r0, [sp, #4]
ARM GAS  /var/folders/0z/tsy30v1j4xl4_7kw94k978ww0000gn/T//cc3yoOHj.s 			page 29


 492:Drivers/lvgl/src/core/lv_indev_scroll.c ****                 if(LV_ABS(x) < LV_ABS(dist)) dist = x;
 638              		.loc 1 492 40 view .LVU185
 639 00be 9B1A     		subs	r3, r3, r2
 492:Drivers/lvgl/src/core/lv_indev_scroll.c ****                 if(LV_ABS(x) < LV_ABS(dist)) dist = x;
 640              		.loc 1 492 28 view .LVU186
 641 00c0 1BB2     		sxth	r3, r3
 642              	.LVL49:
 493:Drivers/lvgl/src/core/lv_indev_scroll.c ****             }
 643              		.loc 1 493 17 is_stmt 1 view .LVU187
 493:Drivers/lvgl/src/core/lv_indev_scroll.c ****             }
 644              		.loc 1 493 32 is_stmt 0 view .LVU188
 645 00c2 80EAE072 		eor	r2, r0, r0, asr #31
 646              	.LVL50:
 493:Drivers/lvgl/src/core/lv_indev_scroll.c ****             }
 647              		.loc 1 493 20 view .LVU189
 648 00c6 83EAE371 		eor	r1, r3, r3, asr #31
 649              	.LVL51:
 493:Drivers/lvgl/src/core/lv_indev_scroll.c ****             }
 650              		.loc 1 493 32 view .LVU190
 651 00ca A2EBE072 		sub	r2, r2, r0, asr #31
 493:Drivers/lvgl/src/core/lv_indev_scroll.c ****             }
 652              		.loc 1 493 20 view .LVU191
 653 00ce A1EBE371 		sub	r1, r1, r3, asr #31
 493:Drivers/lvgl/src/core/lv_indev_scroll.c ****             }
 654              		.loc 1 493 19 view .LVU192
 655 00d2 92B2     		uxth	r2, r2
 656 00d4 89B2     		uxth	r1, r1
 493:Drivers/lvgl/src/core/lv_indev_scroll.c ****             }
 657              		.loc 1 493 51 view .LVU193
 658 00d6 9142     		cmp	r1, r2
 659 00d8 38BF     		it	cc
 660 00da 1846     		movcc	r0, r3
 661 00dc 0190     		str	r0, [sp, #4]
 662              	.LVL52:
 493:Drivers/lvgl/src/core/lv_indev_scroll.c ****             }
 663              		.loc 1 493 51 view .LVU194
 664 00de D1E7     		b	.L26
 665              	.LVL53:
 666              	.L28:
 493:Drivers/lvgl/src/core/lv_indev_scroll.c ****             }
 667              		.loc 1 493 51 view .LVU195
 668              	.LBE125:
 483:Drivers/lvgl/src/core/lv_indev_scroll.c ****                     x_parent = obj->coords.x1 + pad_left + (lv_area_get_width(&obj->coords) - pad_l
 669              		.loc 1 483 21 is_stmt 1 view .LVU196
 670              	.LBB126:
 671              	.LBB127:
 125:Drivers/lvgl/src/core/../misc/../font/../misc/lv_area.h **** }
 672              		.loc 3 125 49 is_stmt 0 view .LVU197
 673 00e0 228B     		ldrh	r2, [r4, #24]
 674              	.LBE127:
 675              	.LBE126:
 484:Drivers/lvgl/src/core/lv_indev_scroll.c ****                     break;
 676              		.loc 1 484 43 view .LVU198
 677 00e2 A18A     		ldrh	r1, [r4, #20]
 484:Drivers/lvgl/src/core/lv_indev_scroll.c ****                     break;
 678              		.loc 1 484 93 view .LVU199
 679 00e4 059B     		ldr	r3, [sp, #20]
ARM GAS  /var/folders/0z/tsy30v1j4xl4_7kw94k978ww0000gn/T//cc3yoOHj.s 			page 30


 680              	.LBB130:
 681              	.LBB128:
 125:Drivers/lvgl/src/core/../misc/../font/../misc/lv_area.h **** }
 682              		.loc 3 125 49 view .LVU200
 683 00e6 0132     		adds	r2, r2, #1
 684 00e8 521A     		subs	r2, r2, r1
 685              	.LBE128:
 686              	.LBE130:
 484:Drivers/lvgl/src/core/lv_indev_scroll.c ****                     break;
 687              		.loc 1 484 61 view .LVU201
 688 00ea 12B2     		sxth	r2, r2
 484:Drivers/lvgl/src/core/lv_indev_scroll.c ****                     break;
 689              		.loc 1 484 93 view .LVU202
 690 00ec D21A     		subs	r2, r2, r3
 484:Drivers/lvgl/src/core/lv_indev_scroll.c ****                     break;
 691              		.loc 1 484 104 view .LVU203
 692 00ee 039B     		ldr	r3, [sp, #12]
 693 00f0 D21A     		subs	r2, r2, r3
 484:Drivers/lvgl/src/core/lv_indev_scroll.c ****                     break;
 694              		.loc 1 484 47 view .LVU204
 695 00f2 029B     		ldr	r3, [sp, #8]
 484:Drivers/lvgl/src/core/lv_indev_scroll.c ****                     break;
 696              		.loc 1 484 117 view .LVU205
 697 00f4 02EBD272 		add	r2, r2, r2, lsr #31
 484:Drivers/lvgl/src/core/lv_indev_scroll.c ****                     break;
 698              		.loc 1 484 47 view .LVU206
 699 00f8 1944     		add	r1, r1, r3
 484:Drivers/lvgl/src/core/lv_indev_scroll.c ****                     break;
 700              		.loc 1 484 58 view .LVU207
 701 00fa 01EB6202 		add	r2, r1, r2, asr #1
 702              	.LBB131:
 703              	.LBB132:
 125:Drivers/lvgl/src/core/../misc/../font/../misc/lv_area.h **** }
 704              		.loc 3 125 49 view .LVU208
 705 00fe B8F81810 		ldrh	r1, [r8, #24]
 706              	.LBE132:
 707              	.LBE131:
 483:Drivers/lvgl/src/core/lv_indev_scroll.c ****                     x_parent = obj->coords.x1 + pad_left + (lv_area_get_width(&obj->coords) - pad_l
 708              		.loc 1 483 44 view .LVU209
 709 0102 B8F81430 		ldrh	r3, [r8, #20]
 710              	.LVL54:
 711              	.LBB135:
 712              	.LBI131:
 123:Drivers/lvgl/src/core/../misc/../font/../misc/lv_area.h **** {
 713              		.loc 3 123 26 is_stmt 1 view .LVU210
 714              	.LBB133:
 125:Drivers/lvgl/src/core/../misc/../font/../misc/lv_area.h **** }
 715              		.loc 3 125 5 view .LVU211
 125:Drivers/lvgl/src/core/../misc/../font/../misc/lv_area.h **** }
 716              		.loc 3 125 49 is_stmt 0 view .LVU212
 717 0106 0131     		adds	r1, r1, #1
 718 0108 C91A     		subs	r1, r1, r3
 719              	.LBE133:
 720              	.LBE135:
 483:Drivers/lvgl/src/core/lv_indev_scroll.c ****                     x_parent = obj->coords.x1 + pad_left + (lv_area_get_width(&obj->coords) - pad_l
 721              		.loc 1 483 48 view .LVU213
 722 010a C1F3C030 		ubfx	r0, r1, #15, #1
ARM GAS  /var/folders/0z/tsy30v1j4xl4_7kw94k978ww0000gn/T//cc3yoOHj.s 			page 31


 723 010e 00FA81F1 		sxtah	r1, r0, r1
 724 0112 03EB6103 		add	r3, r3, r1, asr #1
 484:Drivers/lvgl/src/core/lv_indev_scroll.c ****                     break;
 725              		.loc 1 484 30 view .LVU214
 726 0116 12B2     		sxth	r2, r2
 483:Drivers/lvgl/src/core/lv_indev_scroll.c ****                     x_parent = obj->coords.x1 + pad_left + (lv_area_get_width(&obj->coords) - pad_l
 727              		.loc 1 483 48 view .LVU215
 728 0118 9BB2     		uxth	r3, r3
 729              	.LVL55:
 484:Drivers/lvgl/src/core/lv_indev_scroll.c ****                     break;
 730              		.loc 1 484 21 is_stmt 1 view .LVU216
 731              	.LBB136:
 732              	.LBI126:
 123:Drivers/lvgl/src/core/../misc/../font/../misc/lv_area.h **** {
 733              		.loc 3 123 26 view .LVU217
 734              	.LBB129:
 125:Drivers/lvgl/src/core/../misc/../font/../misc/lv_area.h **** }
 735              		.loc 3 125 5 view .LVU218
 125:Drivers/lvgl/src/core/../misc/../font/../misc/lv_area.h **** }
 736              		.loc 3 125 5 is_stmt 0 view .LVU219
 737              	.LBE129:
 738              	.LBE136:
 485:Drivers/lvgl/src/core/lv_indev_scroll.c ****                 default:
 739              		.loc 1 485 21 is_stmt 1 view .LVU220
 740 011a C7E7     		b	.L29
 741              	.LVL56:
 742              	.L27:
 479:Drivers/lvgl/src/core/lv_indev_scroll.c ****                     x_parent = obj->coords.x2 - pad_right;
 743              		.loc 1 479 21 view .LVU221
 480:Drivers/lvgl/src/core/lv_indev_scroll.c ****                     break;
 744              		.loc 1 480 21 view .LVU222
 480:Drivers/lvgl/src/core/lv_indev_scroll.c ****                     break;
 745              		.loc 1 480 47 is_stmt 0 view .LVU223
 746 011c 228B     		ldrh	r2, [r4, #24]
 747 011e 0499     		ldr	r1, [sp, #16]
 748              	.LBB137:
 749              	.LBB134:
 125:Drivers/lvgl/src/core/../misc/../font/../misc/lv_area.h **** }
 750              		.loc 3 125 31 view .LVU224
 751 0120 B8F81830 		ldrh	r3, [r8, #24]
 752              	.LBE134:
 753              	.LBE137:
 480:Drivers/lvgl/src/core/lv_indev_scroll.c ****                     break;
 754              		.loc 1 480 47 view .LVU225
 755 0124 521A     		subs	r2, r2, r1
 480:Drivers/lvgl/src/core/lv_indev_scroll.c ****                     break;
 756              		.loc 1 480 30 view .LVU226
 757 0126 12B2     		sxth	r2, r2
 758              	.LVL57:
 481:Drivers/lvgl/src/core/lv_indev_scroll.c ****                 case LV_SCROLL_SNAP_CENTER:
 759              		.loc 1 481 21 is_stmt 1 view .LVU227
 760 0128 C0E7     		b	.L29
 761              	.L41:
 762 012a 00BF     		.align	2
 763              	.L40:
 764 012c 01000400 		.word	262145
 765              	.LBE138:
ARM GAS  /var/folders/0z/tsy30v1j4xl4_7kw94k978ww0000gn/T//cc3yoOHj.s 			page 32


 766              	.LBE140:
 767              		.cfi_endproc
 768              	.LFE167:
 770              		.section	.text.elastic_diff.part.0,"ax",%progbits
 771              		.align	1
 772              		.p2align 2,,3
 773              		.syntax unified
 774              		.thumb
 775              		.thumb_func
 777              	elastic_diff.part.0:
 778              	.LVL58:
 779              	.LFB173:
 555:Drivers/lvgl/src/core/lv_indev_scroll.c **** 
 556:Drivers/lvgl/src/core/lv_indev_scroll.c **** static void scroll_limit_diff(_lv_indev_proc_t * proc, lv_coord_t * diff_x, lv_coord_t * diff_y)
 557:Drivers/lvgl/src/core/lv_indev_scroll.c **** {
 558:Drivers/lvgl/src/core/lv_indev_scroll.c ****     if(diff_y) {
 559:Drivers/lvgl/src/core/lv_indev_scroll.c ****         if(proc->types.pointer.scroll_sum.y + *diff_y < proc->types.pointer.scroll_area.y1) {
 560:Drivers/lvgl/src/core/lv_indev_scroll.c ****             *diff_y = proc->types.pointer.scroll_area.y1 - proc->types.pointer.scroll_sum.y;
 561:Drivers/lvgl/src/core/lv_indev_scroll.c ****         }
 562:Drivers/lvgl/src/core/lv_indev_scroll.c **** 
 563:Drivers/lvgl/src/core/lv_indev_scroll.c ****         if(proc->types.pointer.scroll_sum.y + *diff_y > proc->types.pointer.scroll_area.y2) {
 564:Drivers/lvgl/src/core/lv_indev_scroll.c ****             *diff_y = proc->types.pointer.scroll_area.y2 - proc->types.pointer.scroll_sum.y;
 565:Drivers/lvgl/src/core/lv_indev_scroll.c ****         }
 566:Drivers/lvgl/src/core/lv_indev_scroll.c ****     }
 567:Drivers/lvgl/src/core/lv_indev_scroll.c **** 
 568:Drivers/lvgl/src/core/lv_indev_scroll.c ****     if(diff_x) {
 569:Drivers/lvgl/src/core/lv_indev_scroll.c ****         if(proc->types.pointer.scroll_sum.x + *diff_x < proc->types.pointer.scroll_area.x1) {
 570:Drivers/lvgl/src/core/lv_indev_scroll.c ****             *diff_x = proc->types.pointer.scroll_area.x1 - proc->types.pointer.scroll_sum.x;
 571:Drivers/lvgl/src/core/lv_indev_scroll.c ****         }
 572:Drivers/lvgl/src/core/lv_indev_scroll.c **** 
 573:Drivers/lvgl/src/core/lv_indev_scroll.c ****         if(proc->types.pointer.scroll_sum.x + *diff_x > proc->types.pointer.scroll_area.x2) {
 574:Drivers/lvgl/src/core/lv_indev_scroll.c ****             *diff_x = proc->types.pointer.scroll_area.x2 - proc->types.pointer.scroll_sum.x;
 575:Drivers/lvgl/src/core/lv_indev_scroll.c ****         }
 576:Drivers/lvgl/src/core/lv_indev_scroll.c ****     }
 577:Drivers/lvgl/src/core/lv_indev_scroll.c **** }
 578:Drivers/lvgl/src/core/lv_indev_scroll.c **** 
 579:Drivers/lvgl/src/core/lv_indev_scroll.c **** 
 580:Drivers/lvgl/src/core/lv_indev_scroll.c **** 
 581:Drivers/lvgl/src/core/lv_indev_scroll.c **** static lv_coord_t scroll_throw_predict_y(_lv_indev_proc_t * proc)
 582:Drivers/lvgl/src/core/lv_indev_scroll.c **** {
 583:Drivers/lvgl/src/core/lv_indev_scroll.c ****     lv_coord_t y = proc->types.pointer.scroll_throw_vect.y;
 584:Drivers/lvgl/src/core/lv_indev_scroll.c ****     lv_coord_t move = 0;
 585:Drivers/lvgl/src/core/lv_indev_scroll.c **** 
 586:Drivers/lvgl/src/core/lv_indev_scroll.c ****     lv_indev_t * indev_act = lv_indev_get_act();
 587:Drivers/lvgl/src/core/lv_indev_scroll.c ****     lv_coord_t scroll_throw = indev_act->driver->scroll_throw;
 588:Drivers/lvgl/src/core/lv_indev_scroll.c **** 
 589:Drivers/lvgl/src/core/lv_indev_scroll.c ****     while(y) {
 590:Drivers/lvgl/src/core/lv_indev_scroll.c ****         move += y;
 591:Drivers/lvgl/src/core/lv_indev_scroll.c ****         y = y * (100 - scroll_throw) / 100;
 592:Drivers/lvgl/src/core/lv_indev_scroll.c ****     }
 593:Drivers/lvgl/src/core/lv_indev_scroll.c ****     return move;
 594:Drivers/lvgl/src/core/lv_indev_scroll.c **** }
 595:Drivers/lvgl/src/core/lv_indev_scroll.c **** 
 596:Drivers/lvgl/src/core/lv_indev_scroll.c **** 
 597:Drivers/lvgl/src/core/lv_indev_scroll.c **** static lv_coord_t scroll_throw_predict_x(_lv_indev_proc_t * proc)
 598:Drivers/lvgl/src/core/lv_indev_scroll.c **** {
 599:Drivers/lvgl/src/core/lv_indev_scroll.c ****     lv_coord_t x = proc->types.pointer.scroll_throw_vect.x;
ARM GAS  /var/folders/0z/tsy30v1j4xl4_7kw94k978ww0000gn/T//cc3yoOHj.s 			page 33


 600:Drivers/lvgl/src/core/lv_indev_scroll.c ****     lv_coord_t move = 0;
 601:Drivers/lvgl/src/core/lv_indev_scroll.c **** 
 602:Drivers/lvgl/src/core/lv_indev_scroll.c ****     lv_indev_t * indev_act = lv_indev_get_act();
 603:Drivers/lvgl/src/core/lv_indev_scroll.c ****     lv_coord_t scroll_throw = indev_act->driver->scroll_throw;
 604:Drivers/lvgl/src/core/lv_indev_scroll.c **** 
 605:Drivers/lvgl/src/core/lv_indev_scroll.c ****     while(x) {
 606:Drivers/lvgl/src/core/lv_indev_scroll.c ****         move += x;
 607:Drivers/lvgl/src/core/lv_indev_scroll.c ****         x = x * (100 - scroll_throw) / 100;
 608:Drivers/lvgl/src/core/lv_indev_scroll.c ****     }
 609:Drivers/lvgl/src/core/lv_indev_scroll.c ****     return move;
 610:Drivers/lvgl/src/core/lv_indev_scroll.c **** }
 611:Drivers/lvgl/src/core/lv_indev_scroll.c **** 
 612:Drivers/lvgl/src/core/lv_indev_scroll.c **** static lv_coord_t elastic_diff(lv_obj_t * scroll_obj, lv_coord_t diff, lv_coord_t scroll_start, lv_
 780              		.loc 1 612 19 view -0
 781              		.cfi_startproc
 782              		@ args = 4, pretend = 0, frame = 0
 783              		@ frame_needed = 0, uses_anonymous_args = 0
 784              	.LBB141:
 613:Drivers/lvgl/src/core/lv_indev_scroll.c ****                                lv_dir_t dir)
 614:Drivers/lvgl/src/core/lv_indev_scroll.c **** {
 615:Drivers/lvgl/src/core/lv_indev_scroll.c ****     if(lv_obj_has_flag(scroll_obj, LV_OBJ_FLAG_SCROLL_ELASTIC)) {
 616:Drivers/lvgl/src/core/lv_indev_scroll.c ****         /*If there is snapping in the current direction don't use the elastic factor because
 617:Drivers/lvgl/src/core/lv_indev_scroll.c ****          *it's natural that the first and last items are scrolled (snapped) in.*/
 618:Drivers/lvgl/src/core/lv_indev_scroll.c ****         lv_scroll_snap_t snap;
 785              		.loc 1 618 9 view .LVU229
 619:Drivers/lvgl/src/core/lv_indev_scroll.c ****         snap = dir == LV_DIR_HOR ? lv_obj_get_scroll_snap_x(scroll_obj) : lv_obj_get_scroll_snap_y(
 786              		.loc 1 619 9 view .LVU230
 787              	.LBE141:
 612:Drivers/lvgl/src/core/lv_indev_scroll.c ****                                lv_dir_t dir)
 788              		.loc 1 612 19 is_stmt 0 view .LVU231
 789 0000 2DE9F047 		push	{r4, r5, r6, r7, r8, r9, r10, lr}
 790              		.cfi_def_cfa_offset 32
 791              		.cfi_offset 4, -32
 792              		.cfi_offset 5, -28
 793              		.cfi_offset 6, -24
 794              		.cfi_offset 7, -20
 795              		.cfi_offset 8, -16
 796              		.cfi_offset 9, -12
 797              		.cfi_offset 10, -8
 798              		.cfi_offset 14, -4
 612:Drivers/lvgl/src/core/lv_indev_scroll.c ****                                lv_dir_t dir)
 799              		.loc 1 612 19 view .LVU232
 800 0004 1F46     		mov	r7, r3
 801 0006 9DF82030 		ldrb	r3, [sp, #32]	@ zero_extendqisi2
 802              	.LVL59:
 803              	.LBB179:
 804              		.loc 1 619 14 view .LVU233
 805 000a 032B     		cmp	r3, #3
 806              	.LBE179:
 612:Drivers/lvgl/src/core/lv_indev_scroll.c ****                                lv_dir_t dir)
 807              		.loc 1 612 19 view .LVU234
 808 000c 0546     		mov	r5, r0
 809 000e 0C46     		mov	r4, r1
 810 0010 9146     		mov	r9, r2
 811              	.LBB180:
 812              		.loc 1 619 14 view .LVU235
 813 0012 2AD0     		beq	.L75
ARM GAS  /var/folders/0z/tsy30v1j4xl4_7kw94k978ww0000gn/T//cc3yoOHj.s 			page 34


 814              		.loc 1 619 75 view .LVU236
 815 0014 FFF7FEFF 		bl	lv_obj_get_scroll_snap_y
 816              	.LVL60:
 817              		.loc 1 619 75 view .LVU237
 818 0018 8046     		mov	r8, r0
 819              	.LVL61:
 620:Drivers/lvgl/src/core/lv_indev_scroll.c **** 
 621:Drivers/lvgl/src/core/lv_indev_scroll.c ****         lv_obj_t * act_obj = lv_indev_get_obj_act();
 820              		.loc 1 621 9 is_stmt 1 view .LVU238
 821              		.loc 1 621 30 is_stmt 0 view .LVU239
 822 001a FFF7FEFF 		bl	lv_indev_get_obj_act
 823              	.LVL62:
 824              	.LBB142:
 825              	.LBB143:
 826              	.LBB144:
 105:Drivers/lvgl/src/core/lv_obj_style_gen.h ****     return (lv_coord_t)v.num;
 827              		.loc 2 105 26 view .LVU240
 828 001e 1022     		movs	r2, #16
 829 0020 0021     		movs	r1, #0
 830              	.LBE144:
 831              	.LBE143:
 832              	.LBE142:
 833              		.loc 1 621 30 view .LVU241
 834 0022 8246     		mov	r10, r0
 835              	.LVL63:
 622:Drivers/lvgl/src/core/lv_indev_scroll.c ****         lv_coord_t snap_point = 0;
 836              		.loc 1 622 9 is_stmt 1 view .LVU242
 623:Drivers/lvgl/src/core/lv_indev_scroll.c ****         lv_coord_t act_obj_point = 0;
 837              		.loc 1 623 9 view .LVU243
 624:Drivers/lvgl/src/core/lv_indev_scroll.c **** 
 625:Drivers/lvgl/src/core/lv_indev_scroll.c ****         if(dir == LV_DIR_HOR) {
 838              		.loc 1 625 9 view .LVU244
 839              	.LBB157:
 626:Drivers/lvgl/src/core/lv_indev_scroll.c ****             lv_coord_t pad_left = lv_obj_get_style_pad_left(scroll_obj, LV_PART_MAIN);
 627:Drivers/lvgl/src/core/lv_indev_scroll.c ****             lv_coord_t pad_right = lv_obj_get_style_pad_right(scroll_obj, LV_PART_MAIN);
 628:Drivers/lvgl/src/core/lv_indev_scroll.c **** 
 629:Drivers/lvgl/src/core/lv_indev_scroll.c ****             switch(snap) {
 630:Drivers/lvgl/src/core/lv_indev_scroll.c ****                 case LV_SCROLL_SNAP_CENTER:
 631:Drivers/lvgl/src/core/lv_indev_scroll.c ****                     snap_point = pad_left + (lv_area_get_width(&scroll_obj->coords) - pad_left - pa
 632:Drivers/lvgl/src/core/lv_indev_scroll.c ****                     act_obj_point = lv_area_get_width(&act_obj->coords) / 2 + act_obj->coords.x1;
 633:Drivers/lvgl/src/core/lv_indev_scroll.c ****                     break;
 634:Drivers/lvgl/src/core/lv_indev_scroll.c ****                 case LV_SCROLL_SNAP_START:
 635:Drivers/lvgl/src/core/lv_indev_scroll.c ****                     snap_point = scroll_obj->coords.x1 + pad_left;
 636:Drivers/lvgl/src/core/lv_indev_scroll.c ****                     act_obj_point = act_obj->coords.x1;
 637:Drivers/lvgl/src/core/lv_indev_scroll.c ****                     break;
 638:Drivers/lvgl/src/core/lv_indev_scroll.c ****                 case LV_SCROLL_SNAP_END:
 639:Drivers/lvgl/src/core/lv_indev_scroll.c ****                     snap_point = scroll_obj->coords.x2 - pad_right;
 640:Drivers/lvgl/src/core/lv_indev_scroll.c ****                     act_obj_point = act_obj->coords.x2;
 641:Drivers/lvgl/src/core/lv_indev_scroll.c ****                     break;
 642:Drivers/lvgl/src/core/lv_indev_scroll.c ****             }
 643:Drivers/lvgl/src/core/lv_indev_scroll.c ****         }
 644:Drivers/lvgl/src/core/lv_indev_scroll.c ****         else {
 645:Drivers/lvgl/src/core/lv_indev_scroll.c ****             lv_coord_t pad_top = lv_obj_get_style_pad_top(scroll_obj, LV_PART_MAIN);
 840              		.loc 1 645 13 view .LVU245
 841              	.LBB147:
 842              	.LBI143:
 103:Drivers/lvgl/src/core/lv_obj_style_gen.h **** {
ARM GAS  /var/folders/0z/tsy30v1j4xl4_7kw94k978ww0000gn/T//cc3yoOHj.s 			page 35


 843              		.loc 2 103 26 view .LVU246
 844              	.LBB145:
 105:Drivers/lvgl/src/core/lv_obj_style_gen.h ****     return (lv_coord_t)v.num;
 845              		.loc 2 105 5 view .LVU247
 105:Drivers/lvgl/src/core/lv_obj_style_gen.h ****     return (lv_coord_t)v.num;
 846              		.loc 2 105 26 is_stmt 0 view .LVU248
 847 0024 2846     		mov	r0, r5
 848              	.LVL64:
 105:Drivers/lvgl/src/core/lv_obj_style_gen.h ****     return (lv_coord_t)v.num;
 849              		.loc 2 105 26 view .LVU249
 850 0026 FFF7FEFF 		bl	lv_obj_get_style_prop
 851              	.LVL65:
 852              	.LBE145:
 853              	.LBE147:
 854              	.LBB148:
 855              	.LBB149:
 111:Drivers/lvgl/src/core/lv_obj_style_gen.h ****     return (lv_coord_t)v.num;
 856              		.loc 2 111 26 view .LVU250
 857 002a 1122     		movs	r2, #17
 858              	.LBE149:
 859              	.LBE148:
 860              	.LBB151:
 861              	.LBB146:
 105:Drivers/lvgl/src/core/lv_obj_style_gen.h ****     return (lv_coord_t)v.num;
 862              		.loc 2 105 26 view .LVU251
 863 002c 0646     		mov	r6, r0
 864              	.LVL66:
 106:Drivers/lvgl/src/core/lv_obj_style_gen.h **** }
 865              		.loc 2 106 5 is_stmt 1 view .LVU252
 106:Drivers/lvgl/src/core/lv_obj_style_gen.h **** }
 866              		.loc 2 106 5 is_stmt 0 view .LVU253
 867              	.LBE146:
 868              	.LBE151:
 646:Drivers/lvgl/src/core/lv_indev_scroll.c ****             lv_coord_t pad_bottom = lv_obj_get_style_pad_bottom(scroll_obj, LV_PART_MAIN);
 869              		.loc 1 646 13 is_stmt 1 view .LVU254
 870              	.LBB152:
 871              	.LBI148:
 109:Drivers/lvgl/src/core/lv_obj_style_gen.h **** {
 872              		.loc 2 109 26 view .LVU255
 873              	.LBB150:
 111:Drivers/lvgl/src/core/lv_obj_style_gen.h ****     return (lv_coord_t)v.num;
 874              		.loc 2 111 5 view .LVU256
 111:Drivers/lvgl/src/core/lv_obj_style_gen.h ****     return (lv_coord_t)v.num;
 875              		.loc 2 111 26 is_stmt 0 view .LVU257
 876 002e 0021     		movs	r1, #0
 877 0030 2846     		mov	r0, r5
 878 0032 FFF7FEFF 		bl	lv_obj_get_style_prop
 879              	.LVL67:
 112:Drivers/lvgl/src/core/lv_obj_style_gen.h **** }
 880              		.loc 2 112 5 is_stmt 1 view .LVU258
 112:Drivers/lvgl/src/core/lv_obj_style_gen.h **** }
 881              		.loc 2 112 5 is_stmt 0 view .LVU259
 882              	.LBE150:
 883              	.LBE152:
 647:Drivers/lvgl/src/core/lv_indev_scroll.c **** 
 648:Drivers/lvgl/src/core/lv_indev_scroll.c ****             switch(snap) {
 884              		.loc 1 648 13 is_stmt 1 view .LVU260
ARM GAS  /var/folders/0z/tsy30v1j4xl4_7kw94k978ww0000gn/T//cc3yoOHj.s 			page 36


 885 0036 B8F1020F 		cmp	r8, #2
 886 003a 64D0     		beq	.L48
 887 003c B8F1030F 		cmp	r8, #3
 888 0040 31D0     		beq	.L49
 889 0042 B8F1010F 		cmp	r8, #1
 890 0046 52D0     		beq	.L76
 891              	.LVL68:
 892              	.L47:
 893              		.loc 1 648 13 is_stmt 0 view .LVU261
 894              	.LBE157:
 649:Drivers/lvgl/src/core/lv_indev_scroll.c ****                 case LV_SCROLL_SNAP_CENTER:
 650:Drivers/lvgl/src/core/lv_indev_scroll.c ****                     snap_point = pad_top + (lv_area_get_height(&scroll_obj->coords) - pad_top - pad
 651:Drivers/lvgl/src/core/lv_indev_scroll.c ****                     act_obj_point = lv_area_get_height(&act_obj->coords) / 2 + act_obj->coords.y1;
 652:Drivers/lvgl/src/core/lv_indev_scroll.c ****                     break;
 653:Drivers/lvgl/src/core/lv_indev_scroll.c ****                 case LV_SCROLL_SNAP_START:
 654:Drivers/lvgl/src/core/lv_indev_scroll.c ****                     snap_point = scroll_obj->coords.y1 + pad_top;
 655:Drivers/lvgl/src/core/lv_indev_scroll.c ****                     act_obj_point = act_obj->coords.y1;
 656:Drivers/lvgl/src/core/lv_indev_scroll.c ****                     break;
 657:Drivers/lvgl/src/core/lv_indev_scroll.c ****                 case LV_SCROLL_SNAP_END:
 658:Drivers/lvgl/src/core/lv_indev_scroll.c ****                     snap_point = scroll_obj->coords.y2 - pad_bottom;
 659:Drivers/lvgl/src/core/lv_indev_scroll.c ****                     act_obj_point = act_obj->coords.y2;
 660:Drivers/lvgl/src/core/lv_indev_scroll.c ****                     break;
 661:Drivers/lvgl/src/core/lv_indev_scroll.c ****             }
 662:Drivers/lvgl/src/core/lv_indev_scroll.c ****         }
 663:Drivers/lvgl/src/core/lv_indev_scroll.c **** 
 664:Drivers/lvgl/src/core/lv_indev_scroll.c ****         if(scroll_end < 0) {
 895              		.loc 1 664 9 is_stmt 1 view .LVU262
 896              		.loc 1 664 11 is_stmt 0 view .LVU263
 897 0048 002F     		cmp	r7, #0
 898 004a 66DA     		bge	.L52
 899              	.LVL69:
 900              	.L59:
 665:Drivers/lvgl/src/core/lv_indev_scroll.c ****             if(snap != LV_SCROLL_SNAP_NONE && act_obj_point > snap_point) return diff;
 666:Drivers/lvgl/src/core/lv_indev_scroll.c **** 
 667:Drivers/lvgl/src/core/lv_indev_scroll.c ****             /*Rounding*/
 668:Drivers/lvgl/src/core/lv_indev_scroll.c ****             if(diff < 0) diff -= ELASTIC_SLOWNESS_FACTOR / 2;
 669:Drivers/lvgl/src/core/lv_indev_scroll.c ****             if(diff > 0) diff += ELASTIC_SLOWNESS_FACTOR / 2;
 670:Drivers/lvgl/src/core/lv_indev_scroll.c ****             return diff / ELASTIC_SLOWNESS_FACTOR;
 671:Drivers/lvgl/src/core/lv_indev_scroll.c ****         }
 672:Drivers/lvgl/src/core/lv_indev_scroll.c ****         else if(scroll_start < 0) {
 673:Drivers/lvgl/src/core/lv_indev_scroll.c ****             if(snap != LV_SCROLL_SNAP_NONE && act_obj_point < snap_point) return diff;
 674:Drivers/lvgl/src/core/lv_indev_scroll.c **** 
 675:Drivers/lvgl/src/core/lv_indev_scroll.c ****             /*Rounding*/
 676:Drivers/lvgl/src/core/lv_indev_scroll.c ****             if(diff < 0) diff -= ELASTIC_SLOWNESS_FACTOR / 2;
 901              		.loc 1 676 13 is_stmt 1 view .LVU264
 902              		.loc 1 676 26 view .LVU265
 903              		.loc 1 676 15 is_stmt 0 view .LVU266
 904 004c 002C     		cmp	r4, #0
 905              		.loc 1 676 31 view .LVU267
 906 004e BCBF     		itt	lt
 907 0050 023C     		sublt	r4, r4, #2
 908 0052 24B2     		sxthlt	r4, r4
 909              	.LVL70:
 677:Drivers/lvgl/src/core/lv_indev_scroll.c ****             if(diff > 0) diff += ELASTIC_SLOWNESS_FACTOR / 2;
 910              		.loc 1 677 13 is_stmt 1 view .LVU268
 911              		.loc 1 677 26 view .LVU269
 912              		.loc 1 677 15 is_stmt 0 view .LVU270
ARM GAS  /var/folders/0z/tsy30v1j4xl4_7kw94k978ww0000gn/T//cc3yoOHj.s 			page 37


 913 0054 002C     		cmp	r4, #0
 914              		.loc 1 677 31 view .LVU271
 915 0056 C4BF     		itt	gt
 916 0058 0234     		addgt	r4, r4, #2
 917              	.LVL71:
 918              		.loc 1 677 31 view .LVU272
 919 005a 24B2     		sxthgt	r4, r4
 920              	.LVL72:
 678:Drivers/lvgl/src/core/lv_indev_scroll.c ****             return diff / ELASTIC_SLOWNESS_FACTOR;
 921              		.loc 1 678 13 is_stmt 1 view .LVU273
 922              		.loc 1 678 25 is_stmt 0 view .LVU274
 923 005c 002C     		cmp	r4, #0
 924              		.loc 1 678 25 view .LVU275
 925 005e B8BF     		it	lt
 926 0060 0334     		addlt	r4, r4, #3
 927              	.LVL73:
 928              		.loc 1 678 25 view .LVU276
 929 0062 44F38F00 		sbfx	r0, r4, #2, #16
 930              		.loc 1 678 25 view .LVU277
 931              	.LBE180:
 679:Drivers/lvgl/src/core/lv_indev_scroll.c ****         }
 680:Drivers/lvgl/src/core/lv_indev_scroll.c ****     }
 681:Drivers/lvgl/src/core/lv_indev_scroll.c ****     else {
 682:Drivers/lvgl/src/core/lv_indev_scroll.c ****         /*Scroll back to the boundary if required*/
 683:Drivers/lvgl/src/core/lv_indev_scroll.c ****         if(scroll_end + diff < 0) diff = - scroll_end;
 684:Drivers/lvgl/src/core/lv_indev_scroll.c ****         if(scroll_start - diff < 0) diff = scroll_start;
 685:Drivers/lvgl/src/core/lv_indev_scroll.c ****     }
 686:Drivers/lvgl/src/core/lv_indev_scroll.c **** 
 687:Drivers/lvgl/src/core/lv_indev_scroll.c ****     return diff;
 688:Drivers/lvgl/src/core/lv_indev_scroll.c **** }
 932              		.loc 1 688 1 view .LVU278
 933 0066 BDE8F087 		pop	{r4, r5, r6, r7, r8, r9, r10, pc}
 934              	.LVL74:
 935              	.L75:
 936              	.LBB181:
 619:Drivers/lvgl/src/core/lv_indev_scroll.c **** 
 937              		.loc 1 619 36 view .LVU279
 938 006a FFF7FEFF 		bl	lv_obj_get_scroll_snap_x
 939              	.LVL75:
 619:Drivers/lvgl/src/core/lv_indev_scroll.c **** 
 940              		.loc 1 619 36 view .LVU280
 941 006e 0646     		mov	r6, r0
 942              	.LVL76:
 621:Drivers/lvgl/src/core/lv_indev_scroll.c ****         lv_coord_t snap_point = 0;
 943              		.loc 1 621 9 is_stmt 1 view .LVU281
 621:Drivers/lvgl/src/core/lv_indev_scroll.c ****         lv_coord_t snap_point = 0;
 944              		.loc 1 621 30 is_stmt 0 view .LVU282
 945 0070 FFF7FEFF 		bl	lv_indev_get_obj_act
 946              	.LVL77:
 947              	.LBB158:
 948              	.LBB159:
 949              	.LBB160:
 117:Drivers/lvgl/src/core/lv_obj_style_gen.h ****     return (lv_coord_t)v.num;
 950              		.loc 2 117 26 view .LVU283
 951 0074 1222     		movs	r2, #18
 952 0076 0021     		movs	r1, #0
 953              	.LBE160:
ARM GAS  /var/folders/0z/tsy30v1j4xl4_7kw94k978ww0000gn/T//cc3yoOHj.s 			page 38


 954              	.LBE159:
 955              	.LBE158:
 621:Drivers/lvgl/src/core/lv_indev_scroll.c ****         lv_coord_t snap_point = 0;
 956              		.loc 1 621 30 view .LVU284
 957 0078 8246     		mov	r10, r0
 958              	.LVL78:
 622:Drivers/lvgl/src/core/lv_indev_scroll.c ****         lv_coord_t act_obj_point = 0;
 959              		.loc 1 622 9 is_stmt 1 view .LVU285
 623:Drivers/lvgl/src/core/lv_indev_scroll.c **** 
 960              		.loc 1 623 9 view .LVU286
 625:Drivers/lvgl/src/core/lv_indev_scroll.c ****             lv_coord_t pad_left = lv_obj_get_style_pad_left(scroll_obj, LV_PART_MAIN);
 961              		.loc 1 625 9 view .LVU287
 962              	.LBB173:
 626:Drivers/lvgl/src/core/lv_indev_scroll.c ****             lv_coord_t pad_right = lv_obj_get_style_pad_right(scroll_obj, LV_PART_MAIN);
 963              		.loc 1 626 13 view .LVU288
 964              	.LBB163:
 965              	.LBI159:
 115:Drivers/lvgl/src/core/lv_obj_style_gen.h **** {
 966              		.loc 2 115 26 view .LVU289
 967              	.LBB161:
 117:Drivers/lvgl/src/core/lv_obj_style_gen.h ****     return (lv_coord_t)v.num;
 968              		.loc 2 117 5 view .LVU290
 117:Drivers/lvgl/src/core/lv_obj_style_gen.h ****     return (lv_coord_t)v.num;
 969              		.loc 2 117 26 is_stmt 0 view .LVU291
 970 007a 2846     		mov	r0, r5
 971              	.LVL79:
 117:Drivers/lvgl/src/core/lv_obj_style_gen.h ****     return (lv_coord_t)v.num;
 972              		.loc 2 117 26 view .LVU292
 973 007c FFF7FEFF 		bl	lv_obj_get_style_prop
 974              	.LVL80:
 975              	.LBE161:
 976              	.LBE163:
 977              	.LBB164:
 978              	.LBB165:
 123:Drivers/lvgl/src/core/lv_obj_style_gen.h ****     return (lv_coord_t)v.num;
 979              		.loc 2 123 26 view .LVU293
 980 0080 1322     		movs	r2, #19
 981              	.LBE165:
 982              	.LBE164:
 983              	.LBB167:
 984              	.LBB162:
 117:Drivers/lvgl/src/core/lv_obj_style_gen.h ****     return (lv_coord_t)v.num;
 985              		.loc 2 117 26 view .LVU294
 986 0082 8046     		mov	r8, r0
 118:Drivers/lvgl/src/core/lv_obj_style_gen.h **** }
 987              		.loc 2 118 5 is_stmt 1 view .LVU295
 988              	.LVL81:
 118:Drivers/lvgl/src/core/lv_obj_style_gen.h **** }
 989              		.loc 2 118 5 is_stmt 0 view .LVU296
 990              	.LBE162:
 991              	.LBE167:
 627:Drivers/lvgl/src/core/lv_indev_scroll.c **** 
 992              		.loc 1 627 13 is_stmt 1 view .LVU297
 993              	.LBB168:
 994              	.LBI164:
 121:Drivers/lvgl/src/core/lv_obj_style_gen.h **** {
 995              		.loc 2 121 26 view .LVU298
ARM GAS  /var/folders/0z/tsy30v1j4xl4_7kw94k978ww0000gn/T//cc3yoOHj.s 			page 39


 996              	.LBB166:
 123:Drivers/lvgl/src/core/lv_obj_style_gen.h ****     return (lv_coord_t)v.num;
 997              		.loc 2 123 5 view .LVU299
 123:Drivers/lvgl/src/core/lv_obj_style_gen.h ****     return (lv_coord_t)v.num;
 998              		.loc 2 123 26 is_stmt 0 view .LVU300
 999 0084 0021     		movs	r1, #0
 1000 0086 2846     		mov	r0, r5
 1001 0088 FFF7FEFF 		bl	lv_obj_get_style_prop
 1002              	.LVL82:
 1003              		.loc 2 124 5 is_stmt 1 view .LVU301
 1004              		.loc 2 124 5 is_stmt 0 view .LVU302
 1005              	.LBE166:
 1006              	.LBE168:
 629:Drivers/lvgl/src/core/lv_indev_scroll.c ****                 case LV_SCROLL_SNAP_CENTER:
 1007              		.loc 1 629 13 is_stmt 1 view .LVU303
 1008 008c 022E     		cmp	r6, #2
 1009 008e 5FD0     		beq	.L44
 1010 0090 032E     		cmp	r6, #3
 1011 0092 47D0     		beq	.L45
 1012 0094 012E     		cmp	r6, #1
 1013 0096 D7D1     		bne	.L47
 635:Drivers/lvgl/src/core/lv_indev_scroll.c ****                     act_obj_point = act_obj->coords.x1;
 1014              		.loc 1 635 21 view .LVU304
 635:Drivers/lvgl/src/core/lv_indev_scroll.c ****                     act_obj_point = act_obj->coords.x1;
 1015              		.loc 1 635 56 is_stmt 0 view .LVU305
 1016 0098 AB8A     		ldrh	r3, [r5, #20]
 1017 009a 08EB0301 		add	r1, r8, r3
 635:Drivers/lvgl/src/core/lv_indev_scroll.c ****                     act_obj_point = act_obj->coords.x1;
 1018              		.loc 1 635 32 view .LVU306
 1019 009e 09B2     		sxth	r1, r1
 1020              	.LVL83:
 636:Drivers/lvgl/src/core/lv_indev_scroll.c ****                     break;
 1021              		.loc 1 636 21 is_stmt 1 view .LVU307
 636:Drivers/lvgl/src/core/lv_indev_scroll.c ****                     break;
 1022              		.loc 1 636 35 is_stmt 0 view .LVU308
 1023 00a0 BAF91430 		ldrsh	r3, [r10, #20]
 1024              	.LVL84:
 637:Drivers/lvgl/src/core/lv_indev_scroll.c ****                 case LV_SCROLL_SNAP_END:
 1025              		.loc 1 637 21 is_stmt 1 view .LVU309
 1026 00a4 1BE0     		b	.L51
 1027              	.LVL85:
 1028              	.L49:
 637:Drivers/lvgl/src/core/lv_indev_scroll.c ****                 case LV_SCROLL_SNAP_END:
 1029              		.loc 1 637 21 is_stmt 0 view .LVU310
 1030              	.LBE173:
 1031              	.LBB174:
 650:Drivers/lvgl/src/core/lv_indev_scroll.c ****                     act_obj_point = lv_area_get_height(&act_obj->coords) / 2 + act_obj->coords.y1;
 1032              		.loc 1 650 21 is_stmt 1 view .LVU311
 1033              	.LBB153:
 1034              	.LBI153:
 133:Drivers/lvgl/src/core/../misc/../font/../misc/lv_area.h **** {
 1035              		.loc 3 133 26 view .LVU312
 1036              	.LBB154:
 1037              		.loc 3 135 5 view .LVU313
 1038              		.loc 3 135 49 is_stmt 0 view .LVU314
 1039 00a6 6B8B     		ldrh	r3, [r5, #26]
 1040              		.loc 3 135 44 view .LVU315
ARM GAS  /var/folders/0z/tsy30v1j4xl4_7kw94k978ww0000gn/T//cc3yoOHj.s 			page 40


 1041 00a8 EA8A     		ldrh	r2, [r5, #22]
 1042              	.LVL86:
 1043              		.loc 3 135 49 view .LVU316
 1044 00aa 0133     		adds	r3, r3, #1
 1045 00ac 9B1A     		subs	r3, r3, r2
 1046              	.LBE154:
 1047              	.LBE153:
 650:Drivers/lvgl/src/core/lv_indev_scroll.c ****                     act_obj_point = lv_area_get_height(&act_obj->coords) / 2 + act_obj->coords.y1;
 1048              		.loc 1 650 45 view .LVU317
 1049 00ae 1BB2     		sxth	r3, r3
 650:Drivers/lvgl/src/core/lv_indev_scroll.c ****                     act_obj_point = lv_area_get_height(&act_obj->coords) / 2 + act_obj->coords.y1;
 1050              		.loc 1 650 113 view .LVU318
 1051 00b0 3244     		add	r2, r2, r6
 650:Drivers/lvgl/src/core/lv_indev_scroll.c ****                     act_obj_point = lv_area_get_height(&act_obj->coords) / 2 + act_obj->coords.y1;
 1052              		.loc 1 650 85 view .LVU319
 1053 00b2 36B2     		sxth	r6, r6
 650:Drivers/lvgl/src/core/lv_indev_scroll.c ****                     act_obj_point = lv_area_get_height(&act_obj->coords) / 2 + act_obj->coords.y1;
 1054              		.loc 1 650 95 view .LVU320
 1055 00b4 00B2     		sxth	r0, r0
 650:Drivers/lvgl/src/core/lv_indev_scroll.c ****                     act_obj_point = lv_area_get_height(&act_obj->coords) / 2 + act_obj->coords.y1;
 1056              		.loc 1 650 85 view .LVU321
 1057 00b6 9B1B     		subs	r3, r3, r6
 650:Drivers/lvgl/src/core/lv_indev_scroll.c ****                     act_obj_point = lv_area_get_height(&act_obj->coords) / 2 + act_obj->coords.y1;
 1058              		.loc 1 650 95 view .LVU322
 1059 00b8 1B1A     		subs	r3, r3, r0
 650:Drivers/lvgl/src/core/lv_indev_scroll.c ****                     act_obj_point = lv_area_get_height(&act_obj->coords) / 2 + act_obj->coords.y1;
 1060              		.loc 1 650 109 view .LVU323
 1061 00ba 03EBD373 		add	r3, r3, r3, lsr #31
 650:Drivers/lvgl/src/core/lv_indev_scroll.c ****                     act_obj_point = lv_area_get_height(&act_obj->coords) / 2 + act_obj->coords.y1;
 1062              		.loc 1 650 113 view .LVU324
 1063 00be 02EB6302 		add	r2, r2, r3, asr #1
 650:Drivers/lvgl/src/core/lv_indev_scroll.c ****                     act_obj_point = lv_area_get_height(&act_obj->coords) / 2 + act_obj->coords.y1;
 1064              		.loc 1 650 32 view .LVU325
 1065 00c2 11B2     		sxth	r1, r2
 1066              	.LVL87:
 651:Drivers/lvgl/src/core/lv_indev_scroll.c ****                     break;
 1067              		.loc 1 651 21 is_stmt 1 view .LVU326
 1068              	.LBB155:
 1069              	.LBI155:
 133:Drivers/lvgl/src/core/../misc/../font/../misc/lv_area.h **** {
 1070              		.loc 3 133 26 view .LVU327
 1071              	.LBB156:
 1072              		.loc 3 135 5 view .LVU328
 1073              		.loc 3 135 44 is_stmt 0 view .LVU329
 1074 00c4 BAF81630 		ldrh	r3, [r10, #22]
 1075              		.loc 3 135 49 view .LVU330
 1076 00c8 BAF81A20 		ldrh	r2, [r10, #26]
 1077              	.LVL88:
 1078              	.L68:
 1079              		.loc 3 135 49 view .LVU331
 1080 00cc 0132     		adds	r2, r2, #1
 1081 00ce D21A     		subs	r2, r2, r3
 1082              	.LBE156:
 1083              	.LBE155:
 651:Drivers/lvgl/src/core/lv_indev_scroll.c ****                     break;
 1084              		.loc 1 651 78 view .LVU332
 1085 00d0 C2F3C030 		ubfx	r0, r2, #15, #1
ARM GAS  /var/folders/0z/tsy30v1j4xl4_7kw94k978ww0000gn/T//cc3yoOHj.s 			page 41


 1086 00d4 00FA82F2 		sxtah	r2, r0, r2
 1087 00d8 03EB6203 		add	r3, r3, r2, asr #1
 651:Drivers/lvgl/src/core/lv_indev_scroll.c ****                     break;
 1088              		.loc 1 651 35 view .LVU333
 1089 00dc 1BB2     		sxth	r3, r3
 1090              	.LVL89:
 652:Drivers/lvgl/src/core/lv_indev_scroll.c ****                 case LV_SCROLL_SNAP_START:
 1091              		.loc 1 652 21 is_stmt 1 view .LVU334
 1092              	.L51:
 652:Drivers/lvgl/src/core/lv_indev_scroll.c ****                 case LV_SCROLL_SNAP_START:
 1093              		.loc 1 652 21 is_stmt 0 view .LVU335
 1094              	.LBE174:
 664:Drivers/lvgl/src/core/lv_indev_scroll.c ****             if(snap != LV_SCROLL_SNAP_NONE && act_obj_point > snap_point) return diff;
 1095              		.loc 1 664 9 is_stmt 1 view .LVU336
 664:Drivers/lvgl/src/core/lv_indev_scroll.c ****             if(snap != LV_SCROLL_SNAP_NONE && act_obj_point > snap_point) return diff;
 1096              		.loc 1 664 11 is_stmt 0 view .LVU337
 1097 00de 002F     		cmp	r7, #0
 1098 00e0 0DDB     		blt	.L64
 1099              	.L78:
 672:Drivers/lvgl/src/core/lv_indev_scroll.c ****             if(snap != LV_SCROLL_SNAP_NONE && act_obj_point < snap_point) return diff;
 1100              		.loc 1 672 14 is_stmt 1 view .LVU338
 672:Drivers/lvgl/src/core/lv_indev_scroll.c ****             if(snap != LV_SCROLL_SNAP_NONE && act_obj_point < snap_point) return diff;
 1101              		.loc 1 672 16 is_stmt 0 view .LVU339
 1102 00e2 B9F1000F 		cmp	r9, #0
 1103 00e6 14DB     		blt	.L77
 1104              	.LBE181:
 612:Drivers/lvgl/src/core/lv_indev_scroll.c ****                                lv_dir_t dir)
 1105              		.loc 1 612 19 view .LVU340
 1106 00e8 2046     		mov	r0, r4
 1107              	.LVL90:
 1108              	.L79:
 1109              		.loc 1 688 1 view .LVU341
 1110 00ea BDE8F087 		pop	{r4, r5, r6, r7, r8, r9, r10, pc}
 1111              	.LVL91:
 1112              	.L76:
 1113              	.LBB182:
 1114              	.LBB175:
 654:Drivers/lvgl/src/core/lv_indev_scroll.c ****                     act_obj_point = act_obj->coords.y1;
 1115              		.loc 1 654 21 is_stmt 1 view .LVU342
 654:Drivers/lvgl/src/core/lv_indev_scroll.c ****                     act_obj_point = act_obj->coords.y1;
 1116              		.loc 1 654 56 is_stmt 0 view .LVU343
 1117 00ee EB8A     		ldrh	r3, [r5, #22]
 1118              	.LBE175:
 664:Drivers/lvgl/src/core/lv_indev_scroll.c ****             if(snap != LV_SCROLL_SNAP_NONE && act_obj_point > snap_point) return diff;
 1119              		.loc 1 664 11 view .LVU344
 1120 00f0 002F     		cmp	r7, #0
 1121              	.LBB176:
 654:Drivers/lvgl/src/core/lv_indev_scroll.c ****                     act_obj_point = act_obj->coords.y1;
 1122              		.loc 1 654 56 view .LVU345
 1123 00f2 06EB0301 		add	r1, r6, r3
 654:Drivers/lvgl/src/core/lv_indev_scroll.c ****                     act_obj_point = act_obj->coords.y1;
 1124              		.loc 1 654 32 view .LVU346
 1125 00f6 09B2     		sxth	r1, r1
 1126              	.LVL92:
 655:Drivers/lvgl/src/core/lv_indev_scroll.c ****                     break;
 1127              		.loc 1 655 21 is_stmt 1 view .LVU347
 655:Drivers/lvgl/src/core/lv_indev_scroll.c ****                     break;
ARM GAS  /var/folders/0z/tsy30v1j4xl4_7kw94k978ww0000gn/T//cc3yoOHj.s 			page 42


 1128              		.loc 1 655 35 is_stmt 0 view .LVU348
 1129 00f8 BAF91630 		ldrsh	r3, [r10, #22]
 1130              	.LVL93:
 656:Drivers/lvgl/src/core/lv_indev_scroll.c ****                 case LV_SCROLL_SNAP_END:
 1131              		.loc 1 656 21 is_stmt 1 view .LVU349
 656:Drivers/lvgl/src/core/lv_indev_scroll.c ****                 case LV_SCROLL_SNAP_END:
 1132              		.loc 1 656 21 is_stmt 0 view .LVU350
 1133              	.LBE176:
 664:Drivers/lvgl/src/core/lv_indev_scroll.c ****             if(snap != LV_SCROLL_SNAP_NONE && act_obj_point > snap_point) return diff;
 1134              		.loc 1 664 9 is_stmt 1 view .LVU351
 664:Drivers/lvgl/src/core/lv_indev_scroll.c ****             if(snap != LV_SCROLL_SNAP_NONE && act_obj_point > snap_point) return diff;
 1135              		.loc 1 664 11 is_stmt 0 view .LVU352
 1136 00fc F1DA     		bge	.L78
 1137              	.LVL94:
 1138              	.L64:
 665:Drivers/lvgl/src/core/lv_indev_scroll.c **** 
 1139              		.loc 1 665 44 view .LVU353
 1140 00fe 8B42     		cmp	r3, r1
 1141 0100 A4DD     		ble	.L59
 1142              	.LBE182:
 612:Drivers/lvgl/src/core/lv_indev_scroll.c ****                                lv_dir_t dir)
 1143              		.loc 1 612 19 view .LVU354
 1144 0102 2046     		mov	r0, r4
 612:Drivers/lvgl/src/core/lv_indev_scroll.c ****                                lv_dir_t dir)
 1145              		.loc 1 612 19 view .LVU355
 1146 0104 F1E7     		b	.L79
 1147              	.LVL95:
 1148              	.L48:
 1149              	.LBB183:
 1150              	.LBB177:
 658:Drivers/lvgl/src/core/lv_indev_scroll.c ****                     act_obj_point = act_obj->coords.y2;
 1151              		.loc 1 658 21 is_stmt 1 view .LVU356
 658:Drivers/lvgl/src/core/lv_indev_scroll.c ****                     act_obj_point = act_obj->coords.y2;
 1152              		.loc 1 658 56 is_stmt 0 view .LVU357
 1153 0106 698B     		ldrh	r1, [r5, #26]
 659:Drivers/lvgl/src/core/lv_indev_scroll.c ****                     break;
 1154              		.loc 1 659 35 view .LVU358
 1155 0108 BAF91A30 		ldrsh	r3, [r10, #26]
 658:Drivers/lvgl/src/core/lv_indev_scroll.c ****                     act_obj_point = act_obj->coords.y2;
 1156              		.loc 1 658 56 view .LVU359
 1157 010c 091A     		subs	r1, r1, r0
 658:Drivers/lvgl/src/core/lv_indev_scroll.c ****                     act_obj_point = act_obj->coords.y2;
 1158              		.loc 1 658 32 view .LVU360
 1159 010e 09B2     		sxth	r1, r1
 1160              	.LVL96:
 659:Drivers/lvgl/src/core/lv_indev_scroll.c ****                     break;
 1161              		.loc 1 659 21 is_stmt 1 view .LVU361
 660:Drivers/lvgl/src/core/lv_indev_scroll.c ****             }
 1162              		.loc 1 660 21 view .LVU362
 1163 0110 E5E7     		b	.L51
 1164              	.LVL97:
 1165              	.L77:
 660:Drivers/lvgl/src/core/lv_indev_scroll.c ****             }
 1166              		.loc 1 660 21 is_stmt 0 view .LVU363
 1167              	.LBE177:
 673:Drivers/lvgl/src/core/lv_indev_scroll.c **** 
 1168              		.loc 1 673 44 view .LVU364
ARM GAS  /var/folders/0z/tsy30v1j4xl4_7kw94k978ww0000gn/T//cc3yoOHj.s 			page 43


 1169 0112 8B42     		cmp	r3, r1
 1170 0114 9ADA     		bge	.L59
 1171              	.LBE183:
 612:Drivers/lvgl/src/core/lv_indev_scroll.c ****                                lv_dir_t dir)
 1172              		.loc 1 612 19 view .LVU365
 1173 0116 2046     		mov	r0, r4
 612:Drivers/lvgl/src/core/lv_indev_scroll.c ****                                lv_dir_t dir)
 1174              		.loc 1 612 19 view .LVU366
 1175 0118 E7E7     		b	.L79
 1176              	.LVL98:
 1177              	.L52:
 1178              	.LBB184:
 672:Drivers/lvgl/src/core/lv_indev_scroll.c ****             if(snap != LV_SCROLL_SNAP_NONE && act_obj_point < snap_point) return diff;
 1179              		.loc 1 672 14 is_stmt 1 view .LVU367
 672:Drivers/lvgl/src/core/lv_indev_scroll.c ****             if(snap != LV_SCROLL_SNAP_NONE && act_obj_point < snap_point) return diff;
 1180              		.loc 1 672 16 is_stmt 0 view .LVU368
 1181 011a B9F1000F 		cmp	r9, #0
 1182 011e 95DB     		blt	.L59
 1183              	.LBE184:
 612:Drivers/lvgl/src/core/lv_indev_scroll.c ****                                lv_dir_t dir)
 1184              		.loc 1 612 19 view .LVU369
 1185 0120 2046     		mov	r0, r4
 612:Drivers/lvgl/src/core/lv_indev_scroll.c ****                                lv_dir_t dir)
 1186              		.loc 1 612 19 view .LVU370
 1187 0122 E2E7     		b	.L79
 1188              	.LVL99:
 1189              	.L45:
 1190              	.LBB185:
 1191              	.LBB178:
 631:Drivers/lvgl/src/core/lv_indev_scroll.c ****                     act_obj_point = lv_area_get_width(&act_obj->coords) / 2 + act_obj->coords.x1;
 1192              		.loc 1 631 21 is_stmt 1 view .LVU371
 1193              	.LBB169:
 1194              	.LBI169:
 123:Drivers/lvgl/src/core/../misc/../font/../misc/lv_area.h **** {
 1195              		.loc 3 123 26 view .LVU372
 1196              	.LBB170:
 125:Drivers/lvgl/src/core/../misc/../font/../misc/lv_area.h **** }
 1197              		.loc 3 125 5 view .LVU373
 125:Drivers/lvgl/src/core/../misc/../font/../misc/lv_area.h **** }
 1198              		.loc 3 125 49 is_stmt 0 view .LVU374
 1199 0124 2B8B     		ldrh	r3, [r5, #24]
 125:Drivers/lvgl/src/core/../misc/../font/../misc/lv_area.h **** }
 1200              		.loc 3 125 44 view .LVU375
 1201 0126 AA8A     		ldrh	r2, [r5, #20]
 1202              	.LVL100:
 125:Drivers/lvgl/src/core/../misc/../font/../misc/lv_area.h **** }
 1203              		.loc 3 125 49 view .LVU376
 1204 0128 0133     		adds	r3, r3, #1
 1205 012a 9B1A     		subs	r3, r3, r2
 1206              	.LBE170:
 1207              	.LBE169:
 631:Drivers/lvgl/src/core/lv_indev_scroll.c ****                     act_obj_point = lv_area_get_width(&act_obj->coords) / 2 + act_obj->coords.x1;
 1208              		.loc 1 631 46 view .LVU377
 1209 012c 1BB2     		sxth	r3, r3
 631:Drivers/lvgl/src/core/lv_indev_scroll.c ****                     act_obj_point = lv_area_get_width(&act_obj->coords) / 2 + act_obj->coords.x1;
 1210              		.loc 1 631 113 view .LVU378
 1211 012e 4244     		add	r2, r2, r8
ARM GAS  /var/folders/0z/tsy30v1j4xl4_7kw94k978ww0000gn/T//cc3yoOHj.s 			page 44


 631:Drivers/lvgl/src/core/lv_indev_scroll.c ****                     act_obj_point = lv_area_get_width(&act_obj->coords) / 2 + act_obj->coords.x1;
 1212              		.loc 1 631 85 view .LVU379
 1213 0130 0FFA88F8 		sxth	r8, r8
 631:Drivers/lvgl/src/core/lv_indev_scroll.c ****                     act_obj_point = lv_area_get_width(&act_obj->coords) / 2 + act_obj->coords.x1;
 1214              		.loc 1 631 96 view .LVU380
 1215 0134 00B2     		sxth	r0, r0
 631:Drivers/lvgl/src/core/lv_indev_scroll.c ****                     act_obj_point = lv_area_get_width(&act_obj->coords) / 2 + act_obj->coords.x1;
 1216              		.loc 1 631 85 view .LVU381
 1217 0136 A3EB0803 		sub	r3, r3, r8
 631:Drivers/lvgl/src/core/lv_indev_scroll.c ****                     act_obj_point = lv_area_get_width(&act_obj->coords) / 2 + act_obj->coords.x1;
 1218              		.loc 1 631 96 view .LVU382
 1219 013a 1B1A     		subs	r3, r3, r0
 631:Drivers/lvgl/src/core/lv_indev_scroll.c ****                     act_obj_point = lv_area_get_width(&act_obj->coords) / 2 + act_obj->coords.x1;
 1220              		.loc 1 631 109 view .LVU383
 1221 013c 03EBD373 		add	r3, r3, r3, lsr #31
 631:Drivers/lvgl/src/core/lv_indev_scroll.c ****                     act_obj_point = lv_area_get_width(&act_obj->coords) / 2 + act_obj->coords.x1;
 1222              		.loc 1 631 113 view .LVU384
 1223 0140 02EB6302 		add	r2, r2, r3, asr #1
 631:Drivers/lvgl/src/core/lv_indev_scroll.c ****                     act_obj_point = lv_area_get_width(&act_obj->coords) / 2 + act_obj->coords.x1;
 1224              		.loc 1 631 32 view .LVU385
 1225 0144 11B2     		sxth	r1, r2
 1226              	.LVL101:
 632:Drivers/lvgl/src/core/lv_indev_scroll.c ****                     break;
 1227              		.loc 1 632 21 is_stmt 1 view .LVU386
 1228              	.LBB171:
 1229              	.LBI171:
 123:Drivers/lvgl/src/core/../misc/../font/../misc/lv_area.h **** {
 1230              		.loc 3 123 26 view .LVU387
 1231              	.LBB172:
 125:Drivers/lvgl/src/core/../misc/../font/../misc/lv_area.h **** }
 1232              		.loc 3 125 5 view .LVU388
 125:Drivers/lvgl/src/core/../misc/../font/../misc/lv_area.h **** }
 1233              		.loc 3 125 44 is_stmt 0 view .LVU389
 1234 0146 BAF81430 		ldrh	r3, [r10, #20]
 1235              	.LVL102:
 125:Drivers/lvgl/src/core/../misc/../font/../misc/lv_area.h **** }
 1236              		.loc 3 125 49 view .LVU390
 1237 014a BAF81820 		ldrh	r2, [r10, #24]
 1238 014e BDE7     		b	.L68
 1239              	.LVL103:
 1240              	.L44:
 125:Drivers/lvgl/src/core/../misc/../font/../misc/lv_area.h **** }
 1241              		.loc 3 125 49 view .LVU391
 1242              	.LBE172:
 1243              	.LBE171:
 639:Drivers/lvgl/src/core/lv_indev_scroll.c ****                     act_obj_point = act_obj->coords.x2;
 1244              		.loc 1 639 21 is_stmt 1 view .LVU392
 639:Drivers/lvgl/src/core/lv_indev_scroll.c ****                     act_obj_point = act_obj->coords.x2;
 1245              		.loc 1 639 56 is_stmt 0 view .LVU393
 1246 0150 298B     		ldrh	r1, [r5, #24]
 640:Drivers/lvgl/src/core/lv_indev_scroll.c ****                     break;
 1247              		.loc 1 640 35 view .LVU394
 1248 0152 BAF91830 		ldrsh	r3, [r10, #24]
 639:Drivers/lvgl/src/core/lv_indev_scroll.c ****                     act_obj_point = act_obj->coords.x2;
 1249              		.loc 1 639 56 view .LVU395
 1250 0156 091A     		subs	r1, r1, r0
 639:Drivers/lvgl/src/core/lv_indev_scroll.c ****                     act_obj_point = act_obj->coords.x2;
ARM GAS  /var/folders/0z/tsy30v1j4xl4_7kw94k978ww0000gn/T//cc3yoOHj.s 			page 45


 1251              		.loc 1 639 32 view .LVU396
 1252 0158 09B2     		sxth	r1, r1
 1253              	.LVL104:
 640:Drivers/lvgl/src/core/lv_indev_scroll.c ****                     break;
 1254              		.loc 1 640 21 is_stmt 1 view .LVU397
 641:Drivers/lvgl/src/core/lv_indev_scroll.c ****             }
 1255              		.loc 1 641 21 view .LVU398
 1256 015a C0E7     		b	.L51
 1257              	.LBE178:
 1258              	.LBE185:
 1259              		.cfi_endproc
 1260              	.LFE173:
 1262              		.section	.text._lv_indev_scroll_handler,"ax",%progbits
 1263              		.align	1
 1264              		.p2align 2,,3
 1265              		.global	_lv_indev_scroll_handler
 1266              		.syntax unified
 1267              		.thumb
 1268              		.thumb_func
 1270              	_lv_indev_scroll_handler:
 1271              	.LVL105:
 1272              	.LFB161:
  47:Drivers/lvgl/src/core/lv_indev_scroll.c ****     if(proc->types.pointer.vect.x == 0 && proc->types.pointer.vect.y == 0) {
 1273              		.loc 1 47 1 view -0
 1274              		.cfi_startproc
 1275              		@ args = 0, pretend = 0, frame = 40
 1276              		@ frame_needed = 0, uses_anonymous_args = 0
  48:Drivers/lvgl/src/core/lv_indev_scroll.c ****         return;
 1277              		.loc 1 48 5 view .LVU400
  48:Drivers/lvgl/src/core/lv_indev_scroll.c ****         return;
 1278              		.loc 1 48 7 is_stmt 0 view .LVU401
 1279 0000 4369     		ldr	r3, [r0, #20]
 1280 0002 002B     		cmp	r3, #0
 1281 0004 00F09880 		beq	.L214
  52:Drivers/lvgl/src/core/lv_indev_scroll.c ****     /*If there is no scroll object yet try to find one*/
 1282              		.loc 1 52 5 is_stmt 1 view .LVU402
  47:Drivers/lvgl/src/core/lv_indev_scroll.c ****     if(proc->types.pointer.vect.x == 0 && proc->types.pointer.vect.y == 0) {
 1283              		.loc 1 47 1 is_stmt 0 view .LVU403
 1284 0008 2DE9F04F 		push	{r4, r5, r6, r7, r8, r9, r10, fp, lr}
 1285              		.cfi_def_cfa_offset 36
 1286              		.cfi_offset 4, -36
 1287              		.cfi_offset 5, -32
 1288              		.cfi_offset 6, -28
 1289              		.cfi_offset 7, -24
 1290              		.cfi_offset 8, -20
 1291              		.cfi_offset 9, -16
 1292              		.cfi_offset 10, -12
 1293              		.cfi_offset 11, -8
 1294              		.cfi_offset 14, -4
 1295 000c 2DED028B 		vpush.64	{d8}
 1296              		.cfi_def_cfa_offset 44
 1297              		.cfi_offset 80, -44
 1298              		.cfi_offset 81, -40
  52:Drivers/lvgl/src/core/lv_indev_scroll.c ****     /*If there is no scroll object yet try to find one*/
 1299              		.loc 1 52 16 view .LVU404
 1300 0010 C56A     		ldr	r5, [r0, #44]
 1301              	.LVL106:
ARM GAS  /var/folders/0z/tsy30v1j4xl4_7kw94k978ww0000gn/T//cc3yoOHj.s 			page 46


  54:Drivers/lvgl/src/core/lv_indev_scroll.c ****         scroll_obj = find_scroll_obj(proc);
 1302              		.loc 1 54 5 is_stmt 1 view .LVU405
  47:Drivers/lvgl/src/core/lv_indev_scroll.c ****     if(proc->types.pointer.vect.x == 0 && proc->types.pointer.vect.y == 0) {
 1303              		.loc 1 47 1 is_stmt 0 view .LVU406
 1304 0012 8DB0     		sub	sp, sp, #52
 1305              		.cfi_def_cfa_offset 96
 1306 0014 0446     		mov	r4, r0
  54:Drivers/lvgl/src/core/lv_indev_scroll.c ****         scroll_obj = find_scroll_obj(proc);
 1307              		.loc 1 54 7 view .LVU407
 1308 0016 002D     		cmp	r5, #0
 1309 0018 00F0E280 		beq	.L220
 1310              	.LVL107:
 1311              	.L83:
  65:Drivers/lvgl/src/core/lv_indev_scroll.c ****     int16_t zoom = 256;
 1312              		.loc 1 65 5 is_stmt 1 view .LVU408
  66:Drivers/lvgl/src/core/lv_indev_scroll.c ****     lv_obj_t * parent = scroll_obj;
 1313              		.loc 1 66 5 view .LVU409
  67:Drivers/lvgl/src/core/lv_indev_scroll.c ****     while(parent) {
 1314              		.loc 1 67 5 view .LVU410
  68:Drivers/lvgl/src/core/lv_indev_scroll.c ****         angle += lv_obj_get_style_transform_angle(parent, 0);
 1315              		.loc 1 68 5 view .LVU411
  68:Drivers/lvgl/src/core/lv_indev_scroll.c ****         angle += lv_obj_get_style_transform_angle(parent, 0);
 1316              		.loc 1 68 11 view .LVU412
  67:Drivers/lvgl/src/core/lv_indev_scroll.c ****     while(parent) {
 1317              		.loc 1 67 16 is_stmt 0 view .LVU413
 1318 001c A946     		mov	r9, r5
  66:Drivers/lvgl/src/core/lv_indev_scroll.c ****     lv_obj_t * parent = scroll_obj;
 1319              		.loc 1 66 13 view .LVU414
 1320 001e 4FF48076 		mov	r6, #256
  65:Drivers/lvgl/src/core/lv_indev_scroll.c ****     int16_t zoom = 256;
 1321              		.loc 1 65 13 view .LVU415
 1322 0022 0027     		movs	r7, #0
 1323              	.LVL108:
 1324              	.L133:
  69:Drivers/lvgl/src/core/lv_indev_scroll.c ****         zoom *= (lv_obj_get_style_transform_zoom(parent, 0) / 256);
 1325              		.loc 1 69 9 is_stmt 1 view .LVU416
 1326              	.LBB215:
 1327              	.LBI215:
  85:Drivers/lvgl/src/core/lv_obj_style_gen.h **** {
 1328              		.loc 2 85 26 view .LVU417
 1329              	.LBB216:
  87:Drivers/lvgl/src/core/lv_obj_style_gen.h ****     return (lv_coord_t)v.num;
 1330              		.loc 2 87 5 view .LVU418
  87:Drivers/lvgl/src/core/lv_obj_style_gen.h ****     return (lv_coord_t)v.num;
 1331              		.loc 2 87 26 is_stmt 0 view .LVU419
 1332 0024 6E22     		movs	r2, #110
 1333 0026 0021     		movs	r1, #0
 1334 0028 4846     		mov	r0, r9
 1335 002a FFF7FEFF 		bl	lv_obj_get_style_prop
 1336              	.LVL109:
  88:Drivers/lvgl/src/core/lv_obj_style_gen.h **** }
 1337              		.loc 2 88 5 is_stmt 1 view .LVU420
  88:Drivers/lvgl/src/core/lv_obj_style_gen.h **** }
 1338              		.loc 2 88 5 is_stmt 0 view .LVU421
 1339              	.LBE216:
 1340              	.LBE215:
 1341              	.LBB217:
ARM GAS  /var/folders/0z/tsy30v1j4xl4_7kw94k978ww0000gn/T//cc3yoOHj.s 			page 47


 1342              	.LBB218:
  81:Drivers/lvgl/src/core/lv_obj_style_gen.h ****     return (lv_coord_t)v.num;
 1343              		.loc 2 81 26 view .LVU422
 1344 002e 6D22     		movs	r2, #109
 1345              	.LBE218:
 1346              	.LBE217:
  69:Drivers/lvgl/src/core/lv_indev_scroll.c ****         zoom *= (lv_obj_get_style_transform_zoom(parent, 0) / 256);
 1347              		.loc 1 69 15 view .LVU423
 1348 0030 C319     		adds	r3, r0, r7
 1349              	.LBB221:
 1350              	.LBB219:
  81:Drivers/lvgl/src/core/lv_obj_style_gen.h ****     return (lv_coord_t)v.num;
 1351              		.loc 2 81 26 view .LVU424
 1352 0032 0021     		movs	r1, #0
 1353 0034 4846     		mov	r0, r9
 1354              	.LBE219:
 1355              	.LBE221:
  69:Drivers/lvgl/src/core/lv_indev_scroll.c ****         zoom *= (lv_obj_get_style_transform_zoom(parent, 0) / 256);
 1356              		.loc 1 69 15 view .LVU425
 1357 0036 1FFA83F8 		uxth	r8, r3
 1358 003a 1FB2     		sxth	r7, r3
 1359              	.LVL110:
  70:Drivers/lvgl/src/core/lv_indev_scroll.c ****         parent = lv_obj_get_parent(parent);
 1360              		.loc 1 70 9 is_stmt 1 view .LVU426
 1361              	.LBB222:
 1362              	.LBI217:
  79:Drivers/lvgl/src/core/lv_obj_style_gen.h **** {
 1363              		.loc 2 79 26 view .LVU427
 1364              	.LBB220:
  81:Drivers/lvgl/src/core/lv_obj_style_gen.h ****     return (lv_coord_t)v.num;
 1365              		.loc 2 81 5 view .LVU428
  81:Drivers/lvgl/src/core/lv_obj_style_gen.h ****     return (lv_coord_t)v.num;
 1366              		.loc 2 81 26 is_stmt 0 view .LVU429
 1367 003c FFF7FEFF 		bl	lv_obj_get_style_prop
 1368              	.LVL111:
  82:Drivers/lvgl/src/core/lv_obj_style_gen.h **** }
 1369              		.loc 2 82 5 is_stmt 1 view .LVU430
  82:Drivers/lvgl/src/core/lv_obj_style_gen.h **** }
 1370              		.loc 2 82 12 is_stmt 0 view .LVU431
 1371 0040 03B2     		sxth	r3, r0
 1372              	.LVL112:
  82:Drivers/lvgl/src/core/lv_obj_style_gen.h **** }
 1373              		.loc 2 82 12 view .LVU432
 1374              	.LBE220:
 1375              	.LBE222:
  70:Drivers/lvgl/src/core/lv_indev_scroll.c ****         parent = lv_obj_get_parent(parent);
 1376              		.loc 1 70 61 view .LVU433
 1377 0042 002B     		cmp	r3, #0
 1378 0044 B8BF     		it	lt
 1379 0046 FF33     		addlt	r3, r3, #255
 1380 0048 1B12     		asrs	r3, r3, #8
  71:Drivers/lvgl/src/core/lv_indev_scroll.c ****     }
 1381              		.loc 1 71 18 view .LVU434
 1382 004a 4846     		mov	r0, r9
  70:Drivers/lvgl/src/core/lv_indev_scroll.c ****         parent = lv_obj_get_parent(parent);
 1383              		.loc 1 70 14 view .LVU435
 1384 004c 13FB06F3 		smulbb	r3, r3, r6
ARM GAS  /var/folders/0z/tsy30v1j4xl4_7kw94k978ww0000gn/T//cc3yoOHj.s 			page 48


 1385 0050 1EB2     		sxth	r6, r3
 1386              	.LVL113:
  71:Drivers/lvgl/src/core/lv_indev_scroll.c ****     }
 1387              		.loc 1 71 9 is_stmt 1 view .LVU436
  71:Drivers/lvgl/src/core/lv_indev_scroll.c ****     }
 1388              		.loc 1 71 18 is_stmt 0 view .LVU437
 1389 0052 FFF7FEFF 		bl	lv_obj_get_parent
 1390              	.LVL114:
  68:Drivers/lvgl/src/core/lv_indev_scroll.c ****         angle += lv_obj_get_style_transform_angle(parent, 0);
 1391              		.loc 1 68 11 is_stmt 1 view .LVU438
 1392 0056 8146     		mov	r9, r0
 1393 0058 0028     		cmp	r0, #0
 1394 005a E3D1     		bne	.L133
  74:Drivers/lvgl/src/core/lv_indev_scroll.c ****         angle = -angle;
 1395              		.loc 1 74 5 view .LVU439
  74:Drivers/lvgl/src/core/lv_indev_scroll.c ****         angle = -angle;
 1396              		.loc 1 74 7 is_stmt 0 view .LVU440
 1397 005c 17B9     		cbnz	r7, .L134
  74:Drivers/lvgl/src/core/lv_indev_scroll.c ****         angle = -angle;
 1398              		.loc 1 74 19 discriminator 1 view .LVU441
 1399 005e B6F5807F 		cmp	r6, #256
 1400 0062 0ED0     		beq	.L135
 1401              	.L134:
 1402              	.LBB223:
  75:Drivers/lvgl/src/core/lv_indev_scroll.c ****         zoom = (256 * 256) / zoom;
 1403              		.loc 1 75 9 is_stmt 1 view .LVU442
 1404              	.LVL115:
  76:Drivers/lvgl/src/core/lv_indev_scroll.c ****         lv_point_t pivot = { 0, 0 };
 1405              		.loc 1 76 9 view .LVU443
  77:Drivers/lvgl/src/core/lv_indev_scroll.c ****         lv_point_transform(&proc->types.pointer.vect, angle, zoom, &pivot);
 1406              		.loc 1 77 20 is_stmt 0 view .LVU444
 1407 0064 0023     		movs	r3, #0
  75:Drivers/lvgl/src/core/lv_indev_scroll.c ****         zoom = (256 * 256) / zoom;
 1408              		.loc 1 75 15 view .LVU445
 1409 0066 C8F10001 		rsb	r1, r8, #0
  76:Drivers/lvgl/src/core/lv_indev_scroll.c ****         lv_point_t pivot = { 0, 0 };
 1410              		.loc 1 76 28 view .LVU446
 1411 006a 4FF48032 		mov	r2, #65536
  77:Drivers/lvgl/src/core/lv_indev_scroll.c ****         lv_point_transform(&proc->types.pointer.vect, angle, zoom, &pivot);
 1412              		.loc 1 77 20 view .LVU447
 1413 006e 0B93     		str	r3, [sp, #44]
  76:Drivers/lvgl/src/core/lv_indev_scroll.c ****         lv_point_t pivot = { 0, 0 };
 1414              		.loc 1 76 28 view .LVU448
 1415 0070 92FBF6F2 		sdiv	r2, r2, r6
 1416              	.LVL116:
  77:Drivers/lvgl/src/core/lv_indev_scroll.c ****         lv_point_transform(&proc->types.pointer.vect, angle, zoom, &pivot);
 1417              		.loc 1 77 9 is_stmt 1 view .LVU449
  78:Drivers/lvgl/src/core/lv_indev_scroll.c ****     }
 1418              		.loc 1 78 9 view .LVU450
 1419 0074 09B2     		sxth	r1, r1
 1420 0076 12B2     		sxth	r2, r2
  78:Drivers/lvgl/src/core/lv_indev_scroll.c ****     }
 1421              		.loc 1 78 9 is_stmt 0 view .LVU451
 1422 0078 0BAB     		add	r3, sp, #44
 1423 007a 04F11400 		add	r0, r4, #20
 1424              	.LVL117:
  78:Drivers/lvgl/src/core/lv_indev_scroll.c ****     }
ARM GAS  /var/folders/0z/tsy30v1j4xl4_7kw94k978ww0000gn/T//cc3yoOHj.s 			page 49


 1425              		.loc 1 78 9 view .LVU452
 1426 007e FFF7FEFF 		bl	lv_point_transform
 1427              	.LVL118:
 1428              	.L135:
  78:Drivers/lvgl/src/core/lv_indev_scroll.c ****     }
 1429              		.loc 1 78 9 view .LVU453
 1430              	.LBE223:
  83:Drivers/lvgl/src/core/lv_indev_scroll.c ****     lv_coord_t diff_y = 0;
 1431              		.loc 1 83 5 is_stmt 1 view .LVU454
  84:Drivers/lvgl/src/core/lv_indev_scroll.c ****     if(proc->types.pointer.scroll_dir == LV_DIR_HOR) {
 1432              		.loc 1 84 5 view .LVU455
  85:Drivers/lvgl/src/core/lv_indev_scroll.c ****         lv_coord_t sr = lv_obj_get_scroll_right(scroll_obj);
 1433              		.loc 1 85 5 view .LVU456
  85:Drivers/lvgl/src/core/lv_indev_scroll.c ****         lv_coord_t sr = lv_obj_get_scroll_right(scroll_obj);
 1434              		.loc 1 85 39 is_stmt 0 view .LVU457
 1435 0082 94F84060 		ldrb	r6, [r4, #64]	@ zero_extendqisi2
  85:Drivers/lvgl/src/core/lv_indev_scroll.c ****         lv_coord_t sr = lv_obj_get_scroll_right(scroll_obj);
 1436              		.loc 1 85 7 view .LVU458
 1437 0086 06F00F06 		and	r6, r6, #15
 1438 008a 032E     		cmp	r6, #3
 1439              	.LBB224:
  86:Drivers/lvgl/src/core/lv_indev_scroll.c ****         lv_coord_t sl = lv_obj_get_scroll_left(scroll_obj);
 1440              		.loc 1 86 25 view .LVU459
 1441 008c 2846     		mov	r0, r5
 1442              	.LBE224:
  85:Drivers/lvgl/src/core/lv_indev_scroll.c ****         lv_coord_t sr = lv_obj_get_scroll_right(scroll_obj);
 1443              		.loc 1 85 7 view .LVU460
 1444 008e 54D0     		beq	.L221
 1445              	.LVL119:
 1446              	.LBB235:
  91:Drivers/lvgl/src/core/lv_indev_scroll.c ****         lv_coord_t sb = lv_obj_get_scroll_bottom(scroll_obj);
 1447              		.loc 1 91 9 is_stmt 1 view .LVU461
  91:Drivers/lvgl/src/core/lv_indev_scroll.c ****         lv_coord_t sb = lv_obj_get_scroll_bottom(scroll_obj);
 1448              		.loc 1 91 25 is_stmt 0 view .LVU462
 1449 0090 FFF7FEFF 		bl	lv_obj_get_scroll_top
 1450              	.LVL120:
  91:Drivers/lvgl/src/core/lv_indev_scroll.c ****         lv_coord_t sb = lv_obj_get_scroll_bottom(scroll_obj);
 1451              		.loc 1 91 25 view .LVU463
 1452 0094 8046     		mov	r8, r0
  92:Drivers/lvgl/src/core/lv_indev_scroll.c ****         diff_y = elastic_diff(scroll_obj, proc->types.pointer.vect.y, st, sb, LV_DIR_VER);
 1453              		.loc 1 92 25 view .LVU464
 1454 0096 2846     		mov	r0, r5
 1455              	.LVL121:
  92:Drivers/lvgl/src/core/lv_indev_scroll.c ****         diff_y = elastic_diff(scroll_obj, proc->types.pointer.vect.y, st, sb, LV_DIR_VER);
 1456              		.loc 1 92 9 is_stmt 1 view .LVU465
  92:Drivers/lvgl/src/core/lv_indev_scroll.c ****         diff_y = elastic_diff(scroll_obj, proc->types.pointer.vect.y, st, sb, LV_DIR_VER);
 1457              		.loc 1 92 25 is_stmt 0 view .LVU466
 1458 0098 FFF7FEFF 		bl	lv_obj_get_scroll_bottom
 1459              	.LVL122:
 1460              	.LBB236:
 1461              	.LBB237:
 615:Drivers/lvgl/src/core/lv_indev_scroll.c ****         /*If there is snapping in the current direction don't use the elastic factor because
 1462              		.loc 1 615 8 view .LVU467
 1463 009c 2021     		movs	r1, #32
 1464              	.LBE237:
 1465              	.LBE236:
  92:Drivers/lvgl/src/core/lv_indev_scroll.c ****         diff_y = elastic_diff(scroll_obj, proc->types.pointer.vect.y, st, sb, LV_DIR_VER);
ARM GAS  /var/folders/0z/tsy30v1j4xl4_7kw94k978ww0000gn/T//cc3yoOHj.s 			page 50


 1466              		.loc 1 92 25 view .LVU468
 1467 009e 0746     		mov	r7, r0
 1468              	.LVL123:
  93:Drivers/lvgl/src/core/lv_indev_scroll.c ****     }
 1469              		.loc 1 93 9 is_stmt 1 view .LVU469
 1470              	.LBB244:
 1471              	.LBB238:
 615:Drivers/lvgl/src/core/lv_indev_scroll.c ****         /*If there is snapping in the current direction don't use the elastic factor because
 1472              		.loc 1 615 8 is_stmt 0 view .LVU470
 1473 00a0 2846     		mov	r0, r5
 1474              	.LBE238:
 1475              	.LBE244:
  93:Drivers/lvgl/src/core/lv_indev_scroll.c ****     }
 1476              		.loc 1 93 18 view .LVU471
 1477 00a2 B4F91660 		ldrsh	r6, [r4, #22]
 1478              	.LVL124:
 1479              	.LBB245:
 1480              	.LBI236:
 612:Drivers/lvgl/src/core/lv_indev_scroll.c ****                                lv_dir_t dir)
 1481              		.loc 1 612 19 is_stmt 1 view .LVU472
 1482              	.LBB239:
 615:Drivers/lvgl/src/core/lv_indev_scroll.c ****         /*If there is snapping in the current direction don't use the elastic factor because
 1483              		.loc 1 615 5 view .LVU473
 615:Drivers/lvgl/src/core/lv_indev_scroll.c ****         /*If there is snapping in the current direction don't use the elastic factor because
 1484              		.loc 1 615 8 is_stmt 0 view .LVU474
 1485 00a6 FFF7FEFF 		bl	lv_obj_has_flag
 1486              	.LVL125:
 615:Drivers/lvgl/src/core/lv_indev_scroll.c ****         /*If there is snapping in the current direction don't use the elastic factor because
 1487              		.loc 1 615 7 view .LVU475
 1488 00aa 0028     		cmp	r0, #0
 1489 00ac 72D1     		bne	.L222
 683:Drivers/lvgl/src/core/lv_indev_scroll.c ****         if(scroll_start - diff < 0) diff = scroll_start;
 1490              		.loc 1 683 9 is_stmt 1 view .LVU476
 683:Drivers/lvgl/src/core/lv_indev_scroll.c ****         if(scroll_start - diff < 0) diff = scroll_start;
 1491              		.loc 1 683 11 is_stmt 0 view .LVU477
 1492 00ae F742     		cmn	r7, r6
 683:Drivers/lvgl/src/core/lv_indev_scroll.c ****         if(scroll_start - diff < 0) diff = scroll_start;
 1493              		.loc 1 683 35 is_stmt 1 view .LVU478
 683:Drivers/lvgl/src/core/lv_indev_scroll.c ****         if(scroll_start - diff < 0) diff = scroll_start;
 1494              		.loc 1 683 40 is_stmt 0 view .LVU479
 1495 00b0 44BF     		itt	mi
 1496 00b2 7F42     		rsbmi	r7, r7, #0
 1497              	.LVL126:
 683:Drivers/lvgl/src/core/lv_indev_scroll.c ****         if(scroll_start - diff < 0) diff = scroll_start;
 1498              		.loc 1 683 40 view .LVU480
 1499 00b4 3EB2     		sxthmi	r6, r7
 1500              	.LVL127:
 684:Drivers/lvgl/src/core/lv_indev_scroll.c ****     }
 1501              		.loc 1 684 9 is_stmt 1 view .LVU481
 684:Drivers/lvgl/src/core/lv_indev_scroll.c ****     }
 1502              		.loc 1 684 11 is_stmt 0 view .LVU482
 1503 00b6 B045     		cmp	r8, r6
 1504              	.LBE239:
 1505              	.LBE245:
 1506              	.LBE235:
  96:Drivers/lvgl/src/core/lv_indev_scroll.c ****     if((scroll_dir & LV_DIR_LEFT)   == 0 && diff_x > 0) diff_x = 0;
 1507              		.loc 1 96 27 view .LVU483
ARM GAS  /var/folders/0z/tsy30v1j4xl4_7kw94k978ww0000gn/T//cc3yoOHj.s 			page 51


 1508 00b8 2846     		mov	r0, r5
 1509              	.LBB250:
 1510              	.LBB246:
 1511              	.LBB240:
 684:Drivers/lvgl/src/core/lv_indev_scroll.c ****     }
 1512              		.loc 1 684 11 view .LVU484
 1513 00ba C0F24981 		blt	.L143
 1514              	.LVL128:
 684:Drivers/lvgl/src/core/lv_indev_scroll.c ****     }
 1515              		.loc 1 684 11 view .LVU485
 1516              	.LBE240:
 1517              	.LBE246:
 1518              	.LBE250:
  96:Drivers/lvgl/src/core/lv_indev_scroll.c ****     if((scroll_dir & LV_DIR_LEFT)   == 0 && diff_x > 0) diff_x = 0;
 1519              		.loc 1 96 5 is_stmt 1 view .LVU486
  96:Drivers/lvgl/src/core/lv_indev_scroll.c ****     if((scroll_dir & LV_DIR_LEFT)   == 0 && diff_x > 0) diff_x = 0;
 1520              		.loc 1 96 27 is_stmt 0 view .LVU487
 1521 00be FFF7FEFF 		bl	lv_obj_get_scroll_dir
 1522              	.LVL129:
  97:Drivers/lvgl/src/core/lv_indev_scroll.c ****     if((scroll_dir & LV_DIR_RIGHT)  == 0 && diff_x < 0) diff_x = 0;
 1523              		.loc 1 97 5 is_stmt 1 view .LVU488
 1524              	.L141:
  98:Drivers/lvgl/src/core/lv_indev_scroll.c ****     if((scroll_dir & LV_DIR_TOP)    == 0 && diff_y > 0) diff_y = 0;
 1525              		.loc 1 98 5 view .LVU489
  99:Drivers/lvgl/src/core/lv_indev_scroll.c ****     if((scroll_dir & LV_DIR_BOTTOM) == 0 && diff_y < 0) diff_y = 0;
 1526              		.loc 1 99 5 view .LVU490
  99:Drivers/lvgl/src/core/lv_indev_scroll.c ****     if((scroll_dir & LV_DIR_BOTTOM) == 0 && diff_y < 0) diff_y = 0;
 1527              		.loc 1 99 7 is_stmt 0 view .LVU491
 1528 00c2 10F00401 		ands	r1, r0, #4
 1529 00c6 74D1     		bne	.L223
 1530              	.L153:
  99:Drivers/lvgl/src/core/lv_indev_scroll.c ****     if((scroll_dir & LV_DIR_BOTTOM) == 0 && diff_y < 0) diff_y = 0;
 1531              		.loc 1 99 42 discriminator 1 view .LVU492
 1532 00c8 002E     		cmp	r6, #0
 1533 00ca 73DD     		ble	.L218
 1534 00cc 0B46     		mov	r3, r1
 1535 00ce 0F46     		mov	r7, r1
  99:Drivers/lvgl/src/core/lv_indev_scroll.c ****     if((scroll_dir & LV_DIR_BOTTOM) == 0 && diff_y < 0) diff_y = 0;
 1536              		.loc 1 99 64 view .LVU493
 1537 00d0 0E46     		mov	r6, r1
 1538              	.LVL130:
 1539              	.L147:
 103:Drivers/lvgl/src/core/lv_indev_scroll.c **** 
 1540              		.loc 1 103 5 is_stmt 1 view .LVU494
 1541              	.LBB251:
 1542              	.LBI251:
 556:Drivers/lvgl/src/core/lv_indev_scroll.c **** {
 1543              		.loc 1 556 13 view .LVU495
 1544              	.LBB252:
 558:Drivers/lvgl/src/core/lv_indev_scroll.c ****         if(proc->types.pointer.scroll_sum.y + *diff_y < proc->types.pointer.scroll_area.y1) {
 1545              		.loc 1 558 5 view .LVU496
 559:Drivers/lvgl/src/core/lv_indev_scroll.c ****             *diff_y = proc->types.pointer.scroll_area.y1 - proc->types.pointer.scroll_sum.y;
 1546              		.loc 1 559 9 view .LVU497
 559:Drivers/lvgl/src/core/lv_indev_scroll.c ****             *diff_y = proc->types.pointer.scroll_area.y1 - proc->types.pointer.scroll_sum.y;
 1547              		.loc 1 559 42 is_stmt 0 view .LVU498
 1548 00d2 B4F91A00 		ldrsh	r0, [r4, #26]
 1549              	.LVL131:
ARM GAS  /var/folders/0z/tsy30v1j4xl4_7kw94k978ww0000gn/T//cc3yoOHj.s 			page 52


 559:Drivers/lvgl/src/core/lv_indev_scroll.c ****             *diff_y = proc->types.pointer.scroll_area.y1 - proc->types.pointer.scroll_sum.y;
 1550              		.loc 1 559 88 view .LVU499
 1551 00d6 B4F93620 		ldrsh	r2, [r4, #54]
 559:Drivers/lvgl/src/core/lv_indev_scroll.c ****             *diff_y = proc->types.pointer.scroll_area.y1 - proc->types.pointer.scroll_sum.y;
 1552              		.loc 1 559 45 view .LVU500
 1553 00da 0344     		add	r3, r3, r0
 559:Drivers/lvgl/src/core/lv_indev_scroll.c ****             *diff_y = proc->types.pointer.scroll_area.y1 - proc->types.pointer.scroll_sum.y;
 1554              		.loc 1 559 11 view .LVU501
 1555 00dc 9342     		cmp	r3, r2
 1556 00de 02DA     		bge	.L149
 560:Drivers/lvgl/src/core/lv_indev_scroll.c ****         }
 1557              		.loc 1 560 13 is_stmt 1 view .LVU502
 560:Drivers/lvgl/src/core/lv_indev_scroll.c ****         }
 1558              		.loc 1 560 58 is_stmt 0 view .LVU503
 1559 00e0 121A     		subs	r2, r2, r0
 1560 00e2 16B2     		sxth	r6, r2
 1561              	.LVL132:
 563:Drivers/lvgl/src/core/lv_indev_scroll.c ****             *diff_y = proc->types.pointer.scroll_area.y2 - proc->types.pointer.scroll_sum.y;
 1562              		.loc 1 563 45 view .LVU504
 1563 00e4 3318     		adds	r3, r6, r0
 1564              	.L149:
 563:Drivers/lvgl/src/core/lv_indev_scroll.c ****             *diff_y = proc->types.pointer.scroll_area.y2 - proc->types.pointer.scroll_sum.y;
 1565              		.loc 1 563 9 is_stmt 1 view .LVU505
 563:Drivers/lvgl/src/core/lv_indev_scroll.c ****             *diff_y = proc->types.pointer.scroll_area.y2 - proc->types.pointer.scroll_sum.y;
 1566              		.loc 1 563 88 is_stmt 0 view .LVU506
 1567 00e6 B4F93A20 		ldrsh	r2, [r4, #58]
 563:Drivers/lvgl/src/core/lv_indev_scroll.c ****             *diff_y = proc->types.pointer.scroll_area.y2 - proc->types.pointer.scroll_sum.y;
 1568              		.loc 1 563 11 view .LVU507
 1569 00ea 9A42     		cmp	r2, r3
 564:Drivers/lvgl/src/core/lv_indev_scroll.c ****         }
 1570              		.loc 1 564 13 is_stmt 1 view .LVU508
 564:Drivers/lvgl/src/core/lv_indev_scroll.c ****         }
 1571              		.loc 1 564 58 is_stmt 0 view .LVU509
 1572 00ec BCBF     		itt	lt
 1573 00ee 121A     		sublt	r2, r2, r0
 1574 00f0 16B2     		sxthlt	r6, r2
 1575              	.LVL133:
 568:Drivers/lvgl/src/core/lv_indev_scroll.c ****         if(proc->types.pointer.scroll_sum.x + *diff_x < proc->types.pointer.scroll_area.x1) {
 1576              		.loc 1 568 5 is_stmt 1 view .LVU510
 569:Drivers/lvgl/src/core/lv_indev_scroll.c ****             *diff_x = proc->types.pointer.scroll_area.x1 - proc->types.pointer.scroll_sum.x;
 1577              		.loc 1 569 9 view .LVU511
 569:Drivers/lvgl/src/core/lv_indev_scroll.c ****             *diff_x = proc->types.pointer.scroll_area.x1 - proc->types.pointer.scroll_sum.x;
 1578              		.loc 1 569 42 is_stmt 0 view .LVU512
 1579 00f2 B4F91820 		ldrsh	r2, [r4, #24]
 569:Drivers/lvgl/src/core/lv_indev_scroll.c ****             *diff_x = proc->types.pointer.scroll_area.x1 - proc->types.pointer.scroll_sum.x;
 1580              		.loc 1 569 88 view .LVU513
 1581 00f6 B4F93430 		ldrsh	r3, [r4, #52]
 569:Drivers/lvgl/src/core/lv_indev_scroll.c ****             *diff_x = proc->types.pointer.scroll_area.x1 - proc->types.pointer.scroll_sum.x;
 1582              		.loc 1 569 45 view .LVU514
 1583 00fa 1144     		add	r1, r1, r2
 569:Drivers/lvgl/src/core/lv_indev_scroll.c ****             *diff_x = proc->types.pointer.scroll_area.x1 - proc->types.pointer.scroll_sum.x;
 1584              		.loc 1 569 11 view .LVU515
 1585 00fc 9942     		cmp	r1, r3
 1586 00fe 02DA     		bge	.L151
 570:Drivers/lvgl/src/core/lv_indev_scroll.c ****         }
 1587              		.loc 1 570 13 is_stmt 1 view .LVU516
 570:Drivers/lvgl/src/core/lv_indev_scroll.c ****         }
ARM GAS  /var/folders/0z/tsy30v1j4xl4_7kw94k978ww0000gn/T//cc3yoOHj.s 			page 53


 1588              		.loc 1 570 58 is_stmt 0 view .LVU517
 1589 0100 9B1A     		subs	r3, r3, r2
 1590 0102 1FB2     		sxth	r7, r3
 1591              	.LVL134:
 573:Drivers/lvgl/src/core/lv_indev_scroll.c ****             *diff_x = proc->types.pointer.scroll_area.x2 - proc->types.pointer.scroll_sum.x;
 1592              		.loc 1 573 45 view .LVU518
 1593 0104 B918     		adds	r1, r7, r2
 1594              	.LVL135:
 1595              	.L151:
 573:Drivers/lvgl/src/core/lv_indev_scroll.c ****             *diff_x = proc->types.pointer.scroll_area.x2 - proc->types.pointer.scroll_sum.x;
 1596              		.loc 1 573 9 is_stmt 1 view .LVU519
 573:Drivers/lvgl/src/core/lv_indev_scroll.c ****             *diff_x = proc->types.pointer.scroll_area.x2 - proc->types.pointer.scroll_sum.x;
 1597              		.loc 1 573 88 is_stmt 0 view .LVU520
 1598 0106 B4F93830 		ldrsh	r3, [r4, #56]
 573:Drivers/lvgl/src/core/lv_indev_scroll.c ****             *diff_x = proc->types.pointer.scroll_area.x2 - proc->types.pointer.scroll_sum.x;
 1599              		.loc 1 573 11 view .LVU521
 1600 010a 8B42     		cmp	r3, r1
 574:Drivers/lvgl/src/core/lv_indev_scroll.c ****         }
 1601              		.loc 1 574 13 is_stmt 1 view .LVU522
 574:Drivers/lvgl/src/core/lv_indev_scroll.c ****         }
 1602              		.loc 1 574 58 is_stmt 0 view .LVU523
 1603 010c BCBF     		itt	lt
 1604 010e 9B1A     		sublt	r3, r3, r2
 1605 0110 1FB2     		sxthlt	r7, r3
 1606              	.LVL136:
 574:Drivers/lvgl/src/core/lv_indev_scroll.c ****         }
 1607              		.loc 1 574 58 view .LVU524
 1608              	.LBE252:
 1609              	.LBE251:
 105:Drivers/lvgl/src/core/lv_indev_scroll.c ****     if(proc->reset_query) return;
 1610              		.loc 1 105 5 is_stmt 1 view .LVU525
 1611 0112 3246     		mov	r2, r6
 1612 0114 2846     		mov	r0, r5
 1613 0116 3946     		mov	r1, r7
 1614 0118 FFF7FEFF 		bl	_lv_obj_scroll_by_raw
 1615              	.LVL137:
 106:Drivers/lvgl/src/core/lv_indev_scroll.c ****     proc->types.pointer.scroll_sum.x += diff_x;
 1616              		.loc 1 106 5 view .LVU526
 106:Drivers/lvgl/src/core/lv_indev_scroll.c ****     proc->types.pointer.scroll_sum.x += diff_x;
 1617              		.loc 1 106 8 is_stmt 0 view .LVU527
 1618 011c 6378     		ldrb	r3, [r4, #1]	@ zero_extendqisi2
 106:Drivers/lvgl/src/core/lv_indev_scroll.c ****     proc->types.pointer.scroll_sum.x += diff_x;
 1619              		.loc 1 106 7 view .LVU528
 1620 011e 9B07     		lsls	r3, r3, #30
 1621 0120 05D4     		bmi	.L80
 107:Drivers/lvgl/src/core/lv_indev_scroll.c ****     proc->types.pointer.scroll_sum.y += diff_y;
 1622              		.loc 1 107 5 is_stmt 1 view .LVU529
 107:Drivers/lvgl/src/core/lv_indev_scroll.c ****     proc->types.pointer.scroll_sum.y += diff_y;
 1623              		.loc 1 107 38 is_stmt 0 view .LVU530
 1624 0122 228B     		ldrh	r2, [r4, #24]
 108:Drivers/lvgl/src/core/lv_indev_scroll.c **** }
 1625              		.loc 1 108 38 view .LVU531
 1626 0124 638B     		ldrh	r3, [r4, #26]
 107:Drivers/lvgl/src/core/lv_indev_scroll.c ****     proc->types.pointer.scroll_sum.y += diff_y;
 1627              		.loc 1 107 38 view .LVU532
 1628 0126 3A44     		add	r2, r2, r7
 108:Drivers/lvgl/src/core/lv_indev_scroll.c **** }
ARM GAS  /var/folders/0z/tsy30v1j4xl4_7kw94k978ww0000gn/T//cc3yoOHj.s 			page 54


 1629              		.loc 1 108 38 view .LVU533
 1630 0128 3344     		add	r3, r3, r6
 107:Drivers/lvgl/src/core/lv_indev_scroll.c ****     proc->types.pointer.scroll_sum.y += diff_y;
 1631              		.loc 1 107 38 view .LVU534
 1632 012a 2283     		strh	r2, [r4, #24]	@ movhi
 108:Drivers/lvgl/src/core/lv_indev_scroll.c **** }
 1633              		.loc 1 108 5 is_stmt 1 view .LVU535
 108:Drivers/lvgl/src/core/lv_indev_scroll.c **** }
 1634              		.loc 1 108 38 is_stmt 0 view .LVU536
 1635 012c 6383     		strh	r3, [r4, #26]	@ movhi
 1636              	.LVL138:
 1637              	.L80:
 109:Drivers/lvgl/src/core/lv_indev_scroll.c **** 
 1638              		.loc 1 109 1 view .LVU537
 1639 012e 0DB0     		add	sp, sp, #52
 1640              		.cfi_def_cfa_offset 44
 1641              		@ sp needed
 1642 0130 BDEC028B 		vldm	sp!, {d8}
 1643              		.cfi_restore 80
 1644              		.cfi_restore 81
 1645              		.cfi_def_cfa_offset 36
 1646 0134 BDE8F08F 		pop	{r4, r5, r6, r7, r8, r9, r10, fp, pc}
 1647              	.LVL139:
 1648              	.L214:
 1649              		.cfi_def_cfa_offset 0
 1650              		.cfi_restore 4
 1651              		.cfi_restore 5
 1652              		.cfi_restore 6
 1653              		.cfi_restore 7
 1654              		.cfi_restore 8
 1655              		.cfi_restore 9
 1656              		.cfi_restore 10
 1657              		.cfi_restore 11
 1658              		.cfi_restore 14
 109:Drivers/lvgl/src/core/lv_indev_scroll.c **** 
 1659              		.loc 1 109 1 view .LVU538
 1660 0138 7047     		bx	lr
 1661              	.LVL140:
 1662              	.L221:
 1663              		.cfi_def_cfa_offset 96
 1664              		.cfi_offset 4, -36
 1665              		.cfi_offset 5, -32
 1666              		.cfi_offset 6, -28
 1667              		.cfi_offset 7, -24
 1668              		.cfi_offset 8, -20
 1669              		.cfi_offset 9, -16
 1670              		.cfi_offset 10, -12
 1671              		.cfi_offset 11, -8
 1672              		.cfi_offset 14, -4
 1673              		.cfi_offset 80, -44
 1674              		.cfi_offset 81, -40
 1675              	.LBB256:
  86:Drivers/lvgl/src/core/lv_indev_scroll.c ****         lv_coord_t sl = lv_obj_get_scroll_left(scroll_obj);
 1676              		.loc 1 86 9 is_stmt 1 view .LVU539
  86:Drivers/lvgl/src/core/lv_indev_scroll.c ****         lv_coord_t sl = lv_obj_get_scroll_left(scroll_obj);
 1677              		.loc 1 86 25 is_stmt 0 view .LVU540
 1678 013a FFF7FEFF 		bl	lv_obj_get_scroll_right
ARM GAS  /var/folders/0z/tsy30v1j4xl4_7kw94k978ww0000gn/T//cc3yoOHj.s 			page 55


 1679              	.LVL141:
  86:Drivers/lvgl/src/core/lv_indev_scroll.c ****         lv_coord_t sl = lv_obj_get_scroll_left(scroll_obj);
 1680              		.loc 1 86 25 view .LVU541
 1681 013e 8046     		mov	r8, r0
  87:Drivers/lvgl/src/core/lv_indev_scroll.c ****         diff_x = elastic_diff(scroll_obj, proc->types.pointer.vect.x, sl, sr, LV_DIR_HOR);
 1682              		.loc 1 87 25 view .LVU542
 1683 0140 2846     		mov	r0, r5
 1684              	.LVL142:
  87:Drivers/lvgl/src/core/lv_indev_scroll.c ****         diff_x = elastic_diff(scroll_obj, proc->types.pointer.vect.x, sl, sr, LV_DIR_HOR);
 1685              		.loc 1 87 9 is_stmt 1 view .LVU543
  87:Drivers/lvgl/src/core/lv_indev_scroll.c ****         diff_x = elastic_diff(scroll_obj, proc->types.pointer.vect.x, sl, sr, LV_DIR_HOR);
 1686              		.loc 1 87 25 is_stmt 0 view .LVU544
 1687 0142 FFF7FEFF 		bl	lv_obj_get_scroll_left
 1688              	.LVL143:
 1689              	.LBB225:
 1690              	.LBB226:
 615:Drivers/lvgl/src/core/lv_indev_scroll.c ****         /*If there is snapping in the current direction don't use the elastic factor because
 1691              		.loc 1 615 8 view .LVU545
 1692 0146 2021     		movs	r1, #32
 1693              	.LBE226:
 1694              	.LBE225:
  87:Drivers/lvgl/src/core/lv_indev_scroll.c ****         diff_x = elastic_diff(scroll_obj, proc->types.pointer.vect.x, sl, sr, LV_DIR_HOR);
 1695              		.loc 1 87 25 view .LVU546
 1696 0148 8146     		mov	r9, r0
 1697              	.LVL144:
  88:Drivers/lvgl/src/core/lv_indev_scroll.c ****     }
 1698              		.loc 1 88 9 is_stmt 1 view .LVU547
 1699              	.LBB231:
 1700              	.LBB227:
 615:Drivers/lvgl/src/core/lv_indev_scroll.c ****         /*If there is snapping in the current direction don't use the elastic factor because
 1701              		.loc 1 615 8 is_stmt 0 view .LVU548
 1702 014a 2846     		mov	r0, r5
 1703              	.LBE227:
 1704              	.LBE231:
  88:Drivers/lvgl/src/core/lv_indev_scroll.c ****     }
 1705              		.loc 1 88 18 view .LVU549
 1706 014c B4F91470 		ldrsh	r7, [r4, #20]
 1707              	.LVL145:
 1708              	.LBB232:
 1709              	.LBI225:
 612:Drivers/lvgl/src/core/lv_indev_scroll.c ****                                lv_dir_t dir)
 1710              		.loc 1 612 19 is_stmt 1 view .LVU550
 1711              	.LBB228:
 615:Drivers/lvgl/src/core/lv_indev_scroll.c ****         /*If there is snapping in the current direction don't use the elastic factor because
 1712              		.loc 1 615 5 view .LVU551
 615:Drivers/lvgl/src/core/lv_indev_scroll.c ****         /*If there is snapping in the current direction don't use the elastic factor because
 1713              		.loc 1 615 8 is_stmt 0 view .LVU552
 1714 0150 FFF7FEFF 		bl	lv_obj_has_flag
 1715              	.LVL146:
 615:Drivers/lvgl/src/core/lv_indev_scroll.c ****         /*If there is snapping in the current direction don't use the elastic factor because
 1716              		.loc 1 615 7 view .LVU553
 1717 0154 80BB     		cbnz	r0, .L224
 683:Drivers/lvgl/src/core/lv_indev_scroll.c ****         if(scroll_start - diff < 0) diff = scroll_start;
 1718              		.loc 1 683 9 is_stmt 1 view .LVU554
 683:Drivers/lvgl/src/core/lv_indev_scroll.c ****         if(scroll_start - diff < 0) diff = scroll_start;
 1719              		.loc 1 683 11 is_stmt 0 view .LVU555
 1720 0156 18EB070F 		cmn	r8, r7
ARM GAS  /var/folders/0z/tsy30v1j4xl4_7kw94k978ww0000gn/T//cc3yoOHj.s 			page 56


 683:Drivers/lvgl/src/core/lv_indev_scroll.c ****         if(scroll_start - diff < 0) diff = scroll_start;
 1721              		.loc 1 683 35 is_stmt 1 view .LVU556
 683:Drivers/lvgl/src/core/lv_indev_scroll.c ****         if(scroll_start - diff < 0) diff = scroll_start;
 1722              		.loc 1 683 40 is_stmt 0 view .LVU557
 1723 015a 44BF     		itt	mi
 1724 015c C8F10008 		rsbmi	r8, r8, #0
 1725              	.LVL147:
 683:Drivers/lvgl/src/core/lv_indev_scroll.c ****         if(scroll_start - diff < 0) diff = scroll_start;
 1726              		.loc 1 683 40 view .LVU558
 1727 0160 0FFA88F7 		sxthmi	r7, r8
 1728              	.LVL148:
 684:Drivers/lvgl/src/core/lv_indev_scroll.c ****     }
 1729              		.loc 1 684 9 is_stmt 1 view .LVU559
 684:Drivers/lvgl/src/core/lv_indev_scroll.c ****     }
 1730              		.loc 1 684 42 is_stmt 0 view .LVU560
 1731 0164 4F45     		cmp	r7, r9
 1732              	.LBE228:
 1733              	.LBE232:
 1734              	.LBE256:
  96:Drivers/lvgl/src/core/lv_indev_scroll.c ****     if((scroll_dir & LV_DIR_LEFT)   == 0 && diff_x > 0) diff_x = 0;
 1735              		.loc 1 96 27 view .LVU561
 1736 0166 2846     		mov	r0, r5
 1737              	.LBB257:
 1738              	.LBB233:
 1739              	.LBB229:
 684:Drivers/lvgl/src/core/lv_indev_scroll.c ****     }
 1740              		.loc 1 684 42 view .LVU562
 1741 0168 A8BF     		it	ge
 1742 016a 4F46     		movge	r7, r9
 1743              	.LVL149:
 684:Drivers/lvgl/src/core/lv_indev_scroll.c ****     }
 1744              		.loc 1 684 42 view .LVU563
 1745              	.LBE229:
 1746              	.LBE233:
 1747              	.LBE257:
  96:Drivers/lvgl/src/core/lv_indev_scroll.c ****     if((scroll_dir & LV_DIR_LEFT)   == 0 && diff_x > 0) diff_x = 0;
 1748              		.loc 1 96 5 is_stmt 1 view .LVU564
  96:Drivers/lvgl/src/core/lv_indev_scroll.c ****     if((scroll_dir & LV_DIR_LEFT)   == 0 && diff_x > 0) diff_x = 0;
 1749              		.loc 1 96 27 is_stmt 0 view .LVU565
 1750 016c FFF7FEFF 		bl	lv_obj_get_scroll_dir
 1751              	.LVL150:
  97:Drivers/lvgl/src/core/lv_indev_scroll.c ****     if((scroll_dir & LV_DIR_RIGHT)  == 0 && diff_x < 0) diff_x = 0;
 1752              		.loc 1 97 5 is_stmt 1 view .LVU566
  97:Drivers/lvgl/src/core/lv_indev_scroll.c ****     if((scroll_dir & LV_DIR_RIGHT)  == 0 && diff_x < 0) diff_x = 0;
 1753              		.loc 1 97 7 is_stmt 0 view .LVU567
 1754 0170 10F00103 		ands	r3, r0, #1
 1755 0174 2ED0     		beq	.L225
 1756              	.L144:
  98:Drivers/lvgl/src/core/lv_indev_scroll.c ****     if((scroll_dir & LV_DIR_TOP)    == 0 && diff_y > 0) diff_y = 0;
 1757              		.loc 1 98 5 is_stmt 1 view .LVU568
  98:Drivers/lvgl/src/core/lv_indev_scroll.c ****     if((scroll_dir & LV_DIR_TOP)    == 0 && diff_y > 0) diff_y = 0;
 1758              		.loc 1 98 7 is_stmt 0 view .LVU569
 1759 0176 10F00206 		ands	r6, r0, #2
 1760 017a 40F06D82 		bne	.L226
  98:Drivers/lvgl/src/core/lv_indev_scroll.c ****     if((scroll_dir & LV_DIR_TOP)    == 0 && diff_y > 0) diff_y = 0;
 1761              		.loc 1 98 7 view .LVU570
 1762 017e 27EAE777 		bic	r7, r7, r7, asr #31
ARM GAS  /var/folders/0z/tsy30v1j4xl4_7kw94k978ww0000gn/T//cc3yoOHj.s 			page 57


 1763              	.LVL151:
  98:Drivers/lvgl/src/core/lv_indev_scroll.c ****     if((scroll_dir & LV_DIR_TOP)    == 0 && diff_y > 0) diff_y = 0;
 1764              		.loc 1 98 7 view .LVU571
 1765 0182 3FB2     		sxth	r7, r7
 1766              	.LVL152:
  99:Drivers/lvgl/src/core/lv_indev_scroll.c ****     if((scroll_dir & LV_DIR_BOTTOM) == 0 && diff_y < 0) diff_y = 0;
 1767              		.loc 1 99 5 is_stmt 1 discriminator 1 view .LVU572
 1768              	.LBB258:
 1769              	.LBB253:
 569:Drivers/lvgl/src/core/lv_indev_scroll.c ****             *diff_x = proc->types.pointer.scroll_area.x1 - proc->types.pointer.scroll_sum.x;
 1770              		.loc 1 569 47 is_stmt 0 discriminator 1 view .LVU573
 1771 0184 3946     		mov	r1, r7
 1772              	.LVL153:
 1773              	.L145:
 569:Drivers/lvgl/src/core/lv_indev_scroll.c ****             *diff_x = proc->types.pointer.scroll_area.x1 - proc->types.pointer.scroll_sum.x;
 1774              		.loc 1 569 47 discriminator 1 view .LVU574
 1775              	.LBE253:
 1776              	.LBE258:
 100:Drivers/lvgl/src/core/lv_indev_scroll.c **** 
 1777              		.loc 1 100 5 is_stmt 1 view .LVU575
 100:Drivers/lvgl/src/core/lv_indev_scroll.c **** 
 1778              		.loc 1 100 7 is_stmt 0 view .LVU576
 1779 0186 0207     		lsls	r2, r0, #28
 1780 0188 5CBF     		itt	pl
 1781 018a 26EAE676 		bicpl	r6, r6, r6, asr #31
 1782              	.LVL154:
 100:Drivers/lvgl/src/core/lv_indev_scroll.c **** 
 1783              		.loc 1 100 7 view .LVU577
 1784 018e 36B2     		sxthpl	r6, r6
 1785              	.LBB259:
 1786              	.LBB254:
 559:Drivers/lvgl/src/core/lv_indev_scroll.c ****             *diff_y = proc->types.pointer.scroll_area.y1 - proc->types.pointer.scroll_sum.y;
 1787              		.loc 1 559 47 view .LVU578
 1788 0190 3346     		mov	r3, r6
 1789              	.LBE254:
 1790              	.LBE259:
 1791 0192 9EE7     		b	.L147
 1792              	.LVL155:
 1793              	.L222:
 1794              	.LBB260:
 1795              	.LBB247:
 1796              	.LBB241:
 559:Drivers/lvgl/src/core/lv_indev_scroll.c ****             *diff_y = proc->types.pointer.scroll_area.y1 - proc->types.pointer.scroll_sum.y;
 1797              		.loc 1 559 47 view .LVU579
 1798 0194 0C20     		movs	r0, #12
 1799 0196 3146     		mov	r1, r6
 1800 0198 3B46     		mov	r3, r7
 1801 019a 4246     		mov	r2, r8
 1802 019c 0090     		str	r0, [sp]
 1803 019e 2846     		mov	r0, r5
 1804 01a0 FFF7FEFF 		bl	elastic_diff.part.0
 1805              	.LVL156:
 1806 01a4 0646     		mov	r6, r0
 1807              	.LVL157:
 559:Drivers/lvgl/src/core/lv_indev_scroll.c ****             *diff_y = proc->types.pointer.scroll_area.y1 - proc->types.pointer.scroll_sum.y;
 1808              		.loc 1 559 47 view .LVU580
 1809              	.LBE241:
ARM GAS  /var/folders/0z/tsy30v1j4xl4_7kw94k978ww0000gn/T//cc3yoOHj.s 			page 58


 1810              	.LBE247:
 1811              	.LBE260:
  96:Drivers/lvgl/src/core/lv_indev_scroll.c ****     if((scroll_dir & LV_DIR_LEFT)   == 0 && diff_x > 0) diff_x = 0;
 1812              		.loc 1 96 27 view .LVU581
 1813 01a6 2846     		mov	r0, r5
 1814              	.LVL158:
  96:Drivers/lvgl/src/core/lv_indev_scroll.c ****     if((scroll_dir & LV_DIR_LEFT)   == 0 && diff_x > 0) diff_x = 0;
 1815              		.loc 1 96 5 is_stmt 1 view .LVU582
  96:Drivers/lvgl/src/core/lv_indev_scroll.c ****     if((scroll_dir & LV_DIR_LEFT)   == 0 && diff_x > 0) diff_x = 0;
 1816              		.loc 1 96 27 is_stmt 0 view .LVU583
 1817 01a8 FFF7FEFF 		bl	lv_obj_get_scroll_dir
 1818              	.LVL159:
  97:Drivers/lvgl/src/core/lv_indev_scroll.c ****     if((scroll_dir & LV_DIR_RIGHT)  == 0 && diff_x < 0) diff_x = 0;
 1819              		.loc 1 97 5 is_stmt 1 view .LVU584
  98:Drivers/lvgl/src/core/lv_indev_scroll.c ****     if((scroll_dir & LV_DIR_TOP)    == 0 && diff_y > 0) diff_y = 0;
 1820              		.loc 1 98 5 view .LVU585
  99:Drivers/lvgl/src/core/lv_indev_scroll.c ****     if((scroll_dir & LV_DIR_BOTTOM) == 0 && diff_y < 0) diff_y = 0;
 1821              		.loc 1 99 5 view .LVU586
  99:Drivers/lvgl/src/core/lv_indev_scroll.c ****     if((scroll_dir & LV_DIR_BOTTOM) == 0 && diff_y < 0) diff_y = 0;
 1822              		.loc 1 99 7 is_stmt 0 view .LVU587
 1823 01ac 10F00401 		ands	r1, r0, #4
 1824 01b0 8AD0     		beq	.L153
 1825              	.LVL160:
 1826              	.L223:
  99:Drivers/lvgl/src/core/lv_indev_scroll.c ****     if((scroll_dir & LV_DIR_BOTTOM) == 0 && diff_y < 0) diff_y = 0;
 1827              		.loc 1 99 7 view .LVU588
 1828 01b2 0021     		movs	r1, #0
 1829              	.L218:
  99:Drivers/lvgl/src/core/lv_indev_scroll.c ****     if((scroll_dir & LV_DIR_BOTTOM) == 0 && diff_y < 0) diff_y = 0;
 1830              		.loc 1 99 7 view .LVU589
 1831 01b4 0F46     		mov	r7, r1
 1832 01b6 E6E7     		b	.L145
 1833              	.LVL161:
 1834              	.L224:
 1835              	.LBB261:
 1836              	.LBB234:
 1837              	.LBB230:
  99:Drivers/lvgl/src/core/lv_indev_scroll.c ****     if((scroll_dir & LV_DIR_BOTTOM) == 0 && diff_y < 0) diff_y = 0;
 1838              		.loc 1 99 7 view .LVU590
 1839 01b8 3946     		mov	r1, r7
 1840 01ba 4346     		mov	r3, r8
 1841 01bc 4A46     		mov	r2, r9
 1842 01be 0096     		str	r6, [sp]
 1843 01c0 2846     		mov	r0, r5
 1844 01c2 FFF7FEFF 		bl	elastic_diff.part.0
 1845              	.LVL162:
 1846 01c6 0746     		mov	r7, r0
 1847              	.LVL163:
  99:Drivers/lvgl/src/core/lv_indev_scroll.c ****     if((scroll_dir & LV_DIR_BOTTOM) == 0 && diff_y < 0) diff_y = 0;
 1848              		.loc 1 99 7 view .LVU591
 1849              	.LBE230:
 1850              	.LBE234:
 1851              	.LBE261:
  96:Drivers/lvgl/src/core/lv_indev_scroll.c ****     if((scroll_dir & LV_DIR_LEFT)   == 0 && diff_x > 0) diff_x = 0;
 1852              		.loc 1 96 5 is_stmt 1 view .LVU592
  96:Drivers/lvgl/src/core/lv_indev_scroll.c ****     if((scroll_dir & LV_DIR_LEFT)   == 0 && diff_x > 0) diff_x = 0;
 1853              		.loc 1 96 27 is_stmt 0 view .LVU593
ARM GAS  /var/folders/0z/tsy30v1j4xl4_7kw94k978ww0000gn/T//cc3yoOHj.s 			page 59


 1854 01c8 2846     		mov	r0, r5
 1855 01ca FFF7FEFF 		bl	lv_obj_get_scroll_dir
 1856              	.LVL164:
  97:Drivers/lvgl/src/core/lv_indev_scroll.c ****     if((scroll_dir & LV_DIR_RIGHT)  == 0 && diff_x < 0) diff_x = 0;
 1857              		.loc 1 97 5 is_stmt 1 view .LVU594
  97:Drivers/lvgl/src/core/lv_indev_scroll.c ****     if((scroll_dir & LV_DIR_RIGHT)  == 0 && diff_x < 0) diff_x = 0;
 1858              		.loc 1 97 7 is_stmt 0 view .LVU595
 1859 01ce 10F00103 		ands	r3, r0, #1
 1860 01d2 D0D1     		bne	.L144
 1861              	.LVL165:
 1862              	.L225:
  97:Drivers/lvgl/src/core/lv_indev_scroll.c ****     if((scroll_dir & LV_DIR_RIGHT)  == 0 && diff_x < 0) diff_x = 0;
 1863              		.loc 1 97 42 discriminator 1 view .LVU596
 1864 01d4 002F     		cmp	r7, #0
 1865 01d6 CEDD     		ble	.L144
 1866 01d8 1F46     		mov	r7, r3
 1867              	.LVL166:
  97:Drivers/lvgl/src/core/lv_indev_scroll.c ****     if((scroll_dir & LV_DIR_RIGHT)  == 0 && diff_x < 0) diff_x = 0;
 1868              		.loc 1 97 64 view .LVU597
 1869 01da 1946     		mov	r1, r3
 1870 01dc 1E46     		mov	r6, r3
 1871 01de D2E7     		b	.L145
 1872              	.LVL167:
 1873              	.L220:
  55:Drivers/lvgl/src/core/lv_indev_scroll.c ****         if(scroll_obj == NULL) return;
 1874              		.loc 1 55 9 is_stmt 1 view .LVU598
 1875              	.LBB262:
 1876              	.LBI262:
 258:Drivers/lvgl/src/core/lv_indev_scroll.c **** {
 1877              		.loc 1 258 19 view .LVU599
 1878              	.LBB263:
 260:Drivers/lvgl/src/core/lv_indev_scroll.c ****     lv_dir_t dir_candidate = LV_DIR_NONE;
 1879              		.loc 1 260 5 view .LVU600
 261:Drivers/lvgl/src/core/lv_indev_scroll.c ****     lv_indev_t * indev_act = lv_indev_get_act();
 1880              		.loc 1 261 5 view .LVU601
 262:Drivers/lvgl/src/core/lv_indev_scroll.c ****     lv_coord_t scroll_limit = indev_act->driver->scroll_limit;
 1881              		.loc 1 262 5 view .LVU602
 262:Drivers/lvgl/src/core/lv_indev_scroll.c ****     lv_coord_t scroll_limit = indev_act->driver->scroll_limit;
 1882              		.loc 1 262 30 is_stmt 0 view .LVU603
 1883 01e0 FFF7FEFF 		bl	lv_indev_get_act
 1884              	.LVL168:
 263:Drivers/lvgl/src/core/lv_indev_scroll.c **** 
 1885              		.loc 1 263 5 is_stmt 1 view .LVU604
 278:Drivers/lvgl/src/core/lv_indev_scroll.c ****     proc->types.pointer.scroll_sum.y += proc->types.pointer.vect.y;
 1886              		.loc 1 278 38 is_stmt 0 view .LVU605
 1887 01e4 238B     		ldrh	r3, [r4, #24]
 263:Drivers/lvgl/src/core/lv_indev_scroll.c **** 
 1888              		.loc 1 263 48 view .LVU606
 1889 01e6 0268     		ldr	r2, [r0]
 278:Drivers/lvgl/src/core/lv_indev_scroll.c ****     proc->types.pointer.scroll_sum.y += proc->types.pointer.vect.y;
 1890              		.loc 1 278 38 view .LVU607
 1891 01e8 A18A     		ldrh	r1, [r4, #20]
 263:Drivers/lvgl/src/core/lv_indev_scroll.c **** 
 1892              		.loc 1 263 48 view .LVU608
 1893 01ea 127E     		ldrb	r2, [r2, #24]	@ zero_extendqisi2
 1894 01ec 0392     		str	r2, [sp, #12]
 1895              	.LVL169:
ARM GAS  /var/folders/0z/tsy30v1j4xl4_7kw94k978ww0000gn/T//cc3yoOHj.s 			page 60


 272:Drivers/lvgl/src/core/lv_indev_scroll.c **** 
 1896              		.loc 1 272 5 is_stmt 1 view .LVU609
 278:Drivers/lvgl/src/core/lv_indev_scroll.c ****     proc->types.pointer.scroll_sum.y += proc->types.pointer.vect.y;
 1897              		.loc 1 278 38 is_stmt 0 view .LVU610
 1898 01ee 0B44     		add	r3, r3, r1
 279:Drivers/lvgl/src/core/lv_indev_scroll.c **** 
 1899              		.loc 1 279 38 view .LVU611
 1900 01f0 E28A     		ldrh	r2, [r4, #22]
 278:Drivers/lvgl/src/core/lv_indev_scroll.c ****     proc->types.pointer.scroll_sum.y += proc->types.pointer.vect.y;
 1901              		.loc 1 278 38 view .LVU612
 1902 01f2 2383     		strh	r3, [r4, #24]	@ movhi
 279:Drivers/lvgl/src/core/lv_indev_scroll.c **** 
 1903              		.loc 1 279 38 view .LVU613
 1904 01f4 638B     		ldrh	r3, [r4, #26]
 272:Drivers/lvgl/src/core/lv_indev_scroll.c **** 
 1905              		.loc 1 272 16 view .LVU614
 1906 01f6 666A     		ldr	r6, [r4, #36]
 1907              	.LVL170:
 275:Drivers/lvgl/src/core/lv_indev_scroll.c ****     bool ver_en = false;
 1908              		.loc 1 275 5 is_stmt 1 view .LVU615
 276:Drivers/lvgl/src/core/lv_indev_scroll.c **** 
 1909              		.loc 1 276 5 view .LVU616
 278:Drivers/lvgl/src/core/lv_indev_scroll.c ****     proc->types.pointer.scroll_sum.y += proc->types.pointer.vect.y;
 1910              		.loc 1 278 5 view .LVU617
 279:Drivers/lvgl/src/core/lv_indev_scroll.c **** 
 1911              		.loc 1 279 5 view .LVU618
 279:Drivers/lvgl/src/core/lv_indev_scroll.c **** 
 1912              		.loc 1 279 38 is_stmt 0 view .LVU619
 1913 01f8 1344     		add	r3, r3, r2
 1914 01fa 6383     		strh	r3, [r4, #26]	@ movhi
 281:Drivers/lvgl/src/core/lv_indev_scroll.c ****         /*Get the transformed scroll_sum with this object*/
 1915              		.loc 1 281 5 is_stmt 1 view .LVU620
 281:Drivers/lvgl/src/core/lv_indev_scroll.c ****         /*Get the transformed scroll_sum with this object*/
 1916              		.loc 1 281 11 view .LVU621
 1917 01fc 002E     		cmp	r6, #0
 1918 01fe 96D0     		beq	.L80
 263:Drivers/lvgl/src/core/lv_indev_scroll.c **** 
 1919              		.loc 1 263 16 is_stmt 0 view .LVU622
 1920 0200 BDF90C30 		ldrsh	r3, [sp, #12]
 261:Drivers/lvgl/src/core/lv_indev_scroll.c ****     lv_indev_t * indev_act = lv_indev_get_act();
 1921              		.loc 1 261 14 view .LVU623
 1922 0204 CDE90453 		strd	r5, r3, [sp, #16]
 1923              	.LBB264:
 285:Drivers/lvgl/src/core/lv_indev_scroll.c ****         lv_obj_t * parent = obj_act;
 1924              		.loc 1 285 20 view .LVU624
 1925 0208 08EE105A 		vmov	s16, r5	@ int
 1926              	.LBE264:
 276:Drivers/lvgl/src/core/lv_indev_scroll.c **** 
 1927              		.loc 1 276 10 view .LVU625
 1928 020c AB46     		mov	fp, r5
 1929              	.LBB274:
 285:Drivers/lvgl/src/core/lv_indev_scroll.c ****         lv_obj_t * parent = obj_act;
 1930              		.loc 1 285 20 view .LVU626
 1931 020e AA46     		mov	r10, r5
 1932 0210 3746     		mov	r7, r6
 1933              	.LVL171:
 1934              	.L117:
ARM GAS  /var/folders/0z/tsy30v1j4xl4_7kw94k978ww0000gn/T//cc3yoOHj.s 			page 61


 283:Drivers/lvgl/src/core/lv_indev_scroll.c ****         int32_t zoom = 256;
 1935              		.loc 1 283 9 is_stmt 1 view .LVU627
 284:Drivers/lvgl/src/core/lv_indev_scroll.c ****         lv_point_t pivot = { 0, 0 };
 1936              		.loc 1 284 9 view .LVU628
 285:Drivers/lvgl/src/core/lv_indev_scroll.c ****         lv_obj_t * parent = obj_act;
 1937              		.loc 1 285 9 view .LVU629
 285:Drivers/lvgl/src/core/lv_indev_scroll.c ****         lv_obj_t * parent = obj_act;
 1938              		.loc 1 285 20 is_stmt 0 view .LVU630
 1939 0212 0023     		movs	r3, #0
 1940 0214 0A93     		str	r3, [sp, #40]
 286:Drivers/lvgl/src/core/lv_indev_scroll.c ****         while(parent) {
 1941              		.loc 1 286 9 is_stmt 1 view .LVU631
 1942              	.LVL172:
 287:Drivers/lvgl/src/core/lv_indev_scroll.c ****             angle += lv_obj_get_style_transform_angle(parent, 0);
 1943              		.loc 1 287 9 view .LVU632
 287:Drivers/lvgl/src/core/lv_indev_scroll.c ****             angle += lv_obj_get_style_transform_angle(parent, 0);
 1944              		.loc 1 287 15 view .LVU633
 285:Drivers/lvgl/src/core/lv_indev_scroll.c ****         lv_obj_t * parent = obj_act;
 1945              		.loc 1 285 20 is_stmt 0 view .LVU634
 1946 0216 3D46     		mov	r5, r7
 284:Drivers/lvgl/src/core/lv_indev_scroll.c ****         lv_point_t pivot = { 0, 0 };
 1947              		.loc 1 284 17 view .LVU635
 1948 0218 4FF48078 		mov	r8, #256
 283:Drivers/lvgl/src/core/lv_indev_scroll.c ****         int32_t zoom = 256;
 1949              		.loc 1 283 17 view .LVU636
 1950 021c 1E46     		mov	r6, r3
 1951              	.LVL173:
 1952              	.L85:
 1953              	.LBB265:
 288:Drivers/lvgl/src/core/lv_indev_scroll.c ****             int32_t zoom_act = lv_obj_get_style_transform_zoom(parent, 0);
 1954              		.loc 1 288 13 is_stmt 1 view .LVU637
 1955              	.LBB266:
 1956              	.LBI266:
  85:Drivers/lvgl/src/core/lv_obj_style_gen.h **** {
 1957              		.loc 2 85 26 view .LVU638
 1958              	.LBB267:
  87:Drivers/lvgl/src/core/lv_obj_style_gen.h ****     return (lv_coord_t)v.num;
 1959              		.loc 2 87 5 view .LVU639
  87:Drivers/lvgl/src/core/lv_obj_style_gen.h ****     return (lv_coord_t)v.num;
 1960              		.loc 2 87 26 is_stmt 0 view .LVU640
 1961 021e 6E22     		movs	r2, #110
 1962 0220 0021     		movs	r1, #0
 1963 0222 2846     		mov	r0, r5
 1964 0224 FFF7FEFF 		bl	lv_obj_get_style_prop
 1965              	.LVL174:
  88:Drivers/lvgl/src/core/lv_obj_style_gen.h **** }
 1966              		.loc 2 88 5 is_stmt 1 view .LVU641
  88:Drivers/lvgl/src/core/lv_obj_style_gen.h **** }
 1967              		.loc 2 88 5 is_stmt 0 view .LVU642
 1968              	.LBE267:
 1969              	.LBE266:
 1970              	.LBB268:
 1971              	.LBB269:
  81:Drivers/lvgl/src/core/lv_obj_style_gen.h ****     return (lv_coord_t)v.num;
 1972              		.loc 2 81 26 view .LVU643
 1973 0228 6D22     		movs	r2, #109
 1974              	.LBE269:
ARM GAS  /var/folders/0z/tsy30v1j4xl4_7kw94k978ww0000gn/T//cc3yoOHj.s 			page 62


 1975              	.LBE268:
 288:Drivers/lvgl/src/core/lv_indev_scroll.c ****             int32_t zoom_act = lv_obj_get_style_transform_zoom(parent, 0);
 1976              		.loc 1 288 19 view .LVU644
 1977 022a 8319     		adds	r3, r0, r6
 1978              	.LBB272:
 1979              	.LBB270:
  81:Drivers/lvgl/src/core/lv_obj_style_gen.h ****     return (lv_coord_t)v.num;
 1980              		.loc 2 81 26 view .LVU645
 1981 022c 0021     		movs	r1, #0
 1982 022e 2846     		mov	r0, r5
 1983              	.LBE270:
 1984              	.LBE272:
 288:Drivers/lvgl/src/core/lv_indev_scroll.c ****             int32_t zoom_act = lv_obj_get_style_transform_zoom(parent, 0);
 1985              		.loc 1 288 19 view .LVU646
 1986 0230 1FFA83F9 		uxth	r9, r3
 1987 0234 1EB2     		sxth	r6, r3
 1988              	.LVL175:
 289:Drivers/lvgl/src/core/lv_indev_scroll.c ****             zoom = (zoom * zoom_act) >> 8;
 1989              		.loc 1 289 13 is_stmt 1 view .LVU647
 1990              	.LBB273:
 1991              	.LBI268:
  79:Drivers/lvgl/src/core/lv_obj_style_gen.h **** {
 1992              		.loc 2 79 26 view .LVU648
 1993              	.LBB271:
  81:Drivers/lvgl/src/core/lv_obj_style_gen.h ****     return (lv_coord_t)v.num;
 1994              		.loc 2 81 5 view .LVU649
  81:Drivers/lvgl/src/core/lv_obj_style_gen.h ****     return (lv_coord_t)v.num;
 1995              		.loc 2 81 26 is_stmt 0 view .LVU650
 1996 0236 FFF7FEFF 		bl	lv_obj_get_style_prop
 1997              	.LVL176:
  82:Drivers/lvgl/src/core/lv_obj_style_gen.h **** }
 1998              		.loc 2 82 5 is_stmt 1 view .LVU651
  82:Drivers/lvgl/src/core/lv_obj_style_gen.h **** }
 1999              		.loc 2 82 12 is_stmt 0 view .LVU652
 2000 023a 00B2     		sxth	r0, r0
 2001              	.LVL177:
  82:Drivers/lvgl/src/core/lv_obj_style_gen.h **** }
 2002              		.loc 2 82 12 view .LVU653
 2003              	.LBE271:
 2004              	.LBE273:
 290:Drivers/lvgl/src/core/lv_indev_scroll.c ****             parent = lv_obj_get_parent(parent);
 2005              		.loc 1 290 13 is_stmt 1 view .LVU654
 290:Drivers/lvgl/src/core/lv_indev_scroll.c ****             parent = lv_obj_get_parent(parent);
 2006              		.loc 1 290 26 is_stmt 0 view .LVU655
 2007 023c 08FB00F8 		mul	r8, r8, r0
 2008              	.LVL178:
 291:Drivers/lvgl/src/core/lv_indev_scroll.c ****         }
 2009              		.loc 1 291 22 view .LVU656
 2010 0240 2846     		mov	r0, r5
 2011              	.LVL179:
 291:Drivers/lvgl/src/core/lv_indev_scroll.c ****         }
 2012              		.loc 1 291 22 view .LVU657
 2013 0242 FFF7FEFF 		bl	lv_obj_get_parent
 2014              	.LVL180:
 290:Drivers/lvgl/src/core/lv_indev_scroll.c ****             parent = lv_obj_get_parent(parent);
 2015              		.loc 1 290 18 view .LVU658
 2016 0246 4FEA2828 		asr	r8, r8, #8
ARM GAS  /var/folders/0z/tsy30v1j4xl4_7kw94k978ww0000gn/T//cc3yoOHj.s 			page 63


 2017              	.LVL181:
 291:Drivers/lvgl/src/core/lv_indev_scroll.c ****         }
 2018              		.loc 1 291 13 is_stmt 1 view .LVU659
 291:Drivers/lvgl/src/core/lv_indev_scroll.c ****         }
 2019              		.loc 1 291 13 is_stmt 0 view .LVU660
 2020              	.LBE265:
 287:Drivers/lvgl/src/core/lv_indev_scroll.c ****             angle += lv_obj_get_style_transform_angle(parent, 0);
 2021              		.loc 1 287 15 is_stmt 1 view .LVU661
 2022 024a 0546     		mov	r5, r0
 2023 024c 0028     		cmp	r0, #0
 2024 024e E6D1     		bne	.L85
 294:Drivers/lvgl/src/core/lv_indev_scroll.c ****         if(angle != 0 || zoom != LV_IMG_ZOOM_NONE) {
 2025              		.loc 1 294 9 view .LVU662
 294:Drivers/lvgl/src/core/lv_indev_scroll.c ****         if(angle != 0 || zoom != LV_IMG_ZOOM_NONE) {
 2026              		.loc 1 294 20 is_stmt 0 view .LVU663
 2027 0250 A369     		ldr	r3, [r4, #24]
 2028 0252 0B93     		str	r3, [sp, #44]
 295:Drivers/lvgl/src/core/lv_indev_scroll.c ****             angle = -angle;
 2029              		.loc 1 295 9 is_stmt 1 view .LVU664
 295:Drivers/lvgl/src/core/lv_indev_scroll.c ****             angle = -angle;
 2030              		.loc 1 295 11 is_stmt 0 view .LVU665
 2031 0254 16B9     		cbnz	r6, .L86
 295:Drivers/lvgl/src/core/lv_indev_scroll.c ****             angle = -angle;
 2032              		.loc 1 295 23 view .LVU666
 2033 0256 B8F5807F 		cmp	r8, #256
 2034 025a 0AD0     		beq	.L87
 2035              	.L86:
 296:Drivers/lvgl/src/core/lv_indev_scroll.c ****             zoom = (256 * 256) / zoom;
 2036              		.loc 1 296 13 is_stmt 1 view .LVU667
 2037              	.LVL182:
 297:Drivers/lvgl/src/core/lv_indev_scroll.c ****             lv_point_transform(&obj_scroll_sum, angle, zoom, &pivot);
 2038              		.loc 1 297 13 view .LVU668
 298:Drivers/lvgl/src/core/lv_indev_scroll.c ****         }
 2039              		.loc 1 298 13 view .LVU669
 296:Drivers/lvgl/src/core/lv_indev_scroll.c ****             zoom = (256 * 256) / zoom;
 2040              		.loc 1 296 19 is_stmt 0 view .LVU670
 2041 025c C9F10001 		rsb	r1, r9, #0
 297:Drivers/lvgl/src/core/lv_indev_scroll.c ****             lv_point_transform(&obj_scroll_sum, angle, zoom, &pivot);
 2042              		.loc 1 297 18 view .LVU671
 2043 0260 4FF48032 		mov	r2, #65536
 298:Drivers/lvgl/src/core/lv_indev_scroll.c ****         }
 2044              		.loc 1 298 13 view .LVU672
 2045 0264 09B2     		sxth	r1, r1
 2046 0266 0AAB     		add	r3, sp, #40
 2047 0268 0BA8     		add	r0, sp, #44
 2048              	.LVL183:
 298:Drivers/lvgl/src/core/lv_indev_scroll.c ****         }
 2049              		.loc 1 298 13 view .LVU673
 2050 026a 92FBF8F2 		sdiv	r2, r2, r8
 2051              	.LVL184:
 298:Drivers/lvgl/src/core/lv_indev_scroll.c ****         }
 2052              		.loc 1 298 13 view .LVU674
 2053 026e FFF7FEFF 		bl	lv_point_transform
 2054              	.LVL185:
 2055              	.L87:
 301:Drivers/lvgl/src/core/lv_indev_scroll.c ****             hor_en = true;
 2056              		.loc 1 301 9 is_stmt 1 view .LVU675
ARM GAS  /var/folders/0z/tsy30v1j4xl4_7kw94k978ww0000gn/T//cc3yoOHj.s 			page 64


 301:Drivers/lvgl/src/core/lv_indev_scroll.c ****             hor_en = true;
 2057              		.loc 1 301 12 is_stmt 0 view .LVU676
 2058 0272 BDF92C20 		ldrsh	r2, [sp, #44]
 301:Drivers/lvgl/src/core/lv_indev_scroll.c ****             hor_en = true;
 2059              		.loc 1 301 39 view .LVU677
 2060 0276 BDF92E30 		ldrsh	r3, [sp, #46]
 301:Drivers/lvgl/src/core/lv_indev_scroll.c ****             hor_en = true;
 2061              		.loc 1 301 12 view .LVU678
 2062 027a 002A     		cmp	r2, #0
 2063 027c B8BF     		it	lt
 2064 027e 5242     		rsblt	r2, r2, #0
 301:Drivers/lvgl/src/core/lv_indev_scroll.c ****             hor_en = true;
 2065              		.loc 1 301 39 view .LVU679
 2066 0280 002B     		cmp	r3, #0
 2067 0282 B8BF     		it	lt
 2068 0284 5B42     		rsblt	r3, r3, #0
 301:Drivers/lvgl/src/core/lv_indev_scroll.c ****             hor_en = true;
 2069              		.loc 1 301 11 view .LVU680
 2070 0286 92B2     		uxth	r2, r2
 2071 0288 9BB2     		uxth	r3, r3
 305:Drivers/lvgl/src/core/lv_indev_scroll.c ****         }
 2072              		.loc 1 305 20 view .LVU681
 2073 028a 9A42     		cmp	r2, r3
 308:Drivers/lvgl/src/core/lv_indev_scroll.c ****             /*If this object don't want to chain the scroll to the parent stop searching*/
 2074              		.loc 1 308 12 view .LVU682
 2075 028c 4FF01001 		mov	r1, #16
 2076 0290 3846     		mov	r0, r7
 305:Drivers/lvgl/src/core/lv_indev_scroll.c ****         }
 2077              		.loc 1 305 20 view .LVU683
 2078 0292 94BF     		ite	ls
 2079 0294 4FF0010B 		movls	fp, #1
 2080              	.LVL186:
 305:Drivers/lvgl/src/core/lv_indev_scroll.c ****         }
 2081              		.loc 1 305 20 view .LVU684
 2082 0298 4FF0010A 		movhi	r10, #1
 2083              	.LVL187:
 308:Drivers/lvgl/src/core/lv_indev_scroll.c ****             /*If this object don't want to chain the scroll to the parent stop searching*/
 2084              		.loc 1 308 9 is_stmt 1 view .LVU685
 308:Drivers/lvgl/src/core/lv_indev_scroll.c ****             /*If this object don't want to chain the scroll to the parent stop searching*/
 2085              		.loc 1 308 12 is_stmt 0 view .LVU686
 2086 029c FFF7FEFF 		bl	lv_obj_has_flag
 2087              	.LVL188:
 308:Drivers/lvgl/src/core/lv_indev_scroll.c ****             /*If this object don't want to chain the scroll to the parent stop searching*/
 2088              		.loc 1 308 11 view .LVU687
 2089 02a0 0028     		cmp	r0, #0
 2090 02a2 7ED1     		bne	.L89
 310:Drivers/lvgl/src/core/lv_indev_scroll.c ****             if(lv_obj_has_flag(obj_act, LV_OBJ_FLAG_SCROLL_CHAIN_VER) == false && ver_en) break;
 2091              		.loc 1 310 13 is_stmt 1 view .LVU688
 310:Drivers/lvgl/src/core/lv_indev_scroll.c ****             if(lv_obj_has_flag(obj_act, LV_OBJ_FLAG_SCROLL_CHAIN_VER) == false && ver_en) break;
 2092              		.loc 1 310 16 is_stmt 0 view .LVU689
 2093 02a4 4FF48071 		mov	r1, #256
 2094 02a8 3846     		mov	r0, r7
 2095 02aa FFF7FEFF 		bl	lv_obj_has_flag
 2096              	.LVL189:
 310:Drivers/lvgl/src/core/lv_indev_scroll.c ****             if(lv_obj_has_flag(obj_act, LV_OBJ_FLAG_SCROLL_CHAIN_VER) == false && ver_en) break;
 2097              		.loc 1 310 15 view .LVU690
 2098 02ae 10B9     		cbnz	r0, .L90
ARM GAS  /var/folders/0z/tsy30v1j4xl4_7kw94k978ww0000gn/T//cc3yoOHj.s 			page 65


 310:Drivers/lvgl/src/core/lv_indev_scroll.c ****             if(lv_obj_has_flag(obj_act, LV_OBJ_FLAG_SCROLL_CHAIN_VER) == false && ver_en) break;
 2099              		.loc 1 310 80 view .LVU691
 2100 02b0 BAF1000F 		cmp	r10, #0
 2101 02b4 0BD1     		bne	.L212
 2102              	.L90:
 311:Drivers/lvgl/src/core/lv_indev_scroll.c **** 
 2103              		.loc 1 311 13 is_stmt 1 view .LVU692
 311:Drivers/lvgl/src/core/lv_indev_scroll.c **** 
 2104              		.loc 1 311 16 is_stmt 0 view .LVU693
 2105 02b6 4FF40071 		mov	r1, #512
 2106 02ba 3846     		mov	r0, r7
 2107 02bc FFF7FEFF 		bl	lv_obj_has_flag
 2108              	.LVL190:
 311:Drivers/lvgl/src/core/lv_indev_scroll.c **** 
 2109              		.loc 1 311 15 view .LVU694
 2110 02c0 0028     		cmp	r0, #0
 2111 02c2 40F0F980 		bne	.L115
 311:Drivers/lvgl/src/core/lv_indev_scroll.c **** 
 2112              		.loc 1 311 80 view .LVU695
 2113 02c6 BBF1000F 		cmp	fp, #0
 2114 02ca 00F0F580 		beq	.L115
 2115              	.LVL191:
 2116              	.L212:
 311:Drivers/lvgl/src/core/lv_indev_scroll.c **** 
 2117              		.loc 1 311 80 view .LVU696
 2118 02ce 18EE105A 		vmov	r5, s16	@ int
 2119              	.LVL192:
 2120              	.L116:
 311:Drivers/lvgl/src/core/lv_indev_scroll.c **** 
 2121              		.loc 1 311 80 view .LVU697
 2122              	.LBE274:
 377:Drivers/lvgl/src/core/lv_indev_scroll.c ****         proc->types.pointer.scroll_dir = dir_candidate;
 2123              		.loc 1 377 5 is_stmt 1 view .LVU698
 377:Drivers/lvgl/src/core/lv_indev_scroll.c ****         proc->types.pointer.scroll_dir = dir_candidate;
 2124              		.loc 1 377 7 is_stmt 0 view .LVU699
 2125 02d2 002D     		cmp	r5, #0
 2126 02d4 3FF42BAF 		beq	.L80
 378:Drivers/lvgl/src/core/lv_indev_scroll.c ****         proc->types.pointer.scroll_obj = obj_candidate;
 2127              		.loc 1 378 9 is_stmt 1 view .LVU700
 378:Drivers/lvgl/src/core/lv_indev_scroll.c ****         proc->types.pointer.scroll_obj = obj_candidate;
 2128              		.loc 1 378 40 is_stmt 0 view .LVU701
 2129 02d8 94F84030 		ldrb	r3, [r4, #64]	@ zero_extendqisi2
 2130 02dc 049A     		ldr	r2, [sp, #16]
 379:Drivers/lvgl/src/core/lv_indev_scroll.c ****         proc->types.pointer.scroll_sum.x = 0;
 2131              		.loc 1 379 40 view .LVU702
 2132 02de E562     		str	r5, [r4, #44]
 380:Drivers/lvgl/src/core/lv_indev_scroll.c ****         proc->types.pointer.scroll_sum.y = 0;
 2133              		.loc 1 380 42 view .LVU703
 2134 02e0 0026     		movs	r6, #0
 378:Drivers/lvgl/src/core/lv_indev_scroll.c ****         proc->types.pointer.scroll_obj = obj_candidate;
 2135              		.loc 1 378 40 view .LVU704
 2136 02e2 62F30303 		bfi	r3, r2, #0, #4
 2137 02e6 84F84030 		strb	r3, [r4, #64]
 379:Drivers/lvgl/src/core/lv_indev_scroll.c ****         proc->types.pointer.scroll_sum.x = 0;
 2138              		.loc 1 379 9 is_stmt 1 view .LVU705
 380:Drivers/lvgl/src/core/lv_indev_scroll.c ****         proc->types.pointer.scroll_sum.y = 0;
 2139              		.loc 1 380 9 view .LVU706
ARM GAS  /var/folders/0z/tsy30v1j4xl4_7kw94k978ww0000gn/T//cc3yoOHj.s 			page 66


 381:Drivers/lvgl/src/core/lv_indev_scroll.c ****     }
 2140              		.loc 1 381 9 view .LVU707
 380:Drivers/lvgl/src/core/lv_indev_scroll.c ****         proc->types.pointer.scroll_sum.y = 0;
 2141              		.loc 1 380 42 is_stmt 0 view .LVU708
 2142 02ea A661     		str	r6, [r4, #24]
 384:Drivers/lvgl/src/core/lv_indev_scroll.c **** }
 2143              		.loc 1 384 5 is_stmt 1 view .LVU709
 2144              	.LVL193:
 384:Drivers/lvgl/src/core/lv_indev_scroll.c **** }
 2145              		.loc 1 384 5 is_stmt 0 view .LVU710
 2146              	.LBE263:
 2147              	.LBE262:
  56:Drivers/lvgl/src/core/lv_indev_scroll.c **** 
 2148              		.loc 1 56 9 is_stmt 1 view .LVU711
  58:Drivers/lvgl/src/core/lv_indev_scroll.c **** 
 2149              		.loc 1 58 9 view .LVU712
 2150              	.LBB281:
 2151              	.LBI281:
 387:Drivers/lvgl/src/core/lv_indev_scroll.c **** {
 2152              		.loc 1 387 13 view .LVU713
 2153              	.LBB282:
 389:Drivers/lvgl/src/core/lv_indev_scroll.c ****     /*If there no STOP allow scrolling anywhere*/
 2154              		.loc 1 389 5 view .LVU714
 391:Drivers/lvgl/src/core/lv_indev_scroll.c ****         lv_area_set(&proc->types.pointer.scroll_area, LV_COORD_MIN, LV_COORD_MIN, LV_COORD_MAX, LV_
 2155              		.loc 1 391 5 view .LVU715
 391:Drivers/lvgl/src/core/lv_indev_scroll.c ****         lv_area_set(&proc->types.pointer.scroll_area, LV_COORD_MIN, LV_COORD_MIN, LV_COORD_MAX, LV_
 2156              		.loc 1 391 8 is_stmt 0 view .LVU716
 2157 02ec 8021     		movs	r1, #128
 2158 02ee 2846     		mov	r0, r5
 2159 02f0 FFF7FEFF 		bl	lv_obj_has_flag
 2160              	.LVL194:
 391:Drivers/lvgl/src/core/lv_indev_scroll.c ****         lv_area_set(&proc->types.pointer.scroll_area, LV_COORD_MIN, LV_COORD_MIN, LV_COORD_MAX, LV_
 2161              		.loc 1 391 7 view .LVU717
 2162 02f4 80BB     		cbnz	r0, .L118
 392:Drivers/lvgl/src/core/lv_indev_scroll.c ****     }
 2163              		.loc 1 392 9 is_stmt 1 view .LVU718
 2164 02f6 B54A     		ldr	r2, .L233
 2165 02f8 41F6FF73 		movw	r3, #8191
 2166 02fc 0093     		str	r3, [sp]
 2167 02fe 1146     		mov	r1, r2
 2168 0300 04F13400 		add	r0, r4, #52
 2169 0304 FFF7FEFF 		bl	lv_area_set
 2170              	.LVL195:
 2171              	.L119:
 440:Drivers/lvgl/src/core/lv_indev_scroll.c ****     if(proc->types.pointer.scroll_area.x2 == 0) proc->types.pointer.scroll_area.x2 = LV_COORD_MAX;
 2172              		.loc 1 440 5 view .LVU719
 440:Drivers/lvgl/src/core/lv_indev_scroll.c ****     if(proc->types.pointer.scroll_area.x2 == 0) proc->types.pointer.scroll_area.x2 = LV_COORD_MAX;
 2173              		.loc 1 440 7 is_stmt 0 view .LVU720
 2174 0308 B4F93430 		ldrsh	r3, [r4, #52]
 2175 030c 002B     		cmp	r3, #0
 2176 030e 40F0DB80 		bne	.L227
 440:Drivers/lvgl/src/core/lv_indev_scroll.c ****     if(proc->types.pointer.scroll_area.x2 == 0) proc->types.pointer.scroll_area.x2 = LV_COORD_MAX;
 2177              		.loc 1 440 49 is_stmt 1 view .LVU721
 440:Drivers/lvgl/src/core/lv_indev_scroll.c ****     if(proc->types.pointer.scroll_area.x2 == 0) proc->types.pointer.scroll_area.x2 = LV_COORD_MAX;
 2178              		.loc 1 440 84 is_stmt 0 view .LVU722
 2179 0312 4EF20102 		movw	r2, #57345
 441:Drivers/lvgl/src/core/lv_indev_scroll.c ****     if(proc->types.pointer.scroll_area.y1 == 0) proc->types.pointer.scroll_area.y1 = LV_COORD_MIN;
ARM GAS  /var/folders/0z/tsy30v1j4xl4_7kw94k978ww0000gn/T//cc3yoOHj.s 			page 67


 2180              		.loc 1 441 39 view .LVU723
 2181 0316 B4F93830 		ldrsh	r3, [r4, #56]
 440:Drivers/lvgl/src/core/lv_indev_scroll.c ****     if(proc->types.pointer.scroll_area.x2 == 0) proc->types.pointer.scroll_area.x2 = LV_COORD_MAX;
 2182              		.loc 1 440 84 view .LVU724
 2183 031a A286     		strh	r2, [r4, #52]	@ movhi
 2184              	.L129:
 441:Drivers/lvgl/src/core/lv_indev_scroll.c ****     if(proc->types.pointer.scroll_area.y1 == 0) proc->types.pointer.scroll_area.y1 = LV_COORD_MIN;
 2185              		.loc 1 441 5 is_stmt 1 view .LVU725
 441:Drivers/lvgl/src/core/lv_indev_scroll.c ****     if(proc->types.pointer.scroll_area.y1 == 0) proc->types.pointer.scroll_area.y1 = LV_COORD_MIN;
 2186              		.loc 1 441 7 is_stmt 0 view .LVU726
 2187 031c 13B9     		cbnz	r3, .L127
 441:Drivers/lvgl/src/core/lv_indev_scroll.c ****     if(proc->types.pointer.scroll_area.y1 == 0) proc->types.pointer.scroll_area.y1 = LV_COORD_MIN;
 2188              		.loc 1 441 49 is_stmt 1 view .LVU727
 441:Drivers/lvgl/src/core/lv_indev_scroll.c ****     if(proc->types.pointer.scroll_area.y1 == 0) proc->types.pointer.scroll_area.y1 = LV_COORD_MIN;
 2189              		.loc 1 441 84 is_stmt 0 view .LVU728
 2190 031e 41F6FF73 		movw	r3, #8191
 2191 0322 2387     		strh	r3, [r4, #56]	@ movhi
 2192              	.L127:
 442:Drivers/lvgl/src/core/lv_indev_scroll.c ****     if(proc->types.pointer.scroll_area.y2 == 0) proc->types.pointer.scroll_area.y2 = LV_COORD_MAX;
 2193              		.loc 1 442 5 is_stmt 1 view .LVU729
 442:Drivers/lvgl/src/core/lv_indev_scroll.c ****     if(proc->types.pointer.scroll_area.y2 == 0) proc->types.pointer.scroll_area.y2 = LV_COORD_MAX;
 2194              		.loc 1 442 7 is_stmt 0 view .LVU730
 2195 0324 B4F93630 		ldrsh	r3, [r4, #54]
 2196 0328 13B9     		cbnz	r3, .L130
 442:Drivers/lvgl/src/core/lv_indev_scroll.c ****     if(proc->types.pointer.scroll_area.y2 == 0) proc->types.pointer.scroll_area.y2 = LV_COORD_MAX;
 2197              		.loc 1 442 49 is_stmt 1 view .LVU731
 442:Drivers/lvgl/src/core/lv_indev_scroll.c ****     if(proc->types.pointer.scroll_area.y2 == 0) proc->types.pointer.scroll_area.y2 = LV_COORD_MAX;
 2198              		.loc 1 442 84 is_stmt 0 view .LVU732
 2199 032a 4EF20103 		movw	r3, #57345
 2200 032e E386     		strh	r3, [r4, #54]	@ movhi
 2201              	.L130:
 443:Drivers/lvgl/src/core/lv_indev_scroll.c **** }
 2202              		.loc 1 443 5 is_stmt 1 view .LVU733
 443:Drivers/lvgl/src/core/lv_indev_scroll.c **** }
 2203              		.loc 1 443 7 is_stmt 0 view .LVU734
 2204 0330 B4F93A30 		ldrsh	r3, [r4, #58]
 2205 0334 13B9     		cbnz	r3, .L131
 443:Drivers/lvgl/src/core/lv_indev_scroll.c **** }
 2206              		.loc 1 443 49 is_stmt 1 view .LVU735
 443:Drivers/lvgl/src/core/lv_indev_scroll.c **** }
 2207              		.loc 1 443 84 is_stmt 0 view .LVU736
 2208 0336 41F6FF73 		movw	r3, #8191
 2209 033a 6387     		strh	r3, [r4, #58]	@ movhi
 2210              	.L131:
 2211              	.LVL196:
 443:Drivers/lvgl/src/core/lv_indev_scroll.c **** }
 2212              		.loc 1 443 84 view .LVU737
 2213              	.LBE282:
 2214              	.LBE281:
  60:Drivers/lvgl/src/core/lv_indev_scroll.c ****         if(proc->reset_query) return;
 2215              		.loc 1 60 9 is_stmt 1 view .LVU738
 2216 033c 0921     		movs	r1, #9
 2217 033e 0022     		movs	r2, #0
 2218 0340 2846     		mov	r0, r5
 2219 0342 FFF7FEFF 		bl	lv_event_send
 2220              	.LVL197:
  61:Drivers/lvgl/src/core/lv_indev_scroll.c ****     }
ARM GAS  /var/folders/0z/tsy30v1j4xl4_7kw94k978ww0000gn/T//cc3yoOHj.s 			page 68


 2221              		.loc 1 61 9 view .LVU739
  61:Drivers/lvgl/src/core/lv_indev_scroll.c ****     }
 2222              		.loc 1 61 12 is_stmt 0 view .LVU740
 2223 0346 6378     		ldrb	r3, [r4, #1]	@ zero_extendqisi2
  61:Drivers/lvgl/src/core/lv_indev_scroll.c ****     }
 2224              		.loc 1 61 11 view .LVU741
 2225 0348 9907     		lsls	r1, r3, #30
 2226 034a 3FF5F0AE 		bmi	.L80
 2227 034e 65E6     		b	.L83
 2228              	.LVL198:
 2229              	.L143:
 2230              	.LBB296:
 2231              	.LBB248:
 2232              	.LBB242:
 684:Drivers/lvgl/src/core/lv_indev_scroll.c ****     }
 2233              		.loc 1 684 37 is_stmt 1 view .LVU742
 684:Drivers/lvgl/src/core/lv_indev_scroll.c ****     }
 2234              		.loc 1 684 37 is_stmt 0 view .LVU743
 2235              	.LBE242:
 2236              	.LBE248:
 2237              	.LBE296:
  96:Drivers/lvgl/src/core/lv_indev_scroll.c ****     if((scroll_dir & LV_DIR_LEFT)   == 0 && diff_x > 0) diff_x = 0;
 2238              		.loc 1 96 5 is_stmt 1 view .LVU744
  96:Drivers/lvgl/src/core/lv_indev_scroll.c ****     if((scroll_dir & LV_DIR_LEFT)   == 0 && diff_x > 0) diff_x = 0;
 2239              		.loc 1 96 27 is_stmt 0 view .LVU745
 2240 0350 FFF7FEFF 		bl	lv_obj_get_scroll_dir
 2241              	.LVL199:
  97:Drivers/lvgl/src/core/lv_indev_scroll.c ****     if((scroll_dir & LV_DIR_RIGHT)  == 0 && diff_x < 0) diff_x = 0;
 2242              		.loc 1 97 5 is_stmt 1 view .LVU746
 2243              	.LBB297:
 2244              	.LBB249:
 2245              	.LBB243:
 684:Drivers/lvgl/src/core/lv_indev_scroll.c ****     }
 2246              		.loc 1 684 42 is_stmt 0 view .LVU747
 2247 0354 4646     		mov	r6, r8
 2248 0356 B4E6     		b	.L141
 2249              	.LVL200:
 2250              	.L118:
 684:Drivers/lvgl/src/core/lv_indev_scroll.c ****     }
 2251              		.loc 1 684 42 view .LVU748
 2252              	.LBE243:
 2253              	.LBE249:
 2254              	.LBE297:
 2255              	.LBB298:
 2256              	.LBB293:
 396:Drivers/lvgl/src/core/lv_indev_scroll.c ****             case LV_SCROLL_SNAP_START:
 2257              		.loc 1 396 9 is_stmt 1 view .LVU749
 396:Drivers/lvgl/src/core/lv_indev_scroll.c ****             case LV_SCROLL_SNAP_START:
 2258              		.loc 1 396 16 is_stmt 0 view .LVU750
 2259 0358 2846     		mov	r0, r5
 2260 035a FFF7FEFF 		bl	lv_obj_get_scroll_snap_y
 2261              	.LVL201:
 396:Drivers/lvgl/src/core/lv_indev_scroll.c ****             case LV_SCROLL_SNAP_START:
 2262              		.loc 1 396 9 view .LVU751
 2263 035e 0228     		cmp	r0, #2
 2264 0360 00F05281 		beq	.L120
 2265 0364 0328     		cmp	r0, #3
ARM GAS  /var/folders/0z/tsy30v1j4xl4_7kw94k978ww0000gn/T//cc3yoOHj.s 			page 69


 2266 0366 00F03381 		beq	.L121
 2267 036a 0128     		cmp	r0, #1
 2268 036c 00F01A81 		beq	.L228
 412:Drivers/lvgl/src/core/lv_indev_scroll.c ****                 proc->types.pointer.scroll_area.y2 = LV_COORD_MAX;
 2269              		.loc 1 412 17 is_stmt 1 view .LVU752
 412:Drivers/lvgl/src/core/lv_indev_scroll.c ****                 proc->types.pointer.scroll_area.y2 = LV_COORD_MAX;
 2270              		.loc 1 412 52 is_stmt 0 view .LVU753
 2271 0370 4EF20103 		movw	r3, #57345
 2272 0374 E386     		strh	r3, [r4, #54]	@ movhi
 413:Drivers/lvgl/src/core/lv_indev_scroll.c ****                 break;
 2273              		.loc 1 413 17 is_stmt 1 view .LVU754
 414:Drivers/lvgl/src/core/lv_indev_scroll.c ****         }
 2274              		.loc 1 414 17 view .LVU755
 2275 0376 41F6FF70 		movw	r0, #8191
 2276              	.L123:
 399:Drivers/lvgl/src/core/lv_indev_scroll.c ****                 break;
 2277              		.loc 1 399 52 is_stmt 0 view .LVU756
 2278 037a 6087     		strh	r0, [r4, #58]	@ movhi
 417:Drivers/lvgl/src/core/lv_indev_scroll.c ****             case LV_SCROLL_SNAP_START:
 2279              		.loc 1 417 9 is_stmt 1 view .LVU757
 417:Drivers/lvgl/src/core/lv_indev_scroll.c ****             case LV_SCROLL_SNAP_START:
 2280              		.loc 1 417 16 is_stmt 0 view .LVU758
 2281 037c 2846     		mov	r0, r5
 2282 037e FFF7FEFF 		bl	lv_obj_get_scroll_snap_x
 2283              	.LVL202:
 417:Drivers/lvgl/src/core/lv_indev_scroll.c ****             case LV_SCROLL_SNAP_START:
 2284              		.loc 1 417 9 view .LVU759
 2285 0382 0228     		cmp	r0, #2
 2286 0384 00F00381 		beq	.L124
 2287 0388 0328     		cmp	r0, #3
 2288 038a 00F0E380 		beq	.L125
 2289 038e 0128     		cmp	r0, #1
 2290 0390 00F0CE80 		beq	.L229
 433:Drivers/lvgl/src/core/lv_indev_scroll.c ****                 proc->types.pointer.scroll_area.x2 = LV_COORD_MAX;
 2291              		.loc 1 433 17 is_stmt 1 view .LVU760
 433:Drivers/lvgl/src/core/lv_indev_scroll.c ****                 proc->types.pointer.scroll_area.x2 = LV_COORD_MAX;
 2292              		.loc 1 433 52 is_stmt 0 view .LVU761
 2293 0394 4EF20102 		movw	r2, #57345
 434:Drivers/lvgl/src/core/lv_indev_scroll.c ****                 break;
 2294              		.loc 1 434 52 view .LVU762
 2295 0398 41F6FF73 		movw	r3, #8191
 433:Drivers/lvgl/src/core/lv_indev_scroll.c ****                 proc->types.pointer.scroll_area.x2 = LV_COORD_MAX;
 2296              		.loc 1 433 52 view .LVU763
 2297 039c A286     		strh	r2, [r4, #52]	@ movhi
 434:Drivers/lvgl/src/core/lv_indev_scroll.c ****                 break;
 2298              		.loc 1 434 17 is_stmt 1 view .LVU764
 434:Drivers/lvgl/src/core/lv_indev_scroll.c ****                 break;
 2299              		.loc 1 434 52 is_stmt 0 view .LVU765
 2300 039e 2387     		strh	r3, [r4, #56]	@ movhi
 435:Drivers/lvgl/src/core/lv_indev_scroll.c ****         }
 2301              		.loc 1 435 17 is_stmt 1 view .LVU766
 440:Drivers/lvgl/src/core/lv_indev_scroll.c ****     if(proc->types.pointer.scroll_area.x2 == 0) proc->types.pointer.scroll_area.x2 = LV_COORD_MAX;
 2302              		.loc 1 440 5 view .LVU767
 441:Drivers/lvgl/src/core/lv_indev_scroll.c ****     if(proc->types.pointer.scroll_area.y1 == 0) proc->types.pointer.scroll_area.y1 = LV_COORD_MIN;
 2303              		.loc 1 441 5 view .LVU768
 2304 03a0 C0E7     		b	.L127
 2305              	.LVL203:
ARM GAS  /var/folders/0z/tsy30v1j4xl4_7kw94k978ww0000gn/T//cc3yoOHj.s 			page 70


 2306              	.L89:
 441:Drivers/lvgl/src/core/lv_indev_scroll.c ****     if(proc->types.pointer.scroll_area.y1 == 0) proc->types.pointer.scroll_area.y1 = LV_COORD_MIN;
 2307              		.loc 1 441 5 is_stmt 0 view .LVU769
 2308              	.LBE293:
 2309              	.LBE298:
 2310              	.LBB299:
 2311              	.LBB278:
 2312              	.LBB275:
 318:Drivers/lvgl/src/core/lv_indev_scroll.c ****         bool down_en = ver_en;
 2313              		.loc 1 318 9 is_stmt 1 view .LVU770
 319:Drivers/lvgl/src/core/lv_indev_scroll.c ****         bool left_en = hor_en;
 2314              		.loc 1 319 9 view .LVU771
 320:Drivers/lvgl/src/core/lv_indev_scroll.c ****         bool right_en = hor_en;
 2315              		.loc 1 320 9 view .LVU772
 321:Drivers/lvgl/src/core/lv_indev_scroll.c **** 
 2316              		.loc 1 321 9 view .LVU773
 324:Drivers/lvgl/src/core/lv_indev_scroll.c ****         if((scroll_dir & LV_DIR_LEFT) == 0) left_en = false;
 2317              		.loc 1 324 9 view .LVU774
 324:Drivers/lvgl/src/core/lv_indev_scroll.c ****         if((scroll_dir & LV_DIR_LEFT) == 0) left_en = false;
 2318              		.loc 1 324 31 is_stmt 0 view .LVU775
 2319 03a2 3846     		mov	r0, r7
 2320 03a4 FFF7FEFF 		bl	lv_obj_get_scroll_dir
 2321              	.LVL204:
 325:Drivers/lvgl/src/core/lv_indev_scroll.c ****         if((scroll_dir & LV_DIR_RIGHT) == 0) right_en = false;
 2322              		.loc 1 325 9 is_stmt 1 view .LVU776
 325:Drivers/lvgl/src/core/lv_indev_scroll.c ****         if((scroll_dir & LV_DIR_RIGHT) == 0) right_en = false;
 2323              		.loc 1 325 53 is_stmt 0 view .LVU777
 2324 03a8 10F0010F 		tst	r0, #1
 2325 03ac 14BF     		ite	ne
 2326 03ae 5246     		movne	r2, r10
 2327 03b0 0022     		moveq	r2, #0
 326:Drivers/lvgl/src/core/lv_indev_scroll.c ****         if((scroll_dir & LV_DIR_TOP) == 0) up_en = false;
 2328              		.loc 1 326 55 view .LVU778
 2329 03b2 10F0020F 		tst	r0, #2
 2330 03b6 14BF     		ite	ne
 2331 03b8 5346     		movne	r3, r10
 2332 03ba 0023     		moveq	r3, #0
 327:Drivers/lvgl/src/core/lv_indev_scroll.c ****         if((scroll_dir & LV_DIR_BOTTOM) == 0) down_en = false;
 2333              		.loc 1 327 50 view .LVU779
 2334 03bc 10F0040F 		tst	r0, #4
 2335 03c0 14BF     		ite	ne
 2336 03c2 D946     		movne	r9, fp
 2337 03c4 4FF00009 		moveq	r9, #0
 328:Drivers/lvgl/src/core/lv_indev_scroll.c **** 
 2338              		.loc 1 328 55 view .LVU780
 2339 03c8 10F0080F 		tst	r0, #8
 331:Drivers/lvgl/src/core/lv_indev_scroll.c ****         lv_coord_t sb = lv_obj_get_scroll_bottom(obj_act);
 2340              		.loc 1 331 25 view .LVU781
 2341 03cc 3846     		mov	r0, r7
 2342              	.LVL205:
 325:Drivers/lvgl/src/core/lv_indev_scroll.c ****         if((scroll_dir & LV_DIR_RIGHT) == 0) right_en = false;
 2343              		.loc 1 325 53 view .LVU782
 2344 03ce 0992     		str	r2, [sp, #36]
 2345              	.LVL206:
 326:Drivers/lvgl/src/core/lv_indev_scroll.c ****         if((scroll_dir & LV_DIR_TOP) == 0) up_en = false;
 2346              		.loc 1 326 9 is_stmt 1 view .LVU783
 326:Drivers/lvgl/src/core/lv_indev_scroll.c ****         if((scroll_dir & LV_DIR_TOP) == 0) up_en = false;
ARM GAS  /var/folders/0z/tsy30v1j4xl4_7kw94k978ww0000gn/T//cc3yoOHj.s 			page 71


 2347              		.loc 1 326 55 is_stmt 0 view .LVU784
 2348 03d0 0793     		str	r3, [sp, #28]
 2349              	.LVL207:
 327:Drivers/lvgl/src/core/lv_indev_scroll.c ****         if((scroll_dir & LV_DIR_BOTTOM) == 0) down_en = false;
 2350              		.loc 1 327 9 is_stmt 1 view .LVU785
 328:Drivers/lvgl/src/core/lv_indev_scroll.c **** 
 2351              		.loc 1 328 9 view .LVU786
 328:Drivers/lvgl/src/core/lv_indev_scroll.c **** 
 2352              		.loc 1 328 55 is_stmt 0 view .LVU787
 2353 03d2 14BF     		ite	ne
 2354 03d4 5D46     		movne	r5, fp
 2355              	.LVL208:
 328:Drivers/lvgl/src/core/lv_indev_scroll.c **** 
 2356              		.loc 1 328 55 view .LVU788
 2357 03d6 0025     		moveq	r5, #0
 2358              	.LVL209:
 331:Drivers/lvgl/src/core/lv_indev_scroll.c ****         lv_coord_t sb = lv_obj_get_scroll_bottom(obj_act);
 2359              		.loc 1 331 9 is_stmt 1 view .LVU789
 331:Drivers/lvgl/src/core/lv_indev_scroll.c ****         lv_coord_t sb = lv_obj_get_scroll_bottom(obj_act);
 2360              		.loc 1 331 25 is_stmt 0 view .LVU790
 2361 03d8 FFF7FEFF 		bl	lv_obj_get_scroll_top
 2362              	.LVL210:
 2363 03dc 8046     		mov	r8, r0
 2364              	.LVL211:
 332:Drivers/lvgl/src/core/lv_indev_scroll.c ****         lv_coord_t sl = lv_obj_get_scroll_left(obj_act);
 2365              		.loc 1 332 9 is_stmt 1 view .LVU791
 332:Drivers/lvgl/src/core/lv_indev_scroll.c ****         lv_coord_t sl = lv_obj_get_scroll_left(obj_act);
 2366              		.loc 1 332 25 is_stmt 0 view .LVU792
 2367 03de 3846     		mov	r0, r7
 2368 03e0 FFF7FEFF 		bl	lv_obj_get_scroll_bottom
 2369              	.LVL212:
 2370 03e4 0890     		str	r0, [sp, #32]
 2371              	.LVL213:
 333:Drivers/lvgl/src/core/lv_indev_scroll.c ****         lv_coord_t sr = lv_obj_get_scroll_right(obj_act);
 2372              		.loc 1 333 9 is_stmt 1 view .LVU793
 333:Drivers/lvgl/src/core/lv_indev_scroll.c ****         lv_coord_t sr = lv_obj_get_scroll_right(obj_act);
 2373              		.loc 1 333 25 is_stmt 0 view .LVU794
 2374 03e6 3846     		mov	r0, r7
 2375 03e8 FFF7FEFF 		bl	lv_obj_get_scroll_left
 2376              	.LVL214:
 2377 03ec 0646     		mov	r6, r0
 2378              	.LVL215:
 334:Drivers/lvgl/src/core/lv_indev_scroll.c **** 
 2379              		.loc 1 334 9 is_stmt 1 view .LVU795
 334:Drivers/lvgl/src/core/lv_indev_scroll.c **** 
 2380              		.loc 1 334 25 is_stmt 0 view .LVU796
 2381 03ee 3846     		mov	r0, r7
 2382 03f0 FFF7FEFF 		bl	lv_obj_get_scroll_right
 2383              	.LVL216:
 340:Drivers/lvgl/src/core/lv_indev_scroll.c ****            ((up_en    && obj_scroll_sum.y >=   scroll_limit) ||
 2384              		.loc 1 340 11 view .LVU797
 2385 03f4 B8F1000F 		cmp	r8, #0
 2386 03f8 DDE90832 		ldrd	r3, r2, [sp, #32]
 334:Drivers/lvgl/src/core/lv_indev_scroll.c **** 
 2387              		.loc 1 334 25 view .LVU798
 2388 03fc 0690     		str	r0, [sp, #24]
 2389              	.LVL217:
ARM GAS  /var/folders/0z/tsy30v1j4xl4_7kw94k978ww0000gn/T//cc3yoOHj.s 			page 72


 340:Drivers/lvgl/src/core/lv_indev_scroll.c ****            ((up_en    && obj_scroll_sum.y >=   scroll_limit) ||
 2390              		.loc 1 340 9 is_stmt 1 view .LVU799
 340:Drivers/lvgl/src/core/lv_indev_scroll.c ****            ((up_en    && obj_scroll_sum.y >=   scroll_limit) ||
 2391              		.loc 1 340 11 is_stmt 0 view .LVU800
 2392 03fe 6ADD     		ble	.L230
 2393              	.L98:
 340:Drivers/lvgl/src/core/lv_indev_scroll.c ****            ((up_en    && obj_scroll_sum.y >=   scroll_limit) ||
 2394              		.loc 1 340 32 view .LVU801
 2395 0400 B9F1000F 		cmp	r9, #0
 2396 0404 7ED0     		beq	.L100
 341:Drivers/lvgl/src/core/lv_indev_scroll.c ****             (down_en  && obj_scroll_sum.y <= - scroll_limit))) {
 2397              		.loc 1 341 23 view .LVU802
 2398 0406 BDF92E10 		ldrsh	r1, [sp, #46]
 2399 040a 0598     		ldr	r0, [sp, #20]
 2400 040c 8142     		cmp	r1, r0
 2401 040e 79DB     		blt	.L100
 344:Drivers/lvgl/src/core/lv_indev_scroll.c ****         }
 2402              		.loc 1 344 27 view .LVU803
 2403 0410 0C21     		movs	r1, #12
 2404 0412 08EE107A 		vmov	s16, r7	@ int
 2405              	.LVL218:
 344:Drivers/lvgl/src/core/lv_indev_scroll.c ****         }
 2406              		.loc 1 344 27 view .LVU804
 2407 0416 0491     		str	r1, [sp, #16]
 2408              	.LVL219:
 2409              	.L99:
 347:Drivers/lvgl/src/core/lv_indev_scroll.c ****            ((left_en   && obj_scroll_sum.x >=   scroll_limit) ||
 2410              		.loc 1 347 9 is_stmt 1 view .LVU805
 347:Drivers/lvgl/src/core/lv_indev_scroll.c ****            ((left_en   && obj_scroll_sum.x >=   scroll_limit) ||
 2411              		.loc 1 347 11 is_stmt 0 view .LVU806
 2412 0418 002E     		cmp	r6, #0
 2413 041a 58DD     		ble	.L231
 2414              	.L101:
 347:Drivers/lvgl/src/core/lv_indev_scroll.c ****            ((left_en   && obj_scroll_sum.x >=   scroll_limit) ||
 2415              		.loc 1 347 32 view .LVU807
 2416 041c 002A     		cmp	r2, #0
 2417 041e 5DD0     		beq	.L103
 348:Drivers/lvgl/src/core/lv_indev_scroll.c ****             (right_en  && obj_scroll_sum.x <= - scroll_limit))) {
 2418              		.loc 1 348 24 view .LVU808
 2419 0420 BDF92C10 		ldrsh	r1, [sp, #44]
 2420 0424 0598     		ldr	r0, [sp, #20]
 2421 0426 8142     		cmp	r1, r0
 2422 0428 58DB     		blt	.L103
 351:Drivers/lvgl/src/core/lv_indev_scroll.c ****         }
 2423              		.loc 1 351 27 view .LVU809
 2424 042a 0321     		movs	r1, #3
 2425 042c 08EE107A 		vmov	s16, r7	@ int
 2426              	.LVL220:
 351:Drivers/lvgl/src/core/lv_indev_scroll.c ****         }
 2427              		.loc 1 351 27 view .LVU810
 2428 0430 0491     		str	r1, [sp, #16]
 2429              	.LVL221:
 2430              	.L102:
 354:Drivers/lvgl/src/core/lv_indev_scroll.c ****         if(sb <= 0) down_en = false;
 2431              		.loc 1 354 9 is_stmt 1 view .LVU811
 354:Drivers/lvgl/src/core/lv_indev_scroll.c ****         if(sb <= 0) down_en = false;
 2432              		.loc 1 354 27 is_stmt 0 view .LVU812
ARM GAS  /var/folders/0z/tsy30v1j4xl4_7kw94k978ww0000gn/T//cc3yoOHj.s 			page 73


 2433 0432 B8F1000F 		cmp	r8, #0
 2434 0436 D8BF     		it	le
 2435 0438 4FF00009 		movle	r9, #0
 2436              	.LVL222:
 355:Drivers/lvgl/src/core/lv_indev_scroll.c ****         if(sl <= 0) left_en = false;
 2437              		.loc 1 355 9 is_stmt 1 view .LVU813
 355:Drivers/lvgl/src/core/lv_indev_scroll.c ****         if(sl <= 0) left_en = false;
 2438              		.loc 1 355 29 is_stmt 0 view .LVU814
 2439 043c 002B     		cmp	r3, #0
 2440 043e D8BF     		it	le
 2441 0440 0025     		movle	r5, #0
 2442              	.LVL223:
 356:Drivers/lvgl/src/core/lv_indev_scroll.c ****         if(sr <= 0) right_en = false;
 2443              		.loc 1 356 9 is_stmt 1 view .LVU815
 356:Drivers/lvgl/src/core/lv_indev_scroll.c ****         if(sr <= 0) right_en = false;
 2444              		.loc 1 356 11 is_stmt 0 view .LVU816
 2445 0442 002E     		cmp	r6, #0
 357:Drivers/lvgl/src/core/lv_indev_scroll.c **** 
 2446              		.loc 1 357 11 view .LVU817
 2447 0444 069B     		ldr	r3, [sp, #24]
 356:Drivers/lvgl/src/core/lv_indev_scroll.c ****         if(sr <= 0) right_en = false;
 2448              		.loc 1 356 11 view .LVU818
 2449 0446 70DD     		ble	.L232
 2450              	.LVL224:
 357:Drivers/lvgl/src/core/lv_indev_scroll.c **** 
 2451              		.loc 1 357 9 is_stmt 1 view .LVU819
 357:Drivers/lvgl/src/core/lv_indev_scroll.c **** 
 2452              		.loc 1 357 11 is_stmt 0 view .LVU820
 2453 0448 002B     		cmp	r3, #0
 2454 044a 40F3EE80 		ble	.L109
 360:Drivers/lvgl/src/core/lv_indev_scroll.c ****            (right_en && obj_scroll_sum.x <= - scroll_limit) ||
 2455              		.loc 1 360 9 is_stmt 1 view .LVU821
 360:Drivers/lvgl/src/core/lv_indev_scroll.c ****            (right_en && obj_scroll_sum.x <= - scroll_limit) ||
 2456              		.loc 1 360 11 is_stmt 0 view .LVU822
 2457 044e 2AB1     		cbz	r2, .L108
 360:Drivers/lvgl/src/core/lv_indev_scroll.c ****            (right_en && obj_scroll_sum.x <= - scroll_limit) ||
 2458              		.loc 1 360 22 view .LVU823
 2459 0450 BDF92C20 		ldrsh	r2, [sp, #44]
 2460              	.LVL225:
 360:Drivers/lvgl/src/core/lv_indev_scroll.c ****            (right_en && obj_scroll_sum.x <= - scroll_limit) ||
 2461              		.loc 1 360 22 view .LVU824
 2462 0454 059B     		ldr	r3, [sp, #20]
 2463 0456 9A42     		cmp	r2, r3
 2464 0458 80F2F080 		bge	.L210
 2465              	.L108:
 2466              	.LVL226:
 360:Drivers/lvgl/src/core/lv_indev_scroll.c ****            (right_en && obj_scroll_sum.x <= - scroll_limit) ||
 2467              		.loc 1 360 61 view .LVU825
 2468 045c 079B     		ldr	r3, [sp, #28]
 2469 045e 33B1     		cbz	r3, .L107
 361:Drivers/lvgl/src/core/lv_indev_scroll.c ****            (up_en    && obj_scroll_sum.y >=   scroll_limit) ||
 2470              		.loc 1 361 45 view .LVU826
 2471 0460 039B     		ldr	r3, [sp, #12]
 361:Drivers/lvgl/src/core/lv_indev_scroll.c ****            (up_en    && obj_scroll_sum.y >=   scroll_limit) ||
 2472              		.loc 1 361 39 view .LVU827
 2473 0462 BDF92C10 		ldrsh	r1, [sp, #44]
 361:Drivers/lvgl/src/core/lv_indev_scroll.c ****            (up_en    && obj_scroll_sum.y >=   scroll_limit) ||
ARM GAS  /var/folders/0z/tsy30v1j4xl4_7kw94k978ww0000gn/T//cc3yoOHj.s 			page 74


 2474              		.loc 1 361 45 view .LVU828
 2475 0466 5A42     		rsbs	r2, r3, #0
 361:Drivers/lvgl/src/core/lv_indev_scroll.c ****            (up_en    && obj_scroll_sum.y >=   scroll_limit) ||
 2476              		.loc 1 361 22 view .LVU829
 2477 0468 9142     		cmp	r1, r2
 2478 046a 40F3E780 		ble	.L210
 2479              	.L107:
 361:Drivers/lvgl/src/core/lv_indev_scroll.c ****            (up_en    && obj_scroll_sum.y >=   scroll_limit) ||
 2480              		.loc 1 361 61 view .LVU830
 2481 046e B9F1000F 		cmp	r9, #0
 2482 0472 05D0     		beq	.L111
 362:Drivers/lvgl/src/core/lv_indev_scroll.c ****            (down_en  && obj_scroll_sum.y <= - scroll_limit)) {
 2483              		.loc 1 362 22 view .LVU831
 2484 0474 BDF92E20 		ldrsh	r2, [sp, #46]
 2485 0478 059B     		ldr	r3, [sp, #20]
 2486 047a 9A42     		cmp	r2, r3
 2487 047c 80F2DE80 		bge	.L210
 2488              	.L111:
 362:Drivers/lvgl/src/core/lv_indev_scroll.c ****            (down_en  && obj_scroll_sum.y <= - scroll_limit)) {
 2489              		.loc 1 362 61 view .LVU832
 2490 0480 35B1     		cbz	r5, .L112
 363:Drivers/lvgl/src/core/lv_indev_scroll.c ****             proc->types.pointer.scroll_dir = hor_en ? LV_DIR_HOR : LV_DIR_VER;
 2491              		.loc 1 363 45 view .LVU833
 2492 0482 039B     		ldr	r3, [sp, #12]
 363:Drivers/lvgl/src/core/lv_indev_scroll.c ****             proc->types.pointer.scroll_dir = hor_en ? LV_DIR_HOR : LV_DIR_VER;
 2493              		.loc 1 363 39 view .LVU834
 2494 0484 BDF92E20 		ldrsh	r2, [sp, #46]
 363:Drivers/lvgl/src/core/lv_indev_scroll.c ****             proc->types.pointer.scroll_dir = hor_en ? LV_DIR_HOR : LV_DIR_VER;
 2495              		.loc 1 363 45 view .LVU835
 2496 0488 5B42     		rsbs	r3, r3, #0
 363:Drivers/lvgl/src/core/lv_indev_scroll.c ****             proc->types.pointer.scroll_dir = hor_en ? LV_DIR_HOR : LV_DIR_VER;
 2497              		.loc 1 363 22 view .LVU836
 2498 048a 9A42     		cmp	r2, r3
 2499 048c 40F3D680 		ble	.L210
 2500              	.L112:
 369:Drivers/lvgl/src/core/lv_indev_scroll.c ****         if(lv_obj_has_flag(obj_act, LV_OBJ_FLAG_SCROLL_CHAIN_VER) == false && ver_en) break;
 2501              		.loc 1 369 9 is_stmt 1 view .LVU837
 369:Drivers/lvgl/src/core/lv_indev_scroll.c ****         if(lv_obj_has_flag(obj_act, LV_OBJ_FLAG_SCROLL_CHAIN_VER) == false && ver_en) break;
 2502              		.loc 1 369 12 is_stmt 0 view .LVU838
 2503 0490 4FF48071 		mov	r1, #256
 2504 0494 3846     		mov	r0, r7
 2505 0496 FFF7FEFF 		bl	lv_obj_has_flag
 2506              	.LVL227:
 369:Drivers/lvgl/src/core/lv_indev_scroll.c ****         if(lv_obj_has_flag(obj_act, LV_OBJ_FLAG_SCROLL_CHAIN_VER) == false && ver_en) break;
 2507              		.loc 1 369 11 view .LVU839
 2508 049a 18B9     		cbnz	r0, .L114
 369:Drivers/lvgl/src/core/lv_indev_scroll.c ****         if(lv_obj_has_flag(obj_act, LV_OBJ_FLAG_SCROLL_CHAIN_VER) == false && ver_en) break;
 2509              		.loc 1 369 76 view .LVU840
 2510 049c BAF1000F 		cmp	r10, #0
 2511 04a0 7FF415AF 		bne	.L212
 2512              	.L114:
 370:Drivers/lvgl/src/core/lv_indev_scroll.c **** 
 2513              		.loc 1 370 9 is_stmt 1 view .LVU841
 370:Drivers/lvgl/src/core/lv_indev_scroll.c **** 
 2514              		.loc 1 370 12 is_stmt 0 view .LVU842
 2515 04a4 4FF40071 		mov	r1, #512
 2516 04a8 3846     		mov	r0, r7
ARM GAS  /var/folders/0z/tsy30v1j4xl4_7kw94k978ww0000gn/T//cc3yoOHj.s 			page 75


 2517 04aa FFF7FEFF 		bl	lv_obj_has_flag
 2518              	.LVL228:
 370:Drivers/lvgl/src/core/lv_indev_scroll.c **** 
 2519              		.loc 1 370 11 view .LVU843
 2520 04ae 18B9     		cbnz	r0, .L115
 370:Drivers/lvgl/src/core/lv_indev_scroll.c **** 
 2521              		.loc 1 370 76 view .LVU844
 2522 04b0 BBF1000F 		cmp	fp, #0
 2523 04b4 7FF40BAF 		bne	.L212
 2524              	.LVL229:
 2525              	.L115:
 373:Drivers/lvgl/src/core/lv_indev_scroll.c ****     }
 2526              		.loc 1 373 9 is_stmt 1 view .LVU845
 373:Drivers/lvgl/src/core/lv_indev_scroll.c ****     }
 2527              		.loc 1 373 19 is_stmt 0 view .LVU846
 2528 04b8 3846     		mov	r0, r7
 2529 04ba FFF7FEFF 		bl	lv_obj_get_parent
 2530              	.LVL230:
 2531 04be 0746     		mov	r7, r0
 2532              	.LVL231:
 373:Drivers/lvgl/src/core/lv_indev_scroll.c ****     }
 2533              		.loc 1 373 19 view .LVU847
 2534              	.LBE275:
 281:Drivers/lvgl/src/core/lv_indev_scroll.c ****         /*Get the transformed scroll_sum with this object*/
 2535              		.loc 1 281 11 is_stmt 1 view .LVU848
 2536 04c0 0028     		cmp	r0, #0
 2537 04c2 3FF404AF 		beq	.L212
 281:Drivers/lvgl/src/core/lv_indev_scroll.c ****         /*Get the transformed scroll_sum with this object*/
 2538              		.loc 1 281 11 is_stmt 0 view .LVU849
 2539 04c6 A4E6     		b	.L117
 2540              	.LVL232:
 2541              	.L227:
 281:Drivers/lvgl/src/core/lv_indev_scroll.c ****         /*Get the transformed scroll_sum with this object*/
 2542              		.loc 1 281 11 view .LVU850
 2543              	.LBE278:
 2544              	.LBE299:
 2545              	.LBB300:
 2546              	.LBB294:
 441:Drivers/lvgl/src/core/lv_indev_scroll.c ****     if(proc->types.pointer.scroll_area.y1 == 0) proc->types.pointer.scroll_area.y1 = LV_COORD_MIN;
 2547              		.loc 1 441 39 view .LVU851
 2548 04c8 B4F93830 		ldrsh	r3, [r4, #56]
 2549 04cc 26E7     		b	.L129
 2550              	.LVL233:
 2551              	.L231:
 441:Drivers/lvgl/src/core/lv_indev_scroll.c ****     if(proc->types.pointer.scroll_area.y1 == 0) proc->types.pointer.scroll_area.y1 = LV_COORD_MIN;
 2552              		.loc 1 441 39 view .LVU852
 2553              	.LBE294:
 2554              	.LBE300:
 2555              	.LBB301:
 2556              	.LBB279:
 2557              	.LBB276:
 347:Drivers/lvgl/src/core/lv_indev_scroll.c ****            ((left_en   && obj_scroll_sum.x >=   scroll_limit) ||
 2558              		.loc 1 347 20 view .LVU853
 2559 04ce 0699     		ldr	r1, [sp, #24]
 2560 04d0 0029     		cmp	r1, #0
 2561 04d2 A3DC     		bgt	.L101
 2562 04d4 ADE7     		b	.L102
ARM GAS  /var/folders/0z/tsy30v1j4xl4_7kw94k978ww0000gn/T//cc3yoOHj.s 			page 76


 2563              	.L230:
 340:Drivers/lvgl/src/core/lv_indev_scroll.c ****            ((up_en    && obj_scroll_sum.y >=   scroll_limit) ||
 2564              		.loc 1 340 20 view .LVU854
 2565 04d6 002B     		cmp	r3, #0
 2566 04d8 92DC     		bgt	.L98
 2567 04da 9DE7     		b	.L99
 2568              	.L103:
 348:Drivers/lvgl/src/core/lv_indev_scroll.c ****             (right_en  && obj_scroll_sum.x <= - scroll_limit))) {
 2569              		.loc 1 348 63 view .LVU855
 2570 04dc 0799     		ldr	r1, [sp, #28]
 2571 04de 0029     		cmp	r1, #0
 2572 04e0 A7D0     		beq	.L102
 349:Drivers/lvgl/src/core/lv_indev_scroll.c ****             obj_candidate = obj_act;
 2573              		.loc 1 349 47 view .LVU856
 2574 04e2 0399     		ldr	r1, [sp, #12]
 349:Drivers/lvgl/src/core/lv_indev_scroll.c ****             obj_candidate = obj_act;
 2575              		.loc 1 349 41 view .LVU857
 2576 04e4 BDF92CE0 		ldrsh	lr, [sp, #44]
 349:Drivers/lvgl/src/core/lv_indev_scroll.c ****             obj_candidate = obj_act;
 2577              		.loc 1 349 47 view .LVU858
 2578 04e8 C1F1000C 		rsb	ip, r1, #0
 349:Drivers/lvgl/src/core/lv_indev_scroll.c ****             obj_candidate = obj_act;
 2579              		.loc 1 349 24 view .LVU859
 2580 04ec E645     		cmp	lr, ip
 2581 04ee 18EE101A 		vmov	r1, s16	@ int
 2582 04f2 D8BF     		it	le
 2583 04f4 3946     		movle	r1, r7
 2584 04f6 08EE101A 		vmov	s16, r1	@ int
 2585              	.LVL234:
 349:Drivers/lvgl/src/core/lv_indev_scroll.c ****             obj_candidate = obj_act;
 2586              		.loc 1 349 24 view .LVU860
 2587 04fa 0499     		ldr	r1, [sp, #16]
 2588 04fc D8BF     		it	le
 2589 04fe 0321     		movle	r1, #3
 2590 0500 0491     		str	r1, [sp, #16]
 2591              	.LVL235:
 349:Drivers/lvgl/src/core/lv_indev_scroll.c ****             obj_candidate = obj_act;
 2592              		.loc 1 349 24 view .LVU861
 2593 0502 96E7     		b	.L102
 2594              	.LVL236:
 2595              	.L100:
 341:Drivers/lvgl/src/core/lv_indev_scroll.c ****             (down_en  && obj_scroll_sum.y <= - scroll_limit))) {
 2596              		.loc 1 341 62 view .LVU862
 2597 0504 002D     		cmp	r5, #0
 2598 0506 87D0     		beq	.L99
 342:Drivers/lvgl/src/core/lv_indev_scroll.c ****             obj_candidate = obj_act;
 2599              		.loc 1 342 46 view .LVU863
 2600 0508 0399     		ldr	r1, [sp, #12]
 342:Drivers/lvgl/src/core/lv_indev_scroll.c ****             obj_candidate = obj_act;
 2601              		.loc 1 342 40 view .LVU864
 2602 050a BDF92EE0 		ldrsh	lr, [sp, #46]
 342:Drivers/lvgl/src/core/lv_indev_scroll.c ****             obj_candidate = obj_act;
 2603              		.loc 1 342 46 view .LVU865
 2604 050e C1F1000C 		rsb	ip, r1, #0
 342:Drivers/lvgl/src/core/lv_indev_scroll.c ****             obj_candidate = obj_act;
 2605              		.loc 1 342 23 view .LVU866
 2606 0512 E645     		cmp	lr, ip
ARM GAS  /var/folders/0z/tsy30v1j4xl4_7kw94k978ww0000gn/T//cc3yoOHj.s 			page 77


 2607 0514 18EE101A 		vmov	r1, s16	@ int
 2608 0518 D8BF     		it	le
 2609 051a 3946     		movle	r1, r7
 2610 051c 08EE101A 		vmov	s16, r1	@ int
 2611              	.LVL237:
 342:Drivers/lvgl/src/core/lv_indev_scroll.c ****             obj_candidate = obj_act;
 2612              		.loc 1 342 23 view .LVU867
 2613 0520 0499     		ldr	r1, [sp, #16]
 2614 0522 D8BF     		it	le
 2615 0524 0C21     		movle	r1, #12
 2616 0526 0491     		str	r1, [sp, #16]
 2617              	.LVL238:
 342:Drivers/lvgl/src/core/lv_indev_scroll.c ****             obj_candidate = obj_act;
 2618              		.loc 1 342 23 view .LVU868
 2619 0528 76E7     		b	.L99
 2620              	.LVL239:
 2621              	.L232:
 356:Drivers/lvgl/src/core/lv_indev_scroll.c ****         if(sr <= 0) right_en = false;
 2622              		.loc 1 356 21 is_stmt 1 view .LVU869
 357:Drivers/lvgl/src/core/lv_indev_scroll.c **** 
 2623              		.loc 1 357 9 view .LVU870
 357:Drivers/lvgl/src/core/lv_indev_scroll.c **** 
 2624              		.loc 1 357 11 is_stmt 0 view .LVU871
 2625 052a 002B     		cmp	r3, #0
 2626 052c 96DC     		bgt	.L108
 2627 052e 9EE7     		b	.L107
 2628              	.LVL240:
 2629              	.L229:
 357:Drivers/lvgl/src/core/lv_indev_scroll.c **** 
 2630              		.loc 1 357 11 view .LVU872
 2631              	.LBE276:
 2632              	.LBE279:
 2633              	.LBE301:
 2634              	.LBB302:
 2635              	.LBB295:
 419:Drivers/lvgl/src/core/lv_indev_scroll.c ****                 proc->types.pointer.scroll_area.x2 = find_snap_point_x(obj, LV_COORD_MIN, obj->coor
 2636              		.loc 1 419 17 is_stmt 1 view .LVU873
 419:Drivers/lvgl/src/core/lv_indev_scroll.c ****                 proc->types.pointer.scroll_area.x2 = find_snap_point_x(obj, LV_COORD_MIN, obj->coor
 2637              		.loc 1 419 54 is_stmt 0 view .LVU874
 2638 0530 41F6FF72 		movw	r2, #8191
 2639 0534 B5F91410 		ldrsh	r1, [r5, #20]
 2640 0538 0023     		movs	r3, #0
 2641 053a 2846     		mov	r0, r5
 2642 053c FFF7FEFF 		bl	find_snap_point_x
 2643              	.LVL241:
 420:Drivers/lvgl/src/core/lv_indev_scroll.c ****                 break;
 2644              		.loc 1 420 54 view .LVU875
 2645 0540 B5F91420 		ldrsh	r2, [r5, #20]
 2646              	.L217:
 423:Drivers/lvgl/src/core/lv_indev_scroll.c ****                 proc->types.pointer.scroll_area.x2 = find_snap_point_x(obj, LV_COORD_MIN, obj->coor
 2647              		.loc 1 423 52 view .LVU876
 2648 0544 A086     		strh	r0, [r4, #52]	@ movhi
 424:Drivers/lvgl/src/core/lv_indev_scroll.c ****                 break;
 2649              		.loc 1 424 17 is_stmt 1 view .LVU877
 424:Drivers/lvgl/src/core/lv_indev_scroll.c ****                 break;
 2650              		.loc 1 424 54 is_stmt 0 view .LVU878
 2651 0546 2149     		ldr	r1, .L233
ARM GAS  /var/folders/0z/tsy30v1j4xl4_7kw94k978ww0000gn/T//cc3yoOHj.s 			page 78


 2652 0548 0023     		movs	r3, #0
 2653 054a 2846     		mov	r0, r5
 2654 054c FFF7FEFF 		bl	find_snap_point_x
 2655              	.LVL242:
 424:Drivers/lvgl/src/core/lv_indev_scroll.c ****                 break;
 2656              		.loc 1 424 52 view .LVU879
 2657 0550 2087     		strh	r0, [r4, #56]	@ movhi
 425:Drivers/lvgl/src/core/lv_indev_scroll.c ****             case LV_SCROLL_SNAP_CENTER: {
 2658              		.loc 1 425 17 is_stmt 1 view .LVU880
 2659 0552 D9E6     		b	.L119
 2660              	.L125:
 2661              	.LBB283:
 427:Drivers/lvgl/src/core/lv_indev_scroll.c ****                     proc->types.pointer.scroll_area.x1 = find_snap_point_x(obj, x_mid + 1, LV_COORD
 2662              		.loc 1 427 21 view .LVU881
 2663              	.LBB284:
 2664              	.LBB285:
 125:Drivers/lvgl/src/core/../misc/../font/../misc/lv_area.h **** }
 2665              		.loc 3 125 49 is_stmt 0 view .LVU882
 2666 0554 2A8B     		ldrh	r2, [r5, #24]
 2667              	.LBE285:
 2668              	.LBE284:
 427:Drivers/lvgl/src/core/lv_indev_scroll.c ****                     proc->types.pointer.scroll_area.x1 = find_snap_point_x(obj, x_mid + 1, LV_COORD
 2669              		.loc 1 427 51 view .LVU883
 2670 0556 AB8A     		ldrh	r3, [r5, #20]
 2671              	.LVL243:
 2672              	.LBB287:
 2673              	.LBI284:
 123:Drivers/lvgl/src/core/../misc/../font/../misc/lv_area.h **** {
 2674              		.loc 3 123 26 is_stmt 1 view .LVU884
 2675              	.LBB286:
 125:Drivers/lvgl/src/core/../misc/../font/../misc/lv_area.h **** }
 2676              		.loc 3 125 5 view .LVU885
 125:Drivers/lvgl/src/core/../misc/../font/../misc/lv_area.h **** }
 2677              		.loc 3 125 49 is_stmt 0 view .LVU886
 2678 0558 0132     		adds	r2, r2, #1
 2679 055a D21A     		subs	r2, r2, r3
 2680              	.LBE286:
 2681              	.LBE287:
 427:Drivers/lvgl/src/core/lv_indev_scroll.c ****                     proc->types.pointer.scroll_area.x1 = find_snap_point_x(obj, x_mid + 1, LV_COORD
 2682              		.loc 1 427 55 view .LVU887
 2683 055c C2F3C031 		ubfx	r1, r2, #15, #1
 2684 0560 01FA82F2 		sxtah	r2, r1, r2
 2685 0564 03EB6203 		add	r3, r3, r2, asr #1
 2686 0568 9EB2     		uxth	r6, r3
 2687              	.LVL244:
 428:Drivers/lvgl/src/core/lv_indev_scroll.c ****                     proc->types.pointer.scroll_area.x2 = find_snap_point_x(obj, LV_COORD_MIN, x_mid
 2688              		.loc 1 428 21 is_stmt 1 view .LVU888
 428:Drivers/lvgl/src/core/lv_indev_scroll.c ****                     proc->types.pointer.scroll_area.x2 = find_snap_point_x(obj, LV_COORD_MIN, x_mid
 2689              		.loc 1 428 87 is_stmt 0 view .LVU889
 2690 056a 711C     		adds	r1, r6, #1
 428:Drivers/lvgl/src/core/lv_indev_scroll.c ****                     proc->types.pointer.scroll_area.x2 = find_snap_point_x(obj, LV_COORD_MIN, x_mid
 2691              		.loc 1 428 58 view .LVU890
 2692 056c 0023     		movs	r3, #0
 2693 056e 09B2     		sxth	r1, r1
 2694 0570 41F6FF72 		movw	r2, #8191
 2695 0574 2846     		mov	r0, r5
 2696 0576 FFF7FEFF 		bl	find_snap_point_x
ARM GAS  /var/folders/0z/tsy30v1j4xl4_7kw94k978ww0000gn/T//cc3yoOHj.s 			page 79


 2697              	.LVL245:
 429:Drivers/lvgl/src/core/lv_indev_scroll.c ****                     break;
 2698              		.loc 1 429 101 view .LVU891
 2699 057a 721E     		subs	r2, r6, #1
 428:Drivers/lvgl/src/core/lv_indev_scroll.c ****                     proc->types.pointer.scroll_area.x2 = find_snap_point_x(obj, LV_COORD_MIN, x_mid
 2700              		.loc 1 428 56 view .LVU892
 2701 057c A086     		strh	r0, [r4, #52]	@ movhi
 429:Drivers/lvgl/src/core/lv_indev_scroll.c ****                     break;
 2702              		.loc 1 429 21 is_stmt 1 view .LVU893
 429:Drivers/lvgl/src/core/lv_indev_scroll.c ****                     break;
 2703              		.loc 1 429 58 is_stmt 0 view .LVU894
 2704 057e 1349     		ldr	r1, .L233
 2705 0580 0023     		movs	r3, #0
 2706 0582 12B2     		sxth	r2, r2
 2707 0584 2846     		mov	r0, r5
 2708 0586 FFF7FEFF 		bl	find_snap_point_x
 2709              	.LVL246:
 429:Drivers/lvgl/src/core/lv_indev_scroll.c ****                     break;
 2710              		.loc 1 429 56 view .LVU895
 2711 058a 2087     		strh	r0, [r4, #56]	@ movhi
 430:Drivers/lvgl/src/core/lv_indev_scroll.c ****                 }
 2712              		.loc 1 430 21 is_stmt 1 view .LVU896
 2713 058c BCE6     		b	.L119
 2714              	.LVL247:
 2715              	.L124:
 430:Drivers/lvgl/src/core/lv_indev_scroll.c ****                 }
 2716              		.loc 1 430 21 is_stmt 0 view .LVU897
 2717              	.LBE283:
 423:Drivers/lvgl/src/core/lv_indev_scroll.c ****                 proc->types.pointer.scroll_area.x2 = find_snap_point_x(obj, LV_COORD_MIN, obj->coor
 2718              		.loc 1 423 17 is_stmt 1 view .LVU898
 423:Drivers/lvgl/src/core/lv_indev_scroll.c ****                 proc->types.pointer.scroll_area.x2 = find_snap_point_x(obj, LV_COORD_MIN, obj->coor
 2719              		.loc 1 423 54 is_stmt 0 view .LVU899
 2720 058e 41F6FF72 		movw	r2, #8191
 2721 0592 B5F91810 		ldrsh	r1, [r5, #24]
 2722 0596 0023     		movs	r3, #0
 2723 0598 2846     		mov	r0, r5
 2724 059a FFF7FEFF 		bl	find_snap_point_x
 2725              	.LVL248:
 424:Drivers/lvgl/src/core/lv_indev_scroll.c ****                 break;
 2726              		.loc 1 424 54 view .LVU900
 2727 059e B5F91820 		ldrsh	r2, [r5, #24]
 2728 05a2 CFE7     		b	.L217
 2729              	.L228:
 398:Drivers/lvgl/src/core/lv_indev_scroll.c ****                 proc->types.pointer.scroll_area.y2 = find_snap_point_y(obj, LV_COORD_MIN, obj->coor
 2730              		.loc 1 398 17 is_stmt 1 view .LVU901
 398:Drivers/lvgl/src/core/lv_indev_scroll.c ****                 proc->types.pointer.scroll_area.y2 = find_snap_point_y(obj, LV_COORD_MIN, obj->coor
 2731              		.loc 1 398 92 is_stmt 0 view .LVU902
 2732 05a4 E98A     		ldrh	r1, [r5, #22]
 2733 05a6 0131     		adds	r1, r1, #1
 398:Drivers/lvgl/src/core/lv_indev_scroll.c ****                 proc->types.pointer.scroll_area.y2 = find_snap_point_y(obj, LV_COORD_MIN, obj->coor
 2734              		.loc 1 398 54 view .LVU903
 2735 05a8 3346     		mov	r3, r6
 2736 05aa 09B2     		sxth	r1, r1
 2737 05ac 41F6FF72 		movw	r2, #8191
 2738 05b0 2846     		mov	r0, r5
 2739 05b2 FFF7FEFF 		bl	find_snap_point_y
 2740              	.LVL249:
ARM GAS  /var/folders/0z/tsy30v1j4xl4_7kw94k978ww0000gn/T//cc3yoOHj.s 			page 80


 399:Drivers/lvgl/src/core/lv_indev_scroll.c ****                 break;
 2741              		.loc 1 399 106 view .LVU904
 2742 05b6 EA8A     		ldrh	r2, [r5, #22]
 399:Drivers/lvgl/src/core/lv_indev_scroll.c ****                 break;
 2743              		.loc 1 399 54 view .LVU905
 2744 05b8 0449     		ldr	r1, .L233
 398:Drivers/lvgl/src/core/lv_indev_scroll.c ****                 proc->types.pointer.scroll_area.y2 = find_snap_point_y(obj, LV_COORD_MIN, obj->coor
 2745              		.loc 1 398 52 view .LVU906
 2746 05ba E086     		strh	r0, [r4, #54]	@ movhi
 399:Drivers/lvgl/src/core/lv_indev_scroll.c ****                 break;
 2747              		.loc 1 399 17 is_stmt 1 view .LVU907
 399:Drivers/lvgl/src/core/lv_indev_scroll.c ****                 break;
 2748              		.loc 1 399 106 is_stmt 0 view .LVU908
 2749 05bc 013A     		subs	r2, r2, #1
 399:Drivers/lvgl/src/core/lv_indev_scroll.c ****                 break;
 2750              		.loc 1 399 54 view .LVU909
 2751 05be 3346     		mov	r3, r6
 2752 05c0 12B2     		sxth	r2, r2
 2753 05c2 2846     		mov	r0, r5
 2754 05c4 FFF7FEFF 		bl	find_snap_point_y
 2755              	.LVL250:
 400:Drivers/lvgl/src/core/lv_indev_scroll.c ****             case LV_SCROLL_SNAP_END:
 2756              		.loc 1 400 17 is_stmt 1 view .LVU910
 2757 05c8 D7E6     		b	.L123
 2758              	.L234:
 2759 05ca 00BF     		.align	2
 2760              	.L233:
 2761 05cc 01E0FFFF 		.word	-8191
 2762              	.L121:
 2763              	.LBB288:
 406:Drivers/lvgl/src/core/lv_indev_scroll.c ****                     proc->types.pointer.scroll_area.y1 = find_snap_point_y(obj, y_mid + 1, LV_COORD
 2764              		.loc 1 406 21 view .LVU911
 2765              	.LBB289:
 2766              	.LBB290:
 2767              		.loc 3 135 49 is_stmt 0 view .LVU912
 2768 05d0 6A8B     		ldrh	r2, [r5, #26]
 2769              	.LBE290:
 2770              	.LBE289:
 406:Drivers/lvgl/src/core/lv_indev_scroll.c ****                     proc->types.pointer.scroll_area.y1 = find_snap_point_y(obj, y_mid + 1, LV_COORD
 2771              		.loc 1 406 51 view .LVU913
 2772 05d2 EB8A     		ldrh	r3, [r5, #22]
 2773              	.LVL251:
 2774              	.LBB292:
 2775              	.LBI289:
 133:Drivers/lvgl/src/core/../misc/../font/../misc/lv_area.h **** {
 2776              		.loc 3 133 26 is_stmt 1 view .LVU914
 2777              	.LBB291:
 2778              		.loc 3 135 5 view .LVU915
 2779              		.loc 3 135 49 is_stmt 0 view .LVU916
 2780 05d4 0132     		adds	r2, r2, #1
 2781 05d6 D21A     		subs	r2, r2, r3
 2782              	.LBE291:
 2783              	.LBE292:
 406:Drivers/lvgl/src/core/lv_indev_scroll.c ****                     proc->types.pointer.scroll_area.y1 = find_snap_point_y(obj, y_mid + 1, LV_COORD
 2784              		.loc 1 406 55 view .LVU917
 2785 05d8 C2F3C031 		ubfx	r1, r2, #15, #1
 2786 05dc 01FA82F2 		sxtah	r2, r1, r2
ARM GAS  /var/folders/0z/tsy30v1j4xl4_7kw94k978ww0000gn/T//cc3yoOHj.s 			page 81


 2787 05e0 03EB6203 		add	r3, r3, r2, asr #1
 2788 05e4 9FB2     		uxth	r7, r3
 2789              	.LVL252:
 407:Drivers/lvgl/src/core/lv_indev_scroll.c ****                     proc->types.pointer.scroll_area.y2 = find_snap_point_y(obj, LV_COORD_MIN, y_mid
 2790              		.loc 1 407 21 is_stmt 1 view .LVU918
 407:Drivers/lvgl/src/core/lv_indev_scroll.c ****                     proc->types.pointer.scroll_area.y2 = find_snap_point_y(obj, LV_COORD_MIN, y_mid
 2791              		.loc 1 407 87 is_stmt 0 view .LVU919
 2792 05e6 791C     		adds	r1, r7, #1
 407:Drivers/lvgl/src/core/lv_indev_scroll.c ****                     proc->types.pointer.scroll_area.y2 = find_snap_point_y(obj, LV_COORD_MIN, y_mid
 2793              		.loc 1 407 58 view .LVU920
 2794 05e8 3346     		mov	r3, r6
 2795 05ea 09B2     		sxth	r1, r1
 2796 05ec 41F6FF72 		movw	r2, #8191
 2797 05f0 2846     		mov	r0, r5
 2798 05f2 FFF7FEFF 		bl	find_snap_point_y
 2799              	.LVL253:
 408:Drivers/lvgl/src/core/lv_indev_scroll.c ****                     break;
 2800              		.loc 1 408 101 view .LVU921
 2801 05f6 7A1E     		subs	r2, r7, #1
 407:Drivers/lvgl/src/core/lv_indev_scroll.c ****                     proc->types.pointer.scroll_area.y2 = find_snap_point_y(obj, LV_COORD_MIN, y_mid
 2802              		.loc 1 407 56 view .LVU922
 2803 05f8 E086     		strh	r0, [r4, #54]	@ movhi
 408:Drivers/lvgl/src/core/lv_indev_scroll.c ****                     break;
 2804              		.loc 1 408 21 is_stmt 1 view .LVU923
 408:Drivers/lvgl/src/core/lv_indev_scroll.c ****                     break;
 2805              		.loc 1 408 58 is_stmt 0 view .LVU924
 2806 05fa 1949     		ldr	r1, .L235
 2807 05fc 3346     		mov	r3, r6
 2808 05fe 12B2     		sxth	r2, r2
 2809 0600 2846     		mov	r0, r5
 2810 0602 FFF7FEFF 		bl	find_snap_point_y
 2811              	.LVL254:
 409:Drivers/lvgl/src/core/lv_indev_scroll.c ****                 }
 2812              		.loc 1 409 21 is_stmt 1 view .LVU925
 2813 0606 B8E6     		b	.L123
 2814              	.LVL255:
 2815              	.L120:
 409:Drivers/lvgl/src/core/lv_indev_scroll.c ****                 }
 2816              		.loc 1 409 21 is_stmt 0 view .LVU926
 2817              	.LBE288:
 402:Drivers/lvgl/src/core/lv_indev_scroll.c ****                 proc->types.pointer.scroll_area.y2 = find_snap_point_y(obj, LV_COORD_MIN, obj->coor
 2818              		.loc 1 402 17 is_stmt 1 view .LVU927
 402:Drivers/lvgl/src/core/lv_indev_scroll.c ****                 proc->types.pointer.scroll_area.y2 = find_snap_point_y(obj, LV_COORD_MIN, obj->coor
 2819              		.loc 1 402 54 is_stmt 0 view .LVU928
 2820 0608 B5F91A10 		ldrsh	r1, [r5, #26]
 2821 060c 3346     		mov	r3, r6
 2822 060e 41F6FF72 		movw	r2, #8191
 2823 0612 2846     		mov	r0, r5
 2824 0614 FFF7FEFF 		bl	find_snap_point_y
 2825              	.LVL256:
 403:Drivers/lvgl/src/core/lv_indev_scroll.c ****                 break;
 2826              		.loc 1 403 54 view .LVU929
 2827 0618 B5F91A20 		ldrsh	r2, [r5, #26]
 2828 061c 1049     		ldr	r1, .L235
 402:Drivers/lvgl/src/core/lv_indev_scroll.c ****                 proc->types.pointer.scroll_area.y2 = find_snap_point_y(obj, LV_COORD_MIN, obj->coor
 2829              		.loc 1 402 52 view .LVU930
 2830 061e E086     		strh	r0, [r4, #54]	@ movhi
ARM GAS  /var/folders/0z/tsy30v1j4xl4_7kw94k978ww0000gn/T//cc3yoOHj.s 			page 82


 403:Drivers/lvgl/src/core/lv_indev_scroll.c ****                 break;
 2831              		.loc 1 403 17 is_stmt 1 view .LVU931
 403:Drivers/lvgl/src/core/lv_indev_scroll.c ****                 break;
 2832              		.loc 1 403 54 is_stmt 0 view .LVU932
 2833 0620 3346     		mov	r3, r6
 2834 0622 2846     		mov	r0, r5
 2835 0624 FFF7FEFF 		bl	find_snap_point_y
 2836              	.LVL257:
 404:Drivers/lvgl/src/core/lv_indev_scroll.c ****             case LV_SCROLL_SNAP_CENTER: {
 2837              		.loc 1 404 17 is_stmt 1 view .LVU933
 2838 0628 A7E6     		b	.L123
 2839              	.LVL258:
 2840              	.L109:
 404:Drivers/lvgl/src/core/lv_indev_scroll.c ****             case LV_SCROLL_SNAP_CENTER: {
 2841              		.loc 1 404 17 is_stmt 0 view .LVU934
 2842              	.LBE295:
 2843              	.LBE302:
 2844              	.LBB303:
 2845              	.LBB280:
 2846              	.LBB277:
 357:Drivers/lvgl/src/core/lv_indev_scroll.c **** 
 2847              		.loc 1 357 21 is_stmt 1 view .LVU935
 360:Drivers/lvgl/src/core/lv_indev_scroll.c ****            (right_en && obj_scroll_sum.x <= - scroll_limit) ||
 2848              		.loc 1 360 9 view .LVU936
 360:Drivers/lvgl/src/core/lv_indev_scroll.c ****            (right_en && obj_scroll_sum.x <= - scroll_limit) ||
 2849              		.loc 1 360 11 is_stmt 0 view .LVU937
 2850 062a 002A     		cmp	r2, #0
 2851 062c 3FF41FAF 		beq	.L107
 360:Drivers/lvgl/src/core/lv_indev_scroll.c ****            (right_en && obj_scroll_sum.x <= - scroll_limit) ||
 2852              		.loc 1 360 22 view .LVU938
 2853 0630 BDF92C20 		ldrsh	r2, [sp, #44]
 2854              	.LVL259:
 360:Drivers/lvgl/src/core/lv_indev_scroll.c ****            (right_en && obj_scroll_sum.x <= - scroll_limit) ||
 2855              		.loc 1 360 22 view .LVU939
 2856 0634 059B     		ldr	r3, [sp, #20]
 2857 0636 9A42     		cmp	r2, r3
 2858 0638 FFF619AF 		blt	.L107
 2859              	.LVL260:
 2860              	.L210:
 364:Drivers/lvgl/src/core/lv_indev_scroll.c ****             break;
 2861              		.loc 1 364 13 is_stmt 1 view .LVU940
 2862 063c 5746     		mov	r7, r10
 2863              	.LVL261:
 364:Drivers/lvgl/src/core/lv_indev_scroll.c ****             break;
 2864              		.loc 1 364 44 is_stmt 0 view .LVU941
 2865 063e 94F84030 		ldrb	r3, [r4, #64]	@ zero_extendqisi2
 364:Drivers/lvgl/src/core/lv_indev_scroll.c ****             break;
 2866              		.loc 1 364 66 view .LVU942
 2867 0642 002F     		cmp	r7, #0
 2868 0644 14BF     		ite	ne
 2869 0646 0322     		movne	r2, #3
 2870 0648 0C22     		moveq	r2, #12
 364:Drivers/lvgl/src/core/lv_indev_scroll.c ****             break;
 2871              		.loc 1 364 44 view .LVU943
 2872 064a 62F30303 		bfi	r3, r2, #0, #4
 2873 064e 18EE105A 		vmov	r5, s16	@ int
 2874              	.LVL262:
ARM GAS  /var/folders/0z/tsy30v1j4xl4_7kw94k978ww0000gn/T//cc3yoOHj.s 			page 83


 364:Drivers/lvgl/src/core/lv_indev_scroll.c ****             break;
 2875              		.loc 1 364 44 view .LVU944
 2876 0652 84F84030 		strb	r3, [r4, #64]
 365:Drivers/lvgl/src/core/lv_indev_scroll.c ****         }
 2877              		.loc 1 365 13 is_stmt 1 view .LVU945
 2878 0656 3CE6     		b	.L116
 2879              	.LVL263:
 2880              	.L226:
 365:Drivers/lvgl/src/core/lv_indev_scroll.c ****         }
 2881              		.loc 1 365 13 is_stmt 0 view .LVU946
 2882              	.LBE277:
 2883              	.LBE280:
 2884              	.LBE303:
 2885              	.LBB304:
 2886              	.LBB255:
 569:Drivers/lvgl/src/core/lv_indev_scroll.c ****             *diff_x = proc->types.pointer.scroll_area.x1 - proc->types.pointer.scroll_sum.x;
 2887              		.loc 1 569 47 view .LVU947
 2888 0658 3946     		mov	r1, r7
 2889 065a 0026     		movs	r6, #0
 2890 065c 93E5     		b	.L145
 2891              	.L236:
 2892 065e 00BF     		.align	2
 2893              	.L235:
 2894 0660 01E0FFFF 		.word	-8191
 2895              	.LBE255:
 2896              	.LBE304:
 2897              		.cfi_endproc
 2898              	.LFE161:
 2900              		.section	.text._lv_indev_scroll_throw_handler,"ax",%progbits
 2901              		.align	1
 2902              		.p2align 2,,3
 2903              		.global	_lv_indev_scroll_throw_handler
 2904              		.syntax unified
 2905              		.thumb
 2906              		.thumb_func
 2908              	_lv_indev_scroll_throw_handler:
 2909              	.LVL264:
 2910              	.LFB162:
 113:Drivers/lvgl/src/core/lv_indev_scroll.c ****     lv_obj_t * scroll_obj = proc->types.pointer.scroll_obj;
 2911              		.loc 1 113 1 is_stmt 1 view -0
 2912              		.cfi_startproc
 2913              		@ args = 0, pretend = 0, frame = 8
 2914              		@ frame_needed = 0, uses_anonymous_args = 0
 114:Drivers/lvgl/src/core/lv_indev_scroll.c ****     if(scroll_obj == NULL) return;
 2915              		.loc 1 114 5 view .LVU949
 113:Drivers/lvgl/src/core/lv_indev_scroll.c ****     lv_obj_t * scroll_obj = proc->types.pointer.scroll_obj;
 2916              		.loc 1 113 1 is_stmt 0 view .LVU950
 2917 0000 2DE9F04F 		push	{r4, r5, r6, r7, r8, r9, r10, fp, lr}
 2918              		.cfi_def_cfa_offset 36
 2919              		.cfi_offset 4, -36
 2920              		.cfi_offset 5, -32
 2921              		.cfi_offset 6, -28
 2922              		.cfi_offset 7, -24
 2923              		.cfi_offset 8, -20
 2924              		.cfi_offset 9, -16
 2925              		.cfi_offset 10, -12
 2926              		.cfi_offset 11, -8
ARM GAS  /var/folders/0z/tsy30v1j4xl4_7kw94k978ww0000gn/T//cc3yoOHj.s 			page 84


 2927              		.cfi_offset 14, -4
 114:Drivers/lvgl/src/core/lv_indev_scroll.c ****     if(scroll_obj == NULL) return;
 2928              		.loc 1 114 16 view .LVU951
 2929 0004 C66A     		ldr	r6, [r0, #44]
 2930              	.LVL265:
 115:Drivers/lvgl/src/core/lv_indev_scroll.c ****     if(proc->types.pointer.scroll_dir == LV_DIR_NONE) return;
 2931              		.loc 1 115 5 is_stmt 1 view .LVU952
 113:Drivers/lvgl/src/core/lv_indev_scroll.c ****     lv_obj_t * scroll_obj = proc->types.pointer.scroll_obj;
 2932              		.loc 1 113 1 is_stmt 0 view .LVU953
 2933 0006 85B0     		sub	sp, sp, #20
 2934              		.cfi_def_cfa_offset 56
 115:Drivers/lvgl/src/core/lv_indev_scroll.c ****     if(proc->types.pointer.scroll_dir == LV_DIR_NONE) return;
 2935              		.loc 1 115 7 view .LVU954
 2936 0008 26B1     		cbz	r6, .L237
 116:Drivers/lvgl/src/core/lv_indev_scroll.c **** 
 2937              		.loc 1 116 5 is_stmt 1 view .LVU955
 116:Drivers/lvgl/src/core/lv_indev_scroll.c **** 
 2938              		.loc 1 116 39 is_stmt 0 view .LVU956
 2939 000a 90F84030 		ldrb	r3, [r0, #64]	@ zero_extendqisi2
 116:Drivers/lvgl/src/core/lv_indev_scroll.c **** 
 2940              		.loc 1 116 7 view .LVU957
 2941 000e 1B07     		lsls	r3, r3, #28
 2942 0010 0446     		mov	r4, r0
 2943 0012 02D1     		bne	.L291
 2944              	.LVL266:
 2945              	.L237:
 215:Drivers/lvgl/src/core/lv_indev_scroll.c **** 
 2946              		.loc 1 215 1 view .LVU958
 2947 0014 05B0     		add	sp, sp, #20
 2948              		.cfi_remember_state
 2949              		.cfi_def_cfa_offset 36
 2950              		@ sp needed
 2951 0016 BDE8F08F 		pop	{r4, r5, r6, r7, r8, r9, r10, fp, pc}
 2952              	.LVL267:
 2953              	.L291:
 2954              		.cfi_restore_state
 118:Drivers/lvgl/src/core/lv_indev_scroll.c ****     lv_coord_t scroll_throw = indev_act->driver->scroll_throw;
 2955              		.loc 1 118 5 is_stmt 1 view .LVU959
 118:Drivers/lvgl/src/core/lv_indev_scroll.c ****     lv_coord_t scroll_throw = indev_act->driver->scroll_throw;
 2956              		.loc 1 118 30 is_stmt 0 view .LVU960
 2957 001a FFF7FEFF 		bl	lv_indev_get_act
 2958              	.LVL268:
 119:Drivers/lvgl/src/core/lv_indev_scroll.c **** 
 2959              		.loc 1 119 48 view .LVU961
 2960 001e 0368     		ldr	r3, [r0]
 118:Drivers/lvgl/src/core/lv_indev_scroll.c ****     lv_coord_t scroll_throw = indev_act->driver->scroll_throw;
 2961              		.loc 1 118 30 view .LVU962
 2962 0020 0746     		mov	r7, r0
 2963              	.LVL269:
 119:Drivers/lvgl/src/core/lv_indev_scroll.c **** 
 2964              		.loc 1 119 5 is_stmt 1 view .LVU963
 121:Drivers/lvgl/src/core/lv_indev_scroll.c ****         proc->types.pointer.scroll_throw_vect.y = 0;
 2965              		.loc 1 121 8 is_stmt 0 view .LVU964
 2966 0022 4021     		movs	r1, #64
 2967 0024 3046     		mov	r0, r6
 2968              	.LVL270:
 119:Drivers/lvgl/src/core/lv_indev_scroll.c **** 
ARM GAS  /var/folders/0z/tsy30v1j4xl4_7kw94k978ww0000gn/T//cc3yoOHj.s 			page 85


 2969              		.loc 1 119 48 view .LVU965
 2970 0026 5D7E     		ldrb	r5, [r3, #25]	@ zero_extendqisi2
 2971              	.LVL271:
 121:Drivers/lvgl/src/core/lv_indev_scroll.c ****         proc->types.pointer.scroll_throw_vect.y = 0;
 2972              		.loc 1 121 5 is_stmt 1 view .LVU966
 121:Drivers/lvgl/src/core/lv_indev_scroll.c ****         proc->types.pointer.scroll_throw_vect.y = 0;
 2973              		.loc 1 121 8 is_stmt 0 view .LVU967
 2974 0028 FFF7FEFF 		bl	lv_obj_has_flag
 2975              	.LVL272:
 121:Drivers/lvgl/src/core/lv_indev_scroll.c ****         proc->types.pointer.scroll_throw_vect.y = 0;
 2976              		.loc 1 121 7 view .LVU968
 2977 002c 00B9     		cbnz	r0, .L241
 122:Drivers/lvgl/src/core/lv_indev_scroll.c ****         proc->types.pointer.scroll_throw_vect.x = 0;
 2978              		.loc 1 122 9 is_stmt 1 view .LVU969
 123:Drivers/lvgl/src/core/lv_indev_scroll.c ****     }
 2979              		.loc 1 123 9 view .LVU970
 123:Drivers/lvgl/src/core/lv_indev_scroll.c ****     }
 2980              		.loc 1 123 49 is_stmt 0 view .LVU971
 2981 002e E061     		str	r0, [r4, #28]
 2982              	.L241:
 126:Drivers/lvgl/src/core/lv_indev_scroll.c ****     lv_scroll_snap_t align_y = lv_obj_get_scroll_snap_y(scroll_obj);
 2983              		.loc 1 126 5 is_stmt 1 view .LVU972
 126:Drivers/lvgl/src/core/lv_indev_scroll.c ****     lv_scroll_snap_t align_y = lv_obj_get_scroll_snap_y(scroll_obj);
 2984              		.loc 1 126 32 is_stmt 0 view .LVU973
 2985 0030 3046     		mov	r0, r6
 2986 0032 FFF7FEFF 		bl	lv_obj_get_scroll_snap_x
 2987              	.LVL273:
 2988 0036 8046     		mov	r8, r0
 2989              	.LVL274:
 127:Drivers/lvgl/src/core/lv_indev_scroll.c **** 
 2990              		.loc 1 127 5 is_stmt 1 view .LVU974
 127:Drivers/lvgl/src/core/lv_indev_scroll.c **** 
 2991              		.loc 1 127 32 is_stmt 0 view .LVU975
 2992 0038 3046     		mov	r0, r6
 2993 003a FFF7FEFF 		bl	lv_obj_get_scroll_snap_y
 2994              	.LVL275:
 129:Drivers/lvgl/src/core/lv_indev_scroll.c ****         proc->types.pointer.scroll_throw_vect.x = 0;
 2995              		.loc 1 129 39 view .LVU976
 2996 003e 94F840A0 		ldrb	r10, [r4, #64]	@ zero_extendqisi2
 2997 0042 0AF00F0A 		and	r10, r10, #15
 129:Drivers/lvgl/src/core/lv_indev_scroll.c ****         proc->types.pointer.scroll_throw_vect.x = 0;
 2998              		.loc 1 129 7 view .LVU977
 2999 0046 BAF10C0F 		cmp	r10, #12
 127:Drivers/lvgl/src/core/lv_indev_scroll.c **** 
 3000              		.loc 1 127 32 view .LVU978
 3001 004a 8146     		mov	r9, r0
 3002              	.LVL276:
 129:Drivers/lvgl/src/core/lv_indev_scroll.c ****         proc->types.pointer.scroll_throw_vect.x = 0;
 3003              		.loc 1 129 5 is_stmt 1 view .LVU979
 129:Drivers/lvgl/src/core/lv_indev_scroll.c ****         proc->types.pointer.scroll_throw_vect.x = 0;
 3004              		.loc 1 129 7 is_stmt 0 view .LVU980
 3005 004c 57D0     		beq	.L292
 153:Drivers/lvgl/src/core/lv_indev_scroll.c ****         proc->types.pointer.scroll_throw_vect.y = 0;
 3006              		.loc 1 153 10 is_stmt 1 view .LVU981
 153:Drivers/lvgl/src/core/lv_indev_scroll.c ****         proc->types.pointer.scroll_throw_vect.y = 0;
 3007              		.loc 1 153 12 is_stmt 0 view .LVU982
 3008 004e BAF1030F 		cmp	r10, #3
ARM GAS  /var/folders/0z/tsy30v1j4xl4_7kw94k978ww0000gn/T//cc3yoOHj.s 			page 86


 3009 0052 1DD0     		beq	.L293
 3010              	.LVL277:
 3011              	.L255:
 179:Drivers/lvgl/src/core/lv_indev_scroll.c ****         /*Revert if scrolled in*/
 3012              		.loc 1 179 5 is_stmt 1 view .LVU983
 179:Drivers/lvgl/src/core/lv_indev_scroll.c ****         /*Revert if scrolled in*/
 3013              		.loc 1 179 7 is_stmt 0 view .LVU984
 3014 0054 E369     		ldr	r3, [r4, #28]
 3015 0056 002B     		cmp	r3, #0
 3016 0058 DCD1     		bne	.L237
 182:Drivers/lvgl/src/core/lv_indev_scroll.c ****             lv_coord_t st = lv_obj_get_scroll_top(scroll_obj);
 3017              		.loc 1 182 9 is_stmt 1 view .LVU985
 182:Drivers/lvgl/src/core/lv_indev_scroll.c ****             lv_coord_t st = lv_obj_get_scroll_top(scroll_obj);
 3018              		.loc 1 182 11 is_stmt 0 view .LVU986
 3019 005a B9F1000F 		cmp	r9, #0
 3020 005e 00F08780 		beq	.L265
 3021              	.L254:
 196:Drivers/lvgl/src/core/lv_indev_scroll.c ****             lv_coord_t sl = lv_obj_get_scroll_left(scroll_obj);
 3022              		.loc 1 196 9 is_stmt 1 view .LVU987
 196:Drivers/lvgl/src/core/lv_indev_scroll.c ****             lv_coord_t sl = lv_obj_get_scroll_left(scroll_obj);
 3023              		.loc 1 196 11 is_stmt 0 view .LVU988
 3024 0062 B8F1000F 		cmp	r8, #0
 3025 0066 00F0D980 		beq	.L294
 3026              	.L268:
 209:Drivers/lvgl/src/core/lv_indev_scroll.c ****         if(proc->reset_query) return;
 3027              		.loc 1 209 9 is_stmt 1 view .LVU989
 3028 006a 3A46     		mov	r2, r7
 3029 006c 0A21     		movs	r1, #10
 3030 006e 3046     		mov	r0, r6
 3031 0070 FFF7FEFF 		bl	lv_event_send
 3032              	.LVL278:
 210:Drivers/lvgl/src/core/lv_indev_scroll.c **** 
 3033              		.loc 1 210 9 view .LVU990
 210:Drivers/lvgl/src/core/lv_indev_scroll.c **** 
 3034              		.loc 1 210 12 is_stmt 0 view .LVU991
 3035 0074 6378     		ldrb	r3, [r4, #1]	@ zero_extendqisi2
 210:Drivers/lvgl/src/core/lv_indev_scroll.c **** 
 3036              		.loc 1 210 11 view .LVU992
 3037 0076 13F00203 		ands	r3, r3, #2
 3038 007a CBD1     		bne	.L237
 212:Drivers/lvgl/src/core/lv_indev_scroll.c ****         proc->types.pointer.scroll_obj = NULL;
 3039              		.loc 1 212 9 is_stmt 1 view .LVU993
 212:Drivers/lvgl/src/core/lv_indev_scroll.c ****         proc->types.pointer.scroll_obj = NULL;
 3040              		.loc 1 212 40 is_stmt 0 view .LVU994
 3041 007c 94F84020 		ldrb	r2, [r4, #64]	@ zero_extendqisi2
 213:Drivers/lvgl/src/core/lv_indev_scroll.c ****     }
 3042              		.loc 1 213 40 view .LVU995
 3043 0080 E362     		str	r3, [r4, #44]
 212:Drivers/lvgl/src/core/lv_indev_scroll.c ****         proc->types.pointer.scroll_obj = NULL;
 3044              		.loc 1 212 40 view .LVU996
 3045 0082 63F30302 		bfi	r2, r3, #0, #4
 3046 0086 84F84020 		strb	r2, [r4, #64]
 213:Drivers/lvgl/src/core/lv_indev_scroll.c ****     }
 3047              		.loc 1 213 9 is_stmt 1 view .LVU997
 215:Drivers/lvgl/src/core/lv_indev_scroll.c **** 
 3048              		.loc 1 215 1 is_stmt 0 view .LVU998
 3049 008a 05B0     		add	sp, sp, #20
ARM GAS  /var/folders/0z/tsy30v1j4xl4_7kw94k978ww0000gn/T//cc3yoOHj.s 			page 87


 3050              		.cfi_remember_state
 3051              		.cfi_def_cfa_offset 36
 3052              		@ sp needed
 3053 008c BDE8F08F 		pop	{r4, r5, r6, r7, r8, r9, r10, fp, pc}
 3054              	.LVL279:
 3055              	.L293:
 3056              		.cfi_restore_state
 154:Drivers/lvgl/src/core/lv_indev_scroll.c ****         /*If no snapping "throw"*/
 3057              		.loc 1 154 9 is_stmt 1 view .LVU999
 154:Drivers/lvgl/src/core/lv_indev_scroll.c ****         /*If no snapping "throw"*/
 3058              		.loc 1 154 49 is_stmt 0 view .LVU1000
 3059 0090 4FF0000B 		mov	fp, #0
 3060 0094 A4F81EB0 		strh	fp, [r4, #30]	@ movhi
 156:Drivers/lvgl/src/core/lv_indev_scroll.c ****             proc->types.pointer.scroll_throw_vect.x =
 3061              		.loc 1 156 9 is_stmt 1 view .LVU1001
 156:Drivers/lvgl/src/core/lv_indev_scroll.c ****             proc->types.pointer.scroll_throw_vect.x =
 3062              		.loc 1 156 11 is_stmt 0 view .LVU1002
 3063 0098 B8F1000F 		cmp	r8, #0
 3064 009c 40F0D280 		bne	.L256
 3065              	.LBB323:
 157:Drivers/lvgl/src/core/lv_indev_scroll.c ****                 proc->types.pointer.scroll_throw_vect.x * (100 - scroll_throw) / 100;
 3066              		.loc 1 157 13 is_stmt 1 view .LVU1003
 158:Drivers/lvgl/src/core/lv_indev_scroll.c **** 
 3067              		.loc 1 158 54 is_stmt 0 view .LVU1004
 3068 00a0 B4F91C30 		ldrsh	r3, [r4, #28]
 158:Drivers/lvgl/src/core/lv_indev_scroll.c **** 
 3069              		.loc 1 158 80 view .LVU1005
 3070 00a4 9F4A     		ldr	r2, .L298
 158:Drivers/lvgl/src/core/lv_indev_scroll.c **** 
 3071              		.loc 1 158 64 view .LVU1006
 3072 00a6 C5F16405 		rsb	r5, r5, #100
 3073              	.LVL280:
 158:Drivers/lvgl/src/core/lv_indev_scroll.c **** 
 3074              		.loc 1 158 57 view .LVU1007
 3075 00aa 05FB03F3 		mul	r3, r5, r3
 158:Drivers/lvgl/src/core/lv_indev_scroll.c **** 
 3076              		.loc 1 158 80 view .LVU1008
 3077 00ae 82FB0312 		smull	r1, r2, r2, r3
 3078 00b2 DB17     		asrs	r3, r3, #31
 3079 00b4 C3EB6213 		rsb	r3, r3, r2, asr #5
 157:Drivers/lvgl/src/core/lv_indev_scroll.c ****                 proc->types.pointer.scroll_throw_vect.x * (100 - scroll_throw) / 100;
 3080              		.loc 1 157 53 view .LVU1009
 3081 00b8 A383     		strh	r3, [r4, #28]	@ movhi
 160:Drivers/lvgl/src/core/lv_indev_scroll.c ****             lv_coord_t sr = lv_obj_get_scroll_right(scroll_obj);
 3082              		.loc 1 160 13 is_stmt 1 view .LVU1010
 160:Drivers/lvgl/src/core/lv_indev_scroll.c ****             lv_coord_t sr = lv_obj_get_scroll_right(scroll_obj);
 3083              		.loc 1 160 29 is_stmt 0 view .LVU1011
 3084 00ba 3046     		mov	r0, r6
 3085              	.LVL281:
 160:Drivers/lvgl/src/core/lv_indev_scroll.c ****             lv_coord_t sr = lv_obj_get_scroll_right(scroll_obj);
 3086              		.loc 1 160 29 view .LVU1012
 3087 00bc FFF7FEFF 		bl	lv_obj_get_scroll_left
 3088              	.LVL282:
 3089 00c0 0390     		str	r0, [sp, #12]
 3090              	.LVL283:
 161:Drivers/lvgl/src/core/lv_indev_scroll.c **** 
 3091              		.loc 1 161 13 is_stmt 1 view .LVU1013
ARM GAS  /var/folders/0z/tsy30v1j4xl4_7kw94k978ww0000gn/T//cc3yoOHj.s 			page 88


 161:Drivers/lvgl/src/core/lv_indev_scroll.c **** 
 3092              		.loc 1 161 29 is_stmt 0 view .LVU1014
 3093 00c2 3046     		mov	r0, r6
 3094 00c4 FFF7FEFF 		bl	lv_obj_get_scroll_right
 3095              	.LVL284:
 3096              	.LBB324:
 3097              	.LBB325:
 615:Drivers/lvgl/src/core/lv_indev_scroll.c ****         /*If there is snapping in the current direction don't use the elastic factor because
 3098              		.loc 1 615 8 view .LVU1015
 3099 00c8 2021     		movs	r1, #32
 3100              	.LBE325:
 3101              	.LBE324:
 161:Drivers/lvgl/src/core/lv_indev_scroll.c **** 
 3102              		.loc 1 161 29 view .LVU1016
 3103 00ca 8346     		mov	fp, r0
 3104              	.LVL285:
 163:Drivers/lvgl/src/core/lv_indev_scroll.c ****                                                                    LV_DIR_HOR);
 3105              		.loc 1 163 13 is_stmt 1 view .LVU1017
 3106              	.LBB329:
 3107              	.LBB326:
 615:Drivers/lvgl/src/core/lv_indev_scroll.c ****         /*If there is snapping in the current direction don't use the elastic factor because
 3108              		.loc 1 615 8 is_stmt 0 view .LVU1018
 3109 00cc 3046     		mov	r0, r6
 3110              	.LBE326:
 3111              	.LBE329:
 163:Drivers/lvgl/src/core/lv_indev_scroll.c ****                                                                    LV_DIR_HOR);
 3112              		.loc 1 163 55 view .LVU1019
 3113 00ce B4F91C50 		ldrsh	r5, [r4, #28]
 3114              	.LVL286:
 3115              	.LBB330:
 3116              	.LBI324:
 612:Drivers/lvgl/src/core/lv_indev_scroll.c ****                                lv_dir_t dir)
 3117              		.loc 1 612 19 is_stmt 1 view .LVU1020
 3118              	.LBB327:
 615:Drivers/lvgl/src/core/lv_indev_scroll.c ****         /*If there is snapping in the current direction don't use the elastic factor because
 3119              		.loc 1 615 5 view .LVU1021
 615:Drivers/lvgl/src/core/lv_indev_scroll.c ****         /*If there is snapping in the current direction don't use the elastic factor because
 3120              		.loc 1 615 8 is_stmt 0 view .LVU1022
 3121 00d2 FFF7FEFF 		bl	lv_obj_has_flag
 3122              	.LVL287:
 615:Drivers/lvgl/src/core/lv_indev_scroll.c ****         /*If there is snapping in the current direction don't use the elastic factor because
 3123              		.loc 1 615 7 view .LVU1023
 3124 00d6 039A     		ldr	r2, [sp, #12]
 3125 00d8 0028     		cmp	r0, #0
 3126 00da 00F01381 		beq	.L257
 3127 00de 2946     		mov	r1, r5
 3128 00e0 CDF800A0 		str	r10, [sp]
 3129 00e4 5B46     		mov	r3, fp
 3130 00e6 3046     		mov	r0, r6
 3131 00e8 FFF7FEFF 		bl	elastic_diff.part.0
 3132              	.LVL288:
 3133 00ec 0546     		mov	r5, r0
 3134              	.LVL289:
 3135              	.L258:
 615:Drivers/lvgl/src/core/lv_indev_scroll.c ****         /*If there is snapping in the current direction don't use the elastic factor because
 3136              		.loc 1 615 7 view .LVU1024
 3137              	.LBE327:
ARM GAS  /var/folders/0z/tsy30v1j4xl4_7kw94k978ww0000gn/T//cc3yoOHj.s 			page 89


 3138              	.LBE330:
 166:Drivers/lvgl/src/core/lv_indev_scroll.c ****         }
 3139              		.loc 1 166 13 view .LVU1025
 3140 00ee 0023     		movs	r3, #0
 163:Drivers/lvgl/src/core/lv_indev_scroll.c ****                                                                    LV_DIR_HOR);
 3141              		.loc 1 163 53 view .LVU1026
 3142 00f0 A583     		strh	r5, [r4, #28]	@ movhi
 166:Drivers/lvgl/src/core/lv_indev_scroll.c ****         }
 3143              		.loc 1 166 13 is_stmt 1 view .LVU1027
 3144 00f2 2946     		mov	r1, r5
 3145 00f4 1A46     		mov	r2, r3
 3146 00f6 3046     		mov	r0, r6
 3147 00f8 FFF7FEFF 		bl	lv_obj_scroll_by
 3148              	.LVL290:
 3149              	.LBE323:
 3150 00fc AAE7     		b	.L255
 3151              	.LVL291:
 3152              	.L292:
 130:Drivers/lvgl/src/core/lv_indev_scroll.c ****         /*If no snapping "throw"*/
 3153              		.loc 1 130 9 view .LVU1028
 130:Drivers/lvgl/src/core/lv_indev_scroll.c ****         /*If no snapping "throw"*/
 3154              		.loc 1 130 49 is_stmt 0 view .LVU1029
 3155 00fe 4FF0000B 		mov	fp, #0
 3156 0102 A4F81CB0 		strh	fp, [r4, #28]	@ movhi
 132:Drivers/lvgl/src/core/lv_indev_scroll.c ****             proc->types.pointer.scroll_throw_vect.y =
 3157              		.loc 1 132 9 is_stmt 1 view .LVU1030
 132:Drivers/lvgl/src/core/lv_indev_scroll.c ****             proc->types.pointer.scroll_throw_vect.y =
 3158              		.loc 1 132 11 is_stmt 0 view .LVU1031
 3159 0106 0028     		cmp	r0, #0
 3160 0108 47D1     		bne	.L243
 3161              	.LBB332:
 133:Drivers/lvgl/src/core/lv_indev_scroll.c ****                 proc->types.pointer.scroll_throw_vect.y * (100 - scroll_throw) / 100;
 3162              		.loc 1 133 13 is_stmt 1 view .LVU1032
 134:Drivers/lvgl/src/core/lv_indev_scroll.c **** 
 3163              		.loc 1 134 54 is_stmt 0 view .LVU1033
 3164 010a B4F91E30 		ldrsh	r3, [r4, #30]
 134:Drivers/lvgl/src/core/lv_indev_scroll.c **** 
 3165              		.loc 1 134 80 view .LVU1034
 3166 010e 854A     		ldr	r2, .L298
 134:Drivers/lvgl/src/core/lv_indev_scroll.c **** 
 3167              		.loc 1 134 64 view .LVU1035
 3168 0110 C5F16405 		rsb	r5, r5, #100
 3169              	.LVL292:
 134:Drivers/lvgl/src/core/lv_indev_scroll.c **** 
 3170              		.loc 1 134 57 view .LVU1036
 3171 0114 05FB03F3 		mul	r3, r5, r3
 134:Drivers/lvgl/src/core/lv_indev_scroll.c **** 
 3172              		.loc 1 134 80 view .LVU1037
 3173 0118 82FB0312 		smull	r1, r2, r2, r3
 3174 011c DB17     		asrs	r3, r3, #31
 3175 011e C3EB6213 		rsb	r3, r3, r2, asr #5
 133:Drivers/lvgl/src/core/lv_indev_scroll.c ****                 proc->types.pointer.scroll_throw_vect.y * (100 - scroll_throw) / 100;
 3176              		.loc 1 133 53 view .LVU1038
 3177 0122 E383     		strh	r3, [r4, #30]	@ movhi
 136:Drivers/lvgl/src/core/lv_indev_scroll.c ****             lv_coord_t st = lv_obj_get_scroll_top(scroll_obj);
 3178              		.loc 1 136 13 is_stmt 1 view .LVU1039
 136:Drivers/lvgl/src/core/lv_indev_scroll.c ****             lv_coord_t st = lv_obj_get_scroll_top(scroll_obj);
ARM GAS  /var/folders/0z/tsy30v1j4xl4_7kw94k978ww0000gn/T//cc3yoOHj.s 			page 90


 3179              		.loc 1 136 29 is_stmt 0 view .LVU1040
 3180 0124 3046     		mov	r0, r6
 3181              	.LVL293:
 136:Drivers/lvgl/src/core/lv_indev_scroll.c ****             lv_coord_t st = lv_obj_get_scroll_top(scroll_obj);
 3182              		.loc 1 136 29 view .LVU1041
 3183 0126 FFF7FEFF 		bl	lv_obj_get_scroll_bottom
 3184              	.LVL294:
 3185 012a 8146     		mov	r9, r0
 3186              	.LVL295:
 137:Drivers/lvgl/src/core/lv_indev_scroll.c **** 
 3187              		.loc 1 137 13 is_stmt 1 view .LVU1042
 137:Drivers/lvgl/src/core/lv_indev_scroll.c **** 
 3188              		.loc 1 137 29 is_stmt 0 view .LVU1043
 3189 012c 3046     		mov	r0, r6
 3190 012e FFF7FEFF 		bl	lv_obj_get_scroll_top
 3191              	.LVL296:
 3192              	.LBB333:
 3193              	.LBB334:
 615:Drivers/lvgl/src/core/lv_indev_scroll.c ****         /*If there is snapping in the current direction don't use the elastic factor because
 3194              		.loc 1 615 8 view .LVU1044
 3195 0132 2021     		movs	r1, #32
 3196              	.LBE334:
 3197              	.LBE333:
 137:Drivers/lvgl/src/core/lv_indev_scroll.c **** 
 3198              		.loc 1 137 29 view .LVU1045
 3199 0134 8346     		mov	fp, r0
 3200              	.LVL297:
 139:Drivers/lvgl/src/core/lv_indev_scroll.c ****                                                                    LV_DIR_VER);
 3201              		.loc 1 139 13 is_stmt 1 view .LVU1046
 3202              	.LBB338:
 3203              	.LBB335:
 615:Drivers/lvgl/src/core/lv_indev_scroll.c ****         /*If there is snapping in the current direction don't use the elastic factor because
 3204              		.loc 1 615 8 is_stmt 0 view .LVU1047
 3205 0136 3046     		mov	r0, r6
 3206              	.LBE335:
 3207              	.LBE338:
 139:Drivers/lvgl/src/core/lv_indev_scroll.c ****                                                                    LV_DIR_VER);
 3208              		.loc 1 139 55 view .LVU1048
 3209 0138 B4F91E50 		ldrsh	r5, [r4, #30]
 3210              	.LVL298:
 3211              	.LBB339:
 3212              	.LBI333:
 612:Drivers/lvgl/src/core/lv_indev_scroll.c ****                                lv_dir_t dir)
 3213              		.loc 1 612 19 is_stmt 1 view .LVU1049
 3214              	.LBB336:
 615:Drivers/lvgl/src/core/lv_indev_scroll.c ****         /*If there is snapping in the current direction don't use the elastic factor because
 3215              		.loc 1 615 5 view .LVU1050
 615:Drivers/lvgl/src/core/lv_indev_scroll.c ****         /*If there is snapping in the current direction don't use the elastic factor because
 3216              		.loc 1 615 8 is_stmt 0 view .LVU1051
 3217 013c FFF7FEFF 		bl	lv_obj_has_flag
 3218              	.LVL299:
 615:Drivers/lvgl/src/core/lv_indev_scroll.c ****         /*If there is snapping in the current direction don't use the elastic factor because
 3219              		.loc 1 615 7 view .LVU1052
 3220 0140 0028     		cmp	r0, #0
 3221 0142 40F0BB80 		bne	.L295
 683:Drivers/lvgl/src/core/lv_indev_scroll.c ****         if(scroll_start - diff < 0) diff = scroll_start;
 3222              		.loc 1 683 9 is_stmt 1 view .LVU1053
ARM GAS  /var/folders/0z/tsy30v1j4xl4_7kw94k978ww0000gn/T//cc3yoOHj.s 			page 91


 683:Drivers/lvgl/src/core/lv_indev_scroll.c ****         if(scroll_start - diff < 0) diff = scroll_start;
 3223              		.loc 1 683 11 is_stmt 0 view .LVU1054
 3224 0146 19EB050F 		cmn	r9, r5
 683:Drivers/lvgl/src/core/lv_indev_scroll.c ****         if(scroll_start - diff < 0) diff = scroll_start;
 3225              		.loc 1 683 35 is_stmt 1 view .LVU1055
 683:Drivers/lvgl/src/core/lv_indev_scroll.c ****         if(scroll_start - diff < 0) diff = scroll_start;
 3226              		.loc 1 683 40 is_stmt 0 view .LVU1056
 3227 014a 44BF     		itt	mi
 3228 014c C9F10009 		rsbmi	r9, r9, #0
 3229              	.LVL300:
 683:Drivers/lvgl/src/core/lv_indev_scroll.c ****         if(scroll_start - diff < 0) diff = scroll_start;
 3230              		.loc 1 683 40 view .LVU1057
 3231 0150 0FFA89F5 		sxthmi	r5, r9
 3232              	.LVL301:
 684:Drivers/lvgl/src/core/lv_indev_scroll.c ****     }
 3233              		.loc 1 684 9 is_stmt 1 view .LVU1058
 684:Drivers/lvgl/src/core/lv_indev_scroll.c ****     }
 3234              		.loc 1 684 42 is_stmt 0 view .LVU1059
 3235 0154 5D45     		cmp	r5, fp
 3236 0156 A8BF     		it	ge
 3237 0158 5D46     		movge	r5, fp
 3238              	.LVL302:
 3239              	.L245:
 684:Drivers/lvgl/src/core/lv_indev_scroll.c ****     }
 3240              		.loc 1 684 42 view .LVU1060
 3241              	.LBE336:
 3242              	.LBE339:
 142:Drivers/lvgl/src/core/lv_indev_scroll.c ****         }
 3243              		.loc 1 142 13 view .LVU1061
 3244 015a 0023     		movs	r3, #0
 3245 015c 1946     		mov	r1, r3
 139:Drivers/lvgl/src/core/lv_indev_scroll.c ****                                                                    LV_DIR_VER);
 3246              		.loc 1 139 53 view .LVU1062
 3247 015e E583     		strh	r5, [r4, #30]	@ movhi
 142:Drivers/lvgl/src/core/lv_indev_scroll.c ****         }
 3248              		.loc 1 142 13 is_stmt 1 view .LVU1063
 3249 0160 2A46     		mov	r2, r5
 3250 0162 3046     		mov	r0, r6
 3251 0164 FFF7FEFF 		bl	lv_obj_scroll_by
 3252              	.LVL303:
 3253              	.LBE332:
 179:Drivers/lvgl/src/core/lv_indev_scroll.c ****         /*Revert if scrolled in*/
 3254              		.loc 1 179 5 view .LVU1064
 179:Drivers/lvgl/src/core/lv_indev_scroll.c ****         /*Revert if scrolled in*/
 3255              		.loc 1 179 7 is_stmt 0 view .LVU1065
 3256 0168 E369     		ldr	r3, [r4, #28]
 3257 016a 002B     		cmp	r3, #0
 3258 016c 7FF452AF 		bne	.L237
 3259              	.LVL304:
 3260              	.L265:
 3261              	.LBB341:
 183:Drivers/lvgl/src/core/lv_indev_scroll.c ****             lv_coord_t sb = lv_obj_get_scroll_bottom(scroll_obj);
 3262              		.loc 1 183 13 is_stmt 1 view .LVU1066
 183:Drivers/lvgl/src/core/lv_indev_scroll.c ****             lv_coord_t sb = lv_obj_get_scroll_bottom(scroll_obj);
 3263              		.loc 1 183 29 is_stmt 0 view .LVU1067
 3264 0170 3046     		mov	r0, r6
 3265 0172 FFF7FEFF 		bl	lv_obj_get_scroll_top
ARM GAS  /var/folders/0z/tsy30v1j4xl4_7kw94k978ww0000gn/T//cc3yoOHj.s 			page 92


 3266              	.LVL305:
 3267 0176 0546     		mov	r5, r0
 3268              	.LVL306:
 184:Drivers/lvgl/src/core/lv_indev_scroll.c ****             if(st > 0 || sb > 0) {
 3269              		.loc 1 184 13 is_stmt 1 view .LVU1068
 184:Drivers/lvgl/src/core/lv_indev_scroll.c ****             if(st > 0 || sb > 0) {
 3270              		.loc 1 184 29 is_stmt 0 view .LVU1069
 3271 0178 3046     		mov	r0, r6
 3272 017a FFF7FEFF 		bl	lv_obj_get_scroll_bottom
 3273              	.LVL307:
 185:Drivers/lvgl/src/core/lv_indev_scroll.c ****                 if(st < 0) {
 3274              		.loc 1 185 13 is_stmt 1 view .LVU1070
 185:Drivers/lvgl/src/core/lv_indev_scroll.c ****                 if(st < 0) {
 3275              		.loc 1 185 15 is_stmt 0 view .LVU1071
 3276 017e 002D     		cmp	r5, #0
 3277 0180 40F3B380 		ble	.L296
 189:Drivers/lvgl/src/core/lv_indev_scroll.c ****                     lv_obj_scroll_by(scroll_obj, 0, -sb, LV_ANIM_ON);
 3278              		.loc 1 189 22 is_stmt 1 view .LVU1072
 189:Drivers/lvgl/src/core/lv_indev_scroll.c ****                     lv_obj_scroll_by(scroll_obj, 0, -sb, LV_ANIM_ON);
 3279              		.loc 1 189 24 is_stmt 0 view .LVU1073
 3280 0184 0028     		cmp	r0, #0
 3281 0186 BFF66CAF 		bge	.L254
 190:Drivers/lvgl/src/core/lv_indev_scroll.c ****                 }
 3282              		.loc 1 190 21 is_stmt 1 view .LVU1074
 3283 018a 4242     		rsbs	r2, r0, #0
 3284 018c 12B2     		sxth	r2, r2
 3285 018e 0123     		movs	r3, #1
 3286 0190 0021     		movs	r1, #0
 3287 0192 3046     		mov	r0, r6
 3288              	.LVL308:
 190:Drivers/lvgl/src/core/lv_indev_scroll.c ****                 }
 3289              		.loc 1 190 21 is_stmt 0 view .LVU1075
 3290 0194 FFF7FEFF 		bl	lv_obj_scroll_by
 3291              	.LVL309:
 3292 0198 63E7     		b	.L254
 3293              	.LVL310:
 3294              	.L243:
 190:Drivers/lvgl/src/core/lv_indev_scroll.c ****                 }
 3295              		.loc 1 190 21 view .LVU1076
 3296              	.LBE341:
 3297              	.LBB342:
 146:Drivers/lvgl/src/core/lv_indev_scroll.c ****             proc->types.pointer.scroll_throw_vect.y = 0;
 3298              		.loc 1 146 13 is_stmt 1 view .LVU1077
 3299 019a B4F91E50 		ldrsh	r5, [r4, #30]
 3300              	.LVL311:
 3301              	.LBB343:
 3302              	.LBI343:
 581:Drivers/lvgl/src/core/lv_indev_scroll.c **** {
 3303              		.loc 1 581 19 view .LVU1078
 3304              	.LBB344:
 583:Drivers/lvgl/src/core/lv_indev_scroll.c ****     lv_coord_t move = 0;
 3305              		.loc 1 583 5 view .LVU1079
 584:Drivers/lvgl/src/core/lv_indev_scroll.c **** 
 3306              		.loc 1 584 5 view .LVU1080
 586:Drivers/lvgl/src/core/lv_indev_scroll.c ****     lv_coord_t scroll_throw = indev_act->driver->scroll_throw;
 3307              		.loc 1 586 5 view .LVU1081
 586:Drivers/lvgl/src/core/lv_indev_scroll.c ****     lv_coord_t scroll_throw = indev_act->driver->scroll_throw;
ARM GAS  /var/folders/0z/tsy30v1j4xl4_7kw94k978ww0000gn/T//cc3yoOHj.s 			page 93


 3308              		.loc 1 586 30 is_stmt 0 view .LVU1082
 3309 019e FFF7FEFF 		bl	lv_indev_get_act
 3310              	.LVL312:
 587:Drivers/lvgl/src/core/lv_indev_scroll.c **** 
 3311              		.loc 1 587 5 is_stmt 1 view .LVU1083
 587:Drivers/lvgl/src/core/lv_indev_scroll.c **** 
 3312              		.loc 1 587 48 is_stmt 0 view .LVU1084
 3313 01a2 0368     		ldr	r3, [r0]
 3314 01a4 597E     		ldrb	r1, [r3, #25]	@ zero_extendqisi2
 3315              	.LVL313:
 589:Drivers/lvgl/src/core/lv_indev_scroll.c ****         move += y;
 3316              		.loc 1 589 5 is_stmt 1 view .LVU1085
 589:Drivers/lvgl/src/core/lv_indev_scroll.c ****         move += y;
 3317              		.loc 1 589 11 view .LVU1086
 3318 01a6 002D     		cmp	r5, #0
 3319 01a8 00F0B780 		beq	.L271
 591:Drivers/lvgl/src/core/lv_indev_scroll.c ****     }
 3320              		.loc 1 591 38 is_stmt 0 view .LVU1087
 3321 01ac 5D48     		ldr	r0, .L298
 3322              	.LVL314:
 591:Drivers/lvgl/src/core/lv_indev_scroll.c ****     }
 3323              		.loc 1 591 22 view .LVU1088
 3324 01ae C1F16401 		rsb	r1, r1, #100
 584:Drivers/lvgl/src/core/lv_indev_scroll.c **** 
 3325              		.loc 1 584 16 view .LVU1089
 3326 01b2 5B46     		mov	r3, fp
 3327              	.LVL315:
 3328              	.L250:
 590:Drivers/lvgl/src/core/lv_indev_scroll.c ****         y = y * (100 - scroll_throw) / 100;
 3329              		.loc 1 590 9 is_stmt 1 view .LVU1090
 590:Drivers/lvgl/src/core/lv_indev_scroll.c ****         y = y * (100 - scroll_throw) / 100;
 3330              		.loc 1 590 14 is_stmt 0 view .LVU1091
 3331 01b4 2B44     		add	r3, r3, r5
 3332              	.LVL316:
 591:Drivers/lvgl/src/core/lv_indev_scroll.c ****     }
 3333              		.loc 1 591 15 view .LVU1092
 3334 01b6 01FB05F5 		mul	r5, r1, r5
 3335              	.LVL317:
 591:Drivers/lvgl/src/core/lv_indev_scroll.c ****     }
 3336              		.loc 1 591 38 view .LVU1093
 3337 01ba 80FB05C2 		smull	ip, r2, r0, r5
 3338 01be ED17     		asrs	r5, r5, #31
 3339 01c0 C5EB6215 		rsb	r5, r5, r2, asr #5
 591:Drivers/lvgl/src/core/lv_indev_scroll.c ****     }
 3340              		.loc 1 591 11 view .LVU1094
 3341 01c4 2DB2     		sxth	r5, r5
 590:Drivers/lvgl/src/core/lv_indev_scroll.c ****         y = y * (100 - scroll_throw) / 100;
 3342              		.loc 1 590 14 view .LVU1095
 3343 01c6 1BB2     		sxth	r3, r3
 3344              	.LVL318:
 591:Drivers/lvgl/src/core/lv_indev_scroll.c ****     }
 3345              		.loc 1 591 9 is_stmt 1 view .LVU1096
 589:Drivers/lvgl/src/core/lv_indev_scroll.c ****         move += y;
 3346              		.loc 1 589 11 view .LVU1097
 3347 01c8 002D     		cmp	r5, #0
 3348 01ca F3D1     		bne	.L250
 3349              	.LVL319:
ARM GAS  /var/folders/0z/tsy30v1j4xl4_7kw94k978ww0000gn/T//cc3yoOHj.s 			page 94


 3350              	.L289:
 589:Drivers/lvgl/src/core/lv_indev_scroll.c ****         move += y;
 3351              		.loc 1 589 11 is_stmt 0 view .LVU1098
 3352              	.LBE344:
 3353              	.LBE343:
 3354              	.LBB347:
 3355              	.LBB348:
 559:Drivers/lvgl/src/core/lv_indev_scroll.c ****             *diff_y = proc->types.pointer.scroll_area.y1 - proc->types.pointer.scroll_sum.y;
 3356              		.loc 1 559 42 view .LVU1099
 3357 01cc B4F91A00 		ldrsh	r0, [r4, #26]
 559:Drivers/lvgl/src/core/lv_indev_scroll.c ****             *diff_y = proc->types.pointer.scroll_area.y1 - proc->types.pointer.scroll_sum.y;
 3358              		.loc 1 559 88 view .LVU1100
 3359 01d0 B4F93610 		ldrsh	r1, [r4, #54]
 3360              	.LBE348:
 3361              	.LBE347:
 3362              	.LBB353:
 3363              	.LBB345:
 589:Drivers/lvgl/src/core/lv_indev_scroll.c ****         move += y;
 3364              		.loc 1 589 11 view .LVU1101
 3365 01d4 1A46     		mov	r2, r3
 593:Drivers/lvgl/src/core/lv_indev_scroll.c **** }
 3366              		.loc 1 593 5 is_stmt 1 view .LVU1102
 3367              	.LVL320:
 593:Drivers/lvgl/src/core/lv_indev_scroll.c **** }
 3368              		.loc 1 593 5 is_stmt 0 view .LVU1103
 3369              	.LBE345:
 3370              	.LBE353:
 147:Drivers/lvgl/src/core/lv_indev_scroll.c ****             scroll_limit_diff(proc, NULL, &diff_y);
 3371              		.loc 1 147 13 is_stmt 1 view .LVU1104
 3372              	.LBB354:
 3373              	.LBB349:
 559:Drivers/lvgl/src/core/lv_indev_scroll.c ****             *diff_y = proc->types.pointer.scroll_area.y1 - proc->types.pointer.scroll_sum.y;
 3374              		.loc 1 559 45 is_stmt 0 view .LVU1105
 3375 01d6 0244     		add	r2, r2, r0
 3376              	.LBE349:
 3377              	.LBE354:
 147:Drivers/lvgl/src/core/lv_indev_scroll.c ****             scroll_limit_diff(proc, NULL, &diff_y);
 3378              		.loc 1 147 53 view .LVU1106
 3379 01d8 0025     		movs	r5, #0
 3380              	.LBB355:
 3381              	.LBB350:
 559:Drivers/lvgl/src/core/lv_indev_scroll.c ****             *diff_y = proc->types.pointer.scroll_area.y1 - proc->types.pointer.scroll_sum.y;
 3382              		.loc 1 559 11 view .LVU1107
 3383 01da 8A42     		cmp	r2, r1
 3384              	.LBE350:
 3385              	.LBE355:
 147:Drivers/lvgl/src/core/lv_indev_scroll.c ****             scroll_limit_diff(proc, NULL, &diff_y);
 3386              		.loc 1 147 53 view .LVU1108
 3387 01dc E583     		strh	r5, [r4, #30]	@ movhi
 148:Drivers/lvgl/src/core/lv_indev_scroll.c ****             lv_coord_t y = find_snap_point_y(scroll_obj, LV_COORD_MIN, LV_COORD_MAX, diff_y);
 3388              		.loc 1 148 13 is_stmt 1 view .LVU1109
 3389              	.LVL321:
 3390              	.LBB356:
 3391              	.LBI347:
 556:Drivers/lvgl/src/core/lv_indev_scroll.c **** {
 3392              		.loc 1 556 13 view .LVU1110
 3393              	.LBB351:
ARM GAS  /var/folders/0z/tsy30v1j4xl4_7kw94k978ww0000gn/T//cc3yoOHj.s 			page 95


 558:Drivers/lvgl/src/core/lv_indev_scroll.c ****         if(proc->types.pointer.scroll_sum.y + *diff_y < proc->types.pointer.scroll_area.y1) {
 3394              		.loc 1 558 5 view .LVU1111
 559:Drivers/lvgl/src/core/lv_indev_scroll.c ****             *diff_y = proc->types.pointer.scroll_area.y1 - proc->types.pointer.scroll_sum.y;
 3395              		.loc 1 559 9 view .LVU1112
 559:Drivers/lvgl/src/core/lv_indev_scroll.c ****             *diff_y = proc->types.pointer.scroll_area.y1 - proc->types.pointer.scroll_sum.y;
 3396              		.loc 1 559 11 is_stmt 0 view .LVU1113
 3397 01de 02DA     		bge	.L251
 560:Drivers/lvgl/src/core/lv_indev_scroll.c ****         }
 3398              		.loc 1 560 13 is_stmt 1 view .LVU1114
 560:Drivers/lvgl/src/core/lv_indev_scroll.c ****         }
 3399              		.loc 1 560 58 is_stmt 0 view .LVU1115
 3400 01e0 091A     		subs	r1, r1, r0
 3401 01e2 0BB2     		sxth	r3, r1
 3402              	.LVL322:
 563:Drivers/lvgl/src/core/lv_indev_scroll.c ****             *diff_y = proc->types.pointer.scroll_area.y2 - proc->types.pointer.scroll_sum.y;
 3403              		.loc 1 563 45 view .LVU1116
 3404 01e4 1A18     		adds	r2, r3, r0
 3405              	.L251:
 563:Drivers/lvgl/src/core/lv_indev_scroll.c ****             *diff_y = proc->types.pointer.scroll_area.y2 - proc->types.pointer.scroll_sum.y;
 3406              		.loc 1 563 9 is_stmt 1 view .LVU1117
 563:Drivers/lvgl/src/core/lv_indev_scroll.c ****             *diff_y = proc->types.pointer.scroll_area.y2 - proc->types.pointer.scroll_sum.y;
 3407              		.loc 1 563 88 is_stmt 0 view .LVU1118
 3408 01e6 B4F93A10 		ldrsh	r1, [r4, #58]
 563:Drivers/lvgl/src/core/lv_indev_scroll.c ****             *diff_y = proc->types.pointer.scroll_area.y2 - proc->types.pointer.scroll_sum.y;
 3409              		.loc 1 563 11 view .LVU1119
 3410 01ea 9142     		cmp	r1, r2
 564:Drivers/lvgl/src/core/lv_indev_scroll.c ****         }
 3411              		.loc 1 564 58 view .LVU1120
 3412 01ec BEBF     		ittt	lt
 3413 01ee 091A     		sublt	r1, r1, r0
 3414 01f0 8DB2     		uxthlt	r5, r1
 3415 01f2 0BB2     		sxthlt	r3, r1
 3416              	.LVL323:
 564:Drivers/lvgl/src/core/lv_indev_scroll.c ****         }
 3417              		.loc 1 564 58 view .LVU1121
 3418              	.LBE351:
 3419              	.LBE356:
 149:Drivers/lvgl/src/core/lv_indev_scroll.c ****             lv_obj_scroll_by(scroll_obj, 0, diff_y + y, LV_ANIM_ON);
 3420              		.loc 1 149 28 view .LVU1122
 3421 01f4 41F6FF72 		movw	r2, #8191
 3422 01f8 4B49     		ldr	r1, .L298+4
 3423 01fa 3046     		mov	r0, r6
 150:Drivers/lvgl/src/core/lv_indev_scroll.c ****         }
 3424              		.loc 1 150 52 view .LVU1123
 3425 01fc A8BF     		it	ge
 3426 01fe 9DB2     		uxthge	r5, r3
 3427              	.LBB357:
 3428              	.LBB352:
 564:Drivers/lvgl/src/core/lv_indev_scroll.c ****         }
 3429              		.loc 1 564 13 is_stmt 1 view .LVU1124
 3430              	.LVL324:
 568:Drivers/lvgl/src/core/lv_indev_scroll.c ****         if(proc->types.pointer.scroll_sum.x + *diff_x < proc->types.pointer.scroll_area.x1) {
 3431              		.loc 1 568 5 view .LVU1125
 568:Drivers/lvgl/src/core/lv_indev_scroll.c ****         if(proc->types.pointer.scroll_sum.x + *diff_x < proc->types.pointer.scroll_area.x1) {
 3432              		.loc 1 568 5 is_stmt 0 view .LVU1126
 3433              	.LBE352:
 3434              	.LBE357:
ARM GAS  /var/folders/0z/tsy30v1j4xl4_7kw94k978ww0000gn/T//cc3yoOHj.s 			page 96


 149:Drivers/lvgl/src/core/lv_indev_scroll.c ****             lv_obj_scroll_by(scroll_obj, 0, diff_y + y, LV_ANIM_ON);
 3435              		.loc 1 149 13 is_stmt 1 view .LVU1127
 149:Drivers/lvgl/src/core/lv_indev_scroll.c ****             lv_obj_scroll_by(scroll_obj, 0, diff_y + y, LV_ANIM_ON);
 3436              		.loc 1 149 28 is_stmt 0 view .LVU1128
 3437 0200 FFF7FEFF 		bl	find_snap_point_y
 3438              	.LVL325:
 150:Drivers/lvgl/src/core/lv_indev_scroll.c ****         }
 3439              		.loc 1 150 13 is_stmt 1 view .LVU1129
 150:Drivers/lvgl/src/core/lv_indev_scroll.c ****         }
 3440              		.loc 1 150 52 is_stmt 0 view .LVU1130
 3441 0204 2844     		add	r0, r0, r5
 3442              	.LVL326:
 150:Drivers/lvgl/src/core/lv_indev_scroll.c ****         }
 3443              		.loc 1 150 13 view .LVU1131
 3444 0206 02B2     		sxth	r2, r0
 3445 0208 0123     		movs	r3, #1
 3446 020a 0021     		movs	r1, #0
 3447 020c 3046     		mov	r0, r6
 3448 020e FFF7FEFF 		bl	lv_obj_scroll_by
 3449              	.LVL327:
 150:Drivers/lvgl/src/core/lv_indev_scroll.c ****         }
 3450              		.loc 1 150 13 view .LVU1132
 3451              	.LBE342:
 179:Drivers/lvgl/src/core/lv_indev_scroll.c ****         /*Revert if scrolled in*/
 3452              		.loc 1 179 5 is_stmt 1 view .LVU1133
 179:Drivers/lvgl/src/core/lv_indev_scroll.c ****         /*Revert if scrolled in*/
 3453              		.loc 1 179 7 is_stmt 0 view .LVU1134
 3454 0212 E369     		ldr	r3, [r4, #28]
 3455 0214 002B     		cmp	r3, #0
 3456 0216 7FF4FDAE 		bne	.L237
 3457 021a 22E7     		b	.L254
 3458              	.L294:
 3459              	.LBB359:
 197:Drivers/lvgl/src/core/lv_indev_scroll.c ****             lv_coord_t sr = lv_obj_get_scroll_right(scroll_obj);
 3460              		.loc 1 197 13 is_stmt 1 view .LVU1135
 197:Drivers/lvgl/src/core/lv_indev_scroll.c ****             lv_coord_t sr = lv_obj_get_scroll_right(scroll_obj);
 3461              		.loc 1 197 29 is_stmt 0 view .LVU1136
 3462 021c 3046     		mov	r0, r6
 3463 021e FFF7FEFF 		bl	lv_obj_get_scroll_left
 3464              	.LVL328:
 3465 0222 0546     		mov	r5, r0
 3466              	.LVL329:
 198:Drivers/lvgl/src/core/lv_indev_scroll.c ****             if(sl > 0 || sr > 0) {
 3467              		.loc 1 198 13 is_stmt 1 view .LVU1137
 198:Drivers/lvgl/src/core/lv_indev_scroll.c ****             if(sl > 0 || sr > 0) {
 3468              		.loc 1 198 29 is_stmt 0 view .LVU1138
 3469 0224 3046     		mov	r0, r6
 3470 0226 FFF7FEFF 		bl	lv_obj_get_scroll_right
 3471              	.LVL330:
 199:Drivers/lvgl/src/core/lv_indev_scroll.c ****                 if(sl < 0) {
 3472              		.loc 1 199 13 is_stmt 1 view .LVU1139
 199:Drivers/lvgl/src/core/lv_indev_scroll.c ****                 if(sl < 0) {
 3473              		.loc 1 199 15 is_stmt 0 view .LVU1140
 3474 022a 002D     		cmp	r5, #0
 3475 022c 50DD     		ble	.L297
 203:Drivers/lvgl/src/core/lv_indev_scroll.c ****                     lv_obj_scroll_by(scroll_obj, -sr, 0, LV_ANIM_ON);
 3476              		.loc 1 203 22 is_stmt 1 view .LVU1141
ARM GAS  /var/folders/0z/tsy30v1j4xl4_7kw94k978ww0000gn/T//cc3yoOHj.s 			page 97


 203:Drivers/lvgl/src/core/lv_indev_scroll.c ****                     lv_obj_scroll_by(scroll_obj, -sr, 0, LV_ANIM_ON);
 3477              		.loc 1 203 24 is_stmt 0 view .LVU1142
 3478 022e 0028     		cmp	r0, #0
 3479 0230 BFF61BAF 		bge	.L268
 204:Drivers/lvgl/src/core/lv_indev_scroll.c ****                 }
 3480              		.loc 1 204 21 is_stmt 1 view .LVU1143
 3481 0234 4142     		rsbs	r1, r0, #0
 3482 0236 4246     		mov	r2, r8
 3483 0238 09B2     		sxth	r1, r1
 3484 023a 0123     		movs	r3, #1
 3485 023c 3046     		mov	r0, r6
 3486              	.LVL331:
 204:Drivers/lvgl/src/core/lv_indev_scroll.c ****                 }
 3487              		.loc 1 204 21 is_stmt 0 view .LVU1144
 3488 023e FFF7FEFF 		bl	lv_obj_scroll_by
 3489              	.LVL332:
 3490 0242 12E7     		b	.L268
 3491              	.LVL333:
 3492              	.L256:
 204:Drivers/lvgl/src/core/lv_indev_scroll.c ****                 }
 3493              		.loc 1 204 21 view .LVU1145
 3494              	.LBE359:
 3495              	.LBB360:
 170:Drivers/lvgl/src/core/lv_indev_scroll.c ****             proc->types.pointer.scroll_throw_vect.x = 0;
 3496              		.loc 1 170 13 is_stmt 1 view .LVU1146
 3497 0244 B4F91C50 		ldrsh	r5, [r4, #28]
 3498              	.LVL334:
 3499              	.LBB361:
 3500              	.LBI361:
 597:Drivers/lvgl/src/core/lv_indev_scroll.c **** {
 3501              		.loc 1 597 19 view .LVU1147
 3502              	.LBB362:
 599:Drivers/lvgl/src/core/lv_indev_scroll.c ****     lv_coord_t move = 0;
 3503              		.loc 1 599 5 view .LVU1148
 600:Drivers/lvgl/src/core/lv_indev_scroll.c **** 
 3504              		.loc 1 600 5 view .LVU1149
 602:Drivers/lvgl/src/core/lv_indev_scroll.c ****     lv_coord_t scroll_throw = indev_act->driver->scroll_throw;
 3505              		.loc 1 602 5 view .LVU1150
 602:Drivers/lvgl/src/core/lv_indev_scroll.c ****     lv_coord_t scroll_throw = indev_act->driver->scroll_throw;
 3506              		.loc 1 602 30 is_stmt 0 view .LVU1151
 3507 0248 FFF7FEFF 		bl	lv_indev_get_act
 3508              	.LVL335:
 603:Drivers/lvgl/src/core/lv_indev_scroll.c **** 
 3509              		.loc 1 603 5 is_stmt 1 view .LVU1152
 603:Drivers/lvgl/src/core/lv_indev_scroll.c **** 
 3510              		.loc 1 603 48 is_stmt 0 view .LVU1153
 3511 024c 0368     		ldr	r3, [r0]
 3512 024e 597E     		ldrb	r1, [r3, #25]	@ zero_extendqisi2
 3513              	.LVL336:
 605:Drivers/lvgl/src/core/lv_indev_scroll.c ****         move += x;
 3514              		.loc 1 605 5 is_stmt 1 view .LVU1154
 605:Drivers/lvgl/src/core/lv_indev_scroll.c ****         move += x;
 3515              		.loc 1 605 11 view .LVU1155
 3516 0250 002D     		cmp	r5, #0
 3517 0252 64D0     		beq	.L272
 607:Drivers/lvgl/src/core/lv_indev_scroll.c ****     }
 3518              		.loc 1 607 38 is_stmt 0 view .LVU1156
ARM GAS  /var/folders/0z/tsy30v1j4xl4_7kw94k978ww0000gn/T//cc3yoOHj.s 			page 98


 3519 0254 3348     		ldr	r0, .L298
 3520              	.LVL337:
 607:Drivers/lvgl/src/core/lv_indev_scroll.c ****     }
 3521              		.loc 1 607 22 view .LVU1157
 3522 0256 C1F16401 		rsb	r1, r1, #100
 600:Drivers/lvgl/src/core/lv_indev_scroll.c **** 
 3523              		.loc 1 600 16 view .LVU1158
 3524 025a 5B46     		mov	r3, fp
 3525              	.LVL338:
 3526              	.L261:
 606:Drivers/lvgl/src/core/lv_indev_scroll.c ****         x = x * (100 - scroll_throw) / 100;
 3527              		.loc 1 606 9 is_stmt 1 view .LVU1159
 606:Drivers/lvgl/src/core/lv_indev_scroll.c ****         x = x * (100 - scroll_throw) / 100;
 3528              		.loc 1 606 14 is_stmt 0 view .LVU1160
 3529 025c 2B44     		add	r3, r3, r5
 3530              	.LVL339:
 607:Drivers/lvgl/src/core/lv_indev_scroll.c ****     }
 3531              		.loc 1 607 15 view .LVU1161
 3532 025e 01FB05F5 		mul	r5, r1, r5
 3533              	.LVL340:
 607:Drivers/lvgl/src/core/lv_indev_scroll.c ****     }
 3534              		.loc 1 607 38 view .LVU1162
 3535 0262 80FB05C2 		smull	ip, r2, r0, r5
 3536 0266 ED17     		asrs	r5, r5, #31
 3537 0268 C5EB6215 		rsb	r5, r5, r2, asr #5
 607:Drivers/lvgl/src/core/lv_indev_scroll.c ****     }
 3538              		.loc 1 607 11 view .LVU1163
 3539 026c 2DB2     		sxth	r5, r5
 606:Drivers/lvgl/src/core/lv_indev_scroll.c ****         x = x * (100 - scroll_throw) / 100;
 3540              		.loc 1 606 14 view .LVU1164
 3541 026e 1BB2     		sxth	r3, r3
 3542              	.LVL341:
 607:Drivers/lvgl/src/core/lv_indev_scroll.c ****     }
 3543              		.loc 1 607 9 is_stmt 1 view .LVU1165
 605:Drivers/lvgl/src/core/lv_indev_scroll.c ****         move += x;
 3544              		.loc 1 605 11 view .LVU1166
 3545 0270 002D     		cmp	r5, #0
 3546 0272 F3D1     		bne	.L261
 3547              	.LVL342:
 3548              	.L290:
 605:Drivers/lvgl/src/core/lv_indev_scroll.c ****         move += x;
 3549              		.loc 1 605 11 is_stmt 0 view .LVU1167
 3550              	.LBE362:
 3551              	.LBE361:
 3552              	.LBB365:
 3553              	.LBB366:
 569:Drivers/lvgl/src/core/lv_indev_scroll.c ****             *diff_x = proc->types.pointer.scroll_area.x1 - proc->types.pointer.scroll_sum.x;
 3554              		.loc 1 569 42 view .LVU1168
 3555 0274 B4F91800 		ldrsh	r0, [r4, #24]
 569:Drivers/lvgl/src/core/lv_indev_scroll.c ****             *diff_x = proc->types.pointer.scroll_area.x1 - proc->types.pointer.scroll_sum.x;
 3556              		.loc 1 569 88 view .LVU1169
 3557 0278 B4F93410 		ldrsh	r1, [r4, #52]
 3558              	.LBE366:
 3559              	.LBE365:
 3560              	.LBB371:
 3561              	.LBB363:
 605:Drivers/lvgl/src/core/lv_indev_scroll.c ****         move += x;
ARM GAS  /var/folders/0z/tsy30v1j4xl4_7kw94k978ww0000gn/T//cc3yoOHj.s 			page 99


 3562              		.loc 1 605 11 view .LVU1170
 3563 027c 1A46     		mov	r2, r3
 609:Drivers/lvgl/src/core/lv_indev_scroll.c **** }
 3564              		.loc 1 609 5 is_stmt 1 view .LVU1171
 3565              	.LVL343:
 609:Drivers/lvgl/src/core/lv_indev_scroll.c **** }
 3566              		.loc 1 609 5 is_stmt 0 view .LVU1172
 3567              	.LBE363:
 3568              	.LBE371:
 171:Drivers/lvgl/src/core/lv_indev_scroll.c ****             scroll_limit_diff(proc, &diff_x, NULL);
 3569              		.loc 1 171 13 is_stmt 1 view .LVU1173
 3570              	.LBB372:
 3571              	.LBB367:
 569:Drivers/lvgl/src/core/lv_indev_scroll.c ****             *diff_x = proc->types.pointer.scroll_area.x1 - proc->types.pointer.scroll_sum.x;
 3572              		.loc 1 569 45 is_stmt 0 view .LVU1174
 3573 027e 0244     		add	r2, r2, r0
 3574              	.LBE367:
 3575              	.LBE372:
 171:Drivers/lvgl/src/core/lv_indev_scroll.c ****             scroll_limit_diff(proc, &diff_x, NULL);
 3576              		.loc 1 171 53 view .LVU1175
 3577 0280 0025     		movs	r5, #0
 3578              	.LBB373:
 3579              	.LBB368:
 569:Drivers/lvgl/src/core/lv_indev_scroll.c ****             *diff_x = proc->types.pointer.scroll_area.x1 - proc->types.pointer.scroll_sum.x;
 3580              		.loc 1 569 11 view .LVU1176
 3581 0282 8A42     		cmp	r2, r1
 3582              	.LBE368:
 3583              	.LBE373:
 171:Drivers/lvgl/src/core/lv_indev_scroll.c ****             scroll_limit_diff(proc, &diff_x, NULL);
 3584              		.loc 1 171 53 view .LVU1177
 3585 0284 A583     		strh	r5, [r4, #28]	@ movhi
 172:Drivers/lvgl/src/core/lv_indev_scroll.c ****             lv_coord_t x = find_snap_point_x(scroll_obj, LV_COORD_MIN, LV_COORD_MAX, diff_x);
 3586              		.loc 1 172 13 is_stmt 1 view .LVU1178
 3587              	.LVL344:
 3588              	.LBB374:
 3589              	.LBI365:
 556:Drivers/lvgl/src/core/lv_indev_scroll.c **** {
 3590              		.loc 1 556 13 view .LVU1179
 3591              	.LBB369:
 558:Drivers/lvgl/src/core/lv_indev_scroll.c ****         if(proc->types.pointer.scroll_sum.y + *diff_y < proc->types.pointer.scroll_area.y1) {
 3592              		.loc 1 558 5 view .LVU1180
 568:Drivers/lvgl/src/core/lv_indev_scroll.c ****         if(proc->types.pointer.scroll_sum.x + *diff_x < proc->types.pointer.scroll_area.x1) {
 3593              		.loc 1 568 5 view .LVU1181
 569:Drivers/lvgl/src/core/lv_indev_scroll.c ****             *diff_x = proc->types.pointer.scroll_area.x1 - proc->types.pointer.scroll_sum.x;
 3594              		.loc 1 569 9 view .LVU1182
 569:Drivers/lvgl/src/core/lv_indev_scroll.c ****             *diff_x = proc->types.pointer.scroll_area.x1 - proc->types.pointer.scroll_sum.x;
 3595              		.loc 1 569 11 is_stmt 0 view .LVU1183
 3596 0286 02DA     		bge	.L262
 570:Drivers/lvgl/src/core/lv_indev_scroll.c ****         }
 3597              		.loc 1 570 13 is_stmt 1 view .LVU1184
 570:Drivers/lvgl/src/core/lv_indev_scroll.c ****         }
 3598              		.loc 1 570 58 is_stmt 0 view .LVU1185
 3599 0288 091A     		subs	r1, r1, r0
 3600 028a 0BB2     		sxth	r3, r1
 3601              	.LVL345:
 573:Drivers/lvgl/src/core/lv_indev_scroll.c ****             *diff_x = proc->types.pointer.scroll_area.x2 - proc->types.pointer.scroll_sum.x;
 3602              		.loc 1 573 45 view .LVU1186
ARM GAS  /var/folders/0z/tsy30v1j4xl4_7kw94k978ww0000gn/T//cc3yoOHj.s 			page 100


 3603 028c 1A18     		adds	r2, r3, r0
 3604              	.L262:
 573:Drivers/lvgl/src/core/lv_indev_scroll.c ****             *diff_x = proc->types.pointer.scroll_area.x2 - proc->types.pointer.scroll_sum.x;
 3605              		.loc 1 573 9 is_stmt 1 view .LVU1187
 573:Drivers/lvgl/src/core/lv_indev_scroll.c ****             *diff_x = proc->types.pointer.scroll_area.x2 - proc->types.pointer.scroll_sum.x;
 3606              		.loc 1 573 88 is_stmt 0 view .LVU1188
 3607 028e B4F93810 		ldrsh	r1, [r4, #56]
 573:Drivers/lvgl/src/core/lv_indev_scroll.c ****             *diff_x = proc->types.pointer.scroll_area.x2 - proc->types.pointer.scroll_sum.x;
 3608              		.loc 1 573 11 view .LVU1189
 3609 0292 8A42     		cmp	r2, r1
 574:Drivers/lvgl/src/core/lv_indev_scroll.c ****         }
 3610              		.loc 1 574 58 view .LVU1190
 3611 0294 C2BF     		ittt	gt
 3612 0296 091A     		subgt	r1, r1, r0
 3613 0298 8DB2     		uxthgt	r5, r1
 3614 029a 0BB2     		sxthgt	r3, r1
 3615              	.LVL346:
 574:Drivers/lvgl/src/core/lv_indev_scroll.c ****         }
 3616              		.loc 1 574 58 view .LVU1191
 3617              	.LBE369:
 3618              	.LBE374:
 173:Drivers/lvgl/src/core/lv_indev_scroll.c ****             lv_obj_scroll_by(scroll_obj, x + diff_x, 0, LV_ANIM_ON);
 3619              		.loc 1 173 28 view .LVU1192
 3620 029c 41F6FF72 		movw	r2, #8191
 3621 02a0 2149     		ldr	r1, .L298+4
 3622 02a2 3046     		mov	r0, r6
 174:Drivers/lvgl/src/core/lv_indev_scroll.c ****         }
 3623              		.loc 1 174 44 view .LVU1193
 3624 02a4 D8BF     		it	le
 3625 02a6 9DB2     		uxthle	r5, r3
 3626              	.LBB375:
 3627              	.LBB370:
 574:Drivers/lvgl/src/core/lv_indev_scroll.c ****         }
 3628              		.loc 1 574 13 is_stmt 1 view .LVU1194
 3629              	.LVL347:
 574:Drivers/lvgl/src/core/lv_indev_scroll.c ****         }
 3630              		.loc 1 574 13 is_stmt 0 view .LVU1195
 3631              	.LBE370:
 3632              	.LBE375:
 173:Drivers/lvgl/src/core/lv_indev_scroll.c ****             lv_obj_scroll_by(scroll_obj, x + diff_x, 0, LV_ANIM_ON);
 3633              		.loc 1 173 13 is_stmt 1 view .LVU1196
 173:Drivers/lvgl/src/core/lv_indev_scroll.c ****             lv_obj_scroll_by(scroll_obj, x + diff_x, 0, LV_ANIM_ON);
 3634              		.loc 1 173 28 is_stmt 0 view .LVU1197
 3635 02a8 FFF7FEFF 		bl	find_snap_point_x
 3636              	.LVL348:
 174:Drivers/lvgl/src/core/lv_indev_scroll.c ****         }
 3637              		.loc 1 174 13 is_stmt 1 view .LVU1198
 174:Drivers/lvgl/src/core/lv_indev_scroll.c ****         }
 3638              		.loc 1 174 44 is_stmt 0 view .LVU1199
 3639 02ac 2844     		add	r0, r0, r5
 3640              	.LVL349:
 174:Drivers/lvgl/src/core/lv_indev_scroll.c ****         }
 3641              		.loc 1 174 13 view .LVU1200
 3642 02ae 01B2     		sxth	r1, r0
 3643 02b0 0123     		movs	r3, #1
 3644 02b2 0022     		movs	r2, #0
 3645 02b4 3046     		mov	r0, r6
ARM GAS  /var/folders/0z/tsy30v1j4xl4_7kw94k978ww0000gn/T//cc3yoOHj.s 			page 101


 3646 02b6 FFF7FEFF 		bl	lv_obj_scroll_by
 3647              	.LVL350:
 174:Drivers/lvgl/src/core/lv_indev_scroll.c ****         }
 3648              		.loc 1 174 13 view .LVU1201
 3649 02ba CBE6     		b	.L255
 3650              	.LVL351:
 3651              	.L295:
 174:Drivers/lvgl/src/core/lv_indev_scroll.c ****         }
 3652              		.loc 1 174 13 view .LVU1202
 3653              	.LBE360:
 3654              	.LBB377:
 3655              	.LBB340:
 3656              	.LBB337:
 3657 02bc 2946     		mov	r1, r5
 3658 02be CDF800A0 		str	r10, [sp]
 3659 02c2 4B46     		mov	r3, r9
 3660 02c4 5A46     		mov	r2, fp
 3661 02c6 3046     		mov	r0, r6
 3662 02c8 FFF7FEFF 		bl	elastic_diff.part.0
 3663              	.LVL352:
 3664 02cc 0546     		mov	r5, r0
 3665              	.LVL353:
 174:Drivers/lvgl/src/core/lv_indev_scroll.c ****         }
 3666              		.loc 1 174 13 view .LVU1203
 3667 02ce 44E7     		b	.L245
 3668              	.LVL354:
 3669              	.L297:
 174:Drivers/lvgl/src/core/lv_indev_scroll.c ****         }
 3670              		.loc 1 174 13 view .LVU1204
 3671              	.LBE337:
 3672              	.LBE340:
 3673              	.LBE377:
 3674              	.LBB378:
 199:Drivers/lvgl/src/core/lv_indev_scroll.c ****                 if(sl < 0) {
 3675              		.loc 1 199 23 discriminator 1 view .LVU1205
 3676 02d0 0028     		cmp	r0, #0
 3677 02d2 7FF7CAAE 		ble	.L268
 200:Drivers/lvgl/src/core/lv_indev_scroll.c ****                     lv_obj_scroll_by(scroll_obj, sl, 0, LV_ANIM_ON);
 3678              		.loc 1 200 17 is_stmt 1 view .LVU1206
 200:Drivers/lvgl/src/core/lv_indev_scroll.c ****                     lv_obj_scroll_by(scroll_obj, sl, 0, LV_ANIM_ON);
 3679              		.loc 1 200 19 is_stmt 0 view .LVU1207
 3680 02d6 002D     		cmp	r5, #0
 3681 02d8 3FF4C7AE 		beq	.L268
 201:Drivers/lvgl/src/core/lv_indev_scroll.c ****                 }
 3682              		.loc 1 201 21 is_stmt 1 view .LVU1208
 3683 02dc 4246     		mov	r2, r8
 3684 02de 2946     		mov	r1, r5
 3685 02e0 0123     		movs	r3, #1
 3686 02e2 3046     		mov	r0, r6
 3687              	.LVL355:
 201:Drivers/lvgl/src/core/lv_indev_scroll.c ****                 }
 3688              		.loc 1 201 21 is_stmt 0 view .LVU1209
 3689 02e4 FFF7FEFF 		bl	lv_obj_scroll_by
 3690              	.LVL356:
 3691 02e8 BFE6     		b	.L268
 3692              	.LVL357:
 3693              	.L296:
ARM GAS  /var/folders/0z/tsy30v1j4xl4_7kw94k978ww0000gn/T//cc3yoOHj.s 			page 102


 201:Drivers/lvgl/src/core/lv_indev_scroll.c ****                 }
 3694              		.loc 1 201 21 view .LVU1210
 3695              	.LBE378:
 3696              	.LBB379:
 185:Drivers/lvgl/src/core/lv_indev_scroll.c ****                 if(st < 0) {
 3697              		.loc 1 185 23 discriminator 1 view .LVU1211
 3698 02ea 0028     		cmp	r0, #0
 3699 02ec 7FF7B9AE 		ble	.L254
 186:Drivers/lvgl/src/core/lv_indev_scroll.c ****                     lv_obj_scroll_by(scroll_obj, 0, st, LV_ANIM_ON);
 3700              		.loc 1 186 17 is_stmt 1 view .LVU1212
 186:Drivers/lvgl/src/core/lv_indev_scroll.c ****                     lv_obj_scroll_by(scroll_obj, 0, st, LV_ANIM_ON);
 3701              		.loc 1 186 19 is_stmt 0 view .LVU1213
 3702 02f0 002D     		cmp	r5, #0
 3703 02f2 3FF4B6AE 		beq	.L254
 187:Drivers/lvgl/src/core/lv_indev_scroll.c ****                 }
 3704              		.loc 1 187 21 is_stmt 1 view .LVU1214
 3705 02f6 2A46     		mov	r2, r5
 3706 02f8 0123     		movs	r3, #1
 3707 02fa 0021     		movs	r1, #0
 3708 02fc 3046     		mov	r0, r6
 3709              	.LVL358:
 187:Drivers/lvgl/src/core/lv_indev_scroll.c ****                 }
 3710              		.loc 1 187 21 is_stmt 0 view .LVU1215
 3711 02fe FFF7FEFF 		bl	lv_obj_scroll_by
 3712              	.LVL359:
 3713 0302 AEE6     		b	.L254
 3714              	.LVL360:
 3715              	.L257:
 187:Drivers/lvgl/src/core/lv_indev_scroll.c ****                 }
 3716              		.loc 1 187 21 view .LVU1216
 3717              	.LBE379:
 3718              	.LBB380:
 3719              	.LBB331:
 3720              	.LBB328:
 683:Drivers/lvgl/src/core/lv_indev_scroll.c ****         if(scroll_start - diff < 0) diff = scroll_start;
 3721              		.loc 1 683 9 is_stmt 1 view .LVU1217
 683:Drivers/lvgl/src/core/lv_indev_scroll.c ****         if(scroll_start - diff < 0) diff = scroll_start;
 3722              		.loc 1 683 11 is_stmt 0 view .LVU1218
 3723 0304 1BEB050F 		cmn	fp, r5
 683:Drivers/lvgl/src/core/lv_indev_scroll.c ****         if(scroll_start - diff < 0) diff = scroll_start;
 3724              		.loc 1 683 35 is_stmt 1 view .LVU1219
 683:Drivers/lvgl/src/core/lv_indev_scroll.c ****         if(scroll_start - diff < 0) diff = scroll_start;
 3725              		.loc 1 683 40 is_stmt 0 view .LVU1220
 3726 0308 44BF     		itt	mi
 3727 030a CBF1000B 		rsbmi	fp, fp, #0
 3728              	.LVL361:
 683:Drivers/lvgl/src/core/lv_indev_scroll.c ****         if(scroll_start - diff < 0) diff = scroll_start;
 3729              		.loc 1 683 40 view .LVU1221
 3730 030e 0FFA8BF5 		sxthmi	r5, fp
 3731              	.LVL362:
 684:Drivers/lvgl/src/core/lv_indev_scroll.c ****     }
 3732              		.loc 1 684 9 is_stmt 1 view .LVU1222
 684:Drivers/lvgl/src/core/lv_indev_scroll.c ****     }
 3733              		.loc 1 684 42 is_stmt 0 view .LVU1223
 3734 0312 9542     		cmp	r5, r2
 3735 0314 A8BF     		it	ge
 3736 0316 1546     		movge	r5, r2
ARM GAS  /var/folders/0z/tsy30v1j4xl4_7kw94k978ww0000gn/T//cc3yoOHj.s 			page 103


 3737              	.LVL363:
 684:Drivers/lvgl/src/core/lv_indev_scroll.c ****     }
 3738              		.loc 1 684 42 view .LVU1224
 3739 0318 E9E6     		b	.L258
 3740              	.LVL364:
 3741              	.L271:
 684:Drivers/lvgl/src/core/lv_indev_scroll.c ****     }
 3742              		.loc 1 684 42 view .LVU1225
 3743              	.LBE328:
 3744              	.LBE331:
 3745              	.LBE380:
 3746              	.LBB381:
 3747              	.LBB358:
 3748              	.LBB346:
 584:Drivers/lvgl/src/core/lv_indev_scroll.c **** 
 3749              		.loc 1 584 16 view .LVU1226
 3750 031a 2B46     		mov	r3, r5
 3751              	.LVL365:
 584:Drivers/lvgl/src/core/lv_indev_scroll.c **** 
 3752              		.loc 1 584 16 view .LVU1227
 3753 031c 56E7     		b	.L289
 3754              	.LVL366:
 3755              	.L272:
 584:Drivers/lvgl/src/core/lv_indev_scroll.c **** 
 3756              		.loc 1 584 16 view .LVU1228
 3757              	.LBE346:
 3758              	.LBE358:
 3759              	.LBE381:
 3760              	.LBB382:
 3761              	.LBB376:
 3762              	.LBB364:
 600:Drivers/lvgl/src/core/lv_indev_scroll.c **** 
 3763              		.loc 1 600 16 view .LVU1229
 3764 031e 2B46     		mov	r3, r5
 3765              	.LVL367:
 600:Drivers/lvgl/src/core/lv_indev_scroll.c **** 
 3766              		.loc 1 600 16 view .LVU1230
 3767 0320 A8E7     		b	.L290
 3768              	.L299:
 3769 0322 00BF     		.align	2
 3770              	.L298:
 3771 0324 1F85EB51 		.word	1374389535
 3772 0328 01E0FFFF 		.word	-8191
 3773              	.LBE364:
 3774              	.LBE376:
 3775              	.LBE382:
 3776              		.cfi_endproc
 3777              	.LFE162:
 3779              		.section	.text.lv_indev_scroll_throw_predict,"ax",%progbits
 3780              		.align	1
 3781              		.p2align 2,,3
 3782              		.global	lv_indev_scroll_throw_predict
 3783              		.syntax unified
 3784              		.thumb
 3785              		.thumb_func
 3787              	lv_indev_scroll_throw_predict:
 3788              	.LVL368:
ARM GAS  /var/folders/0z/tsy30v1j4xl4_7kw94k978ww0000gn/T//cc3yoOHj.s 			page 104


 3789              	.LFB163:
 224:Drivers/lvgl/src/core/lv_indev_scroll.c ****     if(indev == NULL) return 0;
 3790              		.loc 1 224 1 is_stmt 1 view -0
 3791              		.cfi_startproc
 3792              		@ args = 0, pretend = 0, frame = 0
 3793              		@ frame_needed = 0, uses_anonymous_args = 0
 225:Drivers/lvgl/src/core/lv_indev_scroll.c ****     lv_coord_t v;
 3794              		.loc 1 225 5 view .LVU1232
 225:Drivers/lvgl/src/core/lv_indev_scroll.c ****     lv_coord_t v;
 3795              		.loc 1 225 7 is_stmt 0 view .LVU1233
 3796 0000 00B3     		cbz	r0, .L310
 226:Drivers/lvgl/src/core/lv_indev_scroll.c ****     switch(dir) {
 3797              		.loc 1 226 5 is_stmt 1 view .LVU1234
 227:Drivers/lvgl/src/core/lv_indev_scroll.c ****         case LV_DIR_VER:
 3798              		.loc 1 227 5 view .LVU1235
 3799 0002 0329     		cmp	r1, #3
 3800 0004 1BD0     		beq	.L302
 3801 0006 0C29     		cmp	r1, #12
 3802 0008 17D1     		bne	.L306
 229:Drivers/lvgl/src/core/lv_indev_scroll.c ****             break;
 3803              		.loc 1 229 13 view .LVU1236
 229:Drivers/lvgl/src/core/lv_indev_scroll.c ****             break;
 3804              		.loc 1 229 15 is_stmt 0 view .LVU1237
 3805 000a B0F92620 		ldrsh	r2, [r0, #38]
 3806              	.LVL369:
 230:Drivers/lvgl/src/core/lv_indev_scroll.c ****         case LV_DIR_HOR:
 3807              		.loc 1 230 13 is_stmt 1 view .LVU1238
 3808              	.L303:
 238:Drivers/lvgl/src/core/lv_indev_scroll.c ****     lv_coord_t sum = 0;
 3809              		.loc 1 238 5 view .LVU1239
 238:Drivers/lvgl/src/core/lv_indev_scroll.c ****     lv_coord_t sum = 0;
 3810              		.loc 1 238 44 is_stmt 0 view .LVU1240
 3811 000e 0368     		ldr	r3, [r0]
 3812 0010 93F819C0 		ldrb	ip, [r3, #25]	@ zero_extendqisi2
 3813              	.LVL370:
 239:Drivers/lvgl/src/core/lv_indev_scroll.c ****     while(v) {
 3814              		.loc 1 239 5 is_stmt 1 view .LVU1241
 240:Drivers/lvgl/src/core/lv_indev_scroll.c ****         sum += v;
 3815              		.loc 1 240 5 view .LVU1242
 240:Drivers/lvgl/src/core/lv_indev_scroll.c ****         sum += v;
 3816              		.loc 1 240 11 view .LVU1243
 3817 0014 8AB1     		cbz	r2, .L306
 224:Drivers/lvgl/src/core/lv_indev_scroll.c ****     if(indev == NULL) return 0;
 3818              		.loc 1 224 1 is_stmt 0 view .LVU1244
 3819 0016 10B5     		push	{r4, lr}
 3820              		.cfi_def_cfa_offset 8
 3821              		.cfi_offset 4, -8
 3822              		.cfi_offset 14, -4
 242:Drivers/lvgl/src/core/lv_indev_scroll.c ****     }
 3823              		.loc 1 242 38 view .LVU1245
 3824 0018 0B4C     		ldr	r4, .L313
 242:Drivers/lvgl/src/core/lv_indev_scroll.c ****     }
 3825              		.loc 1 242 22 view .LVU1246
 3826 001a CCF1640C 		rsb	ip, ip, #100
 239:Drivers/lvgl/src/core/lv_indev_scroll.c ****     while(v) {
 3827              		.loc 1 239 16 view .LVU1247
 3828 001e 0020     		movs	r0, #0
ARM GAS  /var/folders/0z/tsy30v1j4xl4_7kw94k978ww0000gn/T//cc3yoOHj.s 			page 105


 3829              	.LVL371:
 3830              	.L304:
 241:Drivers/lvgl/src/core/lv_indev_scroll.c ****         v = v * (100 - scroll_throw) / 100;
 3831              		.loc 1 241 9 is_stmt 1 view .LVU1248
 242:Drivers/lvgl/src/core/lv_indev_scroll.c ****     }
 3832              		.loc 1 242 15 is_stmt 0 view .LVU1249
 3833 0020 0CFB02F3 		mul	r3, ip, r2
 242:Drivers/lvgl/src/core/lv_indev_scroll.c ****     }
 3834              		.loc 1 242 38 view .LVU1250
 3835 0024 84FB03E1 		smull	lr, r1, r4, r3
 3836 0028 DB17     		asrs	r3, r3, #31
 3837 002a C3EB6113 		rsb	r3, r3, r1, asr #5
 241:Drivers/lvgl/src/core/lv_indev_scroll.c ****         v = v * (100 - scroll_throw) / 100;
 3838              		.loc 1 241 13 view .LVU1251
 3839 002e 1044     		add	r0, r0, r2
 3840              	.LVL372:
 242:Drivers/lvgl/src/core/lv_indev_scroll.c ****     }
 3841              		.loc 1 242 11 view .LVU1252
 3842 0030 1AB2     		sxth	r2, r3
 3843              	.LVL373:
 241:Drivers/lvgl/src/core/lv_indev_scroll.c ****         v = v * (100 - scroll_throw) / 100;
 3844              		.loc 1 241 13 view .LVU1253
 3845 0032 00B2     		sxth	r0, r0
 3846              	.LVL374:
 242:Drivers/lvgl/src/core/lv_indev_scroll.c ****     }
 3847              		.loc 1 242 9 is_stmt 1 view .LVU1254
 240:Drivers/lvgl/src/core/lv_indev_scroll.c ****         sum += v;
 3848              		.loc 1 240 11 view .LVU1255
 3849 0034 002A     		cmp	r2, #0
 3850 0036 F3D1     		bne	.L304
 246:Drivers/lvgl/src/core/lv_indev_scroll.c **** 
 3851              		.loc 1 246 1 is_stmt 0 view .LVU1256
 3852 0038 10BD     		pop	{r4, pc}
 3853              	.LVL375:
 3854              	.L306:
 3855              		.cfi_def_cfa_offset 0
 3856              		.cfi_restore 4
 3857              		.cfi_restore 14
 227:Drivers/lvgl/src/core/lv_indev_scroll.c ****         case LV_DIR_VER:
 3858              		.loc 1 227 5 view .LVU1257
 3859 003a 0020     		movs	r0, #0
 3860              	.LVL376:
 227:Drivers/lvgl/src/core/lv_indev_scroll.c ****         case LV_DIR_VER:
 3861              		.loc 1 227 5 view .LVU1258
 3862 003c 7047     		bx	lr
 3863              	.LVL377:
 3864              	.L302:
 232:Drivers/lvgl/src/core/lv_indev_scroll.c ****             break;
 3865              		.loc 1 232 13 is_stmt 1 view .LVU1259
 232:Drivers/lvgl/src/core/lv_indev_scroll.c ****             break;
 3866              		.loc 1 232 15 is_stmt 0 view .LVU1260
 3867 003e B0F92420 		ldrsh	r2, [r0, #36]
 3868              	.LVL378:
 233:Drivers/lvgl/src/core/lv_indev_scroll.c ****         default:
 3869              		.loc 1 233 13 is_stmt 1 view .LVU1261
 3870 0042 E4E7     		b	.L303
 3871              	.LVL379:
ARM GAS  /var/folders/0z/tsy30v1j4xl4_7kw94k978ww0000gn/T//cc3yoOHj.s 			page 106


 3872              	.L310:
 246:Drivers/lvgl/src/core/lv_indev_scroll.c **** 
 3873              		.loc 1 246 1 is_stmt 0 view .LVU1262
 3874 0044 7047     		bx	lr
 3875              	.L314:
 3876 0046 00BF     		.align	2
 3877              	.L313:
 3878 0048 1F85EB51 		.word	1374389535
 3879              		.cfi_endproc
 3880              	.LFE163:
 3882              		.section	.text.lv_indev_scroll_get_snap_dist,"ax",%progbits
 3883              		.align	1
 3884              		.p2align 2,,3
 3885              		.global	lv_indev_scroll_get_snap_dist
 3886              		.syntax unified
 3887              		.thumb
 3888              		.thumb_func
 3890              	lv_indev_scroll_get_snap_dist:
 3891              	.LVL380:
 3892              	.LFB164:
 249:Drivers/lvgl/src/core/lv_indev_scroll.c ****     p->x = find_snap_point_x(obj, obj->coords.x1, obj->coords.x2, 0);
 3893              		.loc 1 249 1 is_stmt 1 view -0
 3894              		.cfi_startproc
 3895              		@ args = 0, pretend = 0, frame = 0
 3896              		@ frame_needed = 0, uses_anonymous_args = 0
 250:Drivers/lvgl/src/core/lv_indev_scroll.c ****     p->y = find_snap_point_y(obj, obj->coords.y1, obj->coords.y2, 0);
 3897              		.loc 1 250 5 view .LVU1264
 249:Drivers/lvgl/src/core/lv_indev_scroll.c ****     p->x = find_snap_point_x(obj, obj->coords.x1, obj->coords.x2, 0);
 3898              		.loc 1 249 1 is_stmt 0 view .LVU1265
 3899 0000 38B5     		push	{r3, r4, r5, lr}
 3900              		.cfi_def_cfa_offset 16
 3901              		.cfi_offset 3, -16
 3902              		.cfi_offset 4, -12
 3903              		.cfi_offset 5, -8
 3904              		.cfi_offset 14, -4
 250:Drivers/lvgl/src/core/lv_indev_scroll.c ****     p->y = find_snap_point_y(obj, obj->coords.y1, obj->coords.y2, 0);
 3905              		.loc 1 250 12 view .LVU1266
 3906 0002 B0F91820 		ldrsh	r2, [r0, #24]
 249:Drivers/lvgl/src/core/lv_indev_scroll.c ****     p->x = find_snap_point_x(obj, obj->coords.x1, obj->coords.x2, 0);
 3907              		.loc 1 249 1 view .LVU1267
 3908 0006 0D46     		mov	r5, r1
 250:Drivers/lvgl/src/core/lv_indev_scroll.c ****     p->y = find_snap_point_y(obj, obj->coords.y1, obj->coords.y2, 0);
 3909              		.loc 1 250 12 view .LVU1268
 3910 0008 0023     		movs	r3, #0
 3911 000a B0F91410 		ldrsh	r1, [r0, #20]
 3912              	.LVL381:
 249:Drivers/lvgl/src/core/lv_indev_scroll.c ****     p->x = find_snap_point_x(obj, obj->coords.x1, obj->coords.x2, 0);
 3913              		.loc 1 249 1 view .LVU1269
 3914 000e 0446     		mov	r4, r0
 250:Drivers/lvgl/src/core/lv_indev_scroll.c ****     p->y = find_snap_point_y(obj, obj->coords.y1, obj->coords.y2, 0);
 3915              		.loc 1 250 12 view .LVU1270
 3916 0010 FFF7FEFF 		bl	find_snap_point_x
 3917              	.LVL382:
 251:Drivers/lvgl/src/core/lv_indev_scroll.c **** }
 3918              		.loc 1 251 12 view .LVU1271
 3919 0014 B4F91A20 		ldrsh	r2, [r4, #26]
 3920 0018 B4F91610 		ldrsh	r1, [r4, #22]
ARM GAS  /var/folders/0z/tsy30v1j4xl4_7kw94k978ww0000gn/T//cc3yoOHj.s 			page 107


 250:Drivers/lvgl/src/core/lv_indev_scroll.c ****     p->y = find_snap_point_y(obj, obj->coords.y1, obj->coords.y2, 0);
 3921              		.loc 1 250 10 view .LVU1272
 3922 001c 2880     		strh	r0, [r5]	@ movhi
 251:Drivers/lvgl/src/core/lv_indev_scroll.c **** }
 3923              		.loc 1 251 5 is_stmt 1 view .LVU1273
 251:Drivers/lvgl/src/core/lv_indev_scroll.c **** }
 3924              		.loc 1 251 12 is_stmt 0 view .LVU1274
 3925 001e 0023     		movs	r3, #0
 3926 0020 2046     		mov	r0, r4
 3927 0022 FFF7FEFF 		bl	find_snap_point_y
 3928              	.LVL383:
 251:Drivers/lvgl/src/core/lv_indev_scroll.c **** }
 3929              		.loc 1 251 10 view .LVU1275
 3930 0026 6880     		strh	r0, [r5, #2]	@ movhi
 252:Drivers/lvgl/src/core/lv_indev_scroll.c **** 
 3931              		.loc 1 252 1 view .LVU1276
 3932 0028 38BD     		pop	{r3, r4, r5, pc}
 252:Drivers/lvgl/src/core/lv_indev_scroll.c **** 
 3933              		.loc 1 252 1 view .LVU1277
 3934              		.cfi_endproc
 3935              	.LFE164:
 3937 002a 00BF     		.text
 3938              	.Letext0:
 3939              		.file 4 "/Users/johannes/Library/Application Support/Code/User/globalStorage/bmd.stm32-for-vscode/
 3940              		.file 5 "/Users/johannes/Library/Application Support/Code/User/globalStorage/bmd.stm32-for-vscode/
 3941              		.file 6 "/Users/johannes/Library/Application Support/Code/User/globalStorage/bmd.stm32-for-vscode/
 3942              		.file 7 "Drivers/lvgl/src/core/../misc/../font/lv_font.h"
 3943              		.file 8 "Drivers/lvgl/src/core/../misc/lv_types.h"
 3944              		.file 9 "Drivers/lvgl/src/core/../misc/lv_color.h"
 3945              		.file 10 "Drivers/lvgl/src/core/../misc/lv_anim.h"
 3946              		.file 11 "Drivers/lvgl/src/core/../misc/lv_txt.h"
 3947              		.file 12 "Drivers/lvgl/src/core/../misc/lv_bidi.h"
 3948              		.file 13 "Drivers/lvgl/src/core/../misc/lv_style.h"
 3949              		.file 14 "Drivers/lvgl/src/core/../hal/../draw/lv_img_buf.h"
 3950              		.file 15 "Drivers/lvgl/src/core/lv_obj.h"
 3951              		.file 16 "Drivers/lvgl/src/core/../hal/../draw/lv_draw_rect.h"
 3952              		.file 17 "Drivers/lvgl/src/core/../hal/../draw/lv_draw_label.h"
 3953              		.file 18 "Drivers/lvgl/src/core/../hal/../draw/lv_draw_img.h"
 3954              		.file 19 "Drivers/lvgl/src/core/../hal/../draw/lv_draw_line.h"
 3955              		.file 20 "Drivers/lvgl/src/core/../hal/../draw/lv_draw_arc.h"
 3956              		.file 21 "Drivers/lvgl/src/core/../hal/../draw/lv_draw_layer.h"
 3957              		.file 22 "Drivers/lvgl/src/core/../hal/../draw/lv_draw.h"
 3958              		.file 23 "Drivers/lvgl/src/core/../hal/../misc/lv_ll.h"
 3959              		.file 24 "Drivers/lvgl/src/core/../hal/../misc/lv_timer.h"
 3960              		.file 25 "Drivers/lvgl/src/core/../hal/lv_hal_disp.h"
 3961              		.file 26 "Drivers/lvgl/src/core/../hal/lv_hal_indev.h"
 3962              		.file 27 "Drivers/lvgl/src/core/lv_group.h"
 3963              		.file 28 "Drivers/lvgl/src/core/lv_obj_scroll.h"
 3964              		.file 29 "Drivers/lvgl/src/core/lv_obj_style.h"
 3965              		.file 30 "Drivers/lvgl/src/core/lv_obj_class.h"
 3966              		.file 31 "Drivers/lvgl/src/core/lv_event.h"
 3967              		.file 32 "Drivers/lvgl/src/core/lv_obj_tree.h"
 3968              		.file 33 "Drivers/lvgl/src/core/lv_indev.h"
ARM GAS  /var/folders/0z/tsy30v1j4xl4_7kw94k978ww0000gn/T//cc3yoOHj.s 			page 108


DEFINED SYMBOLS
                            *ABS*:0000000000000000 lv_indev_scroll.c
/var/folders/0z/tsy30v1j4xl4_7kw94k978ww0000gn/T//cc3yoOHj.s:20     .text.find_snap_point_y:0000000000000000 $t
/var/folders/0z/tsy30v1j4xl4_7kw94k978ww0000gn/T//cc3yoOHj.s:26     .text.find_snap_point_y:0000000000000000 find_snap_point_y
/var/folders/0z/tsy30v1j4xl4_7kw94k978ww0000gn/T//cc3yoOHj.s:390    .text.find_snap_point_y:000000000000012c $d
/var/folders/0z/tsy30v1j4xl4_7kw94k978ww0000gn/T//cc3yoOHj.s:397    .text.find_snap_point_x:0000000000000000 $t
/var/folders/0z/tsy30v1j4xl4_7kw94k978ww0000gn/T//cc3yoOHj.s:403    .text.find_snap_point_x:0000000000000000 find_snap_point_x
/var/folders/0z/tsy30v1j4xl4_7kw94k978ww0000gn/T//cc3yoOHj.s:764    .text.find_snap_point_x:000000000000012c $d
/var/folders/0z/tsy30v1j4xl4_7kw94k978ww0000gn/T//cc3yoOHj.s:771    .text.elastic_diff.part.0:0000000000000000 $t
/var/folders/0z/tsy30v1j4xl4_7kw94k978ww0000gn/T//cc3yoOHj.s:777    .text.elastic_diff.part.0:0000000000000000 elastic_diff.part.0
/var/folders/0z/tsy30v1j4xl4_7kw94k978ww0000gn/T//cc3yoOHj.s:1263   .text._lv_indev_scroll_handler:0000000000000000 $t
/var/folders/0z/tsy30v1j4xl4_7kw94k978ww0000gn/T//cc3yoOHj.s:1270   .text._lv_indev_scroll_handler:0000000000000000 _lv_indev_scroll_handler
/var/folders/0z/tsy30v1j4xl4_7kw94k978ww0000gn/T//cc3yoOHj.s:2761   .text._lv_indev_scroll_handler:00000000000005cc $d
/var/folders/0z/tsy30v1j4xl4_7kw94k978ww0000gn/T//cc3yoOHj.s:2768   .text._lv_indev_scroll_handler:00000000000005d0 $t
/var/folders/0z/tsy30v1j4xl4_7kw94k978ww0000gn/T//cc3yoOHj.s:2894   .text._lv_indev_scroll_handler:0000000000000660 $d
/var/folders/0z/tsy30v1j4xl4_7kw94k978ww0000gn/T//cc3yoOHj.s:2901   .text._lv_indev_scroll_throw_handler:0000000000000000 $t
/var/folders/0z/tsy30v1j4xl4_7kw94k978ww0000gn/T//cc3yoOHj.s:2908   .text._lv_indev_scroll_throw_handler:0000000000000000 _lv_indev_scroll_throw_handler
/var/folders/0z/tsy30v1j4xl4_7kw94k978ww0000gn/T//cc3yoOHj.s:3771   .text._lv_indev_scroll_throw_handler:0000000000000324 $d
/var/folders/0z/tsy30v1j4xl4_7kw94k978ww0000gn/T//cc3yoOHj.s:3780   .text.lv_indev_scroll_throw_predict:0000000000000000 $t
/var/folders/0z/tsy30v1j4xl4_7kw94k978ww0000gn/T//cc3yoOHj.s:3787   .text.lv_indev_scroll_throw_predict:0000000000000000 lv_indev_scroll_throw_predict
/var/folders/0z/tsy30v1j4xl4_7kw94k978ww0000gn/T//cc3yoOHj.s:3878   .text.lv_indev_scroll_throw_predict:0000000000000048 $d
/var/folders/0z/tsy30v1j4xl4_7kw94k978ww0000gn/T//cc3yoOHj.s:3883   .text.lv_indev_scroll_get_snap_dist:0000000000000000 $t
/var/folders/0z/tsy30v1j4xl4_7kw94k978ww0000gn/T//cc3yoOHj.s:3890   .text.lv_indev_scroll_get_snap_dist:0000000000000000 lv_indev_scroll_get_snap_dist

UNDEFINED SYMBOLS
lv_obj_get_scroll_snap_y
lv_obj_get_style_prop
lv_obj_get_child_cnt
lv_obj_has_flag_any
lv_obj_has_flag
lv_obj_get_scroll_snap_x
lv_indev_get_obj_act
lv_obj_get_parent
lv_point_transform
lv_obj_get_scroll_top
lv_obj_get_scroll_bottom
lv_obj_get_scroll_dir
_lv_obj_scroll_by_raw
lv_obj_get_scroll_right
lv_obj_get_scroll_left
lv_indev_get_act
lv_area_set
lv_event_send
lv_obj_scroll_by
