ARM GAS  /var/folders/lp/x54gwt890xv47sdkqj1k04q40000gn/T//ccfgQDQQ.s 			page 1


   1              		.cpu cortex-m4
   2              		.arch armv7e-m
   3              		.fpu fpv4-sp-d16
   4              		.eabi_attribute 27, 1
   5              		.eabi_attribute 28, 1
   6              		.eabi_attribute 20, 1
   7              		.eabi_attribute 21, 1
   8              		.eabi_attribute 23, 3
   9              		.eabi_attribute 24, 1
  10              		.eabi_attribute 25, 1
  11              		.eabi_attribute 26, 1
  12              		.eabi_attribute 30, 2
  13              		.eabi_attribute 34, 1
  14              		.eabi_attribute 18, 4
  15              		.file	"lv_indev.c"
  16              		.text
  17              	.Ltext0:
  18              		.cfi_sections	.debug_frame
  19              		.file 1 "Drivers/lvgl/src/core/lv_indev.c"
  20              		.section	.text.indev_proc_release,"ax",%progbits
  21              		.align	1
  22              		.p2align 2,,3
  23              		.syntax unified
  24              		.thumb
  25              		.thumb_func
  27              	indev_proc_release:
  28              	.LVL0:
  29              	.LFB191:
   1:Drivers/lvgl/src/core/lv_indev.c **** /**
   2:Drivers/lvgl/src/core/lv_indev.c ****  * @file lv_indev.c
   3:Drivers/lvgl/src/core/lv_indev.c ****  *
   4:Drivers/lvgl/src/core/lv_indev.c ****  */
   5:Drivers/lvgl/src/core/lv_indev.c **** 
   6:Drivers/lvgl/src/core/lv_indev.c **** /*********************
   7:Drivers/lvgl/src/core/lv_indev.c ****  *      INCLUDES
   8:Drivers/lvgl/src/core/lv_indev.c ****  ********************/
   9:Drivers/lvgl/src/core/lv_indev.c **** #include "lv_indev.h"
  10:Drivers/lvgl/src/core/lv_indev.c **** #include "lv_disp.h"
  11:Drivers/lvgl/src/core/lv_indev.c **** #include "lv_obj.h"
  12:Drivers/lvgl/src/core/lv_indev.c **** #include "lv_indev_scroll.h"
  13:Drivers/lvgl/src/core/lv_indev.c **** #include "lv_group.h"
  14:Drivers/lvgl/src/core/lv_indev.c **** #include "lv_refr.h"
  15:Drivers/lvgl/src/core/lv_indev.c **** 
  16:Drivers/lvgl/src/core/lv_indev.c **** #include "../hal/lv_hal_tick.h"
  17:Drivers/lvgl/src/core/lv_indev.c **** #include "../misc/lv_timer.h"
  18:Drivers/lvgl/src/core/lv_indev.c **** #include "../misc/lv_math.h"
  19:Drivers/lvgl/src/core/lv_indev.c **** 
  20:Drivers/lvgl/src/core/lv_indev.c **** /*********************
  21:Drivers/lvgl/src/core/lv_indev.c ****  *      DEFINES
  22:Drivers/lvgl/src/core/lv_indev.c ****  *********************/
  23:Drivers/lvgl/src/core/lv_indev.c **** #if LV_INDEV_DEF_SCROLL_THROW <= 0
  24:Drivers/lvgl/src/core/lv_indev.c ****     #warning "LV_INDEV_DRAG_THROW must be greater than 0"
  25:Drivers/lvgl/src/core/lv_indev.c **** #endif
  26:Drivers/lvgl/src/core/lv_indev.c **** 
  27:Drivers/lvgl/src/core/lv_indev.c **** /**********************
  28:Drivers/lvgl/src/core/lv_indev.c ****  *      TYPEDEFS
  29:Drivers/lvgl/src/core/lv_indev.c ****  **********************/
ARM GAS  /var/folders/lp/x54gwt890xv47sdkqj1k04q40000gn/T//ccfgQDQQ.s 			page 2


  30:Drivers/lvgl/src/core/lv_indev.c **** 
  31:Drivers/lvgl/src/core/lv_indev.c **** /**********************
  32:Drivers/lvgl/src/core/lv_indev.c ****  *  STATIC PROTOTYPES
  33:Drivers/lvgl/src/core/lv_indev.c ****  **********************/
  34:Drivers/lvgl/src/core/lv_indev.c **** static void indev_pointer_proc(lv_indev_t * i, lv_indev_data_t * data);
  35:Drivers/lvgl/src/core/lv_indev.c **** static void indev_keypad_proc(lv_indev_t * i, lv_indev_data_t * data);
  36:Drivers/lvgl/src/core/lv_indev.c **** static void indev_encoder_proc(lv_indev_t * i, lv_indev_data_t * data);
  37:Drivers/lvgl/src/core/lv_indev.c **** static void indev_button_proc(lv_indev_t * i, lv_indev_data_t * data);
  38:Drivers/lvgl/src/core/lv_indev.c **** static void indev_proc_press(_lv_indev_proc_t * proc);
  39:Drivers/lvgl/src/core/lv_indev.c **** static void indev_proc_release(_lv_indev_proc_t * proc);
  40:Drivers/lvgl/src/core/lv_indev.c **** static void indev_proc_reset_query_handler(lv_indev_t * indev);
  41:Drivers/lvgl/src/core/lv_indev.c **** static void indev_click_focus(_lv_indev_proc_t * proc);
  42:Drivers/lvgl/src/core/lv_indev.c **** static void indev_gesture(_lv_indev_proc_t * proc);
  43:Drivers/lvgl/src/core/lv_indev.c **** static bool indev_reset_check(_lv_indev_proc_t * proc);
  44:Drivers/lvgl/src/core/lv_indev.c **** 
  45:Drivers/lvgl/src/core/lv_indev.c **** /**********************
  46:Drivers/lvgl/src/core/lv_indev.c ****  *  STATIC VARIABLES
  47:Drivers/lvgl/src/core/lv_indev.c ****  **********************/
  48:Drivers/lvgl/src/core/lv_indev.c **** static lv_indev_t * indev_act;
  49:Drivers/lvgl/src/core/lv_indev.c **** static lv_obj_t * indev_obj_act = NULL;
  50:Drivers/lvgl/src/core/lv_indev.c **** 
  51:Drivers/lvgl/src/core/lv_indev.c **** /**********************
  52:Drivers/lvgl/src/core/lv_indev.c ****  *      MACROS
  53:Drivers/lvgl/src/core/lv_indev.c ****  **********************/
  54:Drivers/lvgl/src/core/lv_indev.c **** #if LV_LOG_TRACE_INDEV
  55:Drivers/lvgl/src/core/lv_indev.c ****     #define INDEV_TRACE(...) LV_LOG_TRACE(__VA_ARGS__)
  56:Drivers/lvgl/src/core/lv_indev.c **** #else
  57:Drivers/lvgl/src/core/lv_indev.c ****     #define INDEV_TRACE(...)
  58:Drivers/lvgl/src/core/lv_indev.c **** #endif
  59:Drivers/lvgl/src/core/lv_indev.c **** 
  60:Drivers/lvgl/src/core/lv_indev.c **** /**********************
  61:Drivers/lvgl/src/core/lv_indev.c ****  *   GLOBAL FUNCTIONS
  62:Drivers/lvgl/src/core/lv_indev.c ****  **********************/
  63:Drivers/lvgl/src/core/lv_indev.c **** 
  64:Drivers/lvgl/src/core/lv_indev.c **** void lv_indev_read_timer_cb(lv_timer_t * timer)
  65:Drivers/lvgl/src/core/lv_indev.c **** {
  66:Drivers/lvgl/src/core/lv_indev.c ****     INDEV_TRACE("begin");
  67:Drivers/lvgl/src/core/lv_indev.c **** 
  68:Drivers/lvgl/src/core/lv_indev.c ****     lv_indev_data_t data;
  69:Drivers/lvgl/src/core/lv_indev.c **** 
  70:Drivers/lvgl/src/core/lv_indev.c ****     indev_act = timer->user_data;
  71:Drivers/lvgl/src/core/lv_indev.c **** 
  72:Drivers/lvgl/src/core/lv_indev.c ****     /*Read and process all indevs*/
  73:Drivers/lvgl/src/core/lv_indev.c ****     if(indev_act->driver->disp == NULL) return; /*Not assigned to any displays*/
  74:Drivers/lvgl/src/core/lv_indev.c **** 
  75:Drivers/lvgl/src/core/lv_indev.c ****     /*Handle reset query before processing the point*/
  76:Drivers/lvgl/src/core/lv_indev.c ****     indev_proc_reset_query_handler(indev_act);
  77:Drivers/lvgl/src/core/lv_indev.c **** 
  78:Drivers/lvgl/src/core/lv_indev.c ****     if(indev_act->proc.disabled ||
  79:Drivers/lvgl/src/core/lv_indev.c ****        indev_act->driver->disp->prev_scr != NULL) return; /*Input disabled or screen animation acti
  80:Drivers/lvgl/src/core/lv_indev.c ****     bool continue_reading;
  81:Drivers/lvgl/src/core/lv_indev.c ****     do {
  82:Drivers/lvgl/src/core/lv_indev.c ****         /*Read the data*/
  83:Drivers/lvgl/src/core/lv_indev.c ****         _lv_indev_read(indev_act, &data);
  84:Drivers/lvgl/src/core/lv_indev.c ****         continue_reading = data.continue_reading;
  85:Drivers/lvgl/src/core/lv_indev.c **** 
  86:Drivers/lvgl/src/core/lv_indev.c ****         /*The active object might be deleted even in the read function*/
ARM GAS  /var/folders/lp/x54gwt890xv47sdkqj1k04q40000gn/T//ccfgQDQQ.s 			page 3


  87:Drivers/lvgl/src/core/lv_indev.c ****         indev_proc_reset_query_handler(indev_act);
  88:Drivers/lvgl/src/core/lv_indev.c ****         indev_obj_act = NULL;
  89:Drivers/lvgl/src/core/lv_indev.c **** 
  90:Drivers/lvgl/src/core/lv_indev.c ****         indev_act->proc.state = data.state;
  91:Drivers/lvgl/src/core/lv_indev.c **** 
  92:Drivers/lvgl/src/core/lv_indev.c ****         /*Save the last activity time*/
  93:Drivers/lvgl/src/core/lv_indev.c ****         if(indev_act->proc.state == LV_INDEV_STATE_PRESSED) {
  94:Drivers/lvgl/src/core/lv_indev.c ****             indev_act->driver->disp->last_activity_time = lv_tick_get();
  95:Drivers/lvgl/src/core/lv_indev.c ****         }
  96:Drivers/lvgl/src/core/lv_indev.c ****         else if(indev_act->driver->type == LV_INDEV_TYPE_ENCODER && data.enc_diff) {
  97:Drivers/lvgl/src/core/lv_indev.c ****             indev_act->driver->disp->last_activity_time = lv_tick_get();
  98:Drivers/lvgl/src/core/lv_indev.c ****         }
  99:Drivers/lvgl/src/core/lv_indev.c **** 
 100:Drivers/lvgl/src/core/lv_indev.c ****         if(indev_act->driver->type == LV_INDEV_TYPE_POINTER) {
 101:Drivers/lvgl/src/core/lv_indev.c ****             indev_pointer_proc(indev_act, &data);
 102:Drivers/lvgl/src/core/lv_indev.c ****         }
 103:Drivers/lvgl/src/core/lv_indev.c ****         else if(indev_act->driver->type == LV_INDEV_TYPE_KEYPAD) {
 104:Drivers/lvgl/src/core/lv_indev.c ****             indev_keypad_proc(indev_act, &data);
 105:Drivers/lvgl/src/core/lv_indev.c ****         }
 106:Drivers/lvgl/src/core/lv_indev.c ****         else if(indev_act->driver->type == LV_INDEV_TYPE_ENCODER) {
 107:Drivers/lvgl/src/core/lv_indev.c ****             indev_encoder_proc(indev_act, &data);
 108:Drivers/lvgl/src/core/lv_indev.c ****         }
 109:Drivers/lvgl/src/core/lv_indev.c ****         else if(indev_act->driver->type == LV_INDEV_TYPE_BUTTON) {
 110:Drivers/lvgl/src/core/lv_indev.c ****             indev_button_proc(indev_act, &data);
 111:Drivers/lvgl/src/core/lv_indev.c ****         }
 112:Drivers/lvgl/src/core/lv_indev.c ****         /*Handle reset query if it happened in during processing*/
 113:Drivers/lvgl/src/core/lv_indev.c ****         indev_proc_reset_query_handler(indev_act);
 114:Drivers/lvgl/src/core/lv_indev.c ****     } while(continue_reading);
 115:Drivers/lvgl/src/core/lv_indev.c **** 
 116:Drivers/lvgl/src/core/lv_indev.c ****     /*End of indev processing, so no act indev*/
 117:Drivers/lvgl/src/core/lv_indev.c ****     indev_act     = NULL;
 118:Drivers/lvgl/src/core/lv_indev.c ****     indev_obj_act = NULL;
 119:Drivers/lvgl/src/core/lv_indev.c **** 
 120:Drivers/lvgl/src/core/lv_indev.c ****     INDEV_TRACE("finished");
 121:Drivers/lvgl/src/core/lv_indev.c **** }
 122:Drivers/lvgl/src/core/lv_indev.c **** 
 123:Drivers/lvgl/src/core/lv_indev.c **** void lv_indev_enable(lv_indev_t * indev, bool en)
 124:Drivers/lvgl/src/core/lv_indev.c **** {
 125:Drivers/lvgl/src/core/lv_indev.c ****     uint8_t enable = en ? 0 : 1;
 126:Drivers/lvgl/src/core/lv_indev.c **** 
 127:Drivers/lvgl/src/core/lv_indev.c ****     if(indev) {
 128:Drivers/lvgl/src/core/lv_indev.c ****         indev->proc.disabled = enable;
 129:Drivers/lvgl/src/core/lv_indev.c ****     }
 130:Drivers/lvgl/src/core/lv_indev.c ****     else {
 131:Drivers/lvgl/src/core/lv_indev.c ****         lv_indev_t * i = lv_indev_get_next(NULL);
 132:Drivers/lvgl/src/core/lv_indev.c ****         while(i) {
 133:Drivers/lvgl/src/core/lv_indev.c ****             i->proc.disabled = enable;
 134:Drivers/lvgl/src/core/lv_indev.c ****             i = lv_indev_get_next(i);
 135:Drivers/lvgl/src/core/lv_indev.c ****         }
 136:Drivers/lvgl/src/core/lv_indev.c ****     }
 137:Drivers/lvgl/src/core/lv_indev.c **** }
 138:Drivers/lvgl/src/core/lv_indev.c **** 
 139:Drivers/lvgl/src/core/lv_indev.c **** lv_indev_t * lv_indev_get_act(void)
 140:Drivers/lvgl/src/core/lv_indev.c **** {
 141:Drivers/lvgl/src/core/lv_indev.c ****     return indev_act;
 142:Drivers/lvgl/src/core/lv_indev.c **** }
 143:Drivers/lvgl/src/core/lv_indev.c **** 
ARM GAS  /var/folders/lp/x54gwt890xv47sdkqj1k04q40000gn/T//ccfgQDQQ.s 			page 4


 144:Drivers/lvgl/src/core/lv_indev.c **** lv_indev_type_t lv_indev_get_type(const lv_indev_t * indev)
 145:Drivers/lvgl/src/core/lv_indev.c **** {
 146:Drivers/lvgl/src/core/lv_indev.c ****     if(indev == NULL) return LV_INDEV_TYPE_NONE;
 147:Drivers/lvgl/src/core/lv_indev.c **** 
 148:Drivers/lvgl/src/core/lv_indev.c ****     return indev->driver->type;
 149:Drivers/lvgl/src/core/lv_indev.c **** }
 150:Drivers/lvgl/src/core/lv_indev.c **** 
 151:Drivers/lvgl/src/core/lv_indev.c **** void lv_indev_reset(lv_indev_t * indev, lv_obj_t * obj)
 152:Drivers/lvgl/src/core/lv_indev.c **** {
 153:Drivers/lvgl/src/core/lv_indev.c ****     if(indev) {
 154:Drivers/lvgl/src/core/lv_indev.c ****         indev->proc.reset_query = 1;
 155:Drivers/lvgl/src/core/lv_indev.c ****         if(indev_act == indev) indev_obj_act = NULL;
 156:Drivers/lvgl/src/core/lv_indev.c ****         if(indev->driver->type == LV_INDEV_TYPE_POINTER || indev->driver->type == LV_INDEV_TYPE_KEY
 157:Drivers/lvgl/src/core/lv_indev.c ****             if(obj == NULL || indev->proc.types.pointer.last_pressed == obj) {
 158:Drivers/lvgl/src/core/lv_indev.c ****                 indev->proc.types.pointer.last_pressed = NULL;
 159:Drivers/lvgl/src/core/lv_indev.c ****             }
 160:Drivers/lvgl/src/core/lv_indev.c ****             if(obj == NULL || indev->proc.types.pointer.act_obj == obj) {
 161:Drivers/lvgl/src/core/lv_indev.c ****                 indev->proc.types.pointer.act_obj = NULL;
 162:Drivers/lvgl/src/core/lv_indev.c ****             }
 163:Drivers/lvgl/src/core/lv_indev.c ****             if(obj == NULL || indev->proc.types.pointer.last_obj == obj) {
 164:Drivers/lvgl/src/core/lv_indev.c ****                 indev->proc.types.pointer.last_obj = NULL;
 165:Drivers/lvgl/src/core/lv_indev.c ****             }
 166:Drivers/lvgl/src/core/lv_indev.c ****         }
 167:Drivers/lvgl/src/core/lv_indev.c ****     }
 168:Drivers/lvgl/src/core/lv_indev.c ****     else {
 169:Drivers/lvgl/src/core/lv_indev.c ****         lv_indev_t * i = lv_indev_get_next(NULL);
 170:Drivers/lvgl/src/core/lv_indev.c ****         while(i) {
 171:Drivers/lvgl/src/core/lv_indev.c ****             i->proc.reset_query = 1;
 172:Drivers/lvgl/src/core/lv_indev.c ****             if(i->driver->type == LV_INDEV_TYPE_POINTER || i->driver->type == LV_INDEV_TYPE_KEYPAD)
 173:Drivers/lvgl/src/core/lv_indev.c ****                 if(obj == NULL || i->proc.types.pointer.last_pressed == obj) {
 174:Drivers/lvgl/src/core/lv_indev.c ****                     i->proc.types.pointer.last_pressed = NULL;
 175:Drivers/lvgl/src/core/lv_indev.c ****                 }
 176:Drivers/lvgl/src/core/lv_indev.c ****                 if(obj == NULL || i->proc.types.pointer.act_obj == obj) {
 177:Drivers/lvgl/src/core/lv_indev.c ****                     i->proc.types.pointer.act_obj = NULL;
 178:Drivers/lvgl/src/core/lv_indev.c ****                 }
 179:Drivers/lvgl/src/core/lv_indev.c ****                 if(obj == NULL || i->proc.types.pointer.last_obj == obj) {
 180:Drivers/lvgl/src/core/lv_indev.c ****                     i->proc.types.pointer.last_obj = NULL;
 181:Drivers/lvgl/src/core/lv_indev.c ****                 }
 182:Drivers/lvgl/src/core/lv_indev.c ****             }
 183:Drivers/lvgl/src/core/lv_indev.c ****             i = lv_indev_get_next(i);
 184:Drivers/lvgl/src/core/lv_indev.c ****         }
 185:Drivers/lvgl/src/core/lv_indev.c ****         indev_obj_act = NULL;
 186:Drivers/lvgl/src/core/lv_indev.c ****     }
 187:Drivers/lvgl/src/core/lv_indev.c **** }
 188:Drivers/lvgl/src/core/lv_indev.c **** 
 189:Drivers/lvgl/src/core/lv_indev.c **** void lv_indev_reset_long_press(lv_indev_t * indev)
 190:Drivers/lvgl/src/core/lv_indev.c **** {
 191:Drivers/lvgl/src/core/lv_indev.c ****     indev->proc.long_pr_sent         = 0;
 192:Drivers/lvgl/src/core/lv_indev.c ****     indev->proc.longpr_rep_timestamp = lv_tick_get();
 193:Drivers/lvgl/src/core/lv_indev.c ****     indev->proc.pr_timestamp         = lv_tick_get();
 194:Drivers/lvgl/src/core/lv_indev.c **** }
 195:Drivers/lvgl/src/core/lv_indev.c **** 
 196:Drivers/lvgl/src/core/lv_indev.c **** void lv_indev_set_cursor(lv_indev_t * indev, lv_obj_t * cur_obj)
 197:Drivers/lvgl/src/core/lv_indev.c **** {
 198:Drivers/lvgl/src/core/lv_indev.c ****     if(indev->driver->type != LV_INDEV_TYPE_POINTER) return;
 199:Drivers/lvgl/src/core/lv_indev.c **** 
 200:Drivers/lvgl/src/core/lv_indev.c ****     indev->cursor = cur_obj;
ARM GAS  /var/folders/lp/x54gwt890xv47sdkqj1k04q40000gn/T//ccfgQDQQ.s 			page 5


 201:Drivers/lvgl/src/core/lv_indev.c ****     lv_obj_set_parent(indev->cursor, lv_disp_get_layer_sys(indev->driver->disp));
 202:Drivers/lvgl/src/core/lv_indev.c ****     lv_obj_set_pos(indev->cursor, indev->proc.types.pointer.act_point.x, indev->proc.types.pointer.
 203:Drivers/lvgl/src/core/lv_indev.c ****     lv_obj_clear_flag(indev->cursor, LV_OBJ_FLAG_CLICKABLE);
 204:Drivers/lvgl/src/core/lv_indev.c ****     lv_obj_add_flag(indev->cursor, LV_OBJ_FLAG_IGNORE_LAYOUT | LV_OBJ_FLAG_FLOATING);
 205:Drivers/lvgl/src/core/lv_indev.c **** }
 206:Drivers/lvgl/src/core/lv_indev.c **** 
 207:Drivers/lvgl/src/core/lv_indev.c **** void lv_indev_set_group(lv_indev_t * indev, lv_group_t * group)
 208:Drivers/lvgl/src/core/lv_indev.c **** {
 209:Drivers/lvgl/src/core/lv_indev.c ****     if(indev->driver->type == LV_INDEV_TYPE_KEYPAD || indev->driver->type == LV_INDEV_TYPE_ENCODER)
 210:Drivers/lvgl/src/core/lv_indev.c ****         indev->group = group;
 211:Drivers/lvgl/src/core/lv_indev.c ****     }
 212:Drivers/lvgl/src/core/lv_indev.c **** }
 213:Drivers/lvgl/src/core/lv_indev.c **** 
 214:Drivers/lvgl/src/core/lv_indev.c **** void lv_indev_set_button_points(lv_indev_t * indev, const lv_point_t points[])
 215:Drivers/lvgl/src/core/lv_indev.c **** {
 216:Drivers/lvgl/src/core/lv_indev.c ****     if(indev->driver->type == LV_INDEV_TYPE_BUTTON) {
 217:Drivers/lvgl/src/core/lv_indev.c ****         indev->btn_points = points;
 218:Drivers/lvgl/src/core/lv_indev.c ****     }
 219:Drivers/lvgl/src/core/lv_indev.c **** }
 220:Drivers/lvgl/src/core/lv_indev.c **** 
 221:Drivers/lvgl/src/core/lv_indev.c **** void lv_indev_get_point(const lv_indev_t * indev, lv_point_t * point)
 222:Drivers/lvgl/src/core/lv_indev.c **** {
 223:Drivers/lvgl/src/core/lv_indev.c ****     if(indev == NULL) {
 224:Drivers/lvgl/src/core/lv_indev.c ****         point->x = 0;
 225:Drivers/lvgl/src/core/lv_indev.c ****         point->y = 0;
 226:Drivers/lvgl/src/core/lv_indev.c ****         return;
 227:Drivers/lvgl/src/core/lv_indev.c ****     }
 228:Drivers/lvgl/src/core/lv_indev.c ****     if(indev->driver->type != LV_INDEV_TYPE_POINTER && indev->driver->type != LV_INDEV_TYPE_BUTTON)
 229:Drivers/lvgl/src/core/lv_indev.c ****         point->x = -1;
 230:Drivers/lvgl/src/core/lv_indev.c ****         point->y = -1;
 231:Drivers/lvgl/src/core/lv_indev.c ****     }
 232:Drivers/lvgl/src/core/lv_indev.c ****     else {
 233:Drivers/lvgl/src/core/lv_indev.c ****         point->x = indev->proc.types.pointer.act_point.x;
 234:Drivers/lvgl/src/core/lv_indev.c ****         point->y = indev->proc.types.pointer.act_point.y;
 235:Drivers/lvgl/src/core/lv_indev.c ****     }
 236:Drivers/lvgl/src/core/lv_indev.c **** }
 237:Drivers/lvgl/src/core/lv_indev.c **** 
 238:Drivers/lvgl/src/core/lv_indev.c **** lv_dir_t lv_indev_get_gesture_dir(const lv_indev_t * indev)
 239:Drivers/lvgl/src/core/lv_indev.c **** {
 240:Drivers/lvgl/src/core/lv_indev.c ****     return indev->proc.types.pointer.gesture_dir;
 241:Drivers/lvgl/src/core/lv_indev.c **** }
 242:Drivers/lvgl/src/core/lv_indev.c **** 
 243:Drivers/lvgl/src/core/lv_indev.c **** uint32_t lv_indev_get_key(const lv_indev_t * indev)
 244:Drivers/lvgl/src/core/lv_indev.c **** {
 245:Drivers/lvgl/src/core/lv_indev.c ****     if(indev->driver->type != LV_INDEV_TYPE_KEYPAD)
 246:Drivers/lvgl/src/core/lv_indev.c ****         return 0;
 247:Drivers/lvgl/src/core/lv_indev.c ****     else
 248:Drivers/lvgl/src/core/lv_indev.c ****         return indev->proc.types.keypad.last_key;
 249:Drivers/lvgl/src/core/lv_indev.c **** }
 250:Drivers/lvgl/src/core/lv_indev.c **** 
 251:Drivers/lvgl/src/core/lv_indev.c **** lv_dir_t lv_indev_get_scroll_dir(const lv_indev_t * indev)
 252:Drivers/lvgl/src/core/lv_indev.c **** {
 253:Drivers/lvgl/src/core/lv_indev.c ****     if(indev == NULL) return false;
 254:Drivers/lvgl/src/core/lv_indev.c ****     if(indev->driver->type != LV_INDEV_TYPE_POINTER && indev->driver->type != LV_INDEV_TYPE_BUTTON)
 255:Drivers/lvgl/src/core/lv_indev.c ****     return indev->proc.types.pointer.scroll_dir;
 256:Drivers/lvgl/src/core/lv_indev.c **** }
 257:Drivers/lvgl/src/core/lv_indev.c **** 
ARM GAS  /var/folders/lp/x54gwt890xv47sdkqj1k04q40000gn/T//ccfgQDQQ.s 			page 6


 258:Drivers/lvgl/src/core/lv_indev.c **** lv_obj_t * lv_indev_get_scroll_obj(const lv_indev_t * indev)
 259:Drivers/lvgl/src/core/lv_indev.c **** {
 260:Drivers/lvgl/src/core/lv_indev.c ****     if(indev == NULL) return NULL;
 261:Drivers/lvgl/src/core/lv_indev.c ****     if(indev->driver->type != LV_INDEV_TYPE_POINTER && indev->driver->type != LV_INDEV_TYPE_BUTTON)
 262:Drivers/lvgl/src/core/lv_indev.c ****     return indev->proc.types.pointer.scroll_obj;
 263:Drivers/lvgl/src/core/lv_indev.c **** }
 264:Drivers/lvgl/src/core/lv_indev.c **** 
 265:Drivers/lvgl/src/core/lv_indev.c **** void lv_indev_get_vect(const lv_indev_t * indev, lv_point_t * point)
 266:Drivers/lvgl/src/core/lv_indev.c **** {
 267:Drivers/lvgl/src/core/lv_indev.c ****     point->x = 0;
 268:Drivers/lvgl/src/core/lv_indev.c ****     point->y = 0;
 269:Drivers/lvgl/src/core/lv_indev.c **** 
 270:Drivers/lvgl/src/core/lv_indev.c ****     if(indev == NULL) return;
 271:Drivers/lvgl/src/core/lv_indev.c **** 
 272:Drivers/lvgl/src/core/lv_indev.c ****     if(indev->driver->type == LV_INDEV_TYPE_POINTER || indev->driver->type == LV_INDEV_TYPE_BUTTON)
 273:Drivers/lvgl/src/core/lv_indev.c ****         point->x = indev->proc.types.pointer.vect.x;
 274:Drivers/lvgl/src/core/lv_indev.c ****         point->y = indev->proc.types.pointer.vect.y;
 275:Drivers/lvgl/src/core/lv_indev.c ****     }
 276:Drivers/lvgl/src/core/lv_indev.c **** }
 277:Drivers/lvgl/src/core/lv_indev.c **** 
 278:Drivers/lvgl/src/core/lv_indev.c **** void lv_indev_wait_release(lv_indev_t * indev)
 279:Drivers/lvgl/src/core/lv_indev.c **** {
 280:Drivers/lvgl/src/core/lv_indev.c ****     if(indev == NULL)return;
 281:Drivers/lvgl/src/core/lv_indev.c ****     indev->proc.wait_until_release = 1;
 282:Drivers/lvgl/src/core/lv_indev.c **** }
 283:Drivers/lvgl/src/core/lv_indev.c **** 
 284:Drivers/lvgl/src/core/lv_indev.c **** lv_obj_t * lv_indev_get_obj_act(void)
 285:Drivers/lvgl/src/core/lv_indev.c **** {
 286:Drivers/lvgl/src/core/lv_indev.c ****     return indev_obj_act;
 287:Drivers/lvgl/src/core/lv_indev.c **** }
 288:Drivers/lvgl/src/core/lv_indev.c **** 
 289:Drivers/lvgl/src/core/lv_indev.c **** lv_timer_t * lv_indev_get_read_timer(lv_disp_t * indev)
 290:Drivers/lvgl/src/core/lv_indev.c **** {
 291:Drivers/lvgl/src/core/lv_indev.c ****     if(!indev) {
 292:Drivers/lvgl/src/core/lv_indev.c ****         LV_LOG_WARN("lv_indev_get_read_timer: indev was NULL");
 293:Drivers/lvgl/src/core/lv_indev.c ****         return NULL;
 294:Drivers/lvgl/src/core/lv_indev.c ****     }
 295:Drivers/lvgl/src/core/lv_indev.c **** 
 296:Drivers/lvgl/src/core/lv_indev.c ****     return indev->refr_timer;
 297:Drivers/lvgl/src/core/lv_indev.c **** }
 298:Drivers/lvgl/src/core/lv_indev.c **** 
 299:Drivers/lvgl/src/core/lv_indev.c **** 
 300:Drivers/lvgl/src/core/lv_indev.c **** lv_obj_t * lv_indev_search_obj(lv_obj_t * obj, lv_point_t * point)
 301:Drivers/lvgl/src/core/lv_indev.c **** {
 302:Drivers/lvgl/src/core/lv_indev.c ****     lv_obj_t * found_p = NULL;
 303:Drivers/lvgl/src/core/lv_indev.c **** 
 304:Drivers/lvgl/src/core/lv_indev.c ****     /*If this obj is hidden the children are hidden too so return immediately*/
 305:Drivers/lvgl/src/core/lv_indev.c ****     if(lv_obj_has_flag(obj, LV_OBJ_FLAG_HIDDEN)) return NULL;
 306:Drivers/lvgl/src/core/lv_indev.c **** 
 307:Drivers/lvgl/src/core/lv_indev.c ****     lv_point_t p_trans = *point;
 308:Drivers/lvgl/src/core/lv_indev.c ****     lv_obj_transform_point(obj, &p_trans, false, true);
 309:Drivers/lvgl/src/core/lv_indev.c **** 
 310:Drivers/lvgl/src/core/lv_indev.c ****     bool hit_test_ok = lv_obj_hit_test(obj, &p_trans);
 311:Drivers/lvgl/src/core/lv_indev.c **** 
 312:Drivers/lvgl/src/core/lv_indev.c ****     /*If the point is on this object or has overflow visible check its children too*/
 313:Drivers/lvgl/src/core/lv_indev.c ****     if(_lv_area_is_point_on(&obj->coords, &p_trans, 0) || lv_obj_has_flag(obj, LV_OBJ_FLAG_OVERFLOW
 314:Drivers/lvgl/src/core/lv_indev.c ****         int32_t i;
ARM GAS  /var/folders/lp/x54gwt890xv47sdkqj1k04q40000gn/T//ccfgQDQQ.s 			page 7


 315:Drivers/lvgl/src/core/lv_indev.c ****         uint32_t child_cnt = lv_obj_get_child_cnt(obj);
 316:Drivers/lvgl/src/core/lv_indev.c **** 
 317:Drivers/lvgl/src/core/lv_indev.c ****         /*If a child matches use it*/
 318:Drivers/lvgl/src/core/lv_indev.c ****         for(i = child_cnt - 1; i >= 0; i--) {
 319:Drivers/lvgl/src/core/lv_indev.c ****             lv_obj_t * child = obj->spec_attr->children[i];
 320:Drivers/lvgl/src/core/lv_indev.c ****             found_p = lv_indev_search_obj(child, &p_trans);
 321:Drivers/lvgl/src/core/lv_indev.c ****             if(found_p) return found_p;
 322:Drivers/lvgl/src/core/lv_indev.c ****         }
 323:Drivers/lvgl/src/core/lv_indev.c ****     }
 324:Drivers/lvgl/src/core/lv_indev.c **** 
 325:Drivers/lvgl/src/core/lv_indev.c ****     /*If not return earlier for a clicked child and this obj's hittest was ok use it
 326:Drivers/lvgl/src/core/lv_indev.c ****      *else return NULL*/
 327:Drivers/lvgl/src/core/lv_indev.c ****     if(hit_test_ok) return obj;
 328:Drivers/lvgl/src/core/lv_indev.c ****     else return NULL;
 329:Drivers/lvgl/src/core/lv_indev.c **** }
 330:Drivers/lvgl/src/core/lv_indev.c **** 
 331:Drivers/lvgl/src/core/lv_indev.c **** /**********************
 332:Drivers/lvgl/src/core/lv_indev.c ****  *   STATIC FUNCTIONS
 333:Drivers/lvgl/src/core/lv_indev.c ****  **********************/
 334:Drivers/lvgl/src/core/lv_indev.c **** 
 335:Drivers/lvgl/src/core/lv_indev.c **** /**
 336:Drivers/lvgl/src/core/lv_indev.c ****  * Process a new point from LV_INDEV_TYPE_POINTER input device
 337:Drivers/lvgl/src/core/lv_indev.c ****  * @param i pointer to an input device
 338:Drivers/lvgl/src/core/lv_indev.c ****  * @param data pointer to the data read from the input device
 339:Drivers/lvgl/src/core/lv_indev.c ****  */
 340:Drivers/lvgl/src/core/lv_indev.c **** static void indev_pointer_proc(lv_indev_t * i, lv_indev_data_t * data)
 341:Drivers/lvgl/src/core/lv_indev.c **** {
 342:Drivers/lvgl/src/core/lv_indev.c ****     lv_disp_t * disp = i->driver->disp;
 343:Drivers/lvgl/src/core/lv_indev.c ****     /*Save the raw points so they can be used again in _lv_indev_read*/
 344:Drivers/lvgl/src/core/lv_indev.c ****     i->proc.types.pointer.last_raw_point.x = data->point.x;
 345:Drivers/lvgl/src/core/lv_indev.c ****     i->proc.types.pointer.last_raw_point.y = data->point.y;
 346:Drivers/lvgl/src/core/lv_indev.c **** 
 347:Drivers/lvgl/src/core/lv_indev.c ****     if(disp->driver->rotated == LV_DISP_ROT_180 || disp->driver->rotated == LV_DISP_ROT_270) {
 348:Drivers/lvgl/src/core/lv_indev.c ****         data->point.x = disp->driver->hor_res - data->point.x - 1;
 349:Drivers/lvgl/src/core/lv_indev.c ****         data->point.y = disp->driver->ver_res - data->point.y - 1;
 350:Drivers/lvgl/src/core/lv_indev.c ****     }
 351:Drivers/lvgl/src/core/lv_indev.c ****     if(disp->driver->rotated == LV_DISP_ROT_90 || disp->driver->rotated == LV_DISP_ROT_270) {
 352:Drivers/lvgl/src/core/lv_indev.c ****         lv_coord_t tmp = data->point.y;
 353:Drivers/lvgl/src/core/lv_indev.c ****         data->point.y = data->point.x;
 354:Drivers/lvgl/src/core/lv_indev.c ****         data->point.x = disp->driver->ver_res - tmp - 1;
 355:Drivers/lvgl/src/core/lv_indev.c ****     }
 356:Drivers/lvgl/src/core/lv_indev.c **** 
 357:Drivers/lvgl/src/core/lv_indev.c ****     /*Simple sanity check*/
 358:Drivers/lvgl/src/core/lv_indev.c ****     if(data->point.x < 0) {
 359:Drivers/lvgl/src/core/lv_indev.c ****         LV_LOG_WARN("X is %d which is smaller than zero", (int)data->point.x);
 360:Drivers/lvgl/src/core/lv_indev.c ****     }
 361:Drivers/lvgl/src/core/lv_indev.c ****     if(data->point.x >= lv_disp_get_hor_res(i->driver->disp)) {
 362:Drivers/lvgl/src/core/lv_indev.c ****         LV_LOG_WARN("X is %d which is greater than hor. res", (int)data->point.x);
 363:Drivers/lvgl/src/core/lv_indev.c ****     }
 364:Drivers/lvgl/src/core/lv_indev.c ****     if(data->point.y < 0) {
 365:Drivers/lvgl/src/core/lv_indev.c ****         LV_LOG_WARN("Y is %d which is smaller than zero", (int)data->point.y);
 366:Drivers/lvgl/src/core/lv_indev.c ****     }
 367:Drivers/lvgl/src/core/lv_indev.c ****     if(data->point.y >= lv_disp_get_ver_res(i->driver->disp)) {
 368:Drivers/lvgl/src/core/lv_indev.c ****         LV_LOG_WARN("Y is %d which is greater than ver. res", (int)data->point.y);
 369:Drivers/lvgl/src/core/lv_indev.c ****     }
 370:Drivers/lvgl/src/core/lv_indev.c **** 
 371:Drivers/lvgl/src/core/lv_indev.c ****     /*Move the cursor if set and moved*/
ARM GAS  /var/folders/lp/x54gwt890xv47sdkqj1k04q40000gn/T//ccfgQDQQ.s 			page 8


 372:Drivers/lvgl/src/core/lv_indev.c ****     if(i->cursor != NULL &&
 373:Drivers/lvgl/src/core/lv_indev.c ****        (i->proc.types.pointer.last_point.x != data->point.x || i->proc.types.pointer.last_point.y !
 374:Drivers/lvgl/src/core/lv_indev.c ****         lv_obj_set_pos(i->cursor, data->point.x, data->point.y);
 375:Drivers/lvgl/src/core/lv_indev.c ****     }
 376:Drivers/lvgl/src/core/lv_indev.c **** 
 377:Drivers/lvgl/src/core/lv_indev.c ****     i->proc.types.pointer.act_point.x = data->point.x;
 378:Drivers/lvgl/src/core/lv_indev.c ****     i->proc.types.pointer.act_point.y = data->point.y;
 379:Drivers/lvgl/src/core/lv_indev.c **** 
 380:Drivers/lvgl/src/core/lv_indev.c ****     if(i->proc.state == LV_INDEV_STATE_PRESSED) {
 381:Drivers/lvgl/src/core/lv_indev.c ****         indev_proc_press(&i->proc);
 382:Drivers/lvgl/src/core/lv_indev.c ****     }
 383:Drivers/lvgl/src/core/lv_indev.c ****     else {
 384:Drivers/lvgl/src/core/lv_indev.c ****         indev_proc_release(&i->proc);
 385:Drivers/lvgl/src/core/lv_indev.c ****     }
 386:Drivers/lvgl/src/core/lv_indev.c **** 
 387:Drivers/lvgl/src/core/lv_indev.c ****     i->proc.types.pointer.last_point.x = i->proc.types.pointer.act_point.x;
 388:Drivers/lvgl/src/core/lv_indev.c ****     i->proc.types.pointer.last_point.y = i->proc.types.pointer.act_point.y;
 389:Drivers/lvgl/src/core/lv_indev.c **** }
 390:Drivers/lvgl/src/core/lv_indev.c **** 
 391:Drivers/lvgl/src/core/lv_indev.c **** /**
 392:Drivers/lvgl/src/core/lv_indev.c ****  * Process a new point from LV_INDEV_TYPE_KEYPAD input device
 393:Drivers/lvgl/src/core/lv_indev.c ****  * @param i pointer to an input device
 394:Drivers/lvgl/src/core/lv_indev.c ****  * @param data pointer to the data read from the input device
 395:Drivers/lvgl/src/core/lv_indev.c ****  */
 396:Drivers/lvgl/src/core/lv_indev.c **** static void indev_keypad_proc(lv_indev_t * i, lv_indev_data_t * data)
 397:Drivers/lvgl/src/core/lv_indev.c **** {
 398:Drivers/lvgl/src/core/lv_indev.c ****     if(data->state == LV_INDEV_STATE_PRESSED && i->proc.wait_until_release) return;
 399:Drivers/lvgl/src/core/lv_indev.c **** 
 400:Drivers/lvgl/src/core/lv_indev.c ****     if(i->proc.wait_until_release) {
 401:Drivers/lvgl/src/core/lv_indev.c ****         i->proc.wait_until_release      = 0;
 402:Drivers/lvgl/src/core/lv_indev.c ****         i->proc.pr_timestamp            = 0;
 403:Drivers/lvgl/src/core/lv_indev.c ****         i->proc.long_pr_sent            = 0;
 404:Drivers/lvgl/src/core/lv_indev.c ****         i->proc.types.keypad.last_state = LV_INDEV_STATE_RELEASED; /*To skip the processing of rele
 405:Drivers/lvgl/src/core/lv_indev.c ****     }
 406:Drivers/lvgl/src/core/lv_indev.c **** 
 407:Drivers/lvgl/src/core/lv_indev.c ****     lv_group_t * g = i->group;
 408:Drivers/lvgl/src/core/lv_indev.c ****     if(g == NULL) return;
 409:Drivers/lvgl/src/core/lv_indev.c **** 
 410:Drivers/lvgl/src/core/lv_indev.c ****     indev_obj_act = lv_group_get_focused(g);
 411:Drivers/lvgl/src/core/lv_indev.c ****     if(indev_obj_act == NULL) return;
 412:Drivers/lvgl/src/core/lv_indev.c **** 
 413:Drivers/lvgl/src/core/lv_indev.c ****     bool dis = lv_obj_has_state(indev_obj_act, LV_STATE_DISABLED);
 414:Drivers/lvgl/src/core/lv_indev.c **** 
 415:Drivers/lvgl/src/core/lv_indev.c ****     /*Save the last key to compare it with the current latter on RELEASE*/
 416:Drivers/lvgl/src/core/lv_indev.c ****     uint32_t prev_key = i->proc.types.keypad.last_key;
 417:Drivers/lvgl/src/core/lv_indev.c **** 
 418:Drivers/lvgl/src/core/lv_indev.c ****     /*Save the last key.
 419:Drivers/lvgl/src/core/lv_indev.c ****      *It must be done here else `lv_indev_get_key` will return the last key in events*/
 420:Drivers/lvgl/src/core/lv_indev.c ****     i->proc.types.keypad.last_key = data->key;
 421:Drivers/lvgl/src/core/lv_indev.c **** 
 422:Drivers/lvgl/src/core/lv_indev.c ****     /*Save the previous state so we can detect state changes below and also set the last state now
 423:Drivers/lvgl/src/core/lv_indev.c ****      *so if any event handler on the way returns `LV_RES_INV` the last state is remembered
 424:Drivers/lvgl/src/core/lv_indev.c ****      *for the next time*/
 425:Drivers/lvgl/src/core/lv_indev.c ****     uint32_t prev_state             = i->proc.types.keypad.last_state;
 426:Drivers/lvgl/src/core/lv_indev.c ****     i->proc.types.keypad.last_state = data->state;
 427:Drivers/lvgl/src/core/lv_indev.c **** 
 428:Drivers/lvgl/src/core/lv_indev.c ****     /*Key press happened*/
ARM GAS  /var/folders/lp/x54gwt890xv47sdkqj1k04q40000gn/T//ccfgQDQQ.s 			page 9


 429:Drivers/lvgl/src/core/lv_indev.c ****     if(data->state == LV_INDEV_STATE_PRESSED && prev_state == LV_INDEV_STATE_RELEASED) {
 430:Drivers/lvgl/src/core/lv_indev.c ****         LV_LOG_INFO("%" LV_PRIu32 " key is pressed", data->key);
 431:Drivers/lvgl/src/core/lv_indev.c ****         i->proc.pr_timestamp = lv_tick_get();
 432:Drivers/lvgl/src/core/lv_indev.c **** 
 433:Drivers/lvgl/src/core/lv_indev.c ****         /*Move the focus on NEXT*/
 434:Drivers/lvgl/src/core/lv_indev.c ****         if(data->key == LV_KEY_NEXT) {
 435:Drivers/lvgl/src/core/lv_indev.c ****             lv_group_set_editing(g, false); /*Editing is not used by KEYPAD is be sure it is disabl
 436:Drivers/lvgl/src/core/lv_indev.c ****             lv_group_focus_next(g);
 437:Drivers/lvgl/src/core/lv_indev.c ****             if(indev_reset_check(&i->proc)) return;
 438:Drivers/lvgl/src/core/lv_indev.c ****         }
 439:Drivers/lvgl/src/core/lv_indev.c ****         /*Move the focus on PREV*/
 440:Drivers/lvgl/src/core/lv_indev.c ****         else if(data->key == LV_KEY_PREV) {
 441:Drivers/lvgl/src/core/lv_indev.c ****             lv_group_set_editing(g, false); /*Editing is not used by KEYPAD is be sure it is disabl
 442:Drivers/lvgl/src/core/lv_indev.c ****             lv_group_focus_prev(g);
 443:Drivers/lvgl/src/core/lv_indev.c ****             if(indev_reset_check(&i->proc)) return;
 444:Drivers/lvgl/src/core/lv_indev.c ****         }
 445:Drivers/lvgl/src/core/lv_indev.c ****         else if(!dis) {
 446:Drivers/lvgl/src/core/lv_indev.c ****             /*Simulate a press on the object if ENTER was pressed*/
 447:Drivers/lvgl/src/core/lv_indev.c ****             if(data->key == LV_KEY_ENTER) {
 448:Drivers/lvgl/src/core/lv_indev.c ****                 /*Send the ENTER as a normal KEY*/
 449:Drivers/lvgl/src/core/lv_indev.c ****                 lv_group_send_data(g, LV_KEY_ENTER);
 450:Drivers/lvgl/src/core/lv_indev.c ****                 if(indev_reset_check(&i->proc)) return;
 451:Drivers/lvgl/src/core/lv_indev.c **** 
 452:Drivers/lvgl/src/core/lv_indev.c ****                 if(!dis) lv_event_send(indev_obj_act, LV_EVENT_PRESSED, indev_act);
 453:Drivers/lvgl/src/core/lv_indev.c ****                 if(indev_reset_check(&i->proc)) return;
 454:Drivers/lvgl/src/core/lv_indev.c ****             }
 455:Drivers/lvgl/src/core/lv_indev.c ****             else if(data->key == LV_KEY_ESC) {
 456:Drivers/lvgl/src/core/lv_indev.c ****                 /*Send the ESC as a normal KEY*/
 457:Drivers/lvgl/src/core/lv_indev.c ****                 lv_group_send_data(g, LV_KEY_ESC);
 458:Drivers/lvgl/src/core/lv_indev.c ****                 if(indev_reset_check(&i->proc)) return;
 459:Drivers/lvgl/src/core/lv_indev.c **** 
 460:Drivers/lvgl/src/core/lv_indev.c ****                 lv_event_send(indev_obj_act, LV_EVENT_CANCEL, indev_act);
 461:Drivers/lvgl/src/core/lv_indev.c ****                 if(indev_reset_check(&i->proc)) return;
 462:Drivers/lvgl/src/core/lv_indev.c ****             }
 463:Drivers/lvgl/src/core/lv_indev.c ****             /*Just send other keys to the object (e.g. 'A' or `LV_GROUP_KEY_RIGHT`)*/
 464:Drivers/lvgl/src/core/lv_indev.c ****             else {
 465:Drivers/lvgl/src/core/lv_indev.c ****                 lv_group_send_data(g, data->key);
 466:Drivers/lvgl/src/core/lv_indev.c ****                 if(indev_reset_check(&i->proc)) return;
 467:Drivers/lvgl/src/core/lv_indev.c ****             }
 468:Drivers/lvgl/src/core/lv_indev.c ****         }
 469:Drivers/lvgl/src/core/lv_indev.c ****     }
 470:Drivers/lvgl/src/core/lv_indev.c ****     /*Pressing*/
 471:Drivers/lvgl/src/core/lv_indev.c ****     else if(!dis && data->state == LV_INDEV_STATE_PRESSED && prev_state == LV_INDEV_STATE_PRESSED) 
 472:Drivers/lvgl/src/core/lv_indev.c **** 
 473:Drivers/lvgl/src/core/lv_indev.c ****         if(data->key == LV_KEY_ENTER) {
 474:Drivers/lvgl/src/core/lv_indev.c ****             lv_event_send(indev_obj_act, LV_EVENT_PRESSING, indev_act);
 475:Drivers/lvgl/src/core/lv_indev.c ****             if(indev_reset_check(&i->proc)) return;
 476:Drivers/lvgl/src/core/lv_indev.c ****         }
 477:Drivers/lvgl/src/core/lv_indev.c **** 
 478:Drivers/lvgl/src/core/lv_indev.c ****         /*Long press time has elapsed?*/
 479:Drivers/lvgl/src/core/lv_indev.c ****         if(i->proc.long_pr_sent == 0 && lv_tick_elaps(i->proc.pr_timestamp) > i->driver->long_press
 480:Drivers/lvgl/src/core/lv_indev.c ****             i->proc.long_pr_sent = 1;
 481:Drivers/lvgl/src/core/lv_indev.c ****             if(data->key == LV_KEY_ENTER) {
 482:Drivers/lvgl/src/core/lv_indev.c ****                 i->proc.longpr_rep_timestamp = lv_tick_get();
 483:Drivers/lvgl/src/core/lv_indev.c ****                 lv_event_send(indev_obj_act, LV_EVENT_LONG_PRESSED, indev_act);
 484:Drivers/lvgl/src/core/lv_indev.c ****                 if(indev_reset_check(&i->proc)) return;
 485:Drivers/lvgl/src/core/lv_indev.c ****             }
ARM GAS  /var/folders/lp/x54gwt890xv47sdkqj1k04q40000gn/T//ccfgQDQQ.s 			page 10


 486:Drivers/lvgl/src/core/lv_indev.c ****         }
 487:Drivers/lvgl/src/core/lv_indev.c ****         /*Long press repeated time has elapsed?*/
 488:Drivers/lvgl/src/core/lv_indev.c ****         else if(i->proc.long_pr_sent != 0 &&
 489:Drivers/lvgl/src/core/lv_indev.c ****                 lv_tick_elaps(i->proc.longpr_rep_timestamp) > i->driver->long_press_repeat_time) {
 490:Drivers/lvgl/src/core/lv_indev.c **** 
 491:Drivers/lvgl/src/core/lv_indev.c ****             i->proc.longpr_rep_timestamp = lv_tick_get();
 492:Drivers/lvgl/src/core/lv_indev.c **** 
 493:Drivers/lvgl/src/core/lv_indev.c ****             /*Send LONG_PRESS_REP on ENTER*/
 494:Drivers/lvgl/src/core/lv_indev.c ****             if(data->key == LV_KEY_ENTER) {
 495:Drivers/lvgl/src/core/lv_indev.c ****                 lv_event_send(indev_obj_act, LV_EVENT_LONG_PRESSED_REPEAT, indev_act);
 496:Drivers/lvgl/src/core/lv_indev.c ****                 if(indev_reset_check(&i->proc)) return;
 497:Drivers/lvgl/src/core/lv_indev.c ****             }
 498:Drivers/lvgl/src/core/lv_indev.c ****             /*Move the focus on NEXT again*/
 499:Drivers/lvgl/src/core/lv_indev.c ****             else if(data->key == LV_KEY_NEXT) {
 500:Drivers/lvgl/src/core/lv_indev.c ****                 lv_group_set_editing(g, false); /*Editing is not used by KEYPAD is be sure it is di
 501:Drivers/lvgl/src/core/lv_indev.c ****                 lv_group_focus_next(g);
 502:Drivers/lvgl/src/core/lv_indev.c ****                 if(indev_reset_check(&i->proc)) return;
 503:Drivers/lvgl/src/core/lv_indev.c ****             }
 504:Drivers/lvgl/src/core/lv_indev.c ****             /*Move the focus on PREV again*/
 505:Drivers/lvgl/src/core/lv_indev.c ****             else if(data->key == LV_KEY_PREV) {
 506:Drivers/lvgl/src/core/lv_indev.c ****                 lv_group_set_editing(g, false); /*Editing is not used by KEYPAD is be sure it is di
 507:Drivers/lvgl/src/core/lv_indev.c ****                 lv_group_focus_prev(g);
 508:Drivers/lvgl/src/core/lv_indev.c ****                 if(indev_reset_check(&i->proc)) return;
 509:Drivers/lvgl/src/core/lv_indev.c ****             }
 510:Drivers/lvgl/src/core/lv_indev.c ****             /*Just send other keys again to the object (e.g. 'A' or `LV_GROUP_KEY_RIGHT)*/
 511:Drivers/lvgl/src/core/lv_indev.c ****             else {
 512:Drivers/lvgl/src/core/lv_indev.c ****                 lv_group_send_data(g, data->key);
 513:Drivers/lvgl/src/core/lv_indev.c ****                 if(indev_reset_check(&i->proc)) return;
 514:Drivers/lvgl/src/core/lv_indev.c ****             }
 515:Drivers/lvgl/src/core/lv_indev.c ****         }
 516:Drivers/lvgl/src/core/lv_indev.c ****     }
 517:Drivers/lvgl/src/core/lv_indev.c ****     /*Release happened*/
 518:Drivers/lvgl/src/core/lv_indev.c ****     else if(!dis && data->state == LV_INDEV_STATE_RELEASED && prev_state == LV_INDEV_STATE_PRESSED)
 519:Drivers/lvgl/src/core/lv_indev.c ****         LV_LOG_INFO("%" LV_PRIu32 " key is released", data->key);
 520:Drivers/lvgl/src/core/lv_indev.c ****         /*The user might clear the key when it was released. Always release the pressed key*/
 521:Drivers/lvgl/src/core/lv_indev.c ****         data->key = prev_key;
 522:Drivers/lvgl/src/core/lv_indev.c ****         if(data->key == LV_KEY_ENTER) {
 523:Drivers/lvgl/src/core/lv_indev.c **** 
 524:Drivers/lvgl/src/core/lv_indev.c ****             lv_event_send(indev_obj_act, LV_EVENT_RELEASED, indev_act);
 525:Drivers/lvgl/src/core/lv_indev.c ****             if(indev_reset_check(&i->proc)) return;
 526:Drivers/lvgl/src/core/lv_indev.c **** 
 527:Drivers/lvgl/src/core/lv_indev.c ****             if(i->proc.long_pr_sent == 0) {
 528:Drivers/lvgl/src/core/lv_indev.c ****                 lv_event_send(indev_obj_act, LV_EVENT_SHORT_CLICKED, indev_act);
 529:Drivers/lvgl/src/core/lv_indev.c ****                 if(indev_reset_check(&i->proc)) return;
 530:Drivers/lvgl/src/core/lv_indev.c ****             }
 531:Drivers/lvgl/src/core/lv_indev.c **** 
 532:Drivers/lvgl/src/core/lv_indev.c ****             lv_event_send(indev_obj_act, LV_EVENT_CLICKED, indev_act);
 533:Drivers/lvgl/src/core/lv_indev.c ****             if(indev_reset_check(&i->proc)) return;
 534:Drivers/lvgl/src/core/lv_indev.c **** 
 535:Drivers/lvgl/src/core/lv_indev.c ****         }
 536:Drivers/lvgl/src/core/lv_indev.c ****         i->proc.pr_timestamp = 0;
 537:Drivers/lvgl/src/core/lv_indev.c ****         i->proc.long_pr_sent = 0;
 538:Drivers/lvgl/src/core/lv_indev.c ****     }
 539:Drivers/lvgl/src/core/lv_indev.c ****     indev_obj_act = NULL;
 540:Drivers/lvgl/src/core/lv_indev.c **** }
 541:Drivers/lvgl/src/core/lv_indev.c **** 
 542:Drivers/lvgl/src/core/lv_indev.c **** /**
ARM GAS  /var/folders/lp/x54gwt890xv47sdkqj1k04q40000gn/T//ccfgQDQQ.s 			page 11


 543:Drivers/lvgl/src/core/lv_indev.c ****  * Process a new point from LV_INDEV_TYPE_ENCODER input device
 544:Drivers/lvgl/src/core/lv_indev.c ****  * @param i pointer to an input device
 545:Drivers/lvgl/src/core/lv_indev.c ****  * @param data pointer to the data read from the input device
 546:Drivers/lvgl/src/core/lv_indev.c ****  */
 547:Drivers/lvgl/src/core/lv_indev.c **** static void indev_encoder_proc(lv_indev_t * i, lv_indev_data_t * data)
 548:Drivers/lvgl/src/core/lv_indev.c **** {
 549:Drivers/lvgl/src/core/lv_indev.c ****     if(data->state == LV_INDEV_STATE_PRESSED && i->proc.wait_until_release) return;
 550:Drivers/lvgl/src/core/lv_indev.c **** 
 551:Drivers/lvgl/src/core/lv_indev.c ****     if(i->proc.wait_until_release) {
 552:Drivers/lvgl/src/core/lv_indev.c ****         i->proc.wait_until_release      = 0;
 553:Drivers/lvgl/src/core/lv_indev.c ****         i->proc.pr_timestamp            = 0;
 554:Drivers/lvgl/src/core/lv_indev.c ****         i->proc.long_pr_sent            = 0;
 555:Drivers/lvgl/src/core/lv_indev.c ****         i->proc.types.keypad.last_state = LV_INDEV_STATE_RELEASED; /*To skip the processing of rele
 556:Drivers/lvgl/src/core/lv_indev.c ****     }
 557:Drivers/lvgl/src/core/lv_indev.c **** 
 558:Drivers/lvgl/src/core/lv_indev.c ****     /*Save the last keys before anything else.
 559:Drivers/lvgl/src/core/lv_indev.c ****      *They need to be already saved if the function returns for any reason*/
 560:Drivers/lvgl/src/core/lv_indev.c ****     lv_indev_state_t last_state     = i->proc.types.keypad.last_state;
 561:Drivers/lvgl/src/core/lv_indev.c ****     i->proc.types.keypad.last_state = data->state;
 562:Drivers/lvgl/src/core/lv_indev.c ****     i->proc.types.keypad.last_key   = data->key;
 563:Drivers/lvgl/src/core/lv_indev.c **** 
 564:Drivers/lvgl/src/core/lv_indev.c ****     lv_group_t * g = i->group;
 565:Drivers/lvgl/src/core/lv_indev.c ****     if(g == NULL) return;
 566:Drivers/lvgl/src/core/lv_indev.c **** 
 567:Drivers/lvgl/src/core/lv_indev.c ****     indev_obj_act = lv_group_get_focused(g);
 568:Drivers/lvgl/src/core/lv_indev.c ****     if(indev_obj_act == NULL) return;
 569:Drivers/lvgl/src/core/lv_indev.c **** 
 570:Drivers/lvgl/src/core/lv_indev.c ****     /*Process the steps they are valid only with released button*/
 571:Drivers/lvgl/src/core/lv_indev.c ****     if(data->state != LV_INDEV_STATE_RELEASED) {
 572:Drivers/lvgl/src/core/lv_indev.c ****         data->enc_diff = 0;
 573:Drivers/lvgl/src/core/lv_indev.c ****     }
 574:Drivers/lvgl/src/core/lv_indev.c **** 
 575:Drivers/lvgl/src/core/lv_indev.c ****     /*Refresh the focused object. It might change due to lv_group_focus_prev/next*/
 576:Drivers/lvgl/src/core/lv_indev.c ****     indev_obj_act = lv_group_get_focused(g);
 577:Drivers/lvgl/src/core/lv_indev.c ****     if(indev_obj_act == NULL) return;
 578:Drivers/lvgl/src/core/lv_indev.c **** 
 579:Drivers/lvgl/src/core/lv_indev.c ****     /*Button press happened*/
 580:Drivers/lvgl/src/core/lv_indev.c ****     if(data->state == LV_INDEV_STATE_PRESSED && last_state == LV_INDEV_STATE_RELEASED) {
 581:Drivers/lvgl/src/core/lv_indev.c ****         LV_LOG_INFO("pressed");
 582:Drivers/lvgl/src/core/lv_indev.c **** 
 583:Drivers/lvgl/src/core/lv_indev.c ****         i->proc.pr_timestamp = lv_tick_get();
 584:Drivers/lvgl/src/core/lv_indev.c **** 
 585:Drivers/lvgl/src/core/lv_indev.c ****         if(data->key == LV_KEY_ENTER) {
 586:Drivers/lvgl/src/core/lv_indev.c ****             bool editable_or_scrollable = lv_obj_is_editable(indev_obj_act) ||
 587:Drivers/lvgl/src/core/lv_indev.c ****                                           lv_obj_has_flag(indev_obj_act, LV_OBJ_FLAG_SCROLLABLE);
 588:Drivers/lvgl/src/core/lv_indev.c ****             if(lv_group_get_editing(g) == true || editable_or_scrollable == false) {
 589:Drivers/lvgl/src/core/lv_indev.c ****                 lv_event_send(indev_obj_act, LV_EVENT_PRESSED, indev_act);
 590:Drivers/lvgl/src/core/lv_indev.c ****                 if(indev_reset_check(&i->proc)) return;
 591:Drivers/lvgl/src/core/lv_indev.c ****             }
 592:Drivers/lvgl/src/core/lv_indev.c ****         }
 593:Drivers/lvgl/src/core/lv_indev.c ****         else if(data->key == LV_KEY_LEFT) {
 594:Drivers/lvgl/src/core/lv_indev.c ****             /*emulate encoder left*/
 595:Drivers/lvgl/src/core/lv_indev.c ****             data->enc_diff--;
 596:Drivers/lvgl/src/core/lv_indev.c ****         }
 597:Drivers/lvgl/src/core/lv_indev.c ****         else if(data->key == LV_KEY_RIGHT) {
 598:Drivers/lvgl/src/core/lv_indev.c ****             /*emulate encoder right*/
 599:Drivers/lvgl/src/core/lv_indev.c ****             data->enc_diff++;
ARM GAS  /var/folders/lp/x54gwt890xv47sdkqj1k04q40000gn/T//ccfgQDQQ.s 			page 12


 600:Drivers/lvgl/src/core/lv_indev.c ****         }
 601:Drivers/lvgl/src/core/lv_indev.c ****         else if(data->key == LV_KEY_ESC) {
 602:Drivers/lvgl/src/core/lv_indev.c ****             /*Send the ESC as a normal KEY*/
 603:Drivers/lvgl/src/core/lv_indev.c ****             lv_group_send_data(g, LV_KEY_ESC);
 604:Drivers/lvgl/src/core/lv_indev.c ****             if(indev_reset_check(&i->proc)) return;
 605:Drivers/lvgl/src/core/lv_indev.c **** 
 606:Drivers/lvgl/src/core/lv_indev.c ****             lv_event_send(indev_obj_act, LV_EVENT_CANCEL, indev_act);
 607:Drivers/lvgl/src/core/lv_indev.c ****             if(indev_reset_check(&i->proc)) return;
 608:Drivers/lvgl/src/core/lv_indev.c ****         }
 609:Drivers/lvgl/src/core/lv_indev.c ****         /*Just send other keys to the object (e.g. 'A' or `LV_GROUP_KEY_RIGHT`)*/
 610:Drivers/lvgl/src/core/lv_indev.c ****         else {
 611:Drivers/lvgl/src/core/lv_indev.c ****             lv_group_send_data(g, data->key);
 612:Drivers/lvgl/src/core/lv_indev.c ****             if(indev_reset_check(&i->proc)) return;
 613:Drivers/lvgl/src/core/lv_indev.c ****         }
 614:Drivers/lvgl/src/core/lv_indev.c ****     }
 615:Drivers/lvgl/src/core/lv_indev.c ****     /*Pressing*/
 616:Drivers/lvgl/src/core/lv_indev.c ****     else if(data->state == LV_INDEV_STATE_PRESSED && last_state == LV_INDEV_STATE_PRESSED) {
 617:Drivers/lvgl/src/core/lv_indev.c ****         /*Long press*/
 618:Drivers/lvgl/src/core/lv_indev.c ****         if(i->proc.long_pr_sent == 0 && lv_tick_elaps(i->proc.pr_timestamp) > i->driver->long_press
 619:Drivers/lvgl/src/core/lv_indev.c **** 
 620:Drivers/lvgl/src/core/lv_indev.c ****             i->proc.long_pr_sent = 1;
 621:Drivers/lvgl/src/core/lv_indev.c ****             i->proc.longpr_rep_timestamp = lv_tick_get();
 622:Drivers/lvgl/src/core/lv_indev.c **** 
 623:Drivers/lvgl/src/core/lv_indev.c ****             if(data->key == LV_KEY_ENTER) {
 624:Drivers/lvgl/src/core/lv_indev.c ****                 bool editable_or_scrollable = lv_obj_is_editable(indev_obj_act) ||
 625:Drivers/lvgl/src/core/lv_indev.c ****                                               lv_obj_has_flag(indev_obj_act, LV_OBJ_FLAG_SCROLLABLE
 626:Drivers/lvgl/src/core/lv_indev.c **** 
 627:Drivers/lvgl/src/core/lv_indev.c ****                 /*On enter long press toggle edit mode.*/
 628:Drivers/lvgl/src/core/lv_indev.c ****                 if(editable_or_scrollable) {
 629:Drivers/lvgl/src/core/lv_indev.c ****                     /*Don't leave edit mode if there is only one object (nowhere to navigate)*/
 630:Drivers/lvgl/src/core/lv_indev.c ****                     if(lv_group_get_obj_count(g) > 1) {
 631:Drivers/lvgl/src/core/lv_indev.c ****                         LV_LOG_INFO("toggling edit mode");
 632:Drivers/lvgl/src/core/lv_indev.c ****                         lv_group_set_editing(g, lv_group_get_editing(g) ? false : true); /*Toggle e
 633:Drivers/lvgl/src/core/lv_indev.c ****                         lv_obj_clear_state(indev_obj_act, LV_STATE_PRESSED);    /*Remove the presse
 634:Drivers/lvgl/src/core/lv_indev.c ****                     }
 635:Drivers/lvgl/src/core/lv_indev.c ****                 }
 636:Drivers/lvgl/src/core/lv_indev.c ****                 /*If not editable then just send a long press Call the ancestor's event handler*/
 637:Drivers/lvgl/src/core/lv_indev.c ****                 else {
 638:Drivers/lvgl/src/core/lv_indev.c ****                     lv_event_send(indev_obj_act, LV_EVENT_LONG_PRESSED, indev_act);
 639:Drivers/lvgl/src/core/lv_indev.c ****                     if(indev_reset_check(&i->proc)) return;
 640:Drivers/lvgl/src/core/lv_indev.c ****                 }
 641:Drivers/lvgl/src/core/lv_indev.c ****             }
 642:Drivers/lvgl/src/core/lv_indev.c **** 
 643:Drivers/lvgl/src/core/lv_indev.c ****             i->proc.long_pr_sent = 1;
 644:Drivers/lvgl/src/core/lv_indev.c ****         }
 645:Drivers/lvgl/src/core/lv_indev.c ****         /*Long press repeated time has elapsed?*/
 646:Drivers/lvgl/src/core/lv_indev.c ****         else if(i->proc.long_pr_sent != 0 && lv_tick_elaps(i->proc.longpr_rep_timestamp) > i->drive
 647:Drivers/lvgl/src/core/lv_indev.c **** 
 648:Drivers/lvgl/src/core/lv_indev.c ****             i->proc.longpr_rep_timestamp = lv_tick_get();
 649:Drivers/lvgl/src/core/lv_indev.c **** 
 650:Drivers/lvgl/src/core/lv_indev.c ****             if(data->key == LV_KEY_ENTER) {
 651:Drivers/lvgl/src/core/lv_indev.c ****                 lv_event_send(indev_obj_act, LV_EVENT_LONG_PRESSED_REPEAT, indev_act);
 652:Drivers/lvgl/src/core/lv_indev.c ****                 if(indev_reset_check(&i->proc)) return;
 653:Drivers/lvgl/src/core/lv_indev.c ****             }
 654:Drivers/lvgl/src/core/lv_indev.c ****             else if(data->key == LV_KEY_LEFT) {
 655:Drivers/lvgl/src/core/lv_indev.c ****                 /*emulate encoder left*/
 656:Drivers/lvgl/src/core/lv_indev.c ****                 data->enc_diff--;
ARM GAS  /var/folders/lp/x54gwt890xv47sdkqj1k04q40000gn/T//ccfgQDQQ.s 			page 13


 657:Drivers/lvgl/src/core/lv_indev.c ****             }
 658:Drivers/lvgl/src/core/lv_indev.c ****             else if(data->key == LV_KEY_RIGHT) {
 659:Drivers/lvgl/src/core/lv_indev.c ****                 /*emulate encoder right*/
 660:Drivers/lvgl/src/core/lv_indev.c ****                 data->enc_diff++;
 661:Drivers/lvgl/src/core/lv_indev.c ****             }
 662:Drivers/lvgl/src/core/lv_indev.c ****             else {
 663:Drivers/lvgl/src/core/lv_indev.c ****                 lv_group_send_data(g, data->key);
 664:Drivers/lvgl/src/core/lv_indev.c ****                 if(indev_reset_check(&i->proc)) return;
 665:Drivers/lvgl/src/core/lv_indev.c ****             }
 666:Drivers/lvgl/src/core/lv_indev.c **** 
 667:Drivers/lvgl/src/core/lv_indev.c ****         }
 668:Drivers/lvgl/src/core/lv_indev.c **** 
 669:Drivers/lvgl/src/core/lv_indev.c ****     }
 670:Drivers/lvgl/src/core/lv_indev.c ****     /*Release happened*/
 671:Drivers/lvgl/src/core/lv_indev.c ****     else if(data->state == LV_INDEV_STATE_RELEASED && last_state == LV_INDEV_STATE_PRESSED) {
 672:Drivers/lvgl/src/core/lv_indev.c ****         LV_LOG_INFO("released");
 673:Drivers/lvgl/src/core/lv_indev.c **** 
 674:Drivers/lvgl/src/core/lv_indev.c ****         if(data->key == LV_KEY_ENTER) {
 675:Drivers/lvgl/src/core/lv_indev.c ****             bool editable_or_scrollable = lv_obj_is_editable(indev_obj_act) ||
 676:Drivers/lvgl/src/core/lv_indev.c ****                                           lv_obj_has_flag(indev_obj_act, LV_OBJ_FLAG_SCROLLABLE);
 677:Drivers/lvgl/src/core/lv_indev.c **** 
 678:Drivers/lvgl/src/core/lv_indev.c ****             /*The button was released on a non-editable object. Just send enter*/
 679:Drivers/lvgl/src/core/lv_indev.c ****             if(editable_or_scrollable == false) {
 680:Drivers/lvgl/src/core/lv_indev.c ****                 lv_event_send(indev_obj_act, LV_EVENT_RELEASED, indev_act);
 681:Drivers/lvgl/src/core/lv_indev.c ****                 if(indev_reset_check(&i->proc)) return;
 682:Drivers/lvgl/src/core/lv_indev.c **** 
 683:Drivers/lvgl/src/core/lv_indev.c ****                 if(i->proc.long_pr_sent == 0) lv_event_send(indev_obj_act, LV_EVENT_SHORT_CLICKED, 
 684:Drivers/lvgl/src/core/lv_indev.c ****                 if(indev_reset_check(&i->proc)) return;
 685:Drivers/lvgl/src/core/lv_indev.c **** 
 686:Drivers/lvgl/src/core/lv_indev.c ****                 lv_event_send(indev_obj_act, LV_EVENT_CLICKED, indev_act);
 687:Drivers/lvgl/src/core/lv_indev.c ****                 if(indev_reset_check(&i->proc)) return;
 688:Drivers/lvgl/src/core/lv_indev.c **** 
 689:Drivers/lvgl/src/core/lv_indev.c ****             }
 690:Drivers/lvgl/src/core/lv_indev.c ****             /*An object is being edited and the button is released.*/
 691:Drivers/lvgl/src/core/lv_indev.c ****             else if(lv_group_get_editing(g)) {
 692:Drivers/lvgl/src/core/lv_indev.c ****                 /*Ignore long pressed enter release because it comes from mode switch*/
 693:Drivers/lvgl/src/core/lv_indev.c ****                 if(!i->proc.long_pr_sent || lv_group_get_obj_count(g) <= 1) {
 694:Drivers/lvgl/src/core/lv_indev.c ****                     lv_event_send(indev_obj_act, LV_EVENT_RELEASED, indev_act);
 695:Drivers/lvgl/src/core/lv_indev.c ****                     if(indev_reset_check(&i->proc)) return;
 696:Drivers/lvgl/src/core/lv_indev.c **** 
 697:Drivers/lvgl/src/core/lv_indev.c ****                     lv_event_send(indev_obj_act, LV_EVENT_SHORT_CLICKED, indev_act);
 698:Drivers/lvgl/src/core/lv_indev.c ****                     if(indev_reset_check(&i->proc)) return;
 699:Drivers/lvgl/src/core/lv_indev.c **** 
 700:Drivers/lvgl/src/core/lv_indev.c ****                     lv_event_send(indev_obj_act, LV_EVENT_CLICKED, indev_act);
 701:Drivers/lvgl/src/core/lv_indev.c ****                     if(indev_reset_check(&i->proc)) return;
 702:Drivers/lvgl/src/core/lv_indev.c **** 
 703:Drivers/lvgl/src/core/lv_indev.c ****                     lv_group_send_data(g, LV_KEY_ENTER);
 704:Drivers/lvgl/src/core/lv_indev.c ****                     if(indev_reset_check(&i->proc)) return;
 705:Drivers/lvgl/src/core/lv_indev.c ****                 }
 706:Drivers/lvgl/src/core/lv_indev.c ****                 else {
 707:Drivers/lvgl/src/core/lv_indev.c ****                     lv_obj_clear_state(indev_obj_act, LV_STATE_PRESSED);    /*Remove the pressed st
 708:Drivers/lvgl/src/core/lv_indev.c ****                 }
 709:Drivers/lvgl/src/core/lv_indev.c ****             }
 710:Drivers/lvgl/src/core/lv_indev.c ****             /*If the focused object is editable and now in navigate mode then on enter switch edit
 711:Drivers/lvgl/src/core/lv_indev.c ****                mode*/
 712:Drivers/lvgl/src/core/lv_indev.c ****             else if(!i->proc.long_pr_sent) {
 713:Drivers/lvgl/src/core/lv_indev.c ****                 LV_LOG_INFO("entering edit mode");
ARM GAS  /var/folders/lp/x54gwt890xv47sdkqj1k04q40000gn/T//ccfgQDQQ.s 			page 14


 714:Drivers/lvgl/src/core/lv_indev.c ****                 lv_group_set_editing(g, true); /*Set edit mode*/
 715:Drivers/lvgl/src/core/lv_indev.c ****             }
 716:Drivers/lvgl/src/core/lv_indev.c ****         }
 717:Drivers/lvgl/src/core/lv_indev.c **** 
 718:Drivers/lvgl/src/core/lv_indev.c ****         i->proc.pr_timestamp = 0;
 719:Drivers/lvgl/src/core/lv_indev.c ****         i->proc.long_pr_sent = 0;
 720:Drivers/lvgl/src/core/lv_indev.c ****     }
 721:Drivers/lvgl/src/core/lv_indev.c ****     indev_obj_act = NULL;
 722:Drivers/lvgl/src/core/lv_indev.c **** 
 723:Drivers/lvgl/src/core/lv_indev.c ****     /*if encoder steps or simulated steps via left/right keys*/
 724:Drivers/lvgl/src/core/lv_indev.c ****     if(data->enc_diff != 0) {
 725:Drivers/lvgl/src/core/lv_indev.c ****         /*In edit mode send LEFT/RIGHT keys*/
 726:Drivers/lvgl/src/core/lv_indev.c ****         if(lv_group_get_editing(g)) {
 727:Drivers/lvgl/src/core/lv_indev.c ****             LV_LOG_INFO("rotated by %+d (edit)", data->enc_diff);
 728:Drivers/lvgl/src/core/lv_indev.c ****             int32_t s;
 729:Drivers/lvgl/src/core/lv_indev.c ****             if(data->enc_diff < 0) {
 730:Drivers/lvgl/src/core/lv_indev.c ****                 for(s = 0; s < -data->enc_diff; s++) {
 731:Drivers/lvgl/src/core/lv_indev.c ****                     lv_group_send_data(g, LV_KEY_LEFT);
 732:Drivers/lvgl/src/core/lv_indev.c ****                     if(indev_reset_check(&i->proc)) return;
 733:Drivers/lvgl/src/core/lv_indev.c ****                 }
 734:Drivers/lvgl/src/core/lv_indev.c ****             }
 735:Drivers/lvgl/src/core/lv_indev.c ****             else if(data->enc_diff > 0) {
 736:Drivers/lvgl/src/core/lv_indev.c ****                 for(s = 0; s < data->enc_diff; s++) {
 737:Drivers/lvgl/src/core/lv_indev.c ****                     lv_group_send_data(g, LV_KEY_RIGHT);
 738:Drivers/lvgl/src/core/lv_indev.c ****                     if(indev_reset_check(&i->proc)) return;
 739:Drivers/lvgl/src/core/lv_indev.c ****                 }
 740:Drivers/lvgl/src/core/lv_indev.c ****             }
 741:Drivers/lvgl/src/core/lv_indev.c ****         }
 742:Drivers/lvgl/src/core/lv_indev.c ****         /*In navigate mode focus on the next/prev objects*/
 743:Drivers/lvgl/src/core/lv_indev.c ****         else {
 744:Drivers/lvgl/src/core/lv_indev.c ****             LV_LOG_INFO("rotated by %+d (nav)", data->enc_diff);
 745:Drivers/lvgl/src/core/lv_indev.c ****             int32_t s;
 746:Drivers/lvgl/src/core/lv_indev.c ****             if(data->enc_diff < 0) {
 747:Drivers/lvgl/src/core/lv_indev.c ****                 for(s = 0; s < -data->enc_diff; s++) {
 748:Drivers/lvgl/src/core/lv_indev.c ****                     lv_group_focus_prev(g);
 749:Drivers/lvgl/src/core/lv_indev.c ****                     if(indev_reset_check(&i->proc)) return;
 750:Drivers/lvgl/src/core/lv_indev.c ****                 }
 751:Drivers/lvgl/src/core/lv_indev.c ****             }
 752:Drivers/lvgl/src/core/lv_indev.c ****             else if(data->enc_diff > 0) {
 753:Drivers/lvgl/src/core/lv_indev.c ****                 for(s = 0; s < data->enc_diff; s++) {
 754:Drivers/lvgl/src/core/lv_indev.c ****                     lv_group_focus_next(g);
 755:Drivers/lvgl/src/core/lv_indev.c ****                     if(indev_reset_check(&i->proc)) return;
 756:Drivers/lvgl/src/core/lv_indev.c ****                 }
 757:Drivers/lvgl/src/core/lv_indev.c ****             }
 758:Drivers/lvgl/src/core/lv_indev.c ****         }
 759:Drivers/lvgl/src/core/lv_indev.c ****     }
 760:Drivers/lvgl/src/core/lv_indev.c **** }
 761:Drivers/lvgl/src/core/lv_indev.c **** 
 762:Drivers/lvgl/src/core/lv_indev.c **** /**
 763:Drivers/lvgl/src/core/lv_indev.c ****  * Process new points from an input device. indev->state.pressed has to be set
 764:Drivers/lvgl/src/core/lv_indev.c ****  * @param indev pointer to an input device state
 765:Drivers/lvgl/src/core/lv_indev.c ****  * @param x x coordinate of the next point
 766:Drivers/lvgl/src/core/lv_indev.c ****  * @param y y coordinate of the next point
 767:Drivers/lvgl/src/core/lv_indev.c ****  */
 768:Drivers/lvgl/src/core/lv_indev.c **** static void indev_button_proc(lv_indev_t * i, lv_indev_data_t * data)
 769:Drivers/lvgl/src/core/lv_indev.c **** {
 770:Drivers/lvgl/src/core/lv_indev.c ****     /*Die gracefully if i->btn_points is NULL*/
ARM GAS  /var/folders/lp/x54gwt890xv47sdkqj1k04q40000gn/T//ccfgQDQQ.s 			page 15


 771:Drivers/lvgl/src/core/lv_indev.c ****     if(i->btn_points == NULL) {
 772:Drivers/lvgl/src/core/lv_indev.c ****         LV_LOG_WARN("btn_points is NULL");
 773:Drivers/lvgl/src/core/lv_indev.c ****         return;
 774:Drivers/lvgl/src/core/lv_indev.c ****     }
 775:Drivers/lvgl/src/core/lv_indev.c **** 
 776:Drivers/lvgl/src/core/lv_indev.c ****     lv_coord_t x = i->btn_points[data->btn_id].x;
 777:Drivers/lvgl/src/core/lv_indev.c ****     lv_coord_t y = i->btn_points[data->btn_id].y;
 778:Drivers/lvgl/src/core/lv_indev.c **** 
 779:Drivers/lvgl/src/core/lv_indev.c ****     static lv_indev_state_t prev_state = LV_INDEV_STATE_RELEASED;
 780:Drivers/lvgl/src/core/lv_indev.c ****     if(prev_state != data->state) {
 781:Drivers/lvgl/src/core/lv_indev.c ****         if(data->state == LV_INDEV_STATE_PRESSED) {
 782:Drivers/lvgl/src/core/lv_indev.c ****             LV_LOG_INFO("button %" LV_PRIu32 " is pressed (x:%d y:%d)", data->btn_id, x, y);
 783:Drivers/lvgl/src/core/lv_indev.c ****         }
 784:Drivers/lvgl/src/core/lv_indev.c ****         else {
 785:Drivers/lvgl/src/core/lv_indev.c ****             LV_LOG_INFO("button %" LV_PRIu32 " is released (x:%d y:%d)", data->btn_id, x, y);
 786:Drivers/lvgl/src/core/lv_indev.c ****         }
 787:Drivers/lvgl/src/core/lv_indev.c ****     }
 788:Drivers/lvgl/src/core/lv_indev.c **** 
 789:Drivers/lvgl/src/core/lv_indev.c ****     /*If a new point comes always make a release*/
 790:Drivers/lvgl/src/core/lv_indev.c ****     if(data->state == LV_INDEV_STATE_PRESSED) {
 791:Drivers/lvgl/src/core/lv_indev.c ****         if(i->proc.types.pointer.last_point.x != x ||
 792:Drivers/lvgl/src/core/lv_indev.c ****            i->proc.types.pointer.last_point.y != y) {
 793:Drivers/lvgl/src/core/lv_indev.c ****             indev_proc_release(&i->proc);
 794:Drivers/lvgl/src/core/lv_indev.c ****         }
 795:Drivers/lvgl/src/core/lv_indev.c ****     }
 796:Drivers/lvgl/src/core/lv_indev.c **** 
 797:Drivers/lvgl/src/core/lv_indev.c ****     if(indev_reset_check(&i->proc)) return;
 798:Drivers/lvgl/src/core/lv_indev.c **** 
 799:Drivers/lvgl/src/core/lv_indev.c ****     /*Save the new points*/
 800:Drivers/lvgl/src/core/lv_indev.c ****     i->proc.types.pointer.act_point.x = x;
 801:Drivers/lvgl/src/core/lv_indev.c ****     i->proc.types.pointer.act_point.y = y;
 802:Drivers/lvgl/src/core/lv_indev.c **** 
 803:Drivers/lvgl/src/core/lv_indev.c ****     if(data->state == LV_INDEV_STATE_PRESSED) indev_proc_press(&i->proc);
 804:Drivers/lvgl/src/core/lv_indev.c ****     else indev_proc_release(&i->proc);
 805:Drivers/lvgl/src/core/lv_indev.c **** 
 806:Drivers/lvgl/src/core/lv_indev.c ****     if(indev_reset_check(&i->proc)) return;
 807:Drivers/lvgl/src/core/lv_indev.c **** 
 808:Drivers/lvgl/src/core/lv_indev.c ****     i->proc.types.pointer.last_point.x = i->proc.types.pointer.act_point.x;
 809:Drivers/lvgl/src/core/lv_indev.c ****     i->proc.types.pointer.last_point.y = i->proc.types.pointer.act_point.y;
 810:Drivers/lvgl/src/core/lv_indev.c **** }
 811:Drivers/lvgl/src/core/lv_indev.c **** 
 812:Drivers/lvgl/src/core/lv_indev.c **** /**
 813:Drivers/lvgl/src/core/lv_indev.c ****  * Process the pressed state of LV_INDEV_TYPE_POINTER input devices
 814:Drivers/lvgl/src/core/lv_indev.c ****  * @param indev pointer to an input device 'proc'
 815:Drivers/lvgl/src/core/lv_indev.c ****  * @return LV_RES_OK: no indev reset required; LV_RES_INV: indev reset is required
 816:Drivers/lvgl/src/core/lv_indev.c ****  */
 817:Drivers/lvgl/src/core/lv_indev.c **** static void indev_proc_press(_lv_indev_proc_t * proc)
 818:Drivers/lvgl/src/core/lv_indev.c **** {
 819:Drivers/lvgl/src/core/lv_indev.c ****     LV_LOG_INFO("pressed at x:%d y:%d", proc->types.pointer.act_point.x, proc->types.pointer.act_po
 820:Drivers/lvgl/src/core/lv_indev.c ****     indev_obj_act = proc->types.pointer.act_obj;
 821:Drivers/lvgl/src/core/lv_indev.c **** 
 822:Drivers/lvgl/src/core/lv_indev.c ****     if(proc->wait_until_release != 0) return;
 823:Drivers/lvgl/src/core/lv_indev.c **** 
 824:Drivers/lvgl/src/core/lv_indev.c ****     lv_disp_t * disp = indev_act->driver->disp;
 825:Drivers/lvgl/src/core/lv_indev.c ****     bool new_obj_searched = false;
 826:Drivers/lvgl/src/core/lv_indev.c **** 
 827:Drivers/lvgl/src/core/lv_indev.c ****     /*If there is no last object then search*/
ARM GAS  /var/folders/lp/x54gwt890xv47sdkqj1k04q40000gn/T//ccfgQDQQ.s 			page 16


 828:Drivers/lvgl/src/core/lv_indev.c ****     if(indev_obj_act == NULL) {
 829:Drivers/lvgl/src/core/lv_indev.c ****         indev_obj_act = lv_indev_search_obj(lv_disp_get_layer_sys(disp), &proc->types.pointer.act_p
 830:Drivers/lvgl/src/core/lv_indev.c ****         if(indev_obj_act == NULL) indev_obj_act = lv_indev_search_obj(lv_disp_get_layer_top(disp),
 831:Drivers/lvgl/src/core/lv_indev.c ****                                                                           &proc->types.pointer.act_
 832:Drivers/lvgl/src/core/lv_indev.c ****         if(indev_obj_act == NULL) indev_obj_act = lv_indev_search_obj(lv_disp_get_scr_act(disp),
 833:Drivers/lvgl/src/core/lv_indev.c ****                                                                           &proc->types.pointer.act_
 834:Drivers/lvgl/src/core/lv_indev.c ****         new_obj_searched = true;
 835:Drivers/lvgl/src/core/lv_indev.c ****     }
 836:Drivers/lvgl/src/core/lv_indev.c ****     /*If there is last object but it is not scrolled and not protected also search*/
 837:Drivers/lvgl/src/core/lv_indev.c ****     else if(proc->types.pointer.scroll_obj == NULL &&
 838:Drivers/lvgl/src/core/lv_indev.c ****             lv_obj_has_flag(indev_obj_act, LV_OBJ_FLAG_PRESS_LOCK) == false) {
 839:Drivers/lvgl/src/core/lv_indev.c ****         indev_obj_act = lv_indev_search_obj(lv_disp_get_layer_sys(disp), &proc->types.pointer.act_p
 840:Drivers/lvgl/src/core/lv_indev.c ****         if(indev_obj_act == NULL) indev_obj_act = lv_indev_search_obj(lv_disp_get_layer_top(disp),
 841:Drivers/lvgl/src/core/lv_indev.c ****                                                                           &proc->types.pointer.act_
 842:Drivers/lvgl/src/core/lv_indev.c ****         if(indev_obj_act == NULL) indev_obj_act = lv_indev_search_obj(lv_disp_get_scr_act(disp),
 843:Drivers/lvgl/src/core/lv_indev.c ****                                                                           &proc->types.pointer.act_
 844:Drivers/lvgl/src/core/lv_indev.c ****         new_obj_searched = true;
 845:Drivers/lvgl/src/core/lv_indev.c ****     }
 846:Drivers/lvgl/src/core/lv_indev.c **** 
 847:Drivers/lvgl/src/core/lv_indev.c ****     /*The last object might have scroll throw. Stop it manually*/
 848:Drivers/lvgl/src/core/lv_indev.c ****     if(new_obj_searched && proc->types.pointer.last_obj) {
 849:Drivers/lvgl/src/core/lv_indev.c ****         proc->types.pointer.scroll_throw_vect.x = 0;
 850:Drivers/lvgl/src/core/lv_indev.c ****         proc->types.pointer.scroll_throw_vect.y = 0;
 851:Drivers/lvgl/src/core/lv_indev.c ****         _lv_indev_scroll_throw_handler(proc);
 852:Drivers/lvgl/src/core/lv_indev.c ****         if(indev_reset_check(proc)) return;
 853:Drivers/lvgl/src/core/lv_indev.c ****     }
 854:Drivers/lvgl/src/core/lv_indev.c **** 
 855:Drivers/lvgl/src/core/lv_indev.c ****     /*If a new object was found reset some variables and send a pressed event handler*/
 856:Drivers/lvgl/src/core/lv_indev.c ****     if(indev_obj_act != proc->types.pointer.act_obj) {
 857:Drivers/lvgl/src/core/lv_indev.c ****         proc->types.pointer.last_point.x = proc->types.pointer.act_point.x;
 858:Drivers/lvgl/src/core/lv_indev.c ****         proc->types.pointer.last_point.y = proc->types.pointer.act_point.y;
 859:Drivers/lvgl/src/core/lv_indev.c **** 
 860:Drivers/lvgl/src/core/lv_indev.c ****         /*If a new object found the previous was lost, so send a Call the ancestor's event handler*
 861:Drivers/lvgl/src/core/lv_indev.c ****         if(proc->types.pointer.act_obj != NULL) {
 862:Drivers/lvgl/src/core/lv_indev.c ****             /*Save the obj because in special cases `act_obj` can change in the Call the ancestor's
 863:Drivers/lvgl/src/core/lv_indev.c ****             lv_obj_t * last_obj = proc->types.pointer.act_obj;
 864:Drivers/lvgl/src/core/lv_indev.c **** 
 865:Drivers/lvgl/src/core/lv_indev.c ****             lv_event_send(last_obj, LV_EVENT_PRESS_LOST, indev_act);
 866:Drivers/lvgl/src/core/lv_indev.c ****             if(indev_reset_check(proc)) return;
 867:Drivers/lvgl/src/core/lv_indev.c ****         }
 868:Drivers/lvgl/src/core/lv_indev.c **** 
 869:Drivers/lvgl/src/core/lv_indev.c ****         proc->types.pointer.act_obj  = indev_obj_act; /*Save the pressed object*/
 870:Drivers/lvgl/src/core/lv_indev.c ****         proc->types.pointer.last_obj = indev_obj_act;
 871:Drivers/lvgl/src/core/lv_indev.c **** 
 872:Drivers/lvgl/src/core/lv_indev.c ****         if(indev_obj_act != NULL) {
 873:Drivers/lvgl/src/core/lv_indev.c ****             /*Save the time when the obj pressed to count long press time.*/
 874:Drivers/lvgl/src/core/lv_indev.c ****             proc->pr_timestamp                 = lv_tick_get();
 875:Drivers/lvgl/src/core/lv_indev.c ****             proc->long_pr_sent                 = 0;
 876:Drivers/lvgl/src/core/lv_indev.c ****             proc->types.pointer.scroll_sum.x     = 0;
 877:Drivers/lvgl/src/core/lv_indev.c ****             proc->types.pointer.scroll_sum.y     = 0;
 878:Drivers/lvgl/src/core/lv_indev.c ****             proc->types.pointer.scroll_dir = LV_DIR_NONE;
 879:Drivers/lvgl/src/core/lv_indev.c ****             proc->types.pointer.gesture_dir = LV_DIR_NONE;
 880:Drivers/lvgl/src/core/lv_indev.c ****             proc->types.pointer.gesture_sent   = 0;
 881:Drivers/lvgl/src/core/lv_indev.c ****             proc->types.pointer.gesture_sum.x  = 0;
 882:Drivers/lvgl/src/core/lv_indev.c ****             proc->types.pointer.gesture_sum.y  = 0;
 883:Drivers/lvgl/src/core/lv_indev.c ****             proc->types.pointer.vect.x         = 0;
 884:Drivers/lvgl/src/core/lv_indev.c ****             proc->types.pointer.vect.y         = 0;
ARM GAS  /var/folders/lp/x54gwt890xv47sdkqj1k04q40000gn/T//ccfgQDQQ.s 			page 17


 885:Drivers/lvgl/src/core/lv_indev.c **** 
 886:Drivers/lvgl/src/core/lv_indev.c ****             /*Call the ancestor's event handler about the press*/
 887:Drivers/lvgl/src/core/lv_indev.c ****             lv_event_send(indev_obj_act, LV_EVENT_PRESSED, indev_act);
 888:Drivers/lvgl/src/core/lv_indev.c ****             if(indev_reset_check(proc)) return;
 889:Drivers/lvgl/src/core/lv_indev.c **** 
 890:Drivers/lvgl/src/core/lv_indev.c ****             if(indev_act->proc.wait_until_release) return;
 891:Drivers/lvgl/src/core/lv_indev.c **** 
 892:Drivers/lvgl/src/core/lv_indev.c ****             /*Handle focus*/
 893:Drivers/lvgl/src/core/lv_indev.c ****             indev_click_focus(&indev_act->proc);
 894:Drivers/lvgl/src/core/lv_indev.c ****             if(indev_reset_check(proc)) return;
 895:Drivers/lvgl/src/core/lv_indev.c **** 
 896:Drivers/lvgl/src/core/lv_indev.c ****         }
 897:Drivers/lvgl/src/core/lv_indev.c ****     }
 898:Drivers/lvgl/src/core/lv_indev.c **** 
 899:Drivers/lvgl/src/core/lv_indev.c ****     /*Calculate the vector and apply a low pass filter: new value = 0.5 * old_value + 0.5 * new_val
 900:Drivers/lvgl/src/core/lv_indev.c ****     proc->types.pointer.vect.x = proc->types.pointer.act_point.x - proc->types.pointer.last_point.x
 901:Drivers/lvgl/src/core/lv_indev.c ****     proc->types.pointer.vect.y = proc->types.pointer.act_point.y - proc->types.pointer.last_point.y
 902:Drivers/lvgl/src/core/lv_indev.c **** 
 903:Drivers/lvgl/src/core/lv_indev.c ****     proc->types.pointer.scroll_throw_vect.x = (proc->types.pointer.scroll_throw_vect.x + proc->type
 904:Drivers/lvgl/src/core/lv_indev.c ****     proc->types.pointer.scroll_throw_vect.y = (proc->types.pointer.scroll_throw_vect.y + proc->type
 905:Drivers/lvgl/src/core/lv_indev.c **** 
 906:Drivers/lvgl/src/core/lv_indev.c ****     proc->types.pointer.scroll_throw_vect_ori = proc->types.pointer.scroll_throw_vect;
 907:Drivers/lvgl/src/core/lv_indev.c **** 
 908:Drivers/lvgl/src/core/lv_indev.c ****     if(indev_obj_act) {
 909:Drivers/lvgl/src/core/lv_indev.c ****         lv_event_send(indev_obj_act, LV_EVENT_PRESSING, indev_act);
 910:Drivers/lvgl/src/core/lv_indev.c ****         if(indev_reset_check(proc)) return;
 911:Drivers/lvgl/src/core/lv_indev.c **** 
 912:Drivers/lvgl/src/core/lv_indev.c ****         if(indev_act->proc.wait_until_release) return;
 913:Drivers/lvgl/src/core/lv_indev.c **** 
 914:Drivers/lvgl/src/core/lv_indev.c ****         _lv_indev_scroll_handler(proc);
 915:Drivers/lvgl/src/core/lv_indev.c ****         if(indev_reset_check(proc)) return;
 916:Drivers/lvgl/src/core/lv_indev.c ****         indev_gesture(proc);
 917:Drivers/lvgl/src/core/lv_indev.c ****         if(indev_reset_check(proc)) return;
 918:Drivers/lvgl/src/core/lv_indev.c **** 
 919:Drivers/lvgl/src/core/lv_indev.c ****         /*If there is no scrolling then check for long press time*/
 920:Drivers/lvgl/src/core/lv_indev.c ****         if(proc->types.pointer.scroll_obj == NULL && proc->long_pr_sent == 0) {
 921:Drivers/lvgl/src/core/lv_indev.c ****             /*Call the ancestor's event handler about the long press if enough time elapsed*/
 922:Drivers/lvgl/src/core/lv_indev.c ****             if(lv_tick_elaps(proc->pr_timestamp) > indev_act->driver->long_press_time) {
 923:Drivers/lvgl/src/core/lv_indev.c ****                 lv_event_send(indev_obj_act, LV_EVENT_LONG_PRESSED, indev_act);
 924:Drivers/lvgl/src/core/lv_indev.c ****                 if(indev_reset_check(proc)) return;
 925:Drivers/lvgl/src/core/lv_indev.c **** 
 926:Drivers/lvgl/src/core/lv_indev.c ****                 /*Mark the Call the ancestor's event handler sending to do not send it again*/
 927:Drivers/lvgl/src/core/lv_indev.c ****                 proc->long_pr_sent = 1;
 928:Drivers/lvgl/src/core/lv_indev.c **** 
 929:Drivers/lvgl/src/core/lv_indev.c ****                 /*Save the long press time stamp for the long press repeat handler*/
 930:Drivers/lvgl/src/core/lv_indev.c ****                 proc->longpr_rep_timestamp = lv_tick_get();
 931:Drivers/lvgl/src/core/lv_indev.c ****             }
 932:Drivers/lvgl/src/core/lv_indev.c ****         }
 933:Drivers/lvgl/src/core/lv_indev.c **** 
 934:Drivers/lvgl/src/core/lv_indev.c ****         /*Send long press repeated Call the ancestor's event handler*/
 935:Drivers/lvgl/src/core/lv_indev.c ****         if(proc->types.pointer.scroll_obj == NULL && proc->long_pr_sent == 1) {
 936:Drivers/lvgl/src/core/lv_indev.c ****             /*Call the ancestor's event handler about the long press repeat if enough time elapsed*
 937:Drivers/lvgl/src/core/lv_indev.c ****             if(lv_tick_elaps(proc->longpr_rep_timestamp) > indev_act->driver->long_press_repeat_tim
 938:Drivers/lvgl/src/core/lv_indev.c ****                 lv_event_send(indev_obj_act, LV_EVENT_LONG_PRESSED_REPEAT, indev_act);
 939:Drivers/lvgl/src/core/lv_indev.c ****                 if(indev_reset_check(proc)) return;
 940:Drivers/lvgl/src/core/lv_indev.c ****                 proc->longpr_rep_timestamp = lv_tick_get();
 941:Drivers/lvgl/src/core/lv_indev.c ****             }
ARM GAS  /var/folders/lp/x54gwt890xv47sdkqj1k04q40000gn/T//ccfgQDQQ.s 			page 18


 942:Drivers/lvgl/src/core/lv_indev.c ****         }
 943:Drivers/lvgl/src/core/lv_indev.c ****     }
 944:Drivers/lvgl/src/core/lv_indev.c **** }
 945:Drivers/lvgl/src/core/lv_indev.c **** 
 946:Drivers/lvgl/src/core/lv_indev.c **** /**
 947:Drivers/lvgl/src/core/lv_indev.c ****  * Process the released state of LV_INDEV_TYPE_POINTER input devices
 948:Drivers/lvgl/src/core/lv_indev.c ****  * @param proc pointer to an input device 'proc'
 949:Drivers/lvgl/src/core/lv_indev.c ****  */
 950:Drivers/lvgl/src/core/lv_indev.c **** static void indev_proc_release(_lv_indev_proc_t * proc)
 951:Drivers/lvgl/src/core/lv_indev.c **** {
  30              		.loc 1 951 1 view -0
  31              		.cfi_startproc
  32              		@ args = 0, pretend = 0, frame = 8
  33              		@ frame_needed = 0, uses_anonymous_args = 0
 952:Drivers/lvgl/src/core/lv_indev.c ****     if(proc->wait_until_release != 0) {
  34              		.loc 1 952 5 view .LVU1
 951:Drivers/lvgl/src/core/lv_indev.c ****     if(proc->wait_until_release != 0) {
  35              		.loc 1 951 1 is_stmt 0 view .LVU2
  36 0000 2DE9F043 		push	{r4, r5, r6, r7, r8, r9, lr}
  37              		.cfi_def_cfa_offset 28
  38              		.cfi_offset 4, -28
  39              		.cfi_offset 5, -24
  40              		.cfi_offset 6, -20
  41              		.cfi_offset 7, -16
  42              		.cfi_offset 8, -12
  43              		.cfi_offset 9, -8
  44              		.cfi_offset 14, -4
  45              		.loc 1 952 33 view .LVU3
  46 0004 4378     		ldrb	r3, [r0, #1]	@ zero_extendqisi2
  47              		.loc 1 952 7 view .LVU4
  48 0006 13F00805 		ands	r5, r3, #8
 951:Drivers/lvgl/src/core/lv_indev.c ****     if(proc->wait_until_release != 0) {
  49              		.loc 1 951 1 view .LVU5
  50 000a 0446     		mov	r4, r0
  51 000c 83B0     		sub	sp, sp, #12
  52              		.cfi_def_cfa_offset 40
 953:Drivers/lvgl/src/core/lv_indev.c ****         lv_event_send(proc->types.pointer.act_obj, LV_EVENT_PRESS_LOST, indev_act);
  53              		.loc 1 953 9 view .LVU6
  54 000e 406A     		ldr	r0, [r0, #36]
  55              	.LVL1:
 952:Drivers/lvgl/src/core/lv_indev.c ****     if(proc->wait_until_release != 0) {
  56              		.loc 1 952 7 view .LVU7
  57 0010 5BD1     		bne	.L44
 954:Drivers/lvgl/src/core/lv_indev.c ****         if(indev_reset_check(proc)) return;
 955:Drivers/lvgl/src/core/lv_indev.c **** 
 956:Drivers/lvgl/src/core/lv_indev.c ****         proc->types.pointer.act_obj  = NULL;
 957:Drivers/lvgl/src/core/lv_indev.c ****         proc->types.pointer.last_obj = NULL;
 958:Drivers/lvgl/src/core/lv_indev.c ****         proc->pr_timestamp           = 0;
 959:Drivers/lvgl/src/core/lv_indev.c ****         proc->longpr_rep_timestamp   = 0;
 960:Drivers/lvgl/src/core/lv_indev.c ****         proc->wait_until_release     = 0;
 961:Drivers/lvgl/src/core/lv_indev.c ****     }
 962:Drivers/lvgl/src/core/lv_indev.c ****     indev_obj_act = proc->types.pointer.act_obj;
  58              		.loc 1 962 5 is_stmt 1 view .LVU8
  59              		.loc 1 962 19 is_stmt 0 view .LVU9
  60 0012 4F4F     		ldr	r7, .L46
 963:Drivers/lvgl/src/core/lv_indev.c ****     lv_obj_t * scroll_obj = proc->types.pointer.scroll_obj;
  61              		.loc 1 963 16 view .LVU10
ARM GAS  /var/folders/lp/x54gwt890xv47sdkqj1k04q40000gn/T//ccfgQDQQ.s 			page 19


  62 0014 D4F82C90 		ldr	r9, [r4, #44]
 962:Drivers/lvgl/src/core/lv_indev.c ****     lv_obj_t * scroll_obj = proc->types.pointer.scroll_obj;
  63              		.loc 1 962 19 view .LVU11
  64 0018 3860     		str	r0, [r7]
  65              		.loc 1 963 5 is_stmt 1 view .LVU12
  66              	.LVL2:
 964:Drivers/lvgl/src/core/lv_indev.c **** 
 965:Drivers/lvgl/src/core/lv_indev.c ****     /*Forget the act obj and send a released Call the ancestor's event handler*/
 966:Drivers/lvgl/src/core/lv_indev.c ****     if(indev_obj_act) {
  67              		.loc 1 966 5 view .LVU13
  68              		.loc 1 966 7 is_stmt 0 view .LVU14
  69 001a 0028     		cmp	r0, #0
  70 001c 6DD0     		beq	.L6
 967:Drivers/lvgl/src/core/lv_indev.c ****         LV_LOG_INFO("released");
  71              		.loc 1 967 9 is_stmt 1 view .LVU15
  72              		.loc 1 967 9 view .LVU16
  73              		.loc 1 967 9 view .LVU17
 968:Drivers/lvgl/src/core/lv_indev.c **** 
 969:Drivers/lvgl/src/core/lv_indev.c ****         /*Send RELEASE Call the ancestor's event handler and event*/
 970:Drivers/lvgl/src/core/lv_indev.c ****         lv_event_send(indev_obj_act, LV_EVENT_RELEASED, indev_act);
  74              		.loc 1 970 9 view .LVU18
  75 001e 4D4E     		ldr	r6, .L46+4
  76 0020 0821     		movs	r1, #8
  77 0022 3268     		ldr	r2, [r6]
  78 0024 FFF7FEFF 		bl	lv_event_send
  79              	.LVL3:
 971:Drivers/lvgl/src/core/lv_indev.c ****         if(indev_reset_check(proc)) return;
  80              		.loc 1 971 9 view .LVU19
  81              	.LBB131:
  82              	.LBI131:
 972:Drivers/lvgl/src/core/lv_indev.c **** 
 973:Drivers/lvgl/src/core/lv_indev.c ****         /*Send CLICK if no scrolling*/
 974:Drivers/lvgl/src/core/lv_indev.c ****         if(scroll_obj == NULL) {
 975:Drivers/lvgl/src/core/lv_indev.c ****             if(proc->long_pr_sent == 0) {
 976:Drivers/lvgl/src/core/lv_indev.c ****                 lv_event_send(indev_obj_act, LV_EVENT_SHORT_CLICKED, indev_act);
 977:Drivers/lvgl/src/core/lv_indev.c ****                 if(indev_reset_check(proc)) return;
 978:Drivers/lvgl/src/core/lv_indev.c ****             }
 979:Drivers/lvgl/src/core/lv_indev.c **** 
 980:Drivers/lvgl/src/core/lv_indev.c ****             lv_event_send(indev_obj_act, LV_EVENT_CLICKED, indev_act);
 981:Drivers/lvgl/src/core/lv_indev.c ****             if(indev_reset_check(proc)) return;
 982:Drivers/lvgl/src/core/lv_indev.c ****         }
 983:Drivers/lvgl/src/core/lv_indev.c **** 
 984:Drivers/lvgl/src/core/lv_indev.c ****         proc->types.pointer.act_obj = NULL;
 985:Drivers/lvgl/src/core/lv_indev.c ****         proc->pr_timestamp          = 0;
 986:Drivers/lvgl/src/core/lv_indev.c ****         proc->longpr_rep_timestamp  = 0;
 987:Drivers/lvgl/src/core/lv_indev.c **** 
 988:Drivers/lvgl/src/core/lv_indev.c **** 
 989:Drivers/lvgl/src/core/lv_indev.c ****         /*Get the transformed vector with this object*/
 990:Drivers/lvgl/src/core/lv_indev.c ****         if(scroll_obj) {
 991:Drivers/lvgl/src/core/lv_indev.c ****             int16_t angle = 0;
 992:Drivers/lvgl/src/core/lv_indev.c ****             int16_t zoom = 256;
 993:Drivers/lvgl/src/core/lv_indev.c ****             lv_point_t pivot = { 0, 0 };
 994:Drivers/lvgl/src/core/lv_indev.c ****             lv_obj_t * parent = scroll_obj;
 995:Drivers/lvgl/src/core/lv_indev.c ****             while(parent) {
 996:Drivers/lvgl/src/core/lv_indev.c ****                 angle += lv_obj_get_style_transform_angle(parent, 0);
 997:Drivers/lvgl/src/core/lv_indev.c ****                 zoom *= (lv_obj_get_style_transform_zoom(parent, 0) / 256);
 998:Drivers/lvgl/src/core/lv_indev.c ****                 parent = lv_obj_get_parent(parent);
ARM GAS  /var/folders/lp/x54gwt890xv47sdkqj1k04q40000gn/T//ccfgQDQQ.s 			page 20


 999:Drivers/lvgl/src/core/lv_indev.c ****             }
1000:Drivers/lvgl/src/core/lv_indev.c **** 
1001:Drivers/lvgl/src/core/lv_indev.c ****             if(angle != 0 || zoom != LV_IMG_ZOOM_NONE) {
1002:Drivers/lvgl/src/core/lv_indev.c ****                 angle = -angle;
1003:Drivers/lvgl/src/core/lv_indev.c ****                 zoom = (256 * 256) / zoom;
1004:Drivers/lvgl/src/core/lv_indev.c ****                 lv_point_transform(&proc->types.pointer.scroll_throw_vect, angle, zoom, &pivot);
1005:Drivers/lvgl/src/core/lv_indev.c ****                 lv_point_transform(&proc->types.pointer.scroll_throw_vect_ori, angle, zoom, &pivot)
1006:Drivers/lvgl/src/core/lv_indev.c ****             }
1007:Drivers/lvgl/src/core/lv_indev.c ****         }
1008:Drivers/lvgl/src/core/lv_indev.c **** 
1009:Drivers/lvgl/src/core/lv_indev.c ****     }
1010:Drivers/lvgl/src/core/lv_indev.c **** 
1011:Drivers/lvgl/src/core/lv_indev.c ****     /*The reset can be set in the Call the ancestor's event handler function.
1012:Drivers/lvgl/src/core/lv_indev.c ****      * In case of reset query ignore the remaining parts.*/
1013:Drivers/lvgl/src/core/lv_indev.c ****     if(scroll_obj) {
1014:Drivers/lvgl/src/core/lv_indev.c ****         _lv_indev_scroll_throw_handler(proc);
1015:Drivers/lvgl/src/core/lv_indev.c ****         if(indev_reset_check(proc)) return;
1016:Drivers/lvgl/src/core/lv_indev.c ****     }
1017:Drivers/lvgl/src/core/lv_indev.c **** }
1018:Drivers/lvgl/src/core/lv_indev.c **** 
1019:Drivers/lvgl/src/core/lv_indev.c **** /**
1020:Drivers/lvgl/src/core/lv_indev.c ****  * Process a new point from LV_INDEV_TYPE_BUTTON input device
1021:Drivers/lvgl/src/core/lv_indev.c ****  * @param i pointer to an input device
1022:Drivers/lvgl/src/core/lv_indev.c ****  * @param data pointer to the data read from the input device
1023:Drivers/lvgl/src/core/lv_indev.c ****  * Reset input device if a reset query has been sent to it
1024:Drivers/lvgl/src/core/lv_indev.c ****  * @param indev pointer to an input device
1025:Drivers/lvgl/src/core/lv_indev.c ****  */
1026:Drivers/lvgl/src/core/lv_indev.c **** static void indev_proc_reset_query_handler(lv_indev_t * indev)
1027:Drivers/lvgl/src/core/lv_indev.c **** {
1028:Drivers/lvgl/src/core/lv_indev.c ****     if(indev->proc.reset_query) {
1029:Drivers/lvgl/src/core/lv_indev.c ****         indev->proc.types.pointer.act_obj           = NULL;
1030:Drivers/lvgl/src/core/lv_indev.c ****         indev->proc.types.pointer.last_obj          = NULL;
1031:Drivers/lvgl/src/core/lv_indev.c ****         indev->proc.types.pointer.scroll_obj          = NULL;
1032:Drivers/lvgl/src/core/lv_indev.c ****         indev->proc.long_pr_sent                    = 0;
1033:Drivers/lvgl/src/core/lv_indev.c ****         indev->proc.pr_timestamp                    = 0;
1034:Drivers/lvgl/src/core/lv_indev.c ****         indev->proc.longpr_rep_timestamp            = 0;
1035:Drivers/lvgl/src/core/lv_indev.c ****         indev->proc.types.pointer.scroll_sum.x        = 0;
1036:Drivers/lvgl/src/core/lv_indev.c ****         indev->proc.types.pointer.scroll_sum.y        = 0;
1037:Drivers/lvgl/src/core/lv_indev.c ****         indev->proc.types.pointer.scroll_dir = LV_DIR_NONE;
1038:Drivers/lvgl/src/core/lv_indev.c ****         indev->proc.types.pointer.scroll_throw_vect.x = 0;
1039:Drivers/lvgl/src/core/lv_indev.c ****         indev->proc.types.pointer.scroll_throw_vect.y = 0;
1040:Drivers/lvgl/src/core/lv_indev.c ****         indev->proc.types.pointer.gesture_sum.x     = 0;
1041:Drivers/lvgl/src/core/lv_indev.c ****         indev->proc.types.pointer.gesture_sum.y     = 0;
1042:Drivers/lvgl/src/core/lv_indev.c ****         indev->proc.reset_query                     = 0;
1043:Drivers/lvgl/src/core/lv_indev.c ****         indev_obj_act                               = NULL;
1044:Drivers/lvgl/src/core/lv_indev.c ****     }
1045:Drivers/lvgl/src/core/lv_indev.c **** }
1046:Drivers/lvgl/src/core/lv_indev.c **** 
1047:Drivers/lvgl/src/core/lv_indev.c **** /**
1048:Drivers/lvgl/src/core/lv_indev.c ****  * Handle focus/defocus on click for POINTER input devices
1049:Drivers/lvgl/src/core/lv_indev.c ****  * @param proc pointer to the state of the indev
1050:Drivers/lvgl/src/core/lv_indev.c ****  */
1051:Drivers/lvgl/src/core/lv_indev.c **** static void indev_click_focus(_lv_indev_proc_t * proc)
1052:Drivers/lvgl/src/core/lv_indev.c **** {
1053:Drivers/lvgl/src/core/lv_indev.c ****     /*Handle click focus*/
1054:Drivers/lvgl/src/core/lv_indev.c ****     if(lv_obj_has_flag(indev_obj_act, LV_OBJ_FLAG_CLICK_FOCUSABLE) == false ||
1055:Drivers/lvgl/src/core/lv_indev.c ****        proc->types.pointer.last_pressed == indev_obj_act) {
ARM GAS  /var/folders/lp/x54gwt890xv47sdkqj1k04q40000gn/T//ccfgQDQQ.s 			page 21


1056:Drivers/lvgl/src/core/lv_indev.c ****         return;
1057:Drivers/lvgl/src/core/lv_indev.c ****     }
1058:Drivers/lvgl/src/core/lv_indev.c **** 
1059:Drivers/lvgl/src/core/lv_indev.c ****     lv_group_t * g_act = lv_obj_get_group(indev_obj_act);
1060:Drivers/lvgl/src/core/lv_indev.c ****     lv_group_t * g_prev = proc->types.pointer.last_pressed ? lv_obj_get_group(proc->types.pointer.l
1061:Drivers/lvgl/src/core/lv_indev.c **** 
1062:Drivers/lvgl/src/core/lv_indev.c ****     /*If both the last and act. obj. are in the same group (or have no group)*/
1063:Drivers/lvgl/src/core/lv_indev.c ****     if(g_act == g_prev) {
1064:Drivers/lvgl/src/core/lv_indev.c ****         /*The objects are in a group*/
1065:Drivers/lvgl/src/core/lv_indev.c ****         if(g_act) {
1066:Drivers/lvgl/src/core/lv_indev.c ****             lv_group_focus_obj(indev_obj_act);
1067:Drivers/lvgl/src/core/lv_indev.c ****             if(indev_reset_check(proc)) return;
1068:Drivers/lvgl/src/core/lv_indev.c ****         }
1069:Drivers/lvgl/src/core/lv_indev.c ****         /*The object are not in group*/
1070:Drivers/lvgl/src/core/lv_indev.c ****         else {
1071:Drivers/lvgl/src/core/lv_indev.c ****             if(proc->types.pointer.last_pressed) {
1072:Drivers/lvgl/src/core/lv_indev.c ****                 lv_event_send(proc->types.pointer.last_pressed, LV_EVENT_DEFOCUSED, indev_act);
1073:Drivers/lvgl/src/core/lv_indev.c ****                 if(indev_reset_check(proc)) return;
1074:Drivers/lvgl/src/core/lv_indev.c ****             }
1075:Drivers/lvgl/src/core/lv_indev.c **** 
1076:Drivers/lvgl/src/core/lv_indev.c ****             lv_event_send(indev_obj_act, LV_EVENT_FOCUSED, indev_act);
1077:Drivers/lvgl/src/core/lv_indev.c ****             if(indev_reset_check(proc)) return;
1078:Drivers/lvgl/src/core/lv_indev.c ****         }
1079:Drivers/lvgl/src/core/lv_indev.c ****     }
1080:Drivers/lvgl/src/core/lv_indev.c ****     /*The object are not in the same group (in different groups or one has no group)*/
1081:Drivers/lvgl/src/core/lv_indev.c ****     else {
1082:Drivers/lvgl/src/core/lv_indev.c ****         /*If the prev. obj. is not in a group then defocus it.*/
1083:Drivers/lvgl/src/core/lv_indev.c ****         if(g_prev == NULL && proc->types.pointer.last_pressed) {
1084:Drivers/lvgl/src/core/lv_indev.c ****             lv_event_send(proc->types.pointer.last_pressed, LV_EVENT_DEFOCUSED, indev_act);
1085:Drivers/lvgl/src/core/lv_indev.c ****             if(indev_reset_check(proc)) return;
1086:Drivers/lvgl/src/core/lv_indev.c ****         }
1087:Drivers/lvgl/src/core/lv_indev.c ****         /*Focus on a non-group object*/
1088:Drivers/lvgl/src/core/lv_indev.c ****         else {
1089:Drivers/lvgl/src/core/lv_indev.c ****             if(proc->types.pointer.last_pressed) {
1090:Drivers/lvgl/src/core/lv_indev.c ****                 /*If the prev. object also wasn't in a group defocus it*/
1091:Drivers/lvgl/src/core/lv_indev.c ****                 if(g_prev == NULL) {
1092:Drivers/lvgl/src/core/lv_indev.c ****                     lv_event_send(proc->types.pointer.last_pressed, LV_EVENT_DEFOCUSED, indev_act);
1093:Drivers/lvgl/src/core/lv_indev.c ****                     if(indev_reset_check(proc)) return;
1094:Drivers/lvgl/src/core/lv_indev.c ****                 }
1095:Drivers/lvgl/src/core/lv_indev.c ****                 /*If the prev. object also was in a group at least "LEAVE" it instead of defocus*/
1096:Drivers/lvgl/src/core/lv_indev.c ****                 else {
1097:Drivers/lvgl/src/core/lv_indev.c ****                     lv_event_send(proc->types.pointer.last_pressed, LV_EVENT_LEAVE, indev_act);
1098:Drivers/lvgl/src/core/lv_indev.c ****                     if(indev_reset_check(proc)) return;
1099:Drivers/lvgl/src/core/lv_indev.c ****                 }
1100:Drivers/lvgl/src/core/lv_indev.c ****             }
1101:Drivers/lvgl/src/core/lv_indev.c ****         }
1102:Drivers/lvgl/src/core/lv_indev.c **** 
1103:Drivers/lvgl/src/core/lv_indev.c ****         /*Focus to the act. in its group*/
1104:Drivers/lvgl/src/core/lv_indev.c ****         if(g_act) {
1105:Drivers/lvgl/src/core/lv_indev.c ****             lv_group_focus_obj(indev_obj_act);
1106:Drivers/lvgl/src/core/lv_indev.c ****             if(indev_reset_check(proc)) return;
1107:Drivers/lvgl/src/core/lv_indev.c ****         }
1108:Drivers/lvgl/src/core/lv_indev.c ****         else {
1109:Drivers/lvgl/src/core/lv_indev.c ****             lv_event_send(indev_obj_act, LV_EVENT_FOCUSED, indev_act);
1110:Drivers/lvgl/src/core/lv_indev.c ****             if(indev_reset_check(proc)) return;
1111:Drivers/lvgl/src/core/lv_indev.c ****         }
1112:Drivers/lvgl/src/core/lv_indev.c ****     }
ARM GAS  /var/folders/lp/x54gwt890xv47sdkqj1k04q40000gn/T//ccfgQDQQ.s 			page 22


1113:Drivers/lvgl/src/core/lv_indev.c ****     proc->types.pointer.last_pressed = indev_obj_act;
1114:Drivers/lvgl/src/core/lv_indev.c **** }
1115:Drivers/lvgl/src/core/lv_indev.c **** 
1116:Drivers/lvgl/src/core/lv_indev.c **** /**
1117:Drivers/lvgl/src/core/lv_indev.c **** * Handle the gesture of indev_proc_p->types.pointer.act_obj
1118:Drivers/lvgl/src/core/lv_indev.c **** * @param indev pointer to an input device state
1119:Drivers/lvgl/src/core/lv_indev.c **** */
1120:Drivers/lvgl/src/core/lv_indev.c **** void indev_gesture(_lv_indev_proc_t * proc)
1121:Drivers/lvgl/src/core/lv_indev.c **** {
1122:Drivers/lvgl/src/core/lv_indev.c **** 
1123:Drivers/lvgl/src/core/lv_indev.c ****     if(proc->types.pointer.scroll_obj) return;
1124:Drivers/lvgl/src/core/lv_indev.c ****     if(proc->types.pointer.gesture_sent) return;
1125:Drivers/lvgl/src/core/lv_indev.c **** 
1126:Drivers/lvgl/src/core/lv_indev.c ****     lv_obj_t * gesture_obj = proc->types.pointer.act_obj;
1127:Drivers/lvgl/src/core/lv_indev.c **** 
1128:Drivers/lvgl/src/core/lv_indev.c ****     /*If gesture parent is active check recursively the gesture attribute*/
1129:Drivers/lvgl/src/core/lv_indev.c ****     while(gesture_obj && lv_obj_has_flag(gesture_obj, LV_OBJ_FLAG_GESTURE_BUBBLE)) {
1130:Drivers/lvgl/src/core/lv_indev.c ****         gesture_obj = lv_obj_get_parent(gesture_obj);
1131:Drivers/lvgl/src/core/lv_indev.c ****     }
1132:Drivers/lvgl/src/core/lv_indev.c **** 
1133:Drivers/lvgl/src/core/lv_indev.c ****     if(gesture_obj == NULL) return;
1134:Drivers/lvgl/src/core/lv_indev.c **** 
1135:Drivers/lvgl/src/core/lv_indev.c ****     if((LV_ABS(proc->types.pointer.vect.x) < indev_act->driver->gesture_min_velocity) &&
1136:Drivers/lvgl/src/core/lv_indev.c ****        (LV_ABS(proc->types.pointer.vect.y) < indev_act->driver->gesture_min_velocity)) {
1137:Drivers/lvgl/src/core/lv_indev.c ****         proc->types.pointer.gesture_sum.x = 0;
1138:Drivers/lvgl/src/core/lv_indev.c ****         proc->types.pointer.gesture_sum.y = 0;
1139:Drivers/lvgl/src/core/lv_indev.c ****     }
1140:Drivers/lvgl/src/core/lv_indev.c **** 
1141:Drivers/lvgl/src/core/lv_indev.c ****     /*Count the movement by gesture*/
1142:Drivers/lvgl/src/core/lv_indev.c ****     proc->types.pointer.gesture_sum.x += proc->types.pointer.vect.x;
1143:Drivers/lvgl/src/core/lv_indev.c ****     proc->types.pointer.gesture_sum.y += proc->types.pointer.vect.y;
1144:Drivers/lvgl/src/core/lv_indev.c **** 
1145:Drivers/lvgl/src/core/lv_indev.c ****     if((LV_ABS(proc->types.pointer.gesture_sum.x) > indev_act->driver->gesture_limit) ||
1146:Drivers/lvgl/src/core/lv_indev.c ****        (LV_ABS(proc->types.pointer.gesture_sum.y) > indev_act->driver->gesture_limit)) {
1147:Drivers/lvgl/src/core/lv_indev.c **** 
1148:Drivers/lvgl/src/core/lv_indev.c ****         proc->types.pointer.gesture_sent = 1;
1149:Drivers/lvgl/src/core/lv_indev.c **** 
1150:Drivers/lvgl/src/core/lv_indev.c ****         if(LV_ABS(proc->types.pointer.gesture_sum.x) > LV_ABS(proc->types.pointer.gesture_sum.y)) {
1151:Drivers/lvgl/src/core/lv_indev.c ****             if(proc->types.pointer.gesture_sum.x > 0)
1152:Drivers/lvgl/src/core/lv_indev.c ****                 proc->types.pointer.gesture_dir = LV_DIR_RIGHT;
1153:Drivers/lvgl/src/core/lv_indev.c ****             else
1154:Drivers/lvgl/src/core/lv_indev.c ****                 proc->types.pointer.gesture_dir = LV_DIR_LEFT;
1155:Drivers/lvgl/src/core/lv_indev.c ****         }
1156:Drivers/lvgl/src/core/lv_indev.c ****         else {
1157:Drivers/lvgl/src/core/lv_indev.c ****             if(proc->types.pointer.gesture_sum.y > 0)
1158:Drivers/lvgl/src/core/lv_indev.c ****                 proc->types.pointer.gesture_dir = LV_DIR_BOTTOM;
1159:Drivers/lvgl/src/core/lv_indev.c ****             else
1160:Drivers/lvgl/src/core/lv_indev.c ****                 proc->types.pointer.gesture_dir = LV_DIR_TOP;
1161:Drivers/lvgl/src/core/lv_indev.c ****         }
1162:Drivers/lvgl/src/core/lv_indev.c **** 
1163:Drivers/lvgl/src/core/lv_indev.c ****         lv_event_send(gesture_obj, LV_EVENT_GESTURE, indev_act);
1164:Drivers/lvgl/src/core/lv_indev.c ****         if(indev_reset_check(proc)) return;
1165:Drivers/lvgl/src/core/lv_indev.c ****     }
1166:Drivers/lvgl/src/core/lv_indev.c **** }
1167:Drivers/lvgl/src/core/lv_indev.c **** 
1168:Drivers/lvgl/src/core/lv_indev.c **** /**
1169:Drivers/lvgl/src/core/lv_indev.c ****  * Checks if the reset_query flag has been set. If so, perform necessary global indev cleanup actio
ARM GAS  /var/folders/lp/x54gwt890xv47sdkqj1k04q40000gn/T//ccfgQDQQ.s 			page 23


1170:Drivers/lvgl/src/core/lv_indev.c ****  * @param proc pointer to an input device 'proc'
1171:Drivers/lvgl/src/core/lv_indev.c ****  * @return true if indev query should be immediately truncated.
1172:Drivers/lvgl/src/core/lv_indev.c ****  */
1173:Drivers/lvgl/src/core/lv_indev.c **** static bool indev_reset_check(_lv_indev_proc_t * proc)
  83              		.loc 1 1173 13 view .LVU20
  84              	.LBB132:
1174:Drivers/lvgl/src/core/lv_indev.c **** {
1175:Drivers/lvgl/src/core/lv_indev.c ****     if(proc->reset_query) {
  85              		.loc 1 1175 5 view .LVU21
  86              		.loc 1 1175 8 is_stmt 0 view .LVU22
  87 0028 6378     		ldrb	r3, [r4, #1]	@ zero_extendqisi2
  88              		.loc 1 1175 7 view .LVU23
  89 002a 9907     		lsls	r1, r3, #30
1176:Drivers/lvgl/src/core/lv_indev.c ****         indev_obj_act = NULL;
  90              		.loc 1 1176 9 is_stmt 1 view .LVU24
1177:Drivers/lvgl/src/core/lv_indev.c ****     }
1178:Drivers/lvgl/src/core/lv_indev.c **** 
1179:Drivers/lvgl/src/core/lv_indev.c ****     return proc->reset_query ? true : false;
  91              		.loc 1 1179 5 view .LVU25
  92              	.LVL4:
1176:Drivers/lvgl/src/core/lv_indev.c ****         indev_obj_act = NULL;
  93              		.loc 1 1176 23 is_stmt 0 view .LVU26
  94 002c 48BF     		it	mi
  95 002e 3D60     		strmi	r5, [r7]
  96              	.LBE132:
  97              	.LBE131:
 971:Drivers/lvgl/src/core/lv_indev.c **** 
  98              		.loc 1 971 11 discriminator 1 view .LVU27
  99 0030 9A07     		lsls	r2, r3, #30
 100 0032 C3F34005 		ubfx	r5, r3, #1, #1
 101 0036 63D4     		bmi	.L1
 974:Drivers/lvgl/src/core/lv_indev.c ****             if(proc->long_pr_sent == 0) {
 102              		.loc 1 974 9 is_stmt 1 view .LVU28
 974:Drivers/lvgl/src/core/lv_indev.c ****             if(proc->long_pr_sent == 0) {
 103              		.loc 1 974 11 is_stmt 0 view .LVU29
 104 0038 B9F1000F 		cmp	r9, #0
 105 003c 67D0     		beq	.L9
 984:Drivers/lvgl/src/core/lv_indev.c ****         proc->pr_timestamp          = 0;
 106              		.loc 1 984 9 is_stmt 1 view .LVU30
 986:Drivers/lvgl/src/core/lv_indev.c **** 
 107              		.loc 1 986 37 is_stmt 0 view .LVU31
 108 003e C4E91155 		strd	r5, r5, [r4, #68]
 984:Drivers/lvgl/src/core/lv_indev.c ****         proc->pr_timestamp          = 0;
 109              		.loc 1 984 37 view .LVU32
 110 0042 6562     		str	r5, [r4, #36]
 985:Drivers/lvgl/src/core/lv_indev.c ****         proc->longpr_rep_timestamp  = 0;
 111              		.loc 1 985 9 is_stmt 1 view .LVU33
 990:Drivers/lvgl/src/core/lv_indev.c ****             int16_t angle = 0;
 112              		.loc 1 990 9 view .LVU34
 113              	.LBB133:
 991:Drivers/lvgl/src/core/lv_indev.c ****             int16_t zoom = 256;
 114              		.loc 1 991 13 view .LVU35
 115              	.LVL5:
 992:Drivers/lvgl/src/core/lv_indev.c ****             lv_point_t pivot = { 0, 0 };
 116              		.loc 1 992 13 view .LVU36
 993:Drivers/lvgl/src/core/lv_indev.c ****             lv_obj_t * parent = scroll_obj;
 117              		.loc 1 993 13 view .LVU37
ARM GAS  /var/folders/lp/x54gwt890xv47sdkqj1k04q40000gn/T//ccfgQDQQ.s 			page 24


 993:Drivers/lvgl/src/core/lv_indev.c ****             lv_obj_t * parent = scroll_obj;
 118              		.loc 1 993 24 is_stmt 0 view .LVU38
 119 0044 0195     		str	r5, [sp, #4]
 994:Drivers/lvgl/src/core/lv_indev.c ****             while(parent) {
 120              		.loc 1 994 13 is_stmt 1 view .LVU39
 121              	.LVL6:
 995:Drivers/lvgl/src/core/lv_indev.c ****                 angle += lv_obj_get_style_transform_angle(parent, 0);
 122              		.loc 1 995 13 view .LVU40
 995:Drivers/lvgl/src/core/lv_indev.c ****                 angle += lv_obj_get_style_transform_angle(parent, 0);
 123              		.loc 1 995 19 view .LVU41
 992:Drivers/lvgl/src/core/lv_indev.c ****             lv_point_t pivot = { 0, 0 };
 124              		.loc 1 992 21 is_stmt 0 view .LVU42
 125 0046 4FF48078 		mov	r8, #256
 126              	.LVL7:
 127              	.L10:
 996:Drivers/lvgl/src/core/lv_indev.c ****                 zoom *= (lv_obj_get_style_transform_zoom(parent, 0) / 256);
 128              		.loc 1 996 17 is_stmt 1 view .LVU43
 129              	.LBB134:
 130              	.LBI134:
 131              		.file 2 "Drivers/lvgl/src/core/lv_obj_style_gen.h"
   1:Drivers/lvgl/src/core/lv_obj_style_gen.h **** static inline lv_coord_t lv_obj_get_style_width(const struct _lv_obj_t * obj, uint32_t part)
   2:Drivers/lvgl/src/core/lv_obj_style_gen.h **** {
   3:Drivers/lvgl/src/core/lv_obj_style_gen.h ****     lv_style_value_t v = lv_obj_get_style_prop(obj, part, LV_STYLE_WIDTH);
   4:Drivers/lvgl/src/core/lv_obj_style_gen.h ****     return (lv_coord_t)v.num;
   5:Drivers/lvgl/src/core/lv_obj_style_gen.h **** }
   6:Drivers/lvgl/src/core/lv_obj_style_gen.h **** 
   7:Drivers/lvgl/src/core/lv_obj_style_gen.h **** static inline lv_coord_t lv_obj_get_style_min_width(const struct _lv_obj_t * obj, uint32_t part)
   8:Drivers/lvgl/src/core/lv_obj_style_gen.h **** {
   9:Drivers/lvgl/src/core/lv_obj_style_gen.h ****     lv_style_value_t v = lv_obj_get_style_prop(obj, part, LV_STYLE_MIN_WIDTH);
  10:Drivers/lvgl/src/core/lv_obj_style_gen.h ****     return (lv_coord_t)v.num;
  11:Drivers/lvgl/src/core/lv_obj_style_gen.h **** }
  12:Drivers/lvgl/src/core/lv_obj_style_gen.h **** 
  13:Drivers/lvgl/src/core/lv_obj_style_gen.h **** static inline lv_coord_t lv_obj_get_style_max_width(const struct _lv_obj_t * obj, uint32_t part)
  14:Drivers/lvgl/src/core/lv_obj_style_gen.h **** {
  15:Drivers/lvgl/src/core/lv_obj_style_gen.h ****     lv_style_value_t v = lv_obj_get_style_prop(obj, part, LV_STYLE_MAX_WIDTH);
  16:Drivers/lvgl/src/core/lv_obj_style_gen.h ****     return (lv_coord_t)v.num;
  17:Drivers/lvgl/src/core/lv_obj_style_gen.h **** }
  18:Drivers/lvgl/src/core/lv_obj_style_gen.h **** 
  19:Drivers/lvgl/src/core/lv_obj_style_gen.h **** static inline lv_coord_t lv_obj_get_style_height(const struct _lv_obj_t * obj, uint32_t part)
  20:Drivers/lvgl/src/core/lv_obj_style_gen.h **** {
  21:Drivers/lvgl/src/core/lv_obj_style_gen.h ****     lv_style_value_t v = lv_obj_get_style_prop(obj, part, LV_STYLE_HEIGHT);
  22:Drivers/lvgl/src/core/lv_obj_style_gen.h ****     return (lv_coord_t)v.num;
  23:Drivers/lvgl/src/core/lv_obj_style_gen.h **** }
  24:Drivers/lvgl/src/core/lv_obj_style_gen.h **** 
  25:Drivers/lvgl/src/core/lv_obj_style_gen.h **** static inline lv_coord_t lv_obj_get_style_min_height(const struct _lv_obj_t * obj, uint32_t part)
  26:Drivers/lvgl/src/core/lv_obj_style_gen.h **** {
  27:Drivers/lvgl/src/core/lv_obj_style_gen.h ****     lv_style_value_t v = lv_obj_get_style_prop(obj, part, LV_STYLE_MIN_HEIGHT);
  28:Drivers/lvgl/src/core/lv_obj_style_gen.h ****     return (lv_coord_t)v.num;
  29:Drivers/lvgl/src/core/lv_obj_style_gen.h **** }
  30:Drivers/lvgl/src/core/lv_obj_style_gen.h **** 
  31:Drivers/lvgl/src/core/lv_obj_style_gen.h **** static inline lv_coord_t lv_obj_get_style_max_height(const struct _lv_obj_t * obj, uint32_t part)
  32:Drivers/lvgl/src/core/lv_obj_style_gen.h **** {
  33:Drivers/lvgl/src/core/lv_obj_style_gen.h ****     lv_style_value_t v = lv_obj_get_style_prop(obj, part, LV_STYLE_MAX_HEIGHT);
  34:Drivers/lvgl/src/core/lv_obj_style_gen.h ****     return (lv_coord_t)v.num;
  35:Drivers/lvgl/src/core/lv_obj_style_gen.h **** }
  36:Drivers/lvgl/src/core/lv_obj_style_gen.h **** 
  37:Drivers/lvgl/src/core/lv_obj_style_gen.h **** static inline lv_coord_t lv_obj_get_style_x(const struct _lv_obj_t * obj, uint32_t part)
ARM GAS  /var/folders/lp/x54gwt890xv47sdkqj1k04q40000gn/T//ccfgQDQQ.s 			page 25


  38:Drivers/lvgl/src/core/lv_obj_style_gen.h **** {
  39:Drivers/lvgl/src/core/lv_obj_style_gen.h ****     lv_style_value_t v = lv_obj_get_style_prop(obj, part, LV_STYLE_X);
  40:Drivers/lvgl/src/core/lv_obj_style_gen.h ****     return (lv_coord_t)v.num;
  41:Drivers/lvgl/src/core/lv_obj_style_gen.h **** }
  42:Drivers/lvgl/src/core/lv_obj_style_gen.h **** 
  43:Drivers/lvgl/src/core/lv_obj_style_gen.h **** static inline lv_coord_t lv_obj_get_style_y(const struct _lv_obj_t * obj, uint32_t part)
  44:Drivers/lvgl/src/core/lv_obj_style_gen.h **** {
  45:Drivers/lvgl/src/core/lv_obj_style_gen.h ****     lv_style_value_t v = lv_obj_get_style_prop(obj, part, LV_STYLE_Y);
  46:Drivers/lvgl/src/core/lv_obj_style_gen.h ****     return (lv_coord_t)v.num;
  47:Drivers/lvgl/src/core/lv_obj_style_gen.h **** }
  48:Drivers/lvgl/src/core/lv_obj_style_gen.h **** 
  49:Drivers/lvgl/src/core/lv_obj_style_gen.h **** static inline lv_align_t lv_obj_get_style_align(const struct _lv_obj_t * obj, uint32_t part)
  50:Drivers/lvgl/src/core/lv_obj_style_gen.h **** {
  51:Drivers/lvgl/src/core/lv_obj_style_gen.h ****     lv_style_value_t v = lv_obj_get_style_prop(obj, part, LV_STYLE_ALIGN);
  52:Drivers/lvgl/src/core/lv_obj_style_gen.h ****     return (lv_align_t)v.num;
  53:Drivers/lvgl/src/core/lv_obj_style_gen.h **** }
  54:Drivers/lvgl/src/core/lv_obj_style_gen.h **** 
  55:Drivers/lvgl/src/core/lv_obj_style_gen.h **** static inline lv_coord_t lv_obj_get_style_transform_width(const struct _lv_obj_t * obj, uint32_t pa
  56:Drivers/lvgl/src/core/lv_obj_style_gen.h **** {
  57:Drivers/lvgl/src/core/lv_obj_style_gen.h ****     lv_style_value_t v = lv_obj_get_style_prop(obj, part, LV_STYLE_TRANSFORM_WIDTH);
  58:Drivers/lvgl/src/core/lv_obj_style_gen.h ****     return (lv_coord_t)v.num;
  59:Drivers/lvgl/src/core/lv_obj_style_gen.h **** }
  60:Drivers/lvgl/src/core/lv_obj_style_gen.h **** 
  61:Drivers/lvgl/src/core/lv_obj_style_gen.h **** static inline lv_coord_t lv_obj_get_style_transform_height(const struct _lv_obj_t * obj, uint32_t p
  62:Drivers/lvgl/src/core/lv_obj_style_gen.h **** {
  63:Drivers/lvgl/src/core/lv_obj_style_gen.h ****     lv_style_value_t v = lv_obj_get_style_prop(obj, part, LV_STYLE_TRANSFORM_HEIGHT);
  64:Drivers/lvgl/src/core/lv_obj_style_gen.h ****     return (lv_coord_t)v.num;
  65:Drivers/lvgl/src/core/lv_obj_style_gen.h **** }
  66:Drivers/lvgl/src/core/lv_obj_style_gen.h **** 
  67:Drivers/lvgl/src/core/lv_obj_style_gen.h **** static inline lv_coord_t lv_obj_get_style_translate_x(const struct _lv_obj_t * obj, uint32_t part)
  68:Drivers/lvgl/src/core/lv_obj_style_gen.h **** {
  69:Drivers/lvgl/src/core/lv_obj_style_gen.h ****     lv_style_value_t v = lv_obj_get_style_prop(obj, part, LV_STYLE_TRANSLATE_X);
  70:Drivers/lvgl/src/core/lv_obj_style_gen.h ****     return (lv_coord_t)v.num;
  71:Drivers/lvgl/src/core/lv_obj_style_gen.h **** }
  72:Drivers/lvgl/src/core/lv_obj_style_gen.h **** 
  73:Drivers/lvgl/src/core/lv_obj_style_gen.h **** static inline lv_coord_t lv_obj_get_style_translate_y(const struct _lv_obj_t * obj, uint32_t part)
  74:Drivers/lvgl/src/core/lv_obj_style_gen.h **** {
  75:Drivers/lvgl/src/core/lv_obj_style_gen.h ****     lv_style_value_t v = lv_obj_get_style_prop(obj, part, LV_STYLE_TRANSLATE_Y);
  76:Drivers/lvgl/src/core/lv_obj_style_gen.h ****     return (lv_coord_t)v.num;
  77:Drivers/lvgl/src/core/lv_obj_style_gen.h **** }
  78:Drivers/lvgl/src/core/lv_obj_style_gen.h **** 
  79:Drivers/lvgl/src/core/lv_obj_style_gen.h **** static inline lv_coord_t lv_obj_get_style_transform_zoom(const struct _lv_obj_t * obj, uint32_t par
  80:Drivers/lvgl/src/core/lv_obj_style_gen.h **** {
  81:Drivers/lvgl/src/core/lv_obj_style_gen.h ****     lv_style_value_t v = lv_obj_get_style_prop(obj, part, LV_STYLE_TRANSFORM_ZOOM);
  82:Drivers/lvgl/src/core/lv_obj_style_gen.h ****     return (lv_coord_t)v.num;
  83:Drivers/lvgl/src/core/lv_obj_style_gen.h **** }
  84:Drivers/lvgl/src/core/lv_obj_style_gen.h **** 
  85:Drivers/lvgl/src/core/lv_obj_style_gen.h **** static inline lv_coord_t lv_obj_get_style_transform_angle(const struct _lv_obj_t * obj, uint32_t pa
 132              		.loc 2 85 26 view .LVU44
 133              	.LBB135:
  86:Drivers/lvgl/src/core/lv_obj_style_gen.h **** {
  87:Drivers/lvgl/src/core/lv_obj_style_gen.h ****     lv_style_value_t v = lv_obj_get_style_prop(obj, part, LV_STYLE_TRANSFORM_ANGLE);
 134              		.loc 2 87 5 view .LVU45
 135              		.loc 2 87 26 is_stmt 0 view .LVU46
 136 004a 6E22     		movs	r2, #110
 137 004c 0021     		movs	r1, #0
 138 004e 4846     		mov	r0, r9
ARM GAS  /var/folders/lp/x54gwt890xv47sdkqj1k04q40000gn/T//ccfgQDQQ.s 			page 26


 139 0050 FFF7FEFF 		bl	lv_obj_get_style_prop
 140              	.LVL8:
  88:Drivers/lvgl/src/core/lv_obj_style_gen.h ****     return (lv_coord_t)v.num;
 141              		.loc 2 88 5 is_stmt 1 view .LVU47
 142              		.loc 2 88 5 is_stmt 0 view .LVU48
 143              	.LBE135:
 144              	.LBE134:
 145              	.LBB136:
 146              	.LBB137:
  81:Drivers/lvgl/src/core/lv_obj_style_gen.h ****     return (lv_coord_t)v.num;
 147              		.loc 2 81 26 view .LVU49
 148 0054 6D22     		movs	r2, #109
 149              	.LBE137:
 150              	.LBE136:
 996:Drivers/lvgl/src/core/lv_indev.c ****                 zoom *= (lv_obj_get_style_transform_zoom(parent, 0) / 256);
 151              		.loc 1 996 23 discriminator 1 view .LVU50
 152 0056 4319     		adds	r3, r0, r5
 153              	.LBB140:
 154              	.LBB138:
  81:Drivers/lvgl/src/core/lv_obj_style_gen.h ****     return (lv_coord_t)v.num;
 155              		.loc 2 81 26 view .LVU51
 156 0058 0021     		movs	r1, #0
 157 005a 4846     		mov	r0, r9
 158              	.LBE138:
 159              	.LBE140:
 996:Drivers/lvgl/src/core/lv_indev.c ****                 zoom *= (lv_obj_get_style_transform_zoom(parent, 0) / 256);
 160              		.loc 1 996 23 discriminator 1 view .LVU52
 161 005c 9EB2     		uxth	r6, r3
 162 005e 1DB2     		sxth	r5, r3
 163              	.LVL9:
 997:Drivers/lvgl/src/core/lv_indev.c ****                 parent = lv_obj_get_parent(parent);
 164              		.loc 1 997 17 is_stmt 1 view .LVU53
 165              	.LBB141:
 166              	.LBI136:
  79:Drivers/lvgl/src/core/lv_obj_style_gen.h **** {
 167              		.loc 2 79 26 view .LVU54
 168              	.LBB139:
  81:Drivers/lvgl/src/core/lv_obj_style_gen.h ****     return (lv_coord_t)v.num;
 169              		.loc 2 81 5 view .LVU55
  81:Drivers/lvgl/src/core/lv_obj_style_gen.h ****     return (lv_coord_t)v.num;
 170              		.loc 2 81 26 is_stmt 0 view .LVU56
 171 0060 FFF7FEFF 		bl	lv_obj_get_style_prop
 172              	.LVL10:
  82:Drivers/lvgl/src/core/lv_obj_style_gen.h **** }
 173              		.loc 2 82 5 is_stmt 1 view .LVU57
  82:Drivers/lvgl/src/core/lv_obj_style_gen.h **** }
 174              		.loc 2 82 12 is_stmt 0 view .LVU58
 175 0064 03B2     		sxth	r3, r0
 176              	.LVL11:
  82:Drivers/lvgl/src/core/lv_obj_style_gen.h **** }
 177              		.loc 2 82 12 view .LVU59
 178              	.LBE139:
 179              	.LBE141:
 997:Drivers/lvgl/src/core/lv_indev.c ****                 parent = lv_obj_get_parent(parent);
 180              		.loc 1 997 69 discriminator 1 view .LVU60
 181 0066 002B     		cmp	r3, #0
 182 0068 B8BF     		it	lt
ARM GAS  /var/folders/lp/x54gwt890xv47sdkqj1k04q40000gn/T//ccfgQDQQ.s 			page 27


 183 006a FF33     		addlt	r3, r3, #255
 184 006c 1B12     		asrs	r3, r3, #8
 998:Drivers/lvgl/src/core/lv_indev.c ****             }
 185              		.loc 1 998 26 view .LVU61
 186 006e 4846     		mov	r0, r9
 997:Drivers/lvgl/src/core/lv_indev.c ****                 parent = lv_obj_get_parent(parent);
 187              		.loc 1 997 22 discriminator 1 view .LVU62
 188 0070 13FB08F3 		smulbb	r3, r3, r8
 189 0074 0FFA83F8 		sxth	r8, r3
 190              	.LVL12:
 998:Drivers/lvgl/src/core/lv_indev.c ****             }
 191              		.loc 1 998 17 is_stmt 1 view .LVU63
 998:Drivers/lvgl/src/core/lv_indev.c ****             }
 192              		.loc 1 998 26 is_stmt 0 view .LVU64
 193 0078 FFF7FEFF 		bl	lv_obj_get_parent
 194              	.LVL13:
 995:Drivers/lvgl/src/core/lv_indev.c ****                 angle += lv_obj_get_style_transform_angle(parent, 0);
 195              		.loc 1 995 19 is_stmt 1 view .LVU65
 196 007c 8146     		mov	r9, r0
 197 007e 0028     		cmp	r0, #0
 198 0080 E3D1     		bne	.L10
1001:Drivers/lvgl/src/core/lv_indev.c ****                 angle = -angle;
 199              		.loc 1 1001 13 view .LVU66
1001:Drivers/lvgl/src/core/lv_indev.c ****                 angle = -angle;
 200              		.loc 1 1001 15 is_stmt 0 view .LVU67
 201 0082 15B9     		cbnz	r5, .L17
1001:Drivers/lvgl/src/core/lv_indev.c ****                 angle = -angle;
 202              		.loc 1 1001 27 discriminator 1 view .LVU68
 203 0084 B8F5807F 		cmp	r8, #256
 204 0088 14D0     		beq	.L19
 205              	.L17:
1002:Drivers/lvgl/src/core/lv_indev.c ****                 zoom = (256 * 256) / zoom;
 206              		.loc 1 1002 17 is_stmt 1 view .LVU69
 207              	.LVL14:
1003:Drivers/lvgl/src/core/lv_indev.c ****                 lv_point_transform(&proc->types.pointer.scroll_throw_vect, angle, zoom, &pivot);
 208              		.loc 1 1003 17 view .LVU70
1002:Drivers/lvgl/src/core/lv_indev.c ****                 zoom = (256 * 256) / zoom;
 209              		.loc 1 1002 23 is_stmt 0 view .LVU71
 210 008a 7642     		rsbs	r6, r6, #0
 211              	.LVL15:
1004:Drivers/lvgl/src/core/lv_indev.c ****                 lv_point_transform(&proc->types.pointer.scroll_throw_vect_ori, angle, zoom, &pivot)
 212              		.loc 1 1004 17 view .LVU72
 213 008c 36B2     		sxth	r6, r6
1003:Drivers/lvgl/src/core/lv_indev.c ****                 lv_point_transform(&proc->types.pointer.scroll_throw_vect, angle, zoom, &pivot);
 214              		.loc 1 1003 36 view .LVU73
 215 008e 4FF48035 		mov	r5, #65536
 216              	.LVL16:
1003:Drivers/lvgl/src/core/lv_indev.c ****                 lv_point_transform(&proc->types.pointer.scroll_throw_vect, angle, zoom, &pivot);
 217              		.loc 1 1003 36 view .LVU74
 218 0092 95FBF8F5 		sdiv	r5, r5, r8
 219              	.LVL17:
1004:Drivers/lvgl/src/core/lv_indev.c ****                 lv_point_transform(&proc->types.pointer.scroll_throw_vect_ori, angle, zoom, &pivot)
 220              		.loc 1 1004 17 is_stmt 1 view .LVU75
 221 0096 2DB2     		sxth	r5, r5
1004:Drivers/lvgl/src/core/lv_indev.c ****                 lv_point_transform(&proc->types.pointer.scroll_throw_vect_ori, angle, zoom, &pivot)
 222              		.loc 1 1004 17 is_stmt 0 view .LVU76
 223 0098 01AB     		add	r3, sp, #4
ARM GAS  /var/folders/lp/x54gwt890xv47sdkqj1k04q40000gn/T//ccfgQDQQ.s 			page 28


 224 009a 2A46     		mov	r2, r5
 225 009c 3146     		mov	r1, r6
 226 009e 04F11C00 		add	r0, r4, #28
 227              	.LVL18:
1004:Drivers/lvgl/src/core/lv_indev.c ****                 lv_point_transform(&proc->types.pointer.scroll_throw_vect_ori, angle, zoom, &pivot)
 228              		.loc 1 1004 17 view .LVU77
 229 00a2 FFF7FEFF 		bl	lv_point_transform
 230              	.LVL19:
1005:Drivers/lvgl/src/core/lv_indev.c ****             }
 231              		.loc 1 1005 17 is_stmt 1 view .LVU78
 232 00a6 01AB     		add	r3, sp, #4
 233 00a8 2A46     		mov	r2, r5
 234 00aa 3146     		mov	r1, r6
 235 00ac 04F12000 		add	r0, r4, #32
 236 00b0 FFF7FEFF 		bl	lv_point_transform
 237              	.LVL20:
 238              	.LBE133:
1013:Drivers/lvgl/src/core/lv_indev.c ****         _lv_indev_scroll_throw_handler(proc);
 239              		.loc 1 1013 5 view .LVU79
 240              	.L19:
1014:Drivers/lvgl/src/core/lv_indev.c ****         if(indev_reset_check(proc)) return;
 241              		.loc 1 1014 9 view .LVU80
 242 00b4 2046     		mov	r0, r4
 243 00b6 FFF7FEFF 		bl	_lv_indev_scroll_throw_handler
 244              	.LVL21:
1015:Drivers/lvgl/src/core/lv_indev.c ****     }
 245              		.loc 1 1015 9 view .LVU81
 246              	.LBB142:
 247              	.LBI142:
1173:Drivers/lvgl/src/core/lv_indev.c **** {
 248              		.loc 1 1173 13 view .LVU82
 249              	.LBB143:
1175:Drivers/lvgl/src/core/lv_indev.c ****         indev_obj_act = NULL;
 250              		.loc 1 1175 5 view .LVU83
1175:Drivers/lvgl/src/core/lv_indev.c ****         indev_obj_act = NULL;
 251              		.loc 1 1175 8 is_stmt 0 view .LVU84
 252 00ba 6378     		ldrb	r3, [r4, #1]	@ zero_extendqisi2
1175:Drivers/lvgl/src/core/lv_indev.c ****         indev_obj_act = NULL;
 253              		.loc 1 1175 7 view .LVU85
 254 00bc 9B07     		lsls	r3, r3, #30
1176:Drivers/lvgl/src/core/lv_indev.c ****     }
 255              		.loc 1 1176 9 is_stmt 1 view .LVU86
1176:Drivers/lvgl/src/core/lv_indev.c ****     }
 256              		.loc 1 1176 23 is_stmt 0 view .LVU87
 257 00be 44BF     		itt	mi
 258 00c0 0023     		movmi	r3, #0
 259 00c2 3B60     		strmi	r3, [r7]
 260              	.LVL22:
1176:Drivers/lvgl/src/core/lv_indev.c ****     }
 261              		.loc 1 1176 23 view .LVU88
 262              	.LBE143:
 263              	.LBE142:
1017:Drivers/lvgl/src/core/lv_indev.c **** 
 264              		.loc 1 1017 1 view .LVU89
 265 00c4 03B0     		add	sp, sp, #12
 266              		.cfi_remember_state
 267              		.cfi_def_cfa_offset 28
ARM GAS  /var/folders/lp/x54gwt890xv47sdkqj1k04q40000gn/T//ccfgQDQQ.s 			page 29


 268              		@ sp needed
 269 00c6 BDE8F083 		pop	{r4, r5, r6, r7, r8, r9, pc}
 270              	.LVL23:
 271              	.L44:
 272              		.cfi_restore_state
 953:Drivers/lvgl/src/core/lv_indev.c ****         if(indev_reset_check(proc)) return;
 273              		.loc 1 953 9 is_stmt 1 view .LVU90
 274 00ca 224B     		ldr	r3, .L46+4
 275 00cc 0321     		movs	r1, #3
 276 00ce 1A68     		ldr	r2, [r3]
 277 00d0 FFF7FEFF 		bl	lv_event_send
 278              	.LVL24:
 954:Drivers/lvgl/src/core/lv_indev.c **** 
 279              		.loc 1 954 9 view .LVU91
 280              	.LBB144:
 281              	.LBI144:
1173:Drivers/lvgl/src/core/lv_indev.c **** {
 282              		.loc 1 1173 13 view .LVU92
 283              	.LBB145:
1175:Drivers/lvgl/src/core/lv_indev.c ****         indev_obj_act = NULL;
 284              		.loc 1 1175 5 view .LVU93
1175:Drivers/lvgl/src/core/lv_indev.c ****         indev_obj_act = NULL;
 285              		.loc 1 1175 8 is_stmt 0 view .LVU94
 286 00d4 6278     		ldrb	r2, [r4, #1]	@ zero_extendqisi2
1175:Drivers/lvgl/src/core/lv_indev.c ****         indev_obj_act = NULL;
 287              		.loc 1 1175 7 view .LVU95
 288 00d6 9507     		lsls	r5, r2, #30
 289 00d8 15D4     		bmi	.L45
 290              	.L3:
 291              		.loc 1 1179 5 is_stmt 1 view .LVU96
 292              	.LVL25:
 293              		.loc 1 1179 5 is_stmt 0 view .LVU97
 294              	.LBE145:
 295              	.LBE144:
 954:Drivers/lvgl/src/core/lv_indev.c **** 
 296              		.loc 1 954 11 discriminator 1 view .LVU98
 297 00da 9007     		lsls	r0, r2, #30
 298 00dc C2F34003 		ubfx	r3, r2, #1, #1
 299 00e0 0ED4     		bmi	.L1
 956:Drivers/lvgl/src/core/lv_indev.c ****         proc->types.pointer.last_obj = NULL;
 300              		.loc 1 956 9 is_stmt 1 view .LVU99
 960:Drivers/lvgl/src/core/lv_indev.c ****     }
 301              		.loc 1 960 38 is_stmt 0 view .LVU100
 302 00e2 6278     		ldrb	r2, [r4, #1]	@ zero_extendqisi2
 962:Drivers/lvgl/src/core/lv_indev.c ****     lv_obj_t * scroll_obj = proc->types.pointer.scroll_obj;
 303              		.loc 1 962 19 view .LVU101
 304 00e4 1A4F     		ldr	r7, .L46
 963:Drivers/lvgl/src/core/lv_indev.c **** 
 305              		.loc 1 963 16 view .LVU102
 306 00e6 D4F82C90 		ldr	r9, [r4, #44]
 962:Drivers/lvgl/src/core/lv_indev.c ****     lv_obj_t * scroll_obj = proc->types.pointer.scroll_obj;
 307              		.loc 1 962 19 view .LVU103
 308 00ea 3B60     		str	r3, [r7]
 957:Drivers/lvgl/src/core/lv_indev.c ****         proc->pr_timestamp           = 0;
 309              		.loc 1 957 38 view .LVU104
 310 00ec C4E90933 		strd	r3, r3, [r4, #36]
 958:Drivers/lvgl/src/core/lv_indev.c ****         proc->longpr_rep_timestamp   = 0;
ARM GAS  /var/folders/lp/x54gwt890xv47sdkqj1k04q40000gn/T//ccfgQDQQ.s 			page 30


 311              		.loc 1 958 9 is_stmt 1 view .LVU105
 959:Drivers/lvgl/src/core/lv_indev.c ****         proc->wait_until_release     = 0;
 312              		.loc 1 959 38 is_stmt 0 view .LVU106
 313 00f0 C4E91133 		strd	r3, r3, [r4, #68]
 960:Drivers/lvgl/src/core/lv_indev.c ****     }
 314              		.loc 1 960 9 is_stmt 1 view .LVU107
 960:Drivers/lvgl/src/core/lv_indev.c ****     }
 315              		.loc 1 960 38 is_stmt 0 view .LVU108
 316 00f4 63F3C302 		bfi	r2, r3, #3, #1
 317 00f8 6270     		strb	r2, [r4, #1]
 962:Drivers/lvgl/src/core/lv_indev.c ****     lv_obj_t * scroll_obj = proc->types.pointer.scroll_obj;
 318              		.loc 1 962 5 is_stmt 1 view .LVU109
 963:Drivers/lvgl/src/core/lv_indev.c **** 
 319              		.loc 1 963 5 view .LVU110
 320              	.LVL26:
 966:Drivers/lvgl/src/core/lv_indev.c ****         LV_LOG_INFO("released");
 321              		.loc 1 966 5 view .LVU111
 322              	.L6:
1013:Drivers/lvgl/src/core/lv_indev.c ****         _lv_indev_scroll_throw_handler(proc);
 323              		.loc 1 1013 5 view .LVU112
1013:Drivers/lvgl/src/core/lv_indev.c ****         _lv_indev_scroll_throw_handler(proc);
 324              		.loc 1 1013 7 is_stmt 0 view .LVU113
 325 00fa B9F1000F 		cmp	r9, #0
 326 00fe D9D1     		bne	.L19
 327              	.LVL27:
 328              	.L1:
1017:Drivers/lvgl/src/core/lv_indev.c **** 
 329              		.loc 1 1017 1 view .LVU114
 330 0100 03B0     		add	sp, sp, #12
 331              		.cfi_remember_state
 332              		.cfi_def_cfa_offset 28
 333              		@ sp needed
 334 0102 BDE8F083 		pop	{r4, r5, r6, r7, r8, r9, pc}
 335              	.LVL28:
 336              	.L45:
 337              		.cfi_restore_state
 338              	.LBB147:
 339              	.LBB146:
1176:Drivers/lvgl/src/core/lv_indev.c ****     }
 340              		.loc 1 1176 9 is_stmt 1 view .LVU115
1176:Drivers/lvgl/src/core/lv_indev.c ****     }
 341              		.loc 1 1176 23 is_stmt 0 view .LVU116
 342 0106 124B     		ldr	r3, .L46
 343 0108 0021     		movs	r1, #0
 344 010a 1960     		str	r1, [r3]
 345 010c E5E7     		b	.L3
 346              	.LVL29:
 347              	.L9:
1176:Drivers/lvgl/src/core/lv_indev.c ****     }
 348              		.loc 1 1176 23 view .LVU117
 349              	.LBE146:
 350              	.LBE147:
 975:Drivers/lvgl/src/core/lv_indev.c ****                 lv_event_send(indev_obj_act, LV_EVENT_SHORT_CLICKED, indev_act);
 351              		.loc 1 975 13 is_stmt 1 view .LVU118
 975:Drivers/lvgl/src/core/lv_indev.c ****                 lv_event_send(indev_obj_act, LV_EVENT_SHORT_CLICKED, indev_act);
 352              		.loc 1 975 15 is_stmt 0 view .LVU119
 353 010e DD07     		lsls	r5, r3, #31
ARM GAS  /var/folders/lp/x54gwt890xv47sdkqj1k04q40000gn/T//ccfgQDQQ.s 			page 31


 976:Drivers/lvgl/src/core/lv_indev.c ****                 if(indev_reset_check(proc)) return;
 354              		.loc 1 976 17 view .LVU120
 355 0110 3868     		ldr	r0, [r7]
 356 0112 3268     		ldr	r2, [r6]
 975:Drivers/lvgl/src/core/lv_indev.c ****                 lv_event_send(indev_obj_act, LV_EVENT_SHORT_CLICKED, indev_act);
 357              		.loc 1 975 15 view .LVU121
 358 0114 09D4     		bmi	.L15
 976:Drivers/lvgl/src/core/lv_indev.c ****                 if(indev_reset_check(proc)) return;
 359              		.loc 1 976 17 is_stmt 1 view .LVU122
 360 0116 0421     		movs	r1, #4
 361 0118 FFF7FEFF 		bl	lv_event_send
 362              	.LVL30:
 977:Drivers/lvgl/src/core/lv_indev.c ****             }
 363              		.loc 1 977 17 view .LVU123
 364              	.LBB148:
 365              	.LBI148:
1173:Drivers/lvgl/src/core/lv_indev.c **** {
 366              		.loc 1 1173 13 view .LVU124
 367              	.LBB149:
1175:Drivers/lvgl/src/core/lv_indev.c ****         indev_obj_act = NULL;
 368              		.loc 1 1175 5 view .LVU125
1175:Drivers/lvgl/src/core/lv_indev.c ****         indev_obj_act = NULL;
 369              		.loc 1 1175 8 is_stmt 0 view .LVU126
 370 011c 6378     		ldrb	r3, [r4, #1]	@ zero_extendqisi2
1175:Drivers/lvgl/src/core/lv_indev.c ****         indev_obj_act = NULL;
 371              		.loc 1 1175 7 view .LVU127
 372 011e 13F0020F 		tst	r3, #2
 373 0122 02D0     		beq	.L15
1176:Drivers/lvgl/src/core/lv_indev.c ****     }
 374              		.loc 1 1176 9 is_stmt 1 view .LVU128
1176:Drivers/lvgl/src/core/lv_indev.c ****     }
 375              		.loc 1 1176 23 is_stmt 0 view .LVU129
 376 0124 C7F80090 		str	r9, [r7]
 377              		.loc 1 1179 5 is_stmt 1 view .LVU130
 378              	.LVL31:
 379              		.loc 1 1179 5 is_stmt 0 view .LVU131
 380              	.LBE149:
 381              	.LBE148:
 977:Drivers/lvgl/src/core/lv_indev.c ****             }
 382              		.loc 1 977 19 discriminator 1 view .LVU132
 383 0128 EAD1     		bne	.L1
 384              	.L15:
 980:Drivers/lvgl/src/core/lv_indev.c ****             if(indev_reset_check(proc)) return;
 385              		.loc 1 980 13 is_stmt 1 view .LVU133
 386 012a 3268     		ldr	r2, [r6]
 387 012c 3868     		ldr	r0, [r7]
 388 012e 0721     		movs	r1, #7
 389 0130 FFF7FEFF 		bl	lv_event_send
 390              	.LVL32:
 981:Drivers/lvgl/src/core/lv_indev.c ****         }
 391              		.loc 1 981 13 view .LVU134
 392              	.LBB150:
 393              	.LBI150:
1173:Drivers/lvgl/src/core/lv_indev.c **** {
 394              		.loc 1 1173 13 view .LVU135
 395              	.LBB151:
1175:Drivers/lvgl/src/core/lv_indev.c ****         indev_obj_act = NULL;
ARM GAS  /var/folders/lp/x54gwt890xv47sdkqj1k04q40000gn/T//ccfgQDQQ.s 			page 32


 396              		.loc 1 1175 5 view .LVU136
1175:Drivers/lvgl/src/core/lv_indev.c ****         indev_obj_act = NULL;
 397              		.loc 1 1175 8 is_stmt 0 view .LVU137
 398 0134 6378     		ldrb	r3, [r4, #1]	@ zero_extendqisi2
1175:Drivers/lvgl/src/core/lv_indev.c ****         indev_obj_act = NULL;
 399              		.loc 1 1175 7 view .LVU138
 400 0136 9807     		lsls	r0, r3, #30
 401 0138 07D4     		bmi	.L12
 402              	.L13:
 403              		.loc 1 1179 5 is_stmt 1 view .LVU139
 404              	.LVL33:
 405              		.loc 1 1179 5 is_stmt 0 view .LVU140
 406              	.LBE151:
 407              	.LBE150:
 981:Drivers/lvgl/src/core/lv_indev.c ****         }
 408              		.loc 1 981 15 discriminator 1 view .LVU141
 409 013a 9907     		lsls	r1, r3, #30
 410 013c C3F34002 		ubfx	r2, r3, #1, #1
 411 0140 DED4     		bmi	.L1
 984:Drivers/lvgl/src/core/lv_indev.c ****         proc->pr_timestamp          = 0;
 412              		.loc 1 984 9 is_stmt 1 view .LVU142
 986:Drivers/lvgl/src/core/lv_indev.c **** 
 413              		.loc 1 986 37 is_stmt 0 view .LVU143
 414 0142 C4E91122 		strd	r2, r2, [r4, #68]
 984:Drivers/lvgl/src/core/lv_indev.c ****         proc->pr_timestamp          = 0;
 415              		.loc 1 984 37 view .LVU144
 416 0146 6262     		str	r2, [r4, #36]
 985:Drivers/lvgl/src/core/lv_indev.c ****         proc->longpr_rep_timestamp  = 0;
 417              		.loc 1 985 9 is_stmt 1 view .LVU145
 990:Drivers/lvgl/src/core/lv_indev.c ****             int16_t angle = 0;
 418              		.loc 1 990 9 view .LVU146
 419 0148 DAE7     		b	.L1
 420              	.LVL34:
 421              	.L12:
 422              	.LBB153:
 423              	.LBB152:
1176:Drivers/lvgl/src/core/lv_indev.c ****     }
 424              		.loc 1 1176 9 view .LVU147
1176:Drivers/lvgl/src/core/lv_indev.c ****     }
 425              		.loc 1 1176 23 is_stmt 0 view .LVU148
 426 014a 0022     		movs	r2, #0
 427 014c 3A60     		str	r2, [r7]
 428 014e F4E7     		b	.L13
 429              	.L47:
 430              		.align	2
 431              	.L46:
 432 0150 00000000 		.word	indev_obj_act
 433 0154 00000000 		.word	indev_act
 434              	.LBE152:
 435              	.LBE153:
 436              		.cfi_endproc
 437              	.LFE191:
 439              		.section	.text.lv_indev_enable,"ax",%progbits
 440              		.align	1
 441              		.p2align 2,,3
 442              		.global	lv_indev_enable
 443              		.syntax unified
ARM GAS  /var/folders/lp/x54gwt890xv47sdkqj1k04q40000gn/T//ccfgQDQQ.s 			page 33


 444              		.thumb
 445              		.thumb_func
 447              	lv_indev_enable:
 448              	.LVL35:
 449              	.LFB168:
 124:Drivers/lvgl/src/core/lv_indev.c ****     uint8_t enable = en ? 0 : 1;
 450              		.loc 1 124 1 is_stmt 1 view -0
 451              		.cfi_startproc
 452              		@ args = 0, pretend = 0, frame = 0
 453              		@ frame_needed = 0, uses_anonymous_args = 0
 125:Drivers/lvgl/src/core/lv_indev.c **** 
 454              		.loc 1 125 5 view .LVU150
 124:Drivers/lvgl/src/core/lv_indev.c ****     uint8_t enable = en ? 0 : 1;
 455              		.loc 1 124 1 is_stmt 0 view .LVU151
 456 0000 10B5     		push	{r4, lr}
 457              		.cfi_def_cfa_offset 8
 458              		.cfi_offset 4, -8
 459              		.cfi_offset 14, -4
 125:Drivers/lvgl/src/core/lv_indev.c **** 
 460              		.loc 1 125 29 view .LVU152
 461 0002 81F00104 		eor	r4, r1, #1
 462              	.LVL36:
 127:Drivers/lvgl/src/core/lv_indev.c ****         indev->proc.disabled = enable;
 463              		.loc 1 127 5 is_stmt 1 view .LVU153
 127:Drivers/lvgl/src/core/lv_indev.c ****         indev->proc.disabled = enable;
 464              		.loc 1 127 7 is_stmt 0 view .LVU154
 465 0006 40B1     		cbz	r0, .L58
 128:Drivers/lvgl/src/core/lv_indev.c ****     }
 466              		.loc 1 128 9 is_stmt 1 view .LVU155
 128:Drivers/lvgl/src/core/lv_indev.c ****     }
 467              		.loc 1 128 30 is_stmt 0 view .LVU156
 468 0008 4279     		ldrb	r2, [r0, #5]	@ zero_extendqisi2
 469 000a 64F38202 		bfi	r2, r4, #2, #1
 470 000e 4271     		strb	r2, [r0, #5]
 137:Drivers/lvgl/src/core/lv_indev.c **** 
 471              		.loc 1 137 1 view .LVU157
 472 0010 10BD     		pop	{r4, pc}
 473              	.LVL37:
 474              	.L52:
 475              	.LBB154:
 133:Drivers/lvgl/src/core/lv_indev.c ****             i = lv_indev_get_next(i);
 476              		.loc 1 133 13 is_stmt 1 view .LVU158
 133:Drivers/lvgl/src/core/lv_indev.c ****             i = lv_indev_get_next(i);
 477              		.loc 1 133 30 is_stmt 0 view .LVU159
 478 0012 4379     		ldrb	r3, [r0, #5]	@ zero_extendqisi2
 479 0014 64F38203 		bfi	r3, r4, #2, #1
 480 0018 4371     		strb	r3, [r0, #5]
 481              	.LVL38:
 482              	.L58:
 134:Drivers/lvgl/src/core/lv_indev.c ****         }
 483              		.loc 1 134 13 is_stmt 1 view .LVU160
 134:Drivers/lvgl/src/core/lv_indev.c ****         }
 484              		.loc 1 134 17 is_stmt 0 view .LVU161
 485 001a FFF7FEFF 		bl	lv_indev_get_next
 486              	.LVL39:
 132:Drivers/lvgl/src/core/lv_indev.c ****             i->proc.disabled = enable;
 487              		.loc 1 132 15 is_stmt 1 view .LVU162
ARM GAS  /var/folders/lp/x54gwt890xv47sdkqj1k04q40000gn/T//ccfgQDQQ.s 			page 34


 488 001e 0028     		cmp	r0, #0
 489 0020 F7D1     		bne	.L52
 490              	.LBE154:
 137:Drivers/lvgl/src/core/lv_indev.c **** 
 491              		.loc 1 137 1 is_stmt 0 view .LVU163
 492 0022 10BD     		pop	{r4, pc}
 137:Drivers/lvgl/src/core/lv_indev.c **** 
 493              		.loc 1 137 1 view .LVU164
 494              		.cfi_endproc
 495              	.LFE168:
 497              		.section	.text.lv_indev_get_act,"ax",%progbits
 498              		.align	1
 499              		.p2align 2,,3
 500              		.global	lv_indev_get_act
 501              		.syntax unified
 502              		.thumb
 503              		.thumb_func
 505              	lv_indev_get_act:
 506              	.LFB169:
 140:Drivers/lvgl/src/core/lv_indev.c ****     return indev_act;
 507              		.loc 1 140 1 is_stmt 1 view -0
 508              		.cfi_startproc
 509              		@ args = 0, pretend = 0, frame = 0
 510              		@ frame_needed = 0, uses_anonymous_args = 0
 511              		@ link register save eliminated.
 141:Drivers/lvgl/src/core/lv_indev.c **** }
 512              		.loc 1 141 5 view .LVU166
 141:Drivers/lvgl/src/core/lv_indev.c **** }
 513              		.loc 1 141 12 is_stmt 0 view .LVU167
 514 0000 014B     		ldr	r3, .L60
 142:Drivers/lvgl/src/core/lv_indev.c **** 
 515              		.loc 1 142 1 view .LVU168
 516 0002 1868     		ldr	r0, [r3]
 517 0004 7047     		bx	lr
 518              	.L61:
 519 0006 00BF     		.align	2
 520              	.L60:
 521 0008 00000000 		.word	indev_act
 522              		.cfi_endproc
 523              	.LFE169:
 525              		.section	.text.lv_indev_get_type,"ax",%progbits
 526              		.align	1
 527              		.p2align 2,,3
 528              		.global	lv_indev_get_type
 529              		.syntax unified
 530              		.thumb
 531              		.thumb_func
 533              	lv_indev_get_type:
 534              	.LVL40:
 535              	.LFB170:
 145:Drivers/lvgl/src/core/lv_indev.c ****     if(indev == NULL) return LV_INDEV_TYPE_NONE;
 536              		.loc 1 145 1 is_stmt 1 view -0
 537              		.cfi_startproc
 538              		@ args = 0, pretend = 0, frame = 0
 539              		@ frame_needed = 0, uses_anonymous_args = 0
 540              		@ link register save eliminated.
 146:Drivers/lvgl/src/core/lv_indev.c **** 
ARM GAS  /var/folders/lp/x54gwt890xv47sdkqj1k04q40000gn/T//ccfgQDQQ.s 			page 35


 541              		.loc 1 146 5 view .LVU170
 146:Drivers/lvgl/src/core/lv_indev.c **** 
 542              		.loc 1 146 7 is_stmt 0 view .LVU171
 543 0000 08B1     		cbz	r0, .L63
 148:Drivers/lvgl/src/core/lv_indev.c **** }
 544              		.loc 1 148 5 is_stmt 1 view .LVU172
 148:Drivers/lvgl/src/core/lv_indev.c **** }
 545              		.loc 1 148 25 is_stmt 0 view .LVU173
 546 0002 0368     		ldr	r3, [r0]
 547 0004 1878     		ldrb	r0, [r3]	@ zero_extendqisi2
 548              	.LVL41:
 549              	.L63:
 149:Drivers/lvgl/src/core/lv_indev.c **** 
 550              		.loc 1 149 1 view .LVU174
 551 0006 7047     		bx	lr
 552              		.cfi_endproc
 553              	.LFE170:
 555              		.section	.text.lv_indev_reset,"ax",%progbits
 556              		.align	1
 557              		.p2align 2,,3
 558              		.global	lv_indev_reset
 559              		.syntax unified
 560              		.thumb
 561              		.thumb_func
 563              	lv_indev_reset:
 564              	.LVL42:
 565              	.LFB171:
 152:Drivers/lvgl/src/core/lv_indev.c ****     if(indev) {
 566              		.loc 1 152 1 is_stmt 1 view -0
 567              		.cfi_startproc
 568              		@ args = 0, pretend = 0, frame = 0
 569              		@ frame_needed = 0, uses_anonymous_args = 0
 153:Drivers/lvgl/src/core/lv_indev.c ****         indev->proc.reset_query = 1;
 570              		.loc 1 153 5 view .LVU176
 152:Drivers/lvgl/src/core/lv_indev.c ****     if(indev) {
 571              		.loc 1 152 1 is_stmt 0 view .LVU177
 572 0000 38B5     		push	{r3, r4, r5, lr}
 573              		.cfi_def_cfa_offset 16
 574              		.cfi_offset 3, -16
 575              		.cfi_offset 4, -12
 576              		.cfi_offset 5, -8
 577              		.cfi_offset 14, -4
 152:Drivers/lvgl/src/core/lv_indev.c ****     if(indev) {
 578              		.loc 1 152 1 view .LVU178
 579 0002 0D46     		mov	r5, r1
 153:Drivers/lvgl/src/core/lv_indev.c ****         indev->proc.reset_query = 1;
 580              		.loc 1 153 7 view .LVU179
 581 0004 0446     		mov	r4, r0
 582 0006 88B1     		cbz	r0, .L66
 154:Drivers/lvgl/src/core/lv_indev.c ****         if(indev_act == indev) indev_obj_act = NULL;
 583              		.loc 1 154 9 is_stmt 1 view .LVU180
 155:Drivers/lvgl/src/core/lv_indev.c ****         if(indev->driver->type == LV_INDEV_TYPE_POINTER || indev->driver->type == LV_INDEV_TYPE_KEY
 584              		.loc 1 155 22 is_stmt 0 view .LVU181
 585 0008 274A     		ldr	r2, .L96
 154:Drivers/lvgl/src/core/lv_indev.c ****         if(indev_act == indev) indev_obj_act = NULL;
 586              		.loc 1 154 33 view .LVU182
 587 000a 4379     		ldrb	r3, [r0, #5]	@ zero_extendqisi2
ARM GAS  /var/folders/lp/x54gwt890xv47sdkqj1k04q40000gn/T//ccfgQDQQ.s 			page 36


 155:Drivers/lvgl/src/core/lv_indev.c ****         if(indev->driver->type == LV_INDEV_TYPE_POINTER || indev->driver->type == LV_INDEV_TYPE_KEY
 588              		.loc 1 155 11 view .LVU183
 589 000c 1268     		ldr	r2, [r2]
 154:Drivers/lvgl/src/core/lv_indev.c ****         if(indev_act == indev) indev_obj_act = NULL;
 590              		.loc 1 154 33 view .LVU184
 591 000e 43F00203 		orr	r3, r3, #2
 155:Drivers/lvgl/src/core/lv_indev.c ****         if(indev->driver->type == LV_INDEV_TYPE_POINTER || indev->driver->type == LV_INDEV_TYPE_KEY
 592              		.loc 1 155 11 view .LVU185
 593 0012 8242     		cmp	r2, r0
 154:Drivers/lvgl/src/core/lv_indev.c ****         if(indev_act == indev) indev_obj_act = NULL;
 594              		.loc 1 154 33 view .LVU186
 595 0014 4371     		strb	r3, [r0, #5]
 155:Drivers/lvgl/src/core/lv_indev.c ****         if(indev->driver->type == LV_INDEV_TYPE_POINTER || indev->driver->type == LV_INDEV_TYPE_KEY
 596              		.loc 1 155 9 is_stmt 1 view .LVU187
 155:Drivers/lvgl/src/core/lv_indev.c ****         if(indev->driver->type == LV_INDEV_TYPE_POINTER || indev->driver->type == LV_INDEV_TYPE_KEY
 597              		.loc 1 155 11 is_stmt 0 view .LVU188
 598 0016 3DD0     		beq	.L90
 599              	.L67:
 156:Drivers/lvgl/src/core/lv_indev.c ****             if(obj == NULL || indev->proc.types.pointer.last_pressed == obj) {
 600              		.loc 1 156 9 is_stmt 1 view .LVU189
 156:Drivers/lvgl/src/core/lv_indev.c ****             if(obj == NULL || indev->proc.types.pointer.last_pressed == obj) {
 601              		.loc 1 156 25 is_stmt 0 view .LVU190
 602 0018 2368     		ldr	r3, [r4]
 156:Drivers/lvgl/src/core/lv_indev.c ****             if(obj == NULL || indev->proc.types.pointer.last_pressed == obj) {
 603              		.loc 1 156 57 view .LVU191
 604 001a 1B78     		ldrb	r3, [r3]	@ zero_extendqisi2
 156:Drivers/lvgl/src/core/lv_indev.c ****             if(obj == NULL || indev->proc.types.pointer.last_pressed == obj) {
 605              		.loc 1 156 11 view .LVU192
 606 001c 013B     		subs	r3, r3, #1
 607 001e 012B     		cmp	r3, #1
 608 0020 27D9     		bls	.L91
 609              	.L65:
 187:Drivers/lvgl/src/core/lv_indev.c **** 
 610              		.loc 1 187 1 view .LVU193
 611 0022 38BD     		pop	{r3, r4, r5, pc}
 612              	.LVL43:
 613              	.L92:
 614              	.LBB155:
 176:Drivers/lvgl/src/core/lv_indev.c ****                     i->proc.types.pointer.act_obj = NULL;
 615              		.loc 1 176 17 is_stmt 1 view .LVU194
 179:Drivers/lvgl/src/core/lv_indev.c ****                     i->proc.types.pointer.last_obj = NULL;
 616              		.loc 1 179 17 view .LVU195
 173:Drivers/lvgl/src/core/lv_indev.c ****                     i->proc.types.pointer.last_pressed = NULL;
 617              		.loc 1 173 19 is_stmt 0 view .LVU196
 618 0024 B5B9     		cbnz	r5, .L78
 174:Drivers/lvgl/src/core/lv_indev.c ****                 }
 619              		.loc 1 174 21 is_stmt 1 view .LVU197
 174:Drivers/lvgl/src/core/lv_indev.c ****                 }
 620              		.loc 1 174 56 is_stmt 0 view .LVU198
 621 0026 4563     		str	r5, [r0, #52]
 176:Drivers/lvgl/src/core/lv_indev.c ****                     i->proc.types.pointer.act_obj = NULL;
 622              		.loc 1 176 17 is_stmt 1 view .LVU199
 177:Drivers/lvgl/src/core/lv_indev.c ****                 }
 623              		.loc 1 177 21 view .LVU200
 177:Drivers/lvgl/src/core/lv_indev.c ****                 }
 624              		.loc 1 177 51 is_stmt 0 view .LVU201
 625 0028 8562     		str	r5, [r0, #40]
ARM GAS  /var/folders/lp/x54gwt890xv47sdkqj1k04q40000gn/T//ccfgQDQQ.s 			page 37


 179:Drivers/lvgl/src/core/lv_indev.c ****                     i->proc.types.pointer.last_obj = NULL;
 626              		.loc 1 179 17 is_stmt 1 view .LVU202
 180:Drivers/lvgl/src/core/lv_indev.c ****                 }
 627              		.loc 1 180 21 view .LVU203
 180:Drivers/lvgl/src/core/lv_indev.c ****                 }
 628              		.loc 1 180 52 is_stmt 0 view .LVU204
 629 002a C462     		str	r4, [r0, #44]
 630              	.LVL44:
 631              	.L66:
 169:Drivers/lvgl/src/core/lv_indev.c ****         while(i) {
 632              		.loc 1 169 9 is_stmt 1 view .LVU205
 169:Drivers/lvgl/src/core/lv_indev.c ****         while(i) {
 633              		.loc 1 169 26 is_stmt 0 view .LVU206
 634 002c FFF7FEFF 		bl	lv_indev_get_next
 635              	.LVL45:
 170:Drivers/lvgl/src/core/lv_indev.c ****             i->proc.reset_query = 1;
 636              		.loc 1 170 9 is_stmt 1 view .LVU207
 170:Drivers/lvgl/src/core/lv_indev.c ****             i->proc.reset_query = 1;
 637              		.loc 1 170 15 view .LVU208
 638 0030 60B1     		cbz	r0, .L75
 639              	.L93:
 171:Drivers/lvgl/src/core/lv_indev.c ****             if(i->driver->type == LV_INDEV_TYPE_POINTER || i->driver->type == LV_INDEV_TYPE_KEYPAD)
 640              		.loc 1 171 13 view .LVU209
 173:Drivers/lvgl/src/core/lv_indev.c ****                     i->proc.types.pointer.last_pressed = NULL;
 641              		.loc 1 173 17 view .LVU210
 171:Drivers/lvgl/src/core/lv_indev.c ****             if(i->driver->type == LV_INDEV_TYPE_POINTER || i->driver->type == LV_INDEV_TYPE_KEYPAD)
 642              		.loc 1 171 33 is_stmt 0 view .LVU211
 643 0032 4379     		ldrb	r3, [r0, #5]	@ zero_extendqisi2
 172:Drivers/lvgl/src/core/lv_indev.c ****                 if(obj == NULL || i->proc.types.pointer.last_pressed == obj) {
 644              		.loc 1 172 25 view .LVU212
 645 0034 0268     		ldr	r2, [r0]
 171:Drivers/lvgl/src/core/lv_indev.c ****             if(i->driver->type == LV_INDEV_TYPE_POINTER || i->driver->type == LV_INDEV_TYPE_KEYPAD)
 646              		.loc 1 171 33 view .LVU213
 647 0036 43F00203 		orr	r3, r3, #2
 648 003a 4371     		strb	r3, [r0, #5]
 172:Drivers/lvgl/src/core/lv_indev.c ****                 if(obj == NULL || i->proc.types.pointer.last_pressed == obj) {
 649              		.loc 1 172 13 is_stmt 1 view .LVU214
 172:Drivers/lvgl/src/core/lv_indev.c ****                 if(obj == NULL || i->proc.types.pointer.last_pressed == obj) {
 650              		.loc 1 172 57 is_stmt 0 view .LVU215
 651 003c 1378     		ldrb	r3, [r2]	@ zero_extendqisi2
 172:Drivers/lvgl/src/core/lv_indev.c ****                 if(obj == NULL || i->proc.types.pointer.last_pressed == obj) {
 652              		.loc 1 172 15 view .LVU216
 653 003e 013B     		subs	r3, r3, #1
 654 0040 012B     		cmp	r3, #1
 655 0042 EFD9     		bls	.L92
 169:Drivers/lvgl/src/core/lv_indev.c ****         while(i) {
 656              		.loc 1 169 9 is_stmt 1 view .LVU217
 169:Drivers/lvgl/src/core/lv_indev.c ****         while(i) {
 657              		.loc 1 169 26 is_stmt 0 view .LVU218
 658 0044 FFF7FEFF 		bl	lv_indev_get_next
 659              	.LVL46:
 170:Drivers/lvgl/src/core/lv_indev.c ****             i->proc.reset_query = 1;
 660              		.loc 1 170 9 is_stmt 1 view .LVU219
 170:Drivers/lvgl/src/core/lv_indev.c ****             i->proc.reset_query = 1;
 661              		.loc 1 170 15 view .LVU220
 662 0048 0028     		cmp	r0, #0
 663 004a F2D1     		bne	.L93
ARM GAS  /var/folders/lp/x54gwt890xv47sdkqj1k04q40000gn/T//ccfgQDQQ.s 			page 38


 664              	.L75:
 185:Drivers/lvgl/src/core/lv_indev.c ****     }
 665              		.loc 1 185 9 view .LVU221
 185:Drivers/lvgl/src/core/lv_indev.c ****     }
 666              		.loc 1 185 23 is_stmt 0 view .LVU222
 667 004c 174B     		ldr	r3, .L96+4
 668 004e 0022     		movs	r2, #0
 669 0050 1A60     		str	r2, [r3]
 670              	.LBE155:
 187:Drivers/lvgl/src/core/lv_indev.c **** 
 671              		.loc 1 187 1 view .LVU223
 672 0052 38BD     		pop	{r3, r4, r5, pc}
 673              	.LVL47:
 674              	.L78:
 675              	.LBB156:
 173:Drivers/lvgl/src/core/lv_indev.c ****                     i->proc.types.pointer.last_pressed = NULL;
 676              		.loc 1 173 32 discriminator 1 view .LVU224
 677 0054 436B     		ldr	r3, [r0, #52]
 678 0056 AB42     		cmp	r3, r5
 174:Drivers/lvgl/src/core/lv_indev.c ****                 }
 679              		.loc 1 174 21 is_stmt 1 view .LVU225
 174:Drivers/lvgl/src/core/lv_indev.c ****                 }
 680              		.loc 1 174 56 is_stmt 0 view .LVU226
 681 0058 04BF     		itt	eq
 682 005a 0023     		moveq	r3, #0
 683 005c 4363     		streq	r3, [r0, #52]
 176:Drivers/lvgl/src/core/lv_indev.c ****                     i->proc.types.pointer.act_obj = NULL;
 684              		.loc 1 176 32 discriminator 1 view .LVU227
 685 005e 836A     		ldr	r3, [r0, #40]
 686 0060 AB42     		cmp	r3, r5
 177:Drivers/lvgl/src/core/lv_indev.c ****                 }
 687              		.loc 1 177 21 is_stmt 1 view .LVU228
 177:Drivers/lvgl/src/core/lv_indev.c ****                 }
 688              		.loc 1 177 51 is_stmt 0 view .LVU229
 689 0062 04BF     		itt	eq
 690 0064 0023     		moveq	r3, #0
 691 0066 8362     		streq	r3, [r0, #40]
 179:Drivers/lvgl/src/core/lv_indev.c ****                     i->proc.types.pointer.last_obj = NULL;
 692              		.loc 1 179 32 discriminator 1 view .LVU230
 693 0068 C36A     		ldr	r3, [r0, #44]
 694 006a AB42     		cmp	r3, r5
 695 006c DED1     		bne	.L66
 180:Drivers/lvgl/src/core/lv_indev.c ****                 }
 696              		.loc 1 180 21 is_stmt 1 view .LVU231
 180:Drivers/lvgl/src/core/lv_indev.c ****                 }
 697              		.loc 1 180 52 is_stmt 0 view .LVU232
 698 006e C462     		str	r4, [r0, #44]
 699 0070 DCE7     		b	.L66
 700              	.LVL48:
 701              	.L91:
 180:Drivers/lvgl/src/core/lv_indev.c ****                 }
 702              		.loc 1 180 52 view .LVU233
 703              	.LBE156:
 157:Drivers/lvgl/src/core/lv_indev.c ****                 indev->proc.types.pointer.last_pressed = NULL;
 704              		.loc 1 157 13 is_stmt 1 view .LVU234
 157:Drivers/lvgl/src/core/lv_indev.c ****                 indev->proc.types.pointer.last_pressed = NULL;
 705              		.loc 1 157 15 is_stmt 0 view .LVU235
ARM GAS  /var/folders/lp/x54gwt890xv47sdkqj1k04q40000gn/T//ccfgQDQQ.s 			page 39


 706 0072 9DB1     		cbz	r5, .L94
 157:Drivers/lvgl/src/core/lv_indev.c ****                 indev->proc.types.pointer.last_pressed = NULL;
 707              		.loc 1 157 28 discriminator 1 view .LVU236
 708 0074 636B     		ldr	r3, [r4, #52]
 709 0076 AB42     		cmp	r3, r5
 158:Drivers/lvgl/src/core/lv_indev.c ****             }
 710              		.loc 1 158 17 is_stmt 1 view .LVU237
 158:Drivers/lvgl/src/core/lv_indev.c ****             }
 711              		.loc 1 158 56 is_stmt 0 view .LVU238
 712 0078 04BF     		itt	eq
 713 007a 0023     		moveq	r3, #0
 714 007c 6363     		streq	r3, [r4, #52]
 160:Drivers/lvgl/src/core/lv_indev.c ****                 indev->proc.types.pointer.act_obj = NULL;
 715              		.loc 1 160 13 is_stmt 1 view .LVU239
 160:Drivers/lvgl/src/core/lv_indev.c ****                 indev->proc.types.pointer.act_obj = NULL;
 716              		.loc 1 160 28 is_stmt 0 discriminator 1 view .LVU240
 717 007e A36A     		ldr	r3, [r4, #40]
 718 0080 AB42     		cmp	r3, r5
 161:Drivers/lvgl/src/core/lv_indev.c ****             }
 719              		.loc 1 161 17 is_stmt 1 view .LVU241
 161:Drivers/lvgl/src/core/lv_indev.c ****             }
 720              		.loc 1 161 51 is_stmt 0 view .LVU242
 721 0082 04BF     		itt	eq
 722 0084 0023     		moveq	r3, #0
 723 0086 A362     		streq	r3, [r4, #40]
 163:Drivers/lvgl/src/core/lv_indev.c ****                 indev->proc.types.pointer.last_obj = NULL;
 724              		.loc 1 163 13 is_stmt 1 view .LVU243
 163:Drivers/lvgl/src/core/lv_indev.c ****                 indev->proc.types.pointer.last_obj = NULL;
 725              		.loc 1 163 28 is_stmt 0 discriminator 1 view .LVU244
 726 0088 E36A     		ldr	r3, [r4, #44]
 727 008a AB42     		cmp	r3, r5
 728 008c C9D1     		bne	.L65
 164:Drivers/lvgl/src/core/lv_indev.c ****             }
 729              		.loc 1 164 17 is_stmt 1 view .LVU245
 164:Drivers/lvgl/src/core/lv_indev.c ****             }
 730              		.loc 1 164 52 is_stmt 0 view .LVU246
 731 008e 0023     		movs	r3, #0
 732 0090 E362     		str	r3, [r4, #44]
 733              	.L95:
 187:Drivers/lvgl/src/core/lv_indev.c **** 
 734              		.loc 1 187 1 view .LVU247
 735 0092 38BD     		pop	{r3, r4, r5, pc}
 736              	.L90:
 155:Drivers/lvgl/src/core/lv_indev.c ****         if(indev->driver->type == LV_INDEV_TYPE_POINTER || indev->driver->type == LV_INDEV_TYPE_KEY
 737              		.loc 1 155 32 is_stmt 1 discriminator 1 view .LVU248
 155:Drivers/lvgl/src/core/lv_indev.c ****         if(indev->driver->type == LV_INDEV_TYPE_POINTER || indev->driver->type == LV_INDEV_TYPE_KEY
 738              		.loc 1 155 46 is_stmt 0 discriminator 1 view .LVU249
 739 0094 054B     		ldr	r3, .L96+4
 740 0096 0022     		movs	r2, #0
 741 0098 1A60     		str	r2, [r3]
 742 009a BDE7     		b	.L67
 743              	.L94:
 158:Drivers/lvgl/src/core/lv_indev.c ****             }
 744              		.loc 1 158 17 is_stmt 1 view .LVU250
 164:Drivers/lvgl/src/core/lv_indev.c ****             }
 745              		.loc 1 164 52 is_stmt 0 view .LVU251
 746 009c 0023     		movs	r3, #0
ARM GAS  /var/folders/lp/x54gwt890xv47sdkqj1k04q40000gn/T//ccfgQDQQ.s 			page 40


 158:Drivers/lvgl/src/core/lv_indev.c ****             }
 747              		.loc 1 158 56 view .LVU252
 748 009e 6563     		str	r5, [r4, #52]
 160:Drivers/lvgl/src/core/lv_indev.c ****                 indev->proc.types.pointer.act_obj = NULL;
 749              		.loc 1 160 13 is_stmt 1 view .LVU253
 161:Drivers/lvgl/src/core/lv_indev.c ****             }
 750              		.loc 1 161 17 view .LVU254
 161:Drivers/lvgl/src/core/lv_indev.c ****             }
 751              		.loc 1 161 51 is_stmt 0 view .LVU255
 752 00a0 A562     		str	r5, [r4, #40]
 163:Drivers/lvgl/src/core/lv_indev.c ****                 indev->proc.types.pointer.last_obj = NULL;
 753              		.loc 1 163 13 is_stmt 1 view .LVU256
 164:Drivers/lvgl/src/core/lv_indev.c ****             }
 754              		.loc 1 164 17 view .LVU257
 164:Drivers/lvgl/src/core/lv_indev.c ****             }
 755              		.loc 1 164 52 is_stmt 0 view .LVU258
 756 00a2 E362     		str	r3, [r4, #44]
 757 00a4 F5E7     		b	.L95
 758              	.L97:
 759 00a6 00BF     		.align	2
 760              	.L96:
 761 00a8 00000000 		.word	indev_act
 762 00ac 00000000 		.word	indev_obj_act
 763              		.cfi_endproc
 764              	.LFE171:
 766              		.section	.text.lv_indev_reset_long_press,"ax",%progbits
 767              		.align	1
 768              		.p2align 2,,3
 769              		.global	lv_indev_reset_long_press
 770              		.syntax unified
 771              		.thumb
 772              		.thumb_func
 774              	lv_indev_reset_long_press:
 775              	.LVL49:
 776              	.LFB172:
 190:Drivers/lvgl/src/core/lv_indev.c ****     indev->proc.long_pr_sent         = 0;
 777              		.loc 1 190 1 is_stmt 1 view -0
 778              		.cfi_startproc
 779              		@ args = 0, pretend = 0, frame = 0
 780              		@ frame_needed = 0, uses_anonymous_args = 0
 191:Drivers/lvgl/src/core/lv_indev.c ****     indev->proc.longpr_rep_timestamp = lv_tick_get();
 781              		.loc 1 191 5 view .LVU260
 191:Drivers/lvgl/src/core/lv_indev.c ****     indev->proc.longpr_rep_timestamp = lv_tick_get();
 782              		.loc 1 191 38 is_stmt 0 view .LVU261
 783 0000 4379     		ldrb	r3, [r0, #5]	@ zero_extendqisi2
 784 0002 23F00103 		bic	r3, r3, #1
 190:Drivers/lvgl/src/core/lv_indev.c ****     indev->proc.long_pr_sent         = 0;
 785              		.loc 1 190 1 view .LVU262
 786 0006 10B5     		push	{r4, lr}
 787              		.cfi_def_cfa_offset 8
 788              		.cfi_offset 4, -8
 789              		.cfi_offset 14, -4
 191:Drivers/lvgl/src/core/lv_indev.c ****     indev->proc.longpr_rep_timestamp = lv_tick_get();
 790              		.loc 1 191 38 view .LVU263
 791 0008 4371     		strb	r3, [r0, #5]
 192:Drivers/lvgl/src/core/lv_indev.c ****     indev->proc.pr_timestamp         = lv_tick_get();
 792              		.loc 1 192 5 is_stmt 1 view .LVU264
ARM GAS  /var/folders/lp/x54gwt890xv47sdkqj1k04q40000gn/T//ccfgQDQQ.s 			page 41


 190:Drivers/lvgl/src/core/lv_indev.c ****     indev->proc.long_pr_sent         = 0;
 793              		.loc 1 190 1 is_stmt 0 view .LVU265
 794 000a 0446     		mov	r4, r0
 192:Drivers/lvgl/src/core/lv_indev.c ****     indev->proc.pr_timestamp         = lv_tick_get();
 795              		.loc 1 192 40 view .LVU266
 796 000c FFF7FEFF 		bl	lv_tick_get
 797              	.LVL50:
 192:Drivers/lvgl/src/core/lv_indev.c ****     indev->proc.pr_timestamp         = lv_tick_get();
 798              		.loc 1 192 38 discriminator 1 view .LVU267
 799 0010 E064     		str	r0, [r4, #76]
 193:Drivers/lvgl/src/core/lv_indev.c **** }
 800              		.loc 1 193 5 is_stmt 1 view .LVU268
 193:Drivers/lvgl/src/core/lv_indev.c **** }
 801              		.loc 1 193 40 is_stmt 0 view .LVU269
 802 0012 FFF7FEFF 		bl	lv_tick_get
 803              	.LVL51:
 193:Drivers/lvgl/src/core/lv_indev.c **** }
 804              		.loc 1 193 38 discriminator 1 view .LVU270
 805 0016 A064     		str	r0, [r4, #72]
 194:Drivers/lvgl/src/core/lv_indev.c **** 
 806              		.loc 1 194 1 view .LVU271
 807 0018 10BD     		pop	{r4, pc}
 194:Drivers/lvgl/src/core/lv_indev.c **** 
 808              		.loc 1 194 1 view .LVU272
 809              		.cfi_endproc
 810              	.LFE172:
 812 001a 00BF     		.section	.text.lv_indev_set_cursor,"ax",%progbits
 813              		.align	1
 814              		.p2align 2,,3
 815              		.global	lv_indev_set_cursor
 816              		.syntax unified
 817              		.thumb
 818              		.thumb_func
 820              	lv_indev_set_cursor:
 821              	.LVL52:
 822              	.LFB173:
 197:Drivers/lvgl/src/core/lv_indev.c ****     if(indev->driver->type != LV_INDEV_TYPE_POINTER) return;
 823              		.loc 1 197 1 is_stmt 1 view -0
 824              		.cfi_startproc
 825              		@ args = 0, pretend = 0, frame = 0
 826              		@ frame_needed = 0, uses_anonymous_args = 0
 198:Drivers/lvgl/src/core/lv_indev.c **** 
 827              		.loc 1 198 5 view .LVU274
 197:Drivers/lvgl/src/core/lv_indev.c ****     if(indev->driver->type != LV_INDEV_TYPE_POINTER) return;
 828              		.loc 1 197 1 is_stmt 0 view .LVU275
 829 0000 38B5     		push	{r3, r4, r5, lr}
 830              		.cfi_def_cfa_offset 16
 831              		.cfi_offset 3, -16
 832              		.cfi_offset 4, -12
 833              		.cfi_offset 5, -8
 834              		.cfi_offset 14, -4
 198:Drivers/lvgl/src/core/lv_indev.c **** 
 835              		.loc 1 198 13 view .LVU276
 836 0002 0368     		ldr	r3, [r0]
 198:Drivers/lvgl/src/core/lv_indev.c **** 
 837              		.loc 1 198 7 view .LVU277
 838 0004 1A78     		ldrb	r2, [r3]	@ zero_extendqisi2
ARM GAS  /var/folders/lp/x54gwt890xv47sdkqj1k04q40000gn/T//ccfgQDQQ.s 			page 42


 839 0006 012A     		cmp	r2, #1
 840 0008 00D0     		beq	.L103
 205:Drivers/lvgl/src/core/lv_indev.c **** 
 841              		.loc 1 205 1 view .LVU278
 842 000a 38BD     		pop	{r3, r4, r5, pc}
 843              	.L103:
 200:Drivers/lvgl/src/core/lv_indev.c ****     lv_obj_set_parent(indev->cursor, lv_disp_get_layer_sys(indev->driver->disp));
 844              		.loc 1 200 5 is_stmt 1 view .LVU279
 845 000c 0446     		mov	r4, r0
 201:Drivers/lvgl/src/core/lv_indev.c ****     lv_obj_set_pos(indev->cursor, indev->proc.types.pointer.act_point.x, indev->proc.types.pointer.
 846              		.loc 1 201 38 is_stmt 0 view .LVU280
 847 000e 1869     		ldr	r0, [r3, #16]
 848              	.LVL53:
 200:Drivers/lvgl/src/core/lv_indev.c ****     lv_obj_set_parent(indev->cursor, lv_disp_get_layer_sys(indev->driver->disp));
 849              		.loc 1 200 19 view .LVU281
 850 0010 2165     		str	r1, [r4, #80]
 201:Drivers/lvgl/src/core/lv_indev.c ****     lv_obj_set_pos(indev->cursor, indev->proc.types.pointer.act_point.x, indev->proc.types.pointer.
 851              		.loc 1 201 5 is_stmt 1 view .LVU282
 852 0012 0D46     		mov	r5, r1
 201:Drivers/lvgl/src/core/lv_indev.c ****     lv_obj_set_pos(indev->cursor, indev->proc.types.pointer.act_point.x, indev->proc.types.pointer.
 853              		.loc 1 201 38 is_stmt 0 view .LVU283
 854 0014 FFF7FEFF 		bl	lv_disp_get_layer_sys
 855              	.LVL54:
 201:Drivers/lvgl/src/core/lv_indev.c ****     lv_obj_set_pos(indev->cursor, indev->proc.types.pointer.act_point.x, indev->proc.types.pointer.
 856              		.loc 1 201 38 view .LVU284
 857 0018 0146     		mov	r1, r0
 201:Drivers/lvgl/src/core/lv_indev.c ****     lv_obj_set_pos(indev->cursor, indev->proc.types.pointer.act_point.x, indev->proc.types.pointer.
 858              		.loc 1 201 5 discriminator 1 view .LVU285
 859 001a 2846     		mov	r0, r5
 860 001c FFF7FEFF 		bl	lv_obj_set_parent
 861              	.LVL55:
 202:Drivers/lvgl/src/core/lv_indev.c ****     lv_obj_clear_flag(indev->cursor, LV_OBJ_FLAG_CLICKABLE);
 862              		.loc 1 202 5 is_stmt 1 view .LVU286
 863 0020 B4F90A20 		ldrsh	r2, [r4, #10]
 864 0024 B4F90810 		ldrsh	r1, [r4, #8]
 865 0028 206D     		ldr	r0, [r4, #80]
 866 002a FFF7FEFF 		bl	lv_obj_set_pos
 867              	.LVL56:
 203:Drivers/lvgl/src/core/lv_indev.c ****     lv_obj_add_flag(indev->cursor, LV_OBJ_FLAG_IGNORE_LAYOUT | LV_OBJ_FLAG_FLOATING);
 868              		.loc 1 203 5 view .LVU287
 869 002e 206D     		ldr	r0, [r4, #80]
 870 0030 0221     		movs	r1, #2
 871 0032 FFF7FEFF 		bl	lv_obj_clear_flag
 872              	.LVL57:
 204:Drivers/lvgl/src/core/lv_indev.c **** }
 873              		.loc 1 204 5 view .LVU288
 874 0036 206D     		ldr	r0, [r4, #80]
 875 0038 4FF4C021 		mov	r1, #393216
 205:Drivers/lvgl/src/core/lv_indev.c **** 
 876              		.loc 1 205 1 is_stmt 0 view .LVU289
 877 003c BDE83840 		pop	{r3, r4, r5, lr}
 878              		.cfi_restore 14
 879              		.cfi_restore 5
 880              		.cfi_restore 4
 881              		.cfi_restore 3
 882              		.cfi_def_cfa_offset 0
 883              	.LVL58:
ARM GAS  /var/folders/lp/x54gwt890xv47sdkqj1k04q40000gn/T//ccfgQDQQ.s 			page 43


 204:Drivers/lvgl/src/core/lv_indev.c **** }
 884              		.loc 1 204 5 view .LVU290
 885 0040 FFF7FEBF 		b	lv_obj_add_flag
 886              	.LVL59:
 887              		.cfi_endproc
 888              	.LFE173:
 890              		.section	.text.lv_indev_set_group,"ax",%progbits
 891              		.align	1
 892              		.p2align 2,,3
 893              		.global	lv_indev_set_group
 894              		.syntax unified
 895              		.thumb
 896              		.thumb_func
 898              	lv_indev_set_group:
 899              	.LVL60:
 900              	.LFB174:
 208:Drivers/lvgl/src/core/lv_indev.c ****     if(indev->driver->type == LV_INDEV_TYPE_KEYPAD || indev->driver->type == LV_INDEV_TYPE_ENCODER)
 901              		.loc 1 208 1 is_stmt 1 view -0
 902              		.cfi_startproc
 903              		@ args = 0, pretend = 0, frame = 0
 904              		@ frame_needed = 0, uses_anonymous_args = 0
 905              		@ link register save eliminated.
 209:Drivers/lvgl/src/core/lv_indev.c ****         indev->group = group;
 906              		.loc 1 209 5 view .LVU292
 209:Drivers/lvgl/src/core/lv_indev.c ****         indev->group = group;
 907              		.loc 1 209 21 is_stmt 0 view .LVU293
 908 0000 0368     		ldr	r3, [r0]
 909 0002 1B78     		ldrb	r3, [r3]	@ zero_extendqisi2
 209:Drivers/lvgl/src/core/lv_indev.c ****         indev->group = group;
 910              		.loc 1 209 7 view .LVU294
 911 0004 022B     		cmp	r3, #2
 912 0006 02D0     		beq	.L105
 209:Drivers/lvgl/src/core/lv_indev.c ****         indev->group = group;
 913              		.loc 1 209 52 discriminator 1 view .LVU295
 914 0008 042B     		cmp	r3, #4
 915 000a 00D0     		beq	.L105
 212:Drivers/lvgl/src/core/lv_indev.c **** 
 916              		.loc 1 212 1 view .LVU296
 917 000c 7047     		bx	lr
 918              	.L105:
 210:Drivers/lvgl/src/core/lv_indev.c ****     }
 919              		.loc 1 210 9 is_stmt 1 view .LVU297
 210:Drivers/lvgl/src/core/lv_indev.c ****     }
 920              		.loc 1 210 22 is_stmt 0 view .LVU298
 921 000e 4165     		str	r1, [r0, #84]
 212:Drivers/lvgl/src/core/lv_indev.c **** 
 922              		.loc 1 212 1 view .LVU299
 923 0010 7047     		bx	lr
 924              		.cfi_endproc
 925              	.LFE174:
 927 0012 00BF     		.section	.text.lv_indev_set_button_points,"ax",%progbits
 928              		.align	1
 929              		.p2align 2,,3
 930              		.global	lv_indev_set_button_points
 931              		.syntax unified
 932              		.thumb
 933              		.thumb_func
ARM GAS  /var/folders/lp/x54gwt890xv47sdkqj1k04q40000gn/T//ccfgQDQQ.s 			page 44


 935              	lv_indev_set_button_points:
 936              	.LVL61:
 937              	.LFB175:
 215:Drivers/lvgl/src/core/lv_indev.c ****     if(indev->driver->type == LV_INDEV_TYPE_BUTTON) {
 938              		.loc 1 215 1 is_stmt 1 view -0
 939              		.cfi_startproc
 940              		@ args = 0, pretend = 0, frame = 0
 941              		@ frame_needed = 0, uses_anonymous_args = 0
 942              		@ link register save eliminated.
 216:Drivers/lvgl/src/core/lv_indev.c ****         indev->btn_points = points;
 943              		.loc 1 216 5 view .LVU301
 216:Drivers/lvgl/src/core/lv_indev.c ****         indev->btn_points = points;
 944              		.loc 1 216 21 is_stmt 0 view .LVU302
 945 0000 0368     		ldr	r3, [r0]
 216:Drivers/lvgl/src/core/lv_indev.c ****         indev->btn_points = points;
 946              		.loc 1 216 7 view .LVU303
 947 0002 1B78     		ldrb	r3, [r3]	@ zero_extendqisi2
 948 0004 032B     		cmp	r3, #3
 217:Drivers/lvgl/src/core/lv_indev.c ****     }
 949              		.loc 1 217 9 is_stmt 1 view .LVU304
 217:Drivers/lvgl/src/core/lv_indev.c ****     }
 950              		.loc 1 217 27 is_stmt 0 view .LVU305
 951 0006 08BF     		it	eq
 952 0008 8165     		streq	r1, [r0, #88]
 219:Drivers/lvgl/src/core/lv_indev.c **** 
 953              		.loc 1 219 1 view .LVU306
 954 000a 7047     		bx	lr
 955              		.cfi_endproc
 956              	.LFE175:
 958              		.section	.text.lv_indev_get_point,"ax",%progbits
 959              		.align	1
 960              		.p2align 2,,3
 961              		.global	lv_indev_get_point
 962              		.syntax unified
 963              		.thumb
 964              		.thumb_func
 966              	lv_indev_get_point:
 967              	.LVL62:
 968              	.LFB176:
 222:Drivers/lvgl/src/core/lv_indev.c ****     if(indev == NULL) {
 969              		.loc 1 222 1 is_stmt 1 view -0
 970              		.cfi_startproc
 971              		@ args = 0, pretend = 0, frame = 0
 972              		@ frame_needed = 0, uses_anonymous_args = 0
 973              		@ link register save eliminated.
 223:Drivers/lvgl/src/core/lv_indev.c ****         point->x = 0;
 974              		.loc 1 223 5 view .LVU308
 223:Drivers/lvgl/src/core/lv_indev.c ****         point->x = 0;
 975              		.loc 1 223 7 is_stmt 0 view .LVU309
 976 0000 98B1     		cbz	r0, .L116
 228:Drivers/lvgl/src/core/lv_indev.c ****         point->x = -1;
 977              		.loc 1 228 5 is_stmt 1 view .LVU310
 228:Drivers/lvgl/src/core/lv_indev.c ****         point->x = -1;
 978              		.loc 1 228 21 is_stmt 0 view .LVU311
 979 0002 0368     		ldr	r3, [r0]
 228:Drivers/lvgl/src/core/lv_indev.c ****         point->x = -1;
 980              		.loc 1 228 7 view .LVU312
ARM GAS  /var/folders/lp/x54gwt890xv47sdkqj1k04q40000gn/T//ccfgQDQQ.s 			page 45


 981 0004 1B78     		ldrb	r3, [r3]	@ zero_extendqisi2
 982 0006 03F0FD03 		and	r3, r3, #253
 983 000a 012B     		cmp	r3, #1
 984 000c 06D0     		beq	.L115
 229:Drivers/lvgl/src/core/lv_indev.c ****         point->y = -1;
 985              		.loc 1 229 9 is_stmt 1 view .LVU313
 229:Drivers/lvgl/src/core/lv_indev.c ****         point->y = -1;
 986              		.loc 1 229 18 is_stmt 0 view .LVU314
 987 000e 4FF6FF73 		movw	r3, #65535
 230:Drivers/lvgl/src/core/lv_indev.c ****     }
 988              		.loc 1 230 18 view .LVU315
 989 0012 4FF0FF30 		mov	r0, #-1
 990              	.LVL63:
 229:Drivers/lvgl/src/core/lv_indev.c ****         point->y = -1;
 991              		.loc 1 229 18 view .LVU316
 992 0016 0B80     		strh	r3, [r1]	@ movhi
 230:Drivers/lvgl/src/core/lv_indev.c ****     }
 993              		.loc 1 230 9 is_stmt 1 view .LVU317
 225:Drivers/lvgl/src/core/lv_indev.c ****         return;
 994              		.loc 1 225 18 is_stmt 0 view .LVU318
 995 0018 4880     		strh	r0, [r1, #2]	@ movhi
 236:Drivers/lvgl/src/core/lv_indev.c **** 
 996              		.loc 1 236 1 view .LVU319
 997 001a 7047     		bx	lr
 998              	.LVL64:
 999              	.L115:
 233:Drivers/lvgl/src/core/lv_indev.c ****         point->y = indev->proc.types.pointer.act_point.y;
 1000              		.loc 1 233 9 is_stmt 1 view .LVU320
 233:Drivers/lvgl/src/core/lv_indev.c ****         point->y = indev->proc.types.pointer.act_point.y;
 1001              		.loc 1 233 55 is_stmt 0 view .LVU321
 1002 001c B0F90830 		ldrsh	r3, [r0, #8]
 233:Drivers/lvgl/src/core/lv_indev.c ****         point->y = indev->proc.types.pointer.act_point.y;
 1003              		.loc 1 233 18 view .LVU322
 1004 0020 0B80     		strh	r3, [r1]	@ movhi
 234:Drivers/lvgl/src/core/lv_indev.c ****     }
 1005              		.loc 1 234 9 is_stmt 1 view .LVU323
 234:Drivers/lvgl/src/core/lv_indev.c ****     }
 1006              		.loc 1 234 55 is_stmt 0 view .LVU324
 1007 0022 B0F90A00 		ldrsh	r0, [r0, #10]
 1008              	.LVL65:
 225:Drivers/lvgl/src/core/lv_indev.c ****         return;
 1009              		.loc 1 225 18 view .LVU325
 1010 0026 4880     		strh	r0, [r1, #2]	@ movhi
 236:Drivers/lvgl/src/core/lv_indev.c **** 
 1011              		.loc 1 236 1 view .LVU326
 1012 0028 7047     		bx	lr
 1013              	.LVL66:
 1014              	.L116:
 224:Drivers/lvgl/src/core/lv_indev.c ****         point->y = 0;
 1015              		.loc 1 224 9 is_stmt 1 view .LVU327
 224:Drivers/lvgl/src/core/lv_indev.c ****         point->y = 0;
 1016              		.loc 1 224 18 is_stmt 0 view .LVU328
 1017 002a 0880     		strh	r0, [r1]	@ movhi
 225:Drivers/lvgl/src/core/lv_indev.c ****         return;
 1018              		.loc 1 225 9 is_stmt 1 view .LVU329
 226:Drivers/lvgl/src/core/lv_indev.c ****     }
 1019              		.loc 1 226 9 view .LVU330
ARM GAS  /var/folders/lp/x54gwt890xv47sdkqj1k04q40000gn/T//ccfgQDQQ.s 			page 46


 225:Drivers/lvgl/src/core/lv_indev.c ****         return;
 1020              		.loc 1 225 18 is_stmt 0 view .LVU331
 1021 002c 4880     		strh	r0, [r1, #2]	@ movhi
 236:Drivers/lvgl/src/core/lv_indev.c **** 
 1022              		.loc 1 236 1 view .LVU332
 1023 002e 7047     		bx	lr
 1024              		.cfi_endproc
 1025              	.LFE176:
 1027              		.section	.text.lv_indev_get_gesture_dir,"ax",%progbits
 1028              		.align	1
 1029              		.p2align 2,,3
 1030              		.global	lv_indev_get_gesture_dir
 1031              		.syntax unified
 1032              		.thumb
 1033              		.thumb_func
 1035              	lv_indev_get_gesture_dir:
 1036              	.LVL67:
 1037              	.LFB177:
 239:Drivers/lvgl/src/core/lv_indev.c ****     return indev->proc.types.pointer.gesture_dir;
 1038              		.loc 1 239 1 is_stmt 1 view -0
 1039              		.cfi_startproc
 1040              		@ args = 0, pretend = 0, frame = 0
 1041              		@ frame_needed = 0, uses_anonymous_args = 0
 1042              		@ link register save eliminated.
 240:Drivers/lvgl/src/core/lv_indev.c **** }
 1043              		.loc 1 240 5 view .LVU334
 240:Drivers/lvgl/src/core/lv_indev.c **** }
 1044              		.loc 1 240 37 is_stmt 0 view .LVU335
 1045 0000 90F84400 		ldrb	r0, [r0, #68]	@ zero_extendqisi2
 1046              	.LVL68:
 241:Drivers/lvgl/src/core/lv_indev.c **** 
 1047              		.loc 1 241 1 view .LVU336
 1048 0004 0009     		lsrs	r0, r0, #4
 1049 0006 7047     		bx	lr
 1050              		.cfi_endproc
 1051              	.LFE177:
 1053              		.section	.text.lv_indev_get_key,"ax",%progbits
 1054              		.align	1
 1055              		.p2align 2,,3
 1056              		.global	lv_indev_get_key
 1057              		.syntax unified
 1058              		.thumb
 1059              		.thumb_func
 1061              	lv_indev_get_key:
 1062              	.LVL69:
 1063              	.LFB178:
 244:Drivers/lvgl/src/core/lv_indev.c ****     if(indev->driver->type != LV_INDEV_TYPE_KEYPAD)
 1064              		.loc 1 244 1 is_stmt 1 view -0
 1065              		.cfi_startproc
 1066              		@ args = 0, pretend = 0, frame = 0
 1067              		@ frame_needed = 0, uses_anonymous_args = 0
 1068              		@ link register save eliminated.
 245:Drivers/lvgl/src/core/lv_indev.c ****         return 0;
 1069              		.loc 1 245 5 view .LVU338
 245:Drivers/lvgl/src/core/lv_indev.c ****         return 0;
 1070              		.loc 1 245 21 is_stmt 0 view .LVU339
 1071 0000 0368     		ldr	r3, [r0]
ARM GAS  /var/folders/lp/x54gwt890xv47sdkqj1k04q40000gn/T//ccfgQDQQ.s 			page 47


 245:Drivers/lvgl/src/core/lv_indev.c ****         return 0;
 1072              		.loc 1 245 7 view .LVU340
 1073 0002 1B78     		ldrb	r3, [r3]	@ zero_extendqisi2
 1074 0004 022B     		cmp	r3, #2
 248:Drivers/lvgl/src/core/lv_indev.c **** }
 1075              		.loc 1 248 9 is_stmt 1 view .LVU341
 248:Drivers/lvgl/src/core/lv_indev.c **** }
 1076              		.loc 1 248 40 is_stmt 0 view .LVU342
 1077 0006 0CBF     		ite	eq
 1078 0008 C068     		ldreq	r0, [r0, #12]
 1079              	.LVL70:
 246:Drivers/lvgl/src/core/lv_indev.c ****     else
 1080              		.loc 1 246 16 view .LVU343
 1081 000a 0020     		movne	r0, #0
 249:Drivers/lvgl/src/core/lv_indev.c **** 
 1082              		.loc 1 249 1 view .LVU344
 1083 000c 7047     		bx	lr
 1084              		.cfi_endproc
 1085              	.LFE178:
 1087              		.section	.text.lv_indev_get_scroll_dir,"ax",%progbits
 1088              		.align	1
 1089              		.p2align 2,,3
 1090              		.global	lv_indev_get_scroll_dir
 1091              		.syntax unified
 1092              		.thumb
 1093              		.thumb_func
 1095              	lv_indev_get_scroll_dir:
 1096              	.LVL71:
 1097              	.LFB179:
 252:Drivers/lvgl/src/core/lv_indev.c ****     if(indev == NULL) return false;
 1098              		.loc 1 252 1 is_stmt 1 view -0
 1099              		.cfi_startproc
 1100              		@ args = 0, pretend = 0, frame = 0
 1101              		@ frame_needed = 0, uses_anonymous_args = 0
 1102              		@ link register save eliminated.
 253:Drivers/lvgl/src/core/lv_indev.c ****     if(indev->driver->type != LV_INDEV_TYPE_POINTER && indev->driver->type != LV_INDEV_TYPE_BUTTON)
 1103              		.loc 1 253 5 view .LVU346
 253:Drivers/lvgl/src/core/lv_indev.c ****     if(indev->driver->type != LV_INDEV_TYPE_POINTER && indev->driver->type != LV_INDEV_TYPE_BUTTON)
 1104              		.loc 1 253 7 is_stmt 0 view .LVU347
 1105 0000 30B1     		cbz	r0, .L122
 254:Drivers/lvgl/src/core/lv_indev.c ****     return indev->proc.types.pointer.scroll_dir;
 1106              		.loc 1 254 5 is_stmt 1 view .LVU348
 254:Drivers/lvgl/src/core/lv_indev.c ****     return indev->proc.types.pointer.scroll_dir;
 1107              		.loc 1 254 21 is_stmt 0 view .LVU349
 1108 0002 0368     		ldr	r3, [r0]
 254:Drivers/lvgl/src/core/lv_indev.c ****     return indev->proc.types.pointer.scroll_dir;
 1109              		.loc 1 254 7 view .LVU350
 1110 0004 1B78     		ldrb	r3, [r3]	@ zero_extendqisi2
 1111 0006 03F0FD03 		and	r3, r3, #253
 1112 000a 012B     		cmp	r3, #1
 1113 000c 01D0     		beq	.L125
 253:Drivers/lvgl/src/core/lv_indev.c ****     if(indev->driver->type != LV_INDEV_TYPE_POINTER && indev->driver->type != LV_INDEV_TYPE_BUTTON)
 1114              		.loc 1 253 30 discriminator 1 view .LVU351
 1115 000e 0020     		movs	r0, #0
 1116              	.LVL72:
 1117              	.L122:
 256:Drivers/lvgl/src/core/lv_indev.c **** 
ARM GAS  /var/folders/lp/x54gwt890xv47sdkqj1k04q40000gn/T//ccfgQDQQ.s 			page 48


 1118              		.loc 1 256 1 view .LVU352
 1119 0010 7047     		bx	lr
 1120              	.LVL73:
 1121              	.L125:
 255:Drivers/lvgl/src/core/lv_indev.c **** }
 1122              		.loc 1 255 5 is_stmt 1 view .LVU353
 255:Drivers/lvgl/src/core/lv_indev.c **** }
 1123              		.loc 1 255 37 is_stmt 0 view .LVU354
 1124 0012 90F84400 		ldrb	r0, [r0, #68]	@ zero_extendqisi2
 1125              	.LVL74:
 255:Drivers/lvgl/src/core/lv_indev.c **** }
 1126              		.loc 1 255 37 view .LVU355
 1127 0016 00F00F00 		and	r0, r0, #15
 1128 001a 7047     		bx	lr
 1129              		.cfi_endproc
 1130              	.LFE179:
 1132              		.section	.text.lv_indev_get_scroll_obj,"ax",%progbits
 1133              		.align	1
 1134              		.p2align 2,,3
 1135              		.global	lv_indev_get_scroll_obj
 1136              		.syntax unified
 1137              		.thumb
 1138              		.thumb_func
 1140              	lv_indev_get_scroll_obj:
 1141              	.LVL75:
 1142              	.LFB180:
 259:Drivers/lvgl/src/core/lv_indev.c ****     if(indev == NULL) return NULL;
 1143              		.loc 1 259 1 is_stmt 1 view -0
 1144              		.cfi_startproc
 1145              		@ args = 0, pretend = 0, frame = 0
 1146              		@ frame_needed = 0, uses_anonymous_args = 0
 1147              		@ link register save eliminated.
 260:Drivers/lvgl/src/core/lv_indev.c ****     if(indev->driver->type != LV_INDEV_TYPE_POINTER && indev->driver->type != LV_INDEV_TYPE_BUTTON)
 1148              		.loc 1 260 5 view .LVU357
 260:Drivers/lvgl/src/core/lv_indev.c ****     if(indev->driver->type != LV_INDEV_TYPE_POINTER && indev->driver->type != LV_INDEV_TYPE_BUTTON)
 1149              		.loc 1 260 7 is_stmt 0 view .LVU358
 1150 0000 30B1     		cbz	r0, .L126
 261:Drivers/lvgl/src/core/lv_indev.c ****     return indev->proc.types.pointer.scroll_obj;
 1151              		.loc 1 261 5 is_stmt 1 view .LVU359
 261:Drivers/lvgl/src/core/lv_indev.c ****     return indev->proc.types.pointer.scroll_obj;
 1152              		.loc 1 261 21 is_stmt 0 view .LVU360
 1153 0002 0368     		ldr	r3, [r0]
 261:Drivers/lvgl/src/core/lv_indev.c ****     return indev->proc.types.pointer.scroll_obj;
 1154              		.loc 1 261 7 view .LVU361
 1155 0004 1B78     		ldrb	r3, [r3]	@ zero_extendqisi2
 1156 0006 03F0FD03 		and	r3, r3, #253
 1157 000a 012B     		cmp	r3, #1
 1158 000c 01D0     		beq	.L130
 260:Drivers/lvgl/src/core/lv_indev.c ****     if(indev->driver->type != LV_INDEV_TYPE_POINTER && indev->driver->type != LV_INDEV_TYPE_BUTTON)
 1159              		.loc 1 260 30 discriminator 1 view .LVU362
 1160 000e 0020     		movs	r0, #0
 1161              	.LVL76:
 1162              	.L126:
 263:Drivers/lvgl/src/core/lv_indev.c **** 
 1163              		.loc 1 263 1 view .LVU363
 1164 0010 7047     		bx	lr
 1165              	.LVL77:
ARM GAS  /var/folders/lp/x54gwt890xv47sdkqj1k04q40000gn/T//ccfgQDQQ.s 			page 49


 1166              	.L130:
 262:Drivers/lvgl/src/core/lv_indev.c **** }
 1167              		.loc 1 262 5 is_stmt 1 view .LVU364
 262:Drivers/lvgl/src/core/lv_indev.c **** }
 1168              		.loc 1 262 37 is_stmt 0 view .LVU365
 1169 0012 006B     		ldr	r0, [r0, #48]
 1170              	.LVL78:
 262:Drivers/lvgl/src/core/lv_indev.c **** }
 1171              		.loc 1 262 37 view .LVU366
 1172 0014 7047     		bx	lr
 1173              		.cfi_endproc
 1174              	.LFE180:
 1176 0016 00BF     		.section	.text.lv_indev_get_vect,"ax",%progbits
 1177              		.align	1
 1178              		.p2align 2,,3
 1179              		.global	lv_indev_get_vect
 1180              		.syntax unified
 1181              		.thumb
 1182              		.thumb_func
 1184              	lv_indev_get_vect:
 1185              	.LVL79:
 1186              	.LFB181:
 266:Drivers/lvgl/src/core/lv_indev.c ****     point->x = 0;
 1187              		.loc 1 266 1 is_stmt 1 view -0
 1188              		.cfi_startproc
 1189              		@ args = 0, pretend = 0, frame = 0
 1190              		@ frame_needed = 0, uses_anonymous_args = 0
 1191              		@ link register save eliminated.
 267:Drivers/lvgl/src/core/lv_indev.c ****     point->y = 0;
 1192              		.loc 1 267 5 view .LVU368
 268:Drivers/lvgl/src/core/lv_indev.c **** 
 1193              		.loc 1 268 5 view .LVU369
 267:Drivers/lvgl/src/core/lv_indev.c ****     point->y = 0;
 1194              		.loc 1 267 14 is_stmt 0 view .LVU370
 1195 0000 0023     		movs	r3, #0
 1196 0002 0B60     		str	r3, [r1]	@ unaligned
 270:Drivers/lvgl/src/core/lv_indev.c **** 
 1197              		.loc 1 270 5 is_stmt 1 view .LVU371
 270:Drivers/lvgl/src/core/lv_indev.c **** 
 1198              		.loc 1 270 7 is_stmt 0 view .LVU372
 1199 0004 58B1     		cbz	r0, .L131
 272:Drivers/lvgl/src/core/lv_indev.c ****         point->x = indev->proc.types.pointer.vect.x;
 1200              		.loc 1 272 5 is_stmt 1 view .LVU373
 272:Drivers/lvgl/src/core/lv_indev.c ****         point->x = indev->proc.types.pointer.vect.x;
 1201              		.loc 1 272 21 is_stmt 0 view .LVU374
 1202 0006 0368     		ldr	r3, [r0]
 272:Drivers/lvgl/src/core/lv_indev.c ****         point->x = indev->proc.types.pointer.vect.x;
 1203              		.loc 1 272 7 view .LVU375
 1204 0008 1B78     		ldrb	r3, [r3]	@ zero_extendqisi2
 1205 000a 03F0FD03 		and	r3, r3, #253
 1206 000e 012B     		cmp	r3, #1
 1207 0010 05D1     		bne	.L131
 273:Drivers/lvgl/src/core/lv_indev.c ****         point->y = indev->proc.types.pointer.vect.y;
 1208              		.loc 1 273 9 is_stmt 1 view .LVU376
 273:Drivers/lvgl/src/core/lv_indev.c ****         point->y = indev->proc.types.pointer.vect.y;
 1209              		.loc 1 273 50 is_stmt 0 view .LVU377
 1210 0012 B0F91830 		ldrsh	r3, [r0, #24]
ARM GAS  /var/folders/lp/x54gwt890xv47sdkqj1k04q40000gn/T//ccfgQDQQ.s 			page 50


 273:Drivers/lvgl/src/core/lv_indev.c ****         point->y = indev->proc.types.pointer.vect.y;
 1211              		.loc 1 273 18 view .LVU378
 1212 0016 0B80     		strh	r3, [r1]	@ movhi
 274:Drivers/lvgl/src/core/lv_indev.c ****     }
 1213              		.loc 1 274 9 is_stmt 1 view .LVU379
 274:Drivers/lvgl/src/core/lv_indev.c ****     }
 1214              		.loc 1 274 50 is_stmt 0 view .LVU380
 1215 0018 B0F91A30 		ldrsh	r3, [r0, #26]
 274:Drivers/lvgl/src/core/lv_indev.c ****     }
 1216              		.loc 1 274 18 view .LVU381
 1217 001c 4B80     		strh	r3, [r1, #2]	@ movhi
 1218              	.L131:
 276:Drivers/lvgl/src/core/lv_indev.c **** 
 1219              		.loc 1 276 1 view .LVU382
 1220 001e 7047     		bx	lr
 1221              		.cfi_endproc
 1222              	.LFE181:
 1224              		.section	.text.lv_indev_wait_release,"ax",%progbits
 1225              		.align	1
 1226              		.p2align 2,,3
 1227              		.global	lv_indev_wait_release
 1228              		.syntax unified
 1229              		.thumb
 1230              		.thumb_func
 1232              	lv_indev_wait_release:
 1233              	.LVL80:
 1234              	.LFB182:
 279:Drivers/lvgl/src/core/lv_indev.c ****     if(indev == NULL)return;
 1235              		.loc 1 279 1 is_stmt 1 view -0
 1236              		.cfi_startproc
 1237              		@ args = 0, pretend = 0, frame = 0
 1238              		@ frame_needed = 0, uses_anonymous_args = 0
 1239              		@ link register save eliminated.
 280:Drivers/lvgl/src/core/lv_indev.c ****     indev->proc.wait_until_release = 1;
 1240              		.loc 1 280 5 view .LVU384
 280:Drivers/lvgl/src/core/lv_indev.c ****     indev->proc.wait_until_release = 1;
 1241              		.loc 1 280 7 is_stmt 0 view .LVU385
 1242 0000 18B1     		cbz	r0, .L136
 281:Drivers/lvgl/src/core/lv_indev.c **** }
 1243              		.loc 1 281 5 is_stmt 1 view .LVU386
 281:Drivers/lvgl/src/core/lv_indev.c **** }
 1244              		.loc 1 281 36 is_stmt 0 view .LVU387
 1245 0002 4379     		ldrb	r3, [r0, #5]	@ zero_extendqisi2
 1246 0004 43F00803 		orr	r3, r3, #8
 1247 0008 4371     		strb	r3, [r0, #5]
 1248              	.L136:
 282:Drivers/lvgl/src/core/lv_indev.c **** 
 1249              		.loc 1 282 1 view .LVU388
 1250 000a 7047     		bx	lr
 1251              		.cfi_endproc
 1252              	.LFE182:
 1254              		.section	.text.lv_indev_get_obj_act,"ax",%progbits
 1255              		.align	1
 1256              		.p2align 2,,3
 1257              		.global	lv_indev_get_obj_act
 1258              		.syntax unified
 1259              		.thumb
ARM GAS  /var/folders/lp/x54gwt890xv47sdkqj1k04q40000gn/T//ccfgQDQQ.s 			page 51


 1260              		.thumb_func
 1262              	lv_indev_get_obj_act:
 1263              	.LFB183:
 285:Drivers/lvgl/src/core/lv_indev.c ****     return indev_obj_act;
 1264              		.loc 1 285 1 is_stmt 1 view -0
 1265              		.cfi_startproc
 1266              		@ args = 0, pretend = 0, frame = 0
 1267              		@ frame_needed = 0, uses_anonymous_args = 0
 1268              		@ link register save eliminated.
 286:Drivers/lvgl/src/core/lv_indev.c **** }
 1269              		.loc 1 286 5 view .LVU390
 286:Drivers/lvgl/src/core/lv_indev.c **** }
 1270              		.loc 1 286 12 is_stmt 0 view .LVU391
 1271 0000 014B     		ldr	r3, .L142
 287:Drivers/lvgl/src/core/lv_indev.c **** 
 1272              		.loc 1 287 1 view .LVU392
 1273 0002 1868     		ldr	r0, [r3]
 1274 0004 7047     		bx	lr
 1275              	.L143:
 1276 0006 00BF     		.align	2
 1277              	.L142:
 1278 0008 00000000 		.word	indev_obj_act
 1279              		.cfi_endproc
 1280              	.LFE183:
 1282              		.section	.text.lv_indev_get_read_timer,"ax",%progbits
 1283              		.align	1
 1284              		.p2align 2,,3
 1285              		.global	lv_indev_get_read_timer
 1286              		.syntax unified
 1287              		.thumb
 1288              		.thumb_func
 1290              	lv_indev_get_read_timer:
 1291              	.LVL81:
 1292              	.LFB184:
 290:Drivers/lvgl/src/core/lv_indev.c ****     if(!indev) {
 1293              		.loc 1 290 1 is_stmt 1 view -0
 1294              		.cfi_startproc
 1295              		@ args = 0, pretend = 0, frame = 0
 1296              		@ frame_needed = 0, uses_anonymous_args = 0
 1297              		@ link register save eliminated.
 291:Drivers/lvgl/src/core/lv_indev.c ****         LV_LOG_WARN("lv_indev_get_read_timer: indev was NULL");
 1298              		.loc 1 291 5 view .LVU394
 291:Drivers/lvgl/src/core/lv_indev.c ****         LV_LOG_WARN("lv_indev_get_read_timer: indev was NULL");
 1299              		.loc 1 291 7 is_stmt 0 view .LVU395
 1300 0000 00B1     		cbz	r0, .L144
 296:Drivers/lvgl/src/core/lv_indev.c **** }
 1301              		.loc 1 296 5 is_stmt 1 view .LVU396
 296:Drivers/lvgl/src/core/lv_indev.c **** }
 1302              		.loc 1 296 17 is_stmt 0 view .LVU397
 1303 0002 4068     		ldr	r0, [r0, #4]
 1304              	.LVL82:
 1305              	.L144:
 297:Drivers/lvgl/src/core/lv_indev.c **** 
 1306              		.loc 1 297 1 view .LVU398
 1307 0004 7047     		bx	lr
 1308              		.cfi_endproc
 1309              	.LFE184:
ARM GAS  /var/folders/lp/x54gwt890xv47sdkqj1k04q40000gn/T//ccfgQDQQ.s 			page 52


 1311 0006 00BF     		.section	.text.lv_indev_search_obj,"ax",%progbits
 1312              		.align	1
 1313              		.p2align 2,,3
 1314              		.global	lv_indev_search_obj
 1315              		.syntax unified
 1316              		.thumb
 1317              		.thumb_func
 1319              	lv_indev_search_obj:
 1320              	.LVL83:
 1321              	.LFB185:
 301:Drivers/lvgl/src/core/lv_indev.c ****     lv_obj_t * found_p = NULL;
 1322              		.loc 1 301 1 is_stmt 1 view -0
 1323              		.cfi_startproc
 1324              		@ args = 0, pretend = 0, frame = 8
 1325              		@ frame_needed = 0, uses_anonymous_args = 0
 302:Drivers/lvgl/src/core/lv_indev.c **** 
 1326              		.loc 1 302 5 view .LVU400
 305:Drivers/lvgl/src/core/lv_indev.c **** 
 1327              		.loc 1 305 5 view .LVU401
 301:Drivers/lvgl/src/core/lv_indev.c ****     lv_obj_t * found_p = NULL;
 1328              		.loc 1 301 1 is_stmt 0 view .LVU402
 1329 0000 70B5     		push	{r4, r5, r6, lr}
 1330              		.cfi_def_cfa_offset 16
 1331              		.cfi_offset 4, -16
 1332              		.cfi_offset 5, -12
 1333              		.cfi_offset 6, -8
 1334              		.cfi_offset 14, -4
 1335 0002 0E46     		mov	r6, r1
 1336 0004 82B0     		sub	sp, sp, #8
 1337              		.cfi_def_cfa_offset 24
 305:Drivers/lvgl/src/core/lv_indev.c **** 
 1338              		.loc 1 305 8 view .LVU403
 1339 0006 0121     		movs	r1, #1
 1340              	.LVL84:
 301:Drivers/lvgl/src/core/lv_indev.c ****     lv_obj_t * found_p = NULL;
 1341              		.loc 1 301 1 view .LVU404
 1342 0008 0446     		mov	r4, r0
 305:Drivers/lvgl/src/core/lv_indev.c **** 
 1343              		.loc 1 305 8 view .LVU405
 1344 000a FFF7FEFF 		bl	lv_obj_has_flag
 1345              	.LVL85:
 305:Drivers/lvgl/src/core/lv_indev.c **** 
 1346              		.loc 1 305 7 discriminator 1 view .LVU406
 1347 000e 0028     		cmp	r0, #0
 1348 0010 35D1     		bne	.L154
 307:Drivers/lvgl/src/core/lv_indev.c ****     lv_obj_transform_point(obj, &p_trans, false, true);
 1349              		.loc 1 307 5 is_stmt 1 view .LVU407
 1350 0012 0546     		mov	r5, r0
 307:Drivers/lvgl/src/core/lv_indev.c ****     lv_obj_transform_point(obj, &p_trans, false, true);
 1351              		.loc 1 307 16 is_stmt 0 view .LVU408
 1352 0014 3068     		ldr	r0, [r6]	@ unaligned
 1353 0016 0190     		str	r0, [sp, #4]
 308:Drivers/lvgl/src/core/lv_indev.c **** 
 1354              		.loc 1 308 5 is_stmt 1 view .LVU409
 1355 0018 2A46     		mov	r2, r5
 1356 001a 0123     		movs	r3, #1
 1357 001c 01A9     		add	r1, sp, #4
ARM GAS  /var/folders/lp/x54gwt890xv47sdkqj1k04q40000gn/T//ccfgQDQQ.s 			page 53


 1358 001e 2046     		mov	r0, r4
 1359 0020 FFF7FEFF 		bl	lv_obj_transform_point
 1360              	.LVL86:
 310:Drivers/lvgl/src/core/lv_indev.c **** 
 1361              		.loc 1 310 5 view .LVU410
 310:Drivers/lvgl/src/core/lv_indev.c **** 
 1362              		.loc 1 310 24 is_stmt 0 view .LVU411
 1363 0024 01A9     		add	r1, sp, #4
 1364 0026 2046     		mov	r0, r4
 1365 0028 FFF7FEFF 		bl	lv_obj_hit_test
 1366              	.LVL87:
 313:Drivers/lvgl/src/core/lv_indev.c ****         int32_t i;
 1367              		.loc 1 313 8 view .LVU412
 1368 002c 2A46     		mov	r2, r5
 310:Drivers/lvgl/src/core/lv_indev.c **** 
 1369              		.loc 1 310 24 view .LVU413
 1370 002e 0646     		mov	r6, r0
 1371              	.LVL88:
 313:Drivers/lvgl/src/core/lv_indev.c ****         int32_t i;
 1372              		.loc 1 313 5 is_stmt 1 view .LVU414
 313:Drivers/lvgl/src/core/lv_indev.c ****         int32_t i;
 1373              		.loc 1 313 8 is_stmt 0 view .LVU415
 1374 0030 01A9     		add	r1, sp, #4
 1375 0032 04F11400 		add	r0, r4, #20
 1376 0036 FFF7FEFF 		bl	_lv_area_is_point_on
 1377              	.LVL89:
 313:Drivers/lvgl/src/core/lv_indev.c ****         int32_t i;
 1378              		.loc 1 313 7 discriminator 1 view .LVU416
 1379 003a 98B1     		cbz	r0, .L150
 1380              	.LBB157:
 314:Drivers/lvgl/src/core/lv_indev.c ****         uint32_t child_cnt = lv_obj_get_child_cnt(obj);
 1381              		.loc 1 314 9 is_stmt 1 view .LVU417
 315:Drivers/lvgl/src/core/lv_indev.c **** 
 1382              		.loc 1 315 9 view .LVU418
 315:Drivers/lvgl/src/core/lv_indev.c **** 
 1383              		.loc 1 315 30 is_stmt 0 view .LVU419
 1384 003c 2046     		mov	r0, r4
 1385 003e FFF7FEFF 		bl	lv_obj_get_child_cnt
 1386              	.LVL90:
 318:Drivers/lvgl/src/core/lv_indev.c ****             lv_obj_t * child = obj->spec_attr->children[i];
 1387              		.loc 1 318 9 is_stmt 1 view .LVU420
 318:Drivers/lvgl/src/core/lv_indev.c ****             lv_obj_t * child = obj->spec_attr->children[i];
 1388              		.loc 1 318 34 discriminator 1 view .LVU421
 1389 0042 451E     		subs	r5, r0, #1
 1390              	.LVL91:
 318:Drivers/lvgl/src/core/lv_indev.c ****             lv_obj_t * child = obj->spec_attr->children[i];
 1391              		.loc 1 318 34 is_stmt 0 discriminator 1 view .LVU422
 1392 0044 0AD4     		bmi	.L152
 1393              	.LVL92:
 1394              	.L151:
 1395              	.LBB158:
 319:Drivers/lvgl/src/core/lv_indev.c ****             found_p = lv_indev_search_obj(child, &p_trans);
 1396              		.loc 1 319 13 is_stmt 1 view .LVU423
 320:Drivers/lvgl/src/core/lv_indev.c ****             if(found_p) return found_p;
 1397              		.loc 1 320 13 view .LVU424
 319:Drivers/lvgl/src/core/lv_indev.c ****             found_p = lv_indev_search_obj(child, &p_trans);
 1398              		.loc 1 319 46 is_stmt 0 view .LVU425
ARM GAS  /var/folders/lp/x54gwt890xv47sdkqj1k04q40000gn/T//ccfgQDQQ.s 			page 54


 1399 0046 A368     		ldr	r3, [r4, #8]
 319:Drivers/lvgl/src/core/lv_indev.c ****             found_p = lv_indev_search_obj(child, &p_trans);
 1400              		.loc 1 319 24 view .LVU426
 1401 0048 1B68     		ldr	r3, [r3]
 320:Drivers/lvgl/src/core/lv_indev.c ****             if(found_p) return found_p;
 1402              		.loc 1 320 23 view .LVU427
 1403 004a 01A9     		add	r1, sp, #4
 1404 004c 53F82500 		ldr	r0, [r3, r5, lsl #2]
 1405 0050 FFF7FEFF 		bl	lv_indev_search_obj
 1406              	.LVL93:
 320:Drivers/lvgl/src/core/lv_indev.c ****             if(found_p) return found_p;
 1407              		.loc 1 320 23 view .LVU428
 1408              	.LBE158:
 318:Drivers/lvgl/src/core/lv_indev.c ****             lv_obj_t * child = obj->spec_attr->children[i];
 1409              		.loc 1 318 41 is_stmt 1 discriminator 2 view .LVU429
 1410              	.LBB159:
 321:Drivers/lvgl/src/core/lv_indev.c ****         }
 1411              		.loc 1 321 13 view .LVU430
 1412              	.LBE159:
 318:Drivers/lvgl/src/core/lv_indev.c ****             lv_obj_t * child = obj->spec_attr->children[i];
 1413              		.loc 1 318 41 is_stmt 0 discriminator 2 view .LVU431
 1414 0054 013D     		subs	r5, r5, #1
 1415              	.LVL94:
 318:Drivers/lvgl/src/core/lv_indev.c ****             lv_obj_t * child = obj->spec_attr->children[i];
 1416              		.loc 1 318 34 is_stmt 1 discriminator 1 view .LVU432
 1417              	.LBB160:
 321:Drivers/lvgl/src/core/lv_indev.c ****         }
 1418              		.loc 1 321 15 is_stmt 0 view .LVU433
 1419 0056 18B9     		cbnz	r0, .L147
 1420              	.LBE160:
 318:Drivers/lvgl/src/core/lv_indev.c ****             lv_obj_t * child = obj->spec_attr->children[i];
 1421              		.loc 1 318 34 discriminator 1 view .LVU434
 1422 0058 6B1C     		adds	r3, r5, #1
 1423 005a F4D1     		bne	.L151
 1424              	.LVL95:
 1425              	.L152:
 318:Drivers/lvgl/src/core/lv_indev.c ****             lv_obj_t * child = obj->spec_attr->children[i];
 1426              		.loc 1 318 34 discriminator 1 view .LVU435
 1427              	.LBE157:
 327:Drivers/lvgl/src/core/lv_indev.c ****     else return NULL;
 1428              		.loc 1 327 5 is_stmt 1 view .LVU436
 327:Drivers/lvgl/src/core/lv_indev.c ****     else return NULL;
 1429              		.loc 1 327 7 is_stmt 0 view .LVU437
 1430 005c 7EB1     		cbz	r6, .L154
 327:Drivers/lvgl/src/core/lv_indev.c ****     else return NULL;
 1431              		.loc 1 327 28 discriminator 1 view .LVU438
 1432 005e 2046     		mov	r0, r4
 1433              	.L147:
 329:Drivers/lvgl/src/core/lv_indev.c **** 
 1434              		.loc 1 329 1 view .LVU439
 1435 0060 02B0     		add	sp, sp, #8
 1436              		.cfi_remember_state
 1437              		.cfi_def_cfa_offset 16
 1438              		@ sp needed
 1439 0062 70BD     		pop	{r4, r5, r6, pc}
 1440              	.LVL96:
 1441              	.L150:
ARM GAS  /var/folders/lp/x54gwt890xv47sdkqj1k04q40000gn/T//ccfgQDQQ.s 			page 55


 1442              		.cfi_restore_state
 313:Drivers/lvgl/src/core/lv_indev.c ****         int32_t i;
 1443              		.loc 1 313 59 discriminator 1 view .LVU440
 1444 0064 4FF40021 		mov	r1, #524288
 1445 0068 2046     		mov	r0, r4
 1446 006a FFF7FEFF 		bl	lv_obj_has_flag
 1447              	.LVL97:
 313:Drivers/lvgl/src/core/lv_indev.c ****         int32_t i;
 1448              		.loc 1 313 56 discriminator 1 view .LVU441
 1449 006e 0028     		cmp	r0, #0
 1450 0070 F4D0     		beq	.L152
 1451              	.LBB161:
 314:Drivers/lvgl/src/core/lv_indev.c ****         uint32_t child_cnt = lv_obj_get_child_cnt(obj);
 1452              		.loc 1 314 9 is_stmt 1 view .LVU442
 315:Drivers/lvgl/src/core/lv_indev.c **** 
 1453              		.loc 1 315 9 view .LVU443
 315:Drivers/lvgl/src/core/lv_indev.c **** 
 1454              		.loc 1 315 30 is_stmt 0 view .LVU444
 1455 0072 2046     		mov	r0, r4
 1456 0074 FFF7FEFF 		bl	lv_obj_get_child_cnt
 1457              	.LVL98:
 318:Drivers/lvgl/src/core/lv_indev.c ****             lv_obj_t * child = obj->spec_attr->children[i];
 1458              		.loc 1 318 9 is_stmt 1 view .LVU445
 318:Drivers/lvgl/src/core/lv_indev.c ****             lv_obj_t * child = obj->spec_attr->children[i];
 1459              		.loc 1 318 34 discriminator 1 view .LVU446
 1460 0078 451E     		subs	r5, r0, #1
 1461              	.LVL99:
 318:Drivers/lvgl/src/core/lv_indev.c ****             lv_obj_t * child = obj->spec_attr->children[i];
 1462              		.loc 1 318 34 is_stmt 0 discriminator 1 view .LVU447
 1463 007a E4D5     		bpl	.L151
 1464 007c EEE7     		b	.L152
 1465              	.LVL100:
 1466              	.L154:
 318:Drivers/lvgl/src/core/lv_indev.c ****             lv_obj_t * child = obj->spec_attr->children[i];
 1467              		.loc 1 318 34 discriminator 1 view .LVU448
 1468              	.LBE161:
 305:Drivers/lvgl/src/core/lv_indev.c **** 
 1469              		.loc 1 305 57 discriminator 1 view .LVU449
 1470 007e 0020     		movs	r0, #0
 329:Drivers/lvgl/src/core/lv_indev.c **** 
 1471              		.loc 1 329 1 view .LVU450
 1472 0080 02B0     		add	sp, sp, #8
 1473              		.cfi_def_cfa_offset 16
 1474              		@ sp needed
 1475 0082 70BD     		pop	{r4, r5, r6, pc}
 329:Drivers/lvgl/src/core/lv_indev.c **** 
 1476              		.loc 1 329 1 view .LVU451
 1477              		.cfi_endproc
 1478              	.LFE185:
 1480              		.section	.text.indev_proc_press,"ax",%progbits
 1481              		.align	1
 1482              		.p2align 2,,3
 1483              		.syntax unified
 1484              		.thumb
 1485              		.thumb_func
 1487              	indev_proc_press:
 1488              	.LVL101:
ARM GAS  /var/folders/lp/x54gwt890xv47sdkqj1k04q40000gn/T//ccfgQDQQ.s 			page 56


 1489              	.LFB190:
 818:Drivers/lvgl/src/core/lv_indev.c ****     LV_LOG_INFO("pressed at x:%d y:%d", proc->types.pointer.act_point.x, proc->types.pointer.act_po
 1490              		.loc 1 818 1 is_stmt 1 view -0
 1491              		.cfi_startproc
 1492              		@ args = 0, pretend = 0, frame = 0
 1493              		@ frame_needed = 0, uses_anonymous_args = 0
 819:Drivers/lvgl/src/core/lv_indev.c ****     indev_obj_act = proc->types.pointer.act_obj;
 1494              		.loc 1 819 5 view .LVU453
 819:Drivers/lvgl/src/core/lv_indev.c ****     indev_obj_act = proc->types.pointer.act_obj;
 1495              		.loc 1 819 5 view .LVU454
 819:Drivers/lvgl/src/core/lv_indev.c ****     indev_obj_act = proc->types.pointer.act_obj;
 1496              		.loc 1 819 5 view .LVU455
 820:Drivers/lvgl/src/core/lv_indev.c **** 
 1497              		.loc 1 820 5 view .LVU456
 822:Drivers/lvgl/src/core/lv_indev.c **** 
 1498              		.loc 1 822 33 is_stmt 0 view .LVU457
 1499 0000 4378     		ldrb	r3, [r0, #1]	@ zero_extendqisi2
 818:Drivers/lvgl/src/core/lv_indev.c ****     LV_LOG_INFO("pressed at x:%d y:%d", proc->types.pointer.act_point.x, proc->types.pointer.act_po
 1500              		.loc 1 818 1 view .LVU458
 1501 0002 2DE9F047 		push	{r4, r5, r6, r7, r8, r9, r10, lr}
 1502              		.cfi_def_cfa_offset 32
 1503              		.cfi_offset 4, -32
 1504              		.cfi_offset 5, -28
 1505              		.cfi_offset 6, -24
 1506              		.cfi_offset 7, -20
 1507              		.cfi_offset 8, -16
 1508              		.cfi_offset 9, -12
 1509              		.cfi_offset 10, -8
 1510              		.cfi_offset 14, -4
 820:Drivers/lvgl/src/core/lv_indev.c **** 
 1511              		.loc 1 820 19 view .LVU459
 1512 0006 734D     		ldr	r5, .L324
 818:Drivers/lvgl/src/core/lv_indev.c ****     LV_LOG_INFO("pressed at x:%d y:%d", proc->types.pointer.act_point.x, proc->types.pointer.act_po
 1513              		.loc 1 818 1 view .LVU460
 1514 0008 0446     		mov	r4, r0
 822:Drivers/lvgl/src/core/lv_indev.c **** 
 1515              		.loc 1 822 7 view .LVU461
 1516 000a 1E07     		lsls	r6, r3, #28
 820:Drivers/lvgl/src/core/lv_indev.c **** 
 1517              		.loc 1 820 40 view .LVU462
 1518 000c 406A     		ldr	r0, [r0, #36]
 1519              	.LVL102:
 820:Drivers/lvgl/src/core/lv_indev.c **** 
 1520              		.loc 1 820 19 view .LVU463
 1521 000e 2860     		str	r0, [r5]
 822:Drivers/lvgl/src/core/lv_indev.c **** 
 1522              		.loc 1 822 5 is_stmt 1 view .LVU464
 822:Drivers/lvgl/src/core/lv_indev.c **** 
 1523              		.loc 1 822 7 is_stmt 0 view .LVU465
 1524 0010 3BD4     		bmi	.L162
 824:Drivers/lvgl/src/core/lv_indev.c ****     bool new_obj_searched = false;
 1525              		.loc 1 824 5 is_stmt 1 view .LVU466
 824:Drivers/lvgl/src/core/lv_indev.c ****     bool new_obj_searched = false;
 1526              		.loc 1 824 33 is_stmt 0 view .LVU467
 1527 0012 714E     		ldr	r6, .L324+4
 1528 0014 3368     		ldr	r3, [r6]
 824:Drivers/lvgl/src/core/lv_indev.c ****     bool new_obj_searched = false;
ARM GAS  /var/folders/lp/x54gwt890xv47sdkqj1k04q40000gn/T//ccfgQDQQ.s 			page 57


 1529              		.loc 1 824 17 view .LVU468
 1530 0016 1B68     		ldr	r3, [r3]
 1531 0018 1F69     		ldr	r7, [r3, #16]
 1532              	.LVL103:
 825:Drivers/lvgl/src/core/lv_indev.c **** 
 1533              		.loc 1 825 5 is_stmt 1 view .LVU469
 828:Drivers/lvgl/src/core/lv_indev.c ****         indev_obj_act = lv_indev_search_obj(lv_disp_get_layer_sys(disp), &proc->types.pointer.act_p
 1534              		.loc 1 828 5 view .LVU470
 828:Drivers/lvgl/src/core/lv_indev.c ****         indev_obj_act = lv_indev_search_obj(lv_disp_get_layer_sys(disp), &proc->types.pointer.act_p
 1535              		.loc 1 828 7 is_stmt 0 view .LVU471
 1536 001a 0028     		cmp	r0, #0
 1537 001c 00F05181 		beq	.L170
 837:Drivers/lvgl/src/core/lv_indev.c ****             lv_obj_has_flag(indev_obj_act, LV_OBJ_FLAG_PRESS_LOCK) == false) {
 1538              		.loc 1 837 10 is_stmt 1 view .LVU472
 837:Drivers/lvgl/src/core/lv_indev.c ****             lv_obj_has_flag(indev_obj_act, LV_OBJ_FLAG_PRESS_LOCK) == false) {
 1539              		.loc 1 837 12 is_stmt 0 view .LVU473
 1540 0020 E36A     		ldr	r3, [r4, #44]
 1541 0022 002B     		cmp	r3, #0
 1542 0024 38D0     		beq	.L316
 1543              	.LVL104:
 1544              	.L169:
 900:Drivers/lvgl/src/core/lv_indev.c ****     proc->types.pointer.vect.y = proc->types.pointer.act_point.y - proc->types.pointer.last_point.y
 1545              		.loc 1 900 5 is_stmt 1 view .LVU474
 900:Drivers/lvgl/src/core/lv_indev.c ****     proc->types.pointer.vect.y = proc->types.pointer.act_point.y - proc->types.pointer.last_point.y
 1546              		.loc 1 900 66 is_stmt 0 view .LVU475
 1547 0026 A389     		ldrh	r3, [r4, #12]
 1548 0028 A188     		ldrh	r1, [r4, #4]
 901:Drivers/lvgl/src/core/lv_indev.c **** 
 1549              		.loc 1 901 66 view .LVU476
 1550 002a E288     		ldrh	r2, [r4, #6]
 900:Drivers/lvgl/src/core/lv_indev.c ****     proc->types.pointer.vect.y = proc->types.pointer.act_point.y - proc->types.pointer.last_point.y
 1551              		.loc 1 900 66 view .LVU477
 1552 002c C91A     		subs	r1, r1, r3
 901:Drivers/lvgl/src/core/lv_indev.c **** 
 1553              		.loc 1 901 66 view .LVU478
 1554 002e E389     		ldrh	r3, [r4, #14]
 1555 0030 D21A     		subs	r2, r2, r3
 903:Drivers/lvgl/src/core/lv_indev.c ****     proc->types.pointer.scroll_throw_vect.y = (proc->types.pointer.scroll_throw_vect.y + proc->type
 1556              		.loc 1 903 85 view .LVU479
 1557 0032 B4F91C30 		ldrsh	r3, [r4, #28]
 900:Drivers/lvgl/src/core/lv_indev.c ****     proc->types.pointer.vect.y = proc->types.pointer.act_point.y - proc->types.pointer.last_point.y
 1558              		.loc 1 900 66 view .LVU480
 1559 0036 09B2     		sxth	r1, r1
 903:Drivers/lvgl/src/core/lv_indev.c ****     proc->types.pointer.scroll_throw_vect.y = (proc->types.pointer.scroll_throw_vect.y + proc->type
 1560              		.loc 1 903 88 view .LVU481
 1561 0038 0B44     		add	r3, r3, r1
 903:Drivers/lvgl/src/core/lv_indev.c ****     proc->types.pointer.scroll_throw_vect.y = (proc->types.pointer.scroll_throw_vect.y + proc->type
 1562              		.loc 1 903 118 view .LVU482
 1563 003a 03EBD373 		add	r3, r3, r3, lsr #31
 1564 003e 5B10     		asrs	r3, r3, #1
 903:Drivers/lvgl/src/core/lv_indev.c ****     proc->types.pointer.scroll_throw_vect.y = (proc->types.pointer.scroll_throw_vect.y + proc->type
 1565              		.loc 1 903 45 view .LVU483
 1566 0040 A383     		strh	r3, [r4, #28]	@ movhi
 904:Drivers/lvgl/src/core/lv_indev.c **** 
 1567              		.loc 1 904 85 view .LVU484
 1568 0042 B4F91E30 		ldrsh	r3, [r4, #30]
 900:Drivers/lvgl/src/core/lv_indev.c ****     proc->types.pointer.vect.y = proc->types.pointer.act_point.y - proc->types.pointer.last_point.y
ARM GAS  /var/folders/lp/x54gwt890xv47sdkqj1k04q40000gn/T//ccfgQDQQ.s 			page 58


 1569              		.loc 1 900 32 view .LVU485
 1570 0046 A182     		strh	r1, [r4, #20]	@ movhi
 901:Drivers/lvgl/src/core/lv_indev.c **** 
 1571              		.loc 1 901 5 is_stmt 1 view .LVU486
 901:Drivers/lvgl/src/core/lv_indev.c **** 
 1572              		.loc 1 901 66 is_stmt 0 view .LVU487
 1573 0048 12B2     		sxth	r2, r2
 904:Drivers/lvgl/src/core/lv_indev.c **** 
 1574              		.loc 1 904 88 view .LVU488
 1575 004a 1344     		add	r3, r3, r2
 904:Drivers/lvgl/src/core/lv_indev.c **** 
 1576              		.loc 1 904 118 view .LVU489
 1577 004c 03EBD373 		add	r3, r3, r3, lsr #31
 1578 0050 5B10     		asrs	r3, r3, #1
 904:Drivers/lvgl/src/core/lv_indev.c **** 
 1579              		.loc 1 904 45 view .LVU490
 1580 0052 E383     		strh	r3, [r4, #30]	@ movhi
 906:Drivers/lvgl/src/core/lv_indev.c **** 
 1581              		.loc 1 906 47 view .LVU491
 1582 0054 E369     		ldr	r3, [r4, #28]
 901:Drivers/lvgl/src/core/lv_indev.c **** 
 1583              		.loc 1 901 32 view .LVU492
 1584 0056 E282     		strh	r2, [r4, #22]	@ movhi
 903:Drivers/lvgl/src/core/lv_indev.c ****     proc->types.pointer.scroll_throw_vect.y = (proc->types.pointer.scroll_throw_vect.y + proc->type
 1585              		.loc 1 903 5 is_stmt 1 view .LVU493
 904:Drivers/lvgl/src/core/lv_indev.c **** 
 1586              		.loc 1 904 5 view .LVU494
 906:Drivers/lvgl/src/core/lv_indev.c **** 
 1587              		.loc 1 906 5 view .LVU495
 906:Drivers/lvgl/src/core/lv_indev.c **** 
 1588              		.loc 1 906 47 is_stmt 0 view .LVU496
 1589 0058 2362     		str	r3, [r4, #32]
 908:Drivers/lvgl/src/core/lv_indev.c ****         lv_event_send(indev_obj_act, LV_EVENT_PRESSING, indev_act);
 1590              		.loc 1 908 5 is_stmt 1 view .LVU497
 908:Drivers/lvgl/src/core/lv_indev.c ****         lv_event_send(indev_obj_act, LV_EVENT_PRESSING, indev_act);
 1591              		.loc 1 908 7 is_stmt 0 view .LVU498
 1592 005a B0B1     		cbz	r0, .L162
 909:Drivers/lvgl/src/core/lv_indev.c ****         if(indev_reset_check(proc)) return;
 1593              		.loc 1 909 9 is_stmt 1 view .LVU499
 1594 005c 3268     		ldr	r2, [r6]
 1595 005e 0221     		movs	r1, #2
 1596 0060 FFF7FEFF 		bl	lv_event_send
 1597              	.LVL105:
 910:Drivers/lvgl/src/core/lv_indev.c **** 
 1598              		.loc 1 910 9 view .LVU500
 1599              	.LBB203:
 1600              	.LBI203:
1173:Drivers/lvgl/src/core/lv_indev.c **** {
 1601              		.loc 1 1173 13 view .LVU501
 1602              	.LBB204:
1175:Drivers/lvgl/src/core/lv_indev.c ****         indev_obj_act = NULL;
 1603              		.loc 1 1175 5 view .LVU502
1175:Drivers/lvgl/src/core/lv_indev.c ****         indev_obj_act = NULL;
 1604              		.loc 1 1175 8 is_stmt 0 view .LVU503
 1605 0064 6378     		ldrb	r3, [r4, #1]	@ zero_extendqisi2
1175:Drivers/lvgl/src/core/lv_indev.c ****         indev_obj_act = NULL;
 1606              		.loc 1 1175 7 view .LVU504
ARM GAS  /var/folders/lp/x54gwt890xv47sdkqj1k04q40000gn/T//ccfgQDQQ.s 			page 59


 1607 0066 13F0020F 		tst	r3, #2
 1608 006a 10D1     		bne	.L317
 1609              	.LVL106:
 1610              	.L300:
1175:Drivers/lvgl/src/core/lv_indev.c ****         indev_obj_act = NULL;
 1611              		.loc 1 1175 7 view .LVU505
 1612              	.LBE204:
 1613              	.LBE203:
 912:Drivers/lvgl/src/core/lv_indev.c **** 
 1614              		.loc 1 912 9 is_stmt 1 view .LVU506
 912:Drivers/lvgl/src/core/lv_indev.c **** 
 1615              		.loc 1 912 12 is_stmt 0 view .LVU507
 1616 006c 3368     		ldr	r3, [r6]
 1617 006e 5B79     		ldrb	r3, [r3, #5]	@ zero_extendqisi2
 912:Drivers/lvgl/src/core/lv_indev.c **** 
 1618              		.loc 1 912 11 view .LVU508
 1619 0070 13F00807 		ands	r7, r3, #8
 1620 0074 09D1     		bne	.L162
 914:Drivers/lvgl/src/core/lv_indev.c ****         if(indev_reset_check(proc)) return;
 1621              		.loc 1 914 9 is_stmt 1 view .LVU509
 1622 0076 2046     		mov	r0, r4
 1623 0078 FFF7FEFF 		bl	_lv_indev_scroll_handler
 1624              	.LVL107:
 915:Drivers/lvgl/src/core/lv_indev.c ****         indev_gesture(proc);
 1625              		.loc 1 915 9 view .LVU510
 1626              	.LBB206:
 1627              	.LBI206:
1173:Drivers/lvgl/src/core/lv_indev.c **** {
 1628              		.loc 1 1173 13 view .LVU511
 1629              	.LBB207:
1175:Drivers/lvgl/src/core/lv_indev.c ****         indev_obj_act = NULL;
 1630              		.loc 1 1175 5 view .LVU512
1175:Drivers/lvgl/src/core/lv_indev.c ****         indev_obj_act = NULL;
 1631              		.loc 1 1175 8 is_stmt 0 view .LVU513
 1632 007c 6278     		ldrb	r2, [r4, #1]	@ zero_extendqisi2
1175:Drivers/lvgl/src/core/lv_indev.c ****         indev_obj_act = NULL;
 1633              		.loc 1 1175 7 view .LVU514
 1634 007e 12F00201 		ands	r1, r2, #2
 1635 0082 2DD0     		beq	.L311
1176:Drivers/lvgl/src/core/lv_indev.c ****     }
 1636              		.loc 1 1176 9 is_stmt 1 view .LVU515
 1637              	.LBE207:
 1638              	.LBE206:
 915:Drivers/lvgl/src/core/lv_indev.c ****         indev_gesture(proc);
 1639              		.loc 1 915 11 is_stmt 0 discriminator 1 view .LVU516
 1640 0084 9307     		lsls	r3, r2, #30
 1641              	.LBB209:
 1642              	.LBB208:
1176:Drivers/lvgl/src/core/lv_indev.c ****     }
 1643              		.loc 1 1176 23 view .LVU517
 1644 0086 2F60     		str	r7, [r5]
 1645              		.loc 1 1179 5 is_stmt 1 view .LVU518
 1646              	.LVL108:
 1647              		.loc 1 1179 5 is_stmt 0 view .LVU519
 1648              	.LBE208:
 1649              	.LBE209:
 915:Drivers/lvgl/src/core/lv_indev.c ****         indev_gesture(proc);
ARM GAS  /var/folders/lp/x54gwt890xv47sdkqj1k04q40000gn/T//ccfgQDQQ.s 			page 60


 1650              		.loc 1 915 11 discriminator 1 view .LVU520
 1651 0088 2AD5     		bpl	.L311
 1652              	.LVL109:
 1653              	.L162:
 944:Drivers/lvgl/src/core/lv_indev.c **** 
 1654              		.loc 1 944 1 view .LVU521
 1655 008a BDE8F087 		pop	{r4, r5, r6, r7, r8, r9, r10, pc}
 1656              	.LVL110:
 1657              	.L317:
 1658              	.LBB210:
 1659              	.LBB205:
1176:Drivers/lvgl/src/core/lv_indev.c ****     }
 1660              		.loc 1 1176 9 is_stmt 1 view .LVU522
1176:Drivers/lvgl/src/core/lv_indev.c ****     }
 1661              		.loc 1 1176 23 is_stmt 0 view .LVU523
 1662 008e 4FF00002 		mov	r2, #0
 1663 0092 2A60     		str	r2, [r5]
 1664              		.loc 1 1179 5 is_stmt 1 view .LVU524
 1665              	.LVL111:
 1666              		.loc 1 1179 5 is_stmt 0 view .LVU525
 1667              	.LBE205:
 1668              	.LBE210:
 910:Drivers/lvgl/src/core/lv_indev.c **** 
 1669              		.loc 1 910 11 discriminator 1 view .LVU526
 1670 0094 F9D1     		bne	.L162
 1671 0096 E9E7     		b	.L300
 1672              	.LVL112:
 1673              	.L316:
 838:Drivers/lvgl/src/core/lv_indev.c ****         indev_obj_act = lv_indev_search_obj(lv_disp_get_layer_sys(disp), &proc->types.pointer.act_p
 1674              		.loc 1 838 13 view .LVU527
 1675 0098 4FF40051 		mov	r1, #8192
 1676 009c FFF7FEFF 		bl	lv_obj_has_flag
 1677              	.LVL113:
 837:Drivers/lvgl/src/core/lv_indev.c ****             lv_obj_has_flag(indev_obj_act, LV_OBJ_FLAG_PRESS_LOCK) == false) {
 1678              		.loc 1 837 52 discriminator 1 view .LVU528
 1679 00a0 0028     		cmp	r0, #0
 1680 00a2 00F00E81 		beq	.L170
 1681              	.LVL114:
 1682              	.L172:
 856:Drivers/lvgl/src/core/lv_indev.c ****         proc->types.pointer.last_point.x = proc->types.pointer.act_point.x;
 1683              		.loc 1 856 5 is_stmt 1 view .LVU529
 856:Drivers/lvgl/src/core/lv_indev.c ****         proc->types.pointer.last_point.x = proc->types.pointer.act_point.x;
 1684              		.loc 1 856 44 is_stmt 0 view .LVU530
 1685 00a6 636A     		ldr	r3, [r4, #36]
 856:Drivers/lvgl/src/core/lv_indev.c ****         proc->types.pointer.last_point.x = proc->types.pointer.act_point.x;
 1686              		.loc 1 856 22 view .LVU531
 1687 00a8 2868     		ldr	r0, [r5]
 857:Drivers/lvgl/src/core/lv_indev.c ****         proc->types.pointer.last_point.y = proc->types.pointer.act_point.y;
 1688              		.loc 1 857 73 view .LVU532
 1689 00aa 6268     		ldr	r2, [r4, #4]
 856:Drivers/lvgl/src/core/lv_indev.c ****         proc->types.pointer.last_point.x = proc->types.pointer.act_point.x;
 1690              		.loc 1 856 7 view .LVU533
 1691 00ac 8342     		cmp	r3, r0
 1692 00ae BAD0     		beq	.L169
 857:Drivers/lvgl/src/core/lv_indev.c ****         proc->types.pointer.last_point.y = proc->types.pointer.act_point.y;
 1693              		.loc 1 857 9 is_stmt 1 view .LVU534
 858:Drivers/lvgl/src/core/lv_indev.c **** 
ARM GAS  /var/folders/lp/x54gwt890xv47sdkqj1k04q40000gn/T//ccfgQDQQ.s 			page 61


 1694              		.loc 1 858 9 view .LVU535
 857:Drivers/lvgl/src/core/lv_indev.c ****         proc->types.pointer.last_point.y = proc->types.pointer.act_point.y;
 1695              		.loc 1 857 42 is_stmt 0 view .LVU536
 1696 00b0 E260     		str	r2, [r4, #12]
 861:Drivers/lvgl/src/core/lv_indev.c ****             /*Save the obj because in special cases `act_obj` can change in the Call the ancestor's
 1697              		.loc 1 861 9 is_stmt 1 view .LVU537
 861:Drivers/lvgl/src/core/lv_indev.c ****             /*Save the obj because in special cases `act_obj` can change in the Call the ancestor's
 1698              		.loc 1 861 11 is_stmt 0 view .LVU538
 1699 00b2 002B     		cmp	r3, #0
 1700 00b4 00F09380 		beq	.L175
 1701              	.LBB211:
 863:Drivers/lvgl/src/core/lv_indev.c **** 
 1702              		.loc 1 863 13 is_stmt 1 view .LVU539
 1703              	.LVL115:
 865:Drivers/lvgl/src/core/lv_indev.c ****             if(indev_reset_check(proc)) return;
 1704              		.loc 1 865 13 view .LVU540
 1705 00b8 1846     		mov	r0, r3
 1706 00ba 3268     		ldr	r2, [r6]
 1707 00bc 0321     		movs	r1, #3
 1708 00be FFF7FEFF 		bl	lv_event_send
 1709              	.LVL116:
 866:Drivers/lvgl/src/core/lv_indev.c ****         }
 1710              		.loc 1 866 13 view .LVU541
 1711              	.LBB212:
 1712              	.LBI212:
1173:Drivers/lvgl/src/core/lv_indev.c **** {
 1713              		.loc 1 1173 13 view .LVU542
 1714              	.LBB213:
1175:Drivers/lvgl/src/core/lv_indev.c ****         indev_obj_act = NULL;
 1715              		.loc 1 1175 5 view .LVU543
1175:Drivers/lvgl/src/core/lv_indev.c ****         indev_obj_act = NULL;
 1716              		.loc 1 1175 8 is_stmt 0 view .LVU544
 1717 00c2 6378     		ldrb	r3, [r4, #1]	@ zero_extendqisi2
1175:Drivers/lvgl/src/core/lv_indev.c ****         indev_obj_act = NULL;
 1718              		.loc 1 1175 7 view .LVU545
 1719 00c4 13F0020F 		tst	r3, #2
 1720 00c8 00F08880 		beq	.L176
1176:Drivers/lvgl/src/core/lv_indev.c ****     }
 1721              		.loc 1 1176 9 is_stmt 1 view .LVU546
1176:Drivers/lvgl/src/core/lv_indev.c ****     }
 1722              		.loc 1 1176 23 is_stmt 0 view .LVU547
 1723 00cc 4FF00002 		mov	r2, #0
 1724 00d0 2A60     		str	r2, [r5]
 1725              		.loc 1 1179 5 is_stmt 1 view .LVU548
 1726              	.LVL117:
 1727              		.loc 1 1179 5 is_stmt 0 view .LVU549
 1728              	.LBE213:
 1729              	.LBE212:
 866:Drivers/lvgl/src/core/lv_indev.c ****         }
 1730              		.loc 1 866 15 discriminator 1 view .LVU550
 1731 00d2 C3F34002 		ubfx	r2, r3, #1, #1
 1732 00d6 D8D1     		bne	.L162
 1733              	.LBE211:
 869:Drivers/lvgl/src/core/lv_indev.c ****         proc->types.pointer.last_obj = indev_obj_act;
 1734              		.loc 1 869 9 is_stmt 1 view .LVU551
 870:Drivers/lvgl/src/core/lv_indev.c **** 
 1735              		.loc 1 870 38 is_stmt 0 view .LVU552
ARM GAS  /var/folders/lp/x54gwt890xv47sdkqj1k04q40000gn/T//ccfgQDQQ.s 			page 62


 1736 00d8 C4E90922 		strd	r2, r2, [r4, #36]
 872:Drivers/lvgl/src/core/lv_indev.c ****             /*Save the time when the obj pressed to count long press time.*/
 1737              		.loc 1 872 9 is_stmt 1 view .LVU553
 1738              	.LVL118:
 1739              	.L227:
 818:Drivers/lvgl/src/core/lv_indev.c ****     LV_LOG_INFO("pressed at x:%d y:%d", proc->types.pointer.act_point.x, proc->types.pointer.act_po
 1740              		.loc 1 818 1 is_stmt 0 view .LVU554
 1741 00dc 0020     		movs	r0, #0
 1742 00de A2E7     		b	.L169
 1743              	.L311:
 916:Drivers/lvgl/src/core/lv_indev.c ****         if(indev_reset_check(proc)) return;
 1744              		.loc 1 916 9 is_stmt 1 view .LVU555
 1745              	.LVL119:
 1746              	.LBB216:
 1747              	.LBI216:
1120:Drivers/lvgl/src/core/lv_indev.c **** {
 1748              		.loc 1 1120 6 view .LVU556
 1749              	.LBB217:
1123:Drivers/lvgl/src/core/lv_indev.c ****     if(proc->types.pointer.gesture_sent) return;
 1750              		.loc 1 1123 5 view .LVU557
1123:Drivers/lvgl/src/core/lv_indev.c ****     if(proc->types.pointer.gesture_sent) return;
 1751              		.loc 1 1123 7 is_stmt 0 view .LVU558
 1752 00e0 E36A     		ldr	r3, [r4, #44]
 1753 00e2 002B     		cmp	r3, #0
 1754 00e4 D1D1     		bne	.L162
1124:Drivers/lvgl/src/core/lv_indev.c **** 
 1755              		.loc 1 1124 5 is_stmt 1 view .LVU559
1124:Drivers/lvgl/src/core/lv_indev.c **** 
 1756              		.loc 1 1124 8 is_stmt 0 view .LVU560
 1757 00e6 94F84130 		ldrb	r3, [r4, #65]	@ zero_extendqisi2
1124:Drivers/lvgl/src/core/lv_indev.c **** 
 1758              		.loc 1 1124 7 view .LVU561
 1759 00ea DF07     		lsls	r7, r3, #31
 1760 00ec 00F14181 		bmi	.L207
1126:Drivers/lvgl/src/core/lv_indev.c **** 
 1761              		.loc 1 1126 5 is_stmt 1 view .LVU562
1126:Drivers/lvgl/src/core/lv_indev.c **** 
 1762              		.loc 1 1126 16 is_stmt 0 view .LVU563
 1763 00f0 676A     		ldr	r7, [r4, #36]
 1764              	.LVL120:
1129:Drivers/lvgl/src/core/lv_indev.c ****         gesture_obj = lv_obj_get_parent(gesture_obj);
 1765              		.loc 1 1129 5 is_stmt 1 view .LVU564
1129:Drivers/lvgl/src/core/lv_indev.c ****         gesture_obj = lv_obj_get_parent(gesture_obj);
 1766              		.loc 1 1129 23 view .LVU565
 1767 00f2 2FB9     		cbnz	r7, .L208
 1768 00f4 3DE1     		b	.L207
 1769              	.LVL121:
 1770              	.L210:
1130:Drivers/lvgl/src/core/lv_indev.c ****     }
 1771              		.loc 1 1130 23 is_stmt 0 view .LVU566
 1772 00f6 FFF7FEFF 		bl	lv_obj_get_parent
 1773              	.LVL122:
1129:Drivers/lvgl/src/core/lv_indev.c ****         gesture_obj = lv_obj_get_parent(gesture_obj);
 1774              		.loc 1 1129 23 is_stmt 1 view .LVU567
 1775 00fa 0746     		mov	r7, r0
 1776 00fc 0028     		cmp	r0, #0
 1777 00fe 3AD0     		beq	.L209
ARM GAS  /var/folders/lp/x54gwt890xv47sdkqj1k04q40000gn/T//ccfgQDQQ.s 			page 63


 1778              	.LVL123:
 1779              	.L208:
1129:Drivers/lvgl/src/core/lv_indev.c ****         gesture_obj = lv_obj_get_parent(gesture_obj);
 1780              		.loc 1 1129 26 is_stmt 0 discriminator 1 view .LVU568
 1781 0100 4FF40041 		mov	r1, #32768
 1782 0104 3846     		mov	r0, r7
 1783 0106 FFF7FEFF 		bl	lv_obj_has_flag
 1784              	.LVL124:
1130:Drivers/lvgl/src/core/lv_indev.c ****     }
 1785              		.loc 1 1130 9 is_stmt 1 view .LVU569
1129:Drivers/lvgl/src/core/lv_indev.c ****         gesture_obj = lv_obj_get_parent(gesture_obj);
 1786              		.loc 1 1129 23 is_stmt 0 discriminator 1 view .LVU570
 1787 010a 0346     		mov	r3, r0
1130:Drivers/lvgl/src/core/lv_indev.c ****     }
 1788              		.loc 1 1130 23 view .LVU571
 1789 010c 3846     		mov	r0, r7
1129:Drivers/lvgl/src/core/lv_indev.c ****         gesture_obj = lv_obj_get_parent(gesture_obj);
 1790              		.loc 1 1129 23 discriminator 1 view .LVU572
 1791 010e 002B     		cmp	r3, #0
 1792 0110 F1D1     		bne	.L210
 1793              	.LVL125:
1133:Drivers/lvgl/src/core/lv_indev.c **** 
 1794              		.loc 1 1133 5 is_stmt 1 view .LVU573
1135:Drivers/lvgl/src/core/lv_indev.c ****        (LV_ABS(proc->types.pointer.vect.y) < indev_act->driver->gesture_min_velocity)) {
 1795              		.loc 1 1135 5 view .LVU574
1135:Drivers/lvgl/src/core/lv_indev.c ****        (LV_ABS(proc->types.pointer.vect.y) < indev_act->driver->gesture_min_velocity)) {
 1796              		.loc 1 1135 55 is_stmt 0 view .LVU575
 1797 0112 3268     		ldr	r2, [r6]
1135:Drivers/lvgl/src/core/lv_indev.c ****        (LV_ABS(proc->types.pointer.vect.y) < indev_act->driver->gesture_min_velocity)) {
 1798              		.loc 1 1135 9 view .LVU576
 1799 0114 B4F914C0 		ldrsh	ip, [r4, #20]
1135:Drivers/lvgl/src/core/lv_indev.c ****        (LV_ABS(proc->types.pointer.vect.y) < indev_act->driver->gesture_min_velocity)) {
 1800              		.loc 1 1135 55 view .LVU577
 1801 0118 1068     		ldr	r0, [r2]
 1802              	.LVL126:
1136:Drivers/lvgl/src/core/lv_indev.c ****         proc->types.pointer.gesture_sum.x = 0;
 1803              		.loc 1 1136 9 view .LVU578
 1804 011a B4F916E0 		ldrsh	lr, [r4, #22]
1135:Drivers/lvgl/src/core/lv_indev.c ****        (LV_ABS(proc->types.pointer.vect.y) < indev_act->driver->gesture_min_velocity)) {
 1805              		.loc 1 1135 44 view .LVU579
 1806 011e 90F81A80 		ldrb	r8, [r0, #26]	@ zero_extendqisi2
1135:Drivers/lvgl/src/core/lv_indev.c ****        (LV_ABS(proc->types.pointer.vect.y) < indev_act->driver->gesture_min_velocity)) {
 1807              		.loc 1 1135 9 view .LVU580
 1808 0122 8CEAEC71 		eor	r1, ip, ip, asr #31
 1809 0126 A1EBEC71 		sub	r1, r1, ip, asr #31
1135:Drivers/lvgl/src/core/lv_indev.c ****        (LV_ABS(proc->types.pointer.vect.y) < indev_act->driver->gesture_min_velocity)) {
 1810              		.loc 1 1135 7 view .LVU581
 1811 012a 89B2     		uxth	r1, r1
 1812 012c 4145     		cmp	r1, r8
 1813 012e 80F01D81 		bcs	.L213
1136:Drivers/lvgl/src/core/lv_indev.c ****         proc->types.pointer.gesture_sum.x = 0;
 1814              		.loc 1 1136 9 view .LVU582
 1815 0132 8EEAEE71 		eor	r1, lr, lr, asr #31
 1816 0136 A1EBEE71 		sub	r1, r1, lr, asr #31
1135:Drivers/lvgl/src/core/lv_indev.c ****        (LV_ABS(proc->types.pointer.vect.y) < indev_act->driver->gesture_min_velocity)) {
 1817              		.loc 1 1135 87 discriminator 1 view .LVU583
 1818 013a 89B2     		uxth	r1, r1
ARM GAS  /var/folders/lp/x54gwt890xv47sdkqj1k04q40000gn/T//ccfgQDQQ.s 			page 64


 1819 013c 8845     		cmp	r8, r1
 1820 013e 40F21581 		bls	.L213
 1821 0142 1946     		mov	r1, r3
 1822              	.L212:
1142:Drivers/lvgl/src/core/lv_indev.c ****     proc->types.pointer.gesture_sum.y += proc->types.pointer.vect.y;
 1823              		.loc 1 1142 5 is_stmt 1 view .LVU584
1142:Drivers/lvgl/src/core/lv_indev.c ****     proc->types.pointer.gesture_sum.y += proc->types.pointer.vect.y;
 1824              		.loc 1 1142 39 is_stmt 0 view .LVU585
 1825 0144 6144     		add	r1, r1, ip
1143:Drivers/lvgl/src/core/lv_indev.c **** 
 1826              		.loc 1 1143 39 view .LVU586
 1827 0146 7344     		add	r3, r3, lr
1142:Drivers/lvgl/src/core/lv_indev.c ****     proc->types.pointer.gesture_sum.y += proc->types.pointer.vect.y;
 1828              		.loc 1 1142 39 view .LVU587
 1829 0148 09B2     		sxth	r1, r1
1143:Drivers/lvgl/src/core/lv_indev.c **** 
 1830              		.loc 1 1143 39 view .LVU588
 1831 014a 1BB2     		sxth	r3, r3
1142:Drivers/lvgl/src/core/lv_indev.c ****     proc->types.pointer.gesture_sum.y += proc->types.pointer.vect.y;
 1832              		.loc 1 1142 39 view .LVU589
 1833 014c A187     		strh	r1, [r4, #60]	@ movhi
1143:Drivers/lvgl/src/core/lv_indev.c **** 
 1834              		.loc 1 1143 5 is_stmt 1 view .LVU590
1143:Drivers/lvgl/src/core/lv_indev.c **** 
 1835              		.loc 1 1143 39 is_stmt 0 view .LVU591
 1836 014e E387     		strh	r3, [r4, #62]	@ movhi
1145:Drivers/lvgl/src/core/lv_indev.c ****        (LV_ABS(proc->types.pointer.gesture_sum.y) > indev_act->driver->gesture_limit)) {
 1837              		.loc 1 1145 5 is_stmt 1 view .LVU592
1145:Drivers/lvgl/src/core/lv_indev.c ****        (LV_ABS(proc->types.pointer.gesture_sum.y) > indev_act->driver->gesture_limit)) {
 1838              		.loc 1 1145 51 is_stmt 0 view .LVU593
 1839 0150 90F81BE0 		ldrb	lr, [r0, #27]	@ zero_extendqisi2
1145:Drivers/lvgl/src/core/lv_indev.c ****        (LV_ABS(proc->types.pointer.gesture_sum.y) > indev_act->driver->gesture_limit)) {
 1840              		.loc 1 1145 9 view .LVU594
 1841 0154 81EAE170 		eor	r0, r1, r1, asr #31
 1842 0158 A0EBE170 		sub	r0, r0, r1, asr #31
 1843 015c 80B2     		uxth	r0, r0
1146:Drivers/lvgl/src/core/lv_indev.c **** 
 1844              		.loc 1 1146 9 view .LVU595
 1845 015e 83EAE37C 		eor	ip, r3, r3, asr #31
 1846 0162 ACEBE37C 		sub	ip, ip, r3, asr #31
1145:Drivers/lvgl/src/core/lv_indev.c ****        (LV_ABS(proc->types.pointer.gesture_sum.y) > indev_act->driver->gesture_limit)) {
 1847              		.loc 1 1145 7 view .LVU596
 1848 0166 7045     		cmp	r0, lr
1146:Drivers/lvgl/src/core/lv_indev.c **** 
 1849              		.loc 1 1146 9 view .LVU597
 1850 0168 1FFA8CFC 		uxth	ip, ip
1145:Drivers/lvgl/src/core/lv_indev.c ****        (LV_ABS(proc->types.pointer.gesture_sum.y) > indev_act->driver->gesture_limit)) {
 1851              		.loc 1 1145 7 view .LVU598
 1852 016c 00F2E380 		bhi	.L214
1145:Drivers/lvgl/src/core/lv_indev.c ****        (LV_ABS(proc->types.pointer.gesture_sum.y) > indev_act->driver->gesture_limit)) {
 1853              		.loc 1 1145 87 discriminator 1 view .LVU599
 1854 0170 E645     		cmp	lr, ip
 1855 0172 C0F0E080 		bcc	.L214
 1856              	.L209:
 1857              	.LVL127:
1145:Drivers/lvgl/src/core/lv_indev.c ****        (LV_ABS(proc->types.pointer.gesture_sum.y) > indev_act->driver->gesture_limit)) {
 1858              		.loc 1 1145 87 discriminator 1 view .LVU600
ARM GAS  /var/folders/lp/x54gwt890xv47sdkqj1k04q40000gn/T//ccfgQDQQ.s 			page 65


 1859              	.LBE217:
 1860              	.LBE216:
 917:Drivers/lvgl/src/core/lv_indev.c **** 
 1861              		.loc 1 917 9 is_stmt 1 view .LVU601
 1862              	.LBB223:
 1863              	.LBI223:
1173:Drivers/lvgl/src/core/lv_indev.c **** {
 1864              		.loc 1 1173 13 view .LVU602
 1865              	.LBB224:
1175:Drivers/lvgl/src/core/lv_indev.c ****         indev_obj_act = NULL;
 1866              		.loc 1 1175 5 view .LVU603
1175:Drivers/lvgl/src/core/lv_indev.c ****         indev_obj_act = NULL;
 1867              		.loc 1 1175 8 is_stmt 0 view .LVU604
 1868 0176 6278     		ldrb	r2, [r4, #1]	@ zero_extendqisi2
1175:Drivers/lvgl/src/core/lv_indev.c ****         indev_obj_act = NULL;
 1869              		.loc 1 1175 7 view .LVU605
 1870 0178 9107     		lsls	r1, r2, #30
 1871              		.loc 1 1179 37 view .LVU606
 1872 017a C2F34003 		ubfx	r3, r2, #1, #1
1175:Drivers/lvgl/src/core/lv_indev.c ****         indev_obj_act = NULL;
 1873              		.loc 1 1175 7 view .LVU607
 1874 017e 01D5     		bpl	.L217
 1875              	.L218:
1176:Drivers/lvgl/src/core/lv_indev.c ****     }
 1876              		.loc 1 1176 9 is_stmt 1 view .LVU608
1176:Drivers/lvgl/src/core/lv_indev.c ****     }
 1877              		.loc 1 1176 23 is_stmt 0 view .LVU609
 1878 0180 0021     		movs	r1, #0
 1879 0182 2960     		str	r1, [r5]
 1880              	.L217:
 1881              	.LVL128:
 1882              		.loc 1 1179 5 is_stmt 1 view .LVU610
 1883              	.LBE224:
 1884              	.LBE223:
 917:Drivers/lvgl/src/core/lv_indev.c **** 
 1885              		.loc 1 917 11 is_stmt 0 discriminator 1 view .LVU611
 1886 0184 002B     		cmp	r3, #0
 1887 0186 80D1     		bne	.L162
 1888              	.L312:
 920:Drivers/lvgl/src/core/lv_indev.c ****             /*Call the ancestor's event handler about the long press if enough time elapsed*/
 1889              		.loc 1 920 9 is_stmt 1 view .LVU612
 1890 0188 E36A     		ldr	r3, [r4, #44]
 920:Drivers/lvgl/src/core/lv_indev.c ****             /*Call the ancestor's event handler about the long press if enough time elapsed*/
 1891              		.loc 1 920 11 is_stmt 0 view .LVU613
 1892 018a 002B     		cmp	r3, #0
 1893 018c 7FF47DAF 		bne	.L162
 1894              	.L225:
 920:Drivers/lvgl/src/core/lv_indev.c ****             /*Call the ancestor's event handler about the long press if enough time elapsed*/
 1895              		.loc 1 920 51 discriminator 1 view .LVU614
 1896 0190 12F00107 		ands	r7, r2, #1
 1897 0194 00F02781 		beq	.L219
 1898              	.L223:
 935:Drivers/lvgl/src/core/lv_indev.c ****             /*Call the ancestor's event handler about the long press repeat if enough time elapsed*
 1899              		.loc 1 935 51 discriminator 1 view .LVU615
 1900 0198 D307     		lsls	r3, r2, #31
 1901 019a 7FF576AF 		bpl	.L162
 937:Drivers/lvgl/src/core/lv_indev.c ****                 lv_event_send(indev_obj_act, LV_EVENT_LONG_PRESSED_REPEAT, indev_act);
ARM GAS  /var/folders/lp/x54gwt890xv47sdkqj1k04q40000gn/T//ccfgQDQQ.s 			page 66


 1902              		.loc 1 937 13 is_stmt 1 view .LVU616
 937:Drivers/lvgl/src/core/lv_indev.c ****                 lv_event_send(indev_obj_act, LV_EVENT_LONG_PRESSED_REPEAT, indev_act);
 1903              		.loc 1 937 16 is_stmt 0 view .LVU617
 1904 019e A06C     		ldr	r0, [r4, #72]
 1905 01a0 FFF7FEFF 		bl	lv_tick_elaps
 1906              	.LVL129:
 937:Drivers/lvgl/src/core/lv_indev.c ****                 lv_event_send(indev_obj_act, LV_EVENT_LONG_PRESSED_REPEAT, indev_act);
 1907              		.loc 1 937 69 discriminator 1 view .LVU618
 1908 01a4 3268     		ldr	r2, [r6]
 937:Drivers/lvgl/src/core/lv_indev.c ****                 lv_event_send(indev_obj_act, LV_EVENT_LONG_PRESSED_REPEAT, indev_act);
 1909              		.loc 1 937 77 discriminator 1 view .LVU619
 1910 01a6 1368     		ldr	r3, [r2]
 937:Drivers/lvgl/src/core/lv_indev.c ****                 lv_event_send(indev_obj_act, LV_EVENT_LONG_PRESSED_REPEAT, indev_act);
 1911              		.loc 1 937 58 discriminator 1 view .LVU620
 1912 01a8 DB8B     		ldrh	r3, [r3, #30]
 937:Drivers/lvgl/src/core/lv_indev.c ****                 lv_event_send(indev_obj_act, LV_EVENT_LONG_PRESSED_REPEAT, indev_act);
 1913              		.loc 1 937 15 discriminator 1 view .LVU621
 1914 01aa 9842     		cmp	r0, r3
 1915 01ac 7FF66DAF 		bls	.L162
 938:Drivers/lvgl/src/core/lv_indev.c ****                 if(indev_reset_check(proc)) return;
 1916              		.loc 1 938 17 is_stmt 1 view .LVU622
 1917 01b0 2868     		ldr	r0, [r5]
 1918 01b2 0621     		movs	r1, #6
 1919 01b4 FFF7FEFF 		bl	lv_event_send
 1920              	.LVL130:
 939:Drivers/lvgl/src/core/lv_indev.c ****                 proc->longpr_rep_timestamp = lv_tick_get();
 1921              		.loc 1 939 17 view .LVU623
 1922              	.LBB227:
 1923              	.LBI227:
1173:Drivers/lvgl/src/core/lv_indev.c **** {
 1924              		.loc 1 1173 13 view .LVU624
 1925              	.LBB228:
1175:Drivers/lvgl/src/core/lv_indev.c ****         indev_obj_act = NULL;
 1926              		.loc 1 1175 5 view .LVU625
1175:Drivers/lvgl/src/core/lv_indev.c ****         indev_obj_act = NULL;
 1927              		.loc 1 1175 8 is_stmt 0 view .LVU626
 1928 01b8 6378     		ldrb	r3, [r4, #1]	@ zero_extendqisi2
1175:Drivers/lvgl/src/core/lv_indev.c ****         indev_obj_act = NULL;
 1929              		.loc 1 1175 7 view .LVU627
 1930 01ba 13F0020F 		tst	r3, #2
 1931 01be 04D0     		beq	.L302
1176:Drivers/lvgl/src/core/lv_indev.c ****     }
 1932              		.loc 1 1176 9 is_stmt 1 view .LVU628
1176:Drivers/lvgl/src/core/lv_indev.c ****     }
 1933              		.loc 1 1176 23 is_stmt 0 view .LVU629
 1934 01c0 4FF00002 		mov	r2, #0
 1935 01c4 2A60     		str	r2, [r5]
 1936              		.loc 1 1179 5 is_stmt 1 view .LVU630
 1937              	.LVL131:
 1938              		.loc 1 1179 5 is_stmt 0 view .LVU631
 1939              	.LBE228:
 1940              	.LBE227:
 939:Drivers/lvgl/src/core/lv_indev.c ****                 proc->longpr_rep_timestamp = lv_tick_get();
 1941              		.loc 1 939 19 discriminator 1 view .LVU632
 1942 01c6 7FF460AF 		bne	.L162
 1943              	.L302:
 940:Drivers/lvgl/src/core/lv_indev.c ****             }
ARM GAS  /var/folders/lp/x54gwt890xv47sdkqj1k04q40000gn/T//ccfgQDQQ.s 			page 67


 1944              		.loc 1 940 17 is_stmt 1 view .LVU633
 940:Drivers/lvgl/src/core/lv_indev.c ****             }
 1945              		.loc 1 940 46 is_stmt 0 view .LVU634
 1946 01ca FFF7FEFF 		bl	lv_tick_get
 1947              	.LVL132:
 940:Drivers/lvgl/src/core/lv_indev.c ****             }
 1948              		.loc 1 940 44 discriminator 1 view .LVU635
 1949 01ce A064     		str	r0, [r4, #72]
 1950 01d0 5BE7     		b	.L162
 1951              	.L325:
 1952 01d2 00BF     		.align	2
 1953              	.L324:
 1954 01d4 00000000 		.word	indev_obj_act
 1955 01d8 00000000 		.word	indev_act
 1956              	.LVL133:
 1957              	.L176:
 1958              	.LBB229:
 1959              	.LBB215:
 1960              	.LBB214:
 1961              		.loc 1 1179 5 is_stmt 1 view .LVU636
 1962              		.loc 1 1179 5 is_stmt 0 view .LVU637
 1963              	.LBE214:
 1964              	.LBE215:
 1965              	.LBE229:
 869:Drivers/lvgl/src/core/lv_indev.c ****         proc->types.pointer.last_obj = indev_obj_act;
 1966              		.loc 1 869 38 view .LVU638
 1967 01dc 2868     		ldr	r0, [r5]
 1968              	.LVL134:
 1969              	.L175:
 869:Drivers/lvgl/src/core/lv_indev.c ****         proc->types.pointer.last_obj = indev_obj_act;
 1970              		.loc 1 869 9 is_stmt 1 view .LVU639
 870:Drivers/lvgl/src/core/lv_indev.c **** 
 1971              		.loc 1 870 38 is_stmt 0 view .LVU640
 1972 01de C4E90900 		strd	r0, r0, [r4, #36]
 872:Drivers/lvgl/src/core/lv_indev.c ****             /*Save the time when the obj pressed to count long press time.*/
 1973              		.loc 1 872 9 is_stmt 1 view .LVU641
 872:Drivers/lvgl/src/core/lv_indev.c ****             /*Save the time when the obj pressed to count long press time.*/
 1974              		.loc 1 872 11 is_stmt 0 view .LVU642
 1975 01e2 0028     		cmp	r0, #0
 1976 01e4 3FF47AAF 		beq	.L227
 874:Drivers/lvgl/src/core/lv_indev.c ****             proc->long_pr_sent                 = 0;
 1977              		.loc 1 874 13 is_stmt 1 view .LVU643
 874:Drivers/lvgl/src/core/lv_indev.c ****             proc->long_pr_sent                 = 0;
 1978              		.loc 1 874 50 is_stmt 0 view .LVU644
 1979 01e8 FFF7FEFF 		bl	lv_tick_get
 1980              	.LVL135:
 875:Drivers/lvgl/src/core/lv_indev.c ****             proc->types.pointer.scroll_sum.x     = 0;
 1981              		.loc 1 875 48 view .LVU645
 1982 01ec 6378     		ldrb	r3, [r4, #1]	@ zero_extendqisi2
 874:Drivers/lvgl/src/core/lv_indev.c ****             proc->long_pr_sent                 = 0;
 1983              		.loc 1 874 48 discriminator 1 view .LVU646
 1984 01ee 6064     		str	r0, [r4, #68]
 875:Drivers/lvgl/src/core/lv_indev.c ****             proc->types.pointer.scroll_sum.x     = 0;
 1985              		.loc 1 875 13 is_stmt 1 view .LVU647
 875:Drivers/lvgl/src/core/lv_indev.c ****             proc->types.pointer.scroll_sum.x     = 0;
 1986              		.loc 1 875 48 is_stmt 0 view .LVU648
 1987 01f0 23F00103 		bic	r3, r3, #1
ARM GAS  /var/folders/lp/x54gwt890xv47sdkqj1k04q40000gn/T//ccfgQDQQ.s 			page 68


 1988 01f4 6370     		strb	r3, [r4, #1]
 876:Drivers/lvgl/src/core/lv_indev.c ****             proc->types.pointer.scroll_sum.y     = 0;
 1989              		.loc 1 876 13 is_stmt 1 view .LVU649
 877:Drivers/lvgl/src/core/lv_indev.c ****             proc->types.pointer.scroll_dir = LV_DIR_NONE;
 1990              		.loc 1 877 13 view .LVU650
 878:Drivers/lvgl/src/core/lv_indev.c ****             proc->types.pointer.gesture_dir = LV_DIR_NONE;
 1991              		.loc 1 878 44 is_stmt 0 view .LVU651
 1992 01f6 B4F84030 		ldrh	r3, [r4, #64]
 887:Drivers/lvgl/src/core/lv_indev.c ****             if(indev_reset_check(proc)) return;
 1993              		.loc 1 887 13 view .LVU652
 1994 01fa 3268     		ldr	r2, [r6]
 1995 01fc 2868     		ldr	r0, [r5]
 876:Drivers/lvgl/src/core/lv_indev.c ****             proc->types.pointer.scroll_sum.y     = 0;
 1996              		.loc 1 876 50 view .LVU653
 1997 01fe 0027     		movs	r7, #0
 878:Drivers/lvgl/src/core/lv_indev.c ****             proc->types.pointer.gesture_dir = LV_DIR_NONE;
 1998              		.loc 1 878 44 view .LVU654
 1999 0200 6FF30803 		bfc	r3, #0, #9
 2000 0204 A4F84030 		strh	r3, [r4, #64]	@ movhi
 876:Drivers/lvgl/src/core/lv_indev.c ****             proc->types.pointer.scroll_sum.y     = 0;
 2001              		.loc 1 876 50 view .LVU655
 2002 0208 A761     		str	r7, [r4, #24]
 878:Drivers/lvgl/src/core/lv_indev.c ****             proc->types.pointer.gesture_dir = LV_DIR_NONE;
 2003              		.loc 1 878 13 is_stmt 1 view .LVU656
 879:Drivers/lvgl/src/core/lv_indev.c ****             proc->types.pointer.gesture_sent   = 0;
 2004              		.loc 1 879 13 view .LVU657
 880:Drivers/lvgl/src/core/lv_indev.c ****             proc->types.pointer.gesture_sum.x  = 0;
 2005              		.loc 1 880 13 view .LVU658
 881:Drivers/lvgl/src/core/lv_indev.c ****             proc->types.pointer.gesture_sum.y  = 0;
 2006              		.loc 1 881 13 view .LVU659
 882:Drivers/lvgl/src/core/lv_indev.c ****             proc->types.pointer.vect.x         = 0;
 2007              		.loc 1 882 13 view .LVU660
 883:Drivers/lvgl/src/core/lv_indev.c ****             proc->types.pointer.vect.y         = 0;
 2008              		.loc 1 883 13 view .LVU661
 884:Drivers/lvgl/src/core/lv_indev.c **** 
 2009              		.loc 1 884 13 view .LVU662
 881:Drivers/lvgl/src/core/lv_indev.c ****             proc->types.pointer.gesture_sum.y  = 0;
 2010              		.loc 1 881 48 is_stmt 0 view .LVU663
 2011 020a E763     		str	r7, [r4, #60]
 883:Drivers/lvgl/src/core/lv_indev.c ****             proc->types.pointer.vect.y         = 0;
 2012              		.loc 1 883 48 view .LVU664
 2013 020c 6761     		str	r7, [r4, #20]
 887:Drivers/lvgl/src/core/lv_indev.c ****             if(indev_reset_check(proc)) return;
 2014              		.loc 1 887 13 is_stmt 1 view .LVU665
 2015 020e 0121     		movs	r1, #1
 2016 0210 FFF7FEFF 		bl	lv_event_send
 2017              	.LVL136:
 888:Drivers/lvgl/src/core/lv_indev.c **** 
 2018              		.loc 1 888 13 view .LVU666
 2019              	.LBB230:
 2020              	.LBI230:
1173:Drivers/lvgl/src/core/lv_indev.c **** {
 2021              		.loc 1 1173 13 view .LVU667
 2022              	.LBB231:
1175:Drivers/lvgl/src/core/lv_indev.c ****         indev_obj_act = NULL;
 2023              		.loc 1 1175 5 view .LVU668
1175:Drivers/lvgl/src/core/lv_indev.c ****         indev_obj_act = NULL;
ARM GAS  /var/folders/lp/x54gwt890xv47sdkqj1k04q40000gn/T//ccfgQDQQ.s 			page 69


 2024              		.loc 1 1175 8 is_stmt 0 view .LVU669
 2025 0214 6378     		ldrb	r3, [r4, #1]	@ zero_extendqisi2
1175:Drivers/lvgl/src/core/lv_indev.c ****         indev_obj_act = NULL;
 2026              		.loc 1 1175 7 view .LVU670
 2027 0216 13F0020F 		tst	r3, #2
 2028 021a 02D0     		beq	.L298
1176:Drivers/lvgl/src/core/lv_indev.c ****     }
 2029              		.loc 1 1176 9 is_stmt 1 view .LVU671
1176:Drivers/lvgl/src/core/lv_indev.c ****     }
 2030              		.loc 1 1176 23 is_stmt 0 view .LVU672
 2031 021c 2F60     		str	r7, [r5]
 2032              		.loc 1 1179 5 is_stmt 1 view .LVU673
 2033              	.LVL137:
 2034              		.loc 1 1179 5 is_stmt 0 view .LVU674
 2035              	.LBE231:
 2036              	.LBE230:
 888:Drivers/lvgl/src/core/lv_indev.c **** 
 2037              		.loc 1 888 15 discriminator 1 view .LVU675
 2038 021e 7FF434AF 		bne	.L162
 2039              	.L298:
 890:Drivers/lvgl/src/core/lv_indev.c **** 
 2040              		.loc 1 890 13 is_stmt 1 view .LVU676
 890:Drivers/lvgl/src/core/lv_indev.c **** 
 2041              		.loc 1 890 25 is_stmt 0 view .LVU677
 2042 0222 D6F80080 		ldr	r8, [r6]
 890:Drivers/lvgl/src/core/lv_indev.c **** 
 2043              		.loc 1 890 16 view .LVU678
 2044 0226 98F80530 		ldrb	r3, [r8, #5]	@ zero_extendqisi2
 890:Drivers/lvgl/src/core/lv_indev.c **** 
 2045              		.loc 1 890 15 view .LVU679
 2046 022a 13F00807 		ands	r7, r3, #8
 2047 022e 7FF42CAF 		bne	.L162
 893:Drivers/lvgl/src/core/lv_indev.c ****             if(indev_reset_check(proc)) return;
 2048              		.loc 1 893 13 is_stmt 1 view .LVU680
 2049              	.LVL138:
 2050              	.LBB232:
 2051              	.LBI232:
1051:Drivers/lvgl/src/core/lv_indev.c **** {
 2052              		.loc 1 1051 13 view .LVU681
 2053              	.LBB233:
1054:Drivers/lvgl/src/core/lv_indev.c ****        proc->types.pointer.last_pressed == indev_obj_act) {
 2054              		.loc 1 1054 5 view .LVU682
1054:Drivers/lvgl/src/core/lv_indev.c ****        proc->types.pointer.last_pressed == indev_obj_act) {
 2055              		.loc 1 1054 8 is_stmt 0 view .LVU683
 2056 0232 2868     		ldr	r0, [r5]
 2057 0234 0421     		movs	r1, #4
 2058 0236 FFF7FEFF 		bl	lv_obj_has_flag
 2059              	.LVL139:
1054:Drivers/lvgl/src/core/lv_indev.c ****        proc->types.pointer.last_pressed == indev_obj_act) {
 2060              		.loc 1 1054 7 discriminator 1 view .LVU684
 2061 023a 0028     		cmp	r0, #0
 2062 023c 36D0     		beq	.L181
1055:Drivers/lvgl/src/core/lv_indev.c ****         return;
 2063              		.loc 1 1055 41 view .LVU685
 2064 023e 2868     		ldr	r0, [r5]
1054:Drivers/lvgl/src/core/lv_indev.c ****        proc->types.pointer.last_pressed == indev_obj_act) {
 2065              		.loc 1 1054 77 discriminator 1 view .LVU686
ARM GAS  /var/folders/lp/x54gwt890xv47sdkqj1k04q40000gn/T//ccfgQDQQ.s 			page 70


 2066 0240 D8F83430 		ldr	r3, [r8, #52]
 2067 0244 8342     		cmp	r3, r0
 2068 0246 31D0     		beq	.L181
1059:Drivers/lvgl/src/core/lv_indev.c ****     lv_group_t * g_prev = proc->types.pointer.last_pressed ? lv_obj_get_group(proc->types.pointer.l
 2069              		.loc 1 1059 5 is_stmt 1 view .LVU687
1059:Drivers/lvgl/src/core/lv_indev.c ****     lv_group_t * g_prev = proc->types.pointer.last_pressed ? lv_obj_get_group(proc->types.pointer.l
 2070              		.loc 1 1059 26 is_stmt 0 view .LVU688
 2071 0248 FFF7FEFF 		bl	lv_obj_get_group
 2072              	.LVL140:
 2073 024c 8246     		mov	r10, r0
 2074              	.LVL141:
1060:Drivers/lvgl/src/core/lv_indev.c **** 
 2075              		.loc 1 1060 5 is_stmt 1 view .LVU689
1060:Drivers/lvgl/src/core/lv_indev.c **** 
 2076              		.loc 1 1060 46 is_stmt 0 view .LVU690
 2077 024e D8F83400 		ldr	r0, [r8, #52]
 2078              	.LVL142:
1060:Drivers/lvgl/src/core/lv_indev.c **** 
 2079              		.loc 1 1060 113 view .LVU691
 2080 0252 0028     		cmp	r0, #0
 2081 0254 62D0     		beq	.L318
1060:Drivers/lvgl/src/core/lv_indev.c **** 
 2082              		.loc 1 1060 62 discriminator 1 view .LVU692
 2083 0256 FFF7FEFF 		bl	lv_obj_get_group
 2084              	.LVL143:
1063:Drivers/lvgl/src/core/lv_indev.c ****         /*The objects are in a group*/
 2085              		.loc 1 1063 7 view .LVU693
 2086 025a 8245     		cmp	r10, r0
1060:Drivers/lvgl/src/core/lv_indev.c **** 
 2087              		.loc 1 1060 62 discriminator 1 view .LVU694
 2088 025c 8146     		mov	r9, r0
 2089              	.LVL144:
1063:Drivers/lvgl/src/core/lv_indev.c ****         /*The objects are in a group*/
 2090              		.loc 1 1063 5 is_stmt 1 view .LVU695
1063:Drivers/lvgl/src/core/lv_indev.c ****         /*The objects are in a group*/
 2091              		.loc 1 1063 7 is_stmt 0 view .LVU696
 2092 025e 00F08E80 		beq	.L319
1083:Drivers/lvgl/src/core/lv_indev.c ****             lv_event_send(proc->types.pointer.last_pressed, LV_EVENT_DEFOCUSED, indev_act);
 2093              		.loc 1 1083 9 is_stmt 1 view .LVU697
1071:Drivers/lvgl/src/core/lv_indev.c ****                 lv_event_send(proc->types.pointer.last_pressed, LV_EVENT_DEFOCUSED, indev_act);
 2094              		.loc 1 1071 35 is_stmt 0 view .LVU698
 2095 0262 D8F83400 		ldr	r0, [r8, #52]
 2096              	.LVL145:
1083:Drivers/lvgl/src/core/lv_indev.c ****             lv_event_send(proc->types.pointer.last_pressed, LV_EVENT_DEFOCUSED, indev_act);
 2097              		.loc 1 1083 11 view .LVU699
 2098 0266 B9F1000F 		cmp	r9, #0
 2099 026a 00F0DD80 		beq	.L320
1089:Drivers/lvgl/src/core/lv_indev.c ****                 /*If the prev. object also wasn't in a group defocus it*/
 2100              		.loc 1 1089 13 is_stmt 1 view .LVU700
1089:Drivers/lvgl/src/core/lv_indev.c ****                 /*If the prev. object also wasn't in a group defocus it*/
 2101              		.loc 1 1089 15 is_stmt 0 view .LVU701
 2102 026e 50B1     		cbz	r0, .L199
1091:Drivers/lvgl/src/core/lv_indev.c ****                     lv_event_send(proc->types.pointer.last_pressed, LV_EVENT_DEFOCUSED, indev_act);
 2103              		.loc 1 1091 17 is_stmt 1 view .LVU702
1097:Drivers/lvgl/src/core/lv_indev.c ****                     if(indev_reset_check(proc)) return;
 2104              		.loc 1 1097 21 view .LVU703
 2105 0270 3268     		ldr	r2, [r6]
ARM GAS  /var/folders/lp/x54gwt890xv47sdkqj1k04q40000gn/T//ccfgQDQQ.s 			page 71


 2106 0272 1021     		movs	r1, #16
 2107 0274 FFF7FEFF 		bl	lv_event_send
 2108              	.LVL146:
1098:Drivers/lvgl/src/core/lv_indev.c ****                 }
 2109              		.loc 1 1098 21 view .LVU704
 2110              	.LBB234:
 2111              	.LBI234:
1173:Drivers/lvgl/src/core/lv_indev.c **** {
 2112              		.loc 1 1173 13 view .LVU705
 2113              	.LBB235:
1175:Drivers/lvgl/src/core/lv_indev.c ****         indev_obj_act = NULL;
 2114              		.loc 1 1175 5 view .LVU706
1175:Drivers/lvgl/src/core/lv_indev.c ****         indev_obj_act = NULL;
 2115              		.loc 1 1175 8 is_stmt 0 view .LVU707
 2116 0278 98F80530 		ldrb	r3, [r8, #5]	@ zero_extendqisi2
1175:Drivers/lvgl/src/core/lv_indev.c ****         indev_obj_act = NULL;
 2117              		.loc 1 1175 7 view .LVU708
 2118 027c 13F0020F 		tst	r3, #2
 2119 0280 01D0     		beq	.L199
1176:Drivers/lvgl/src/core/lv_indev.c ****     }
 2120              		.loc 1 1176 9 is_stmt 1 view .LVU709
1176:Drivers/lvgl/src/core/lv_indev.c ****     }
 2121              		.loc 1 1176 23 is_stmt 0 view .LVU710
 2122 0282 2F60     		str	r7, [r5]
 2123              		.loc 1 1179 5 is_stmt 1 view .LVU711
 2124              	.LVL147:
 2125              		.loc 1 1179 5 is_stmt 0 view .LVU712
 2126              	.LBE235:
 2127              	.LBE234:
1098:Drivers/lvgl/src/core/lv_indev.c ****                 }
 2128              		.loc 1 1098 23 discriminator 1 view .LVU713
 2129 0284 12D1     		bne	.L181
 2130              	.L199:
1104:Drivers/lvgl/src/core/lv_indev.c ****             lv_group_focus_obj(indev_obj_act);
 2131              		.loc 1 1104 9 is_stmt 1 view .LVU714
1109:Drivers/lvgl/src/core/lv_indev.c ****             if(indev_reset_check(proc)) return;
 2132              		.loc 1 1109 13 is_stmt 0 view .LVU715
 2133 0286 2868     		ldr	r0, [r5]
1104:Drivers/lvgl/src/core/lv_indev.c ****             lv_group_focus_obj(indev_obj_act);
 2134              		.loc 1 1104 11 view .LVU716
 2135 0288 BAF1000F 		cmp	r10, #0
 2136 028c 00F08580 		beq	.L321
 2137              	.LVL148:
 2138              	.L196:
1105:Drivers/lvgl/src/core/lv_indev.c ****             if(indev_reset_check(proc)) return;
 2139              		.loc 1 1105 13 is_stmt 1 view .LVU717
 2140 0290 2868     		ldr	r0, [r5]
 2141 0292 FFF7FEFF 		bl	lv_group_focus_obj
 2142              	.LVL149:
1106:Drivers/lvgl/src/core/lv_indev.c ****         }
 2143              		.loc 1 1106 13 view .LVU718
 2144              	.LBB236:
 2145              	.LBI236:
1173:Drivers/lvgl/src/core/lv_indev.c **** {
 2146              		.loc 1 1173 13 view .LVU719
