ARM GAS  /var/folders/0z/tsy30v1j4xl4_7kw94k978ww0000gn/T//cc5O5B9v.s 			page 1


   1              		.cpu cortex-m4
   2              		.arch armv7e-m
   3              		.fpu fpv4-sp-d16
   4              		.eabi_attribute 27, 1
   5              		.eabi_attribute 28, 1
   6              		.eabi_attribute 23, 1
   7              		.eabi_attribute 24, 1
   8              		.eabi_attribute 25, 1
   9              		.eabi_attribute 26, 1
  10              		.eabi_attribute 30, 2
  11              		.eabi_attribute 34, 1
  12              		.eabi_attribute 18, 4
  13              		.file	"lv_indev_scroll.c"
  14              		.text
  15              	.Ltext0:
  16              		.cfi_sections	.debug_frame
  17              		.section	.text.find_snap_point_y,"ax",%progbits
  18              		.align	1
  19              		.p2align 2,,3
  20              		.syntax unified
  21              		.thumb
  22              		.thumb_func
  24              	find_snap_point_y:
  25              	.LVL0:
  26              	.LFB168:
  27              		.file 1 "Drivers/lvgl/src/core/lv_indev_scroll.c"
   1:Drivers/lvgl/src/core/lv_indev_scroll.c **** /**
   2:Drivers/lvgl/src/core/lv_indev_scroll.c ****  * @file lv_indev_scroll.c
   3:Drivers/lvgl/src/core/lv_indev_scroll.c ****  *
   4:Drivers/lvgl/src/core/lv_indev_scroll.c ****  */
   5:Drivers/lvgl/src/core/lv_indev_scroll.c **** 
   6:Drivers/lvgl/src/core/lv_indev_scroll.c **** /*********************
   7:Drivers/lvgl/src/core/lv_indev_scroll.c ****  *      INCLUDES
   8:Drivers/lvgl/src/core/lv_indev_scroll.c ****  *********************/
   9:Drivers/lvgl/src/core/lv_indev_scroll.c **** #include "lv_indev.h"
  10:Drivers/lvgl/src/core/lv_indev_scroll.c **** #include "lv_indev_scroll.h"
  11:Drivers/lvgl/src/core/lv_indev_scroll.c **** 
  12:Drivers/lvgl/src/core/lv_indev_scroll.c **** /*********************
  13:Drivers/lvgl/src/core/lv_indev_scroll.c ****  *      DEFINES
  14:Drivers/lvgl/src/core/lv_indev_scroll.c ****  *********************/
  15:Drivers/lvgl/src/core/lv_indev_scroll.c **** #define ELASTIC_SLOWNESS_FACTOR 4   /*Scrolling on elastic parts are slower by this factor*/
  16:Drivers/lvgl/src/core/lv_indev_scroll.c **** 
  17:Drivers/lvgl/src/core/lv_indev_scroll.c **** /**********************
  18:Drivers/lvgl/src/core/lv_indev_scroll.c ****  *      TYPEDEFS
  19:Drivers/lvgl/src/core/lv_indev_scroll.c ****  **********************/
  20:Drivers/lvgl/src/core/lv_indev_scroll.c **** 
  21:Drivers/lvgl/src/core/lv_indev_scroll.c **** /**********************
  22:Drivers/lvgl/src/core/lv_indev_scroll.c ****  *  STATIC PROTOTYPES
  23:Drivers/lvgl/src/core/lv_indev_scroll.c ****  **********************/
  24:Drivers/lvgl/src/core/lv_indev_scroll.c **** static lv_obj_t * find_scroll_obj(_lv_indev_proc_t * proc);
  25:Drivers/lvgl/src/core/lv_indev_scroll.c **** static void init_scroll_limits(_lv_indev_proc_t * proc);
  26:Drivers/lvgl/src/core/lv_indev_scroll.c **** static lv_coord_t find_snap_point_x(const lv_obj_t * obj, lv_coord_t min, lv_coord_t max, lv_coord_
  27:Drivers/lvgl/src/core/lv_indev_scroll.c **** static lv_coord_t find_snap_point_y(const lv_obj_t * obj, lv_coord_t min, lv_coord_t max, lv_coord_
  28:Drivers/lvgl/src/core/lv_indev_scroll.c **** static void scroll_limit_diff(_lv_indev_proc_t * proc, lv_coord_t * diff_x, lv_coord_t * diff_y);
  29:Drivers/lvgl/src/core/lv_indev_scroll.c **** static lv_coord_t scroll_throw_predict_y(_lv_indev_proc_t * proc);
  30:Drivers/lvgl/src/core/lv_indev_scroll.c **** static lv_coord_t scroll_throw_predict_x(_lv_indev_proc_t * proc);
  31:Drivers/lvgl/src/core/lv_indev_scroll.c **** static lv_coord_t elastic_diff(lv_obj_t * scroll_obj, lv_coord_t diff, lv_coord_t scroll_start, lv_
ARM GAS  /var/folders/0z/tsy30v1j4xl4_7kw94k978ww0000gn/T//cc5O5B9v.s 			page 2


  32:Drivers/lvgl/src/core/lv_indev_scroll.c ****                                lv_dir_t dir);
  33:Drivers/lvgl/src/core/lv_indev_scroll.c **** 
  34:Drivers/lvgl/src/core/lv_indev_scroll.c **** /**********************
  35:Drivers/lvgl/src/core/lv_indev_scroll.c ****  *  STATIC VARIABLES
  36:Drivers/lvgl/src/core/lv_indev_scroll.c ****  **********************/
  37:Drivers/lvgl/src/core/lv_indev_scroll.c **** 
  38:Drivers/lvgl/src/core/lv_indev_scroll.c **** /**********************
  39:Drivers/lvgl/src/core/lv_indev_scroll.c ****  *      MACROS
  40:Drivers/lvgl/src/core/lv_indev_scroll.c ****  **********************/
  41:Drivers/lvgl/src/core/lv_indev_scroll.c **** 
  42:Drivers/lvgl/src/core/lv_indev_scroll.c **** /**********************
  43:Drivers/lvgl/src/core/lv_indev_scroll.c ****  *   GLOBAL FUNCTIONS
  44:Drivers/lvgl/src/core/lv_indev_scroll.c ****  **********************/
  45:Drivers/lvgl/src/core/lv_indev_scroll.c **** 
  46:Drivers/lvgl/src/core/lv_indev_scroll.c **** void _lv_indev_scroll_handler(_lv_indev_proc_t * proc)
  47:Drivers/lvgl/src/core/lv_indev_scroll.c **** {
  48:Drivers/lvgl/src/core/lv_indev_scroll.c ****     if(proc->types.pointer.vect.x == 0 && proc->types.pointer.vect.y == 0) {
  49:Drivers/lvgl/src/core/lv_indev_scroll.c ****         return;
  50:Drivers/lvgl/src/core/lv_indev_scroll.c ****     }
  51:Drivers/lvgl/src/core/lv_indev_scroll.c **** 
  52:Drivers/lvgl/src/core/lv_indev_scroll.c ****     lv_obj_t * scroll_obj = proc->types.pointer.scroll_obj;
  53:Drivers/lvgl/src/core/lv_indev_scroll.c ****     /*If there is no scroll object yet try to find one*/
  54:Drivers/lvgl/src/core/lv_indev_scroll.c ****     if(scroll_obj == NULL) {
  55:Drivers/lvgl/src/core/lv_indev_scroll.c ****         scroll_obj = find_scroll_obj(proc);
  56:Drivers/lvgl/src/core/lv_indev_scroll.c ****         if(scroll_obj == NULL) return;
  57:Drivers/lvgl/src/core/lv_indev_scroll.c **** 
  58:Drivers/lvgl/src/core/lv_indev_scroll.c ****         init_scroll_limits(proc);
  59:Drivers/lvgl/src/core/lv_indev_scroll.c **** 
  60:Drivers/lvgl/src/core/lv_indev_scroll.c ****         lv_event_send(scroll_obj, LV_EVENT_SCROLL_BEGIN, NULL);
  61:Drivers/lvgl/src/core/lv_indev_scroll.c ****         if(proc->reset_query) return;
  62:Drivers/lvgl/src/core/lv_indev_scroll.c ****     }
  63:Drivers/lvgl/src/core/lv_indev_scroll.c **** 
  64:Drivers/lvgl/src/core/lv_indev_scroll.c ****     /*Set new position or scroll if the vector is not zero*/
  65:Drivers/lvgl/src/core/lv_indev_scroll.c ****     int16_t angle = 0;
  66:Drivers/lvgl/src/core/lv_indev_scroll.c ****     int16_t zoom = 256;
  67:Drivers/lvgl/src/core/lv_indev_scroll.c ****     lv_obj_t * parent = scroll_obj;
  68:Drivers/lvgl/src/core/lv_indev_scroll.c ****     while(parent) {
  69:Drivers/lvgl/src/core/lv_indev_scroll.c ****         angle += lv_obj_get_style_transform_angle(parent, 0);
  70:Drivers/lvgl/src/core/lv_indev_scroll.c ****         zoom *= (lv_obj_get_style_transform_zoom(parent, 0) / 256);
  71:Drivers/lvgl/src/core/lv_indev_scroll.c ****         parent = lv_obj_get_parent(parent);
  72:Drivers/lvgl/src/core/lv_indev_scroll.c ****     }
  73:Drivers/lvgl/src/core/lv_indev_scroll.c **** 
  74:Drivers/lvgl/src/core/lv_indev_scroll.c ****     if(angle != 0 || zoom != LV_IMG_ZOOM_NONE) {
  75:Drivers/lvgl/src/core/lv_indev_scroll.c ****         angle = -angle;
  76:Drivers/lvgl/src/core/lv_indev_scroll.c ****         zoom = (256 * 256) / zoom;
  77:Drivers/lvgl/src/core/lv_indev_scroll.c ****         lv_point_t pivot = { 0, 0 };
  78:Drivers/lvgl/src/core/lv_indev_scroll.c ****         lv_point_transform(&proc->types.pointer.vect, angle, zoom, &pivot);
  79:Drivers/lvgl/src/core/lv_indev_scroll.c ****     }
  80:Drivers/lvgl/src/core/lv_indev_scroll.c **** 
  81:Drivers/lvgl/src/core/lv_indev_scroll.c **** 
  82:Drivers/lvgl/src/core/lv_indev_scroll.c **** 
  83:Drivers/lvgl/src/core/lv_indev_scroll.c ****     lv_coord_t diff_x = 0;
  84:Drivers/lvgl/src/core/lv_indev_scroll.c ****     lv_coord_t diff_y = 0;
  85:Drivers/lvgl/src/core/lv_indev_scroll.c ****     if(proc->types.pointer.scroll_dir == LV_DIR_HOR) {
  86:Drivers/lvgl/src/core/lv_indev_scroll.c ****         lv_coord_t sr = lv_obj_get_scroll_right(scroll_obj);
  87:Drivers/lvgl/src/core/lv_indev_scroll.c ****         lv_coord_t sl = lv_obj_get_scroll_left(scroll_obj);
  88:Drivers/lvgl/src/core/lv_indev_scroll.c ****         diff_x = elastic_diff(scroll_obj, proc->types.pointer.vect.x, sl, sr, LV_DIR_HOR);
ARM GAS  /var/folders/0z/tsy30v1j4xl4_7kw94k978ww0000gn/T//cc5O5B9v.s 			page 3


  89:Drivers/lvgl/src/core/lv_indev_scroll.c ****     }
  90:Drivers/lvgl/src/core/lv_indev_scroll.c ****     else {
  91:Drivers/lvgl/src/core/lv_indev_scroll.c ****         lv_coord_t st = lv_obj_get_scroll_top(scroll_obj);
  92:Drivers/lvgl/src/core/lv_indev_scroll.c ****         lv_coord_t sb = lv_obj_get_scroll_bottom(scroll_obj);
  93:Drivers/lvgl/src/core/lv_indev_scroll.c ****         diff_y = elastic_diff(scroll_obj, proc->types.pointer.vect.y, st, sb, LV_DIR_VER);
  94:Drivers/lvgl/src/core/lv_indev_scroll.c ****     }
  95:Drivers/lvgl/src/core/lv_indev_scroll.c **** 
  96:Drivers/lvgl/src/core/lv_indev_scroll.c ****     lv_dir_t scroll_dir = lv_obj_get_scroll_dir(scroll_obj);
  97:Drivers/lvgl/src/core/lv_indev_scroll.c ****     if((scroll_dir & LV_DIR_LEFT)   == 0 && diff_x > 0) diff_x = 0;
  98:Drivers/lvgl/src/core/lv_indev_scroll.c ****     if((scroll_dir & LV_DIR_RIGHT)  == 0 && diff_x < 0) diff_x = 0;
  99:Drivers/lvgl/src/core/lv_indev_scroll.c ****     if((scroll_dir & LV_DIR_TOP)    == 0 && diff_y > 0) diff_y = 0;
 100:Drivers/lvgl/src/core/lv_indev_scroll.c ****     if((scroll_dir & LV_DIR_BOTTOM) == 0 && diff_y < 0) diff_y = 0;
 101:Drivers/lvgl/src/core/lv_indev_scroll.c **** 
 102:Drivers/lvgl/src/core/lv_indev_scroll.c ****     /*Respect the scroll limit area*/
 103:Drivers/lvgl/src/core/lv_indev_scroll.c ****     scroll_limit_diff(proc, &diff_x, &diff_y);
 104:Drivers/lvgl/src/core/lv_indev_scroll.c **** 
 105:Drivers/lvgl/src/core/lv_indev_scroll.c ****     _lv_obj_scroll_by_raw(scroll_obj, diff_x, diff_y);
 106:Drivers/lvgl/src/core/lv_indev_scroll.c ****     if(proc->reset_query) return;
 107:Drivers/lvgl/src/core/lv_indev_scroll.c ****     proc->types.pointer.scroll_sum.x += diff_x;
 108:Drivers/lvgl/src/core/lv_indev_scroll.c ****     proc->types.pointer.scroll_sum.y += diff_y;
 109:Drivers/lvgl/src/core/lv_indev_scroll.c **** }
 110:Drivers/lvgl/src/core/lv_indev_scroll.c **** 
 111:Drivers/lvgl/src/core/lv_indev_scroll.c **** 
 112:Drivers/lvgl/src/core/lv_indev_scroll.c **** void _lv_indev_scroll_throw_handler(_lv_indev_proc_t * proc)
 113:Drivers/lvgl/src/core/lv_indev_scroll.c **** {
 114:Drivers/lvgl/src/core/lv_indev_scroll.c ****     lv_obj_t * scroll_obj = proc->types.pointer.scroll_obj;
 115:Drivers/lvgl/src/core/lv_indev_scroll.c ****     if(scroll_obj == NULL) return;
 116:Drivers/lvgl/src/core/lv_indev_scroll.c ****     if(proc->types.pointer.scroll_dir == LV_DIR_NONE) return;
 117:Drivers/lvgl/src/core/lv_indev_scroll.c **** 
 118:Drivers/lvgl/src/core/lv_indev_scroll.c ****     lv_indev_t * indev_act = lv_indev_get_act();
 119:Drivers/lvgl/src/core/lv_indev_scroll.c ****     lv_coord_t scroll_throw = indev_act->driver->scroll_throw;
 120:Drivers/lvgl/src/core/lv_indev_scroll.c **** 
 121:Drivers/lvgl/src/core/lv_indev_scroll.c ****     if(lv_obj_has_flag(scroll_obj, LV_OBJ_FLAG_SCROLL_MOMENTUM) == false) {
 122:Drivers/lvgl/src/core/lv_indev_scroll.c ****         proc->types.pointer.scroll_throw_vect.y = 0;
 123:Drivers/lvgl/src/core/lv_indev_scroll.c ****         proc->types.pointer.scroll_throw_vect.x = 0;
 124:Drivers/lvgl/src/core/lv_indev_scroll.c ****     }
 125:Drivers/lvgl/src/core/lv_indev_scroll.c **** 
 126:Drivers/lvgl/src/core/lv_indev_scroll.c ****     lv_scroll_snap_t align_x = lv_obj_get_scroll_snap_x(scroll_obj);
 127:Drivers/lvgl/src/core/lv_indev_scroll.c ****     lv_scroll_snap_t align_y = lv_obj_get_scroll_snap_y(scroll_obj);
 128:Drivers/lvgl/src/core/lv_indev_scroll.c **** 
 129:Drivers/lvgl/src/core/lv_indev_scroll.c ****     if(proc->types.pointer.scroll_dir == LV_DIR_VER) {
 130:Drivers/lvgl/src/core/lv_indev_scroll.c ****         proc->types.pointer.scroll_throw_vect.x = 0;
 131:Drivers/lvgl/src/core/lv_indev_scroll.c ****         /*If no snapping "throw"*/
 132:Drivers/lvgl/src/core/lv_indev_scroll.c ****         if(align_y == LV_SCROLL_SNAP_NONE) {
 133:Drivers/lvgl/src/core/lv_indev_scroll.c ****             proc->types.pointer.scroll_throw_vect.y =
 134:Drivers/lvgl/src/core/lv_indev_scroll.c ****                 proc->types.pointer.scroll_throw_vect.y * (100 - scroll_throw) / 100;
 135:Drivers/lvgl/src/core/lv_indev_scroll.c **** 
 136:Drivers/lvgl/src/core/lv_indev_scroll.c ****             lv_coord_t sb = lv_obj_get_scroll_bottom(scroll_obj);
 137:Drivers/lvgl/src/core/lv_indev_scroll.c ****             lv_coord_t st = lv_obj_get_scroll_top(scroll_obj);
 138:Drivers/lvgl/src/core/lv_indev_scroll.c **** 
 139:Drivers/lvgl/src/core/lv_indev_scroll.c ****             proc->types.pointer.scroll_throw_vect.y = elastic_diff(scroll_obj, proc->types.pointer.
 140:Drivers/lvgl/src/core/lv_indev_scroll.c ****                                                                    LV_DIR_VER);
 141:Drivers/lvgl/src/core/lv_indev_scroll.c **** 
 142:Drivers/lvgl/src/core/lv_indev_scroll.c ****             lv_obj_scroll_by(scroll_obj, 0, proc->types.pointer.scroll_throw_vect.y, LV_ANIM_OFF);
 143:Drivers/lvgl/src/core/lv_indev_scroll.c ****         }
 144:Drivers/lvgl/src/core/lv_indev_scroll.c ****         /*With snapping find the nearest snap point and scroll there*/
 145:Drivers/lvgl/src/core/lv_indev_scroll.c ****         else {
ARM GAS  /var/folders/0z/tsy30v1j4xl4_7kw94k978ww0000gn/T//cc5O5B9v.s 			page 4


 146:Drivers/lvgl/src/core/lv_indev_scroll.c ****             lv_coord_t diff_y = scroll_throw_predict_y(proc);
 147:Drivers/lvgl/src/core/lv_indev_scroll.c ****             proc->types.pointer.scroll_throw_vect.y = 0;
 148:Drivers/lvgl/src/core/lv_indev_scroll.c ****             scroll_limit_diff(proc, NULL, &diff_y);
 149:Drivers/lvgl/src/core/lv_indev_scroll.c ****             lv_coord_t y = find_snap_point_y(scroll_obj, LV_COORD_MIN, LV_COORD_MAX, diff_y);
 150:Drivers/lvgl/src/core/lv_indev_scroll.c ****             lv_obj_scroll_by(scroll_obj, 0, diff_y + y, LV_ANIM_ON);
 151:Drivers/lvgl/src/core/lv_indev_scroll.c ****         }
 152:Drivers/lvgl/src/core/lv_indev_scroll.c ****     }
 153:Drivers/lvgl/src/core/lv_indev_scroll.c ****     else if(proc->types.pointer.scroll_dir == LV_DIR_HOR) {
 154:Drivers/lvgl/src/core/lv_indev_scroll.c ****         proc->types.pointer.scroll_throw_vect.y = 0;
 155:Drivers/lvgl/src/core/lv_indev_scroll.c ****         /*If no snapping "throw"*/
 156:Drivers/lvgl/src/core/lv_indev_scroll.c ****         if(align_x == LV_SCROLL_SNAP_NONE) {
 157:Drivers/lvgl/src/core/lv_indev_scroll.c ****             proc->types.pointer.scroll_throw_vect.x =
 158:Drivers/lvgl/src/core/lv_indev_scroll.c ****                 proc->types.pointer.scroll_throw_vect.x * (100 - scroll_throw) / 100;
 159:Drivers/lvgl/src/core/lv_indev_scroll.c **** 
 160:Drivers/lvgl/src/core/lv_indev_scroll.c ****             lv_coord_t sl = lv_obj_get_scroll_left(scroll_obj);
 161:Drivers/lvgl/src/core/lv_indev_scroll.c ****             lv_coord_t sr = lv_obj_get_scroll_right(scroll_obj);
 162:Drivers/lvgl/src/core/lv_indev_scroll.c **** 
 163:Drivers/lvgl/src/core/lv_indev_scroll.c ****             proc->types.pointer.scroll_throw_vect.x = elastic_diff(scroll_obj, proc->types.pointer.
 164:Drivers/lvgl/src/core/lv_indev_scroll.c ****                                                                    LV_DIR_HOR);
 165:Drivers/lvgl/src/core/lv_indev_scroll.c **** 
 166:Drivers/lvgl/src/core/lv_indev_scroll.c ****             lv_obj_scroll_by(scroll_obj, proc->types.pointer.scroll_throw_vect.x, 0, LV_ANIM_OFF);
 167:Drivers/lvgl/src/core/lv_indev_scroll.c ****         }
 168:Drivers/lvgl/src/core/lv_indev_scroll.c ****         /*With snapping find the nearest snap point and scroll there*/
 169:Drivers/lvgl/src/core/lv_indev_scroll.c ****         else {
 170:Drivers/lvgl/src/core/lv_indev_scroll.c ****             lv_coord_t diff_x = scroll_throw_predict_x(proc);
 171:Drivers/lvgl/src/core/lv_indev_scroll.c ****             proc->types.pointer.scroll_throw_vect.x = 0;
 172:Drivers/lvgl/src/core/lv_indev_scroll.c ****             scroll_limit_diff(proc, &diff_x, NULL);
 173:Drivers/lvgl/src/core/lv_indev_scroll.c ****             lv_coord_t x = find_snap_point_x(scroll_obj, LV_COORD_MIN, LV_COORD_MAX, diff_x);
 174:Drivers/lvgl/src/core/lv_indev_scroll.c ****             lv_obj_scroll_by(scroll_obj, x + diff_x, 0, LV_ANIM_ON);
 175:Drivers/lvgl/src/core/lv_indev_scroll.c ****         }
 176:Drivers/lvgl/src/core/lv_indev_scroll.c ****     }
 177:Drivers/lvgl/src/core/lv_indev_scroll.c **** 
 178:Drivers/lvgl/src/core/lv_indev_scroll.c ****     /*Check if the scroll has finished*/
 179:Drivers/lvgl/src/core/lv_indev_scroll.c ****     if(proc->types.pointer.scroll_throw_vect.x == 0 && proc->types.pointer.scroll_throw_vect.y == 0
 180:Drivers/lvgl/src/core/lv_indev_scroll.c ****         /*Revert if scrolled in*/
 181:Drivers/lvgl/src/core/lv_indev_scroll.c ****         /*If vertically scrollable and not controlled by snap*/
 182:Drivers/lvgl/src/core/lv_indev_scroll.c ****         if(align_y == LV_SCROLL_SNAP_NONE) {
 183:Drivers/lvgl/src/core/lv_indev_scroll.c ****             lv_coord_t st = lv_obj_get_scroll_top(scroll_obj);
 184:Drivers/lvgl/src/core/lv_indev_scroll.c ****             lv_coord_t sb = lv_obj_get_scroll_bottom(scroll_obj);
 185:Drivers/lvgl/src/core/lv_indev_scroll.c ****             if(st > 0 || sb > 0) {
 186:Drivers/lvgl/src/core/lv_indev_scroll.c ****                 if(st < 0) {
 187:Drivers/lvgl/src/core/lv_indev_scroll.c ****                     lv_obj_scroll_by(scroll_obj, 0, st, LV_ANIM_ON);
 188:Drivers/lvgl/src/core/lv_indev_scroll.c ****                 }
 189:Drivers/lvgl/src/core/lv_indev_scroll.c ****                 else if(sb < 0) {
 190:Drivers/lvgl/src/core/lv_indev_scroll.c ****                     lv_obj_scroll_by(scroll_obj, 0, -sb, LV_ANIM_ON);
 191:Drivers/lvgl/src/core/lv_indev_scroll.c ****                 }
 192:Drivers/lvgl/src/core/lv_indev_scroll.c ****             }
 193:Drivers/lvgl/src/core/lv_indev_scroll.c ****         }
 194:Drivers/lvgl/src/core/lv_indev_scroll.c **** 
 195:Drivers/lvgl/src/core/lv_indev_scroll.c ****         /*If horizontally scrollable and not controlled by snap*/
 196:Drivers/lvgl/src/core/lv_indev_scroll.c ****         if(align_x == LV_SCROLL_SNAP_NONE) {
 197:Drivers/lvgl/src/core/lv_indev_scroll.c ****             lv_coord_t sl = lv_obj_get_scroll_left(scroll_obj);
 198:Drivers/lvgl/src/core/lv_indev_scroll.c ****             lv_coord_t sr = lv_obj_get_scroll_right(scroll_obj);
 199:Drivers/lvgl/src/core/lv_indev_scroll.c ****             if(sl > 0 || sr > 0) {
 200:Drivers/lvgl/src/core/lv_indev_scroll.c ****                 if(sl < 0) {
 201:Drivers/lvgl/src/core/lv_indev_scroll.c ****                     lv_obj_scroll_by(scroll_obj, sl, 0, LV_ANIM_ON);
 202:Drivers/lvgl/src/core/lv_indev_scroll.c ****                 }
ARM GAS  /var/folders/0z/tsy30v1j4xl4_7kw94k978ww0000gn/T//cc5O5B9v.s 			page 5


 203:Drivers/lvgl/src/core/lv_indev_scroll.c ****                 else if(sr < 0) {
 204:Drivers/lvgl/src/core/lv_indev_scroll.c ****                     lv_obj_scroll_by(scroll_obj, -sr, 0, LV_ANIM_ON);
 205:Drivers/lvgl/src/core/lv_indev_scroll.c ****                 }
 206:Drivers/lvgl/src/core/lv_indev_scroll.c ****             }
 207:Drivers/lvgl/src/core/lv_indev_scroll.c ****         }
 208:Drivers/lvgl/src/core/lv_indev_scroll.c **** 
 209:Drivers/lvgl/src/core/lv_indev_scroll.c ****         lv_event_send(scroll_obj, LV_EVENT_SCROLL_END, indev_act);
 210:Drivers/lvgl/src/core/lv_indev_scroll.c ****         if(proc->reset_query) return;
 211:Drivers/lvgl/src/core/lv_indev_scroll.c **** 
 212:Drivers/lvgl/src/core/lv_indev_scroll.c ****         proc->types.pointer.scroll_dir = LV_DIR_NONE;
 213:Drivers/lvgl/src/core/lv_indev_scroll.c ****         proc->types.pointer.scroll_obj = NULL;
 214:Drivers/lvgl/src/core/lv_indev_scroll.c ****     }
 215:Drivers/lvgl/src/core/lv_indev_scroll.c **** }
 216:Drivers/lvgl/src/core/lv_indev_scroll.c **** 
 217:Drivers/lvgl/src/core/lv_indev_scroll.c **** /**
 218:Drivers/lvgl/src/core/lv_indev_scroll.c ****  * Predict where would a scroll throw end
 219:Drivers/lvgl/src/core/lv_indev_scroll.c ****  * @param indev pointer to an input device
 220:Drivers/lvgl/src/core/lv_indev_scroll.c ****  * @param dir `LV_DIR_VER` or `LV_DIR_HOR`
 221:Drivers/lvgl/src/core/lv_indev_scroll.c ****  * @return the difference compared to the current position when the throw would be finished
 222:Drivers/lvgl/src/core/lv_indev_scroll.c ****  */
 223:Drivers/lvgl/src/core/lv_indev_scroll.c **** lv_coord_t lv_indev_scroll_throw_predict(lv_indev_t * indev, lv_dir_t dir)
 224:Drivers/lvgl/src/core/lv_indev_scroll.c **** {
 225:Drivers/lvgl/src/core/lv_indev_scroll.c ****     if(indev == NULL) return 0;
 226:Drivers/lvgl/src/core/lv_indev_scroll.c ****     lv_coord_t v;
 227:Drivers/lvgl/src/core/lv_indev_scroll.c ****     switch(dir) {
 228:Drivers/lvgl/src/core/lv_indev_scroll.c ****         case LV_DIR_VER:
 229:Drivers/lvgl/src/core/lv_indev_scroll.c ****             v = indev->proc.types.pointer.scroll_throw_vect_ori.y;
 230:Drivers/lvgl/src/core/lv_indev_scroll.c ****             break;
 231:Drivers/lvgl/src/core/lv_indev_scroll.c ****         case LV_DIR_HOR:
 232:Drivers/lvgl/src/core/lv_indev_scroll.c ****             v = indev->proc.types.pointer.scroll_throw_vect_ori.x;
 233:Drivers/lvgl/src/core/lv_indev_scroll.c ****             break;
 234:Drivers/lvgl/src/core/lv_indev_scroll.c ****         default:
 235:Drivers/lvgl/src/core/lv_indev_scroll.c ****             return 0;
 236:Drivers/lvgl/src/core/lv_indev_scroll.c ****     }
 237:Drivers/lvgl/src/core/lv_indev_scroll.c **** 
 238:Drivers/lvgl/src/core/lv_indev_scroll.c ****     lv_coord_t scroll_throw = indev->driver->scroll_throw;
 239:Drivers/lvgl/src/core/lv_indev_scroll.c ****     lv_coord_t sum = 0;
 240:Drivers/lvgl/src/core/lv_indev_scroll.c ****     while(v) {
 241:Drivers/lvgl/src/core/lv_indev_scroll.c ****         sum += v;
 242:Drivers/lvgl/src/core/lv_indev_scroll.c ****         v = v * (100 - scroll_throw) / 100;
 243:Drivers/lvgl/src/core/lv_indev_scroll.c ****     }
 244:Drivers/lvgl/src/core/lv_indev_scroll.c **** 
 245:Drivers/lvgl/src/core/lv_indev_scroll.c ****     return sum;
 246:Drivers/lvgl/src/core/lv_indev_scroll.c **** }
 247:Drivers/lvgl/src/core/lv_indev_scroll.c **** 
 248:Drivers/lvgl/src/core/lv_indev_scroll.c **** void lv_indev_scroll_get_snap_dist(lv_obj_t * obj, lv_point_t * p)
 249:Drivers/lvgl/src/core/lv_indev_scroll.c **** {
 250:Drivers/lvgl/src/core/lv_indev_scroll.c ****     p->x = find_snap_point_x(obj, obj->coords.x1, obj->coords.x2, 0);
 251:Drivers/lvgl/src/core/lv_indev_scroll.c ****     p->y = find_snap_point_y(obj, obj->coords.y1, obj->coords.y2, 0);
 252:Drivers/lvgl/src/core/lv_indev_scroll.c **** }
 253:Drivers/lvgl/src/core/lv_indev_scroll.c **** 
 254:Drivers/lvgl/src/core/lv_indev_scroll.c **** /**********************
 255:Drivers/lvgl/src/core/lv_indev_scroll.c ****  *   STATIC FUNCTIONS
 256:Drivers/lvgl/src/core/lv_indev_scroll.c ****  **********************/
 257:Drivers/lvgl/src/core/lv_indev_scroll.c **** 
 258:Drivers/lvgl/src/core/lv_indev_scroll.c **** static lv_obj_t * find_scroll_obj(_lv_indev_proc_t * proc)
 259:Drivers/lvgl/src/core/lv_indev_scroll.c **** {
ARM GAS  /var/folders/0z/tsy30v1j4xl4_7kw94k978ww0000gn/T//cc5O5B9v.s 			page 6


 260:Drivers/lvgl/src/core/lv_indev_scroll.c ****     lv_obj_t * obj_candidate = NULL;
 261:Drivers/lvgl/src/core/lv_indev_scroll.c ****     lv_dir_t dir_candidate = LV_DIR_NONE;
 262:Drivers/lvgl/src/core/lv_indev_scroll.c ****     lv_indev_t * indev_act = lv_indev_get_act();
 263:Drivers/lvgl/src/core/lv_indev_scroll.c ****     lv_coord_t scroll_limit = indev_act->driver->scroll_limit;
 264:Drivers/lvgl/src/core/lv_indev_scroll.c **** 
 265:Drivers/lvgl/src/core/lv_indev_scroll.c ****     /*Go until find a scrollable object in the current direction
 266:Drivers/lvgl/src/core/lv_indev_scroll.c ****      *More precisely:
 267:Drivers/lvgl/src/core/lv_indev_scroll.c ****      * 1. Check the pressed object and all of its ancestors and try to find an object which is scro
 268:Drivers/lvgl/src/core/lv_indev_scroll.c ****      * 2. Scrollable means it has some content out of its area
 269:Drivers/lvgl/src/core/lv_indev_scroll.c ****      * 3. If an object can be scrolled into the current direction then use it ("real match"")
 270:Drivers/lvgl/src/core/lv_indev_scroll.c ****      * 4. If can be scrolled on the current axis (hor/ver) save it as candidate (at least show an e
 271:Drivers/lvgl/src/core/lv_indev_scroll.c ****      * 5. Use the last candidate. Always the "deepest" parent or the object from point 3*/
 272:Drivers/lvgl/src/core/lv_indev_scroll.c ****     lv_obj_t * obj_act = proc->types.pointer.act_obj;
 273:Drivers/lvgl/src/core/lv_indev_scroll.c **** 
 274:Drivers/lvgl/src/core/lv_indev_scroll.c ****     /*Decide if it's a horizontal or vertical scroll*/
 275:Drivers/lvgl/src/core/lv_indev_scroll.c ****     bool hor_en = false;
 276:Drivers/lvgl/src/core/lv_indev_scroll.c ****     bool ver_en = false;
 277:Drivers/lvgl/src/core/lv_indev_scroll.c **** 
 278:Drivers/lvgl/src/core/lv_indev_scroll.c ****     proc->types.pointer.scroll_sum.x += proc->types.pointer.vect.x;
 279:Drivers/lvgl/src/core/lv_indev_scroll.c ****     proc->types.pointer.scroll_sum.y += proc->types.pointer.vect.y;
 280:Drivers/lvgl/src/core/lv_indev_scroll.c **** 
 281:Drivers/lvgl/src/core/lv_indev_scroll.c ****     while(obj_act) {
 282:Drivers/lvgl/src/core/lv_indev_scroll.c ****         /*Get the transformed scroll_sum with this object*/
 283:Drivers/lvgl/src/core/lv_indev_scroll.c ****         int16_t angle = 0;
 284:Drivers/lvgl/src/core/lv_indev_scroll.c ****         int32_t zoom = 256;
 285:Drivers/lvgl/src/core/lv_indev_scroll.c ****         lv_point_t pivot = { 0, 0 };
 286:Drivers/lvgl/src/core/lv_indev_scroll.c ****         lv_obj_t * parent = obj_act;
 287:Drivers/lvgl/src/core/lv_indev_scroll.c ****         while(parent) {
 288:Drivers/lvgl/src/core/lv_indev_scroll.c ****             angle += lv_obj_get_style_transform_angle(parent, 0);
 289:Drivers/lvgl/src/core/lv_indev_scroll.c ****             int32_t zoom_act = lv_obj_get_style_transform_zoom(parent, 0);
 290:Drivers/lvgl/src/core/lv_indev_scroll.c ****             zoom = (zoom * zoom_act) >> 8;
 291:Drivers/lvgl/src/core/lv_indev_scroll.c ****             parent = lv_obj_get_parent(parent);
 292:Drivers/lvgl/src/core/lv_indev_scroll.c ****         }
 293:Drivers/lvgl/src/core/lv_indev_scroll.c **** 
 294:Drivers/lvgl/src/core/lv_indev_scroll.c ****         lv_point_t obj_scroll_sum = proc->types.pointer.scroll_sum;
 295:Drivers/lvgl/src/core/lv_indev_scroll.c ****         if(angle != 0 || zoom != LV_IMG_ZOOM_NONE) {
 296:Drivers/lvgl/src/core/lv_indev_scroll.c ****             angle = -angle;
 297:Drivers/lvgl/src/core/lv_indev_scroll.c ****             zoom = (256 * 256) / zoom;
 298:Drivers/lvgl/src/core/lv_indev_scroll.c ****             lv_point_transform(&obj_scroll_sum, angle, zoom, &pivot);
 299:Drivers/lvgl/src/core/lv_indev_scroll.c ****         }
 300:Drivers/lvgl/src/core/lv_indev_scroll.c **** 
 301:Drivers/lvgl/src/core/lv_indev_scroll.c ****         if(LV_ABS(obj_scroll_sum.x) > LV_ABS(obj_scroll_sum.y)) {
 302:Drivers/lvgl/src/core/lv_indev_scroll.c ****             hor_en = true;
 303:Drivers/lvgl/src/core/lv_indev_scroll.c ****         }
 304:Drivers/lvgl/src/core/lv_indev_scroll.c ****         else {
 305:Drivers/lvgl/src/core/lv_indev_scroll.c ****             ver_en = true;
 306:Drivers/lvgl/src/core/lv_indev_scroll.c ****         }
 307:Drivers/lvgl/src/core/lv_indev_scroll.c **** 
 308:Drivers/lvgl/src/core/lv_indev_scroll.c ****         if(lv_obj_has_flag(obj_act, LV_OBJ_FLAG_SCROLLABLE) == false) {
 309:Drivers/lvgl/src/core/lv_indev_scroll.c ****             /*If this object don't want to chain the scroll to the parent stop searching*/
 310:Drivers/lvgl/src/core/lv_indev_scroll.c ****             if(lv_obj_has_flag(obj_act, LV_OBJ_FLAG_SCROLL_CHAIN_HOR) == false && hor_en) break;
 311:Drivers/lvgl/src/core/lv_indev_scroll.c ****             if(lv_obj_has_flag(obj_act, LV_OBJ_FLAG_SCROLL_CHAIN_VER) == false && ver_en) break;
 312:Drivers/lvgl/src/core/lv_indev_scroll.c **** 
 313:Drivers/lvgl/src/core/lv_indev_scroll.c ****             obj_act = lv_obj_get_parent(obj_act);
 314:Drivers/lvgl/src/core/lv_indev_scroll.c ****             continue;
 315:Drivers/lvgl/src/core/lv_indev_scroll.c ****         }
 316:Drivers/lvgl/src/core/lv_indev_scroll.c **** 
ARM GAS  /var/folders/0z/tsy30v1j4xl4_7kw94k978ww0000gn/T//cc5O5B9v.s 			page 7


 317:Drivers/lvgl/src/core/lv_indev_scroll.c ****         /*Consider both up-down or left/right scrollable according to the current direction*/
 318:Drivers/lvgl/src/core/lv_indev_scroll.c ****         bool up_en = ver_en;
 319:Drivers/lvgl/src/core/lv_indev_scroll.c ****         bool down_en = ver_en;
 320:Drivers/lvgl/src/core/lv_indev_scroll.c ****         bool left_en = hor_en;
 321:Drivers/lvgl/src/core/lv_indev_scroll.c ****         bool right_en = hor_en;
 322:Drivers/lvgl/src/core/lv_indev_scroll.c **** 
 323:Drivers/lvgl/src/core/lv_indev_scroll.c ****         /*The object might have disabled some directions.*/
 324:Drivers/lvgl/src/core/lv_indev_scroll.c ****         lv_dir_t scroll_dir = lv_obj_get_scroll_dir(obj_act);
 325:Drivers/lvgl/src/core/lv_indev_scroll.c ****         if((scroll_dir & LV_DIR_LEFT) == 0) left_en = false;
 326:Drivers/lvgl/src/core/lv_indev_scroll.c ****         if((scroll_dir & LV_DIR_RIGHT) == 0) right_en = false;
 327:Drivers/lvgl/src/core/lv_indev_scroll.c ****         if((scroll_dir & LV_DIR_TOP) == 0) up_en = false;
 328:Drivers/lvgl/src/core/lv_indev_scroll.c ****         if((scroll_dir & LV_DIR_BOTTOM) == 0) down_en = false;
 329:Drivers/lvgl/src/core/lv_indev_scroll.c **** 
 330:Drivers/lvgl/src/core/lv_indev_scroll.c ****         /*The object is scrollable to a direction if its content overflow in that direction.*/
 331:Drivers/lvgl/src/core/lv_indev_scroll.c ****         lv_coord_t st = lv_obj_get_scroll_top(obj_act);
 332:Drivers/lvgl/src/core/lv_indev_scroll.c ****         lv_coord_t sb = lv_obj_get_scroll_bottom(obj_act);
 333:Drivers/lvgl/src/core/lv_indev_scroll.c ****         lv_coord_t sl = lv_obj_get_scroll_left(obj_act);
 334:Drivers/lvgl/src/core/lv_indev_scroll.c ****         lv_coord_t sr = lv_obj_get_scroll_right(obj_act);
 335:Drivers/lvgl/src/core/lv_indev_scroll.c **** 
 336:Drivers/lvgl/src/core/lv_indev_scroll.c ****         /*If this object is scrollable into the current scroll direction then save it as a candidat
 337:Drivers/lvgl/src/core/lv_indev_scroll.c ****          *It's important only to be scrollable on the current axis (hor/ver) because if the scroll
 338:Drivers/lvgl/src/core/lv_indev_scroll.c ****          *is propagated to this object it can show at least elastic scroll effect.
 339:Drivers/lvgl/src/core/lv_indev_scroll.c ****          *But if not hor/ver scrollable do not scroll it at all (so it's not a good candidate)*/
 340:Drivers/lvgl/src/core/lv_indev_scroll.c ****         if((st > 0 || sb > 0)  &&
 341:Drivers/lvgl/src/core/lv_indev_scroll.c ****            ((up_en    && obj_scroll_sum.y >=   scroll_limit) ||
 342:Drivers/lvgl/src/core/lv_indev_scroll.c ****             (down_en  && obj_scroll_sum.y <= - scroll_limit))) {
 343:Drivers/lvgl/src/core/lv_indev_scroll.c ****             obj_candidate = obj_act;
 344:Drivers/lvgl/src/core/lv_indev_scroll.c ****             dir_candidate = LV_DIR_VER;
 345:Drivers/lvgl/src/core/lv_indev_scroll.c ****         }
 346:Drivers/lvgl/src/core/lv_indev_scroll.c **** 
 347:Drivers/lvgl/src/core/lv_indev_scroll.c ****         if((sl > 0 || sr > 0)  &&
 348:Drivers/lvgl/src/core/lv_indev_scroll.c ****            ((left_en   && obj_scroll_sum.x >=   scroll_limit) ||
 349:Drivers/lvgl/src/core/lv_indev_scroll.c ****             (right_en  && obj_scroll_sum.x <= - scroll_limit))) {
 350:Drivers/lvgl/src/core/lv_indev_scroll.c ****             obj_candidate = obj_act;
 351:Drivers/lvgl/src/core/lv_indev_scroll.c ****             dir_candidate = LV_DIR_HOR;
 352:Drivers/lvgl/src/core/lv_indev_scroll.c ****         }
 353:Drivers/lvgl/src/core/lv_indev_scroll.c **** 
 354:Drivers/lvgl/src/core/lv_indev_scroll.c ****         if(st <= 0) up_en = false;
 355:Drivers/lvgl/src/core/lv_indev_scroll.c ****         if(sb <= 0) down_en = false;
 356:Drivers/lvgl/src/core/lv_indev_scroll.c ****         if(sl <= 0) left_en = false;
 357:Drivers/lvgl/src/core/lv_indev_scroll.c ****         if(sr <= 0) right_en = false;
 358:Drivers/lvgl/src/core/lv_indev_scroll.c **** 
 359:Drivers/lvgl/src/core/lv_indev_scroll.c ****         /*If the object really can be scrolled into the current direction then use it.*/
 360:Drivers/lvgl/src/core/lv_indev_scroll.c ****         if((left_en  && obj_scroll_sum.x >=   scroll_limit) ||
 361:Drivers/lvgl/src/core/lv_indev_scroll.c ****            (right_en && obj_scroll_sum.x <= - scroll_limit) ||
 362:Drivers/lvgl/src/core/lv_indev_scroll.c ****            (up_en    && obj_scroll_sum.y >=   scroll_limit) ||
 363:Drivers/lvgl/src/core/lv_indev_scroll.c ****            (down_en  && obj_scroll_sum.y <= - scroll_limit)) {
 364:Drivers/lvgl/src/core/lv_indev_scroll.c ****             proc->types.pointer.scroll_dir = hor_en ? LV_DIR_HOR : LV_DIR_VER;
 365:Drivers/lvgl/src/core/lv_indev_scroll.c ****             break;
 366:Drivers/lvgl/src/core/lv_indev_scroll.c ****         }
 367:Drivers/lvgl/src/core/lv_indev_scroll.c **** 
 368:Drivers/lvgl/src/core/lv_indev_scroll.c ****         /*If this object don't want to chain the scroll to the parent stop searching*/
 369:Drivers/lvgl/src/core/lv_indev_scroll.c ****         if(lv_obj_has_flag(obj_act, LV_OBJ_FLAG_SCROLL_CHAIN_HOR) == false && hor_en) break;
 370:Drivers/lvgl/src/core/lv_indev_scroll.c ****         if(lv_obj_has_flag(obj_act, LV_OBJ_FLAG_SCROLL_CHAIN_VER) == false && ver_en) break;
 371:Drivers/lvgl/src/core/lv_indev_scroll.c **** 
 372:Drivers/lvgl/src/core/lv_indev_scroll.c ****         /*Try the parent*/
 373:Drivers/lvgl/src/core/lv_indev_scroll.c ****         obj_act = lv_obj_get_parent(obj_act);
ARM GAS  /var/folders/0z/tsy30v1j4xl4_7kw94k978ww0000gn/T//cc5O5B9v.s 			page 8


 374:Drivers/lvgl/src/core/lv_indev_scroll.c ****     }
 375:Drivers/lvgl/src/core/lv_indev_scroll.c **** 
 376:Drivers/lvgl/src/core/lv_indev_scroll.c ****     /*Use the last candidate*/
 377:Drivers/lvgl/src/core/lv_indev_scroll.c ****     if(obj_candidate) {
 378:Drivers/lvgl/src/core/lv_indev_scroll.c ****         proc->types.pointer.scroll_dir = dir_candidate;
 379:Drivers/lvgl/src/core/lv_indev_scroll.c ****         proc->types.pointer.scroll_obj = obj_candidate;
 380:Drivers/lvgl/src/core/lv_indev_scroll.c ****         proc->types.pointer.scroll_sum.x = 0;
 381:Drivers/lvgl/src/core/lv_indev_scroll.c ****         proc->types.pointer.scroll_sum.y = 0;
 382:Drivers/lvgl/src/core/lv_indev_scroll.c ****     }
 383:Drivers/lvgl/src/core/lv_indev_scroll.c **** 
 384:Drivers/lvgl/src/core/lv_indev_scroll.c ****     return obj_candidate;
 385:Drivers/lvgl/src/core/lv_indev_scroll.c **** }
 386:Drivers/lvgl/src/core/lv_indev_scroll.c **** 
 387:Drivers/lvgl/src/core/lv_indev_scroll.c **** static void init_scroll_limits(_lv_indev_proc_t * proc)
 388:Drivers/lvgl/src/core/lv_indev_scroll.c **** {
 389:Drivers/lvgl/src/core/lv_indev_scroll.c ****     lv_obj_t * obj = proc->types.pointer.scroll_obj;
 390:Drivers/lvgl/src/core/lv_indev_scroll.c ****     /*If there no STOP allow scrolling anywhere*/
 391:Drivers/lvgl/src/core/lv_indev_scroll.c ****     if(lv_obj_has_flag(obj, LV_OBJ_FLAG_SCROLL_ONE) == false) {
 392:Drivers/lvgl/src/core/lv_indev_scroll.c ****         lv_area_set(&proc->types.pointer.scroll_area, LV_COORD_MIN, LV_COORD_MIN, LV_COORD_MAX, LV_
 393:Drivers/lvgl/src/core/lv_indev_scroll.c ****     }
 394:Drivers/lvgl/src/core/lv_indev_scroll.c ****     /*With STOP limit the scrolling to the perv and next snap point*/
 395:Drivers/lvgl/src/core/lv_indev_scroll.c ****     else {
 396:Drivers/lvgl/src/core/lv_indev_scroll.c ****         switch(lv_obj_get_scroll_snap_y(obj)) {
 397:Drivers/lvgl/src/core/lv_indev_scroll.c ****             case LV_SCROLL_SNAP_START:
 398:Drivers/lvgl/src/core/lv_indev_scroll.c ****                 proc->types.pointer.scroll_area.y1 = find_snap_point_y(obj, obj->coords.y1 + 1, LV_
 399:Drivers/lvgl/src/core/lv_indev_scroll.c ****                 proc->types.pointer.scroll_area.y2 = find_snap_point_y(obj, LV_COORD_MIN, obj->coor
 400:Drivers/lvgl/src/core/lv_indev_scroll.c ****                 break;
 401:Drivers/lvgl/src/core/lv_indev_scroll.c ****             case LV_SCROLL_SNAP_END:
 402:Drivers/lvgl/src/core/lv_indev_scroll.c ****                 proc->types.pointer.scroll_area.y1 = find_snap_point_y(obj, obj->coords.y2, LV_COOR
 403:Drivers/lvgl/src/core/lv_indev_scroll.c ****                 proc->types.pointer.scroll_area.y2 = find_snap_point_y(obj, LV_COORD_MIN, obj->coor
 404:Drivers/lvgl/src/core/lv_indev_scroll.c ****                 break;
 405:Drivers/lvgl/src/core/lv_indev_scroll.c ****             case LV_SCROLL_SNAP_CENTER: {
 406:Drivers/lvgl/src/core/lv_indev_scroll.c ****                     lv_coord_t y_mid = obj->coords.y1 + lv_area_get_height(&obj->coords) / 2;
 407:Drivers/lvgl/src/core/lv_indev_scroll.c ****                     proc->types.pointer.scroll_area.y1 = find_snap_point_y(obj, y_mid + 1, LV_COORD
 408:Drivers/lvgl/src/core/lv_indev_scroll.c ****                     proc->types.pointer.scroll_area.y2 = find_snap_point_y(obj, LV_COORD_MIN, y_mid
 409:Drivers/lvgl/src/core/lv_indev_scroll.c ****                     break;
 410:Drivers/lvgl/src/core/lv_indev_scroll.c ****                 }
 411:Drivers/lvgl/src/core/lv_indev_scroll.c ****             default:
 412:Drivers/lvgl/src/core/lv_indev_scroll.c ****                 proc->types.pointer.scroll_area.y1 = LV_COORD_MIN;
 413:Drivers/lvgl/src/core/lv_indev_scroll.c ****                 proc->types.pointer.scroll_area.y2 = LV_COORD_MAX;
 414:Drivers/lvgl/src/core/lv_indev_scroll.c ****                 break;
 415:Drivers/lvgl/src/core/lv_indev_scroll.c ****         }
 416:Drivers/lvgl/src/core/lv_indev_scroll.c **** 
 417:Drivers/lvgl/src/core/lv_indev_scroll.c ****         switch(lv_obj_get_scroll_snap_x(obj)) {
 418:Drivers/lvgl/src/core/lv_indev_scroll.c ****             case LV_SCROLL_SNAP_START:
 419:Drivers/lvgl/src/core/lv_indev_scroll.c ****                 proc->types.pointer.scroll_area.x1 = find_snap_point_x(obj, obj->coords.x1, LV_COOR
 420:Drivers/lvgl/src/core/lv_indev_scroll.c ****                 proc->types.pointer.scroll_area.x2 = find_snap_point_x(obj, LV_COORD_MIN, obj->coor
 421:Drivers/lvgl/src/core/lv_indev_scroll.c ****                 break;
 422:Drivers/lvgl/src/core/lv_indev_scroll.c ****             case LV_SCROLL_SNAP_END:
 423:Drivers/lvgl/src/core/lv_indev_scroll.c ****                 proc->types.pointer.scroll_area.x1 = find_snap_point_x(obj, obj->coords.x2, LV_COOR
 424:Drivers/lvgl/src/core/lv_indev_scroll.c ****                 proc->types.pointer.scroll_area.x2 = find_snap_point_x(obj, LV_COORD_MIN, obj->coor
 425:Drivers/lvgl/src/core/lv_indev_scroll.c ****                 break;
 426:Drivers/lvgl/src/core/lv_indev_scroll.c ****             case LV_SCROLL_SNAP_CENTER: {
 427:Drivers/lvgl/src/core/lv_indev_scroll.c ****                     lv_coord_t x_mid = obj->coords.x1 + lv_area_get_width(&obj->coords) / 2;
 428:Drivers/lvgl/src/core/lv_indev_scroll.c ****                     proc->types.pointer.scroll_area.x1 = find_snap_point_x(obj, x_mid + 1, LV_COORD
 429:Drivers/lvgl/src/core/lv_indev_scroll.c ****                     proc->types.pointer.scroll_area.x2 = find_snap_point_x(obj, LV_COORD_MIN, x_mid
 430:Drivers/lvgl/src/core/lv_indev_scroll.c ****                     break;
ARM GAS  /var/folders/0z/tsy30v1j4xl4_7kw94k978ww0000gn/T//cc5O5B9v.s 			page 9


 431:Drivers/lvgl/src/core/lv_indev_scroll.c ****                 }
 432:Drivers/lvgl/src/core/lv_indev_scroll.c ****             default:
 433:Drivers/lvgl/src/core/lv_indev_scroll.c ****                 proc->types.pointer.scroll_area.x1 = LV_COORD_MIN;
 434:Drivers/lvgl/src/core/lv_indev_scroll.c ****                 proc->types.pointer.scroll_area.x2 = LV_COORD_MAX;
 435:Drivers/lvgl/src/core/lv_indev_scroll.c ****                 break;
 436:Drivers/lvgl/src/core/lv_indev_scroll.c ****         }
 437:Drivers/lvgl/src/core/lv_indev_scroll.c ****     }
 438:Drivers/lvgl/src/core/lv_indev_scroll.c **** 
 439:Drivers/lvgl/src/core/lv_indev_scroll.c ****     /*Allow scrolling on the edges. It will be reverted to the edge due to snapping anyway*/
 440:Drivers/lvgl/src/core/lv_indev_scroll.c ****     if(proc->types.pointer.scroll_area.x1 == 0) proc->types.pointer.scroll_area.x1 = LV_COORD_MIN;
 441:Drivers/lvgl/src/core/lv_indev_scroll.c ****     if(proc->types.pointer.scroll_area.x2 == 0) proc->types.pointer.scroll_area.x2 = LV_COORD_MAX;
 442:Drivers/lvgl/src/core/lv_indev_scroll.c ****     if(proc->types.pointer.scroll_area.y1 == 0) proc->types.pointer.scroll_area.y1 = LV_COORD_MIN;
 443:Drivers/lvgl/src/core/lv_indev_scroll.c ****     if(proc->types.pointer.scroll_area.y2 == 0) proc->types.pointer.scroll_area.y2 = LV_COORD_MAX;
 444:Drivers/lvgl/src/core/lv_indev_scroll.c **** }
 445:Drivers/lvgl/src/core/lv_indev_scroll.c **** 
 446:Drivers/lvgl/src/core/lv_indev_scroll.c **** /**
 447:Drivers/lvgl/src/core/lv_indev_scroll.c ****  * Search for snap point in the `min` - `max` range.
 448:Drivers/lvgl/src/core/lv_indev_scroll.c ****  * @param obj the object on which snap point should be found
 449:Drivers/lvgl/src/core/lv_indev_scroll.c ****  * @param min ignore snap points smaller than this. (Absolute coordinate)
 450:Drivers/lvgl/src/core/lv_indev_scroll.c ****  * @param max ignore snap points greater than this. (Absolute coordinate)
 451:Drivers/lvgl/src/core/lv_indev_scroll.c ****  * @param ofs offset to snap points. Useful the get a snap point in an imagined case
 452:Drivers/lvgl/src/core/lv_indev_scroll.c ****  *            what if children are already moved by this value
 453:Drivers/lvgl/src/core/lv_indev_scroll.c ****  * @return the distance of the snap point.
 454:Drivers/lvgl/src/core/lv_indev_scroll.c ****  */
 455:Drivers/lvgl/src/core/lv_indev_scroll.c **** static lv_coord_t find_snap_point_x(const lv_obj_t * obj, lv_coord_t min, lv_coord_t max, lv_coord_
 456:Drivers/lvgl/src/core/lv_indev_scroll.c **** {
 457:Drivers/lvgl/src/core/lv_indev_scroll.c ****     lv_scroll_snap_t align = lv_obj_get_scroll_snap_x(obj);
 458:Drivers/lvgl/src/core/lv_indev_scroll.c ****     if(align == LV_SCROLL_SNAP_NONE) return 0;
 459:Drivers/lvgl/src/core/lv_indev_scroll.c **** 
 460:Drivers/lvgl/src/core/lv_indev_scroll.c ****     lv_coord_t dist = LV_COORD_MAX;
 461:Drivers/lvgl/src/core/lv_indev_scroll.c **** 
 462:Drivers/lvgl/src/core/lv_indev_scroll.c ****     lv_coord_t pad_left = lv_obj_get_style_pad_left(obj, LV_PART_MAIN);
 463:Drivers/lvgl/src/core/lv_indev_scroll.c ****     lv_coord_t pad_right = lv_obj_get_style_pad_right(obj, LV_PART_MAIN);
 464:Drivers/lvgl/src/core/lv_indev_scroll.c **** 
 465:Drivers/lvgl/src/core/lv_indev_scroll.c ****     uint32_t i;
 466:Drivers/lvgl/src/core/lv_indev_scroll.c ****     uint32_t child_cnt = lv_obj_get_child_cnt(obj);
 467:Drivers/lvgl/src/core/lv_indev_scroll.c ****     for(i = 0; i < child_cnt; i++) {
 468:Drivers/lvgl/src/core/lv_indev_scroll.c ****         lv_obj_t * child = obj->spec_attr->children[i];
 469:Drivers/lvgl/src/core/lv_indev_scroll.c ****         if(lv_obj_has_flag_any(child, LV_OBJ_FLAG_HIDDEN | LV_OBJ_FLAG_FLOATING)) continue;
 470:Drivers/lvgl/src/core/lv_indev_scroll.c ****         if(lv_obj_has_flag(child, LV_OBJ_FLAG_SNAPPABLE)) {
 471:Drivers/lvgl/src/core/lv_indev_scroll.c ****             lv_coord_t x_child = 0;
 472:Drivers/lvgl/src/core/lv_indev_scroll.c ****             lv_coord_t x_parent = 0;
 473:Drivers/lvgl/src/core/lv_indev_scroll.c ****             switch(align) {
 474:Drivers/lvgl/src/core/lv_indev_scroll.c ****                 case LV_SCROLL_SNAP_START:
 475:Drivers/lvgl/src/core/lv_indev_scroll.c ****                     x_child = child->coords.x1;
 476:Drivers/lvgl/src/core/lv_indev_scroll.c ****                     x_parent = obj->coords.x1 + pad_left;
 477:Drivers/lvgl/src/core/lv_indev_scroll.c ****                     break;
 478:Drivers/lvgl/src/core/lv_indev_scroll.c ****                 case LV_SCROLL_SNAP_END:
 479:Drivers/lvgl/src/core/lv_indev_scroll.c ****                     x_child = child->coords.x2;
 480:Drivers/lvgl/src/core/lv_indev_scroll.c ****                     x_parent = obj->coords.x2 - pad_right;
 481:Drivers/lvgl/src/core/lv_indev_scroll.c ****                     break;
 482:Drivers/lvgl/src/core/lv_indev_scroll.c ****                 case LV_SCROLL_SNAP_CENTER:
 483:Drivers/lvgl/src/core/lv_indev_scroll.c ****                     x_child = child->coords.x1 + lv_area_get_width(&child->coords) / 2;
 484:Drivers/lvgl/src/core/lv_indev_scroll.c ****                     x_parent = obj->coords.x1 + pad_left + (lv_area_get_width(&obj->coords) - pad_l
 485:Drivers/lvgl/src/core/lv_indev_scroll.c ****                     break;
 486:Drivers/lvgl/src/core/lv_indev_scroll.c ****                 default:
 487:Drivers/lvgl/src/core/lv_indev_scroll.c ****                     continue;
ARM GAS  /var/folders/0z/tsy30v1j4xl4_7kw94k978ww0000gn/T//cc5O5B9v.s 			page 10


 488:Drivers/lvgl/src/core/lv_indev_scroll.c ****             }
 489:Drivers/lvgl/src/core/lv_indev_scroll.c **** 
 490:Drivers/lvgl/src/core/lv_indev_scroll.c ****             x_child += ofs;
 491:Drivers/lvgl/src/core/lv_indev_scroll.c ****             if(x_child >= min && x_child <= max) {
 492:Drivers/lvgl/src/core/lv_indev_scroll.c ****                 lv_coord_t x = x_child -  x_parent;
 493:Drivers/lvgl/src/core/lv_indev_scroll.c ****                 if(LV_ABS(x) < LV_ABS(dist)) dist = x;
 494:Drivers/lvgl/src/core/lv_indev_scroll.c ****             }
 495:Drivers/lvgl/src/core/lv_indev_scroll.c ****         }
 496:Drivers/lvgl/src/core/lv_indev_scroll.c ****     }
 497:Drivers/lvgl/src/core/lv_indev_scroll.c **** 
 498:Drivers/lvgl/src/core/lv_indev_scroll.c ****     return dist == LV_COORD_MAX ? 0 : -dist;
 499:Drivers/lvgl/src/core/lv_indev_scroll.c **** }
 500:Drivers/lvgl/src/core/lv_indev_scroll.c **** 
 501:Drivers/lvgl/src/core/lv_indev_scroll.c **** /**
 502:Drivers/lvgl/src/core/lv_indev_scroll.c ****  * Search for snap point in the `min` - `max` range.
 503:Drivers/lvgl/src/core/lv_indev_scroll.c ****  * @param obj the object on which snap point should be found
 504:Drivers/lvgl/src/core/lv_indev_scroll.c ****  * @param min ignore snap points smaller than this. (Absolute coordinate)
 505:Drivers/lvgl/src/core/lv_indev_scroll.c ****  * @param max ignore snap points greater than this. (Absolute coordinate)
 506:Drivers/lvgl/src/core/lv_indev_scroll.c ****  * @param ofs offset to snap points. Useful to get a snap point in an imagined case
 507:Drivers/lvgl/src/core/lv_indev_scroll.c ****  *            what if children are already moved by this value
 508:Drivers/lvgl/src/core/lv_indev_scroll.c ****  * @return the distance of the snap point.
 509:Drivers/lvgl/src/core/lv_indev_scroll.c ****  */
 510:Drivers/lvgl/src/core/lv_indev_scroll.c **** static lv_coord_t find_snap_point_y(const lv_obj_t * obj, lv_coord_t min, lv_coord_t max, lv_coord_
 511:Drivers/lvgl/src/core/lv_indev_scroll.c **** {
  28              		.loc 1 511 1 view -0
  29              		.cfi_startproc
  30              		@ args = 0, pretend = 0, frame = 24
  31              		@ frame_needed = 0, uses_anonymous_args = 0
 512:Drivers/lvgl/src/core/lv_indev_scroll.c ****     lv_scroll_snap_t align = lv_obj_get_scroll_snap_y(obj);
  32              		.loc 1 512 5 view .LVU1
 511:Drivers/lvgl/src/core/lv_indev_scroll.c ****     lv_scroll_snap_t align = lv_obj_get_scroll_snap_y(obj);
  33              		.loc 1 511 1 is_stmt 0 view .LVU2
  34 0000 2DE9F04F 		push	{r4, r5, r6, r7, r8, r9, r10, fp, lr}
  35              		.cfi_def_cfa_offset 36
  36              		.cfi_offset 4, -36
  37              		.cfi_offset 5, -32
  38              		.cfi_offset 6, -28
  39              		.cfi_offset 7, -24
  40              		.cfi_offset 8, -20
  41              		.cfi_offset 9, -16
  42              		.cfi_offset 10, -12
  43              		.cfi_offset 11, -8
  44              		.cfi_offset 14, -4
  45 0004 87B0     		sub	sp, sp, #28
  46              		.cfi_def_cfa_offset 64
 511:Drivers/lvgl/src/core/lv_indev_scroll.c ****     lv_scroll_snap_t align = lv_obj_get_scroll_snap_y(obj);
  47              		.loc 1 511 1 view .LVU3
  48 0006 0446     		mov	r4, r0
  49 0008 8946     		mov	r9, r1
  50 000a 0092     		str	r2, [sp]
  51 000c 9A46     		mov	r10, r3
  52              		.loc 1 512 30 view .LVU4
  53 000e FFF7FEFF 		bl	lv_obj_get_scroll_snap_y
  54              	.LVL1:
 513:Drivers/lvgl/src/core/lv_indev_scroll.c ****     if(align == LV_SCROLL_SNAP_NONE) return 0;
  55              		.loc 1 513 5 is_stmt 1 view .LVU5
  56              		.loc 1 513 7 is_stmt 0 view .LVU6
ARM GAS  /var/folders/0z/tsy30v1j4xl4_7kw94k978ww0000gn/T//cc5O5B9v.s 			page 11


  57 0012 18B9     		cbnz	r0, .L2
  58              	.LVL2:
  59              	.L4:
  60              		.loc 1 513 45 view .LVU7
  61 0014 0020     		movs	r0, #0
 514:Drivers/lvgl/src/core/lv_indev_scroll.c **** 
 515:Drivers/lvgl/src/core/lv_indev_scroll.c ****     lv_coord_t dist = LV_COORD_MAX;
 516:Drivers/lvgl/src/core/lv_indev_scroll.c **** 
 517:Drivers/lvgl/src/core/lv_indev_scroll.c ****     lv_coord_t pad_top = lv_obj_get_style_pad_top(obj, LV_PART_MAIN);
 518:Drivers/lvgl/src/core/lv_indev_scroll.c ****     lv_coord_t pad_bottom = lv_obj_get_style_pad_bottom(obj, LV_PART_MAIN);
 519:Drivers/lvgl/src/core/lv_indev_scroll.c **** 
 520:Drivers/lvgl/src/core/lv_indev_scroll.c ****     uint32_t i;
 521:Drivers/lvgl/src/core/lv_indev_scroll.c ****     uint32_t child_cnt = lv_obj_get_child_cnt(obj);
 522:Drivers/lvgl/src/core/lv_indev_scroll.c ****     for(i = 0; i < child_cnt; i++) {
 523:Drivers/lvgl/src/core/lv_indev_scroll.c ****         lv_obj_t * child = obj->spec_attr->children[i];
 524:Drivers/lvgl/src/core/lv_indev_scroll.c ****         if(lv_obj_has_flag_any(child, LV_OBJ_FLAG_HIDDEN | LV_OBJ_FLAG_FLOATING)) continue;
 525:Drivers/lvgl/src/core/lv_indev_scroll.c ****         if(lv_obj_has_flag(child, LV_OBJ_FLAG_SNAPPABLE)) {
 526:Drivers/lvgl/src/core/lv_indev_scroll.c ****             lv_coord_t y_child = 0;
 527:Drivers/lvgl/src/core/lv_indev_scroll.c ****             lv_coord_t y_parent = 0;
 528:Drivers/lvgl/src/core/lv_indev_scroll.c ****             switch(align) {
 529:Drivers/lvgl/src/core/lv_indev_scroll.c ****                 case LV_SCROLL_SNAP_START:
 530:Drivers/lvgl/src/core/lv_indev_scroll.c ****                     y_child = child->coords.y1;
 531:Drivers/lvgl/src/core/lv_indev_scroll.c ****                     y_parent = obj->coords.y1 + pad_top;
 532:Drivers/lvgl/src/core/lv_indev_scroll.c ****                     break;
 533:Drivers/lvgl/src/core/lv_indev_scroll.c ****                 case LV_SCROLL_SNAP_END:
 534:Drivers/lvgl/src/core/lv_indev_scroll.c ****                     y_child = child->coords.y2;
 535:Drivers/lvgl/src/core/lv_indev_scroll.c ****                     y_parent = obj->coords.y2 - pad_bottom;
 536:Drivers/lvgl/src/core/lv_indev_scroll.c ****                     break;
 537:Drivers/lvgl/src/core/lv_indev_scroll.c ****                 case LV_SCROLL_SNAP_CENTER:
 538:Drivers/lvgl/src/core/lv_indev_scroll.c ****                     y_child = child->coords.y1 + lv_area_get_height(&child->coords) / 2;
 539:Drivers/lvgl/src/core/lv_indev_scroll.c ****                     y_parent = obj->coords.y1 + pad_top + (lv_area_get_height(&obj->coords) - pad_t
 540:Drivers/lvgl/src/core/lv_indev_scroll.c ****                     break;
 541:Drivers/lvgl/src/core/lv_indev_scroll.c ****                 default:
 542:Drivers/lvgl/src/core/lv_indev_scroll.c ****                     continue;
 543:Drivers/lvgl/src/core/lv_indev_scroll.c ****             }
 544:Drivers/lvgl/src/core/lv_indev_scroll.c **** 
 545:Drivers/lvgl/src/core/lv_indev_scroll.c ****             y_child += ofs;
 546:Drivers/lvgl/src/core/lv_indev_scroll.c ****             if(y_child >= min && y_child <= max) {
 547:Drivers/lvgl/src/core/lv_indev_scroll.c ****                 lv_coord_t y = y_child -  y_parent;
 548:Drivers/lvgl/src/core/lv_indev_scroll.c ****                 if(LV_ABS(y) < LV_ABS(dist)) dist = y;
 549:Drivers/lvgl/src/core/lv_indev_scroll.c ****             }
 550:Drivers/lvgl/src/core/lv_indev_scroll.c ****         }
 551:Drivers/lvgl/src/core/lv_indev_scroll.c ****     }
 552:Drivers/lvgl/src/core/lv_indev_scroll.c **** 
 553:Drivers/lvgl/src/core/lv_indev_scroll.c ****     return dist == LV_COORD_MAX ? 0 : -dist;
 554:Drivers/lvgl/src/core/lv_indev_scroll.c **** }
  62              		.loc 1 554 1 view .LVU8
  63 0016 07B0     		add	sp, sp, #28
  64              		.cfi_remember_state
  65              		.cfi_def_cfa_offset 36
  66              		@ sp needed
  67 0018 BDE8F08F 		pop	{r4, r5, r6, r7, r8, r9, r10, fp, pc}
  68              	.LVL3:
  69              	.L2:
  70              		.cfi_restore_state
 515:Drivers/lvgl/src/core/lv_indev_scroll.c **** 
  71              		.loc 1 515 5 is_stmt 1 view .LVU9
ARM GAS  /var/folders/0z/tsy30v1j4xl4_7kw94k978ww0000gn/T//cc5O5B9v.s 			page 12


 517:Drivers/lvgl/src/core/lv_indev_scroll.c ****     lv_coord_t pad_bottom = lv_obj_get_style_pad_bottom(obj, LV_PART_MAIN);
  72              		.loc 1 517 5 view .LVU10
  73              	.LBB91:
  74              	.LBI91:
  75              		.file 2 "Drivers/lvgl/src/core/lv_obj_style_gen.h"
   1:Drivers/lvgl/src/core/lv_obj_style_gen.h **** static inline lv_coord_t lv_obj_get_style_width(const struct _lv_obj_t * obj, uint32_t part)
   2:Drivers/lvgl/src/core/lv_obj_style_gen.h **** {
   3:Drivers/lvgl/src/core/lv_obj_style_gen.h ****     lv_style_value_t v = lv_obj_get_style_prop(obj, part, LV_STYLE_WIDTH);
   4:Drivers/lvgl/src/core/lv_obj_style_gen.h ****     return (lv_coord_t)v.num;
   5:Drivers/lvgl/src/core/lv_obj_style_gen.h **** }
   6:Drivers/lvgl/src/core/lv_obj_style_gen.h **** 
   7:Drivers/lvgl/src/core/lv_obj_style_gen.h **** static inline lv_coord_t lv_obj_get_style_min_width(const struct _lv_obj_t * obj, uint32_t part)
   8:Drivers/lvgl/src/core/lv_obj_style_gen.h **** {
   9:Drivers/lvgl/src/core/lv_obj_style_gen.h ****     lv_style_value_t v = lv_obj_get_style_prop(obj, part, LV_STYLE_MIN_WIDTH);
  10:Drivers/lvgl/src/core/lv_obj_style_gen.h ****     return (lv_coord_t)v.num;
  11:Drivers/lvgl/src/core/lv_obj_style_gen.h **** }
  12:Drivers/lvgl/src/core/lv_obj_style_gen.h **** 
  13:Drivers/lvgl/src/core/lv_obj_style_gen.h **** static inline lv_coord_t lv_obj_get_style_max_width(const struct _lv_obj_t * obj, uint32_t part)
  14:Drivers/lvgl/src/core/lv_obj_style_gen.h **** {
  15:Drivers/lvgl/src/core/lv_obj_style_gen.h ****     lv_style_value_t v = lv_obj_get_style_prop(obj, part, LV_STYLE_MAX_WIDTH);
  16:Drivers/lvgl/src/core/lv_obj_style_gen.h ****     return (lv_coord_t)v.num;
  17:Drivers/lvgl/src/core/lv_obj_style_gen.h **** }
  18:Drivers/lvgl/src/core/lv_obj_style_gen.h **** 
  19:Drivers/lvgl/src/core/lv_obj_style_gen.h **** static inline lv_coord_t lv_obj_get_style_height(const struct _lv_obj_t * obj, uint32_t part)
  20:Drivers/lvgl/src/core/lv_obj_style_gen.h **** {
  21:Drivers/lvgl/src/core/lv_obj_style_gen.h ****     lv_style_value_t v = lv_obj_get_style_prop(obj, part, LV_STYLE_HEIGHT);
  22:Drivers/lvgl/src/core/lv_obj_style_gen.h ****     return (lv_coord_t)v.num;
  23:Drivers/lvgl/src/core/lv_obj_style_gen.h **** }
  24:Drivers/lvgl/src/core/lv_obj_style_gen.h **** 
  25:Drivers/lvgl/src/core/lv_obj_style_gen.h **** static inline lv_coord_t lv_obj_get_style_min_height(const struct _lv_obj_t * obj, uint32_t part)
  26:Drivers/lvgl/src/core/lv_obj_style_gen.h **** {
  27:Drivers/lvgl/src/core/lv_obj_style_gen.h ****     lv_style_value_t v = lv_obj_get_style_prop(obj, part, LV_STYLE_MIN_HEIGHT);
  28:Drivers/lvgl/src/core/lv_obj_style_gen.h ****     return (lv_coord_t)v.num;
  29:Drivers/lvgl/src/core/lv_obj_style_gen.h **** }
  30:Drivers/lvgl/src/core/lv_obj_style_gen.h **** 
  31:Drivers/lvgl/src/core/lv_obj_style_gen.h **** static inline lv_coord_t lv_obj_get_style_max_height(const struct _lv_obj_t * obj, uint32_t part)
  32:Drivers/lvgl/src/core/lv_obj_style_gen.h **** {
  33:Drivers/lvgl/src/core/lv_obj_style_gen.h ****     lv_style_value_t v = lv_obj_get_style_prop(obj, part, LV_STYLE_MAX_HEIGHT);
  34:Drivers/lvgl/src/core/lv_obj_style_gen.h ****     return (lv_coord_t)v.num;
  35:Drivers/lvgl/src/core/lv_obj_style_gen.h **** }
  36:Drivers/lvgl/src/core/lv_obj_style_gen.h **** 
  37:Drivers/lvgl/src/core/lv_obj_style_gen.h **** static inline lv_coord_t lv_obj_get_style_x(const struct _lv_obj_t * obj, uint32_t part)
  38:Drivers/lvgl/src/core/lv_obj_style_gen.h **** {
  39:Drivers/lvgl/src/core/lv_obj_style_gen.h ****     lv_style_value_t v = lv_obj_get_style_prop(obj, part, LV_STYLE_X);
  40:Drivers/lvgl/src/core/lv_obj_style_gen.h ****     return (lv_coord_t)v.num;
  41:Drivers/lvgl/src/core/lv_obj_style_gen.h **** }
  42:Drivers/lvgl/src/core/lv_obj_style_gen.h **** 
  43:Drivers/lvgl/src/core/lv_obj_style_gen.h **** static inline lv_coord_t lv_obj_get_style_y(const struct _lv_obj_t * obj, uint32_t part)
  44:Drivers/lvgl/src/core/lv_obj_style_gen.h **** {
  45:Drivers/lvgl/src/core/lv_obj_style_gen.h ****     lv_style_value_t v = lv_obj_get_style_prop(obj, part, LV_STYLE_Y);
  46:Drivers/lvgl/src/core/lv_obj_style_gen.h ****     return (lv_coord_t)v.num;
  47:Drivers/lvgl/src/core/lv_obj_style_gen.h **** }
  48:Drivers/lvgl/src/core/lv_obj_style_gen.h **** 
  49:Drivers/lvgl/src/core/lv_obj_style_gen.h **** static inline lv_align_t lv_obj_get_style_align(const struct _lv_obj_t * obj, uint32_t part)
  50:Drivers/lvgl/src/core/lv_obj_style_gen.h **** {
  51:Drivers/lvgl/src/core/lv_obj_style_gen.h ****     lv_style_value_t v = lv_obj_get_style_prop(obj, part, LV_STYLE_ALIGN);
  52:Drivers/lvgl/src/core/lv_obj_style_gen.h ****     return (lv_align_t)v.num;
ARM GAS  /var/folders/0z/tsy30v1j4xl4_7kw94k978ww0000gn/T//cc5O5B9v.s 			page 13


  53:Drivers/lvgl/src/core/lv_obj_style_gen.h **** }
  54:Drivers/lvgl/src/core/lv_obj_style_gen.h **** 
  55:Drivers/lvgl/src/core/lv_obj_style_gen.h **** static inline lv_coord_t lv_obj_get_style_transform_width(const struct _lv_obj_t * obj, uint32_t pa
  56:Drivers/lvgl/src/core/lv_obj_style_gen.h **** {
  57:Drivers/lvgl/src/core/lv_obj_style_gen.h ****     lv_style_value_t v = lv_obj_get_style_prop(obj, part, LV_STYLE_TRANSFORM_WIDTH);
  58:Drivers/lvgl/src/core/lv_obj_style_gen.h ****     return (lv_coord_t)v.num;
  59:Drivers/lvgl/src/core/lv_obj_style_gen.h **** }
  60:Drivers/lvgl/src/core/lv_obj_style_gen.h **** 
  61:Drivers/lvgl/src/core/lv_obj_style_gen.h **** static inline lv_coord_t lv_obj_get_style_transform_height(const struct _lv_obj_t * obj, uint32_t p
  62:Drivers/lvgl/src/core/lv_obj_style_gen.h **** {
  63:Drivers/lvgl/src/core/lv_obj_style_gen.h ****     lv_style_value_t v = lv_obj_get_style_prop(obj, part, LV_STYLE_TRANSFORM_HEIGHT);
  64:Drivers/lvgl/src/core/lv_obj_style_gen.h ****     return (lv_coord_t)v.num;
  65:Drivers/lvgl/src/core/lv_obj_style_gen.h **** }
  66:Drivers/lvgl/src/core/lv_obj_style_gen.h **** 
  67:Drivers/lvgl/src/core/lv_obj_style_gen.h **** static inline lv_coord_t lv_obj_get_style_translate_x(const struct _lv_obj_t * obj, uint32_t part)
  68:Drivers/lvgl/src/core/lv_obj_style_gen.h **** {
  69:Drivers/lvgl/src/core/lv_obj_style_gen.h ****     lv_style_value_t v = lv_obj_get_style_prop(obj, part, LV_STYLE_TRANSLATE_X);
  70:Drivers/lvgl/src/core/lv_obj_style_gen.h ****     return (lv_coord_t)v.num;
  71:Drivers/lvgl/src/core/lv_obj_style_gen.h **** }
  72:Drivers/lvgl/src/core/lv_obj_style_gen.h **** 
  73:Drivers/lvgl/src/core/lv_obj_style_gen.h **** static inline lv_coord_t lv_obj_get_style_translate_y(const struct _lv_obj_t * obj, uint32_t part)
  74:Drivers/lvgl/src/core/lv_obj_style_gen.h **** {
  75:Drivers/lvgl/src/core/lv_obj_style_gen.h ****     lv_style_value_t v = lv_obj_get_style_prop(obj, part, LV_STYLE_TRANSLATE_Y);
  76:Drivers/lvgl/src/core/lv_obj_style_gen.h ****     return (lv_coord_t)v.num;
  77:Drivers/lvgl/src/core/lv_obj_style_gen.h **** }
  78:Drivers/lvgl/src/core/lv_obj_style_gen.h **** 
  79:Drivers/lvgl/src/core/lv_obj_style_gen.h **** static inline lv_coord_t lv_obj_get_style_transform_zoom(const struct _lv_obj_t * obj, uint32_t par
  80:Drivers/lvgl/src/core/lv_obj_style_gen.h **** {
  81:Drivers/lvgl/src/core/lv_obj_style_gen.h ****     lv_style_value_t v = lv_obj_get_style_prop(obj, part, LV_STYLE_TRANSFORM_ZOOM);
  82:Drivers/lvgl/src/core/lv_obj_style_gen.h ****     return (lv_coord_t)v.num;
  83:Drivers/lvgl/src/core/lv_obj_style_gen.h **** }
  84:Drivers/lvgl/src/core/lv_obj_style_gen.h **** 
  85:Drivers/lvgl/src/core/lv_obj_style_gen.h **** static inline lv_coord_t lv_obj_get_style_transform_angle(const struct _lv_obj_t * obj, uint32_t pa
  86:Drivers/lvgl/src/core/lv_obj_style_gen.h **** {
  87:Drivers/lvgl/src/core/lv_obj_style_gen.h ****     lv_style_value_t v = lv_obj_get_style_prop(obj, part, LV_STYLE_TRANSFORM_ANGLE);
  88:Drivers/lvgl/src/core/lv_obj_style_gen.h ****     return (lv_coord_t)v.num;
  89:Drivers/lvgl/src/core/lv_obj_style_gen.h **** }
  90:Drivers/lvgl/src/core/lv_obj_style_gen.h **** 
  91:Drivers/lvgl/src/core/lv_obj_style_gen.h **** static inline lv_coord_t lv_obj_get_style_transform_pivot_x(const struct _lv_obj_t * obj, uint32_t 
  92:Drivers/lvgl/src/core/lv_obj_style_gen.h **** {
  93:Drivers/lvgl/src/core/lv_obj_style_gen.h ****     lv_style_value_t v = lv_obj_get_style_prop(obj, part, LV_STYLE_TRANSFORM_PIVOT_X);
  94:Drivers/lvgl/src/core/lv_obj_style_gen.h ****     return (lv_coord_t)v.num;
  95:Drivers/lvgl/src/core/lv_obj_style_gen.h **** }
  96:Drivers/lvgl/src/core/lv_obj_style_gen.h **** 
  97:Drivers/lvgl/src/core/lv_obj_style_gen.h **** static inline lv_coord_t lv_obj_get_style_transform_pivot_y(const struct _lv_obj_t * obj, uint32_t 
  98:Drivers/lvgl/src/core/lv_obj_style_gen.h **** {
  99:Drivers/lvgl/src/core/lv_obj_style_gen.h ****     lv_style_value_t v = lv_obj_get_style_prop(obj, part, LV_STYLE_TRANSFORM_PIVOT_Y);
 100:Drivers/lvgl/src/core/lv_obj_style_gen.h ****     return (lv_coord_t)v.num;
 101:Drivers/lvgl/src/core/lv_obj_style_gen.h **** }
 102:Drivers/lvgl/src/core/lv_obj_style_gen.h **** 
 103:Drivers/lvgl/src/core/lv_obj_style_gen.h **** static inline lv_coord_t lv_obj_get_style_pad_top(const struct _lv_obj_t * obj, uint32_t part)
  76              		.loc 2 103 26 view .LVU11
  77              	.LBB92:
 104:Drivers/lvgl/src/core/lv_obj_style_gen.h **** {
 105:Drivers/lvgl/src/core/lv_obj_style_gen.h ****     lv_style_value_t v = lv_obj_get_style_prop(obj, part, LV_STYLE_PAD_TOP);
  78              		.loc 2 105 5 view .LVU12
  79              		.loc 2 105 26 is_stmt 0 view .LVU13
ARM GAS  /var/folders/0z/tsy30v1j4xl4_7kw94k978ww0000gn/T//cc5O5B9v.s 			page 14


  80 001c 1022     		movs	r2, #16
  81 001e 0021     		movs	r1, #0
  82 0020 0546     		mov	r5, r0
  83 0022 2046     		mov	r0, r4
  84              	.LVL4:
  85              		.loc 2 105 26 view .LVU14
  86 0024 FFF7FEFF 		bl	lv_obj_get_style_prop
  87              	.LVL5:
  88              	.LBE92:
  89              	.LBE91:
  90              	.LBB95:
  91              	.LBB96:
 106:Drivers/lvgl/src/core/lv_obj_style_gen.h ****     return (lv_coord_t)v.num;
 107:Drivers/lvgl/src/core/lv_obj_style_gen.h **** }
 108:Drivers/lvgl/src/core/lv_obj_style_gen.h **** 
 109:Drivers/lvgl/src/core/lv_obj_style_gen.h **** static inline lv_coord_t lv_obj_get_style_pad_bottom(const struct _lv_obj_t * obj, uint32_t part)
 110:Drivers/lvgl/src/core/lv_obj_style_gen.h **** {
 111:Drivers/lvgl/src/core/lv_obj_style_gen.h ****     lv_style_value_t v = lv_obj_get_style_prop(obj, part, LV_STYLE_PAD_BOTTOM);
  92              		.loc 2 111 26 view .LVU15
  93 0028 1122     		movs	r2, #17
  94              	.LBE96:
  95              	.LBE95:
  96              	.LBB99:
  97              	.LBB93:
 105:Drivers/lvgl/src/core/lv_obj_style_gen.h ****     return (lv_coord_t)v.num;
  98              		.loc 2 105 26 view .LVU16
  99 002a 0746     		mov	r7, r0
 100 002c 0290     		str	r0, [sp, #8]
 106:Drivers/lvgl/src/core/lv_obj_style_gen.h ****     return (lv_coord_t)v.num;
 101              		.loc 2 106 5 is_stmt 1 view .LVU17
 102              	.LBE93:
 103              	.LBE99:
 104              	.LBB100:
 105              	.LBB97:
 106              		.loc 2 111 26 is_stmt 0 view .LVU18
 107 002e 0021     		movs	r1, #0
 108 0030 2046     		mov	r0, r4
 109 0032 FFF7FEFF 		bl	lv_obj_get_style_prop
 110              	.LVL6:
 111 0036 0646     		mov	r6, r0
 112 0038 0490     		str	r0, [sp, #16]
 113              	.LBE97:
 114              	.LBE100:
 521:Drivers/lvgl/src/core/lv_indev_scroll.c ****     for(i = 0; i < child_cnt; i++) {
 115              		.loc 1 521 26 view .LVU19
 116 003a 2046     		mov	r0, r4
 117 003c FFF7FEFF 		bl	lv_obj_get_child_cnt
 118              	.LVL7:
 119              	.LBB101:
 120              	.LBB94:
 106:Drivers/lvgl/src/core/lv_obj_style_gen.h ****     return (lv_coord_t)v.num;
 121              		.loc 2 106 12 view .LVU20
 122 0040 3BB2     		sxth	r3, r7
 123 0042 0593     		str	r3, [sp, #20]
 124              	.LVL8:
 106:Drivers/lvgl/src/core/lv_obj_style_gen.h ****     return (lv_coord_t)v.num;
 125              		.loc 2 106 12 view .LVU21
ARM GAS  /var/folders/0z/tsy30v1j4xl4_7kw94k978ww0000gn/T//cc5O5B9v.s 			page 15


 126              	.LBE94:
 127              	.LBE101:
 518:Drivers/lvgl/src/core/lv_indev_scroll.c **** 
 128              		.loc 1 518 5 is_stmt 1 view .LVU22
 129              	.LBB102:
 130              	.LBI95:
 109:Drivers/lvgl/src/core/lv_obj_style_gen.h **** {
 131              		.loc 2 109 26 view .LVU23
 132              	.LBB98:
 133              		.loc 2 111 5 view .LVU24
 112:Drivers/lvgl/src/core/lv_obj_style_gen.h ****     return (lv_coord_t)v.num;
 134              		.loc 2 112 5 view .LVU25
 135              		.loc 2 112 12 is_stmt 0 view .LVU26
 136 0044 33B2     		sxth	r3, r6
 137 0046 0393     		str	r3, [sp, #12]
 138              	.LVL9:
 139              		.loc 2 112 12 view .LVU27
 140              	.LBE98:
 141              	.LBE102:
 520:Drivers/lvgl/src/core/lv_indev_scroll.c ****     uint32_t child_cnt = lv_obj_get_child_cnt(obj);
 142              		.loc 1 520 5 is_stmt 1 view .LVU28
 521:Drivers/lvgl/src/core/lv_indev_scroll.c ****     for(i = 0; i < child_cnt; i++) {
 143              		.loc 1 521 5 view .LVU29
 522:Drivers/lvgl/src/core/lv_indev_scroll.c ****         lv_obj_t * child = obj->spec_attr->children[i];
 144              		.loc 1 522 5 view .LVU30
 522:Drivers/lvgl/src/core/lv_indev_scroll.c ****         lv_obj_t * child = obj->spec_attr->children[i];
 145              		.loc 1 522 18 view .LVU31
 146 0048 0646     		mov	r6, r0
 147 004a 0028     		cmp	r0, #0
 148 004c E2D0     		beq	.L4
 515:Drivers/lvgl/src/core/lv_indev_scroll.c **** 
 149              		.loc 1 515 16 is_stmt 0 view .LVU32
 150 004e 41F6FF73 		movw	r3, #8191
 151              	.LBB103:
 524:Drivers/lvgl/src/core/lv_indev_scroll.c ****         if(lv_obj_has_flag(child, LV_OBJ_FLAG_SNAPPABLE)) {
 152              		.loc 1 524 12 view .LVU33
 153 0052 364F     		ldr	r7, .L20
 154              	.LBE103:
 515:Drivers/lvgl/src/core/lv_indev_scroll.c **** 
 155              		.loc 1 515 16 view .LVU34
 156 0054 0193     		str	r3, [sp, #4]
 522:Drivers/lvgl/src/core/lv_indev_scroll.c ****         lv_obj_t * child = obj->spec_attr->children[i];
 157              		.loc 1 522 11 view .LVU35
 158 0056 4FF0000B 		mov	fp, #0
 159              	.LVL10:
 160              	.L9:
 161              	.LBB119:
 523:Drivers/lvgl/src/core/lv_indev_scroll.c ****         if(lv_obj_has_flag_any(child, LV_OBJ_FLAG_HIDDEN | LV_OBJ_FLAG_FLOATING)) continue;
 162              		.loc 1 523 9 is_stmt 1 view .LVU36
 523:Drivers/lvgl/src/core/lv_indev_scroll.c ****         if(lv_obj_has_flag_any(child, LV_OBJ_FLAG_HIDDEN | LV_OBJ_FLAG_FLOATING)) continue;
 163              		.loc 1 523 42 is_stmt 0 view .LVU37
 164 005a A368     		ldr	r3, [r4, #8]
 523:Drivers/lvgl/src/core/lv_indev_scroll.c ****         if(lv_obj_has_flag_any(child, LV_OBJ_FLAG_HIDDEN | LV_OBJ_FLAG_FLOATING)) continue;
 165              		.loc 1 523 20 view .LVU38
 166 005c 1B68     		ldr	r3, [r3]
 167 005e 53F82B80 		ldr	r8, [r3, fp, lsl #2]
 168              	.LVL11:
ARM GAS  /var/folders/0z/tsy30v1j4xl4_7kw94k978ww0000gn/T//cc5O5B9v.s 			page 16


 524:Drivers/lvgl/src/core/lv_indev_scroll.c ****         if(lv_obj_has_flag(child, LV_OBJ_FLAG_SNAPPABLE)) {
 169              		.loc 1 524 9 is_stmt 1 view .LVU39
 524:Drivers/lvgl/src/core/lv_indev_scroll.c ****         if(lv_obj_has_flag(child, LV_OBJ_FLAG_SNAPPABLE)) {
 170              		.loc 1 524 12 is_stmt 0 view .LVU40
 171 0062 3946     		mov	r1, r7
 172 0064 4046     		mov	r0, r8
 173 0066 FFF7FEFF 		bl	lv_obj_has_flag_any
 174              	.LVL12:
 524:Drivers/lvgl/src/core/lv_indev_scroll.c ****         if(lv_obj_has_flag(child, LV_OBJ_FLAG_SNAPPABLE)) {
 175              		.loc 1 524 11 view .LVU41
 176 006a 58B9     		cbnz	r0, .L5
 525:Drivers/lvgl/src/core/lv_indev_scroll.c ****             lv_coord_t y_child = 0;
 177              		.loc 1 525 9 is_stmt 1 view .LVU42
 525:Drivers/lvgl/src/core/lv_indev_scroll.c ****             lv_coord_t y_child = 0;
 178              		.loc 1 525 12 is_stmt 0 view .LVU43
 179 006c 4FF48051 		mov	r1, #4096
 180 0070 4046     		mov	r0, r8
 181 0072 FFF7FEFF 		bl	lv_obj_has_flag
 182              	.LVL13:
 525:Drivers/lvgl/src/core/lv_indev_scroll.c ****             lv_coord_t y_child = 0;
 183              		.loc 1 525 11 view .LVU44
 184 0076 28B1     		cbz	r0, .L5
 185              	.LBB104:
 526:Drivers/lvgl/src/core/lv_indev_scroll.c ****             lv_coord_t y_parent = 0;
 186              		.loc 1 526 13 is_stmt 1 view .LVU45
 187              	.LVL14:
 527:Drivers/lvgl/src/core/lv_indev_scroll.c ****             switch(align) {
 188              		.loc 1 527 13 view .LVU46
 528:Drivers/lvgl/src/core/lv_indev_scroll.c ****                 case LV_SCROLL_SNAP_START:
 189              		.loc 1 528 13 view .LVU47
 190 0078 022D     		cmp	r5, #2
 191 007a 4FD0     		beq	.L6
 192 007c 032D     		cmp	r5, #3
 193 007e 2FD0     		beq	.L7
 194 0080 012D     		cmp	r5, #1
 195 0082 0DD0     		beq	.L19
 196              	.LVL15:
 197              	.L5:
 528:Drivers/lvgl/src/core/lv_indev_scroll.c ****                 case LV_SCROLL_SNAP_START:
 198              		.loc 1 528 13 is_stmt 0 view .LVU48
 199              	.LBE104:
 200              	.LBE119:
 522:Drivers/lvgl/src/core/lv_indev_scroll.c ****         lv_obj_t * child = obj->spec_attr->children[i];
 201              		.loc 1 522 32 is_stmt 1 discriminator 2 view .LVU49
 202 0084 0BF1010B 		add	fp, fp, #1
 203              	.LVL16:
 522:Drivers/lvgl/src/core/lv_indev_scroll.c ****         lv_obj_t * child = obj->spec_attr->children[i];
 204              		.loc 1 522 18 discriminator 2 view .LVU50
 205 0088 5E45     		cmp	r6, fp
 206 008a E6D1     		bne	.L9
 553:Drivers/lvgl/src/core/lv_indev_scroll.c **** }
 207              		.loc 1 553 5 view .LVU51
 553:Drivers/lvgl/src/core/lv_indev_scroll.c **** }
 208              		.loc 1 553 37 is_stmt 0 view .LVU52
 209 008c 019A     		ldr	r2, [sp, #4]
 210 008e 41F6FF73 		movw	r3, #8191
 211 0092 9A42     		cmp	r2, r3
ARM GAS  /var/folders/0z/tsy30v1j4xl4_7kw94k978ww0000gn/T//cc5O5B9v.s 			page 17


 212 0094 BED0     		beq	.L4
 553:Drivers/lvgl/src/core/lv_indev_scroll.c **** }
 213              		.loc 1 553 37 discriminator 1 view .LVU53
 214 0096 5042     		rsbs	r0, r2, #0
 215 0098 00B2     		sxth	r0, r0
 216              		.loc 1 554 1 discriminator 1 view .LVU54
 217 009a 07B0     		add	sp, sp, #28
 218              		.cfi_remember_state
 219              		.cfi_def_cfa_offset 36
 220              		@ sp needed
 221 009c BDE8F08F 		pop	{r4, r5, r6, r7, r8, r9, r10, fp, pc}
 222              	.LVL17:
 223              	.L19:
 224              		.cfi_restore_state
 225              	.LBB120:
 226              	.LBB118:
 530:Drivers/lvgl/src/core/lv_indev_scroll.c ****                     y_parent = obj->coords.y1 + pad_top;
 227              		.loc 1 530 21 is_stmt 1 view .LVU55
 531:Drivers/lvgl/src/core/lv_indev_scroll.c ****                     break;
 228              		.loc 1 531 21 view .LVU56
 531:Drivers/lvgl/src/core/lv_indev_scroll.c ****                     break;
 229              		.loc 1 531 47 is_stmt 0 view .LVU57
 230 00a0 E28A     		ldrh	r2, [r4, #22]
 231 00a2 0299     		ldr	r1, [sp, #8]
 538:Drivers/lvgl/src/core/lv_indev_scroll.c ****                     y_parent = obj->coords.y1 + pad_top + (lv_area_get_height(&obj->coords) - pad_t
 232              		.loc 1 538 44 view .LVU58
 233 00a4 B8F81630 		ldrh	r3, [r8, #22]
 531:Drivers/lvgl/src/core/lv_indev_scroll.c ****                     break;
 234              		.loc 1 531 47 view .LVU59
 235 00a8 0A44     		add	r2, r2, r1
 236 00aa 92B2     		uxth	r2, r2
 237              	.LVL18:
 532:Drivers/lvgl/src/core/lv_indev_scroll.c ****                 case LV_SCROLL_SNAP_END:
 238              		.loc 1 532 21 is_stmt 1 view .LVU60
 239              	.L8:
 545:Drivers/lvgl/src/core/lv_indev_scroll.c ****             if(y_child >= min && y_child <= max) {
 240              		.loc 1 545 13 view .LVU61
 545:Drivers/lvgl/src/core/lv_indev_scroll.c ****             if(y_child >= min && y_child <= max) {
 241              		.loc 1 545 21 is_stmt 0 view .LVU62
 242 00ac 5344     		add	r3, r3, r10
 243 00ae 19B2     		sxth	r1, r3
 244              	.LVL19:
 546:Drivers/lvgl/src/core/lv_indev_scroll.c ****                 lv_coord_t y = y_child -  y_parent;
 245              		.loc 1 546 13 is_stmt 1 view .LVU63
 546:Drivers/lvgl/src/core/lv_indev_scroll.c ****                 lv_coord_t y = y_child -  y_parent;
 246              		.loc 1 546 15 is_stmt 0 view .LVU64
 247 00b0 4945     		cmp	r1, r9
 545:Drivers/lvgl/src/core/lv_indev_scroll.c ****             if(y_child >= min && y_child <= max) {
 248              		.loc 1 545 21 view .LVU65
 249 00b2 9BB2     		uxth	r3, r3
 546:Drivers/lvgl/src/core/lv_indev_scroll.c ****                 lv_coord_t y = y_child -  y_parent;
 250              		.loc 1 546 15 view .LVU66
 251 00b4 E6DB     		blt	.L5
 546:Drivers/lvgl/src/core/lv_indev_scroll.c ****                 lv_coord_t y = y_child -  y_parent;
 252              		.loc 1 546 31 discriminator 1 view .LVU67
 253 00b6 0098     		ldr	r0, [sp]
 254 00b8 8142     		cmp	r1, r0
ARM GAS  /var/folders/0z/tsy30v1j4xl4_7kw94k978ww0000gn/T//cc5O5B9v.s 			page 18


 255 00ba E3DC     		bgt	.L5
 256              	.LBB105:
 547:Drivers/lvgl/src/core/lv_indev_scroll.c ****                 if(LV_ABS(y) < LV_ABS(dist)) dist = y;
 257              		.loc 1 547 17 is_stmt 1 view .LVU68
 548:Drivers/lvgl/src/core/lv_indev_scroll.c ****             }
 258              		.loc 1 548 32 is_stmt 0 view .LVU69
 259 00bc 0198     		ldr	r0, [sp, #4]
 547:Drivers/lvgl/src/core/lv_indev_scroll.c ****                 if(LV_ABS(y) < LV_ABS(dist)) dist = y;
 260              		.loc 1 547 40 view .LVU70
 261 00be 9B1A     		subs	r3, r3, r2
 547:Drivers/lvgl/src/core/lv_indev_scroll.c ****                 if(LV_ABS(y) < LV_ABS(dist)) dist = y;
 262              		.loc 1 547 28 view .LVU71
 263 00c0 1BB2     		sxth	r3, r3
 264              	.LVL20:
 548:Drivers/lvgl/src/core/lv_indev_scroll.c ****             }
 265              		.loc 1 548 17 is_stmt 1 view .LVU72
 548:Drivers/lvgl/src/core/lv_indev_scroll.c ****             }
 266              		.loc 1 548 32 is_stmt 0 view .LVU73
 267 00c2 80EAE072 		eor	r2, r0, r0, asr #31
 548:Drivers/lvgl/src/core/lv_indev_scroll.c ****             }
 268              		.loc 1 548 20 view .LVU74
 269 00c6 83EAE371 		eor	r1, r3, r3, asr #31
 270              	.LVL21:
 548:Drivers/lvgl/src/core/lv_indev_scroll.c ****             }
 271              		.loc 1 548 32 view .LVU75
 272 00ca A2EBE072 		sub	r2, r2, r0, asr #31
 548:Drivers/lvgl/src/core/lv_indev_scroll.c ****             }
 273              		.loc 1 548 20 view .LVU76
 274 00ce A1EBE371 		sub	r1, r1, r3, asr #31
 548:Drivers/lvgl/src/core/lv_indev_scroll.c ****             }
 275              		.loc 1 548 19 view .LVU77
 276 00d2 92B2     		uxth	r2, r2
 277 00d4 89B2     		uxth	r1, r1
 548:Drivers/lvgl/src/core/lv_indev_scroll.c ****             }
 278              		.loc 1 548 51 view .LVU78
 279 00d6 9142     		cmp	r1, r2
 280 00d8 38BF     		it	cc
 281 00da 1846     		movcc	r0, r3
 282 00dc 0190     		str	r0, [sp, #4]
 283              	.LVL22:
 548:Drivers/lvgl/src/core/lv_indev_scroll.c ****             }
 284              		.loc 1 548 51 view .LVU79
 285 00de D1E7     		b	.L5
 286              	.LVL23:
 287              	.L7:
 548:Drivers/lvgl/src/core/lv_indev_scroll.c ****             }
 288              		.loc 1 548 51 view .LVU80
 289              	.LBE105:
 538:Drivers/lvgl/src/core/lv_indev_scroll.c ****                     y_parent = obj->coords.y1 + pad_top + (lv_area_get_height(&obj->coords) - pad_t
 290              		.loc 1 538 21 is_stmt 1 view .LVU81
 291              	.LBB106:
 292              	.LBB107:
 293              		.file 3 "Drivers/lvgl/src/core/../misc/../font/../misc/lv_area.h"
   1:Drivers/lvgl/src/core/../misc/../font/../misc/lv_area.h **** /**
   2:Drivers/lvgl/src/core/../misc/../font/../misc/lv_area.h ****  * @file lv_area.h
   3:Drivers/lvgl/src/core/../misc/../font/../misc/lv_area.h ****  *
   4:Drivers/lvgl/src/core/../misc/../font/../misc/lv_area.h ****  */
ARM GAS  /var/folders/0z/tsy30v1j4xl4_7kw94k978ww0000gn/T//cc5O5B9v.s 			page 19


   5:Drivers/lvgl/src/core/../misc/../font/../misc/lv_area.h **** 
   6:Drivers/lvgl/src/core/../misc/../font/../misc/lv_area.h **** #ifndef LV_AREA_H
   7:Drivers/lvgl/src/core/../misc/../font/../misc/lv_area.h **** #define LV_AREA_H
   8:Drivers/lvgl/src/core/../misc/../font/../misc/lv_area.h **** 
   9:Drivers/lvgl/src/core/../misc/../font/../misc/lv_area.h **** #ifdef __cplusplus
  10:Drivers/lvgl/src/core/../misc/../font/../misc/lv_area.h **** extern "C" {
  11:Drivers/lvgl/src/core/../misc/../font/../misc/lv_area.h **** #endif
  12:Drivers/lvgl/src/core/../misc/../font/../misc/lv_area.h **** 
  13:Drivers/lvgl/src/core/../misc/../font/../misc/lv_area.h **** /*********************
  14:Drivers/lvgl/src/core/../misc/../font/../misc/lv_area.h ****  *      INCLUDES
  15:Drivers/lvgl/src/core/../misc/../font/../misc/lv_area.h ****  *********************/
  16:Drivers/lvgl/src/core/../misc/../font/../misc/lv_area.h **** #include "../lv_conf_internal.h"
  17:Drivers/lvgl/src/core/../misc/../font/../misc/lv_area.h **** #include <stdbool.h>
  18:Drivers/lvgl/src/core/../misc/../font/../misc/lv_area.h **** #include <stdint.h>
  19:Drivers/lvgl/src/core/../misc/../font/../misc/lv_area.h **** 
  20:Drivers/lvgl/src/core/../misc/../font/../misc/lv_area.h **** /*********************
  21:Drivers/lvgl/src/core/../misc/../font/../misc/lv_area.h ****  *      DEFINES
  22:Drivers/lvgl/src/core/../misc/../font/../misc/lv_area.h ****  *********************/
  23:Drivers/lvgl/src/core/../misc/../font/../misc/lv_area.h **** 
  24:Drivers/lvgl/src/core/../misc/../font/../misc/lv_area.h **** #if LV_USE_LARGE_COORD
  25:Drivers/lvgl/src/core/../misc/../font/../misc/lv_area.h **** typedef int32_t lv_coord_t;
  26:Drivers/lvgl/src/core/../misc/../font/../misc/lv_area.h **** #else
  27:Drivers/lvgl/src/core/../misc/../font/../misc/lv_area.h **** typedef int16_t lv_coord_t;
  28:Drivers/lvgl/src/core/../misc/../font/../misc/lv_area.h **** #endif
  29:Drivers/lvgl/src/core/../misc/../font/../misc/lv_area.h **** 
  30:Drivers/lvgl/src/core/../misc/../font/../misc/lv_area.h **** /**********************
  31:Drivers/lvgl/src/core/../misc/../font/../misc/lv_area.h ****  *      TYPEDEFS
  32:Drivers/lvgl/src/core/../misc/../font/../misc/lv_area.h ****  **********************/
  33:Drivers/lvgl/src/core/../misc/../font/../misc/lv_area.h **** 
  34:Drivers/lvgl/src/core/../misc/../font/../misc/lv_area.h **** /**
  35:Drivers/lvgl/src/core/../misc/../font/../misc/lv_area.h ****  * Represents a point on the screen.
  36:Drivers/lvgl/src/core/../misc/../font/../misc/lv_area.h ****  */
  37:Drivers/lvgl/src/core/../misc/../font/../misc/lv_area.h **** typedef struct {
  38:Drivers/lvgl/src/core/../misc/../font/../misc/lv_area.h ****     lv_coord_t x;
  39:Drivers/lvgl/src/core/../misc/../font/../misc/lv_area.h ****     lv_coord_t y;
  40:Drivers/lvgl/src/core/../misc/../font/../misc/lv_area.h **** } lv_point_t;
  41:Drivers/lvgl/src/core/../misc/../font/../misc/lv_area.h **** 
  42:Drivers/lvgl/src/core/../misc/../font/../misc/lv_area.h **** /** Represents an area of the screen.*/
  43:Drivers/lvgl/src/core/../misc/../font/../misc/lv_area.h **** typedef struct {
  44:Drivers/lvgl/src/core/../misc/../font/../misc/lv_area.h ****     lv_coord_t x1;
  45:Drivers/lvgl/src/core/../misc/../font/../misc/lv_area.h ****     lv_coord_t y1;
  46:Drivers/lvgl/src/core/../misc/../font/../misc/lv_area.h ****     lv_coord_t x2;
  47:Drivers/lvgl/src/core/../misc/../font/../misc/lv_area.h ****     lv_coord_t y2;
  48:Drivers/lvgl/src/core/../misc/../font/../misc/lv_area.h **** } lv_area_t;
  49:Drivers/lvgl/src/core/../misc/../font/../misc/lv_area.h **** 
  50:Drivers/lvgl/src/core/../misc/../font/../misc/lv_area.h **** /** Alignments*/
  51:Drivers/lvgl/src/core/../misc/../font/../misc/lv_area.h **** enum {
  52:Drivers/lvgl/src/core/../misc/../font/../misc/lv_area.h ****     LV_ALIGN_DEFAULT = 0,
  53:Drivers/lvgl/src/core/../misc/../font/../misc/lv_area.h ****     LV_ALIGN_TOP_LEFT,
  54:Drivers/lvgl/src/core/../misc/../font/../misc/lv_area.h ****     LV_ALIGN_TOP_MID,
  55:Drivers/lvgl/src/core/../misc/../font/../misc/lv_area.h ****     LV_ALIGN_TOP_RIGHT,
  56:Drivers/lvgl/src/core/../misc/../font/../misc/lv_area.h ****     LV_ALIGN_BOTTOM_LEFT,
  57:Drivers/lvgl/src/core/../misc/../font/../misc/lv_area.h ****     LV_ALIGN_BOTTOM_MID,
  58:Drivers/lvgl/src/core/../misc/../font/../misc/lv_area.h ****     LV_ALIGN_BOTTOM_RIGHT,
  59:Drivers/lvgl/src/core/../misc/../font/../misc/lv_area.h ****     LV_ALIGN_LEFT_MID,
  60:Drivers/lvgl/src/core/../misc/../font/../misc/lv_area.h ****     LV_ALIGN_RIGHT_MID,
  61:Drivers/lvgl/src/core/../misc/../font/../misc/lv_area.h ****     LV_ALIGN_CENTER,
ARM GAS  /var/folders/0z/tsy30v1j4xl4_7kw94k978ww0000gn/T//cc5O5B9v.s 			page 20


  62:Drivers/lvgl/src/core/../misc/../font/../misc/lv_area.h **** 
  63:Drivers/lvgl/src/core/../misc/../font/../misc/lv_area.h ****     LV_ALIGN_OUT_TOP_LEFT,
  64:Drivers/lvgl/src/core/../misc/../font/../misc/lv_area.h ****     LV_ALIGN_OUT_TOP_MID,
  65:Drivers/lvgl/src/core/../misc/../font/../misc/lv_area.h ****     LV_ALIGN_OUT_TOP_RIGHT,
  66:Drivers/lvgl/src/core/../misc/../font/../misc/lv_area.h ****     LV_ALIGN_OUT_BOTTOM_LEFT,
  67:Drivers/lvgl/src/core/../misc/../font/../misc/lv_area.h ****     LV_ALIGN_OUT_BOTTOM_MID,
  68:Drivers/lvgl/src/core/../misc/../font/../misc/lv_area.h ****     LV_ALIGN_OUT_BOTTOM_RIGHT,
  69:Drivers/lvgl/src/core/../misc/../font/../misc/lv_area.h ****     LV_ALIGN_OUT_LEFT_TOP,
  70:Drivers/lvgl/src/core/../misc/../font/../misc/lv_area.h ****     LV_ALIGN_OUT_LEFT_MID,
  71:Drivers/lvgl/src/core/../misc/../font/../misc/lv_area.h ****     LV_ALIGN_OUT_LEFT_BOTTOM,
  72:Drivers/lvgl/src/core/../misc/../font/../misc/lv_area.h ****     LV_ALIGN_OUT_RIGHT_TOP,
  73:Drivers/lvgl/src/core/../misc/../font/../misc/lv_area.h ****     LV_ALIGN_OUT_RIGHT_MID,
  74:Drivers/lvgl/src/core/../misc/../font/../misc/lv_area.h ****     LV_ALIGN_OUT_RIGHT_BOTTOM,
  75:Drivers/lvgl/src/core/../misc/../font/../misc/lv_area.h **** };
  76:Drivers/lvgl/src/core/../misc/../font/../misc/lv_area.h **** typedef uint8_t lv_align_t;
  77:Drivers/lvgl/src/core/../misc/../font/../misc/lv_area.h **** 
  78:Drivers/lvgl/src/core/../misc/../font/../misc/lv_area.h **** enum {
  79:Drivers/lvgl/src/core/../misc/../font/../misc/lv_area.h ****     LV_DIR_NONE     = 0x00,
  80:Drivers/lvgl/src/core/../misc/../font/../misc/lv_area.h ****     LV_DIR_LEFT     = (1 << 0),
  81:Drivers/lvgl/src/core/../misc/../font/../misc/lv_area.h ****     LV_DIR_RIGHT    = (1 << 1),
  82:Drivers/lvgl/src/core/../misc/../font/../misc/lv_area.h ****     LV_DIR_TOP      = (1 << 2),
  83:Drivers/lvgl/src/core/../misc/../font/../misc/lv_area.h ****     LV_DIR_BOTTOM   = (1 << 3),
  84:Drivers/lvgl/src/core/../misc/../font/../misc/lv_area.h ****     LV_DIR_HOR      = LV_DIR_LEFT | LV_DIR_RIGHT,
  85:Drivers/lvgl/src/core/../misc/../font/../misc/lv_area.h ****     LV_DIR_VER      = LV_DIR_TOP | LV_DIR_BOTTOM,
  86:Drivers/lvgl/src/core/../misc/../font/../misc/lv_area.h ****     LV_DIR_ALL      = LV_DIR_HOR | LV_DIR_VER,
  87:Drivers/lvgl/src/core/../misc/../font/../misc/lv_area.h **** };
  88:Drivers/lvgl/src/core/../misc/../font/../misc/lv_area.h **** 
  89:Drivers/lvgl/src/core/../misc/../font/../misc/lv_area.h **** typedef uint8_t lv_dir_t;
  90:Drivers/lvgl/src/core/../misc/../font/../misc/lv_area.h **** 
  91:Drivers/lvgl/src/core/../misc/../font/../misc/lv_area.h **** /**********************
  92:Drivers/lvgl/src/core/../misc/../font/../misc/lv_area.h ****  * GLOBAL PROTOTYPES
  93:Drivers/lvgl/src/core/../misc/../font/../misc/lv_area.h ****  **********************/
  94:Drivers/lvgl/src/core/../misc/../font/../misc/lv_area.h **** 
  95:Drivers/lvgl/src/core/../misc/../font/../misc/lv_area.h **** /**
  96:Drivers/lvgl/src/core/../misc/../font/../misc/lv_area.h ****  * Initialize an area
  97:Drivers/lvgl/src/core/../misc/../font/../misc/lv_area.h ****  * @param area_p pointer to an area
  98:Drivers/lvgl/src/core/../misc/../font/../misc/lv_area.h ****  * @param x1 left coordinate of the area
  99:Drivers/lvgl/src/core/../misc/../font/../misc/lv_area.h ****  * @param y1 top coordinate of the area
 100:Drivers/lvgl/src/core/../misc/../font/../misc/lv_area.h ****  * @param x2 right coordinate of the area
 101:Drivers/lvgl/src/core/../misc/../font/../misc/lv_area.h ****  * @param y2 bottom coordinate of the area
 102:Drivers/lvgl/src/core/../misc/../font/../misc/lv_area.h ****  */
 103:Drivers/lvgl/src/core/../misc/../font/../misc/lv_area.h **** void lv_area_set(lv_area_t * area_p, lv_coord_t x1, lv_coord_t y1, lv_coord_t x2, lv_coord_t y2);
 104:Drivers/lvgl/src/core/../misc/../font/../misc/lv_area.h **** 
 105:Drivers/lvgl/src/core/../misc/../font/../misc/lv_area.h **** /**
 106:Drivers/lvgl/src/core/../misc/../font/../misc/lv_area.h ****  * Copy an area
 107:Drivers/lvgl/src/core/../misc/../font/../misc/lv_area.h ****  * @param dest pointer to the destination area
 108:Drivers/lvgl/src/core/../misc/../font/../misc/lv_area.h ****  * @param src pointer to the source area
 109:Drivers/lvgl/src/core/../misc/../font/../misc/lv_area.h ****  */
 110:Drivers/lvgl/src/core/../misc/../font/../misc/lv_area.h **** inline static void lv_area_copy(lv_area_t * dest, const lv_area_t * src)
 111:Drivers/lvgl/src/core/../misc/../font/../misc/lv_area.h **** {
 112:Drivers/lvgl/src/core/../misc/../font/../misc/lv_area.h ****     dest->x1 = src->x1;
 113:Drivers/lvgl/src/core/../misc/../font/../misc/lv_area.h ****     dest->y1 = src->y1;
 114:Drivers/lvgl/src/core/../misc/../font/../misc/lv_area.h ****     dest->x2 = src->x2;
 115:Drivers/lvgl/src/core/../misc/../font/../misc/lv_area.h ****     dest->y2 = src->y2;
 116:Drivers/lvgl/src/core/../misc/../font/../misc/lv_area.h **** }
 117:Drivers/lvgl/src/core/../misc/../font/../misc/lv_area.h **** 
 118:Drivers/lvgl/src/core/../misc/../font/../misc/lv_area.h **** /**
ARM GAS  /var/folders/0z/tsy30v1j4xl4_7kw94k978ww0000gn/T//cc5O5B9v.s 			page 21


 119:Drivers/lvgl/src/core/../misc/../font/../misc/lv_area.h ****  * Get the width of an area
 120:Drivers/lvgl/src/core/../misc/../font/../misc/lv_area.h ****  * @param area_p pointer to an area
 121:Drivers/lvgl/src/core/../misc/../font/../misc/lv_area.h ****  * @return the width of the area (if x1 == x2 -> width = 1)
 122:Drivers/lvgl/src/core/../misc/../font/../misc/lv_area.h ****  */
 123:Drivers/lvgl/src/core/../misc/../font/../misc/lv_area.h **** static inline lv_coord_t lv_area_get_width(const lv_area_t * area_p)
 124:Drivers/lvgl/src/core/../misc/../font/../misc/lv_area.h **** {
 125:Drivers/lvgl/src/core/../misc/../font/../misc/lv_area.h ****     return (lv_coord_t)(area_p->x2 - area_p->x1 + 1);
 126:Drivers/lvgl/src/core/../misc/../font/../misc/lv_area.h **** }
 127:Drivers/lvgl/src/core/../misc/../font/../misc/lv_area.h **** 
 128:Drivers/lvgl/src/core/../misc/../font/../misc/lv_area.h **** /**
 129:Drivers/lvgl/src/core/../misc/../font/../misc/lv_area.h ****  * Get the height of an area
 130:Drivers/lvgl/src/core/../misc/../font/../misc/lv_area.h ****  * @param area_p pointer to an area
 131:Drivers/lvgl/src/core/../misc/../font/../misc/lv_area.h ****  * @return the height of the area (if y1 == y2 -> height = 1)
 132:Drivers/lvgl/src/core/../misc/../font/../misc/lv_area.h ****  */
 133:Drivers/lvgl/src/core/../misc/../font/../misc/lv_area.h **** static inline lv_coord_t lv_area_get_height(const lv_area_t * area_p)
 134:Drivers/lvgl/src/core/../misc/../font/../misc/lv_area.h **** {
 135:Drivers/lvgl/src/core/../misc/../font/../misc/lv_area.h ****     return (lv_coord_t)(area_p->y2 - area_p->y1 + 1);
 294              		.loc 3 135 49 is_stmt 0 view .LVU82
 295 00e0 628B     		ldrh	r2, [r4, #26]
 296              	.LBE107:
 297              	.LBE106:
 539:Drivers/lvgl/src/core/lv_indev_scroll.c ****                     break;
 298              		.loc 1 539 43 view .LVU83
 299 00e2 E18A     		ldrh	r1, [r4, #22]
 539:Drivers/lvgl/src/core/lv_indev_scroll.c ****                     break;
 300              		.loc 1 539 93 view .LVU84
 301 00e4 059B     		ldr	r3, [sp, #20]
 302              	.LBB110:
 303              	.LBB108:
 304              		.loc 3 135 49 view .LVU85
 305 00e6 0132     		adds	r2, r2, #1
 306 00e8 521A     		subs	r2, r2, r1
 307              	.LBE108:
 308              	.LBE110:
 539:Drivers/lvgl/src/core/lv_indev_scroll.c ****                     break;
 309              		.loc 1 539 60 view .LVU86
 310 00ea 12B2     		sxth	r2, r2
 539:Drivers/lvgl/src/core/lv_indev_scroll.c ****                     break;
 311              		.loc 1 539 93 view .LVU87
 312 00ec D21A     		subs	r2, r2, r3
 539:Drivers/lvgl/src/core/lv_indev_scroll.c ****                     break;
 313              		.loc 1 539 103 view .LVU88
 314 00ee 039B     		ldr	r3, [sp, #12]
 315 00f0 D21A     		subs	r2, r2, r3
 539:Drivers/lvgl/src/core/lv_indev_scroll.c ****                     break;
 316              		.loc 1 539 47 view .LVU89
 317 00f2 029B     		ldr	r3, [sp, #8]
 539:Drivers/lvgl/src/core/lv_indev_scroll.c ****                     break;
 318              		.loc 1 539 117 view .LVU90
 319 00f4 02EBD272 		add	r2, r2, r2, lsr #31
 539:Drivers/lvgl/src/core/lv_indev_scroll.c ****                     break;
 320              		.loc 1 539 47 view .LVU91
 321 00f8 1944     		add	r1, r1, r3
 539:Drivers/lvgl/src/core/lv_indev_scroll.c ****                     break;
 322              		.loc 1 539 57 view .LVU92
 323 00fa 01EB6202 		add	r2, r1, r2, asr #1
 324              	.LBB111:
ARM GAS  /var/folders/0z/tsy30v1j4xl4_7kw94k978ww0000gn/T//cc5O5B9v.s 			page 22


 325              	.LBB112:
 326              		.loc 3 135 49 view .LVU93
 327 00fe B8F81A10 		ldrh	r1, [r8, #26]
 328              	.LBE112:
 329              	.LBE111:
 538:Drivers/lvgl/src/core/lv_indev_scroll.c ****                     y_parent = obj->coords.y1 + pad_top + (lv_area_get_height(&obj->coords) - pad_t
 330              		.loc 1 538 44 view .LVU94
 331 0102 B8F81630 		ldrh	r3, [r8, #22]
 332              	.LVL24:
 333              	.LBB115:
 334              	.LBI111:
 133:Drivers/lvgl/src/core/../misc/../font/../misc/lv_area.h **** {
 335              		.loc 3 133 26 is_stmt 1 view .LVU95
 336              	.LBB113:
 337              		.loc 3 135 5 view .LVU96
 338              		.loc 3 135 49 is_stmt 0 view .LVU97
 339 0106 0131     		adds	r1, r1, #1
 340 0108 C91A     		subs	r1, r1, r3
 341              	.LBE113:
 342              	.LBE115:
 538:Drivers/lvgl/src/core/lv_indev_scroll.c ****                     y_parent = obj->coords.y1 + pad_top + (lv_area_get_height(&obj->coords) - pad_t
 343              		.loc 1 538 48 view .LVU98
 344 010a C1F3C030 		ubfx	r0, r1, #15, #1
 345 010e 00FA81F1 		sxtah	r1, r0, r1
 346 0112 03EB6103 		add	r3, r3, r1, asr #1
 539:Drivers/lvgl/src/core/lv_indev_scroll.c ****                     break;
 347              		.loc 1 539 57 view .LVU99
 348 0116 92B2     		uxth	r2, r2
 538:Drivers/lvgl/src/core/lv_indev_scroll.c ****                     y_parent = obj->coords.y1 + pad_top + (lv_area_get_height(&obj->coords) - pad_t
 349              		.loc 1 538 48 view .LVU100
 350 0118 9BB2     		uxth	r3, r3
 351              	.LVL25:
 539:Drivers/lvgl/src/core/lv_indev_scroll.c ****                     break;
 352              		.loc 1 539 21 is_stmt 1 view .LVU101
 353              	.LBB116:
 354              	.LBI106:
 133:Drivers/lvgl/src/core/../misc/../font/../misc/lv_area.h **** {
 355              		.loc 3 133 26 view .LVU102
 356              	.LBB109:
 357              		.loc 3 135 5 view .LVU103
 358              		.loc 3 135 5 is_stmt 0 view .LVU104
 359              	.LBE109:
 360              	.LBE116:
 540:Drivers/lvgl/src/core/lv_indev_scroll.c ****                 default:
 361              		.loc 1 540 21 is_stmt 1 view .LVU105
 362 011a C7E7     		b	.L8
 363              	.LVL26:
 364              	.L6:
 534:Drivers/lvgl/src/core/lv_indev_scroll.c ****                     y_parent = obj->coords.y2 - pad_bottom;
 365              		.loc 1 534 21 view .LVU106
 535:Drivers/lvgl/src/core/lv_indev_scroll.c ****                     break;
 366              		.loc 1 535 21 view .LVU107
 535:Drivers/lvgl/src/core/lv_indev_scroll.c ****                     break;
 367              		.loc 1 535 47 is_stmt 0 view .LVU108
 368 011c 628B     		ldrh	r2, [r4, #26]
 369 011e 0499     		ldr	r1, [sp, #16]
 370              	.LBB117:
ARM GAS  /var/folders/0z/tsy30v1j4xl4_7kw94k978ww0000gn/T//cc5O5B9v.s 			page 23


 371              	.LBB114:
 372              		.loc 3 135 31 view .LVU109
 373 0120 B8F81A30 		ldrh	r3, [r8, #26]
 374              	.LBE114:
 375              	.LBE117:
 535:Drivers/lvgl/src/core/lv_indev_scroll.c ****                     break;
 376              		.loc 1 535 47 view .LVU110
 377 0124 521A     		subs	r2, r2, r1
 378 0126 92B2     		uxth	r2, r2
 379              	.LVL27:
 536:Drivers/lvgl/src/core/lv_indev_scroll.c ****                 case LV_SCROLL_SNAP_CENTER:
 380              		.loc 1 536 21 is_stmt 1 view .LVU111
 381 0128 C0E7     		b	.L8
 382              	.L21:
 383 012a 00BF     		.align	2
 384              	.L20:
 385 012c 01000400 		.word	262145
 386              	.LBE118:
 387              	.LBE120:
 388              		.cfi_endproc
 389              	.LFE168:
 391              		.section	.text.find_snap_point_x,"ax",%progbits
 392              		.align	1
 393              		.p2align 2,,3
 394              		.syntax unified
 395              		.thumb
 396              		.thumb_func
 398              	find_snap_point_x:
 399              	.LVL28:
 400              	.LFB167:
 456:Drivers/lvgl/src/core/lv_indev_scroll.c ****     lv_scroll_snap_t align = lv_obj_get_scroll_snap_x(obj);
 401              		.loc 1 456 1 view -0
 402              		.cfi_startproc
 403              		@ args = 0, pretend = 0, frame = 24
 404              		@ frame_needed = 0, uses_anonymous_args = 0
 457:Drivers/lvgl/src/core/lv_indev_scroll.c ****     if(align == LV_SCROLL_SNAP_NONE) return 0;
 405              		.loc 1 457 5 view .LVU113
 456:Drivers/lvgl/src/core/lv_indev_scroll.c ****     lv_scroll_snap_t align = lv_obj_get_scroll_snap_x(obj);
 406              		.loc 1 456 1 is_stmt 0 view .LVU114
 407 0000 2DE9F04F 		push	{r4, r5, r6, r7, r8, r9, r10, fp, lr}
 408              		.cfi_def_cfa_offset 36
 409              		.cfi_offset 4, -36
 410              		.cfi_offset 5, -32
 411              		.cfi_offset 6, -28
 412              		.cfi_offset 7, -24
 413              		.cfi_offset 8, -20
 414              		.cfi_offset 9, -16
 415              		.cfi_offset 10, -12
 416              		.cfi_offset 11, -8
 417              		.cfi_offset 14, -4
 418 0004 87B0     		sub	sp, sp, #28
 419              		.cfi_def_cfa_offset 64
 456:Drivers/lvgl/src/core/lv_indev_scroll.c ****     lv_scroll_snap_t align = lv_obj_get_scroll_snap_x(obj);
 420              		.loc 1 456 1 view .LVU115
 421 0006 0446     		mov	r4, r0
 422 0008 8946     		mov	r9, r1
 423 000a 0092     		str	r2, [sp]
ARM GAS  /var/folders/0z/tsy30v1j4xl4_7kw94k978ww0000gn/T//cc5O5B9v.s 			page 24


 424 000c 9A46     		mov	r10, r3
 457:Drivers/lvgl/src/core/lv_indev_scroll.c ****     if(align == LV_SCROLL_SNAP_NONE) return 0;
 425              		.loc 1 457 30 view .LVU116
 426 000e FFF7FEFF 		bl	lv_obj_get_scroll_snap_x
 427              	.LVL29:
 458:Drivers/lvgl/src/core/lv_indev_scroll.c **** 
 428              		.loc 1 458 5 is_stmt 1 view .LVU117
 458:Drivers/lvgl/src/core/lv_indev_scroll.c **** 
 429              		.loc 1 458 7 is_stmt 0 view .LVU118
 430 0012 18B9     		cbnz	r0, .L23
 431              	.LVL30:
 432              	.L25:
 458:Drivers/lvgl/src/core/lv_indev_scroll.c **** 
 433              		.loc 1 458 45 view .LVU119
 434 0014 0020     		movs	r0, #0
 499:Drivers/lvgl/src/core/lv_indev_scroll.c **** 
 435              		.loc 1 499 1 view .LVU120
 436 0016 07B0     		add	sp, sp, #28
 437              		.cfi_remember_state
 438              		.cfi_def_cfa_offset 36
 439              		@ sp needed
 440 0018 BDE8F08F 		pop	{r4, r5, r6, r7, r8, r9, r10, fp, pc}
 441              	.LVL31:
 442              	.L23:
 443              		.cfi_restore_state
 460:Drivers/lvgl/src/core/lv_indev_scroll.c **** 
 444              		.loc 1 460 5 is_stmt 1 view .LVU121
 462:Drivers/lvgl/src/core/lv_indev_scroll.c ****     lv_coord_t pad_right = lv_obj_get_style_pad_right(obj, LV_PART_MAIN);
 445              		.loc 1 462 5 view .LVU122
 446              	.LBB121:
 447              	.LBI121:
 113:Drivers/lvgl/src/core/lv_obj_style_gen.h **** }
 114:Drivers/lvgl/src/core/lv_obj_style_gen.h **** 
 115:Drivers/lvgl/src/core/lv_obj_style_gen.h **** static inline lv_coord_t lv_obj_get_style_pad_left(const struct _lv_obj_t * obj, uint32_t part)
 448              		.loc 2 115 26 view .LVU123
 449              	.LBB122:
 116:Drivers/lvgl/src/core/lv_obj_style_gen.h **** {
 117:Drivers/lvgl/src/core/lv_obj_style_gen.h ****     lv_style_value_t v = lv_obj_get_style_prop(obj, part, LV_STYLE_PAD_LEFT);
 450              		.loc 2 117 5 view .LVU124
 451              		.loc 2 117 26 is_stmt 0 view .LVU125
 452 001c 1222     		movs	r2, #18
 453 001e 0021     		movs	r1, #0
 454 0020 0546     		mov	r5, r0
 455 0022 2046     		mov	r0, r4
 456              	.LVL32:
 457              		.loc 2 117 26 view .LVU126
 458 0024 FFF7FEFF 		bl	lv_obj_get_style_prop
 459              	.LVL33:
 460              	.LBE122:
 461              	.LBE121:
 462              	.LBB125:
 463              	.LBB126:
 118:Drivers/lvgl/src/core/lv_obj_style_gen.h ****     return (lv_coord_t)v.num;
 119:Drivers/lvgl/src/core/lv_obj_style_gen.h **** }
 120:Drivers/lvgl/src/core/lv_obj_style_gen.h **** 
 121:Drivers/lvgl/src/core/lv_obj_style_gen.h **** static inline lv_coord_t lv_obj_get_style_pad_right(const struct _lv_obj_t * obj, uint32_t part)
 122:Drivers/lvgl/src/core/lv_obj_style_gen.h **** {
ARM GAS  /var/folders/0z/tsy30v1j4xl4_7kw94k978ww0000gn/T//cc5O5B9v.s 			page 25


 123:Drivers/lvgl/src/core/lv_obj_style_gen.h ****     lv_style_value_t v = lv_obj_get_style_prop(obj, part, LV_STYLE_PAD_RIGHT);
 464              		.loc 2 123 26 view .LVU127
 465 0028 1322     		movs	r2, #19
 466              	.LBE126:
 467              	.LBE125:
 468              	.LBB129:
 469              	.LBB123:
 117:Drivers/lvgl/src/core/lv_obj_style_gen.h ****     return (lv_coord_t)v.num;
 470              		.loc 2 117 26 view .LVU128
 471 002a 0746     		mov	r7, r0
 472 002c 0290     		str	r0, [sp, #8]
 118:Drivers/lvgl/src/core/lv_obj_style_gen.h ****     return (lv_coord_t)v.num;
 473              		.loc 2 118 5 is_stmt 1 view .LVU129
 474              	.LBE123:
 475              	.LBE129:
 476              	.LBB130:
 477              	.LBB127:
 478              		.loc 2 123 26 is_stmt 0 view .LVU130
 479 002e 0021     		movs	r1, #0
 480 0030 2046     		mov	r0, r4
 481 0032 FFF7FEFF 		bl	lv_obj_get_style_prop
 482              	.LVL34:
 483 0036 0646     		mov	r6, r0
 484 0038 0490     		str	r0, [sp, #16]
 485              	.LBE127:
 486              	.LBE130:
 466:Drivers/lvgl/src/core/lv_indev_scroll.c ****     for(i = 0; i < child_cnt; i++) {
 487              		.loc 1 466 26 view .LVU131
 488 003a 2046     		mov	r0, r4
 489 003c FFF7FEFF 		bl	lv_obj_get_child_cnt
 490              	.LVL35:
 491              	.LBB131:
 492              	.LBB124:
 118:Drivers/lvgl/src/core/lv_obj_style_gen.h ****     return (lv_coord_t)v.num;
 493              		.loc 2 118 12 view .LVU132
 494 0040 3BB2     		sxth	r3, r7
 495 0042 0593     		str	r3, [sp, #20]
 496              	.LVL36:
 118:Drivers/lvgl/src/core/lv_obj_style_gen.h ****     return (lv_coord_t)v.num;
 497              		.loc 2 118 12 view .LVU133
 498              	.LBE124:
 499              	.LBE131:
 463:Drivers/lvgl/src/core/lv_indev_scroll.c **** 
 500              		.loc 1 463 5 is_stmt 1 view .LVU134
 501              	.LBB132:
 502              	.LBI125:
 121:Drivers/lvgl/src/core/lv_obj_style_gen.h **** {
 503              		.loc 2 121 26 view .LVU135
 504              	.LBB128:
 505              		.loc 2 123 5 view .LVU136
 124:Drivers/lvgl/src/core/lv_obj_style_gen.h ****     return (lv_coord_t)v.num;
 506              		.loc 2 124 5 view .LVU137
 507              		.loc 2 124 12 is_stmt 0 view .LVU138
 508 0044 33B2     		sxth	r3, r6
 509 0046 0393     		str	r3, [sp, #12]
 510              	.LVL37:
 511              		.loc 2 124 12 view .LVU139
ARM GAS  /var/folders/0z/tsy30v1j4xl4_7kw94k978ww0000gn/T//cc5O5B9v.s 			page 26


 512              	.LBE128:
 513              	.LBE132:
 465:Drivers/lvgl/src/core/lv_indev_scroll.c ****     uint32_t child_cnt = lv_obj_get_child_cnt(obj);
 514              		.loc 1 465 5 is_stmt 1 view .LVU140
 466:Drivers/lvgl/src/core/lv_indev_scroll.c ****     for(i = 0; i < child_cnt; i++) {
 515              		.loc 1 466 5 view .LVU141
 467:Drivers/lvgl/src/core/lv_indev_scroll.c ****         lv_obj_t * child = obj->spec_attr->children[i];
 516              		.loc 1 467 5 view .LVU142
 467:Drivers/lvgl/src/core/lv_indev_scroll.c ****         lv_obj_t * child = obj->spec_attr->children[i];
 517              		.loc 1 467 18 view .LVU143
 518 0048 0646     		mov	r6, r0
 519 004a 0028     		cmp	r0, #0
 520 004c E2D0     		beq	.L25
 460:Drivers/lvgl/src/core/lv_indev_scroll.c **** 
 521              		.loc 1 460 16 is_stmt 0 view .LVU144
 522 004e 41F6FF73 		movw	r3, #8191
 523              	.LBB133:
 469:Drivers/lvgl/src/core/lv_indev_scroll.c ****         if(lv_obj_has_flag(child, LV_OBJ_FLAG_SNAPPABLE)) {
 524              		.loc 1 469 12 view .LVU145
 525 0052 364F     		ldr	r7, .L40
 526              	.LBE133:
 460:Drivers/lvgl/src/core/lv_indev_scroll.c **** 
 527              		.loc 1 460 16 view .LVU146
 528 0054 0193     		str	r3, [sp, #4]
 467:Drivers/lvgl/src/core/lv_indev_scroll.c ****         lv_obj_t * child = obj->spec_attr->children[i];
 529              		.loc 1 467 11 view .LVU147
 530 0056 4FF0000B 		mov	fp, #0
 531              	.LVL38:
 532              	.L30:
 533              	.LBB149:
 468:Drivers/lvgl/src/core/lv_indev_scroll.c ****         if(lv_obj_has_flag_any(child, LV_OBJ_FLAG_HIDDEN | LV_OBJ_FLAG_FLOATING)) continue;
 534              		.loc 1 468 9 is_stmt 1 view .LVU148
 468:Drivers/lvgl/src/core/lv_indev_scroll.c ****         if(lv_obj_has_flag_any(child, LV_OBJ_FLAG_HIDDEN | LV_OBJ_FLAG_FLOATING)) continue;
 535              		.loc 1 468 42 is_stmt 0 view .LVU149
 536 005a A368     		ldr	r3, [r4, #8]
 468:Drivers/lvgl/src/core/lv_indev_scroll.c ****         if(lv_obj_has_flag_any(child, LV_OBJ_FLAG_HIDDEN | LV_OBJ_FLAG_FLOATING)) continue;
 537              		.loc 1 468 20 view .LVU150
 538 005c 1B68     		ldr	r3, [r3]
 539 005e 53F82B80 		ldr	r8, [r3, fp, lsl #2]
 540              	.LVL39:
 469:Drivers/lvgl/src/core/lv_indev_scroll.c ****         if(lv_obj_has_flag(child, LV_OBJ_FLAG_SNAPPABLE)) {
 541              		.loc 1 469 9 is_stmt 1 view .LVU151
 469:Drivers/lvgl/src/core/lv_indev_scroll.c ****         if(lv_obj_has_flag(child, LV_OBJ_FLAG_SNAPPABLE)) {
 542              		.loc 1 469 12 is_stmt 0 view .LVU152
 543 0062 3946     		mov	r1, r7
 544 0064 4046     		mov	r0, r8
 545 0066 FFF7FEFF 		bl	lv_obj_has_flag_any
 546              	.LVL40:
 469:Drivers/lvgl/src/core/lv_indev_scroll.c ****         if(lv_obj_has_flag(child, LV_OBJ_FLAG_SNAPPABLE)) {
 547              		.loc 1 469 11 view .LVU153
 548 006a 58B9     		cbnz	r0, .L26
 470:Drivers/lvgl/src/core/lv_indev_scroll.c ****             lv_coord_t x_child = 0;
 549              		.loc 1 470 9 is_stmt 1 view .LVU154
 470:Drivers/lvgl/src/core/lv_indev_scroll.c ****             lv_coord_t x_child = 0;
 550              		.loc 1 470 12 is_stmt 0 view .LVU155
 551 006c 4FF48051 		mov	r1, #4096
 552 0070 4046     		mov	r0, r8
ARM GAS  /var/folders/0z/tsy30v1j4xl4_7kw94k978ww0000gn/T//cc5O5B9v.s 			page 27


 553 0072 FFF7FEFF 		bl	lv_obj_has_flag
 554              	.LVL41:
 470:Drivers/lvgl/src/core/lv_indev_scroll.c ****             lv_coord_t x_child = 0;
 555              		.loc 1 470 11 view .LVU156
 556 0076 28B1     		cbz	r0, .L26
 557              	.LBB134:
 471:Drivers/lvgl/src/core/lv_indev_scroll.c ****             lv_coord_t x_parent = 0;
 558              		.loc 1 471 13 is_stmt 1 view .LVU157
 559              	.LVL42:
 472:Drivers/lvgl/src/core/lv_indev_scroll.c ****             switch(align) {
 560              		.loc 1 472 13 view .LVU158
 473:Drivers/lvgl/src/core/lv_indev_scroll.c ****                 case LV_SCROLL_SNAP_START:
 561              		.loc 1 473 13 view .LVU159
 562 0078 022D     		cmp	r5, #2
 563 007a 4FD0     		beq	.L27
 564 007c 032D     		cmp	r5, #3
 565 007e 2FD0     		beq	.L28
 566 0080 012D     		cmp	r5, #1
 567 0082 0DD0     		beq	.L39
 568              	.LVL43:
 569              	.L26:
 473:Drivers/lvgl/src/core/lv_indev_scroll.c ****                 case LV_SCROLL_SNAP_START:
 570              		.loc 1 473 13 is_stmt 0 view .LVU160
 571              	.LBE134:
 572              	.LBE149:
 467:Drivers/lvgl/src/core/lv_indev_scroll.c ****         lv_obj_t * child = obj->spec_attr->children[i];
 573              		.loc 1 467 32 is_stmt 1 discriminator 2 view .LVU161
 574 0084 0BF1010B 		add	fp, fp, #1
 575              	.LVL44:
 467:Drivers/lvgl/src/core/lv_indev_scroll.c ****         lv_obj_t * child = obj->spec_attr->children[i];
 576              		.loc 1 467 18 discriminator 2 view .LVU162
 577 0088 5E45     		cmp	r6, fp
 578 008a E6D1     		bne	.L30
 498:Drivers/lvgl/src/core/lv_indev_scroll.c **** }
 579              		.loc 1 498 5 view .LVU163
 498:Drivers/lvgl/src/core/lv_indev_scroll.c **** }
 580              		.loc 1 498 37 is_stmt 0 view .LVU164
 581 008c 019A     		ldr	r2, [sp, #4]
 582 008e 41F6FF73 		movw	r3, #8191
 583 0092 9A42     		cmp	r2, r3
 584 0094 BED0     		beq	.L25
 498:Drivers/lvgl/src/core/lv_indev_scroll.c **** }
 585              		.loc 1 498 37 discriminator 1 view .LVU165
 586 0096 5042     		rsbs	r0, r2, #0
 587 0098 00B2     		sxth	r0, r0
 499:Drivers/lvgl/src/core/lv_indev_scroll.c **** 
 588              		.loc 1 499 1 discriminator 1 view .LVU166
 589 009a 07B0     		add	sp, sp, #28
 590              		.cfi_remember_state
 591              		.cfi_def_cfa_offset 36
 592              		@ sp needed
 593 009c BDE8F08F 		pop	{r4, r5, r6, r7, r8, r9, r10, fp, pc}
 594              	.LVL45:
 595              	.L39:
 596              		.cfi_restore_state
 597              	.LBB150:
 598              	.LBB148:
ARM GAS  /var/folders/0z/tsy30v1j4xl4_7kw94k978ww0000gn/T//cc5O5B9v.s 			page 28


 475:Drivers/lvgl/src/core/lv_indev_scroll.c ****                     x_parent = obj->coords.x1 + pad_left;
 599              		.loc 1 475 21 is_stmt 1 view .LVU167
 476:Drivers/lvgl/src/core/lv_indev_scroll.c ****                     break;
 600              		.loc 1 476 21 view .LVU168
 476:Drivers/lvgl/src/core/lv_indev_scroll.c ****                     break;
 601              		.loc 1 476 47 is_stmt 0 view .LVU169
 602 00a0 A28A     		ldrh	r2, [r4, #20]
 603 00a2 0299     		ldr	r1, [sp, #8]
 483:Drivers/lvgl/src/core/lv_indev_scroll.c ****                     x_parent = obj->coords.x1 + pad_left + (lv_area_get_width(&obj->coords) - pad_l
 604              		.loc 1 483 44 view .LVU170
 605 00a4 B8F81430 		ldrh	r3, [r8, #20]
 476:Drivers/lvgl/src/core/lv_indev_scroll.c ****                     break;
 606              		.loc 1 476 47 view .LVU171
 607 00a8 0A44     		add	r2, r2, r1
 608 00aa 92B2     		uxth	r2, r2
 609              	.LVL46:
 477:Drivers/lvgl/src/core/lv_indev_scroll.c ****                 case LV_SCROLL_SNAP_END:
 610              		.loc 1 477 21 is_stmt 1 view .LVU172
 611              	.L29:
 490:Drivers/lvgl/src/core/lv_indev_scroll.c ****             if(x_child >= min && x_child <= max) {
 612              		.loc 1 490 13 view .LVU173
 490:Drivers/lvgl/src/core/lv_indev_scroll.c ****             if(x_child >= min && x_child <= max) {
 613              		.loc 1 490 21 is_stmt 0 view .LVU174
 614 00ac 5344     		add	r3, r3, r10
 615 00ae 19B2     		sxth	r1, r3
 616              	.LVL47:
 491:Drivers/lvgl/src/core/lv_indev_scroll.c ****                 lv_coord_t x = x_child -  x_parent;
 617              		.loc 1 491 13 is_stmt 1 view .LVU175
 491:Drivers/lvgl/src/core/lv_indev_scroll.c ****                 lv_coord_t x = x_child -  x_parent;
 618              		.loc 1 491 15 is_stmt 0 view .LVU176
 619 00b0 4945     		cmp	r1, r9
 490:Drivers/lvgl/src/core/lv_indev_scroll.c ****             if(x_child >= min && x_child <= max) {
 620              		.loc 1 490 21 view .LVU177
 621 00b2 9BB2     		uxth	r3, r3
 491:Drivers/lvgl/src/core/lv_indev_scroll.c ****                 lv_coord_t x = x_child -  x_parent;
 622              		.loc 1 491 15 view .LVU178
 623 00b4 E6DB     		blt	.L26
 491:Drivers/lvgl/src/core/lv_indev_scroll.c ****                 lv_coord_t x = x_child -  x_parent;
 624              		.loc 1 491 31 discriminator 1 view .LVU179
 625 00b6 0098     		ldr	r0, [sp]
 626 00b8 8142     		cmp	r1, r0
 627 00ba E3DC     		bgt	.L26
 628              	.LBB135:
 492:Drivers/lvgl/src/core/lv_indev_scroll.c ****                 if(LV_ABS(x) < LV_ABS(dist)) dist = x;
 629              		.loc 1 492 17 is_stmt 1 view .LVU180
 493:Drivers/lvgl/src/core/lv_indev_scroll.c ****             }
 630              		.loc 1 493 32 is_stmt 0 view .LVU181
 631 00bc 0198     		ldr	r0, [sp, #4]
 492:Drivers/lvgl/src/core/lv_indev_scroll.c ****                 if(LV_ABS(x) < LV_ABS(dist)) dist = x;
 632              		.loc 1 492 40 view .LVU182
 633 00be 9B1A     		subs	r3, r3, r2
 492:Drivers/lvgl/src/core/lv_indev_scroll.c ****                 if(LV_ABS(x) < LV_ABS(dist)) dist = x;
 634              		.loc 1 492 28 view .LVU183
 635 00c0 1BB2     		sxth	r3, r3
 636              	.LVL48:
 493:Drivers/lvgl/src/core/lv_indev_scroll.c ****             }
 637              		.loc 1 493 17 is_stmt 1 view .LVU184
ARM GAS  /var/folders/0z/tsy30v1j4xl4_7kw94k978ww0000gn/T//cc5O5B9v.s 			page 29


 493:Drivers/lvgl/src/core/lv_indev_scroll.c ****             }
 638              		.loc 1 493 32 is_stmt 0 view .LVU185
 639 00c2 80EAE072 		eor	r2, r0, r0, asr #31
 493:Drivers/lvgl/src/core/lv_indev_scroll.c ****             }
 640              		.loc 1 493 20 view .LVU186
 641 00c6 83EAE371 		eor	r1, r3, r3, asr #31
 642              	.LVL49:
 493:Drivers/lvgl/src/core/lv_indev_scroll.c ****             }
 643              		.loc 1 493 32 view .LVU187
 644 00ca A2EBE072 		sub	r2, r2, r0, asr #31
 493:Drivers/lvgl/src/core/lv_indev_scroll.c ****             }
 645              		.loc 1 493 20 view .LVU188
 646 00ce A1EBE371 		sub	r1, r1, r3, asr #31
 493:Drivers/lvgl/src/core/lv_indev_scroll.c ****             }
 647              		.loc 1 493 19 view .LVU189
 648 00d2 92B2     		uxth	r2, r2
 649 00d4 89B2     		uxth	r1, r1
 493:Drivers/lvgl/src/core/lv_indev_scroll.c ****             }
 650              		.loc 1 493 51 view .LVU190
 651 00d6 9142     		cmp	r1, r2
 652 00d8 38BF     		it	cc
 653 00da 1846     		movcc	r0, r3
 654 00dc 0190     		str	r0, [sp, #4]
 655              	.LVL50:
 493:Drivers/lvgl/src/core/lv_indev_scroll.c ****             }
 656              		.loc 1 493 51 view .LVU191
 657 00de D1E7     		b	.L26
 658              	.LVL51:
 659              	.L28:
 493:Drivers/lvgl/src/core/lv_indev_scroll.c ****             }
 660              		.loc 1 493 51 view .LVU192
 661              	.LBE135:
 483:Drivers/lvgl/src/core/lv_indev_scroll.c ****                     x_parent = obj->coords.x1 + pad_left + (lv_area_get_width(&obj->coords) - pad_l
 662              		.loc 1 483 21 is_stmt 1 view .LVU193
 663              	.LBB136:
 664              	.LBB137:
 125:Drivers/lvgl/src/core/../misc/../font/../misc/lv_area.h **** }
 665              		.loc 3 125 49 is_stmt 0 view .LVU194
 666 00e0 228B     		ldrh	r2, [r4, #24]
 667              	.LBE137:
 668              	.LBE136:
 484:Drivers/lvgl/src/core/lv_indev_scroll.c ****                     break;
 669              		.loc 1 484 43 view .LVU195
 670 00e2 A18A     		ldrh	r1, [r4, #20]
 484:Drivers/lvgl/src/core/lv_indev_scroll.c ****                     break;
 671              		.loc 1 484 93 view .LVU196
 672 00e4 059B     		ldr	r3, [sp, #20]
 673              	.LBB140:
 674              	.LBB138:
 125:Drivers/lvgl/src/core/../misc/../font/../misc/lv_area.h **** }
 675              		.loc 3 125 49 view .LVU197
 676 00e6 0132     		adds	r2, r2, #1
 677 00e8 521A     		subs	r2, r2, r1
 678              	.LBE138:
 679              	.LBE140:
 484:Drivers/lvgl/src/core/lv_indev_scroll.c ****                     break;
 680              		.loc 1 484 61 view .LVU198
ARM GAS  /var/folders/0z/tsy30v1j4xl4_7kw94k978ww0000gn/T//cc5O5B9v.s 			page 30


 681 00ea 12B2     		sxth	r2, r2
 484:Drivers/lvgl/src/core/lv_indev_scroll.c ****                     break;
 682              		.loc 1 484 93 view .LVU199
 683 00ec D21A     		subs	r2, r2, r3
 484:Drivers/lvgl/src/core/lv_indev_scroll.c ****                     break;
 684              		.loc 1 484 104 view .LVU200
 685 00ee 039B     		ldr	r3, [sp, #12]
 686 00f0 D21A     		subs	r2, r2, r3
 484:Drivers/lvgl/src/core/lv_indev_scroll.c ****                     break;
 687              		.loc 1 484 47 view .LVU201
 688 00f2 029B     		ldr	r3, [sp, #8]
 484:Drivers/lvgl/src/core/lv_indev_scroll.c ****                     break;
 689              		.loc 1 484 117 view .LVU202
 690 00f4 02EBD272 		add	r2, r2, r2, lsr #31
 484:Drivers/lvgl/src/core/lv_indev_scroll.c ****                     break;
 691              		.loc 1 484 47 view .LVU203
 692 00f8 1944     		add	r1, r1, r3
 484:Drivers/lvgl/src/core/lv_indev_scroll.c ****                     break;
 693              		.loc 1 484 58 view .LVU204
 694 00fa 01EB6202 		add	r2, r1, r2, asr #1
 695              	.LBB141:
 696              	.LBB142:
 125:Drivers/lvgl/src/core/../misc/../font/../misc/lv_area.h **** }
 697              		.loc 3 125 49 view .LVU205
 698 00fe B8F81810 		ldrh	r1, [r8, #24]
 699              	.LBE142:
 700              	.LBE141:
 483:Drivers/lvgl/src/core/lv_indev_scroll.c ****                     x_parent = obj->coords.x1 + pad_left + (lv_area_get_width(&obj->coords) - pad_l
 701              		.loc 1 483 44 view .LVU206
 702 0102 B8F81430 		ldrh	r3, [r8, #20]
 703              	.LVL52:
 704              	.LBB145:
 705              	.LBI141:
 123:Drivers/lvgl/src/core/../misc/../font/../misc/lv_area.h **** {
 706              		.loc 3 123 26 is_stmt 1 view .LVU207
 707              	.LBB143:
 125:Drivers/lvgl/src/core/../misc/../font/../misc/lv_area.h **** }
 708              		.loc 3 125 5 view .LVU208
 125:Drivers/lvgl/src/core/../misc/../font/../misc/lv_area.h **** }
 709              		.loc 3 125 49 is_stmt 0 view .LVU209
 710 0106 0131     		adds	r1, r1, #1
 711 0108 C91A     		subs	r1, r1, r3
 712              	.LBE143:
 713              	.LBE145:
 483:Drivers/lvgl/src/core/lv_indev_scroll.c ****                     x_parent = obj->coords.x1 + pad_left + (lv_area_get_width(&obj->coords) - pad_l
 714              		.loc 1 483 48 view .LVU210
 715 010a C1F3C030 		ubfx	r0, r1, #15, #1
 716 010e 00FA81F1 		sxtah	r1, r0, r1
 717 0112 03EB6103 		add	r3, r3, r1, asr #1
 484:Drivers/lvgl/src/core/lv_indev_scroll.c ****                     break;
 718              		.loc 1 484 58 view .LVU211
 719 0116 92B2     		uxth	r2, r2
 483:Drivers/lvgl/src/core/lv_indev_scroll.c ****                     x_parent = obj->coords.x1 + pad_left + (lv_area_get_width(&obj->coords) - pad_l
 720              		.loc 1 483 48 view .LVU212
 721 0118 9BB2     		uxth	r3, r3
 722              	.LVL53:
 484:Drivers/lvgl/src/core/lv_indev_scroll.c ****                     break;
ARM GAS  /var/folders/0z/tsy30v1j4xl4_7kw94k978ww0000gn/T//cc5O5B9v.s 			page 31


 723              		.loc 1 484 21 is_stmt 1 view .LVU213
 724              	.LBB146:
 725              	.LBI136:
 123:Drivers/lvgl/src/core/../misc/../font/../misc/lv_area.h **** {
 726              		.loc 3 123 26 view .LVU214
 727              	.LBB139:
 125:Drivers/lvgl/src/core/../misc/../font/../misc/lv_area.h **** }
 728              		.loc 3 125 5 view .LVU215
 125:Drivers/lvgl/src/core/../misc/../font/../misc/lv_area.h **** }
 729              		.loc 3 125 5 is_stmt 0 view .LVU216
 730              	.LBE139:
 731              	.LBE146:
 485:Drivers/lvgl/src/core/lv_indev_scroll.c ****                 default:
 732              		.loc 1 485 21 is_stmt 1 view .LVU217
 733 011a C7E7     		b	.L29
 734              	.LVL54:
 735              	.L27:
 479:Drivers/lvgl/src/core/lv_indev_scroll.c ****                     x_parent = obj->coords.x2 - pad_right;
 736              		.loc 1 479 21 view .LVU218
 480:Drivers/lvgl/src/core/lv_indev_scroll.c ****                     break;
 737              		.loc 1 480 21 view .LVU219
 480:Drivers/lvgl/src/core/lv_indev_scroll.c ****                     break;
 738              		.loc 1 480 47 is_stmt 0 view .LVU220
 739 011c 228B     		ldrh	r2, [r4, #24]
 740 011e 0499     		ldr	r1, [sp, #16]
 741              	.LBB147:
 742              	.LBB144:
 125:Drivers/lvgl/src/core/../misc/../font/../misc/lv_area.h **** }
 743              		.loc 3 125 31 view .LVU221
 744 0120 B8F81830 		ldrh	r3, [r8, #24]
 745              	.LBE144:
 746              	.LBE147:
 480:Drivers/lvgl/src/core/lv_indev_scroll.c ****                     break;
 747              		.loc 1 480 47 view .LVU222
 748 0124 521A     		subs	r2, r2, r1
 749 0126 92B2     		uxth	r2, r2
 750              	.LVL55:
 481:Drivers/lvgl/src/core/lv_indev_scroll.c ****                 case LV_SCROLL_SNAP_CENTER:
 751              		.loc 1 481 21 is_stmt 1 view .LVU223
 752 0128 C0E7     		b	.L29
 753              	.L41:
 754 012a 00BF     		.align	2
 755              	.L40:
 756 012c 01000400 		.word	262145
 757              	.LBE148:
 758              	.LBE150:
 759              		.cfi_endproc
 760              	.LFE167:
 762              		.section	.text.elastic_diff,"ax",%progbits
 763              		.align	1
 764              		.p2align 2,,3
 765              		.syntax unified
 766              		.thumb
 767              		.thumb_func
 769              	elastic_diff:
 770              	.LVL56:
 771              	.LFB172:
ARM GAS  /var/folders/0z/tsy30v1j4xl4_7kw94k978ww0000gn/T//cc5O5B9v.s 			page 32


 555:Drivers/lvgl/src/core/lv_indev_scroll.c **** 
 556:Drivers/lvgl/src/core/lv_indev_scroll.c **** static void scroll_limit_diff(_lv_indev_proc_t * proc, lv_coord_t * diff_x, lv_coord_t * diff_y)
 557:Drivers/lvgl/src/core/lv_indev_scroll.c **** {
 558:Drivers/lvgl/src/core/lv_indev_scroll.c ****     if(diff_y) {
 559:Drivers/lvgl/src/core/lv_indev_scroll.c ****         if(proc->types.pointer.scroll_sum.y + *diff_y < proc->types.pointer.scroll_area.y1) {
 560:Drivers/lvgl/src/core/lv_indev_scroll.c ****             *diff_y = proc->types.pointer.scroll_area.y1 - proc->types.pointer.scroll_sum.y;
 561:Drivers/lvgl/src/core/lv_indev_scroll.c ****         }
 562:Drivers/lvgl/src/core/lv_indev_scroll.c **** 
 563:Drivers/lvgl/src/core/lv_indev_scroll.c ****         if(proc->types.pointer.scroll_sum.y + *diff_y > proc->types.pointer.scroll_area.y2) {
 564:Drivers/lvgl/src/core/lv_indev_scroll.c ****             *diff_y = proc->types.pointer.scroll_area.y2 - proc->types.pointer.scroll_sum.y;
 565:Drivers/lvgl/src/core/lv_indev_scroll.c ****         }
 566:Drivers/lvgl/src/core/lv_indev_scroll.c ****     }
 567:Drivers/lvgl/src/core/lv_indev_scroll.c **** 
 568:Drivers/lvgl/src/core/lv_indev_scroll.c ****     if(diff_x) {
 569:Drivers/lvgl/src/core/lv_indev_scroll.c ****         if(proc->types.pointer.scroll_sum.x + *diff_x < proc->types.pointer.scroll_area.x1) {
 570:Drivers/lvgl/src/core/lv_indev_scroll.c ****             *diff_x = proc->types.pointer.scroll_area.x1 - proc->types.pointer.scroll_sum.x;
 571:Drivers/lvgl/src/core/lv_indev_scroll.c ****         }
 572:Drivers/lvgl/src/core/lv_indev_scroll.c **** 
 573:Drivers/lvgl/src/core/lv_indev_scroll.c ****         if(proc->types.pointer.scroll_sum.x + *diff_x > proc->types.pointer.scroll_area.x2) {
 574:Drivers/lvgl/src/core/lv_indev_scroll.c ****             *diff_x = proc->types.pointer.scroll_area.x2 - proc->types.pointer.scroll_sum.x;
 575:Drivers/lvgl/src/core/lv_indev_scroll.c ****         }
 576:Drivers/lvgl/src/core/lv_indev_scroll.c ****     }
 577:Drivers/lvgl/src/core/lv_indev_scroll.c **** }
 578:Drivers/lvgl/src/core/lv_indev_scroll.c **** 
 579:Drivers/lvgl/src/core/lv_indev_scroll.c **** 
 580:Drivers/lvgl/src/core/lv_indev_scroll.c **** 
 581:Drivers/lvgl/src/core/lv_indev_scroll.c **** static lv_coord_t scroll_throw_predict_y(_lv_indev_proc_t * proc)
 582:Drivers/lvgl/src/core/lv_indev_scroll.c **** {
 583:Drivers/lvgl/src/core/lv_indev_scroll.c ****     lv_coord_t y = proc->types.pointer.scroll_throw_vect.y;
 584:Drivers/lvgl/src/core/lv_indev_scroll.c ****     lv_coord_t move = 0;
 585:Drivers/lvgl/src/core/lv_indev_scroll.c **** 
 586:Drivers/lvgl/src/core/lv_indev_scroll.c ****     lv_indev_t * indev_act = lv_indev_get_act();
 587:Drivers/lvgl/src/core/lv_indev_scroll.c ****     lv_coord_t scroll_throw = indev_act->driver->scroll_throw;
 588:Drivers/lvgl/src/core/lv_indev_scroll.c **** 
 589:Drivers/lvgl/src/core/lv_indev_scroll.c ****     while(y) {
 590:Drivers/lvgl/src/core/lv_indev_scroll.c ****         move += y;
 591:Drivers/lvgl/src/core/lv_indev_scroll.c ****         y = y * (100 - scroll_throw) / 100;
 592:Drivers/lvgl/src/core/lv_indev_scroll.c ****     }
 593:Drivers/lvgl/src/core/lv_indev_scroll.c ****     return move;
 594:Drivers/lvgl/src/core/lv_indev_scroll.c **** }
 595:Drivers/lvgl/src/core/lv_indev_scroll.c **** 
 596:Drivers/lvgl/src/core/lv_indev_scroll.c **** 
 597:Drivers/lvgl/src/core/lv_indev_scroll.c **** static lv_coord_t scroll_throw_predict_x(_lv_indev_proc_t * proc)
 598:Drivers/lvgl/src/core/lv_indev_scroll.c **** {
 599:Drivers/lvgl/src/core/lv_indev_scroll.c ****     lv_coord_t x = proc->types.pointer.scroll_throw_vect.x;
 600:Drivers/lvgl/src/core/lv_indev_scroll.c ****     lv_coord_t move = 0;
 601:Drivers/lvgl/src/core/lv_indev_scroll.c **** 
 602:Drivers/lvgl/src/core/lv_indev_scroll.c ****     lv_indev_t * indev_act = lv_indev_get_act();
 603:Drivers/lvgl/src/core/lv_indev_scroll.c ****     lv_coord_t scroll_throw = indev_act->driver->scroll_throw;
 604:Drivers/lvgl/src/core/lv_indev_scroll.c **** 
 605:Drivers/lvgl/src/core/lv_indev_scroll.c ****     while(x) {
 606:Drivers/lvgl/src/core/lv_indev_scroll.c ****         move += x;
 607:Drivers/lvgl/src/core/lv_indev_scroll.c ****         x = x * (100 - scroll_throw) / 100;
 608:Drivers/lvgl/src/core/lv_indev_scroll.c ****     }
 609:Drivers/lvgl/src/core/lv_indev_scroll.c ****     return move;
 610:Drivers/lvgl/src/core/lv_indev_scroll.c **** }
 611:Drivers/lvgl/src/core/lv_indev_scroll.c **** 
ARM GAS  /var/folders/0z/tsy30v1j4xl4_7kw94k978ww0000gn/T//cc5O5B9v.s 			page 33


 612:Drivers/lvgl/src/core/lv_indev_scroll.c **** static lv_coord_t elastic_diff(lv_obj_t * scroll_obj, lv_coord_t diff, lv_coord_t scroll_start, lv_
 613:Drivers/lvgl/src/core/lv_indev_scroll.c ****                                lv_dir_t dir)
 614:Drivers/lvgl/src/core/lv_indev_scroll.c **** {
 772              		.loc 1 614 1 view -0
 773              		.cfi_startproc
 774              		@ args = 4, pretend = 0, frame = 0
 775              		@ frame_needed = 0, uses_anonymous_args = 0
 615:Drivers/lvgl/src/core/lv_indev_scroll.c ****     if(lv_obj_has_flag(scroll_obj, LV_OBJ_FLAG_SCROLL_ELASTIC)) {
 776              		.loc 1 615 5 view .LVU225
 614:Drivers/lvgl/src/core/lv_indev_scroll.c ****     if(lv_obj_has_flag(scroll_obj, LV_OBJ_FLAG_SCROLL_ELASTIC)) {
 777              		.loc 1 614 1 is_stmt 0 view .LVU226
 778 0000 2DE9F047 		push	{r4, r5, r6, r7, r8, r9, r10, lr}
 779              		.cfi_def_cfa_offset 32
 780              		.cfi_offset 4, -32
 781              		.cfi_offset 5, -28
 782              		.cfi_offset 6, -24
 783              		.cfi_offset 7, -20
 784              		.cfi_offset 8, -16
 785              		.cfi_offset 9, -12
 786              		.cfi_offset 10, -8
 787              		.cfi_offset 14, -4
 614:Drivers/lvgl/src/core/lv_indev_scroll.c ****     if(lv_obj_has_flag(scroll_obj, LV_OBJ_FLAG_SCROLL_ELASTIC)) {
 788              		.loc 1 614 1 view .LVU227
 789 0004 0C46     		mov	r4, r1
 790              		.loc 1 615 8 view .LVU228
 791 0006 2021     		movs	r1, #32
 792              	.LVL57:
 614:Drivers/lvgl/src/core/lv_indev_scroll.c ****     if(lv_obj_has_flag(scroll_obj, LV_OBJ_FLAG_SCROLL_ELASTIC)) {
 793              		.loc 1 614 1 view .LVU229
 794 0008 9DF82080 		ldrb	r8, [sp, #32]	@ zero_extendqisi2
 795 000c 0546     		mov	r5, r0
 796 000e 1646     		mov	r6, r2
 797 0010 1F46     		mov	r7, r3
 798              		.loc 1 615 8 view .LVU230
 799 0012 FFF7FEFF 		bl	lv_obj_has_flag
 800              	.LVL58:
 801              		.loc 1 615 7 view .LVU231
 802 0016 70B3     		cbz	r0, .L43
 803              	.LVL59:
 804              	.LBB172:
 805              	.LBI172:
 612:Drivers/lvgl/src/core/lv_indev_scroll.c ****                                lv_dir_t dir)
 806              		.loc 1 612 19 is_stmt 1 view .LVU232
 807              	.LBB173:
 616:Drivers/lvgl/src/core/lv_indev_scroll.c ****         /*If there is snapping in the current direction don't use the elastic factor because
 617:Drivers/lvgl/src/core/lv_indev_scroll.c ****          *it's natural that the first and last items are scrolled (snapped) in.*/
 618:Drivers/lvgl/src/core/lv_indev_scroll.c ****         lv_scroll_snap_t snap;
 808              		.loc 1 618 9 view .LVU233
 619:Drivers/lvgl/src/core/lv_indev_scroll.c ****         snap = dir == LV_DIR_HOR ? lv_obj_get_scroll_snap_x(scroll_obj) : lv_obj_get_scroll_snap_y(
 809              		.loc 1 619 9 view .LVU234
 810              		.loc 1 619 14 is_stmt 0 view .LVU235
 811 0018 B8F1030F 		cmp	r8, #3
 812              		.loc 1 619 36 view .LVU236
 813 001c 2846     		mov	r0, r5
 814              		.loc 1 619 14 view .LVU237
 815 001e 36D0     		beq	.L78
 816              		.loc 1 619 75 view .LVU238
ARM GAS  /var/folders/0z/tsy30v1j4xl4_7kw94k978ww0000gn/T//cc5O5B9v.s 			page 34


 817 0020 FFF7FEFF 		bl	lv_obj_get_scroll_snap_y
 818              	.LVL60:
 819 0024 8146     		mov	r9, r0
 820              	.LVL61:
 620:Drivers/lvgl/src/core/lv_indev_scroll.c **** 
 621:Drivers/lvgl/src/core/lv_indev_scroll.c ****         lv_obj_t * act_obj = lv_indev_get_obj_act();
 821              		.loc 1 621 9 is_stmt 1 view .LVU239
 822              		.loc 1 621 30 is_stmt 0 view .LVU240
 823 0026 FFF7FEFF 		bl	lv_indev_get_obj_act
 824              	.LVL62:
 825              	.LBB174:
 826              	.LBB175:
 827              	.LBB176:
 105:Drivers/lvgl/src/core/lv_obj_style_gen.h ****     return (lv_coord_t)v.num;
 828              		.loc 2 105 26 view .LVU241
 829 002a 1022     		movs	r2, #16
 830 002c 0021     		movs	r1, #0
 831              	.LBE176:
 832              	.LBE175:
 833              	.LBE174:
 834              		.loc 1 621 30 view .LVU242
 835 002e 8246     		mov	r10, r0
 836              	.LVL63:
 622:Drivers/lvgl/src/core/lv_indev_scroll.c ****         lv_coord_t snap_point = 0;
 837              		.loc 1 622 9 is_stmt 1 view .LVU243
 623:Drivers/lvgl/src/core/lv_indev_scroll.c ****         lv_coord_t act_obj_point = 0;
 838              		.loc 1 623 9 view .LVU244
 624:Drivers/lvgl/src/core/lv_indev_scroll.c **** 
 625:Drivers/lvgl/src/core/lv_indev_scroll.c ****         if(dir == LV_DIR_HOR) {
 839              		.loc 1 625 9 view .LVU245
 840              	.LBB193:
 626:Drivers/lvgl/src/core/lv_indev_scroll.c ****             lv_coord_t pad_left = lv_obj_get_style_pad_left(scroll_obj, LV_PART_MAIN);
 627:Drivers/lvgl/src/core/lv_indev_scroll.c ****             lv_coord_t pad_right = lv_obj_get_style_pad_right(scroll_obj, LV_PART_MAIN);
 628:Drivers/lvgl/src/core/lv_indev_scroll.c **** 
 629:Drivers/lvgl/src/core/lv_indev_scroll.c ****             switch(snap) {
 630:Drivers/lvgl/src/core/lv_indev_scroll.c ****                 case LV_SCROLL_SNAP_CENTER:
 631:Drivers/lvgl/src/core/lv_indev_scroll.c ****                     snap_point = pad_left + (lv_area_get_width(&scroll_obj->coords) - pad_left - pa
 632:Drivers/lvgl/src/core/lv_indev_scroll.c ****                     act_obj_point = lv_area_get_width(&act_obj->coords) / 2 + act_obj->coords.x1;
 633:Drivers/lvgl/src/core/lv_indev_scroll.c ****                     break;
 634:Drivers/lvgl/src/core/lv_indev_scroll.c ****                 case LV_SCROLL_SNAP_START:
 635:Drivers/lvgl/src/core/lv_indev_scroll.c ****                     snap_point = scroll_obj->coords.x1 + pad_left;
 636:Drivers/lvgl/src/core/lv_indev_scroll.c ****                     act_obj_point = act_obj->coords.x1;
 637:Drivers/lvgl/src/core/lv_indev_scroll.c ****                     break;
 638:Drivers/lvgl/src/core/lv_indev_scroll.c ****                 case LV_SCROLL_SNAP_END:
 639:Drivers/lvgl/src/core/lv_indev_scroll.c ****                     snap_point = scroll_obj->coords.x2 - pad_right;
 640:Drivers/lvgl/src/core/lv_indev_scroll.c ****                     act_obj_point = act_obj->coords.x2;
 641:Drivers/lvgl/src/core/lv_indev_scroll.c ****                     break;
 642:Drivers/lvgl/src/core/lv_indev_scroll.c ****             }
 643:Drivers/lvgl/src/core/lv_indev_scroll.c ****         }
 644:Drivers/lvgl/src/core/lv_indev_scroll.c ****         else {
 645:Drivers/lvgl/src/core/lv_indev_scroll.c ****             lv_coord_t pad_top = lv_obj_get_style_pad_top(scroll_obj, LV_PART_MAIN);
 841              		.loc 1 645 13 view .LVU246
 842              	.LBB179:
 843              	.LBI175:
 103:Drivers/lvgl/src/core/lv_obj_style_gen.h **** {
 844              		.loc 2 103 26 view .LVU247
 845              	.LBB177:
ARM GAS  /var/folders/0z/tsy30v1j4xl4_7kw94k978ww0000gn/T//cc5O5B9v.s 			page 35


 105:Drivers/lvgl/src/core/lv_obj_style_gen.h ****     return (lv_coord_t)v.num;
 846              		.loc 2 105 5 view .LVU248
 105:Drivers/lvgl/src/core/lv_obj_style_gen.h ****     return (lv_coord_t)v.num;
 847              		.loc 2 105 26 is_stmt 0 view .LVU249
 848 0030 2846     		mov	r0, r5
 849              	.LVL64:
 105:Drivers/lvgl/src/core/lv_obj_style_gen.h ****     return (lv_coord_t)v.num;
 850              		.loc 2 105 26 view .LVU250
 851 0032 FFF7FEFF 		bl	lv_obj_get_style_prop
 852              	.LVL65:
 853              	.LBE177:
 854              	.LBE179:
 855              	.LBB180:
 856              	.LBB181:
 111:Drivers/lvgl/src/core/lv_obj_style_gen.h ****     return (lv_coord_t)v.num;
 857              		.loc 2 111 26 view .LVU251
 858 0036 1122     		movs	r2, #17
 859              	.LBE181:
 860              	.LBE180:
 861              	.LBB183:
 862              	.LBB178:
 105:Drivers/lvgl/src/core/lv_obj_style_gen.h ****     return (lv_coord_t)v.num;
 863              		.loc 2 105 26 view .LVU252
 864 0038 8046     		mov	r8, r0
 865              	.LVL66:
 106:Drivers/lvgl/src/core/lv_obj_style_gen.h **** }
 866              		.loc 2 106 5 is_stmt 1 view .LVU253
 106:Drivers/lvgl/src/core/lv_obj_style_gen.h **** }
 867              		.loc 2 106 5 is_stmt 0 view .LVU254
 868              	.LBE178:
 869              	.LBE183:
 646:Drivers/lvgl/src/core/lv_indev_scroll.c ****             lv_coord_t pad_bottom = lv_obj_get_style_pad_bottom(scroll_obj, LV_PART_MAIN);
 870              		.loc 1 646 13 is_stmt 1 view .LVU255
 871              	.LBB184:
 872              	.LBI180:
 109:Drivers/lvgl/src/core/lv_obj_style_gen.h **** {
 873              		.loc 2 109 26 view .LVU256
 874              	.LBB182:
 111:Drivers/lvgl/src/core/lv_obj_style_gen.h ****     return (lv_coord_t)v.num;
 875              		.loc 2 111 5 view .LVU257
 111:Drivers/lvgl/src/core/lv_obj_style_gen.h ****     return (lv_coord_t)v.num;
 876              		.loc 2 111 26 is_stmt 0 view .LVU258
 877 003a 0021     		movs	r1, #0
 878 003c 2846     		mov	r0, r5
 879 003e FFF7FEFF 		bl	lv_obj_get_style_prop
 880              	.LVL67:
 112:Drivers/lvgl/src/core/lv_obj_style_gen.h **** }
 881              		.loc 2 112 5 is_stmt 1 view .LVU259
 112:Drivers/lvgl/src/core/lv_obj_style_gen.h **** }
 882              		.loc 2 112 5 is_stmt 0 view .LVU260
 883              	.LBE182:
 884              	.LBE184:
 647:Drivers/lvgl/src/core/lv_indev_scroll.c **** 
 648:Drivers/lvgl/src/core/lv_indev_scroll.c ****             switch(snap) {
 885              		.loc 1 648 13 is_stmt 1 view .LVU261
 886 0042 B9F1020F 		cmp	r9, #2
 887 0046 79D0     		beq	.L49
ARM GAS  /var/folders/0z/tsy30v1j4xl4_7kw94k978ww0000gn/T//cc5O5B9v.s 			page 36


 888 0048 B9F1030F 		cmp	r9, #3
 889 004c 57D0     		beq	.L50
 890 004e B9F1010F 		cmp	r9, #1
 891 0052 4ED0     		beq	.L79
 892              	.LVL68:
 893              	.L48:
 894              		.loc 1 648 13 is_stmt 0 view .LVU262
 895              	.LBE193:
 649:Drivers/lvgl/src/core/lv_indev_scroll.c ****                 case LV_SCROLL_SNAP_CENTER:
 650:Drivers/lvgl/src/core/lv_indev_scroll.c ****                     snap_point = pad_top + (lv_area_get_height(&scroll_obj->coords) - pad_top - pad
 651:Drivers/lvgl/src/core/lv_indev_scroll.c ****                     act_obj_point = lv_area_get_height(&act_obj->coords) / 2 + act_obj->coords.y1;
 652:Drivers/lvgl/src/core/lv_indev_scroll.c ****                     break;
 653:Drivers/lvgl/src/core/lv_indev_scroll.c ****                 case LV_SCROLL_SNAP_START:
 654:Drivers/lvgl/src/core/lv_indev_scroll.c ****                     snap_point = scroll_obj->coords.y1 + pad_top;
 655:Drivers/lvgl/src/core/lv_indev_scroll.c ****                     act_obj_point = act_obj->coords.y1;
 656:Drivers/lvgl/src/core/lv_indev_scroll.c ****                     break;
 657:Drivers/lvgl/src/core/lv_indev_scroll.c ****                 case LV_SCROLL_SNAP_END:
 658:Drivers/lvgl/src/core/lv_indev_scroll.c ****                     snap_point = scroll_obj->coords.y2 - pad_bottom;
 659:Drivers/lvgl/src/core/lv_indev_scroll.c ****                     act_obj_point = act_obj->coords.y2;
 660:Drivers/lvgl/src/core/lv_indev_scroll.c ****                     break;
 661:Drivers/lvgl/src/core/lv_indev_scroll.c ****             }
 662:Drivers/lvgl/src/core/lv_indev_scroll.c ****         }
 663:Drivers/lvgl/src/core/lv_indev_scroll.c **** 
 664:Drivers/lvgl/src/core/lv_indev_scroll.c ****         if(scroll_end < 0) {
 896              		.loc 1 664 9 is_stmt 1 view .LVU263
 897              		.loc 1 664 11 is_stmt 0 view .LVU264
 898 0054 002F     		cmp	r7, #0
 899 0056 40DA     		bge	.L53
 900              	.LVL69:
 901              	.L60:
 665:Drivers/lvgl/src/core/lv_indev_scroll.c ****             if(snap != LV_SCROLL_SNAP_NONE && act_obj_point > snap_point) return diff;
 666:Drivers/lvgl/src/core/lv_indev_scroll.c **** 
 667:Drivers/lvgl/src/core/lv_indev_scroll.c ****             /*Rounding*/
 668:Drivers/lvgl/src/core/lv_indev_scroll.c ****             if(diff < 0) diff -= ELASTIC_SLOWNESS_FACTOR / 2;
 669:Drivers/lvgl/src/core/lv_indev_scroll.c ****             if(diff > 0) diff += ELASTIC_SLOWNESS_FACTOR / 2;
 670:Drivers/lvgl/src/core/lv_indev_scroll.c ****             return diff / ELASTIC_SLOWNESS_FACTOR;
 671:Drivers/lvgl/src/core/lv_indev_scroll.c ****         }
 672:Drivers/lvgl/src/core/lv_indev_scroll.c ****         else if(scroll_start < 0) {
 673:Drivers/lvgl/src/core/lv_indev_scroll.c ****             if(snap != LV_SCROLL_SNAP_NONE && act_obj_point < snap_point) return diff;
 674:Drivers/lvgl/src/core/lv_indev_scroll.c **** 
 675:Drivers/lvgl/src/core/lv_indev_scroll.c ****             /*Rounding*/
 676:Drivers/lvgl/src/core/lv_indev_scroll.c ****             if(diff < 0) diff -= ELASTIC_SLOWNESS_FACTOR / 2;
 902              		.loc 1 676 13 is_stmt 1 view .LVU265
 903              		.loc 1 676 15 is_stmt 0 view .LVU266
 904 0058 002C     		cmp	r4, #0
 905              		.loc 1 676 26 is_stmt 1 view .LVU267
 906              		.loc 1 676 31 is_stmt 0 view .LVU268
 907 005a BCBF     		itt	lt
 908 005c A01E     		sublt	r0, r4, #2
 909              		.loc 1 676 31 view .LVU269
 910 005e 04B2     		sxthlt	r4, r0
 911              	.LVL70:
 677:Drivers/lvgl/src/core/lv_indev_scroll.c ****             if(diff > 0) diff += ELASTIC_SLOWNESS_FACTOR / 2;
 912              		.loc 1 677 13 is_stmt 1 view .LVU270
 913              		.loc 1 677 26 view .LVU271
 914              		.loc 1 677 15 is_stmt 0 view .LVU272
 915 0060 002C     		cmp	r4, #0
ARM GAS  /var/folders/0z/tsy30v1j4xl4_7kw94k978ww0000gn/T//cc5O5B9v.s 			page 37


 916              		.loc 1 677 31 view .LVU273
 917 0062 C4BF     		itt	gt
 918 0064 A01C     		addgt	r0, r4, #2
 919 0066 04B2     		sxthgt	r4, r0
 920              	.LVL71:
 678:Drivers/lvgl/src/core/lv_indev_scroll.c ****             return diff / ELASTIC_SLOWNESS_FACTOR;
 921              		.loc 1 678 13 is_stmt 1 view .LVU274
 922              		.loc 1 678 25 is_stmt 0 view .LVU275
 923 0068 201E     		subs	r0, r4, #0
 924 006a B8BF     		it	lt
 925 006c 0330     		addlt	r0, r0, #3
 926 006e 40F38F00 		sbfx	r0, r0, #2, #16
 927              	.LBE173:
 928              	.LBE172:
 679:Drivers/lvgl/src/core/lv_indev_scroll.c ****         }
 680:Drivers/lvgl/src/core/lv_indev_scroll.c ****     }
 681:Drivers/lvgl/src/core/lv_indev_scroll.c ****     else {
 682:Drivers/lvgl/src/core/lv_indev_scroll.c ****         /*Scroll back to the boundary if required*/
 683:Drivers/lvgl/src/core/lv_indev_scroll.c ****         if(scroll_end + diff < 0) diff = - scroll_end;
 684:Drivers/lvgl/src/core/lv_indev_scroll.c ****         if(scroll_start - diff < 0) diff = scroll_start;
 685:Drivers/lvgl/src/core/lv_indev_scroll.c ****     }
 686:Drivers/lvgl/src/core/lv_indev_scroll.c **** 
 687:Drivers/lvgl/src/core/lv_indev_scroll.c ****     return diff;
 688:Drivers/lvgl/src/core/lv_indev_scroll.c **** }
 929              		.loc 1 688 1 view .LVU276
 930 0072 BDE8F087 		pop	{r4, r5, r6, r7, r8, r9, r10, pc}
 931              	.LVL72:
 932              	.L43:
 683:Drivers/lvgl/src/core/lv_indev_scroll.c ****         if(scroll_start - diff < 0) diff = scroll_start;
 933              		.loc 1 683 9 is_stmt 1 view .LVU277
 683:Drivers/lvgl/src/core/lv_indev_scroll.c ****         if(scroll_start - diff < 0) diff = scroll_start;
 934              		.loc 1 683 11 is_stmt 0 view .LVU278
 935 0076 E742     		cmn	r7, r4
 683:Drivers/lvgl/src/core/lv_indev_scroll.c ****         if(scroll_start - diff < 0) diff = scroll_start;
 936              		.loc 1 683 35 is_stmt 1 view .LVU279
 683:Drivers/lvgl/src/core/lv_indev_scroll.c ****         if(scroll_start - diff < 0) diff = scroll_start;
 937              		.loc 1 683 23 is_stmt 0 view .LVU280
 938 0078 2346     		mov	r3, r4
 683:Drivers/lvgl/src/core/lv_indev_scroll.c ****         if(scroll_start - diff < 0) diff = scroll_start;
 939              		.loc 1 683 40 view .LVU281
 940 007a 43BF     		ittte	mi
 941 007c 7B42     		rsbmi	r3, r7, #0
 942 007e 18B2     		sxthmi	r0, r3
 943              	.LVL73:
 684:Drivers/lvgl/src/core/lv_indev_scroll.c ****     }
 944              		.loc 1 684 25 view .LVU282
 945 0080 0346     		movmi	r3, r0
 946 0082 1846     		movpl	r0, r3
 947              	.LVL74:
 684:Drivers/lvgl/src/core/lv_indev_scroll.c ****     }
 948              		.loc 1 684 9 is_stmt 1 view .LVU283
 684:Drivers/lvgl/src/core/lv_indev_scroll.c ****     }
 949              		.loc 1 684 11 is_stmt 0 view .LVU284
 950 0084 9E42     		cmp	r6, r3
 951 0086 B8BF     		it	lt
 952 0088 3046     		movlt	r0, r6
 953              	.LVL75:
ARM GAS  /var/folders/0z/tsy30v1j4xl4_7kw94k978ww0000gn/T//cc5O5B9v.s 			page 38


 954              		.loc 1 688 1 view .LVU285
 955 008a BDE8F087 		pop	{r4, r5, r6, r7, r8, r9, r10, pc}
 956              	.LVL76:
 957              	.L78:
 958              	.LBB221:
 959              	.LBB216:
 619:Drivers/lvgl/src/core/lv_indev_scroll.c **** 
 960              		.loc 1 619 36 view .LVU286
 961 008e FFF7FEFF 		bl	lv_obj_get_scroll_snap_x
 962              	.LVL77:
 619:Drivers/lvgl/src/core/lv_indev_scroll.c **** 
 963              		.loc 1 619 36 view .LVU287
 964 0092 8046     		mov	r8, r0
 965              	.LVL78:
 621:Drivers/lvgl/src/core/lv_indev_scroll.c ****         lv_coord_t snap_point = 0;
 966              		.loc 1 621 9 is_stmt 1 view .LVU288
 621:Drivers/lvgl/src/core/lv_indev_scroll.c ****         lv_coord_t snap_point = 0;
 967              		.loc 1 621 30 is_stmt 0 view .LVU289
 968 0094 FFF7FEFF 		bl	lv_indev_get_obj_act
 969              	.LVL79:
 970              	.LBB194:
 971              	.LBB195:
 972              	.LBB196:
 117:Drivers/lvgl/src/core/lv_obj_style_gen.h ****     return (lv_coord_t)v.num;
 973              		.loc 2 117 26 view .LVU290
 974 0098 1222     		movs	r2, #18
 975 009a 0021     		movs	r1, #0
 976              	.LBE196:
 977              	.LBE195:
 978              	.LBE194:
 621:Drivers/lvgl/src/core/lv_indev_scroll.c ****         lv_coord_t snap_point = 0;
 979              		.loc 1 621 30 view .LVU291
 980 009c 8246     		mov	r10, r0
 981              	.LVL80:
 622:Drivers/lvgl/src/core/lv_indev_scroll.c ****         lv_coord_t act_obj_point = 0;
 982              		.loc 1 622 9 is_stmt 1 view .LVU292
 623:Drivers/lvgl/src/core/lv_indev_scroll.c **** 
 983              		.loc 1 623 9 view .LVU293
 625:Drivers/lvgl/src/core/lv_indev_scroll.c ****             lv_coord_t pad_left = lv_obj_get_style_pad_left(scroll_obj, LV_PART_MAIN);
 984              		.loc 1 625 9 view .LVU294
 985              	.LBB213:
 626:Drivers/lvgl/src/core/lv_indev_scroll.c ****             lv_coord_t pad_right = lv_obj_get_style_pad_right(scroll_obj, LV_PART_MAIN);
 986              		.loc 1 626 13 view .LVU295
 987              	.LBB199:
 988              	.LBI195:
 115:Drivers/lvgl/src/core/lv_obj_style_gen.h **** {
 989              		.loc 2 115 26 view .LVU296
 990              	.LBB197:
 117:Drivers/lvgl/src/core/lv_obj_style_gen.h ****     return (lv_coord_t)v.num;
 991              		.loc 2 117 5 view .LVU297
 117:Drivers/lvgl/src/core/lv_obj_style_gen.h ****     return (lv_coord_t)v.num;
 992              		.loc 2 117 26 is_stmt 0 view .LVU298
 993 009e 2846     		mov	r0, r5
 994              	.LVL81:
 117:Drivers/lvgl/src/core/lv_obj_style_gen.h ****     return (lv_coord_t)v.num;
 995              		.loc 2 117 26 view .LVU299
 996 00a0 FFF7FEFF 		bl	lv_obj_get_style_prop
ARM GAS  /var/folders/0z/tsy30v1j4xl4_7kw94k978ww0000gn/T//cc5O5B9v.s 			page 39


 997              	.LVL82:
 998              	.LBE197:
 999              	.LBE199:
 1000              	.LBB200:
 1001              	.LBB201:
 123:Drivers/lvgl/src/core/lv_obj_style_gen.h ****     return (lv_coord_t)v.num;
 1002              		.loc 2 123 26 view .LVU300
 1003 00a4 1322     		movs	r2, #19
 1004              	.LBE201:
 1005              	.LBE200:
 1006              	.LBB203:
 1007              	.LBB198:
 117:Drivers/lvgl/src/core/lv_obj_style_gen.h ****     return (lv_coord_t)v.num;
 1008              		.loc 2 117 26 view .LVU301
 1009 00a6 8146     		mov	r9, r0
 118:Drivers/lvgl/src/core/lv_obj_style_gen.h **** }
 1010              		.loc 2 118 5 is_stmt 1 view .LVU302
 1011              	.LVL83:
 118:Drivers/lvgl/src/core/lv_obj_style_gen.h **** }
 1012              		.loc 2 118 5 is_stmt 0 view .LVU303
 1013              	.LBE198:
 1014              	.LBE203:
 627:Drivers/lvgl/src/core/lv_indev_scroll.c **** 
 1015              		.loc 1 627 13 is_stmt 1 view .LVU304
 1016              	.LBB204:
 1017              	.LBI200:
 121:Drivers/lvgl/src/core/lv_obj_style_gen.h **** {
 1018              		.loc 2 121 26 view .LVU305
 1019              	.LBB202:
 123:Drivers/lvgl/src/core/lv_obj_style_gen.h ****     return (lv_coord_t)v.num;
 1020              		.loc 2 123 5 view .LVU306
 123:Drivers/lvgl/src/core/lv_obj_style_gen.h ****     return (lv_coord_t)v.num;
 1021              		.loc 2 123 26 is_stmt 0 view .LVU307
 1022 00a8 0021     		movs	r1, #0
 1023 00aa 2846     		mov	r0, r5
 1024 00ac FFF7FEFF 		bl	lv_obj_get_style_prop
 1025              	.LVL84:
 1026              		.loc 2 124 5 is_stmt 1 view .LVU308
 1027              		.loc 2 124 5 is_stmt 0 view .LVU309
 1028              	.LBE202:
 1029              	.LBE204:
 629:Drivers/lvgl/src/core/lv_indev_scroll.c ****                 case LV_SCROLL_SNAP_CENTER:
 1030              		.loc 1 629 13 is_stmt 1 view .LVU310
 1031 00b0 B8F1020F 		cmp	r8, #2
 1032 00b4 48D0     		beq	.L45
 1033 00b6 B8F1030F 		cmp	r8, #3
 1034 00ba 4BD0     		beq	.L46
 1035 00bc B8F1010F 		cmp	r8, #1
 1036 00c0 C8D1     		bne	.L48
 635:Drivers/lvgl/src/core/lv_indev_scroll.c ****                     act_obj_point = act_obj->coords.x1;
 1037              		.loc 1 635 21 view .LVU311
 635:Drivers/lvgl/src/core/lv_indev_scroll.c ****                     act_obj_point = act_obj->coords.x1;
 1038              		.loc 1 635 56 is_stmt 0 view .LVU312
 1039 00c2 AB8A     		ldrh	r3, [r5, #20]
 636:Drivers/lvgl/src/core/lv_indev_scroll.c ****                     break;
 1040              		.loc 1 636 35 view .LVU313
 1041 00c4 BAF91420 		ldrsh	r2, [r10, #20]
ARM GAS  /var/folders/0z/tsy30v1j4xl4_7kw94k978ww0000gn/T//cc5O5B9v.s 			page 40


 635:Drivers/lvgl/src/core/lv_indev_scroll.c ****                     act_obj_point = act_obj->coords.x1;
 1042              		.loc 1 635 56 view .LVU314
 1043 00c8 4B44     		add	r3, r3, r9
 635:Drivers/lvgl/src/core/lv_indev_scroll.c ****                     act_obj_point = act_obj->coords.x1;
 1044              		.loc 1 635 32 view .LVU315
 1045 00ca 1BB2     		sxth	r3, r3
 1046              	.LVL85:
 636:Drivers/lvgl/src/core/lv_indev_scroll.c ****                     break;
 1047              		.loc 1 636 21 is_stmt 1 view .LVU316
 637:Drivers/lvgl/src/core/lv_indev_scroll.c ****                 case LV_SCROLL_SNAP_END:
 1048              		.loc 1 637 21 view .LVU317
 1049              	.L52:
 637:Drivers/lvgl/src/core/lv_indev_scroll.c ****                 case LV_SCROLL_SNAP_END:
 1050              		.loc 1 637 21 is_stmt 0 view .LVU318
 1051              	.LBE213:
 664:Drivers/lvgl/src/core/lv_indev_scroll.c ****             if(snap != LV_SCROLL_SNAP_NONE && act_obj_point > snap_point) return diff;
 1052              		.loc 1 664 9 is_stmt 1 view .LVU319
 664:Drivers/lvgl/src/core/lv_indev_scroll.c ****             if(snap != LV_SCROLL_SNAP_NONE && act_obj_point > snap_point) return diff;
 1053              		.loc 1 664 11 is_stmt 0 view .LVU320
 1054 00cc 002F     		cmp	r7, #0
 1055 00ce 0CDB     		blt	.L66
 672:Drivers/lvgl/src/core/lv_indev_scroll.c ****             if(snap != LV_SCROLL_SNAP_NONE && act_obj_point < snap_point) return diff;
 1056              		.loc 1 672 14 is_stmt 1 view .LVU321
 672:Drivers/lvgl/src/core/lv_indev_scroll.c ****             if(snap != LV_SCROLL_SNAP_NONE && act_obj_point < snap_point) return diff;
 1057              		.loc 1 672 16 is_stmt 0 view .LVU322
 1058 00d0 002E     		cmp	r6, #0
 1059 00d2 06DB     		blt	.L80
 1060              	.LBE216:
 1061              	.LBE221:
 684:Drivers/lvgl/src/core/lv_indev_scroll.c ****     }
 1062              		.loc 1 684 11 view .LVU323
 1063 00d4 2046     		mov	r0, r4
 1064              	.LVL86:
 1065              	.L81:
 1066              		.loc 1 688 1 view .LVU324
 1067 00d6 BDE8F087 		pop	{r4, r5, r6, r7, r8, r9, r10, pc}
 1068              	.LVL87:
 1069              	.L53:
 1070              	.LBB222:
 1071              	.LBB217:
 672:Drivers/lvgl/src/core/lv_indev_scroll.c ****             if(snap != LV_SCROLL_SNAP_NONE && act_obj_point < snap_point) return diff;
 1072              		.loc 1 672 14 is_stmt 1 view .LVU325
 672:Drivers/lvgl/src/core/lv_indev_scroll.c ****             if(snap != LV_SCROLL_SNAP_NONE && act_obj_point < snap_point) return diff;
 1073              		.loc 1 672 16 is_stmt 0 view .LVU326
 1074 00da 002E     		cmp	r6, #0
 1075 00dc BCDB     		blt	.L60
 1076              	.LBE217:
 1077              	.LBE222:
 684:Drivers/lvgl/src/core/lv_indev_scroll.c ****     }
 1078              		.loc 1 684 11 view .LVU327
 1079 00de 2046     		mov	r0, r4
 684:Drivers/lvgl/src/core/lv_indev_scroll.c ****     }
 1080              		.loc 1 684 11 view .LVU328
 1081 00e0 F9E7     		b	.L81
 1082              	.LVL88:
 1083              	.L80:
 1084              	.LBB223:
ARM GAS  /var/folders/0z/tsy30v1j4xl4_7kw94k978ww0000gn/T//cc5O5B9v.s 			page 41


 1085              	.LBB218:
 673:Drivers/lvgl/src/core/lv_indev_scroll.c **** 
 1086              		.loc 1 673 44 view .LVU329
 1087 00e2 9A42     		cmp	r2, r3
 1088 00e4 B8DA     		bge	.L60
 1089              	.LBE218:
 1090              	.LBE223:
 684:Drivers/lvgl/src/core/lv_indev_scroll.c ****     }
 1091              		.loc 1 684 11 view .LVU330
 1092 00e6 2046     		mov	r0, r4
 684:Drivers/lvgl/src/core/lv_indev_scroll.c ****     }
 1093              		.loc 1 684 11 view .LVU331
 1094 00e8 F5E7     		b	.L81
 1095              	.L66:
 1096              	.LBB224:
 1097              	.LBB219:
 665:Drivers/lvgl/src/core/lv_indev_scroll.c **** 
 1098              		.loc 1 665 44 view .LVU332
 1099 00ea 9A42     		cmp	r2, r3
 1100 00ec B4DD     		ble	.L60
 1101              	.LBE219:
 1102              	.LBE224:
 684:Drivers/lvgl/src/core/lv_indev_scroll.c ****     }
 1103              		.loc 1 684 11 view .LVU333
 1104 00ee 2046     		mov	r0, r4
 684:Drivers/lvgl/src/core/lv_indev_scroll.c ****     }
 1105              		.loc 1 684 11 view .LVU334
 1106 00f0 F1E7     		b	.L81
 1107              	.LVL89:
 1108              	.L79:
 1109              	.LBB225:
 1110              	.LBB220:
 1111              	.LBB214:
 654:Drivers/lvgl/src/core/lv_indev_scroll.c ****                     act_obj_point = act_obj->coords.y1;
 1112              		.loc 1 654 21 is_stmt 1 view .LVU335
 654:Drivers/lvgl/src/core/lv_indev_scroll.c ****                     act_obj_point = act_obj->coords.y1;
 1113              		.loc 1 654 56 is_stmt 0 view .LVU336
 1114 00f2 EB8A     		ldrh	r3, [r5, #22]
 655:Drivers/lvgl/src/core/lv_indev_scroll.c ****                     break;
 1115              		.loc 1 655 35 view .LVU337
 1116 00f4 BAF91620 		ldrsh	r2, [r10, #22]
 654:Drivers/lvgl/src/core/lv_indev_scroll.c ****                     act_obj_point = act_obj->coords.y1;
 1117              		.loc 1 654 56 view .LVU338
 1118 00f8 4344     		add	r3, r3, r8
 654:Drivers/lvgl/src/core/lv_indev_scroll.c ****                     act_obj_point = act_obj->coords.y1;
 1119              		.loc 1 654 32 view .LVU339
 1120 00fa 1BB2     		sxth	r3, r3
 1121              	.LVL90:
 655:Drivers/lvgl/src/core/lv_indev_scroll.c ****                     break;
 1122              		.loc 1 655 21 is_stmt 1 view .LVU340
 656:Drivers/lvgl/src/core/lv_indev_scroll.c ****                 case LV_SCROLL_SNAP_END:
 1123              		.loc 1 656 21 view .LVU341
 1124 00fc E6E7     		b	.L52
 1125              	.LVL91:
 1126              	.L50:
 650:Drivers/lvgl/src/core/lv_indev_scroll.c ****                     act_obj_point = lv_area_get_height(&act_obj->coords) / 2 + act_obj->coords.y1;
 1127              		.loc 1 650 21 view .LVU342
ARM GAS  /var/folders/0z/tsy30v1j4xl4_7kw94k978ww0000gn/T//cc5O5B9v.s 			page 42


 1128              	.LBB185:
 1129              	.LBI185:
 133:Drivers/lvgl/src/core/../misc/../font/../misc/lv_area.h **** {
 1130              		.loc 3 133 26 view .LVU343
 1131              	.LBB186:
 1132              		.loc 3 135 5 view .LVU344
 1133              		.loc 3 135 49 is_stmt 0 view .LVU345
 1134 00fe 6B8B     		ldrh	r3, [r5, #26]
 1135              		.loc 3 135 44 view .LVU346
 1136 0100 EA8A     		ldrh	r2, [r5, #22]
 1137              	.LVL92:
 1138              		.loc 3 135 44 view .LVU347
 1139              	.LBE186:
 1140              	.LBE185:
 1141              	.LBB188:
 1142              	.LBB189:
 1143              		.loc 3 135 49 view .LVU348
 1144 0102 BAF81A10 		ldrh	r1, [r10, #26]
 1145              	.LBE189:
 1146              	.LBE188:
 1147              	.LBB191:
 1148              	.LBB187:
 1149 0106 0133     		adds	r3, r3, #1
 1150 0108 9B1A     		subs	r3, r3, r2
 1151              	.LBE187:
 1152              	.LBE191:
 650:Drivers/lvgl/src/core/lv_indev_scroll.c ****                     act_obj_point = lv_area_get_height(&act_obj->coords) / 2 + act_obj->coords.y1;
 1153              		.loc 1 650 45 view .LVU349
 1154 010a 1BB2     		sxth	r3, r3
 650:Drivers/lvgl/src/core/lv_indev_scroll.c ****                     act_obj_point = lv_area_get_height(&act_obj->coords) / 2 + act_obj->coords.y1;
 1155              		.loc 1 650 113 view .LVU350
 1156 010c 4244     		add	r2, r2, r8
 650:Drivers/lvgl/src/core/lv_indev_scroll.c ****                     act_obj_point = lv_area_get_height(&act_obj->coords) / 2 + act_obj->coords.y1;
 1157              		.loc 1 650 85 view .LVU351
 1158 010e 0FFA88F8 		sxth	r8, r8
 650:Drivers/lvgl/src/core/lv_indev_scroll.c ****                     act_obj_point = lv_area_get_height(&act_obj->coords) / 2 + act_obj->coords.y1;
 1159              		.loc 1 650 95 view .LVU352
 1160 0112 00B2     		sxth	r0, r0
 650:Drivers/lvgl/src/core/lv_indev_scroll.c ****                     act_obj_point = lv_area_get_height(&act_obj->coords) / 2 + act_obj->coords.y1;
 1161              		.loc 1 650 85 view .LVU353
 1162 0114 A3EB0803 		sub	r3, r3, r8
 650:Drivers/lvgl/src/core/lv_indev_scroll.c ****                     act_obj_point = lv_area_get_height(&act_obj->coords) / 2 + act_obj->coords.y1;
 1163              		.loc 1 650 95 view .LVU354
 1164 0118 1B1A     		subs	r3, r3, r0
 650:Drivers/lvgl/src/core/lv_indev_scroll.c ****                     act_obj_point = lv_area_get_height(&act_obj->coords) / 2 + act_obj->coords.y1;
 1165              		.loc 1 650 109 view .LVU355
 1166 011a 03EBD373 		add	r3, r3, r3, lsr #31
 650:Drivers/lvgl/src/core/lv_indev_scroll.c ****                     act_obj_point = lv_area_get_height(&act_obj->coords) / 2 + act_obj->coords.y1;
 1167              		.loc 1 650 113 view .LVU356
 1168 011e 02EB6302 		add	r2, r2, r3, asr #1
 650:Drivers/lvgl/src/core/lv_indev_scroll.c ****                     act_obj_point = lv_area_get_height(&act_obj->coords) / 2 + act_obj->coords.y1;
 1169              		.loc 1 650 32 view .LVU357
 1170 0122 13B2     		sxth	r3, r2
 1171              	.LVL93:
 651:Drivers/lvgl/src/core/lv_indev_scroll.c ****                     break;
 1172              		.loc 1 651 21 is_stmt 1 view .LVU358
 1173              	.LBB192:
ARM GAS  /var/folders/0z/tsy30v1j4xl4_7kw94k978ww0000gn/T//cc5O5B9v.s 			page 43


 1174              	.LBI188:
 133:Drivers/lvgl/src/core/../misc/../font/../misc/lv_area.h **** {
 1175              		.loc 3 133 26 view .LVU359
 1176              	.LBB190:
 1177              		.loc 3 135 5 view .LVU360
 1178              		.loc 3 135 44 is_stmt 0 view .LVU361
 1179 0124 BAF81620 		ldrh	r2, [r10, #22]
 1180              	.LVL94:
 1181              	.L71:
 1182              		.loc 3 135 49 view .LVU362
 1183 0128 0131     		adds	r1, r1, #1
 1184 012a 891A     		subs	r1, r1, r2
 1185              	.LBE190:
 1186              	.LBE192:
 651:Drivers/lvgl/src/core/lv_indev_scroll.c ****                     break;
 1187              		.loc 1 651 78 view .LVU363
 1188 012c C1F3C030 		ubfx	r0, r1, #15, #1
 1189 0130 00FA81F1 		sxtah	r1, r0, r1
 1190 0134 02EB6102 		add	r2, r2, r1, asr #1
 651:Drivers/lvgl/src/core/lv_indev_scroll.c ****                     break;
 1191              		.loc 1 651 35 view .LVU364
 1192 0138 12B2     		sxth	r2, r2
 1193              	.LVL95:
 652:Drivers/lvgl/src/core/lv_indev_scroll.c ****                 case LV_SCROLL_SNAP_START:
 1194              		.loc 1 652 21 is_stmt 1 view .LVU365
 1195 013a C7E7     		b	.L52
 1196              	.LVL96:
 1197              	.L49:
 658:Drivers/lvgl/src/core/lv_indev_scroll.c ****                     act_obj_point = act_obj->coords.y2;
 1198              		.loc 1 658 21 view .LVU366
 658:Drivers/lvgl/src/core/lv_indev_scroll.c ****                     act_obj_point = act_obj->coords.y2;
 1199              		.loc 1 658 56 is_stmt 0 view .LVU367
 1200 013c 6B8B     		ldrh	r3, [r5, #26]
 659:Drivers/lvgl/src/core/lv_indev_scroll.c ****                     break;
 1201              		.loc 1 659 35 view .LVU368
 1202 013e BAF91A20 		ldrsh	r2, [r10, #26]
 658:Drivers/lvgl/src/core/lv_indev_scroll.c ****                     act_obj_point = act_obj->coords.y2;
 1203              		.loc 1 658 56 view .LVU369
 1204 0142 1B1A     		subs	r3, r3, r0
 658:Drivers/lvgl/src/core/lv_indev_scroll.c ****                     act_obj_point = act_obj->coords.y2;
 1205              		.loc 1 658 32 view .LVU370
 1206 0144 1BB2     		sxth	r3, r3
 1207              	.LVL97:
 659:Drivers/lvgl/src/core/lv_indev_scroll.c ****                     break;
 1208              		.loc 1 659 21 is_stmt 1 view .LVU371
 660:Drivers/lvgl/src/core/lv_indev_scroll.c ****             }
 1209              		.loc 1 660 21 view .LVU372
 1210 0146 C1E7     		b	.L52
 1211              	.LVL98:
 1212              	.L45:
 660:Drivers/lvgl/src/core/lv_indev_scroll.c ****             }
 1213              		.loc 1 660 21 is_stmt 0 view .LVU373
 1214              	.LBE214:
 1215              	.LBB215:
 639:Drivers/lvgl/src/core/lv_indev_scroll.c ****                     act_obj_point = act_obj->coords.x2;
 1216              		.loc 1 639 21 is_stmt 1 view .LVU374
 639:Drivers/lvgl/src/core/lv_indev_scroll.c ****                     act_obj_point = act_obj->coords.x2;
ARM GAS  /var/folders/0z/tsy30v1j4xl4_7kw94k978ww0000gn/T//cc5O5B9v.s 			page 44


 1217              		.loc 1 639 56 is_stmt 0 view .LVU375
 1218 0148 2B8B     		ldrh	r3, [r5, #24]
 640:Drivers/lvgl/src/core/lv_indev_scroll.c ****                     break;
 1219              		.loc 1 640 35 view .LVU376
 1220 014a BAF91820 		ldrsh	r2, [r10, #24]
 639:Drivers/lvgl/src/core/lv_indev_scroll.c ****                     act_obj_point = act_obj->coords.x2;
 1221              		.loc 1 639 56 view .LVU377
 1222 014e 1B1A     		subs	r3, r3, r0
 639:Drivers/lvgl/src/core/lv_indev_scroll.c ****                     act_obj_point = act_obj->coords.x2;
 1223              		.loc 1 639 32 view .LVU378
 1224 0150 1BB2     		sxth	r3, r3
 1225              	.LVL99:
 640:Drivers/lvgl/src/core/lv_indev_scroll.c ****                     break;
 1226              		.loc 1 640 21 is_stmt 1 view .LVU379
 641:Drivers/lvgl/src/core/lv_indev_scroll.c ****             }
 1227              		.loc 1 641 21 view .LVU380
 1228 0152 BBE7     		b	.L52
 1229              	.LVL100:
 1230              	.L46:
 631:Drivers/lvgl/src/core/lv_indev_scroll.c ****                     act_obj_point = lv_area_get_width(&act_obj->coords) / 2 + act_obj->coords.x1;
 1231              		.loc 1 631 21 view .LVU381
 1232              	.LBB205:
 1233              	.LBI205:
 123:Drivers/lvgl/src/core/../misc/../font/../misc/lv_area.h **** {
 1234              		.loc 3 123 26 view .LVU382
 1235              	.LBB206:
 125:Drivers/lvgl/src/core/../misc/../font/../misc/lv_area.h **** }
 1236              		.loc 3 125 5 view .LVU383
 125:Drivers/lvgl/src/core/../misc/../font/../misc/lv_area.h **** }
 1237              		.loc 3 125 49 is_stmt 0 view .LVU384
 1238 0154 2B8B     		ldrh	r3, [r5, #24]
 125:Drivers/lvgl/src/core/../misc/../font/../misc/lv_area.h **** }
 1239              		.loc 3 125 44 view .LVU385
 1240 0156 AA8A     		ldrh	r2, [r5, #20]
 1241              	.LVL101:
 125:Drivers/lvgl/src/core/../misc/../font/../misc/lv_area.h **** }
 1242              		.loc 3 125 44 view .LVU386
 1243              	.LBE206:
 1244              	.LBE205:
 1245              	.LBB208:
 1246              	.LBB209:
 125:Drivers/lvgl/src/core/../misc/../font/../misc/lv_area.h **** }
 1247              		.loc 3 125 49 view .LVU387
 1248 0158 BAF81810 		ldrh	r1, [r10, #24]
 1249              	.LBE209:
 1250              	.LBE208:
 1251              	.LBB211:
 1252              	.LBB207:
 1253 015c 0133     		adds	r3, r3, #1
 1254 015e 9B1A     		subs	r3, r3, r2
 1255              	.LBE207:
 1256              	.LBE211:
 631:Drivers/lvgl/src/core/lv_indev_scroll.c ****                     act_obj_point = lv_area_get_width(&act_obj->coords) / 2 + act_obj->coords.x1;
 1257              		.loc 1 631 46 view .LVU388
 1258 0160 1BB2     		sxth	r3, r3
 631:Drivers/lvgl/src/core/lv_indev_scroll.c ****                     act_obj_point = lv_area_get_width(&act_obj->coords) / 2 + act_obj->coords.x1;
 1259              		.loc 1 631 113 view .LVU389
ARM GAS  /var/folders/0z/tsy30v1j4xl4_7kw94k978ww0000gn/T//cc5O5B9v.s 			page 45


 1260 0162 4A44     		add	r2, r2, r9
 631:Drivers/lvgl/src/core/lv_indev_scroll.c ****                     act_obj_point = lv_area_get_width(&act_obj->coords) / 2 + act_obj->coords.x1;
 1261              		.loc 1 631 85 view .LVU390
 1262 0164 0FFA89F9 		sxth	r9, r9
 631:Drivers/lvgl/src/core/lv_indev_scroll.c ****                     act_obj_point = lv_area_get_width(&act_obj->coords) / 2 + act_obj->coords.x1;
 1263              		.loc 1 631 96 view .LVU391
 1264 0168 00B2     		sxth	r0, r0
 631:Drivers/lvgl/src/core/lv_indev_scroll.c ****                     act_obj_point = lv_area_get_width(&act_obj->coords) / 2 + act_obj->coords.x1;
 1265              		.loc 1 631 85 view .LVU392
 1266 016a A3EB0903 		sub	r3, r3, r9
 631:Drivers/lvgl/src/core/lv_indev_scroll.c ****                     act_obj_point = lv_area_get_width(&act_obj->coords) / 2 + act_obj->coords.x1;
 1267              		.loc 1 631 96 view .LVU393
 1268 016e 1B1A     		subs	r3, r3, r0
 631:Drivers/lvgl/src/core/lv_indev_scroll.c ****                     act_obj_point = lv_area_get_width(&act_obj->coords) / 2 + act_obj->coords.x1;
 1269              		.loc 1 631 109 view .LVU394
 1270 0170 03EBD373 		add	r3, r3, r3, lsr #31
 631:Drivers/lvgl/src/core/lv_indev_scroll.c ****                     act_obj_point = lv_area_get_width(&act_obj->coords) / 2 + act_obj->coords.x1;
 1271              		.loc 1 631 113 view .LVU395
 1272 0174 02EB6302 		add	r2, r2, r3, asr #1
 631:Drivers/lvgl/src/core/lv_indev_scroll.c ****                     act_obj_point = lv_area_get_width(&act_obj->coords) / 2 + act_obj->coords.x1;
 1273              		.loc 1 631 32 view .LVU396
 1274 0178 13B2     		sxth	r3, r2
 1275              	.LVL102:
 632:Drivers/lvgl/src/core/lv_indev_scroll.c ****                     break;
 1276              		.loc 1 632 21 is_stmt 1 view .LVU397
 1277              	.LBB212:
 1278              	.LBI208:
 123:Drivers/lvgl/src/core/../misc/../font/../misc/lv_area.h **** {
 1279              		.loc 3 123 26 view .LVU398
 1280              	.LBB210:
 125:Drivers/lvgl/src/core/../misc/../font/../misc/lv_area.h **** }
 1281              		.loc 3 125 5 view .LVU399
 125:Drivers/lvgl/src/core/../misc/../font/../misc/lv_area.h **** }
 1282              		.loc 3 125 44 is_stmt 0 view .LVU400
 1283 017a BAF81420 		ldrh	r2, [r10, #20]
 1284              	.LVL103:
 125:Drivers/lvgl/src/core/../misc/../font/../misc/lv_area.h **** }
 1285              		.loc 3 125 44 view .LVU401
 1286 017e D3E7     		b	.L71
 1287              	.LBE210:
 1288              	.LBE212:
 1289              	.LBE215:
 1290              	.LBE220:
 1291              	.LBE225:
 1292              		.cfi_endproc
 1293              	.LFE172:
 1295              		.section	.text._lv_indev_scroll_handler,"ax",%progbits
 1296              		.align	1
 1297              		.p2align 2,,3
 1298              		.global	_lv_indev_scroll_handler
 1299              		.syntax unified
 1300              		.thumb
 1301              		.thumb_func
 1303              	_lv_indev_scroll_handler:
 1304              	.LVL104:
 1305              	.LFB161:
  47:Drivers/lvgl/src/core/lv_indev_scroll.c ****     if(proc->types.pointer.vect.x == 0 && proc->types.pointer.vect.y == 0) {
ARM GAS  /var/folders/0z/tsy30v1j4xl4_7kw94k978ww0000gn/T//cc5O5B9v.s 			page 46


 1306              		.loc 1 47 1 is_stmt 1 view -0
 1307              		.cfi_startproc
 1308              		@ args = 0, pretend = 0, frame = 40
 1309              		@ frame_needed = 0, uses_anonymous_args = 0
  48:Drivers/lvgl/src/core/lv_indev_scroll.c ****         return;
 1310              		.loc 1 48 5 view .LVU403
  48:Drivers/lvgl/src/core/lv_indev_scroll.c ****         return;
 1311              		.loc 1 48 7 is_stmt 0 view .LVU404
 1312 0000 4369     		ldr	r3, [r0, #20]
 1313 0002 002B     		cmp	r3, #0
 1314 0004 00F09680 		beq	.L210
  52:Drivers/lvgl/src/core/lv_indev_scroll.c ****     /*If there is no scroll object yet try to find one*/
 1315              		.loc 1 52 5 is_stmt 1 view .LVU405
  47:Drivers/lvgl/src/core/lv_indev_scroll.c ****     if(proc->types.pointer.vect.x == 0 && proc->types.pointer.vect.y == 0) {
 1316              		.loc 1 47 1 is_stmt 0 view .LVU406
 1317 0008 2DE9F04F 		push	{r4, r5, r6, r7, r8, r9, r10, fp, lr}
 1318              		.cfi_def_cfa_offset 36
 1319              		.cfi_offset 4, -36
 1320              		.cfi_offset 5, -32
 1321              		.cfi_offset 6, -28
 1322              		.cfi_offset 7, -24
 1323              		.cfi_offset 8, -20
 1324              		.cfi_offset 9, -16
 1325              		.cfi_offset 10, -12
 1326              		.cfi_offset 11, -8
 1327              		.cfi_offset 14, -4
 1328 000c 2DED028B 		vpush.64	{d8}
 1329              		.cfi_def_cfa_offset 44
 1330              		.cfi_offset 80, -44
 1331              		.cfi_offset 81, -40
  52:Drivers/lvgl/src/core/lv_indev_scroll.c ****     /*If there is no scroll object yet try to find one*/
 1332              		.loc 1 52 16 view .LVU407
 1333 0010 C56A     		ldr	r5, [r0, #44]
 1334              	.LVL105:
  54:Drivers/lvgl/src/core/lv_indev_scroll.c ****         scroll_obj = find_scroll_obj(proc);
 1335              		.loc 1 54 5 is_stmt 1 view .LVU408
  47:Drivers/lvgl/src/core/lv_indev_scroll.c ****     if(proc->types.pointer.vect.x == 0 && proc->types.pointer.vect.y == 0) {
 1336              		.loc 1 47 1 is_stmt 0 view .LVU409
 1337 0012 8DB0     		sub	sp, sp, #52
 1338              		.cfi_def_cfa_offset 96
 1339 0014 0446     		mov	r4, r0
  54:Drivers/lvgl/src/core/lv_indev_scroll.c ****         scroll_obj = find_scroll_obj(proc);
 1340              		.loc 1 54 7 view .LVU410
 1341 0016 002D     		cmp	r5, #0
 1342 0018 00F0B280 		beq	.L215
 1343              	.LVL106:
 1344              	.L85:
  65:Drivers/lvgl/src/core/lv_indev_scroll.c ****     int16_t zoom = 256;
 1345              		.loc 1 65 5 is_stmt 1 view .LVU411
  66:Drivers/lvgl/src/core/lv_indev_scroll.c ****     lv_obj_t * parent = scroll_obj;
 1346              		.loc 1 66 5 view .LVU412
  67:Drivers/lvgl/src/core/lv_indev_scroll.c ****     while(parent) {
 1347              		.loc 1 67 5 view .LVU413
  68:Drivers/lvgl/src/core/lv_indev_scroll.c ****         angle += lv_obj_get_style_transform_angle(parent, 0);
 1348              		.loc 1 68 5 view .LVU414
  68:Drivers/lvgl/src/core/lv_indev_scroll.c ****         angle += lv_obj_get_style_transform_angle(parent, 0);
 1349              		.loc 1 68 11 view .LVU415
ARM GAS  /var/folders/0z/tsy30v1j4xl4_7kw94k978ww0000gn/T//cc5O5B9v.s 			page 47


  67:Drivers/lvgl/src/core/lv_indev_scroll.c ****     while(parent) {
 1350              		.loc 1 67 16 is_stmt 0 view .LVU416
 1351 001c A946     		mov	r9, r5
  66:Drivers/lvgl/src/core/lv_indev_scroll.c ****     lv_obj_t * parent = scroll_obj;
 1352              		.loc 1 66 13 view .LVU417
 1353 001e 4FF48076 		mov	r6, #256
  65:Drivers/lvgl/src/core/lv_indev_scroll.c ****     int16_t zoom = 256;
 1354              		.loc 1 65 13 view .LVU418
 1355 0022 0027     		movs	r7, #0
 1356              	.LVL107:
 1357              	.L135:
  69:Drivers/lvgl/src/core/lv_indev_scroll.c ****         zoom *= (lv_obj_get_style_transform_zoom(parent, 0) / 256);
 1358              		.loc 1 69 9 is_stmt 1 view .LVU419
 1359              	.LBB251:
 1360              	.LBI251:
  85:Drivers/lvgl/src/core/lv_obj_style_gen.h **** {
 1361              		.loc 2 85 26 view .LVU420
 1362              	.LBB252:
  87:Drivers/lvgl/src/core/lv_obj_style_gen.h ****     return (lv_coord_t)v.num;
 1363              		.loc 2 87 5 view .LVU421
  87:Drivers/lvgl/src/core/lv_obj_style_gen.h ****     return (lv_coord_t)v.num;
 1364              		.loc 2 87 26 is_stmt 0 view .LVU422
 1365 0024 6E22     		movs	r2, #110
 1366 0026 0021     		movs	r1, #0
 1367 0028 4846     		mov	r0, r9
 1368 002a FFF7FEFF 		bl	lv_obj_get_style_prop
 1369              	.LVL108:
  88:Drivers/lvgl/src/core/lv_obj_style_gen.h **** }
 1370              		.loc 2 88 5 is_stmt 1 view .LVU423
  88:Drivers/lvgl/src/core/lv_obj_style_gen.h **** }
 1371              		.loc 2 88 5 is_stmt 0 view .LVU424
 1372              	.LBE252:
 1373              	.LBE251:
 1374              	.LBB253:
 1375              	.LBB254:
  81:Drivers/lvgl/src/core/lv_obj_style_gen.h ****     return (lv_coord_t)v.num;
 1376              		.loc 2 81 26 view .LVU425
 1377 002e 6D22     		movs	r2, #109
 1378              	.LBE254:
 1379              	.LBE253:
  69:Drivers/lvgl/src/core/lv_indev_scroll.c ****         zoom *= (lv_obj_get_style_transform_zoom(parent, 0) / 256);
 1380              		.loc 1 69 15 view .LVU426
 1381 0030 C319     		adds	r3, r0, r7
 1382              	.LBB257:
 1383              	.LBB255:
  81:Drivers/lvgl/src/core/lv_obj_style_gen.h ****     return (lv_coord_t)v.num;
 1384              		.loc 2 81 26 view .LVU427
 1385 0032 0021     		movs	r1, #0
 1386 0034 4846     		mov	r0, r9
 1387              	.LBE255:
 1388              	.LBE257:
  69:Drivers/lvgl/src/core/lv_indev_scroll.c ****         zoom *= (lv_obj_get_style_transform_zoom(parent, 0) / 256);
 1389              		.loc 1 69 15 view .LVU428
 1390 0036 1FFA83F8 		uxth	r8, r3
 1391 003a 1FB2     		sxth	r7, r3
 1392              	.LVL109:
  70:Drivers/lvgl/src/core/lv_indev_scroll.c ****         parent = lv_obj_get_parent(parent);
ARM GAS  /var/folders/0z/tsy30v1j4xl4_7kw94k978ww0000gn/T//cc5O5B9v.s 			page 48


 1393              		.loc 1 70 9 is_stmt 1 view .LVU429
 1394              	.LBB258:
 1395              	.LBI253:
  79:Drivers/lvgl/src/core/lv_obj_style_gen.h **** {
 1396              		.loc 2 79 26 view .LVU430
 1397              	.LBB256:
  81:Drivers/lvgl/src/core/lv_obj_style_gen.h ****     return (lv_coord_t)v.num;
 1398              		.loc 2 81 5 view .LVU431
  81:Drivers/lvgl/src/core/lv_obj_style_gen.h ****     return (lv_coord_t)v.num;
 1399              		.loc 2 81 26 is_stmt 0 view .LVU432
 1400 003c FFF7FEFF 		bl	lv_obj_get_style_prop
 1401              	.LVL110:
  82:Drivers/lvgl/src/core/lv_obj_style_gen.h **** }
 1402              		.loc 2 82 5 is_stmt 1 view .LVU433
  82:Drivers/lvgl/src/core/lv_obj_style_gen.h **** }
 1403              		.loc 2 82 12 is_stmt 0 view .LVU434
 1404 0040 03B2     		sxth	r3, r0
 1405              	.LVL111:
  82:Drivers/lvgl/src/core/lv_obj_style_gen.h **** }
 1406              		.loc 2 82 12 view .LVU435
 1407              	.LBE256:
 1408              	.LBE258:
  70:Drivers/lvgl/src/core/lv_indev_scroll.c ****         parent = lv_obj_get_parent(parent);
 1409              		.loc 1 70 61 view .LVU436
 1410 0042 002B     		cmp	r3, #0
 1411 0044 B8BF     		it	lt
 1412 0046 FF33     		addlt	r3, r3, #255
 1413 0048 1B12     		asrs	r3, r3, #8
  71:Drivers/lvgl/src/core/lv_indev_scroll.c ****     }
 1414              		.loc 1 71 18 view .LVU437
 1415 004a 4846     		mov	r0, r9
  70:Drivers/lvgl/src/core/lv_indev_scroll.c ****         parent = lv_obj_get_parent(parent);
 1416              		.loc 1 70 14 view .LVU438
 1417 004c 13FB06F3 		smulbb	r3, r3, r6
 1418 0050 1EB2     		sxth	r6, r3
 1419              	.LVL112:
  71:Drivers/lvgl/src/core/lv_indev_scroll.c ****     }
 1420              		.loc 1 71 9 is_stmt 1 view .LVU439
  71:Drivers/lvgl/src/core/lv_indev_scroll.c ****     }
 1421              		.loc 1 71 18 is_stmt 0 view .LVU440
 1422 0052 FFF7FEFF 		bl	lv_obj_get_parent
 1423              	.LVL113:
  68:Drivers/lvgl/src/core/lv_indev_scroll.c ****         angle += lv_obj_get_style_transform_angle(parent, 0);
 1424              		.loc 1 68 11 is_stmt 1 view .LVU441
 1425 0056 8146     		mov	r9, r0
 1426 0058 0028     		cmp	r0, #0
 1427 005a E3D1     		bne	.L135
  74:Drivers/lvgl/src/core/lv_indev_scroll.c ****         angle = -angle;
 1428              		.loc 1 74 5 view .LVU442
  74:Drivers/lvgl/src/core/lv_indev_scroll.c ****         angle = -angle;
 1429              		.loc 1 74 7 is_stmt 0 view .LVU443
 1430 005c 17B9     		cbnz	r7, .L136
  74:Drivers/lvgl/src/core/lv_indev_scroll.c ****         angle = -angle;
 1431              		.loc 1 74 19 discriminator 1 view .LVU444
 1432 005e B6F5807F 		cmp	r6, #256
 1433 0062 0ED0     		beq	.L137
 1434              	.L136:
ARM GAS  /var/folders/0z/tsy30v1j4xl4_7kw94k978ww0000gn/T//cc5O5B9v.s 			page 49


 1435              	.LBB259:
  75:Drivers/lvgl/src/core/lv_indev_scroll.c ****         zoom = (256 * 256) / zoom;
 1436              		.loc 1 75 9 is_stmt 1 view .LVU445
 1437              	.LVL114:
  76:Drivers/lvgl/src/core/lv_indev_scroll.c ****         lv_point_t pivot = { 0, 0 };
 1438              		.loc 1 76 9 view .LVU446
  77:Drivers/lvgl/src/core/lv_indev_scroll.c ****         lv_point_transform(&proc->types.pointer.vect, angle, zoom, &pivot);
 1439              		.loc 1 77 20 is_stmt 0 view .LVU447
 1440 0064 0023     		movs	r3, #0
  75:Drivers/lvgl/src/core/lv_indev_scroll.c ****         zoom = (256 * 256) / zoom;
 1441              		.loc 1 75 15 view .LVU448
 1442 0066 C8F10001 		rsb	r1, r8, #0
  76:Drivers/lvgl/src/core/lv_indev_scroll.c ****         lv_point_t pivot = { 0, 0 };
 1443              		.loc 1 76 28 view .LVU449
 1444 006a 4FF48032 		mov	r2, #65536
  77:Drivers/lvgl/src/core/lv_indev_scroll.c ****         lv_point_transform(&proc->types.pointer.vect, angle, zoom, &pivot);
 1445              		.loc 1 77 20 view .LVU450
 1446 006e 0B93     		str	r3, [sp, #44]
  76:Drivers/lvgl/src/core/lv_indev_scroll.c ****         lv_point_t pivot = { 0, 0 };
 1447              		.loc 1 76 28 view .LVU451
 1448 0070 92FBF6F2 		sdiv	r2, r2, r6
 1449              	.LVL115:
  77:Drivers/lvgl/src/core/lv_indev_scroll.c ****         lv_point_transform(&proc->types.pointer.vect, angle, zoom, &pivot);
 1450              		.loc 1 77 9 is_stmt 1 view .LVU452
  78:Drivers/lvgl/src/core/lv_indev_scroll.c ****     }
 1451              		.loc 1 78 9 view .LVU453
 1452 0074 09B2     		sxth	r1, r1
 1453 0076 12B2     		sxth	r2, r2
  78:Drivers/lvgl/src/core/lv_indev_scroll.c ****     }
 1454              		.loc 1 78 9 is_stmt 0 view .LVU454
 1455 0078 0BAB     		add	r3, sp, #44
 1456 007a 04F11400 		add	r0, r4, #20
 1457              	.LVL116:
  78:Drivers/lvgl/src/core/lv_indev_scroll.c ****     }
 1458              		.loc 1 78 9 view .LVU455
 1459 007e FFF7FEFF 		bl	lv_point_transform
 1460              	.LVL117:
 1461              	.L137:
  78:Drivers/lvgl/src/core/lv_indev_scroll.c ****     }
 1462              		.loc 1 78 9 view .LVU456
 1463              	.LBE259:
  83:Drivers/lvgl/src/core/lv_indev_scroll.c ****     lv_coord_t diff_y = 0;
 1464              		.loc 1 83 5 is_stmt 1 view .LVU457
  84:Drivers/lvgl/src/core/lv_indev_scroll.c ****     if(proc->types.pointer.scroll_dir == LV_DIR_HOR) {
 1465              		.loc 1 84 5 view .LVU458
  85:Drivers/lvgl/src/core/lv_indev_scroll.c ****         lv_coord_t sr = lv_obj_get_scroll_right(scroll_obj);
 1466              		.loc 1 85 5 view .LVU459
  85:Drivers/lvgl/src/core/lv_indev_scroll.c ****         lv_coord_t sr = lv_obj_get_scroll_right(scroll_obj);
 1467              		.loc 1 85 39 is_stmt 0 view .LVU460
 1468 0082 94F84060 		ldrb	r6, [r4, #64]	@ zero_extendqisi2
  85:Drivers/lvgl/src/core/lv_indev_scroll.c ****         lv_coord_t sr = lv_obj_get_scroll_right(scroll_obj);
 1469              		.loc 1 85 7 view .LVU461
 1470 0086 06F00F06 		and	r6, r6, #15
 1471 008a 032E     		cmp	r6, #3
 1472              	.LBB260:
  86:Drivers/lvgl/src/core/lv_indev_scroll.c ****         lv_coord_t sl = lv_obj_get_scroll_left(scroll_obj);
 1473              		.loc 1 86 25 view .LVU462
ARM GAS  /var/folders/0z/tsy30v1j4xl4_7kw94k978ww0000gn/T//cc5O5B9v.s 			page 50


 1474 008c 2846     		mov	r0, r5
 1475              	.LBE260:
  85:Drivers/lvgl/src/core/lv_indev_scroll.c ****         lv_coord_t sr = lv_obj_get_scroll_right(scroll_obj);
 1476              		.loc 1 85 7 view .LVU463
 1477 008e 52D0     		beq	.L216
 1478              	.LVL118:
 1479              	.LBB261:
  91:Drivers/lvgl/src/core/lv_indev_scroll.c ****         lv_coord_t sb = lv_obj_get_scroll_bottom(scroll_obj);
 1480              		.loc 1 91 9 is_stmt 1 view .LVU464
  91:Drivers/lvgl/src/core/lv_indev_scroll.c ****         lv_coord_t sb = lv_obj_get_scroll_bottom(scroll_obj);
 1481              		.loc 1 91 25 is_stmt 0 view .LVU465
 1482 0090 FFF7FEFF 		bl	lv_obj_get_scroll_top
 1483              	.LVL119:
  91:Drivers/lvgl/src/core/lv_indev_scroll.c ****         lv_coord_t sb = lv_obj_get_scroll_bottom(scroll_obj);
 1484              		.loc 1 91 25 view .LVU466
 1485 0094 0246     		mov	r2, r0
  92:Drivers/lvgl/src/core/lv_indev_scroll.c ****         diff_y = elastic_diff(scroll_obj, proc->types.pointer.vect.y, st, sb, LV_DIR_VER);
 1486              		.loc 1 92 25 view .LVU467
 1487 0096 2846     		mov	r0, r5
  91:Drivers/lvgl/src/core/lv_indev_scroll.c ****         lv_coord_t sb = lv_obj_get_scroll_bottom(scroll_obj);
 1488              		.loc 1 91 25 view .LVU468
 1489 0098 0392     		str	r2, [sp, #12]
 1490              	.LVL120:
  92:Drivers/lvgl/src/core/lv_indev_scroll.c ****         diff_y = elastic_diff(scroll_obj, proc->types.pointer.vect.y, st, sb, LV_DIR_VER);
 1491              		.loc 1 92 9 is_stmt 1 view .LVU469
  92:Drivers/lvgl/src/core/lv_indev_scroll.c ****         diff_y = elastic_diff(scroll_obj, proc->types.pointer.vect.y, st, sb, LV_DIR_VER);
 1492              		.loc 1 92 25 is_stmt 0 view .LVU470
 1493 009a FFF7FEFF 		bl	lv_obj_get_scroll_bottom
 1494              	.LVL121:
  93:Drivers/lvgl/src/core/lv_indev_scroll.c ****     }
 1495              		.loc 1 93 18 view .LVU471
 1496 009e 0C21     		movs	r1, #12
 1497 00a0 0091     		str	r1, [sp]
  92:Drivers/lvgl/src/core/lv_indev_scroll.c ****         diff_y = elastic_diff(scroll_obj, proc->types.pointer.vect.y, st, sb, LV_DIR_VER);
 1498              		.loc 1 92 25 view .LVU472
 1499 00a2 0346     		mov	r3, r0
 1500              	.LVL122:
  93:Drivers/lvgl/src/core/lv_indev_scroll.c ****     }
 1501              		.loc 1 93 9 is_stmt 1 view .LVU473
  93:Drivers/lvgl/src/core/lv_indev_scroll.c ****     }
 1502              		.loc 1 93 18 is_stmt 0 view .LVU474
 1503 00a4 039A     		ldr	r2, [sp, #12]
 1504 00a6 B4F91610 		ldrsh	r1, [r4, #22]
 1505 00aa 2846     		mov	r0, r5
 1506 00ac FFF7FEFF 		bl	elastic_diff
 1507              	.LVL123:
  93:Drivers/lvgl/src/core/lv_indev_scroll.c ****     }
 1508              		.loc 1 93 18 view .LVU475
 1509 00b0 0646     		mov	r6, r0
 1510              	.LBE261:
  96:Drivers/lvgl/src/core/lv_indev_scroll.c ****     if((scroll_dir & LV_DIR_LEFT)   == 0 && diff_x > 0) diff_x = 0;
 1511              		.loc 1 96 27 view .LVU476
 1512 00b2 2846     		mov	r0, r5
 1513              	.LVL124:
  96:Drivers/lvgl/src/core/lv_indev_scroll.c ****     if((scroll_dir & LV_DIR_LEFT)   == 0 && diff_x > 0) diff_x = 0;
 1514              		.loc 1 96 5 is_stmt 1 view .LVU477
  96:Drivers/lvgl/src/core/lv_indev_scroll.c ****     if((scroll_dir & LV_DIR_LEFT)   == 0 && diff_x > 0) diff_x = 0;
ARM GAS  /var/folders/0z/tsy30v1j4xl4_7kw94k978ww0000gn/T//cc5O5B9v.s 			page 51


 1515              		.loc 1 96 27 is_stmt 0 view .LVU478
 1516 00b4 FFF7FEFF 		bl	lv_obj_get_scroll_dir
 1517              	.LVL125:
  97:Drivers/lvgl/src/core/lv_indev_scroll.c ****     if((scroll_dir & LV_DIR_RIGHT)  == 0 && diff_x < 0) diff_x = 0;
 1518              		.loc 1 97 5 is_stmt 1 view .LVU479
  98:Drivers/lvgl/src/core/lv_indev_scroll.c ****     if((scroll_dir & LV_DIR_TOP)    == 0 && diff_y > 0) diff_y = 0;
 1519              		.loc 1 98 5 view .LVU480
  99:Drivers/lvgl/src/core/lv_indev_scroll.c ****     if((scroll_dir & LV_DIR_BOTTOM) == 0 && diff_y < 0) diff_y = 0;
 1520              		.loc 1 99 5 view .LVU481
  99:Drivers/lvgl/src/core/lv_indev_scroll.c ****     if((scroll_dir & LV_DIR_BOTTOM) == 0 && diff_y < 0) diff_y = 0;
 1521              		.loc 1 99 7 is_stmt 0 view .LVU482
 1522 00b8 10F00403 		ands	r3, r0, #4
 1523 00bc 58D0     		beq	.L141
 1524 00be 0023     		movs	r3, #0
  83:Drivers/lvgl/src/core/lv_indev_scroll.c ****     lv_coord_t diff_y = 0;
 1525              		.loc 1 83 16 view .LVU483
 1526 00c0 1F46     		mov	r7, r3
 1527              	.LVL126:
 1528              	.L142:
 100:Drivers/lvgl/src/core/lv_indev_scroll.c **** 
 1529              		.loc 1 100 5 is_stmt 1 view .LVU484
 100:Drivers/lvgl/src/core/lv_indev_scroll.c **** 
 1530              		.loc 1 100 7 is_stmt 0 view .LVU485
 1531 00c2 0207     		lsls	r2, r0, #28
 1532 00c4 5CBF     		itt	pl
 1533 00c6 26EAE676 		bicpl	r6, r6, r6, asr #31
 1534              	.LVL127:
 100:Drivers/lvgl/src/core/lv_indev_scroll.c **** 
 1535              		.loc 1 100 7 view .LVU486
 1536 00ca 36B2     		sxthpl	r6, r6
 1537              	.LBB262:
 1538              	.LBB263:
 559:Drivers/lvgl/src/core/lv_indev_scroll.c ****             *diff_y = proc->types.pointer.scroll_area.y1 - proc->types.pointer.scroll_sum.y;
 1539              		.loc 1 559 47 view .LVU487
 1540 00cc 3246     		mov	r2, r6
 1541              	.L144:
 1542              	.LVL128:
 559:Drivers/lvgl/src/core/lv_indev_scroll.c ****             *diff_y = proc->types.pointer.scroll_area.y1 - proc->types.pointer.scroll_sum.y;
 1543              		.loc 1 559 47 view .LVU488
 1544              	.LBE263:
 1545              	.LBE262:
 103:Drivers/lvgl/src/core/lv_indev_scroll.c **** 
 1546              		.loc 1 103 5 is_stmt 1 view .LVU489
 1547              	.LBB267:
 1548              	.LBI262:
 556:Drivers/lvgl/src/core/lv_indev_scroll.c **** {
 1549              		.loc 1 556 13 view .LVU490
 1550              	.LBB264:
 558:Drivers/lvgl/src/core/lv_indev_scroll.c ****         if(proc->types.pointer.scroll_sum.y + *diff_y < proc->types.pointer.scroll_area.y1) {
 1551              		.loc 1 558 5 view .LVU491
 559:Drivers/lvgl/src/core/lv_indev_scroll.c ****             *diff_y = proc->types.pointer.scroll_area.y1 - proc->types.pointer.scroll_sum.y;
 1552              		.loc 1 559 9 view .LVU492
 559:Drivers/lvgl/src/core/lv_indev_scroll.c ****             *diff_y = proc->types.pointer.scroll_area.y1 - proc->types.pointer.scroll_sum.y;
 1553              		.loc 1 559 42 is_stmt 0 view .LVU493
 1554 00ce B4F91A00 		ldrsh	r0, [r4, #26]
 1555              	.LVL129:
 559:Drivers/lvgl/src/core/lv_indev_scroll.c ****             *diff_y = proc->types.pointer.scroll_area.y1 - proc->types.pointer.scroll_sum.y;
ARM GAS  /var/folders/0z/tsy30v1j4xl4_7kw94k978ww0000gn/T//cc5O5B9v.s 			page 52


 1556              		.loc 1 559 88 view .LVU494
 1557 00d2 B4F93610 		ldrsh	r1, [r4, #54]
 559:Drivers/lvgl/src/core/lv_indev_scroll.c ****             *diff_y = proc->types.pointer.scroll_area.y1 - proc->types.pointer.scroll_sum.y;
 1558              		.loc 1 559 45 view .LVU495
 1559 00d6 0244     		add	r2, r2, r0
 559:Drivers/lvgl/src/core/lv_indev_scroll.c ****             *diff_y = proc->types.pointer.scroll_area.y1 - proc->types.pointer.scroll_sum.y;
 1560              		.loc 1 559 11 view .LVU496
 1561 00d8 8A42     		cmp	r2, r1
 1562 00da 02DA     		bge	.L146
 560:Drivers/lvgl/src/core/lv_indev_scroll.c ****         }
 1563              		.loc 1 560 13 is_stmt 1 view .LVU497
 560:Drivers/lvgl/src/core/lv_indev_scroll.c ****         }
 1564              		.loc 1 560 58 is_stmt 0 view .LVU498
 1565 00dc 091A     		subs	r1, r1, r0
 1566 00de 0EB2     		sxth	r6, r1
 1567              	.LVL130:
 563:Drivers/lvgl/src/core/lv_indev_scroll.c ****             *diff_y = proc->types.pointer.scroll_area.y2 - proc->types.pointer.scroll_sum.y;
 1568              		.loc 1 563 45 view .LVU499
 1569 00e0 3218     		adds	r2, r6, r0
 1570              	.L146:
 563:Drivers/lvgl/src/core/lv_indev_scroll.c ****             *diff_y = proc->types.pointer.scroll_area.y2 - proc->types.pointer.scroll_sum.y;
 1571              		.loc 1 563 9 is_stmt 1 view .LVU500
 563:Drivers/lvgl/src/core/lv_indev_scroll.c ****             *diff_y = proc->types.pointer.scroll_area.y2 - proc->types.pointer.scroll_sum.y;
 1572              		.loc 1 563 88 is_stmt 0 view .LVU501
 1573 00e2 B4F93A10 		ldrsh	r1, [r4, #58]
 563:Drivers/lvgl/src/core/lv_indev_scroll.c ****             *diff_y = proc->types.pointer.scroll_area.y2 - proc->types.pointer.scroll_sum.y;
 1574              		.loc 1 563 11 view .LVU502
 1575 00e6 9142     		cmp	r1, r2
 564:Drivers/lvgl/src/core/lv_indev_scroll.c ****         }
 1576              		.loc 1 564 13 is_stmt 1 view .LVU503
 564:Drivers/lvgl/src/core/lv_indev_scroll.c ****         }
 1577              		.loc 1 564 58 is_stmt 0 view .LVU504
 1578 00e8 BCBF     		itt	lt
 1579 00ea 091A     		sublt	r1, r1, r0
 1580 00ec 0EB2     		sxthlt	r6, r1
 1581              	.LVL131:
 568:Drivers/lvgl/src/core/lv_indev_scroll.c ****         if(proc->types.pointer.scroll_sum.x + *diff_x < proc->types.pointer.scroll_area.x1) {
 1582              		.loc 1 568 5 is_stmt 1 view .LVU505
 569:Drivers/lvgl/src/core/lv_indev_scroll.c ****             *diff_x = proc->types.pointer.scroll_area.x1 - proc->types.pointer.scroll_sum.x;
 1583              		.loc 1 569 9 view .LVU506
 569:Drivers/lvgl/src/core/lv_indev_scroll.c ****             *diff_x = proc->types.pointer.scroll_area.x1 - proc->types.pointer.scroll_sum.x;
 1584              		.loc 1 569 42 is_stmt 0 view .LVU507
 1585 00ee B4F91810 		ldrsh	r1, [r4, #24]
 569:Drivers/lvgl/src/core/lv_indev_scroll.c ****             *diff_x = proc->types.pointer.scroll_area.x1 - proc->types.pointer.scroll_sum.x;
 1586              		.loc 1 569 88 view .LVU508
 1587 00f2 B4F93420 		ldrsh	r2, [r4, #52]
 569:Drivers/lvgl/src/core/lv_indev_scroll.c ****             *diff_x = proc->types.pointer.scroll_area.x1 - proc->types.pointer.scroll_sum.x;
 1588              		.loc 1 569 45 view .LVU509
 1589 00f6 0B44     		add	r3, r3, r1
 569:Drivers/lvgl/src/core/lv_indev_scroll.c ****             *diff_x = proc->types.pointer.scroll_area.x1 - proc->types.pointer.scroll_sum.x;
 1590              		.loc 1 569 11 view .LVU510
 1591 00f8 9342     		cmp	r3, r2
 1592 00fa 02DA     		bge	.L148
 570:Drivers/lvgl/src/core/lv_indev_scroll.c ****         }
 1593              		.loc 1 570 13 is_stmt 1 view .LVU511
 570:Drivers/lvgl/src/core/lv_indev_scroll.c ****         }
 1594              		.loc 1 570 58 is_stmt 0 view .LVU512
ARM GAS  /var/folders/0z/tsy30v1j4xl4_7kw94k978ww0000gn/T//cc5O5B9v.s 			page 53


 1595 00fc 521A     		subs	r2, r2, r1
 1596 00fe 17B2     		sxth	r7, r2
 1597              	.LVL132:
 573:Drivers/lvgl/src/core/lv_indev_scroll.c ****             *diff_x = proc->types.pointer.scroll_area.x2 - proc->types.pointer.scroll_sum.x;
 1598              		.loc 1 573 45 view .LVU513
 1599 0100 7B18     		adds	r3, r7, r1
 1600              	.LVL133:
 1601              	.L148:
 573:Drivers/lvgl/src/core/lv_indev_scroll.c ****             *diff_x = proc->types.pointer.scroll_area.x2 - proc->types.pointer.scroll_sum.x;
 1602              		.loc 1 573 9 is_stmt 1 view .LVU514
 573:Drivers/lvgl/src/core/lv_indev_scroll.c ****             *diff_x = proc->types.pointer.scroll_area.x2 - proc->types.pointer.scroll_sum.x;
 1603              		.loc 1 573 88 is_stmt 0 view .LVU515
 1604 0102 B4F93820 		ldrsh	r2, [r4, #56]
 573:Drivers/lvgl/src/core/lv_indev_scroll.c ****             *diff_x = proc->types.pointer.scroll_area.x2 - proc->types.pointer.scroll_sum.x;
 1605              		.loc 1 573 11 view .LVU516
 1606 0106 9A42     		cmp	r2, r3
 574:Drivers/lvgl/src/core/lv_indev_scroll.c ****         }
 1607              		.loc 1 574 13 is_stmt 1 view .LVU517
 574:Drivers/lvgl/src/core/lv_indev_scroll.c ****         }
 1608              		.loc 1 574 58 is_stmt 0 view .LVU518
 1609 0108 BCBF     		itt	lt
 1610 010a 521A     		sublt	r2, r2, r1
 1611 010c 17B2     		sxthlt	r7, r2
 1612              	.LVL134:
 574:Drivers/lvgl/src/core/lv_indev_scroll.c ****         }
 1613              		.loc 1 574 58 view .LVU519
 1614              	.LBE264:
 1615              	.LBE267:
 105:Drivers/lvgl/src/core/lv_indev_scroll.c ****     if(proc->reset_query) return;
 1616              		.loc 1 105 5 is_stmt 1 view .LVU520
 1617 010e 2846     		mov	r0, r5
 1618 0110 3246     		mov	r2, r6
 1619 0112 3946     		mov	r1, r7
 1620 0114 FFF7FEFF 		bl	_lv_obj_scroll_by_raw
 1621              	.LVL135:
 106:Drivers/lvgl/src/core/lv_indev_scroll.c ****     proc->types.pointer.scroll_sum.x += diff_x;
 1622              		.loc 1 106 5 view .LVU521
 106:Drivers/lvgl/src/core/lv_indev_scroll.c ****     proc->types.pointer.scroll_sum.x += diff_x;
 1623              		.loc 1 106 8 is_stmt 0 view .LVU522
 1624 0118 6378     		ldrb	r3, [r4, #1]	@ zero_extendqisi2
 106:Drivers/lvgl/src/core/lv_indev_scroll.c ****     proc->types.pointer.scroll_sum.x += diff_x;
 1625              		.loc 1 106 7 view .LVU523
 1626 011a 9B07     		lsls	r3, r3, #30
 1627 011c 05D4     		bmi	.L82
 107:Drivers/lvgl/src/core/lv_indev_scroll.c ****     proc->types.pointer.scroll_sum.y += diff_y;
 1628              		.loc 1 107 5 is_stmt 1 view .LVU524
 107:Drivers/lvgl/src/core/lv_indev_scroll.c ****     proc->types.pointer.scroll_sum.y += diff_y;
 1629              		.loc 1 107 38 is_stmt 0 view .LVU525
 1630 011e 228B     		ldrh	r2, [r4, #24]
 108:Drivers/lvgl/src/core/lv_indev_scroll.c **** }
 1631              		.loc 1 108 38 view .LVU526
 1632 0120 638B     		ldrh	r3, [r4, #26]
 107:Drivers/lvgl/src/core/lv_indev_scroll.c ****     proc->types.pointer.scroll_sum.y += diff_y;
 1633              		.loc 1 107 38 view .LVU527
 1634 0122 1744     		add	r7, r7, r2
 1635              	.LVL136:
 108:Drivers/lvgl/src/core/lv_indev_scroll.c **** }
ARM GAS  /var/folders/0z/tsy30v1j4xl4_7kw94k978ww0000gn/T//cc5O5B9v.s 			page 54


 1636              		.loc 1 108 38 view .LVU528
 1637 0124 1E44     		add	r6, r6, r3
 1638              	.LVL137:
 107:Drivers/lvgl/src/core/lv_indev_scroll.c ****     proc->types.pointer.scroll_sum.y += diff_y;
 1639              		.loc 1 107 38 view .LVU529
 1640 0126 2783     		strh	r7, [r4, #24]	@ movhi
 108:Drivers/lvgl/src/core/lv_indev_scroll.c **** }
 1641              		.loc 1 108 5 is_stmt 1 view .LVU530
 108:Drivers/lvgl/src/core/lv_indev_scroll.c **** }
 1642              		.loc 1 108 38 is_stmt 0 view .LVU531
 1643 0128 6683     		strh	r6, [r4, #26]	@ movhi
 1644              	.LVL138:
 1645              	.L82:
 109:Drivers/lvgl/src/core/lv_indev_scroll.c **** 
 1646              		.loc 1 109 1 view .LVU532
 1647 012a 0DB0     		add	sp, sp, #52
 1648              		.cfi_def_cfa_offset 44
 1649              		@ sp needed
 1650 012c BDEC028B 		vldm	sp!, {d8}
 1651              		.cfi_restore 80
 1652              		.cfi_restore 81
 1653              		.cfi_def_cfa_offset 36
 1654 0130 BDE8F08F 		pop	{r4, r5, r6, r7, r8, r9, r10, fp, pc}
 1655              	.LVL139:
 1656              	.L210:
 1657              		.cfi_def_cfa_offset 0
 1658              		.cfi_restore 4
 1659              		.cfi_restore 5
 1660              		.cfi_restore 6
 1661              		.cfi_restore 7
 1662              		.cfi_restore 8
 1663              		.cfi_restore 9
 1664              		.cfi_restore 10
 1665              		.cfi_restore 11
 1666              		.cfi_restore 14
 109:Drivers/lvgl/src/core/lv_indev_scroll.c **** 
 1667              		.loc 1 109 1 view .LVU533
 1668 0134 7047     		bx	lr
 1669              	.LVL140:
 1670              	.L216:
 1671              		.cfi_def_cfa_offset 96
 1672              		.cfi_offset 4, -36
 1673              		.cfi_offset 5, -32
 1674              		.cfi_offset 6, -28
 1675              		.cfi_offset 7, -24
 1676              		.cfi_offset 8, -20
 1677              		.cfi_offset 9, -16
 1678              		.cfi_offset 10, -12
 1679              		.cfi_offset 11, -8
 1680              		.cfi_offset 14, -4
 1681              		.cfi_offset 80, -44
 1682              		.cfi_offset 81, -40
 1683              	.LBB268:
  86:Drivers/lvgl/src/core/lv_indev_scroll.c ****         lv_coord_t sl = lv_obj_get_scroll_left(scroll_obj);
 1684              		.loc 1 86 9 is_stmt 1 view .LVU534
  86:Drivers/lvgl/src/core/lv_indev_scroll.c ****         lv_coord_t sl = lv_obj_get_scroll_left(scroll_obj);
 1685              		.loc 1 86 25 is_stmt 0 view .LVU535
ARM GAS  /var/folders/0z/tsy30v1j4xl4_7kw94k978ww0000gn/T//cc5O5B9v.s 			page 55


 1686 0136 FFF7FEFF 		bl	lv_obj_get_scroll_right
 1687              	.LVL141:
  86:Drivers/lvgl/src/core/lv_indev_scroll.c ****         lv_coord_t sl = lv_obj_get_scroll_left(scroll_obj);
 1688              		.loc 1 86 25 view .LVU536
 1689 013a 0346     		mov	r3, r0
  87:Drivers/lvgl/src/core/lv_indev_scroll.c ****         diff_x = elastic_diff(scroll_obj, proc->types.pointer.vect.x, sl, sr, LV_DIR_HOR);
 1690              		.loc 1 87 25 view .LVU537
 1691 013c 2846     		mov	r0, r5
  86:Drivers/lvgl/src/core/lv_indev_scroll.c ****         lv_coord_t sl = lv_obj_get_scroll_left(scroll_obj);
 1692              		.loc 1 86 25 view .LVU538
 1693 013e 0393     		str	r3, [sp, #12]
 1694              	.LVL142:
  87:Drivers/lvgl/src/core/lv_indev_scroll.c ****         diff_x = elastic_diff(scroll_obj, proc->types.pointer.vect.x, sl, sr, LV_DIR_HOR);
 1695              		.loc 1 87 9 is_stmt 1 view .LVU539
  87:Drivers/lvgl/src/core/lv_indev_scroll.c ****         diff_x = elastic_diff(scroll_obj, proc->types.pointer.vect.x, sl, sr, LV_DIR_HOR);
 1696              		.loc 1 87 25 is_stmt 0 view .LVU540
 1697 0140 FFF7FEFF 		bl	lv_obj_get_scroll_left
 1698              	.LVL143:
  88:Drivers/lvgl/src/core/lv_indev_scroll.c ****     }
 1699              		.loc 1 88 18 view .LVU541
 1700 0144 0096     		str	r6, [sp]
 1701 0146 039B     		ldr	r3, [sp, #12]
 1702 0148 B4F91410 		ldrsh	r1, [r4, #20]
  87:Drivers/lvgl/src/core/lv_indev_scroll.c ****         diff_x = elastic_diff(scroll_obj, proc->types.pointer.vect.x, sl, sr, LV_DIR_HOR);
 1703              		.loc 1 87 25 view .LVU542
 1704 014c 0246     		mov	r2, r0
 1705              	.LVL144:
  88:Drivers/lvgl/src/core/lv_indev_scroll.c ****     }
 1706              		.loc 1 88 9 is_stmt 1 view .LVU543
  88:Drivers/lvgl/src/core/lv_indev_scroll.c ****     }
 1707              		.loc 1 88 18 is_stmt 0 view .LVU544
 1708 014e 2846     		mov	r0, r5
 1709 0150 FFF7FEFF 		bl	elastic_diff
 1710              	.LVL145:
  88:Drivers/lvgl/src/core/lv_indev_scroll.c ****     }
 1711              		.loc 1 88 18 view .LVU545
 1712 0154 0746     		mov	r7, r0
 1713              	.LBE268:
  96:Drivers/lvgl/src/core/lv_indev_scroll.c ****     if((scroll_dir & LV_DIR_LEFT)   == 0 && diff_x > 0) diff_x = 0;
 1714              		.loc 1 96 27 view .LVU546
 1715 0156 2846     		mov	r0, r5
 1716              	.LVL146:
  96:Drivers/lvgl/src/core/lv_indev_scroll.c ****     if((scroll_dir & LV_DIR_LEFT)   == 0 && diff_x > 0) diff_x = 0;
 1717              		.loc 1 96 5 is_stmt 1 view .LVU547
  96:Drivers/lvgl/src/core/lv_indev_scroll.c ****     if((scroll_dir & LV_DIR_LEFT)   == 0 && diff_x > 0) diff_x = 0;
 1718              		.loc 1 96 27 is_stmt 0 view .LVU548
 1719 0158 FFF7FEFF 		bl	lv_obj_get_scroll_dir
 1720              	.LVL147:
  97:Drivers/lvgl/src/core/lv_indev_scroll.c ****     if((scroll_dir & LV_DIR_RIGHT)  == 0 && diff_x < 0) diff_x = 0;
 1721              		.loc 1 97 5 is_stmt 1 view .LVU549
  97:Drivers/lvgl/src/core/lv_indev_scroll.c ****     if((scroll_dir & LV_DIR_RIGHT)  == 0 && diff_x < 0) diff_x = 0;
 1722              		.loc 1 97 7 is_stmt 0 view .LVU550
 1723 015c 10F00103 		ands	r3, r0, #1
 1724 0160 40F0C780 		bne	.L140
  97:Drivers/lvgl/src/core/lv_indev_scroll.c ****     if((scroll_dir & LV_DIR_RIGHT)  == 0 && diff_x < 0) diff_x = 0;
 1725              		.loc 1 97 42 discriminator 1 view .LVU551
 1726 0164 002F     		cmp	r7, #0
ARM GAS  /var/folders/0z/tsy30v1j4xl4_7kw94k978ww0000gn/T//cc5O5B9v.s 			page 56


 1727 0166 40F3C480 		ble	.L140
  97:Drivers/lvgl/src/core/lv_indev_scroll.c ****     if((scroll_dir & LV_DIR_RIGHT)  == 0 && diff_x < 0) diff_x = 0;
 1728              		.loc 1 97 64 view .LVU552
 1729 016a 1F46     		mov	r7, r3
 1730              	.LVL148:
  84:Drivers/lvgl/src/core/lv_indev_scroll.c ****     if(proc->types.pointer.scroll_dir == LV_DIR_HOR) {
 1731              		.loc 1 84 16 view .LVU553
 1732 016c 1E46     		mov	r6, r3
 1733 016e A8E7     		b	.L142
 1734              	.LVL149:
 1735              	.L141:
  99:Drivers/lvgl/src/core/lv_indev_scroll.c ****     if((scroll_dir & LV_DIR_BOTTOM) == 0 && diff_y < 0) diff_y = 0;
 1736              		.loc 1 99 42 discriminator 1 view .LVU554
 1737 0170 002E     		cmp	r6, #0
  83:Drivers/lvgl/src/core/lv_indev_scroll.c ****     lv_coord_t diff_y = 0;
 1738              		.loc 1 83 16 discriminator 1 view .LVU555
 1739 0172 D8BF     		it	le
 1740 0174 1F46     		movle	r7, r3
  99:Drivers/lvgl/src/core/lv_indev_scroll.c ****     if((scroll_dir & LV_DIR_BOTTOM) == 0 && diff_y < 0) diff_y = 0;
 1741              		.loc 1 99 42 discriminator 1 view .LVU556
 1742 0176 A4DD     		ble	.L142
 1743 0178 1A46     		mov	r2, r3
  83:Drivers/lvgl/src/core/lv_indev_scroll.c ****     lv_coord_t diff_y = 0;
 1744              		.loc 1 83 16 view .LVU557
 1745 017a 1F46     		mov	r7, r3
  99:Drivers/lvgl/src/core/lv_indev_scroll.c ****     if((scroll_dir & LV_DIR_BOTTOM) == 0 && diff_y < 0) diff_y = 0;
 1746              		.loc 1 99 64 view .LVU558
 1747 017c 1E46     		mov	r6, r3
 1748              	.LVL150:
  99:Drivers/lvgl/src/core/lv_indev_scroll.c ****     if((scroll_dir & LV_DIR_BOTTOM) == 0 && diff_y < 0) diff_y = 0;
 1749              		.loc 1 99 64 view .LVU559
 1750 017e A6E7     		b	.L144
 1751              	.LVL151:
 1752              	.L215:
  55:Drivers/lvgl/src/core/lv_indev_scroll.c ****         if(scroll_obj == NULL) return;
 1753              		.loc 1 55 9 is_stmt 1 view .LVU560
 1754              	.LBB269:
 1755              	.LBI269:
 258:Drivers/lvgl/src/core/lv_indev_scroll.c **** {
 1756              		.loc 1 258 19 view .LVU561
 1757              	.LBB270:
 260:Drivers/lvgl/src/core/lv_indev_scroll.c ****     lv_dir_t dir_candidate = LV_DIR_NONE;
 1758              		.loc 1 260 5 view .LVU562
 261:Drivers/lvgl/src/core/lv_indev_scroll.c ****     lv_indev_t * indev_act = lv_indev_get_act();
 1759              		.loc 1 261 5 view .LVU563
 262:Drivers/lvgl/src/core/lv_indev_scroll.c ****     lv_coord_t scroll_limit = indev_act->driver->scroll_limit;
 1760              		.loc 1 262 5 view .LVU564
 262:Drivers/lvgl/src/core/lv_indev_scroll.c ****     lv_coord_t scroll_limit = indev_act->driver->scroll_limit;
 1761              		.loc 1 262 30 is_stmt 0 view .LVU565
 1762 0180 FFF7FEFF 		bl	lv_indev_get_act
 1763              	.LVL152:
 263:Drivers/lvgl/src/core/lv_indev_scroll.c **** 
 1764              		.loc 1 263 5 is_stmt 1 view .LVU566
 278:Drivers/lvgl/src/core/lv_indev_scroll.c ****     proc->types.pointer.scroll_sum.y += proc->types.pointer.vect.y;
 1765              		.loc 1 278 38 is_stmt 0 view .LVU567
 1766 0184 238B     		ldrh	r3, [r4, #24]
 263:Drivers/lvgl/src/core/lv_indev_scroll.c **** 
ARM GAS  /var/folders/0z/tsy30v1j4xl4_7kw94k978ww0000gn/T//cc5O5B9v.s 			page 57


 1767              		.loc 1 263 48 view .LVU568
 1768 0186 0268     		ldr	r2, [r0]
 278:Drivers/lvgl/src/core/lv_indev_scroll.c ****     proc->types.pointer.scroll_sum.y += proc->types.pointer.vect.y;
 1769              		.loc 1 278 38 view .LVU569
 1770 0188 A18A     		ldrh	r1, [r4, #20]
 263:Drivers/lvgl/src/core/lv_indev_scroll.c **** 
 1771              		.loc 1 263 48 view .LVU570
 1772 018a 127E     		ldrb	r2, [r2, #24]	@ zero_extendqisi2
 1773 018c 0392     		str	r2, [sp, #12]
 1774              	.LVL153:
 272:Drivers/lvgl/src/core/lv_indev_scroll.c **** 
 1775              		.loc 1 272 5 is_stmt 1 view .LVU571
 278:Drivers/lvgl/src/core/lv_indev_scroll.c ****     proc->types.pointer.scroll_sum.y += proc->types.pointer.vect.y;
 1776              		.loc 1 278 38 is_stmt 0 view .LVU572
 1777 018e 0B44     		add	r3, r3, r1
 279:Drivers/lvgl/src/core/lv_indev_scroll.c **** 
 1778              		.loc 1 279 38 view .LVU573
 1779 0190 E28A     		ldrh	r2, [r4, #22]
 278:Drivers/lvgl/src/core/lv_indev_scroll.c ****     proc->types.pointer.scroll_sum.y += proc->types.pointer.vect.y;
 1780              		.loc 1 278 38 view .LVU574
 1781 0192 2383     		strh	r3, [r4, #24]	@ movhi
 279:Drivers/lvgl/src/core/lv_indev_scroll.c **** 
 1782              		.loc 1 279 38 view .LVU575
 1783 0194 638B     		ldrh	r3, [r4, #26]
 272:Drivers/lvgl/src/core/lv_indev_scroll.c **** 
 1784              		.loc 1 272 16 view .LVU576
 1785 0196 666A     		ldr	r6, [r4, #36]
 1786              	.LVL154:
 275:Drivers/lvgl/src/core/lv_indev_scroll.c ****     bool ver_en = false;
 1787              		.loc 1 275 5 is_stmt 1 view .LVU577
 276:Drivers/lvgl/src/core/lv_indev_scroll.c **** 
 1788              		.loc 1 276 5 view .LVU578
 278:Drivers/lvgl/src/core/lv_indev_scroll.c ****     proc->types.pointer.scroll_sum.y += proc->types.pointer.vect.y;
 1789              		.loc 1 278 5 view .LVU579
 279:Drivers/lvgl/src/core/lv_indev_scroll.c **** 
 1790              		.loc 1 279 5 view .LVU580
 279:Drivers/lvgl/src/core/lv_indev_scroll.c **** 
 1791              		.loc 1 279 38 is_stmt 0 view .LVU581
 1792 0198 1344     		add	r3, r3, r2
 1793 019a 6383     		strh	r3, [r4, #26]	@ movhi
 281:Drivers/lvgl/src/core/lv_indev_scroll.c ****         /*Get the transformed scroll_sum with this object*/
 1794              		.loc 1 281 5 is_stmt 1 view .LVU582
 281:Drivers/lvgl/src/core/lv_indev_scroll.c ****         /*Get the transformed scroll_sum with this object*/
 1795              		.loc 1 281 11 view .LVU583
 1796 019c 002E     		cmp	r6, #0
 1797 019e C4D0     		beq	.L82
 263:Drivers/lvgl/src/core/lv_indev_scroll.c **** 
 1798              		.loc 1 263 16 is_stmt 0 view .LVU584
 1799 01a0 BDF90C30 		ldrsh	r3, [sp, #12]
 261:Drivers/lvgl/src/core/lv_indev_scroll.c ****     lv_indev_t * indev_act = lv_indev_get_act();
 1800              		.loc 1 261 14 view .LVU585
 1801 01a4 CDE90453 		strd	r5, r3, [sp, #16]
 1802              	.LBB271:
 285:Drivers/lvgl/src/core/lv_indev_scroll.c ****         lv_obj_t * parent = obj_act;
 1803              		.loc 1 285 20 view .LVU586
 1804 01a8 08EE105A 		vmov	s16, r5	@ int
 1805              	.LBE271:
ARM GAS  /var/folders/0z/tsy30v1j4xl4_7kw94k978ww0000gn/T//cc5O5B9v.s 			page 58


 276:Drivers/lvgl/src/core/lv_indev_scroll.c **** 
 1806              		.loc 1 276 10 view .LVU587
 1807 01ac AB46     		mov	fp, r5
 1808              	.LBB281:
 285:Drivers/lvgl/src/core/lv_indev_scroll.c ****         lv_obj_t * parent = obj_act;
 1809              		.loc 1 285 20 view .LVU588
 1810 01ae AA46     		mov	r10, r5
 1811 01b0 3746     		mov	r7, r6
 1812              	.LVL155:
 1813              	.L119:
 283:Drivers/lvgl/src/core/lv_indev_scroll.c ****         int32_t zoom = 256;
 1814              		.loc 1 283 9 is_stmt 1 view .LVU589
 284:Drivers/lvgl/src/core/lv_indev_scroll.c ****         lv_point_t pivot = { 0, 0 };
 1815              		.loc 1 284 9 view .LVU590
 285:Drivers/lvgl/src/core/lv_indev_scroll.c ****         lv_obj_t * parent = obj_act;
 1816              		.loc 1 285 9 view .LVU591
 285:Drivers/lvgl/src/core/lv_indev_scroll.c ****         lv_obj_t * parent = obj_act;
 1817              		.loc 1 285 20 is_stmt 0 view .LVU592
 1818 01b2 0023     		movs	r3, #0
 1819 01b4 0A93     		str	r3, [sp, #40]
 286:Drivers/lvgl/src/core/lv_indev_scroll.c ****         while(parent) {
 1820              		.loc 1 286 9 is_stmt 1 view .LVU593
 1821              	.LVL156:
 287:Drivers/lvgl/src/core/lv_indev_scroll.c ****             angle += lv_obj_get_style_transform_angle(parent, 0);
 1822              		.loc 1 287 9 view .LVU594
 287:Drivers/lvgl/src/core/lv_indev_scroll.c ****             angle += lv_obj_get_style_transform_angle(parent, 0);
 1823              		.loc 1 287 15 view .LVU595
 285:Drivers/lvgl/src/core/lv_indev_scroll.c ****         lv_obj_t * parent = obj_act;
 1824              		.loc 1 285 20 is_stmt 0 view .LVU596
 1825 01b6 3D46     		mov	r5, r7
 284:Drivers/lvgl/src/core/lv_indev_scroll.c ****         lv_point_t pivot = { 0, 0 };
 1826              		.loc 1 284 17 view .LVU597
 1827 01b8 4FF48078 		mov	r8, #256
 283:Drivers/lvgl/src/core/lv_indev_scroll.c ****         int32_t zoom = 256;
 1828              		.loc 1 283 17 view .LVU598
 1829 01bc 1E46     		mov	r6, r3
 1830              	.LVL157:
 1831              	.L87:
 1832              	.LBB272:
 288:Drivers/lvgl/src/core/lv_indev_scroll.c ****             int32_t zoom_act = lv_obj_get_style_transform_zoom(parent, 0);
 1833              		.loc 1 288 13 is_stmt 1 view .LVU599
 1834              	.LBB273:
 1835              	.LBI273:
  85:Drivers/lvgl/src/core/lv_obj_style_gen.h **** {
 1836              		.loc 2 85 26 view .LVU600
 1837              	.LBB274:
  87:Drivers/lvgl/src/core/lv_obj_style_gen.h ****     return (lv_coord_t)v.num;
 1838              		.loc 2 87 5 view .LVU601
  87:Drivers/lvgl/src/core/lv_obj_style_gen.h ****     return (lv_coord_t)v.num;
 1839              		.loc 2 87 26 is_stmt 0 view .LVU602
 1840 01be 6E22     		movs	r2, #110
 1841 01c0 0021     		movs	r1, #0
 1842 01c2 2846     		mov	r0, r5
 1843 01c4 FFF7FEFF 		bl	lv_obj_get_style_prop
 1844              	.LVL158:
  88:Drivers/lvgl/src/core/lv_obj_style_gen.h **** }
 1845              		.loc 2 88 5 is_stmt 1 view .LVU603
ARM GAS  /var/folders/0z/tsy30v1j4xl4_7kw94k978ww0000gn/T//cc5O5B9v.s 			page 59


  88:Drivers/lvgl/src/core/lv_obj_style_gen.h **** }
 1846              		.loc 2 88 5 is_stmt 0 view .LVU604
 1847              	.LBE274:
 1848              	.LBE273:
 1849              	.LBB275:
 1850              	.LBB276:
  81:Drivers/lvgl/src/core/lv_obj_style_gen.h ****     return (lv_coord_t)v.num;
 1851              		.loc 2 81 26 view .LVU605
 1852 01c8 6D22     		movs	r2, #109
 1853              	.LBE276:
 1854              	.LBE275:
 288:Drivers/lvgl/src/core/lv_indev_scroll.c ****             int32_t zoom_act = lv_obj_get_style_transform_zoom(parent, 0);
 1855              		.loc 1 288 19 view .LVU606
 1856 01ca 8319     		adds	r3, r0, r6
 1857              	.LBB279:
 1858              	.LBB277:
  81:Drivers/lvgl/src/core/lv_obj_style_gen.h ****     return (lv_coord_t)v.num;
 1859              		.loc 2 81 26 view .LVU607
 1860 01cc 0021     		movs	r1, #0
 1861 01ce 2846     		mov	r0, r5
 1862              	.LBE277:
 1863              	.LBE279:
 288:Drivers/lvgl/src/core/lv_indev_scroll.c ****             int32_t zoom_act = lv_obj_get_style_transform_zoom(parent, 0);
 1864              		.loc 1 288 19 view .LVU608
 1865 01d0 1FFA83F9 		uxth	r9, r3
 1866 01d4 1EB2     		sxth	r6, r3
 1867              	.LVL159:
 289:Drivers/lvgl/src/core/lv_indev_scroll.c ****             zoom = (zoom * zoom_act) >> 8;
 1868              		.loc 1 289 13 is_stmt 1 view .LVU609
 1869              	.LBB280:
 1870              	.LBI275:
  79:Drivers/lvgl/src/core/lv_obj_style_gen.h **** {
 1871              		.loc 2 79 26 view .LVU610
 1872              	.LBB278:
  81:Drivers/lvgl/src/core/lv_obj_style_gen.h ****     return (lv_coord_t)v.num;
 1873              		.loc 2 81 5 view .LVU611
  81:Drivers/lvgl/src/core/lv_obj_style_gen.h ****     return (lv_coord_t)v.num;
 1874              		.loc 2 81 26 is_stmt 0 view .LVU612
 1875 01d6 FFF7FEFF 		bl	lv_obj_get_style_prop
 1876              	.LVL160:
  82:Drivers/lvgl/src/core/lv_obj_style_gen.h **** }
 1877              		.loc 2 82 5 is_stmt 1 view .LVU613
  82:Drivers/lvgl/src/core/lv_obj_style_gen.h **** }
 1878              		.loc 2 82 12 is_stmt 0 view .LVU614
 1879 01da 00B2     		sxth	r0, r0
 1880              	.LVL161:
  82:Drivers/lvgl/src/core/lv_obj_style_gen.h **** }
 1881              		.loc 2 82 12 view .LVU615
 1882              	.LBE278:
 1883              	.LBE280:
 290:Drivers/lvgl/src/core/lv_indev_scroll.c ****             parent = lv_obj_get_parent(parent);
 1884              		.loc 1 290 13 is_stmt 1 view .LVU616
 290:Drivers/lvgl/src/core/lv_indev_scroll.c ****             parent = lv_obj_get_parent(parent);
 1885              		.loc 1 290 26 is_stmt 0 view .LVU617
 1886 01dc 08FB00F8 		mul	r8, r8, r0
 1887              	.LVL162:
 291:Drivers/lvgl/src/core/lv_indev_scroll.c ****         }
ARM GAS  /var/folders/0z/tsy30v1j4xl4_7kw94k978ww0000gn/T//cc5O5B9v.s 			page 60


 1888              		.loc 1 291 22 view .LVU618
 1889 01e0 2846     		mov	r0, r5
 1890              	.LVL163:
 291:Drivers/lvgl/src/core/lv_indev_scroll.c ****         }
 1891              		.loc 1 291 22 view .LVU619
 1892 01e2 FFF7FEFF 		bl	lv_obj_get_parent
 1893              	.LVL164:
 290:Drivers/lvgl/src/core/lv_indev_scroll.c ****             parent = lv_obj_get_parent(parent);
 1894              		.loc 1 290 18 view .LVU620
 1895 01e6 4FEA2828 		asr	r8, r8, #8
 1896              	.LVL165:
 291:Drivers/lvgl/src/core/lv_indev_scroll.c ****         }
 1897              		.loc 1 291 13 is_stmt 1 view .LVU621
 291:Drivers/lvgl/src/core/lv_indev_scroll.c ****         }
 1898              		.loc 1 291 13 is_stmt 0 view .LVU622
 1899              	.LBE272:
 287:Drivers/lvgl/src/core/lv_indev_scroll.c ****             angle += lv_obj_get_style_transform_angle(parent, 0);
 1900              		.loc 1 287 15 is_stmt 1 view .LVU623
 1901 01ea 0546     		mov	r5, r0
 1902 01ec 0028     		cmp	r0, #0
 1903 01ee E6D1     		bne	.L87
 294:Drivers/lvgl/src/core/lv_indev_scroll.c ****         if(angle != 0 || zoom != LV_IMG_ZOOM_NONE) {
 1904              		.loc 1 294 9 view .LVU624
 294:Drivers/lvgl/src/core/lv_indev_scroll.c ****         if(angle != 0 || zoom != LV_IMG_ZOOM_NONE) {
 1905              		.loc 1 294 20 is_stmt 0 view .LVU625
 1906 01f0 A369     		ldr	r3, [r4, #24]
 1907 01f2 0B93     		str	r3, [sp, #44]
 295:Drivers/lvgl/src/core/lv_indev_scroll.c ****             angle = -angle;
 1908              		.loc 1 295 9 is_stmt 1 view .LVU626
 295:Drivers/lvgl/src/core/lv_indev_scroll.c ****             angle = -angle;
 1909              		.loc 1 295 11 is_stmt 0 view .LVU627
 1910 01f4 16B9     		cbnz	r6, .L88
 295:Drivers/lvgl/src/core/lv_indev_scroll.c ****             angle = -angle;
 1911              		.loc 1 295 23 view .LVU628
 1912 01f6 B8F5807F 		cmp	r8, #256
 1913 01fa 0AD0     		beq	.L89
 1914              	.L88:
 296:Drivers/lvgl/src/core/lv_indev_scroll.c ****             zoom = (256 * 256) / zoom;
 1915              		.loc 1 296 13 is_stmt 1 view .LVU629
 1916              	.LVL166:
 297:Drivers/lvgl/src/core/lv_indev_scroll.c ****             lv_point_transform(&obj_scroll_sum, angle, zoom, &pivot);
 1917              		.loc 1 297 13 view .LVU630
 298:Drivers/lvgl/src/core/lv_indev_scroll.c ****         }
 1918              		.loc 1 298 13 view .LVU631
 296:Drivers/lvgl/src/core/lv_indev_scroll.c ****             zoom = (256 * 256) / zoom;
 1919              		.loc 1 296 19 is_stmt 0 view .LVU632
 1920 01fc C9F10001 		rsb	r1, r9, #0
 297:Drivers/lvgl/src/core/lv_indev_scroll.c ****             lv_point_transform(&obj_scroll_sum, angle, zoom, &pivot);
 1921              		.loc 1 297 18 view .LVU633
 1922 0200 4FF48032 		mov	r2, #65536
 298:Drivers/lvgl/src/core/lv_indev_scroll.c ****         }
 1923              		.loc 1 298 13 view .LVU634
 1924 0204 09B2     		sxth	r1, r1
 1925 0206 0AAB     		add	r3, sp, #40
 1926 0208 0BA8     		add	r0, sp, #44
 1927              	.LVL167:
 298:Drivers/lvgl/src/core/lv_indev_scroll.c ****         }
ARM GAS  /var/folders/0z/tsy30v1j4xl4_7kw94k978ww0000gn/T//cc5O5B9v.s 			page 61


 1928              		.loc 1 298 13 view .LVU635
 1929 020a 92FBF8F2 		sdiv	r2, r2, r8
 1930              	.LVL168:
 298:Drivers/lvgl/src/core/lv_indev_scroll.c ****         }
 1931              		.loc 1 298 13 view .LVU636
 1932 020e FFF7FEFF 		bl	lv_point_transform
 1933              	.LVL169:
 1934              	.L89:
 301:Drivers/lvgl/src/core/lv_indev_scroll.c ****             hor_en = true;
 1935              		.loc 1 301 9 is_stmt 1 view .LVU637
 301:Drivers/lvgl/src/core/lv_indev_scroll.c ****             hor_en = true;
 1936              		.loc 1 301 12 is_stmt 0 view .LVU638
 1937 0212 BDF92C20 		ldrsh	r2, [sp, #44]
 301:Drivers/lvgl/src/core/lv_indev_scroll.c ****             hor_en = true;
 1938              		.loc 1 301 39 view .LVU639
 1939 0216 BDF92E30 		ldrsh	r3, [sp, #46]
 301:Drivers/lvgl/src/core/lv_indev_scroll.c ****             hor_en = true;
 1940              		.loc 1 301 12 view .LVU640
 1941 021a 002A     		cmp	r2, #0
 1942 021c B8BF     		it	lt
 1943 021e 5242     		rsblt	r2, r2, #0
 301:Drivers/lvgl/src/core/lv_indev_scroll.c ****             hor_en = true;
 1944              		.loc 1 301 39 view .LVU641
 1945 0220 002B     		cmp	r3, #0
 1946 0222 B8BF     		it	lt
 1947 0224 5B42     		rsblt	r3, r3, #0
 301:Drivers/lvgl/src/core/lv_indev_scroll.c ****             hor_en = true;
 1948              		.loc 1 301 11 view .LVU642
 1949 0226 92B2     		uxth	r2, r2
 1950 0228 9BB2     		uxth	r3, r3
 305:Drivers/lvgl/src/core/lv_indev_scroll.c ****         }
 1951              		.loc 1 305 20 view .LVU643
 1952 022a 9A42     		cmp	r2, r3
 308:Drivers/lvgl/src/core/lv_indev_scroll.c ****             /*If this object don't want to chain the scroll to the parent stop searching*/
 1953              		.loc 1 308 12 view .LVU644
 1954 022c 4FF01001 		mov	r1, #16
 1955 0230 3846     		mov	r0, r7
 305:Drivers/lvgl/src/core/lv_indev_scroll.c ****         }
 1956              		.loc 1 305 20 view .LVU645
 1957 0232 94BF     		ite	ls
 1958 0234 4FF0010B 		movls	fp, #1
 1959              	.LVL170:
 305:Drivers/lvgl/src/core/lv_indev_scroll.c ****         }
 1960              		.loc 1 305 20 view .LVU646
 1961 0238 4FF0010A 		movhi	r10, #1
 1962              	.LVL171:
 308:Drivers/lvgl/src/core/lv_indev_scroll.c ****             /*If this object don't want to chain the scroll to the parent stop searching*/
 1963              		.loc 1 308 9 is_stmt 1 view .LVU647
 308:Drivers/lvgl/src/core/lv_indev_scroll.c ****             /*If this object don't want to chain the scroll to the parent stop searching*/
 1964              		.loc 1 308 12 is_stmt 0 view .LVU648
 1965 023c FFF7FEFF 		bl	lv_obj_has_flag
 1966              	.LVL172:
 308:Drivers/lvgl/src/core/lv_indev_scroll.c ****             /*If this object don't want to chain the scroll to the parent stop searching*/
 1967              		.loc 1 308 11 view .LVU649
 1968 0240 0028     		cmp	r0, #0
 1969 0242 40F08480 		bne	.L91
 310:Drivers/lvgl/src/core/lv_indev_scroll.c ****             if(lv_obj_has_flag(obj_act, LV_OBJ_FLAG_SCROLL_CHAIN_VER) == false && ver_en) break;
ARM GAS  /var/folders/0z/tsy30v1j4xl4_7kw94k978ww0000gn/T//cc5O5B9v.s 			page 62


 1970              		.loc 1 310 13 is_stmt 1 view .LVU650
 310:Drivers/lvgl/src/core/lv_indev_scroll.c ****             if(lv_obj_has_flag(obj_act, LV_OBJ_FLAG_SCROLL_CHAIN_VER) == false && ver_en) break;
 1971              		.loc 1 310 16 is_stmt 0 view .LVU651
 1972 0246 4FF48071 		mov	r1, #256
 1973 024a 3846     		mov	r0, r7
 1974 024c FFF7FEFF 		bl	lv_obj_has_flag
 1975              	.LVL173:
 310:Drivers/lvgl/src/core/lv_indev_scroll.c ****             if(lv_obj_has_flag(obj_act, LV_OBJ_FLAG_SCROLL_CHAIN_VER) == false && ver_en) break;
 1976              		.loc 1 310 15 view .LVU652
 1977 0250 10B9     		cbnz	r0, .L92
 310:Drivers/lvgl/src/core/lv_indev_scroll.c ****             if(lv_obj_has_flag(obj_act, LV_OBJ_FLAG_SCROLL_CHAIN_VER) == false && ver_en) break;
 1978              		.loc 1 310 80 view .LVU653
 1979 0252 BAF1000F 		cmp	r10, #0
 1980 0256 0BD1     		bne	.L208
 1981              	.L92:
 311:Drivers/lvgl/src/core/lv_indev_scroll.c **** 
 1982              		.loc 1 311 13 is_stmt 1 view .LVU654
 311:Drivers/lvgl/src/core/lv_indev_scroll.c **** 
 1983              		.loc 1 311 16 is_stmt 0 view .LVU655
 1984 0258 4FF40071 		mov	r1, #512
 1985 025c 3846     		mov	r0, r7
 1986 025e FFF7FEFF 		bl	lv_obj_has_flag
 1987              	.LVL174:
 311:Drivers/lvgl/src/core/lv_indev_scroll.c **** 
 1988              		.loc 1 311 15 view .LVU656
 1989 0262 0028     		cmp	r0, #0
 1990 0264 40F0FE80 		bne	.L117
 311:Drivers/lvgl/src/core/lv_indev_scroll.c **** 
 1991              		.loc 1 311 80 view .LVU657
 1992 0268 BBF1000F 		cmp	fp, #0
 1993 026c 00F0FA80 		beq	.L117
 1994              	.LVL175:
 1995              	.L208:
 311:Drivers/lvgl/src/core/lv_indev_scroll.c **** 
 1996              		.loc 1 311 80 view .LVU658
 1997 0270 18EE105A 		vmov	r5, s16	@ int
 1998              	.LVL176:
 1999              	.L118:
 311:Drivers/lvgl/src/core/lv_indev_scroll.c **** 
 2000              		.loc 1 311 80 view .LVU659
 2001              	.LBE281:
 377:Drivers/lvgl/src/core/lv_indev_scroll.c ****         proc->types.pointer.scroll_dir = dir_candidate;
 2002              		.loc 1 377 5 is_stmt 1 view .LVU660
 377:Drivers/lvgl/src/core/lv_indev_scroll.c ****         proc->types.pointer.scroll_dir = dir_candidate;
 2003              		.loc 1 377 7 is_stmt 0 view .LVU661
 2004 0274 002D     		cmp	r5, #0
 2005 0276 3FF458AF 		beq	.L82
 378:Drivers/lvgl/src/core/lv_indev_scroll.c ****         proc->types.pointer.scroll_obj = obj_candidate;
 2006              		.loc 1 378 9 is_stmt 1 view .LVU662
 378:Drivers/lvgl/src/core/lv_indev_scroll.c ****         proc->types.pointer.scroll_obj = obj_candidate;
 2007              		.loc 1 378 40 is_stmt 0 view .LVU663
 2008 027a 94F84030 		ldrb	r3, [r4, #64]	@ zero_extendqisi2
 2009 027e 049A     		ldr	r2, [sp, #16]
 379:Drivers/lvgl/src/core/lv_indev_scroll.c ****         proc->types.pointer.scroll_sum.x = 0;
 2010              		.loc 1 379 40 view .LVU664
 2011 0280 E562     		str	r5, [r4, #44]
 380:Drivers/lvgl/src/core/lv_indev_scroll.c ****         proc->types.pointer.scroll_sum.y = 0;
ARM GAS  /var/folders/0z/tsy30v1j4xl4_7kw94k978ww0000gn/T//cc5O5B9v.s 			page 63


 2012              		.loc 1 380 42 view .LVU665
 2013 0282 0026     		movs	r6, #0
 378:Drivers/lvgl/src/core/lv_indev_scroll.c ****         proc->types.pointer.scroll_obj = obj_candidate;
 2014              		.loc 1 378 40 view .LVU666
 2015 0284 62F30303 		bfi	r3, r2, #0, #4
 2016 0288 84F84030 		strb	r3, [r4, #64]
 379:Drivers/lvgl/src/core/lv_indev_scroll.c ****         proc->types.pointer.scroll_sum.x = 0;
 2017              		.loc 1 379 9 is_stmt 1 view .LVU667
 380:Drivers/lvgl/src/core/lv_indev_scroll.c ****         proc->types.pointer.scroll_sum.y = 0;
 2018              		.loc 1 380 9 view .LVU668
 381:Drivers/lvgl/src/core/lv_indev_scroll.c ****     }
 2019              		.loc 1 381 9 view .LVU669
 380:Drivers/lvgl/src/core/lv_indev_scroll.c ****         proc->types.pointer.scroll_sum.y = 0;
 2020              		.loc 1 380 42 is_stmt 0 view .LVU670
 2021 028c A661     		str	r6, [r4, #24]
 384:Drivers/lvgl/src/core/lv_indev_scroll.c **** }
 2022              		.loc 1 384 5 is_stmt 1 view .LVU671
 2023              	.LVL177:
 384:Drivers/lvgl/src/core/lv_indev_scroll.c **** }
 2024              		.loc 1 384 5 is_stmt 0 view .LVU672
 2025              	.LBE270:
 2026              	.LBE269:
  56:Drivers/lvgl/src/core/lv_indev_scroll.c **** 
 2027              		.loc 1 56 9 is_stmt 1 view .LVU673
  58:Drivers/lvgl/src/core/lv_indev_scroll.c **** 
 2028              		.loc 1 58 9 view .LVU674
 2029              	.LBB288:
 2030              	.LBI288:
 387:Drivers/lvgl/src/core/lv_indev_scroll.c **** {
 2031              		.loc 1 387 13 view .LVU675
 2032              	.LBB289:
 389:Drivers/lvgl/src/core/lv_indev_scroll.c ****     /*If there no STOP allow scrolling anywhere*/
 2033              		.loc 1 389 5 view .LVU676
 391:Drivers/lvgl/src/core/lv_indev_scroll.c ****         lv_area_set(&proc->types.pointer.scroll_area, LV_COORD_MIN, LV_COORD_MIN, LV_COORD_MAX, LV_
 2034              		.loc 1 391 5 view .LVU677
 391:Drivers/lvgl/src/core/lv_indev_scroll.c ****         lv_area_set(&proc->types.pointer.scroll_area, LV_COORD_MIN, LV_COORD_MIN, LV_COORD_MAX, LV_
 2035              		.loc 1 391 8 is_stmt 0 view .LVU678
 2036 028e 8021     		movs	r1, #128
 2037 0290 2846     		mov	r0, r5
 2038 0292 FFF7FEFF 		bl	lv_obj_has_flag
 2039              	.LVL178:
 391:Drivers/lvgl/src/core/lv_indev_scroll.c ****         lv_area_set(&proc->types.pointer.scroll_area, LV_COORD_MIN, LV_COORD_MIN, LV_COORD_MAX, LV_
 2040              		.loc 1 391 7 view .LVU679
 2041 0296 A8BB     		cbnz	r0, .L120
 392:Drivers/lvgl/src/core/lv_indev_scroll.c ****     }
 2042              		.loc 1 392 9 is_stmt 1 view .LVU680
 2043 0298 B74A     		ldr	r2, .L224
 2044 029a 41F6FF73 		movw	r3, #8191
 2045 029e 0093     		str	r3, [sp]
 2046 02a0 1146     		mov	r1, r2
 2047 02a2 04F13400 		add	r0, r4, #52
 2048 02a6 FFF7FEFF 		bl	lv_area_set
 2049              	.LVL179:
 2050              	.L121:
 440:Drivers/lvgl/src/core/lv_indev_scroll.c ****     if(proc->types.pointer.scroll_area.x2 == 0) proc->types.pointer.scroll_area.x2 = LV_COORD_MAX;
 2051              		.loc 1 440 5 view .LVU681
 440:Drivers/lvgl/src/core/lv_indev_scroll.c ****     if(proc->types.pointer.scroll_area.x2 == 0) proc->types.pointer.scroll_area.x2 = LV_COORD_MAX;
ARM GAS  /var/folders/0z/tsy30v1j4xl4_7kw94k978ww0000gn/T//cc5O5B9v.s 			page 64


 2052              		.loc 1 440 7 is_stmt 0 view .LVU682
 2053 02aa B4F93430 		ldrsh	r3, [r4, #52]
 2054 02ae 002B     		cmp	r3, #0
 2055 02b0 40F0E080 		bne	.L217
 440:Drivers/lvgl/src/core/lv_indev_scroll.c ****     if(proc->types.pointer.scroll_area.x2 == 0) proc->types.pointer.scroll_area.x2 = LV_COORD_MAX;
 2056              		.loc 1 440 49 is_stmt 1 view .LVU683
 440:Drivers/lvgl/src/core/lv_indev_scroll.c ****     if(proc->types.pointer.scroll_area.x2 == 0) proc->types.pointer.scroll_area.x2 = LV_COORD_MAX;
 2057              		.loc 1 440 84 is_stmt 0 view .LVU684
 2058 02b4 4EF20102 		movw	r2, #57345
 441:Drivers/lvgl/src/core/lv_indev_scroll.c ****     if(proc->types.pointer.scroll_area.y1 == 0) proc->types.pointer.scroll_area.y1 = LV_COORD_MIN;
 2059              		.loc 1 441 39 view .LVU685
 2060 02b8 B4F93830 		ldrsh	r3, [r4, #56]
 440:Drivers/lvgl/src/core/lv_indev_scroll.c ****     if(proc->types.pointer.scroll_area.x2 == 0) proc->types.pointer.scroll_area.x2 = LV_COORD_MAX;
 2061              		.loc 1 440 84 view .LVU686
 2062 02bc A286     		strh	r2, [r4, #52]	@ movhi
 2063              	.L131:
 441:Drivers/lvgl/src/core/lv_indev_scroll.c ****     if(proc->types.pointer.scroll_area.y1 == 0) proc->types.pointer.scroll_area.y1 = LV_COORD_MIN;
 2064              		.loc 1 441 5 is_stmt 1 view .LVU687
 441:Drivers/lvgl/src/core/lv_indev_scroll.c ****     if(proc->types.pointer.scroll_area.y1 == 0) proc->types.pointer.scroll_area.y1 = LV_COORD_MIN;
 2065              		.loc 1 441 7 is_stmt 0 view .LVU688
 2066 02be 13B9     		cbnz	r3, .L129
 441:Drivers/lvgl/src/core/lv_indev_scroll.c ****     if(proc->types.pointer.scroll_area.y1 == 0) proc->types.pointer.scroll_area.y1 = LV_COORD_MIN;
 2067              		.loc 1 441 49 is_stmt 1 view .LVU689
 441:Drivers/lvgl/src/core/lv_indev_scroll.c ****     if(proc->types.pointer.scroll_area.y1 == 0) proc->types.pointer.scroll_area.y1 = LV_COORD_MIN;
 2068              		.loc 1 441 84 is_stmt 0 view .LVU690
 2069 02c0 41F6FF73 		movw	r3, #8191
 2070 02c4 2387     		strh	r3, [r4, #56]	@ movhi
 2071              	.L129:
 442:Drivers/lvgl/src/core/lv_indev_scroll.c ****     if(proc->types.pointer.scroll_area.y2 == 0) proc->types.pointer.scroll_area.y2 = LV_COORD_MAX;
 2072              		.loc 1 442 5 is_stmt 1 view .LVU691
 442:Drivers/lvgl/src/core/lv_indev_scroll.c ****     if(proc->types.pointer.scroll_area.y2 == 0) proc->types.pointer.scroll_area.y2 = LV_COORD_MAX;
 2073              		.loc 1 442 7 is_stmt 0 view .LVU692
 2074 02c6 B4F93630 		ldrsh	r3, [r4, #54]
 2075 02ca 13B9     		cbnz	r3, .L132
 442:Drivers/lvgl/src/core/lv_indev_scroll.c ****     if(proc->types.pointer.scroll_area.y2 == 0) proc->types.pointer.scroll_area.y2 = LV_COORD_MAX;
 2076              		.loc 1 442 49 is_stmt 1 view .LVU693
 442:Drivers/lvgl/src/core/lv_indev_scroll.c ****     if(proc->types.pointer.scroll_area.y2 == 0) proc->types.pointer.scroll_area.y2 = LV_COORD_MAX;
 2077              		.loc 1 442 84 is_stmt 0 view .LVU694
 2078 02cc 4EF20103 		movw	r3, #57345
 2079 02d0 E386     		strh	r3, [r4, #54]	@ movhi
 2080              	.L132:
 443:Drivers/lvgl/src/core/lv_indev_scroll.c **** }
 2081              		.loc 1 443 5 is_stmt 1 view .LVU695
 443:Drivers/lvgl/src/core/lv_indev_scroll.c **** }
 2082              		.loc 1 443 7 is_stmt 0 view .LVU696
 2083 02d2 B4F93A30 		ldrsh	r3, [r4, #58]
 2084 02d6 13B9     		cbnz	r3, .L133
 443:Drivers/lvgl/src/core/lv_indev_scroll.c **** }
 2085              		.loc 1 443 49 is_stmt 1 view .LVU697
 443:Drivers/lvgl/src/core/lv_indev_scroll.c **** }
 2086              		.loc 1 443 84 is_stmt 0 view .LVU698
 2087 02d8 41F6FF73 		movw	r3, #8191
 2088 02dc 6387     		strh	r3, [r4, #58]	@ movhi
 2089              	.L133:
 2090              	.LVL180:
 443:Drivers/lvgl/src/core/lv_indev_scroll.c **** }
 2091              		.loc 1 443 84 view .LVU699
ARM GAS  /var/folders/0z/tsy30v1j4xl4_7kw94k978ww0000gn/T//cc5O5B9v.s 			page 65


 2092              	.LBE289:
 2093              	.LBE288:
  60:Drivers/lvgl/src/core/lv_indev_scroll.c ****         if(proc->reset_query) return;
 2094              		.loc 1 60 9 is_stmt 1 view .LVU700
 2095 02de 0921     		movs	r1, #9
 2096 02e0 0022     		movs	r2, #0
 2097 02e2 2846     		mov	r0, r5
 2098 02e4 FFF7FEFF 		bl	lv_event_send
 2099              	.LVL181:
  61:Drivers/lvgl/src/core/lv_indev_scroll.c ****     }
 2100              		.loc 1 61 9 view .LVU701
  61:Drivers/lvgl/src/core/lv_indev_scroll.c ****     }
 2101              		.loc 1 61 12 is_stmt 0 view .LVU702
 2102 02e8 6378     		ldrb	r3, [r4, #1]	@ zero_extendqisi2
  61:Drivers/lvgl/src/core/lv_indev_scroll.c ****     }
 2103              		.loc 1 61 11 view .LVU703
 2104 02ea 9907     		lsls	r1, r3, #30
 2105 02ec 3FF51DAF 		bmi	.L82
 2106 02f0 94E6     		b	.L85
 2107              	.LVL182:
 2108              	.L140:
  98:Drivers/lvgl/src/core/lv_indev_scroll.c ****     if((scroll_dir & LV_DIR_TOP)    == 0 && diff_y > 0) diff_y = 0;
 2109              		.loc 1 98 5 is_stmt 1 view .LVU704
  98:Drivers/lvgl/src/core/lv_indev_scroll.c ****     if((scroll_dir & LV_DIR_TOP)    == 0 && diff_y > 0) diff_y = 0;
 2110              		.loc 1 98 7 is_stmt 0 view .LVU705
 2111 02f2 10F00206 		ands	r6, r0, #2
 2112 02f6 40F08581 		bne	.L218
 2113 02fa 27EAE777 		bic	r7, r7, r7, asr #31
 2114              	.LVL183:
  98:Drivers/lvgl/src/core/lv_indev_scroll.c ****     if((scroll_dir & LV_DIR_TOP)    == 0 && diff_y > 0) diff_y = 0;
 2115              		.loc 1 98 7 view .LVU706
 2116 02fe 3FB2     		sxth	r7, r7
 2117              	.LVL184:
  99:Drivers/lvgl/src/core/lv_indev_scroll.c ****     if((scroll_dir & LV_DIR_BOTTOM) == 0 && diff_y < 0) diff_y = 0;
 2118              		.loc 1 99 5 is_stmt 1 discriminator 1 view .LVU707
 2119              	.LBB303:
 2120              	.LBB265:
 569:Drivers/lvgl/src/core/lv_indev_scroll.c ****             *diff_x = proc->types.pointer.scroll_area.x1 - proc->types.pointer.scroll_sum.x;
 2121              		.loc 1 569 47 is_stmt 0 discriminator 1 view .LVU708
 2122 0300 3B46     		mov	r3, r7
 2123 0302 DEE6     		b	.L142
 2124              	.LVL185:
 2125              	.L120:
 569:Drivers/lvgl/src/core/lv_indev_scroll.c ****             *diff_x = proc->types.pointer.scroll_area.x1 - proc->types.pointer.scroll_sum.x;
 2126              		.loc 1 569 47 discriminator 1 view .LVU709
 2127              	.LBE265:
 2128              	.LBE303:
 2129              	.LBB304:
 2130              	.LBB300:
 396:Drivers/lvgl/src/core/lv_indev_scroll.c ****             case LV_SCROLL_SNAP_START:
 2131              		.loc 1 396 9 is_stmt 1 view .LVU710
 396:Drivers/lvgl/src/core/lv_indev_scroll.c ****             case LV_SCROLL_SNAP_START:
 2132              		.loc 1 396 16 is_stmt 0 view .LVU711
 2133 0304 2846     		mov	r0, r5
 2134 0306 FFF7FEFF 		bl	lv_obj_get_scroll_snap_y
 2135              	.LVL186:
 396:Drivers/lvgl/src/core/lv_indev_scroll.c ****             case LV_SCROLL_SNAP_START:
ARM GAS  /var/folders/0z/tsy30v1j4xl4_7kw94k978ww0000gn/T//cc5O5B9v.s 			page 66


 2136              		.loc 1 396 9 view .LVU712
 2137 030a 0228     		cmp	r0, #2
 2138 030c 00F05281 		beq	.L122
 2139 0310 0328     		cmp	r0, #3
 2140 0312 00F03381 		beq	.L123
 2141 0316 0128     		cmp	r0, #1
 2142 0318 00F01A81 		beq	.L219
 412:Drivers/lvgl/src/core/lv_indev_scroll.c ****                 proc->types.pointer.scroll_area.y2 = LV_COORD_MAX;
 2143              		.loc 1 412 17 is_stmt 1 view .LVU713
 412:Drivers/lvgl/src/core/lv_indev_scroll.c ****                 proc->types.pointer.scroll_area.y2 = LV_COORD_MAX;
 2144              		.loc 1 412 52 is_stmt 0 view .LVU714
 2145 031c 4EF20103 		movw	r3, #57345
 2146 0320 E386     		strh	r3, [r4, #54]	@ movhi
 413:Drivers/lvgl/src/core/lv_indev_scroll.c ****                 break;
 2147              		.loc 1 413 17 is_stmt 1 view .LVU715
 414:Drivers/lvgl/src/core/lv_indev_scroll.c ****         }
 2148              		.loc 1 414 17 view .LVU716
 2149 0322 41F6FF70 		movw	r0, #8191
 2150              	.L125:
 399:Drivers/lvgl/src/core/lv_indev_scroll.c ****                 break;
 2151              		.loc 1 399 52 is_stmt 0 view .LVU717
 2152 0326 6087     		strh	r0, [r4, #58]	@ movhi
 417:Drivers/lvgl/src/core/lv_indev_scroll.c ****             case LV_SCROLL_SNAP_START:
 2153              		.loc 1 417 9 is_stmt 1 view .LVU718
 417:Drivers/lvgl/src/core/lv_indev_scroll.c ****             case LV_SCROLL_SNAP_START:
 2154              		.loc 1 417 16 is_stmt 0 view .LVU719
 2155 0328 2846     		mov	r0, r5
 2156 032a FFF7FEFF 		bl	lv_obj_get_scroll_snap_x
 2157              	.LVL187:
 417:Drivers/lvgl/src/core/lv_indev_scroll.c ****             case LV_SCROLL_SNAP_START:
 2158              		.loc 1 417 9 view .LVU720
 2159 032e 0228     		cmp	r0, #2
 2160 0330 00F00381 		beq	.L126
 2161 0334 0328     		cmp	r0, #3
 2162 0336 00F0E380 		beq	.L127
 2163 033a 0128     		cmp	r0, #1
 2164 033c 00F0CE80 		beq	.L220
 433:Drivers/lvgl/src/core/lv_indev_scroll.c ****                 proc->types.pointer.scroll_area.x2 = LV_COORD_MAX;
 2165              		.loc 1 433 17 is_stmt 1 view .LVU721
 433:Drivers/lvgl/src/core/lv_indev_scroll.c ****                 proc->types.pointer.scroll_area.x2 = LV_COORD_MAX;
 2166              		.loc 1 433 52 is_stmt 0 view .LVU722
 2167 0340 4EF20102 		movw	r2, #57345
 434:Drivers/lvgl/src/core/lv_indev_scroll.c ****                 break;
 2168              		.loc 1 434 52 view .LVU723
 2169 0344 41F6FF73 		movw	r3, #8191
 433:Drivers/lvgl/src/core/lv_indev_scroll.c ****                 proc->types.pointer.scroll_area.x2 = LV_COORD_MAX;
 2170              		.loc 1 433 52 view .LVU724
 2171 0348 A286     		strh	r2, [r4, #52]	@ movhi
 434:Drivers/lvgl/src/core/lv_indev_scroll.c ****                 break;
 2172              		.loc 1 434 17 is_stmt 1 view .LVU725
 434:Drivers/lvgl/src/core/lv_indev_scroll.c ****                 break;
 2173              		.loc 1 434 52 is_stmt 0 view .LVU726
 2174 034a 2387     		strh	r3, [r4, #56]	@ movhi
 435:Drivers/lvgl/src/core/lv_indev_scroll.c ****         }
 2175              		.loc 1 435 17 is_stmt 1 view .LVU727
 440:Drivers/lvgl/src/core/lv_indev_scroll.c ****     if(proc->types.pointer.scroll_area.x2 == 0) proc->types.pointer.scroll_area.x2 = LV_COORD_MAX;
 2176              		.loc 1 440 5 view .LVU728
ARM GAS  /var/folders/0z/tsy30v1j4xl4_7kw94k978ww0000gn/T//cc5O5B9v.s 			page 67


 441:Drivers/lvgl/src/core/lv_indev_scroll.c ****     if(proc->types.pointer.scroll_area.y1 == 0) proc->types.pointer.scroll_area.y1 = LV_COORD_MIN;
 2177              		.loc 1 441 5 view .LVU729
 2178 034c BBE7     		b	.L129
 2179              	.LVL188:
 2180              	.L91:
 441:Drivers/lvgl/src/core/lv_indev_scroll.c ****     if(proc->types.pointer.scroll_area.y1 == 0) proc->types.pointer.scroll_area.y1 = LV_COORD_MIN;
 2181              		.loc 1 441 5 is_stmt 0 view .LVU730
 2182              	.LBE300:
 2183              	.LBE304:
 2184              	.LBB305:
 2185              	.LBB285:
 2186              	.LBB282:
 318:Drivers/lvgl/src/core/lv_indev_scroll.c ****         bool down_en = ver_en;
 2187              		.loc 1 318 9 is_stmt 1 view .LVU731
 319:Drivers/lvgl/src/core/lv_indev_scroll.c ****         bool left_en = hor_en;
 2188              		.loc 1 319 9 view .LVU732
 320:Drivers/lvgl/src/core/lv_indev_scroll.c ****         bool right_en = hor_en;
 2189              		.loc 1 320 9 view .LVU733
 321:Drivers/lvgl/src/core/lv_indev_scroll.c **** 
 2190              		.loc 1 321 9 view .LVU734
 324:Drivers/lvgl/src/core/lv_indev_scroll.c ****         if((scroll_dir & LV_DIR_LEFT) == 0) left_en = false;
 2191              		.loc 1 324 9 view .LVU735
 324:Drivers/lvgl/src/core/lv_indev_scroll.c ****         if((scroll_dir & LV_DIR_LEFT) == 0) left_en = false;
 2192              		.loc 1 324 31 is_stmt 0 view .LVU736
 2193 034e 3846     		mov	r0, r7
 2194 0350 FFF7FEFF 		bl	lv_obj_get_scroll_dir
 2195              	.LVL189:
 325:Drivers/lvgl/src/core/lv_indev_scroll.c ****         if((scroll_dir & LV_DIR_RIGHT) == 0) right_en = false;
 2196              		.loc 1 325 9 is_stmt 1 view .LVU737
 325:Drivers/lvgl/src/core/lv_indev_scroll.c ****         if((scroll_dir & LV_DIR_RIGHT) == 0) right_en = false;
 2197              		.loc 1 325 53 is_stmt 0 view .LVU738
 2198 0354 10F0010F 		tst	r0, #1
 2199 0358 14BF     		ite	ne
 2200 035a 5246     		movne	r2, r10
 2201 035c 0022     		moveq	r2, #0
 326:Drivers/lvgl/src/core/lv_indev_scroll.c ****         if((scroll_dir & LV_DIR_TOP) == 0) up_en = false;
 2202              		.loc 1 326 55 view .LVU739
 2203 035e 10F0020F 		tst	r0, #2
 2204 0362 14BF     		ite	ne
 2205 0364 5346     		movne	r3, r10
 2206 0366 0023     		moveq	r3, #0
 327:Drivers/lvgl/src/core/lv_indev_scroll.c ****         if((scroll_dir & LV_DIR_BOTTOM) == 0) down_en = false;
 2207              		.loc 1 327 50 view .LVU740
 2208 0368 10F0040F 		tst	r0, #4
 2209 036c 14BF     		ite	ne
 2210 036e D946     		movne	r9, fp
 2211 0370 4FF00009 		moveq	r9, #0
 328:Drivers/lvgl/src/core/lv_indev_scroll.c **** 
 2212              		.loc 1 328 55 view .LVU741
 2213 0374 10F0080F 		tst	r0, #8
 331:Drivers/lvgl/src/core/lv_indev_scroll.c ****         lv_coord_t sb = lv_obj_get_scroll_bottom(obj_act);
 2214              		.loc 1 331 25 view .LVU742
 2215 0378 3846     		mov	r0, r7
 2216              	.LVL190:
 325:Drivers/lvgl/src/core/lv_indev_scroll.c ****         if((scroll_dir & LV_DIR_RIGHT) == 0) right_en = false;
 2217              		.loc 1 325 53 view .LVU743
 2218 037a 0992     		str	r2, [sp, #36]
ARM GAS  /var/folders/0z/tsy30v1j4xl4_7kw94k978ww0000gn/T//cc5O5B9v.s 			page 68


 2219              	.LVL191:
 326:Drivers/lvgl/src/core/lv_indev_scroll.c ****         if((scroll_dir & LV_DIR_TOP) == 0) up_en = false;
 2220              		.loc 1 326 9 is_stmt 1 view .LVU744
 326:Drivers/lvgl/src/core/lv_indev_scroll.c ****         if((scroll_dir & LV_DIR_TOP) == 0) up_en = false;
 2221              		.loc 1 326 55 is_stmt 0 view .LVU745
 2222 037c 0793     		str	r3, [sp, #28]
 2223              	.LVL192:
 327:Drivers/lvgl/src/core/lv_indev_scroll.c ****         if((scroll_dir & LV_DIR_BOTTOM) == 0) down_en = false;
 2224              		.loc 1 327 9 is_stmt 1 view .LVU746
 328:Drivers/lvgl/src/core/lv_indev_scroll.c **** 
 2225              		.loc 1 328 9 view .LVU747
 328:Drivers/lvgl/src/core/lv_indev_scroll.c **** 
 2226              		.loc 1 328 55 is_stmt 0 view .LVU748
 2227 037e 14BF     		ite	ne
 2228 0380 5D46     		movne	r5, fp
 2229              	.LVL193:
 328:Drivers/lvgl/src/core/lv_indev_scroll.c **** 
 2230              		.loc 1 328 55 view .LVU749
 2231 0382 0025     		moveq	r5, #0
 2232              	.LVL194:
 331:Drivers/lvgl/src/core/lv_indev_scroll.c ****         lv_coord_t sb = lv_obj_get_scroll_bottom(obj_act);
 2233              		.loc 1 331 9 is_stmt 1 view .LVU750
 331:Drivers/lvgl/src/core/lv_indev_scroll.c ****         lv_coord_t sb = lv_obj_get_scroll_bottom(obj_act);
 2234              		.loc 1 331 25 is_stmt 0 view .LVU751
 2235 0384 FFF7FEFF 		bl	lv_obj_get_scroll_top
 2236              	.LVL195:
 2237 0388 8046     		mov	r8, r0
 2238              	.LVL196:
 332:Drivers/lvgl/src/core/lv_indev_scroll.c ****         lv_coord_t sl = lv_obj_get_scroll_left(obj_act);
 2239              		.loc 1 332 9 is_stmt 1 view .LVU752
 332:Drivers/lvgl/src/core/lv_indev_scroll.c ****         lv_coord_t sl = lv_obj_get_scroll_left(obj_act);
 2240              		.loc 1 332 25 is_stmt 0 view .LVU753
 2241 038a 3846     		mov	r0, r7
 2242 038c FFF7FEFF 		bl	lv_obj_get_scroll_bottom
 2243              	.LVL197:
 2244 0390 0890     		str	r0, [sp, #32]
 2245              	.LVL198:
 333:Drivers/lvgl/src/core/lv_indev_scroll.c ****         lv_coord_t sr = lv_obj_get_scroll_right(obj_act);
 2246              		.loc 1 333 9 is_stmt 1 view .LVU754
 333:Drivers/lvgl/src/core/lv_indev_scroll.c ****         lv_coord_t sr = lv_obj_get_scroll_right(obj_act);
 2247              		.loc 1 333 25 is_stmt 0 view .LVU755
 2248 0392 3846     		mov	r0, r7
 2249 0394 FFF7FEFF 		bl	lv_obj_get_scroll_left
 2250              	.LVL199:
 2251 0398 0646     		mov	r6, r0
 2252              	.LVL200:
 334:Drivers/lvgl/src/core/lv_indev_scroll.c **** 
 2253              		.loc 1 334 9 is_stmt 1 view .LVU756
 334:Drivers/lvgl/src/core/lv_indev_scroll.c **** 
 2254              		.loc 1 334 25 is_stmt 0 view .LVU757
 2255 039a 3846     		mov	r0, r7
 2256 039c FFF7FEFF 		bl	lv_obj_get_scroll_right
 2257              	.LVL201:
 340:Drivers/lvgl/src/core/lv_indev_scroll.c ****            ((up_en    && obj_scroll_sum.y >=   scroll_limit) ||
 2258              		.loc 1 340 11 view .LVU758
 2259 03a0 B8F1000F 		cmp	r8, #0
 2260 03a4 DDE90832 		ldrd	r3, r2, [sp, #32]
ARM GAS  /var/folders/0z/tsy30v1j4xl4_7kw94k978ww0000gn/T//cc5O5B9v.s 			page 69


 334:Drivers/lvgl/src/core/lv_indev_scroll.c **** 
 2261              		.loc 1 334 25 view .LVU759
 2262 03a8 0690     		str	r0, [sp, #24]
 2263              	.LVL202:
 340:Drivers/lvgl/src/core/lv_indev_scroll.c ****            ((up_en    && obj_scroll_sum.y >=   scroll_limit) ||
 2264              		.loc 1 340 9 is_stmt 1 view .LVU760
 340:Drivers/lvgl/src/core/lv_indev_scroll.c ****            ((up_en    && obj_scroll_sum.y >=   scroll_limit) ||
 2265              		.loc 1 340 11 is_stmt 0 view .LVU761
 2266 03aa 6ADD     		ble	.L221
 2267              	.L100:
 340:Drivers/lvgl/src/core/lv_indev_scroll.c ****            ((up_en    && obj_scroll_sum.y >=   scroll_limit) ||
 2268              		.loc 1 340 32 view .LVU762
 2269 03ac B9F1000F 		cmp	r9, #0
 2270 03b0 7ED0     		beq	.L102
 341:Drivers/lvgl/src/core/lv_indev_scroll.c ****             (down_en  && obj_scroll_sum.y <= - scroll_limit))) {
 2271              		.loc 1 341 23 view .LVU763
 2272 03b2 BDF92E10 		ldrsh	r1, [sp, #46]
 2273 03b6 0598     		ldr	r0, [sp, #20]
 2274 03b8 8142     		cmp	r1, r0
 2275 03ba 79DB     		blt	.L102
 344:Drivers/lvgl/src/core/lv_indev_scroll.c ****         }
 2276              		.loc 1 344 27 view .LVU764
 2277 03bc 0C21     		movs	r1, #12
 2278 03be 08EE107A 		vmov	s16, r7	@ int
 2279              	.LVL203:
 344:Drivers/lvgl/src/core/lv_indev_scroll.c ****         }
 2280              		.loc 1 344 27 view .LVU765
 2281 03c2 0491     		str	r1, [sp, #16]
 2282              	.LVL204:
 2283              	.L101:
 347:Drivers/lvgl/src/core/lv_indev_scroll.c ****            ((left_en   && obj_scroll_sum.x >=   scroll_limit) ||
 2284              		.loc 1 347 9 is_stmt 1 view .LVU766
 347:Drivers/lvgl/src/core/lv_indev_scroll.c ****            ((left_en   && obj_scroll_sum.x >=   scroll_limit) ||
 2285              		.loc 1 347 11 is_stmt 0 view .LVU767
 2286 03c4 002E     		cmp	r6, #0
 2287 03c6 58DD     		ble	.L222
 2288              	.L103:
 347:Drivers/lvgl/src/core/lv_indev_scroll.c ****            ((left_en   && obj_scroll_sum.x >=   scroll_limit) ||
 2289              		.loc 1 347 32 view .LVU768
 2290 03c8 002A     		cmp	r2, #0
 2291 03ca 5DD0     		beq	.L105
 348:Drivers/lvgl/src/core/lv_indev_scroll.c ****             (right_en  && obj_scroll_sum.x <= - scroll_limit))) {
 2292              		.loc 1 348 24 view .LVU769
 2293 03cc BDF92C10 		ldrsh	r1, [sp, #44]
 2294 03d0 0598     		ldr	r0, [sp, #20]
 2295 03d2 8142     		cmp	r1, r0
 2296 03d4 58DB     		blt	.L105
 351:Drivers/lvgl/src/core/lv_indev_scroll.c ****         }
 2297              		.loc 1 351 27 view .LVU770
 2298 03d6 0321     		movs	r1, #3
 2299 03d8 08EE107A 		vmov	s16, r7	@ int
 2300              	.LVL205:
 351:Drivers/lvgl/src/core/lv_indev_scroll.c ****         }
 2301              		.loc 1 351 27 view .LVU771
 2302 03dc 0491     		str	r1, [sp, #16]
 2303              	.LVL206:
 2304              	.L104:
ARM GAS  /var/folders/0z/tsy30v1j4xl4_7kw94k978ww0000gn/T//cc5O5B9v.s 			page 70


 354:Drivers/lvgl/src/core/lv_indev_scroll.c ****         if(sb <= 0) down_en = false;
 2305              		.loc 1 354 9 is_stmt 1 view .LVU772
 354:Drivers/lvgl/src/core/lv_indev_scroll.c ****         if(sb <= 0) down_en = false;
 2306              		.loc 1 354 27 is_stmt 0 view .LVU773
 2307 03de B8F1000F 		cmp	r8, #0
 2308 03e2 D8BF     		it	le
 2309 03e4 4FF00009 		movle	r9, #0
 2310              	.LVL207:
 355:Drivers/lvgl/src/core/lv_indev_scroll.c ****         if(sl <= 0) left_en = false;
 2311              		.loc 1 355 9 is_stmt 1 view .LVU774
 355:Drivers/lvgl/src/core/lv_indev_scroll.c ****         if(sl <= 0) left_en = false;
 2312              		.loc 1 355 29 is_stmt 0 view .LVU775
 2313 03e8 002B     		cmp	r3, #0
 2314 03ea D8BF     		it	le
 2315 03ec 0025     		movle	r5, #0
 2316              	.LVL208:
 356:Drivers/lvgl/src/core/lv_indev_scroll.c ****         if(sr <= 0) right_en = false;
 2317              		.loc 1 356 9 is_stmt 1 view .LVU776
 356:Drivers/lvgl/src/core/lv_indev_scroll.c ****         if(sr <= 0) right_en = false;
 2318              		.loc 1 356 11 is_stmt 0 view .LVU777
 2319 03ee 002E     		cmp	r6, #0
 357:Drivers/lvgl/src/core/lv_indev_scroll.c **** 
 2320              		.loc 1 357 11 view .LVU778
 2321 03f0 069B     		ldr	r3, [sp, #24]
 356:Drivers/lvgl/src/core/lv_indev_scroll.c ****         if(sr <= 0) right_en = false;
 2322              		.loc 1 356 11 view .LVU779
 2323 03f2 70DD     		ble	.L223
 2324              	.LVL209:
 357:Drivers/lvgl/src/core/lv_indev_scroll.c **** 
 2325              		.loc 1 357 9 is_stmt 1 view .LVU780
 357:Drivers/lvgl/src/core/lv_indev_scroll.c **** 
 2326              		.loc 1 357 11 is_stmt 0 view .LVU781
 2327 03f4 002B     		cmp	r3, #0
 2328 03f6 40F3EE80 		ble	.L111
 360:Drivers/lvgl/src/core/lv_indev_scroll.c ****            (right_en && obj_scroll_sum.x <= - scroll_limit) ||
 2329              		.loc 1 360 9 is_stmt 1 view .LVU782
 360:Drivers/lvgl/src/core/lv_indev_scroll.c ****            (right_en && obj_scroll_sum.x <= - scroll_limit) ||
 2330              		.loc 1 360 11 is_stmt 0 view .LVU783
 2331 03fa 2AB1     		cbz	r2, .L110
 360:Drivers/lvgl/src/core/lv_indev_scroll.c ****            (right_en && obj_scroll_sum.x <= - scroll_limit) ||
 2332              		.loc 1 360 22 view .LVU784
 2333 03fc BDF92C20 		ldrsh	r2, [sp, #44]
 2334              	.LVL210:
 360:Drivers/lvgl/src/core/lv_indev_scroll.c ****            (right_en && obj_scroll_sum.x <= - scroll_limit) ||
 2335              		.loc 1 360 22 view .LVU785
 2336 0400 059B     		ldr	r3, [sp, #20]
 2337 0402 9A42     		cmp	r2, r3
 2338 0404 80F2F080 		bge	.L206
 2339              	.L110:
 2340              	.LVL211:
 360:Drivers/lvgl/src/core/lv_indev_scroll.c ****            (right_en && obj_scroll_sum.x <= - scroll_limit) ||
 2341              		.loc 1 360 61 view .LVU786
 2342 0408 079B     		ldr	r3, [sp, #28]
 2343 040a 33B1     		cbz	r3, .L109
 361:Drivers/lvgl/src/core/lv_indev_scroll.c ****            (up_en    && obj_scroll_sum.y >=   scroll_limit) ||
 2344              		.loc 1 361 45 view .LVU787
 2345 040c 039B     		ldr	r3, [sp, #12]
ARM GAS  /var/folders/0z/tsy30v1j4xl4_7kw94k978ww0000gn/T//cc5O5B9v.s 			page 71


 361:Drivers/lvgl/src/core/lv_indev_scroll.c ****            (up_en    && obj_scroll_sum.y >=   scroll_limit) ||
 2346              		.loc 1 361 39 view .LVU788
 2347 040e BDF92C10 		ldrsh	r1, [sp, #44]
 361:Drivers/lvgl/src/core/lv_indev_scroll.c ****            (up_en    && obj_scroll_sum.y >=   scroll_limit) ||
 2348              		.loc 1 361 45 view .LVU789
 2349 0412 5A42     		rsbs	r2, r3, #0
 361:Drivers/lvgl/src/core/lv_indev_scroll.c ****            (up_en    && obj_scroll_sum.y >=   scroll_limit) ||
 2350              		.loc 1 361 22 view .LVU790
 2351 0414 9142     		cmp	r1, r2
 2352 0416 40F3E780 		ble	.L206
 2353              	.L109:
 361:Drivers/lvgl/src/core/lv_indev_scroll.c ****            (up_en    && obj_scroll_sum.y >=   scroll_limit) ||
 2354              		.loc 1 361 61 view .LVU791
 2355 041a B9F1000F 		cmp	r9, #0
 2356 041e 05D0     		beq	.L113
 362:Drivers/lvgl/src/core/lv_indev_scroll.c ****            (down_en  && obj_scroll_sum.y <= - scroll_limit)) {
 2357              		.loc 1 362 22 view .LVU792
 2358 0420 BDF92E20 		ldrsh	r2, [sp, #46]
 2359 0424 059B     		ldr	r3, [sp, #20]
 2360 0426 9A42     		cmp	r2, r3
 2361 0428 80F2DE80 		bge	.L206
 2362              	.L113:
 362:Drivers/lvgl/src/core/lv_indev_scroll.c ****            (down_en  && obj_scroll_sum.y <= - scroll_limit)) {
 2363              		.loc 1 362 61 view .LVU793
 2364 042c 35B1     		cbz	r5, .L114
 363:Drivers/lvgl/src/core/lv_indev_scroll.c ****             proc->types.pointer.scroll_dir = hor_en ? LV_DIR_HOR : LV_DIR_VER;
 2365              		.loc 1 363 45 view .LVU794
 2366 042e 039B     		ldr	r3, [sp, #12]
 363:Drivers/lvgl/src/core/lv_indev_scroll.c ****             proc->types.pointer.scroll_dir = hor_en ? LV_DIR_HOR : LV_DIR_VER;
 2367              		.loc 1 363 39 view .LVU795
 2368 0430 BDF92E20 		ldrsh	r2, [sp, #46]
 363:Drivers/lvgl/src/core/lv_indev_scroll.c ****             proc->types.pointer.scroll_dir = hor_en ? LV_DIR_HOR : LV_DIR_VER;
 2369              		.loc 1 363 45 view .LVU796
 2370 0434 5B42     		rsbs	r3, r3, #0
 363:Drivers/lvgl/src/core/lv_indev_scroll.c ****             proc->types.pointer.scroll_dir = hor_en ? LV_DIR_HOR : LV_DIR_VER;
 2371              		.loc 1 363 22 view .LVU797
 2372 0436 9A42     		cmp	r2, r3
 2373 0438 40F3D680 		ble	.L206
 2374              	.L114:
 369:Drivers/lvgl/src/core/lv_indev_scroll.c ****         if(lv_obj_has_flag(obj_act, LV_OBJ_FLAG_SCROLL_CHAIN_VER) == false && ver_en) break;
 2375              		.loc 1 369 9 is_stmt 1 view .LVU798
 369:Drivers/lvgl/src/core/lv_indev_scroll.c ****         if(lv_obj_has_flag(obj_act, LV_OBJ_FLAG_SCROLL_CHAIN_VER) == false && ver_en) break;
 2376              		.loc 1 369 12 is_stmt 0 view .LVU799
 2377 043c 4FF48071 		mov	r1, #256
 2378 0440 3846     		mov	r0, r7
 2379 0442 FFF7FEFF 		bl	lv_obj_has_flag
 2380              	.LVL212:
 369:Drivers/lvgl/src/core/lv_indev_scroll.c ****         if(lv_obj_has_flag(obj_act, LV_OBJ_FLAG_SCROLL_CHAIN_VER) == false && ver_en) break;
 2381              		.loc 1 369 11 view .LVU800
 2382 0446 18B9     		cbnz	r0, .L116
 369:Drivers/lvgl/src/core/lv_indev_scroll.c ****         if(lv_obj_has_flag(obj_act, LV_OBJ_FLAG_SCROLL_CHAIN_VER) == false && ver_en) break;
 2383              		.loc 1 369 76 view .LVU801
 2384 0448 BAF1000F 		cmp	r10, #0
 2385 044c 7FF410AF 		bne	.L208
 2386              	.L116:
 370:Drivers/lvgl/src/core/lv_indev_scroll.c **** 
 2387              		.loc 1 370 9 is_stmt 1 view .LVU802
ARM GAS  /var/folders/0z/tsy30v1j4xl4_7kw94k978ww0000gn/T//cc5O5B9v.s 			page 72


 370:Drivers/lvgl/src/core/lv_indev_scroll.c **** 
 2388              		.loc 1 370 12 is_stmt 0 view .LVU803
 2389 0450 4FF40071 		mov	r1, #512
 2390 0454 3846     		mov	r0, r7
 2391 0456 FFF7FEFF 		bl	lv_obj_has_flag
 2392              	.LVL213:
 370:Drivers/lvgl/src/core/lv_indev_scroll.c **** 
 2393              		.loc 1 370 11 view .LVU804
 2394 045a 18B9     		cbnz	r0, .L117
 370:Drivers/lvgl/src/core/lv_indev_scroll.c **** 
 2395              		.loc 1 370 76 view .LVU805
 2396 045c BBF1000F 		cmp	fp, #0
 2397 0460 7FF406AF 		bne	.L208
 2398              	.LVL214:
 2399              	.L117:
 373:Drivers/lvgl/src/core/lv_indev_scroll.c ****     }
 2400              		.loc 1 373 9 is_stmt 1 view .LVU806
 373:Drivers/lvgl/src/core/lv_indev_scroll.c ****     }
 2401              		.loc 1 373 19 is_stmt 0 view .LVU807
 2402 0464 3846     		mov	r0, r7
 2403 0466 FFF7FEFF 		bl	lv_obj_get_parent
 2404              	.LVL215:
 2405 046a 0746     		mov	r7, r0
 2406              	.LVL216:
 373:Drivers/lvgl/src/core/lv_indev_scroll.c ****     }
 2407              		.loc 1 373 19 view .LVU808
 2408              	.LBE282:
 281:Drivers/lvgl/src/core/lv_indev_scroll.c ****         /*Get the transformed scroll_sum with this object*/
 2409              		.loc 1 281 11 is_stmt 1 view .LVU809
 2410 046c 0028     		cmp	r0, #0
 2411 046e 3FF4FFAE 		beq	.L208
 281:Drivers/lvgl/src/core/lv_indev_scroll.c ****         /*Get the transformed scroll_sum with this object*/
 2412              		.loc 1 281 11 is_stmt 0 view .LVU810
 2413 0472 9EE6     		b	.L119
 2414              	.LVL217:
 2415              	.L217:
 281:Drivers/lvgl/src/core/lv_indev_scroll.c ****         /*Get the transformed scroll_sum with this object*/
 2416              		.loc 1 281 11 view .LVU811
 2417              	.LBE285:
 2418              	.LBE305:
 2419              	.LBB306:
 2420              	.LBB301:
 441:Drivers/lvgl/src/core/lv_indev_scroll.c ****     if(proc->types.pointer.scroll_area.y1 == 0) proc->types.pointer.scroll_area.y1 = LV_COORD_MIN;
 2421              		.loc 1 441 39 view .LVU812
 2422 0474 B4F93830 		ldrsh	r3, [r4, #56]
 2423 0478 21E7     		b	.L131
 2424              	.LVL218:
 2425              	.L222:
 441:Drivers/lvgl/src/core/lv_indev_scroll.c ****     if(proc->types.pointer.scroll_area.y1 == 0) proc->types.pointer.scroll_area.y1 = LV_COORD_MIN;
 2426              		.loc 1 441 39 view .LVU813
 2427              	.LBE301:
 2428              	.LBE306:
 2429              	.LBB307:
 2430              	.LBB286:
 2431              	.LBB283:
 347:Drivers/lvgl/src/core/lv_indev_scroll.c ****            ((left_en   && obj_scroll_sum.x >=   scroll_limit) ||
 2432              		.loc 1 347 20 view .LVU814
ARM GAS  /var/folders/0z/tsy30v1j4xl4_7kw94k978ww0000gn/T//cc5O5B9v.s 			page 73


 2433 047a 0699     		ldr	r1, [sp, #24]
 2434 047c 0029     		cmp	r1, #0
 2435 047e A3DC     		bgt	.L103
 2436 0480 ADE7     		b	.L104
 2437              	.L221:
 340:Drivers/lvgl/src/core/lv_indev_scroll.c ****            ((up_en    && obj_scroll_sum.y >=   scroll_limit) ||
 2438              		.loc 1 340 20 view .LVU815
 2439 0482 002B     		cmp	r3, #0
 2440 0484 92DC     		bgt	.L100
 2441 0486 9DE7     		b	.L101
 2442              	.L105:
 348:Drivers/lvgl/src/core/lv_indev_scroll.c ****             (right_en  && obj_scroll_sum.x <= - scroll_limit))) {
 2443              		.loc 1 348 63 view .LVU816
 2444 0488 0799     		ldr	r1, [sp, #28]
 2445 048a 0029     		cmp	r1, #0
 2446 048c A7D0     		beq	.L104
 349:Drivers/lvgl/src/core/lv_indev_scroll.c ****             obj_candidate = obj_act;
 2447              		.loc 1 349 47 view .LVU817
 2448 048e 0399     		ldr	r1, [sp, #12]
 349:Drivers/lvgl/src/core/lv_indev_scroll.c ****             obj_candidate = obj_act;
 2449              		.loc 1 349 41 view .LVU818
 2450 0490 BDF92CE0 		ldrsh	lr, [sp, #44]
 349:Drivers/lvgl/src/core/lv_indev_scroll.c ****             obj_candidate = obj_act;
 2451              		.loc 1 349 47 view .LVU819
 2452 0494 C1F1000C 		rsb	ip, r1, #0
 349:Drivers/lvgl/src/core/lv_indev_scroll.c ****             obj_candidate = obj_act;
 2453              		.loc 1 349 24 view .LVU820
 2454 0498 E645     		cmp	lr, ip
 2455 049a 18EE101A 		vmov	r1, s16	@ int
 2456 049e D8BF     		it	le
 2457 04a0 3946     		movle	r1, r7
 2458 04a2 08EE101A 		vmov	s16, r1	@ int
 2459              	.LVL219:
 349:Drivers/lvgl/src/core/lv_indev_scroll.c ****             obj_candidate = obj_act;
 2460              		.loc 1 349 24 view .LVU821
 2461 04a6 0499     		ldr	r1, [sp, #16]
 2462 04a8 D8BF     		it	le
 2463 04aa 0321     		movle	r1, #3
 2464 04ac 0491     		str	r1, [sp, #16]
 2465              	.LVL220:
 349:Drivers/lvgl/src/core/lv_indev_scroll.c ****             obj_candidate = obj_act;
 2466              		.loc 1 349 24 view .LVU822
 2467 04ae 96E7     		b	.L104
 2468              	.LVL221:
 2469              	.L102:
 341:Drivers/lvgl/src/core/lv_indev_scroll.c ****             (down_en  && obj_scroll_sum.y <= - scroll_limit))) {
 2470              		.loc 1 341 62 view .LVU823
 2471 04b0 002D     		cmp	r5, #0
 2472 04b2 87D0     		beq	.L101
 342:Drivers/lvgl/src/core/lv_indev_scroll.c ****             obj_candidate = obj_act;
 2473              		.loc 1 342 46 view .LVU824
 2474 04b4 0399     		ldr	r1, [sp, #12]
 342:Drivers/lvgl/src/core/lv_indev_scroll.c ****             obj_candidate = obj_act;
 2475              		.loc 1 342 40 view .LVU825
 2476 04b6 BDF92EE0 		ldrsh	lr, [sp, #46]
 342:Drivers/lvgl/src/core/lv_indev_scroll.c ****             obj_candidate = obj_act;
 2477              		.loc 1 342 46 view .LVU826
ARM GAS  /var/folders/0z/tsy30v1j4xl4_7kw94k978ww0000gn/T//cc5O5B9v.s 			page 74


 2478 04ba C1F1000C 		rsb	ip, r1, #0
 342:Drivers/lvgl/src/core/lv_indev_scroll.c ****             obj_candidate = obj_act;
 2479              		.loc 1 342 23 view .LVU827
 2480 04be E645     		cmp	lr, ip
 2481 04c0 18EE101A 		vmov	r1, s16	@ int
 2482 04c4 D8BF     		it	le
 2483 04c6 3946     		movle	r1, r7
 2484 04c8 08EE101A 		vmov	s16, r1	@ int
 2485              	.LVL222:
 342:Drivers/lvgl/src/core/lv_indev_scroll.c ****             obj_candidate = obj_act;
 2486              		.loc 1 342 23 view .LVU828
 2487 04cc 0499     		ldr	r1, [sp, #16]
 2488 04ce D8BF     		it	le
 2489 04d0 0C21     		movle	r1, #12
 2490 04d2 0491     		str	r1, [sp, #16]
 2491              	.LVL223:
 342:Drivers/lvgl/src/core/lv_indev_scroll.c ****             obj_candidate = obj_act;
 2492              		.loc 1 342 23 view .LVU829
 2493 04d4 76E7     		b	.L101
 2494              	.LVL224:
 2495              	.L223:
 356:Drivers/lvgl/src/core/lv_indev_scroll.c ****         if(sr <= 0) right_en = false;
 2496              		.loc 1 356 21 is_stmt 1 view .LVU830
 357:Drivers/lvgl/src/core/lv_indev_scroll.c **** 
 2497              		.loc 1 357 9 view .LVU831
 357:Drivers/lvgl/src/core/lv_indev_scroll.c **** 
 2498              		.loc 1 357 11 is_stmt 0 view .LVU832
 2499 04d6 002B     		cmp	r3, #0
 2500 04d8 96DC     		bgt	.L110
 2501 04da 9EE7     		b	.L109
 2502              	.LVL225:
 2503              	.L220:
 357:Drivers/lvgl/src/core/lv_indev_scroll.c **** 
 2504              		.loc 1 357 11 view .LVU833
 2505              	.LBE283:
 2506              	.LBE286:
 2507              	.LBE307:
 2508              	.LBB308:
 2509              	.LBB302:
 419:Drivers/lvgl/src/core/lv_indev_scroll.c ****                 proc->types.pointer.scroll_area.x2 = find_snap_point_x(obj, LV_COORD_MIN, obj->coor
 2510              		.loc 1 419 17 is_stmt 1 view .LVU834
 419:Drivers/lvgl/src/core/lv_indev_scroll.c ****                 proc->types.pointer.scroll_area.x2 = find_snap_point_x(obj, LV_COORD_MIN, obj->coor
 2511              		.loc 1 419 54 is_stmt 0 view .LVU835
 2512 04dc 41F6FF72 		movw	r2, #8191
 2513 04e0 B5F91410 		ldrsh	r1, [r5, #20]
 2514 04e4 0023     		movs	r3, #0
 2515 04e6 2846     		mov	r0, r5
 2516 04e8 FFF7FEFF 		bl	find_snap_point_x
 2517              	.LVL226:
 420:Drivers/lvgl/src/core/lv_indev_scroll.c ****                 break;
 2518              		.loc 1 420 54 view .LVU836
 2519 04ec B5F91420 		ldrsh	r2, [r5, #20]
 2520              	.L213:
 423:Drivers/lvgl/src/core/lv_indev_scroll.c ****                 proc->types.pointer.scroll_area.x2 = find_snap_point_x(obj, LV_COORD_MIN, obj->coor
 2521              		.loc 1 423 52 view .LVU837
 2522 04f0 A086     		strh	r0, [r4, #52]	@ movhi
 424:Drivers/lvgl/src/core/lv_indev_scroll.c ****                 break;
ARM GAS  /var/folders/0z/tsy30v1j4xl4_7kw94k978ww0000gn/T//cc5O5B9v.s 			page 75


 2523              		.loc 1 424 17 is_stmt 1 view .LVU838
 424:Drivers/lvgl/src/core/lv_indev_scroll.c ****                 break;
 2524              		.loc 1 424 54 is_stmt 0 view .LVU839
 2525 04f2 2149     		ldr	r1, .L224
 2526 04f4 0023     		movs	r3, #0
 2527 04f6 2846     		mov	r0, r5
 2528 04f8 FFF7FEFF 		bl	find_snap_point_x
 2529              	.LVL227:
 424:Drivers/lvgl/src/core/lv_indev_scroll.c ****                 break;
 2530              		.loc 1 424 52 view .LVU840
 2531 04fc 2087     		strh	r0, [r4, #56]	@ movhi
 425:Drivers/lvgl/src/core/lv_indev_scroll.c ****             case LV_SCROLL_SNAP_CENTER: {
 2532              		.loc 1 425 17 is_stmt 1 view .LVU841
 2533 04fe D4E6     		b	.L121
 2534              	.L127:
 2535              	.LBB290:
 427:Drivers/lvgl/src/core/lv_indev_scroll.c ****                     proc->types.pointer.scroll_area.x1 = find_snap_point_x(obj, x_mid + 1, LV_COORD
 2536              		.loc 1 427 21 view .LVU842
 2537              	.LBB291:
 2538              	.LBB292:
 125:Drivers/lvgl/src/core/../misc/../font/../misc/lv_area.h **** }
 2539              		.loc 3 125 49 is_stmt 0 view .LVU843
 2540 0500 2A8B     		ldrh	r2, [r5, #24]
 2541              	.LBE292:
 2542              	.LBE291:
 427:Drivers/lvgl/src/core/lv_indev_scroll.c ****                     proc->types.pointer.scroll_area.x1 = find_snap_point_x(obj, x_mid + 1, LV_COORD
 2543              		.loc 1 427 51 view .LVU844
 2544 0502 AB8A     		ldrh	r3, [r5, #20]
 2545              	.LVL228:
 2546              	.LBB294:
 2547              	.LBI291:
 123:Drivers/lvgl/src/core/../misc/../font/../misc/lv_area.h **** {
 2548              		.loc 3 123 26 is_stmt 1 view .LVU845
 2549              	.LBB293:
 125:Drivers/lvgl/src/core/../misc/../font/../misc/lv_area.h **** }
 2550              		.loc 3 125 5 view .LVU846
 125:Drivers/lvgl/src/core/../misc/../font/../misc/lv_area.h **** }
 2551              		.loc 3 125 49 is_stmt 0 view .LVU847
 2552 0504 0132     		adds	r2, r2, #1
 2553 0506 D21A     		subs	r2, r2, r3
 2554              	.LBE293:
 2555              	.LBE294:
 427:Drivers/lvgl/src/core/lv_indev_scroll.c ****                     proc->types.pointer.scroll_area.x1 = find_snap_point_x(obj, x_mid + 1, LV_COORD
 2556              		.loc 1 427 55 view .LVU848
 2557 0508 C2F3C031 		ubfx	r1, r2, #15, #1
 2558 050c 01FA82F2 		sxtah	r2, r1, r2
 2559 0510 03EB6203 		add	r3, r3, r2, asr #1
 2560 0514 9EB2     		uxth	r6, r3
 2561              	.LVL229:
 428:Drivers/lvgl/src/core/lv_indev_scroll.c ****                     proc->types.pointer.scroll_area.x2 = find_snap_point_x(obj, LV_COORD_MIN, x_mid
 2562              		.loc 1 428 21 is_stmt 1 view .LVU849
 428:Drivers/lvgl/src/core/lv_indev_scroll.c ****                     proc->types.pointer.scroll_area.x2 = find_snap_point_x(obj, LV_COORD_MIN, x_mid
 2563              		.loc 1 428 87 is_stmt 0 view .LVU850
 2564 0516 711C     		adds	r1, r6, #1
 428:Drivers/lvgl/src/core/lv_indev_scroll.c ****                     proc->types.pointer.scroll_area.x2 = find_snap_point_x(obj, LV_COORD_MIN, x_mid
 2565              		.loc 1 428 58 view .LVU851
 2566 0518 0023     		movs	r3, #0
ARM GAS  /var/folders/0z/tsy30v1j4xl4_7kw94k978ww0000gn/T//cc5O5B9v.s 			page 76


 2567 051a 09B2     		sxth	r1, r1
 2568 051c 41F6FF72 		movw	r2, #8191
 2569 0520 2846     		mov	r0, r5
 2570 0522 FFF7FEFF 		bl	find_snap_point_x
 2571              	.LVL230:
 429:Drivers/lvgl/src/core/lv_indev_scroll.c ****                     break;
 2572              		.loc 1 429 101 view .LVU852
 2573 0526 721E     		subs	r2, r6, #1
 428:Drivers/lvgl/src/core/lv_indev_scroll.c ****                     proc->types.pointer.scroll_area.x2 = find_snap_point_x(obj, LV_COORD_MIN, x_mid
 2574              		.loc 1 428 56 view .LVU853
 2575 0528 A086     		strh	r0, [r4, #52]	@ movhi
 429:Drivers/lvgl/src/core/lv_indev_scroll.c ****                     break;
 2576              		.loc 1 429 21 is_stmt 1 view .LVU854
 429:Drivers/lvgl/src/core/lv_indev_scroll.c ****                     break;
 2577              		.loc 1 429 58 is_stmt 0 view .LVU855
 2578 052a 1349     		ldr	r1, .L224
 2579 052c 0023     		movs	r3, #0
 2580 052e 12B2     		sxth	r2, r2
 2581 0530 2846     		mov	r0, r5
 2582 0532 FFF7FEFF 		bl	find_snap_point_x
 2583              	.LVL231:
 429:Drivers/lvgl/src/core/lv_indev_scroll.c ****                     break;
 2584              		.loc 1 429 56 view .LVU856
 2585 0536 2087     		strh	r0, [r4, #56]	@ movhi
 430:Drivers/lvgl/src/core/lv_indev_scroll.c ****                 }
 2586              		.loc 1 430 21 is_stmt 1 view .LVU857
 2587 0538 B7E6     		b	.L121
 2588              	.LVL232:
 2589              	.L126:
 430:Drivers/lvgl/src/core/lv_indev_scroll.c ****                 }
 2590              		.loc 1 430 21 is_stmt 0 view .LVU858
 2591              	.LBE290:
 423:Drivers/lvgl/src/core/lv_indev_scroll.c ****                 proc->types.pointer.scroll_area.x2 = find_snap_point_x(obj, LV_COORD_MIN, obj->coor
 2592              		.loc 1 423 17 is_stmt 1 view .LVU859
 423:Drivers/lvgl/src/core/lv_indev_scroll.c ****                 proc->types.pointer.scroll_area.x2 = find_snap_point_x(obj, LV_COORD_MIN, obj->coor
 2593              		.loc 1 423 54 is_stmt 0 view .LVU860
 2594 053a 41F6FF72 		movw	r2, #8191
 2595 053e B5F91810 		ldrsh	r1, [r5, #24]
 2596 0542 0023     		movs	r3, #0
 2597 0544 2846     		mov	r0, r5
 2598 0546 FFF7FEFF 		bl	find_snap_point_x
 2599              	.LVL233:
 424:Drivers/lvgl/src/core/lv_indev_scroll.c ****                 break;
 2600              		.loc 1 424 54 view .LVU861
 2601 054a B5F91820 		ldrsh	r2, [r5, #24]
 2602 054e CFE7     		b	.L213
 2603              	.L219:
 398:Drivers/lvgl/src/core/lv_indev_scroll.c ****                 proc->types.pointer.scroll_area.y2 = find_snap_point_y(obj, LV_COORD_MIN, obj->coor
 2604              		.loc 1 398 17 is_stmt 1 view .LVU862
 398:Drivers/lvgl/src/core/lv_indev_scroll.c ****                 proc->types.pointer.scroll_area.y2 = find_snap_point_y(obj, LV_COORD_MIN, obj->coor
 2605              		.loc 1 398 92 is_stmt 0 view .LVU863
 2606 0550 E98A     		ldrh	r1, [r5, #22]
 2607 0552 0131     		adds	r1, r1, #1
 398:Drivers/lvgl/src/core/lv_indev_scroll.c ****                 proc->types.pointer.scroll_area.y2 = find_snap_point_y(obj, LV_COORD_MIN, obj->coor
 2608              		.loc 1 398 54 view .LVU864
 2609 0554 3346     		mov	r3, r6
 2610 0556 09B2     		sxth	r1, r1
ARM GAS  /var/folders/0z/tsy30v1j4xl4_7kw94k978ww0000gn/T//cc5O5B9v.s 			page 77


 2611 0558 41F6FF72 		movw	r2, #8191
 2612 055c 2846     		mov	r0, r5
 2613 055e FFF7FEFF 		bl	find_snap_point_y
 2614              	.LVL234:
 399:Drivers/lvgl/src/core/lv_indev_scroll.c ****                 break;
 2615              		.loc 1 399 106 view .LVU865
 2616 0562 EA8A     		ldrh	r2, [r5, #22]
 399:Drivers/lvgl/src/core/lv_indev_scroll.c ****                 break;
 2617              		.loc 1 399 54 view .LVU866
 2618 0564 0449     		ldr	r1, .L224
 398:Drivers/lvgl/src/core/lv_indev_scroll.c ****                 proc->types.pointer.scroll_area.y2 = find_snap_point_y(obj, LV_COORD_MIN, obj->coor
 2619              		.loc 1 398 52 view .LVU867
 2620 0566 E086     		strh	r0, [r4, #54]	@ movhi
 399:Drivers/lvgl/src/core/lv_indev_scroll.c ****                 break;
 2621              		.loc 1 399 17 is_stmt 1 view .LVU868
 399:Drivers/lvgl/src/core/lv_indev_scroll.c ****                 break;
 2622              		.loc 1 399 106 is_stmt 0 view .LVU869
 2623 0568 013A     		subs	r2, r2, #1
 399:Drivers/lvgl/src/core/lv_indev_scroll.c ****                 break;
 2624              		.loc 1 399 54 view .LVU870
 2625 056a 3346     		mov	r3, r6
 2626 056c 12B2     		sxth	r2, r2
 2627 056e 2846     		mov	r0, r5
 2628 0570 FFF7FEFF 		bl	find_snap_point_y
 2629              	.LVL235:
 400:Drivers/lvgl/src/core/lv_indev_scroll.c ****             case LV_SCROLL_SNAP_END:
 2630              		.loc 1 400 17 is_stmt 1 view .LVU871
 2631 0574 D7E6     		b	.L125
 2632              	.L225:
 2633 0576 00BF     		.align	2
 2634              	.L224:
 2635 0578 01E0FFFF 		.word	-8191
 2636              	.L123:
 2637              	.LBB295:
 406:Drivers/lvgl/src/core/lv_indev_scroll.c ****                     proc->types.pointer.scroll_area.y1 = find_snap_point_y(obj, y_mid + 1, LV_COORD
 2638              		.loc 1 406 21 view .LVU872
 2639              	.LBB296:
 2640              	.LBB297:
 2641              		.loc 3 135 49 is_stmt 0 view .LVU873
 2642 057c 6A8B     		ldrh	r2, [r5, #26]
 2643              	.LBE297:
 2644              	.LBE296:
 406:Drivers/lvgl/src/core/lv_indev_scroll.c ****                     proc->types.pointer.scroll_area.y1 = find_snap_point_y(obj, y_mid + 1, LV_COORD
 2645              		.loc 1 406 51 view .LVU874
 2646 057e EB8A     		ldrh	r3, [r5, #22]
 2647              	.LVL236:
 2648              	.LBB299:
 2649              	.LBI296:
 133:Drivers/lvgl/src/core/../misc/../font/../misc/lv_area.h **** {
 2650              		.loc 3 133 26 is_stmt 1 view .LVU875
 2651              	.LBB298:
 2652              		.loc 3 135 5 view .LVU876
 2653              		.loc 3 135 49 is_stmt 0 view .LVU877
 2654 0580 0132     		adds	r2, r2, #1
 2655 0582 D21A     		subs	r2, r2, r3
 2656              	.LBE298:
 2657              	.LBE299:
ARM GAS  /var/folders/0z/tsy30v1j4xl4_7kw94k978ww0000gn/T//cc5O5B9v.s 			page 78


 406:Drivers/lvgl/src/core/lv_indev_scroll.c ****                     proc->types.pointer.scroll_area.y1 = find_snap_point_y(obj, y_mid + 1, LV_COORD
 2658              		.loc 1 406 55 view .LVU878
 2659 0584 C2F3C031 		ubfx	r1, r2, #15, #1
 2660 0588 01FA82F2 		sxtah	r2, r1, r2
 2661 058c 03EB6203 		add	r3, r3, r2, asr #1
 2662 0590 9FB2     		uxth	r7, r3
 2663              	.LVL237:
 407:Drivers/lvgl/src/core/lv_indev_scroll.c ****                     proc->types.pointer.scroll_area.y2 = find_snap_point_y(obj, LV_COORD_MIN, y_mid
 2664              		.loc 1 407 21 is_stmt 1 view .LVU879
 407:Drivers/lvgl/src/core/lv_indev_scroll.c ****                     proc->types.pointer.scroll_area.y2 = find_snap_point_y(obj, LV_COORD_MIN, y_mid
 2665              		.loc 1 407 87 is_stmt 0 view .LVU880
 2666 0592 791C     		adds	r1, r7, #1
 407:Drivers/lvgl/src/core/lv_indev_scroll.c ****                     proc->types.pointer.scroll_area.y2 = find_snap_point_y(obj, LV_COORD_MIN, y_mid
 2667              		.loc 1 407 58 view .LVU881
 2668 0594 3346     		mov	r3, r6
 2669 0596 09B2     		sxth	r1, r1
 2670 0598 41F6FF72 		movw	r2, #8191
 2671 059c 2846     		mov	r0, r5
 2672 059e FFF7FEFF 		bl	find_snap_point_y
 2673              	.LVL238:
 408:Drivers/lvgl/src/core/lv_indev_scroll.c ****                     break;
 2674              		.loc 1 408 101 view .LVU882
 2675 05a2 7A1E     		subs	r2, r7, #1
 407:Drivers/lvgl/src/core/lv_indev_scroll.c ****                     proc->types.pointer.scroll_area.y2 = find_snap_point_y(obj, LV_COORD_MIN, y_mid
 2676              		.loc 1 407 56 view .LVU883
 2677 05a4 E086     		strh	r0, [r4, #54]	@ movhi
 408:Drivers/lvgl/src/core/lv_indev_scroll.c ****                     break;
 2678              		.loc 1 408 21 is_stmt 1 view .LVU884
 408:Drivers/lvgl/src/core/lv_indev_scroll.c ****                     break;
 2679              		.loc 1 408 58 is_stmt 0 view .LVU885
 2680 05a6 1949     		ldr	r1, .L226
 2681 05a8 3346     		mov	r3, r6
 2682 05aa 12B2     		sxth	r2, r2
 2683 05ac 2846     		mov	r0, r5
 2684 05ae FFF7FEFF 		bl	find_snap_point_y
 2685              	.LVL239:
 409:Drivers/lvgl/src/core/lv_indev_scroll.c ****                 }
 2686              		.loc 1 409 21 is_stmt 1 view .LVU886
 2687 05b2 B8E6     		b	.L125
 2688              	.LVL240:
 2689              	.L122:
 409:Drivers/lvgl/src/core/lv_indev_scroll.c ****                 }
 2690              		.loc 1 409 21 is_stmt 0 view .LVU887
 2691              	.LBE295:
 402:Drivers/lvgl/src/core/lv_indev_scroll.c ****                 proc->types.pointer.scroll_area.y2 = find_snap_point_y(obj, LV_COORD_MIN, obj->coor
 2692              		.loc 1 402 17 is_stmt 1 view .LVU888
 402:Drivers/lvgl/src/core/lv_indev_scroll.c ****                 proc->types.pointer.scroll_area.y2 = find_snap_point_y(obj, LV_COORD_MIN, obj->coor
 2693              		.loc 1 402 54 is_stmt 0 view .LVU889
 2694 05b4 B5F91A10 		ldrsh	r1, [r5, #26]
 2695 05b8 3346     		mov	r3, r6
 2696 05ba 41F6FF72 		movw	r2, #8191
 2697 05be 2846     		mov	r0, r5
 2698 05c0 FFF7FEFF 		bl	find_snap_point_y
 2699              	.LVL241:
 403:Drivers/lvgl/src/core/lv_indev_scroll.c ****                 break;
 2700              		.loc 1 403 54 view .LVU890
 2701 05c4 B5F91A20 		ldrsh	r2, [r5, #26]
ARM GAS  /var/folders/0z/tsy30v1j4xl4_7kw94k978ww0000gn/T//cc5O5B9v.s 			page 79


 2702 05c8 1049     		ldr	r1, .L226
 402:Drivers/lvgl/src/core/lv_indev_scroll.c ****                 proc->types.pointer.scroll_area.y2 = find_snap_point_y(obj, LV_COORD_MIN, obj->coor
 2703              		.loc 1 402 52 view .LVU891
 2704 05ca E086     		strh	r0, [r4, #54]	@ movhi
 403:Drivers/lvgl/src/core/lv_indev_scroll.c ****                 break;
 2705              		.loc 1 403 17 is_stmt 1 view .LVU892
 403:Drivers/lvgl/src/core/lv_indev_scroll.c ****                 break;
 2706              		.loc 1 403 54 is_stmt 0 view .LVU893
 2707 05cc 3346     		mov	r3, r6
 2708 05ce 2846     		mov	r0, r5
 2709 05d0 FFF7FEFF 		bl	find_snap_point_y
 2710              	.LVL242:
 404:Drivers/lvgl/src/core/lv_indev_scroll.c ****             case LV_SCROLL_SNAP_CENTER: {
 2711              		.loc 1 404 17 is_stmt 1 view .LVU894
 2712 05d4 A7E6     		b	.L125
 2713              	.LVL243:
 2714              	.L111:
 404:Drivers/lvgl/src/core/lv_indev_scroll.c ****             case LV_SCROLL_SNAP_CENTER: {
 2715              		.loc 1 404 17 is_stmt 0 view .LVU895
 2716              	.LBE302:
 2717              	.LBE308:
 2718              	.LBB309:
 2719              	.LBB287:
 2720              	.LBB284:
 357:Drivers/lvgl/src/core/lv_indev_scroll.c **** 
 2721              		.loc 1 357 21 is_stmt 1 view .LVU896
 360:Drivers/lvgl/src/core/lv_indev_scroll.c ****            (right_en && obj_scroll_sum.x <= - scroll_limit) ||
 2722              		.loc 1 360 9 view .LVU897
 360:Drivers/lvgl/src/core/lv_indev_scroll.c ****            (right_en && obj_scroll_sum.x <= - scroll_limit) ||
 2723              		.loc 1 360 11 is_stmt 0 view .LVU898
 2724 05d6 002A     		cmp	r2, #0
 2725 05d8 3FF41FAF 		beq	.L109
 360:Drivers/lvgl/src/core/lv_indev_scroll.c ****            (right_en && obj_scroll_sum.x <= - scroll_limit) ||
 2726              		.loc 1 360 22 view .LVU899
 2727 05dc BDF92C20 		ldrsh	r2, [sp, #44]
 2728              	.LVL244:
 360:Drivers/lvgl/src/core/lv_indev_scroll.c ****            (right_en && obj_scroll_sum.x <= - scroll_limit) ||
 2729              		.loc 1 360 22 view .LVU900
 2730 05e0 059B     		ldr	r3, [sp, #20]
 2731 05e2 9A42     		cmp	r2, r3
 2732 05e4 FFF619AF 		blt	.L109
 2733              	.LVL245:
 2734              	.L206:
 364:Drivers/lvgl/src/core/lv_indev_scroll.c ****             break;
 2735              		.loc 1 364 13 is_stmt 1 view .LVU901
 2736 05e8 5746     		mov	r7, r10
 2737              	.LVL246:
 364:Drivers/lvgl/src/core/lv_indev_scroll.c ****             break;
 2738              		.loc 1 364 44 is_stmt 0 view .LVU902
 2739 05ea 94F84030 		ldrb	r3, [r4, #64]	@ zero_extendqisi2
 364:Drivers/lvgl/src/core/lv_indev_scroll.c ****             break;
 2740              		.loc 1 364 66 view .LVU903
 2741 05ee 002F     		cmp	r7, #0
 2742 05f0 14BF     		ite	ne
 2743 05f2 0322     		movne	r2, #3
 2744 05f4 0C22     		moveq	r2, #12
 364:Drivers/lvgl/src/core/lv_indev_scroll.c ****             break;
ARM GAS  /var/folders/0z/tsy30v1j4xl4_7kw94k978ww0000gn/T//cc5O5B9v.s 			page 80


 2745              		.loc 1 364 44 view .LVU904
 2746 05f6 62F30303 		bfi	r3, r2, #0, #4
 2747 05fa 18EE105A 		vmov	r5, s16	@ int
 2748              	.LVL247:
 364:Drivers/lvgl/src/core/lv_indev_scroll.c ****             break;
 2749              		.loc 1 364 44 view .LVU905
 2750 05fe 84F84030 		strb	r3, [r4, #64]
 365:Drivers/lvgl/src/core/lv_indev_scroll.c ****         }
 2751              		.loc 1 365 13 is_stmt 1 view .LVU906
 2752 0602 37E6     		b	.L118
 2753              	.LVL248:
 2754              	.L218:
 365:Drivers/lvgl/src/core/lv_indev_scroll.c ****         }
 2755              		.loc 1 365 13 is_stmt 0 view .LVU907
 2756              	.LBE284:
 2757              	.LBE287:
 2758              	.LBE309:
 2759              	.LBB310:
 2760              	.LBB266:
 569:Drivers/lvgl/src/core/lv_indev_scroll.c ****             *diff_x = proc->types.pointer.scroll_area.x1 - proc->types.pointer.scroll_sum.x;
 2761              		.loc 1 569 47 view .LVU908
 2762 0604 3B46     		mov	r3, r7
 2763 0606 0026     		movs	r6, #0
 2764 0608 5BE5     		b	.L142
 2765              	.L227:
 2766 060a 00BF     		.align	2
 2767              	.L226:
 2768 060c 01E0FFFF 		.word	-8191
 2769              	.LBE266:
 2770              	.LBE310:
 2771              		.cfi_endproc
 2772              	.LFE161:
 2774              		.section	.text._lv_indev_scroll_throw_handler,"ax",%progbits
 2775              		.align	1
 2776              		.p2align 2,,3
 2777              		.global	_lv_indev_scroll_throw_handler
 2778              		.syntax unified
 2779              		.thumb
 2780              		.thumb_func
 2782              	_lv_indev_scroll_throw_handler:
 2783              	.LVL249:
 2784              	.LFB162:
 113:Drivers/lvgl/src/core/lv_indev_scroll.c ****     lv_obj_t * scroll_obj = proc->types.pointer.scroll_obj;
 2785              		.loc 1 113 1 is_stmt 1 view -0
 2786              		.cfi_startproc
 2787              		@ args = 0, pretend = 0, frame = 8
 2788              		@ frame_needed = 0, uses_anonymous_args = 0
 114:Drivers/lvgl/src/core/lv_indev_scroll.c ****     if(scroll_obj == NULL) return;
 2789              		.loc 1 114 5 view .LVU910
 113:Drivers/lvgl/src/core/lv_indev_scroll.c ****     lv_obj_t * scroll_obj = proc->types.pointer.scroll_obj;
 2790              		.loc 1 113 1 is_stmt 0 view .LVU911
 2791 0000 2DE9F04F 		push	{r4, r5, r6, r7, r8, r9, r10, fp, lr}
 2792              		.cfi_def_cfa_offset 36
 2793              		.cfi_offset 4, -36
 2794              		.cfi_offset 5, -32
 2795              		.cfi_offset 6, -28
 2796              		.cfi_offset 7, -24
ARM GAS  /var/folders/0z/tsy30v1j4xl4_7kw94k978ww0000gn/T//cc5O5B9v.s 			page 81


 2797              		.cfi_offset 8, -20
 2798              		.cfi_offset 9, -16
 2799              		.cfi_offset 10, -12
 2800              		.cfi_offset 11, -8
 2801              		.cfi_offset 14, -4
 114:Drivers/lvgl/src/core/lv_indev_scroll.c ****     if(scroll_obj == NULL) return;
 2802              		.loc 1 114 16 view .LVU912
 2803 0004 C66A     		ldr	r6, [r0, #44]
 2804              	.LVL250:
 115:Drivers/lvgl/src/core/lv_indev_scroll.c ****     if(proc->types.pointer.scroll_dir == LV_DIR_NONE) return;
 2805              		.loc 1 115 5 is_stmt 1 view .LVU913
 113:Drivers/lvgl/src/core/lv_indev_scroll.c ****     lv_obj_t * scroll_obj = proc->types.pointer.scroll_obj;
 2806              		.loc 1 113 1 is_stmt 0 view .LVU914
 2807 0006 85B0     		sub	sp, sp, #20
 2808              		.cfi_def_cfa_offset 56
 115:Drivers/lvgl/src/core/lv_indev_scroll.c ****     if(proc->types.pointer.scroll_dir == LV_DIR_NONE) return;
 2809              		.loc 1 115 7 view .LVU915
 2810 0008 26B1     		cbz	r6, .L228
 116:Drivers/lvgl/src/core/lv_indev_scroll.c **** 
 2811              		.loc 1 116 5 is_stmt 1 view .LVU916
 116:Drivers/lvgl/src/core/lv_indev_scroll.c **** 
 2812              		.loc 1 116 39 is_stmt 0 view .LVU917
 2813 000a 90F84030 		ldrb	r3, [r0, #64]	@ zero_extendqisi2
 116:Drivers/lvgl/src/core/lv_indev_scroll.c **** 
 2814              		.loc 1 116 7 view .LVU918
 2815 000e 1B07     		lsls	r3, r3, #28
 2816 0010 0446     		mov	r4, r0
 2817 0012 02D1     		bne	.L276
 2818              	.LVL251:
 2819              	.L228:
 215:Drivers/lvgl/src/core/lv_indev_scroll.c **** 
 2820              		.loc 1 215 1 view .LVU919
 2821 0014 05B0     		add	sp, sp, #20
 2822              		.cfi_remember_state
 2823              		.cfi_def_cfa_offset 36
 2824              		@ sp needed
 2825 0016 BDE8F08F 		pop	{r4, r5, r6, r7, r8, r9, r10, fp, pc}
 2826              	.LVL252:
 2827              	.L276:
 2828              		.cfi_restore_state
 118:Drivers/lvgl/src/core/lv_indev_scroll.c ****     lv_coord_t scroll_throw = indev_act->driver->scroll_throw;
 2829              		.loc 1 118 5 is_stmt 1 view .LVU920
 118:Drivers/lvgl/src/core/lv_indev_scroll.c ****     lv_coord_t scroll_throw = indev_act->driver->scroll_throw;
 2830              		.loc 1 118 30 is_stmt 0 view .LVU921
 2831 001a FFF7FEFF 		bl	lv_indev_get_act
 2832              	.LVL253:
 119:Drivers/lvgl/src/core/lv_indev_scroll.c **** 
 2833              		.loc 1 119 48 view .LVU922
 2834 001e 0368     		ldr	r3, [r0]
 118:Drivers/lvgl/src/core/lv_indev_scroll.c ****     lv_coord_t scroll_throw = indev_act->driver->scroll_throw;
 2835              		.loc 1 118 30 view .LVU923
 2836 0020 0746     		mov	r7, r0
 2837              	.LVL254:
 119:Drivers/lvgl/src/core/lv_indev_scroll.c **** 
 2838              		.loc 1 119 5 is_stmt 1 view .LVU924
 121:Drivers/lvgl/src/core/lv_indev_scroll.c ****         proc->types.pointer.scroll_throw_vect.y = 0;
 2839              		.loc 1 121 8 is_stmt 0 view .LVU925
ARM GAS  /var/folders/0z/tsy30v1j4xl4_7kw94k978ww0000gn/T//cc5O5B9v.s 			page 82


 2840 0022 4021     		movs	r1, #64
 2841 0024 3046     		mov	r0, r6
 2842              	.LVL255:
 119:Drivers/lvgl/src/core/lv_indev_scroll.c **** 
 2843              		.loc 1 119 48 view .LVU926
 2844 0026 5D7E     		ldrb	r5, [r3, #25]	@ zero_extendqisi2
 2845              	.LVL256:
 121:Drivers/lvgl/src/core/lv_indev_scroll.c ****         proc->types.pointer.scroll_throw_vect.y = 0;
 2846              		.loc 1 121 5 is_stmt 1 view .LVU927
 121:Drivers/lvgl/src/core/lv_indev_scroll.c ****         proc->types.pointer.scroll_throw_vect.y = 0;
 2847              		.loc 1 121 8 is_stmt 0 view .LVU928
 2848 0028 FFF7FEFF 		bl	lv_obj_has_flag
 2849              	.LVL257:
 121:Drivers/lvgl/src/core/lv_indev_scroll.c ****         proc->types.pointer.scroll_throw_vect.y = 0;
 2850              		.loc 1 121 7 view .LVU929
 2851 002c 00B9     		cbnz	r0, .L232
 122:Drivers/lvgl/src/core/lv_indev_scroll.c ****         proc->types.pointer.scroll_throw_vect.x = 0;
 2852              		.loc 1 122 9 is_stmt 1 view .LVU930
 123:Drivers/lvgl/src/core/lv_indev_scroll.c ****     }
 2853              		.loc 1 123 9 view .LVU931
 123:Drivers/lvgl/src/core/lv_indev_scroll.c ****     }
 2854              		.loc 1 123 49 is_stmt 0 view .LVU932
 2855 002e E061     		str	r0, [r4, #28]
 2856              	.L232:
 126:Drivers/lvgl/src/core/lv_indev_scroll.c ****     lv_scroll_snap_t align_y = lv_obj_get_scroll_snap_y(scroll_obj);
 2857              		.loc 1 126 5 is_stmt 1 view .LVU933
 126:Drivers/lvgl/src/core/lv_indev_scroll.c ****     lv_scroll_snap_t align_y = lv_obj_get_scroll_snap_y(scroll_obj);
 2858              		.loc 1 126 32 is_stmt 0 view .LVU934
 2859 0030 3046     		mov	r0, r6
 2860 0032 FFF7FEFF 		bl	lv_obj_get_scroll_snap_x
 2861              	.LVL258:
 2862 0036 8046     		mov	r8, r0
 2863              	.LVL259:
 127:Drivers/lvgl/src/core/lv_indev_scroll.c **** 
 2864              		.loc 1 127 5 is_stmt 1 view .LVU935
 127:Drivers/lvgl/src/core/lv_indev_scroll.c **** 
 2865              		.loc 1 127 32 is_stmt 0 view .LVU936
 2866 0038 3046     		mov	r0, r6
 2867 003a FFF7FEFF 		bl	lv_obj_get_scroll_snap_y
 2868              	.LVL260:
 129:Drivers/lvgl/src/core/lv_indev_scroll.c ****         proc->types.pointer.scroll_throw_vect.x = 0;
 2869              		.loc 1 129 39 view .LVU937
 2870 003e 94F840A0 		ldrb	r10, [r4, #64]	@ zero_extendqisi2
 2871 0042 0AF00F0A 		and	r10, r10, #15
 129:Drivers/lvgl/src/core/lv_indev_scroll.c ****         proc->types.pointer.scroll_throw_vect.x = 0;
 2872              		.loc 1 129 7 view .LVU938
 2873 0046 BAF10C0F 		cmp	r10, #12
 127:Drivers/lvgl/src/core/lv_indev_scroll.c **** 
 2874              		.loc 1 127 32 view .LVU939
 2875 004a 8146     		mov	r9, r0
 2876              	.LVL261:
 129:Drivers/lvgl/src/core/lv_indev_scroll.c ****         proc->types.pointer.scroll_throw_vect.x = 0;
 2877              		.loc 1 129 5 is_stmt 1 view .LVU940
 129:Drivers/lvgl/src/core/lv_indev_scroll.c ****         proc->types.pointer.scroll_throw_vect.x = 0;
 2878              		.loc 1 129 7 is_stmt 0 view .LVU941
 2879 004c 65D0     		beq	.L277
 153:Drivers/lvgl/src/core/lv_indev_scroll.c ****         proc->types.pointer.scroll_throw_vect.y = 0;
ARM GAS  /var/folders/0z/tsy30v1j4xl4_7kw94k978ww0000gn/T//cc5O5B9v.s 			page 83


 2880              		.loc 1 153 10 is_stmt 1 view .LVU942
 153:Drivers/lvgl/src/core/lv_indev_scroll.c ****         proc->types.pointer.scroll_throw_vect.y = 0;
 2881              		.loc 1 153 12 is_stmt 0 view .LVU943
 2882 004e BAF1030F 		cmp	r10, #3
 2883 0052 1DD0     		beq	.L278
 2884              	.LVL262:
 2885              	.L243:
 179:Drivers/lvgl/src/core/lv_indev_scroll.c ****         /*Revert if scrolled in*/
 2886              		.loc 1 179 5 is_stmt 1 view .LVU944
 179:Drivers/lvgl/src/core/lv_indev_scroll.c ****         /*Revert if scrolled in*/
 2887              		.loc 1 179 7 is_stmt 0 view .LVU945
 2888 0054 E369     		ldr	r3, [r4, #28]
 2889 0056 002B     		cmp	r3, #0
 2890 0058 DCD1     		bne	.L228
 182:Drivers/lvgl/src/core/lv_indev_scroll.c ****             lv_coord_t st = lv_obj_get_scroll_top(scroll_obj);
 2891              		.loc 1 182 9 is_stmt 1 view .LVU946
 182:Drivers/lvgl/src/core/lv_indev_scroll.c ****             lv_coord_t st = lv_obj_get_scroll_top(scroll_obj);
 2892              		.loc 1 182 11 is_stmt 0 view .LVU947
 2893 005a B9F1000F 		cmp	r9, #0
 2894 005e 00F08A80 		beq	.L250
 2895              	.L242:
 196:Drivers/lvgl/src/core/lv_indev_scroll.c ****             lv_coord_t sl = lv_obj_get_scroll_left(scroll_obj);
 2896              		.loc 1 196 9 is_stmt 1 view .LVU948
 196:Drivers/lvgl/src/core/lv_indev_scroll.c ****             lv_coord_t sl = lv_obj_get_scroll_left(scroll_obj);
 2897              		.loc 1 196 11 is_stmt 0 view .LVU949
 2898 0062 B8F1000F 		cmp	r8, #0
 2899 0066 00F0DC80 		beq	.L279
 2900              	.L253:
 209:Drivers/lvgl/src/core/lv_indev_scroll.c ****         if(proc->reset_query) return;
 2901              		.loc 1 209 9 is_stmt 1 view .LVU950
 2902 006a 3A46     		mov	r2, r7
 2903 006c 0A21     		movs	r1, #10
 2904 006e 3046     		mov	r0, r6
 2905 0070 FFF7FEFF 		bl	lv_event_send
 2906              	.LVL263:
 210:Drivers/lvgl/src/core/lv_indev_scroll.c **** 
 2907              		.loc 1 210 9 view .LVU951
 210:Drivers/lvgl/src/core/lv_indev_scroll.c **** 
 2908              		.loc 1 210 12 is_stmt 0 view .LVU952
 2909 0074 6378     		ldrb	r3, [r4, #1]	@ zero_extendqisi2
 210:Drivers/lvgl/src/core/lv_indev_scroll.c **** 
 2910              		.loc 1 210 11 view .LVU953
 2911 0076 13F00203 		ands	r3, r3, #2
 2912 007a CBD1     		bne	.L228
 212:Drivers/lvgl/src/core/lv_indev_scroll.c ****         proc->types.pointer.scroll_obj = NULL;
 2913              		.loc 1 212 9 is_stmt 1 view .LVU954
 212:Drivers/lvgl/src/core/lv_indev_scroll.c ****         proc->types.pointer.scroll_obj = NULL;
 2914              		.loc 1 212 40 is_stmt 0 view .LVU955
 2915 007c 94F84020 		ldrb	r2, [r4, #64]	@ zero_extendqisi2
 213:Drivers/lvgl/src/core/lv_indev_scroll.c ****     }
 2916              		.loc 1 213 40 view .LVU956
 2917 0080 E362     		str	r3, [r4, #44]
 212:Drivers/lvgl/src/core/lv_indev_scroll.c ****         proc->types.pointer.scroll_obj = NULL;
 2918              		.loc 1 212 40 view .LVU957
 2919 0082 63F30302 		bfi	r2, r3, #0, #4
 2920 0086 84F84020 		strb	r2, [r4, #64]
 213:Drivers/lvgl/src/core/lv_indev_scroll.c ****     }
ARM GAS  /var/folders/0z/tsy30v1j4xl4_7kw94k978ww0000gn/T//cc5O5B9v.s 			page 84


 2921              		.loc 1 213 9 is_stmt 1 view .LVU958
 215:Drivers/lvgl/src/core/lv_indev_scroll.c **** 
 2922              		.loc 1 215 1 is_stmt 0 view .LVU959
 2923 008a 05B0     		add	sp, sp, #20
 2924              		.cfi_remember_state
 2925              		.cfi_def_cfa_offset 36
 2926              		@ sp needed
 2927 008c BDE8F08F 		pop	{r4, r5, r6, r7, r8, r9, r10, fp, pc}
 2928              	.LVL264:
 2929              	.L278:
 2930              		.cfi_restore_state
 154:Drivers/lvgl/src/core/lv_indev_scroll.c ****         /*If no snapping "throw"*/
 2931              		.loc 1 154 9 is_stmt 1 view .LVU960
 154:Drivers/lvgl/src/core/lv_indev_scroll.c ****         /*If no snapping "throw"*/
 2932              		.loc 1 154 49 is_stmt 0 view .LVU961
 2933 0090 4FF0000B 		mov	fp, #0
 2934 0094 A4F81EB0 		strh	fp, [r4, #30]	@ movhi
 156:Drivers/lvgl/src/core/lv_indev_scroll.c ****             proc->types.pointer.scroll_throw_vect.x =
 2935              		.loc 1 156 9 is_stmt 1 view .LVU962
 156:Drivers/lvgl/src/core/lv_indev_scroll.c ****             proc->types.pointer.scroll_throw_vect.x =
 2936              		.loc 1 156 11 is_stmt 0 view .LVU963
 2937 0098 B8F1000F 		cmp	r8, #0
 2938 009c 00F0D580 		beq	.L280
 2939              	.LBB325:
 170:Drivers/lvgl/src/core/lv_indev_scroll.c ****             proc->types.pointer.scroll_throw_vect.x = 0;
 2940              		.loc 1 170 13 is_stmt 1 view .LVU964
 2941 00a0 B4F91C50 		ldrsh	r5, [r4, #28]
 2942              	.LVL265:
 2943              	.LBB326:
 2944              	.LBI326:
 597:Drivers/lvgl/src/core/lv_indev_scroll.c **** {
 2945              		.loc 1 597 19 view .LVU965
 2946              	.LBB327:
 599:Drivers/lvgl/src/core/lv_indev_scroll.c ****     lv_coord_t move = 0;
 2947              		.loc 1 599 5 view .LVU966
 600:Drivers/lvgl/src/core/lv_indev_scroll.c **** 
 2948              		.loc 1 600 5 view .LVU967
 602:Drivers/lvgl/src/core/lv_indev_scroll.c ****     lv_coord_t scroll_throw = indev_act->driver->scroll_throw;
 2949              		.loc 1 602 5 view .LVU968
 602:Drivers/lvgl/src/core/lv_indev_scroll.c ****     lv_coord_t scroll_throw = indev_act->driver->scroll_throw;
 2950              		.loc 1 602 30 is_stmt 0 view .LVU969
 2951 00a4 FFF7FEFF 		bl	lv_indev_get_act
 2952              	.LVL266:
 603:Drivers/lvgl/src/core/lv_indev_scroll.c **** 
 2953              		.loc 1 603 5 is_stmt 1 view .LVU970
 603:Drivers/lvgl/src/core/lv_indev_scroll.c **** 
 2954              		.loc 1 603 48 is_stmt 0 view .LVU971
 2955 00a8 0368     		ldr	r3, [r0]
 2956 00aa 597E     		ldrb	r1, [r3, #25]	@ zero_extendqisi2
 2957              	.LVL267:
 605:Drivers/lvgl/src/core/lv_indev_scroll.c ****         move += x;
 2958              		.loc 1 605 5 is_stmt 1 view .LVU972
 605:Drivers/lvgl/src/core/lv_indev_scroll.c ****         move += x;
 2959              		.loc 1 605 11 view .LVU973
 2960 00ac 002D     		cmp	r5, #0
 2961 00ae 00F00D81 		beq	.L257
 607:Drivers/lvgl/src/core/lv_indev_scroll.c ****     }
ARM GAS  /var/folders/0z/tsy30v1j4xl4_7kw94k978ww0000gn/T//cc5O5B9v.s 			page 85


 2962              		.loc 1 607 38 is_stmt 0 view .LVU974
 2963 00b2 8748     		ldr	r0, .L283
 2964              	.LVL268:
 607:Drivers/lvgl/src/core/lv_indev_scroll.c ****     }
 2965              		.loc 1 607 22 view .LVU975
 2966 00b4 C1F16401 		rsb	r1, r1, #100
 600:Drivers/lvgl/src/core/lv_indev_scroll.c **** 
 2967              		.loc 1 600 16 view .LVU976
 2968 00b8 5B46     		mov	r3, fp
 2969              	.LVL269:
 2970              	.L246:
 606:Drivers/lvgl/src/core/lv_indev_scroll.c ****         x = x * (100 - scroll_throw) / 100;
 2971              		.loc 1 606 9 is_stmt 1 view .LVU977
 606:Drivers/lvgl/src/core/lv_indev_scroll.c ****         x = x * (100 - scroll_throw) / 100;
 2972              		.loc 1 606 14 is_stmt 0 view .LVU978
 2973 00ba 2B44     		add	r3, r3, r5
 2974              	.LVL270:
 607:Drivers/lvgl/src/core/lv_indev_scroll.c ****     }
 2975              		.loc 1 607 15 view .LVU979
 2976 00bc 01FB05F5 		mul	r5, r1, r5
 2977              	.LVL271:
 607:Drivers/lvgl/src/core/lv_indev_scroll.c ****     }
 2978              		.loc 1 607 38 view .LVU980
 2979 00c0 80FB05C2 		smull	ip, r2, r0, r5
 2980 00c4 ED17     		asrs	r5, r5, #31
 2981 00c6 C5EB6215 		rsb	r5, r5, r2, asr #5
 607:Drivers/lvgl/src/core/lv_indev_scroll.c ****     }
 2982              		.loc 1 607 11 view .LVU981
 2983 00ca 2DB2     		sxth	r5, r5
 606:Drivers/lvgl/src/core/lv_indev_scroll.c ****         x = x * (100 - scroll_throw) / 100;
 2984              		.loc 1 606 14 view .LVU982
 2985 00cc 1BB2     		sxth	r3, r3
 2986              	.LVL272:
 607:Drivers/lvgl/src/core/lv_indev_scroll.c ****     }
 2987              		.loc 1 607 9 is_stmt 1 view .LVU983
 605:Drivers/lvgl/src/core/lv_indev_scroll.c ****         move += x;
 2988              		.loc 1 605 11 view .LVU984
 2989 00ce 002D     		cmp	r5, #0
 2990 00d0 F3D1     		bne	.L246
 2991              	.LVL273:
 2992              	.L275:
 605:Drivers/lvgl/src/core/lv_indev_scroll.c ****         move += x;
 2993              		.loc 1 605 11 is_stmt 0 view .LVU985
 2994              	.LBE327:
 2995              	.LBE326:
 2996              	.LBB330:
 2997              	.LBB331:
 569:Drivers/lvgl/src/core/lv_indev_scroll.c ****             *diff_x = proc->types.pointer.scroll_area.x1 - proc->types.pointer.scroll_sum.x;
 2998              		.loc 1 569 42 view .LVU986
 2999 00d2 B4F91800 		ldrsh	r0, [r4, #24]
 569:Drivers/lvgl/src/core/lv_indev_scroll.c ****             *diff_x = proc->types.pointer.scroll_area.x1 - proc->types.pointer.scroll_sum.x;
 3000              		.loc 1 569 88 view .LVU987
 3001 00d6 B4F93410 		ldrsh	r1, [r4, #52]
 3002              	.LBE331:
 3003              	.LBE330:
 3004              	.LBB336:
 3005              	.LBB328:
ARM GAS  /var/folders/0z/tsy30v1j4xl4_7kw94k978ww0000gn/T//cc5O5B9v.s 			page 86


 605:Drivers/lvgl/src/core/lv_indev_scroll.c ****         move += x;
 3006              		.loc 1 605 11 view .LVU988
 3007 00da 1A46     		mov	r2, r3
 609:Drivers/lvgl/src/core/lv_indev_scroll.c **** }
 3008              		.loc 1 609 5 is_stmt 1 view .LVU989
 3009              	.LVL274:
 609:Drivers/lvgl/src/core/lv_indev_scroll.c **** }
 3010              		.loc 1 609 5 is_stmt 0 view .LVU990
 3011              	.LBE328:
 3012              	.LBE336:
 171:Drivers/lvgl/src/core/lv_indev_scroll.c ****             scroll_limit_diff(proc, &diff_x, NULL);
 3013              		.loc 1 171 13 is_stmt 1 view .LVU991
 3014              	.LBB337:
 3015              	.LBB332:
 569:Drivers/lvgl/src/core/lv_indev_scroll.c ****             *diff_x = proc->types.pointer.scroll_area.x1 - proc->types.pointer.scroll_sum.x;
 3016              		.loc 1 569 45 is_stmt 0 view .LVU992
 3017 00dc 0244     		add	r2, r2, r0
 3018              	.LBE332:
 3019              	.LBE337:
 171:Drivers/lvgl/src/core/lv_indev_scroll.c ****             scroll_limit_diff(proc, &diff_x, NULL);
 3020              		.loc 1 171 53 view .LVU993
 3021 00de 0025     		movs	r5, #0
 3022              	.LBB338:
 3023              	.LBB333:
 569:Drivers/lvgl/src/core/lv_indev_scroll.c ****             *diff_x = proc->types.pointer.scroll_area.x1 - proc->types.pointer.scroll_sum.x;
 3024              		.loc 1 569 11 view .LVU994
 3025 00e0 8A42     		cmp	r2, r1
 3026              	.LBE333:
 3027              	.LBE338:
 171:Drivers/lvgl/src/core/lv_indev_scroll.c ****             scroll_limit_diff(proc, &diff_x, NULL);
 3028              		.loc 1 171 53 view .LVU995
 3029 00e2 A583     		strh	r5, [r4, #28]	@ movhi
 172:Drivers/lvgl/src/core/lv_indev_scroll.c ****             lv_coord_t x = find_snap_point_x(scroll_obj, LV_COORD_MIN, LV_COORD_MAX, diff_x);
 3030              		.loc 1 172 13 is_stmt 1 view .LVU996
 3031              	.LVL275:
 3032              	.LBB339:
 3033              	.LBI330:
 556:Drivers/lvgl/src/core/lv_indev_scroll.c **** {
 3034              		.loc 1 556 13 view .LVU997
 3035              	.LBB334:
 558:Drivers/lvgl/src/core/lv_indev_scroll.c ****         if(proc->types.pointer.scroll_sum.y + *diff_y < proc->types.pointer.scroll_area.y1) {
 3036              		.loc 1 558 5 view .LVU998
 568:Drivers/lvgl/src/core/lv_indev_scroll.c ****         if(proc->types.pointer.scroll_sum.x + *diff_x < proc->types.pointer.scroll_area.x1) {
 3037              		.loc 1 568 5 view .LVU999
 569:Drivers/lvgl/src/core/lv_indev_scroll.c ****             *diff_x = proc->types.pointer.scroll_area.x1 - proc->types.pointer.scroll_sum.x;
 3038              		.loc 1 569 9 view .LVU1000
 569:Drivers/lvgl/src/core/lv_indev_scroll.c ****             *diff_x = proc->types.pointer.scroll_area.x1 - proc->types.pointer.scroll_sum.x;
 3039              		.loc 1 569 11 is_stmt 0 view .LVU1001
 3040 00e4 02DA     		bge	.L247
 570:Drivers/lvgl/src/core/lv_indev_scroll.c ****         }
 3041              		.loc 1 570 13 is_stmt 1 view .LVU1002
 570:Drivers/lvgl/src/core/lv_indev_scroll.c ****         }
 3042              		.loc 1 570 58 is_stmt 0 view .LVU1003
 3043 00e6 091A     		subs	r1, r1, r0
 3044 00e8 0BB2     		sxth	r3, r1
 3045              	.LVL276:
 573:Drivers/lvgl/src/core/lv_indev_scroll.c ****             *diff_x = proc->types.pointer.scroll_area.x2 - proc->types.pointer.scroll_sum.x;
ARM GAS  /var/folders/0z/tsy30v1j4xl4_7kw94k978ww0000gn/T//cc5O5B9v.s 			page 87


 3046              		.loc 1 573 45 view .LVU1004
 3047 00ea 1A18     		adds	r2, r3, r0
 3048              	.L247:
 573:Drivers/lvgl/src/core/lv_indev_scroll.c ****             *diff_x = proc->types.pointer.scroll_area.x2 - proc->types.pointer.scroll_sum.x;
 3049              		.loc 1 573 9 is_stmt 1 view .LVU1005
 573:Drivers/lvgl/src/core/lv_indev_scroll.c ****             *diff_x = proc->types.pointer.scroll_area.x2 - proc->types.pointer.scroll_sum.x;
 3050              		.loc 1 573 88 is_stmt 0 view .LVU1006
 3051 00ec B4F93810 		ldrsh	r1, [r4, #56]
 573:Drivers/lvgl/src/core/lv_indev_scroll.c ****             *diff_x = proc->types.pointer.scroll_area.x2 - proc->types.pointer.scroll_sum.x;
 3052              		.loc 1 573 11 view .LVU1007
 3053 00f0 9142     		cmp	r1, r2
 574:Drivers/lvgl/src/core/lv_indev_scroll.c ****         }
 3054              		.loc 1 574 58 view .LVU1008
 3055 00f2 BEBF     		ittt	lt
 3056 00f4 091A     		sublt	r1, r1, r0
 3057 00f6 8DB2     		uxthlt	r5, r1
 3058 00f8 0BB2     		sxthlt	r3, r1
 3059              	.LVL277:
 574:Drivers/lvgl/src/core/lv_indev_scroll.c ****         }
 3060              		.loc 1 574 58 view .LVU1009
 3061              	.LBE334:
 3062              	.LBE339:
 173:Drivers/lvgl/src/core/lv_indev_scroll.c ****             lv_obj_scroll_by(scroll_obj, x + diff_x, 0, LV_ANIM_ON);
 3063              		.loc 1 173 28 view .LVU1010
 3064 00fa 41F6FF72 		movw	r2, #8191
 3065 00fe 7549     		ldr	r1, .L283+4
 3066 0100 3046     		mov	r0, r6
 174:Drivers/lvgl/src/core/lv_indev_scroll.c ****         }
 3067              		.loc 1 174 44 view .LVU1011
 3068 0102 A8BF     		it	ge
 3069 0104 9DB2     		uxthge	r5, r3
 3070              	.LBB340:
 3071              	.LBB335:
 574:Drivers/lvgl/src/core/lv_indev_scroll.c ****         }
 3072              		.loc 1 574 13 is_stmt 1 view .LVU1012
 3073              	.LVL278:
 574:Drivers/lvgl/src/core/lv_indev_scroll.c ****         }
 3074              		.loc 1 574 13 is_stmt 0 view .LVU1013
 3075              	.LBE335:
 3076              	.LBE340:
 173:Drivers/lvgl/src/core/lv_indev_scroll.c ****             lv_obj_scroll_by(scroll_obj, x + diff_x, 0, LV_ANIM_ON);
 3077              		.loc 1 173 13 is_stmt 1 view .LVU1014
 173:Drivers/lvgl/src/core/lv_indev_scroll.c ****             lv_obj_scroll_by(scroll_obj, x + diff_x, 0, LV_ANIM_ON);
 3078              		.loc 1 173 28 is_stmt 0 view .LVU1015
 3079 0106 FFF7FEFF 		bl	find_snap_point_x
 3080              	.LVL279:
 174:Drivers/lvgl/src/core/lv_indev_scroll.c ****         }
 3081              		.loc 1 174 13 is_stmt 1 view .LVU1016
 174:Drivers/lvgl/src/core/lv_indev_scroll.c ****         }
 3082              		.loc 1 174 44 is_stmt 0 view .LVU1017
 3083 010a 2844     		add	r0, r0, r5
 3084              	.LVL280:
 174:Drivers/lvgl/src/core/lv_indev_scroll.c ****         }
 3085              		.loc 1 174 13 view .LVU1018
 3086 010c 01B2     		sxth	r1, r0
 3087 010e 0123     		movs	r3, #1
 3088 0110 0022     		movs	r2, #0
ARM GAS  /var/folders/0z/tsy30v1j4xl4_7kw94k978ww0000gn/T//cc5O5B9v.s 			page 88


 3089 0112 3046     		mov	r0, r6
 3090 0114 FFF7FEFF 		bl	lv_obj_scroll_by
 3091              	.LVL281:
 174:Drivers/lvgl/src/core/lv_indev_scroll.c ****         }
 3092              		.loc 1 174 13 view .LVU1019
 3093 0118 9CE7     		b	.L243
 3094              	.LVL282:
 3095              	.L277:
 174:Drivers/lvgl/src/core/lv_indev_scroll.c ****         }
 3096              		.loc 1 174 13 view .LVU1020
 3097              	.LBE325:
 130:Drivers/lvgl/src/core/lv_indev_scroll.c ****         /*If no snapping "throw"*/
 3098              		.loc 1 130 9 is_stmt 1 view .LVU1021
 130:Drivers/lvgl/src/core/lv_indev_scroll.c ****         /*If no snapping "throw"*/
 3099              		.loc 1 130 49 is_stmt 0 view .LVU1022
 3100 011a 4FF0000B 		mov	fp, #0
 3101 011e A4F81CB0 		strh	fp, [r4, #28]	@ movhi
 132:Drivers/lvgl/src/core/lv_indev_scroll.c ****             proc->types.pointer.scroll_throw_vect.y =
 3102              		.loc 1 132 9 is_stmt 1 view .LVU1023
 132:Drivers/lvgl/src/core/lv_indev_scroll.c ****             proc->types.pointer.scroll_throw_vect.y =
 3103              		.loc 1 132 11 is_stmt 0 view .LVU1024
 3104 0122 0028     		cmp	r0, #0
 3105 0124 3CD1     		bne	.L234
 3106              	.LBB342:
 133:Drivers/lvgl/src/core/lv_indev_scroll.c ****                 proc->types.pointer.scroll_throw_vect.y * (100 - scroll_throw) / 100;
 3107              		.loc 1 133 13 is_stmt 1 view .LVU1025
 134:Drivers/lvgl/src/core/lv_indev_scroll.c **** 
 3108              		.loc 1 134 54 is_stmt 0 view .LVU1026
 3109 0126 B4F91E30 		ldrsh	r3, [r4, #30]
 134:Drivers/lvgl/src/core/lv_indev_scroll.c **** 
 3110              		.loc 1 134 80 view .LVU1027
 3111 012a 694A     		ldr	r2, .L283
 134:Drivers/lvgl/src/core/lv_indev_scroll.c **** 
 3112              		.loc 1 134 64 view .LVU1028
 3113 012c C5F16405 		rsb	r5, r5, #100
 3114              	.LVL283:
 134:Drivers/lvgl/src/core/lv_indev_scroll.c **** 
 3115              		.loc 1 134 57 view .LVU1029
 3116 0130 05FB03F3 		mul	r3, r5, r3
 134:Drivers/lvgl/src/core/lv_indev_scroll.c **** 
 3117              		.loc 1 134 80 view .LVU1030
 3118 0134 82FB0312 		smull	r1, r2, r2, r3
 3119 0138 DB17     		asrs	r3, r3, #31
 3120 013a C3EB6213 		rsb	r3, r3, r2, asr #5
 133:Drivers/lvgl/src/core/lv_indev_scroll.c ****                 proc->types.pointer.scroll_throw_vect.y * (100 - scroll_throw) / 100;
 3121              		.loc 1 133 53 view .LVU1031
 3122 013e E383     		strh	r3, [r4, #30]	@ movhi
 136:Drivers/lvgl/src/core/lv_indev_scroll.c ****             lv_coord_t st = lv_obj_get_scroll_top(scroll_obj);
 3123              		.loc 1 136 13 is_stmt 1 view .LVU1032
 136:Drivers/lvgl/src/core/lv_indev_scroll.c ****             lv_coord_t st = lv_obj_get_scroll_top(scroll_obj);
 3124              		.loc 1 136 29 is_stmt 0 view .LVU1033
 3125 0140 3046     		mov	r0, r6
 3126              	.LVL284:
 136:Drivers/lvgl/src/core/lv_indev_scroll.c ****             lv_coord_t st = lv_obj_get_scroll_top(scroll_obj);
 3127              		.loc 1 136 29 view .LVU1034
 3128 0142 FFF7FEFF 		bl	lv_obj_get_scroll_bottom
 3129              	.LVL285:
ARM GAS  /var/folders/0z/tsy30v1j4xl4_7kw94k978ww0000gn/T//cc5O5B9v.s 			page 89


 3130 0146 0390     		str	r0, [sp, #12]
 3131              	.LVL286:
 137:Drivers/lvgl/src/core/lv_indev_scroll.c **** 
 3132              		.loc 1 137 13 is_stmt 1 view .LVU1035
 137:Drivers/lvgl/src/core/lv_indev_scroll.c **** 
 3133              		.loc 1 137 29 is_stmt 0 view .LVU1036
 3134 0148 3046     		mov	r0, r6
 3135 014a FFF7FEFF 		bl	lv_obj_get_scroll_top
 3136              	.LVL287:
 139:Drivers/lvgl/src/core/lv_indev_scroll.c ****                                                                    LV_DIR_VER);
 3137              		.loc 1 139 55 view .LVU1037
 3138 014e CDF800A0 		str	r10, [sp]
 137:Drivers/lvgl/src/core/lv_indev_scroll.c **** 
 3139              		.loc 1 137 29 view .LVU1038
 3140 0152 0246     		mov	r2, r0
 3141              	.LVL288:
 139:Drivers/lvgl/src/core/lv_indev_scroll.c ****                                                                    LV_DIR_VER);
 3142              		.loc 1 139 13 is_stmt 1 view .LVU1039
 139:Drivers/lvgl/src/core/lv_indev_scroll.c ****                                                                    LV_DIR_VER);
 3143              		.loc 1 139 55 is_stmt 0 view .LVU1040
 3144 0154 039B     		ldr	r3, [sp, #12]
 3145 0156 B4F91E10 		ldrsh	r1, [r4, #30]
 3146 015a 3046     		mov	r0, r6
 3147 015c FFF7FEFF 		bl	elastic_diff
 3148              	.LVL289:
 142:Drivers/lvgl/src/core/lv_indev_scroll.c ****         }
 3149              		.loc 1 142 13 view .LVU1041
 3150 0160 4B46     		mov	r3, r9
 139:Drivers/lvgl/src/core/lv_indev_scroll.c ****                                                                    LV_DIR_VER);
 3151              		.loc 1 139 55 view .LVU1042
 3152 0162 0246     		mov	r2, r0
 139:Drivers/lvgl/src/core/lv_indev_scroll.c ****                                                                    LV_DIR_VER);
 3153              		.loc 1 139 53 view .LVU1043
 3154 0164 E083     		strh	r0, [r4, #30]	@ movhi
 142:Drivers/lvgl/src/core/lv_indev_scroll.c ****         }
 3155              		.loc 1 142 13 is_stmt 1 view .LVU1044
 3156 0166 4946     		mov	r1, r9
 3157 0168 3046     		mov	r0, r6
 3158 016a FFF7FEFF 		bl	lv_obj_scroll_by
 3159              	.LVL290:
 3160              	.LBE342:
 179:Drivers/lvgl/src/core/lv_indev_scroll.c ****         /*Revert if scrolled in*/
 3161              		.loc 1 179 5 view .LVU1045
 179:Drivers/lvgl/src/core/lv_indev_scroll.c ****         /*Revert if scrolled in*/
 3162              		.loc 1 179 7 is_stmt 0 view .LVU1046
 3163 016e E369     		ldr	r3, [r4, #28]
 3164 0170 002B     		cmp	r3, #0
 3165 0172 7FF44FAF 		bne	.L228
 3166              	.LVL291:
 3167              	.L250:
 3168              	.LBB343:
 183:Drivers/lvgl/src/core/lv_indev_scroll.c ****             lv_coord_t sb = lv_obj_get_scroll_bottom(scroll_obj);
 3169              		.loc 1 183 13 is_stmt 1 view .LVU1047
 183:Drivers/lvgl/src/core/lv_indev_scroll.c ****             lv_coord_t sb = lv_obj_get_scroll_bottom(scroll_obj);
 3170              		.loc 1 183 29 is_stmt 0 view .LVU1048
 3171 0176 3046     		mov	r0, r6
 3172 0178 FFF7FEFF 		bl	lv_obj_get_scroll_top
ARM GAS  /var/folders/0z/tsy30v1j4xl4_7kw94k978ww0000gn/T//cc5O5B9v.s 			page 90


 3173              	.LVL292:
 3174 017c 0546     		mov	r5, r0
 3175              	.LVL293:
 184:Drivers/lvgl/src/core/lv_indev_scroll.c ****             if(st > 0 || sb > 0) {
 3176              		.loc 1 184 13 is_stmt 1 view .LVU1049
 184:Drivers/lvgl/src/core/lv_indev_scroll.c ****             if(st > 0 || sb > 0) {
 3177              		.loc 1 184 29 is_stmt 0 view .LVU1050
 3178 017e 3046     		mov	r0, r6
 3179 0180 FFF7FEFF 		bl	lv_obj_get_scroll_bottom
 3180              	.LVL294:
 185:Drivers/lvgl/src/core/lv_indev_scroll.c ****                 if(st < 0) {
 3181              		.loc 1 185 13 is_stmt 1 view .LVU1051
 185:Drivers/lvgl/src/core/lv_indev_scroll.c ****                 if(st < 0) {
 3182              		.loc 1 185 15 is_stmt 0 view .LVU1052
 3183 0184 002D     		cmp	r5, #0
 3184 0186 40F38580 		ble	.L281
 189:Drivers/lvgl/src/core/lv_indev_scroll.c ****                     lv_obj_scroll_by(scroll_obj, 0, -sb, LV_ANIM_ON);
 3185              		.loc 1 189 22 is_stmt 1 view .LVU1053
 189:Drivers/lvgl/src/core/lv_indev_scroll.c ****                     lv_obj_scroll_by(scroll_obj, 0, -sb, LV_ANIM_ON);
 3186              		.loc 1 189 24 is_stmt 0 view .LVU1054
 3187 018a 0028     		cmp	r0, #0
 3188 018c BFF669AF 		bge	.L242
 190:Drivers/lvgl/src/core/lv_indev_scroll.c ****                 }
 3189              		.loc 1 190 21 is_stmt 1 view .LVU1055
 3190 0190 4242     		rsbs	r2, r0, #0
 3191 0192 12B2     		sxth	r2, r2
 3192 0194 0123     		movs	r3, #1
 3193 0196 0021     		movs	r1, #0
 3194 0198 3046     		mov	r0, r6
 3195              	.LVL295:
 190:Drivers/lvgl/src/core/lv_indev_scroll.c ****                 }
 3196              		.loc 1 190 21 is_stmt 0 view .LVU1056
 3197 019a FFF7FEFF 		bl	lv_obj_scroll_by
 3198              	.LVL296:
 3199 019e 60E7     		b	.L242
 3200              	.LVL297:
 3201              	.L234:
 190:Drivers/lvgl/src/core/lv_indev_scroll.c ****                 }
 3202              		.loc 1 190 21 view .LVU1057
 3203              	.LBE343:
 3204              	.LBB344:
 146:Drivers/lvgl/src/core/lv_indev_scroll.c ****             proc->types.pointer.scroll_throw_vect.y = 0;
 3205              		.loc 1 146 13 is_stmt 1 view .LVU1058
 3206 01a0 B4F91E50 		ldrsh	r5, [r4, #30]
 3207              	.LVL298:
 3208              	.LBB345:
 3209              	.LBI345:
 581:Drivers/lvgl/src/core/lv_indev_scroll.c **** {
 3210              		.loc 1 581 19 view .LVU1059
 3211              	.LBB346:
 583:Drivers/lvgl/src/core/lv_indev_scroll.c ****     lv_coord_t move = 0;
 3212              		.loc 1 583 5 view .LVU1060
 584:Drivers/lvgl/src/core/lv_indev_scroll.c **** 
 3213              		.loc 1 584 5 view .LVU1061
 586:Drivers/lvgl/src/core/lv_indev_scroll.c ****     lv_coord_t scroll_throw = indev_act->driver->scroll_throw;
 3214              		.loc 1 586 5 view .LVU1062
 586:Drivers/lvgl/src/core/lv_indev_scroll.c ****     lv_coord_t scroll_throw = indev_act->driver->scroll_throw;
ARM GAS  /var/folders/0z/tsy30v1j4xl4_7kw94k978ww0000gn/T//cc5O5B9v.s 			page 91


 3215              		.loc 1 586 30 is_stmt 0 view .LVU1063
 3216 01a4 FFF7FEFF 		bl	lv_indev_get_act
 3217              	.LVL299:
 587:Drivers/lvgl/src/core/lv_indev_scroll.c **** 
 3218              		.loc 1 587 5 is_stmt 1 view .LVU1064
 587:Drivers/lvgl/src/core/lv_indev_scroll.c **** 
 3219              		.loc 1 587 48 is_stmt 0 view .LVU1065
 3220 01a8 0368     		ldr	r3, [r0]
 3221 01aa 597E     		ldrb	r1, [r3, #25]	@ zero_extendqisi2
 3222              	.LVL300:
 589:Drivers/lvgl/src/core/lv_indev_scroll.c ****         move += y;
 3223              		.loc 1 589 5 is_stmt 1 view .LVU1066
 589:Drivers/lvgl/src/core/lv_indev_scroll.c ****         move += y;
 3224              		.loc 1 589 11 view .LVU1067
 3225 01ac 002D     		cmp	r5, #0
 3226 01ae 00F08B80 		beq	.L256
 591:Drivers/lvgl/src/core/lv_indev_scroll.c ****     }
 3227              		.loc 1 591 38 is_stmt 0 view .LVU1068
 3228 01b2 4748     		ldr	r0, .L283
 3229              	.LVL301:
 591:Drivers/lvgl/src/core/lv_indev_scroll.c ****     }
 3230              		.loc 1 591 22 view .LVU1069
 3231 01b4 C1F16401 		rsb	r1, r1, #100
 584:Drivers/lvgl/src/core/lv_indev_scroll.c **** 
 3232              		.loc 1 584 16 view .LVU1070
 3233 01b8 5B46     		mov	r3, fp
 3234              	.LVL302:
 3235              	.L238:
 590:Drivers/lvgl/src/core/lv_indev_scroll.c ****         y = y * (100 - scroll_throw) / 100;
 3236              		.loc 1 590 9 is_stmt 1 view .LVU1071
 590:Drivers/lvgl/src/core/lv_indev_scroll.c ****         y = y * (100 - scroll_throw) / 100;
 3237              		.loc 1 590 14 is_stmt 0 view .LVU1072
 3238 01ba 2B44     		add	r3, r3, r5
 3239              	.LVL303:
 591:Drivers/lvgl/src/core/lv_indev_scroll.c ****     }
 3240              		.loc 1 591 15 view .LVU1073
 3241 01bc 01FB05F5 		mul	r5, r1, r5
 3242              	.LVL304:
 591:Drivers/lvgl/src/core/lv_indev_scroll.c ****     }
 3243              		.loc 1 591 38 view .LVU1074
 3244 01c0 80FB05C2 		smull	ip, r2, r0, r5
 3245 01c4 ED17     		asrs	r5, r5, #31
 3246 01c6 C5EB6215 		rsb	r5, r5, r2, asr #5
 591:Drivers/lvgl/src/core/lv_indev_scroll.c ****     }
 3247              		.loc 1 591 11 view .LVU1075
 3248 01ca 2DB2     		sxth	r5, r5
 590:Drivers/lvgl/src/core/lv_indev_scroll.c ****         y = y * (100 - scroll_throw) / 100;
 3249              		.loc 1 590 14 view .LVU1076
 3250 01cc 1BB2     		sxth	r3, r3
 3251              	.LVL305:
 591:Drivers/lvgl/src/core/lv_indev_scroll.c ****     }
 3252              		.loc 1 591 9 is_stmt 1 view .LVU1077
 589:Drivers/lvgl/src/core/lv_indev_scroll.c ****         move += y;
 3253              		.loc 1 589 11 view .LVU1078
 3254 01ce 002D     		cmp	r5, #0
 3255 01d0 F3D1     		bne	.L238
 3256              	.LVL306:
ARM GAS  /var/folders/0z/tsy30v1j4xl4_7kw94k978ww0000gn/T//cc5O5B9v.s 			page 92


 3257              	.L274:
 589:Drivers/lvgl/src/core/lv_indev_scroll.c ****         move += y;
 3258              		.loc 1 589 11 is_stmt 0 view .LVU1079
 3259              	.LBE346:
 3260              	.LBE345:
 3261              	.LBB349:
 3262              	.LBB350:
 559:Drivers/lvgl/src/core/lv_indev_scroll.c ****             *diff_y = proc->types.pointer.scroll_area.y1 - proc->types.pointer.scroll_sum.y;
 3263              		.loc 1 559 42 view .LVU1080
 3264 01d2 B4F91A00 		ldrsh	r0, [r4, #26]
 559:Drivers/lvgl/src/core/lv_indev_scroll.c ****             *diff_y = proc->types.pointer.scroll_area.y1 - proc->types.pointer.scroll_sum.y;
 3265              		.loc 1 559 88 view .LVU1081
 3266 01d6 B4F93610 		ldrsh	r1, [r4, #54]
 3267              	.LBE350:
 3268              	.LBE349:
 3269              	.LBB355:
 3270              	.LBB347:
 589:Drivers/lvgl/src/core/lv_indev_scroll.c ****         move += y;
 3271              		.loc 1 589 11 view .LVU1082
 3272 01da 1A46     		mov	r2, r3
 593:Drivers/lvgl/src/core/lv_indev_scroll.c **** }
 3273              		.loc 1 593 5 is_stmt 1 view .LVU1083
 3274              	.LVL307:
 593:Drivers/lvgl/src/core/lv_indev_scroll.c **** }
 3275              		.loc 1 593 5 is_stmt 0 view .LVU1084
 3276              	.LBE347:
 3277              	.LBE355:
 147:Drivers/lvgl/src/core/lv_indev_scroll.c ****             scroll_limit_diff(proc, NULL, &diff_y);
 3278              		.loc 1 147 13 is_stmt 1 view .LVU1085
 3279              	.LBB356:
 3280              	.LBB351:
 559:Drivers/lvgl/src/core/lv_indev_scroll.c ****             *diff_y = proc->types.pointer.scroll_area.y1 - proc->types.pointer.scroll_sum.y;
 3281              		.loc 1 559 45 is_stmt 0 view .LVU1086
 3282 01dc 0244     		add	r2, r2, r0
 3283              	.LBE351:
 3284              	.LBE356:
 147:Drivers/lvgl/src/core/lv_indev_scroll.c ****             scroll_limit_diff(proc, NULL, &diff_y);
 3285              		.loc 1 147 53 view .LVU1087
 3286 01de 0025     		movs	r5, #0
 3287              	.LBB357:
 3288              	.LBB352:
 559:Drivers/lvgl/src/core/lv_indev_scroll.c ****             *diff_y = proc->types.pointer.scroll_area.y1 - proc->types.pointer.scroll_sum.y;
 3289              		.loc 1 559 11 view .LVU1088
 3290 01e0 8A42     		cmp	r2, r1
 3291              	.LBE352:
 3292              	.LBE357:
 147:Drivers/lvgl/src/core/lv_indev_scroll.c ****             scroll_limit_diff(proc, NULL, &diff_y);
 3293              		.loc 1 147 53 view .LVU1089
 3294 01e2 E583     		strh	r5, [r4, #30]	@ movhi
 148:Drivers/lvgl/src/core/lv_indev_scroll.c ****             lv_coord_t y = find_snap_point_y(scroll_obj, LV_COORD_MIN, LV_COORD_MAX, diff_y);
 3295              		.loc 1 148 13 is_stmt 1 view .LVU1090
 3296              	.LVL308:
 3297              	.LBB358:
 3298              	.LBI349:
 556:Drivers/lvgl/src/core/lv_indev_scroll.c **** {
 3299              		.loc 1 556 13 view .LVU1091
 3300              	.LBB353:
ARM GAS  /var/folders/0z/tsy30v1j4xl4_7kw94k978ww0000gn/T//cc5O5B9v.s 			page 93


 558:Drivers/lvgl/src/core/lv_indev_scroll.c ****         if(proc->types.pointer.scroll_sum.y + *diff_y < proc->types.pointer.scroll_area.y1) {
 3301              		.loc 1 558 5 view .LVU1092
 559:Drivers/lvgl/src/core/lv_indev_scroll.c ****             *diff_y = proc->types.pointer.scroll_area.y1 - proc->types.pointer.scroll_sum.y;
 3302              		.loc 1 559 9 view .LVU1093
 559:Drivers/lvgl/src/core/lv_indev_scroll.c ****             *diff_y = proc->types.pointer.scroll_area.y1 - proc->types.pointer.scroll_sum.y;
 3303              		.loc 1 559 11 is_stmt 0 view .LVU1094
 3304 01e4 02DA     		bge	.L239
 560:Drivers/lvgl/src/core/lv_indev_scroll.c ****         }
 3305              		.loc 1 560 13 is_stmt 1 view .LVU1095
 560:Drivers/lvgl/src/core/lv_indev_scroll.c ****         }
 3306              		.loc 1 560 58 is_stmt 0 view .LVU1096
 3307 01e6 091A     		subs	r1, r1, r0
 3308 01e8 0BB2     		sxth	r3, r1
 3309              	.LVL309:
 563:Drivers/lvgl/src/core/lv_indev_scroll.c ****             *diff_y = proc->types.pointer.scroll_area.y2 - proc->types.pointer.scroll_sum.y;
 3310              		.loc 1 563 45 view .LVU1097
 3311 01ea 1A18     		adds	r2, r3, r0
 3312              	.L239:
 563:Drivers/lvgl/src/core/lv_indev_scroll.c ****             *diff_y = proc->types.pointer.scroll_area.y2 - proc->types.pointer.scroll_sum.y;
 3313              		.loc 1 563 9 is_stmt 1 view .LVU1098
 563:Drivers/lvgl/src/core/lv_indev_scroll.c ****             *diff_y = proc->types.pointer.scroll_area.y2 - proc->types.pointer.scroll_sum.y;
 3314              		.loc 1 563 88 is_stmt 0 view .LVU1099
 3315 01ec B4F93A10 		ldrsh	r1, [r4, #58]
 563:Drivers/lvgl/src/core/lv_indev_scroll.c ****             *diff_y = proc->types.pointer.scroll_area.y2 - proc->types.pointer.scroll_sum.y;
 3316              		.loc 1 563 11 view .LVU1100
 3317 01f0 9142     		cmp	r1, r2
 564:Drivers/lvgl/src/core/lv_indev_scroll.c ****         }
 3318              		.loc 1 564 58 view .LVU1101
 3319 01f2 BEBF     		ittt	lt
 3320 01f4 091A     		sublt	r1, r1, r0
 3321 01f6 8DB2     		uxthlt	r5, r1
 3322 01f8 0BB2     		sxthlt	r3, r1
 3323              	.LVL310:
 564:Drivers/lvgl/src/core/lv_indev_scroll.c ****         }
 3324              		.loc 1 564 58 view .LVU1102
 3325              	.LBE353:
 3326              	.LBE358:
 149:Drivers/lvgl/src/core/lv_indev_scroll.c ****             lv_obj_scroll_by(scroll_obj, 0, diff_y + y, LV_ANIM_ON);
 3327              		.loc 1 149 28 view .LVU1103
 3328 01fa 41F6FF72 		movw	r2, #8191
 3329 01fe 3549     		ldr	r1, .L283+4
 3330 0200 3046     		mov	r0, r6
 150:Drivers/lvgl/src/core/lv_indev_scroll.c ****         }
 3331              		.loc 1 150 52 view .LVU1104
 3332 0202 A8BF     		it	ge
 3333 0204 9DB2     		uxthge	r5, r3
 3334              	.LBB359:
 3335              	.LBB354:
 564:Drivers/lvgl/src/core/lv_indev_scroll.c ****         }
 3336              		.loc 1 564 13 is_stmt 1 view .LVU1105
 3337              	.LVL311:
 568:Drivers/lvgl/src/core/lv_indev_scroll.c ****         if(proc->types.pointer.scroll_sum.x + *diff_x < proc->types.pointer.scroll_area.x1) {
 3338              		.loc 1 568 5 view .LVU1106
 568:Drivers/lvgl/src/core/lv_indev_scroll.c ****         if(proc->types.pointer.scroll_sum.x + *diff_x < proc->types.pointer.scroll_area.x1) {
 3339              		.loc 1 568 5 is_stmt 0 view .LVU1107
 3340              	.LBE354:
 3341              	.LBE359:
ARM GAS  /var/folders/0z/tsy30v1j4xl4_7kw94k978ww0000gn/T//cc5O5B9v.s 			page 94


 149:Drivers/lvgl/src/core/lv_indev_scroll.c ****             lv_obj_scroll_by(scroll_obj, 0, diff_y + y, LV_ANIM_ON);
 3342              		.loc 1 149 13 is_stmt 1 view .LVU1108
 149:Drivers/lvgl/src/core/lv_indev_scroll.c ****             lv_obj_scroll_by(scroll_obj, 0, diff_y + y, LV_ANIM_ON);
 3343              		.loc 1 149 28 is_stmt 0 view .LVU1109
 3344 0206 FFF7FEFF 		bl	find_snap_point_y
 3345              	.LVL312:
 150:Drivers/lvgl/src/core/lv_indev_scroll.c ****         }
 3346              		.loc 1 150 13 is_stmt 1 view .LVU1110
 150:Drivers/lvgl/src/core/lv_indev_scroll.c ****         }
 3347              		.loc 1 150 52 is_stmt 0 view .LVU1111
 3348 020a 2844     		add	r0, r0, r5
 3349              	.LVL313:
 150:Drivers/lvgl/src/core/lv_indev_scroll.c ****         }
 3350              		.loc 1 150 13 view .LVU1112
 3351 020c 02B2     		sxth	r2, r0
 3352 020e 0123     		movs	r3, #1
 3353 0210 0021     		movs	r1, #0
 3354 0212 3046     		mov	r0, r6
 3355 0214 FFF7FEFF 		bl	lv_obj_scroll_by
 3356              	.LVL314:
 150:Drivers/lvgl/src/core/lv_indev_scroll.c ****         }
 3357              		.loc 1 150 13 view .LVU1113
 3358              	.LBE344:
 179:Drivers/lvgl/src/core/lv_indev_scroll.c ****         /*Revert if scrolled in*/
 3359              		.loc 1 179 5 is_stmt 1 view .LVU1114
 179:Drivers/lvgl/src/core/lv_indev_scroll.c ****         /*Revert if scrolled in*/
 3360              		.loc 1 179 7 is_stmt 0 view .LVU1115
 3361 0218 E369     		ldr	r3, [r4, #28]
 3362 021a 002B     		cmp	r3, #0
 3363 021c 3FF421AF 		beq	.L242
 3364 0220 F8E6     		b	.L228
 3365              	.L279:
 3366              	.LBB361:
 197:Drivers/lvgl/src/core/lv_indev_scroll.c ****             lv_coord_t sr = lv_obj_get_scroll_right(scroll_obj);
 3367              		.loc 1 197 13 is_stmt 1 view .LVU1116
 197:Drivers/lvgl/src/core/lv_indev_scroll.c ****             lv_coord_t sr = lv_obj_get_scroll_right(scroll_obj);
 3368              		.loc 1 197 29 is_stmt 0 view .LVU1117
 3369 0222 3046     		mov	r0, r6
 3370 0224 FFF7FEFF 		bl	lv_obj_get_scroll_left
 3371              	.LVL315:
 3372 0228 0546     		mov	r5, r0
 3373              	.LVL316:
 198:Drivers/lvgl/src/core/lv_indev_scroll.c ****             if(sl > 0 || sr > 0) {
 3374              		.loc 1 198 13 is_stmt 1 view .LVU1118
 198:Drivers/lvgl/src/core/lv_indev_scroll.c ****             if(sl > 0 || sr > 0) {
 3375              		.loc 1 198 29 is_stmt 0 view .LVU1119
 3376 022a 3046     		mov	r0, r6
 3377 022c FFF7FEFF 		bl	lv_obj_get_scroll_right
 3378              	.LVL317:
 199:Drivers/lvgl/src/core/lv_indev_scroll.c ****                 if(sl < 0) {
 3379              		.loc 1 199 13 is_stmt 1 view .LVU1120
 199:Drivers/lvgl/src/core/lv_indev_scroll.c ****                 if(sl < 0) {
 3380              		.loc 1 199 15 is_stmt 0 view .LVU1121
 3381 0230 002D     		cmp	r5, #0
 3382 0232 3CDD     		ble	.L282
 203:Drivers/lvgl/src/core/lv_indev_scroll.c ****                     lv_obj_scroll_by(scroll_obj, -sr, 0, LV_ANIM_ON);
 3383              		.loc 1 203 22 is_stmt 1 view .LVU1122
ARM GAS  /var/folders/0z/tsy30v1j4xl4_7kw94k978ww0000gn/T//cc5O5B9v.s 			page 95


 203:Drivers/lvgl/src/core/lv_indev_scroll.c ****                     lv_obj_scroll_by(scroll_obj, -sr, 0, LV_ANIM_ON);
 3384              		.loc 1 203 24 is_stmt 0 view .LVU1123
 3385 0234 0028     		cmp	r0, #0
 3386 0236 BFF618AF 		bge	.L253
 204:Drivers/lvgl/src/core/lv_indev_scroll.c ****                 }
 3387              		.loc 1 204 21 is_stmt 1 view .LVU1124
 3388 023a 4142     		rsbs	r1, r0, #0
 3389 023c 4246     		mov	r2, r8
 3390 023e 09B2     		sxth	r1, r1
 3391 0240 0123     		movs	r3, #1
 3392 0242 3046     		mov	r0, r6
 3393              	.LVL318:
 204:Drivers/lvgl/src/core/lv_indev_scroll.c ****                 }
 3394              		.loc 1 204 21 is_stmt 0 view .LVU1125
 3395 0244 FFF7FEFF 		bl	lv_obj_scroll_by
 3396              	.LVL319:
 3397 0248 0FE7     		b	.L253
 3398              	.LVL320:
 3399              	.L280:
 204:Drivers/lvgl/src/core/lv_indev_scroll.c ****                 }
 3400              		.loc 1 204 21 view .LVU1126
 3401              	.LBE361:
 3402              	.LBB362:
 157:Drivers/lvgl/src/core/lv_indev_scroll.c ****                 proc->types.pointer.scroll_throw_vect.x * (100 - scroll_throw) / 100;
 3403              		.loc 1 157 13 is_stmt 1 view .LVU1127
 158:Drivers/lvgl/src/core/lv_indev_scroll.c **** 
 3404              		.loc 1 158 54 is_stmt 0 view .LVU1128
 3405 024a B4F91C30 		ldrsh	r3, [r4, #28]
 158:Drivers/lvgl/src/core/lv_indev_scroll.c **** 
 3406              		.loc 1 158 80 view .LVU1129
 3407 024e 204A     		ldr	r2, .L283
 158:Drivers/lvgl/src/core/lv_indev_scroll.c **** 
 3408              		.loc 1 158 64 view .LVU1130
 3409 0250 C5F16405 		rsb	r5, r5, #100
 3410              	.LVL321:
 158:Drivers/lvgl/src/core/lv_indev_scroll.c **** 
 3411              		.loc 1 158 57 view .LVU1131
 3412 0254 05FB03F3 		mul	r3, r5, r3
 158:Drivers/lvgl/src/core/lv_indev_scroll.c **** 
 3413              		.loc 1 158 80 view .LVU1132
 3414 0258 82FB0312 		smull	r1, r2, r2, r3
 3415 025c DB17     		asrs	r3, r3, #31
 3416 025e C3EB6213 		rsb	r3, r3, r2, asr #5
 157:Drivers/lvgl/src/core/lv_indev_scroll.c ****                 proc->types.pointer.scroll_throw_vect.x * (100 - scroll_throw) / 100;
 3417              		.loc 1 157 53 view .LVU1133
 3418 0262 A383     		strh	r3, [r4, #28]	@ movhi
 160:Drivers/lvgl/src/core/lv_indev_scroll.c ****             lv_coord_t sr = lv_obj_get_scroll_right(scroll_obj);
 3419              		.loc 1 160 13 is_stmt 1 view .LVU1134
 160:Drivers/lvgl/src/core/lv_indev_scroll.c ****             lv_coord_t sr = lv_obj_get_scroll_right(scroll_obj);
 3420              		.loc 1 160 29 is_stmt 0 view .LVU1135
 3421 0264 3046     		mov	r0, r6
 3422              	.LVL322:
 160:Drivers/lvgl/src/core/lv_indev_scroll.c ****             lv_coord_t sr = lv_obj_get_scroll_right(scroll_obj);
 3423              		.loc 1 160 29 view .LVU1136
 3424 0266 FFF7FEFF 		bl	lv_obj_get_scroll_left
 3425              	.LVL323:
 3426 026a 0390     		str	r0, [sp, #12]
ARM GAS  /var/folders/0z/tsy30v1j4xl4_7kw94k978ww0000gn/T//cc5O5B9v.s 			page 96


 3427              	.LVL324:
 161:Drivers/lvgl/src/core/lv_indev_scroll.c **** 
 3428              		.loc 1 161 13 is_stmt 1 view .LVU1137
 161:Drivers/lvgl/src/core/lv_indev_scroll.c **** 
 3429              		.loc 1 161 29 is_stmt 0 view .LVU1138
 3430 026c 3046     		mov	r0, r6
 3431 026e FFF7FEFF 		bl	lv_obj_get_scroll_right
 3432              	.LVL325:
 163:Drivers/lvgl/src/core/lv_indev_scroll.c ****                                                                    LV_DIR_HOR);
 3433              		.loc 1 163 55 view .LVU1139
 3434 0272 CDF800A0 		str	r10, [sp]
 3435 0276 039A     		ldr	r2, [sp, #12]
 3436 0278 B4F91C10 		ldrsh	r1, [r4, #28]
 161:Drivers/lvgl/src/core/lv_indev_scroll.c **** 
 3437              		.loc 1 161 29 view .LVU1140
 3438 027c 0346     		mov	r3, r0
 3439              	.LVL326:
 163:Drivers/lvgl/src/core/lv_indev_scroll.c ****                                                                    LV_DIR_HOR);
 3440              		.loc 1 163 13 is_stmt 1 view .LVU1141
 163:Drivers/lvgl/src/core/lv_indev_scroll.c ****                                                                    LV_DIR_HOR);
 3441              		.loc 1 163 55 is_stmt 0 view .LVU1142
 3442 027e 3046     		mov	r0, r6
 3443 0280 FFF7FEFF 		bl	elastic_diff
 3444              	.LVL327:
 166:Drivers/lvgl/src/core/lv_indev_scroll.c ****         }
 3445              		.loc 1 166 13 view .LVU1143
 3446 0284 4346     		mov	r3, r8
 163:Drivers/lvgl/src/core/lv_indev_scroll.c ****                                                                    LV_DIR_HOR);
 3447              		.loc 1 163 55 view .LVU1144
 3448 0286 0146     		mov	r1, r0
 163:Drivers/lvgl/src/core/lv_indev_scroll.c ****                                                                    LV_DIR_HOR);
 3449              		.loc 1 163 53 view .LVU1145
 3450 0288 A083     		strh	r0, [r4, #28]	@ movhi
 166:Drivers/lvgl/src/core/lv_indev_scroll.c ****         }
 3451              		.loc 1 166 13 is_stmt 1 view .LVU1146
 3452 028a 4246     		mov	r2, r8
 3453 028c 3046     		mov	r0, r6
 3454 028e FFF7FEFF 		bl	lv_obj_scroll_by
 3455              	.LVL328:
 3456              	.LBE362:
 3457 0292 DFE6     		b	.L243
 3458              	.LVL329:
 3459              	.L281:
 3460              	.LBB363:
 185:Drivers/lvgl/src/core/lv_indev_scroll.c ****                 if(st < 0) {
 3461              		.loc 1 185 23 is_stmt 0 discriminator 1 view .LVU1147
 3462 0294 0028     		cmp	r0, #0
 3463 0296 7FF7E4AE 		ble	.L242
 186:Drivers/lvgl/src/core/lv_indev_scroll.c ****                     lv_obj_scroll_by(scroll_obj, 0, st, LV_ANIM_ON);
 3464              		.loc 1 186 17 is_stmt 1 view .LVU1148
 186:Drivers/lvgl/src/core/lv_indev_scroll.c ****                     lv_obj_scroll_by(scroll_obj, 0, st, LV_ANIM_ON);
 3465              		.loc 1 186 19 is_stmt 0 view .LVU1149
 3466 029a 002D     		cmp	r5, #0
 3467 029c 3FF4E1AE 		beq	.L242
 187:Drivers/lvgl/src/core/lv_indev_scroll.c ****                 }
 3468              		.loc 1 187 21 is_stmt 1 view .LVU1150
 3469 02a0 2A46     		mov	r2, r5
ARM GAS  /var/folders/0z/tsy30v1j4xl4_7kw94k978ww0000gn/T//cc5O5B9v.s 			page 97


 3470 02a2 0123     		movs	r3, #1
 3471 02a4 0021     		movs	r1, #0
 3472 02a6 3046     		mov	r0, r6
 3473              	.LVL330:
 187:Drivers/lvgl/src/core/lv_indev_scroll.c ****                 }
 3474              		.loc 1 187 21 is_stmt 0 view .LVU1151
 3475 02a8 FFF7FEFF 		bl	lv_obj_scroll_by
 3476              	.LVL331:
 3477 02ac D9E6     		b	.L242
 3478              	.LVL332:
 3479              	.L282:
 187:Drivers/lvgl/src/core/lv_indev_scroll.c ****                 }
 3480              		.loc 1 187 21 view .LVU1152
 3481              	.LBE363:
 3482              	.LBB364:
 199:Drivers/lvgl/src/core/lv_indev_scroll.c ****                 if(sl < 0) {
 3483              		.loc 1 199 23 discriminator 1 view .LVU1153
 3484 02ae 0028     		cmp	r0, #0
 3485 02b0 7FF7DBAE 		ble	.L253
 200:Drivers/lvgl/src/core/lv_indev_scroll.c ****                     lv_obj_scroll_by(scroll_obj, sl, 0, LV_ANIM_ON);
 3486              		.loc 1 200 17 is_stmt 1 view .LVU1154
 200:Drivers/lvgl/src/core/lv_indev_scroll.c ****                     lv_obj_scroll_by(scroll_obj, sl, 0, LV_ANIM_ON);
 3487              		.loc 1 200 19 is_stmt 0 view .LVU1155
 3488 02b4 002D     		cmp	r5, #0
 3489 02b6 3FF4D8AE 		beq	.L253
 201:Drivers/lvgl/src/core/lv_indev_scroll.c ****                 }
 3490              		.loc 1 201 21 is_stmt 1 view .LVU1156
 3491 02ba 4246     		mov	r2, r8
 3492 02bc 2946     		mov	r1, r5
 3493 02be 0123     		movs	r3, #1
 3494 02c0 3046     		mov	r0, r6
 3495              	.LVL333:
 201:Drivers/lvgl/src/core/lv_indev_scroll.c ****                 }
 3496              		.loc 1 201 21 is_stmt 0 view .LVU1157
 3497 02c2 FFF7FEFF 		bl	lv_obj_scroll_by
 3498              	.LVL334:
 3499 02c6 D0E6     		b	.L253
 3500              	.LVL335:
 3501              	.L256:
 201:Drivers/lvgl/src/core/lv_indev_scroll.c ****                 }
 3502              		.loc 1 201 21 view .LVU1158
 3503              	.LBE364:
 3504              	.LBB365:
 3505              	.LBB360:
 3506              	.LBB348:
 584:Drivers/lvgl/src/core/lv_indev_scroll.c **** 
 3507              		.loc 1 584 16 view .LVU1159
 3508 02c8 2B46     		mov	r3, r5
 3509              	.LVL336:
 584:Drivers/lvgl/src/core/lv_indev_scroll.c **** 
 3510              		.loc 1 584 16 view .LVU1160
 3511 02ca 82E7     		b	.L274
 3512              	.LVL337:
 3513              	.L257:
 584:Drivers/lvgl/src/core/lv_indev_scroll.c **** 
 3514              		.loc 1 584 16 view .LVU1161
 3515              	.LBE348:
ARM GAS  /var/folders/0z/tsy30v1j4xl4_7kw94k978ww0000gn/T//cc5O5B9v.s 			page 98


 3516              	.LBE360:
 3517              	.LBE365:
 3518              	.LBB366:
 3519              	.LBB341:
 3520              	.LBB329:
 600:Drivers/lvgl/src/core/lv_indev_scroll.c **** 
 3521              		.loc 1 600 16 view .LVU1162
 3522 02cc 2B46     		mov	r3, r5
 3523              	.LVL338:
 600:Drivers/lvgl/src/core/lv_indev_scroll.c **** 
 3524              		.loc 1 600 16 view .LVU1163
 3525 02ce 00E7     		b	.L275
 3526              	.L284:
 3527              		.align	2
 3528              	.L283:
 3529 02d0 1F85EB51 		.word	1374389535
 3530 02d4 01E0FFFF 		.word	-8191
 3531              	.LBE329:
 3532              	.LBE341:
 3533              	.LBE366:
 3534              		.cfi_endproc
 3535              	.LFE162:
 3537              		.section	.text.lv_indev_scroll_throw_predict,"ax",%progbits
 3538              		.align	1
 3539              		.p2align 2,,3
 3540              		.global	lv_indev_scroll_throw_predict
 3541              		.syntax unified
 3542              		.thumb
 3543              		.thumb_func
 3545              	lv_indev_scroll_throw_predict:
 3546              	.LVL339:
 3547              	.LFB163:
 224:Drivers/lvgl/src/core/lv_indev_scroll.c ****     if(indev == NULL) return 0;
 3548              		.loc 1 224 1 is_stmt 1 view -0
 3549              		.cfi_startproc
 3550              		@ args = 0, pretend = 0, frame = 0
 3551              		@ frame_needed = 0, uses_anonymous_args = 0
 225:Drivers/lvgl/src/core/lv_indev_scroll.c ****     lv_coord_t v;
 3552              		.loc 1 225 5 view .LVU1165
 225:Drivers/lvgl/src/core/lv_indev_scroll.c ****     lv_coord_t v;
 3553              		.loc 1 225 7 is_stmt 0 view .LVU1166
 3554 0000 00B3     		cbz	r0, .L295
 226:Drivers/lvgl/src/core/lv_indev_scroll.c ****     switch(dir) {
 3555              		.loc 1 226 5 is_stmt 1 view .LVU1167
 227:Drivers/lvgl/src/core/lv_indev_scroll.c ****         case LV_DIR_VER:
 3556              		.loc 1 227 5 view .LVU1168
 3557 0002 0329     		cmp	r1, #3
 3558 0004 1BD0     		beq	.L287
 3559 0006 0C29     		cmp	r1, #12
 3560 0008 17D1     		bne	.L291
 229:Drivers/lvgl/src/core/lv_indev_scroll.c ****             break;
 3561              		.loc 1 229 13 view .LVU1169
 229:Drivers/lvgl/src/core/lv_indev_scroll.c ****             break;
 3562              		.loc 1 229 15 is_stmt 0 view .LVU1170
 3563 000a B0F92620 		ldrsh	r2, [r0, #38]
 3564              	.LVL340:
 230:Drivers/lvgl/src/core/lv_indev_scroll.c ****         case LV_DIR_HOR:
ARM GAS  /var/folders/0z/tsy30v1j4xl4_7kw94k978ww0000gn/T//cc5O5B9v.s 			page 99


 3565              		.loc 1 230 13 is_stmt 1 view .LVU1171
 3566              	.L288:
 238:Drivers/lvgl/src/core/lv_indev_scroll.c ****     lv_coord_t sum = 0;
 3567              		.loc 1 238 5 view .LVU1172
 238:Drivers/lvgl/src/core/lv_indev_scroll.c ****     lv_coord_t sum = 0;
 3568              		.loc 1 238 44 is_stmt 0 view .LVU1173
 3569 000e 0368     		ldr	r3, [r0]
 3570 0010 93F819C0 		ldrb	ip, [r3, #25]	@ zero_extendqisi2
 3571              	.LVL341:
 239:Drivers/lvgl/src/core/lv_indev_scroll.c ****     while(v) {
 3572              		.loc 1 239 5 is_stmt 1 view .LVU1174
 240:Drivers/lvgl/src/core/lv_indev_scroll.c ****         sum += v;
 3573              		.loc 1 240 5 view .LVU1175
 240:Drivers/lvgl/src/core/lv_indev_scroll.c ****         sum += v;
 3574              		.loc 1 240 11 view .LVU1176
 3575 0014 8AB1     		cbz	r2, .L291
 224:Drivers/lvgl/src/core/lv_indev_scroll.c ****     if(indev == NULL) return 0;
 3576              		.loc 1 224 1 is_stmt 0 view .LVU1177
 3577 0016 10B5     		push	{r4, lr}
 3578              		.cfi_def_cfa_offset 8
 3579              		.cfi_offset 4, -8
 3580              		.cfi_offset 14, -4
 242:Drivers/lvgl/src/core/lv_indev_scroll.c ****     }
 3581              		.loc 1 242 38 view .LVU1178
 3582 0018 0B4C     		ldr	r4, .L298
 242:Drivers/lvgl/src/core/lv_indev_scroll.c ****     }
 3583              		.loc 1 242 22 view .LVU1179
 3584 001a CCF1640C 		rsb	ip, ip, #100
 239:Drivers/lvgl/src/core/lv_indev_scroll.c ****     while(v) {
 3585              		.loc 1 239 16 view .LVU1180
 3586 001e 0020     		movs	r0, #0
 3587              	.LVL342:
 3588              	.L289:
 241:Drivers/lvgl/src/core/lv_indev_scroll.c ****         v = v * (100 - scroll_throw) / 100;
 3589              		.loc 1 241 9 is_stmt 1 view .LVU1181
 242:Drivers/lvgl/src/core/lv_indev_scroll.c ****     }
 3590              		.loc 1 242 15 is_stmt 0 view .LVU1182
 3591 0020 0CFB02F3 		mul	r3, ip, r2
 242:Drivers/lvgl/src/core/lv_indev_scroll.c ****     }
 3592              		.loc 1 242 38 view .LVU1183
 3593 0024 84FB03E1 		smull	lr, r1, r4, r3
 3594 0028 DB17     		asrs	r3, r3, #31
 3595 002a C3EB6113 		rsb	r3, r3, r1, asr #5
 241:Drivers/lvgl/src/core/lv_indev_scroll.c ****         v = v * (100 - scroll_throw) / 100;
 3596              		.loc 1 241 13 view .LVU1184
 3597 002e 1044     		add	r0, r0, r2
 3598              	.LVL343:
 242:Drivers/lvgl/src/core/lv_indev_scroll.c ****     }
 3599              		.loc 1 242 11 view .LVU1185
 3600 0030 1AB2     		sxth	r2, r3
 3601              	.LVL344:
 241:Drivers/lvgl/src/core/lv_indev_scroll.c ****         v = v * (100 - scroll_throw) / 100;
 3602              		.loc 1 241 13 view .LVU1186
 3603 0032 00B2     		sxth	r0, r0
 3604              	.LVL345:
 242:Drivers/lvgl/src/core/lv_indev_scroll.c ****     }
 3605              		.loc 1 242 9 is_stmt 1 view .LVU1187
ARM GAS  /var/folders/0z/tsy30v1j4xl4_7kw94k978ww0000gn/T//cc5O5B9v.s 			page 100


 240:Drivers/lvgl/src/core/lv_indev_scroll.c ****         sum += v;
 3606              		.loc 1 240 11 view .LVU1188
 3607 0034 002A     		cmp	r2, #0
 3608 0036 F3D1     		bne	.L289
 246:Drivers/lvgl/src/core/lv_indev_scroll.c **** 
 3609              		.loc 1 246 1 is_stmt 0 view .LVU1189
 3610 0038 10BD     		pop	{r4, pc}
 3611              	.LVL346:
 3612              	.L291:
 3613              		.cfi_def_cfa_offset 0
 3614              		.cfi_restore 4
 3615              		.cfi_restore 14
 227:Drivers/lvgl/src/core/lv_indev_scroll.c ****         case LV_DIR_VER:
 3616              		.loc 1 227 5 view .LVU1190
 3617 003a 0020     		movs	r0, #0
 3618              	.LVL347:
 227:Drivers/lvgl/src/core/lv_indev_scroll.c ****         case LV_DIR_VER:
 3619              		.loc 1 227 5 view .LVU1191
 3620 003c 7047     		bx	lr
 3621              	.LVL348:
 3622              	.L287:
 232:Drivers/lvgl/src/core/lv_indev_scroll.c ****             break;
 3623              		.loc 1 232 13 is_stmt 1 view .LVU1192
 232:Drivers/lvgl/src/core/lv_indev_scroll.c ****             break;
 3624              		.loc 1 232 15 is_stmt 0 view .LVU1193
 3625 003e B0F92420 		ldrsh	r2, [r0, #36]
 3626              	.LVL349:
 233:Drivers/lvgl/src/core/lv_indev_scroll.c ****         default:
 3627              		.loc 1 233 13 is_stmt 1 view .LVU1194
 3628 0042 E4E7     		b	.L288
 3629              	.LVL350:
 3630              	.L295:
 246:Drivers/lvgl/src/core/lv_indev_scroll.c **** 
 3631              		.loc 1 246 1 is_stmt 0 view .LVU1195
 3632 0044 7047     		bx	lr
 3633              	.L299:
 3634 0046 00BF     		.align	2
 3635              	.L298:
 3636 0048 1F85EB51 		.word	1374389535
 3637              		.cfi_endproc
 3638              	.LFE163:
 3640              		.section	.text.lv_indev_scroll_get_snap_dist,"ax",%progbits
 3641              		.align	1
 3642              		.p2align 2,,3
 3643              		.global	lv_indev_scroll_get_snap_dist
 3644              		.syntax unified
 3645              		.thumb
 3646              		.thumb_func
 3648              	lv_indev_scroll_get_snap_dist:
 3649              	.LVL351:
 3650              	.LFB164:
 249:Drivers/lvgl/src/core/lv_indev_scroll.c ****     p->x = find_snap_point_x(obj, obj->coords.x1, obj->coords.x2, 0);
 3651              		.loc 1 249 1 is_stmt 1 view -0
 3652              		.cfi_startproc
 3653              		@ args = 0, pretend = 0, frame = 0
 3654              		@ frame_needed = 0, uses_anonymous_args = 0
 250:Drivers/lvgl/src/core/lv_indev_scroll.c ****     p->y = find_snap_point_y(obj, obj->coords.y1, obj->coords.y2, 0);
ARM GAS  /var/folders/0z/tsy30v1j4xl4_7kw94k978ww0000gn/T//cc5O5B9v.s 			page 101


 3655              		.loc 1 250 5 view .LVU1197
 249:Drivers/lvgl/src/core/lv_indev_scroll.c ****     p->x = find_snap_point_x(obj, obj->coords.x1, obj->coords.x2, 0);
 3656              		.loc 1 249 1 is_stmt 0 view .LVU1198
 3657 0000 38B5     		push	{r3, r4, r5, lr}
 3658              		.cfi_def_cfa_offset 16
 3659              		.cfi_offset 3, -16
 3660              		.cfi_offset 4, -12
 3661              		.cfi_offset 5, -8
 3662              		.cfi_offset 14, -4
 250:Drivers/lvgl/src/core/lv_indev_scroll.c ****     p->y = find_snap_point_y(obj, obj->coords.y1, obj->coords.y2, 0);
 3663              		.loc 1 250 12 view .LVU1199
 3664 0002 B0F91820 		ldrsh	r2, [r0, #24]
 249:Drivers/lvgl/src/core/lv_indev_scroll.c ****     p->x = find_snap_point_x(obj, obj->coords.x1, obj->coords.x2, 0);
 3665              		.loc 1 249 1 view .LVU1200
 3666 0006 0D46     		mov	r5, r1
 250:Drivers/lvgl/src/core/lv_indev_scroll.c ****     p->y = find_snap_point_y(obj, obj->coords.y1, obj->coords.y2, 0);
 3667              		.loc 1 250 12 view .LVU1201
 3668 0008 0023     		movs	r3, #0
 3669 000a B0F91410 		ldrsh	r1, [r0, #20]
 3670              	.LVL352:
 249:Drivers/lvgl/src/core/lv_indev_scroll.c ****     p->x = find_snap_point_x(obj, obj->coords.x1, obj->coords.x2, 0);
 3671              		.loc 1 249 1 view .LVU1202
 3672 000e 0446     		mov	r4, r0
 250:Drivers/lvgl/src/core/lv_indev_scroll.c ****     p->y = find_snap_point_y(obj, obj->coords.y1, obj->coords.y2, 0);
 3673              		.loc 1 250 12 view .LVU1203
 3674 0010 FFF7FEFF 		bl	find_snap_point_x
 3675              	.LVL353:
 251:Drivers/lvgl/src/core/lv_indev_scroll.c **** }
 3676              		.loc 1 251 12 view .LVU1204
 3677 0014 B4F91A20 		ldrsh	r2, [r4, #26]
 3678 0018 B4F91610 		ldrsh	r1, [r4, #22]
 250:Drivers/lvgl/src/core/lv_indev_scroll.c ****     p->y = find_snap_point_y(obj, obj->coords.y1, obj->coords.y2, 0);
 3679              		.loc 1 250 10 view .LVU1205
 3680 001c 2880     		strh	r0, [r5]	@ movhi
 251:Drivers/lvgl/src/core/lv_indev_scroll.c **** }
 3681              		.loc 1 251 5 is_stmt 1 view .LVU1206
 251:Drivers/lvgl/src/core/lv_indev_scroll.c **** }
 3682              		.loc 1 251 12 is_stmt 0 view .LVU1207
 3683 001e 0023     		movs	r3, #0
 3684 0020 2046     		mov	r0, r4
 3685 0022 FFF7FEFF 		bl	find_snap_point_y
 3686              	.LVL354:
 251:Drivers/lvgl/src/core/lv_indev_scroll.c **** }
 3687              		.loc 1 251 10 view .LVU1208
 3688 0026 6880     		strh	r0, [r5, #2]	@ movhi
 252:Drivers/lvgl/src/core/lv_indev_scroll.c **** 
 3689              		.loc 1 252 1 view .LVU1209
 3690 0028 38BD     		pop	{r3, r4, r5, pc}
 252:Drivers/lvgl/src/core/lv_indev_scroll.c **** 
 3691              		.loc 1 252 1 view .LVU1210
 3692              		.cfi_endproc
 3693              	.LFE164:
 3695 002a 00BF     		.text
 3696              	.Letext0:
 3697              		.file 4 "/Users/johannes/Library/Application Support/Code/User/globalStorage/bmd.stm32-for-vscode/
 3698              		.file 5 "/Users/johannes/Library/Application Support/Code/User/globalStorage/bmd.stm32-for-vscode/
 3699              		.file 6 "/Users/johannes/Library/Application Support/Code/User/globalStorage/bmd.stm32-for-vscode/
ARM GAS  /var/folders/0z/tsy30v1j4xl4_7kw94k978ww0000gn/T//cc5O5B9v.s 			page 102


 3700              		.file 7 "Drivers/lvgl/src/core/../misc/../font/lv_font.h"
 3701              		.file 8 "Drivers/lvgl/src/core/../misc/lv_types.h"
 3702              		.file 9 "Drivers/lvgl/src/core/../misc/lv_color.h"
 3703              		.file 10 "Drivers/lvgl/src/core/../misc/lv_anim.h"
 3704              		.file 11 "Drivers/lvgl/src/core/../misc/lv_txt.h"
 3705              		.file 12 "Drivers/lvgl/src/core/../misc/lv_bidi.h"
 3706              		.file 13 "Drivers/lvgl/src/core/../misc/lv_style.h"
 3707              		.file 14 "Drivers/lvgl/src/core/../hal/../draw/lv_img_buf.h"
 3708              		.file 15 "Drivers/lvgl/src/core/lv_obj.h"
 3709              		.file 16 "Drivers/lvgl/src/core/../hal/../draw/lv_draw_rect.h"
 3710              		.file 17 "Drivers/lvgl/src/core/../hal/../draw/lv_draw_label.h"
 3711              		.file 18 "Drivers/lvgl/src/core/../hal/../draw/lv_draw_img.h"
 3712              		.file 19 "Drivers/lvgl/src/core/../hal/../draw/lv_draw_line.h"
 3713              		.file 20 "Drivers/lvgl/src/core/../hal/../draw/lv_draw_arc.h"
 3714              		.file 21 "Drivers/lvgl/src/core/../hal/../draw/lv_draw_layer.h"
 3715              		.file 22 "Drivers/lvgl/src/core/../hal/../draw/lv_draw.h"
 3716              		.file 23 "Drivers/lvgl/src/core/../hal/../misc/lv_ll.h"
 3717              		.file 24 "Drivers/lvgl/src/core/../hal/../misc/lv_timer.h"
 3718              		.file 25 "Drivers/lvgl/src/core/../hal/lv_hal_disp.h"
 3719              		.file 26 "Drivers/lvgl/src/core/../hal/lv_hal_indev.h"
 3720              		.file 27 "Drivers/lvgl/src/core/lv_group.h"
 3721              		.file 28 "Drivers/lvgl/src/core/lv_obj_scroll.h"
 3722              		.file 29 "Drivers/lvgl/src/core/lv_obj_style.h"
 3723              		.file 30 "Drivers/lvgl/src/core/lv_obj_class.h"
 3724              		.file 31 "Drivers/lvgl/src/core/lv_event.h"
 3725              		.file 32 "Drivers/lvgl/src/core/lv_obj_tree.h"
 3726              		.file 33 "Drivers/lvgl/src/core/lv_indev.h"
ARM GAS  /var/folders/0z/tsy30v1j4xl4_7kw94k978ww0000gn/T//cc5O5B9v.s 			page 103


DEFINED SYMBOLS
                            *ABS*:0000000000000000 lv_indev_scroll.c
/var/folders/0z/tsy30v1j4xl4_7kw94k978ww0000gn/T//cc5O5B9v.s:18     .text.find_snap_point_y:0000000000000000 $t
/var/folders/0z/tsy30v1j4xl4_7kw94k978ww0000gn/T//cc5O5B9v.s:24     .text.find_snap_point_y:0000000000000000 find_snap_point_y
/var/folders/0z/tsy30v1j4xl4_7kw94k978ww0000gn/T//cc5O5B9v.s:385    .text.find_snap_point_y:000000000000012c $d
/var/folders/0z/tsy30v1j4xl4_7kw94k978ww0000gn/T//cc5O5B9v.s:392    .text.find_snap_point_x:0000000000000000 $t
/var/folders/0z/tsy30v1j4xl4_7kw94k978ww0000gn/T//cc5O5B9v.s:398    .text.find_snap_point_x:0000000000000000 find_snap_point_x
/var/folders/0z/tsy30v1j4xl4_7kw94k978ww0000gn/T//cc5O5B9v.s:756    .text.find_snap_point_x:000000000000012c $d
/var/folders/0z/tsy30v1j4xl4_7kw94k978ww0000gn/T//cc5O5B9v.s:763    .text.elastic_diff:0000000000000000 $t
/var/folders/0z/tsy30v1j4xl4_7kw94k978ww0000gn/T//cc5O5B9v.s:769    .text.elastic_diff:0000000000000000 elastic_diff
/var/folders/0z/tsy30v1j4xl4_7kw94k978ww0000gn/T//cc5O5B9v.s:1296   .text._lv_indev_scroll_handler:0000000000000000 $t
/var/folders/0z/tsy30v1j4xl4_7kw94k978ww0000gn/T//cc5O5B9v.s:1303   .text._lv_indev_scroll_handler:0000000000000000 _lv_indev_scroll_handler
/var/folders/0z/tsy30v1j4xl4_7kw94k978ww0000gn/T//cc5O5B9v.s:2635   .text._lv_indev_scroll_handler:0000000000000578 $d
/var/folders/0z/tsy30v1j4xl4_7kw94k978ww0000gn/T//cc5O5B9v.s:2642   .text._lv_indev_scroll_handler:000000000000057c $t
/var/folders/0z/tsy30v1j4xl4_7kw94k978ww0000gn/T//cc5O5B9v.s:2768   .text._lv_indev_scroll_handler:000000000000060c $d
/var/folders/0z/tsy30v1j4xl4_7kw94k978ww0000gn/T//cc5O5B9v.s:2775   .text._lv_indev_scroll_throw_handler:0000000000000000 $t
/var/folders/0z/tsy30v1j4xl4_7kw94k978ww0000gn/T//cc5O5B9v.s:2782   .text._lv_indev_scroll_throw_handler:0000000000000000 _lv_indev_scroll_throw_handler
/var/folders/0z/tsy30v1j4xl4_7kw94k978ww0000gn/T//cc5O5B9v.s:3529   .text._lv_indev_scroll_throw_handler:00000000000002d0 $d
/var/folders/0z/tsy30v1j4xl4_7kw94k978ww0000gn/T//cc5O5B9v.s:3538   .text.lv_indev_scroll_throw_predict:0000000000000000 $t
/var/folders/0z/tsy30v1j4xl4_7kw94k978ww0000gn/T//cc5O5B9v.s:3545   .text.lv_indev_scroll_throw_predict:0000000000000000 lv_indev_scroll_throw_predict
/var/folders/0z/tsy30v1j4xl4_7kw94k978ww0000gn/T//cc5O5B9v.s:3636   .text.lv_indev_scroll_throw_predict:0000000000000048 $d
/var/folders/0z/tsy30v1j4xl4_7kw94k978ww0000gn/T//cc5O5B9v.s:3641   .text.lv_indev_scroll_get_snap_dist:0000000000000000 $t
/var/folders/0z/tsy30v1j4xl4_7kw94k978ww0000gn/T//cc5O5B9v.s:3648   .text.lv_indev_scroll_get_snap_dist:0000000000000000 lv_indev_scroll_get_snap_dist

UNDEFINED SYMBOLS
lv_obj_get_scroll_snap_y
lv_obj_get_style_prop
lv_obj_get_child_cnt
lv_obj_has_flag_any
lv_obj_has_flag
lv_obj_get_scroll_snap_x
lv_indev_get_obj_act
lv_obj_get_parent
lv_point_transform
lv_obj_get_scroll_top
lv_obj_get_scroll_bottom
lv_obj_get_scroll_dir
_lv_obj_scroll_by_raw
lv_obj_get_scroll_right
lv_obj_get_scroll_left
lv_indev_get_act
lv_area_set
lv_event_send
lv_obj_scroll_by
