ARM GAS  /var/folders/0z/tsy30v1j4xl4_7kw94k978ww0000gn/T//ccd7xBqr.s 			page 1


   1              		.cpu cortex-m4
   2              		.arch armv7e-m
   3              		.fpu fpv4-sp-d16
   4              		.eabi_attribute 27, 1
   5              		.eabi_attribute 28, 1
   6              		.eabi_attribute 23, 1
   7              		.eabi_attribute 24, 1
   8              		.eabi_attribute 25, 1
   9              		.eabi_attribute 26, 1
  10              		.eabi_attribute 30, 2
  11              		.eabi_attribute 34, 1
  12              		.eabi_attribute 18, 4
  13              		.file	"lv_img_buf.c"
  14              		.text
  15              	.Ltext0:
  16              		.cfi_sections	.debug_frame
  17              		.section	.text.lv_img_buf_get_px_color,"ax",%progbits
  18              		.align	1
  19              		.p2align 2,,3
  20              		.global	lv_img_buf_get_px_color
  21              		.syntax unified
  22              		.thumb
  23              		.thumb_func
  25              	lv_img_buf_get_px_color:
  26              	.LVL0:
  27              	.LFB54:
  28              		.file 1 "Drivers/lvgl/src/draw/lv_img_buf.c"
   1:Drivers/lvgl/src/draw/lv_img_buf.c **** /**
   2:Drivers/lvgl/src/draw/lv_img_buf.c ****  * @file lv_img_buf.c
   3:Drivers/lvgl/src/draw/lv_img_buf.c ****  *
   4:Drivers/lvgl/src/draw/lv_img_buf.c ****  */
   5:Drivers/lvgl/src/draw/lv_img_buf.c **** 
   6:Drivers/lvgl/src/draw/lv_img_buf.c **** /*********************
   7:Drivers/lvgl/src/draw/lv_img_buf.c ****  *      INCLUDES
   8:Drivers/lvgl/src/draw/lv_img_buf.c ****  *********************/
   9:Drivers/lvgl/src/draw/lv_img_buf.c **** #include <stddef.h>
  10:Drivers/lvgl/src/draw/lv_img_buf.c **** #include <string.h>
  11:Drivers/lvgl/src/draw/lv_img_buf.c **** #include "lv_img_buf.h"
  12:Drivers/lvgl/src/draw/lv_img_buf.c **** #include "lv_draw_img.h"
  13:Drivers/lvgl/src/draw/lv_img_buf.c **** #include "../misc/lv_math.h"
  14:Drivers/lvgl/src/draw/lv_img_buf.c **** #include "../misc/lv_log.h"
  15:Drivers/lvgl/src/draw/lv_img_buf.c **** #include "../misc/lv_mem.h"
  16:Drivers/lvgl/src/draw/lv_img_buf.c **** 
  17:Drivers/lvgl/src/draw/lv_img_buf.c **** /*********************
  18:Drivers/lvgl/src/draw/lv_img_buf.c ****  *      DEFINES
  19:Drivers/lvgl/src/draw/lv_img_buf.c ****  *********************/
  20:Drivers/lvgl/src/draw/lv_img_buf.c **** 
  21:Drivers/lvgl/src/draw/lv_img_buf.c **** /**********************
  22:Drivers/lvgl/src/draw/lv_img_buf.c ****  *      TYPEDEFS
  23:Drivers/lvgl/src/draw/lv_img_buf.c ****  **********************/
  24:Drivers/lvgl/src/draw/lv_img_buf.c **** 
  25:Drivers/lvgl/src/draw/lv_img_buf.c **** /**********************
  26:Drivers/lvgl/src/draw/lv_img_buf.c ****  *  STATIC PROTOTYPES
  27:Drivers/lvgl/src/draw/lv_img_buf.c ****  **********************/
  28:Drivers/lvgl/src/draw/lv_img_buf.c **** 
  29:Drivers/lvgl/src/draw/lv_img_buf.c **** /**********************
  30:Drivers/lvgl/src/draw/lv_img_buf.c ****  *  STATIC VARIABLES
ARM GAS  /var/folders/0z/tsy30v1j4xl4_7kw94k978ww0000gn/T//ccd7xBqr.s 			page 2


  31:Drivers/lvgl/src/draw/lv_img_buf.c ****  **********************/
  32:Drivers/lvgl/src/draw/lv_img_buf.c **** 
  33:Drivers/lvgl/src/draw/lv_img_buf.c **** /**********************
  34:Drivers/lvgl/src/draw/lv_img_buf.c ****  *      MACROS
  35:Drivers/lvgl/src/draw/lv_img_buf.c ****  **********************/
  36:Drivers/lvgl/src/draw/lv_img_buf.c **** 
  37:Drivers/lvgl/src/draw/lv_img_buf.c **** /**********************
  38:Drivers/lvgl/src/draw/lv_img_buf.c ****  *   GLOBAL FUNCTIONS
  39:Drivers/lvgl/src/draw/lv_img_buf.c ****  **********************/
  40:Drivers/lvgl/src/draw/lv_img_buf.c **** 
  41:Drivers/lvgl/src/draw/lv_img_buf.c **** lv_color_t lv_img_buf_get_px_color(const lv_img_dsc_t * dsc, lv_coord_t x, lv_coord_t y, lv_color_t
  42:Drivers/lvgl/src/draw/lv_img_buf.c **** {
  29              		.loc 1 42 1 view -0
  30              		.cfi_startproc
  31              		@ args = 0, pretend = 0, frame = 0
  32              		@ frame_needed = 0, uses_anonymous_args = 0
  43:Drivers/lvgl/src/draw/lv_img_buf.c ****     lv_color_t p_color = lv_color_black();
  33              		.loc 1 43 5 view .LVU1
  42:Drivers/lvgl/src/draw/lv_img_buf.c ****     lv_color_t p_color = lv_color_black();
  34              		.loc 1 42 1 is_stmt 0 view .LVU2
  35 0000 F8B5     		push	{r3, r4, r5, r6, r7, lr}
  36              		.cfi_def_cfa_offset 24
  37              		.cfi_offset 3, -24
  38              		.cfi_offset 4, -20
  39              		.cfi_offset 5, -16
  40              		.cfi_offset 6, -12
  41              		.cfi_offset 7, -8
  42              		.cfi_offset 14, -4
  42:Drivers/lvgl/src/draw/lv_img_buf.c ****     lv_color_t p_color = lv_color_black();
  43              		.loc 1 42 1 view .LVU3
  44 0002 1646     		mov	r6, r2
  44:Drivers/lvgl/src/draw/lv_img_buf.c ****     uint8_t * buf_u8 = (uint8_t *)dsc->data;
  45              		.loc 1 44 5 is_stmt 1 view .LVU4
  45:Drivers/lvgl/src/draw/lv_img_buf.c **** 
  46:Drivers/lvgl/src/draw/lv_img_buf.c ****     if(dsc->header.cf == LV_IMG_CF_TRUE_COLOR || dsc->header.cf == LV_IMG_CF_TRUE_COLOR_CHROMA_KEYE
  46              		.loc 1 46 23 is_stmt 0 view .LVU5
  47 0004 0278     		ldrb	r2, [r0]	@ zero_extendqisi2
  48              	.LVL1:
  44:Drivers/lvgl/src/draw/lv_img_buf.c ****     uint8_t * buf_u8 = (uint8_t *)dsc->data;
  49              		.loc 1 44 15 view .LVU6
  50 0006 8768     		ldr	r7, [r0, #8]
  51              	.LVL2:
  52              		.loc 1 46 5 is_stmt 1 view .LVU7
  53              		.loc 1 46 23 is_stmt 0 view .LVU8
  54 0008 02F01F0C 		and	ip, r2, #31
  55              		.loc 1 46 7 view .LVU9
  56 000c BCF1040F 		cmp	ip, #4
  42:Drivers/lvgl/src/draw/lv_img_buf.c ****     lv_color_t p_color = lv_color_black();
  57              		.loc 1 42 1 view .LVU10
  58 0010 0446     		mov	r4, r0
  59 0012 0D46     		mov	r5, r1
  60              		.loc 1 46 7 view .LVU11
  61 0014 10D0     		beq	.L2
  62 0016 ACF1050C 		sub	ip, ip, #5
  63 001a 4FF00000 		mov	r0, #0	@ movhi
  64              	.LVL3:
  65              		.loc 1 46 7 view .LVU12
ARM GAS  /var/folders/0z/tsy30v1j4xl4_7kw94k978ww0000gn/T//ccd7xBqr.s 			page 3


  66 001e BCF10F0F 		cmp	ip, #15
  67 0022 19D8     		bhi	.L3
  68 0024 DFE80CF0 		tbb	[pc, ip]
  69              	.LVL4:
  70              	.L4:
  71 0028 08       		.byte	(.L2-.L4)/2
  72 0029 08       		.byte	(.L2-.L4)/2
  73 002a 44       		.byte	(.L9-.L4)/2
  74 002b 1B       		.byte	(.L8-.L4)/2
  75 002c 2F       		.byte	(.L7-.L4)/2
  76 002d 57       		.byte	(.L6-.L4)/2
  77 002e 19       		.byte	(.L5-.L4)/2
  78 002f 19       		.byte	(.L5-.L4)/2
  79 0030 19       		.byte	(.L5-.L4)/2
  80 0031 19       		.byte	(.L5-.L4)/2
  81 0032 18       		.byte	(.L3-.L4)/2
  82 0033 18       		.byte	(.L3-.L4)/2
  83 0034 18       		.byte	(.L3-.L4)/2
  84 0035 18       		.byte	(.L3-.L4)/2
  85 0036 18       		.byte	(.L3-.L4)/2
  86 0037 08       		.byte	(.L2-.L4)/2
  87              		.p2align 1
  88              	.L2:
  89              	.LBB27:
  47:Drivers/lvgl/src/draw/lv_img_buf.c ****        dsc->header.cf == LV_IMG_CF_TRUE_COLOR_ALPHA || dsc->header.cf == LV_IMG_CF_RGB565A8) {
  48:Drivers/lvgl/src/draw/lv_img_buf.c ****         uint8_t px_size = lv_img_cf_get_px_size(dsc->header.cf) >> 3;
  90              		.loc 1 48 9 is_stmt 1 view .LVU13
  91              		.loc 1 48 27 is_stmt 0 view .LVU14
  92 0038 02F01F00 		and	r0, r2, #31
  93 003c FFF7FEFF 		bl	lv_img_cf_get_px_size
  94              	.LVL5:
  49:Drivers/lvgl/src/draw/lv_img_buf.c ****         uint32_t px     = dsc->header.w * y * px_size + x * px_size;
  95              		.loc 1 49 38 view .LVU15
  96 0040 2368     		ldr	r3, [r4]
  97 0042 C3F38A23 		ubfx	r3, r3, #10, #11
  48:Drivers/lvgl/src/draw/lv_img_buf.c ****         uint32_t px     = dsc->header.w * y * px_size + x * px_size;
  98              		.loc 1 48 17 view .LVU16
  99 0046 C0F3C700 		ubfx	r0, r0, #3, #8
 100              	.LVL6:
 101              		.loc 1 49 9 is_stmt 1 view .LVU17
  50:Drivers/lvgl/src/draw/lv_img_buf.c ****         lv_memcpy_small(&p_color, &buf_u8[px], sizeof(lv_color_t));
 102              		.loc 1 50 9 view .LVU18
 103              	.LBB28:
 104              	.LBI28:
 105              		.file 2 "Drivers/lvgl/src/draw/../misc/lv_mem.h"
   1:Drivers/lvgl/src/draw/../misc/lv_mem.h **** /**
   2:Drivers/lvgl/src/draw/../misc/lv_mem.h ****  * @file lv_mem.h
   3:Drivers/lvgl/src/draw/../misc/lv_mem.h ****  *
   4:Drivers/lvgl/src/draw/../misc/lv_mem.h ****  */
   5:Drivers/lvgl/src/draw/../misc/lv_mem.h **** 
   6:Drivers/lvgl/src/draw/../misc/lv_mem.h **** #ifndef LV_MEM_H
   7:Drivers/lvgl/src/draw/../misc/lv_mem.h **** #define LV_MEM_H
   8:Drivers/lvgl/src/draw/../misc/lv_mem.h **** 
   9:Drivers/lvgl/src/draw/../misc/lv_mem.h **** #ifdef __cplusplus
  10:Drivers/lvgl/src/draw/../misc/lv_mem.h **** extern "C" {
  11:Drivers/lvgl/src/draw/../misc/lv_mem.h **** #endif
  12:Drivers/lvgl/src/draw/../misc/lv_mem.h **** 
ARM GAS  /var/folders/0z/tsy30v1j4xl4_7kw94k978ww0000gn/T//ccd7xBqr.s 			page 4


  13:Drivers/lvgl/src/draw/../misc/lv_mem.h **** /*********************
  14:Drivers/lvgl/src/draw/../misc/lv_mem.h ****  *      INCLUDES
  15:Drivers/lvgl/src/draw/../misc/lv_mem.h ****  *********************/
  16:Drivers/lvgl/src/draw/../misc/lv_mem.h **** #include "../lv_conf_internal.h"
  17:Drivers/lvgl/src/draw/../misc/lv_mem.h **** 
  18:Drivers/lvgl/src/draw/../misc/lv_mem.h **** #include <stdint.h>
  19:Drivers/lvgl/src/draw/../misc/lv_mem.h **** #include <stddef.h>
  20:Drivers/lvgl/src/draw/../misc/lv_mem.h **** #include <string.h>
  21:Drivers/lvgl/src/draw/../misc/lv_mem.h **** 
  22:Drivers/lvgl/src/draw/../misc/lv_mem.h **** #include "lv_types.h"
  23:Drivers/lvgl/src/draw/../misc/lv_mem.h **** 
  24:Drivers/lvgl/src/draw/../misc/lv_mem.h **** /*********************
  25:Drivers/lvgl/src/draw/../misc/lv_mem.h ****  *      DEFINES
  26:Drivers/lvgl/src/draw/../misc/lv_mem.h ****  *********************/
  27:Drivers/lvgl/src/draw/../misc/lv_mem.h **** 
  28:Drivers/lvgl/src/draw/../misc/lv_mem.h **** /**********************
  29:Drivers/lvgl/src/draw/../misc/lv_mem.h ****  *      TYPEDEFS
  30:Drivers/lvgl/src/draw/../misc/lv_mem.h ****  **********************/
  31:Drivers/lvgl/src/draw/../misc/lv_mem.h **** 
  32:Drivers/lvgl/src/draw/../misc/lv_mem.h **** /**
  33:Drivers/lvgl/src/draw/../misc/lv_mem.h ****  * Heap information structure.
  34:Drivers/lvgl/src/draw/../misc/lv_mem.h ****  */
  35:Drivers/lvgl/src/draw/../misc/lv_mem.h **** typedef struct {
  36:Drivers/lvgl/src/draw/../misc/lv_mem.h ****     uint32_t total_size; /**< Total heap size*/
  37:Drivers/lvgl/src/draw/../misc/lv_mem.h ****     uint32_t free_cnt;
  38:Drivers/lvgl/src/draw/../misc/lv_mem.h ****     uint32_t free_size; /**< Size of available memory*/
  39:Drivers/lvgl/src/draw/../misc/lv_mem.h ****     uint32_t free_biggest_size;
  40:Drivers/lvgl/src/draw/../misc/lv_mem.h ****     uint32_t used_cnt;
  41:Drivers/lvgl/src/draw/../misc/lv_mem.h ****     uint32_t max_used; /**< Max size of Heap memory used*/
  42:Drivers/lvgl/src/draw/../misc/lv_mem.h ****     uint8_t used_pct; /**< Percentage used*/
  43:Drivers/lvgl/src/draw/../misc/lv_mem.h ****     uint8_t frag_pct; /**< Amount of fragmentation*/
  44:Drivers/lvgl/src/draw/../misc/lv_mem.h **** } lv_mem_monitor_t;
  45:Drivers/lvgl/src/draw/../misc/lv_mem.h **** 
  46:Drivers/lvgl/src/draw/../misc/lv_mem.h **** typedef struct {
  47:Drivers/lvgl/src/draw/../misc/lv_mem.h ****     void * p;
  48:Drivers/lvgl/src/draw/../misc/lv_mem.h ****     uint16_t size;
  49:Drivers/lvgl/src/draw/../misc/lv_mem.h ****     uint8_t used : 1;
  50:Drivers/lvgl/src/draw/../misc/lv_mem.h **** } lv_mem_buf_t;
  51:Drivers/lvgl/src/draw/../misc/lv_mem.h **** 
  52:Drivers/lvgl/src/draw/../misc/lv_mem.h **** typedef lv_mem_buf_t lv_mem_buf_arr_t[LV_MEM_BUF_MAX_NUM];
  53:Drivers/lvgl/src/draw/../misc/lv_mem.h **** 
  54:Drivers/lvgl/src/draw/../misc/lv_mem.h **** /**********************
  55:Drivers/lvgl/src/draw/../misc/lv_mem.h ****  * GLOBAL PROTOTYPES
  56:Drivers/lvgl/src/draw/../misc/lv_mem.h ****  **********************/
  57:Drivers/lvgl/src/draw/../misc/lv_mem.h **** 
  58:Drivers/lvgl/src/draw/../misc/lv_mem.h **** /**
  59:Drivers/lvgl/src/draw/../misc/lv_mem.h ****  * Initialize the dyn_mem module (work memory and other variables)
  60:Drivers/lvgl/src/draw/../misc/lv_mem.h ****  */
  61:Drivers/lvgl/src/draw/../misc/lv_mem.h **** void lv_mem_init(void);
  62:Drivers/lvgl/src/draw/../misc/lv_mem.h **** 
  63:Drivers/lvgl/src/draw/../misc/lv_mem.h **** /**
  64:Drivers/lvgl/src/draw/../misc/lv_mem.h ****  * Clean up the memory buffer which frees all the allocated memories.
  65:Drivers/lvgl/src/draw/../misc/lv_mem.h ****  * @note It work only if `LV_MEM_CUSTOM == 0`
  66:Drivers/lvgl/src/draw/../misc/lv_mem.h ****  */
  67:Drivers/lvgl/src/draw/../misc/lv_mem.h **** void lv_mem_deinit(void);
  68:Drivers/lvgl/src/draw/../misc/lv_mem.h **** 
  69:Drivers/lvgl/src/draw/../misc/lv_mem.h **** /**
ARM GAS  /var/folders/0z/tsy30v1j4xl4_7kw94k978ww0000gn/T//ccd7xBqr.s 			page 5


  70:Drivers/lvgl/src/draw/../misc/lv_mem.h ****  * Allocate a memory dynamically
  71:Drivers/lvgl/src/draw/../misc/lv_mem.h ****  * @param size size of the memory to allocate in bytes
  72:Drivers/lvgl/src/draw/../misc/lv_mem.h ****  * @return pointer to the allocated memory
  73:Drivers/lvgl/src/draw/../misc/lv_mem.h ****  */
  74:Drivers/lvgl/src/draw/../misc/lv_mem.h **** void * lv_mem_alloc(size_t size);
  75:Drivers/lvgl/src/draw/../misc/lv_mem.h **** 
  76:Drivers/lvgl/src/draw/../misc/lv_mem.h **** /**
  77:Drivers/lvgl/src/draw/../misc/lv_mem.h ****  * Free an allocated data
  78:Drivers/lvgl/src/draw/../misc/lv_mem.h ****  * @param data pointer to an allocated memory
  79:Drivers/lvgl/src/draw/../misc/lv_mem.h ****  */
  80:Drivers/lvgl/src/draw/../misc/lv_mem.h **** void lv_mem_free(void * data);
  81:Drivers/lvgl/src/draw/../misc/lv_mem.h **** 
  82:Drivers/lvgl/src/draw/../misc/lv_mem.h **** /**
  83:Drivers/lvgl/src/draw/../misc/lv_mem.h ****  * Reallocate a memory with a new size. The old content will be kept.
  84:Drivers/lvgl/src/draw/../misc/lv_mem.h ****  * @param data pointer to an allocated memory.
  85:Drivers/lvgl/src/draw/../misc/lv_mem.h ****  * Its content will be copied to the new memory block and freed
  86:Drivers/lvgl/src/draw/../misc/lv_mem.h ****  * @param new_size the desired new size in byte
  87:Drivers/lvgl/src/draw/../misc/lv_mem.h ****  * @return pointer to the new memory, NULL on failure
  88:Drivers/lvgl/src/draw/../misc/lv_mem.h ****  */
  89:Drivers/lvgl/src/draw/../misc/lv_mem.h **** void * lv_mem_realloc(void * data_p, size_t new_size);
  90:Drivers/lvgl/src/draw/../misc/lv_mem.h **** 
  91:Drivers/lvgl/src/draw/../misc/lv_mem.h **** /**
  92:Drivers/lvgl/src/draw/../misc/lv_mem.h ****  *
  93:Drivers/lvgl/src/draw/../misc/lv_mem.h ****  * @return
  94:Drivers/lvgl/src/draw/../misc/lv_mem.h ****  */
  95:Drivers/lvgl/src/draw/../misc/lv_mem.h **** lv_res_t lv_mem_test(void);
  96:Drivers/lvgl/src/draw/../misc/lv_mem.h **** 
  97:Drivers/lvgl/src/draw/../misc/lv_mem.h **** /**
  98:Drivers/lvgl/src/draw/../misc/lv_mem.h ****  * Give information about the work memory of dynamic allocation
  99:Drivers/lvgl/src/draw/../misc/lv_mem.h ****  * @param mon_p pointer to a lv_mem_monitor_t variable,
 100:Drivers/lvgl/src/draw/../misc/lv_mem.h ****  *              the result of the analysis will be stored here
 101:Drivers/lvgl/src/draw/../misc/lv_mem.h ****  */
 102:Drivers/lvgl/src/draw/../misc/lv_mem.h **** void lv_mem_monitor(lv_mem_monitor_t * mon_p);
 103:Drivers/lvgl/src/draw/../misc/lv_mem.h **** 
 104:Drivers/lvgl/src/draw/../misc/lv_mem.h **** 
 105:Drivers/lvgl/src/draw/../misc/lv_mem.h **** /**
 106:Drivers/lvgl/src/draw/../misc/lv_mem.h ****  * Get a temporal buffer with the given size.
 107:Drivers/lvgl/src/draw/../misc/lv_mem.h ****  * @param size the required size
 108:Drivers/lvgl/src/draw/../misc/lv_mem.h ****  */
 109:Drivers/lvgl/src/draw/../misc/lv_mem.h **** void * lv_mem_buf_get(uint32_t size);
 110:Drivers/lvgl/src/draw/../misc/lv_mem.h **** 
 111:Drivers/lvgl/src/draw/../misc/lv_mem.h **** /**
 112:Drivers/lvgl/src/draw/../misc/lv_mem.h ****  * Release a memory buffer
 113:Drivers/lvgl/src/draw/../misc/lv_mem.h ****  * @param p buffer to release
 114:Drivers/lvgl/src/draw/../misc/lv_mem.h ****  */
 115:Drivers/lvgl/src/draw/../misc/lv_mem.h **** void lv_mem_buf_release(void * p);
 116:Drivers/lvgl/src/draw/../misc/lv_mem.h **** 
 117:Drivers/lvgl/src/draw/../misc/lv_mem.h **** /**
 118:Drivers/lvgl/src/draw/../misc/lv_mem.h ****  * Free all memory buffers
 119:Drivers/lvgl/src/draw/../misc/lv_mem.h ****  */
 120:Drivers/lvgl/src/draw/../misc/lv_mem.h **** void lv_mem_buf_free_all(void);
 121:Drivers/lvgl/src/draw/../misc/lv_mem.h **** 
 122:Drivers/lvgl/src/draw/../misc/lv_mem.h **** //! @cond Doxygen_Suppress
 123:Drivers/lvgl/src/draw/../misc/lv_mem.h **** 
 124:Drivers/lvgl/src/draw/../misc/lv_mem.h **** #if LV_MEMCPY_MEMSET_STD
 125:Drivers/lvgl/src/draw/../misc/lv_mem.h **** 
 126:Drivers/lvgl/src/draw/../misc/lv_mem.h **** /**
ARM GAS  /var/folders/0z/tsy30v1j4xl4_7kw94k978ww0000gn/T//ccd7xBqr.s 			page 6


 127:Drivers/lvgl/src/draw/../misc/lv_mem.h ****  * Wrapper for the standard memcpy
 128:Drivers/lvgl/src/draw/../misc/lv_mem.h ****  * @param dst pointer to the destination buffer
 129:Drivers/lvgl/src/draw/../misc/lv_mem.h ****  * @param src pointer to the source buffer
 130:Drivers/lvgl/src/draw/../misc/lv_mem.h ****  * @param len number of byte to copy
 131:Drivers/lvgl/src/draw/../misc/lv_mem.h ****  */
 132:Drivers/lvgl/src/draw/../misc/lv_mem.h **** static inline void * lv_memcpy(void * dst, const void * src, size_t len)
 133:Drivers/lvgl/src/draw/../misc/lv_mem.h **** {
 134:Drivers/lvgl/src/draw/../misc/lv_mem.h ****     return memcpy(dst, src, len);
 135:Drivers/lvgl/src/draw/../misc/lv_mem.h **** }
 136:Drivers/lvgl/src/draw/../misc/lv_mem.h **** 
 137:Drivers/lvgl/src/draw/../misc/lv_mem.h **** /**
 138:Drivers/lvgl/src/draw/../misc/lv_mem.h ****  * Wrapper for the standard memcpy
 139:Drivers/lvgl/src/draw/../misc/lv_mem.h ****  * @param dst pointer to the destination buffer
 140:Drivers/lvgl/src/draw/../misc/lv_mem.h ****  * @param src pointer to the source buffer
 141:Drivers/lvgl/src/draw/../misc/lv_mem.h ****  * @param len number of byte to copy
 142:Drivers/lvgl/src/draw/../misc/lv_mem.h ****  */
 143:Drivers/lvgl/src/draw/../misc/lv_mem.h **** static inline void * lv_memcpy_small(void * dst, const void * src, size_t len)
 144:Drivers/lvgl/src/draw/../misc/lv_mem.h **** {
 145:Drivers/lvgl/src/draw/../misc/lv_mem.h ****     return memcpy(dst, src, len);
 146:Drivers/lvgl/src/draw/../misc/lv_mem.h **** }
 147:Drivers/lvgl/src/draw/../misc/lv_mem.h **** 
 148:Drivers/lvgl/src/draw/../misc/lv_mem.h **** /**
 149:Drivers/lvgl/src/draw/../misc/lv_mem.h ****  * Wrapper for the standard memset
 150:Drivers/lvgl/src/draw/../misc/lv_mem.h ****  * @param dst pointer to the destination buffer
 151:Drivers/lvgl/src/draw/../misc/lv_mem.h ****  * @param v value to set [0..255]
 152:Drivers/lvgl/src/draw/../misc/lv_mem.h ****  * @param len number of byte to set
 153:Drivers/lvgl/src/draw/../misc/lv_mem.h ****  */
 154:Drivers/lvgl/src/draw/../misc/lv_mem.h **** static inline void lv_memset(void * dst, uint8_t v, size_t len)
 155:Drivers/lvgl/src/draw/../misc/lv_mem.h **** {
 156:Drivers/lvgl/src/draw/../misc/lv_mem.h ****     memset(dst, v, len);
 157:Drivers/lvgl/src/draw/../misc/lv_mem.h **** }
 158:Drivers/lvgl/src/draw/../misc/lv_mem.h **** 
 159:Drivers/lvgl/src/draw/../misc/lv_mem.h **** /**
 160:Drivers/lvgl/src/draw/../misc/lv_mem.h ****  * Wrapper for the standard memset with fixed 0x00 value
 161:Drivers/lvgl/src/draw/../misc/lv_mem.h ****  * @param dst pointer to the destination buffer
 162:Drivers/lvgl/src/draw/../misc/lv_mem.h ****  * @param len number of byte to set
 163:Drivers/lvgl/src/draw/../misc/lv_mem.h ****  */
 164:Drivers/lvgl/src/draw/../misc/lv_mem.h **** static inline void lv_memset_00(void * dst, size_t len)
 165:Drivers/lvgl/src/draw/../misc/lv_mem.h **** {
 166:Drivers/lvgl/src/draw/../misc/lv_mem.h ****     memset(dst, 0x00, len);
 167:Drivers/lvgl/src/draw/../misc/lv_mem.h **** }
 168:Drivers/lvgl/src/draw/../misc/lv_mem.h **** 
 169:Drivers/lvgl/src/draw/../misc/lv_mem.h **** /**
 170:Drivers/lvgl/src/draw/../misc/lv_mem.h ****  * Wrapper for the standard memset with fixed 0xFF value
 171:Drivers/lvgl/src/draw/../misc/lv_mem.h ****  * @param dst pointer to the destination buffer
 172:Drivers/lvgl/src/draw/../misc/lv_mem.h ****  * @param len number of byte to set
 173:Drivers/lvgl/src/draw/../misc/lv_mem.h ****  */
 174:Drivers/lvgl/src/draw/../misc/lv_mem.h **** static inline void lv_memset_ff(void * dst, size_t len)
 175:Drivers/lvgl/src/draw/../misc/lv_mem.h **** {
 176:Drivers/lvgl/src/draw/../misc/lv_mem.h ****     memset(dst, 0xFF, len);
 177:Drivers/lvgl/src/draw/../misc/lv_mem.h **** }
 178:Drivers/lvgl/src/draw/../misc/lv_mem.h **** 
 179:Drivers/lvgl/src/draw/../misc/lv_mem.h **** #else
 180:Drivers/lvgl/src/draw/../misc/lv_mem.h **** /**
 181:Drivers/lvgl/src/draw/../misc/lv_mem.h ****  * Same as `memcpy` but optimized for 4 byte operation.
 182:Drivers/lvgl/src/draw/../misc/lv_mem.h ****  * @param dst pointer to the destination buffer
 183:Drivers/lvgl/src/draw/../misc/lv_mem.h ****  * @param src pointer to the source buffer
ARM GAS  /var/folders/0z/tsy30v1j4xl4_7kw94k978ww0000gn/T//ccd7xBqr.s 			page 7


 184:Drivers/lvgl/src/draw/../misc/lv_mem.h ****  * @param len number of byte to copy
 185:Drivers/lvgl/src/draw/../misc/lv_mem.h ****  */
 186:Drivers/lvgl/src/draw/../misc/lv_mem.h **** void * /* LV_ATTRIBUTE_FAST_MEM */ lv_memcpy(void * dst, const void * src, size_t len);
 187:Drivers/lvgl/src/draw/../misc/lv_mem.h **** 
 188:Drivers/lvgl/src/draw/../misc/lv_mem.h **** /**
 189:Drivers/lvgl/src/draw/../misc/lv_mem.h ****  * Same as `memcpy` but optimized to copy only a few bytes.
 190:Drivers/lvgl/src/draw/../misc/lv_mem.h ****  * @param dst pointer to the destination buffer
 191:Drivers/lvgl/src/draw/../misc/lv_mem.h ****  * @param src pointer to the source buffer
 192:Drivers/lvgl/src/draw/../misc/lv_mem.h ****  * @param len number of byte to copy
 193:Drivers/lvgl/src/draw/../misc/lv_mem.h ****  */
 194:Drivers/lvgl/src/draw/../misc/lv_mem.h **** static inline void * LV_ATTRIBUTE_FAST_MEM lv_memcpy_small(void * dst, const void * src, size_t len
 106              		.loc 2 194 44 view .LVU19
 107              	.LBB29:
 195:Drivers/lvgl/src/draw/../misc/lv_mem.h **** {
 196:Drivers/lvgl/src/draw/../misc/lv_mem.h ****     uint8_t * d8 = (uint8_t *)dst;
 108              		.loc 2 196 5 view .LVU20
 197:Drivers/lvgl/src/draw/../misc/lv_mem.h ****     const uint8_t * s8 = (const uint8_t *)src;
 109              		.loc 2 197 5 view .LVU21
 198:Drivers/lvgl/src/draw/../misc/lv_mem.h **** 
 199:Drivers/lvgl/src/draw/../misc/lv_mem.h ****     while(len) {
 110              		.loc 2 199 5 view .LVU22
 111              		.loc 2 199 11 view .LVU23
 200:Drivers/lvgl/src/draw/../misc/lv_mem.h ****         *d8 = *s8;
 112              		.loc 2 200 9 view .LVU24
 201:Drivers/lvgl/src/draw/../misc/lv_mem.h ****         d8++;
 113              		.loc 2 201 9 view .LVU25
 202:Drivers/lvgl/src/draw/../misc/lv_mem.h ****         s8++;
 114              		.loc 2 202 9 view .LVU26
 203:Drivers/lvgl/src/draw/../misc/lv_mem.h ****         len--;
 115              		.loc 2 203 9 view .LVU27
 199:Drivers/lvgl/src/draw/../misc/lv_mem.h ****         *d8 = *s8;
 116              		.loc 2 199 11 view .LVU28
 200:Drivers/lvgl/src/draw/../misc/lv_mem.h ****         d8++;
 117              		.loc 2 200 9 view .LVU29
 118              	.LBE29:
 119              	.LBE28:
  49:Drivers/lvgl/src/draw/lv_img_buf.c ****         lv_memcpy_small(&p_color, &buf_u8[px], sizeof(lv_color_t));
 120              		.loc 1 49 41 is_stmt 0 view .LVU30
 121 004a 13FB06F3 		smulbb	r3, r3, r6
  49:Drivers/lvgl/src/draw/lv_img_buf.c ****         lv_memcpy_small(&p_color, &buf_u8[px], sizeof(lv_color_t));
 122              		.loc 1 49 59 view .LVU31
 123 004e 10FB05F5 		smulbb	r5, r0, r5
 124              	.LVL7:
 125              	.LBB31:
 126              	.LBB30:
 200:Drivers/lvgl/src/draw/../misc/lv_mem.h ****         d8++;
 127              		.loc 2 200 15 view .LVU32
 128 0052 00FB0373 		mla	r3, r0, r3, r7
 129 0056 585B     		ldrh	r0, [r3, r5]	@ unaligned
 130              	.LVL8:
 201:Drivers/lvgl/src/draw/../misc/lv_mem.h ****         s8++;
 131              		.loc 2 201 9 is_stmt 1 view .LVU33
 202:Drivers/lvgl/src/draw/../misc/lv_mem.h ****         len--;
 132              		.loc 2 202 9 view .LVU34
 133              		.loc 2 203 9 view .LVU35
 199:Drivers/lvgl/src/draw/../misc/lv_mem.h ****         *d8 = *s8;
 134              		.loc 2 199 11 view .LVU36
ARM GAS  /var/folders/0z/tsy30v1j4xl4_7kw94k978ww0000gn/T//ccd7xBqr.s 			page 8


 135              	.L3:
 199:Drivers/lvgl/src/draw/../misc/lv_mem.h ****         *d8 = *s8;
 136              		.loc 2 199 11 is_stmt 0 view .LVU37
 137              	.LBE30:
 138              	.LBE31:
 139              	.LBE27:
  51:Drivers/lvgl/src/draw/lv_img_buf.c **** #if LV_COLOR_SIZE == 32
  52:Drivers/lvgl/src/draw/lv_img_buf.c ****         p_color.ch.alpha = 0xFF; /*Only the color should be get so use a default alpha value*/
  53:Drivers/lvgl/src/draw/lv_img_buf.c **** #endif
  54:Drivers/lvgl/src/draw/lv_img_buf.c ****     }
  55:Drivers/lvgl/src/draw/lv_img_buf.c ****     else if(dsc->header.cf == LV_IMG_CF_INDEXED_1BIT) {
  56:Drivers/lvgl/src/draw/lv_img_buf.c ****         buf_u8 += 4 * 2;
  57:Drivers/lvgl/src/draw/lv_img_buf.c ****         uint8_t bit = x & 0x7;
  58:Drivers/lvgl/src/draw/lv_img_buf.c ****         x           = x >> 3;
  59:Drivers/lvgl/src/draw/lv_img_buf.c **** 
  60:Drivers/lvgl/src/draw/lv_img_buf.c ****         /*Get the current pixel.
  61:Drivers/lvgl/src/draw/lv_img_buf.c ****          *dsc->header.w + 7 means rounding up to 8 because the lines are byte aligned
  62:Drivers/lvgl/src/draw/lv_img_buf.c ****          *so the possible real width are 8, 16, 24 ...*/
  63:Drivers/lvgl/src/draw/lv_img_buf.c ****         uint32_t px  = ((dsc->header.w + 7) >> 3) * y + x;
  64:Drivers/lvgl/src/draw/lv_img_buf.c ****         p_color.full = (buf_u8[px] & (1 << (7 - bit))) >> (7 - bit);
  65:Drivers/lvgl/src/draw/lv_img_buf.c ****     }
  66:Drivers/lvgl/src/draw/lv_img_buf.c ****     else if(dsc->header.cf == LV_IMG_CF_INDEXED_2BIT) {
  67:Drivers/lvgl/src/draw/lv_img_buf.c ****         buf_u8 += 4 * 4;
  68:Drivers/lvgl/src/draw/lv_img_buf.c ****         uint8_t bit = (x & 0x3) * 2;
  69:Drivers/lvgl/src/draw/lv_img_buf.c ****         x           = x >> 2;
  70:Drivers/lvgl/src/draw/lv_img_buf.c **** 
  71:Drivers/lvgl/src/draw/lv_img_buf.c ****         /*Get the current pixel.
  72:Drivers/lvgl/src/draw/lv_img_buf.c ****          *dsc->header.w + 3 means rounding up to 4 because the lines are byte aligned
  73:Drivers/lvgl/src/draw/lv_img_buf.c ****          *so the possible real width are 4, 8, 12 ...*/
  74:Drivers/lvgl/src/draw/lv_img_buf.c ****         uint32_t px  = ((dsc->header.w + 3) >> 2) * y + x;
  75:Drivers/lvgl/src/draw/lv_img_buf.c ****         p_color.full = (buf_u8[px] & (3 << (6 - bit))) >> (6 - bit);
  76:Drivers/lvgl/src/draw/lv_img_buf.c ****     }
  77:Drivers/lvgl/src/draw/lv_img_buf.c ****     else if(dsc->header.cf == LV_IMG_CF_INDEXED_4BIT) {
  78:Drivers/lvgl/src/draw/lv_img_buf.c ****         buf_u8 += 4 * 16;
  79:Drivers/lvgl/src/draw/lv_img_buf.c ****         uint8_t bit = (x & 0x1) * 4;
  80:Drivers/lvgl/src/draw/lv_img_buf.c ****         x           = x >> 1;
  81:Drivers/lvgl/src/draw/lv_img_buf.c **** 
  82:Drivers/lvgl/src/draw/lv_img_buf.c ****         /*Get the current pixel.
  83:Drivers/lvgl/src/draw/lv_img_buf.c ****          *dsc->header.w + 1 means rounding up to 2 because the lines are byte aligned
  84:Drivers/lvgl/src/draw/lv_img_buf.c ****          *so the possible real width are 2, 4, 6 ...*/
  85:Drivers/lvgl/src/draw/lv_img_buf.c ****         uint32_t px  = ((dsc->header.w + 1) >> 1) * y + x;
  86:Drivers/lvgl/src/draw/lv_img_buf.c ****         p_color.full = (buf_u8[px] & (0xF << (4 - bit))) >> (4 - bit);
  87:Drivers/lvgl/src/draw/lv_img_buf.c ****     }
  88:Drivers/lvgl/src/draw/lv_img_buf.c ****     else if(dsc->header.cf == LV_IMG_CF_INDEXED_8BIT) {
  89:Drivers/lvgl/src/draw/lv_img_buf.c ****         buf_u8 += 4 * 256;
  90:Drivers/lvgl/src/draw/lv_img_buf.c ****         uint32_t px  = dsc->header.w * y + x;
  91:Drivers/lvgl/src/draw/lv_img_buf.c ****         p_color.full = buf_u8[px];
  92:Drivers/lvgl/src/draw/lv_img_buf.c ****     }
  93:Drivers/lvgl/src/draw/lv_img_buf.c ****     else if(dsc->header.cf == LV_IMG_CF_ALPHA_1BIT || dsc->header.cf == LV_IMG_CF_ALPHA_2BIT ||
  94:Drivers/lvgl/src/draw/lv_img_buf.c ****             dsc->header.cf == LV_IMG_CF_ALPHA_4BIT || dsc->header.cf == LV_IMG_CF_ALPHA_8BIT) {
  95:Drivers/lvgl/src/draw/lv_img_buf.c ****         p_color = color;
  96:Drivers/lvgl/src/draw/lv_img_buf.c ****     }
  97:Drivers/lvgl/src/draw/lv_img_buf.c ****     return p_color;
 140              		.loc 1 97 5 is_stmt 1 view .LVU38
  98:Drivers/lvgl/src/draw/lv_img_buf.c **** }
 141              		.loc 1 98 1 is_stmt 0 view .LVU39
 142 0058 F8BD     		pop	{r3, r4, r5, r6, r7, pc}
ARM GAS  /var/folders/0z/tsy30v1j4xl4_7kw94k978ww0000gn/T//ccd7xBqr.s 			page 9


 143              	.LVL9:
 144              	.L5:
  95:Drivers/lvgl/src/draw/lv_img_buf.c ****     }
 145              		.loc 1 95 9 is_stmt 1 view .LVU40
  95:Drivers/lvgl/src/draw/lv_img_buf.c ****     }
 146              		.loc 1 95 17 is_stmt 0 view .LVU41
 147 005a 1846     		mov	r0, r3	@ movhi
  97:Drivers/lvgl/src/draw/lv_img_buf.c **** }
 148              		.loc 1 97 5 is_stmt 1 view .LVU42
 149              		.loc 1 98 1 is_stmt 0 view .LVU43
 150 005c F8BD     		pop	{r3, r4, r5, r6, r7, pc}
 151              	.LVL10:
 152              	.L8:
 153              	.LBB32:
  67:Drivers/lvgl/src/draw/lv_img_buf.c ****         uint8_t bit = (x & 0x3) * 2;
 154              		.loc 1 67 9 is_stmt 1 view .LVU44
  68:Drivers/lvgl/src/draw/lv_img_buf.c ****         x           = x >> 2;
 155              		.loc 1 68 9 view .LVU45
  69:Drivers/lvgl/src/draw/lv_img_buf.c **** 
 156              		.loc 1 69 9 view .LVU46
  74:Drivers/lvgl/src/draw/lv_img_buf.c ****         p_color.full = (buf_u8[px] & (3 << (6 - bit))) >> (6 - bit);
 157              		.loc 1 74 9 view .LVU47
  75:Drivers/lvgl/src/draw/lv_img_buf.c ****     }
 158              		.loc 1 75 9 view .LVU48
  74:Drivers/lvgl/src/draw/lv_img_buf.c ****         p_color.full = (buf_u8[px] & (3 << (6 - bit))) >> (6 - bit);
 159              		.loc 1 74 37 is_stmt 0 view .LVU49
 160 005e 2368     		ldr	r3, [r4]
 161              	.LVL11:
  74:Drivers/lvgl/src/draw/lv_img_buf.c ****         p_color.full = (buf_u8[px] & (3 << (6 - bit))) >> (6 - bit);
 162              		.loc 1 74 37 view .LVU50
 163 0060 C3F38A23 		ubfx	r3, r3, #10, #11
  74:Drivers/lvgl/src/draw/lv_img_buf.c ****         p_color.full = (buf_u8[px] & (3 << (6 - bit))) >> (6 - bit);
 164              		.loc 1 74 40 view .LVU51
 165 0064 0333     		adds	r3, r3, #3
  74:Drivers/lvgl/src/draw/lv_img_buf.c ****         p_color.full = (buf_u8[px] & (3 << (6 - bit))) >> (6 - bit);
 166              		.loc 1 74 45 view .LVU52
 167 0066 9B10     		asrs	r3, r3, #2
  75:Drivers/lvgl/src/draw/lv_img_buf.c ****     }
 168              		.loc 1 75 31 view .LVU53
 169 0068 06FB0373 		mla	r3, r6, r3, r7
 170 006c 03EBA503 		add	r3, r3, r5, asr #2
  68:Drivers/lvgl/src/draw/lv_img_buf.c ****         x           = x >> 2;
 171              		.loc 1 68 17 view .LVU54
 172 0070 05F00302 		and	r2, r5, #3
  75:Drivers/lvgl/src/draw/lv_img_buf.c ****     }
 173              		.loc 1 75 47 view .LVU55
 174 0074 5200     		lsls	r2, r2, #1
  75:Drivers/lvgl/src/draw/lv_img_buf.c ****     }
 175              		.loc 1 75 31 view .LVU56
 176 0076 187C     		ldrb	r0, [r3, #16]	@ zero_extendqisi2
  75:Drivers/lvgl/src/draw/lv_img_buf.c ****     }
 177              		.loc 1 75 47 view .LVU57
 178 0078 C2F10602 		rsb	r2, r2, #6
  75:Drivers/lvgl/src/draw/lv_img_buf.c ****     }
 179              		.loc 1 75 41 view .LVU58
 180 007c 0323     		movs	r3, #3
 181 007e 9340     		lsls	r3, r3, r2
ARM GAS  /var/folders/0z/tsy30v1j4xl4_7kw94k978ww0000gn/T//ccd7xBqr.s 			page 10


  75:Drivers/lvgl/src/draw/lv_img_buf.c ****     }
 182              		.loc 1 75 36 view .LVU59
 183 0080 1840     		ands	r0, r0, r3
  75:Drivers/lvgl/src/draw/lv_img_buf.c ****     }
 184              		.loc 1 75 22 view .LVU60
 185 0082 1041     		asrs	r0, r0, r2
  75:Drivers/lvgl/src/draw/lv_img_buf.c ****     }
 186              		.loc 1 75 22 view .LVU61
 187              	.LBE32:
  97:Drivers/lvgl/src/draw/lv_img_buf.c **** }
 188              		.loc 1 97 5 is_stmt 1 view .LVU62
 189              		.loc 1 98 1 is_stmt 0 view .LVU63
 190 0084 F8BD     		pop	{r3, r4, r5, r6, r7, pc}
 191              	.LVL12:
 192              	.L7:
 193              	.LBB33:
  78:Drivers/lvgl/src/draw/lv_img_buf.c ****         uint8_t bit = (x & 0x1) * 4;
 194              		.loc 1 78 9 is_stmt 1 view .LVU64
  79:Drivers/lvgl/src/draw/lv_img_buf.c ****         x           = x >> 1;
 195              		.loc 1 79 9 view .LVU65
  80:Drivers/lvgl/src/draw/lv_img_buf.c **** 
 196              		.loc 1 80 9 view .LVU66
  85:Drivers/lvgl/src/draw/lv_img_buf.c ****         p_color.full = (buf_u8[px] & (0xF << (4 - bit))) >> (4 - bit);
 197              		.loc 1 85 9 view .LVU67
  86:Drivers/lvgl/src/draw/lv_img_buf.c ****     }
 198              		.loc 1 86 9 view .LVU68
  85:Drivers/lvgl/src/draw/lv_img_buf.c ****         p_color.full = (buf_u8[px] & (0xF << (4 - bit))) >> (4 - bit);
 199              		.loc 1 85 37 is_stmt 0 view .LVU69
 200 0086 2368     		ldr	r3, [r4]
 201              	.LVL13:
  85:Drivers/lvgl/src/draw/lv_img_buf.c ****         p_color.full = (buf_u8[px] & (0xF << (4 - bit))) >> (4 - bit);
 202              		.loc 1 85 37 view .LVU70
 203 0088 C3F38A23 		ubfx	r3, r3, #10, #11
  85:Drivers/lvgl/src/draw/lv_img_buf.c ****         p_color.full = (buf_u8[px] & (0xF << (4 - bit))) >> (4 - bit);
 204              		.loc 1 85 40 view .LVU71
 205 008c 0133     		adds	r3, r3, #1
  85:Drivers/lvgl/src/draw/lv_img_buf.c ****         p_color.full = (buf_u8[px] & (0xF << (4 - bit))) >> (4 - bit);
 206              		.loc 1 85 45 view .LVU72
 207 008e 5B10     		asrs	r3, r3, #1
  86:Drivers/lvgl/src/draw/lv_img_buf.c ****     }
 208              		.loc 1 86 31 view .LVU73
 209 0090 06FB0373 		mla	r3, r6, r3, r7
 210 0094 03EB6503 		add	r3, r3, r5, asr #1
  79:Drivers/lvgl/src/draw/lv_img_buf.c ****         x           = x >> 1;
 211              		.loc 1 79 17 view .LVU74
 212 0098 05F00102 		and	r2, r5, #1
  86:Drivers/lvgl/src/draw/lv_img_buf.c ****     }
 213              		.loc 1 86 49 view .LVU75
 214 009c 9200     		lsls	r2, r2, #2
  86:Drivers/lvgl/src/draw/lv_img_buf.c ****     }
 215              		.loc 1 86 31 view .LVU76
 216 009e 93F84000 		ldrb	r0, [r3, #64]	@ zero_extendqisi2
  86:Drivers/lvgl/src/draw/lv_img_buf.c ****     }
 217              		.loc 1 86 49 view .LVU77
 218 00a2 C2F10402 		rsb	r2, r2, #4
  86:Drivers/lvgl/src/draw/lv_img_buf.c ****     }
 219              		.loc 1 86 43 view .LVU78
ARM GAS  /var/folders/0z/tsy30v1j4xl4_7kw94k978ww0000gn/T//ccd7xBqr.s 			page 11


 220 00a6 0F23     		movs	r3, #15
 221 00a8 9340     		lsls	r3, r3, r2
  86:Drivers/lvgl/src/draw/lv_img_buf.c ****     }
 222              		.loc 1 86 36 view .LVU79
 223 00aa 1840     		ands	r0, r0, r3
  86:Drivers/lvgl/src/draw/lv_img_buf.c ****     }
 224              		.loc 1 86 22 view .LVU80
 225 00ac 1041     		asrs	r0, r0, r2
  86:Drivers/lvgl/src/draw/lv_img_buf.c ****     }
 226              		.loc 1 86 22 view .LVU81
 227              	.LBE33:
  97:Drivers/lvgl/src/draw/lv_img_buf.c **** }
 228              		.loc 1 97 5 is_stmt 1 view .LVU82
 229              		.loc 1 98 1 is_stmt 0 view .LVU83
 230 00ae F8BD     		pop	{r3, r4, r5, r6, r7, pc}
 231              	.LVL14:
 232              	.L9:
 233              	.LBB34:
  56:Drivers/lvgl/src/draw/lv_img_buf.c ****         uint8_t bit = x & 0x7;
 234              		.loc 1 56 9 is_stmt 1 view .LVU84
  57:Drivers/lvgl/src/draw/lv_img_buf.c ****         x           = x >> 3;
 235              		.loc 1 57 9 view .LVU85
  58:Drivers/lvgl/src/draw/lv_img_buf.c **** 
 236              		.loc 1 58 9 view .LVU86
  63:Drivers/lvgl/src/draw/lv_img_buf.c ****         p_color.full = (buf_u8[px] & (1 << (7 - bit))) >> (7 - bit);
 237              		.loc 1 63 9 view .LVU87
  64:Drivers/lvgl/src/draw/lv_img_buf.c ****     }
 238              		.loc 1 64 9 view .LVU88
  63:Drivers/lvgl/src/draw/lv_img_buf.c ****         p_color.full = (buf_u8[px] & (1 << (7 - bit))) >> (7 - bit);
 239              		.loc 1 63 37 is_stmt 0 view .LVU89
 240 00b0 2368     		ldr	r3, [r4]
 241              	.LVL15:
  63:Drivers/lvgl/src/draw/lv_img_buf.c ****         p_color.full = (buf_u8[px] & (1 << (7 - bit))) >> (7 - bit);
 242              		.loc 1 63 37 view .LVU90
 243 00b2 C3F38A23 		ubfx	r3, r3, #10, #11
  63:Drivers/lvgl/src/draw/lv_img_buf.c ****         p_color.full = (buf_u8[px] & (1 << (7 - bit))) >> (7 - bit);
 244              		.loc 1 63 40 view .LVU91
 245 00b6 0733     		adds	r3, r3, #7
  63:Drivers/lvgl/src/draw/lv_img_buf.c ****         p_color.full = (buf_u8[px] & (1 << (7 - bit))) >> (7 - bit);
 246              		.loc 1 63 45 view .LVU92
 247 00b8 DB10     		asrs	r3, r3, #3
  64:Drivers/lvgl/src/draw/lv_img_buf.c ****     }
 248              		.loc 1 64 31 view .LVU93
 249 00ba 06FB0373 		mla	r3, r6, r3, r7
 250 00be 03EBE503 		add	r3, r3, r5, asr #3
  64:Drivers/lvgl/src/draw/lv_img_buf.c ****     }
 251              		.loc 1 64 47 view .LVU94
 252 00c2 05F00702 		and	r2, r5, #7
  64:Drivers/lvgl/src/draw/lv_img_buf.c ****     }
 253              		.loc 1 64 31 view .LVU95
 254 00c6 187A     		ldrb	r0, [r3, #8]	@ zero_extendqisi2
  64:Drivers/lvgl/src/draw/lv_img_buf.c ****     }
 255              		.loc 1 64 47 view .LVU96
 256 00c8 C2F10702 		rsb	r2, r2, #7
  64:Drivers/lvgl/src/draw/lv_img_buf.c ****     }
 257              		.loc 1 64 41 view .LVU97
 258 00cc 0123     		movs	r3, #1
ARM GAS  /var/folders/0z/tsy30v1j4xl4_7kw94k978ww0000gn/T//ccd7xBqr.s 			page 12


 259 00ce 9340     		lsls	r3, r3, r2
  64:Drivers/lvgl/src/draw/lv_img_buf.c ****     }
 260              		.loc 1 64 36 view .LVU98
 261 00d0 1840     		ands	r0, r0, r3
  64:Drivers/lvgl/src/draw/lv_img_buf.c ****     }
 262              		.loc 1 64 22 view .LVU99
 263 00d2 1041     		asrs	r0, r0, r2
  64:Drivers/lvgl/src/draw/lv_img_buf.c ****     }
 264              		.loc 1 64 22 view .LVU100
 265              	.LBE34:
  97:Drivers/lvgl/src/draw/lv_img_buf.c **** }
 266              		.loc 1 97 5 is_stmt 1 view .LVU101
 267              		.loc 1 98 1 is_stmt 0 view .LVU102
 268 00d4 F8BD     		pop	{r3, r4, r5, r6, r7, pc}
 269              	.LVL16:
 270              	.L6:
 271              	.LBB35:
  89:Drivers/lvgl/src/draw/lv_img_buf.c ****         uint32_t px  = dsc->header.w * y + x;
 272              		.loc 1 89 9 is_stmt 1 view .LVU103
  90:Drivers/lvgl/src/draw/lv_img_buf.c ****         p_color.full = buf_u8[px];
 273              		.loc 1 90 9 view .LVU104
  91:Drivers/lvgl/src/draw/lv_img_buf.c ****     }
 274              		.loc 1 91 9 view .LVU105
  90:Drivers/lvgl/src/draw/lv_img_buf.c ****         p_color.full = buf_u8[px];
 275              		.loc 1 90 35 is_stmt 0 view .LVU106
 276 00d6 2368     		ldr	r3, [r4]
 277              	.LVL17:
  90:Drivers/lvgl/src/draw/lv_img_buf.c ****         p_color.full = buf_u8[px];
 278              		.loc 1 90 35 view .LVU107
 279 00d8 C3F38A23 		ubfx	r3, r3, #10, #11
  90:Drivers/lvgl/src/draw/lv_img_buf.c ****         p_color.full = buf_u8[px];
 280              		.loc 1 90 42 view .LVU108
 281 00dc 16FB0356 		smlabb	r6, r6, r3, r5
 282              	.LVL18:
  91:Drivers/lvgl/src/draw/lv_img_buf.c ****     }
 283              		.loc 1 91 30 view .LVU109
 284 00e0 3744     		add	r7, r7, r6
 285              	.LVL19:
  91:Drivers/lvgl/src/draw/lv_img_buf.c ****     }
 286              		.loc 1 91 30 view .LVU110
 287 00e2 97F80004 		ldrb	r0, [r7, #1024]	@ zero_extendqisi2
 288              	.LBE35:
  97:Drivers/lvgl/src/draw/lv_img_buf.c **** }
 289              		.loc 1 97 5 is_stmt 1 view .LVU111
 290              		.loc 1 98 1 is_stmt 0 view .LVU112
 291 00e6 F8BD     		pop	{r3, r4, r5, r6, r7, pc}
 292              		.loc 1 98 1 view .LVU113
 293              		.cfi_endproc
 294              	.LFE54:
 296              		.section	.text.lv_img_buf_get_px_alpha,"ax",%progbits
 297              		.align	1
 298              		.p2align 2,,3
 299              		.global	lv_img_buf_get_px_alpha
 300              		.syntax unified
 301              		.thumb
 302              		.thumb_func
 304              	lv_img_buf_get_px_alpha:
ARM GAS  /var/folders/0z/tsy30v1j4xl4_7kw94k978ww0000gn/T//ccd7xBqr.s 			page 13


 305              	.LVL20:
 306              	.LFB55:
  99:Drivers/lvgl/src/draw/lv_img_buf.c **** 
 100:Drivers/lvgl/src/draw/lv_img_buf.c **** lv_opa_t lv_img_buf_get_px_alpha(const lv_img_dsc_t * dsc, lv_coord_t x, lv_coord_t y)
 101:Drivers/lvgl/src/draw/lv_img_buf.c **** {
 307              		.loc 1 101 1 is_stmt 1 view -0
 308              		.cfi_startproc
 309              		@ args = 0, pretend = 0, frame = 16
 310              		@ frame_needed = 0, uses_anonymous_args = 0
 311              		@ link register save eliminated.
 102:Drivers/lvgl/src/draw/lv_img_buf.c ****     uint8_t * buf_u8 = (uint8_t *)dsc->data;
 312              		.loc 1 102 5 view .LVU115
 101:Drivers/lvgl/src/draw/lv_img_buf.c ****     uint8_t * buf_u8 = (uint8_t *)dsc->data;
 313              		.loc 1 101 1 is_stmt 0 view .LVU116
 314 0000 30B4     		push	{r4, r5}
 315              		.cfi_def_cfa_offset 8
 316              		.cfi_offset 4, -8
 317              		.cfi_offset 5, -4
 103:Drivers/lvgl/src/draw/lv_img_buf.c **** 
 104:Drivers/lvgl/src/draw/lv_img_buf.c ****     if(dsc->header.cf == LV_IMG_CF_TRUE_COLOR_ALPHA) {
 318              		.loc 1 104 23 view .LVU117
 319 0002 0378     		ldrb	r3, [r0]	@ zero_extendqisi2
 102:Drivers/lvgl/src/draw/lv_img_buf.c **** 
 320              		.loc 1 102 15 view .LVU118
 321 0004 8468     		ldr	r4, [r0, #8]
 322              	.LVL21:
 323              		.loc 1 104 5 is_stmt 1 view .LVU119
 324              		.loc 1 104 23 is_stmt 0 view .LVU120
 325 0006 03F01F03 		and	r3, r3, #31
 326              		.loc 1 104 7 view .LVU121
 327 000a 052B     		cmp	r3, #5
 101:Drivers/lvgl/src/draw/lv_img_buf.c ****     uint8_t * buf_u8 = (uint8_t *)dsc->data;
 328              		.loc 1 101 1 view .LVU122
 329 000c 84B0     		sub	sp, sp, #16
 330              		.cfi_def_cfa_offset 24
 331              		.loc 1 104 7 view .LVU123
 332 000e 06D0     		beq	.L27
 105:Drivers/lvgl/src/draw/lv_img_buf.c ****         uint32_t px = dsc->header.w * y * LV_IMG_PX_SIZE_ALPHA_BYTE + x * LV_IMG_PX_SIZE_ALPHA_BYTE
 106:Drivers/lvgl/src/draw/lv_img_buf.c ****         return buf_u8[px + LV_IMG_PX_SIZE_ALPHA_BYTE - 1];
 107:Drivers/lvgl/src/draw/lv_img_buf.c ****     }
 108:Drivers/lvgl/src/draw/lv_img_buf.c ****     else if(dsc->header.cf == LV_IMG_CF_ALPHA_1BIT) {
 333              		.loc 1 108 10 is_stmt 1 view .LVU124
 334 0010 0B3B     		subs	r3, r3, #11
 335 0012 032B     		cmp	r3, #3
 336 0014 6FD8     		bhi	.L25
 337 0016 DFE803F0 		tbb	[pc, r3]
 338              	.L21:
 339 001a 17       		.byte	(.L24-.L21)/2
 340 001b 30       		.byte	(.L23-.L21)/2
 341 001c 4C       		.byte	(.L22-.L21)/2
 342 001d 0E       		.byte	(.L20-.L21)/2
 343              		.p2align 1
 344              	.L27:
 345              	.LBB36:
 105:Drivers/lvgl/src/draw/lv_img_buf.c ****         uint32_t px = dsc->header.w * y * LV_IMG_PX_SIZE_ALPHA_BYTE + x * LV_IMG_PX_SIZE_ALPHA_BYTE
 346              		.loc 1 105 9 view .LVU125
 347              	.LVL22:
ARM GAS  /var/folders/0z/tsy30v1j4xl4_7kw94k978ww0000gn/T//ccd7xBqr.s 			page 14


 106:Drivers/lvgl/src/draw/lv_img_buf.c ****     }
 348              		.loc 1 106 9 view .LVU126
 105:Drivers/lvgl/src/draw/lv_img_buf.c ****         uint32_t px = dsc->header.w * y * LV_IMG_PX_SIZE_ALPHA_BYTE + x * LV_IMG_PX_SIZE_ALPHA_BYTE
 349              		.loc 1 105 34 is_stmt 0 view .LVU127
 350 001e 0368     		ldr	r3, [r0]
 351 0020 C3F38A23 		ubfx	r3, r3, #10, #11
 105:Drivers/lvgl/src/draw/lv_img_buf.c ****         uint32_t px = dsc->header.w * y * LV_IMG_PX_SIZE_ALPHA_BYTE + x * LV_IMG_PX_SIZE_ALPHA_BYTE
 352              		.loc 1 105 69 view .LVU128
 353 0024 12FB0312 		smlabb	r2, r2, r3, r1
 354              	.LVL23:
 106:Drivers/lvgl/src/draw/lv_img_buf.c ****     }
 355              		.loc 1 106 22 view .LVU129
 356 0028 02EB4202 		add	r2, r2, r2, lsl #1
 357 002c 2244     		add	r2, r2, r4
 358 002e 9078     		ldrb	r0, [r2, #2]	@ zero_extendqisi2
 359              	.LVL24:
 360              	.L19:
 106:Drivers/lvgl/src/draw/lv_img_buf.c ****     }
 361              		.loc 1 106 22 view .LVU130
 362              	.LBE36:
 109:Drivers/lvgl/src/draw/lv_img_buf.c ****         uint8_t bit = x & 0x7;
 110:Drivers/lvgl/src/draw/lv_img_buf.c ****         x           = x >> 3;
 111:Drivers/lvgl/src/draw/lv_img_buf.c **** 
 112:Drivers/lvgl/src/draw/lv_img_buf.c ****         /*Get the current pixel.
 113:Drivers/lvgl/src/draw/lv_img_buf.c ****          *dsc->header.w + 7 means rounding up to 8 because the lines are byte aligned
 114:Drivers/lvgl/src/draw/lv_img_buf.c ****          *so the possible real width are 8 ,16, 24 ...*/
 115:Drivers/lvgl/src/draw/lv_img_buf.c ****         uint32_t px    = ((dsc->header.w + 7) >> 3) * y + x;
 116:Drivers/lvgl/src/draw/lv_img_buf.c ****         uint8_t px_opa = (buf_u8[px] & (1 << (7 - bit))) >> (7 - bit);
 117:Drivers/lvgl/src/draw/lv_img_buf.c ****         return px_opa ? LV_OPA_TRANSP : LV_OPA_COVER;
 118:Drivers/lvgl/src/draw/lv_img_buf.c ****     }
 119:Drivers/lvgl/src/draw/lv_img_buf.c ****     else if(dsc->header.cf == LV_IMG_CF_ALPHA_2BIT) {
 120:Drivers/lvgl/src/draw/lv_img_buf.c ****         const uint8_t opa_table[4] = {0, 85, 170, 255}; /*Opacity mapping with bpp = 2*/
 121:Drivers/lvgl/src/draw/lv_img_buf.c **** 
 122:Drivers/lvgl/src/draw/lv_img_buf.c ****         uint8_t bit = (x & 0x3) * 2;
 123:Drivers/lvgl/src/draw/lv_img_buf.c ****         x           = x >> 2;
 124:Drivers/lvgl/src/draw/lv_img_buf.c **** 
 125:Drivers/lvgl/src/draw/lv_img_buf.c ****         /*Get the current pixel.
 126:Drivers/lvgl/src/draw/lv_img_buf.c ****          *dsc->header.w + 4 means rounding up to 8 because the lines are byte aligned
 127:Drivers/lvgl/src/draw/lv_img_buf.c ****          *so the possible real width are 4 ,8, 12 ...*/
 128:Drivers/lvgl/src/draw/lv_img_buf.c ****         uint32_t px    = ((dsc->header.w + 3) >> 2) * y + x;
 129:Drivers/lvgl/src/draw/lv_img_buf.c ****         uint8_t px_opa = (buf_u8[px] & (3 << (6 - bit))) >> (6 - bit);
 130:Drivers/lvgl/src/draw/lv_img_buf.c ****         return opa_table[px_opa];
 131:Drivers/lvgl/src/draw/lv_img_buf.c ****     }
 132:Drivers/lvgl/src/draw/lv_img_buf.c ****     else if(dsc->header.cf == LV_IMG_CF_ALPHA_4BIT) {
 133:Drivers/lvgl/src/draw/lv_img_buf.c ****         const uint8_t opa_table[16] = {0,  17, 34,  51, /*Opacity mapping with bpp = 4*/
 134:Drivers/lvgl/src/draw/lv_img_buf.c ****                                        68, 85, 102, 119, 136, 153, 170, 187, 204, 221, 238, 255
 135:Drivers/lvgl/src/draw/lv_img_buf.c ****                                       };
 136:Drivers/lvgl/src/draw/lv_img_buf.c **** 
 137:Drivers/lvgl/src/draw/lv_img_buf.c ****         uint8_t bit = (x & 0x1) * 4;
 138:Drivers/lvgl/src/draw/lv_img_buf.c ****         x           = x >> 1;
 139:Drivers/lvgl/src/draw/lv_img_buf.c **** 
 140:Drivers/lvgl/src/draw/lv_img_buf.c ****         /*Get the current pixel.
 141:Drivers/lvgl/src/draw/lv_img_buf.c ****          *dsc->header.w + 1 means rounding up to 8 because the lines are byte aligned
 142:Drivers/lvgl/src/draw/lv_img_buf.c ****          *so the possible real width are 2 ,4, 6 ...*/
 143:Drivers/lvgl/src/draw/lv_img_buf.c ****         uint32_t px    = ((dsc->header.w + 1) >> 1) * y + x;
 144:Drivers/lvgl/src/draw/lv_img_buf.c ****         uint8_t px_opa = (buf_u8[px] & (0xF << (4 - bit))) >> (4 - bit);
 145:Drivers/lvgl/src/draw/lv_img_buf.c ****         return opa_table[px_opa];
ARM GAS  /var/folders/0z/tsy30v1j4xl4_7kw94k978ww0000gn/T//ccd7xBqr.s 			page 15


 146:Drivers/lvgl/src/draw/lv_img_buf.c ****     }
 147:Drivers/lvgl/src/draw/lv_img_buf.c ****     else if(dsc->header.cf == LV_IMG_CF_ALPHA_8BIT) {
 148:Drivers/lvgl/src/draw/lv_img_buf.c ****         uint32_t px = dsc->header.w * y + x;
 149:Drivers/lvgl/src/draw/lv_img_buf.c ****         return buf_u8[px];
 150:Drivers/lvgl/src/draw/lv_img_buf.c ****     }
 151:Drivers/lvgl/src/draw/lv_img_buf.c **** 
 152:Drivers/lvgl/src/draw/lv_img_buf.c ****     return LV_OPA_COVER;
 153:Drivers/lvgl/src/draw/lv_img_buf.c **** }
 363              		.loc 1 153 1 discriminator 1 view .LVU131
 364 0030 04B0     		add	sp, sp, #16
 365              		.cfi_remember_state
 366              		.cfi_def_cfa_offset 8
 367              		@ sp needed
 368 0032 30BC     		pop	{r4, r5}
 369              		.cfi_restore 5
 370              		.cfi_restore 4
 371              		.cfi_def_cfa_offset 0
 372              	.LVL25:
 373              		.loc 1 153 1 discriminator 1 view .LVU132
 374 0034 7047     		bx	lr
 375              	.LVL26:
 376              	.L20:
 377              		.cfi_restore_state
 378              	.LBB37:
 148:Drivers/lvgl/src/draw/lv_img_buf.c ****         return buf_u8[px];
 379              		.loc 1 148 9 is_stmt 1 view .LVU133
 149:Drivers/lvgl/src/draw/lv_img_buf.c ****     }
 380              		.loc 1 149 9 view .LVU134
 148:Drivers/lvgl/src/draw/lv_img_buf.c ****         return buf_u8[px];
 381              		.loc 1 148 34 is_stmt 0 view .LVU135
 382 0036 0368     		ldr	r3, [r0]
 383 0038 C3F38A23 		ubfx	r3, r3, #10, #11
 148:Drivers/lvgl/src/draw/lv_img_buf.c ****         return buf_u8[px];
 384              		.loc 1 148 41 view .LVU136
 385 003c 12FB0312 		smlabb	r2, r2, r3, r1
 386              	.LVL27:
 149:Drivers/lvgl/src/draw/lv_img_buf.c ****     }
 387              		.loc 1 149 22 view .LVU137
 388 0040 A05C     		ldrb	r0, [r4, r2]	@ zero_extendqisi2
 389              	.LVL28:
 149:Drivers/lvgl/src/draw/lv_img_buf.c ****     }
 390              		.loc 1 149 22 view .LVU138
 391              	.LBE37:
 392              		.loc 1 153 1 view .LVU139
 393 0042 04B0     		add	sp, sp, #16
 394              		.cfi_remember_state
 395              		.cfi_def_cfa_offset 8
 396              		@ sp needed
 397 0044 30BC     		pop	{r4, r5}
 398              		.cfi_restore 5
 399              		.cfi_restore 4
 400              		.cfi_def_cfa_offset 0
 401              	.LVL29:
 402              		.loc 1 153 1 view .LVU140
 403 0046 7047     		bx	lr
 404              	.LVL30:
 405              	.L24:
ARM GAS  /var/folders/0z/tsy30v1j4xl4_7kw94k978ww0000gn/T//ccd7xBqr.s 			page 16


 406              		.cfi_restore_state
 407              	.LBB38:
 109:Drivers/lvgl/src/draw/lv_img_buf.c ****         uint8_t bit = x & 0x7;
 408              		.loc 1 109 9 is_stmt 1 view .LVU141
 110:Drivers/lvgl/src/draw/lv_img_buf.c **** 
 409              		.loc 1 110 9 view .LVU142
 115:Drivers/lvgl/src/draw/lv_img_buf.c ****         uint8_t px_opa = (buf_u8[px] & (1 << (7 - bit))) >> (7 - bit);
 410              		.loc 1 115 9 view .LVU143
 116:Drivers/lvgl/src/draw/lv_img_buf.c ****         return px_opa ? LV_OPA_TRANSP : LV_OPA_COVER;
 411              		.loc 1 116 9 view .LVU144
 115:Drivers/lvgl/src/draw/lv_img_buf.c ****         uint8_t px_opa = (buf_u8[px] & (1 << (7 - bit))) >> (7 - bit);
 412              		.loc 1 115 39 is_stmt 0 view .LVU145
 413 0048 0368     		ldr	r3, [r0]
 414 004a C3F38A23 		ubfx	r3, r3, #10, #11
 115:Drivers/lvgl/src/draw/lv_img_buf.c ****         uint8_t px_opa = (buf_u8[px] & (1 << (7 - bit))) >> (7 - bit);
 415              		.loc 1 115 42 view .LVU146
 416 004e 0733     		adds	r3, r3, #7
 115:Drivers/lvgl/src/draw/lv_img_buf.c ****         uint8_t px_opa = (buf_u8[px] & (1 << (7 - bit))) >> (7 - bit);
 417              		.loc 1 115 47 view .LVU147
 418 0050 DB10     		asrs	r3, r3, #3
 116:Drivers/lvgl/src/draw/lv_img_buf.c ****         return px_opa ? LV_OPA_TRANSP : LV_OPA_COVER;
 419              		.loc 1 116 49 view .LVU148
 420 0052 01F00700 		and	r0, r1, #7
 421              	.LVL31:
 116:Drivers/lvgl/src/draw/lv_img_buf.c ****         return px_opa ? LV_OPA_TRANSP : LV_OPA_COVER;
 422              		.loc 1 116 33 view .LVU149
 423 0056 02FB0343 		mla	r3, r2, r3, r4
 115:Drivers/lvgl/src/draw/lv_img_buf.c ****         uint8_t px_opa = (buf_u8[px] & (1 << (7 - bit))) >> (7 - bit);
 424              		.loc 1 115 57 view .LVU150
 425 005a C910     		asrs	r1, r1, #3
 426              	.LVL32:
 116:Drivers/lvgl/src/draw/lv_img_buf.c ****         return px_opa ? LV_OPA_TRANSP : LV_OPA_COVER;
 427              		.loc 1 116 49 view .LVU151
 428 005c C0F10702 		rsb	r2, r0, #7
 429              	.LVL33:
 117:Drivers/lvgl/src/draw/lv_img_buf.c ****     }
 430              		.loc 1 117 9 is_stmt 1 view .LVU152
 116:Drivers/lvgl/src/draw/lv_img_buf.c ****         return px_opa ? LV_OPA_TRANSP : LV_OPA_COVER;
 431              		.loc 1 116 33 is_stmt 0 view .LVU153
 432 0060 5B5C     		ldrb	r3, [r3, r1]	@ zero_extendqisi2
 116:Drivers/lvgl/src/draw/lv_img_buf.c ****         return px_opa ? LV_OPA_TRANSP : LV_OPA_COVER;
 433              		.loc 1 116 43 view .LVU154
 434 0062 0121     		movs	r1, #1
 435 0064 9140     		lsls	r1, r1, r2
 116:Drivers/lvgl/src/draw/lv_img_buf.c ****         return px_opa ? LV_OPA_TRANSP : LV_OPA_COVER;
 436              		.loc 1 116 38 view .LVU155
 437 0066 0B40     		ands	r3, r3, r1
 117:Drivers/lvgl/src/draw/lv_img_buf.c ****     }
 438              		.loc 1 117 39 view .LVU156
 439 0068 1341     		asrs	r3, r3, r2
 440 006a 0CBF     		ite	eq
 441 006c 4FF0FF30 		moveq	r0, #-1
 442 0070 0020     		movne	r0, #0
 443 0072 C0B2     		uxtb	r0, r0
 444              	.LBE38:
 445              		.loc 1 153 1 view .LVU157
 446 0074 04B0     		add	sp, sp, #16
ARM GAS  /var/folders/0z/tsy30v1j4xl4_7kw94k978ww0000gn/T//ccd7xBqr.s 			page 17


 447              		.cfi_remember_state
 448              		.cfi_def_cfa_offset 8
 449              		@ sp needed
 450 0076 30BC     		pop	{r4, r5}
 451              		.cfi_restore 5
 452              		.cfi_restore 4
 453              		.cfi_def_cfa_offset 0
 454              	.LVL34:
 455              		.loc 1 153 1 view .LVU158
 456 0078 7047     		bx	lr
 457              	.LVL35:
 458              	.L23:
 459              		.cfi_restore_state
 460              	.LBB39:
 120:Drivers/lvgl/src/draw/lv_img_buf.c **** 
 461              		.loc 1 120 9 is_stmt 1 view .LVU159
 128:Drivers/lvgl/src/draw/lv_img_buf.c ****         uint8_t px_opa = (buf_u8[px] & (3 << (6 - bit))) >> (6 - bit);
 462              		.loc 1 128 39 is_stmt 0 view .LVU160
 463 007a 0368     		ldr	r3, [r0]
 120:Drivers/lvgl/src/draw/lv_img_buf.c **** 
 464              		.loc 1 120 23 view .LVU161
 465 007c 1F4D     		ldr	r5, .L28
 466 007e 0095     		str	r5, [sp]
 128:Drivers/lvgl/src/draw/lv_img_buf.c ****         uint8_t px_opa = (buf_u8[px] & (3 << (6 - bit))) >> (6 - bit);
 467              		.loc 1 128 39 view .LVU162
 468 0080 C3F38A23 		ubfx	r3, r3, #10, #11
 128:Drivers/lvgl/src/draw/lv_img_buf.c ****         uint8_t px_opa = (buf_u8[px] & (3 << (6 - bit))) >> (6 - bit);
 469              		.loc 1 128 42 view .LVU163
 470 0084 0333     		adds	r3, r3, #3
 129:Drivers/lvgl/src/draw/lv_img_buf.c ****         return opa_table[px_opa];
 471              		.loc 1 129 43 view .LVU164
 472 0086 0320     		movs	r0, #3
 473              	.LVL36:
 128:Drivers/lvgl/src/draw/lv_img_buf.c ****         uint8_t px_opa = (buf_u8[px] & (3 << (6 - bit))) >> (6 - bit);
 474              		.loc 1 128 47 view .LVU165
 475 0088 9B10     		asrs	r3, r3, #2
 122:Drivers/lvgl/src/draw/lv_img_buf.c ****         x           = x >> 2;
 476              		.loc 1 122 9 is_stmt 1 view .LVU166
 477              	.LVL37:
 123:Drivers/lvgl/src/draw/lv_img_buf.c **** 
 478              		.loc 1 123 9 view .LVU167
 128:Drivers/lvgl/src/draw/lv_img_buf.c ****         uint8_t px_opa = (buf_u8[px] & (3 << (6 - bit))) >> (6 - bit);
 479              		.loc 1 128 9 view .LVU168
 129:Drivers/lvgl/src/draw/lv_img_buf.c ****         return opa_table[px_opa];
 480              		.loc 1 129 9 view .LVU169
 129:Drivers/lvgl/src/draw/lv_img_buf.c ****         return opa_table[px_opa];
 481              		.loc 1 129 33 is_stmt 0 view .LVU170
 482 008a 02FB0343 		mla	r3, r2, r3, r4
 122:Drivers/lvgl/src/draw/lv_img_buf.c ****         x           = x >> 2;
 483              		.loc 1 122 17 view .LVU171
 484 008e 01EA0002 		and	r2, r1, r0
 485              	.LVL38:
 128:Drivers/lvgl/src/draw/lv_img_buf.c ****         uint8_t px_opa = (buf_u8[px] & (3 << (6 - bit))) >> (6 - bit);
 486              		.loc 1 128 57 view .LVU172
 487 0092 8910     		asrs	r1, r1, #2
 488              	.LVL39:
 129:Drivers/lvgl/src/draw/lv_img_buf.c ****         return opa_table[px_opa];
ARM GAS  /var/folders/0z/tsy30v1j4xl4_7kw94k978ww0000gn/T//ccd7xBqr.s 			page 18


 489              		.loc 1 129 49 view .LVU173
 490 0094 5200     		lsls	r2, r2, #1
 129:Drivers/lvgl/src/draw/lv_img_buf.c ****         return opa_table[px_opa];
 491              		.loc 1 129 33 view .LVU174
 492 0096 5B5C     		ldrb	r3, [r3, r1]	@ zero_extendqisi2
 129:Drivers/lvgl/src/draw/lv_img_buf.c ****         return opa_table[px_opa];
 493              		.loc 1 129 49 view .LVU175
 494 0098 C2F10602 		rsb	r2, r2, #6
 495              	.LVL40:
 130:Drivers/lvgl/src/draw/lv_img_buf.c ****     }
 496              		.loc 1 130 9 is_stmt 1 view .LVU176
 129:Drivers/lvgl/src/draw/lv_img_buf.c ****         return opa_table[px_opa];
 497              		.loc 1 129 43 is_stmt 0 view .LVU177
 498 009c 00FA02F1 		lsl	r1, r0, r2
 129:Drivers/lvgl/src/draw/lv_img_buf.c ****         return opa_table[px_opa];
 499              		.loc 1 129 38 view .LVU178
 500 00a0 0B40     		ands	r3, r3, r1
 129:Drivers/lvgl/src/draw/lv_img_buf.c ****         return opa_table[px_opa];
 501              		.loc 1 129 58 view .LVU179
 502 00a2 1341     		asrs	r3, r3, r2
 130:Drivers/lvgl/src/draw/lv_img_buf.c ****     }
 503              		.loc 1 130 25 view .LVU180
 504 00a4 1033     		adds	r3, r3, #16
 505 00a6 6B44     		add	r3, sp, r3
 506 00a8 13F8100C 		ldrb	r0, [r3, #-16]	@ zero_extendqisi2
 507              	.LBE39:
 508              		.loc 1 153 1 view .LVU181
 509 00ac 04B0     		add	sp, sp, #16
 510              		.cfi_remember_state
 511              		.cfi_def_cfa_offset 8
 512              		@ sp needed
 513 00ae 30BC     		pop	{r4, r5}
 514              		.cfi_restore 5
 515              		.cfi_restore 4
 516              		.cfi_def_cfa_offset 0
 517              	.LVL41:
 518              		.loc 1 153 1 view .LVU182
 519 00b0 7047     		bx	lr
 520              	.LVL42:
 521              	.L22:
 522              		.cfi_restore_state
 523              	.LBB40:
 133:Drivers/lvgl/src/draw/lv_img_buf.c ****                                        68, 85, 102, 119, 136, 153, 170, 187, 204, 221, 238, 255
 524              		.loc 1 133 9 is_stmt 1 view .LVU183
 143:Drivers/lvgl/src/draw/lv_img_buf.c ****         uint8_t px_opa = (buf_u8[px] & (0xF << (4 - bit))) >> (4 - bit);
 525              		.loc 1 143 39 is_stmt 0 view .LVU184
 526 00b2 0368     		ldr	r3, [r0]
 133:Drivers/lvgl/src/draw/lv_img_buf.c ****                                        68, 85, 102, 119, 136, 153, 170, 187, 204, 221, 238, 255
 527              		.loc 1 133 23 view .LVU185
 528 00b4 1248     		ldr	r0, .L28+4
 529              	.LVL43:
 143:Drivers/lvgl/src/draw/lv_img_buf.c ****         uint8_t px_opa = (buf_u8[px] & (0xF << (4 - bit))) >> (4 - bit);
 530              		.loc 1 143 39 view .LVU186
 531 00b6 C3F38A23 		ubfx	r3, r3, #10, #11
 143:Drivers/lvgl/src/draw/lv_img_buf.c ****         uint8_t px_opa = (buf_u8[px] & (0xF << (4 - bit))) >> (4 - bit);
 532              		.loc 1 143 42 view .LVU187
 533 00ba 0133     		adds	r3, r3, #1
ARM GAS  /var/folders/0z/tsy30v1j4xl4_7kw94k978ww0000gn/T//ccd7xBqr.s 			page 19


 143:Drivers/lvgl/src/draw/lv_img_buf.c ****         uint8_t px_opa = (buf_u8[px] & (0xF << (4 - bit))) >> (4 - bit);
 534              		.loc 1 143 47 view .LVU188
 535 00bc 5B10     		asrs	r3, r3, #1
 144:Drivers/lvgl/src/draw/lv_img_buf.c ****         return opa_table[px_opa];
 536              		.loc 1 144 33 view .LVU189
 537 00be 02FB0343 		mla	r3, r2, r3, r4
 137:Drivers/lvgl/src/draw/lv_img_buf.c ****         x           = x >> 1;
 538              		.loc 1 137 17 view .LVU190
 539 00c2 01F00102 		and	r2, r1, #1
 540              	.LVL44:
 143:Drivers/lvgl/src/draw/lv_img_buf.c ****         uint8_t px_opa = (buf_u8[px] & (0xF << (4 - bit))) >> (4 - bit);
 541              		.loc 1 143 57 view .LVU191
 542 00c6 4910     		asrs	r1, r1, #1
 543              	.LVL45:
 144:Drivers/lvgl/src/draw/lv_img_buf.c ****         return opa_table[px_opa];
 544              		.loc 1 144 45 view .LVU192
 545 00c8 4FF00F0C 		mov	ip, #15
 144:Drivers/lvgl/src/draw/lv_img_buf.c ****         return opa_table[px_opa];
 546              		.loc 1 144 33 view .LVU193
 547 00cc 5C5C     		ldrb	r4, [r3, r1]	@ zero_extendqisi2
 548              	.LVL46:
 144:Drivers/lvgl/src/draw/lv_img_buf.c ****         return opa_table[px_opa];
 549              		.loc 1 144 51 view .LVU194
 550 00ce 9300     		lsls	r3, r2, #2
 551 00d0 C3F10403 		rsb	r3, r3, #4
 144:Drivers/lvgl/src/draw/lv_img_buf.c ****         return opa_table[px_opa];
 552              		.loc 1 144 45 view .LVU195
 553 00d4 0CFA03F2 		lsl	r2, ip, r3
 144:Drivers/lvgl/src/draw/lv_img_buf.c ****         return opa_table[px_opa];
 554              		.loc 1 144 38 view .LVU196
 555 00d8 1440     		ands	r4, r4, r2
 144:Drivers/lvgl/src/draw/lv_img_buf.c ****         return opa_table[px_opa];
 556              		.loc 1 144 60 view .LVU197
 557 00da 1C41     		asrs	r4, r4, r3
 145:Drivers/lvgl/src/draw/lv_img_buf.c ****     }
 558              		.loc 1 145 25 view .LVU198
 559 00dc 04F11003 		add	r3, r4, #16
 560 00e0 0DEB0304 		add	r4, sp, r3
 133:Drivers/lvgl/src/draw/lv_img_buf.c ****                                        68, 85, 102, 119, 136, 153, 170, 187, 204, 221, 238, 255
 561              		.loc 1 133 23 view .LVU199
 562 00e4 0FC8     		ldm	r0, {r0, r1, r2, r3}
 563 00e6 04AD     		add	r5, sp, #16
 564 00e8 05E90F00 		stmdb	r5, {r0, r1, r2, r3}
 137:Drivers/lvgl/src/draw/lv_img_buf.c ****         x           = x >> 1;
 565              		.loc 1 137 9 is_stmt 1 view .LVU200
 566              	.LVL47:
 138:Drivers/lvgl/src/draw/lv_img_buf.c **** 
 567              		.loc 1 138 9 view .LVU201
 143:Drivers/lvgl/src/draw/lv_img_buf.c ****         uint8_t px_opa = (buf_u8[px] & (0xF << (4 - bit))) >> (4 - bit);
 568              		.loc 1 143 9 view .LVU202
 144:Drivers/lvgl/src/draw/lv_img_buf.c ****         return opa_table[px_opa];
 569              		.loc 1 144 9 view .LVU203
 145:Drivers/lvgl/src/draw/lv_img_buf.c ****     }
 570              		.loc 1 145 9 view .LVU204
 145:Drivers/lvgl/src/draw/lv_img_buf.c ****     }
 571              		.loc 1 145 25 is_stmt 0 view .LVU205
 572 00ec 14F8100C 		ldrb	r0, [r4, #-16]	@ zero_extendqisi2
ARM GAS  /var/folders/0z/tsy30v1j4xl4_7kw94k978ww0000gn/T//ccd7xBqr.s 			page 20


 573              	.LBE40:
 574              		.loc 1 153 1 view .LVU206
 575 00f0 04B0     		add	sp, sp, #16
 576              		.cfi_remember_state
 577              		.cfi_def_cfa_offset 8
 578              		@ sp needed
 579 00f2 30BC     		pop	{r4, r5}
 580              		.cfi_restore 5
 581              		.cfi_restore 4
 582              		.cfi_def_cfa_offset 0
 583 00f4 7047     		bx	lr
 584              	.LVL48:
 585              	.L25:
 586              		.cfi_restore_state
 104:Drivers/lvgl/src/draw/lv_img_buf.c ****         uint32_t px = dsc->header.w * y * LV_IMG_PX_SIZE_ALPHA_BYTE + x * LV_IMG_PX_SIZE_ALPHA_BYTE
 587              		.loc 1 104 7 view .LVU207
 588 00f6 FF20     		movs	r0, #255
 589              	.LVL49:
 104:Drivers/lvgl/src/draw/lv_img_buf.c ****         uint32_t px = dsc->header.w * y * LV_IMG_PX_SIZE_ALPHA_BYTE + x * LV_IMG_PX_SIZE_ALPHA_BYTE
 590              		.loc 1 104 7 view .LVU208
 591 00f8 9AE7     		b	.L19
 592              	.L29:
 593 00fa 00BF     		.align	2
 594              	.L28:
 595 00fc 0055AAFF 		.word	-5614336
 596 0100 00000000 		.word	.LANCHOR0
 597              		.cfi_endproc
 598              	.LFE55:
 600              		.section	.text.lv_img_buf_set_px_alpha,"ax",%progbits
 601              		.align	1
 602              		.p2align 2,,3
 603              		.global	lv_img_buf_set_px_alpha
 604              		.syntax unified
 605              		.thumb
 606              		.thumb_func
 608              	lv_img_buf_set_px_alpha:
 609              	.LVL50:
 610              	.LFB56:
 154:Drivers/lvgl/src/draw/lv_img_buf.c **** 
 155:Drivers/lvgl/src/draw/lv_img_buf.c **** void lv_img_buf_set_px_alpha(const lv_img_dsc_t * dsc, lv_coord_t x, lv_coord_t y, lv_opa_t opa)
 156:Drivers/lvgl/src/draw/lv_img_buf.c **** {
 611              		.loc 1 156 1 is_stmt 1 view -0
 612              		.cfi_startproc
 613              		@ args = 0, pretend = 0, frame = 0
 614              		@ frame_needed = 0, uses_anonymous_args = 0
 157:Drivers/lvgl/src/draw/lv_img_buf.c ****     uint8_t * buf_u8 = (uint8_t *)dsc->data;
 615              		.loc 1 157 5 view .LVU210
 156:Drivers/lvgl/src/draw/lv_img_buf.c ****     uint8_t * buf_u8 = (uint8_t *)dsc->data;
 616              		.loc 1 156 1 is_stmt 0 view .LVU211
 617 0000 2DE9F041 		push	{r4, r5, r6, r7, r8, lr}
 618              		.cfi_def_cfa_offset 24
 619              		.cfi_offset 4, -24
 620              		.cfi_offset 5, -20
 621              		.cfi_offset 6, -16
 622              		.cfi_offset 7, -12
 623              		.cfi_offset 8, -8
 624              		.cfi_offset 14, -4
ARM GAS  /var/folders/0z/tsy30v1j4xl4_7kw94k978ww0000gn/T//ccd7xBqr.s 			page 21


 625              		.loc 1 157 15 view .LVU212
 626 0004 D0F80880 		ldr	r8, [r0, #8]
 627              	.LVL51:
 158:Drivers/lvgl/src/draw/lv_img_buf.c **** 
 159:Drivers/lvgl/src/draw/lv_img_buf.c ****     if(dsc->header.cf == LV_IMG_CF_TRUE_COLOR_ALPHA) {
 628              		.loc 1 159 5 is_stmt 1 view .LVU213
 156:Drivers/lvgl/src/draw/lv_img_buf.c ****     uint8_t * buf_u8 = (uint8_t *)dsc->data;
 629              		.loc 1 156 1 is_stmt 0 view .LVU214
 630 0008 0546     		mov	r5, r0
 631              		.loc 1 159 23 view .LVU215
 632 000a 0078     		ldrb	r0, [r0]	@ zero_extendqisi2
 633              	.LVL52:
 156:Drivers/lvgl/src/draw/lv_img_buf.c ****     uint8_t * buf_u8 = (uint8_t *)dsc->data;
 634              		.loc 1 156 1 view .LVU216
 635 000c 0C46     		mov	r4, r1
 636              		.loc 1 159 23 view .LVU217
 637 000e 00F01F01 		and	r1, r0, #31
 638              	.LVL53:
 639              		.loc 1 159 7 view .LVU218
 640 0012 0529     		cmp	r1, #5
 156:Drivers/lvgl/src/draw/lv_img_buf.c ****     uint8_t * buf_u8 = (uint8_t *)dsc->data;
 641              		.loc 1 156 1 view .LVU219
 642 0014 1746     		mov	r7, r2
 643 0016 1E46     		mov	r6, r3
 644              		.loc 1 159 7 view .LVU220
 645 0018 1FD0     		beq	.L41
 160:Drivers/lvgl/src/draw/lv_img_buf.c ****         uint8_t px_size          = lv_img_cf_get_px_size(dsc->header.cf) >> 3;
 161:Drivers/lvgl/src/draw/lv_img_buf.c ****         uint32_t px              = dsc->header.w * y * px_size + x * px_size;
 162:Drivers/lvgl/src/draw/lv_img_buf.c ****         buf_u8[px + px_size - 1] = opa;
 163:Drivers/lvgl/src/draw/lv_img_buf.c ****     }
 164:Drivers/lvgl/src/draw/lv_img_buf.c ****     else if(dsc->header.cf == LV_IMG_CF_ALPHA_1BIT) {
 646              		.loc 1 164 10 is_stmt 1 view .LVU221
 647 001a 0B39     		subs	r1, r1, #11
 648 001c 0329     		cmp	r1, #3
 649 001e 1AD8     		bhi	.L30
 650 0020 DFE801F0 		tbb	[pc, r1]
 651              	.LVL54:
 652              	.L34:
 653 0024 02       		.byte	(.L37-.L34)/2
 654 0025 37       		.byte	(.L36-.L34)/2
 655 0026 47       		.byte	(.L35-.L34)/2
 656 0027 2E       		.byte	(.L33-.L34)/2
 657              		.p2align 1
 658              	.L37:
 659              	.LBB41:
 165:Drivers/lvgl/src/draw/lv_img_buf.c ****         opa         = opa >> 7; /*opa -> [0,1]*/
 660              		.loc 1 165 9 view .LVU222
 166:Drivers/lvgl/src/draw/lv_img_buf.c ****         uint8_t bit = x & 0x7;
 661              		.loc 1 166 9 view .LVU223
 167:Drivers/lvgl/src/draw/lv_img_buf.c ****         x           = x >> 3;
 662              		.loc 1 167 9 view .LVU224
 168:Drivers/lvgl/src/draw/lv_img_buf.c **** 
 169:Drivers/lvgl/src/draw/lv_img_buf.c ****         /*Get the current pixel.
 170:Drivers/lvgl/src/draw/lv_img_buf.c ****          *dsc->header.w + 7 means rounding up to 8 because the lines are byte aligned
 171:Drivers/lvgl/src/draw/lv_img_buf.c ****          *so the possible real width are 8 ,16, 24 ...*/
 172:Drivers/lvgl/src/draw/lv_img_buf.c ****         uint32_t px = ((dsc->header.w + 7) >> 3) * y + x;
 663              		.loc 1 172 9 view .LVU225
ARM GAS  /var/folders/0z/tsy30v1j4xl4_7kw94k978ww0000gn/T//ccd7xBqr.s 			page 22


 173:Drivers/lvgl/src/draw/lv_img_buf.c ****         buf_u8[px]  = buf_u8[px] & ~(1 << (7 - bit));
 664              		.loc 1 173 9 view .LVU226
 172:Drivers/lvgl/src/draw/lv_img_buf.c ****         buf_u8[px]  = buf_u8[px] & ~(1 << (7 - bit));
 665              		.loc 1 172 36 is_stmt 0 view .LVU227
 666 0028 2A68     		ldr	r2, [r5]
 667              	.LVL55:
 172:Drivers/lvgl/src/draw/lv_img_buf.c ****         buf_u8[px]  = buf_u8[px] & ~(1 << (7 - bit));
 668              		.loc 1 172 36 view .LVU228
 669 002a C2F38A22 		ubfx	r2, r2, #10, #11
 172:Drivers/lvgl/src/draw/lv_img_buf.c ****         buf_u8[px]  = buf_u8[px] & ~(1 << (7 - bit));
 670              		.loc 1 172 39 view .LVU229
 671 002e 0732     		adds	r2, r2, #7
 172:Drivers/lvgl/src/draw/lv_img_buf.c ****         buf_u8[px]  = buf_u8[px] & ~(1 << (7 - bit));
 672              		.loc 1 172 54 view .LVU230
 673 0030 E110     		asrs	r1, r4, #3
 172:Drivers/lvgl/src/draw/lv_img_buf.c ****         buf_u8[px]  = buf_u8[px] & ~(1 << (7 - bit));
 674              		.loc 1 172 44 view .LVU231
 675 0032 D210     		asrs	r2, r2, #3
 676              		.loc 1 173 46 view .LVU232
 677 0034 04F00704 		and	r4, r4, #7
 678              	.LVL56:
 172:Drivers/lvgl/src/draw/lv_img_buf.c ****         buf_u8[px]  = buf_u8[px] & ~(1 << (7 - bit));
 679              		.loc 1 172 54 view .LVU233
 680 0038 07FB0212 		mla	r2, r7, r2, r1
 174:Drivers/lvgl/src/draw/lv_img_buf.c ****         buf_u8[px]  = buf_u8[px] | ((opa & 0x1) << (7 - bit));
 681              		.loc 1 174 42 view .LVU234
 682 003c F609     		lsrs	r6, r6, #7
 683              	.LVL57:
 173:Drivers/lvgl/src/draw/lv_img_buf.c ****         buf_u8[px]  = buf_u8[px] & ~(1 << (7 - bit));
 684              		.loc 1 173 46 view .LVU235
 685 003e C4F10704 		rsb	r4, r4, #7
 686              		.loc 1 174 9 is_stmt 1 view .LVU236
 173:Drivers/lvgl/src/draw/lv_img_buf.c ****         buf_u8[px]  = buf_u8[px] & ~(1 << (7 - bit));
 687              		.loc 1 173 40 is_stmt 0 view .LVU237
 688 0042 0121     		movs	r1, #1
 689              	.L40:
 173:Drivers/lvgl/src/draw/lv_img_buf.c ****         buf_u8[px]  = buf_u8[px] & ~(1 << (7 - bit));
 690              		.loc 1 173 40 view .LVU238
 691              	.LBE41:
 692              	.LBB42:
 175:Drivers/lvgl/src/draw/lv_img_buf.c ****     }
 176:Drivers/lvgl/src/draw/lv_img_buf.c ****     else if(dsc->header.cf == LV_IMG_CF_ALPHA_2BIT) {
 177:Drivers/lvgl/src/draw/lv_img_buf.c ****         opa         = opa >> 6; /*opa -> [0,3]*/
 178:Drivers/lvgl/src/draw/lv_img_buf.c ****         uint8_t bit = (x & 0x3) * 2;
 179:Drivers/lvgl/src/draw/lv_img_buf.c ****         x           = x >> 2;
 180:Drivers/lvgl/src/draw/lv_img_buf.c **** 
 181:Drivers/lvgl/src/draw/lv_img_buf.c ****         /*Get the current pixel.
 182:Drivers/lvgl/src/draw/lv_img_buf.c ****          *dsc->header.w + 4 means rounding up to 8 because the lines are byte aligned
 183:Drivers/lvgl/src/draw/lv_img_buf.c ****          *so the possible real width are 4 ,8, 12 ...*/
 184:Drivers/lvgl/src/draw/lv_img_buf.c ****         uint32_t px = ((dsc->header.w + 3) >> 2) * y + x;
 185:Drivers/lvgl/src/draw/lv_img_buf.c ****         buf_u8[px]  = buf_u8[px] & ~(3 << (6 - bit));
 186:Drivers/lvgl/src/draw/lv_img_buf.c ****         buf_u8[px]  = buf_u8[px] | ((opa & 0x3) << (6 - bit));
 187:Drivers/lvgl/src/draw/lv_img_buf.c ****     }
 188:Drivers/lvgl/src/draw/lv_img_buf.c ****     else if(dsc->header.cf == LV_IMG_CF_ALPHA_4BIT) {
 189:Drivers/lvgl/src/draw/lv_img_buf.c ****         opa         = opa >> 4; /*opa -> [0,15]*/
 190:Drivers/lvgl/src/draw/lv_img_buf.c ****         uint8_t bit = (x & 0x1) * 4;
 191:Drivers/lvgl/src/draw/lv_img_buf.c ****         x           = x >> 1;
ARM GAS  /var/folders/0z/tsy30v1j4xl4_7kw94k978ww0000gn/T//ccd7xBqr.s 			page 23


 192:Drivers/lvgl/src/draw/lv_img_buf.c **** 
 193:Drivers/lvgl/src/draw/lv_img_buf.c ****         /*Get the current pixel.
 194:Drivers/lvgl/src/draw/lv_img_buf.c ****          *dsc->header.w + 1 means rounding up to 8 because the lines are byte aligned
 195:Drivers/lvgl/src/draw/lv_img_buf.c ****          *so the possible real width are 2 ,4, 6 ...*/
 196:Drivers/lvgl/src/draw/lv_img_buf.c ****         uint32_t px = ((dsc->header.w + 1) >> 1) * y + x;
 197:Drivers/lvgl/src/draw/lv_img_buf.c ****         buf_u8[px]  = buf_u8[px] & ~(0xF << (4 - bit));
 693              		.loc 1 197 34 view .LVU239
 694 0044 18F80230 		ldrb	r3, [r8, r2]	@ zero_extendqisi2
 695              		.loc 1 197 42 view .LVU240
 696 0048 A140     		lsls	r1, r1, r4
 198:Drivers/lvgl/src/draw/lv_img_buf.c ****         buf_u8[px]  = buf_u8[px] | ((opa & 0xF) << (4 - bit));
 697              		.loc 1 198 49 view .LVU241
 698 004a A640     		lsls	r6, r6, r4
 197:Drivers/lvgl/src/draw/lv_img_buf.c ****         buf_u8[px]  = buf_u8[px] | ((opa & 0xF) << (4 - bit));
 699              		.loc 1 197 34 view .LVU242
 700 004c 23EA0103 		bic	r3, r3, r1
 701              		.loc 1 198 34 view .LVU243
 702 0050 3343     		orrs	r3, r3, r6
 703              		.loc 1 198 21 view .LVU244
 704 0052 08F80230 		strb	r3, [r8, r2]
 705              	.L30:
 706              		.loc 1 198 21 view .LVU245
 707              	.LBE42:
 199:Drivers/lvgl/src/draw/lv_img_buf.c ****     }
 200:Drivers/lvgl/src/draw/lv_img_buf.c ****     else if(dsc->header.cf == LV_IMG_CF_ALPHA_8BIT) {
 201:Drivers/lvgl/src/draw/lv_img_buf.c ****         uint32_t px = dsc->header.w * y + x;
 202:Drivers/lvgl/src/draw/lv_img_buf.c ****         buf_u8[px]  = opa;
 203:Drivers/lvgl/src/draw/lv_img_buf.c ****     }
 204:Drivers/lvgl/src/draw/lv_img_buf.c **** }
 708              		.loc 1 204 1 view .LVU246
 709 0056 BDE8F081 		pop	{r4, r5, r6, r7, r8, pc}
 710              	.LVL58:
 711              	.L41:
 712              	.LBB43:
 160:Drivers/lvgl/src/draw/lv_img_buf.c ****         uint32_t px              = dsc->header.w * y * px_size + x * px_size;
 713              		.loc 1 160 9 is_stmt 1 view .LVU247
 160:Drivers/lvgl/src/draw/lv_img_buf.c ****         uint32_t px              = dsc->header.w * y * px_size + x * px_size;
 714              		.loc 1 160 36 is_stmt 0 view .LVU248
 715 005a 0846     		mov	r0, r1
 716 005c FFF7FEFF 		bl	lv_img_cf_get_px_size
 717              	.LVL59:
 161:Drivers/lvgl/src/draw/lv_img_buf.c ****         buf_u8[px + px_size - 1] = opa;
 718              		.loc 1 161 47 view .LVU249
 719 0060 2B68     		ldr	r3, [r5]
 160:Drivers/lvgl/src/draw/lv_img_buf.c ****         uint32_t px              = dsc->header.w * y * px_size + x * px_size;
 720              		.loc 1 160 17 view .LVU250
 721 0062 C0F3C700 		ubfx	r0, r0, #3, #8
 722              	.LVL60:
 161:Drivers/lvgl/src/draw/lv_img_buf.c ****         buf_u8[px + px_size - 1] = opa;
 723              		.loc 1 161 9 is_stmt 1 view .LVU251
 162:Drivers/lvgl/src/draw/lv_img_buf.c ****     }
 724              		.loc 1 162 9 view .LVU252
 161:Drivers/lvgl/src/draw/lv_img_buf.c ****         buf_u8[px + px_size - 1] = opa;
 725              		.loc 1 161 47 is_stmt 0 view .LVU253
 726 0066 C3F38A23 		ubfx	r3, r3, #10, #11
 161:Drivers/lvgl/src/draw/lv_img_buf.c ****         buf_u8[px + px_size - 1] = opa;
 727              		.loc 1 161 50 view .LVU254
ARM GAS  /var/folders/0z/tsy30v1j4xl4_7kw94k978ww0000gn/T//ccd7xBqr.s 			page 24


 728 006a 13FB07F3 		smulbb	r3, r3, r7
 162:Drivers/lvgl/src/draw/lv_img_buf.c ****     }
 729              		.loc 1 162 34 view .LVU255
 730 006e 8044     		add	r8, r8, r0
 731              	.LVL61:
 162:Drivers/lvgl/src/draw/lv_img_buf.c ****     }
 732              		.loc 1 162 34 view .LVU256
 733 0070 00FB0388 		mla	r8, r0, r3, r8
 734 0074 00FB0488 		mla	r8, r0, r4, r8
 735 0078 08F8016C 		strb	r6, [r8, #-1]
 736              	.LVL62:
 162:Drivers/lvgl/src/draw/lv_img_buf.c ****     }
 737              		.loc 1 162 34 view .LVU257
 738              	.LBE43:
 739              		.loc 1 204 1 view .LVU258
 740 007c BDE8F081 		pop	{r4, r5, r6, r7, r8, pc}
 741              	.LVL63:
 742              	.L33:
 743              	.LBB44:
 201:Drivers/lvgl/src/draw/lv_img_buf.c ****         buf_u8[px]  = opa;
 744              		.loc 1 201 9 is_stmt 1 view .LVU259
 202:Drivers/lvgl/src/draw/lv_img_buf.c ****     }
 745              		.loc 1 202 9 view .LVU260
 201:Drivers/lvgl/src/draw/lv_img_buf.c ****         buf_u8[px]  = opa;
 746              		.loc 1 201 34 is_stmt 0 view .LVU261
 747 0080 2B68     		ldr	r3, [r5]
 748 0082 C3F38A23 		ubfx	r3, r3, #10, #11
 201:Drivers/lvgl/src/draw/lv_img_buf.c ****         buf_u8[px]  = opa;
 749              		.loc 1 201 41 view .LVU262
 750 0086 12FB0342 		smlabb	r2, r2, r3, r4
 751              	.LVL64:
 202:Drivers/lvgl/src/draw/lv_img_buf.c ****     }
 752              		.loc 1 202 21 view .LVU263
 753 008a 08F80260 		strb	r6, [r8, r2]
 754              	.LVL65:
 202:Drivers/lvgl/src/draw/lv_img_buf.c ****     }
 755              		.loc 1 202 21 view .LVU264
 756              	.LBE44:
 757              		.loc 1 204 1 view .LVU265
 758 008e BDE8F081 		pop	{r4, r5, r6, r7, r8, pc}
 759              	.LVL66:
 760              	.L36:
 761              	.LBB45:
 177:Drivers/lvgl/src/draw/lv_img_buf.c ****         uint8_t bit = (x & 0x3) * 2;
 762              		.loc 1 177 9 is_stmt 1 view .LVU266
 178:Drivers/lvgl/src/draw/lv_img_buf.c ****         x           = x >> 2;
 763              		.loc 1 178 9 view .LVU267
 179:Drivers/lvgl/src/draw/lv_img_buf.c **** 
 764              		.loc 1 179 9 view .LVU268
 184:Drivers/lvgl/src/draw/lv_img_buf.c ****         buf_u8[px]  = buf_u8[px] & ~(3 << (6 - bit));
 765              		.loc 1 184 9 view .LVU269
 185:Drivers/lvgl/src/draw/lv_img_buf.c ****         buf_u8[px]  = buf_u8[px] | ((opa & 0x3) << (6 - bit));
 766              		.loc 1 185 9 view .LVU270
 184:Drivers/lvgl/src/draw/lv_img_buf.c ****         buf_u8[px]  = buf_u8[px] & ~(3 << (6 - bit));
 767              		.loc 1 184 36 is_stmt 0 view .LVU271
 768 0092 2A68     		ldr	r2, [r5]
 769              	.LVL67:
ARM GAS  /var/folders/0z/tsy30v1j4xl4_7kw94k978ww0000gn/T//ccd7xBqr.s 			page 25


 184:Drivers/lvgl/src/draw/lv_img_buf.c ****         buf_u8[px]  = buf_u8[px] & ~(3 << (6 - bit));
 770              		.loc 1 184 36 view .LVU272
 771 0094 C2F38A22 		ubfx	r2, r2, #10, #11
 184:Drivers/lvgl/src/draw/lv_img_buf.c ****         buf_u8[px]  = buf_u8[px] & ~(3 << (6 - bit));
 772              		.loc 1 184 54 view .LVU273
 773 0098 A110     		asrs	r1, r4, #2
 184:Drivers/lvgl/src/draw/lv_img_buf.c ****         buf_u8[px]  = buf_u8[px] & ~(3 << (6 - bit));
 774              		.loc 1 184 39 view .LVU274
 775 009a 0332     		adds	r2, r2, #3
 178:Drivers/lvgl/src/draw/lv_img_buf.c ****         x           = x >> 2;
 776              		.loc 1 178 17 view .LVU275
 777 009c 04F00304 		and	r4, r4, #3
 778              	.LVL68:
 184:Drivers/lvgl/src/draw/lv_img_buf.c ****         buf_u8[px]  = buf_u8[px] & ~(3 << (6 - bit));
 779              		.loc 1 184 44 view .LVU276
 780 00a0 9210     		asrs	r2, r2, #2
 185:Drivers/lvgl/src/draw/lv_img_buf.c ****         buf_u8[px]  = buf_u8[px] | ((opa & 0x3) << (6 - bit));
 781              		.loc 1 185 46 view .LVU277
 782 00a2 6400     		lsls	r4, r4, #1
 184:Drivers/lvgl/src/draw/lv_img_buf.c ****         buf_u8[px]  = buf_u8[px] & ~(3 << (6 - bit));
 783              		.loc 1 184 54 view .LVU278
 784 00a4 07FB0212 		mla	r2, r7, r2, r1
 186:Drivers/lvgl/src/draw/lv_img_buf.c ****     }
 785              		.loc 1 186 42 view .LVU279
 786 00a8 B609     		lsrs	r6, r6, #6
 787              	.LVL69:
 185:Drivers/lvgl/src/draw/lv_img_buf.c ****         buf_u8[px]  = buf_u8[px] | ((opa & 0x3) << (6 - bit));
 788              		.loc 1 185 46 view .LVU280
 789 00aa C4F10604 		rsb	r4, r4, #6
 186:Drivers/lvgl/src/draw/lv_img_buf.c ****     }
 790              		.loc 1 186 9 is_stmt 1 view .LVU281
 185:Drivers/lvgl/src/draw/lv_img_buf.c ****         buf_u8[px]  = buf_u8[px] | ((opa & 0x3) << (6 - bit));
 791              		.loc 1 185 40 is_stmt 0 view .LVU282
 792 00ae 0321     		movs	r1, #3
 793 00b0 C8E7     		b	.L40
 794              	.LVL70:
 795              	.L35:
 185:Drivers/lvgl/src/draw/lv_img_buf.c ****         buf_u8[px]  = buf_u8[px] | ((opa & 0x3) << (6 - bit));
 796              		.loc 1 185 40 view .LVU283
 797              	.LBE45:
 798              	.LBB46:
 189:Drivers/lvgl/src/draw/lv_img_buf.c ****         uint8_t bit = (x & 0x1) * 4;
 799              		.loc 1 189 9 is_stmt 1 view .LVU284
 190:Drivers/lvgl/src/draw/lv_img_buf.c ****         x           = x >> 1;
 800              		.loc 1 190 9 view .LVU285
 191:Drivers/lvgl/src/draw/lv_img_buf.c **** 
 801              		.loc 1 191 9 view .LVU286
 196:Drivers/lvgl/src/draw/lv_img_buf.c ****         buf_u8[px]  = buf_u8[px] & ~(0xF << (4 - bit));
 802              		.loc 1 196 9 view .LVU287
 197:Drivers/lvgl/src/draw/lv_img_buf.c ****         buf_u8[px]  = buf_u8[px] | ((opa & 0xF) << (4 - bit));
 803              		.loc 1 197 9 view .LVU288
 196:Drivers/lvgl/src/draw/lv_img_buf.c ****         buf_u8[px]  = buf_u8[px] & ~(0xF << (4 - bit));
 804              		.loc 1 196 36 is_stmt 0 view .LVU289
 805 00b2 2A68     		ldr	r2, [r5]
 806              	.LVL71:
 196:Drivers/lvgl/src/draw/lv_img_buf.c ****         buf_u8[px]  = buf_u8[px] & ~(0xF << (4 - bit));
 807              		.loc 1 196 36 view .LVU290
ARM GAS  /var/folders/0z/tsy30v1j4xl4_7kw94k978ww0000gn/T//ccd7xBqr.s 			page 26


 808 00b4 C2F38A22 		ubfx	r2, r2, #10, #11
 196:Drivers/lvgl/src/draw/lv_img_buf.c ****         buf_u8[px]  = buf_u8[px] & ~(0xF << (4 - bit));
 809              		.loc 1 196 54 view .LVU291
 810 00b8 6110     		asrs	r1, r4, #1
 196:Drivers/lvgl/src/draw/lv_img_buf.c ****         buf_u8[px]  = buf_u8[px] & ~(0xF << (4 - bit));
 811              		.loc 1 196 39 view .LVU292
 812 00ba 0132     		adds	r2, r2, #1
 190:Drivers/lvgl/src/draw/lv_img_buf.c ****         x           = x >> 1;
 813              		.loc 1 190 17 view .LVU293
 814 00bc 04F00104 		and	r4, r4, #1
 815              	.LVL72:
 196:Drivers/lvgl/src/draw/lv_img_buf.c ****         buf_u8[px]  = buf_u8[px] & ~(0xF << (4 - bit));
 816              		.loc 1 196 44 view .LVU294
 817 00c0 5210     		asrs	r2, r2, #1
 197:Drivers/lvgl/src/draw/lv_img_buf.c ****         buf_u8[px]  = buf_u8[px] | ((opa & 0xF) << (4 - bit));
 818              		.loc 1 197 48 view .LVU295
 819 00c2 A400     		lsls	r4, r4, #2
 196:Drivers/lvgl/src/draw/lv_img_buf.c ****         buf_u8[px]  = buf_u8[px] & ~(0xF << (4 - bit));
 820              		.loc 1 196 54 view .LVU296
 821 00c4 07FB0212 		mla	r2, r7, r2, r1
 198:Drivers/lvgl/src/draw/lv_img_buf.c ****     }
 822              		.loc 1 198 42 view .LVU297
 823 00c8 3609     		lsrs	r6, r6, #4
 824              	.LVL73:
 197:Drivers/lvgl/src/draw/lv_img_buf.c ****         buf_u8[px]  = buf_u8[px] | ((opa & 0xF) << (4 - bit));
 825              		.loc 1 197 48 view .LVU298
 826 00ca C4F10404 		rsb	r4, r4, #4
 198:Drivers/lvgl/src/draw/lv_img_buf.c ****     }
 827              		.loc 1 198 9 is_stmt 1 view .LVU299
 197:Drivers/lvgl/src/draw/lv_img_buf.c ****         buf_u8[px]  = buf_u8[px] | ((opa & 0xF) << (4 - bit));
 828              		.loc 1 197 42 is_stmt 0 view .LVU300
 829 00ce 0F21     		movs	r1, #15
 830 00d0 B8E7     		b	.L40
 831              	.LBE46:
 832              		.cfi_endproc
 833              	.LFE56:
 835 00d2 00BF     		.section	.text.lv_img_buf_set_px_color,"ax",%progbits
 836              		.align	1
 837              		.p2align 2,,3
 838              		.global	lv_img_buf_set_px_color
 839              		.syntax unified
 840              		.thumb
 841              		.thumb_func
 843              	lv_img_buf_set_px_color:
 844              	.LVL74:
 845              	.LFB57:
 205:Drivers/lvgl/src/draw/lv_img_buf.c **** 
 206:Drivers/lvgl/src/draw/lv_img_buf.c **** void lv_img_buf_set_px_color(const lv_img_dsc_t * dsc, lv_coord_t x, lv_coord_t y, lv_color_t c)
 207:Drivers/lvgl/src/draw/lv_img_buf.c **** {
 846              		.loc 1 207 1 is_stmt 1 view -0
 847              		.cfi_startproc
 848              		@ args = 0, pretend = 0, frame = 8
 849              		@ frame_needed = 0, uses_anonymous_args = 0
 208:Drivers/lvgl/src/draw/lv_img_buf.c ****     uint8_t * buf_u8 = (uint8_t *)dsc->data;
 850              		.loc 1 208 5 view .LVU302
 207:Drivers/lvgl/src/draw/lv_img_buf.c ****     uint8_t * buf_u8 = (uint8_t *)dsc->data;
 851              		.loc 1 207 1 is_stmt 0 view .LVU303
ARM GAS  /var/folders/0z/tsy30v1j4xl4_7kw94k978ww0000gn/T//ccd7xBqr.s 			page 27


 852 0000 F0B5     		push	{r4, r5, r6, r7, lr}
 853              		.cfi_def_cfa_offset 20
 854              		.cfi_offset 4, -20
 855              		.cfi_offset 5, -16
 856              		.cfi_offset 6, -12
 857              		.cfi_offset 7, -8
 858              		.cfi_offset 14, -4
 859 0002 0546     		mov	r5, r0
 860 0004 83B0     		sub	sp, sp, #12
 861              		.cfi_def_cfa_offset 32
 209:Drivers/lvgl/src/draw/lv_img_buf.c **** 
 210:Drivers/lvgl/src/draw/lv_img_buf.c ****     if(dsc->header.cf == LV_IMG_CF_TRUE_COLOR || dsc->header.cf == LV_IMG_CF_TRUE_COLOR_CHROMA_KEYE
 862              		.loc 1 210 23 view .LVU304
 863 0006 0078     		ldrb	r0, [r0]	@ zero_extendqisi2
 864              	.LVL75:
 207:Drivers/lvgl/src/draw/lv_img_buf.c ****     uint8_t * buf_u8 = (uint8_t *)dsc->data;
 865              		.loc 1 207 1 view .LVU305
 866 0008 ADF80430 		strh	r3, [sp, #4]	@ movhi
 867              		.loc 1 210 23 view .LVU306
 868 000c 00F01F03 		and	r3, r0, #31
 869              		.loc 1 210 7 view .LVU307
 870 0010 042B     		cmp	r3, #4
 208:Drivers/lvgl/src/draw/lv_img_buf.c **** 
 871              		.loc 1 208 15 view .LVU308
 872 0012 AF68     		ldr	r7, [r5, #8]
 873              	.LVL76:
 874              		.loc 1 210 5 is_stmt 1 view .LVU309
 207:Drivers/lvgl/src/draw/lv_img_buf.c ****     uint8_t * buf_u8 = (uint8_t *)dsc->data;
 875              		.loc 1 207 1 is_stmt 0 view .LVU310
 876 0014 0C46     		mov	r4, r1
 877 0016 1646     		mov	r6, r2
 878              		.loc 1 210 7 view .LVU311
 879 0018 07D0     		beq	.L43
 880 001a 053B     		subs	r3, r3, #5
 881 001c 052B     		cmp	r3, #5
 882 001e 19D8     		bhi	.L42
 883 0020 DFE803F0 		tbb	[pc, r3]
 884              	.LVL77:
 885              	.L46:
 886 0024 26       		.byte	(.L50-.L46)/2
 887 0025 03       		.byte	(.L43-.L46)/2
 888 0026 3E       		.byte	(.L49-.L46)/2
 889 0027 59       		.byte	(.L48-.L46)/2
 890 0028 76       		.byte	(.L47-.L46)/2
 891 0029 1A       		.byte	(.L45-.L46)/2
 892              		.p2align 1
 893              	.L43:
 894              	.LBB47:
 211:Drivers/lvgl/src/draw/lv_img_buf.c ****         uint8_t px_size = lv_img_cf_get_px_size(dsc->header.cf) >> 3;
 895              		.loc 1 211 9 is_stmt 1 view .LVU312
 896              		.loc 1 211 27 is_stmt 0 view .LVU313
 897 002a 00F01F00 		and	r0, r0, #31
 898 002e FFF7FEFF 		bl	lv_img_cf_get_px_size
 899              	.LVL78:
 212:Drivers/lvgl/src/draw/lv_img_buf.c ****         uint32_t px     = dsc->header.w * y * px_size + x * px_size;
 900              		.loc 1 212 38 view .LVU314
 901 0032 2A68     		ldr	r2, [r5]
ARM GAS  /var/folders/0z/tsy30v1j4xl4_7kw94k978ww0000gn/T//ccd7xBqr.s 			page 28


 211:Drivers/lvgl/src/draw/lv_img_buf.c ****         uint8_t px_size = lv_img_cf_get_px_size(dsc->header.cf) >> 3;
 902              		.loc 1 211 17 view .LVU315
 903 0034 C0F3C703 		ubfx	r3, r0, #3, #8
 904              	.LVL79:
 905              		.loc 1 212 9 is_stmt 1 view .LVU316
 213:Drivers/lvgl/src/draw/lv_img_buf.c ****         lv_memcpy_small(&buf_u8[px], &c, px_size);
 906              		.loc 1 213 9 view .LVU317
 212:Drivers/lvgl/src/draw/lv_img_buf.c ****         uint32_t px     = dsc->header.w * y * px_size + x * px_size;
 907              		.loc 1 212 38 is_stmt 0 view .LVU318
 908 0038 C2F38A22 		ubfx	r2, r2, #10, #11
 212:Drivers/lvgl/src/draw/lv_img_buf.c ****         uint32_t px     = dsc->header.w * y * px_size + x * px_size;
 909              		.loc 1 212 41 view .LVU319
 910 003c 12FB06F2 		smulbb	r2, r2, r6
 212:Drivers/lvgl/src/draw/lv_img_buf.c ****         uint32_t px     = dsc->header.w * y * px_size + x * px_size;
 911              		.loc 1 212 59 view .LVU320
 912 0040 13FB04F0 		smulbb	r0, r3, r4
 212:Drivers/lvgl/src/draw/lv_img_buf.c ****         uint32_t px     = dsc->header.w * y * px_size + x * px_size;
 913              		.loc 1 212 55 view .LVU321
 914 0044 03FB0200 		mla	r0, r3, r2, r0
 915              		.loc 1 213 25 view .LVU322
 916 0048 3844     		add	r0, r0, r7
 917              	.LVL80:
 918              	.LBB48:
 919              	.LBI48:
 194:Drivers/lvgl/src/draw/../misc/lv_mem.h **** {
 920              		.loc 2 194 44 is_stmt 1 view .LVU323
 921              	.LBB49:
 196:Drivers/lvgl/src/draw/../misc/lv_mem.h ****     const uint8_t * s8 = (const uint8_t *)src;
 922              		.loc 2 196 5 view .LVU324
 197:Drivers/lvgl/src/draw/../misc/lv_mem.h **** 
 923              		.loc 2 197 5 view .LVU325
 199:Drivers/lvgl/src/draw/../misc/lv_mem.h ****         *d8 = *s8;
 924              		.loc 2 199 5 view .LVU326
 199:Drivers/lvgl/src/draw/../misc/lv_mem.h ****         *d8 = *s8;
 925              		.loc 2 199 11 view .LVU327
 926 004a 1BB1     		cbz	r3, .L42
 200:Drivers/lvgl/src/draw/../misc/lv_mem.h ****         d8++;
 927              		.loc 2 200 13 is_stmt 0 view .LVU328
 928 004c 1A46     		mov	r2, r3
 929 004e 01A9     		add	r1, sp, #4
 930              	.LVL81:
 200:Drivers/lvgl/src/draw/../misc/lv_mem.h ****         d8++;
 931              		.loc 2 200 13 view .LVU329
 932 0050 FFF7FEFF 		bl	memcpy
 933              	.LVL82:
 934              	.L42:
 200:Drivers/lvgl/src/draw/../misc/lv_mem.h ****         d8++;
 935              		.loc 2 200 13 view .LVU330
 936              	.LBE49:
 937              	.LBE48:
 938              	.LBE47:
 214:Drivers/lvgl/src/draw/lv_img_buf.c ****     }
 215:Drivers/lvgl/src/draw/lv_img_buf.c ****     else if(dsc->header.cf == LV_IMG_CF_TRUE_COLOR_ALPHA) {
 216:Drivers/lvgl/src/draw/lv_img_buf.c ****         uint8_t px_size = lv_img_cf_get_px_size(dsc->header.cf) >> 3;
 217:Drivers/lvgl/src/draw/lv_img_buf.c ****         uint32_t px     = dsc->header.w * y * px_size + x * px_size;
 218:Drivers/lvgl/src/draw/lv_img_buf.c ****         lv_memcpy_small(&buf_u8[px], &c, px_size - 1); /*-1 to not overwrite the alpha value*/
 219:Drivers/lvgl/src/draw/lv_img_buf.c ****     }
ARM GAS  /var/folders/0z/tsy30v1j4xl4_7kw94k978ww0000gn/T//ccd7xBqr.s 			page 29


 220:Drivers/lvgl/src/draw/lv_img_buf.c ****     else if(dsc->header.cf == LV_IMG_CF_INDEXED_1BIT) {
 221:Drivers/lvgl/src/draw/lv_img_buf.c ****         buf_u8 += sizeof(lv_color32_t) * 2; /*Skip the palette*/
 222:Drivers/lvgl/src/draw/lv_img_buf.c **** 
 223:Drivers/lvgl/src/draw/lv_img_buf.c ****         uint8_t bit = x & 0x7;
 224:Drivers/lvgl/src/draw/lv_img_buf.c ****         x           = x >> 3;
 225:Drivers/lvgl/src/draw/lv_img_buf.c **** 
 226:Drivers/lvgl/src/draw/lv_img_buf.c ****         /*Get the current pixel.
 227:Drivers/lvgl/src/draw/lv_img_buf.c ****          *dsc->header.w + 7 means rounding up to 8 because the lines are byte aligned
 228:Drivers/lvgl/src/draw/lv_img_buf.c ****          *so the possible real width are 8 ,16, 24 ...*/
 229:Drivers/lvgl/src/draw/lv_img_buf.c ****         uint32_t px = ((dsc->header.w + 7) >> 3) * y + x;
 230:Drivers/lvgl/src/draw/lv_img_buf.c ****         buf_u8[px]  = buf_u8[px] & ~(1 << (7 - bit));
 231:Drivers/lvgl/src/draw/lv_img_buf.c ****         buf_u8[px]  = buf_u8[px] | ((c.full & 0x1) << (7 - bit));
 232:Drivers/lvgl/src/draw/lv_img_buf.c ****     }
 233:Drivers/lvgl/src/draw/lv_img_buf.c ****     else if(dsc->header.cf == LV_IMG_CF_INDEXED_2BIT) {
 234:Drivers/lvgl/src/draw/lv_img_buf.c ****         buf_u8 += sizeof(lv_color32_t) * 4; /*Skip the palette*/
 235:Drivers/lvgl/src/draw/lv_img_buf.c ****         uint8_t bit = (x & 0x3) * 2;
 236:Drivers/lvgl/src/draw/lv_img_buf.c ****         x           = x >> 2;
 237:Drivers/lvgl/src/draw/lv_img_buf.c **** 
 238:Drivers/lvgl/src/draw/lv_img_buf.c ****         /*Get the current pixel.
 239:Drivers/lvgl/src/draw/lv_img_buf.c ****          *dsc->header.w + 3 means rounding up to 4 because the lines are byte aligned
 240:Drivers/lvgl/src/draw/lv_img_buf.c ****          *so the possible real width are 4, 8 ,12 ...*/
 241:Drivers/lvgl/src/draw/lv_img_buf.c ****         uint32_t px = ((dsc->header.w + 3) >> 2) * y + x;
 242:Drivers/lvgl/src/draw/lv_img_buf.c **** 
 243:Drivers/lvgl/src/draw/lv_img_buf.c ****         buf_u8[px] = buf_u8[px] & ~(3 << (6 - bit));
 244:Drivers/lvgl/src/draw/lv_img_buf.c ****         buf_u8[px] = buf_u8[px] | ((c.full & 0x3) << (6 - bit));
 245:Drivers/lvgl/src/draw/lv_img_buf.c ****     }
 246:Drivers/lvgl/src/draw/lv_img_buf.c ****     else if(dsc->header.cf == LV_IMG_CF_INDEXED_4BIT) {
 247:Drivers/lvgl/src/draw/lv_img_buf.c ****         buf_u8 += sizeof(lv_color32_t) * 16; /*Skip the palette*/
 248:Drivers/lvgl/src/draw/lv_img_buf.c ****         uint8_t bit = (x & 0x1) * 4;
 249:Drivers/lvgl/src/draw/lv_img_buf.c ****         x           = x >> 1;
 250:Drivers/lvgl/src/draw/lv_img_buf.c **** 
 251:Drivers/lvgl/src/draw/lv_img_buf.c ****         /*Get the current pixel.
 252:Drivers/lvgl/src/draw/lv_img_buf.c ****          *dsc->header.w + 1 means rounding up to 2 because the lines are byte aligned
 253:Drivers/lvgl/src/draw/lv_img_buf.c ****          *so the possible real width are 2 ,4, 6 ...*/
 254:Drivers/lvgl/src/draw/lv_img_buf.c ****         uint32_t px = ((dsc->header.w + 1) >> 1) * y + x;
 255:Drivers/lvgl/src/draw/lv_img_buf.c ****         buf_u8[px]  = buf_u8[px] & ~(0xF << (4 - bit));
 256:Drivers/lvgl/src/draw/lv_img_buf.c ****         buf_u8[px]  = buf_u8[px] | ((c.full & 0xF) << (4 - bit));
 257:Drivers/lvgl/src/draw/lv_img_buf.c ****     }
 258:Drivers/lvgl/src/draw/lv_img_buf.c ****     else if(dsc->header.cf == LV_IMG_CF_INDEXED_8BIT) {
 259:Drivers/lvgl/src/draw/lv_img_buf.c ****         buf_u8 += sizeof(lv_color32_t) * 256; /*Skip the palette*/
 260:Drivers/lvgl/src/draw/lv_img_buf.c ****         uint32_t px = dsc->header.w * y + x;
 261:Drivers/lvgl/src/draw/lv_img_buf.c ****         buf_u8[px]  = c.full;
 262:Drivers/lvgl/src/draw/lv_img_buf.c ****     }
 263:Drivers/lvgl/src/draw/lv_img_buf.c **** }
 939              		.loc 1 263 1 view .LVU331
 940 0054 03B0     		add	sp, sp, #12
 941              		.cfi_remember_state
 942              		.cfi_def_cfa_offset 20
 943              		@ sp needed
 944 0056 F0BD     		pop	{r4, r5, r6, r7, pc}
 945              	.LVL83:
 946              	.L45:
 947              		.cfi_restore_state
 948              	.LBB50:
 259:Drivers/lvgl/src/draw/lv_img_buf.c ****         uint32_t px = dsc->header.w * y + x;
 949              		.loc 1 259 9 is_stmt 1 view .LVU332
 260:Drivers/lvgl/src/draw/lv_img_buf.c ****         buf_u8[px]  = c.full;
ARM GAS  /var/folders/0z/tsy30v1j4xl4_7kw94k978ww0000gn/T//ccd7xBqr.s 			page 30


 950              		.loc 1 260 9 view .LVU333
 261:Drivers/lvgl/src/draw/lv_img_buf.c ****     }
 951              		.loc 1 261 9 view .LVU334
 260:Drivers/lvgl/src/draw/lv_img_buf.c ****         buf_u8[px]  = c.full;
 952              		.loc 1 260 34 is_stmt 0 view .LVU335
 953 0058 2B68     		ldr	r3, [r5]
 261:Drivers/lvgl/src/draw/lv_img_buf.c ****     }
 954              		.loc 1 261 21 view .LVU336
 955 005a BDF80410 		ldrh	r1, [sp, #4]
 956              	.LVL84:
 260:Drivers/lvgl/src/draw/lv_img_buf.c ****         buf_u8[px]  = c.full;
 957              		.loc 1 260 34 view .LVU337
 958 005e C3F38A23 		ubfx	r3, r3, #10, #11
 260:Drivers/lvgl/src/draw/lv_img_buf.c ****         buf_u8[px]  = c.full;
 959              		.loc 1 260 41 view .LVU338
 960 0062 16FB0342 		smlabb	r2, r6, r3, r4
 261:Drivers/lvgl/src/draw/lv_img_buf.c ****     }
 961              		.loc 1 261 21 view .LVU339
 962 0066 3A44     		add	r2, r2, r7
 963 0068 82F80014 		strb	r1, [r2, #1024]
 964              	.LVL85:
 261:Drivers/lvgl/src/draw/lv_img_buf.c ****     }
 965              		.loc 1 261 21 view .LVU340
 966              	.LBE50:
 967              		.loc 1 263 1 view .LVU341
 968 006c 03B0     		add	sp, sp, #12
 969              		.cfi_remember_state
 970              		.cfi_def_cfa_offset 20
 971              		@ sp needed
 972 006e F0BD     		pop	{r4, r5, r6, r7, pc}
 973              	.LVL86:
 974              	.L50:
 975              		.cfi_restore_state
 976              	.LBB51:
 216:Drivers/lvgl/src/draw/lv_img_buf.c ****         uint32_t px     = dsc->header.w * y * px_size + x * px_size;
 977              		.loc 1 216 9 is_stmt 1 view .LVU342
 216:Drivers/lvgl/src/draw/lv_img_buf.c ****         uint32_t px     = dsc->header.w * y * px_size + x * px_size;
 978              		.loc 1 216 27 is_stmt 0 view .LVU343
 979 0070 00F01F00 		and	r0, r0, #31
 980 0074 FFF7FEFF 		bl	lv_img_cf_get_px_size
 981              	.LVL87:
 217:Drivers/lvgl/src/draw/lv_img_buf.c ****         lv_memcpy_small(&buf_u8[px], &c, px_size - 1); /*-1 to not overwrite the alpha value*/
 982              		.loc 1 217 38 view .LVU344
 983 0078 2B68     		ldr	r3, [r5]
 216:Drivers/lvgl/src/draw/lv_img_buf.c ****         uint32_t px     = dsc->header.w * y * px_size + x * px_size;
 984              		.loc 1 216 17 view .LVU345
 985 007a C0F3C702 		ubfx	r2, r0, #3, #8
 986              	.LVL88:
 217:Drivers/lvgl/src/draw/lv_img_buf.c ****         lv_memcpy_small(&buf_u8[px], &c, px_size - 1); /*-1 to not overwrite the alpha value*/
 987              		.loc 1 217 9 is_stmt 1 view .LVU346
 218:Drivers/lvgl/src/draw/lv_img_buf.c ****     }
 988              		.loc 1 218 9 view .LVU347
 217:Drivers/lvgl/src/draw/lv_img_buf.c ****         lv_memcpy_small(&buf_u8[px], &c, px_size - 1); /*-1 to not overwrite the alpha value*/
 989              		.loc 1 217 38 is_stmt 0 view .LVU348
 990 007e C3F38A23 		ubfx	r3, r3, #10, #11
 217:Drivers/lvgl/src/draw/lv_img_buf.c ****         lv_memcpy_small(&buf_u8[px], &c, px_size - 1); /*-1 to not overwrite the alpha value*/
 991              		.loc 1 217 41 view .LVU349
ARM GAS  /var/folders/0z/tsy30v1j4xl4_7kw94k978ww0000gn/T//ccd7xBqr.s 			page 31


 992 0082 13FB06F3 		smulbb	r3, r3, r6
 217:Drivers/lvgl/src/draw/lv_img_buf.c ****         lv_memcpy_small(&buf_u8[px], &c, px_size - 1); /*-1 to not overwrite the alpha value*/
 993              		.loc 1 217 59 view .LVU350
 994 0086 12FB04F0 		smulbb	r0, r2, r4
 217:Drivers/lvgl/src/draw/lv_img_buf.c ****         lv_memcpy_small(&buf_u8[px], &c, px_size - 1); /*-1 to not overwrite the alpha value*/
 995              		.loc 1 217 55 view .LVU351
 996 008a 02FB0300 		mla	r0, r2, r3, r0
 997              	.LBB52:
 998              	.LBB53:
 199:Drivers/lvgl/src/draw/../misc/lv_mem.h ****         *d8 = *s8;
 999              		.loc 2 199 11 view .LVU352
 1000 008e 012A     		cmp	r2, #1
 1001              	.LBE53:
 1002              	.LBE52:
 218:Drivers/lvgl/src/draw/lv_img_buf.c ****     }
 1003              		.loc 1 218 25 view .LVU353
 1004 0090 3844     		add	r0, r0, r7
 1005              	.LVL89:
 1006              	.LBB55:
 1007              	.LBI52:
 194:Drivers/lvgl/src/draw/../misc/lv_mem.h **** {
 1008              		.loc 2 194 44 is_stmt 1 view .LVU354
 1009              	.LBB54:
 196:Drivers/lvgl/src/draw/../misc/lv_mem.h ****     const uint8_t * s8 = (const uint8_t *)src;
 1010              		.loc 2 196 5 view .LVU355
 197:Drivers/lvgl/src/draw/../misc/lv_mem.h **** 
 1011              		.loc 2 197 5 view .LVU356
 199:Drivers/lvgl/src/draw/../misc/lv_mem.h ****         *d8 = *s8;
 1012              		.loc 2 199 5 view .LVU357
 199:Drivers/lvgl/src/draw/../misc/lv_mem.h ****         *d8 = *s8;
 1013              		.loc 2 199 11 view .LVU358
 1014 0092 DFD0     		beq	.L42
 200:Drivers/lvgl/src/draw/../misc/lv_mem.h ****         d8++;
 1015              		.loc 2 200 13 is_stmt 0 view .LVU359
 1016 0094 013A     		subs	r2, r2, #1
 1017              	.LVL90:
 200:Drivers/lvgl/src/draw/../misc/lv_mem.h ****         d8++;
 1018              		.loc 2 200 13 view .LVU360
 1019 0096 01A9     		add	r1, sp, #4
 1020              	.LVL91:
 200:Drivers/lvgl/src/draw/../misc/lv_mem.h ****         d8++;
 1021              		.loc 2 200 13 view .LVU361
 1022 0098 FFF7FEFF 		bl	memcpy
 1023              	.LVL92:
 200:Drivers/lvgl/src/draw/../misc/lv_mem.h ****         d8++;
 1024              		.loc 2 200 13 view .LVU362
 1025              	.LBE54:
 1026              	.LBE55:
 1027              	.LBE51:
 1028              		.loc 1 263 1 view .LVU363
 1029 009c 03B0     		add	sp, sp, #12
 1030              		.cfi_remember_state
 1031              		.cfi_def_cfa_offset 20
 1032              		@ sp needed
 1033 009e F0BD     		pop	{r4, r5, r6, r7, pc}
 1034              	.LVL93:
 1035              	.L49:
ARM GAS  /var/folders/0z/tsy30v1j4xl4_7kw94k978ww0000gn/T//ccd7xBqr.s 			page 32


 1036              		.cfi_restore_state
 1037              	.LBB56:
 221:Drivers/lvgl/src/draw/lv_img_buf.c **** 
 1038              		.loc 1 221 9 is_stmt 1 view .LVU364
 223:Drivers/lvgl/src/draw/lv_img_buf.c ****         x           = x >> 3;
 1039              		.loc 1 223 9 view .LVU365
 224:Drivers/lvgl/src/draw/lv_img_buf.c **** 
 1040              		.loc 1 224 9 view .LVU366
 229:Drivers/lvgl/src/draw/lv_img_buf.c ****         buf_u8[px]  = buf_u8[px] & ~(1 << (7 - bit));
 1041              		.loc 1 229 9 view .LVU367
 230:Drivers/lvgl/src/draw/lv_img_buf.c ****         buf_u8[px]  = buf_u8[px] | ((c.full & 0x1) << (7 - bit));
 1042              		.loc 1 230 9 view .LVU368
 229:Drivers/lvgl/src/draw/lv_img_buf.c ****         buf_u8[px]  = buf_u8[px] & ~(1 << (7 - bit));
 1043              		.loc 1 229 36 is_stmt 0 view .LVU369
 1044 00a0 2B68     		ldr	r3, [r5]
 1045 00a2 C3F38A23 		ubfx	r3, r3, #10, #11
 229:Drivers/lvgl/src/draw/lv_img_buf.c ****         buf_u8[px]  = buf_u8[px] & ~(1 << (7 - bit));
 1046              		.loc 1 229 39 view .LVU370
 1047 00a6 0733     		adds	r3, r3, #7
 229:Drivers/lvgl/src/draw/lv_img_buf.c ****         buf_u8[px]  = buf_u8[px] & ~(1 << (7 - bit));
 1048              		.loc 1 229 54 view .LVU371
 1049 00a8 CA10     		asrs	r2, r1, #3
 229:Drivers/lvgl/src/draw/lv_img_buf.c ****         buf_u8[px]  = buf_u8[px] & ~(1 << (7 - bit));
 1050              		.loc 1 229 44 view .LVU372
 1051 00aa DB10     		asrs	r3, r3, #3
 229:Drivers/lvgl/src/draw/lv_img_buf.c ****         buf_u8[px]  = buf_u8[px] & ~(1 << (7 - bit));
 1052              		.loc 1 229 54 view .LVU373
 1053 00ac 06FB0323 		mla	r3, r6, r3, r2
 230:Drivers/lvgl/src/draw/lv_img_buf.c ****         buf_u8[px]  = buf_u8[px] | ((c.full & 0x1) << (7 - bit));
 1054              		.loc 1 230 29 view .LVU374
 1055 00b0 0833     		adds	r3, r3, #8
 230:Drivers/lvgl/src/draw/lv_img_buf.c ****         buf_u8[px]  = buf_u8[px] | ((c.full & 0x1) << (7 - bit));
 1056              		.loc 1 230 46 view .LVU375
 1057 00b2 01F00704 		and	r4, r1, #7
 231:Drivers/lvgl/src/draw/lv_img_buf.c ****     }
 1058              		.loc 1 231 45 view .LVU376
 1059 00b6 BDF80410 		ldrh	r1, [sp, #4]
 1060              	.LVL94:
 230:Drivers/lvgl/src/draw/lv_img_buf.c ****         buf_u8[px]  = buf_u8[px] | ((c.full & 0x1) << (7 - bit));
 1061              		.loc 1 230 34 view .LVU377
 1062 00ba FA5C     		ldrb	r2, [r7, r3]	@ zero_extendqisi2
 230:Drivers/lvgl/src/draw/lv_img_buf.c ****         buf_u8[px]  = buf_u8[px] | ((c.full & 0x1) << (7 - bit));
 1063              		.loc 1 230 46 view .LVU378
 1064 00bc C4F10704 		rsb	r4, r4, #7
 231:Drivers/lvgl/src/draw/lv_img_buf.c ****     }
 1065              		.loc 1 231 9 is_stmt 1 view .LVU379
 230:Drivers/lvgl/src/draw/lv_img_buf.c ****         buf_u8[px]  = buf_u8[px] | ((c.full & 0x1) << (7 - bit));
 1066              		.loc 1 230 40 is_stmt 0 view .LVU380
 1067 00c0 0120     		movs	r0, #1
 1068 00c2 A040     		lsls	r0, r0, r4
 231:Drivers/lvgl/src/draw/lv_img_buf.c ****     }
 1069              		.loc 1 231 45 view .LVU381
 1070 00c4 01F00101 		and	r1, r1, #1
 230:Drivers/lvgl/src/draw/lv_img_buf.c ****         buf_u8[px]  = buf_u8[px] | ((c.full & 0x1) << (7 - bit));
 1071              		.loc 1 230 34 view .LVU382
 1072 00c8 22EA0002 		bic	r2, r2, r0
 231:Drivers/lvgl/src/draw/lv_img_buf.c ****     }
ARM GAS  /var/folders/0z/tsy30v1j4xl4_7kw94k978ww0000gn/T//ccd7xBqr.s 			page 33


 1073              		.loc 1 231 52 view .LVU383
 1074 00cc A140     		lsls	r1, r1, r4
 231:Drivers/lvgl/src/draw/lv_img_buf.c ****     }
 1075              		.loc 1 231 34 view .LVU384
 1076 00ce 0A43     		orrs	r2, r2, r1
 231:Drivers/lvgl/src/draw/lv_img_buf.c ****     }
 1077              		.loc 1 231 21 view .LVU385
 1078 00d0 FA54     		strb	r2, [r7, r3]
 1079              	.LVL95:
 231:Drivers/lvgl/src/draw/lv_img_buf.c ****     }
 1080              		.loc 1 231 21 view .LVU386
 1081              	.LBE56:
 1082              		.loc 1 263 1 view .LVU387
 1083 00d2 03B0     		add	sp, sp, #12
 1084              		.cfi_remember_state
 1085              		.cfi_def_cfa_offset 20
 1086              		@ sp needed
 1087 00d4 F0BD     		pop	{r4, r5, r6, r7, pc}
 1088              	.LVL96:
 1089              	.L48:
 1090              		.cfi_restore_state
 1091              	.LBB57:
 234:Drivers/lvgl/src/draw/lv_img_buf.c ****         uint8_t bit = (x & 0x3) * 2;
 1092              		.loc 1 234 9 is_stmt 1 view .LVU388
 235:Drivers/lvgl/src/draw/lv_img_buf.c ****         x           = x >> 2;
 1093              		.loc 1 235 9 view .LVU389
 236:Drivers/lvgl/src/draw/lv_img_buf.c **** 
 1094              		.loc 1 236 9 view .LVU390
 241:Drivers/lvgl/src/draw/lv_img_buf.c **** 
 1095              		.loc 1 241 9 view .LVU391
 243:Drivers/lvgl/src/draw/lv_img_buf.c ****         buf_u8[px] = buf_u8[px] | ((c.full & 0x3) << (6 - bit));
 1096              		.loc 1 243 9 view .LVU392
 241:Drivers/lvgl/src/draw/lv_img_buf.c **** 
 1097              		.loc 1 241 36 is_stmt 0 view .LVU393
 1098 00d6 2B68     		ldr	r3, [r5]
 244:Drivers/lvgl/src/draw/lv_img_buf.c ****     }
 1099              		.loc 1 244 44 view .LVU394
 1100 00d8 BDF80400 		ldrh	r0, [sp, #4]
 241:Drivers/lvgl/src/draw/lv_img_buf.c **** 
 1101              		.loc 1 241 36 view .LVU395
 1102 00dc C3F38A23 		ubfx	r3, r3, #10, #11
 241:Drivers/lvgl/src/draw/lv_img_buf.c **** 
 1103              		.loc 1 241 39 view .LVU396
 1104 00e0 0333     		adds	r3, r3, #3
 241:Drivers/lvgl/src/draw/lv_img_buf.c **** 
 1105              		.loc 1 241 54 view .LVU397
 1106 00e2 8A10     		asrs	r2, r1, #2
 241:Drivers/lvgl/src/draw/lv_img_buf.c **** 
 1107              		.loc 1 241 44 view .LVU398
 1108 00e4 9B10     		asrs	r3, r3, #2
 241:Drivers/lvgl/src/draw/lv_img_buf.c **** 
 1109              		.loc 1 241 54 view .LVU399
 1110 00e6 06FB0323 		mla	r3, r6, r3, r2
 243:Drivers/lvgl/src/draw/lv_img_buf.c ****         buf_u8[px] = buf_u8[px] | ((c.full & 0x3) << (6 - bit));
 1111              		.loc 1 243 28 view .LVU400
 1112 00ea 1033     		adds	r3, r3, #16
 235:Drivers/lvgl/src/draw/lv_img_buf.c ****         x           = x >> 2;
ARM GAS  /var/folders/0z/tsy30v1j4xl4_7kw94k978ww0000gn/T//ccd7xBqr.s 			page 34


 1113              		.loc 1 235 17 view .LVU401
 1114 00ec 01F00302 		and	r2, r1, #3
 243:Drivers/lvgl/src/draw/lv_img_buf.c ****         buf_u8[px] = buf_u8[px] | ((c.full & 0x3) << (6 - bit));
 1115              		.loc 1 243 45 view .LVU402
 1116 00f0 5200     		lsls	r2, r2, #1
 243:Drivers/lvgl/src/draw/lv_img_buf.c ****         buf_u8[px] = buf_u8[px] | ((c.full & 0x3) << (6 - bit));
 1117              		.loc 1 243 33 view .LVU403
 1118 00f2 F95C     		ldrb	r1, [r7, r3]	@ zero_extendqisi2
 1119              	.LVL97:
 243:Drivers/lvgl/src/draw/lv_img_buf.c ****         buf_u8[px] = buf_u8[px] | ((c.full & 0x3) << (6 - bit));
 1120              		.loc 1 243 45 view .LVU404
 1121 00f4 C2F10602 		rsb	r2, r2, #6
 244:Drivers/lvgl/src/draw/lv_img_buf.c ****     }
 1122              		.loc 1 244 9 is_stmt 1 view .LVU405
 243:Drivers/lvgl/src/draw/lv_img_buf.c ****         buf_u8[px] = buf_u8[px] | ((c.full & 0x3) << (6 - bit));
 1123              		.loc 1 243 39 is_stmt 0 view .LVU406
 1124 00f8 0324     		movs	r4, #3
 1125 00fa 9440     		lsls	r4, r4, r2
 244:Drivers/lvgl/src/draw/lv_img_buf.c ****     }
 1126              		.loc 1 244 44 view .LVU407
 1127 00fc 00F00300 		and	r0, r0, #3
 243:Drivers/lvgl/src/draw/lv_img_buf.c ****         buf_u8[px] = buf_u8[px] | ((c.full & 0x3) << (6 - bit));
 1128              		.loc 1 243 33 view .LVU408
 1129 0100 21EA0401 		bic	r1, r1, r4
 244:Drivers/lvgl/src/draw/lv_img_buf.c ****     }
 1130              		.loc 1 244 51 view .LVU409
 1131 0104 00FA02F2 		lsl	r2, r0, r2
 244:Drivers/lvgl/src/draw/lv_img_buf.c ****     }
 1132              		.loc 1 244 33 view .LVU410
 1133 0108 0A43     		orrs	r2, r2, r1
 244:Drivers/lvgl/src/draw/lv_img_buf.c ****     }
 1134              		.loc 1 244 20 view .LVU411
 1135 010a FA54     		strb	r2, [r7, r3]
 1136              	.LVL98:
 244:Drivers/lvgl/src/draw/lv_img_buf.c ****     }
 1137              		.loc 1 244 20 view .LVU412
 1138              	.LBE57:
 1139              		.loc 1 263 1 view .LVU413
 1140 010c 03B0     		add	sp, sp, #12
 1141              		.cfi_remember_state
 1142              		.cfi_def_cfa_offset 20
 1143              		@ sp needed
 1144 010e F0BD     		pop	{r4, r5, r6, r7, pc}
 1145              	.LVL99:
 1146              	.L47:
 1147              		.cfi_restore_state
 1148              	.LBB58:
 247:Drivers/lvgl/src/draw/lv_img_buf.c ****         uint8_t bit = (x & 0x1) * 4;
 1149              		.loc 1 247 9 is_stmt 1 view .LVU414
 248:Drivers/lvgl/src/draw/lv_img_buf.c ****         x           = x >> 1;
 1150              		.loc 1 248 9 view .LVU415
 249:Drivers/lvgl/src/draw/lv_img_buf.c **** 
 1151              		.loc 1 249 9 view .LVU416
 254:Drivers/lvgl/src/draw/lv_img_buf.c ****         buf_u8[px]  = buf_u8[px] & ~(0xF << (4 - bit));
 1152              		.loc 1 254 9 view .LVU417
 255:Drivers/lvgl/src/draw/lv_img_buf.c ****         buf_u8[px]  = buf_u8[px] | ((c.full & 0xF) << (4 - bit));
 1153              		.loc 1 255 9 view .LVU418
ARM GAS  /var/folders/0z/tsy30v1j4xl4_7kw94k978ww0000gn/T//ccd7xBqr.s 			page 35


 254:Drivers/lvgl/src/draw/lv_img_buf.c ****         buf_u8[px]  = buf_u8[px] & ~(0xF << (4 - bit));
 1154              		.loc 1 254 36 is_stmt 0 view .LVU419
 1155 0110 2B68     		ldr	r3, [r5]
 256:Drivers/lvgl/src/draw/lv_img_buf.c ****     }
 1156              		.loc 1 256 45 view .LVU420
 1157 0112 BDF80400 		ldrh	r0, [sp, #4]
 254:Drivers/lvgl/src/draw/lv_img_buf.c ****         buf_u8[px]  = buf_u8[px] & ~(0xF << (4 - bit));
 1158              		.loc 1 254 36 view .LVU421
 1159 0116 C3F38A23 		ubfx	r3, r3, #10, #11
 254:Drivers/lvgl/src/draw/lv_img_buf.c ****         buf_u8[px]  = buf_u8[px] & ~(0xF << (4 - bit));
 1160              		.loc 1 254 39 view .LVU422
 1161 011a 0133     		adds	r3, r3, #1
 254:Drivers/lvgl/src/draw/lv_img_buf.c ****         buf_u8[px]  = buf_u8[px] & ~(0xF << (4 - bit));
 1162              		.loc 1 254 54 view .LVU423
 1163 011c 4A10     		asrs	r2, r1, #1
 254:Drivers/lvgl/src/draw/lv_img_buf.c ****         buf_u8[px]  = buf_u8[px] & ~(0xF << (4 - bit));
 1164              		.loc 1 254 44 view .LVU424
 1165 011e 5B10     		asrs	r3, r3, #1
 254:Drivers/lvgl/src/draw/lv_img_buf.c ****         buf_u8[px]  = buf_u8[px] & ~(0xF << (4 - bit));
 1166              		.loc 1 254 54 view .LVU425
 1167 0120 06FB0323 		mla	r3, r6, r3, r2
 255:Drivers/lvgl/src/draw/lv_img_buf.c ****         buf_u8[px]  = buf_u8[px] | ((c.full & 0xF) << (4 - bit));
 1168              		.loc 1 255 29 view .LVU426
 1169 0124 4033     		adds	r3, r3, #64
 248:Drivers/lvgl/src/draw/lv_img_buf.c ****         x           = x >> 1;
 1170              		.loc 1 248 17 view .LVU427
 1171 0126 01F00102 		and	r2, r1, #1
 255:Drivers/lvgl/src/draw/lv_img_buf.c ****         buf_u8[px]  = buf_u8[px] | ((c.full & 0xF) << (4 - bit));
 1172              		.loc 1 255 48 view .LVU428
 1173 012a 9200     		lsls	r2, r2, #2
 255:Drivers/lvgl/src/draw/lv_img_buf.c ****         buf_u8[px]  = buf_u8[px] | ((c.full & 0xF) << (4 - bit));
 1174              		.loc 1 255 34 view .LVU429
 1175 012c F95C     		ldrb	r1, [r7, r3]	@ zero_extendqisi2
 1176              	.LVL100:
 255:Drivers/lvgl/src/draw/lv_img_buf.c ****         buf_u8[px]  = buf_u8[px] | ((c.full & 0xF) << (4 - bit));
 1177              		.loc 1 255 48 view .LVU430
 1178 012e C2F10402 		rsb	r2, r2, #4
 256:Drivers/lvgl/src/draw/lv_img_buf.c ****     }
 1179              		.loc 1 256 9 is_stmt 1 view .LVU431
 255:Drivers/lvgl/src/draw/lv_img_buf.c ****         buf_u8[px]  = buf_u8[px] | ((c.full & 0xF) << (4 - bit));
 1180              		.loc 1 255 42 is_stmt 0 view .LVU432
 1181 0132 0F24     		movs	r4, #15
 1182 0134 9440     		lsls	r4, r4, r2
 256:Drivers/lvgl/src/draw/lv_img_buf.c ****     }
 1183              		.loc 1 256 45 view .LVU433
 1184 0136 00F00F00 		and	r0, r0, #15
 255:Drivers/lvgl/src/draw/lv_img_buf.c ****         buf_u8[px]  = buf_u8[px] | ((c.full & 0xF) << (4 - bit));
 1185              		.loc 1 255 34 view .LVU434
 1186 013a 21EA0401 		bic	r1, r1, r4
 256:Drivers/lvgl/src/draw/lv_img_buf.c ****     }
 1187              		.loc 1 256 52 view .LVU435
 1188 013e 00FA02F2 		lsl	r2, r0, r2
 256:Drivers/lvgl/src/draw/lv_img_buf.c ****     }
 1189              		.loc 1 256 34 view .LVU436
 1190 0142 0A43     		orrs	r2, r2, r1
 256:Drivers/lvgl/src/draw/lv_img_buf.c ****     }
 1191              		.loc 1 256 21 view .LVU437
ARM GAS  /var/folders/0z/tsy30v1j4xl4_7kw94k978ww0000gn/T//ccd7xBqr.s 			page 36


 1192 0144 FA54     		strb	r2, [r7, r3]
 1193              	.LVL101:
 256:Drivers/lvgl/src/draw/lv_img_buf.c ****     }
 1194              		.loc 1 256 21 view .LVU438
 1195              	.LBE58:
 1196              		.loc 1 263 1 view .LVU439
 1197 0146 03B0     		add	sp, sp, #12
 1198              		.cfi_def_cfa_offset 20
 1199              		@ sp needed
 1200 0148 F0BD     		pop	{r4, r5, r6, r7, pc}
 1201              		.loc 1 263 1 view .LVU440
 1202              		.cfi_endproc
 1203              	.LFE57:
 1205 014a 00BF     		.section	.text.lv_img_buf_set_palette,"ax",%progbits
 1206              		.align	1
 1207              		.p2align 2,,3
 1208              		.global	lv_img_buf_set_palette
 1209              		.syntax unified
 1210              		.thumb
 1211              		.thumb_func
 1213              	lv_img_buf_set_palette:
 1214              	.LVL102:
 1215              	.LFB58:
 264:Drivers/lvgl/src/draw/lv_img_buf.c **** 
 265:Drivers/lvgl/src/draw/lv_img_buf.c **** void lv_img_buf_set_palette(const lv_img_dsc_t * dsc, uint8_t id, lv_color_t c)
 266:Drivers/lvgl/src/draw/lv_img_buf.c **** {
 1216              		.loc 1 266 1 is_stmt 1 view -0
 1217              		.cfi_startproc
 1218              		@ args = 0, pretend = 0, frame = 0
 1219              		@ frame_needed = 0, uses_anonymous_args = 0
 1220              		@ link register save eliminated.
 267:Drivers/lvgl/src/draw/lv_img_buf.c ****     if((dsc->header.cf == LV_IMG_CF_ALPHA_1BIT && id > 1) || (dsc->header.cf == LV_IMG_CF_ALPHA_2BI
 1221              		.loc 1 267 5 view .LVU442
 1222              		.loc 1 267 24 is_stmt 0 view .LVU443
 1223 0000 0378     		ldrb	r3, [r0]	@ zero_extendqisi2
 1224 0002 03F01F03 		and	r3, r3, #31
 1225              		.loc 1 267 7 view .LVU444
 1226 0006 0B2B     		cmp	r3, #11
 1227 0008 35D0     		beq	.L71
 1228              		.loc 1 267 59 discriminator 3 view .LVU445
 1229 000a 0C2B     		cmp	r3, #12
 1230 000c 30D0     		beq	.L72
 1231              		.loc 1 267 113 discriminator 6 view .LVU446
 1232 000e 0D2B     		cmp	r3, #13
 1233 0010 35D1     		bne	.L67
 268:Drivers/lvgl/src/draw/lv_img_buf.c ****        (dsc->header.cf == LV_IMG_CF_ALPHA_4BIT && id > 15) || (dsc->header.cf == LV_IMG_CF_ALPHA_8B
 1234              		.loc 1 268 48 view .LVU447
 1235 0012 0F29     		cmp	r1, #15
 1236 0014 32D8     		bhi	.L73
 1237              	.L65:
 269:Drivers/lvgl/src/draw/lv_img_buf.c ****         LV_LOG_WARN("lv_img_buf_set_px_alpha: invalid 'id'");
 270:Drivers/lvgl/src/draw/lv_img_buf.c ****         return;
 271:Drivers/lvgl/src/draw/lv_img_buf.c ****     }
 272:Drivers/lvgl/src/draw/lv_img_buf.c **** 
 273:Drivers/lvgl/src/draw/lv_img_buf.c ****     lv_color32_t c32;
 1238              		.loc 1 273 5 is_stmt 1 view .LVU448
 274:Drivers/lvgl/src/draw/lv_img_buf.c ****     c32.full      = lv_color_to32(c);
ARM GAS  /var/folders/0z/tsy30v1j4xl4_7kw94k978ww0000gn/T//ccd7xBqr.s 			page 37


 1239              		.loc 1 274 5 view .LVU449
 266:Drivers/lvgl/src/draw/lv_img_buf.c ****     if((dsc->header.cf == LV_IMG_CF_ALPHA_1BIT && id > 1) || (dsc->header.cf == LV_IMG_CF_ALPHA_2BI
 1240              		.loc 1 266 1 is_stmt 0 view .LVU450
 1241 0016 10B4     		push	{r4}
 1242              		.cfi_def_cfa_offset 4
 1243              		.cfi_offset 4, -4
 1244 0018 02F0070C 		and	ip, r2, #7
 1245              	.LVL103:
 1246              	.LBB59:
 1247              	.LBB60:
 200:Drivers/lvgl/src/draw/../misc/lv_mem.h ****         d8++;
 1248              		.loc 2 200 13 view .LVU451
 1249 001c 8468     		ldr	r4, [r0, #8]
 1250 001e C2F30423 		ubfx	r3, r2, #8, #5
 1251              	.LVL104:
 200:Drivers/lvgl/src/draw/../misc/lv_mem.h ****         d8++;
 1252              		.loc 2 200 13 view .LVU452
 1253              	.LBE60:
 1254              	.LBE59:
 1255              	.LBB62:
 1256              	.LBB63:
 1257              		.file 3 "Drivers/lvgl/src/draw/../misc/lv_color.h"
   1:Drivers/lvgl/src/draw/../misc/lv_color.h **** /**
   2:Drivers/lvgl/src/draw/../misc/lv_color.h ****  * @file lv_color.h
   3:Drivers/lvgl/src/draw/../misc/lv_color.h ****  *
   4:Drivers/lvgl/src/draw/../misc/lv_color.h ****  */
   5:Drivers/lvgl/src/draw/../misc/lv_color.h **** 
   6:Drivers/lvgl/src/draw/../misc/lv_color.h **** #ifndef LV_COLOR_H
   7:Drivers/lvgl/src/draw/../misc/lv_color.h **** #define LV_COLOR_H
   8:Drivers/lvgl/src/draw/../misc/lv_color.h **** 
   9:Drivers/lvgl/src/draw/../misc/lv_color.h **** #ifdef __cplusplus
  10:Drivers/lvgl/src/draw/../misc/lv_color.h **** extern "C" {
  11:Drivers/lvgl/src/draw/../misc/lv_color.h **** #endif
  12:Drivers/lvgl/src/draw/../misc/lv_color.h **** 
  13:Drivers/lvgl/src/draw/../misc/lv_color.h **** /*********************
  14:Drivers/lvgl/src/draw/../misc/lv_color.h ****  *      INCLUDES
  15:Drivers/lvgl/src/draw/../misc/lv_color.h ****  *********************/
  16:Drivers/lvgl/src/draw/../misc/lv_color.h **** #include "../lv_conf_internal.h"
  17:Drivers/lvgl/src/draw/../misc/lv_color.h **** #include "lv_assert.h"
  18:Drivers/lvgl/src/draw/../misc/lv_color.h **** #include "lv_math.h"
  19:Drivers/lvgl/src/draw/../misc/lv_color.h **** #include "lv_types.h"
  20:Drivers/lvgl/src/draw/../misc/lv_color.h **** 
  21:Drivers/lvgl/src/draw/../misc/lv_color.h **** /*Error checking*/
  22:Drivers/lvgl/src/draw/../misc/lv_color.h **** #if LV_COLOR_DEPTH == 24
  23:Drivers/lvgl/src/draw/../misc/lv_color.h **** #error "LV_COLOR_DEPTH 24 is deprecated. Use LV_COLOR_DEPTH 32 instead (lv_conf.h)"
  24:Drivers/lvgl/src/draw/../misc/lv_color.h **** #endif
  25:Drivers/lvgl/src/draw/../misc/lv_color.h **** 
  26:Drivers/lvgl/src/draw/../misc/lv_color.h **** #if LV_COLOR_DEPTH != 16 && LV_COLOR_16_SWAP != 0
  27:Drivers/lvgl/src/draw/../misc/lv_color.h **** #error "LV_COLOR_16_SWAP requires LV_COLOR_DEPTH == 16. Set it in lv_conf.h"
  28:Drivers/lvgl/src/draw/../misc/lv_color.h **** #endif
  29:Drivers/lvgl/src/draw/../misc/lv_color.h **** 
  30:Drivers/lvgl/src/draw/../misc/lv_color.h **** #include <stdint.h>
  31:Drivers/lvgl/src/draw/../misc/lv_color.h **** 
  32:Drivers/lvgl/src/draw/../misc/lv_color.h **** /*********************
  33:Drivers/lvgl/src/draw/../misc/lv_color.h ****  *      DEFINES
  34:Drivers/lvgl/src/draw/../misc/lv_color.h ****  *********************/
  35:Drivers/lvgl/src/draw/../misc/lv_color.h **** LV_EXPORT_CONST_INT(LV_COLOR_DEPTH);
ARM GAS  /var/folders/0z/tsy30v1j4xl4_7kw94k978ww0000gn/T//ccd7xBqr.s 			page 38


  36:Drivers/lvgl/src/draw/../misc/lv_color.h **** LV_EXPORT_CONST_INT(LV_COLOR_16_SWAP);
  37:Drivers/lvgl/src/draw/../misc/lv_color.h **** 
  38:Drivers/lvgl/src/draw/../misc/lv_color.h **** /**
  39:Drivers/lvgl/src/draw/../misc/lv_color.h ****  * Opacity percentages.
  40:Drivers/lvgl/src/draw/../misc/lv_color.h ****  */
  41:Drivers/lvgl/src/draw/../misc/lv_color.h **** enum {
  42:Drivers/lvgl/src/draw/../misc/lv_color.h ****     LV_OPA_TRANSP = 0,
  43:Drivers/lvgl/src/draw/../misc/lv_color.h ****     LV_OPA_0      = 0,
  44:Drivers/lvgl/src/draw/../misc/lv_color.h ****     LV_OPA_10     = 25,
  45:Drivers/lvgl/src/draw/../misc/lv_color.h ****     LV_OPA_20     = 51,
  46:Drivers/lvgl/src/draw/../misc/lv_color.h ****     LV_OPA_30     = 76,
  47:Drivers/lvgl/src/draw/../misc/lv_color.h ****     LV_OPA_40     = 102,
  48:Drivers/lvgl/src/draw/../misc/lv_color.h ****     LV_OPA_50     = 127,
  49:Drivers/lvgl/src/draw/../misc/lv_color.h ****     LV_OPA_60     = 153,
  50:Drivers/lvgl/src/draw/../misc/lv_color.h ****     LV_OPA_70     = 178,
  51:Drivers/lvgl/src/draw/../misc/lv_color.h ****     LV_OPA_80     = 204,
  52:Drivers/lvgl/src/draw/../misc/lv_color.h ****     LV_OPA_90     = 229,
  53:Drivers/lvgl/src/draw/../misc/lv_color.h ****     LV_OPA_100    = 255,
  54:Drivers/lvgl/src/draw/../misc/lv_color.h ****     LV_OPA_COVER  = 255,
  55:Drivers/lvgl/src/draw/../misc/lv_color.h **** };
  56:Drivers/lvgl/src/draw/../misc/lv_color.h **** 
  57:Drivers/lvgl/src/draw/../misc/lv_color.h **** #define LV_OPA_MIN 2    /*Opacities below this will be transparent*/
  58:Drivers/lvgl/src/draw/../misc/lv_color.h **** #define LV_OPA_MAX 253  /*Opacities above this will fully cover*/
  59:Drivers/lvgl/src/draw/../misc/lv_color.h **** 
  60:Drivers/lvgl/src/draw/../misc/lv_color.h **** #if LV_COLOR_DEPTH == 1
  61:Drivers/lvgl/src/draw/../misc/lv_color.h **** #define LV_COLOR_SIZE 8
  62:Drivers/lvgl/src/draw/../misc/lv_color.h **** #elif LV_COLOR_DEPTH == 8
  63:Drivers/lvgl/src/draw/../misc/lv_color.h **** #define LV_COLOR_SIZE 8
  64:Drivers/lvgl/src/draw/../misc/lv_color.h **** #elif LV_COLOR_DEPTH == 16
  65:Drivers/lvgl/src/draw/../misc/lv_color.h **** #define LV_COLOR_SIZE 16
  66:Drivers/lvgl/src/draw/../misc/lv_color.h **** #elif LV_COLOR_DEPTH == 32
  67:Drivers/lvgl/src/draw/../misc/lv_color.h **** #define LV_COLOR_SIZE 32
  68:Drivers/lvgl/src/draw/../misc/lv_color.h **** #else
  69:Drivers/lvgl/src/draw/../misc/lv_color.h **** #error "Invalid LV_COLOR_DEPTH in lv_conf.h! Set it to 1, 8, 16 or 32!"
  70:Drivers/lvgl/src/draw/../misc/lv_color.h **** #endif
  71:Drivers/lvgl/src/draw/../misc/lv_color.h **** 
  72:Drivers/lvgl/src/draw/../misc/lv_color.h **** #if defined(__cplusplus) && !defined(_LV_COLOR_HAS_MODERN_CPP)
  73:Drivers/lvgl/src/draw/../misc/lv_color.h **** /**
  74:Drivers/lvgl/src/draw/../misc/lv_color.h **** * MSVC compiler's definition of the __cplusplus indicating 199711L regardless to C++ standard versi
  75:Drivers/lvgl/src/draw/../misc/lv_color.h **** * see https://devblogs.microsoft.com/cppblog/msvc-now-correctly-reports-cplusplus
  76:Drivers/lvgl/src/draw/../misc/lv_color.h **** * so we use _MSC_VER macro instead of __cplusplus
  77:Drivers/lvgl/src/draw/../misc/lv_color.h **** */
  78:Drivers/lvgl/src/draw/../misc/lv_color.h **** #ifdef _MSC_VER
  79:Drivers/lvgl/src/draw/../misc/lv_color.h **** #if _MSC_VER >= 1900 /*Visual Studio 2015*/
  80:Drivers/lvgl/src/draw/../misc/lv_color.h **** #define _LV_COLOR_HAS_MODERN_CPP 1
  81:Drivers/lvgl/src/draw/../misc/lv_color.h **** #endif
  82:Drivers/lvgl/src/draw/../misc/lv_color.h **** #else
  83:Drivers/lvgl/src/draw/../misc/lv_color.h **** #if __cplusplus >= 201103L
  84:Drivers/lvgl/src/draw/../misc/lv_color.h **** #define _LV_COLOR_HAS_MODERN_CPP 1
  85:Drivers/lvgl/src/draw/../misc/lv_color.h **** #endif
  86:Drivers/lvgl/src/draw/../misc/lv_color.h **** #endif
  87:Drivers/lvgl/src/draw/../misc/lv_color.h **** #endif /*__cplusplus*/
  88:Drivers/lvgl/src/draw/../misc/lv_color.h **** 
  89:Drivers/lvgl/src/draw/../misc/lv_color.h **** #ifndef _LV_COLOR_HAS_MODERN_CPP
  90:Drivers/lvgl/src/draw/../misc/lv_color.h **** #define _LV_COLOR_HAS_MODERN_CPP 0
  91:Drivers/lvgl/src/draw/../misc/lv_color.h **** #endif
  92:Drivers/lvgl/src/draw/../misc/lv_color.h **** 
ARM GAS  /var/folders/0z/tsy30v1j4xl4_7kw94k978ww0000gn/T//ccd7xBqr.s 			page 39


  93:Drivers/lvgl/src/draw/../misc/lv_color.h **** #if _LV_COLOR_HAS_MODERN_CPP
  94:Drivers/lvgl/src/draw/../misc/lv_color.h **** /*Fix msvc compiler error C4576 inside C++ code*/
  95:Drivers/lvgl/src/draw/../misc/lv_color.h **** #define _LV_COLOR_MAKE_TYPE_HELPER lv_color_t
  96:Drivers/lvgl/src/draw/../misc/lv_color.h **** #else
  97:Drivers/lvgl/src/draw/../misc/lv_color.h **** #define _LV_COLOR_MAKE_TYPE_HELPER (lv_color_t)
  98:Drivers/lvgl/src/draw/../misc/lv_color.h **** #endif
  99:Drivers/lvgl/src/draw/../misc/lv_color.h **** 
 100:Drivers/lvgl/src/draw/../misc/lv_color.h **** /*---------------------------------------
 101:Drivers/lvgl/src/draw/../misc/lv_color.h ****  * Macros for all existing color depths
 102:Drivers/lvgl/src/draw/../misc/lv_color.h ****  * to set/get values of the color channels
 103:Drivers/lvgl/src/draw/../misc/lv_color.h ****  *------------------------------------------*/
 104:Drivers/lvgl/src/draw/../misc/lv_color.h **** # define LV_COLOR_SET_R1(c, v) (c).ch.red = (uint8_t)((v) & 0x1)
 105:Drivers/lvgl/src/draw/../misc/lv_color.h **** # define LV_COLOR_SET_G1(c, v) (c).ch.green = (uint8_t)((v) & 0x1)
 106:Drivers/lvgl/src/draw/../misc/lv_color.h **** # define LV_COLOR_SET_B1(c, v) (c).ch.blue = (uint8_t)((v) & 0x1)
 107:Drivers/lvgl/src/draw/../misc/lv_color.h **** # define LV_COLOR_SET_A1(c, v) do {} while(0)
 108:Drivers/lvgl/src/draw/../misc/lv_color.h **** 
 109:Drivers/lvgl/src/draw/../misc/lv_color.h **** # define LV_COLOR_GET_R1(c) (c).ch.red
 110:Drivers/lvgl/src/draw/../misc/lv_color.h **** # define LV_COLOR_GET_G1(c) (c).ch.green
 111:Drivers/lvgl/src/draw/../misc/lv_color.h **** # define LV_COLOR_GET_B1(c) (c).ch.blue
 112:Drivers/lvgl/src/draw/../misc/lv_color.h **** # define LV_COLOR_GET_A1(c) 0xFF
 113:Drivers/lvgl/src/draw/../misc/lv_color.h **** 
 114:Drivers/lvgl/src/draw/../misc/lv_color.h **** # define _LV_COLOR_ZERO_INITIALIZER1 {0x00}
 115:Drivers/lvgl/src/draw/../misc/lv_color.h **** # define LV_COLOR_MAKE1(r8, g8, b8)  {(uint8_t)((b8 >> 7) | (g8 >> 7) | (r8 >> 7))}
 116:Drivers/lvgl/src/draw/../misc/lv_color.h **** 
 117:Drivers/lvgl/src/draw/../misc/lv_color.h **** # define LV_COLOR_SET_R8(c, v) (c).ch.red = (uint8_t)((v) & 0x7U)
 118:Drivers/lvgl/src/draw/../misc/lv_color.h **** # define LV_COLOR_SET_G8(c, v) (c).ch.green = (uint8_t)((v) & 0x7U)
 119:Drivers/lvgl/src/draw/../misc/lv_color.h **** # define LV_COLOR_SET_B8(c, v) (c).ch.blue = (uint8_t)((v) & 0x3U)
 120:Drivers/lvgl/src/draw/../misc/lv_color.h **** # define LV_COLOR_SET_A8(c, v) do {} while(0)
 121:Drivers/lvgl/src/draw/../misc/lv_color.h **** 
 122:Drivers/lvgl/src/draw/../misc/lv_color.h **** # define LV_COLOR_GET_R8(c) (c).ch.red
 123:Drivers/lvgl/src/draw/../misc/lv_color.h **** # define LV_COLOR_GET_G8(c) (c).ch.green
 124:Drivers/lvgl/src/draw/../misc/lv_color.h **** # define LV_COLOR_GET_B8(c) (c).ch.blue
 125:Drivers/lvgl/src/draw/../misc/lv_color.h **** # define LV_COLOR_GET_A8(c) 0xFF
 126:Drivers/lvgl/src/draw/../misc/lv_color.h **** 
 127:Drivers/lvgl/src/draw/../misc/lv_color.h **** # define _LV_COLOR_ZERO_INITIALIZER8 {{0x00, 0x00, 0x00}}
 128:Drivers/lvgl/src/draw/../misc/lv_color.h **** # define LV_COLOR_MAKE8(r8, g8, b8) {{(uint8_t)((b8 >> 6) & 0x3U), (uint8_t)((g8 >> 5) & 0x7U), (ui
 129:Drivers/lvgl/src/draw/../misc/lv_color.h **** 
 130:Drivers/lvgl/src/draw/../misc/lv_color.h **** # define LV_COLOR_SET_R16(c, v) (c).ch.red = (uint8_t)((v) & 0x1FU)
 131:Drivers/lvgl/src/draw/../misc/lv_color.h **** #if LV_COLOR_16_SWAP == 0
 132:Drivers/lvgl/src/draw/../misc/lv_color.h **** # define LV_COLOR_SET_G16(c, v) (c).ch.green = (uint8_t)((v) & 0x3FU)
 133:Drivers/lvgl/src/draw/../misc/lv_color.h **** #else
 134:Drivers/lvgl/src/draw/../misc/lv_color.h **** # define LV_COLOR_SET_G16(c, v) {(c).ch.green_h = (uint8_t)(((v) >> 3) & 0x7); (c).ch.green_l = (ui
 135:Drivers/lvgl/src/draw/../misc/lv_color.h **** #endif
 136:Drivers/lvgl/src/draw/../misc/lv_color.h **** # define LV_COLOR_SET_B16(c, v) (c).ch.blue = (uint8_t)((v) & 0x1FU)
 137:Drivers/lvgl/src/draw/../misc/lv_color.h **** # define LV_COLOR_SET_A16(c, v) do {} while(0)
 138:Drivers/lvgl/src/draw/../misc/lv_color.h **** 
 139:Drivers/lvgl/src/draw/../misc/lv_color.h **** # define LV_COLOR_GET_R16(c) (c).ch.red
 140:Drivers/lvgl/src/draw/../misc/lv_color.h **** #if LV_COLOR_16_SWAP == 0
 141:Drivers/lvgl/src/draw/../misc/lv_color.h **** # define LV_COLOR_GET_G16(c) (c).ch.green
 142:Drivers/lvgl/src/draw/../misc/lv_color.h **** #else
 143:Drivers/lvgl/src/draw/../misc/lv_color.h **** # define LV_COLOR_GET_G16(c) (((c).ch.green_h << 3) + (c).ch.green_l)
 144:Drivers/lvgl/src/draw/../misc/lv_color.h **** #endif
 145:Drivers/lvgl/src/draw/../misc/lv_color.h **** # define LV_COLOR_GET_B16(c) (c).ch.blue
 146:Drivers/lvgl/src/draw/../misc/lv_color.h **** # define LV_COLOR_GET_A16(c) 0xFF
 147:Drivers/lvgl/src/draw/../misc/lv_color.h **** 
 148:Drivers/lvgl/src/draw/../misc/lv_color.h **** #if LV_COLOR_16_SWAP == 0
 149:Drivers/lvgl/src/draw/../misc/lv_color.h **** # define _LV_COLOR_ZERO_INITIALIZER16  {{0x00, 0x00, 0x00}}
ARM GAS  /var/folders/0z/tsy30v1j4xl4_7kw94k978ww0000gn/T//ccd7xBqr.s 			page 40


 150:Drivers/lvgl/src/draw/../misc/lv_color.h **** # define LV_COLOR_MAKE16(r8, g8, b8) {{(uint8_t)((b8 >> 3) & 0x1FU), (uint8_t)((g8 >> 2) & 0x3FU), 
 151:Drivers/lvgl/src/draw/../misc/lv_color.h **** #else
 152:Drivers/lvgl/src/draw/../misc/lv_color.h **** # define _LV_COLOR_ZERO_INITIALIZER16 {{0x00, 0x00, 0x00, 0x00}}
 153:Drivers/lvgl/src/draw/../misc/lv_color.h **** # define LV_COLOR_MAKE16(r8, g8, b8) {{(uint8_t)((g8 >> 5) & 0x7U), (uint8_t)((r8 >> 3) & 0x1FU), (
 154:Drivers/lvgl/src/draw/../misc/lv_color.h **** #endif
 155:Drivers/lvgl/src/draw/../misc/lv_color.h **** 
 156:Drivers/lvgl/src/draw/../misc/lv_color.h **** # define LV_COLOR_SET_R32(c, v) (c).ch.red = (uint8_t)((v) & 0xFF)
 157:Drivers/lvgl/src/draw/../misc/lv_color.h **** # define LV_COLOR_SET_G32(c, v) (c).ch.green = (uint8_t)((v) & 0xFF)
 158:Drivers/lvgl/src/draw/../misc/lv_color.h **** # define LV_COLOR_SET_B32(c, v) (c).ch.blue = (uint8_t)((v) & 0xFF)
 159:Drivers/lvgl/src/draw/../misc/lv_color.h **** # define LV_COLOR_SET_A32(c, v) (c).ch.alpha = (uint8_t)((v) & 0xFF)
 160:Drivers/lvgl/src/draw/../misc/lv_color.h **** 
 161:Drivers/lvgl/src/draw/../misc/lv_color.h **** # define LV_COLOR_GET_R32(c) (c).ch.red
 162:Drivers/lvgl/src/draw/../misc/lv_color.h **** # define LV_COLOR_GET_G32(c) (c).ch.green
 163:Drivers/lvgl/src/draw/../misc/lv_color.h **** # define LV_COLOR_GET_B32(c) (c).ch.blue
 164:Drivers/lvgl/src/draw/../misc/lv_color.h **** # define LV_COLOR_GET_A32(c) (c).ch.alpha
 165:Drivers/lvgl/src/draw/../misc/lv_color.h **** 
 166:Drivers/lvgl/src/draw/../misc/lv_color.h **** # define _LV_COLOR_ZERO_INITIALIZER32  {{0x00, 0x00, 0x00, 0x00}}
 167:Drivers/lvgl/src/draw/../misc/lv_color.h **** # define LV_COLOR_MAKE32(r8, g8, b8) {{b8, g8, r8, 0xff}} /*Fix 0xff alpha*/
 168:Drivers/lvgl/src/draw/../misc/lv_color.h **** 
 169:Drivers/lvgl/src/draw/../misc/lv_color.h **** /*---------------------------------------
 170:Drivers/lvgl/src/draw/../misc/lv_color.h ****  * Macros for the current color depth
 171:Drivers/lvgl/src/draw/../misc/lv_color.h ****  * to set/get values of the color channels
 172:Drivers/lvgl/src/draw/../misc/lv_color.h ****  *------------------------------------------*/
 173:Drivers/lvgl/src/draw/../misc/lv_color.h **** #define LV_COLOR_SET_R(c, v) LV_CONCAT(LV_COLOR_SET_R, LV_COLOR_DEPTH)(c, v)
 174:Drivers/lvgl/src/draw/../misc/lv_color.h **** #define LV_COLOR_SET_G(c, v) LV_CONCAT(LV_COLOR_SET_G, LV_COLOR_DEPTH)(c, v)
 175:Drivers/lvgl/src/draw/../misc/lv_color.h **** #define LV_COLOR_SET_B(c, v) LV_CONCAT(LV_COLOR_SET_B, LV_COLOR_DEPTH)(c, v)
 176:Drivers/lvgl/src/draw/../misc/lv_color.h **** #define LV_COLOR_SET_A(c, v) LV_CONCAT(LV_COLOR_SET_A, LV_COLOR_DEPTH)(c, v)
 177:Drivers/lvgl/src/draw/../misc/lv_color.h **** 
 178:Drivers/lvgl/src/draw/../misc/lv_color.h **** #define LV_COLOR_GET_R(c) LV_CONCAT(LV_COLOR_GET_R, LV_COLOR_DEPTH)(c)
 179:Drivers/lvgl/src/draw/../misc/lv_color.h **** #define LV_COLOR_GET_G(c) LV_CONCAT(LV_COLOR_GET_G, LV_COLOR_DEPTH)(c)
 180:Drivers/lvgl/src/draw/../misc/lv_color.h **** #define LV_COLOR_GET_B(c) LV_CONCAT(LV_COLOR_GET_B, LV_COLOR_DEPTH)(c)
 181:Drivers/lvgl/src/draw/../misc/lv_color.h **** #define LV_COLOR_GET_A(c) LV_CONCAT(LV_COLOR_GET_A, LV_COLOR_DEPTH)(c)
 182:Drivers/lvgl/src/draw/../misc/lv_color.h **** 
 183:Drivers/lvgl/src/draw/../misc/lv_color.h **** #define _LV_COLOR_ZERO_INITIALIZER LV_CONCAT(_LV_COLOR_ZERO_INITIALIZER, LV_COLOR_DEPTH)
 184:Drivers/lvgl/src/draw/../misc/lv_color.h **** #define LV_COLOR_MAKE(r8, g8, b8) LV_CONCAT(LV_COLOR_MAKE, LV_COLOR_DEPTH)(r8, g8, b8)
 185:Drivers/lvgl/src/draw/../misc/lv_color.h **** 
 186:Drivers/lvgl/src/draw/../misc/lv_color.h **** /**********************
 187:Drivers/lvgl/src/draw/../misc/lv_color.h ****  *      TYPEDEFS
 188:Drivers/lvgl/src/draw/../misc/lv_color.h ****  **********************/
 189:Drivers/lvgl/src/draw/../misc/lv_color.h **** 
 190:Drivers/lvgl/src/draw/../misc/lv_color.h **** typedef union {
 191:Drivers/lvgl/src/draw/../misc/lv_color.h ****     uint8_t full; /*must be declared first to set all bits of byte via initializer list*/
 192:Drivers/lvgl/src/draw/../misc/lv_color.h ****     union {
 193:Drivers/lvgl/src/draw/../misc/lv_color.h ****         uint8_t blue : 1;
 194:Drivers/lvgl/src/draw/../misc/lv_color.h ****         uint8_t green : 1;
 195:Drivers/lvgl/src/draw/../misc/lv_color.h ****         uint8_t red : 1;
 196:Drivers/lvgl/src/draw/../misc/lv_color.h ****     } ch;
 197:Drivers/lvgl/src/draw/../misc/lv_color.h **** } lv_color1_t;
 198:Drivers/lvgl/src/draw/../misc/lv_color.h **** 
 199:Drivers/lvgl/src/draw/../misc/lv_color.h **** typedef union {
 200:Drivers/lvgl/src/draw/../misc/lv_color.h ****     struct {
 201:Drivers/lvgl/src/draw/../misc/lv_color.h ****         uint8_t blue : 2;
 202:Drivers/lvgl/src/draw/../misc/lv_color.h ****         uint8_t green : 3;
 203:Drivers/lvgl/src/draw/../misc/lv_color.h ****         uint8_t red : 3;
 204:Drivers/lvgl/src/draw/../misc/lv_color.h ****     } ch;
 205:Drivers/lvgl/src/draw/../misc/lv_color.h ****     uint8_t full;
 206:Drivers/lvgl/src/draw/../misc/lv_color.h **** } lv_color8_t;
ARM GAS  /var/folders/0z/tsy30v1j4xl4_7kw94k978ww0000gn/T//ccd7xBqr.s 			page 41


 207:Drivers/lvgl/src/draw/../misc/lv_color.h **** 
 208:Drivers/lvgl/src/draw/../misc/lv_color.h **** typedef union {
 209:Drivers/lvgl/src/draw/../misc/lv_color.h ****     struct {
 210:Drivers/lvgl/src/draw/../misc/lv_color.h **** #if LV_COLOR_16_SWAP == 0
 211:Drivers/lvgl/src/draw/../misc/lv_color.h ****         uint16_t blue : 5;
 212:Drivers/lvgl/src/draw/../misc/lv_color.h ****         uint16_t green : 6;
 213:Drivers/lvgl/src/draw/../misc/lv_color.h ****         uint16_t red : 5;
 214:Drivers/lvgl/src/draw/../misc/lv_color.h **** #else
 215:Drivers/lvgl/src/draw/../misc/lv_color.h ****         uint16_t green_h : 3;
 216:Drivers/lvgl/src/draw/../misc/lv_color.h ****         uint16_t red : 5;
 217:Drivers/lvgl/src/draw/../misc/lv_color.h ****         uint16_t blue : 5;
 218:Drivers/lvgl/src/draw/../misc/lv_color.h ****         uint16_t green_l : 3;
 219:Drivers/lvgl/src/draw/../misc/lv_color.h **** #endif
 220:Drivers/lvgl/src/draw/../misc/lv_color.h ****     } ch;
 221:Drivers/lvgl/src/draw/../misc/lv_color.h ****     uint16_t full;
 222:Drivers/lvgl/src/draw/../misc/lv_color.h **** } lv_color16_t;
 223:Drivers/lvgl/src/draw/../misc/lv_color.h **** 
 224:Drivers/lvgl/src/draw/../misc/lv_color.h **** typedef union {
 225:Drivers/lvgl/src/draw/../misc/lv_color.h ****     struct {
 226:Drivers/lvgl/src/draw/../misc/lv_color.h ****         uint8_t blue;
 227:Drivers/lvgl/src/draw/../misc/lv_color.h ****         uint8_t green;
 228:Drivers/lvgl/src/draw/../misc/lv_color.h ****         uint8_t red;
 229:Drivers/lvgl/src/draw/../misc/lv_color.h ****         uint8_t alpha;
 230:Drivers/lvgl/src/draw/../misc/lv_color.h ****     } ch;
 231:Drivers/lvgl/src/draw/../misc/lv_color.h ****     uint32_t full;
 232:Drivers/lvgl/src/draw/../misc/lv_color.h **** } lv_color32_t;
 233:Drivers/lvgl/src/draw/../misc/lv_color.h **** 
 234:Drivers/lvgl/src/draw/../misc/lv_color.h **** typedef LV_CONCAT3(uint, LV_COLOR_SIZE, _t) lv_color_int_t;
 235:Drivers/lvgl/src/draw/../misc/lv_color.h **** typedef LV_CONCAT3(lv_color, LV_COLOR_DEPTH, _t) lv_color_t;
 236:Drivers/lvgl/src/draw/../misc/lv_color.h **** 
 237:Drivers/lvgl/src/draw/../misc/lv_color.h **** typedef struct {
 238:Drivers/lvgl/src/draw/../misc/lv_color.h ****     uint16_t h;
 239:Drivers/lvgl/src/draw/../misc/lv_color.h ****     uint8_t s;
 240:Drivers/lvgl/src/draw/../misc/lv_color.h ****     uint8_t v;
 241:Drivers/lvgl/src/draw/../misc/lv_color.h **** } lv_color_hsv_t;
 242:Drivers/lvgl/src/draw/../misc/lv_color.h **** 
 243:Drivers/lvgl/src/draw/../misc/lv_color.h **** //! @cond Doxygen_Suppress
 244:Drivers/lvgl/src/draw/../misc/lv_color.h **** /*No idea where the guard is required but else throws warnings in the docs*/
 245:Drivers/lvgl/src/draw/../misc/lv_color.h **** typedef uint8_t lv_opa_t;
 246:Drivers/lvgl/src/draw/../misc/lv_color.h **** //! @endcond
 247:Drivers/lvgl/src/draw/../misc/lv_color.h **** 
 248:Drivers/lvgl/src/draw/../misc/lv_color.h **** struct _lv_color_filter_dsc_t;
 249:Drivers/lvgl/src/draw/../misc/lv_color.h **** 
 250:Drivers/lvgl/src/draw/../misc/lv_color.h **** typedef lv_color_t (*lv_color_filter_cb_t)(const struct _lv_color_filter_dsc_t *, lv_color_t, lv_op
 251:Drivers/lvgl/src/draw/../misc/lv_color.h **** 
 252:Drivers/lvgl/src/draw/../misc/lv_color.h **** typedef struct _lv_color_filter_dsc_t {
 253:Drivers/lvgl/src/draw/../misc/lv_color.h ****     lv_color_filter_cb_t filter_cb;
 254:Drivers/lvgl/src/draw/../misc/lv_color.h ****     void * user_data;
 255:Drivers/lvgl/src/draw/../misc/lv_color.h **** } lv_color_filter_dsc_t;
 256:Drivers/lvgl/src/draw/../misc/lv_color.h **** 
 257:Drivers/lvgl/src/draw/../misc/lv_color.h **** 
 258:Drivers/lvgl/src/draw/../misc/lv_color.h **** typedef enum {
 259:Drivers/lvgl/src/draw/../misc/lv_color.h ****     LV_PALETTE_RED,
 260:Drivers/lvgl/src/draw/../misc/lv_color.h ****     LV_PALETTE_PINK,
 261:Drivers/lvgl/src/draw/../misc/lv_color.h ****     LV_PALETTE_PURPLE,
 262:Drivers/lvgl/src/draw/../misc/lv_color.h ****     LV_PALETTE_DEEP_PURPLE,
 263:Drivers/lvgl/src/draw/../misc/lv_color.h ****     LV_PALETTE_INDIGO,
ARM GAS  /var/folders/0z/tsy30v1j4xl4_7kw94k978ww0000gn/T//ccd7xBqr.s 			page 42


 264:Drivers/lvgl/src/draw/../misc/lv_color.h ****     LV_PALETTE_BLUE,
 265:Drivers/lvgl/src/draw/../misc/lv_color.h ****     LV_PALETTE_LIGHT_BLUE,
 266:Drivers/lvgl/src/draw/../misc/lv_color.h ****     LV_PALETTE_CYAN,
 267:Drivers/lvgl/src/draw/../misc/lv_color.h ****     LV_PALETTE_TEAL,
 268:Drivers/lvgl/src/draw/../misc/lv_color.h ****     LV_PALETTE_GREEN,
 269:Drivers/lvgl/src/draw/../misc/lv_color.h ****     LV_PALETTE_LIGHT_GREEN,
 270:Drivers/lvgl/src/draw/../misc/lv_color.h ****     LV_PALETTE_LIME,
 271:Drivers/lvgl/src/draw/../misc/lv_color.h ****     LV_PALETTE_YELLOW,
 272:Drivers/lvgl/src/draw/../misc/lv_color.h ****     LV_PALETTE_AMBER,
 273:Drivers/lvgl/src/draw/../misc/lv_color.h ****     LV_PALETTE_ORANGE,
 274:Drivers/lvgl/src/draw/../misc/lv_color.h ****     LV_PALETTE_DEEP_ORANGE,
 275:Drivers/lvgl/src/draw/../misc/lv_color.h ****     LV_PALETTE_BROWN,
 276:Drivers/lvgl/src/draw/../misc/lv_color.h ****     LV_PALETTE_BLUE_GREY,
 277:Drivers/lvgl/src/draw/../misc/lv_color.h ****     LV_PALETTE_GREY,
 278:Drivers/lvgl/src/draw/../misc/lv_color.h ****     _LV_PALETTE_LAST,
 279:Drivers/lvgl/src/draw/../misc/lv_color.h ****     LV_PALETTE_NONE = 0xff,
 280:Drivers/lvgl/src/draw/../misc/lv_color.h **** } lv_palette_t;
 281:Drivers/lvgl/src/draw/../misc/lv_color.h **** 
 282:Drivers/lvgl/src/draw/../misc/lv_color.h **** /**********************
 283:Drivers/lvgl/src/draw/../misc/lv_color.h ****  * GLOBAL PROTOTYPES
 284:Drivers/lvgl/src/draw/../misc/lv_color.h ****  **********************/
 285:Drivers/lvgl/src/draw/../misc/lv_color.h **** 
 286:Drivers/lvgl/src/draw/../misc/lv_color.h **** /*In color conversations:
 287:Drivers/lvgl/src/draw/../misc/lv_color.h ****  * - When converting to bigger color type the LSB weight of 1 LSB is calculated
 288:Drivers/lvgl/src/draw/../misc/lv_color.h ****  *   E.g. 16 bit Red has 5 bits
 289:Drivers/lvgl/src/draw/../misc/lv_color.h ****  *         8 bit Red has 3 bits
 290:Drivers/lvgl/src/draw/../misc/lv_color.h ****  *        ----------------------
 291:Drivers/lvgl/src/draw/../misc/lv_color.h ****  *        8 bit red LSB = (2^5 - 1) / (2^3 - 1) = 31 / 7 = 4
 292:Drivers/lvgl/src/draw/../misc/lv_color.h ****  *
 293:Drivers/lvgl/src/draw/../misc/lv_color.h ****  * - When calculating to smaller color type simply shift out the LSBs
 294:Drivers/lvgl/src/draw/../misc/lv_color.h ****  *   E.g.  8 bit Red has 3 bits
 295:Drivers/lvgl/src/draw/../misc/lv_color.h ****  *        16 bit Red has 5 bits
 296:Drivers/lvgl/src/draw/../misc/lv_color.h ****  *        ----------------------
 297:Drivers/lvgl/src/draw/../misc/lv_color.h ****  *         Shift right with 5 - 3 = 2
 298:Drivers/lvgl/src/draw/../misc/lv_color.h ****  */
 299:Drivers/lvgl/src/draw/../misc/lv_color.h **** static inline uint8_t lv_color_to1(lv_color_t color)
 300:Drivers/lvgl/src/draw/../misc/lv_color.h **** {
 301:Drivers/lvgl/src/draw/../misc/lv_color.h **** #if LV_COLOR_DEPTH == 1
 302:Drivers/lvgl/src/draw/../misc/lv_color.h ****     return color.full;
 303:Drivers/lvgl/src/draw/../misc/lv_color.h **** #elif LV_COLOR_DEPTH == 8
 304:Drivers/lvgl/src/draw/../misc/lv_color.h ****     if((LV_COLOR_GET_R(color) & 0x4) || (LV_COLOR_GET_G(color) & 0x4) || (LV_COLOR_GET_B(color) & 0
 305:Drivers/lvgl/src/draw/../misc/lv_color.h ****         return 1;
 306:Drivers/lvgl/src/draw/../misc/lv_color.h ****     }
 307:Drivers/lvgl/src/draw/../misc/lv_color.h ****     else {
 308:Drivers/lvgl/src/draw/../misc/lv_color.h ****         return 0;
 309:Drivers/lvgl/src/draw/../misc/lv_color.h ****     }
 310:Drivers/lvgl/src/draw/../misc/lv_color.h **** #elif LV_COLOR_DEPTH == 16
 311:Drivers/lvgl/src/draw/../misc/lv_color.h ****     if((LV_COLOR_GET_R(color) & 0x10) || (LV_COLOR_GET_G(color) & 0x20) || (LV_COLOR_GET_B(color) &
 312:Drivers/lvgl/src/draw/../misc/lv_color.h ****         return 1;
 313:Drivers/lvgl/src/draw/../misc/lv_color.h ****     }
 314:Drivers/lvgl/src/draw/../misc/lv_color.h ****     else {
 315:Drivers/lvgl/src/draw/../misc/lv_color.h ****         return 0;
 316:Drivers/lvgl/src/draw/../misc/lv_color.h ****     }
 317:Drivers/lvgl/src/draw/../misc/lv_color.h **** #elif LV_COLOR_DEPTH == 32
 318:Drivers/lvgl/src/draw/../misc/lv_color.h ****     if((LV_COLOR_GET_R(color) & 0x80) || (LV_COLOR_GET_G(color) & 0x80) || (LV_COLOR_GET_B(color) &
 319:Drivers/lvgl/src/draw/../misc/lv_color.h ****         return 1;
 320:Drivers/lvgl/src/draw/../misc/lv_color.h ****     }
ARM GAS  /var/folders/0z/tsy30v1j4xl4_7kw94k978ww0000gn/T//ccd7xBqr.s 			page 43


 321:Drivers/lvgl/src/draw/../misc/lv_color.h ****     else {
 322:Drivers/lvgl/src/draw/../misc/lv_color.h ****         return 0;
 323:Drivers/lvgl/src/draw/../misc/lv_color.h ****     }
 324:Drivers/lvgl/src/draw/../misc/lv_color.h **** #endif
 325:Drivers/lvgl/src/draw/../misc/lv_color.h **** }
 326:Drivers/lvgl/src/draw/../misc/lv_color.h **** 
 327:Drivers/lvgl/src/draw/../misc/lv_color.h **** static inline uint8_t lv_color_to8(lv_color_t color)
 328:Drivers/lvgl/src/draw/../misc/lv_color.h **** {
 329:Drivers/lvgl/src/draw/../misc/lv_color.h **** #if LV_COLOR_DEPTH == 1
 330:Drivers/lvgl/src/draw/../misc/lv_color.h ****     if(color.full == 0)
 331:Drivers/lvgl/src/draw/../misc/lv_color.h ****         return 0;
 332:Drivers/lvgl/src/draw/../misc/lv_color.h ****     else
 333:Drivers/lvgl/src/draw/../misc/lv_color.h ****         return 0xFF;
 334:Drivers/lvgl/src/draw/../misc/lv_color.h **** #elif LV_COLOR_DEPTH == 8
 335:Drivers/lvgl/src/draw/../misc/lv_color.h ****     return color.full;
 336:Drivers/lvgl/src/draw/../misc/lv_color.h **** #elif LV_COLOR_DEPTH == 16
 337:Drivers/lvgl/src/draw/../misc/lv_color.h ****     lv_color8_t ret;
 338:Drivers/lvgl/src/draw/../misc/lv_color.h ****     LV_COLOR_SET_R8(ret, LV_COLOR_GET_R(color) >> 2); /*5 - 3  = 2*/
 339:Drivers/lvgl/src/draw/../misc/lv_color.h ****     LV_COLOR_SET_G8(ret, LV_COLOR_GET_G(color) >> 3); /*6 - 3  = 3*/
 340:Drivers/lvgl/src/draw/../misc/lv_color.h ****     LV_COLOR_SET_B8(ret, LV_COLOR_GET_B(color) >> 3); /*5 - 2  = 3*/
 341:Drivers/lvgl/src/draw/../misc/lv_color.h ****     return ret.full;
 342:Drivers/lvgl/src/draw/../misc/lv_color.h **** #elif LV_COLOR_DEPTH == 32
 343:Drivers/lvgl/src/draw/../misc/lv_color.h ****     lv_color8_t ret;
 344:Drivers/lvgl/src/draw/../misc/lv_color.h ****     LV_COLOR_SET_R8(ret, LV_COLOR_GET_R(color) >> 5); /*8 - 3  = 5*/
 345:Drivers/lvgl/src/draw/../misc/lv_color.h ****     LV_COLOR_SET_G8(ret, LV_COLOR_GET_G(color) >> 5); /*8 - 3  = 5*/
 346:Drivers/lvgl/src/draw/../misc/lv_color.h ****     LV_COLOR_SET_B8(ret, LV_COLOR_GET_B(color) >> 6); /*8 - 2  = 6*/
 347:Drivers/lvgl/src/draw/../misc/lv_color.h ****     return ret.full;
 348:Drivers/lvgl/src/draw/../misc/lv_color.h **** #endif
 349:Drivers/lvgl/src/draw/../misc/lv_color.h **** }
 350:Drivers/lvgl/src/draw/../misc/lv_color.h **** 
 351:Drivers/lvgl/src/draw/../misc/lv_color.h **** static inline uint16_t lv_color_to16(lv_color_t color)
 352:Drivers/lvgl/src/draw/../misc/lv_color.h **** {
 353:Drivers/lvgl/src/draw/../misc/lv_color.h **** #if LV_COLOR_DEPTH == 1
 354:Drivers/lvgl/src/draw/../misc/lv_color.h ****     if(color.full == 0)
 355:Drivers/lvgl/src/draw/../misc/lv_color.h ****         return 0;
 356:Drivers/lvgl/src/draw/../misc/lv_color.h ****     else
 357:Drivers/lvgl/src/draw/../misc/lv_color.h ****         return 0xFFFF;
 358:Drivers/lvgl/src/draw/../misc/lv_color.h **** #elif LV_COLOR_DEPTH == 8
 359:Drivers/lvgl/src/draw/../misc/lv_color.h ****     lv_color16_t ret;
 360:Drivers/lvgl/src/draw/../misc/lv_color.h ****     LV_COLOR_SET_R16(ret, LV_COLOR_GET_R(color) * 4);  /*(2^5 - 1)/(2^3 - 1) = 31/7 = 4*/
 361:Drivers/lvgl/src/draw/../misc/lv_color.h ****     LV_COLOR_SET_G16(ret, LV_COLOR_GET_G(color) * 9);  /*(2^6 - 1)/(2^3 - 1) = 63/7 = 9*/
 362:Drivers/lvgl/src/draw/../misc/lv_color.h ****     LV_COLOR_SET_B16(ret, LV_COLOR_GET_B(color) * 10); /*(2^5 - 1)/(2^2 - 1) = 31/3 = 10*/
 363:Drivers/lvgl/src/draw/../misc/lv_color.h ****     return ret.full;
 364:Drivers/lvgl/src/draw/../misc/lv_color.h **** #elif LV_COLOR_DEPTH == 16
 365:Drivers/lvgl/src/draw/../misc/lv_color.h ****     return color.full;
 366:Drivers/lvgl/src/draw/../misc/lv_color.h **** #elif LV_COLOR_DEPTH == 32
 367:Drivers/lvgl/src/draw/../misc/lv_color.h ****     lv_color16_t ret;
 368:Drivers/lvgl/src/draw/../misc/lv_color.h ****     LV_COLOR_SET_R16(ret, LV_COLOR_GET_R(color) >> 3); /*8 - 5  = 3*/
 369:Drivers/lvgl/src/draw/../misc/lv_color.h ****     LV_COLOR_SET_G16(ret, LV_COLOR_GET_G(color) >> 2); /*8 - 6  = 2*/
 370:Drivers/lvgl/src/draw/../misc/lv_color.h ****     LV_COLOR_SET_B16(ret, LV_COLOR_GET_B(color) >> 3); /*8 - 5  = 3*/
 371:Drivers/lvgl/src/draw/../misc/lv_color.h ****     return ret.full;
 372:Drivers/lvgl/src/draw/../misc/lv_color.h **** #endif
 373:Drivers/lvgl/src/draw/../misc/lv_color.h **** }
 374:Drivers/lvgl/src/draw/../misc/lv_color.h **** 
 375:Drivers/lvgl/src/draw/../misc/lv_color.h **** static inline uint32_t lv_color_to32(lv_color_t color)
 376:Drivers/lvgl/src/draw/../misc/lv_color.h **** {
 377:Drivers/lvgl/src/draw/../misc/lv_color.h **** #if LV_COLOR_DEPTH == 1
ARM GAS  /var/folders/0z/tsy30v1j4xl4_7kw94k978ww0000gn/T//ccd7xBqr.s 			page 44


 378:Drivers/lvgl/src/draw/../misc/lv_color.h ****     if(color.full == 0)
 379:Drivers/lvgl/src/draw/../misc/lv_color.h ****         return 0xFF000000;
 380:Drivers/lvgl/src/draw/../misc/lv_color.h ****     else
 381:Drivers/lvgl/src/draw/../misc/lv_color.h ****         return 0xFFFFFFFF;
 382:Drivers/lvgl/src/draw/../misc/lv_color.h **** #elif LV_COLOR_DEPTH == 8
 383:Drivers/lvgl/src/draw/../misc/lv_color.h ****     lv_color32_t ret;
 384:Drivers/lvgl/src/draw/../misc/lv_color.h ****     LV_COLOR_SET_R32(ret, LV_COLOR_GET_R(color) * 36); /*(2^8 - 1)/(2^3 - 1) = 255/7 = 36*/
 385:Drivers/lvgl/src/draw/../misc/lv_color.h ****     LV_COLOR_SET_G32(ret, LV_COLOR_GET_G(color) * 36); /*(2^8 - 1)/(2^3 - 1) = 255/7 = 36*/
 386:Drivers/lvgl/src/draw/../misc/lv_color.h ****     LV_COLOR_SET_B32(ret, LV_COLOR_GET_B(color) * 85); /*(2^8 - 1)/(2^2 - 1) = 255/3 = 85*/
 387:Drivers/lvgl/src/draw/../misc/lv_color.h ****     LV_COLOR_SET_A32(ret, 0xFF);
 388:Drivers/lvgl/src/draw/../misc/lv_color.h ****     return ret.full;
 389:Drivers/lvgl/src/draw/../misc/lv_color.h **** #elif LV_COLOR_DEPTH == 16
 390:Drivers/lvgl/src/draw/../misc/lv_color.h ****     /**
 391:Drivers/lvgl/src/draw/../misc/lv_color.h ****      * The floating point math for conversion is:
 392:Drivers/lvgl/src/draw/../misc/lv_color.h ****      *  valueto = valuefrom * ( (2^bitsto - 1) / (float)(2^bitsfrom - 1) )
 393:Drivers/lvgl/src/draw/../misc/lv_color.h ****      * The faster integer math for conversion is:
 394:Drivers/lvgl/src/draw/../misc/lv_color.h ****      *  valueto = ( valuefrom * multiplier + adder ) >> divisor
 395:Drivers/lvgl/src/draw/../misc/lv_color.h ****      *   multiplier = FLOOR( ( (2^bitsto - 1) << divisor ) / (float)(2^bitsfrom - 1) )
 396:Drivers/lvgl/src/draw/../misc/lv_color.h ****      *
 397:Drivers/lvgl/src/draw/../misc/lv_color.h ****      * Find the first divisor where ( adder >> divisor ) <= 0
 398:Drivers/lvgl/src/draw/../misc/lv_color.h ****      *
 399:Drivers/lvgl/src/draw/../misc/lv_color.h ****      * 5-bit to 8-bit: ( 31 * multiplier + adder ) >> divisor = 255
 400:Drivers/lvgl/src/draw/../misc/lv_color.h ****      * divisor  multiplier  adder  min (0)  max (31)
 401:Drivers/lvgl/src/draw/../misc/lv_color.h ****      *       0           8      7        7       255
 402:Drivers/lvgl/src/draw/../misc/lv_color.h ****      *       1          16     14        7       255
 403:Drivers/lvgl/src/draw/../misc/lv_color.h ****      *       2          32     28        7       255
 404:Drivers/lvgl/src/draw/../misc/lv_color.h ****      *       3          65     25        3       255
 405:Drivers/lvgl/src/draw/../misc/lv_color.h ****      *       4         131     19        1       255
 406:Drivers/lvgl/src/draw/../misc/lv_color.h ****      *       5         263      7        0       255
 407:Drivers/lvgl/src/draw/../misc/lv_color.h ****      *
 408:Drivers/lvgl/src/draw/../misc/lv_color.h ****      * 6-bit to 8-bit: 255 = ( 63 * multiplier + adder ) >> divisor
 409:Drivers/lvgl/src/draw/../misc/lv_color.h ****      * divisor  multiplier  adder  min (0)  max (63)
 410:Drivers/lvgl/src/draw/../misc/lv_color.h ****      *       0           4      3        3       255
 411:Drivers/lvgl/src/draw/../misc/lv_color.h ****      *       1           8      6        3       255
 412:Drivers/lvgl/src/draw/../misc/lv_color.h ****      *       2          16     12        3       255
 413:Drivers/lvgl/src/draw/../misc/lv_color.h ****      *       3          32     24        3       255
 414:Drivers/lvgl/src/draw/../misc/lv_color.h ****      *       4          64     48        3       255
 415:Drivers/lvgl/src/draw/../misc/lv_color.h ****      *       5         129     33        1       255
 416:Drivers/lvgl/src/draw/../misc/lv_color.h ****      *       6         259      3        0       255
 417:Drivers/lvgl/src/draw/../misc/lv_color.h ****      */
 418:Drivers/lvgl/src/draw/../misc/lv_color.h **** 
 419:Drivers/lvgl/src/draw/../misc/lv_color.h ****     lv_color32_t ret;
 420:Drivers/lvgl/src/draw/../misc/lv_color.h ****     LV_COLOR_SET_R32(ret, (LV_COLOR_GET_R(color) * 263 + 7) >> 5);
 1258              		.loc 3 420 5 view .LVU453
 1259 0022 C2F3C400 		ubfx	r0, r2, #3, #5
 1260              	.LVL105:
 1261              		.loc 3 420 5 view .LVU454
 1262 0026 C2F34232 		ubfx	r2, r2, #13, #3
 1263              	.LVL106:
 1264              		.loc 3 420 5 view .LVU455
 1265              	.LBE63:
 1266              	.LBI62:
 375:Drivers/lvgl/src/draw/../misc/lv_color.h **** {
 1267              		.loc 3 375 24 is_stmt 1 view .LVU456
 1268              	.LBB64:
 419:Drivers/lvgl/src/draw/../misc/lv_color.h ****     LV_COLOR_SET_R32(ret, (LV_COLOR_GET_R(color) * 263 + 7) >> 5);
 1269              		.loc 3 419 5 view .LVU457
ARM GAS  /var/folders/0z/tsy30v1j4xl4_7kw94k978ww0000gn/T//ccd7xBqr.s 			page 45


 1270              		.loc 3 420 5 view .LVU458
 421:Drivers/lvgl/src/draw/../misc/lv_color.h ****     LV_COLOR_SET_G32(ret, (LV_COLOR_GET_G(color) * 259 + 3) >> 6);
 1271              		.loc 3 421 5 is_stmt 0 view .LVU459
 1272 002a 02EBCC02 		add	r2, r2, ip, lsl #3
 420:Drivers/lvgl/src/draw/../misc/lv_color.h ****     LV_COLOR_SET_G32(ret, (LV_COLOR_GET_G(color) * 259 + 3) >> 6);
 1273              		.loc 3 420 5 view .LVU460
 1274 002e 00EB401C 		add	ip, r0, r0, lsl #5
 1275 0032 C0EBCC00 		rsb	r0, r0, ip, lsl #3
 1276              		.loc 3 421 5 view .LVU461
 1277 0036 02EBC21C 		add	ip, r2, r2, lsl #7
 1278 003a 02EB4C02 		add	r2, r2, ip, lsl #1
 420:Drivers/lvgl/src/draw/../misc/lv_color.h ****     LV_COLOR_SET_G32(ret, (LV_COLOR_GET_G(color) * 259 + 3) >> 6);
 1279              		.loc 3 420 5 view .LVU462
 1280 003e 0730     		adds	r0, r0, #7
 422:Drivers/lvgl/src/draw/../misc/lv_color.h ****     LV_COLOR_SET_B32(ret, (LV_COLOR_GET_B(color) * 263 + 7) >> 5);
 1281              		.loc 3 422 5 view .LVU463
 1282 0040 03EB431C 		add	ip, r3, r3, lsl #5
 1283 0044 C3EBCC03 		rsb	r3, r3, ip, lsl #3
 420:Drivers/lvgl/src/draw/../misc/lv_color.h ****     LV_COLOR_SET_G32(ret, (LV_COLOR_GET_G(color) * 259 + 3) >> 6);
 1284              		.loc 3 420 5 view .LVU464
 1285 0048 4011     		asrs	r0, r0, #5
 421:Drivers/lvgl/src/draw/../misc/lv_color.h ****     LV_COLOR_SET_G32(ret, (LV_COLOR_GET_G(color) * 259 + 3) >> 6);
 1286              		.loc 3 421 5 view .LVU465
 1287 004a 0332     		adds	r2, r2, #3
 420:Drivers/lvgl/src/draw/../misc/lv_color.h ****     LV_COLOR_SET_G32(ret, (LV_COLOR_GET_G(color) * 259 + 3) >> 6);
 1288              		.loc 3 420 5 view .LVU466
 1289 004c 4FF0000C 		mov	ip, #0
 1290              	.LVL107:
 421:Drivers/lvgl/src/draw/../misc/lv_color.h ****     LV_COLOR_SET_G32(ret, (LV_COLOR_GET_G(color) * 259 + 3) >> 6);
 1291              		.loc 3 421 5 view .LVU467
 1292 0050 9211     		asrs	r2, r2, #6
 1293              		.loc 3 422 5 view .LVU468
 1294 0052 0733     		adds	r3, r3, #7
 420:Drivers/lvgl/src/draw/../misc/lv_color.h ****     LV_COLOR_SET_G32(ret, (LV_COLOR_GET_G(color) * 259 + 3) >> 6);
 1295              		.loc 3 420 5 view .LVU469
 1296 0054 60F3174C 		bfi	ip, r0, #16, #8
 1297              	.LVL108:
 421:Drivers/lvgl/src/draw/../misc/lv_color.h ****     LV_COLOR_SET_G32(ret, (LV_COLOR_GET_G(color) * 259 + 3) >> 6);
 1298              		.loc 3 421 5 is_stmt 1 view .LVU470
 1299              		.loc 3 422 5 is_stmt 0 view .LVU471
 1300 0058 5B11     		asrs	r3, r3, #5
 421:Drivers/lvgl/src/draw/../misc/lv_color.h ****     LV_COLOR_SET_G32(ret, (LV_COLOR_GET_G(color) * 259 + 3) >> 6);
 1301              		.loc 3 421 5 view .LVU472
 1302 005a 62F30F2C 		bfi	ip, r2, #8, #8
 1303              		.loc 3 422 5 is_stmt 1 view .LVU473
 1304 005e 63F3070C 		bfi	ip, r3, #0, #8
 423:Drivers/lvgl/src/draw/../misc/lv_color.h ****     LV_COLOR_SET_A32(ret, 0xFF);
 1305              		.loc 3 423 5 view .LVU474
 1306 0062 4CF07F4C 		orr	ip, ip, #-16777216
 1307              	.LVL109:
 424:Drivers/lvgl/src/draw/../misc/lv_color.h ****     return ret.full;
 1308              		.loc 3 424 5 view .LVU475
 1309              		.loc 3 424 5 is_stmt 0 view .LVU476
 1310              	.LBE64:
 1311              	.LBE62:
 275:Drivers/lvgl/src/draw/lv_img_buf.c ****     uint8_t * buf = (uint8_t *)dsc->data;
 1312              		.loc 1 275 5 is_stmt 1 view .LVU477
ARM GAS  /var/folders/0z/tsy30v1j4xl4_7kw94k978ww0000gn/T//ccd7xBqr.s 			page 46


 276:Drivers/lvgl/src/draw/lv_img_buf.c ****     lv_memcpy_small(&buf[id * sizeof(c32)], &c32, sizeof(c32));
 1313              		.loc 1 276 5 view .LVU478
 1314              	.LBB65:
 1315              	.LBI59:
 194:Drivers/lvgl/src/draw/../misc/lv_mem.h **** {
 1316              		.loc 2 194 44 view .LVU479
 1317              	.LBB61:
 199:Drivers/lvgl/src/draw/../misc/lv_mem.h ****         *d8 = *s8;
 1318              		.loc 2 199 11 view .LVU480
 200:Drivers/lvgl/src/draw/../misc/lv_mem.h ****         d8++;
 1319              		.loc 2 200 13 is_stmt 0 view .LVU481
 1320 0066 44F821C0 		str	ip, [r4, r1, lsl #2]	@ unaligned
 1321              	.LVL110:
 200:Drivers/lvgl/src/draw/../misc/lv_mem.h ****         d8++;
 1322              		.loc 2 200 13 view .LVU482
 1323              	.LBE61:
 1324              	.LBE65:
 277:Drivers/lvgl/src/draw/lv_img_buf.c **** }
 1325              		.loc 1 277 1 view .LVU483
 1326 006a 5DF8044B 		ldr	r4, [sp], #4
 1327              		.cfi_restore 4
 1328              		.cfi_def_cfa_offset 0
 1329 006e 7047     		bx	lr
 1330              	.LVL111:
 1331              	.L72:
 267:Drivers/lvgl/src/draw/lv_img_buf.c ****        (dsc->header.cf == LV_IMG_CF_ALPHA_4BIT && id > 15) || (dsc->header.cf == LV_IMG_CF_ALPHA_8B
 1332              		.loc 1 267 102 discriminator 4 view .LVU484
 1333 0070 0329     		cmp	r1, #3
 1334 0072 D0D9     		bls	.L65
 1335 0074 7047     		bx	lr
 1336              	.L71:
 267:Drivers/lvgl/src/draw/lv_img_buf.c ****        (dsc->header.cf == LV_IMG_CF_ALPHA_4BIT && id > 15) || (dsc->header.cf == LV_IMG_CF_ALPHA_8B
 1337              		.loc 1 267 48 discriminator 1 view .LVU485
 1338 0076 0129     		cmp	r1, #1
 1339 0078 CDD9     		bls	.L65
 1340 007a 7047     		bx	lr
 1341              	.L73:
 1342 007c 7047     		bx	lr
 1343              	.L67:
 268:Drivers/lvgl/src/draw/lv_img_buf.c ****         LV_LOG_WARN("lv_img_buf_set_px_alpha: invalid 'id'");
 1344              		.loc 1 268 60 discriminator 1 view .LVU486
 1345 007e 0E2B     		cmp	r3, #14
 1346 0080 C9D1     		bne	.L65
 1347 0082 7047     		bx	lr
 1348              		.cfi_endproc
 1349              	.LFE58:
 1351              		.section	.text.lv_img_buf_alloc,"ax",%progbits
 1352              		.align	1
 1353              		.p2align 2,,3
 1354              		.global	lv_img_buf_alloc
 1355              		.syntax unified
 1356              		.thumb
 1357              		.thumb_func
 1359              	lv_img_buf_alloc:
 1360              	.LVL112:
 1361              	.LFB59:
 278:Drivers/lvgl/src/draw/lv_img_buf.c **** 
ARM GAS  /var/folders/0z/tsy30v1j4xl4_7kw94k978ww0000gn/T//ccd7xBqr.s 			page 47


 279:Drivers/lvgl/src/draw/lv_img_buf.c **** lv_img_dsc_t * lv_img_buf_alloc(lv_coord_t w, lv_coord_t h, lv_img_cf_t cf)
 280:Drivers/lvgl/src/draw/lv_img_buf.c **** {
 1362              		.loc 1 280 1 is_stmt 1 view -0
 1363              		.cfi_startproc
 1364              		@ args = 0, pretend = 0, frame = 8
 1365              		@ frame_needed = 0, uses_anonymous_args = 0
 281:Drivers/lvgl/src/draw/lv_img_buf.c ****     /*Allocate image descriptor*/
 282:Drivers/lvgl/src/draw/lv_img_buf.c ****     lv_img_dsc_t * dsc = lv_mem_alloc(sizeof(lv_img_dsc_t));
 1366              		.loc 1 282 5 view .LVU488
 280:Drivers/lvgl/src/draw/lv_img_buf.c ****     /*Allocate image descriptor*/
 1367              		.loc 1 280 1 is_stmt 0 view .LVU489
 1368 0000 F0B5     		push	{r4, r5, r6, r7, lr}
 1369              		.cfi_def_cfa_offset 20
 1370              		.cfi_offset 4, -20
 1371              		.cfi_offset 5, -16
 1372              		.cfi_offset 6, -12
 1373              		.cfi_offset 7, -8
 1374              		.cfi_offset 14, -4
 1375 0002 0746     		mov	r7, r0
 1376 0004 83B0     		sub	sp, sp, #12
 1377              		.cfi_def_cfa_offset 32
 1378              		.loc 1 282 26 view .LVU490
 1379 0006 0C20     		movs	r0, #12
 1380              	.LVL113:
 280:Drivers/lvgl/src/draw/lv_img_buf.c ****     /*Allocate image descriptor*/
 1381              		.loc 1 280 1 view .LVU491
 1382 0008 0E46     		mov	r6, r1
 1383 000a 1446     		mov	r4, r2
 1384              		.loc 1 282 26 view .LVU492
 1385 000c FFF7FEFF 		bl	lv_mem_alloc
 1386              	.LVL114:
 283:Drivers/lvgl/src/draw/lv_img_buf.c ****     if(dsc == NULL)
 1387              		.loc 1 283 5 is_stmt 1 view .LVU493
 1388              		.loc 1 283 7 is_stmt 0 view .LVU494
 1389 0010 0546     		mov	r5, r0
 1390 0012 50B3     		cbz	r0, .L74
 284:Drivers/lvgl/src/draw/lv_img_buf.c ****         return NULL;
 285:Drivers/lvgl/src/draw/lv_img_buf.c **** 
 286:Drivers/lvgl/src/draw/lv_img_buf.c ****     lv_memset_00(dsc, sizeof(lv_img_dsc_t));
 1391              		.loc 1 286 5 is_stmt 1 view .LVU495
 1392 0014 0C21     		movs	r1, #12
 1393 0016 FFF7FEFF 		bl	lv_memset_00
 1394              	.LVL115:
 287:Drivers/lvgl/src/draw/lv_img_buf.c **** 
 288:Drivers/lvgl/src/draw/lv_img_buf.c ****     /*Get image data size*/
 289:Drivers/lvgl/src/draw/lv_img_buf.c ****     dsc->data_size = lv_img_buf_get_img_size(w, h, cf);
 1395              		.loc 1 289 5 view .LVU496
 1396              	.LBB68:
 1397              	.LBI68:
 290:Drivers/lvgl/src/draw/lv_img_buf.c ****     if(dsc->data_size == 0) {
 291:Drivers/lvgl/src/draw/lv_img_buf.c ****         lv_mem_free(dsc);
 292:Drivers/lvgl/src/draw/lv_img_buf.c ****         return NULL;
 293:Drivers/lvgl/src/draw/lv_img_buf.c ****     }
 294:Drivers/lvgl/src/draw/lv_img_buf.c **** 
 295:Drivers/lvgl/src/draw/lv_img_buf.c ****     /*Allocate raw buffer*/
 296:Drivers/lvgl/src/draw/lv_img_buf.c ****     dsc->data = lv_mem_alloc(dsc->data_size);
 297:Drivers/lvgl/src/draw/lv_img_buf.c ****     if(dsc->data == NULL) {
ARM GAS  /var/folders/0z/tsy30v1j4xl4_7kw94k978ww0000gn/T//ccd7xBqr.s 			page 48


 298:Drivers/lvgl/src/draw/lv_img_buf.c ****         lv_mem_free(dsc);
 299:Drivers/lvgl/src/draw/lv_img_buf.c ****         return NULL;
 300:Drivers/lvgl/src/draw/lv_img_buf.c ****     }
 301:Drivers/lvgl/src/draw/lv_img_buf.c ****     lv_memset_00((uint8_t *)dsc->data, dsc->data_size);
 302:Drivers/lvgl/src/draw/lv_img_buf.c **** 
 303:Drivers/lvgl/src/draw/lv_img_buf.c ****     /*Fill in header*/
 304:Drivers/lvgl/src/draw/lv_img_buf.c ****     dsc->header.always_zero = 0;
 305:Drivers/lvgl/src/draw/lv_img_buf.c ****     dsc->header.w = w;
 306:Drivers/lvgl/src/draw/lv_img_buf.c ****     dsc->header.h = h;
 307:Drivers/lvgl/src/draw/lv_img_buf.c ****     dsc->header.cf = cf;
 308:Drivers/lvgl/src/draw/lv_img_buf.c ****     return dsc;
 309:Drivers/lvgl/src/draw/lv_img_buf.c **** }
 310:Drivers/lvgl/src/draw/lv_img_buf.c **** 
 311:Drivers/lvgl/src/draw/lv_img_buf.c **** void lv_img_buf_free(lv_img_dsc_t * dsc)
 312:Drivers/lvgl/src/draw/lv_img_buf.c **** {
 313:Drivers/lvgl/src/draw/lv_img_buf.c ****     if(dsc != NULL) {
 314:Drivers/lvgl/src/draw/lv_img_buf.c ****         if(dsc->data != NULL)
 315:Drivers/lvgl/src/draw/lv_img_buf.c ****             lv_mem_free((void *)dsc->data);
 316:Drivers/lvgl/src/draw/lv_img_buf.c **** 
 317:Drivers/lvgl/src/draw/lv_img_buf.c ****         lv_mem_free(dsc);
 318:Drivers/lvgl/src/draw/lv_img_buf.c ****     }
 319:Drivers/lvgl/src/draw/lv_img_buf.c **** }
 320:Drivers/lvgl/src/draw/lv_img_buf.c **** 
 321:Drivers/lvgl/src/draw/lv_img_buf.c **** uint32_t lv_img_buf_get_img_size(lv_coord_t w, lv_coord_t h, lv_img_cf_t cf)
 1398              		.loc 1 321 10 view .LVU497
 1399              	.LBB69:
 322:Drivers/lvgl/src/draw/lv_img_buf.c **** {
 323:Drivers/lvgl/src/draw/lv_img_buf.c ****     switch(cf) {
 1400              		.loc 1 323 5 view .LVU498
 1401 001a 231F     		subs	r3, r4, #4
 1402 001c 102B     		cmp	r3, #16
 1403 001e 27D8     		bhi	.L76
 1404 0020 DFE803F0 		tbb	[pc, r3]
 1405              	.L78:
 1406 0024 09       		.byte	(.L87-.L78)/2
 1407 0025 2F       		.byte	(.L77-.L78)/2
 1408 0026 09       		.byte	(.L87-.L78)/2
 1409 0027 5D       		.byte	(.L86-.L78)/2
 1410 0028 67       		.byte	(.L85-.L78)/2
 1411 0029 34       		.byte	(.L84-.L78)/2
 1412 002a 3C       		.byte	(.L83-.L78)/2
 1413 002b 4B       		.byte	(.L82-.L78)/2
 1414 002c 54       		.byte	(.L81-.L78)/2
 1415 002d 41       		.byte	(.L80-.L78)/2
 1416 002e 48       		.byte	(.L79-.L78)/2
 1417 002f 26       		.byte	(.L76-.L78)/2
 1418 0030 26       		.byte	(.L76-.L78)/2
 1419 0031 26       		.byte	(.L76-.L78)/2
 1420 0032 26       		.byte	(.L76-.L78)/2
 1421 0033 26       		.byte	(.L76-.L78)/2
 1422 0034 2F       		.byte	(.L77-.L78)/2
 1423 0035 00       		.p2align 1
 1424              	.L87:
 324:Drivers/lvgl/src/draw/lv_img_buf.c ****         case LV_IMG_CF_TRUE_COLOR:
 325:Drivers/lvgl/src/draw/lv_img_buf.c ****             return LV_IMG_BUF_SIZE_TRUE_COLOR(w, h);
 1425              		.loc 1 325 13 view .LVU499
 1426              		.loc 1 325 20 is_stmt 0 view .LVU500
ARM GAS  /var/folders/0z/tsy30v1j4xl4_7kw94k978ww0000gn/T//ccd7xBqr.s 			page 49


 1427 0036 07FB06F3 		mul	r3, r7, r6
 1428 003a 5800     		lsls	r0, r3, #1
 1429              	.L89:
 1430              	.LVL116:
 1431              		.loc 1 325 20 view .LVU501
 1432              	.LBE69:
 1433              	.LBE68:
 289:Drivers/lvgl/src/draw/lv_img_buf.c ****     if(dsc->data_size == 0) {
 1434              		.loc 1 289 20 view .LVU502
 1435 003c 6860     		str	r0, [r5, #4]
 290:Drivers/lvgl/src/draw/lv_img_buf.c ****         lv_mem_free(dsc);
 1436              		.loc 1 290 5 is_stmt 1 view .LVU503
 290:Drivers/lvgl/src/draw/lv_img_buf.c ****         lv_mem_free(dsc);
 1437              		.loc 1 290 7 is_stmt 0 view .LVU504
 1438 003e C8B1     		cbz	r0, .L88
 296:Drivers/lvgl/src/draw/lv_img_buf.c ****     if(dsc->data == NULL) {
 1439              		.loc 1 296 5 is_stmt 1 view .LVU505
 296:Drivers/lvgl/src/draw/lv_img_buf.c ****     if(dsc->data == NULL) {
 1440              		.loc 1 296 17 is_stmt 0 view .LVU506
 1441 0040 FFF7FEFF 		bl	lv_mem_alloc
 1442              	.LVL117:
 296:Drivers/lvgl/src/draw/lv_img_buf.c ****     if(dsc->data == NULL) {
 1443              		.loc 1 296 15 view .LVU507
 1444 0044 A860     		str	r0, [r5, #8]
 297:Drivers/lvgl/src/draw/lv_img_buf.c ****         lv_mem_free(dsc);
 1445              		.loc 1 297 5 is_stmt 1 view .LVU508
 297:Drivers/lvgl/src/draw/lv_img_buf.c ****         lv_mem_free(dsc);
 1446              		.loc 1 297 7 is_stmt 0 view .LVU509
 1447 0046 0028     		cmp	r0, #0
 1448 0048 5DD0     		beq	.L100
 301:Drivers/lvgl/src/draw/lv_img_buf.c **** 
 1449              		.loc 1 301 5 is_stmt 1 view .LVU510
 1450 004a 6968     		ldr	r1, [r5, #4]
 1451 004c FFF7FEFF 		bl	lv_memset_00
 1452              	.LVL118:
 304:Drivers/lvgl/src/draw/lv_img_buf.c ****     dsc->header.w = w;
 1453              		.loc 1 304 5 view .LVU511
 305:Drivers/lvgl/src/draw/lv_img_buf.c ****     dsc->header.h = h;
 1454              		.loc 1 305 5 view .LVU512
 306:Drivers/lvgl/src/draw/lv_img_buf.c ****     dsc->header.cf = cf;
 1455              		.loc 1 306 5 view .LVU513
 307:Drivers/lvgl/src/draw/lv_img_buf.c ****     return dsc;
 1456              		.loc 1 307 5 view .LVU514
 307:Drivers/lvgl/src/draw/lv_img_buf.c ****     return dsc;
 1457              		.loc 1 307 20 is_stmt 0 view .LVU515
 1458 0050 C7F30A07 		ubfx	r7, r7, #0, #11
 1459 0054 2B68     		ldr	r3, [r5]
 1460 0056 04F01F04 		and	r4, r4, #31
 1461 005a 44EA8724 		orr	r4, r4, r7, lsl #10
 1462 005e 44EA4651 		orr	r1, r4, r6, lsl #21
 1463 0062 03F44073 		and	r3, r3, #768
 1464 0066 0B43     		orrs	r3, r3, r1
 1465 0068 2B60     		str	r3, [r5]
 308:Drivers/lvgl/src/draw/lv_img_buf.c **** }
 1466              		.loc 1 308 5 is_stmt 1 view .LVU516
 1467              	.LVL119:
 1468              	.L74:
ARM GAS  /var/folders/0z/tsy30v1j4xl4_7kw94k978ww0000gn/T//ccd7xBqr.s 			page 50


 309:Drivers/lvgl/src/draw/lv_img_buf.c **** 
 1469              		.loc 1 309 1 is_stmt 0 view .LVU517
 1470 006a 2846     		mov	r0, r5
 1471 006c 03B0     		add	sp, sp, #12
 1472              		.cfi_remember_state
 1473              		.cfi_def_cfa_offset 20
 1474              		@ sp needed
 1475 006e F0BD     		pop	{r4, r5, r6, r7, pc}
 1476              	.LVL120:
 1477              	.L76:
 1478              		.cfi_restore_state
 289:Drivers/lvgl/src/draw/lv_img_buf.c ****     if(dsc->data_size == 0) {
 1479              		.loc 1 289 20 view .LVU518
 1480 0070 0023     		movs	r3, #0
 1481 0072 6B60     		str	r3, [r5, #4]
 290:Drivers/lvgl/src/draw/lv_img_buf.c ****         lv_mem_free(dsc);
 1482              		.loc 1 290 5 is_stmt 1 view .LVU519
 1483              	.L88:
 291:Drivers/lvgl/src/draw/lv_img_buf.c ****         return NULL;
 1484              		.loc 1 291 9 view .LVU520
 1485 0074 2846     		mov	r0, r5
 1486 0076 FFF7FEFF 		bl	lv_mem_free
 1487              	.LVL121:
 292:Drivers/lvgl/src/draw/lv_img_buf.c ****     }
 1488              		.loc 1 292 9 view .LVU521
 292:Drivers/lvgl/src/draw/lv_img_buf.c ****     }
 1489              		.loc 1 292 16 is_stmt 0 view .LVU522
 1490 007a 0025     		movs	r5, #0
 1491              	.LVL122:
 309:Drivers/lvgl/src/draw/lv_img_buf.c **** 
 1492              		.loc 1 309 1 view .LVU523
 1493 007c 2846     		mov	r0, r5
 1494 007e 03B0     		add	sp, sp, #12
 1495              		.cfi_remember_state
 1496              		.cfi_def_cfa_offset 20
 1497              		@ sp needed
 1498 0080 F0BD     		pop	{r4, r5, r6, r7, pc}
 1499              	.LVL123:
 1500              	.L77:
 1501              		.cfi_restore_state
 1502              	.LBB71:
 1503              	.LBB70:
 326:Drivers/lvgl/src/draw/lv_img_buf.c ****         case LV_IMG_CF_TRUE_COLOR_ALPHA:
 327:Drivers/lvgl/src/draw/lv_img_buf.c ****         case LV_IMG_CF_RGB565A8:
 328:Drivers/lvgl/src/draw/lv_img_buf.c ****             return LV_IMG_BUF_SIZE_TRUE_COLOR_ALPHA(w, h);
 1504              		.loc 1 328 13 is_stmt 1 view .LVU524
 1505              		.loc 1 328 20 is_stmt 0 view .LVU525
 1506 0082 07FB06F3 		mul	r3, r7, r6
 1507 0086 03EB4300 		add	r0, r3, r3, lsl #1
 1508 008a D7E7     		b	.L89
 1509              	.L84:
 329:Drivers/lvgl/src/draw/lv_img_buf.c ****         case LV_IMG_CF_TRUE_COLOR_CHROMA_KEYED:
 330:Drivers/lvgl/src/draw/lv_img_buf.c ****             return LV_IMG_BUF_SIZE_TRUE_COLOR_CHROMA_KEYED(w, h);
 331:Drivers/lvgl/src/draw/lv_img_buf.c ****         case LV_IMG_CF_ALPHA_1BIT:
 332:Drivers/lvgl/src/draw/lv_img_buf.c ****             return LV_IMG_BUF_SIZE_ALPHA_1BIT(w, h);
 333:Drivers/lvgl/src/draw/lv_img_buf.c ****         case LV_IMG_CF_ALPHA_2BIT:
 334:Drivers/lvgl/src/draw/lv_img_buf.c ****             return LV_IMG_BUF_SIZE_ALPHA_2BIT(w, h);
ARM GAS  /var/folders/0z/tsy30v1j4xl4_7kw94k978ww0000gn/T//ccd7xBqr.s 			page 51


 335:Drivers/lvgl/src/draw/lv_img_buf.c ****         case LV_IMG_CF_ALPHA_4BIT:
 336:Drivers/lvgl/src/draw/lv_img_buf.c ****             return LV_IMG_BUF_SIZE_ALPHA_4BIT(w, h);
 337:Drivers/lvgl/src/draw/lv_img_buf.c ****         case LV_IMG_CF_ALPHA_8BIT:
 338:Drivers/lvgl/src/draw/lv_img_buf.c ****             return LV_IMG_BUF_SIZE_ALPHA_8BIT(w, h);
 339:Drivers/lvgl/src/draw/lv_img_buf.c ****         case LV_IMG_CF_INDEXED_1BIT:
 340:Drivers/lvgl/src/draw/lv_img_buf.c ****             return LV_IMG_BUF_SIZE_INDEXED_1BIT(w, h);
 341:Drivers/lvgl/src/draw/lv_img_buf.c ****         case LV_IMG_CF_INDEXED_2BIT:
 342:Drivers/lvgl/src/draw/lv_img_buf.c ****             return LV_IMG_BUF_SIZE_INDEXED_2BIT(w, h);
 343:Drivers/lvgl/src/draw/lv_img_buf.c ****         case LV_IMG_CF_INDEXED_4BIT:
 344:Drivers/lvgl/src/draw/lv_img_buf.c ****             return LV_IMG_BUF_SIZE_INDEXED_4BIT(w, h);
 1510              		.loc 1 344 13 is_stmt 1 view .LVU526
 1511              		.loc 1 344 20 is_stmt 0 view .LVU527
 1512 008c 07EBD773 		add	r3, r7, r7, lsr #31
 1513 0090 5B10     		asrs	r3, r3, #1
 1514 0092 0133     		adds	r3, r3, #1
 1515 0094 4022     		movs	r2, #64
 1516 0096 13FB0620 		smlabb	r0, r3, r6, r2
 1517 009a CFE7     		b	.L89
 1518              	.L83:
 345:Drivers/lvgl/src/draw/lv_img_buf.c ****         case LV_IMG_CF_INDEXED_8BIT:
 346:Drivers/lvgl/src/draw/lv_img_buf.c ****             return LV_IMG_BUF_SIZE_INDEXED_8BIT(w, h);
 1519              		.loc 1 346 13 is_stmt 1 view .LVU528
 1520              		.loc 1 346 20 is_stmt 0 view .LVU529
 1521 009c 4FF48063 		mov	r3, #1024
 1522 00a0 07FB0630 		mla	r0, r7, r6, r3
 1523 00a4 CAE7     		b	.L89
 1524              	.L80:
 336:Drivers/lvgl/src/draw/lv_img_buf.c ****         case LV_IMG_CF_ALPHA_8BIT:
 1525              		.loc 1 336 13 is_stmt 1 view .LVU530
 336:Drivers/lvgl/src/draw/lv_img_buf.c ****         case LV_IMG_CF_ALPHA_8BIT:
 1526              		.loc 1 336 20 is_stmt 0 view .LVU531
 1527 00a6 07EBD773 		add	r3, r7, r7, lsr #31
 1528 00aa 5B10     		asrs	r3, r3, #1
 1529 00ac 0133     		adds	r3, r3, #1
 1530 00ae 13FB06F0 		smulbb	r0, r3, r6
 1531 00b2 C3E7     		b	.L89
 1532              	.L79:
 338:Drivers/lvgl/src/draw/lv_img_buf.c ****         case LV_IMG_CF_INDEXED_1BIT:
 1533              		.loc 1 338 13 is_stmt 1 view .LVU532
 338:Drivers/lvgl/src/draw/lv_img_buf.c ****         case LV_IMG_CF_INDEXED_1BIT:
 1534              		.loc 1 338 20 is_stmt 0 view .LVU533
 1535 00b4 07FB06F0 		mul	r0, r7, r6
 1536 00b8 C0E7     		b	.L89
 1537              	.L82:
 332:Drivers/lvgl/src/draw/lv_img_buf.c ****         case LV_IMG_CF_ALPHA_2BIT:
 1538              		.loc 1 332 13 is_stmt 1 view .LVU534
 332:Drivers/lvgl/src/draw/lv_img_buf.c ****         case LV_IMG_CF_ALPHA_2BIT:
 1539              		.loc 1 332 20 is_stmt 0 view .LVU535
 1540 00ba 002F     		cmp	r7, #0
 1541 00bc 3B46     		mov	r3, r7
 1542 00be B8BF     		it	lt
 1543 00c0 FB1D     		addlt	r3, r7, #7
 1544 00c2 DB10     		asrs	r3, r3, #3
 1545 00c4 0133     		adds	r3, r3, #1
 1546 00c6 13FB06F0 		smulbb	r0, r3, r6
 1547 00ca B7E7     		b	.L89
 1548              	.L81:
ARM GAS  /var/folders/0z/tsy30v1j4xl4_7kw94k978ww0000gn/T//ccd7xBqr.s 			page 52


 334:Drivers/lvgl/src/draw/lv_img_buf.c ****         case LV_IMG_CF_ALPHA_4BIT:
 1549              		.loc 1 334 13 is_stmt 1 view .LVU536
 334:Drivers/lvgl/src/draw/lv_img_buf.c ****         case LV_IMG_CF_ALPHA_4BIT:
 1550              		.loc 1 334 20 is_stmt 0 view .LVU537
 1551 00cc 002F     		cmp	r7, #0
 1552 00ce 3B46     		mov	r3, r7
 1553 00d0 B8BF     		it	lt
 1554 00d2 FB1C     		addlt	r3, r7, #3
 1555 00d4 9B10     		asrs	r3, r3, #2
 1556 00d6 0133     		adds	r3, r3, #1
 1557 00d8 13FB06F0 		smulbb	r0, r3, r6
 1558 00dc AEE7     		b	.L89
 1559              	.L86:
 340:Drivers/lvgl/src/draw/lv_img_buf.c ****         case LV_IMG_CF_INDEXED_2BIT:
 1560              		.loc 1 340 13 is_stmt 1 view .LVU538
 340:Drivers/lvgl/src/draw/lv_img_buf.c ****         case LV_IMG_CF_INDEXED_2BIT:
 1561              		.loc 1 340 20 is_stmt 0 view .LVU539
 1562 00de 002F     		cmp	r7, #0
 1563 00e0 3B46     		mov	r3, r7
 1564 00e2 B8BF     		it	lt
 1565 00e4 FB1D     		addlt	r3, r7, #7
 1566 00e6 DB10     		asrs	r3, r3, #3
 1567 00e8 03FB0663 		mla	r3, r3, r6, r6
 1568 00ec 03F10800 		add	r0, r3, #8
 1569 00f0 A4E7     		b	.L89
 1570              	.L85:
 342:Drivers/lvgl/src/draw/lv_img_buf.c ****         case LV_IMG_CF_INDEXED_4BIT:
 1571              		.loc 1 342 13 is_stmt 1 view .LVU540
 342:Drivers/lvgl/src/draw/lv_img_buf.c ****         case LV_IMG_CF_INDEXED_4BIT:
 1572              		.loc 1 342 20 is_stmt 0 view .LVU541
 1573 00f2 002F     		cmp	r7, #0
 1574 00f4 3B46     		mov	r3, r7
 1575 00f6 B8BF     		it	lt
 1576 00f8 FB1C     		addlt	r3, r7, #3
 1577 00fa 9B10     		asrs	r3, r3, #2
 1578 00fc 03FB0663 		mla	r3, r3, r6, r6
 1579 0100 03F11000 		add	r0, r3, #16
 1580 0104 9AE7     		b	.L89
 1581              	.LVL124:
 1582              	.L100:
 342:Drivers/lvgl/src/draw/lv_img_buf.c ****         case LV_IMG_CF_INDEXED_4BIT:
 1583              		.loc 1 342 20 view .LVU542
 1584 0106 0190     		str	r0, [sp, #4]
 1585              	.LBE70:
 1586              	.LBE71:
 298:Drivers/lvgl/src/draw/lv_img_buf.c ****         return NULL;
 1587              		.loc 1 298 9 is_stmt 1 view .LVU543
 1588 0108 2846     		mov	r0, r5
 1589 010a FFF7FEFF 		bl	lv_mem_free
 1590              	.LVL125:
 299:Drivers/lvgl/src/draw/lv_img_buf.c ****     }
 1591              		.loc 1 299 9 view .LVU544
 299:Drivers/lvgl/src/draw/lv_img_buf.c ****     }
 1592              		.loc 1 299 16 is_stmt 0 view .LVU545
 1593 010e 019B     		ldr	r3, [sp, #4]
 1594 0110 1D46     		mov	r5, r3
 1595              	.LVL126:
ARM GAS  /var/folders/0z/tsy30v1j4xl4_7kw94k978ww0000gn/T//ccd7xBqr.s 			page 53


 299:Drivers/lvgl/src/draw/lv_img_buf.c ****     }
 1596              		.loc 1 299 16 view .LVU546
 1597 0112 AAE7     		b	.L74
 1598              		.cfi_endproc
 1599              	.LFE59:
 1601              		.section	.text.lv_img_buf_free,"ax",%progbits
 1602              		.align	1
 1603              		.p2align 2,,3
 1604              		.global	lv_img_buf_free
 1605              		.syntax unified
 1606              		.thumb
 1607              		.thumb_func
 1609              	lv_img_buf_free:
 1610              	.LVL127:
 1611              	.LFB60:
 312:Drivers/lvgl/src/draw/lv_img_buf.c ****     if(dsc != NULL) {
 1612              		.loc 1 312 1 is_stmt 1 view -0
 1613              		.cfi_startproc
 1614              		@ args = 0, pretend = 0, frame = 0
 1615              		@ frame_needed = 0, uses_anonymous_args = 0
 313:Drivers/lvgl/src/draw/lv_img_buf.c ****         if(dsc->data != NULL)
 1616              		.loc 1 313 5 view .LVU548
 313:Drivers/lvgl/src/draw/lv_img_buf.c ****         if(dsc->data != NULL)
 1617              		.loc 1 313 7 is_stmt 0 view .LVU549
 1618 0000 50B1     		cbz	r0, .L101
 314:Drivers/lvgl/src/draw/lv_img_buf.c ****             lv_mem_free((void *)dsc->data);
 1619              		.loc 1 314 9 is_stmt 1 view .LVU550
 312:Drivers/lvgl/src/draw/lv_img_buf.c ****     if(dsc != NULL) {
 1620              		.loc 1 312 1 is_stmt 0 view .LVU551
 1621 0002 10B5     		push	{r4, lr}
 1622              		.cfi_def_cfa_offset 8
 1623              		.cfi_offset 4, -8
 1624              		.cfi_offset 14, -4
 1625 0004 0446     		mov	r4, r0
 314:Drivers/lvgl/src/draw/lv_img_buf.c ****             lv_mem_free((void *)dsc->data);
 1626              		.loc 1 314 15 view .LVU552
 1627 0006 8068     		ldr	r0, [r0, #8]
 1628              	.LVL128:
 314:Drivers/lvgl/src/draw/lv_img_buf.c ****             lv_mem_free((void *)dsc->data);
 1629              		.loc 1 314 11 view .LVU553
 1630 0008 08B1     		cbz	r0, .L103
 315:Drivers/lvgl/src/draw/lv_img_buf.c **** 
 1631              		.loc 1 315 13 is_stmt 1 view .LVU554
 1632 000a FFF7FEFF 		bl	lv_mem_free
 1633              	.LVL129:
 1634              	.L103:
 317:Drivers/lvgl/src/draw/lv_img_buf.c ****     }
 1635              		.loc 1 317 9 view .LVU555
 1636 000e 2046     		mov	r0, r4
 319:Drivers/lvgl/src/draw/lv_img_buf.c **** 
 1637              		.loc 1 319 1 is_stmt 0 view .LVU556
 1638 0010 BDE81040 		pop	{r4, lr}
 1639              		.cfi_restore 14
 1640              		.cfi_restore 4
 1641              		.cfi_def_cfa_offset 0
 1642              	.LVL130:
 317:Drivers/lvgl/src/draw/lv_img_buf.c ****     }
ARM GAS  /var/folders/0z/tsy30v1j4xl4_7kw94k978ww0000gn/T//ccd7xBqr.s 			page 54


 1643              		.loc 1 317 9 view .LVU557
 1644 0014 FFF7FEBF 		b	lv_mem_free
 1645              	.LVL131:
 1646              	.L101:
 317:Drivers/lvgl/src/draw/lv_img_buf.c ****     }
 1647              		.loc 1 317 9 view .LVU558
 1648 0018 7047     		bx	lr
 1649              		.cfi_endproc
 1650              	.LFE60:
 1652 001a 00BF     		.section	.text.lv_img_buf_get_img_size,"ax",%progbits
 1653              		.align	1
 1654              		.p2align 2,,3
 1655              		.global	lv_img_buf_get_img_size
 1656              		.syntax unified
 1657              		.thumb
 1658              		.thumb_func
 1660              	lv_img_buf_get_img_size:
 1661              	.LVL132:
 1662              	.LFB61:
 322:Drivers/lvgl/src/draw/lv_img_buf.c ****     switch(cf) {
 1663              		.loc 1 322 1 is_stmt 1 view -0
 1664              		.cfi_startproc
 1665              		@ args = 0, pretend = 0, frame = 0
 1666              		@ frame_needed = 0, uses_anonymous_args = 0
 1667              		@ link register save eliminated.
 323:Drivers/lvgl/src/draw/lv_img_buf.c ****         case LV_IMG_CF_TRUE_COLOR:
 1668              		.loc 1 323 5 view .LVU560
 1669 0000 043A     		subs	r2, r2, #4
 1670              	.LVL133:
 323:Drivers/lvgl/src/draw/lv_img_buf.c ****         case LV_IMG_CF_TRUE_COLOR:
 1671              		.loc 1 323 5 is_stmt 0 view .LVU561
 1672 0002 102A     		cmp	r2, #16
 1673 0004 0AD8     		bhi	.L127
 1674 0006 DFE802F0 		tbb	[pc, r2]
 1675              	.L113:
 1676 000a 0B       		.byte	(.L122-.L113)/2
 1677 000b 0F       		.byte	(.L112-.L113)/2
 1678 000c 0B       		.byte	(.L122-.L113)/2
 1679 000d 3B       		.byte	(.L121-.L113)/2
 1680 000e 43       		.byte	(.L120-.L113)/2
 1681 000f 14       		.byte	(.L119-.L113)/2
 1682 0010 1C       		.byte	(.L118-.L113)/2
 1683 0011 2B       		.byte	(.L117-.L113)/2
 1684 0012 33       		.byte	(.L116-.L113)/2
 1685 0013 21       		.byte	(.L115-.L113)/2
 1686 0014 28       		.byte	(.L114-.L113)/2
 1687 0015 09       		.byte	(.L127-.L113)/2
 1688 0016 09       		.byte	(.L127-.L113)/2
 1689 0017 09       		.byte	(.L127-.L113)/2
 1690 0018 09       		.byte	(.L127-.L113)/2
 1691 0019 09       		.byte	(.L127-.L113)/2
 1692 001a 0F       		.byte	(.L112-.L113)/2
 1693 001b 00       		.p2align 1
 1694              	.L127:
 1695 001c 0020     		movs	r0, #0
 1696              	.LVL134:
 347:Drivers/lvgl/src/draw/lv_img_buf.c ****         default:
ARM GAS  /var/folders/0z/tsy30v1j4xl4_7kw94k978ww0000gn/T//ccd7xBqr.s 			page 55


 348:Drivers/lvgl/src/draw/lv_img_buf.c ****             return 0;
 349:Drivers/lvgl/src/draw/lv_img_buf.c ****     }
 350:Drivers/lvgl/src/draw/lv_img_buf.c **** }
 1697              		.loc 1 350 1 view .LVU562
 1698 001e 7047     		bx	lr
 1699              	.LVL135:
 1700              	.L122:
 325:Drivers/lvgl/src/draw/lv_img_buf.c ****         case LV_IMG_CF_TRUE_COLOR_ALPHA:
 1701              		.loc 1 325 13 is_stmt 1 view .LVU563
 325:Drivers/lvgl/src/draw/lv_img_buf.c ****         case LV_IMG_CF_TRUE_COLOR_ALPHA:
 1702              		.loc 1 325 20 is_stmt 0 view .LVU564
 1703 0020 01FB00F0 		mul	r0, r1, r0
 1704              	.LVL136:
 325:Drivers/lvgl/src/draw/lv_img_buf.c ****         case LV_IMG_CF_TRUE_COLOR_ALPHA:
 1705              		.loc 1 325 20 view .LVU565
 1706 0024 4000     		lsls	r0, r0, #1
 1707 0026 7047     		bx	lr
 1708              	.LVL137:
 1709              	.L112:
 328:Drivers/lvgl/src/draw/lv_img_buf.c ****         case LV_IMG_CF_TRUE_COLOR_CHROMA_KEYED:
 1710              		.loc 1 328 13 is_stmt 1 view .LVU566
 328:Drivers/lvgl/src/draw/lv_img_buf.c ****         case LV_IMG_CF_TRUE_COLOR_CHROMA_KEYED:
 1711              		.loc 1 328 20 is_stmt 0 view .LVU567
 1712 0028 00FB01F1 		mul	r1, r0, r1
 1713              	.LVL138:
 328:Drivers/lvgl/src/draw/lv_img_buf.c ****         case LV_IMG_CF_TRUE_COLOR_CHROMA_KEYED:
 1714              		.loc 1 328 20 view .LVU568
 1715 002c 01EB4100 		add	r0, r1, r1, lsl #1
 1716              	.LVL139:
 328:Drivers/lvgl/src/draw/lv_img_buf.c ****         case LV_IMG_CF_TRUE_COLOR_CHROMA_KEYED:
 1717              		.loc 1 328 20 view .LVU569
 1718 0030 7047     		bx	lr
 1719              	.LVL140:
 1720              	.L119:
 344:Drivers/lvgl/src/draw/lv_img_buf.c ****         case LV_IMG_CF_INDEXED_8BIT:
 1721              		.loc 1 344 13 is_stmt 1 view .LVU570
 344:Drivers/lvgl/src/draw/lv_img_buf.c ****         case LV_IMG_CF_INDEXED_8BIT:
 1722              		.loc 1 344 20 is_stmt 0 view .LVU571
 1723 0032 00EBD073 		add	r3, r0, r0, lsr #31
 1724 0036 5B10     		asrs	r3, r3, #1
 1725 0038 0133     		adds	r3, r3, #1
 1726 003a 4022     		movs	r2, #64
 1727 003c 13FB0120 		smlabb	r0, r3, r1, r2
 1728              	.LVL141:
 344:Drivers/lvgl/src/draw/lv_img_buf.c ****         case LV_IMG_CF_INDEXED_8BIT:
 1729              		.loc 1 344 20 view .LVU572
 1730 0040 7047     		bx	lr
 1731              	.LVL142:
 1732              	.L118:
 346:Drivers/lvgl/src/draw/lv_img_buf.c ****         default:
 1733              		.loc 1 346 13 is_stmt 1 view .LVU573
 346:Drivers/lvgl/src/draw/lv_img_buf.c ****         default:
 1734              		.loc 1 346 20 is_stmt 0 view .LVU574
 1735 0042 4FF48063 		mov	r3, #1024
 1736 0046 00FB0130 		mla	r0, r0, r1, r3
 1737              	.LVL143:
 346:Drivers/lvgl/src/draw/lv_img_buf.c ****         default:
ARM GAS  /var/folders/0z/tsy30v1j4xl4_7kw94k978ww0000gn/T//ccd7xBqr.s 			page 56


 1738              		.loc 1 346 20 view .LVU575
 1739 004a 7047     		bx	lr
 1740              	.LVL144:
 1741              	.L115:
 336:Drivers/lvgl/src/draw/lv_img_buf.c ****         case LV_IMG_CF_ALPHA_8BIT:
 1742              		.loc 1 336 13 is_stmt 1 view .LVU576
 336:Drivers/lvgl/src/draw/lv_img_buf.c ****         case LV_IMG_CF_ALPHA_8BIT:
 1743              		.loc 1 336 20 is_stmt 0 view .LVU577
 1744 004c 00EBD073 		add	r3, r0, r0, lsr #31
 1745 0050 5B10     		asrs	r3, r3, #1
 1746 0052 0133     		adds	r3, r3, #1
 1747 0054 13FB01F0 		smulbb	r0, r3, r1
 1748              	.LVL145:
 336:Drivers/lvgl/src/draw/lv_img_buf.c ****         case LV_IMG_CF_ALPHA_8BIT:
 1749              		.loc 1 336 20 view .LVU578
 1750 0058 7047     		bx	lr
 1751              	.LVL146:
 1752              	.L114:
 338:Drivers/lvgl/src/draw/lv_img_buf.c ****         case LV_IMG_CF_INDEXED_1BIT:
 1753              		.loc 1 338 13 is_stmt 1 view .LVU579
 338:Drivers/lvgl/src/draw/lv_img_buf.c ****         case LV_IMG_CF_INDEXED_1BIT:
 1754              		.loc 1 338 20 is_stmt 0 view .LVU580
 1755 005a 01FB00F0 		mul	r0, r1, r0
 1756              	.LVL147:
 338:Drivers/lvgl/src/draw/lv_img_buf.c ****         case LV_IMG_CF_INDEXED_1BIT:
 1757              		.loc 1 338 20 view .LVU581
 1758 005e 7047     		bx	lr
 1759              	.LVL148:
 1760              	.L117:
 332:Drivers/lvgl/src/draw/lv_img_buf.c ****         case LV_IMG_CF_ALPHA_2BIT:
 1761              		.loc 1 332 13 is_stmt 1 view .LVU582
 332:Drivers/lvgl/src/draw/lv_img_buf.c ****         case LV_IMG_CF_ALPHA_2BIT:
 1762              		.loc 1 332 20 is_stmt 0 view .LVU583
 1763 0060 031E     		subs	r3, r0, #0
 1764 0062 B8BF     		it	lt
 1765 0064 0733     		addlt	r3, r3, #7
 1766 0066 D810     		asrs	r0, r3, #3
 1767              	.LVL149:
 332:Drivers/lvgl/src/draw/lv_img_buf.c ****         case LV_IMG_CF_ALPHA_2BIT:
 1768              		.loc 1 332 20 view .LVU584
 1769 0068 0130     		adds	r0, r0, #1
 1770 006a 10FB01F0 		smulbb	r0, r0, r1
 1771 006e 7047     		bx	lr
 1772              	.LVL150:
 1773              	.L116:
 334:Drivers/lvgl/src/draw/lv_img_buf.c ****         case LV_IMG_CF_ALPHA_4BIT:
 1774              		.loc 1 334 13 is_stmt 1 view .LVU585
 334:Drivers/lvgl/src/draw/lv_img_buf.c ****         case LV_IMG_CF_ALPHA_4BIT:
 1775              		.loc 1 334 20 is_stmt 0 view .LVU586
 1776 0070 031E     		subs	r3, r0, #0
 1777 0072 B8BF     		it	lt
 1778 0074 0333     		addlt	r3, r3, #3
 1779 0076 9810     		asrs	r0, r3, #2
 1780              	.LVL151:
 334:Drivers/lvgl/src/draw/lv_img_buf.c ****         case LV_IMG_CF_ALPHA_4BIT:
 1781              		.loc 1 334 20 view .LVU587
 1782 0078 0130     		adds	r0, r0, #1
ARM GAS  /var/folders/0z/tsy30v1j4xl4_7kw94k978ww0000gn/T//ccd7xBqr.s 			page 57


 1783 007a 10FB01F0 		smulbb	r0, r0, r1
 1784 007e 7047     		bx	lr
 1785              	.LVL152:
 1786              	.L121:
 340:Drivers/lvgl/src/draw/lv_img_buf.c ****         case LV_IMG_CF_INDEXED_2BIT:
 1787              		.loc 1 340 13 is_stmt 1 view .LVU588
 340:Drivers/lvgl/src/draw/lv_img_buf.c ****         case LV_IMG_CF_INDEXED_2BIT:
 1788              		.loc 1 340 20 is_stmt 0 view .LVU589
 1789 0080 031E     		subs	r3, r0, #0
 1790 0082 B8BF     		it	lt
 1791 0084 0733     		addlt	r3, r3, #7
 1792 0086 DB10     		asrs	r3, r3, #3
 1793 0088 03FB0110 		mla	r0, r3, r1, r1
 1794              	.LVL153:
 340:Drivers/lvgl/src/draw/lv_img_buf.c ****         case LV_IMG_CF_INDEXED_2BIT:
 1795              		.loc 1 340 20 view .LVU590
 1796 008c 0830     		adds	r0, r0, #8
 1797 008e 7047     		bx	lr
 1798              	.LVL154:
 1799              	.L120:
 342:Drivers/lvgl/src/draw/lv_img_buf.c ****         case LV_IMG_CF_INDEXED_4BIT:
 1800              		.loc 1 342 13 is_stmt 1 view .LVU591
 342:Drivers/lvgl/src/draw/lv_img_buf.c ****         case LV_IMG_CF_INDEXED_4BIT:
 1801              		.loc 1 342 20 is_stmt 0 view .LVU592
 1802 0090 031E     		subs	r3, r0, #0
 1803 0092 B8BF     		it	lt
 1804 0094 0333     		addlt	r3, r3, #3
 1805 0096 9B10     		asrs	r3, r3, #2
 1806 0098 03FB0110 		mla	r0, r3, r1, r1
 1807              	.LVL155:
 342:Drivers/lvgl/src/draw/lv_img_buf.c ****         case LV_IMG_CF_INDEXED_4BIT:
 1808              		.loc 1 342 20 view .LVU593
 1809 009c 1030     		adds	r0, r0, #16
 1810 009e 7047     		bx	lr
 1811              		.cfi_endproc
 1812              	.LFE61:
 1814              		.section	.text._lv_img_buf_get_transformed_area,"ax",%progbits
 1815              		.align	1
 1816              		.p2align 2,,3
 1817              		.global	_lv_img_buf_get_transformed_area
 1818              		.syntax unified
 1819              		.thumb
 1820              		.thumb_func
 1822              	_lv_img_buf_get_transformed_area:
 1823              	.LVL156:
 1824              	.LFB62:
 351:Drivers/lvgl/src/draw/lv_img_buf.c **** 
 352:Drivers/lvgl/src/draw/lv_img_buf.c **** void _lv_img_buf_get_transformed_area(lv_area_t * res, lv_coord_t w, lv_coord_t h, int16_t angle, u
 353:Drivers/lvgl/src/draw/lv_img_buf.c ****                                       const lv_point_t * pivot)
 354:Drivers/lvgl/src/draw/lv_img_buf.c **** {
 1825              		.loc 1 354 1 is_stmt 1 view -0
 1826              		.cfi_startproc
 1827              		@ args = 8, pretend = 0, frame = 24
 1828              		@ frame_needed = 0, uses_anonymous_args = 0
 355:Drivers/lvgl/src/draw/lv_img_buf.c **** #if LV_DRAW_COMPLEX
 356:Drivers/lvgl/src/draw/lv_img_buf.c ****     if(angle == 0 && zoom == LV_IMG_ZOOM_NONE) {
 1829              		.loc 1 356 5 view .LVU595
ARM GAS  /var/folders/0z/tsy30v1j4xl4_7kw94k978ww0000gn/T//ccd7xBqr.s 			page 58


 354:Drivers/lvgl/src/draw/lv_img_buf.c **** #if LV_DRAW_COMPLEX
 1830              		.loc 1 354 1 is_stmt 0 view .LVU596
 1831 0000 F0B5     		push	{r4, r5, r6, r7, lr}
 1832              		.cfi_def_cfa_offset 20
 1833              		.cfi_offset 4, -20
 1834              		.cfi_offset 5, -16
 1835              		.cfi_offset 6, -12
 1836              		.cfi_offset 7, -8
 1837              		.cfi_offset 14, -4
 1838 0002 87B0     		sub	sp, sp, #28
 1839              		.cfi_def_cfa_offset 48
 354:Drivers/lvgl/src/draw/lv_img_buf.c **** #if LV_DRAW_COMPLEX
 1840              		.loc 1 354 1 view .LVU597
 1841 0004 9446     		mov	ip, r2
 1842 0006 0446     		mov	r4, r0
 1843 0008 BDF83020 		ldrh	r2, [sp, #48]
 1844              	.LVL157:
 354:Drivers/lvgl/src/draw/lv_img_buf.c **** #if LV_DRAW_COMPLEX
 1845              		.loc 1 354 1 view .LVU598
 1846 000c 0D9D     		ldr	r5, [sp, #52]
 1847 000e 0846     		mov	r0, r1
 1848              	.LVL158:
 1849              		.loc 1 356 7 view .LVU599
 1850 0010 1946     		mov	r1, r3
 1851              	.LVL159:
 1852              		.loc 1 356 7 view .LVU600
 1853 0012 13B9     		cbnz	r3, .L129
 1854              		.loc 1 356 19 discriminator 1 view .LVU601
 1855 0014 B2F5807F 		cmp	r2, #256
 1856 0018 6AD0     		beq	.L132
 1857              	.L129:
 357:Drivers/lvgl/src/draw/lv_img_buf.c ****         res->x1 = 0;
 358:Drivers/lvgl/src/draw/lv_img_buf.c ****         res->y1 = 0;
 359:Drivers/lvgl/src/draw/lv_img_buf.c ****         res->x2 = w - 1;
 360:Drivers/lvgl/src/draw/lv_img_buf.c ****         res->y2 = h - 1;
 361:Drivers/lvgl/src/draw/lv_img_buf.c ****         return;
 362:Drivers/lvgl/src/draw/lv_img_buf.c ****     }
 363:Drivers/lvgl/src/draw/lv_img_buf.c **** 
 364:Drivers/lvgl/src/draw/lv_img_buf.c ****     lv_point_t p[4] = {
 1858              		.loc 1 364 5 is_stmt 1 view .LVU602
 1859              		.loc 1 364 16 is_stmt 0 view .LVU603
 1860 001a ADF80C00 		strh	r0, [sp, #12]	@ movhi
 1861 001e ADF81400 		strh	r0, [sp, #20]	@ movhi
 1862 0022 0020     		movs	r0, #0
 365:Drivers/lvgl/src/draw/lv_img_buf.c ****         {0, 0},
 366:Drivers/lvgl/src/draw/lv_img_buf.c ****         {w, 0},
 367:Drivers/lvgl/src/draw/lv_img_buf.c ****         {0, h},
 368:Drivers/lvgl/src/draw/lv_img_buf.c ****         {w, h},
 369:Drivers/lvgl/src/draw/lv_img_buf.c ****     };
 370:Drivers/lvgl/src/draw/lv_img_buf.c ****     lv_point_transform(&p[0], angle, zoom, pivot);
 1863              		.loc 1 370 5 view .LVU604
 1864 0024 2B46     		mov	r3, r5
 1865              	.LVL160:
 364:Drivers/lvgl/src/draw/lv_img_buf.c ****         {0, 0},
 1866              		.loc 1 364 16 view .LVU605
 1867 0026 0290     		str	r0, [sp, #8]
 1868 0028 ADF80E00 		strh	r0, [sp, #14]	@ movhi
ARM GAS  /var/folders/0z/tsy30v1j4xl4_7kw94k978ww0000gn/T//ccd7xBqr.s 			page 59


 1869 002c ADF81000 		strh	r0, [sp, #16]	@ movhi
 1870              		.loc 1 370 5 view .LVU606
 1871 0030 02A8     		add	r0, sp, #8
 364:Drivers/lvgl/src/draw/lv_img_buf.c ****         {0, 0},
 1872              		.loc 1 364 16 view .LVU607
 1873 0032 ADF812C0 		strh	ip, [sp, #18]	@ movhi
 1874 0036 ADF816C0 		strh	ip, [sp, #22]	@ movhi
 1875              		.loc 1 370 5 is_stmt 1 view .LVU608
 1876 003a CDE90012 		strd	r1, r2, [sp]
 1877 003e FFF7FEFF 		bl	lv_point_transform
 1878              	.LVL161:
 371:Drivers/lvgl/src/draw/lv_img_buf.c ****     lv_point_transform(&p[1], angle, zoom, pivot);
 1879              		.loc 1 371 5 view .LVU609
 1880 0042 DDE90012 		ldrd	r1, r2, [sp]
 1881 0046 2B46     		mov	r3, r5
 1882 0048 03A8     		add	r0, sp, #12
 1883 004a FFF7FEFF 		bl	lv_point_transform
 1884              	.LVL162:
 372:Drivers/lvgl/src/draw/lv_img_buf.c ****     lv_point_transform(&p[2], angle, zoom, pivot);
 1885              		.loc 1 372 5 view .LVU610
 1886 004e DDE90012 		ldrd	r1, r2, [sp]
 1887 0052 2B46     		mov	r3, r5
 1888 0054 04A8     		add	r0, sp, #16
 1889 0056 FFF7FEFF 		bl	lv_point_transform
 1890              	.LVL163:
 373:Drivers/lvgl/src/draw/lv_img_buf.c ****     lv_point_transform(&p[3], angle, zoom, pivot);
 1891              		.loc 1 373 5 view .LVU611
 1892 005a DDE90012 		ldrd	r1, r2, [sp]
 1893 005e 2B46     		mov	r3, r5
 1894 0060 05A8     		add	r0, sp, #20
 1895 0062 FFF7FEFF 		bl	lv_point_transform
 1896              	.LVL164:
 374:Drivers/lvgl/src/draw/lv_img_buf.c ****     res->x1 = LV_MIN4(p[0].x, p[1].x, p[2].x, p[3].x) - 2;
 1897              		.loc 1 374 5 view .LVU612
 1898              		.loc 1 374 15 is_stmt 0 view .LVU613
 1899 0066 BDF91420 		ldrsh	r2, [sp, #20]
 1900 006a BDF91070 		ldrsh	r7, [sp, #16]
 1901 006e BDF90C60 		ldrsh	r6, [sp, #12]
 1902 0072 BDF90850 		ldrsh	r5, [sp, #8]
 375:Drivers/lvgl/src/draw/lv_img_buf.c ****     res->x2 = LV_MAX4(p[0].x, p[1].x, p[2].x, p[3].x) + 2;
 376:Drivers/lvgl/src/draw/lv_img_buf.c ****     res->y1 = LV_MIN4(p[0].y, p[1].y, p[2].y, p[3].y) - 2;
 1903              		.loc 1 376 15 view .LVU614
 1904 0076 BDF912C0 		ldrsh	ip, [sp, #18]
 1905 007a BDF91630 		ldrsh	r3, [sp, #22]
 1906 007e BDF90EE0 		ldrsh	lr, [sp, #14]
 1907 0082 BDF90A00 		ldrsh	r0, [sp, #10]
 374:Drivers/lvgl/src/draw/lv_img_buf.c ****     res->x1 = LV_MIN4(p[0].x, p[1].x, p[2].x, p[3].x) - 2;
 1908              		.loc 1 374 15 view .LVU615
 1909 0086 BA42     		cmp	r2, r7
 1910 0088 1146     		mov	r1, r2
 1911 008a A8BF     		it	ge
 1912 008c 3946     		movge	r1, r7
 375:Drivers/lvgl/src/draw/lv_img_buf.c ****     res->x2 = LV_MAX4(p[0].x, p[1].x, p[2].x, p[3].x) + 2;
 1913              		.loc 1 375 15 view .LVU616
 1914 008e BA42     		cmp	r2, r7
 1915 0090 B8BF     		it	lt
 1916 0092 3A46     		movlt	r2, r7
ARM GAS  /var/folders/0z/tsy30v1j4xl4_7kw94k978ww0000gn/T//ccd7xBqr.s 			page 60


 374:Drivers/lvgl/src/draw/lv_img_buf.c ****     res->x1 = LV_MIN4(p[0].x, p[1].x, p[2].x, p[3].x) - 2;
 1917              		.loc 1 374 15 view .LVU617
 1918 0094 B142     		cmp	r1, r6
 1919 0096 A8BF     		it	ge
 1920 0098 3146     		movge	r1, r6
 375:Drivers/lvgl/src/draw/lv_img_buf.c ****     res->x2 = LV_MAX4(p[0].x, p[1].x, p[2].x, p[3].x) + 2;
 1921              		.loc 1 375 15 view .LVU618
 1922 009a B242     		cmp	r2, r6
 1923 009c B8BF     		it	lt
 1924 009e 3246     		movlt	r2, r6
 374:Drivers/lvgl/src/draw/lv_img_buf.c ****     res->x1 = LV_MIN4(p[0].x, p[1].x, p[2].x, p[3].x) - 2;
 1925              		.loc 1 374 15 view .LVU619
 1926 00a0 A942     		cmp	r1, r5
 1927 00a2 A8BF     		it	ge
 1928 00a4 2946     		movge	r1, r5
 375:Drivers/lvgl/src/draw/lv_img_buf.c ****     res->x2 = LV_MAX4(p[0].x, p[1].x, p[2].x, p[3].x) + 2;
 1929              		.loc 1 375 15 view .LVU620
 1930 00a6 AA42     		cmp	r2, r5
 1931 00a8 B8BF     		it	lt
 1932 00aa 2A46     		movlt	r2, r5
 375:Drivers/lvgl/src/draw/lv_img_buf.c ****     res->x2 = LV_MAX4(p[0].x, p[1].x, p[2].x, p[3].x) + 2;
 1933              		.loc 1 375 55 view .LVU621
 1934 00ac 0232     		adds	r2, r2, #2
 1935              		.loc 1 376 15 view .LVU622
 1936 00ae 6345     		cmp	r3, ip
 375:Drivers/lvgl/src/draw/lv_img_buf.c ****     res->x2 = LV_MAX4(p[0].x, p[1].x, p[2].x, p[3].x) + 2;
 1937              		.loc 1 375 13 view .LVU623
 1938 00b0 A280     		strh	r2, [r4, #4]	@ movhi
 1939              		.loc 1 376 15 view .LVU624
 1940 00b2 1A46     		mov	r2, r3
 1941 00b4 A8BF     		it	ge
 1942 00b6 6246     		movge	r2, ip
 377:Drivers/lvgl/src/draw/lv_img_buf.c ****     res->y2 = LV_MAX4(p[0].y, p[1].y, p[2].y, p[3].y) + 2;
 1943              		.loc 1 377 15 view .LVU625
 1944 00b8 9C45     		cmp	ip, r3
 1945 00ba B8BF     		it	lt
 1946 00bc 9C46     		movlt	ip, r3
 376:Drivers/lvgl/src/draw/lv_img_buf.c ****     res->y2 = LV_MAX4(p[0].y, p[1].y, p[2].y, p[3].y) + 2;
 1947              		.loc 1 376 15 view .LVU626
 1948 00be 7245     		cmp	r2, lr
 1949 00c0 1346     		mov	r3, r2
 1950 00c2 A8BF     		it	ge
 1951 00c4 7346     		movge	r3, lr
 1952              		.loc 1 377 15 view .LVU627
 1953 00c6 F445     		cmp	ip, lr
 1954 00c8 B8BF     		it	lt
 1955 00ca F446     		movlt	ip, lr
 376:Drivers/lvgl/src/draw/lv_img_buf.c ****     res->y2 = LV_MAX4(p[0].y, p[1].y, p[2].y, p[3].y) + 2;
 1956              		.loc 1 376 15 view .LVU628
 1957 00cc 8342     		cmp	r3, r0
 1958 00ce A8BF     		it	ge
 1959 00d0 0346     		movge	r3, r0
 1960              		.loc 1 377 15 view .LVU629
 1961 00d2 8445     		cmp	ip, r0
 1962 00d4 B8BF     		it	lt
 1963 00d6 8446     		movlt	ip, r0
 1964              		.loc 1 377 55 view .LVU630
ARM GAS  /var/folders/0z/tsy30v1j4xl4_7kw94k978ww0000gn/T//ccd7xBqr.s 			page 61


 1965 00d8 0CF1020C 		add	ip, ip, #2
 374:Drivers/lvgl/src/draw/lv_img_buf.c ****     res->x2 = LV_MAX4(p[0].x, p[1].x, p[2].x, p[3].x) + 2;
 1966              		.loc 1 374 55 view .LVU631
 1967 00dc 0239     		subs	r1, r1, #2
 376:Drivers/lvgl/src/draw/lv_img_buf.c ****     res->y2 = LV_MAX4(p[0].y, p[1].y, p[2].y, p[3].y) + 2;
 1968              		.loc 1 376 55 view .LVU632
 1969 00de 023B     		subs	r3, r3, #2
 1970              		.loc 1 377 55 view .LVU633
 1971 00e0 0FFA8CFC 		sxth	ip, ip
 374:Drivers/lvgl/src/draw/lv_img_buf.c ****     res->x2 = LV_MAX4(p[0].x, p[1].x, p[2].x, p[3].x) + 2;
 1972              		.loc 1 374 13 view .LVU634
 1973 00e4 2180     		strh	r1, [r4]	@ movhi
 375:Drivers/lvgl/src/draw/lv_img_buf.c ****     res->y1 = LV_MIN4(p[0].y, p[1].y, p[2].y, p[3].y) - 2;
 1974              		.loc 1 375 5 is_stmt 1 view .LVU635
 376:Drivers/lvgl/src/draw/lv_img_buf.c ****     res->y2 = LV_MAX4(p[0].y, p[1].y, p[2].y, p[3].y) + 2;
 1975              		.loc 1 376 5 view .LVU636
 376:Drivers/lvgl/src/draw/lv_img_buf.c ****     res->y2 = LV_MAX4(p[0].y, p[1].y, p[2].y, p[3].y) + 2;
 1976              		.loc 1 376 13 is_stmt 0 view .LVU637
 1977 00e6 6380     		strh	r3, [r4, #2]	@ movhi
 1978              		.loc 1 377 5 is_stmt 1 view .LVU638
 1979              		.loc 1 377 13 is_stmt 0 view .LVU639
 1980 00e8 A4F806C0 		strh	ip, [r4, #6]	@ movhi
 378:Drivers/lvgl/src/draw/lv_img_buf.c **** 
 379:Drivers/lvgl/src/draw/lv_img_buf.c **** #else
 380:Drivers/lvgl/src/draw/lv_img_buf.c ****     LV_UNUSED(angle);
 381:Drivers/lvgl/src/draw/lv_img_buf.c ****     LV_UNUSED(zoom);
 382:Drivers/lvgl/src/draw/lv_img_buf.c ****     LV_UNUSED(pivot);
 383:Drivers/lvgl/src/draw/lv_img_buf.c ****     res->x1 = 0;
 384:Drivers/lvgl/src/draw/lv_img_buf.c ****     res->y1 = 0;
 385:Drivers/lvgl/src/draw/lv_img_buf.c ****     res->x2 = w - 1;
 386:Drivers/lvgl/src/draw/lv_img_buf.c ****     res->y2 = h - 1;
 387:Drivers/lvgl/src/draw/lv_img_buf.c **** #endif
 388:Drivers/lvgl/src/draw/lv_img_buf.c **** }
 1981              		.loc 1 388 1 view .LVU640
 1982 00ec 07B0     		add	sp, sp, #28
 1983              		.cfi_remember_state
 1984              		.cfi_def_cfa_offset 20
 1985              		@ sp needed
 1986 00ee F0BD     		pop	{r4, r5, r6, r7, pc}
 1987              	.LVL165:
 1988              	.L132:
 1989              		.cfi_restore_state
 357:Drivers/lvgl/src/draw/lv_img_buf.c ****         res->y1 = 0;
 1990              		.loc 1 357 9 is_stmt 1 view .LVU641
 358:Drivers/lvgl/src/draw/lv_img_buf.c ****         res->x2 = w - 1;
 1991              		.loc 1 358 9 view .LVU642
 360:Drivers/lvgl/src/draw/lv_img_buf.c ****         return;
 1992              		.loc 1 360 21 is_stmt 0 view .LVU643
 1993 00f0 0CF1FF3C 		add	ip, ip, #-1
 359:Drivers/lvgl/src/draw/lv_img_buf.c ****         res->y2 = h - 1;
 1994              		.loc 1 359 21 view .LVU644
 1995 00f4 0138     		subs	r0, r0, #1
 360:Drivers/lvgl/src/draw/lv_img_buf.c ****         return;
 1996              		.loc 1 360 21 view .LVU645
 1997 00f6 0FFA8CFC 		sxth	ip, ip
 357:Drivers/lvgl/src/draw/lv_img_buf.c ****         res->y1 = 0;
 1998              		.loc 1 357 17 view .LVU646
ARM GAS  /var/folders/0z/tsy30v1j4xl4_7kw94k978ww0000gn/T//ccd7xBqr.s 			page 62


 1999 00fa 2360     		str	r3, [r4]	@ unaligned
 359:Drivers/lvgl/src/draw/lv_img_buf.c ****         res->y2 = h - 1;
 2000              		.loc 1 359 9 is_stmt 1 view .LVU647
 359:Drivers/lvgl/src/draw/lv_img_buf.c ****         res->y2 = h - 1;
 2001              		.loc 1 359 17 is_stmt 0 view .LVU648
 2002 00fc A080     		strh	r0, [r4, #4]	@ movhi
 360:Drivers/lvgl/src/draw/lv_img_buf.c ****         return;
 2003              		.loc 1 360 9 is_stmt 1 view .LVU649
 361:Drivers/lvgl/src/draw/lv_img_buf.c ****     }
 2004              		.loc 1 361 9 view .LVU650
 377:Drivers/lvgl/src/draw/lv_img_buf.c **** 
 2005              		.loc 1 377 13 is_stmt 0 view .LVU651
 2006 00fe A4F806C0 		strh	ip, [r4, #6]	@ movhi
 2007              		.loc 1 388 1 view .LVU652
 2008 0102 07B0     		add	sp, sp, #28
 2009              		.cfi_def_cfa_offset 20
 2010              		@ sp needed
 2011 0104 F0BD     		pop	{r4, r5, r6, r7, pc}
 2012              		.loc 1 388 1 view .LVU653
 2013              		.cfi_endproc
 2014              	.LFE62:
 2016 0106 00BF     		.section	.rodata
 2017              		.align	2
 2018              		.set	.LANCHOR0,. + 0
 2019              	.LC0:
 2020 0000 00112233 		.ascii	"\000\021\"3DUfw\210\231\252\273\314\335\356\377"
 2020      44556677 
 2020      8899AABB 
 2020      CCDDEEFF 
 2021              		.text
 2022              	.Letext0:
 2023              		.file 4 "/Users/johannes/Library/Application Support/Code/User/globalStorage/bmd.stm32-for-vscode/
 2024              		.file 5 "/Users/johannes/Library/Application Support/Code/User/globalStorage/bmd.stm32-for-vscode/
 2025              		.file 6 "/Users/johannes/Library/Application Support/Code/User/globalStorage/bmd.stm32-for-vscode/
 2026              		.file 7 "Drivers/lvgl/src/draw/../misc/lv_area.h"
 2027              		.file 8 "Drivers/lvgl/src/draw/lv_img_buf.h"
 2028              		.file 9 "Drivers/lvgl/src/draw/lv_draw_img.h"
 2029              		.file 10 "<built-in>"
ARM GAS  /var/folders/0z/tsy30v1j4xl4_7kw94k978ww0000gn/T//ccd7xBqr.s 			page 63

