ARM GAS  /var/folders/0z/tsy30v1j4xl4_7kw94k978ww0000gn/T//ccW5gjHE.s 			page 1


   1              		.cpu cortex-m4
   2              		.arch armv7e-m
   3              		.fpu fpv4-sp-d16
   4              		.eabi_attribute 27, 1
   5              		.eabi_attribute 28, 1
   6              		.eabi_attribute 23, 1
   7              		.eabi_attribute 24, 1
   8              		.eabi_attribute 25, 1
   9              		.eabi_attribute 26, 1
  10              		.eabi_attribute 30, 2
  11              		.eabi_attribute 34, 1
  12              		.eabi_attribute 18, 4
  13              		.file	"lv_keyboard.c"
  14              		.text
  15              	.Ltext0:
  16              		.cfi_sections	.debug_frame
  17              		.section	.text.lv_keyboard_update_ctrl_map,"ax",%progbits
  18              		.align	1
  19              		.p2align 2,,3
  20              		.syntax unified
  21              		.thumb
  22              		.thumb_func
  24              	lv_keyboard_update_ctrl_map:
  25              	.LVL0:
  26              	.LFB175:
  27              		.file 1 "Drivers/lvgl/src/extra/widgets/keyboard/lv_keyboard.c"
   1:Drivers/lvgl/src/extra/widgets/keyboard/lv_keyboard.c **** 
   2:Drivers/lvgl/src/extra/widgets/keyboard/lv_keyboard.c **** /**
   3:Drivers/lvgl/src/extra/widgets/keyboard/lv_keyboard.c ****  * @file lv_keyboard.c
   4:Drivers/lvgl/src/extra/widgets/keyboard/lv_keyboard.c ****  *
   5:Drivers/lvgl/src/extra/widgets/keyboard/lv_keyboard.c ****  */
   6:Drivers/lvgl/src/extra/widgets/keyboard/lv_keyboard.c **** 
   7:Drivers/lvgl/src/extra/widgets/keyboard/lv_keyboard.c **** /*********************
   8:Drivers/lvgl/src/extra/widgets/keyboard/lv_keyboard.c ****  *      INCLUDES
   9:Drivers/lvgl/src/extra/widgets/keyboard/lv_keyboard.c ****  *********************/
  10:Drivers/lvgl/src/extra/widgets/keyboard/lv_keyboard.c **** #include "lv_keyboard.h"
  11:Drivers/lvgl/src/extra/widgets/keyboard/lv_keyboard.c **** #if LV_USE_KEYBOARD
  12:Drivers/lvgl/src/extra/widgets/keyboard/lv_keyboard.c **** 
  13:Drivers/lvgl/src/extra/widgets/keyboard/lv_keyboard.c **** #include "../../../widgets/lv_textarea.h"
  14:Drivers/lvgl/src/extra/widgets/keyboard/lv_keyboard.c **** #include "../../../misc/lv_assert.h"
  15:Drivers/lvgl/src/extra/widgets/keyboard/lv_keyboard.c **** 
  16:Drivers/lvgl/src/extra/widgets/keyboard/lv_keyboard.c **** #include <stdlib.h>
  17:Drivers/lvgl/src/extra/widgets/keyboard/lv_keyboard.c **** 
  18:Drivers/lvgl/src/extra/widgets/keyboard/lv_keyboard.c **** /*********************
  19:Drivers/lvgl/src/extra/widgets/keyboard/lv_keyboard.c ****  *      DEFINES
  20:Drivers/lvgl/src/extra/widgets/keyboard/lv_keyboard.c ****  *********************/
  21:Drivers/lvgl/src/extra/widgets/keyboard/lv_keyboard.c **** #define MY_CLASS    &lv_keyboard_class
  22:Drivers/lvgl/src/extra/widgets/keyboard/lv_keyboard.c **** #define LV_KB_BTN(width) LV_BTNMATRIX_CTRL_POPOVER | width
  23:Drivers/lvgl/src/extra/widgets/keyboard/lv_keyboard.c **** 
  24:Drivers/lvgl/src/extra/widgets/keyboard/lv_keyboard.c **** /**********************
  25:Drivers/lvgl/src/extra/widgets/keyboard/lv_keyboard.c ****  *      TYPEDEFS
  26:Drivers/lvgl/src/extra/widgets/keyboard/lv_keyboard.c ****  **********************/
  27:Drivers/lvgl/src/extra/widgets/keyboard/lv_keyboard.c **** 
  28:Drivers/lvgl/src/extra/widgets/keyboard/lv_keyboard.c **** /**********************
  29:Drivers/lvgl/src/extra/widgets/keyboard/lv_keyboard.c ****  *  STATIC PROTOTYPES
  30:Drivers/lvgl/src/extra/widgets/keyboard/lv_keyboard.c ****  **********************/
  31:Drivers/lvgl/src/extra/widgets/keyboard/lv_keyboard.c **** static void lv_keyboard_constructor(const lv_obj_class_t * class_p, lv_obj_t * obj);
ARM GAS  /var/folders/0z/tsy30v1j4xl4_7kw94k978ww0000gn/T//ccW5gjHE.s 			page 2


  32:Drivers/lvgl/src/extra/widgets/keyboard/lv_keyboard.c **** 
  33:Drivers/lvgl/src/extra/widgets/keyboard/lv_keyboard.c **** static void lv_keyboard_update_map(lv_obj_t * obj);
  34:Drivers/lvgl/src/extra/widgets/keyboard/lv_keyboard.c **** 
  35:Drivers/lvgl/src/extra/widgets/keyboard/lv_keyboard.c **** static void lv_keyboard_update_ctrl_map(lv_obj_t * obj);
  36:Drivers/lvgl/src/extra/widgets/keyboard/lv_keyboard.c **** 
  37:Drivers/lvgl/src/extra/widgets/keyboard/lv_keyboard.c **** /**********************
  38:Drivers/lvgl/src/extra/widgets/keyboard/lv_keyboard.c ****  *  STATIC VARIABLES
  39:Drivers/lvgl/src/extra/widgets/keyboard/lv_keyboard.c ****  **********************/
  40:Drivers/lvgl/src/extra/widgets/keyboard/lv_keyboard.c **** const lv_obj_class_t lv_keyboard_class = {
  41:Drivers/lvgl/src/extra/widgets/keyboard/lv_keyboard.c ****     .constructor_cb = lv_keyboard_constructor,
  42:Drivers/lvgl/src/extra/widgets/keyboard/lv_keyboard.c ****     .width_def = LV_PCT(100),
  43:Drivers/lvgl/src/extra/widgets/keyboard/lv_keyboard.c ****     .height_def = LV_PCT(50),
  44:Drivers/lvgl/src/extra/widgets/keyboard/lv_keyboard.c ****     .instance_size = sizeof(lv_keyboard_t),
  45:Drivers/lvgl/src/extra/widgets/keyboard/lv_keyboard.c ****     .editable = 1,
  46:Drivers/lvgl/src/extra/widgets/keyboard/lv_keyboard.c ****     .base_class = &lv_btnmatrix_class
  47:Drivers/lvgl/src/extra/widgets/keyboard/lv_keyboard.c **** };
  48:Drivers/lvgl/src/extra/widgets/keyboard/lv_keyboard.c **** 
  49:Drivers/lvgl/src/extra/widgets/keyboard/lv_keyboard.c **** static const char * const default_kb_map_lc[] = {"1#", "q", "w", "e", "r", "t", "y", "u", "i", "o",
  50:Drivers/lvgl/src/extra/widgets/keyboard/lv_keyboard.c ****                                                  "ABC", "a", "s", "d", "f", "g", "h", "j", "k", "l"
  51:Drivers/lvgl/src/extra/widgets/keyboard/lv_keyboard.c ****                                                  "_", "-", "z", "x", "c", "v", "b", "n", "m", ".", 
  52:Drivers/lvgl/src/extra/widgets/keyboard/lv_keyboard.c ****                                                  LV_SYMBOL_KEYBOARD, LV_SYMBOL_LEFT, " ", LV_SYMBOL
  53:Drivers/lvgl/src/extra/widgets/keyboard/lv_keyboard.c ****                                                 };
  54:Drivers/lvgl/src/extra/widgets/keyboard/lv_keyboard.c **** 
  55:Drivers/lvgl/src/extra/widgets/keyboard/lv_keyboard.c **** static const lv_btnmatrix_ctrl_t default_kb_ctrl_lc_map[] = {
  56:Drivers/lvgl/src/extra/widgets/keyboard/lv_keyboard.c ****     LV_KEYBOARD_CTRL_BTN_FLAGS | 5, LV_KB_BTN(4), LV_KB_BTN(4), LV_KB_BTN(4), LV_KB_BTN(4), LV_KB_B
  57:Drivers/lvgl/src/extra/widgets/keyboard/lv_keyboard.c ****     LV_KEYBOARD_CTRL_BTN_FLAGS | 6, LV_KB_BTN(3), LV_KB_BTN(3), LV_KB_BTN(3), LV_KB_BTN(3), LV_KB_B
  58:Drivers/lvgl/src/extra/widgets/keyboard/lv_keyboard.c ****     LV_BTNMATRIX_CTRL_CHECKED | LV_KB_BTN(1), LV_BTNMATRIX_CTRL_CHECKED | LV_KB_BTN(1), LV_KB_BTN(1
  59:Drivers/lvgl/src/extra/widgets/keyboard/lv_keyboard.c ****     LV_KEYBOARD_CTRL_BTN_FLAGS | 2, LV_BTNMATRIX_CTRL_CHECKED | 2, 6, LV_BTNMATRIX_CTRL_CHECKED | 2
  60:Drivers/lvgl/src/extra/widgets/keyboard/lv_keyboard.c **** };
  61:Drivers/lvgl/src/extra/widgets/keyboard/lv_keyboard.c **** 
  62:Drivers/lvgl/src/extra/widgets/keyboard/lv_keyboard.c **** static const char * const default_kb_map_uc[] = {"1#", "Q", "W", "E", "R", "T", "Y", "U", "I", "O",
  63:Drivers/lvgl/src/extra/widgets/keyboard/lv_keyboard.c ****                                                  "abc", "A", "S", "D", "F", "G", "H", "J", "K", "L"
  64:Drivers/lvgl/src/extra/widgets/keyboard/lv_keyboard.c ****                                                  "_", "-", "Z", "X", "C", "V", "B", "N", "M", ".", 
  65:Drivers/lvgl/src/extra/widgets/keyboard/lv_keyboard.c ****                                                  LV_SYMBOL_KEYBOARD, LV_SYMBOL_LEFT, " ", LV_SYMBOL
  66:Drivers/lvgl/src/extra/widgets/keyboard/lv_keyboard.c ****                                                 };
  67:Drivers/lvgl/src/extra/widgets/keyboard/lv_keyboard.c **** 
  68:Drivers/lvgl/src/extra/widgets/keyboard/lv_keyboard.c **** static const lv_btnmatrix_ctrl_t default_kb_ctrl_uc_map[] = {
  69:Drivers/lvgl/src/extra/widgets/keyboard/lv_keyboard.c ****     LV_KEYBOARD_CTRL_BTN_FLAGS | 5, LV_KB_BTN(4), LV_KB_BTN(4), LV_KB_BTN(4), LV_KB_BTN(4), LV_KB_B
  70:Drivers/lvgl/src/extra/widgets/keyboard/lv_keyboard.c ****     LV_KEYBOARD_CTRL_BTN_FLAGS | 6, LV_KB_BTN(3), LV_KB_BTN(3), LV_KB_BTN(3), LV_KB_BTN(3), LV_KB_B
  71:Drivers/lvgl/src/extra/widgets/keyboard/lv_keyboard.c ****     LV_BTNMATRIX_CTRL_CHECKED | LV_KB_BTN(1), LV_BTNMATRIX_CTRL_CHECKED | LV_KB_BTN(1), LV_KB_BTN(1
  72:Drivers/lvgl/src/extra/widgets/keyboard/lv_keyboard.c ****     LV_KEYBOARD_CTRL_BTN_FLAGS | 2, LV_BTNMATRIX_CTRL_CHECKED | 2, 6, LV_BTNMATRIX_CTRL_CHECKED | 2
  73:Drivers/lvgl/src/extra/widgets/keyboard/lv_keyboard.c **** };
  74:Drivers/lvgl/src/extra/widgets/keyboard/lv_keyboard.c **** 
  75:Drivers/lvgl/src/extra/widgets/keyboard/lv_keyboard.c **** static const char * const default_kb_map_spec[] = {"1", "2", "3", "4", "5", "6", "7", "8", "9", "0"
  76:Drivers/lvgl/src/extra/widgets/keyboard/lv_keyboard.c ****                                                    "abc", "+", "&", "/", "*", "=", "%", "!", "?", "
  77:Drivers/lvgl/src/extra/widgets/keyboard/lv_keyboard.c ****                                                    "\\",  "@", "$", "(", ")", "{", "}", "[", "]", "
  78:Drivers/lvgl/src/extra/widgets/keyboard/lv_keyboard.c ****                                                    LV_SYMBOL_KEYBOARD, LV_SYMBOL_LEFT, " ", LV_SYMB
  79:Drivers/lvgl/src/extra/widgets/keyboard/lv_keyboard.c ****                                                   };
  80:Drivers/lvgl/src/extra/widgets/keyboard/lv_keyboard.c **** 
  81:Drivers/lvgl/src/extra/widgets/keyboard/lv_keyboard.c **** static const lv_btnmatrix_ctrl_t default_kb_ctrl_spec_map[] = {
  82:Drivers/lvgl/src/extra/widgets/keyboard/lv_keyboard.c ****     LV_KB_BTN(1), LV_KB_BTN(1), LV_KB_BTN(1), LV_KB_BTN(1), LV_KB_BTN(1), LV_KB_BTN(1), LV_KB_BTN(1
  83:Drivers/lvgl/src/extra/widgets/keyboard/lv_keyboard.c ****     LV_KEYBOARD_CTRL_BTN_FLAGS | 2, LV_KB_BTN(1), LV_KB_BTN(1), LV_KB_BTN(1), LV_KB_BTN(1), LV_KB_B
  84:Drivers/lvgl/src/extra/widgets/keyboard/lv_keyboard.c ****     LV_KB_BTN(1), LV_KB_BTN(1), LV_KB_BTN(1), LV_KB_BTN(1), LV_KB_BTN(1), LV_KB_BTN(1), LV_KB_BTN(1
  85:Drivers/lvgl/src/extra/widgets/keyboard/lv_keyboard.c ****     LV_KEYBOARD_CTRL_BTN_FLAGS | 2, LV_BTNMATRIX_CTRL_CHECKED | 2, 6, LV_BTNMATRIX_CTRL_CHECKED | 2
  86:Drivers/lvgl/src/extra/widgets/keyboard/lv_keyboard.c **** };
  87:Drivers/lvgl/src/extra/widgets/keyboard/lv_keyboard.c **** 
  88:Drivers/lvgl/src/extra/widgets/keyboard/lv_keyboard.c **** static const char * const default_kb_map_num[] = {"1", "2", "3", LV_SYMBOL_KEYBOARD, "\n",
ARM GAS  /var/folders/0z/tsy30v1j4xl4_7kw94k978ww0000gn/T//ccW5gjHE.s 			page 3


  89:Drivers/lvgl/src/extra/widgets/keyboard/lv_keyboard.c ****                                                   "4", "5", "6", LV_SYMBOL_OK, "\n",
  90:Drivers/lvgl/src/extra/widgets/keyboard/lv_keyboard.c ****                                                   "7", "8", "9", LV_SYMBOL_BACKSPACE, "\n",
  91:Drivers/lvgl/src/extra/widgets/keyboard/lv_keyboard.c ****                                                   "+/-", "0", ".", LV_SYMBOL_LEFT, LV_SYMBOL_RIGHT,
  92:Drivers/lvgl/src/extra/widgets/keyboard/lv_keyboard.c ****                                                  };
  93:Drivers/lvgl/src/extra/widgets/keyboard/lv_keyboard.c **** 
  94:Drivers/lvgl/src/extra/widgets/keyboard/lv_keyboard.c **** static const lv_btnmatrix_ctrl_t default_kb_ctrl_num_map[] = {
  95:Drivers/lvgl/src/extra/widgets/keyboard/lv_keyboard.c ****     1, 1, 1, LV_KEYBOARD_CTRL_BTN_FLAGS | 2,
  96:Drivers/lvgl/src/extra/widgets/keyboard/lv_keyboard.c ****     1, 1, 1, LV_KEYBOARD_CTRL_BTN_FLAGS | 2,
  97:Drivers/lvgl/src/extra/widgets/keyboard/lv_keyboard.c ****     1, 1, 1, 2,
  98:Drivers/lvgl/src/extra/widgets/keyboard/lv_keyboard.c ****     1, 1, 1, 1, 1
  99:Drivers/lvgl/src/extra/widgets/keyboard/lv_keyboard.c **** };
 100:Drivers/lvgl/src/extra/widgets/keyboard/lv_keyboard.c **** 
 101:Drivers/lvgl/src/extra/widgets/keyboard/lv_keyboard.c **** static const char * * kb_map[9] = {
 102:Drivers/lvgl/src/extra/widgets/keyboard/lv_keyboard.c ****     (const char * *)default_kb_map_lc,
 103:Drivers/lvgl/src/extra/widgets/keyboard/lv_keyboard.c ****     (const char * *)default_kb_map_uc,
 104:Drivers/lvgl/src/extra/widgets/keyboard/lv_keyboard.c ****     (const char * *)default_kb_map_spec,
 105:Drivers/lvgl/src/extra/widgets/keyboard/lv_keyboard.c ****     (const char * *)default_kb_map_num,
 106:Drivers/lvgl/src/extra/widgets/keyboard/lv_keyboard.c ****     (const char * *)default_kb_map_lc,
 107:Drivers/lvgl/src/extra/widgets/keyboard/lv_keyboard.c ****     (const char * *)default_kb_map_lc,
 108:Drivers/lvgl/src/extra/widgets/keyboard/lv_keyboard.c ****     (const char * *)default_kb_map_lc,
 109:Drivers/lvgl/src/extra/widgets/keyboard/lv_keyboard.c ****     (const char * *)default_kb_map_lc,
 110:Drivers/lvgl/src/extra/widgets/keyboard/lv_keyboard.c ****     (const char * *)NULL,
 111:Drivers/lvgl/src/extra/widgets/keyboard/lv_keyboard.c **** };
 112:Drivers/lvgl/src/extra/widgets/keyboard/lv_keyboard.c **** static const lv_btnmatrix_ctrl_t * kb_ctrl[9] = {
 113:Drivers/lvgl/src/extra/widgets/keyboard/lv_keyboard.c ****     default_kb_ctrl_lc_map,
 114:Drivers/lvgl/src/extra/widgets/keyboard/lv_keyboard.c ****     default_kb_ctrl_uc_map,
 115:Drivers/lvgl/src/extra/widgets/keyboard/lv_keyboard.c ****     default_kb_ctrl_spec_map,
 116:Drivers/lvgl/src/extra/widgets/keyboard/lv_keyboard.c ****     default_kb_ctrl_num_map,
 117:Drivers/lvgl/src/extra/widgets/keyboard/lv_keyboard.c ****     default_kb_ctrl_lc_map,
 118:Drivers/lvgl/src/extra/widgets/keyboard/lv_keyboard.c ****     default_kb_ctrl_lc_map,
 119:Drivers/lvgl/src/extra/widgets/keyboard/lv_keyboard.c ****     default_kb_ctrl_lc_map,
 120:Drivers/lvgl/src/extra/widgets/keyboard/lv_keyboard.c ****     default_kb_ctrl_lc_map,
 121:Drivers/lvgl/src/extra/widgets/keyboard/lv_keyboard.c ****     NULL,
 122:Drivers/lvgl/src/extra/widgets/keyboard/lv_keyboard.c **** };
 123:Drivers/lvgl/src/extra/widgets/keyboard/lv_keyboard.c **** 
 124:Drivers/lvgl/src/extra/widgets/keyboard/lv_keyboard.c **** /**********************
 125:Drivers/lvgl/src/extra/widgets/keyboard/lv_keyboard.c ****  *      MACROS
 126:Drivers/lvgl/src/extra/widgets/keyboard/lv_keyboard.c ****  **********************/
 127:Drivers/lvgl/src/extra/widgets/keyboard/lv_keyboard.c **** 
 128:Drivers/lvgl/src/extra/widgets/keyboard/lv_keyboard.c **** /**********************
 129:Drivers/lvgl/src/extra/widgets/keyboard/lv_keyboard.c ****  *   GLOBAL FUNCTIONS
 130:Drivers/lvgl/src/extra/widgets/keyboard/lv_keyboard.c ****  **********************/
 131:Drivers/lvgl/src/extra/widgets/keyboard/lv_keyboard.c **** 
 132:Drivers/lvgl/src/extra/widgets/keyboard/lv_keyboard.c **** /**
 133:Drivers/lvgl/src/extra/widgets/keyboard/lv_keyboard.c ****  * Create a Keyboard object
 134:Drivers/lvgl/src/extra/widgets/keyboard/lv_keyboard.c ****  * @param parent pointer to an object, it will be the parent of the new keyboard
 135:Drivers/lvgl/src/extra/widgets/keyboard/lv_keyboard.c ****  * @return pointer to the created keyboard
 136:Drivers/lvgl/src/extra/widgets/keyboard/lv_keyboard.c ****  */
 137:Drivers/lvgl/src/extra/widgets/keyboard/lv_keyboard.c **** lv_obj_t * lv_keyboard_create(lv_obj_t * parent)
 138:Drivers/lvgl/src/extra/widgets/keyboard/lv_keyboard.c **** {
 139:Drivers/lvgl/src/extra/widgets/keyboard/lv_keyboard.c ****     LV_LOG_INFO("begin");
 140:Drivers/lvgl/src/extra/widgets/keyboard/lv_keyboard.c ****     lv_obj_t * obj = lv_obj_class_create_obj(&lv_keyboard_class, parent);
 141:Drivers/lvgl/src/extra/widgets/keyboard/lv_keyboard.c ****     lv_obj_class_init_obj(obj);
 142:Drivers/lvgl/src/extra/widgets/keyboard/lv_keyboard.c ****     return obj;
 143:Drivers/lvgl/src/extra/widgets/keyboard/lv_keyboard.c **** }
 144:Drivers/lvgl/src/extra/widgets/keyboard/lv_keyboard.c **** 
 145:Drivers/lvgl/src/extra/widgets/keyboard/lv_keyboard.c **** /*=====================
ARM GAS  /var/folders/0z/tsy30v1j4xl4_7kw94k978ww0000gn/T//ccW5gjHE.s 			page 4


 146:Drivers/lvgl/src/extra/widgets/keyboard/lv_keyboard.c ****  * Setter functions
 147:Drivers/lvgl/src/extra/widgets/keyboard/lv_keyboard.c ****  *====================*/
 148:Drivers/lvgl/src/extra/widgets/keyboard/lv_keyboard.c **** 
 149:Drivers/lvgl/src/extra/widgets/keyboard/lv_keyboard.c **** /**
 150:Drivers/lvgl/src/extra/widgets/keyboard/lv_keyboard.c ****  * Assign a Text Area to the Keyboard. The pressed characters will be put there.
 151:Drivers/lvgl/src/extra/widgets/keyboard/lv_keyboard.c ****  * @param kb pointer to a Keyboard object
 152:Drivers/lvgl/src/extra/widgets/keyboard/lv_keyboard.c ****  * @param ta pointer to a Text Area object to write there
 153:Drivers/lvgl/src/extra/widgets/keyboard/lv_keyboard.c ****  */
 154:Drivers/lvgl/src/extra/widgets/keyboard/lv_keyboard.c **** void lv_keyboard_set_textarea(lv_obj_t * obj, lv_obj_t * ta)
 155:Drivers/lvgl/src/extra/widgets/keyboard/lv_keyboard.c **** {
 156:Drivers/lvgl/src/extra/widgets/keyboard/lv_keyboard.c ****     if(ta) {
 157:Drivers/lvgl/src/extra/widgets/keyboard/lv_keyboard.c ****         LV_ASSERT_OBJ(ta, &lv_textarea_class);
 158:Drivers/lvgl/src/extra/widgets/keyboard/lv_keyboard.c ****     }
 159:Drivers/lvgl/src/extra/widgets/keyboard/lv_keyboard.c **** 
 160:Drivers/lvgl/src/extra/widgets/keyboard/lv_keyboard.c ****     LV_ASSERT_OBJ(obj, MY_CLASS);
 161:Drivers/lvgl/src/extra/widgets/keyboard/lv_keyboard.c ****     lv_keyboard_t * keyboard = (lv_keyboard_t *)obj;
 162:Drivers/lvgl/src/extra/widgets/keyboard/lv_keyboard.c **** 
 163:Drivers/lvgl/src/extra/widgets/keyboard/lv_keyboard.c ****     /*Hide the cursor of the old Text area if cursor management is enabled*/
 164:Drivers/lvgl/src/extra/widgets/keyboard/lv_keyboard.c ****     if(keyboard->ta) {
 165:Drivers/lvgl/src/extra/widgets/keyboard/lv_keyboard.c ****         lv_obj_clear_state(obj, LV_STATE_FOCUSED);
 166:Drivers/lvgl/src/extra/widgets/keyboard/lv_keyboard.c ****     }
 167:Drivers/lvgl/src/extra/widgets/keyboard/lv_keyboard.c **** 
 168:Drivers/lvgl/src/extra/widgets/keyboard/lv_keyboard.c ****     keyboard->ta = ta;
 169:Drivers/lvgl/src/extra/widgets/keyboard/lv_keyboard.c **** 
 170:Drivers/lvgl/src/extra/widgets/keyboard/lv_keyboard.c ****     /*Show the cursor of the new Text area if cursor management is enabled*/
 171:Drivers/lvgl/src/extra/widgets/keyboard/lv_keyboard.c ****     if(keyboard->ta) {
 172:Drivers/lvgl/src/extra/widgets/keyboard/lv_keyboard.c ****         lv_obj_add_flag(obj, LV_STATE_FOCUSED);
 173:Drivers/lvgl/src/extra/widgets/keyboard/lv_keyboard.c ****     }
 174:Drivers/lvgl/src/extra/widgets/keyboard/lv_keyboard.c **** }
 175:Drivers/lvgl/src/extra/widgets/keyboard/lv_keyboard.c **** 
 176:Drivers/lvgl/src/extra/widgets/keyboard/lv_keyboard.c **** /**
 177:Drivers/lvgl/src/extra/widgets/keyboard/lv_keyboard.c ****  * Set a new a mode (text or number map)
 178:Drivers/lvgl/src/extra/widgets/keyboard/lv_keyboard.c ****  * @param kb pointer to a Keyboard object
 179:Drivers/lvgl/src/extra/widgets/keyboard/lv_keyboard.c ****  * @param mode the mode from 'lv_keyboard_mode_t'
 180:Drivers/lvgl/src/extra/widgets/keyboard/lv_keyboard.c ****  */
 181:Drivers/lvgl/src/extra/widgets/keyboard/lv_keyboard.c **** void lv_keyboard_set_mode(lv_obj_t * obj, lv_keyboard_mode_t mode)
 182:Drivers/lvgl/src/extra/widgets/keyboard/lv_keyboard.c **** {
 183:Drivers/lvgl/src/extra/widgets/keyboard/lv_keyboard.c ****     LV_ASSERT_OBJ(obj, MY_CLASS);
 184:Drivers/lvgl/src/extra/widgets/keyboard/lv_keyboard.c ****     lv_keyboard_t * keyboard = (lv_keyboard_t *)obj;
 185:Drivers/lvgl/src/extra/widgets/keyboard/lv_keyboard.c ****     if(keyboard->mode == mode) return;
 186:Drivers/lvgl/src/extra/widgets/keyboard/lv_keyboard.c **** 
 187:Drivers/lvgl/src/extra/widgets/keyboard/lv_keyboard.c ****     keyboard->mode = mode;
 188:Drivers/lvgl/src/extra/widgets/keyboard/lv_keyboard.c ****     lv_keyboard_update_map(obj);
 189:Drivers/lvgl/src/extra/widgets/keyboard/lv_keyboard.c **** }
 190:Drivers/lvgl/src/extra/widgets/keyboard/lv_keyboard.c **** 
 191:Drivers/lvgl/src/extra/widgets/keyboard/lv_keyboard.c **** /**
 192:Drivers/lvgl/src/extra/widgets/keyboard/lv_keyboard.c ****  * Show the button title in a popover when pressed.
 193:Drivers/lvgl/src/extra/widgets/keyboard/lv_keyboard.c ****  * @param kb pointer to a Keyboard object
 194:Drivers/lvgl/src/extra/widgets/keyboard/lv_keyboard.c ****  * @param en whether "popovers" mode is enabled
 195:Drivers/lvgl/src/extra/widgets/keyboard/lv_keyboard.c ****  */
 196:Drivers/lvgl/src/extra/widgets/keyboard/lv_keyboard.c **** void lv_keyboard_set_popovers(lv_obj_t * obj, bool en)
 197:Drivers/lvgl/src/extra/widgets/keyboard/lv_keyboard.c **** {
 198:Drivers/lvgl/src/extra/widgets/keyboard/lv_keyboard.c ****     lv_keyboard_t * keyboard = (lv_keyboard_t *)obj;
 199:Drivers/lvgl/src/extra/widgets/keyboard/lv_keyboard.c **** 
 200:Drivers/lvgl/src/extra/widgets/keyboard/lv_keyboard.c ****     if(keyboard->popovers == en) {
 201:Drivers/lvgl/src/extra/widgets/keyboard/lv_keyboard.c ****         return;
 202:Drivers/lvgl/src/extra/widgets/keyboard/lv_keyboard.c ****     }
ARM GAS  /var/folders/0z/tsy30v1j4xl4_7kw94k978ww0000gn/T//ccW5gjHE.s 			page 5


 203:Drivers/lvgl/src/extra/widgets/keyboard/lv_keyboard.c **** 
 204:Drivers/lvgl/src/extra/widgets/keyboard/lv_keyboard.c ****     keyboard->popovers = en;
 205:Drivers/lvgl/src/extra/widgets/keyboard/lv_keyboard.c ****     lv_keyboard_update_ctrl_map(obj);
 206:Drivers/lvgl/src/extra/widgets/keyboard/lv_keyboard.c **** }
 207:Drivers/lvgl/src/extra/widgets/keyboard/lv_keyboard.c **** 
 208:Drivers/lvgl/src/extra/widgets/keyboard/lv_keyboard.c **** /**
 209:Drivers/lvgl/src/extra/widgets/keyboard/lv_keyboard.c ****  * Set a new map for the keyboard
 210:Drivers/lvgl/src/extra/widgets/keyboard/lv_keyboard.c ****  * @param kb pointer to a Keyboard object
 211:Drivers/lvgl/src/extra/widgets/keyboard/lv_keyboard.c ****  * @param mode keyboard map to alter 'lv_keyboard_mode_t'
 212:Drivers/lvgl/src/extra/widgets/keyboard/lv_keyboard.c ****  * @param map pointer to a string array to describe the map.
 213:Drivers/lvgl/src/extra/widgets/keyboard/lv_keyboard.c ****  *            See 'lv_btnmatrix_set_map()' for more info.
 214:Drivers/lvgl/src/extra/widgets/keyboard/lv_keyboard.c ****  */
 215:Drivers/lvgl/src/extra/widgets/keyboard/lv_keyboard.c **** void lv_keyboard_set_map(lv_obj_t * obj, lv_keyboard_mode_t mode, const char * map[],
 216:Drivers/lvgl/src/extra/widgets/keyboard/lv_keyboard.c ****                          const lv_btnmatrix_ctrl_t ctrl_map[])
 217:Drivers/lvgl/src/extra/widgets/keyboard/lv_keyboard.c **** {
 218:Drivers/lvgl/src/extra/widgets/keyboard/lv_keyboard.c ****     kb_map[mode] = map;
 219:Drivers/lvgl/src/extra/widgets/keyboard/lv_keyboard.c ****     kb_ctrl[mode] = ctrl_map;
 220:Drivers/lvgl/src/extra/widgets/keyboard/lv_keyboard.c ****     lv_keyboard_update_map(obj);
 221:Drivers/lvgl/src/extra/widgets/keyboard/lv_keyboard.c **** }
 222:Drivers/lvgl/src/extra/widgets/keyboard/lv_keyboard.c **** 
 223:Drivers/lvgl/src/extra/widgets/keyboard/lv_keyboard.c **** /*=====================
 224:Drivers/lvgl/src/extra/widgets/keyboard/lv_keyboard.c ****  * Getter functions
 225:Drivers/lvgl/src/extra/widgets/keyboard/lv_keyboard.c ****  *====================*/
 226:Drivers/lvgl/src/extra/widgets/keyboard/lv_keyboard.c **** 
 227:Drivers/lvgl/src/extra/widgets/keyboard/lv_keyboard.c **** /**
 228:Drivers/lvgl/src/extra/widgets/keyboard/lv_keyboard.c ****  * Assign a Text Area to the Keyboard. The pressed characters will be put there.
 229:Drivers/lvgl/src/extra/widgets/keyboard/lv_keyboard.c ****  * @param kb pointer to a Keyboard object
 230:Drivers/lvgl/src/extra/widgets/keyboard/lv_keyboard.c ****  * @return pointer to the assigned Text Area object
 231:Drivers/lvgl/src/extra/widgets/keyboard/lv_keyboard.c ****  */
 232:Drivers/lvgl/src/extra/widgets/keyboard/lv_keyboard.c **** lv_obj_t * lv_keyboard_get_textarea(const lv_obj_t * obj)
 233:Drivers/lvgl/src/extra/widgets/keyboard/lv_keyboard.c **** {
 234:Drivers/lvgl/src/extra/widgets/keyboard/lv_keyboard.c ****     LV_ASSERT_OBJ(obj, MY_CLASS);
 235:Drivers/lvgl/src/extra/widgets/keyboard/lv_keyboard.c ****     lv_keyboard_t * keyboard = (lv_keyboard_t *)obj;
 236:Drivers/lvgl/src/extra/widgets/keyboard/lv_keyboard.c ****     return keyboard->ta;
 237:Drivers/lvgl/src/extra/widgets/keyboard/lv_keyboard.c **** }
 238:Drivers/lvgl/src/extra/widgets/keyboard/lv_keyboard.c **** 
 239:Drivers/lvgl/src/extra/widgets/keyboard/lv_keyboard.c **** /**
 240:Drivers/lvgl/src/extra/widgets/keyboard/lv_keyboard.c ****  * Set a new a mode (text or number map)
 241:Drivers/lvgl/src/extra/widgets/keyboard/lv_keyboard.c ****  * @param kb pointer to a Keyboard object
 242:Drivers/lvgl/src/extra/widgets/keyboard/lv_keyboard.c ****  * @return the current mode from 'lv_keyboard_mode_t'
 243:Drivers/lvgl/src/extra/widgets/keyboard/lv_keyboard.c ****  */
 244:Drivers/lvgl/src/extra/widgets/keyboard/lv_keyboard.c **** lv_keyboard_mode_t lv_keyboard_get_mode(const lv_obj_t * obj)
 245:Drivers/lvgl/src/extra/widgets/keyboard/lv_keyboard.c **** {
 246:Drivers/lvgl/src/extra/widgets/keyboard/lv_keyboard.c ****     LV_ASSERT_OBJ(obj, MY_CLASS);
 247:Drivers/lvgl/src/extra/widgets/keyboard/lv_keyboard.c ****     lv_keyboard_t * keyboard = (lv_keyboard_t *)obj;
 248:Drivers/lvgl/src/extra/widgets/keyboard/lv_keyboard.c ****     return keyboard->mode;
 249:Drivers/lvgl/src/extra/widgets/keyboard/lv_keyboard.c **** }
 250:Drivers/lvgl/src/extra/widgets/keyboard/lv_keyboard.c **** 
 251:Drivers/lvgl/src/extra/widgets/keyboard/lv_keyboard.c **** /**
 252:Drivers/lvgl/src/extra/widgets/keyboard/lv_keyboard.c ****  * Tell whether "popovers" mode is enabled or not.
 253:Drivers/lvgl/src/extra/widgets/keyboard/lv_keyboard.c ****  * @param kb pointer to a Keyboard object
 254:Drivers/lvgl/src/extra/widgets/keyboard/lv_keyboard.c ****  * @return true: "popovers" mode is enabled; false: disabled
 255:Drivers/lvgl/src/extra/widgets/keyboard/lv_keyboard.c ****  */
 256:Drivers/lvgl/src/extra/widgets/keyboard/lv_keyboard.c **** bool lv_btnmatrix_get_popovers(const lv_obj_t * obj)
 257:Drivers/lvgl/src/extra/widgets/keyboard/lv_keyboard.c **** {
 258:Drivers/lvgl/src/extra/widgets/keyboard/lv_keyboard.c ****     lv_keyboard_t * keyboard = (lv_keyboard_t *)obj;
 259:Drivers/lvgl/src/extra/widgets/keyboard/lv_keyboard.c ****     return keyboard->popovers;
ARM GAS  /var/folders/0z/tsy30v1j4xl4_7kw94k978ww0000gn/T//ccW5gjHE.s 			page 6


 260:Drivers/lvgl/src/extra/widgets/keyboard/lv_keyboard.c **** }
 261:Drivers/lvgl/src/extra/widgets/keyboard/lv_keyboard.c **** 
 262:Drivers/lvgl/src/extra/widgets/keyboard/lv_keyboard.c **** /*=====================
 263:Drivers/lvgl/src/extra/widgets/keyboard/lv_keyboard.c ****  * Other functions
 264:Drivers/lvgl/src/extra/widgets/keyboard/lv_keyboard.c ****  *====================*/
 265:Drivers/lvgl/src/extra/widgets/keyboard/lv_keyboard.c **** 
 266:Drivers/lvgl/src/extra/widgets/keyboard/lv_keyboard.c **** /**
 267:Drivers/lvgl/src/extra/widgets/keyboard/lv_keyboard.c ****  * Default keyboard event to add characters to the Text area and change the map.
 268:Drivers/lvgl/src/extra/widgets/keyboard/lv_keyboard.c ****  * If a custom `event_cb` is added to the keyboard this function can be called from it to handle th
 269:Drivers/lvgl/src/extra/widgets/keyboard/lv_keyboard.c ****  * button clicks
 270:Drivers/lvgl/src/extra/widgets/keyboard/lv_keyboard.c ****  * @param kb pointer to a keyboard
 271:Drivers/lvgl/src/extra/widgets/keyboard/lv_keyboard.c ****  * @param event the triggering event
 272:Drivers/lvgl/src/extra/widgets/keyboard/lv_keyboard.c ****  */
 273:Drivers/lvgl/src/extra/widgets/keyboard/lv_keyboard.c **** void lv_keyboard_def_event_cb(lv_event_t * e)
 274:Drivers/lvgl/src/extra/widgets/keyboard/lv_keyboard.c **** {
 275:Drivers/lvgl/src/extra/widgets/keyboard/lv_keyboard.c ****     lv_obj_t * obj = lv_event_get_target(e);
 276:Drivers/lvgl/src/extra/widgets/keyboard/lv_keyboard.c **** 
 277:Drivers/lvgl/src/extra/widgets/keyboard/lv_keyboard.c ****     LV_ASSERT_OBJ(obj, MY_CLASS);
 278:Drivers/lvgl/src/extra/widgets/keyboard/lv_keyboard.c ****     lv_keyboard_t * keyboard = (lv_keyboard_t *)obj;
 279:Drivers/lvgl/src/extra/widgets/keyboard/lv_keyboard.c ****     uint16_t btn_id   = lv_btnmatrix_get_selected_btn(obj);
 280:Drivers/lvgl/src/extra/widgets/keyboard/lv_keyboard.c ****     if(btn_id == LV_BTNMATRIX_BTN_NONE) return;
 281:Drivers/lvgl/src/extra/widgets/keyboard/lv_keyboard.c **** 
 282:Drivers/lvgl/src/extra/widgets/keyboard/lv_keyboard.c ****     const char * txt = lv_btnmatrix_get_btn_text(obj, lv_btnmatrix_get_selected_btn(obj));
 283:Drivers/lvgl/src/extra/widgets/keyboard/lv_keyboard.c ****     if(txt == NULL) return;
 284:Drivers/lvgl/src/extra/widgets/keyboard/lv_keyboard.c **** 
 285:Drivers/lvgl/src/extra/widgets/keyboard/lv_keyboard.c ****     if(strcmp(txt, "abc") == 0) {
 286:Drivers/lvgl/src/extra/widgets/keyboard/lv_keyboard.c ****         keyboard->mode = LV_KEYBOARD_MODE_TEXT_LOWER;
 287:Drivers/lvgl/src/extra/widgets/keyboard/lv_keyboard.c ****         lv_btnmatrix_set_map(obj, kb_map[LV_KEYBOARD_MODE_TEXT_LOWER]);
 288:Drivers/lvgl/src/extra/widgets/keyboard/lv_keyboard.c ****         lv_keyboard_update_ctrl_map(obj);
 289:Drivers/lvgl/src/extra/widgets/keyboard/lv_keyboard.c ****         return;
 290:Drivers/lvgl/src/extra/widgets/keyboard/lv_keyboard.c ****     }
 291:Drivers/lvgl/src/extra/widgets/keyboard/lv_keyboard.c ****     else if(strcmp(txt, "ABC") == 0) {
 292:Drivers/lvgl/src/extra/widgets/keyboard/lv_keyboard.c ****         keyboard->mode = LV_KEYBOARD_MODE_TEXT_UPPER;
 293:Drivers/lvgl/src/extra/widgets/keyboard/lv_keyboard.c ****         lv_btnmatrix_set_map(obj, kb_map[LV_KEYBOARD_MODE_TEXT_UPPER]);
 294:Drivers/lvgl/src/extra/widgets/keyboard/lv_keyboard.c ****         lv_keyboard_update_ctrl_map(obj);
 295:Drivers/lvgl/src/extra/widgets/keyboard/lv_keyboard.c ****         return;
 296:Drivers/lvgl/src/extra/widgets/keyboard/lv_keyboard.c ****     }
 297:Drivers/lvgl/src/extra/widgets/keyboard/lv_keyboard.c ****     else if(strcmp(txt, "1#") == 0) {
 298:Drivers/lvgl/src/extra/widgets/keyboard/lv_keyboard.c ****         keyboard->mode = LV_KEYBOARD_MODE_SPECIAL;
 299:Drivers/lvgl/src/extra/widgets/keyboard/lv_keyboard.c ****         lv_btnmatrix_set_map(obj, kb_map[LV_KEYBOARD_MODE_SPECIAL]);
 300:Drivers/lvgl/src/extra/widgets/keyboard/lv_keyboard.c ****         lv_keyboard_update_ctrl_map(obj);
 301:Drivers/lvgl/src/extra/widgets/keyboard/lv_keyboard.c ****         return;
 302:Drivers/lvgl/src/extra/widgets/keyboard/lv_keyboard.c ****     }
 303:Drivers/lvgl/src/extra/widgets/keyboard/lv_keyboard.c ****     else if(strcmp(txt, LV_SYMBOL_CLOSE) == 0 || strcmp(txt, LV_SYMBOL_KEYBOARD) == 0) {
 304:Drivers/lvgl/src/extra/widgets/keyboard/lv_keyboard.c ****         lv_res_t res = lv_event_send(obj, LV_EVENT_CANCEL, NULL);
 305:Drivers/lvgl/src/extra/widgets/keyboard/lv_keyboard.c ****         if(res != LV_RES_OK) return;
 306:Drivers/lvgl/src/extra/widgets/keyboard/lv_keyboard.c **** 
 307:Drivers/lvgl/src/extra/widgets/keyboard/lv_keyboard.c ****         if(keyboard->ta) {
 308:Drivers/lvgl/src/extra/widgets/keyboard/lv_keyboard.c ****             res = lv_event_send(keyboard->ta, LV_EVENT_CANCEL, NULL);
 309:Drivers/lvgl/src/extra/widgets/keyboard/lv_keyboard.c ****             if(res != LV_RES_OK) return;
 310:Drivers/lvgl/src/extra/widgets/keyboard/lv_keyboard.c ****         }
 311:Drivers/lvgl/src/extra/widgets/keyboard/lv_keyboard.c ****         return;
 312:Drivers/lvgl/src/extra/widgets/keyboard/lv_keyboard.c ****     }
 313:Drivers/lvgl/src/extra/widgets/keyboard/lv_keyboard.c ****     else if(strcmp(txt, LV_SYMBOL_OK) == 0) {
 314:Drivers/lvgl/src/extra/widgets/keyboard/lv_keyboard.c ****         lv_res_t res = lv_event_send(obj, LV_EVENT_READY, NULL);
 315:Drivers/lvgl/src/extra/widgets/keyboard/lv_keyboard.c ****         if(res != LV_RES_OK) return;
 316:Drivers/lvgl/src/extra/widgets/keyboard/lv_keyboard.c **** 
ARM GAS  /var/folders/0z/tsy30v1j4xl4_7kw94k978ww0000gn/T//ccW5gjHE.s 			page 7


 317:Drivers/lvgl/src/extra/widgets/keyboard/lv_keyboard.c ****         if(keyboard->ta) {
 318:Drivers/lvgl/src/extra/widgets/keyboard/lv_keyboard.c ****             res = lv_event_send(keyboard->ta, LV_EVENT_READY, NULL);
 319:Drivers/lvgl/src/extra/widgets/keyboard/lv_keyboard.c ****             if(res != LV_RES_OK) return;
 320:Drivers/lvgl/src/extra/widgets/keyboard/lv_keyboard.c ****         }
 321:Drivers/lvgl/src/extra/widgets/keyboard/lv_keyboard.c ****         return;
 322:Drivers/lvgl/src/extra/widgets/keyboard/lv_keyboard.c ****     }
 323:Drivers/lvgl/src/extra/widgets/keyboard/lv_keyboard.c **** 
 324:Drivers/lvgl/src/extra/widgets/keyboard/lv_keyboard.c ****     /*Add the characters to the text area if set*/
 325:Drivers/lvgl/src/extra/widgets/keyboard/lv_keyboard.c ****     if(keyboard->ta == NULL) return;
 326:Drivers/lvgl/src/extra/widgets/keyboard/lv_keyboard.c **** 
 327:Drivers/lvgl/src/extra/widgets/keyboard/lv_keyboard.c ****     if(strcmp(txt, "Enter") == 0 || strcmp(txt, LV_SYMBOL_NEW_LINE) == 0) {
 328:Drivers/lvgl/src/extra/widgets/keyboard/lv_keyboard.c ****         lv_textarea_add_char(keyboard->ta, '\n');
 329:Drivers/lvgl/src/extra/widgets/keyboard/lv_keyboard.c ****         if(lv_textarea_get_one_line(keyboard->ta)) {
 330:Drivers/lvgl/src/extra/widgets/keyboard/lv_keyboard.c ****             lv_res_t res = lv_event_send(keyboard->ta, LV_EVENT_READY, NULL);
 331:Drivers/lvgl/src/extra/widgets/keyboard/lv_keyboard.c ****             if(res != LV_RES_OK) return;
 332:Drivers/lvgl/src/extra/widgets/keyboard/lv_keyboard.c ****         }
 333:Drivers/lvgl/src/extra/widgets/keyboard/lv_keyboard.c ****     }
 334:Drivers/lvgl/src/extra/widgets/keyboard/lv_keyboard.c ****     else if(strcmp(txt, LV_SYMBOL_LEFT) == 0) {
 335:Drivers/lvgl/src/extra/widgets/keyboard/lv_keyboard.c ****         lv_textarea_cursor_left(keyboard->ta);
 336:Drivers/lvgl/src/extra/widgets/keyboard/lv_keyboard.c ****     }
 337:Drivers/lvgl/src/extra/widgets/keyboard/lv_keyboard.c ****     else if(strcmp(txt, LV_SYMBOL_RIGHT) == 0) {
 338:Drivers/lvgl/src/extra/widgets/keyboard/lv_keyboard.c ****         lv_textarea_cursor_right(keyboard->ta);
 339:Drivers/lvgl/src/extra/widgets/keyboard/lv_keyboard.c ****     }
 340:Drivers/lvgl/src/extra/widgets/keyboard/lv_keyboard.c ****     else if(strcmp(txt, LV_SYMBOL_BACKSPACE) == 0) {
 341:Drivers/lvgl/src/extra/widgets/keyboard/lv_keyboard.c ****         lv_textarea_del_char(keyboard->ta);
 342:Drivers/lvgl/src/extra/widgets/keyboard/lv_keyboard.c ****     }
 343:Drivers/lvgl/src/extra/widgets/keyboard/lv_keyboard.c ****     else if(strcmp(txt, "+/-") == 0) {
 344:Drivers/lvgl/src/extra/widgets/keyboard/lv_keyboard.c ****         uint16_t cur        = lv_textarea_get_cursor_pos(keyboard->ta);
 345:Drivers/lvgl/src/extra/widgets/keyboard/lv_keyboard.c ****         const char * ta_txt = lv_textarea_get_text(keyboard->ta);
 346:Drivers/lvgl/src/extra/widgets/keyboard/lv_keyboard.c ****         if(ta_txt[0] == '-') {
 347:Drivers/lvgl/src/extra/widgets/keyboard/lv_keyboard.c ****             lv_textarea_set_cursor_pos(keyboard->ta, 1);
 348:Drivers/lvgl/src/extra/widgets/keyboard/lv_keyboard.c ****             lv_textarea_del_char(keyboard->ta);
 349:Drivers/lvgl/src/extra/widgets/keyboard/lv_keyboard.c ****             lv_textarea_add_char(keyboard->ta, '+');
 350:Drivers/lvgl/src/extra/widgets/keyboard/lv_keyboard.c ****             lv_textarea_set_cursor_pos(keyboard->ta, cur);
 351:Drivers/lvgl/src/extra/widgets/keyboard/lv_keyboard.c ****         }
 352:Drivers/lvgl/src/extra/widgets/keyboard/lv_keyboard.c ****         else if(ta_txt[0] == '+') {
 353:Drivers/lvgl/src/extra/widgets/keyboard/lv_keyboard.c ****             lv_textarea_set_cursor_pos(keyboard->ta, 1);
 354:Drivers/lvgl/src/extra/widgets/keyboard/lv_keyboard.c ****             lv_textarea_del_char(keyboard->ta);
 355:Drivers/lvgl/src/extra/widgets/keyboard/lv_keyboard.c ****             lv_textarea_add_char(keyboard->ta, '-');
 356:Drivers/lvgl/src/extra/widgets/keyboard/lv_keyboard.c ****             lv_textarea_set_cursor_pos(keyboard->ta, cur);
 357:Drivers/lvgl/src/extra/widgets/keyboard/lv_keyboard.c ****         }
 358:Drivers/lvgl/src/extra/widgets/keyboard/lv_keyboard.c ****         else {
 359:Drivers/lvgl/src/extra/widgets/keyboard/lv_keyboard.c ****             lv_textarea_set_cursor_pos(keyboard->ta, 0);
 360:Drivers/lvgl/src/extra/widgets/keyboard/lv_keyboard.c ****             lv_textarea_add_char(keyboard->ta, '-');
 361:Drivers/lvgl/src/extra/widgets/keyboard/lv_keyboard.c ****             lv_textarea_set_cursor_pos(keyboard->ta, cur + 1);
 362:Drivers/lvgl/src/extra/widgets/keyboard/lv_keyboard.c ****         }
 363:Drivers/lvgl/src/extra/widgets/keyboard/lv_keyboard.c ****     }
 364:Drivers/lvgl/src/extra/widgets/keyboard/lv_keyboard.c ****     else {
 365:Drivers/lvgl/src/extra/widgets/keyboard/lv_keyboard.c ****         lv_textarea_add_text(keyboard->ta, txt);
 366:Drivers/lvgl/src/extra/widgets/keyboard/lv_keyboard.c ****     }
 367:Drivers/lvgl/src/extra/widgets/keyboard/lv_keyboard.c **** }
 368:Drivers/lvgl/src/extra/widgets/keyboard/lv_keyboard.c **** 
 369:Drivers/lvgl/src/extra/widgets/keyboard/lv_keyboard.c **** /**********************
 370:Drivers/lvgl/src/extra/widgets/keyboard/lv_keyboard.c ****  *   STATIC FUNCTIONS
 371:Drivers/lvgl/src/extra/widgets/keyboard/lv_keyboard.c ****  **********************/
 372:Drivers/lvgl/src/extra/widgets/keyboard/lv_keyboard.c **** 
 373:Drivers/lvgl/src/extra/widgets/keyboard/lv_keyboard.c **** static void lv_keyboard_constructor(const lv_obj_class_t * class_p, lv_obj_t * obj)
ARM GAS  /var/folders/0z/tsy30v1j4xl4_7kw94k978ww0000gn/T//ccW5gjHE.s 			page 8


 374:Drivers/lvgl/src/extra/widgets/keyboard/lv_keyboard.c **** {
 375:Drivers/lvgl/src/extra/widgets/keyboard/lv_keyboard.c ****     LV_UNUSED(class_p);
 376:Drivers/lvgl/src/extra/widgets/keyboard/lv_keyboard.c ****     lv_obj_clear_flag(obj, LV_OBJ_FLAG_CLICK_FOCUSABLE);
 377:Drivers/lvgl/src/extra/widgets/keyboard/lv_keyboard.c **** 
 378:Drivers/lvgl/src/extra/widgets/keyboard/lv_keyboard.c ****     lv_keyboard_t * keyboard = (lv_keyboard_t *)obj;
 379:Drivers/lvgl/src/extra/widgets/keyboard/lv_keyboard.c ****     keyboard->ta         = NULL;
 380:Drivers/lvgl/src/extra/widgets/keyboard/lv_keyboard.c ****     keyboard->mode       = LV_KEYBOARD_MODE_TEXT_LOWER;
 381:Drivers/lvgl/src/extra/widgets/keyboard/lv_keyboard.c ****     keyboard->popovers   = 0;
 382:Drivers/lvgl/src/extra/widgets/keyboard/lv_keyboard.c **** 
 383:Drivers/lvgl/src/extra/widgets/keyboard/lv_keyboard.c ****     lv_obj_align(obj, LV_ALIGN_BOTTOM_MID, 0, 0);
 384:Drivers/lvgl/src/extra/widgets/keyboard/lv_keyboard.c ****     lv_obj_add_event_cb(obj, lv_keyboard_def_event_cb, LV_EVENT_VALUE_CHANGED, NULL);
 385:Drivers/lvgl/src/extra/widgets/keyboard/lv_keyboard.c ****     lv_obj_set_style_base_dir(obj, LV_BASE_DIR_LTR, 0);
 386:Drivers/lvgl/src/extra/widgets/keyboard/lv_keyboard.c **** 
 387:Drivers/lvgl/src/extra/widgets/keyboard/lv_keyboard.c ****     lv_keyboard_update_map(obj);
 388:Drivers/lvgl/src/extra/widgets/keyboard/lv_keyboard.c **** }
 389:Drivers/lvgl/src/extra/widgets/keyboard/lv_keyboard.c **** 
 390:Drivers/lvgl/src/extra/widgets/keyboard/lv_keyboard.c **** /**
 391:Drivers/lvgl/src/extra/widgets/keyboard/lv_keyboard.c ****  * Update the key and control map for the current mode
 392:Drivers/lvgl/src/extra/widgets/keyboard/lv_keyboard.c ****  * @param obj pointer to a keyboard object
 393:Drivers/lvgl/src/extra/widgets/keyboard/lv_keyboard.c ****  */
 394:Drivers/lvgl/src/extra/widgets/keyboard/lv_keyboard.c **** static void lv_keyboard_update_map(lv_obj_t * obj)
 395:Drivers/lvgl/src/extra/widgets/keyboard/lv_keyboard.c **** {
 396:Drivers/lvgl/src/extra/widgets/keyboard/lv_keyboard.c ****     lv_keyboard_t * keyboard = (lv_keyboard_t *)obj;
 397:Drivers/lvgl/src/extra/widgets/keyboard/lv_keyboard.c ****     lv_btnmatrix_set_map(obj, kb_map[keyboard->mode]);
 398:Drivers/lvgl/src/extra/widgets/keyboard/lv_keyboard.c ****     lv_keyboard_update_ctrl_map(obj);
 399:Drivers/lvgl/src/extra/widgets/keyboard/lv_keyboard.c **** }
 400:Drivers/lvgl/src/extra/widgets/keyboard/lv_keyboard.c **** 
 401:Drivers/lvgl/src/extra/widgets/keyboard/lv_keyboard.c **** /**
 402:Drivers/lvgl/src/extra/widgets/keyboard/lv_keyboard.c ****  * Update the control map for the current mode
 403:Drivers/lvgl/src/extra/widgets/keyboard/lv_keyboard.c ****  * @param obj pointer to a keyboard object
 404:Drivers/lvgl/src/extra/widgets/keyboard/lv_keyboard.c ****  */
 405:Drivers/lvgl/src/extra/widgets/keyboard/lv_keyboard.c **** static void lv_keyboard_update_ctrl_map(lv_obj_t * obj)
 406:Drivers/lvgl/src/extra/widgets/keyboard/lv_keyboard.c **** {
  28              		.loc 1 406 1 view -0
  29              		.cfi_startproc
  30              		@ args = 0, pretend = 0, frame = 0
  31              		@ frame_needed = 0, uses_anonymous_args = 0
 407:Drivers/lvgl/src/extra/widgets/keyboard/lv_keyboard.c ****     lv_keyboard_t * keyboard = (lv_keyboard_t *)obj;
  32              		.loc 1 407 5 view .LVU1
 408:Drivers/lvgl/src/extra/widgets/keyboard/lv_keyboard.c **** 
 409:Drivers/lvgl/src/extra/widgets/keyboard/lv_keyboard.c ****     if(keyboard->popovers) {
  33              		.loc 1 409 8 is_stmt 0 view .LVU2
  34 0000 90F83D30 		ldrb	r3, [r0, #61]	@ zero_extendqisi2
 406:Drivers/lvgl/src/extra/widgets/keyboard/lv_keyboard.c ****     lv_keyboard_t * keyboard = (lv_keyboard_t *)obj;
  35              		.loc 1 406 1 view .LVU3
  36 0004 70B5     		push	{r4, r5, r6, lr}
  37              		.cfi_def_cfa_offset 16
  38              		.cfi_offset 4, -16
  39              		.cfi_offset 5, -12
  40              		.cfi_offset 6, -8
  41              		.cfi_offset 14, -4
  42              		.loc 1 409 7 view .LVU4
  43 0006 13F00104 		ands	r4, r3, #1
 406:Drivers/lvgl/src/extra/widgets/keyboard/lv_keyboard.c ****     lv_keyboard_t * keyboard = (lv_keyboard_t *)obj;
  44              		.loc 1 406 1 view .LVU5
  45 000a 0546     		mov	r5, r0
  46              	.LVL1:
ARM GAS  /var/folders/0z/tsy30v1j4xl4_7kw94k978ww0000gn/T//ccW5gjHE.s 			page 9


  47              		.loc 1 409 5 is_stmt 1 view .LVU6
  48              		.loc 1 409 7 is_stmt 0 view .LVU7
  49 000c 08D0     		beq	.L2
 410:Drivers/lvgl/src/extra/widgets/keyboard/lv_keyboard.c ****         /*Apply the current control map (already includes LV_BTNMATRIX_CTRL_POPOVER flags)*/
 411:Drivers/lvgl/src/extra/widgets/keyboard/lv_keyboard.c ****         lv_btnmatrix_set_ctrl_map(obj, kb_ctrl[keyboard->mode]);
  50              		.loc 1 411 9 is_stmt 1 view .LVU8
  51 000e 174B     		ldr	r3, .L11
  52              		.loc 1 411 56 is_stmt 0 view .LVU9
  53 0010 90F83C20 		ldrb	r2, [r0, #60]	@ zero_extendqisi2
 412:Drivers/lvgl/src/extra/widgets/keyboard/lv_keyboard.c ****     }
 413:Drivers/lvgl/src/extra/widgets/keyboard/lv_keyboard.c ****     else {
 414:Drivers/lvgl/src/extra/widgets/keyboard/lv_keyboard.c ****         /*Make a copy of the current control map*/
 415:Drivers/lvgl/src/extra/widgets/keyboard/lv_keyboard.c ****         lv_btnmatrix_t * btnm = (lv_btnmatrix_t *)obj;
 416:Drivers/lvgl/src/extra/widgets/keyboard/lv_keyboard.c ****         lv_btnmatrix_ctrl_t * ctrl_map = lv_mem_alloc(btnm->btn_cnt * sizeof(lv_btnmatrix_ctrl_t));
 417:Drivers/lvgl/src/extra/widgets/keyboard/lv_keyboard.c ****         lv_memcpy(ctrl_map, kb_ctrl[keyboard->mode], sizeof(lv_btnmatrix_ctrl_t) * btnm->btn_cnt);
 418:Drivers/lvgl/src/extra/widgets/keyboard/lv_keyboard.c **** 
 419:Drivers/lvgl/src/extra/widgets/keyboard/lv_keyboard.c ****         /*Remove all LV_BTNMATRIX_CTRL_POPOVER flags*/
 420:Drivers/lvgl/src/extra/widgets/keyboard/lv_keyboard.c ****         for(uint16_t i = 0; i < btnm->btn_cnt; i++) {
 421:Drivers/lvgl/src/extra/widgets/keyboard/lv_keyboard.c ****             ctrl_map[i] &= (~LV_BTNMATRIX_CTRL_POPOVER);
 422:Drivers/lvgl/src/extra/widgets/keyboard/lv_keyboard.c ****         }
 423:Drivers/lvgl/src/extra/widgets/keyboard/lv_keyboard.c **** 
 424:Drivers/lvgl/src/extra/widgets/keyboard/lv_keyboard.c ****         /*Apply new control map and clean up*/
 425:Drivers/lvgl/src/extra/widgets/keyboard/lv_keyboard.c ****         lv_btnmatrix_set_ctrl_map(obj, ctrl_map);
 426:Drivers/lvgl/src/extra/widgets/keyboard/lv_keyboard.c ****         lv_mem_free(ctrl_map);
 427:Drivers/lvgl/src/extra/widgets/keyboard/lv_keyboard.c ****     }
 428:Drivers/lvgl/src/extra/widgets/keyboard/lv_keyboard.c **** }
  54              		.loc 1 428 1 view .LVU10
  55 0014 BDE87040 		pop	{r4, r5, r6, lr}
  56              		.cfi_remember_state
  57              		.cfi_restore 14
  58              		.cfi_restore 6
  59              		.cfi_restore 5
  60              		.cfi_restore 4
  61              		.cfi_def_cfa_offset 0
 411:Drivers/lvgl/src/extra/widgets/keyboard/lv_keyboard.c ****     }
  62              		.loc 1 411 9 view .LVU11
  63 0018 53F82210 		ldr	r1, [r3, r2, lsl #2]
  64 001c FFF7FEBF 		b	lv_btnmatrix_set_ctrl_map
  65              	.LVL2:
  66              	.L2:
  67              		.cfi_restore_state
  68              	.LBB8:
  69              	.LBI8:
 405:Drivers/lvgl/src/extra/widgets/keyboard/lv_keyboard.c **** {
  70              		.loc 1 405 13 is_stmt 1 view .LVU12
  71              	.LBB9:
  72              	.LBB10:
 415:Drivers/lvgl/src/extra/widgets/keyboard/lv_keyboard.c ****         lv_btnmatrix_ctrl_t * ctrl_map = lv_mem_alloc(btnm->btn_cnt * sizeof(lv_btnmatrix_ctrl_t));
  73              		.loc 1 415 9 view .LVU13
 416:Drivers/lvgl/src/extra/widgets/keyboard/lv_keyboard.c ****         lv_memcpy(ctrl_map, kb_ctrl[keyboard->mode], sizeof(lv_btnmatrix_ctrl_t) * btnm->btn_cnt);
  74              		.loc 1 416 9 view .LVU14
 416:Drivers/lvgl/src/extra/widgets/keyboard/lv_keyboard.c ****         lv_memcpy(ctrl_map, kb_ctrl[keyboard->mode], sizeof(lv_btnmatrix_ctrl_t) * btnm->btn_cnt);
  75              		.loc 1 416 59 is_stmt 0 view .LVU15
  76 0020 008E     		ldrh	r0, [r0, #48]
  77              	.LVL3:
 416:Drivers/lvgl/src/extra/widgets/keyboard/lv_keyboard.c ****         lv_memcpy(ctrl_map, kb_ctrl[keyboard->mode], sizeof(lv_btnmatrix_ctrl_t) * btnm->btn_cnt);
  78              		.loc 1 416 42 view .LVU16
ARM GAS  /var/folders/0z/tsy30v1j4xl4_7kw94k978ww0000gn/T//ccW5gjHE.s 			page 10


  79 0022 4000     		lsls	r0, r0, #1
  80 0024 FFF7FEFF 		bl	lv_mem_alloc
  81              	.LVL4:
 417:Drivers/lvgl/src/extra/widgets/keyboard/lv_keyboard.c **** 
  82              		.loc 1 417 36 view .LVU17
  83 0028 104B     		ldr	r3, .L11
 417:Drivers/lvgl/src/extra/widgets/keyboard/lv_keyboard.c **** 
  84              		.loc 1 417 88 view .LVU18
  85 002a 2A8E     		ldrh	r2, [r5, #48]
 417:Drivers/lvgl/src/extra/widgets/keyboard/lv_keyboard.c **** 
  86              		.loc 1 417 45 view .LVU19
  87 002c 95F83C10 		ldrb	r1, [r5, #60]	@ zero_extendqisi2
 417:Drivers/lvgl/src/extra/widgets/keyboard/lv_keyboard.c **** 
  88              		.loc 1 417 9 view .LVU20
  89 0030 5200     		lsls	r2, r2, #1
  90 0032 53F82110 		ldr	r1, [r3, r1, lsl #2]
 416:Drivers/lvgl/src/extra/widgets/keyboard/lv_keyboard.c ****         lv_memcpy(ctrl_map, kb_ctrl[keyboard->mode], sizeof(lv_btnmatrix_ctrl_t) * btnm->btn_cnt);
  91              		.loc 1 416 42 view .LVU21
  92 0036 0646     		mov	r6, r0
  93              	.LVL5:
 417:Drivers/lvgl/src/extra/widgets/keyboard/lv_keyboard.c **** 
  94              		.loc 1 417 9 is_stmt 1 view .LVU22
  95 0038 FFF7FEFF 		bl	lv_memcpy
  96              	.LVL6:
 420:Drivers/lvgl/src/extra/widgets/keyboard/lv_keyboard.c ****             ctrl_map[i] &= (~LV_BTNMATRIX_CTRL_POPOVER);
  97              		.loc 1 420 9 view .LVU23
  98              	.LBB11:
 420:Drivers/lvgl/src/extra/widgets/keyboard/lv_keyboard.c ****             ctrl_map[i] &= (~LV_BTNMATRIX_CTRL_POPOVER);
  99              		.loc 1 420 13 view .LVU24
 420:Drivers/lvgl/src/extra/widgets/keyboard/lv_keyboard.c ****             ctrl_map[i] &= (~LV_BTNMATRIX_CTRL_POPOVER);
 100              		.loc 1 420 31 view .LVU25
 101 003c 2B8E     		ldrh	r3, [r5, #48]
 102 003e 63B1     		cbz	r3, .L3
 103 0040 2346     		mov	r3, r4
 104              	.LVL7:
 105              	.L4:
 421:Drivers/lvgl/src/extra/widgets/keyboard/lv_keyboard.c ****         }
 106              		.loc 1 421 13 view .LVU26
 421:Drivers/lvgl/src/extra/widgets/keyboard/lv_keyboard.c ****         }
 107              		.loc 1 421 25 is_stmt 0 view .LVU27
 108 0042 99B2     		uxth	r1, r3
 420:Drivers/lvgl/src/extra/widgets/keyboard/lv_keyboard.c ****             ctrl_map[i] &= (~LV_BTNMATRIX_CTRL_POPOVER);
 109              		.loc 1 420 31 view .LVU28
 110 0044 0133     		adds	r3, r3, #1
 111              	.LVL8:
 421:Drivers/lvgl/src/extra/widgets/keyboard/lv_keyboard.c ****         }
 112              		.loc 1 421 25 view .LVU29
 113 0046 36F81120 		ldrh	r2, [r6, r1, lsl #1]
 114 004a 22F48062 		bic	r2, r2, #1024
 115 004e 26F81120 		strh	r2, [r6, r1, lsl #1]	@ movhi
 420:Drivers/lvgl/src/extra/widgets/keyboard/lv_keyboard.c ****             ctrl_map[i] &= (~LV_BTNMATRIX_CTRL_POPOVER);
 116              		.loc 1 420 49 is_stmt 1 view .LVU30
 117              	.LVL9:
 420:Drivers/lvgl/src/extra/widgets/keyboard/lv_keyboard.c ****             ctrl_map[i] &= (~LV_BTNMATRIX_CTRL_POPOVER);
 118              		.loc 1 420 31 view .LVU31
 119 0052 2A8E     		ldrh	r2, [r5, #48]
 120 0054 98B2     		uxth	r0, r3
ARM GAS  /var/folders/0z/tsy30v1j4xl4_7kw94k978ww0000gn/T//ccW5gjHE.s 			page 11


 121 0056 8242     		cmp	r2, r0
 122 0058 F3D8     		bhi	.L4
 123              	.L3:
 420:Drivers/lvgl/src/extra/widgets/keyboard/lv_keyboard.c ****             ctrl_map[i] &= (~LV_BTNMATRIX_CTRL_POPOVER);
 124              		.loc 1 420 31 is_stmt 0 view .LVU32
 125              	.LBE11:
 425:Drivers/lvgl/src/extra/widgets/keyboard/lv_keyboard.c ****         lv_mem_free(ctrl_map);
 126              		.loc 1 425 9 is_stmt 1 view .LVU33
 127 005a 2846     		mov	r0, r5
 128 005c 3146     		mov	r1, r6
 129 005e FFF7FEFF 		bl	lv_btnmatrix_set_ctrl_map
 130              	.LVL10:
 426:Drivers/lvgl/src/extra/widgets/keyboard/lv_keyboard.c ****     }
 131              		.loc 1 426 9 view .LVU34
 132 0062 3046     		mov	r0, r6
 133              	.LBE10:
 134              	.LBE9:
 135              	.LBE8:
 136              		.loc 1 428 1 is_stmt 0 view .LVU35
 137 0064 BDE87040 		pop	{r4, r5, r6, lr}
 138              		.cfi_restore 14
 139              		.cfi_restore 6
 140              		.cfi_restore 5
 141              		.cfi_restore 4
 142              		.cfi_def_cfa_offset 0
 143              	.LVL11:
 144              	.LBB14:
 145              	.LBB13:
 146              	.LBB12:
 426:Drivers/lvgl/src/extra/widgets/keyboard/lv_keyboard.c ****     }
 147              		.loc 1 426 9 view .LVU36
 148 0068 FFF7FEBF 		b	lv_mem_free
 149              	.LVL12:
 150              	.L12:
 426:Drivers/lvgl/src/extra/widgets/keyboard/lv_keyboard.c ****     }
 151              		.loc 1 426 9 view .LVU37
 152              		.align	2
 153              	.L11:
 154 006c 00000000 		.word	.LANCHOR0
 155              	.LBE12:
 156              	.LBE13:
 157              	.LBE14:
 158              		.cfi_endproc
 159              	.LFE175:
 161              		.section	.text.lv_keyboard_constructor,"ax",%progbits
 162              		.align	1
 163              		.p2align 2,,3
 164              		.syntax unified
 165              		.thumb
 166              		.thumb_func
 168              	lv_keyboard_constructor:
 169              	.LVL13:
 170              	.LFB173:
 374:Drivers/lvgl/src/extra/widgets/keyboard/lv_keyboard.c ****     LV_UNUSED(class_p);
 171              		.loc 1 374 1 is_stmt 1 view -0
 172              		.cfi_startproc
 173              		@ args = 0, pretend = 0, frame = 0
ARM GAS  /var/folders/0z/tsy30v1j4xl4_7kw94k978ww0000gn/T//ccW5gjHE.s 			page 12


 174              		@ frame_needed = 0, uses_anonymous_args = 0
 375:Drivers/lvgl/src/extra/widgets/keyboard/lv_keyboard.c ****     lv_obj_clear_flag(obj, LV_OBJ_FLAG_CLICK_FOCUSABLE);
 175              		.loc 1 375 5 view .LVU39
 376:Drivers/lvgl/src/extra/widgets/keyboard/lv_keyboard.c **** 
 176              		.loc 1 376 5 view .LVU40
 374:Drivers/lvgl/src/extra/widgets/keyboard/lv_keyboard.c ****     LV_UNUSED(class_p);
 177              		.loc 1 374 1 is_stmt 0 view .LVU41
 178 0000 38B5     		push	{r3, r4, r5, lr}
 179              		.cfi_def_cfa_offset 16
 180              		.cfi_offset 3, -16
 181              		.cfi_offset 4, -12
 182              		.cfi_offset 5, -8
 183              		.cfi_offset 14, -4
 374:Drivers/lvgl/src/extra/widgets/keyboard/lv_keyboard.c ****     LV_UNUSED(class_p);
 184              		.loc 1 374 1 view .LVU42
 185 0002 0C46     		mov	r4, r1
 376:Drivers/lvgl/src/extra/widgets/keyboard/lv_keyboard.c **** 
 186              		.loc 1 376 5 view .LVU43
 187 0004 2046     		mov	r0, r4
 188              	.LVL14:
 376:Drivers/lvgl/src/extra/widgets/keyboard/lv_keyboard.c **** 
 189              		.loc 1 376 5 view .LVU44
 190 0006 0421     		movs	r1, #4
 191              	.LVL15:
 376:Drivers/lvgl/src/extra/widgets/keyboard/lv_keyboard.c **** 
 192              		.loc 1 376 5 view .LVU45
 193 0008 FFF7FEFF 		bl	lv_obj_clear_flag
 194              	.LVL16:
 378:Drivers/lvgl/src/extra/widgets/keyboard/lv_keyboard.c ****     keyboard->ta         = NULL;
 195              		.loc 1 378 5 is_stmt 1 view .LVU46
 379:Drivers/lvgl/src/extra/widgets/keyboard/lv_keyboard.c ****     keyboard->mode       = LV_KEYBOARD_MODE_TEXT_LOWER;
 196              		.loc 1 379 5 view .LVU47
 380:Drivers/lvgl/src/extra/widgets/keyboard/lv_keyboard.c ****     keyboard->popovers   = 0;
 197              		.loc 1 380 5 view .LVU48
 381:Drivers/lvgl/src/extra/widgets/keyboard/lv_keyboard.c **** 
 198              		.loc 1 381 5 view .LVU49
 380:Drivers/lvgl/src/extra/widgets/keyboard/lv_keyboard.c ****     keyboard->popovers   = 0;
 199              		.loc 1 380 26 is_stmt 0 view .LVU50
 200 000c A38F     		ldrh	r3, [r4, #60]
 201 000e 23F4FF73 		bic	r3, r3, #510
 379:Drivers/lvgl/src/extra/widgets/keyboard/lv_keyboard.c ****     keyboard->mode       = LV_KEYBOARD_MODE_TEXT_LOWER;
 202              		.loc 1 379 26 view .LVU51
 203 0012 0025     		movs	r5, #0
 380:Drivers/lvgl/src/extra/widgets/keyboard/lv_keyboard.c ****     keyboard->popovers   = 0;
 204              		.loc 1 380 26 view .LVU52
 205 0014 23F00103 		bic	r3, r3, #1
 383:Drivers/lvgl/src/extra/widgets/keyboard/lv_keyboard.c ****     lv_obj_add_event_cb(obj, lv_keyboard_def_event_cb, LV_EVENT_VALUE_CHANGED, NULL);
 206              		.loc 1 383 5 view .LVU53
 207 0018 2A46     		mov	r2, r5
 380:Drivers/lvgl/src/extra/widgets/keyboard/lv_keyboard.c ****     keyboard->popovers   = 0;
 208              		.loc 1 380 26 view .LVU54
 209 001a A387     		strh	r3, [r4, #60]	@ movhi
 383:Drivers/lvgl/src/extra/widgets/keyboard/lv_keyboard.c ****     lv_obj_add_event_cb(obj, lv_keyboard_def_event_cb, LV_EVENT_VALUE_CHANGED, NULL);
 210              		.loc 1 383 5 is_stmt 1 view .LVU55
 211 001c 2046     		mov	r0, r4
 212 001e 2B46     		mov	r3, r5
 213 0020 0521     		movs	r1, #5
ARM GAS  /var/folders/0z/tsy30v1j4xl4_7kw94k978ww0000gn/T//ccW5gjHE.s 			page 13


 379:Drivers/lvgl/src/extra/widgets/keyboard/lv_keyboard.c ****     keyboard->mode       = LV_KEYBOARD_MODE_TEXT_LOWER;
 214              		.loc 1 379 26 is_stmt 0 view .LVU56
 215 0022 A563     		str	r5, [r4, #56]
 383:Drivers/lvgl/src/extra/widgets/keyboard/lv_keyboard.c ****     lv_obj_add_event_cb(obj, lv_keyboard_def_event_cb, LV_EVENT_VALUE_CHANGED, NULL);
 216              		.loc 1 383 5 view .LVU57
 217 0024 FFF7FEFF 		bl	lv_obj_align
 218              	.LVL17:
 384:Drivers/lvgl/src/extra/widgets/keyboard/lv_keyboard.c ****     lv_obj_set_style_base_dir(obj, LV_BASE_DIR_LTR, 0);
 219              		.loc 1 384 5 is_stmt 1 view .LVU58
 220 0028 2B46     		mov	r3, r5
 221 002a 0B49     		ldr	r1, .L15
 222 002c 1C22     		movs	r2, #28
 223 002e 2046     		mov	r0, r4
 224 0030 FFF7FEFF 		bl	lv_obj_add_event_cb
 225              	.LVL18:
 385:Drivers/lvgl/src/extra/widgets/keyboard/lv_keyboard.c **** 
 226              		.loc 1 385 5 view .LVU59
 227 0034 2A46     		mov	r2, r5
 228 0036 2946     		mov	r1, r5
 229 0038 2046     		mov	r0, r4
 230 003a FFF7FEFF 		bl	lv_obj_set_style_base_dir
 231              	.LVL19:
 387:Drivers/lvgl/src/extra/widgets/keyboard/lv_keyboard.c **** }
 232              		.loc 1 387 5 view .LVU60
 233              	.LBB17:
 234              	.LBI17:
 394:Drivers/lvgl/src/extra/widgets/keyboard/lv_keyboard.c **** {
 235              		.loc 1 394 13 view .LVU61
 236              	.LBB18:
 396:Drivers/lvgl/src/extra/widgets/keyboard/lv_keyboard.c ****     lv_btnmatrix_set_map(obj, kb_map[keyboard->mode]);
 237              		.loc 1 396 5 view .LVU62
 397:Drivers/lvgl/src/extra/widgets/keyboard/lv_keyboard.c ****     lv_keyboard_update_ctrl_map(obj);
 238              		.loc 1 397 5 view .LVU63
 397:Drivers/lvgl/src/extra/widgets/keyboard/lv_keyboard.c ****     lv_keyboard_update_ctrl_map(obj);
 239              		.loc 1 397 46 is_stmt 0 view .LVU64
 240 003e 94F83C20 		ldrb	r2, [r4, #60]	@ zero_extendqisi2
 397:Drivers/lvgl/src/extra/widgets/keyboard/lv_keyboard.c ****     lv_keyboard_update_ctrl_map(obj);
 241              		.loc 1 397 5 view .LVU65
 242 0042 064B     		ldr	r3, .L15+4
 243 0044 2046     		mov	r0, r4
 244 0046 53F82210 		ldr	r1, [r3, r2, lsl #2]
 245 004a FFF7FEFF 		bl	lv_btnmatrix_set_map
 246              	.LVL20:
 398:Drivers/lvgl/src/extra/widgets/keyboard/lv_keyboard.c **** }
 247              		.loc 1 398 5 is_stmt 1 view .LVU66
 248 004e 2046     		mov	r0, r4
 249              	.LBE18:
 250              	.LBE17:
 388:Drivers/lvgl/src/extra/widgets/keyboard/lv_keyboard.c **** 
 251              		.loc 1 388 1 is_stmt 0 view .LVU67
 252 0050 BDE83840 		pop	{r3, r4, r5, lr}
 253              		.cfi_restore 14
 254              		.cfi_restore 5
 255              		.cfi_restore 4
 256              		.cfi_restore 3
 257              		.cfi_def_cfa_offset 0
 258              	.LVL21:
ARM GAS  /var/folders/0z/tsy30v1j4xl4_7kw94k978ww0000gn/T//ccW5gjHE.s 			page 14


 259              	.LBB20:
 260              	.LBB19:
 398:Drivers/lvgl/src/extra/widgets/keyboard/lv_keyboard.c **** }
 261              		.loc 1 398 5 view .LVU68
 262 0054 FFF7FEBF 		b	lv_keyboard_update_ctrl_map
 263              	.LVL22:
 264              	.L16:
 398:Drivers/lvgl/src/extra/widgets/keyboard/lv_keyboard.c **** }
 265              		.loc 1 398 5 view .LVU69
 266              		.align	2
 267              	.L15:
 268 0058 00000000 		.word	lv_keyboard_def_event_cb
 269 005c 00000000 		.word	.LANCHOR1
 270              	.LBE19:
 271              	.LBE20:
 272              		.cfi_endproc
 273              	.LFE173:
 275              		.section	.rodata.lv_keyboard_def_event_cb.str1.4,"aMS",%progbits,1
 276              		.align	2
 277              	.LC0:
 278 0000 61626300 		.ascii	"abc\000"
 279              		.align	2
 280              	.LC1:
 281 0004 41424300 		.ascii	"ABC\000"
 282              		.align	2
 283              	.LC2:
 284 0008 EF808D00 		.ascii	"\357\200\215\000"
 285              		.align	2
 286              	.LC3:
 287 000c EF849C00 		.ascii	"\357\204\234\000"
 288              		.align	2
 289              	.LC4:
 290 0010 EF808C00 		.ascii	"\357\200\214\000"
 291              		.align	2
 292              	.LC5:
 293 0014 456E7465 		.ascii	"Enter\000"
 293      7200
 294 001a 0000     		.align	2
 295              	.LC6:
 296 001c EFA2A200 		.ascii	"\357\242\242\000"
 297              		.align	2
 298              	.LC7:
 299 0020 EF819300 		.ascii	"\357\201\223\000"
 300              		.align	2
 301              	.LC8:
 302 0024 EF819400 		.ascii	"\357\201\224\000"
 303              		.align	2
 304              	.LC9:
 305 0028 EF959A00 		.ascii	"\357\225\232\000"
 306              		.align	2
 307              	.LC10:
 308 002c 2B2F2D00 		.ascii	"+/-\000"
 309              		.section	.text.lv_keyboard_def_event_cb,"ax",%progbits
 310              		.align	1
 311              		.p2align 2,,3
 312              		.global	lv_keyboard_def_event_cb
 313              		.syntax unified
ARM GAS  /var/folders/0z/tsy30v1j4xl4_7kw94k978ww0000gn/T//ccW5gjHE.s 			page 15


 314              		.thumb
 315              		.thumb_func
 317              	lv_keyboard_def_event_cb:
 318              	.LVL23:
 319              	.LFB172:
 274:Drivers/lvgl/src/extra/widgets/keyboard/lv_keyboard.c ****     lv_obj_t * obj = lv_event_get_target(e);
 320              		.loc 1 274 1 is_stmt 1 view -0
 321              		.cfi_startproc
 322              		@ args = 0, pretend = 0, frame = 0
 323              		@ frame_needed = 0, uses_anonymous_args = 0
 275:Drivers/lvgl/src/extra/widgets/keyboard/lv_keyboard.c **** 
 324              		.loc 1 275 5 view .LVU71
 274:Drivers/lvgl/src/extra/widgets/keyboard/lv_keyboard.c ****     lv_obj_t * obj = lv_event_get_target(e);
 325              		.loc 1 274 1 is_stmt 0 view .LVU72
 326 0000 70B5     		push	{r4, r5, r6, lr}
 327              		.cfi_def_cfa_offset 16
 328              		.cfi_offset 4, -16
 329              		.cfi_offset 5, -12
 330              		.cfi_offset 6, -8
 331              		.cfi_offset 14, -4
 275:Drivers/lvgl/src/extra/widgets/keyboard/lv_keyboard.c **** 
 332              		.loc 1 275 22 view .LVU73
 333 0002 FFF7FEFF 		bl	lv_event_get_target
 334              	.LVL24:
 275:Drivers/lvgl/src/extra/widgets/keyboard/lv_keyboard.c **** 
 335              		.loc 1 275 22 view .LVU74
 336 0006 0446     		mov	r4, r0
 337              	.LVL25:
 277:Drivers/lvgl/src/extra/widgets/keyboard/lv_keyboard.c ****     lv_keyboard_t * keyboard = (lv_keyboard_t *)obj;
 338              		.loc 1 277 5 is_stmt 1 view .LVU75
 277:Drivers/lvgl/src/extra/widgets/keyboard/lv_keyboard.c ****     lv_keyboard_t * keyboard = (lv_keyboard_t *)obj;
 339              		.loc 1 277 5 view .LVU76
 277:Drivers/lvgl/src/extra/widgets/keyboard/lv_keyboard.c ****     lv_keyboard_t * keyboard = (lv_keyboard_t *)obj;
 340              		.loc 1 277 5 view .LVU77
 278:Drivers/lvgl/src/extra/widgets/keyboard/lv_keyboard.c ****     uint16_t btn_id   = lv_btnmatrix_get_selected_btn(obj);
 341              		.loc 1 278 5 view .LVU78
 279:Drivers/lvgl/src/extra/widgets/keyboard/lv_keyboard.c ****     if(btn_id == LV_BTNMATRIX_BTN_NONE) return;
 342              		.loc 1 279 5 view .LVU79
 279:Drivers/lvgl/src/extra/widgets/keyboard/lv_keyboard.c ****     if(btn_id == LV_BTNMATRIX_BTN_NONE) return;
 343              		.loc 1 279 25 is_stmt 0 view .LVU80
 344 0008 FFF7FEFF 		bl	lv_btnmatrix_get_selected_btn
 345              	.LVL26:
 280:Drivers/lvgl/src/extra/widgets/keyboard/lv_keyboard.c **** 
 346              		.loc 1 280 5 is_stmt 1 view .LVU81
 280:Drivers/lvgl/src/extra/widgets/keyboard/lv_keyboard.c **** 
 347              		.loc 1 280 7 is_stmt 0 view .LVU82
 348 000c 4FF6FF73 		movw	r3, #65535
 349 0010 9842     		cmp	r0, r3
 350 0012 37D0     		beq	.L17
 282:Drivers/lvgl/src/extra/widgets/keyboard/lv_keyboard.c ****     if(txt == NULL) return;
 351              		.loc 1 282 5 is_stmt 1 view .LVU83
 282:Drivers/lvgl/src/extra/widgets/keyboard/lv_keyboard.c ****     if(txt == NULL) return;
 352              		.loc 1 282 24 is_stmt 0 view .LVU84
 353 0014 2046     		mov	r0, r4
 354              	.LVL27:
 282:Drivers/lvgl/src/extra/widgets/keyboard/lv_keyboard.c ****     if(txt == NULL) return;
 355              		.loc 1 282 24 view .LVU85
ARM GAS  /var/folders/0z/tsy30v1j4xl4_7kw94k978ww0000gn/T//ccW5gjHE.s 			page 16


 356 0016 FFF7FEFF 		bl	lv_btnmatrix_get_selected_btn
 357              	.LVL28:
 358 001a 0146     		mov	r1, r0
 359 001c 2046     		mov	r0, r4
 360 001e FFF7FEFF 		bl	lv_btnmatrix_get_btn_text
 361              	.LVL29:
 283:Drivers/lvgl/src/extra/widgets/keyboard/lv_keyboard.c **** 
 362              		.loc 1 283 5 is_stmt 1 view .LVU86
 283:Drivers/lvgl/src/extra/widgets/keyboard/lv_keyboard.c **** 
 363              		.loc 1 283 7 is_stmt 0 view .LVU87
 364 0022 0546     		mov	r5, r0
 365 0024 70B3     		cbz	r0, .L17
 285:Drivers/lvgl/src/extra/widgets/keyboard/lv_keyboard.c ****         keyboard->mode = LV_KEYBOARD_MODE_TEXT_LOWER;
 366              		.loc 1 285 5 is_stmt 1 view .LVU88
 285:Drivers/lvgl/src/extra/widgets/keyboard/lv_keyboard.c ****         keyboard->mode = LV_KEYBOARD_MODE_TEXT_LOWER;
 367              		.loc 1 285 8 is_stmt 0 view .LVU89
 368 0026 6F49     		ldr	r1, .L72
 369 0028 FFF7FEFF 		bl	strcmp
 370              	.LVL30:
 285:Drivers/lvgl/src/extra/widgets/keyboard/lv_keyboard.c ****         keyboard->mode = LV_KEYBOARD_MODE_TEXT_LOWER;
 371              		.loc 1 285 7 view .LVU90
 372 002c 0028     		cmp	r0, #0
 373 002e 78D0     		beq	.L62
 291:Drivers/lvgl/src/extra/widgets/keyboard/lv_keyboard.c ****         keyboard->mode = LV_KEYBOARD_MODE_TEXT_UPPER;
 374              		.loc 1 291 10 is_stmt 1 view .LVU91
 291:Drivers/lvgl/src/extra/widgets/keyboard/lv_keyboard.c ****         keyboard->mode = LV_KEYBOARD_MODE_TEXT_UPPER;
 375              		.loc 1 291 13 is_stmt 0 view .LVU92
 376 0030 6D49     		ldr	r1, .L72+4
 377 0032 2846     		mov	r0, r5
 378 0034 FFF7FEFF 		bl	strcmp
 379              	.LVL31:
 291:Drivers/lvgl/src/extra/widgets/keyboard/lv_keyboard.c ****         keyboard->mode = LV_KEYBOARD_MODE_TEXT_UPPER;
 380              		.loc 1 291 12 view .LVU93
 381 0038 0028     		cmp	r0, #0
 382 003a 7ED0     		beq	.L63
 297:Drivers/lvgl/src/extra/widgets/keyboard/lv_keyboard.c ****         keyboard->mode = LV_KEYBOARD_MODE_SPECIAL;
 383              		.loc 1 297 10 is_stmt 1 view .LVU94
 297:Drivers/lvgl/src/extra/widgets/keyboard/lv_keyboard.c ****         keyboard->mode = LV_KEYBOARD_MODE_SPECIAL;
 384              		.loc 1 297 13 is_stmt 0 view .LVU95
 385 003c 2B78     		ldrb	r3, [r5]	@ zero_extendqisi2
 386 003e 312B     		cmp	r3, #49
 387 0040 11D1     		bne	.L24
 388 0042 6B78     		ldrb	r3, [r5, #1]	@ zero_extendqisi2
 389 0044 232B     		cmp	r3, #35
 390 0046 0ED1     		bne	.L24
 391 0048 AB78     		ldrb	r3, [r5, #2]	@ zero_extendqisi2
 297:Drivers/lvgl/src/extra/widgets/keyboard/lv_keyboard.c ****         keyboard->mode = LV_KEYBOARD_MODE_SPECIAL;
 392              		.loc 1 297 12 view .LVU96
 393 004a 63B9     		cbnz	r3, .L24
 298:Drivers/lvgl/src/extra/widgets/keyboard/lv_keyboard.c ****         lv_btnmatrix_set_map(obj, kb_map[LV_KEYBOARD_MODE_SPECIAL]);
 394              		.loc 1 298 9 is_stmt 1 view .LVU97
 299:Drivers/lvgl/src/extra/widgets/keyboard/lv_keyboard.c ****         lv_keyboard_update_ctrl_map(obj);
 395              		.loc 1 299 9 is_stmt 0 view .LVU98
 396 004c 674A     		ldr	r2, .L72+8
 397 004e 9168     		ldr	r1, [r2, #8]
 298:Drivers/lvgl/src/extra/widgets/keyboard/lv_keyboard.c ****         lv_btnmatrix_set_map(obj, kb_map[LV_KEYBOARD_MODE_SPECIAL]);
 398              		.loc 1 298 24 view .LVU99
ARM GAS  /var/folders/0z/tsy30v1j4xl4_7kw94k978ww0000gn/T//ccW5gjHE.s 			page 17


 399 0050 0223     		movs	r3, #2
 400              	.L59:
 293:Drivers/lvgl/src/extra/widgets/keyboard/lv_keyboard.c ****         lv_keyboard_update_ctrl_map(obj);
 401              		.loc 1 293 9 view .LVU100
 402 0052 2046     		mov	r0, r4
 292:Drivers/lvgl/src/extra/widgets/keyboard/lv_keyboard.c ****         lv_btnmatrix_set_map(obj, kb_map[LV_KEYBOARD_MODE_TEXT_UPPER]);
 403              		.loc 1 292 24 view .LVU101
 404 0054 84F83C30 		strb	r3, [r4, #60]
 293:Drivers/lvgl/src/extra/widgets/keyboard/lv_keyboard.c ****         lv_keyboard_update_ctrl_map(obj);
 405              		.loc 1 293 9 is_stmt 1 view .LVU102
 406 0058 FFF7FEFF 		bl	lv_btnmatrix_set_map
 407              	.LVL32:
 294:Drivers/lvgl/src/extra/widgets/keyboard/lv_keyboard.c ****         return;
 408              		.loc 1 294 9 view .LVU103
 409 005c 2046     		mov	r0, r4
 367:Drivers/lvgl/src/extra/widgets/keyboard/lv_keyboard.c **** 
 410              		.loc 1 367 1 is_stmt 0 view .LVU104
 411 005e BDE87040 		pop	{r4, r5, r6, lr}
 412              		.cfi_remember_state
 413              		.cfi_restore 14
 414              		.cfi_restore 6
 415              		.cfi_restore 5
 416              		.cfi_restore 4
 417              		.cfi_def_cfa_offset 0
 418              	.LVL33:
 294:Drivers/lvgl/src/extra/widgets/keyboard/lv_keyboard.c ****         return;
 419              		.loc 1 294 9 view .LVU105
 420 0062 FFF7FEBF 		b	lv_keyboard_update_ctrl_map
 421              	.LVL34:
 422              	.L24:
 423              		.cfi_restore_state
 303:Drivers/lvgl/src/extra/widgets/keyboard/lv_keyboard.c ****         lv_res_t res = lv_event_send(obj, LV_EVENT_CANCEL, NULL);
 424              		.loc 1 303 10 is_stmt 1 view .LVU106
 303:Drivers/lvgl/src/extra/widgets/keyboard/lv_keyboard.c ****         lv_res_t res = lv_event_send(obj, LV_EVENT_CANCEL, NULL);
 425              		.loc 1 303 13 is_stmt 0 view .LVU107
 426 0066 6249     		ldr	r1, .L72+12
 427 0068 2846     		mov	r0, r5
 428 006a FFF7FEFF 		bl	strcmp
 429              	.LVL35:
 303:Drivers/lvgl/src/extra/widgets/keyboard/lv_keyboard.c ****         lv_res_t res = lv_event_send(obj, LV_EVENT_CANCEL, NULL);
 430              		.loc 1 303 12 view .LVU108
 431 006e 50B9     		cbnz	r0, .L64
 432              	.L25:
 433              	.LBB21:
 304:Drivers/lvgl/src/extra/widgets/keyboard/lv_keyboard.c ****         if(res != LV_RES_OK) return;
 434              		.loc 1 304 9 is_stmt 1 view .LVU109
 304:Drivers/lvgl/src/extra/widgets/keyboard/lv_keyboard.c ****         if(res != LV_RES_OK) return;
 435              		.loc 1 304 24 is_stmt 0 view .LVU110
 436 0070 0022     		movs	r2, #0
 437 0072 2021     		movs	r1, #32
 438 0074 2046     		mov	r0, r4
 439 0076 FFF7FEFF 		bl	lv_event_send
 440              	.LVL36:
 305:Drivers/lvgl/src/extra/widgets/keyboard/lv_keyboard.c **** 
 441              		.loc 1 305 9 is_stmt 1 view .LVU111
 305:Drivers/lvgl/src/extra/widgets/keyboard/lv_keyboard.c **** 
 442              		.loc 1 305 11 is_stmt 0 view .LVU112
ARM GAS  /var/folders/0z/tsy30v1j4xl4_7kw94k978ww0000gn/T//ccW5gjHE.s 			page 18


 443 007a 0128     		cmp	r0, #1
 444 007c 02D1     		bne	.L17
 307:Drivers/lvgl/src/extra/widgets/keyboard/lv_keyboard.c ****             res = lv_event_send(keyboard->ta, LV_EVENT_CANCEL, NULL);
 445              		.loc 1 307 9 is_stmt 1 view .LVU113
 307:Drivers/lvgl/src/extra/widgets/keyboard/lv_keyboard.c ****             res = lv_event_send(keyboard->ta, LV_EVENT_CANCEL, NULL);
 446              		.loc 1 307 20 is_stmt 0 view .LVU114
 447 007e A06B     		ldr	r0, [r4, #56]
 448              	.LVL37:
 307:Drivers/lvgl/src/extra/widgets/keyboard/lv_keyboard.c ****             res = lv_event_send(keyboard->ta, LV_EVENT_CANCEL, NULL);
 449              		.loc 1 307 11 view .LVU115
 450 0080 0028     		cmp	r0, #0
 451 0082 5ED1     		bne	.L65
 452              	.LVL38:
 453              	.L17:
 307:Drivers/lvgl/src/extra/widgets/keyboard/lv_keyboard.c ****             res = lv_event_send(keyboard->ta, LV_EVENT_CANCEL, NULL);
 454              		.loc 1 307 11 view .LVU116
 455              	.LBE21:
 367:Drivers/lvgl/src/extra/widgets/keyboard/lv_keyboard.c **** 
 456              		.loc 1 367 1 view .LVU117
 457 0084 70BD     		pop	{r4, r5, r6, pc}
 458              	.LVL39:
 459              	.L64:
 303:Drivers/lvgl/src/extra/widgets/keyboard/lv_keyboard.c ****         lv_res_t res = lv_event_send(obj, LV_EVENT_CANCEL, NULL);
 460              		.loc 1 303 50 discriminator 1 view .LVU118
 461 0086 5B49     		ldr	r1, .L72+16
 462 0088 2846     		mov	r0, r5
 463 008a FFF7FEFF 		bl	strcmp
 464              	.LVL40:
 303:Drivers/lvgl/src/extra/widgets/keyboard/lv_keyboard.c ****         lv_res_t res = lv_event_send(obj, LV_EVENT_CANCEL, NULL);
 465              		.loc 1 303 47 discriminator 1 view .LVU119
 466 008e 0028     		cmp	r0, #0
 467 0090 EED0     		beq	.L25
 313:Drivers/lvgl/src/extra/widgets/keyboard/lv_keyboard.c ****         lv_res_t res = lv_event_send(obj, LV_EVENT_READY, NULL);
 468              		.loc 1 313 10 is_stmt 1 view .LVU120
 313:Drivers/lvgl/src/extra/widgets/keyboard/lv_keyboard.c ****         lv_res_t res = lv_event_send(obj, LV_EVENT_READY, NULL);
 469              		.loc 1 313 13 is_stmt 0 view .LVU121
 470 0092 5949     		ldr	r1, .L72+20
 471 0094 2846     		mov	r0, r5
 472 0096 FFF7FEFF 		bl	strcmp
 473              	.LVL41:
 313:Drivers/lvgl/src/extra/widgets/keyboard/lv_keyboard.c ****         lv_res_t res = lv_event_send(obj, LV_EVENT_READY, NULL);
 474              		.loc 1 313 12 view .LVU122
 475 009a 0028     		cmp	r0, #0
 476 009c 67D0     		beq	.L66
 325:Drivers/lvgl/src/extra/widgets/keyboard/lv_keyboard.c **** 
 477              		.loc 1 325 5 is_stmt 1 view .LVU123
 325:Drivers/lvgl/src/extra/widgets/keyboard/lv_keyboard.c **** 
 478              		.loc 1 325 16 is_stmt 0 view .LVU124
 479 009e A66B     		ldr	r6, [r4, #56]
 325:Drivers/lvgl/src/extra/widgets/keyboard/lv_keyboard.c **** 
 480              		.loc 1 325 7 view .LVU125
 481 00a0 002E     		cmp	r6, #0
 482 00a2 EFD0     		beq	.L17
 327:Drivers/lvgl/src/extra/widgets/keyboard/lv_keyboard.c ****         lv_textarea_add_char(keyboard->ta, '\n');
 483              		.loc 1 327 5 is_stmt 1 view .LVU126
 327:Drivers/lvgl/src/extra/widgets/keyboard/lv_keyboard.c ****         lv_textarea_add_char(keyboard->ta, '\n');
 484              		.loc 1 327 8 is_stmt 0 view .LVU127
ARM GAS  /var/folders/0z/tsy30v1j4xl4_7kw94k978ww0000gn/T//ccW5gjHE.s 			page 19


 485 00a4 5549     		ldr	r1, .L72+24
 486 00a6 2846     		mov	r0, r5
 487 00a8 FFF7FEFF 		bl	strcmp
 488              	.LVL42:
 327:Drivers/lvgl/src/extra/widgets/keyboard/lv_keyboard.c ****         lv_textarea_add_char(keyboard->ta, '\n');
 489              		.loc 1 327 7 view .LVU128
 490 00ac 0028     		cmp	r0, #0
 491 00ae 4ED0     		beq	.L28
 327:Drivers/lvgl/src/extra/widgets/keyboard/lv_keyboard.c ****         lv_textarea_add_char(keyboard->ta, '\n');
 492              		.loc 1 327 37 discriminator 1 view .LVU129
 493 00b0 5349     		ldr	r1, .L72+28
 494 00b2 2846     		mov	r0, r5
 495 00b4 FFF7FEFF 		bl	strcmp
 496              	.LVL43:
 327:Drivers/lvgl/src/extra/widgets/keyboard/lv_keyboard.c ****         lv_textarea_add_char(keyboard->ta, '\n');
 497              		.loc 1 327 34 discriminator 1 view .LVU130
 498 00b8 0028     		cmp	r0, #0
 499 00ba 48D0     		beq	.L28
 334:Drivers/lvgl/src/extra/widgets/keyboard/lv_keyboard.c ****         lv_textarea_cursor_left(keyboard->ta);
 500              		.loc 1 334 10 is_stmt 1 view .LVU131
 334:Drivers/lvgl/src/extra/widgets/keyboard/lv_keyboard.c ****         lv_textarea_cursor_left(keyboard->ta);
 501              		.loc 1 334 13 is_stmt 0 view .LVU132
 502 00bc 5149     		ldr	r1, .L72+32
 503 00be 2846     		mov	r0, r5
 504 00c0 FFF7FEFF 		bl	strcmp
 505              	.LVL44:
 334:Drivers/lvgl/src/extra/widgets/keyboard/lv_keyboard.c ****         lv_textarea_cursor_left(keyboard->ta);
 506              		.loc 1 334 12 view .LVU133
 507 00c4 0028     		cmp	r0, #0
 508 00c6 5DD0     		beq	.L67
 337:Drivers/lvgl/src/extra/widgets/keyboard/lv_keyboard.c ****         lv_textarea_cursor_right(keyboard->ta);
 509              		.loc 1 337 10 is_stmt 1 view .LVU134
 337:Drivers/lvgl/src/extra/widgets/keyboard/lv_keyboard.c ****         lv_textarea_cursor_right(keyboard->ta);
 510              		.loc 1 337 13 is_stmt 0 view .LVU135
 511 00c8 4F49     		ldr	r1, .L72+36
 512 00ca 2846     		mov	r0, r5
 513 00cc FFF7FEFF 		bl	strcmp
 514              	.LVL45:
 337:Drivers/lvgl/src/extra/widgets/keyboard/lv_keyboard.c ****         lv_textarea_cursor_right(keyboard->ta);
 515              		.loc 1 337 12 view .LVU136
 516 00d0 0028     		cmp	r0, #0
 517 00d2 5CD0     		beq	.L68
 340:Drivers/lvgl/src/extra/widgets/keyboard/lv_keyboard.c ****         lv_textarea_del_char(keyboard->ta);
 518              		.loc 1 340 10 is_stmt 1 view .LVU137
 340:Drivers/lvgl/src/extra/widgets/keyboard/lv_keyboard.c ****         lv_textarea_del_char(keyboard->ta);
 519              		.loc 1 340 13 is_stmt 0 view .LVU138
 520 00d4 4D49     		ldr	r1, .L72+40
 521 00d6 2846     		mov	r0, r5
 522 00d8 FFF7FEFF 		bl	strcmp
 523              	.LVL46:
 340:Drivers/lvgl/src/extra/widgets/keyboard/lv_keyboard.c ****         lv_textarea_del_char(keyboard->ta);
 524              		.loc 1 340 12 view .LVU139
 525 00dc 0028     		cmp	r0, #0
 526 00de 5BD0     		beq	.L69
 343:Drivers/lvgl/src/extra/widgets/keyboard/lv_keyboard.c ****         uint16_t cur        = lv_textarea_get_cursor_pos(keyboard->ta);
 527              		.loc 1 343 10 is_stmt 1 view .LVU140
 343:Drivers/lvgl/src/extra/widgets/keyboard/lv_keyboard.c ****         uint16_t cur        = lv_textarea_get_cursor_pos(keyboard->ta);
ARM GAS  /var/folders/0z/tsy30v1j4xl4_7kw94k978ww0000gn/T//ccW5gjHE.s 			page 20


 528              		.loc 1 343 13 is_stmt 0 view .LVU141
 529 00e0 4B49     		ldr	r1, .L72+44
 530 00e2 2846     		mov	r0, r5
 531 00e4 FFF7FEFF 		bl	strcmp
 532              	.LVL47:
 343:Drivers/lvgl/src/extra/widgets/keyboard/lv_keyboard.c ****         uint16_t cur        = lv_textarea_get_cursor_pos(keyboard->ta);
 533              		.loc 1 343 12 view .LVU142
 534 00e8 0028     		cmp	r0, #0
 535 00ea 5AD1     		bne	.L33
 536              	.LBB22:
 344:Drivers/lvgl/src/extra/widgets/keyboard/lv_keyboard.c ****         const char * ta_txt = lv_textarea_get_text(keyboard->ta);
 537              		.loc 1 344 9 is_stmt 1 view .LVU143
 344:Drivers/lvgl/src/extra/widgets/keyboard/lv_keyboard.c ****         const char * ta_txt = lv_textarea_get_text(keyboard->ta);
 538              		.loc 1 344 31 is_stmt 0 view .LVU144
 539 00ec 3046     		mov	r0, r6
 540 00ee FFF7FEFF 		bl	lv_textarea_get_cursor_pos
 541              	.LVL48:
 542 00f2 0546     		mov	r5, r0
 543              	.LVL49:
 345:Drivers/lvgl/src/extra/widgets/keyboard/lv_keyboard.c ****         if(ta_txt[0] == '-') {
 544              		.loc 1 345 31 view .LVU145
 545 00f4 A06B     		ldr	r0, [r4, #56]
 546              	.LVL50:
 345:Drivers/lvgl/src/extra/widgets/keyboard/lv_keyboard.c ****         if(ta_txt[0] == '-') {
 547              		.loc 1 345 9 is_stmt 1 view .LVU146
 345:Drivers/lvgl/src/extra/widgets/keyboard/lv_keyboard.c ****         if(ta_txt[0] == '-') {
 548              		.loc 1 345 31 is_stmt 0 view .LVU147
 549 00f6 FFF7FEFF 		bl	lv_textarea_get_text
 550              	.LVL51:
 346:Drivers/lvgl/src/extra/widgets/keyboard/lv_keyboard.c ****             lv_textarea_set_cursor_pos(keyboard->ta, 1);
 551              		.loc 1 346 9 is_stmt 1 view .LVU148
 346:Drivers/lvgl/src/extra/widgets/keyboard/lv_keyboard.c ****             lv_textarea_set_cursor_pos(keyboard->ta, 1);
 552              		.loc 1 346 18 is_stmt 0 view .LVU149
 553 00fa 0378     		ldrb	r3, [r0]	@ zero_extendqisi2
 346:Drivers/lvgl/src/extra/widgets/keyboard/lv_keyboard.c ****             lv_textarea_set_cursor_pos(keyboard->ta, 1);
 554              		.loc 1 346 11 view .LVU150
 555 00fc 2D2B     		cmp	r3, #45
 556 00fe 67D0     		beq	.L70
 352:Drivers/lvgl/src/extra/widgets/keyboard/lv_keyboard.c ****             lv_textarea_set_cursor_pos(keyboard->ta, 1);
 557              		.loc 1 352 14 is_stmt 1 view .LVU151
 352:Drivers/lvgl/src/extra/widgets/keyboard/lv_keyboard.c ****             lv_textarea_set_cursor_pos(keyboard->ta, 1);
 558              		.loc 1 352 16 is_stmt 0 view .LVU152
 559 0100 2B2B     		cmp	r3, #43
 560 0102 54D0     		beq	.L71
 359:Drivers/lvgl/src/extra/widgets/keyboard/lv_keyboard.c ****             lv_textarea_add_char(keyboard->ta, '-');
 561              		.loc 1 359 13 is_stmt 1 view .LVU153
 562 0104 A06B     		ldr	r0, [r4, #56]
 563              	.LVL52:
 359:Drivers/lvgl/src/extra/widgets/keyboard/lv_keyboard.c ****             lv_textarea_add_char(keyboard->ta, '-');
 564              		.loc 1 359 13 is_stmt 0 view .LVU154
 565 0106 0021     		movs	r1, #0
 566 0108 FFF7FEFF 		bl	lv_textarea_set_cursor_pos
 567              	.LVL53:
 360:Drivers/lvgl/src/extra/widgets/keyboard/lv_keyboard.c ****             lv_textarea_set_cursor_pos(keyboard->ta, cur + 1);
 568              		.loc 1 360 13 is_stmt 1 view .LVU155
 569 010c A06B     		ldr	r0, [r4, #56]
 570 010e 2D21     		movs	r1, #45
ARM GAS  /var/folders/0z/tsy30v1j4xl4_7kw94k978ww0000gn/T//ccW5gjHE.s 			page 21


 571 0110 FFF7FEFF 		bl	lv_textarea_add_char
 572              	.LVL54:
 361:Drivers/lvgl/src/extra/widgets/keyboard/lv_keyboard.c ****         }
 573              		.loc 1 361 13 view .LVU156
 574 0114 A9B2     		uxth	r1, r5
 575 0116 A06B     		ldr	r0, [r4, #56]
 576 0118 0131     		adds	r1, r1, #1
 577              	.LBE22:
 367:Drivers/lvgl/src/extra/widgets/keyboard/lv_keyboard.c **** 
 578              		.loc 1 367 1 is_stmt 0 view .LVU157
 579 011a BDE87040 		pop	{r4, r5, r6, lr}
 580              		.cfi_remember_state
 581              		.cfi_restore 14
 582              		.cfi_restore 6
 583              		.cfi_restore 5
 584              		.cfi_restore 4
 585              		.cfi_def_cfa_offset 0
 586              	.LVL55:
 587              	.LBB23:
 361:Drivers/lvgl/src/extra/widgets/keyboard/lv_keyboard.c ****         }
 588              		.loc 1 361 13 view .LVU158
 589 011e FFF7FEBF 		b	lv_textarea_set_cursor_pos
 590              	.LVL56:
 591              	.L62:
 592              		.cfi_restore_state
 361:Drivers/lvgl/src/extra/widgets/keyboard/lv_keyboard.c ****         }
 593              		.loc 1 361 13 view .LVU159
 594              	.LBE23:
 286:Drivers/lvgl/src/extra/widgets/keyboard/lv_keyboard.c ****         lv_btnmatrix_set_map(obj, kb_map[LV_KEYBOARD_MODE_TEXT_LOWER]);
 595              		.loc 1 286 9 is_stmt 1 view .LVU160
 287:Drivers/lvgl/src/extra/widgets/keyboard/lv_keyboard.c ****         lv_keyboard_update_ctrl_map(obj);
 596              		.loc 1 287 9 is_stmt 0 view .LVU161
 597 0122 324B     		ldr	r3, .L72+8
 286:Drivers/lvgl/src/extra/widgets/keyboard/lv_keyboard.c ****         lv_btnmatrix_set_map(obj, kb_map[LV_KEYBOARD_MODE_TEXT_LOWER]);
 598              		.loc 1 286 24 view .LVU162
 599 0124 84F83C00 		strb	r0, [r4, #60]
 287:Drivers/lvgl/src/extra/widgets/keyboard/lv_keyboard.c ****         lv_keyboard_update_ctrl_map(obj);
 600              		.loc 1 287 9 is_stmt 1 view .LVU163
 601 0128 1968     		ldr	r1, [r3]
 293:Drivers/lvgl/src/extra/widgets/keyboard/lv_keyboard.c ****         lv_keyboard_update_ctrl_map(obj);
 602              		.loc 1 293 9 view .LVU164
 603 012a 2046     		mov	r0, r4
 604 012c FFF7FEFF 		bl	lv_btnmatrix_set_map
 605              	.LVL57:
 294:Drivers/lvgl/src/extra/widgets/keyboard/lv_keyboard.c ****         return;
 606              		.loc 1 294 9 view .LVU165
 607 0130 2046     		mov	r0, r4
 367:Drivers/lvgl/src/extra/widgets/keyboard/lv_keyboard.c **** 
 608              		.loc 1 367 1 is_stmt 0 view .LVU166
 609 0132 BDE87040 		pop	{r4, r5, r6, lr}
 610              		.cfi_remember_state
 611              		.cfi_restore 14
 612              		.cfi_restore 6
 613              		.cfi_restore 5
 614              		.cfi_restore 4
 615              		.cfi_def_cfa_offset 0
 616              	.LVL58:
ARM GAS  /var/folders/0z/tsy30v1j4xl4_7kw94k978ww0000gn/T//ccW5gjHE.s 			page 22


 294:Drivers/lvgl/src/extra/widgets/keyboard/lv_keyboard.c ****         return;
 617              		.loc 1 294 9 view .LVU167
 618 0136 FFF7FEBF 		b	lv_keyboard_update_ctrl_map
 619              	.LVL59:
 620              	.L63:
 621              		.cfi_restore_state
 292:Drivers/lvgl/src/extra/widgets/keyboard/lv_keyboard.c ****         lv_btnmatrix_set_map(obj, kb_map[LV_KEYBOARD_MODE_TEXT_UPPER]);
 622              		.loc 1 292 9 is_stmt 1 view .LVU168
 293:Drivers/lvgl/src/extra/widgets/keyboard/lv_keyboard.c ****         lv_keyboard_update_ctrl_map(obj);
 623              		.loc 1 293 9 is_stmt 0 view .LVU169
 624 013a 2C4A     		ldr	r2, .L72+8
 292:Drivers/lvgl/src/extra/widgets/keyboard/lv_keyboard.c ****         lv_btnmatrix_set_map(obj, kb_map[LV_KEYBOARD_MODE_TEXT_UPPER]);
 625              		.loc 1 292 24 view .LVU170
 626 013c 0123     		movs	r3, #1
 293:Drivers/lvgl/src/extra/widgets/keyboard/lv_keyboard.c ****         lv_keyboard_update_ctrl_map(obj);
 627              		.loc 1 293 9 view .LVU171
 628 013e 5168     		ldr	r1, [r2, #4]
 629 0140 87E7     		b	.L59
 630              	.L65:
 631              	.LBB24:
 308:Drivers/lvgl/src/extra/widgets/keyboard/lv_keyboard.c ****             if(res != LV_RES_OK) return;
 632              		.loc 1 308 13 is_stmt 1 view .LVU172
 633              	.LBE24:
 367:Drivers/lvgl/src/extra/widgets/keyboard/lv_keyboard.c **** 
 634              		.loc 1 367 1 is_stmt 0 view .LVU173
 635 0142 BDE87040 		pop	{r4, r5, r6, lr}
 636              		.cfi_remember_state
 637              		.cfi_restore 14
 638              		.cfi_restore 6
 639              		.cfi_restore 5
 640              		.cfi_restore 4
 641              		.cfi_def_cfa_offset 0
 642              	.LVL60:
 643              	.LBB25:
 308:Drivers/lvgl/src/extra/widgets/keyboard/lv_keyboard.c ****             if(res != LV_RES_OK) return;
 644              		.loc 1 308 19 view .LVU174
 645 0146 0022     		movs	r2, #0
 646 0148 2021     		movs	r1, #32
 647 014a FFF7FEBF 		b	lv_event_send
 648              	.LVL61:
 649              	.L28:
 650              		.cfi_restore_state
 308:Drivers/lvgl/src/extra/widgets/keyboard/lv_keyboard.c ****             if(res != LV_RES_OK) return;
 651              		.loc 1 308 19 view .LVU175
 652              	.LBE25:
 328:Drivers/lvgl/src/extra/widgets/keyboard/lv_keyboard.c ****         if(lv_textarea_get_one_line(keyboard->ta)) {
 653              		.loc 1 328 9 is_stmt 1 view .LVU176
 654 014e 3046     		mov	r0, r6
 655 0150 0A21     		movs	r1, #10
 656 0152 FFF7FEFF 		bl	lv_textarea_add_char
 657              	.LVL62:
 329:Drivers/lvgl/src/extra/widgets/keyboard/lv_keyboard.c ****             lv_res_t res = lv_event_send(keyboard->ta, LV_EVENT_READY, NULL);
 658              		.loc 1 329 9 view .LVU177
 329:Drivers/lvgl/src/extra/widgets/keyboard/lv_keyboard.c ****             lv_res_t res = lv_event_send(keyboard->ta, LV_EVENT_READY, NULL);
 659              		.loc 1 329 12 is_stmt 0 view .LVU178
 660 0156 A06B     		ldr	r0, [r4, #56]
 661 0158 FFF7FEFF 		bl	lv_textarea_get_one_line
ARM GAS  /var/folders/0z/tsy30v1j4xl4_7kw94k978ww0000gn/T//ccW5gjHE.s 			page 23


 662              	.LVL63:
 329:Drivers/lvgl/src/extra/widgets/keyboard/lv_keyboard.c ****             lv_res_t res = lv_event_send(keyboard->ta, LV_EVENT_READY, NULL);
 663              		.loc 1 329 11 view .LVU179
 664 015c 0028     		cmp	r0, #0
 665 015e 91D0     		beq	.L17
 666              	.LBB26:
 330:Drivers/lvgl/src/extra/widgets/keyboard/lv_keyboard.c ****             if(res != LV_RES_OK) return;
 667              		.loc 1 330 13 is_stmt 1 view .LVU180
 330:Drivers/lvgl/src/extra/widgets/keyboard/lv_keyboard.c ****             if(res != LV_RES_OK) return;
 668              		.loc 1 330 28 is_stmt 0 view .LVU181
 669 0160 A06B     		ldr	r0, [r4, #56]
 670              	.L60:
 330:Drivers/lvgl/src/extra/widgets/keyboard/lv_keyboard.c ****             if(res != LV_RES_OK) return;
 671              		.loc 1 330 28 view .LVU182
 672              	.LBE26:
 367:Drivers/lvgl/src/extra/widgets/keyboard/lv_keyboard.c **** 
 673              		.loc 1 367 1 view .LVU183
 674 0162 BDE87040 		pop	{r4, r5, r6, lr}
 675              		.cfi_remember_state
 676              		.cfi_restore 14
 677              		.cfi_restore 6
 678              		.cfi_restore 5
 679              		.cfi_restore 4
 680              		.cfi_def_cfa_offset 0
 681              	.LVL64:
 682              	.LBB27:
 330:Drivers/lvgl/src/extra/widgets/keyboard/lv_keyboard.c ****             if(res != LV_RES_OK) return;
 683              		.loc 1 330 28 view .LVU184
 684 0166 0022     		movs	r2, #0
 685 0168 1F21     		movs	r1, #31
 686 016a FFF7FEBF 		b	lv_event_send
 687              	.LVL65:
 688              	.L66:
 689              		.cfi_restore_state
 330:Drivers/lvgl/src/extra/widgets/keyboard/lv_keyboard.c ****             if(res != LV_RES_OK) return;
 690              		.loc 1 330 28 view .LVU185
 691              	.LBE27:
 692              	.LBB28:
 314:Drivers/lvgl/src/extra/widgets/keyboard/lv_keyboard.c ****         if(res != LV_RES_OK) return;
 693              		.loc 1 314 9 is_stmt 1 view .LVU186
 314:Drivers/lvgl/src/extra/widgets/keyboard/lv_keyboard.c ****         if(res != LV_RES_OK) return;
 694              		.loc 1 314 24 is_stmt 0 view .LVU187
 695 016e 0246     		mov	r2, r0
 696 0170 1F21     		movs	r1, #31
 697 0172 2046     		mov	r0, r4
 698 0174 FFF7FEFF 		bl	lv_event_send
 699              	.LVL66:
 315:Drivers/lvgl/src/extra/widgets/keyboard/lv_keyboard.c **** 
 700              		.loc 1 315 9 is_stmt 1 view .LVU188
 315:Drivers/lvgl/src/extra/widgets/keyboard/lv_keyboard.c **** 
 701              		.loc 1 315 11 is_stmt 0 view .LVU189
 702 0178 0128     		cmp	r0, #1
 703 017a 83D1     		bne	.L17
 317:Drivers/lvgl/src/extra/widgets/keyboard/lv_keyboard.c ****             res = lv_event_send(keyboard->ta, LV_EVENT_READY, NULL);
 704              		.loc 1 317 9 is_stmt 1 view .LVU190
 317:Drivers/lvgl/src/extra/widgets/keyboard/lv_keyboard.c ****             res = lv_event_send(keyboard->ta, LV_EVENT_READY, NULL);
 705              		.loc 1 317 20 is_stmt 0 view .LVU191
ARM GAS  /var/folders/0z/tsy30v1j4xl4_7kw94k978ww0000gn/T//ccW5gjHE.s 			page 24


 706 017c A06B     		ldr	r0, [r4, #56]
 707              	.LVL67:
 317:Drivers/lvgl/src/extra/widgets/keyboard/lv_keyboard.c ****             res = lv_event_send(keyboard->ta, LV_EVENT_READY, NULL);
 708              		.loc 1 317 11 view .LVU192
 709 017e 0028     		cmp	r0, #0
 710 0180 EFD1     		bne	.L60
 711 0182 7FE7     		b	.L17
 712              	.L67:
 317:Drivers/lvgl/src/extra/widgets/keyboard/lv_keyboard.c ****             res = lv_event_send(keyboard->ta, LV_EVENT_READY, NULL);
 713              		.loc 1 317 11 view .LVU193
 714              	.LBE28:
 335:Drivers/lvgl/src/extra/widgets/keyboard/lv_keyboard.c ****     }
 715              		.loc 1 335 9 is_stmt 1 view .LVU194
 716 0184 3046     		mov	r0, r6
 367:Drivers/lvgl/src/extra/widgets/keyboard/lv_keyboard.c **** 
 717              		.loc 1 367 1 is_stmt 0 view .LVU195
 718 0186 BDE87040 		pop	{r4, r5, r6, lr}
 719              		.cfi_remember_state
 720              		.cfi_restore 14
 721              		.cfi_restore 6
 722              		.cfi_restore 5
 723              		.cfi_restore 4
 724              		.cfi_def_cfa_offset 0
 725              	.LVL68:
 335:Drivers/lvgl/src/extra/widgets/keyboard/lv_keyboard.c ****     }
 726              		.loc 1 335 9 view .LVU196
 727 018a FFF7FEBF 		b	lv_textarea_cursor_left
 728              	.LVL69:
 729              	.L68:
 730              		.cfi_restore_state
 338:Drivers/lvgl/src/extra/widgets/keyboard/lv_keyboard.c ****     }
 731              		.loc 1 338 9 is_stmt 1 view .LVU197
 732 018e 3046     		mov	r0, r6
 367:Drivers/lvgl/src/extra/widgets/keyboard/lv_keyboard.c **** 
 733              		.loc 1 367 1 is_stmt 0 view .LVU198
 734 0190 BDE87040 		pop	{r4, r5, r6, lr}
 735              		.cfi_remember_state
 736              		.cfi_restore 14
 737              		.cfi_restore 6
 738              		.cfi_restore 5
 739              		.cfi_restore 4
 740              		.cfi_def_cfa_offset 0
 741              	.LVL70:
 338:Drivers/lvgl/src/extra/widgets/keyboard/lv_keyboard.c ****     }
 742              		.loc 1 338 9 view .LVU199
 743 0194 FFF7FEBF 		b	lv_textarea_cursor_right
 744              	.LVL71:
 745              	.L69:
 746              		.cfi_restore_state
 341:Drivers/lvgl/src/extra/widgets/keyboard/lv_keyboard.c ****     }
 747              		.loc 1 341 9 is_stmt 1 view .LVU200
 748 0198 3046     		mov	r0, r6
 367:Drivers/lvgl/src/extra/widgets/keyboard/lv_keyboard.c **** 
 749              		.loc 1 367 1 is_stmt 0 view .LVU201
 750 019a BDE87040 		pop	{r4, r5, r6, lr}
 751              		.cfi_remember_state
 752              		.cfi_restore 14
ARM GAS  /var/folders/0z/tsy30v1j4xl4_7kw94k978ww0000gn/T//ccW5gjHE.s 			page 25


 753              		.cfi_restore 6
 754              		.cfi_restore 5
 755              		.cfi_restore 4
 756              		.cfi_def_cfa_offset 0
 757              	.LVL72:
 341:Drivers/lvgl/src/extra/widgets/keyboard/lv_keyboard.c ****     }
 758              		.loc 1 341 9 view .LVU202
 759 019e FFF7FEBF 		b	lv_textarea_del_char
 760              	.LVL73:
 761              	.L33:
 762              		.cfi_restore_state
 365:Drivers/lvgl/src/extra/widgets/keyboard/lv_keyboard.c ****     }
 763              		.loc 1 365 9 is_stmt 1 view .LVU203
 764 01a2 2946     		mov	r1, r5
 765 01a4 3046     		mov	r0, r6
 367:Drivers/lvgl/src/extra/widgets/keyboard/lv_keyboard.c **** 
 766              		.loc 1 367 1 is_stmt 0 view .LVU204
 767 01a6 BDE87040 		pop	{r4, r5, r6, lr}
 768              		.cfi_remember_state
 769              		.cfi_restore 14
 770              		.cfi_restore 6
 771              		.cfi_restore 5
 772              		.cfi_restore 4
 773              		.cfi_def_cfa_offset 0
 774              	.LVL74:
 365:Drivers/lvgl/src/extra/widgets/keyboard/lv_keyboard.c ****     }
 775              		.loc 1 365 9 view .LVU205
 776 01aa FFF7FEBF 		b	lv_textarea_add_text
 777              	.LVL75:
 778              	.L71:
 779              		.cfi_restore_state
 780              	.LBB29:
 353:Drivers/lvgl/src/extra/widgets/keyboard/lv_keyboard.c ****             lv_textarea_del_char(keyboard->ta);
 781              		.loc 1 353 13 is_stmt 1 view .LVU206
 782 01ae 0121     		movs	r1, #1
 783 01b0 A06B     		ldr	r0, [r4, #56]
 784              	.LVL76:
 353:Drivers/lvgl/src/extra/widgets/keyboard/lv_keyboard.c ****             lv_textarea_del_char(keyboard->ta);
 785              		.loc 1 353 13 is_stmt 0 view .LVU207
 786 01b2 FFF7FEFF 		bl	lv_textarea_set_cursor_pos
 787              	.LVL77:
 354:Drivers/lvgl/src/extra/widgets/keyboard/lv_keyboard.c ****             lv_textarea_add_char(keyboard->ta, '-');
 788              		.loc 1 354 13 is_stmt 1 view .LVU208
 789 01b6 A06B     		ldr	r0, [r4, #56]
 790 01b8 FFF7FEFF 		bl	lv_textarea_del_char
 791              	.LVL78:
 355:Drivers/lvgl/src/extra/widgets/keyboard/lv_keyboard.c ****             lv_textarea_set_cursor_pos(keyboard->ta, cur);
 792              		.loc 1 355 13 view .LVU209
 793 01bc A06B     		ldr	r0, [r4, #56]
 794 01be 2D21     		movs	r1, #45
 795              	.L61:
 355:Drivers/lvgl/src/extra/widgets/keyboard/lv_keyboard.c ****             lv_textarea_set_cursor_pos(keyboard->ta, cur);
 796              		.loc 1 355 13 is_stmt 0 view .LVU210
 797 01c0 FFF7FEFF 		bl	lv_textarea_add_char
 798              	.LVL79:
 356:Drivers/lvgl/src/extra/widgets/keyboard/lv_keyboard.c ****         }
 799              		.loc 1 356 13 is_stmt 1 view .LVU211
ARM GAS  /var/folders/0z/tsy30v1j4xl4_7kw94k978ww0000gn/T//ccW5gjHE.s 			page 26


 800 01c4 A06B     		ldr	r0, [r4, #56]
 801 01c6 A9B2     		uxth	r1, r5
 802              	.LBE29:
 367:Drivers/lvgl/src/extra/widgets/keyboard/lv_keyboard.c **** 
 803              		.loc 1 367 1 is_stmt 0 view .LVU212
 804 01c8 BDE87040 		pop	{r4, r5, r6, lr}
 805              		.cfi_remember_state
 806              		.cfi_restore 14
 807              		.cfi_restore 6
 808              		.cfi_restore 5
 809              		.cfi_restore 4
 810              		.cfi_def_cfa_offset 0
 811              	.LVL80:
 812              	.LBB30:
 356:Drivers/lvgl/src/extra/widgets/keyboard/lv_keyboard.c ****         }
 813              		.loc 1 356 13 view .LVU213
 814 01cc FFF7FEBF 		b	lv_textarea_set_cursor_pos
 815              	.LVL81:
 816              	.L70:
 817              		.cfi_restore_state
 347:Drivers/lvgl/src/extra/widgets/keyboard/lv_keyboard.c ****             lv_textarea_del_char(keyboard->ta);
 818              		.loc 1 347 13 is_stmt 1 view .LVU214
 819 01d0 0121     		movs	r1, #1
 820 01d2 A06B     		ldr	r0, [r4, #56]
 821              	.LVL82:
 347:Drivers/lvgl/src/extra/widgets/keyboard/lv_keyboard.c ****             lv_textarea_del_char(keyboard->ta);
 822              		.loc 1 347 13 is_stmt 0 view .LVU215
 823 01d4 FFF7FEFF 		bl	lv_textarea_set_cursor_pos
 824              	.LVL83:
 348:Drivers/lvgl/src/extra/widgets/keyboard/lv_keyboard.c ****             lv_textarea_add_char(keyboard->ta, '+');
 825              		.loc 1 348 13 is_stmt 1 view .LVU216
 826 01d8 A06B     		ldr	r0, [r4, #56]
 827 01da FFF7FEFF 		bl	lv_textarea_del_char
 828              	.LVL84:
 349:Drivers/lvgl/src/extra/widgets/keyboard/lv_keyboard.c ****             lv_textarea_set_cursor_pos(keyboard->ta, cur);
 829              		.loc 1 349 13 view .LVU217
 830 01de A06B     		ldr	r0, [r4, #56]
 831 01e0 2B21     		movs	r1, #43
 832 01e2 EDE7     		b	.L61
 833              	.L73:
 834              		.align	2
 835              	.L72:
 836 01e4 00000000 		.word	.LC0
 837 01e8 04000000 		.word	.LC1
 838 01ec 00000000 		.word	.LANCHOR1
 839 01f0 08000000 		.word	.LC2
 840 01f4 0C000000 		.word	.LC3
 841 01f8 10000000 		.word	.LC4
 842 01fc 14000000 		.word	.LC5
 843 0200 1C000000 		.word	.LC6
 844 0204 20000000 		.word	.LC7
 845 0208 24000000 		.word	.LC8
 846 020c 28000000 		.word	.LC9
 847 0210 2C000000 		.word	.LC10
 848              	.LBE30:
 849              		.cfi_endproc
 850              	.LFE172:
ARM GAS  /var/folders/0z/tsy30v1j4xl4_7kw94k978ww0000gn/T//ccW5gjHE.s 			page 27


 852              		.section	.text.lv_keyboard_create,"ax",%progbits
 853              		.align	1
 854              		.p2align 2,,3
 855              		.global	lv_keyboard_create
 856              		.syntax unified
 857              		.thumb
 858              		.thumb_func
 860              	lv_keyboard_create:
 861              	.LVL85:
 862              	.LFB164:
 138:Drivers/lvgl/src/extra/widgets/keyboard/lv_keyboard.c ****     LV_LOG_INFO("begin");
 863              		.loc 1 138 1 view -0
 864              		.cfi_startproc
 865              		@ args = 0, pretend = 0, frame = 0
 866              		@ frame_needed = 0, uses_anonymous_args = 0
 139:Drivers/lvgl/src/extra/widgets/keyboard/lv_keyboard.c ****     lv_obj_t * obj = lv_obj_class_create_obj(&lv_keyboard_class, parent);
 867              		.loc 1 139 5 view .LVU219
 139:Drivers/lvgl/src/extra/widgets/keyboard/lv_keyboard.c ****     lv_obj_t * obj = lv_obj_class_create_obj(&lv_keyboard_class, parent);
 868              		.loc 1 139 5 view .LVU220
 139:Drivers/lvgl/src/extra/widgets/keyboard/lv_keyboard.c ****     lv_obj_t * obj = lv_obj_class_create_obj(&lv_keyboard_class, parent);
 869              		.loc 1 139 5 view .LVU221
 140:Drivers/lvgl/src/extra/widgets/keyboard/lv_keyboard.c ****     lv_obj_class_init_obj(obj);
 870              		.loc 1 140 5 view .LVU222
 138:Drivers/lvgl/src/extra/widgets/keyboard/lv_keyboard.c ****     LV_LOG_INFO("begin");
 871              		.loc 1 138 1 is_stmt 0 view .LVU223
 872 0000 10B5     		push	{r4, lr}
 873              		.cfi_def_cfa_offset 8
 874              		.cfi_offset 4, -8
 875              		.cfi_offset 14, -4
 138:Drivers/lvgl/src/extra/widgets/keyboard/lv_keyboard.c ****     LV_LOG_INFO("begin");
 876              		.loc 1 138 1 view .LVU224
 877 0002 0146     		mov	r1, r0
 140:Drivers/lvgl/src/extra/widgets/keyboard/lv_keyboard.c ****     lv_obj_class_init_obj(obj);
 878              		.loc 1 140 22 view .LVU225
 879 0004 0348     		ldr	r0, .L76
 880              	.LVL86:
 140:Drivers/lvgl/src/extra/widgets/keyboard/lv_keyboard.c ****     lv_obj_class_init_obj(obj);
 881              		.loc 1 140 22 view .LVU226
 882 0006 FFF7FEFF 		bl	lv_obj_class_create_obj
 883              	.LVL87:
 140:Drivers/lvgl/src/extra/widgets/keyboard/lv_keyboard.c ****     lv_obj_class_init_obj(obj);
 884              		.loc 1 140 22 view .LVU227
 885 000a 0446     		mov	r4, r0
 886              	.LVL88:
 141:Drivers/lvgl/src/extra/widgets/keyboard/lv_keyboard.c ****     return obj;
 887              		.loc 1 141 5 is_stmt 1 view .LVU228
 888 000c FFF7FEFF 		bl	lv_obj_class_init_obj
 889              	.LVL89:
 142:Drivers/lvgl/src/extra/widgets/keyboard/lv_keyboard.c **** }
 890              		.loc 1 142 5 view .LVU229
 143:Drivers/lvgl/src/extra/widgets/keyboard/lv_keyboard.c **** 
 891              		.loc 1 143 1 is_stmt 0 view .LVU230
 892 0010 2046     		mov	r0, r4
 893 0012 10BD     		pop	{r4, pc}
 894              	.LVL90:
 895              	.L77:
 143:Drivers/lvgl/src/extra/widgets/keyboard/lv_keyboard.c **** 
ARM GAS  /var/folders/0z/tsy30v1j4xl4_7kw94k978ww0000gn/T//ccW5gjHE.s 			page 28


 896              		.loc 1 143 1 view .LVU231
 897              		.align	2
 898              	.L76:
 899 0014 00000000 		.word	.LANCHOR2
 900              		.cfi_endproc
 901              	.LFE164:
 903              		.section	.text.lv_keyboard_set_textarea,"ax",%progbits
 904              		.align	1
 905              		.p2align 2,,3
 906              		.global	lv_keyboard_set_textarea
 907              		.syntax unified
 908              		.thumb
 909              		.thumb_func
 911              	lv_keyboard_set_textarea:
 912              	.LVL91:
 913              	.LFB165:
 155:Drivers/lvgl/src/extra/widgets/keyboard/lv_keyboard.c ****     if(ta) {
 914              		.loc 1 155 1 is_stmt 1 view -0
 915              		.cfi_startproc
 916              		@ args = 0, pretend = 0, frame = 0
 917              		@ frame_needed = 0, uses_anonymous_args = 0
 156:Drivers/lvgl/src/extra/widgets/keyboard/lv_keyboard.c ****         LV_ASSERT_OBJ(ta, &lv_textarea_class);
 918              		.loc 1 156 5 view .LVU233
 157:Drivers/lvgl/src/extra/widgets/keyboard/lv_keyboard.c ****     }
 919              		.loc 1 157 9 view .LVU234
 157:Drivers/lvgl/src/extra/widgets/keyboard/lv_keyboard.c ****     }
 920              		.loc 1 157 9 view .LVU235
 157:Drivers/lvgl/src/extra/widgets/keyboard/lv_keyboard.c ****     }
 921              		.loc 1 157 9 view .LVU236
 160:Drivers/lvgl/src/extra/widgets/keyboard/lv_keyboard.c ****     lv_keyboard_t * keyboard = (lv_keyboard_t *)obj;
 922              		.loc 1 160 5 view .LVU237
 160:Drivers/lvgl/src/extra/widgets/keyboard/lv_keyboard.c ****     lv_keyboard_t * keyboard = (lv_keyboard_t *)obj;
 923              		.loc 1 160 5 view .LVU238
 160:Drivers/lvgl/src/extra/widgets/keyboard/lv_keyboard.c ****     lv_keyboard_t * keyboard = (lv_keyboard_t *)obj;
 924              		.loc 1 160 5 view .LVU239
 161:Drivers/lvgl/src/extra/widgets/keyboard/lv_keyboard.c **** 
 925              		.loc 1 161 5 view .LVU240
 155:Drivers/lvgl/src/extra/widgets/keyboard/lv_keyboard.c ****     if(ta) {
 926              		.loc 1 155 1 is_stmt 0 view .LVU241
 927 0000 38B5     		push	{r3, r4, r5, lr}
 928              		.cfi_def_cfa_offset 16
 929              		.cfi_offset 3, -16
 930              		.cfi_offset 4, -12
 931              		.cfi_offset 5, -8
 932              		.cfi_offset 14, -4
 164:Drivers/lvgl/src/extra/widgets/keyboard/lv_keyboard.c ****         lv_obj_clear_state(obj, LV_STATE_FOCUSED);
 933              		.loc 1 164 7 view .LVU242
 934 0002 836B     		ldr	r3, [r0, #56]
 155:Drivers/lvgl/src/extra/widgets/keyboard/lv_keyboard.c ****     if(ta) {
 935              		.loc 1 155 1 view .LVU243
 936 0004 0446     		mov	r4, r0
 937              	.LVL92:
 164:Drivers/lvgl/src/extra/widgets/keyboard/lv_keyboard.c ****         lv_obj_clear_state(obj, LV_STATE_FOCUSED);
 938              		.loc 1 164 5 is_stmt 1 view .LVU244
 155:Drivers/lvgl/src/extra/widgets/keyboard/lv_keyboard.c ****     if(ta) {
 939              		.loc 1 155 1 is_stmt 0 view .LVU245
 940 0006 0D46     		mov	r5, r1
ARM GAS  /var/folders/0z/tsy30v1j4xl4_7kw94k978ww0000gn/T//ccW5gjHE.s 			page 29


 164:Drivers/lvgl/src/extra/widgets/keyboard/lv_keyboard.c ****         lv_obj_clear_state(obj, LV_STATE_FOCUSED);
 941              		.loc 1 164 7 view .LVU246
 942 0008 13B1     		cbz	r3, .L79
 165:Drivers/lvgl/src/extra/widgets/keyboard/lv_keyboard.c ****     }
 943              		.loc 1 165 9 is_stmt 1 view .LVU247
 944 000a 0221     		movs	r1, #2
 945              	.LVL93:
 165:Drivers/lvgl/src/extra/widgets/keyboard/lv_keyboard.c ****     }
 946              		.loc 1 165 9 is_stmt 0 view .LVU248
 947 000c FFF7FEFF 		bl	lv_obj_clear_state
 948              	.LVL94:
 949              	.L79:
 168:Drivers/lvgl/src/extra/widgets/keyboard/lv_keyboard.c **** 
 950              		.loc 1 168 5 is_stmt 1 view .LVU249
 168:Drivers/lvgl/src/extra/widgets/keyboard/lv_keyboard.c **** 
 951              		.loc 1 168 18 is_stmt 0 view .LVU250
 952 0010 A563     		str	r5, [r4, #56]
 171:Drivers/lvgl/src/extra/widgets/keyboard/lv_keyboard.c ****         lv_obj_add_flag(obj, LV_STATE_FOCUSED);
 953              		.loc 1 171 5 is_stmt 1 view .LVU251
 171:Drivers/lvgl/src/extra/widgets/keyboard/lv_keyboard.c ****         lv_obj_add_flag(obj, LV_STATE_FOCUSED);
 954              		.loc 1 171 7 is_stmt 0 view .LVU252
 955 0012 2DB1     		cbz	r5, .L78
 172:Drivers/lvgl/src/extra/widgets/keyboard/lv_keyboard.c ****     }
 956              		.loc 1 172 9 is_stmt 1 view .LVU253
 957 0014 2046     		mov	r0, r4
 958 0016 0221     		movs	r1, #2
 174:Drivers/lvgl/src/extra/widgets/keyboard/lv_keyboard.c **** 
 959              		.loc 1 174 1 is_stmt 0 view .LVU254
 960 0018 BDE83840 		pop	{r3, r4, r5, lr}
 961              		.cfi_remember_state
 962              		.cfi_restore 14
 963              		.cfi_restore 5
 964              		.cfi_restore 4
 965              		.cfi_restore 3
 966              		.cfi_def_cfa_offset 0
 967              	.LVL95:
 172:Drivers/lvgl/src/extra/widgets/keyboard/lv_keyboard.c ****     }
 968              		.loc 1 172 9 view .LVU255
 969 001c FFF7FEBF 		b	lv_obj_add_flag
 970              	.LVL96:
 971              	.L78:
 972              		.cfi_restore_state
 174:Drivers/lvgl/src/extra/widgets/keyboard/lv_keyboard.c **** 
 973              		.loc 1 174 1 view .LVU256
 974 0020 38BD     		pop	{r3, r4, r5, pc}
 174:Drivers/lvgl/src/extra/widgets/keyboard/lv_keyboard.c **** 
 975              		.loc 1 174 1 view .LVU257
 976              		.cfi_endproc
 977              	.LFE165:
 979 0022 00BF     		.section	.text.lv_keyboard_set_mode,"ax",%progbits
 980              		.align	1
 981              		.p2align 2,,3
 982              		.global	lv_keyboard_set_mode
 983              		.syntax unified
 984              		.thumb
 985              		.thumb_func
 987              	lv_keyboard_set_mode:
ARM GAS  /var/folders/0z/tsy30v1j4xl4_7kw94k978ww0000gn/T//ccW5gjHE.s 			page 30


 988              	.LVL97:
 989              	.LFB166:
 182:Drivers/lvgl/src/extra/widgets/keyboard/lv_keyboard.c ****     LV_ASSERT_OBJ(obj, MY_CLASS);
 990              		.loc 1 182 1 is_stmt 1 view -0
 991              		.cfi_startproc
 992              		@ args = 0, pretend = 0, frame = 0
 993              		@ frame_needed = 0, uses_anonymous_args = 0
 183:Drivers/lvgl/src/extra/widgets/keyboard/lv_keyboard.c ****     lv_keyboard_t * keyboard = (lv_keyboard_t *)obj;
 994              		.loc 1 183 5 view .LVU259
 183:Drivers/lvgl/src/extra/widgets/keyboard/lv_keyboard.c ****     lv_keyboard_t * keyboard = (lv_keyboard_t *)obj;
 995              		.loc 1 183 5 view .LVU260
 183:Drivers/lvgl/src/extra/widgets/keyboard/lv_keyboard.c ****     lv_keyboard_t * keyboard = (lv_keyboard_t *)obj;
 996              		.loc 1 183 5 view .LVU261
 184:Drivers/lvgl/src/extra/widgets/keyboard/lv_keyboard.c ****     if(keyboard->mode == mode) return;
 997              		.loc 1 184 5 view .LVU262
 185:Drivers/lvgl/src/extra/widgets/keyboard/lv_keyboard.c **** 
 998              		.loc 1 185 5 view .LVU263
 185:Drivers/lvgl/src/extra/widgets/keyboard/lv_keyboard.c **** 
 999              		.loc 1 185 7 is_stmt 0 view .LVU264
 1000 0000 90F83C30 		ldrb	r3, [r0, #60]	@ zero_extendqisi2
 1001 0004 8B42     		cmp	r3, r1
 1002 0006 3DD0     		beq	.L85
 187:Drivers/lvgl/src/extra/widgets/keyboard/lv_keyboard.c ****     lv_keyboard_update_map(obj);
 1003              		.loc 1 187 5 is_stmt 1 view .LVU265
 1004              	.LBB39:
 1005              	.LBB40:
 397:Drivers/lvgl/src/extra/widgets/keyboard/lv_keyboard.c ****     lv_keyboard_update_ctrl_map(obj);
 1006              		.loc 1 397 5 is_stmt 0 view .LVU266
 1007 0008 1F4B     		ldr	r3, .L98
 1008              	.LBE40:
 1009              	.LBE39:
 182:Drivers/lvgl/src/extra/widgets/keyboard/lv_keyboard.c ****     LV_ASSERT_OBJ(obj, MY_CLASS);
 1010              		.loc 1 182 1 view .LVU267
 1011 000a 70B5     		push	{r4, r5, r6, lr}
 1012              		.cfi_def_cfa_offset 16
 1013              		.cfi_offset 4, -16
 1014              		.cfi_offset 5, -12
 1015              		.cfi_offset 6, -8
 1016              		.cfi_offset 14, -4
 1017 000c 0546     		mov	r5, r0
 187:Drivers/lvgl/src/extra/widgets/keyboard/lv_keyboard.c ****     lv_keyboard_update_map(obj);
 1018              		.loc 1 187 20 view .LVU268
 1019 000e 80F83C10 		strb	r1, [r0, #60]
 188:Drivers/lvgl/src/extra/widgets/keyboard/lv_keyboard.c **** }
 1020              		.loc 1 188 5 is_stmt 1 view .LVU269
 1021              	.LVL98:
 1022              	.LBB57:
 1023              	.LBI39:
 394:Drivers/lvgl/src/extra/widgets/keyboard/lv_keyboard.c **** {
 1024              		.loc 1 394 13 view .LVU270
 1025              	.LBB54:
 396:Drivers/lvgl/src/extra/widgets/keyboard/lv_keyboard.c ****     lv_btnmatrix_set_map(obj, kb_map[keyboard->mode]);
 1026              		.loc 1 396 5 view .LVU271
 397:Drivers/lvgl/src/extra/widgets/keyboard/lv_keyboard.c ****     lv_keyboard_update_ctrl_map(obj);
 1027              		.loc 1 397 5 view .LVU272
 1028 0012 53F82110 		ldr	r1, [r3, r1, lsl #2]
 1029              	.LVL99:
ARM GAS  /var/folders/0z/tsy30v1j4xl4_7kw94k978ww0000gn/T//ccW5gjHE.s 			page 31


 397:Drivers/lvgl/src/extra/widgets/keyboard/lv_keyboard.c ****     lv_keyboard_update_ctrl_map(obj);
 1030              		.loc 1 397 5 is_stmt 0 view .LVU273
 1031 0016 FFF7FEFF 		bl	lv_btnmatrix_set_map
 1032              	.LVL100:
 398:Drivers/lvgl/src/extra/widgets/keyboard/lv_keyboard.c **** }
 1033              		.loc 1 398 5 is_stmt 1 view .LVU274
 1034              	.LBB41:
 1035              	.LBI41:
 405:Drivers/lvgl/src/extra/widgets/keyboard/lv_keyboard.c **** {
 1036              		.loc 1 405 13 view .LVU275
 1037              	.LBB42:
 407:Drivers/lvgl/src/extra/widgets/keyboard/lv_keyboard.c **** 
 1038              		.loc 1 407 5 view .LVU276
 409:Drivers/lvgl/src/extra/widgets/keyboard/lv_keyboard.c ****         /*Apply the current control map (already includes LV_BTNMATRIX_CTRL_POPOVER flags)*/
 1039              		.loc 1 409 5 view .LVU277
 409:Drivers/lvgl/src/extra/widgets/keyboard/lv_keyboard.c ****         /*Apply the current control map (already includes LV_BTNMATRIX_CTRL_POPOVER flags)*/
 1040              		.loc 1 409 8 is_stmt 0 view .LVU278
 1041 001a 95F83D30 		ldrb	r3, [r5, #61]	@ zero_extendqisi2
 409:Drivers/lvgl/src/extra/widgets/keyboard/lv_keyboard.c ****         /*Apply the current control map (already includes LV_BTNMATRIX_CTRL_POPOVER flags)*/
 1042              		.loc 1 409 7 view .LVU279
 1043 001e 13F00104 		ands	r4, r3, #1
 1044 0022 25D1     		bne	.L97
 1045              	.LVL101:
 1046              	.LBB43:
 1047              	.LBI43:
 405:Drivers/lvgl/src/extra/widgets/keyboard/lv_keyboard.c **** {
 1048              		.loc 1 405 13 is_stmt 1 view .LVU280
 1049              	.LBB44:
 1050              	.LBB45:
 415:Drivers/lvgl/src/extra/widgets/keyboard/lv_keyboard.c ****         lv_btnmatrix_ctrl_t * ctrl_map = lv_mem_alloc(btnm->btn_cnt * sizeof(lv_btnmatrix_ctrl_t));
 1051              		.loc 1 415 9 view .LVU281
 416:Drivers/lvgl/src/extra/widgets/keyboard/lv_keyboard.c ****         lv_memcpy(ctrl_map, kb_ctrl[keyboard->mode], sizeof(lv_btnmatrix_ctrl_t) * btnm->btn_cnt);
 1052              		.loc 1 416 9 view .LVU282
 416:Drivers/lvgl/src/extra/widgets/keyboard/lv_keyboard.c ****         lv_memcpy(ctrl_map, kb_ctrl[keyboard->mode], sizeof(lv_btnmatrix_ctrl_t) * btnm->btn_cnt);
 1053              		.loc 1 416 59 is_stmt 0 view .LVU283
 1054 0024 288E     		ldrh	r0, [r5, #48]
 416:Drivers/lvgl/src/extra/widgets/keyboard/lv_keyboard.c ****         lv_memcpy(ctrl_map, kb_ctrl[keyboard->mode], sizeof(lv_btnmatrix_ctrl_t) * btnm->btn_cnt);
 1055              		.loc 1 416 42 view .LVU284
 1056 0026 4000     		lsls	r0, r0, #1
 1057 0028 FFF7FEFF 		bl	lv_mem_alloc
 1058              	.LVL102:
 417:Drivers/lvgl/src/extra/widgets/keyboard/lv_keyboard.c **** 
 1059              		.loc 1 417 36 view .LVU285
 1060 002c 174B     		ldr	r3, .L98+4
 417:Drivers/lvgl/src/extra/widgets/keyboard/lv_keyboard.c **** 
 1061              		.loc 1 417 88 view .LVU286
 1062 002e 2A8E     		ldrh	r2, [r5, #48]
 417:Drivers/lvgl/src/extra/widgets/keyboard/lv_keyboard.c **** 
 1063              		.loc 1 417 45 view .LVU287
 1064 0030 95F83C10 		ldrb	r1, [r5, #60]	@ zero_extendqisi2
 417:Drivers/lvgl/src/extra/widgets/keyboard/lv_keyboard.c **** 
 1065              		.loc 1 417 9 view .LVU288
 1066 0034 5200     		lsls	r2, r2, #1
 1067 0036 53F82110 		ldr	r1, [r3, r1, lsl #2]
 416:Drivers/lvgl/src/extra/widgets/keyboard/lv_keyboard.c ****         lv_memcpy(ctrl_map, kb_ctrl[keyboard->mode], sizeof(lv_btnmatrix_ctrl_t) * btnm->btn_cnt);
 1068              		.loc 1 416 42 view .LVU289
 1069 003a 0646     		mov	r6, r0
ARM GAS  /var/folders/0z/tsy30v1j4xl4_7kw94k978ww0000gn/T//ccW5gjHE.s 			page 32


 1070              	.LVL103:
 417:Drivers/lvgl/src/extra/widgets/keyboard/lv_keyboard.c **** 
 1071              		.loc 1 417 9 is_stmt 1 view .LVU290
 1072 003c FFF7FEFF 		bl	lv_memcpy
 1073              	.LVL104:
 420:Drivers/lvgl/src/extra/widgets/keyboard/lv_keyboard.c ****             ctrl_map[i] &= (~LV_BTNMATRIX_CTRL_POPOVER);
 1074              		.loc 1 420 9 view .LVU291
 1075              	.LBB46:
 420:Drivers/lvgl/src/extra/widgets/keyboard/lv_keyboard.c ****             ctrl_map[i] &= (~LV_BTNMATRIX_CTRL_POPOVER);
 1076              		.loc 1 420 13 view .LVU292
 420:Drivers/lvgl/src/extra/widgets/keyboard/lv_keyboard.c ****             ctrl_map[i] &= (~LV_BTNMATRIX_CTRL_POPOVER);
 1077              		.loc 1 420 31 view .LVU293
 1078 0040 2B8E     		ldrh	r3, [r5, #48]
 1079 0042 63B1     		cbz	r3, .L88
 1080 0044 2346     		mov	r3, r4
 1081              	.LVL105:
 1082              	.L89:
 421:Drivers/lvgl/src/extra/widgets/keyboard/lv_keyboard.c ****         }
 1083              		.loc 1 421 13 view .LVU294
 421:Drivers/lvgl/src/extra/widgets/keyboard/lv_keyboard.c ****         }
 1084              		.loc 1 421 25 is_stmt 0 view .LVU295
 1085 0046 99B2     		uxth	r1, r3
 420:Drivers/lvgl/src/extra/widgets/keyboard/lv_keyboard.c ****             ctrl_map[i] &= (~LV_BTNMATRIX_CTRL_POPOVER);
 1086              		.loc 1 420 31 view .LVU296
 1087 0048 0133     		adds	r3, r3, #1
 1088              	.LVL106:
 421:Drivers/lvgl/src/extra/widgets/keyboard/lv_keyboard.c ****         }
 1089              		.loc 1 421 25 view .LVU297
 1090 004a 36F81120 		ldrh	r2, [r6, r1, lsl #1]
 1091 004e 22F48062 		bic	r2, r2, #1024
 1092 0052 26F81120 		strh	r2, [r6, r1, lsl #1]	@ movhi
 420:Drivers/lvgl/src/extra/widgets/keyboard/lv_keyboard.c ****             ctrl_map[i] &= (~LV_BTNMATRIX_CTRL_POPOVER);
 1093              		.loc 1 420 49 is_stmt 1 view .LVU298
 1094              	.LVL107:
 420:Drivers/lvgl/src/extra/widgets/keyboard/lv_keyboard.c ****             ctrl_map[i] &= (~LV_BTNMATRIX_CTRL_POPOVER);
 1095              		.loc 1 420 31 view .LVU299
 1096 0056 2A8E     		ldrh	r2, [r5, #48]
 1097 0058 98B2     		uxth	r0, r3
 1098 005a 8242     		cmp	r2, r0
 1099 005c F3D8     		bhi	.L89
 1100              	.L88:
 420:Drivers/lvgl/src/extra/widgets/keyboard/lv_keyboard.c ****             ctrl_map[i] &= (~LV_BTNMATRIX_CTRL_POPOVER);
 1101              		.loc 1 420 31 is_stmt 0 view .LVU300
 1102              	.LBE46:
 425:Drivers/lvgl/src/extra/widgets/keyboard/lv_keyboard.c ****         lv_mem_free(ctrl_map);
 1103              		.loc 1 425 9 is_stmt 1 view .LVU301
 1104 005e 2846     		mov	r0, r5
 1105 0060 3146     		mov	r1, r6
 1106 0062 FFF7FEFF 		bl	lv_btnmatrix_set_ctrl_map
 1107              	.LVL108:
 426:Drivers/lvgl/src/extra/widgets/keyboard/lv_keyboard.c ****     }
 1108              		.loc 1 426 9 view .LVU302
 1109 0066 3046     		mov	r0, r6
 1110              	.LBE45:
 1111              	.LBE44:
 1112              	.LBE43:
 1113              	.LBE42:
ARM GAS  /var/folders/0z/tsy30v1j4xl4_7kw94k978ww0000gn/T//ccW5gjHE.s 			page 33


 1114              	.LBE41:
 1115              	.LBE54:
 1116              	.LBE57:
 189:Drivers/lvgl/src/extra/widgets/keyboard/lv_keyboard.c **** 
 1117              		.loc 1 189 1 is_stmt 0 view .LVU303
 1118 0068 BDE87040 		pop	{r4, r5, r6, lr}
 1119              		.cfi_remember_state
 1120              		.cfi_restore 14
 1121              		.cfi_restore 6
 1122              		.cfi_restore 5
 1123              		.cfi_restore 4
 1124              		.cfi_def_cfa_offset 0
 1125              	.LVL109:
 1126              	.LBB58:
 1127              	.LBB55:
 1128              	.LBB52:
 1129              	.LBB50:
 1130              	.LBB49:
 1131              	.LBB48:
 1132              	.LBB47:
 426:Drivers/lvgl/src/extra/widgets/keyboard/lv_keyboard.c ****     }
 1133              		.loc 1 426 9 view .LVU304
 1134 006c FFF7FEBF 		b	lv_mem_free
 1135              	.LVL110:
 1136              	.L97:
 1137              		.cfi_restore_state
 426:Drivers/lvgl/src/extra/widgets/keyboard/lv_keyboard.c ****     }
 1138              		.loc 1 426 9 view .LVU305
 1139              	.LBE47:
 1140              	.LBE48:
 1141              	.LBE49:
 411:Drivers/lvgl/src/extra/widgets/keyboard/lv_keyboard.c ****     }
 1142              		.loc 1 411 9 is_stmt 1 view .LVU306
 411:Drivers/lvgl/src/extra/widgets/keyboard/lv_keyboard.c ****     }
 1143              		.loc 1 411 56 is_stmt 0 view .LVU307
 1144 0070 95F83C20 		ldrb	r2, [r5, #60]	@ zero_extendqisi2
 411:Drivers/lvgl/src/extra/widgets/keyboard/lv_keyboard.c ****     }
 1145              		.loc 1 411 9 view .LVU308
 1146 0074 054B     		ldr	r3, .L98+4
 1147 0076 2846     		mov	r0, r5
 1148 0078 53F82210 		ldr	r1, [r3, r2, lsl #2]
 1149              	.LBE50:
 1150              	.LBE52:
 1151              	.LBE55:
 1152              	.LBE58:
 189:Drivers/lvgl/src/extra/widgets/keyboard/lv_keyboard.c **** 
 1153              		.loc 1 189 1 view .LVU309
 1154 007c BDE87040 		pop	{r4, r5, r6, lr}
 1155              		.cfi_restore 14
 1156              		.cfi_restore 6
 1157              		.cfi_restore 5
 1158              		.cfi_restore 4
 1159              		.cfi_def_cfa_offset 0
 1160              	.LVL111:
 1161              	.LBB59:
 1162              	.LBB56:
 1163              	.LBB53:
ARM GAS  /var/folders/0z/tsy30v1j4xl4_7kw94k978ww0000gn/T//ccW5gjHE.s 			page 34


 1164              	.LBB51:
 411:Drivers/lvgl/src/extra/widgets/keyboard/lv_keyboard.c ****     }
 1165              		.loc 1 411 9 view .LVU310
 1166 0080 FFF7FEBF 		b	lv_btnmatrix_set_ctrl_map
 1167              	.LVL112:
 1168              	.L85:
 411:Drivers/lvgl/src/extra/widgets/keyboard/lv_keyboard.c ****     }
 1169              		.loc 1 411 9 view .LVU311
 1170 0084 7047     		bx	lr
 1171              	.L99:
 1172 0086 00BF     		.align	2
 1173              	.L98:
 1174 0088 00000000 		.word	.LANCHOR1
 1175 008c 00000000 		.word	.LANCHOR0
 1176              	.LBE51:
 1177              	.LBE53:
 1178              	.LBE56:
 1179              	.LBE59:
 1180              		.cfi_endproc
 1181              	.LFE166:
 1183              		.section	.text.lv_keyboard_set_popovers,"ax",%progbits
 1184              		.align	1
 1185              		.p2align 2,,3
 1186              		.global	lv_keyboard_set_popovers
 1187              		.syntax unified
 1188              		.thumb
 1189              		.thumb_func
 1191              	lv_keyboard_set_popovers:
 1192              	.LVL113:
 1193              	.LFB167:
 197:Drivers/lvgl/src/extra/widgets/keyboard/lv_keyboard.c ****     lv_keyboard_t * keyboard = (lv_keyboard_t *)obj;
 1194              		.loc 1 197 1 is_stmt 1 view -0
 1195              		.cfi_startproc
 1196              		@ args = 0, pretend = 0, frame = 0
 1197              		@ frame_needed = 0, uses_anonymous_args = 0
 198:Drivers/lvgl/src/extra/widgets/keyboard/lv_keyboard.c **** 
 1198              		.loc 1 198 5 view .LVU313
 200:Drivers/lvgl/src/extra/widgets/keyboard/lv_keyboard.c ****         return;
 1199              		.loc 1 200 5 view .LVU314
 200:Drivers/lvgl/src/extra/widgets/keyboard/lv_keyboard.c ****         return;
 1200              		.loc 1 200 16 is_stmt 0 view .LVU315
 1201 0000 90F83D30 		ldrb	r3, [r0, #61]	@ zero_extendqisi2
 200:Drivers/lvgl/src/extra/widgets/keyboard/lv_keyboard.c ****         return;
 1202              		.loc 1 200 7 view .LVU316
 1203 0004 03F00102 		and	r2, r3, #1
 1204 0008 8A42     		cmp	r2, r1
 1205 000a 37D0     		beq	.L100
 204:Drivers/lvgl/src/extra/widgets/keyboard/lv_keyboard.c ****     lv_keyboard_update_ctrl_map(obj);
 1206              		.loc 1 204 5 is_stmt 1 view .LVU317
 204:Drivers/lvgl/src/extra/widgets/keyboard/lv_keyboard.c ****     lv_keyboard_update_ctrl_map(obj);
 1207              		.loc 1 204 24 is_stmt 0 view .LVU318
 1208 000c 61F30003 		bfi	r3, r1, #0, #1
 197:Drivers/lvgl/src/extra/widgets/keyboard/lv_keyboard.c ****     lv_keyboard_t * keyboard = (lv_keyboard_t *)obj;
 1209              		.loc 1 197 1 view .LVU319
 1210 0010 70B5     		push	{r4, r5, r6, lr}
 1211              		.cfi_def_cfa_offset 16
 1212              		.cfi_offset 4, -16
ARM GAS  /var/folders/0z/tsy30v1j4xl4_7kw94k978ww0000gn/T//ccW5gjHE.s 			page 35


 1213              		.cfi_offset 5, -12
 1214              		.cfi_offset 6, -8
 1215              		.cfi_offset 14, -4
 1216              	.LBB66:
 1217              	.LBB67:
 409:Drivers/lvgl/src/extra/widgets/keyboard/lv_keyboard.c ****         /*Apply the current control map (already includes LV_BTNMATRIX_CTRL_POPOVER flags)*/
 1218              		.loc 1 409 7 view .LVU320
 1219 0012 13F00104 		ands	r4, r3, #1
 1220 0016 0546     		mov	r5, r0
 1221              	.LBE67:
 1222              	.LBE66:
 204:Drivers/lvgl/src/extra/widgets/keyboard/lv_keyboard.c ****     lv_keyboard_update_ctrl_map(obj);
 1223              		.loc 1 204 24 view .LVU321
 1224 0018 80F83D30 		strb	r3, [r0, #61]
 205:Drivers/lvgl/src/extra/widgets/keyboard/lv_keyboard.c **** }
 1225              		.loc 1 205 5 is_stmt 1 view .LVU322
 1226              	.LVL114:
 1227              	.LBB78:
 1228              	.LBI66:
 405:Drivers/lvgl/src/extra/widgets/keyboard/lv_keyboard.c **** {
 1229              		.loc 1 405 13 view .LVU323
 1230              	.LBB75:
 407:Drivers/lvgl/src/extra/widgets/keyboard/lv_keyboard.c **** 
 1231              		.loc 1 407 5 view .LVU324
 409:Drivers/lvgl/src/extra/widgets/keyboard/lv_keyboard.c ****         /*Apply the current control map (already includes LV_BTNMATRIX_CTRL_POPOVER flags)*/
 1232              		.loc 1 409 5 view .LVU325
 409:Drivers/lvgl/src/extra/widgets/keyboard/lv_keyboard.c ****         /*Apply the current control map (already includes LV_BTNMATRIX_CTRL_POPOVER flags)*/
 1233              		.loc 1 409 7 is_stmt 0 view .LVU326
 1234 001c 25D1     		bne	.L112
 1235              	.LVL115:
 1236              	.LBB68:
 1237              	.LBI68:
 405:Drivers/lvgl/src/extra/widgets/keyboard/lv_keyboard.c **** {
 1238              		.loc 1 405 13 is_stmt 1 view .LVU327
 1239              	.LBB69:
 1240              	.LBB70:
 415:Drivers/lvgl/src/extra/widgets/keyboard/lv_keyboard.c ****         lv_btnmatrix_ctrl_t * ctrl_map = lv_mem_alloc(btnm->btn_cnt * sizeof(lv_btnmatrix_ctrl_t));
 1241              		.loc 1 415 9 view .LVU328
 416:Drivers/lvgl/src/extra/widgets/keyboard/lv_keyboard.c ****         lv_memcpy(ctrl_map, kb_ctrl[keyboard->mode], sizeof(lv_btnmatrix_ctrl_t) * btnm->btn_cnt);
 1242              		.loc 1 416 9 view .LVU329
 416:Drivers/lvgl/src/extra/widgets/keyboard/lv_keyboard.c ****         lv_memcpy(ctrl_map, kb_ctrl[keyboard->mode], sizeof(lv_btnmatrix_ctrl_t) * btnm->btn_cnt);
 1243              		.loc 1 416 59 is_stmt 0 view .LVU330
 1244 001e 008E     		ldrh	r0, [r0, #48]
 1245              	.LVL116:
 416:Drivers/lvgl/src/extra/widgets/keyboard/lv_keyboard.c ****         lv_memcpy(ctrl_map, kb_ctrl[keyboard->mode], sizeof(lv_btnmatrix_ctrl_t) * btnm->btn_cnt);
 1246              		.loc 1 416 42 view .LVU331
 1247 0020 4000     		lsls	r0, r0, #1
 1248 0022 FFF7FEFF 		bl	lv_mem_alloc
 1249              	.LVL117:
 417:Drivers/lvgl/src/extra/widgets/keyboard/lv_keyboard.c **** 
 1250              		.loc 1 417 36 view .LVU332
 1251 0026 164B     		ldr	r3, .L113
 417:Drivers/lvgl/src/extra/widgets/keyboard/lv_keyboard.c **** 
 1252              		.loc 1 417 88 view .LVU333
 1253 0028 2A8E     		ldrh	r2, [r5, #48]
 417:Drivers/lvgl/src/extra/widgets/keyboard/lv_keyboard.c **** 
 1254              		.loc 1 417 45 view .LVU334
ARM GAS  /var/folders/0z/tsy30v1j4xl4_7kw94k978ww0000gn/T//ccW5gjHE.s 			page 36


 1255 002a 95F83C10 		ldrb	r1, [r5, #60]	@ zero_extendqisi2
 417:Drivers/lvgl/src/extra/widgets/keyboard/lv_keyboard.c **** 
 1256              		.loc 1 417 9 view .LVU335
 1257 002e 5200     		lsls	r2, r2, #1
 1258 0030 53F82110 		ldr	r1, [r3, r1, lsl #2]
 416:Drivers/lvgl/src/extra/widgets/keyboard/lv_keyboard.c ****         lv_memcpy(ctrl_map, kb_ctrl[keyboard->mode], sizeof(lv_btnmatrix_ctrl_t) * btnm->btn_cnt);
 1259              		.loc 1 416 42 view .LVU336
 1260 0034 0646     		mov	r6, r0
 1261              	.LVL118:
 417:Drivers/lvgl/src/extra/widgets/keyboard/lv_keyboard.c **** 
 1262              		.loc 1 417 9 is_stmt 1 view .LVU337
 1263 0036 FFF7FEFF 		bl	lv_memcpy
 1264              	.LVL119:
 420:Drivers/lvgl/src/extra/widgets/keyboard/lv_keyboard.c ****             ctrl_map[i] &= (~LV_BTNMATRIX_CTRL_POPOVER);
 1265              		.loc 1 420 9 view .LVU338
 1266              	.LBB71:
 420:Drivers/lvgl/src/extra/widgets/keyboard/lv_keyboard.c ****             ctrl_map[i] &= (~LV_BTNMATRIX_CTRL_POPOVER);
 1267              		.loc 1 420 13 view .LVU339
 420:Drivers/lvgl/src/extra/widgets/keyboard/lv_keyboard.c ****             ctrl_map[i] &= (~LV_BTNMATRIX_CTRL_POPOVER);
 1268              		.loc 1 420 31 view .LVU340
 1269 003a 2B8E     		ldrh	r3, [r5, #48]
 1270 003c 63B1     		cbz	r3, .L103
 1271 003e 2346     		mov	r3, r4
 1272              	.LVL120:
 1273              	.L104:
 421:Drivers/lvgl/src/extra/widgets/keyboard/lv_keyboard.c ****         }
 1274              		.loc 1 421 13 view .LVU341
 421:Drivers/lvgl/src/extra/widgets/keyboard/lv_keyboard.c ****         }
 1275              		.loc 1 421 25 is_stmt 0 view .LVU342
 1276 0040 99B2     		uxth	r1, r3
 420:Drivers/lvgl/src/extra/widgets/keyboard/lv_keyboard.c ****             ctrl_map[i] &= (~LV_BTNMATRIX_CTRL_POPOVER);
 1277              		.loc 1 420 31 view .LVU343
 1278 0042 0133     		adds	r3, r3, #1
 1279              	.LVL121:
 421:Drivers/lvgl/src/extra/widgets/keyboard/lv_keyboard.c ****         }
 1280              		.loc 1 421 25 view .LVU344
 1281 0044 36F81120 		ldrh	r2, [r6, r1, lsl #1]
 1282 0048 22F48062 		bic	r2, r2, #1024
 1283 004c 26F81120 		strh	r2, [r6, r1, lsl #1]	@ movhi
 420:Drivers/lvgl/src/extra/widgets/keyboard/lv_keyboard.c ****             ctrl_map[i] &= (~LV_BTNMATRIX_CTRL_POPOVER);
 1284              		.loc 1 420 49 is_stmt 1 view .LVU345
 1285              	.LVL122:
 420:Drivers/lvgl/src/extra/widgets/keyboard/lv_keyboard.c ****             ctrl_map[i] &= (~LV_BTNMATRIX_CTRL_POPOVER);
 1286              		.loc 1 420 31 view .LVU346
 1287 0050 2A8E     		ldrh	r2, [r5, #48]
 1288 0052 98B2     		uxth	r0, r3
 1289 0054 8242     		cmp	r2, r0
 1290 0056 F3D8     		bhi	.L104
 1291              	.L103:
 420:Drivers/lvgl/src/extra/widgets/keyboard/lv_keyboard.c ****             ctrl_map[i] &= (~LV_BTNMATRIX_CTRL_POPOVER);
 1292              		.loc 1 420 31 is_stmt 0 view .LVU347
 1293              	.LBE71:
 425:Drivers/lvgl/src/extra/widgets/keyboard/lv_keyboard.c ****         lv_mem_free(ctrl_map);
 1294              		.loc 1 425 9 is_stmt 1 view .LVU348
 1295 0058 2846     		mov	r0, r5
 1296 005a 3146     		mov	r1, r6
 1297 005c FFF7FEFF 		bl	lv_btnmatrix_set_ctrl_map
ARM GAS  /var/folders/0z/tsy30v1j4xl4_7kw94k978ww0000gn/T//ccW5gjHE.s 			page 37


 1298              	.LVL123:
 426:Drivers/lvgl/src/extra/widgets/keyboard/lv_keyboard.c ****     }
 1299              		.loc 1 426 9 view .LVU349
 1300 0060 3046     		mov	r0, r6
 1301              	.LBE70:
 1302              	.LBE69:
 1303              	.LBE68:
 1304              	.LBE75:
 1305              	.LBE78:
 206:Drivers/lvgl/src/extra/widgets/keyboard/lv_keyboard.c **** 
 1306              		.loc 1 206 1 is_stmt 0 view .LVU350
 1307 0062 BDE87040 		pop	{r4, r5, r6, lr}
 1308              		.cfi_remember_state
 1309              		.cfi_restore 14
 1310              		.cfi_restore 6
 1311              		.cfi_restore 5
 1312              		.cfi_restore 4
 1313              		.cfi_def_cfa_offset 0
 1314              	.LVL124:
 1315              	.LBB79:
 1316              	.LBB76:
 1317              	.LBB74:
 1318              	.LBB73:
 1319              	.LBB72:
 426:Drivers/lvgl/src/extra/widgets/keyboard/lv_keyboard.c ****     }
 1320              		.loc 1 426 9 view .LVU351
 1321 0066 FFF7FEBF 		b	lv_mem_free
 1322              	.LVL125:
 1323              	.L112:
 1324              		.cfi_restore_state
 426:Drivers/lvgl/src/extra/widgets/keyboard/lv_keyboard.c ****     }
 1325              		.loc 1 426 9 view .LVU352
 1326              	.LBE72:
 1327              	.LBE73:
 1328              	.LBE74:
 411:Drivers/lvgl/src/extra/widgets/keyboard/lv_keyboard.c ****     }
 1329              		.loc 1 411 9 is_stmt 1 view .LVU353
 1330 006a 054B     		ldr	r3, .L113
 411:Drivers/lvgl/src/extra/widgets/keyboard/lv_keyboard.c ****     }
 1331              		.loc 1 411 56 is_stmt 0 view .LVU354
 1332 006c 90F83C20 		ldrb	r2, [r0, #60]	@ zero_extendqisi2
 1333              	.LBE76:
 1334              	.LBE79:
 206:Drivers/lvgl/src/extra/widgets/keyboard/lv_keyboard.c **** 
 1335              		.loc 1 206 1 view .LVU355
 1336 0070 BDE87040 		pop	{r4, r5, r6, lr}
 1337              		.cfi_restore 14
 1338              		.cfi_restore 6
 1339              		.cfi_restore 5
 1340              		.cfi_restore 4
 1341              		.cfi_def_cfa_offset 0
 1342              	.LBB80:
 1343              	.LBB77:
 411:Drivers/lvgl/src/extra/widgets/keyboard/lv_keyboard.c ****     }
 1344              		.loc 1 411 9 view .LVU356
 1345 0074 53F82210 		ldr	r1, [r3, r2, lsl #2]
 1346              	.LVL126:
ARM GAS  /var/folders/0z/tsy30v1j4xl4_7kw94k978ww0000gn/T//ccW5gjHE.s 			page 38


 411:Drivers/lvgl/src/extra/widgets/keyboard/lv_keyboard.c ****     }
 1347              		.loc 1 411 9 view .LVU357
 1348 0078 FFF7FEBF 		b	lv_btnmatrix_set_ctrl_map
 1349              	.LVL127:
 1350              	.L100:
 411:Drivers/lvgl/src/extra/widgets/keyboard/lv_keyboard.c ****     }
 1351              		.loc 1 411 9 view .LVU358
 1352 007c 7047     		bx	lr
 1353              	.L114:
 1354 007e 00BF     		.align	2
 1355              	.L113:
 1356 0080 00000000 		.word	.LANCHOR0
 1357              	.LBE77:
 1358              	.LBE80:
 1359              		.cfi_endproc
 1360              	.LFE167:
 1362              		.section	.text.lv_keyboard_set_map,"ax",%progbits
 1363              		.align	1
 1364              		.p2align 2,,3
 1365              		.global	lv_keyboard_set_map
 1366              		.syntax unified
 1367              		.thumb
 1368              		.thumb_func
 1370              	lv_keyboard_set_map:
 1371              	.LVL128:
 1372              	.LFB168:
 217:Drivers/lvgl/src/extra/widgets/keyboard/lv_keyboard.c ****     kb_map[mode] = map;
 1373              		.loc 1 217 1 is_stmt 1 view -0
 1374              		.cfi_startproc
 1375              		@ args = 0, pretend = 0, frame = 0
 1376              		@ frame_needed = 0, uses_anonymous_args = 0
 218:Drivers/lvgl/src/extra/widgets/keyboard/lv_keyboard.c ****     kb_ctrl[mode] = ctrl_map;
 1377              		.loc 1 218 5 view .LVU360
 217:Drivers/lvgl/src/extra/widgets/keyboard/lv_keyboard.c ****     kb_map[mode] = map;
 1378              		.loc 1 217 1 is_stmt 0 view .LVU361
 1379 0000 F8B5     		push	{r3, r4, r5, r6, r7, lr}
 1380              		.cfi_def_cfa_offset 24
 1381              		.cfi_offset 3, -24
 1382              		.cfi_offset 4, -20
 1383              		.cfi_offset 5, -16
 1384              		.cfi_offset 6, -12
 1385              		.cfi_offset 7, -8
 1386              		.cfi_offset 14, -4
 217:Drivers/lvgl/src/extra/widgets/keyboard/lv_keyboard.c ****     kb_map[mode] = map;
 1387              		.loc 1 217 1 view .LVU362
 1388 0002 0C46     		mov	r4, r1
 218:Drivers/lvgl/src/extra/widgets/keyboard/lv_keyboard.c ****     kb_ctrl[mode] = ctrl_map;
 1389              		.loc 1 218 18 view .LVU363
 1390 0004 1F49     		ldr	r1, .L124
 1391              	.LVL129:
 219:Drivers/lvgl/src/extra/widgets/keyboard/lv_keyboard.c ****     lv_keyboard_update_map(obj);
 1392              		.loc 1 219 19 view .LVU364
 1393 0006 204F     		ldr	r7, .L124+4
 218:Drivers/lvgl/src/extra/widgets/keyboard/lv_keyboard.c ****     kb_ctrl[mode] = ctrl_map;
 1394              		.loc 1 218 18 view .LVU365
 1395 0008 41F82420 		str	r2, [r1, r4, lsl #2]
 219:Drivers/lvgl/src/extra/widgets/keyboard/lv_keyboard.c ****     lv_keyboard_update_map(obj);
ARM GAS  /var/folders/0z/tsy30v1j4xl4_7kw94k978ww0000gn/T//ccW5gjHE.s 			page 39


 1396              		.loc 1 219 5 is_stmt 1 view .LVU366
 1397              	.LBB89:
 1398              	.LBB90:
 397:Drivers/lvgl/src/extra/widgets/keyboard/lv_keyboard.c ****     lv_keyboard_update_ctrl_map(obj);
 1399              		.loc 1 397 46 is_stmt 0 view .LVU367
 1400 000c 90F83C20 		ldrb	r2, [r0, #60]	@ zero_extendqisi2
 1401              	.LVL130:
 397:Drivers/lvgl/src/extra/widgets/keyboard/lv_keyboard.c ****     lv_keyboard_update_ctrl_map(obj);
 1402              		.loc 1 397 46 view .LVU368
 1403              	.LBE90:
 1404              	.LBE89:
 219:Drivers/lvgl/src/extra/widgets/keyboard/lv_keyboard.c ****     lv_keyboard_update_map(obj);
 1405              		.loc 1 219 19 view .LVU369
 1406 0010 47F82430 		str	r3, [r7, r4, lsl #2]
 220:Drivers/lvgl/src/extra/widgets/keyboard/lv_keyboard.c **** }
 1407              		.loc 1 220 5 is_stmt 1 view .LVU370
 217:Drivers/lvgl/src/extra/widgets/keyboard/lv_keyboard.c ****     kb_map[mode] = map;
 1408              		.loc 1 217 1 is_stmt 0 view .LVU371
 1409 0014 0546     		mov	r5, r0
 1410              	.LVL131:
 1411              	.LBB107:
 1412              	.LBI89:
 394:Drivers/lvgl/src/extra/widgets/keyboard/lv_keyboard.c **** {
 1413              		.loc 1 394 13 is_stmt 1 view .LVU372
 1414              	.LBB104:
 396:Drivers/lvgl/src/extra/widgets/keyboard/lv_keyboard.c ****     lv_btnmatrix_set_map(obj, kb_map[keyboard->mode]);
 1415              		.loc 1 396 5 view .LVU373
 397:Drivers/lvgl/src/extra/widgets/keyboard/lv_keyboard.c ****     lv_keyboard_update_ctrl_map(obj);
 1416              		.loc 1 397 5 view .LVU374
 1417 0016 51F82210 		ldr	r1, [r1, r2, lsl #2]
 1418              	.LVL132:
 397:Drivers/lvgl/src/extra/widgets/keyboard/lv_keyboard.c ****     lv_keyboard_update_ctrl_map(obj);
 1419              		.loc 1 397 5 is_stmt 0 view .LVU375
 1420 001a FFF7FEFF 		bl	lv_btnmatrix_set_map
 1421              	.LVL133:
 398:Drivers/lvgl/src/extra/widgets/keyboard/lv_keyboard.c **** }
 1422              		.loc 1 398 5 is_stmt 1 view .LVU376
 1423              	.LBB91:
 1424              	.LBI91:
 405:Drivers/lvgl/src/extra/widgets/keyboard/lv_keyboard.c **** {
 1425              		.loc 1 405 13 view .LVU377
 1426              	.LBB92:
 407:Drivers/lvgl/src/extra/widgets/keyboard/lv_keyboard.c **** 
 1427              		.loc 1 407 5 view .LVU378
 409:Drivers/lvgl/src/extra/widgets/keyboard/lv_keyboard.c ****         /*Apply the current control map (already includes LV_BTNMATRIX_CTRL_POPOVER flags)*/
 1428              		.loc 1 409 5 view .LVU379
 409:Drivers/lvgl/src/extra/widgets/keyboard/lv_keyboard.c ****         /*Apply the current control map (already includes LV_BTNMATRIX_CTRL_POPOVER flags)*/
 1429              		.loc 1 409 8 is_stmt 0 view .LVU380
 1430 001e 95F83D30 		ldrb	r3, [r5, #61]	@ zero_extendqisi2
 409:Drivers/lvgl/src/extra/widgets/keyboard/lv_keyboard.c ****         /*Apply the current control map (already includes LV_BTNMATRIX_CTRL_POPOVER flags)*/
 1431              		.loc 1 409 7 view .LVU381
 1432 0022 13F00104 		ands	r4, r3, #1
 1433 0026 08D0     		beq	.L116
 411:Drivers/lvgl/src/extra/widgets/keyboard/lv_keyboard.c ****     }
 1434              		.loc 1 411 9 is_stmt 1 view .LVU382
 411:Drivers/lvgl/src/extra/widgets/keyboard/lv_keyboard.c ****     }
 1435              		.loc 1 411 56 is_stmt 0 view .LVU383
ARM GAS  /var/folders/0z/tsy30v1j4xl4_7kw94k978ww0000gn/T//ccW5gjHE.s 			page 40


 1436 0028 95F83C30 		ldrb	r3, [r5, #60]	@ zero_extendqisi2
 411:Drivers/lvgl/src/extra/widgets/keyboard/lv_keyboard.c ****     }
 1437              		.loc 1 411 9 view .LVU384
 1438 002c 2846     		mov	r0, r5
 1439 002e 57F82310 		ldr	r1, [r7, r3, lsl #2]
 1440              	.LBE92:
 1441              	.LBE91:
 1442              	.LBE104:
 1443              	.LBE107:
 221:Drivers/lvgl/src/extra/widgets/keyboard/lv_keyboard.c **** 
 1444              		.loc 1 221 1 view .LVU385
 1445 0032 BDE8F840 		pop	{r3, r4, r5, r6, r7, lr}
 1446              		.cfi_remember_state
 1447              		.cfi_restore 14
 1448              		.cfi_restore 7
 1449              		.cfi_restore 6
 1450              		.cfi_restore 5
 1451              		.cfi_restore 4
 1452              		.cfi_restore 3
 1453              		.cfi_def_cfa_offset 0
 1454              	.LVL134:
 1455              	.LBB108:
 1456              	.LBB105:
 1457              	.LBB102:
 1458              	.LBB100:
 411:Drivers/lvgl/src/extra/widgets/keyboard/lv_keyboard.c ****     }
 1459              		.loc 1 411 9 view .LVU386
 1460 0036 FFF7FEBF 		b	lv_btnmatrix_set_ctrl_map
 1461              	.LVL135:
 1462              	.L116:
 1463              		.cfi_restore_state
 1464              	.LBB93:
 1465              	.LBI93:
 405:Drivers/lvgl/src/extra/widgets/keyboard/lv_keyboard.c **** {
 1466              		.loc 1 405 13 is_stmt 1 view .LVU387
 1467              	.LBB94:
 1468              	.LBB95:
 415:Drivers/lvgl/src/extra/widgets/keyboard/lv_keyboard.c ****         lv_btnmatrix_ctrl_t * ctrl_map = lv_mem_alloc(btnm->btn_cnt * sizeof(lv_btnmatrix_ctrl_t));
 1469              		.loc 1 415 9 view .LVU388
 416:Drivers/lvgl/src/extra/widgets/keyboard/lv_keyboard.c ****         lv_memcpy(ctrl_map, kb_ctrl[keyboard->mode], sizeof(lv_btnmatrix_ctrl_t) * btnm->btn_cnt);
 1470              		.loc 1 416 9 view .LVU389
 416:Drivers/lvgl/src/extra/widgets/keyboard/lv_keyboard.c ****         lv_memcpy(ctrl_map, kb_ctrl[keyboard->mode], sizeof(lv_btnmatrix_ctrl_t) * btnm->btn_cnt);
 1471              		.loc 1 416 59 is_stmt 0 view .LVU390
 1472 003a 288E     		ldrh	r0, [r5, #48]
 416:Drivers/lvgl/src/extra/widgets/keyboard/lv_keyboard.c ****         lv_memcpy(ctrl_map, kb_ctrl[keyboard->mode], sizeof(lv_btnmatrix_ctrl_t) * btnm->btn_cnt);
 1473              		.loc 1 416 42 view .LVU391
 1474 003c 4000     		lsls	r0, r0, #1
 1475 003e FFF7FEFF 		bl	lv_mem_alloc
 1476              	.LVL136:
 417:Drivers/lvgl/src/extra/widgets/keyboard/lv_keyboard.c **** 
 1477              		.loc 1 417 45 view .LVU392
 1478 0042 95F83C30 		ldrb	r3, [r5, #60]	@ zero_extendqisi2
 417:Drivers/lvgl/src/extra/widgets/keyboard/lv_keyboard.c **** 
 1479              		.loc 1 417 88 view .LVU393
 1480 0046 2A8E     		ldrh	r2, [r5, #48]
 417:Drivers/lvgl/src/extra/widgets/keyboard/lv_keyboard.c **** 
 1481              		.loc 1 417 9 view .LVU394
ARM GAS  /var/folders/0z/tsy30v1j4xl4_7kw94k978ww0000gn/T//ccW5gjHE.s 			page 41


 1482 0048 57F82310 		ldr	r1, [r7, r3, lsl #2]
 1483 004c 5200     		lsls	r2, r2, #1
 416:Drivers/lvgl/src/extra/widgets/keyboard/lv_keyboard.c ****         lv_memcpy(ctrl_map, kb_ctrl[keyboard->mode], sizeof(lv_btnmatrix_ctrl_t) * btnm->btn_cnt);
 1484              		.loc 1 416 42 view .LVU395
 1485 004e 0646     		mov	r6, r0
 1486              	.LVL137:
 417:Drivers/lvgl/src/extra/widgets/keyboard/lv_keyboard.c **** 
 1487              		.loc 1 417 9 is_stmt 1 view .LVU396
 1488 0050 FFF7FEFF 		bl	lv_memcpy
 1489              	.LVL138:
 420:Drivers/lvgl/src/extra/widgets/keyboard/lv_keyboard.c ****             ctrl_map[i] &= (~LV_BTNMATRIX_CTRL_POPOVER);
 1490              		.loc 1 420 9 view .LVU397
 1491              	.LBB96:
 420:Drivers/lvgl/src/extra/widgets/keyboard/lv_keyboard.c ****             ctrl_map[i] &= (~LV_BTNMATRIX_CTRL_POPOVER);
 1492              		.loc 1 420 13 view .LVU398
 420:Drivers/lvgl/src/extra/widgets/keyboard/lv_keyboard.c ****             ctrl_map[i] &= (~LV_BTNMATRIX_CTRL_POPOVER);
 1493              		.loc 1 420 31 view .LVU399
 1494 0054 2B8E     		ldrh	r3, [r5, #48]
 1495 0056 63B1     		cbz	r3, .L117
 1496 0058 2346     		mov	r3, r4
 1497              	.LVL139:
 1498              	.L118:
 421:Drivers/lvgl/src/extra/widgets/keyboard/lv_keyboard.c ****         }
 1499              		.loc 1 421 13 view .LVU400
 421:Drivers/lvgl/src/extra/widgets/keyboard/lv_keyboard.c ****         }
 1500              		.loc 1 421 25 is_stmt 0 view .LVU401
 1501 005a 99B2     		uxth	r1, r3
 420:Drivers/lvgl/src/extra/widgets/keyboard/lv_keyboard.c ****             ctrl_map[i] &= (~LV_BTNMATRIX_CTRL_POPOVER);
 1502              		.loc 1 420 31 view .LVU402
 1503 005c 0133     		adds	r3, r3, #1
 1504              	.LVL140:
 421:Drivers/lvgl/src/extra/widgets/keyboard/lv_keyboard.c ****         }
 1505              		.loc 1 421 25 view .LVU403
 1506 005e 36F81120 		ldrh	r2, [r6, r1, lsl #1]
 1507 0062 22F48062 		bic	r2, r2, #1024
 1508 0066 26F81120 		strh	r2, [r6, r1, lsl #1]	@ movhi
 420:Drivers/lvgl/src/extra/widgets/keyboard/lv_keyboard.c ****             ctrl_map[i] &= (~LV_BTNMATRIX_CTRL_POPOVER);
 1509              		.loc 1 420 49 is_stmt 1 view .LVU404
 1510              	.LVL141:
 420:Drivers/lvgl/src/extra/widgets/keyboard/lv_keyboard.c ****             ctrl_map[i] &= (~LV_BTNMATRIX_CTRL_POPOVER);
 1511              		.loc 1 420 31 view .LVU405
 1512 006a 2A8E     		ldrh	r2, [r5, #48]
 1513 006c 98B2     		uxth	r0, r3
 1514 006e 8242     		cmp	r2, r0
 1515 0070 F3D8     		bhi	.L118
 1516              	.L117:
 420:Drivers/lvgl/src/extra/widgets/keyboard/lv_keyboard.c ****             ctrl_map[i] &= (~LV_BTNMATRIX_CTRL_POPOVER);
 1517              		.loc 1 420 31 is_stmt 0 view .LVU406
 1518              	.LBE96:
 425:Drivers/lvgl/src/extra/widgets/keyboard/lv_keyboard.c ****         lv_mem_free(ctrl_map);
 1519              		.loc 1 425 9 is_stmt 1 view .LVU407
 1520 0072 2846     		mov	r0, r5
 1521 0074 3146     		mov	r1, r6
 1522 0076 FFF7FEFF 		bl	lv_btnmatrix_set_ctrl_map
 1523              	.LVL142:
 426:Drivers/lvgl/src/extra/widgets/keyboard/lv_keyboard.c ****     }
 1524              		.loc 1 426 9 view .LVU408
ARM GAS  /var/folders/0z/tsy30v1j4xl4_7kw94k978ww0000gn/T//ccW5gjHE.s 			page 42


 1525 007a 3046     		mov	r0, r6
 1526              	.LBE95:
 1527              	.LBE94:
 1528              	.LBE93:
 1529              	.LBE100:
 1530              	.LBE102:
 1531              	.LBE105:
 1532              	.LBE108:
 221:Drivers/lvgl/src/extra/widgets/keyboard/lv_keyboard.c **** 
 1533              		.loc 1 221 1 is_stmt 0 view .LVU409
 1534 007c BDE8F840 		pop	{r3, r4, r5, r6, r7, lr}
 1535              		.cfi_restore 14
 1536              		.cfi_restore 7
 1537              		.cfi_restore 6
 1538              		.cfi_restore 5
 1539              		.cfi_restore 4
 1540              		.cfi_restore 3
 1541              		.cfi_def_cfa_offset 0
 1542              	.LVL143:
 1543              	.LBB109:
 1544              	.LBB106:
 1545              	.LBB103:
 1546              	.LBB101:
 1547              	.LBB99:
 1548              	.LBB98:
 1549              	.LBB97:
 426:Drivers/lvgl/src/extra/widgets/keyboard/lv_keyboard.c ****     }
 1550              		.loc 1 426 9 view .LVU410
 1551 0080 FFF7FEBF 		b	lv_mem_free
 1552              	.LVL144:
 1553              	.L125:
 426:Drivers/lvgl/src/extra/widgets/keyboard/lv_keyboard.c ****     }
 1554              		.loc 1 426 9 view .LVU411
 1555              		.align	2
 1556              	.L124:
 1557 0084 00000000 		.word	.LANCHOR1
 1558 0088 00000000 		.word	.LANCHOR0
 1559              	.LBE97:
 1560              	.LBE98:
 1561              	.LBE99:
 1562              	.LBE101:
 1563              	.LBE103:
 1564              	.LBE106:
 1565              	.LBE109:
 1566              		.cfi_endproc
 1567              	.LFE168:
 1569              		.section	.text.lv_keyboard_get_textarea,"ax",%progbits
 1570              		.align	1
 1571              		.p2align 2,,3
 1572              		.global	lv_keyboard_get_textarea
 1573              		.syntax unified
 1574              		.thumb
 1575              		.thumb_func
 1577              	lv_keyboard_get_textarea:
 1578              	.LVL145:
 1579              	.LFB169:
 233:Drivers/lvgl/src/extra/widgets/keyboard/lv_keyboard.c ****     LV_ASSERT_OBJ(obj, MY_CLASS);
ARM GAS  /var/folders/0z/tsy30v1j4xl4_7kw94k978ww0000gn/T//ccW5gjHE.s 			page 43


 1580              		.loc 1 233 1 is_stmt 1 view -0
 1581              		.cfi_startproc
 1582              		@ args = 0, pretend = 0, frame = 0
 1583              		@ frame_needed = 0, uses_anonymous_args = 0
 1584              		@ link register save eliminated.
 234:Drivers/lvgl/src/extra/widgets/keyboard/lv_keyboard.c ****     lv_keyboard_t * keyboard = (lv_keyboard_t *)obj;
 1585              		.loc 1 234 5 view .LVU413
 234:Drivers/lvgl/src/extra/widgets/keyboard/lv_keyboard.c ****     lv_keyboard_t * keyboard = (lv_keyboard_t *)obj;
 1586              		.loc 1 234 5 view .LVU414
 234:Drivers/lvgl/src/extra/widgets/keyboard/lv_keyboard.c ****     lv_keyboard_t * keyboard = (lv_keyboard_t *)obj;
 1587              		.loc 1 234 5 view .LVU415
 235:Drivers/lvgl/src/extra/widgets/keyboard/lv_keyboard.c ****     return keyboard->ta;
 1588              		.loc 1 235 5 view .LVU416
 236:Drivers/lvgl/src/extra/widgets/keyboard/lv_keyboard.c **** }
 1589              		.loc 1 236 5 view .LVU417
 237:Drivers/lvgl/src/extra/widgets/keyboard/lv_keyboard.c **** 
 1590              		.loc 1 237 1 is_stmt 0 view .LVU418
 1591 0000 806B     		ldr	r0, [r0, #56]
 1592              	.LVL146:
 237:Drivers/lvgl/src/extra/widgets/keyboard/lv_keyboard.c **** 
 1593              		.loc 1 237 1 view .LVU419
 1594 0002 7047     		bx	lr
 1595              		.cfi_endproc
 1596              	.LFE169:
 1598              		.section	.text.lv_keyboard_get_mode,"ax",%progbits
 1599              		.align	1
 1600              		.p2align 2,,3
 1601              		.global	lv_keyboard_get_mode
 1602              		.syntax unified
 1603              		.thumb
 1604              		.thumb_func
 1606              	lv_keyboard_get_mode:
 1607              	.LVL147:
 1608              	.LFB170:
 245:Drivers/lvgl/src/extra/widgets/keyboard/lv_keyboard.c ****     LV_ASSERT_OBJ(obj, MY_CLASS);
 1609              		.loc 1 245 1 is_stmt 1 view -0
 1610              		.cfi_startproc
 1611              		@ args = 0, pretend = 0, frame = 0
 1612              		@ frame_needed = 0, uses_anonymous_args = 0
 1613              		@ link register save eliminated.
 246:Drivers/lvgl/src/extra/widgets/keyboard/lv_keyboard.c ****     lv_keyboard_t * keyboard = (lv_keyboard_t *)obj;
 1614              		.loc 1 246 5 view .LVU421
 246:Drivers/lvgl/src/extra/widgets/keyboard/lv_keyboard.c ****     lv_keyboard_t * keyboard = (lv_keyboard_t *)obj;
 1615              		.loc 1 246 5 view .LVU422
 246:Drivers/lvgl/src/extra/widgets/keyboard/lv_keyboard.c ****     lv_keyboard_t * keyboard = (lv_keyboard_t *)obj;
 1616              		.loc 1 246 5 view .LVU423
 247:Drivers/lvgl/src/extra/widgets/keyboard/lv_keyboard.c ****     return keyboard->mode;
 1617              		.loc 1 247 5 view .LVU424
 248:Drivers/lvgl/src/extra/widgets/keyboard/lv_keyboard.c **** }
 1618              		.loc 1 248 5 view .LVU425
 249:Drivers/lvgl/src/extra/widgets/keyboard/lv_keyboard.c **** 
 1619              		.loc 1 249 1 is_stmt 0 view .LVU426
 1620 0000 90F83C00 		ldrb	r0, [r0, #60]	@ zero_extendqisi2
 1621              	.LVL148:
 249:Drivers/lvgl/src/extra/widgets/keyboard/lv_keyboard.c **** 
 1622              		.loc 1 249 1 view .LVU427
 1623 0004 7047     		bx	lr
ARM GAS  /var/folders/0z/tsy30v1j4xl4_7kw94k978ww0000gn/T//ccW5gjHE.s 			page 44


 1624              		.cfi_endproc
 1625              	.LFE170:
 1627 0006 00BF     		.section	.text.lv_btnmatrix_get_popovers,"ax",%progbits
 1628              		.align	1
 1629              		.p2align 2,,3
 1630              		.global	lv_btnmatrix_get_popovers
 1631              		.syntax unified
 1632              		.thumb
 1633              		.thumb_func
 1635              	lv_btnmatrix_get_popovers:
 1636              	.LVL149:
 1637              	.LFB171:
 257:Drivers/lvgl/src/extra/widgets/keyboard/lv_keyboard.c ****     lv_keyboard_t * keyboard = (lv_keyboard_t *)obj;
 1638              		.loc 1 257 1 is_stmt 1 view -0
 1639              		.cfi_startproc
 1640              		@ args = 0, pretend = 0, frame = 0
 1641              		@ frame_needed = 0, uses_anonymous_args = 0
 1642              		@ link register save eliminated.
 258:Drivers/lvgl/src/extra/widgets/keyboard/lv_keyboard.c ****     return keyboard->popovers;
 1643              		.loc 1 258 5 view .LVU429
 259:Drivers/lvgl/src/extra/widgets/keyboard/lv_keyboard.c **** }
 1644              		.loc 1 259 5 view .LVU430
 259:Drivers/lvgl/src/extra/widgets/keyboard/lv_keyboard.c **** }
 1645              		.loc 1 259 20 is_stmt 0 view .LVU431
 1646 0000 90F83D00 		ldrb	r0, [r0, #61]	@ zero_extendqisi2
 1647              	.LVL150:
 260:Drivers/lvgl/src/extra/widgets/keyboard/lv_keyboard.c **** 
 1648              		.loc 1 260 1 view .LVU432
 1649 0004 00F00100 		and	r0, r0, #1
 1650 0008 7047     		bx	lr
 1651              		.cfi_endproc
 1652              	.LFE171:
 1654 000a 00BF     		.section	.rodata.str1.4,"aMS",%progbits,1
 1655              		.align	2
 1656              	.LC11:
 1657 0000 3100     		.ascii	"1\000"
 1658 0002 0000     		.align	2
 1659              	.LC12:
 1660 0004 3200     		.ascii	"2\000"
 1661 0006 0000     		.align	2
 1662              	.LC13:
 1663 0008 3300     		.ascii	"3\000"
 1664 000a 0000     		.align	2
 1665              	.LC14:
 1666 000c 0A00     		.ascii	"\012\000"
 1667 000e 0000     		.align	2
 1668              	.LC15:
 1669 0010 3400     		.ascii	"4\000"
 1670 0012 0000     		.align	2
 1671              	.LC16:
 1672 0014 3500     		.ascii	"5\000"
 1673 0016 0000     		.align	2
 1674              	.LC17:
 1675 0018 3600     		.ascii	"6\000"
 1676 001a 0000     		.align	2
 1677              	.LC18:
 1678 001c 3700     		.ascii	"7\000"
ARM GAS  /var/folders/0z/tsy30v1j4xl4_7kw94k978ww0000gn/T//ccW5gjHE.s 			page 45


 1679 001e 0000     		.align	2
 1680              	.LC19:
 1681 0020 3800     		.ascii	"8\000"
 1682 0022 0000     		.align	2
 1683              	.LC20:
 1684 0024 3900     		.ascii	"9\000"
 1685 0026 0000     		.align	2
 1686              	.LC21:
 1687 0028 3000     		.ascii	"0\000"
 1688 002a 0000     		.align	2
 1689              	.LC22:
 1690 002c 2E00     		.ascii	".\000"
 1691 002e 0000     		.align	2
 1692              	.LC23:
 1693 0030 00       		.ascii	"\000"
 1694 0031 000000   		.align	2
 1695              	.LC24:
 1696 0034 2B00     		.ascii	"+\000"
 1697 0036 0000     		.align	2
 1698              	.LC25:
 1699 0038 2600     		.ascii	"&\000"
 1700 003a 0000     		.align	2
 1701              	.LC26:
 1702 003c 2F00     		.ascii	"/\000"
 1703 003e 0000     		.align	2
 1704              	.LC27:
 1705 0040 2A00     		.ascii	"*\000"
 1706 0042 0000     		.align	2
 1707              	.LC28:
 1708 0044 3D00     		.ascii	"=\000"
 1709 0046 0000     		.align	2
 1710              	.LC29:
 1711 0048 2500     		.ascii	"%\000"
 1712 004a 0000     		.align	2
 1713              	.LC30:
 1714 004c 2100     		.ascii	"!\000"
 1715 004e 0000     		.align	2
 1716              	.LC31:
 1717 0050 3F00     		.ascii	"?\000"
 1718 0052 0000     		.align	2
 1719              	.LC32:
 1720 0054 2300     		.ascii	"#\000"
 1721 0056 0000     		.align	2
 1722              	.LC33:
 1723 0058 3C00     		.ascii	"<\000"
 1724 005a 0000     		.align	2
 1725              	.LC34:
 1726 005c 3E00     		.ascii	">\000"
 1727 005e 0000     		.align	2
 1728              	.LC35:
 1729 0060 5C00     		.ascii	"\\\000"
 1730 0062 0000     		.align	2
 1731              	.LC36:
 1732 0064 4000     		.ascii	"@\000"
 1733 0066 0000     		.align	2
 1734              	.LC37:
 1735 0068 2400     		.ascii	"$\000"
ARM GAS  /var/folders/0z/tsy30v1j4xl4_7kw94k978ww0000gn/T//ccW5gjHE.s 			page 46


 1736 006a 0000     		.align	2
 1737              	.LC38:
 1738 006c 2800     		.ascii	"(\000"
 1739 006e 0000     		.align	2
 1740              	.LC39:
 1741 0070 2900     		.ascii	")\000"
 1742 0072 0000     		.align	2
 1743              	.LC40:
 1744 0074 7B00     		.ascii	"{\000"
 1745 0076 0000     		.align	2
 1746              	.LC41:
 1747 0078 7D00     		.ascii	"}\000"
 1748 007a 0000     		.align	2
 1749              	.LC42:
 1750 007c 5B00     		.ascii	"[\000"
 1751 007e 0000     		.align	2
 1752              	.LC43:
 1753 0080 5D00     		.ascii	"]\000"
 1754 0082 0000     		.align	2
 1755              	.LC44:
 1756 0084 3B00     		.ascii	";\000"
 1757 0086 0000     		.align	2
 1758              	.LC45:
 1759 0088 2200     		.ascii	"\"\000"
 1760 008a 0000     		.align	2
 1761              	.LC46:
 1762 008c 2700     		.ascii	"'\000"
 1763 008e 0000     		.align	2
 1764              	.LC47:
 1765 0090 2000     		.ascii	" \000"
 1766 0092 0000     		.align	2
 1767              	.LC48:
 1768 0094 312300   		.ascii	"1#\000"
 1769 0097 00       		.align	2
 1770              	.LC49:
 1771 0098 5100     		.ascii	"Q\000"
 1772 009a 0000     		.align	2
 1773              	.LC50:
 1774 009c 5700     		.ascii	"W\000"
 1775 009e 0000     		.align	2
 1776              	.LC51:
 1777 00a0 4500     		.ascii	"E\000"
 1778 00a2 0000     		.align	2
 1779              	.LC52:
 1780 00a4 5200     		.ascii	"R\000"
 1781 00a6 0000     		.align	2
 1782              	.LC53:
 1783 00a8 5400     		.ascii	"T\000"
 1784 00aa 0000     		.align	2
 1785              	.LC54:
 1786 00ac 5900     		.ascii	"Y\000"
 1787 00ae 0000     		.align	2
 1788              	.LC55:
 1789 00b0 5500     		.ascii	"U\000"
 1790 00b2 0000     		.align	2
 1791              	.LC56:
 1792 00b4 4900     		.ascii	"I\000"
ARM GAS  /var/folders/0z/tsy30v1j4xl4_7kw94k978ww0000gn/T//ccW5gjHE.s 			page 47


 1793 00b6 0000     		.align	2
 1794              	.LC57:
 1795 00b8 4F00     		.ascii	"O\000"
 1796 00ba 0000     		.align	2
 1797              	.LC58:
 1798 00bc 5000     		.ascii	"P\000"
 1799 00be 0000     		.align	2
 1800              	.LC59:
 1801 00c0 4100     		.ascii	"A\000"
 1802 00c2 0000     		.align	2
 1803              	.LC60:
 1804 00c4 5300     		.ascii	"S\000"
 1805 00c6 0000     		.align	2
 1806              	.LC61:
 1807 00c8 4400     		.ascii	"D\000"
 1808 00ca 0000     		.align	2
 1809              	.LC62:
 1810 00cc 4600     		.ascii	"F\000"
 1811 00ce 0000     		.align	2
 1812              	.LC63:
 1813 00d0 4700     		.ascii	"G\000"
 1814 00d2 0000     		.align	2
 1815              	.LC64:
 1816 00d4 4800     		.ascii	"H\000"
 1817 00d6 0000     		.align	2
 1818              	.LC65:
 1819 00d8 4A00     		.ascii	"J\000"
 1820 00da 0000     		.align	2
 1821              	.LC66:
 1822 00dc 4B00     		.ascii	"K\000"
 1823 00de 0000     		.align	2
 1824              	.LC67:
 1825 00e0 4C00     		.ascii	"L\000"
 1826 00e2 0000     		.align	2
 1827              	.LC68:
 1828 00e4 5F00     		.ascii	"_\000"
 1829 00e6 0000     		.align	2
 1830              	.LC69:
 1831 00e8 2D00     		.ascii	"-\000"
 1832 00ea 0000     		.align	2
 1833              	.LC70:
 1834 00ec 5A00     		.ascii	"Z\000"
 1835 00ee 0000     		.align	2
 1836              	.LC71:
 1837 00f0 5800     		.ascii	"X\000"
 1838 00f2 0000     		.align	2
 1839              	.LC72:
 1840 00f4 4300     		.ascii	"C\000"
 1841 00f6 0000     		.align	2
 1842              	.LC73:
 1843 00f8 5600     		.ascii	"V\000"
 1844 00fa 0000     		.align	2
 1845              	.LC74:
 1846 00fc 4200     		.ascii	"B\000"
 1847 00fe 0000     		.align	2
 1848              	.LC75:
 1849 0100 4E00     		.ascii	"N\000"
ARM GAS  /var/folders/0z/tsy30v1j4xl4_7kw94k978ww0000gn/T//ccW5gjHE.s 			page 48


 1850 0102 0000     		.align	2
 1851              	.LC76:
 1852 0104 4D00     		.ascii	"M\000"
 1853 0106 0000     		.align	2
 1854              	.LC77:
 1855 0108 2C00     		.ascii	",\000"
 1856 010a 0000     		.align	2
 1857              	.LC78:
 1858 010c 3A00     		.ascii	":\000"
 1859 010e 0000     		.align	2
 1860              	.LC79:
 1861 0110 7100     		.ascii	"q\000"
 1862 0112 0000     		.align	2
 1863              	.LC80:
 1864 0114 7700     		.ascii	"w\000"
 1865 0116 0000     		.align	2
 1866              	.LC81:
 1867 0118 6500     		.ascii	"e\000"
 1868 011a 0000     		.align	2
 1869              	.LC82:
 1870 011c 7200     		.ascii	"r\000"
 1871 011e 0000     		.align	2
 1872              	.LC83:
 1873 0120 7400     		.ascii	"t\000"
 1874 0122 0000     		.align	2
 1875              	.LC84:
 1876 0124 7900     		.ascii	"y\000"
 1877 0126 0000     		.align	2
 1878              	.LC85:
 1879 0128 7500     		.ascii	"u\000"
 1880 012a 0000     		.align	2
 1881              	.LC86:
 1882 012c 6900     		.ascii	"i\000"
 1883 012e 0000     		.align	2
 1884              	.LC87:
 1885 0130 6F00     		.ascii	"o\000"
 1886 0132 0000     		.align	2
 1887              	.LC88:
 1888 0134 7000     		.ascii	"p\000"
 1889 0136 0000     		.align	2
 1890              	.LC89:
 1891 0138 6100     		.ascii	"a\000"
 1892 013a 0000     		.align	2
 1893              	.LC90:
 1894 013c 7300     		.ascii	"s\000"
 1895 013e 0000     		.align	2
 1896              	.LC91:
 1897 0140 6400     		.ascii	"d\000"
 1898 0142 0000     		.align	2
 1899              	.LC92:
 1900 0144 6600     		.ascii	"f\000"
 1901 0146 0000     		.align	2
 1902              	.LC93:
 1903 0148 6700     		.ascii	"g\000"
 1904 014a 0000     		.align	2
 1905              	.LC94:
 1906 014c 6800     		.ascii	"h\000"
ARM GAS  /var/folders/0z/tsy30v1j4xl4_7kw94k978ww0000gn/T//ccW5gjHE.s 			page 49


 1907 014e 0000     		.align	2
 1908              	.LC95:
 1909 0150 6A00     		.ascii	"j\000"
 1910 0152 0000     		.align	2
 1911              	.LC96:
 1912 0154 6B00     		.ascii	"k\000"
 1913 0156 0000     		.align	2
 1914              	.LC97:
 1915 0158 6C00     		.ascii	"l\000"
 1916 015a 0000     		.align	2
 1917              	.LC98:
 1918 015c 7A00     		.ascii	"z\000"
 1919 015e 0000     		.align	2
 1920              	.LC99:
 1921 0160 7800     		.ascii	"x\000"
 1922 0162 0000     		.align	2
 1923              	.LC100:
 1924 0164 6300     		.ascii	"c\000"
 1925 0166 0000     		.align	2
 1926              	.LC101:
 1927 0168 7600     		.ascii	"v\000"
 1928 016a 0000     		.align	2
 1929              	.LC102:
 1930 016c 6200     		.ascii	"b\000"
 1931 016e 0000     		.align	2
 1932              	.LC103:
 1933 0170 6E00     		.ascii	"n\000"
 1934 0172 0000     		.align	2
 1935              	.LC104:
 1936 0174 6D00     		.ascii	"m\000"
 1937              		.global	lv_keyboard_class
 1938              		.section	.data.kb_ctrl,"aw"
 1939              		.align	2
 1940              		.set	.LANCHOR0,. + 0
 1943              	kb_ctrl:
 1944 0000 00000000 		.word	default_kb_ctrl_lc_map
 1945 0004 00000000 		.word	default_kb_ctrl_uc_map
 1946 0008 00000000 		.word	default_kb_ctrl_spec_map
 1947 000c 00000000 		.word	default_kb_ctrl_num_map
 1948 0010 00000000 		.word	default_kb_ctrl_lc_map
 1949 0014 00000000 		.word	default_kb_ctrl_lc_map
 1950 0018 00000000 		.word	default_kb_ctrl_lc_map
 1951 001c 00000000 		.word	default_kb_ctrl_lc_map
 1952 0020 00000000 		.word	0
 1953              		.section	.data.kb_map,"aw"
 1954              		.align	2
 1955              		.set	.LANCHOR1,. + 0
 1958              	kb_map:
 1959 0000 00000000 		.word	default_kb_map_lc
 1960 0004 00000000 		.word	default_kb_map_uc
 1961 0008 00000000 		.word	default_kb_map_spec
 1962 000c 00000000 		.word	default_kb_map_num
 1963 0010 00000000 		.word	default_kb_map_lc
 1964 0014 00000000 		.word	default_kb_map_lc
 1965 0018 00000000 		.word	default_kb_map_lc
 1966 001c 00000000 		.word	default_kb_map_lc
 1967 0020 00000000 		.word	0
ARM GAS  /var/folders/0z/tsy30v1j4xl4_7kw94k978ww0000gn/T//ccW5gjHE.s 			page 50


 1968              		.section	.rodata.default_kb_ctrl_lc_map,"a"
 1969              		.align	2
 1972              	default_kb_ctrl_lc_map:
 1973 0000 2503     		.short	805
 1974 0002 0404     		.short	1028
 1975 0004 0404     		.short	1028
 1976 0006 0404     		.short	1028
 1977 0008 0404     		.short	1028
 1978 000a 0404     		.short	1028
 1979 000c 0404     		.short	1028
 1980 000e 0404     		.short	1028
 1981 0010 0404     		.short	1028
 1982 0012 0404     		.short	1028
 1983 0014 0404     		.short	1028
 1984 0016 0701     		.short	263
 1985 0018 2603     		.short	806
 1986 001a 0304     		.short	1027
 1987 001c 0304     		.short	1027
 1988 001e 0304     		.short	1027
 1989 0020 0304     		.short	1027
 1990 0022 0304     		.short	1027
 1991 0024 0304     		.short	1027
 1992 0026 0304     		.short	1027
 1993 0028 0304     		.short	1027
 1994 002a 0304     		.short	1027
 1995 002c 0701     		.short	263
 1996 002e 0105     		.short	1281
 1997 0030 0105     		.short	1281
 1998 0032 0104     		.short	1025
 1999 0034 0104     		.short	1025
 2000 0036 0104     		.short	1025
 2001 0038 0104     		.short	1025
 2002 003a 0104     		.short	1025
 2003 003c 0104     		.short	1025
 2004 003e 0104     		.short	1025
 2005 0040 0105     		.short	1281
 2006 0042 0105     		.short	1281
 2007 0044 0105     		.short	1281
 2008 0046 2203     		.short	802
 2009 0048 0201     		.short	258
 2010 004a 0600     		.short	6
 2011 004c 0201     		.short	258
 2012 004e 2203     		.short	802
 2013              		.section	.rodata.default_kb_ctrl_num_map,"a"
 2014              		.align	2
 2017              	default_kb_ctrl_num_map:
 2018 0000 0100     		.short	1
 2019 0002 0100     		.short	1
 2020 0004 0100     		.short	1
 2021 0006 2203     		.short	802
 2022 0008 0100     		.short	1
 2023 000a 0100     		.short	1
 2024 000c 0100     		.short	1
 2025 000e 2203     		.short	802
 2026 0010 0100     		.short	1
 2027 0012 0100     		.short	1
 2028 0014 0100     		.short	1
ARM GAS  /var/folders/0z/tsy30v1j4xl4_7kw94k978ww0000gn/T//ccW5gjHE.s 			page 51


 2029 0016 0200     		.short	2
 2030 0018 0100     		.short	1
 2031 001a 0100     		.short	1
 2032 001c 0100     		.short	1
 2033 001e 0100     		.short	1
 2034 0020 0100     		.short	1
 2035              		.section	.rodata.default_kb_ctrl_spec_map,"a"
 2036              		.align	2
 2039              	default_kb_ctrl_spec_map:
 2040 0000 0104     		.short	1025
 2041 0002 0104     		.short	1025
 2042 0004 0104     		.short	1025
 2043 0006 0104     		.short	1025
 2044 0008 0104     		.short	1025
 2045 000a 0104     		.short	1025
 2046 000c 0104     		.short	1025
 2047 000e 0104     		.short	1025
 2048 0010 0104     		.short	1025
 2049 0012 0104     		.short	1025
 2050 0014 0201     		.short	258
 2051 0016 2203     		.short	802
 2052 0018 0104     		.short	1025
 2053 001a 0104     		.short	1025
 2054 001c 0104     		.short	1025
 2055 001e 0104     		.short	1025
 2056 0020 0104     		.short	1025
 2057 0022 0104     		.short	1025
 2058 0024 0104     		.short	1025
 2059 0026 0104     		.short	1025
 2060 0028 0104     		.short	1025
 2061 002a 0104     		.short	1025
 2062 002c 0104     		.short	1025
 2063 002e 0104     		.short	1025
 2064 0030 0104     		.short	1025
 2065 0032 0104     		.short	1025
 2066 0034 0104     		.short	1025
 2067 0036 0104     		.short	1025
 2068 0038 0104     		.short	1025
 2069 003a 0104     		.short	1025
 2070 003c 0104     		.short	1025
 2071 003e 0104     		.short	1025
 2072 0040 0104     		.short	1025
 2073 0042 0104     		.short	1025
 2074 0044 0104     		.short	1025
 2075 0046 2203     		.short	802
 2076 0048 0201     		.short	258
 2077 004a 0600     		.short	6
 2078 004c 0201     		.short	258
 2079 004e 2203     		.short	802
 2080              		.section	.rodata.default_kb_ctrl_uc_map,"a"
 2081              		.align	2
 2084              	default_kb_ctrl_uc_map:
 2085 0000 2503     		.short	805
 2086 0002 0404     		.short	1028
 2087 0004 0404     		.short	1028
 2088 0006 0404     		.short	1028
 2089 0008 0404     		.short	1028
ARM GAS  /var/folders/0z/tsy30v1j4xl4_7kw94k978ww0000gn/T//ccW5gjHE.s 			page 52


 2090 000a 0404     		.short	1028
 2091 000c 0404     		.short	1028
 2092 000e 0404     		.short	1028
 2093 0010 0404     		.short	1028
 2094 0012 0404     		.short	1028
 2095 0014 0404     		.short	1028
 2096 0016 0701     		.short	263
 2097 0018 2603     		.short	806
 2098 001a 0304     		.short	1027
 2099 001c 0304     		.short	1027
 2100 001e 0304     		.short	1027
 2101 0020 0304     		.short	1027
 2102 0022 0304     		.short	1027
 2103 0024 0304     		.short	1027
 2104 0026 0304     		.short	1027
 2105 0028 0304     		.short	1027
 2106 002a 0304     		.short	1027
 2107 002c 0701     		.short	263
 2108 002e 0105     		.short	1281
 2109 0030 0105     		.short	1281
 2110 0032 0104     		.short	1025
 2111 0034 0104     		.short	1025
 2112 0036 0104     		.short	1025
 2113 0038 0104     		.short	1025
 2114 003a 0104     		.short	1025
 2115 003c 0104     		.short	1025
 2116 003e 0104     		.short	1025
 2117 0040 0105     		.short	1281
 2118 0042 0105     		.short	1281
 2119 0044 0105     		.short	1281
 2120 0046 2203     		.short	802
 2121 0048 0201     		.short	258
 2122 004a 0600     		.short	6
 2123 004c 0201     		.short	258
 2124 004e 2203     		.short	802
 2125              		.section	.rodata.default_kb_map_lc,"a"
 2126              		.align	2
 2129              	default_kb_map_lc:
 2130 0000 94000000 		.word	.LC48
 2131 0004 10010000 		.word	.LC79
 2132 0008 14010000 		.word	.LC80
 2133 000c 18010000 		.word	.LC81
 2134 0010 1C010000 		.word	.LC82
 2135 0014 20010000 		.word	.LC83
 2136 0018 24010000 		.word	.LC84
 2137 001c 28010000 		.word	.LC85
 2138 0020 2C010000 		.word	.LC86
 2139 0024 30010000 		.word	.LC87
 2140 0028 34010000 		.word	.LC88
 2141 002c 28000000 		.word	.LC9
 2142 0030 0C000000 		.word	.LC14
 2143 0034 04000000 		.word	.LC1
 2144 0038 38010000 		.word	.LC89
 2145 003c 3C010000 		.word	.LC90
 2146 0040 40010000 		.word	.LC91
 2147 0044 44010000 		.word	.LC92
 2148 0048 48010000 		.word	.LC93
ARM GAS  /var/folders/0z/tsy30v1j4xl4_7kw94k978ww0000gn/T//ccW5gjHE.s 			page 53


 2149 004c 4C010000 		.word	.LC94
 2150 0050 50010000 		.word	.LC95
 2151 0054 54010000 		.word	.LC96
 2152 0058 58010000 		.word	.LC97
 2153 005c 1C000000 		.word	.LC6
 2154 0060 0C000000 		.word	.LC14
 2155 0064 E4000000 		.word	.LC68
 2156 0068 E8000000 		.word	.LC69
 2157 006c 5C010000 		.word	.LC98
 2158 0070 60010000 		.word	.LC99
 2159 0074 64010000 		.word	.LC100
 2160 0078 68010000 		.word	.LC101
 2161 007c 6C010000 		.word	.LC102
 2162 0080 70010000 		.word	.LC103
 2163 0084 74010000 		.word	.LC104
 2164 0088 2C000000 		.word	.LC22
 2165 008c 08010000 		.word	.LC77
 2166 0090 0C010000 		.word	.LC78
 2167 0094 0C000000 		.word	.LC14
 2168 0098 0C000000 		.word	.LC3
 2169 009c 20000000 		.word	.LC7
 2170 00a0 90000000 		.word	.LC47
 2171 00a4 24000000 		.word	.LC8
 2172 00a8 10000000 		.word	.LC4
 2173 00ac 30000000 		.word	.LC23
 2174              		.section	.rodata.default_kb_map_num,"a"
 2175              		.align	2
 2178              	default_kb_map_num:
 2179 0000 00000000 		.word	.LC11
 2180 0004 04000000 		.word	.LC12
 2181 0008 08000000 		.word	.LC13
 2182 000c 0C000000 		.word	.LC3
 2183 0010 0C000000 		.word	.LC14
 2184 0014 10000000 		.word	.LC15
 2185 0018 14000000 		.word	.LC16
 2186 001c 18000000 		.word	.LC17
 2187 0020 10000000 		.word	.LC4
 2188 0024 0C000000 		.word	.LC14
 2189 0028 1C000000 		.word	.LC18
 2190 002c 20000000 		.word	.LC19
 2191 0030 24000000 		.word	.LC20
 2192 0034 28000000 		.word	.LC9
 2193 0038 0C000000 		.word	.LC14
 2194 003c 2C000000 		.word	.LC10
 2195 0040 28000000 		.word	.LC21
 2196 0044 2C000000 		.word	.LC22
 2197 0048 20000000 		.word	.LC7
 2198 004c 24000000 		.word	.LC8
 2199 0050 30000000 		.word	.LC23
 2200              		.section	.rodata.default_kb_map_spec,"a"
 2201              		.align	2
 2204              	default_kb_map_spec:
 2205 0000 00000000 		.word	.LC11
 2206 0004 04000000 		.word	.LC12
 2207 0008 08000000 		.word	.LC13
 2208 000c 10000000 		.word	.LC15
 2209 0010 14000000 		.word	.LC16
ARM GAS  /var/folders/0z/tsy30v1j4xl4_7kw94k978ww0000gn/T//ccW5gjHE.s 			page 54


 2210 0014 18000000 		.word	.LC17
 2211 0018 1C000000 		.word	.LC18
 2212 001c 20000000 		.word	.LC19
 2213 0020 24000000 		.word	.LC20
 2214 0024 28000000 		.word	.LC21
 2215 0028 28000000 		.word	.LC9
 2216 002c 0C000000 		.word	.LC14
 2217 0030 00000000 		.word	.LC0
 2218 0034 34000000 		.word	.LC24
 2219 0038 38000000 		.word	.LC25
 2220 003c 3C000000 		.word	.LC26
 2221 0040 40000000 		.word	.LC27
 2222 0044 44000000 		.word	.LC28
 2223 0048 48000000 		.word	.LC29
 2224 004c 4C000000 		.word	.LC30
 2225 0050 50000000 		.word	.LC31
 2226 0054 54000000 		.word	.LC32
 2227 0058 58000000 		.word	.LC33
 2228 005c 5C000000 		.word	.LC34
 2229 0060 0C000000 		.word	.LC14
 2230 0064 60000000 		.word	.LC35
 2231 0068 64000000 		.word	.LC36
 2232 006c 68000000 		.word	.LC37
 2233 0070 6C000000 		.word	.LC38
 2234 0074 70000000 		.word	.LC39
 2235 0078 74000000 		.word	.LC40
 2236 007c 78000000 		.word	.LC41
 2237 0080 7C000000 		.word	.LC42
 2238 0084 80000000 		.word	.LC43
 2239 0088 84000000 		.word	.LC44
 2240 008c 88000000 		.word	.LC45
 2241 0090 8C000000 		.word	.LC46
 2242 0094 0C000000 		.word	.LC14
 2243 0098 0C000000 		.word	.LC3
 2244 009c 20000000 		.word	.LC7
 2245 00a0 90000000 		.word	.LC47
 2246 00a4 24000000 		.word	.LC8
 2247 00a8 10000000 		.word	.LC4
 2248 00ac 30000000 		.word	.LC23
 2249              		.section	.rodata.default_kb_map_uc,"a"
 2250              		.align	2
 2253              	default_kb_map_uc:
 2254 0000 94000000 		.word	.LC48
 2255 0004 98000000 		.word	.LC49
 2256 0008 9C000000 		.word	.LC50
 2257 000c A0000000 		.word	.LC51
 2258 0010 A4000000 		.word	.LC52
 2259 0014 A8000000 		.word	.LC53
 2260 0018 AC000000 		.word	.LC54
 2261 001c B0000000 		.word	.LC55
 2262 0020 B4000000 		.word	.LC56
 2263 0024 B8000000 		.word	.LC57
 2264 0028 BC000000 		.word	.LC58
 2265 002c 28000000 		.word	.LC9
 2266 0030 0C000000 		.word	.LC14
 2267 0034 00000000 		.word	.LC0
 2268 0038 C0000000 		.word	.LC59
ARM GAS  /var/folders/0z/tsy30v1j4xl4_7kw94k978ww0000gn/T//ccW5gjHE.s 			page 55


 2269 003c C4000000 		.word	.LC60
 2270 0040 C8000000 		.word	.LC61
 2271 0044 CC000000 		.word	.LC62
 2272 0048 D0000000 		.word	.LC63
 2273 004c D4000000 		.word	.LC64
 2274 0050 D8000000 		.word	.LC65
 2275 0054 DC000000 		.word	.LC66
 2276 0058 E0000000 		.word	.LC67
 2277 005c 1C000000 		.word	.LC6
 2278 0060 0C000000 		.word	.LC14
 2279 0064 E4000000 		.word	.LC68
 2280 0068 E8000000 		.word	.LC69
 2281 006c EC000000 		.word	.LC70
 2282 0070 F0000000 		.word	.LC71
 2283 0074 F4000000 		.word	.LC72
 2284 0078 F8000000 		.word	.LC73
 2285 007c FC000000 		.word	.LC74
 2286 0080 00010000 		.word	.LC75
 2287 0084 04010000 		.word	.LC76
 2288 0088 2C000000 		.word	.LC22
 2289 008c 08010000 		.word	.LC77
 2290 0090 0C010000 		.word	.LC78
 2291 0094 0C000000 		.word	.LC14
 2292 0098 0C000000 		.word	.LC3
 2293 009c 20000000 		.word	.LC7
 2294 00a0 90000000 		.word	.LC47
 2295 00a4 24000000 		.word	.LC8
 2296 00a8 10000000 		.word	.LC4
 2297 00ac 30000000 		.word	.LC23
 2298              		.section	.rodata.lv_keyboard_class,"a"
 2299              		.align	2
 2300              		.set	.LANCHOR2,. + 0
 2303              	lv_keyboard_class:
 2304 0000 00000000 		.word	lv_btnmatrix_class
 2305 0004 00000000 		.word	lv_keyboard_constructor
 2306 0008 00000000 		.space	12
 2306      00000000 
 2306      00000000 
 2307 0014 6420     		.short	8292
 2308 0016 3220     		.short	8242
 2309 0018 01       		.byte	1
 2310 0019 04       		.byte	4
 2311 001a 00       		.byte	0
 2312 001b 00       		.space	1
 2313              		.text
 2314              	.Letext0:
 2315              		.file 2 "/Users/johannes/Library/Application Support/Code/User/globalStorage/bmd.stm32-for-vscode/
 2316              		.file 3 "/Users/johannes/Library/Application Support/Code/User/globalStorage/bmd.stm32-for-vscode/
 2317              		.file 4 "/Users/johannes/Library/Application Support/Code/User/globalStorage/bmd.stm32-for-vscode/
 2318              		.file 5 "Drivers/lvgl/src/extra/widgets/keyboard/../../../widgets/../core/../misc/../font/../misc/
 2319              		.file 6 "Drivers/lvgl/src/extra/widgets/keyboard/../../../widgets/../core/../misc/lv_types.h"
 2320              		.file 7 "Drivers/lvgl/src/extra/widgets/keyboard/../../../widgets/../core/../misc/lv_color.h"
 2321              		.file 8 "Drivers/lvgl/src/extra/widgets/keyboard/../../../widgets/../core/../misc/lv_bidi.h"
 2322              		.file 9 "Drivers/lvgl/src/extra/widgets/keyboard/../../../widgets/../core/../misc/lv_style.h"
 2323              		.file 10 "Drivers/lvgl/src/extra/widgets/keyboard/../../../widgets/../core/lv_obj.h"
 2324              		.file 11 "Drivers/lvgl/src/extra/widgets/keyboard/../../../widgets/../core/../hal/../misc/lv_ll.h"
 2325              		.file 12 "Drivers/lvgl/src/extra/widgets/keyboard/../../../widgets/../core/lv_group.h"
ARM GAS  /var/folders/0z/tsy30v1j4xl4_7kw94k978ww0000gn/T//ccW5gjHE.s 			page 56


 2326              		.file 13 "Drivers/lvgl/src/extra/widgets/keyboard/../../../widgets/../core/lv_obj_scroll.h"
 2327              		.file 14 "Drivers/lvgl/src/extra/widgets/keyboard/../../../widgets/../core/lv_obj_style.h"
 2328              		.file 15 "Drivers/lvgl/src/extra/widgets/keyboard/../../../widgets/../core/lv_obj_class.h"
 2329              		.file 16 "Drivers/lvgl/src/extra/widgets/keyboard/../../../widgets/../core/lv_event.h"
 2330              		.file 17 "Drivers/lvgl/src/extra/widgets/keyboard/../../../widgets/lv_btnmatrix.h"
 2331              		.file 18 "Drivers/lvgl/src/extra/widgets/keyboard/lv_keyboard.h"
 2332              		.file 19 "Drivers/lvgl/src/extra/widgets/keyboard/../../../widgets/lv_textarea.h"
 2333              		.file 20 "/Users/johannes/Library/Application Support/Code/User/globalStorage/bmd.stm32-for-vscode
 2334              		.file 21 "Drivers/lvgl/src/extra/widgets/keyboard/../../../widgets/../core/../misc/lv_mem.h"
 2335              		.file 22 "Drivers/lvgl/src/extra/widgets/keyboard/../../../widgets/../core/lv_obj_style_gen.h"
 2336              		.file 23 "Drivers/lvgl/src/extra/widgets/keyboard/../../../widgets/../core/../hal/../draw/sw/../..
ARM GAS  /var/folders/0z/tsy30v1j4xl4_7kw94k978ww0000gn/T//ccW5gjHE.s 			page 57

