ARM GAS  /var/folders/lp/x54gwt890xv47sdkqj1k04q40000gn/T//cck1u84I.s 			page 1


   1              		.cpu cortex-m4
   2              		.arch armv7e-m
   3              		.fpu fpv4-sp-d16
   4              		.eabi_attribute 27, 1
   5              		.eabi_attribute 28, 1
   6              		.eabi_attribute 20, 1
   7              		.eabi_attribute 21, 1
   8              		.eabi_attribute 23, 3
   9              		.eabi_attribute 24, 1
  10              		.eabi_attribute 25, 1
  11              		.eabi_attribute 26, 1
  12              		.eabi_attribute 30, 2
  13              		.eabi_attribute 34, 1
  14              		.eabi_attribute 18, 4
  15              		.file	"lv_lru.c"
  16              		.text
  17              	.Ltext0:
  18              		.cfi_sections	.debug_frame
  19              		.file 1 "Drivers/lvgl/src/misc/lv_lru.c"
  20              		.section	.text.lv_lru_remove_item,"ax",%progbits
  21              		.align	1
  22              		.p2align 2,,3
  23              		.syntax unified
  24              		.thumb
  25              		.thumb_func
  27              	lv_lru_remove_item:
  28              	.LVL0:
  29              	.LFB10:
   1:Drivers/lvgl/src/misc/lv_lru.c **** /**
   2:Drivers/lvgl/src/misc/lv_lru.c ****  * @file lv_lru.c
   3:Drivers/lvgl/src/misc/lv_lru.c ****  *
   4:Drivers/lvgl/src/misc/lv_lru.c ****  * @see https://github.com/willcannings/C-LRU-Cache
   5:Drivers/lvgl/src/misc/lv_lru.c ****  */
   6:Drivers/lvgl/src/misc/lv_lru.c **** 
   7:Drivers/lvgl/src/misc/lv_lru.c **** /*********************
   8:Drivers/lvgl/src/misc/lv_lru.c ****  *      INCLUDES
   9:Drivers/lvgl/src/misc/lv_lru.c ****  *********************/
  10:Drivers/lvgl/src/misc/lv_lru.c **** 
  11:Drivers/lvgl/src/misc/lv_lru.c **** #include "lv_lru.h"
  12:Drivers/lvgl/src/misc/lv_lru.c **** #include "lv_math.h"
  13:Drivers/lvgl/src/misc/lv_lru.c **** #include "lv_mem.h"
  14:Drivers/lvgl/src/misc/lv_lru.c **** #include "lv_assert.h"
  15:Drivers/lvgl/src/misc/lv_lru.c **** #include "lv_log.h"
  16:Drivers/lvgl/src/misc/lv_lru.c **** 
  17:Drivers/lvgl/src/misc/lv_lru.c **** /*********************
  18:Drivers/lvgl/src/misc/lv_lru.c ****  *      DEFINES
  19:Drivers/lvgl/src/misc/lv_lru.c ****  *********************/
  20:Drivers/lvgl/src/misc/lv_lru.c **** 
  21:Drivers/lvgl/src/misc/lv_lru.c **** /**********************
  22:Drivers/lvgl/src/misc/lv_lru.c ****  *      TYPEDEFS
  23:Drivers/lvgl/src/misc/lv_lru.c ****  **********************/
  24:Drivers/lvgl/src/misc/lv_lru.c **** 
  25:Drivers/lvgl/src/misc/lv_lru.c **** struct _lv_lru_item_t {
  26:Drivers/lvgl/src/misc/lv_lru.c ****     void * value;
  27:Drivers/lvgl/src/misc/lv_lru.c ****     void * key;
  28:Drivers/lvgl/src/misc/lv_lru.c ****     size_t value_length;
  29:Drivers/lvgl/src/misc/lv_lru.c ****     size_t key_length;
ARM GAS  /var/folders/lp/x54gwt890xv47sdkqj1k04q40000gn/T//cck1u84I.s 			page 2


  30:Drivers/lvgl/src/misc/lv_lru.c ****     uint64_t access_count;
  31:Drivers/lvgl/src/misc/lv_lru.c ****     struct _lv_lru_item_t * next;
  32:Drivers/lvgl/src/misc/lv_lru.c **** };
  33:Drivers/lvgl/src/misc/lv_lru.c **** 
  34:Drivers/lvgl/src/misc/lv_lru.c **** /**********************
  35:Drivers/lvgl/src/misc/lv_lru.c ****  *  STATIC PROTOTYPES
  36:Drivers/lvgl/src/misc/lv_lru.c ****  **********************/
  37:Drivers/lvgl/src/misc/lv_lru.c **** 
  38:Drivers/lvgl/src/misc/lv_lru.c **** /**
  39:Drivers/lvgl/src/misc/lv_lru.c ****  * MurmurHash2
  40:Drivers/lvgl/src/misc/lv_lru.c ****  * @author Austin Appleby
  41:Drivers/lvgl/src/misc/lv_lru.c ****  * @see http://sites.google.com/site/murmurhash/
  42:Drivers/lvgl/src/misc/lv_lru.c ****  */
  43:Drivers/lvgl/src/misc/lv_lru.c **** static uint32_t lv_lru_hash(lv_lru_t * cache, const void * key, uint32_t key_length);
  44:Drivers/lvgl/src/misc/lv_lru.c **** 
  45:Drivers/lvgl/src/misc/lv_lru.c **** /** compare a key against an existing item's key */
  46:Drivers/lvgl/src/misc/lv_lru.c **** static int lv_lru_cmp_keys(lv_lru_item_t * item, const void * key, uint32_t key_length);
  47:Drivers/lvgl/src/misc/lv_lru.c **** 
  48:Drivers/lvgl/src/misc/lv_lru.c **** /** remove an item and push it to the free items queue */
  49:Drivers/lvgl/src/misc/lv_lru.c **** static void lv_lru_remove_item(lv_lru_t * cache, lv_lru_item_t * prev, lv_lru_item_t * item, uint32
  50:Drivers/lvgl/src/misc/lv_lru.c **** 
  51:Drivers/lvgl/src/misc/lv_lru.c **** /** pop an existing item off the free queue, or create a new one */
  52:Drivers/lvgl/src/misc/lv_lru.c **** static lv_lru_item_t * lv_lru_pop_or_create_item(lv_lru_t * cache);
  53:Drivers/lvgl/src/misc/lv_lru.c **** 
  54:Drivers/lvgl/src/misc/lv_lru.c **** /**********************
  55:Drivers/lvgl/src/misc/lv_lru.c ****  *  STATIC VARIABLES
  56:Drivers/lvgl/src/misc/lv_lru.c ****  **********************/
  57:Drivers/lvgl/src/misc/lv_lru.c **** 
  58:Drivers/lvgl/src/misc/lv_lru.c **** /**********************
  59:Drivers/lvgl/src/misc/lv_lru.c ****  *      MACROS
  60:Drivers/lvgl/src/misc/lv_lru.c ****  **********************/
  61:Drivers/lvgl/src/misc/lv_lru.c **** 
  62:Drivers/lvgl/src/misc/lv_lru.c **** /* error helpers */
  63:Drivers/lvgl/src/misc/lv_lru.c **** #define error_for(conditions, error)  if(conditions) {return error;}
  64:Drivers/lvgl/src/misc/lv_lru.c **** #define test_for_missing_cache()      error_for(!cache, LV_LRU_MISSING_CACHE)
  65:Drivers/lvgl/src/misc/lv_lru.c **** #define test_for_missing_key()        error_for(!key, LV_LRU_MISSING_KEY)
  66:Drivers/lvgl/src/misc/lv_lru.c **** #define test_for_missing_value()      error_for(!value || value_length == 0, LV_LRU_MISSING_VALUE)
  67:Drivers/lvgl/src/misc/lv_lru.c **** #define test_for_value_too_large()    error_for(value_length > cache->total_memory, LV_LRU_VALUE_TO
  68:Drivers/lvgl/src/misc/lv_lru.c **** 
  69:Drivers/lvgl/src/misc/lv_lru.c **** /**********************
  70:Drivers/lvgl/src/misc/lv_lru.c ****  *   GLOBAL FUNCTIONS
  71:Drivers/lvgl/src/misc/lv_lru.c ****  **********************/
  72:Drivers/lvgl/src/misc/lv_lru.c **** 
  73:Drivers/lvgl/src/misc/lv_lru.c **** lv_lru_t * lv_lru_create(size_t cache_size, size_t average_length, lv_lru_free_t * value_free,
  74:Drivers/lvgl/src/misc/lv_lru.c ****                          lv_lru_free_t * key_free)
  75:Drivers/lvgl/src/misc/lv_lru.c **** {
  76:Drivers/lvgl/src/misc/lv_lru.c ****     // create the cache
  77:Drivers/lvgl/src/misc/lv_lru.c ****     lv_lru_t * cache = (lv_lru_t *) lv_mem_alloc(sizeof(lv_lru_t));
  78:Drivers/lvgl/src/misc/lv_lru.c ****     lv_memset_00(cache, sizeof(lv_lru_t));
  79:Drivers/lvgl/src/misc/lv_lru.c ****     if(!cache) {
  80:Drivers/lvgl/src/misc/lv_lru.c ****         LV_LOG_WARN("LRU Cache unable to create cache object");
  81:Drivers/lvgl/src/misc/lv_lru.c ****         return NULL;
  82:Drivers/lvgl/src/misc/lv_lru.c ****     }
  83:Drivers/lvgl/src/misc/lv_lru.c ****     cache->hash_table_size = cache_size / average_length;
  84:Drivers/lvgl/src/misc/lv_lru.c ****     cache->average_item_length = average_length;
  85:Drivers/lvgl/src/misc/lv_lru.c ****     cache->free_memory = cache_size;
  86:Drivers/lvgl/src/misc/lv_lru.c ****     cache->total_memory = cache_size;
ARM GAS  /var/folders/lp/x54gwt890xv47sdkqj1k04q40000gn/T//cck1u84I.s 			page 3


  87:Drivers/lvgl/src/misc/lv_lru.c ****     cache->seed = lv_rand(1, UINT32_MAX);
  88:Drivers/lvgl/src/misc/lv_lru.c ****     cache->value_free = value_free ? value_free : lv_mem_free;
  89:Drivers/lvgl/src/misc/lv_lru.c ****     cache->key_free = key_free ? key_free : lv_mem_free;
  90:Drivers/lvgl/src/misc/lv_lru.c **** 
  91:Drivers/lvgl/src/misc/lv_lru.c ****     // size the hash table to a guestimate of the number of slots required (assuming a perfect hash
  92:Drivers/lvgl/src/misc/lv_lru.c ****     cache->items = (lv_lru_item_t **) lv_mem_alloc(sizeof(lv_lru_item_t *) * cache->hash_table_size
  93:Drivers/lvgl/src/misc/lv_lru.c ****     lv_memset_00(cache->items, sizeof(lv_lru_item_t *) * cache->hash_table_size);
  94:Drivers/lvgl/src/misc/lv_lru.c ****     if(!cache->items) {
  95:Drivers/lvgl/src/misc/lv_lru.c ****         LV_LOG_WARN("LRU Cache unable to create cache hash table");
  96:Drivers/lvgl/src/misc/lv_lru.c ****         lv_mem_free(cache);
  97:Drivers/lvgl/src/misc/lv_lru.c ****         return NULL;
  98:Drivers/lvgl/src/misc/lv_lru.c ****     }
  99:Drivers/lvgl/src/misc/lv_lru.c ****     return cache;
 100:Drivers/lvgl/src/misc/lv_lru.c **** }
 101:Drivers/lvgl/src/misc/lv_lru.c **** 
 102:Drivers/lvgl/src/misc/lv_lru.c **** 
 103:Drivers/lvgl/src/misc/lv_lru.c **** void lv_lru_del(lv_lru_t * cache)
 104:Drivers/lvgl/src/misc/lv_lru.c **** {
 105:Drivers/lvgl/src/misc/lv_lru.c ****     LV_ASSERT_NULL(cache);
 106:Drivers/lvgl/src/misc/lv_lru.c **** 
 107:Drivers/lvgl/src/misc/lv_lru.c ****     // free each of the cached items, and the hash table
 108:Drivers/lvgl/src/misc/lv_lru.c ****     lv_lru_item_t * item = NULL, *next = NULL;
 109:Drivers/lvgl/src/misc/lv_lru.c ****     uint32_t i = 0;
 110:Drivers/lvgl/src/misc/lv_lru.c ****     if(cache->items) {
 111:Drivers/lvgl/src/misc/lv_lru.c ****         for(; i < cache->hash_table_size; i++) {
 112:Drivers/lvgl/src/misc/lv_lru.c ****             item = cache->items[i];
 113:Drivers/lvgl/src/misc/lv_lru.c ****             while(item) {
 114:Drivers/lvgl/src/misc/lv_lru.c ****                 next = (lv_lru_item_t *) item->next;
 115:Drivers/lvgl/src/misc/lv_lru.c ****                 cache->value_free(item->value);
 116:Drivers/lvgl/src/misc/lv_lru.c ****                 cache->key_free(item->key);
 117:Drivers/lvgl/src/misc/lv_lru.c ****                 cache->free_memory += item->value_length;
 118:Drivers/lvgl/src/misc/lv_lru.c ****                 lv_mem_free(item);
 119:Drivers/lvgl/src/misc/lv_lru.c ****                 item = next;
 120:Drivers/lvgl/src/misc/lv_lru.c ****             }
 121:Drivers/lvgl/src/misc/lv_lru.c ****         }
 122:Drivers/lvgl/src/misc/lv_lru.c ****         lv_mem_free(cache->items);
 123:Drivers/lvgl/src/misc/lv_lru.c ****     }
 124:Drivers/lvgl/src/misc/lv_lru.c **** 
 125:Drivers/lvgl/src/misc/lv_lru.c ****     if(cache->free_items) {
 126:Drivers/lvgl/src/misc/lv_lru.c ****         item = cache->free_items;
 127:Drivers/lvgl/src/misc/lv_lru.c ****         while(item) {
 128:Drivers/lvgl/src/misc/lv_lru.c ****             next = (lv_lru_item_t *) item->next;
 129:Drivers/lvgl/src/misc/lv_lru.c ****             lv_mem_free(item);
 130:Drivers/lvgl/src/misc/lv_lru.c ****             item = next;
 131:Drivers/lvgl/src/misc/lv_lru.c ****         }
 132:Drivers/lvgl/src/misc/lv_lru.c ****     }
 133:Drivers/lvgl/src/misc/lv_lru.c **** 
 134:Drivers/lvgl/src/misc/lv_lru.c ****     // free the cache
 135:Drivers/lvgl/src/misc/lv_lru.c ****     lv_mem_free(cache);
 136:Drivers/lvgl/src/misc/lv_lru.c **** }
 137:Drivers/lvgl/src/misc/lv_lru.c **** 
 138:Drivers/lvgl/src/misc/lv_lru.c **** 
 139:Drivers/lvgl/src/misc/lv_lru.c **** lv_lru_res_t lv_lru_set(lv_lru_t * cache, const void * key, size_t key_length, void * value, size_t
 140:Drivers/lvgl/src/misc/lv_lru.c **** {
 141:Drivers/lvgl/src/misc/lv_lru.c ****     test_for_missing_cache();
 142:Drivers/lvgl/src/misc/lv_lru.c ****     test_for_missing_key();
 143:Drivers/lvgl/src/misc/lv_lru.c ****     test_for_missing_value();
ARM GAS  /var/folders/lp/x54gwt890xv47sdkqj1k04q40000gn/T//cck1u84I.s 			page 4


 144:Drivers/lvgl/src/misc/lv_lru.c ****     test_for_value_too_large();
 145:Drivers/lvgl/src/misc/lv_lru.c **** 
 146:Drivers/lvgl/src/misc/lv_lru.c ****     // see if the key already exists
 147:Drivers/lvgl/src/misc/lv_lru.c ****     uint32_t hash_index = lv_lru_hash(cache, key, key_length);
 148:Drivers/lvgl/src/misc/lv_lru.c ****     int required = 0;
 149:Drivers/lvgl/src/misc/lv_lru.c ****     lv_lru_item_t * item = NULL, *prev = NULL;
 150:Drivers/lvgl/src/misc/lv_lru.c ****     item = cache->items[hash_index];
 151:Drivers/lvgl/src/misc/lv_lru.c **** 
 152:Drivers/lvgl/src/misc/lv_lru.c ****     while(item && lv_lru_cmp_keys(item, key, key_length)) {
 153:Drivers/lvgl/src/misc/lv_lru.c ****         prev = item;
 154:Drivers/lvgl/src/misc/lv_lru.c ****         item = (lv_lru_item_t *) item->next;
 155:Drivers/lvgl/src/misc/lv_lru.c ****     }
 156:Drivers/lvgl/src/misc/lv_lru.c **** 
 157:Drivers/lvgl/src/misc/lv_lru.c ****     if(item) {
 158:Drivers/lvgl/src/misc/lv_lru.c ****         // update the value and value_lengths
 159:Drivers/lvgl/src/misc/lv_lru.c ****         required = (int)(value_length - item->value_length);
 160:Drivers/lvgl/src/misc/lv_lru.c ****         cache->value_free(item->value);
 161:Drivers/lvgl/src/misc/lv_lru.c ****         item->value = value;
 162:Drivers/lvgl/src/misc/lv_lru.c ****         item->value_length = value_length;
 163:Drivers/lvgl/src/misc/lv_lru.c **** 
 164:Drivers/lvgl/src/misc/lv_lru.c ****     }
 165:Drivers/lvgl/src/misc/lv_lru.c ****     else {
 166:Drivers/lvgl/src/misc/lv_lru.c ****         // insert a new item
 167:Drivers/lvgl/src/misc/lv_lru.c ****         item = lv_lru_pop_or_create_item(cache);
 168:Drivers/lvgl/src/misc/lv_lru.c ****         item->value = value;
 169:Drivers/lvgl/src/misc/lv_lru.c ****         item->key = lv_mem_alloc(key_length);
 170:Drivers/lvgl/src/misc/lv_lru.c ****         memcpy(item->key, key, key_length);
 171:Drivers/lvgl/src/misc/lv_lru.c ****         item->value_length = value_length;
 172:Drivers/lvgl/src/misc/lv_lru.c ****         item->key_length = key_length;
 173:Drivers/lvgl/src/misc/lv_lru.c ****         required = (int) value_length;
 174:Drivers/lvgl/src/misc/lv_lru.c **** 
 175:Drivers/lvgl/src/misc/lv_lru.c ****         if(prev)
 176:Drivers/lvgl/src/misc/lv_lru.c ****             prev->next = item;
 177:Drivers/lvgl/src/misc/lv_lru.c ****         else
 178:Drivers/lvgl/src/misc/lv_lru.c ****             cache->items[hash_index] = item;
 179:Drivers/lvgl/src/misc/lv_lru.c ****     }
 180:Drivers/lvgl/src/misc/lv_lru.c ****     item->access_count = ++cache->access_count;
 181:Drivers/lvgl/src/misc/lv_lru.c **** 
 182:Drivers/lvgl/src/misc/lv_lru.c ****     // remove as many items as necessary to free enough space
 183:Drivers/lvgl/src/misc/lv_lru.c ****     if(required > 0 && (size_t) required > cache->free_memory) {
 184:Drivers/lvgl/src/misc/lv_lru.c ****         while(cache->free_memory < (size_t) required)
 185:Drivers/lvgl/src/misc/lv_lru.c ****             lv_lru_remove_lru_item(cache);
 186:Drivers/lvgl/src/misc/lv_lru.c ****     }
 187:Drivers/lvgl/src/misc/lv_lru.c ****     cache->free_memory -= required;
 188:Drivers/lvgl/src/misc/lv_lru.c ****     return LV_LRU_OK;
 189:Drivers/lvgl/src/misc/lv_lru.c **** }
 190:Drivers/lvgl/src/misc/lv_lru.c **** 
 191:Drivers/lvgl/src/misc/lv_lru.c **** 
 192:Drivers/lvgl/src/misc/lv_lru.c **** lv_lru_res_t lv_lru_get(lv_lru_t * cache, const void * key, size_t key_size, void ** value)
 193:Drivers/lvgl/src/misc/lv_lru.c **** {
 194:Drivers/lvgl/src/misc/lv_lru.c ****     test_for_missing_cache();
 195:Drivers/lvgl/src/misc/lv_lru.c ****     test_for_missing_key();
 196:Drivers/lvgl/src/misc/lv_lru.c **** 
 197:Drivers/lvgl/src/misc/lv_lru.c ****     // loop until we find the item, or hit the end of a chain
 198:Drivers/lvgl/src/misc/lv_lru.c ****     uint32_t hash_index = lv_lru_hash(cache, key, key_size);
 199:Drivers/lvgl/src/misc/lv_lru.c ****     lv_lru_item_t * item = cache->items[hash_index];
 200:Drivers/lvgl/src/misc/lv_lru.c **** 
ARM GAS  /var/folders/lp/x54gwt890xv47sdkqj1k04q40000gn/T//cck1u84I.s 			page 5


 201:Drivers/lvgl/src/misc/lv_lru.c ****     while(item && lv_lru_cmp_keys(item, key, key_size))
 202:Drivers/lvgl/src/misc/lv_lru.c ****         item = (lv_lru_item_t *) item->next;
 203:Drivers/lvgl/src/misc/lv_lru.c **** 
 204:Drivers/lvgl/src/misc/lv_lru.c ****     if(item) {
 205:Drivers/lvgl/src/misc/lv_lru.c ****         *value = item->value;
 206:Drivers/lvgl/src/misc/lv_lru.c ****         item->access_count = ++cache->access_count;
 207:Drivers/lvgl/src/misc/lv_lru.c ****     }
 208:Drivers/lvgl/src/misc/lv_lru.c ****     else {
 209:Drivers/lvgl/src/misc/lv_lru.c ****         *value = NULL;
 210:Drivers/lvgl/src/misc/lv_lru.c ****     }
 211:Drivers/lvgl/src/misc/lv_lru.c **** 
 212:Drivers/lvgl/src/misc/lv_lru.c ****     return LV_LRU_OK;
 213:Drivers/lvgl/src/misc/lv_lru.c **** }
 214:Drivers/lvgl/src/misc/lv_lru.c **** 
 215:Drivers/lvgl/src/misc/lv_lru.c **** lv_lru_res_t lv_lru_remove(lv_lru_t * cache, const void * key, size_t key_size)
 216:Drivers/lvgl/src/misc/lv_lru.c **** {
 217:Drivers/lvgl/src/misc/lv_lru.c ****     test_for_missing_cache();
 218:Drivers/lvgl/src/misc/lv_lru.c ****     test_for_missing_key();
 219:Drivers/lvgl/src/misc/lv_lru.c **** 
 220:Drivers/lvgl/src/misc/lv_lru.c ****     // loop until we find the item, or hit the end of a chain
 221:Drivers/lvgl/src/misc/lv_lru.c ****     lv_lru_item_t * item = NULL, *prev = NULL;
 222:Drivers/lvgl/src/misc/lv_lru.c ****     uint32_t hash_index = lv_lru_hash(cache, key, key_size);
 223:Drivers/lvgl/src/misc/lv_lru.c ****     item = cache->items[hash_index];
 224:Drivers/lvgl/src/misc/lv_lru.c **** 
 225:Drivers/lvgl/src/misc/lv_lru.c ****     while(item && lv_lru_cmp_keys(item, key, key_size)) {
 226:Drivers/lvgl/src/misc/lv_lru.c ****         prev = item;
 227:Drivers/lvgl/src/misc/lv_lru.c ****         item = (lv_lru_item_t *) item->next;
 228:Drivers/lvgl/src/misc/lv_lru.c ****     }
 229:Drivers/lvgl/src/misc/lv_lru.c **** 
 230:Drivers/lvgl/src/misc/lv_lru.c ****     if(item) {
 231:Drivers/lvgl/src/misc/lv_lru.c ****         lv_lru_remove_item(cache, prev, item, hash_index);
 232:Drivers/lvgl/src/misc/lv_lru.c ****     }
 233:Drivers/lvgl/src/misc/lv_lru.c **** 
 234:Drivers/lvgl/src/misc/lv_lru.c ****     return LV_LRU_OK;
 235:Drivers/lvgl/src/misc/lv_lru.c **** }
 236:Drivers/lvgl/src/misc/lv_lru.c **** 
 237:Drivers/lvgl/src/misc/lv_lru.c **** void lv_lru_remove_lru_item(lv_lru_t * cache)
 238:Drivers/lvgl/src/misc/lv_lru.c **** {
 239:Drivers/lvgl/src/misc/lv_lru.c ****     lv_lru_item_t * min_item = NULL, *min_prev = NULL;
 240:Drivers/lvgl/src/misc/lv_lru.c ****     lv_lru_item_t * item = NULL, *prev = NULL;
 241:Drivers/lvgl/src/misc/lv_lru.c ****     uint32_t i = 0, min_index = -1;
 242:Drivers/lvgl/src/misc/lv_lru.c ****     uint64_t min_access_count = -1;
 243:Drivers/lvgl/src/misc/lv_lru.c **** 
 244:Drivers/lvgl/src/misc/lv_lru.c ****     for(; i < cache->hash_table_size; i++) {
 245:Drivers/lvgl/src/misc/lv_lru.c ****         item = cache->items[i];
 246:Drivers/lvgl/src/misc/lv_lru.c ****         prev = NULL;
 247:Drivers/lvgl/src/misc/lv_lru.c **** 
 248:Drivers/lvgl/src/misc/lv_lru.c ****         while(item) {
 249:Drivers/lvgl/src/misc/lv_lru.c ****             if(item->access_count < min_access_count || (int64_t) min_access_count == -1) {
 250:Drivers/lvgl/src/misc/lv_lru.c ****                 min_access_count = item->access_count;
 251:Drivers/lvgl/src/misc/lv_lru.c ****                 min_item = item;
 252:Drivers/lvgl/src/misc/lv_lru.c ****                 min_prev = prev;
 253:Drivers/lvgl/src/misc/lv_lru.c ****                 min_index = i;
 254:Drivers/lvgl/src/misc/lv_lru.c ****             }
 255:Drivers/lvgl/src/misc/lv_lru.c ****             prev = item;
 256:Drivers/lvgl/src/misc/lv_lru.c ****             item = item->next;
 257:Drivers/lvgl/src/misc/lv_lru.c ****         }
ARM GAS  /var/folders/lp/x54gwt890xv47sdkqj1k04q40000gn/T//cck1u84I.s 			page 6


 258:Drivers/lvgl/src/misc/lv_lru.c ****     }
 259:Drivers/lvgl/src/misc/lv_lru.c **** 
 260:Drivers/lvgl/src/misc/lv_lru.c ****     if(min_item) {
 261:Drivers/lvgl/src/misc/lv_lru.c ****         lv_lru_remove_item(cache, min_prev, min_item, min_index);
 262:Drivers/lvgl/src/misc/lv_lru.c ****     }
 263:Drivers/lvgl/src/misc/lv_lru.c **** }
 264:Drivers/lvgl/src/misc/lv_lru.c **** 
 265:Drivers/lvgl/src/misc/lv_lru.c **** /**********************
 266:Drivers/lvgl/src/misc/lv_lru.c ****  *   STATIC FUNCTIONS
 267:Drivers/lvgl/src/misc/lv_lru.c ****  **********************/
 268:Drivers/lvgl/src/misc/lv_lru.c **** 
 269:Drivers/lvgl/src/misc/lv_lru.c **** static uint32_t lv_lru_hash(lv_lru_t * cache, const void * key, uint32_t key_length)
 270:Drivers/lvgl/src/misc/lv_lru.c **** {
 271:Drivers/lvgl/src/misc/lv_lru.c ****     uint32_t m = 0x5bd1e995;
 272:Drivers/lvgl/src/misc/lv_lru.c ****     uint32_t r = 24;
 273:Drivers/lvgl/src/misc/lv_lru.c ****     uint32_t h = cache->seed ^ key_length;
 274:Drivers/lvgl/src/misc/lv_lru.c ****     char * data = (char *) key;
 275:Drivers/lvgl/src/misc/lv_lru.c **** 
 276:Drivers/lvgl/src/misc/lv_lru.c ****     while(key_length >= 4) {
 277:Drivers/lvgl/src/misc/lv_lru.c ****         uint32_t k = *(uint32_t *) data;
 278:Drivers/lvgl/src/misc/lv_lru.c ****         k *= m;
 279:Drivers/lvgl/src/misc/lv_lru.c ****         k ^= k >> r;
 280:Drivers/lvgl/src/misc/lv_lru.c ****         k *= m;
 281:Drivers/lvgl/src/misc/lv_lru.c ****         h *= m;
 282:Drivers/lvgl/src/misc/lv_lru.c ****         h ^= k;
 283:Drivers/lvgl/src/misc/lv_lru.c ****         data += 4;
 284:Drivers/lvgl/src/misc/lv_lru.c ****         key_length -= 4;
 285:Drivers/lvgl/src/misc/lv_lru.c ****     }
 286:Drivers/lvgl/src/misc/lv_lru.c **** 
 287:Drivers/lvgl/src/misc/lv_lru.c ****     if(key_length >= 3) {
 288:Drivers/lvgl/src/misc/lv_lru.c ****         h ^= data[2] << 16;
 289:Drivers/lvgl/src/misc/lv_lru.c ****     }
 290:Drivers/lvgl/src/misc/lv_lru.c ****     if(key_length >= 2) {
 291:Drivers/lvgl/src/misc/lv_lru.c ****         h ^= data[1] << 8;
 292:Drivers/lvgl/src/misc/lv_lru.c ****     }
 293:Drivers/lvgl/src/misc/lv_lru.c ****     if(key_length >= 1) {
 294:Drivers/lvgl/src/misc/lv_lru.c ****         h ^= data[0];
 295:Drivers/lvgl/src/misc/lv_lru.c ****         h *= m;
 296:Drivers/lvgl/src/misc/lv_lru.c ****     }
 297:Drivers/lvgl/src/misc/lv_lru.c **** 
 298:Drivers/lvgl/src/misc/lv_lru.c ****     h ^= h >> 13;
 299:Drivers/lvgl/src/misc/lv_lru.c ****     h *= m;
 300:Drivers/lvgl/src/misc/lv_lru.c ****     h ^= h >> 15;
 301:Drivers/lvgl/src/misc/lv_lru.c ****     return h % cache->hash_table_size;
 302:Drivers/lvgl/src/misc/lv_lru.c **** }
 303:Drivers/lvgl/src/misc/lv_lru.c **** 
 304:Drivers/lvgl/src/misc/lv_lru.c **** static int lv_lru_cmp_keys(lv_lru_item_t * item, const void * key, uint32_t key_length)
 305:Drivers/lvgl/src/misc/lv_lru.c **** {
 306:Drivers/lvgl/src/misc/lv_lru.c ****     if(key_length != item->key_length) {
 307:Drivers/lvgl/src/misc/lv_lru.c ****         return 1;
 308:Drivers/lvgl/src/misc/lv_lru.c ****     }
 309:Drivers/lvgl/src/misc/lv_lru.c ****     else {
 310:Drivers/lvgl/src/misc/lv_lru.c ****         return memcmp(key, item->key, key_length);
 311:Drivers/lvgl/src/misc/lv_lru.c ****     }
 312:Drivers/lvgl/src/misc/lv_lru.c **** }
 313:Drivers/lvgl/src/misc/lv_lru.c **** 
 314:Drivers/lvgl/src/misc/lv_lru.c **** static void lv_lru_remove_item(lv_lru_t * cache, lv_lru_item_t * prev, lv_lru_item_t * item, uint32
ARM GAS  /var/folders/lp/x54gwt890xv47sdkqj1k04q40000gn/T//cck1u84I.s 			page 7


 315:Drivers/lvgl/src/misc/lv_lru.c **** {
  30              		.loc 1 315 1 view -0
  31              		.cfi_startproc
  32              		@ args = 0, pretend = 0, frame = 0
  33              		@ frame_needed = 0, uses_anonymous_args = 0
 316:Drivers/lvgl/src/misc/lv_lru.c ****     if(prev) {
  34              		.loc 1 316 5 view .LVU1
 315:Drivers/lvgl/src/misc/lv_lru.c ****     if(prev) {
  35              		.loc 1 315 1 is_stmt 0 view .LVU2
  36 0000 38B5     		push	{r3, r4, r5, lr}
  37              		.cfi_def_cfa_offset 16
  38              		.cfi_offset 3, -16
  39              		.cfi_offset 4, -12
  40              		.cfi_offset 5, -8
  41              		.cfi_offset 14, -4
 315:Drivers/lvgl/src/misc/lv_lru.c ****     if(prev) {
  42              		.loc 1 315 1 view .LVU3
  43 0002 1446     		mov	r4, r2
  44 0004 0546     		mov	r5, r0
 317:Drivers/lvgl/src/misc/lv_lru.c ****         prev->next = item->next;
  45              		.loc 1 317 26 view .LVU4
  46 0006 9269     		ldr	r2, [r2, #24]
  47              	.LVL1:
 316:Drivers/lvgl/src/misc/lv_lru.c ****     if(prev) {
  48              		.loc 1 316 7 view .LVU5
  49 0008 91B1     		cbz	r1, .L2
  50              		.loc 1 317 9 is_stmt 1 view .LVU6
  51              		.loc 1 317 20 is_stmt 0 view .LVU7
  52 000a 8A61     		str	r2, [r1, #24]
  53              	.LVL2:
  54              	.L3:
 318:Drivers/lvgl/src/misc/lv_lru.c ****     }
 319:Drivers/lvgl/src/misc/lv_lru.c ****     else {
 320:Drivers/lvgl/src/misc/lv_lru.c ****         cache->items[hash_index] = (lv_lru_item_t *) item->next;
 321:Drivers/lvgl/src/misc/lv_lru.c ****     }
 322:Drivers/lvgl/src/misc/lv_lru.c **** 
 323:Drivers/lvgl/src/misc/lv_lru.c ****     // free memory and update the free memory counter
 324:Drivers/lvgl/src/misc/lv_lru.c ****     cache->free_memory += item->value_length;
  55              		.loc 1 324 5 is_stmt 1 view .LVU8
  56              		.loc 1 324 24 is_stmt 0 view .LVU9
  57 000c A168     		ldr	r1, [r4, #8]
  58 000e 2B69     		ldr	r3, [r5, #16]
  59              	.LVL3:
 325:Drivers/lvgl/src/misc/lv_lru.c ****     cache->value_free(item->value);
  60              		.loc 1 325 5 view .LVU10
  61 0010 6A6A     		ldr	r2, [r5, #36]
  62 0012 2068     		ldr	r0, [r4]
  63              	.LVL4:
 324:Drivers/lvgl/src/misc/lv_lru.c ****     cache->value_free(item->value);
  64              		.loc 1 324 24 view .LVU11
  65 0014 0B44     		add	r3, r3, r1
  66 0016 2B61     		str	r3, [r5, #16]
  67              		.loc 1 325 5 is_stmt 1 view .LVU12
  68 0018 9047     		blx	r2
  69              	.LVL5:
 326:Drivers/lvgl/src/misc/lv_lru.c ****     cache->key_free(item->key);
  70              		.loc 1 326 5 view .LVU13
ARM GAS  /var/folders/lp/x54gwt890xv47sdkqj1k04q40000gn/T//cck1u84I.s 			page 8


  71 001a AB6A     		ldr	r3, [r5, #40]
  72 001c 6068     		ldr	r0, [r4, #4]
  73 001e 9847     		blx	r3
  74              	.LVL6:
 327:Drivers/lvgl/src/misc/lv_lru.c **** 
 328:Drivers/lvgl/src/misc/lv_lru.c ****     // push the item to the free items queue
 329:Drivers/lvgl/src/misc/lv_lru.c ****     lv_memset_00(item, sizeof(lv_lru_item_t));
  75              		.loc 1 329 5 view .LVU14
  76 0020 2021     		movs	r1, #32
  77 0022 2046     		mov	r0, r4
  78 0024 FFF7FEFF 		bl	lv_memset_00
  79              	.LVL7:
 330:Drivers/lvgl/src/misc/lv_lru.c ****     item->next = cache->free_items;
  80              		.loc 1 330 5 view .LVU15
  81              		.loc 1 330 16 is_stmt 0 view .LVU16
  82 0028 EB6A     		ldr	r3, [r5, #44]
  83 002a A361     		str	r3, [r4, #24]
 331:Drivers/lvgl/src/misc/lv_lru.c ****     cache->free_items = item;
  84              		.loc 1 331 5 is_stmt 1 view .LVU17
  85              		.loc 1 331 23 is_stmt 0 view .LVU18
  86 002c EC62     		str	r4, [r5, #44]
 332:Drivers/lvgl/src/misc/lv_lru.c **** }
  87              		.loc 1 332 1 view .LVU19
  88 002e 38BD     		pop	{r3, r4, r5, pc}
  89              	.LVL8:
  90              	.L2:
 320:Drivers/lvgl/src/misc/lv_lru.c ****     }
  91              		.loc 1 320 9 is_stmt 1 view .LVU20
 320:Drivers/lvgl/src/misc/lv_lru.c ****     }
  92              		.loc 1 320 34 is_stmt 0 view .LVU21
  93 0030 0168     		ldr	r1, [r0]
  94              	.LVL9:
 320:Drivers/lvgl/src/misc/lv_lru.c ****     }
  95              		.loc 1 320 34 view .LVU22
  96 0032 41F82320 		str	r2, [r1, r3, lsl #2]
  97 0036 E9E7     		b	.L3
  98              		.cfi_endproc
  99              	.LFE10:
 101              		.section	.text.lv_lru_hash.isra.0,"ax",%progbits
 102              		.align	1
 103              		.p2align 2,,3
 104              		.syntax unified
 105              		.thumb
 106              		.thumb_func
 108              	lv_lru_hash.isra.0:
 109              	.LVL10:
 110              	.LFB13:
 269:Drivers/lvgl/src/misc/lv_lru.c **** {
 111              		.loc 1 269 17 is_stmt 1 view -0
 112              		.cfi_startproc
 113              		@ args = 0, pretend = 0, frame = 0
 114              		@ frame_needed = 0, uses_anonymous_args = 0
 271:Drivers/lvgl/src/misc/lv_lru.c ****     uint32_t r = 24;
 115              		.loc 1 271 5 view .LVU24
 272:Drivers/lvgl/src/misc/lv_lru.c ****     uint32_t h = cache->seed ^ key_length;
 116              		.loc 1 272 5 view .LVU25
 273:Drivers/lvgl/src/misc/lv_lru.c ****     char * data = (char *) key;
ARM GAS  /var/folders/lp/x54gwt890xv47sdkqj1k04q40000gn/T//cck1u84I.s 			page 9


 117              		.loc 1 273 5 view .LVU26
 276:Drivers/lvgl/src/misc/lv_lru.c ****         uint32_t k = *(uint32_t *) data;
 118              		.loc 1 276 22 is_stmt 0 view .LVU27
 119 0000 032B     		cmp	r3, #3
 269:Drivers/lvgl/src/misc/lv_lru.c **** {
 120              		.loc 1 269 17 view .LVU28
 121 0002 30B5     		push	{r4, r5, lr}
 122              		.cfi_def_cfa_offset 12
 123              		.cfi_offset 4, -12
 124              		.cfi_offset 5, -8
 125              		.cfi_offset 14, -4
 273:Drivers/lvgl/src/misc/lv_lru.c ****     char * data = (char *) key;
 126              		.loc 1 273 14 view .LVU29
 127 0004 83EA010C 		eor	ip, r3, r1
 128              	.LVL11:
 274:Drivers/lvgl/src/misc/lv_lru.c **** 
 129              		.loc 1 274 5 is_stmt 1 view .LVU30
 276:Drivers/lvgl/src/misc/lv_lru.c ****         uint32_t k = *(uint32_t *) data;
 130              		.loc 1 276 5 view .LVU31
 276:Drivers/lvgl/src/misc/lv_lru.c ****         uint32_t k = *(uint32_t *) data;
 131              		.loc 1 276 22 view .LVU32
 132 0008 33D9     		bls	.L14
 133 000a 1D1F     		subs	r5, r3, #4
 134 000c 25F00305 		bic	r5, r5, #3
 135 0010 0435     		adds	r5, r5, #4
 136              	.LBB9:
 278:Drivers/lvgl/src/misc/lv_lru.c ****         k ^= k >> r;
 137              		.loc 1 278 11 is_stmt 0 view .LVU33
 138 0012 194C     		ldr	r4, .L21
 139 0014 1544     		add	r5, r5, r2
 140              	.LVL12:
 141              	.L8:
 277:Drivers/lvgl/src/misc/lv_lru.c ****         k *= m;
 142              		.loc 1 277 9 is_stmt 1 view .LVU34
 277:Drivers/lvgl/src/misc/lv_lru.c ****         k *= m;
 143              		.loc 1 277 18 is_stmt 0 view .LVU35
 144 0016 52F8041B 		ldr	r1, [r2], #4
 145              	.LVL13:
 278:Drivers/lvgl/src/misc/lv_lru.c ****         k ^= k >> r;
 146              		.loc 1 278 9 is_stmt 1 view .LVU36
 281:Drivers/lvgl/src/misc/lv_lru.c ****         h ^= k;
 147              		.loc 1 281 11 is_stmt 0 view .LVU37
 148 001a 04FB0CFE 		mul	lr, r4, ip
 278:Drivers/lvgl/src/misc/lv_lru.c ****         k ^= k >> r;
 149              		.loc 1 278 11 view .LVU38
 150 001e 04FB01FC 		mul	ip, r4, r1
 151              	.LVL14:
 279:Drivers/lvgl/src/misc/lv_lru.c ****         k *= m;
 152              		.loc 1 279 9 is_stmt 1 view .LVU39
 279:Drivers/lvgl/src/misc/lv_lru.c ****         k *= m;
 153              		.loc 1 279 11 is_stmt 0 view .LVU40
 154 0022 8CEA1C6C 		eor	ip, ip, ip, lsr #24
 155              	.LVL15:
 280:Drivers/lvgl/src/misc/lv_lru.c ****         h *= m;
 156              		.loc 1 280 9 is_stmt 1 view .LVU41
 281:Drivers/lvgl/src/misc/lv_lru.c ****         h ^= k;
 157              		.loc 1 281 9 view .LVU42
ARM GAS  /var/folders/lp/x54gwt890xv47sdkqj1k04q40000gn/T//cck1u84I.s 			page 10


 282:Drivers/lvgl/src/misc/lv_lru.c ****         data += 4;
 158              		.loc 1 282 9 view .LVU43
 280:Drivers/lvgl/src/misc/lv_lru.c ****         h *= m;
 159              		.loc 1 280 11 is_stmt 0 view .LVU44
 160 0026 04FB0CFC 		mul	ip, r4, ip
 161              	.LVL16:
 280:Drivers/lvgl/src/misc/lv_lru.c ****         h *= m;
 162              		.loc 1 280 11 view .LVU45
 163              	.LBE9:
 276:Drivers/lvgl/src/misc/lv_lru.c ****         uint32_t k = *(uint32_t *) data;
 164              		.loc 1 276 22 view .LVU46
 165 002a AA42     		cmp	r2, r5
 166              	.LBB10:
 282:Drivers/lvgl/src/misc/lv_lru.c ****         data += 4;
 167              		.loc 1 282 11 view .LVU47
 168 002c 8CEA0E0C 		eor	ip, ip, lr
 169              	.LVL17:
 283:Drivers/lvgl/src/misc/lv_lru.c ****         key_length -= 4;
 170              		.loc 1 283 9 is_stmt 1 view .LVU48
 284:Drivers/lvgl/src/misc/lv_lru.c ****     }
 171              		.loc 1 284 9 view .LVU49
 284:Drivers/lvgl/src/misc/lv_lru.c ****     }
 172              		.loc 1 284 9 is_stmt 0 view .LVU50
 173              	.LBE10:
 276:Drivers/lvgl/src/misc/lv_lru.c ****         uint32_t k = *(uint32_t *) data;
 174              		.loc 1 276 22 is_stmt 1 view .LVU51
 175 0030 F1D1     		bne	.L8
 176 0032 03F00303 		and	r3, r3, #3
 177              	.LVL18:
 178              	.L7:
 287:Drivers/lvgl/src/misc/lv_lru.c ****         h ^= data[2] << 16;
 179              		.loc 1 287 5 view .LVU52
 287:Drivers/lvgl/src/misc/lv_lru.c ****         h ^= data[2] << 16;
 180              		.loc 1 287 7 is_stmt 0 view .LVU53
 181 0036 032B     		cmp	r3, #3
 182 0038 0ED0     		beq	.L20
 290:Drivers/lvgl/src/misc/lv_lru.c ****         h ^= data[1] << 8;
 183              		.loc 1 290 5 is_stmt 1 view .LVU54
 290:Drivers/lvgl/src/misc/lv_lru.c ****         h ^= data[1] << 8;
 184              		.loc 1 290 7 is_stmt 0 view .LVU55
 185 003a 022B     		cmp	r3, #2
 186 003c 0FD0     		beq	.L10
 293:Drivers/lvgl/src/misc/lv_lru.c ****         h ^= data[0];
 187              		.loc 1 293 5 is_stmt 1 view .LVU56
 293:Drivers/lvgl/src/misc/lv_lru.c ****         h ^= data[0];
 188              		.loc 1 293 7 is_stmt 0 view .LVU57
 189 003e 8BB9     		cbnz	r3, .L12
 190              	.LVL19:
 191              	.L13:
 298:Drivers/lvgl/src/misc/lv_lru.c ****     h *= m;
 192              		.loc 1 298 5 is_stmt 1 view .LVU58
 299:Drivers/lvgl/src/misc/lv_lru.c ****     h ^= h >> 15;
 193              		.loc 1 299 7 is_stmt 0 view .LVU59
 194 0040 0D4B     		ldr	r3, .L21
 298:Drivers/lvgl/src/misc/lv_lru.c ****     h *= m;
 195              		.loc 1 298 7 view .LVU60
 196 0042 8CEA5C3C 		eor	ip, ip, ip, lsr #13
ARM GAS  /var/folders/lp/x54gwt890xv47sdkqj1k04q40000gn/T//cck1u84I.s 			page 11


 197              	.LVL20:
 299:Drivers/lvgl/src/misc/lv_lru.c ****     h ^= h >> 15;
 198              		.loc 1 299 5 is_stmt 1 view .LVU61
 299:Drivers/lvgl/src/misc/lv_lru.c ****     h ^= h >> 15;
 199              		.loc 1 299 7 is_stmt 0 view .LVU62
 200 0046 03FB0CFC 		mul	ip, r3, ip
 201              	.LVL21:
 300:Drivers/lvgl/src/misc/lv_lru.c ****     return h % cache->hash_table_size;
 202              		.loc 1 300 5 is_stmt 1 view .LVU63
 301:Drivers/lvgl/src/misc/lv_lru.c **** }
 203              		.loc 1 301 5 view .LVU64
 300:Drivers/lvgl/src/misc/lv_lru.c ****     return h % cache->hash_table_size;
 204              		.loc 1 300 7 is_stmt 0 view .LVU65
 205 004a 8CEADC3C 		eor	ip, ip, ip, lsr #15
 206              	.LVL22:
 301:Drivers/lvgl/src/misc/lv_lru.c **** }
 207              		.loc 1 301 14 view .LVU66
 208 004e BCFBF0F3 		udiv	r3, ip, r0
 302:Drivers/lvgl/src/misc/lv_lru.c **** 
 209              		.loc 1 302 1 view .LVU67
 210 0052 00FB13C0 		mls	r0, r0, r3, ip
 211 0056 30BD     		pop	{r4, r5, pc}
 212              	.LVL23:
 213              	.L20:
 288:Drivers/lvgl/src/misc/lv_lru.c ****     }
 214              		.loc 1 288 9 is_stmt 1 view .LVU68
 288:Drivers/lvgl/src/misc/lv_lru.c ****     }
 215              		.loc 1 288 22 is_stmt 0 view .LVU69
 216 0058 AB78     		ldrb	r3, [r5, #2]	@ zero_extendqisi2
 288:Drivers/lvgl/src/misc/lv_lru.c ****     }
 217              		.loc 1 288 11 view .LVU70
 218 005a 8CEA034C 		eor	ip, ip, r3, lsl #16
 219              	.LVL24:
 290:Drivers/lvgl/src/misc/lv_lru.c ****         h ^= data[1] << 8;
 220              		.loc 1 290 5 is_stmt 1 view .LVU71
 221              	.L10:
 291:Drivers/lvgl/src/misc/lv_lru.c ****     }
 222              		.loc 1 291 9 view .LVU72
 291:Drivers/lvgl/src/misc/lv_lru.c ****     }
 223              		.loc 1 291 22 is_stmt 0 view .LVU73
 224 005e 6B78     		ldrb	r3, [r5, #1]	@ zero_extendqisi2
 291:Drivers/lvgl/src/misc/lv_lru.c ****     }
 225              		.loc 1 291 11 view .LVU74
 226 0060 8CEA032C 		eor	ip, ip, r3, lsl #8
 227              	.LVL25:
 293:Drivers/lvgl/src/misc/lv_lru.c ****         h ^= data[0];
 228              		.loc 1 293 5 is_stmt 1 view .LVU75
 229              	.L12:
 294:Drivers/lvgl/src/misc/lv_lru.c ****         h *= m;
 230              		.loc 1 294 9 view .LVU76
 294:Drivers/lvgl/src/misc/lv_lru.c ****         h *= m;
 231              		.loc 1 294 18 is_stmt 0 view .LVU77
 232 0064 2B78     		ldrb	r3, [r5]	@ zero_extendqisi2
 295:Drivers/lvgl/src/misc/lv_lru.c ****     }
 233              		.loc 1 295 11 view .LVU78
 234 0066 044A     		ldr	r2, .L21
 235              	.LVL26:
ARM GAS  /var/folders/lp/x54gwt890xv47sdkqj1k04q40000gn/T//cck1u84I.s 			page 12


 294:Drivers/lvgl/src/misc/lv_lru.c ****         h *= m;
 236              		.loc 1 294 11 view .LVU79
 237 0068 83EA0C03 		eor	r3, r3, ip
 238              	.LVL27:
 295:Drivers/lvgl/src/misc/lv_lru.c ****     }
 239              		.loc 1 295 9 is_stmt 1 view .LVU80
 295:Drivers/lvgl/src/misc/lv_lru.c ****     }
 240              		.loc 1 295 11 is_stmt 0 view .LVU81
 241 006c 02FB03FC 		mul	ip, r2, r3
 242              	.LVL28:
 295:Drivers/lvgl/src/misc/lv_lru.c ****     }
 243              		.loc 1 295 11 view .LVU82
 244 0070 E6E7     		b	.L13
 245              	.LVL29:
 246              	.L14:
 274:Drivers/lvgl/src/misc/lv_lru.c **** 
 247              		.loc 1 274 12 view .LVU83
 248 0072 1546     		mov	r5, r2
 249 0074 DFE7     		b	.L7
 250              	.L22:
 251 0076 00BF     		.align	2
 252              	.L21:
 253 0078 95E9D15B 		.word	1540483477
 254              		.cfi_endproc
 255              	.LFE13:
 257              		.section	.text.lv_lru_create,"ax",%progbits
 258              		.align	1
 259              		.p2align 2,,3
 260              		.global	lv_lru_create
 261              		.syntax unified
 262              		.thumb
 263              		.thumb_func
 265              	lv_lru_create:
 266              	.LVL30:
 267              	.LFB2:
  75:Drivers/lvgl/src/misc/lv_lru.c ****     // create the cache
 268              		.loc 1 75 1 is_stmt 1 view -0
 269              		.cfi_startproc
 270              		@ args = 0, pretend = 0, frame = 0
 271              		@ frame_needed = 0, uses_anonymous_args = 0
  77:Drivers/lvgl/src/misc/lv_lru.c ****     lv_memset_00(cache, sizeof(lv_lru_t));
 272              		.loc 1 77 5 view .LVU85
  75:Drivers/lvgl/src/misc/lv_lru.c ****     // create the cache
 273              		.loc 1 75 1 is_stmt 0 view .LVU86
 274 0000 2DE9F041 		push	{r4, r5, r6, r7, r8, lr}
 275              		.cfi_def_cfa_offset 24
 276              		.cfi_offset 4, -24
 277              		.cfi_offset 5, -20
 278              		.cfi_offset 6, -16
 279              		.cfi_offset 7, -12
 280              		.cfi_offset 8, -8
 281              		.cfi_offset 14, -4
  75:Drivers/lvgl/src/misc/lv_lru.c ****     // create the cache
 282              		.loc 1 75 1 view .LVU87
 283 0004 8046     		mov	r8, r0
  77:Drivers/lvgl/src/misc/lv_lru.c ****     lv_memset_00(cache, sizeof(lv_lru_t));
 284              		.loc 1 77 37 view .LVU88
ARM GAS  /var/folders/lp/x54gwt890xv47sdkqj1k04q40000gn/T//cck1u84I.s 			page 13


 285 0006 3020     		movs	r0, #48
 286              	.LVL31:
  75:Drivers/lvgl/src/misc/lv_lru.c ****     // create the cache
 287              		.loc 1 75 1 view .LVU89
 288 0008 0F46     		mov	r7, r1
 289 000a 1646     		mov	r6, r2
 290 000c 1D46     		mov	r5, r3
  77:Drivers/lvgl/src/misc/lv_lru.c ****     lv_memset_00(cache, sizeof(lv_lru_t));
 291              		.loc 1 77 37 view .LVU90
 292 000e FFF7FEFF 		bl	lv_mem_alloc
 293              	.LVL32:
  78:Drivers/lvgl/src/misc/lv_lru.c ****     if(!cache) {
 294              		.loc 1 78 5 view .LVU91
 295 0012 3021     		movs	r1, #48
  77:Drivers/lvgl/src/misc/lv_lru.c ****     lv_memset_00(cache, sizeof(lv_lru_t));
 296              		.loc 1 77 37 view .LVU92
 297 0014 0446     		mov	r4, r0
 298              	.LVL33:
  78:Drivers/lvgl/src/misc/lv_lru.c ****     if(!cache) {
 299              		.loc 1 78 5 is_stmt 1 view .LVU93
 300 0016 FFF7FEFF 		bl	lv_memset_00
 301              	.LVL34:
  79:Drivers/lvgl/src/misc/lv_lru.c ****         LV_LOG_WARN("LRU Cache unable to create cache object");
 302              		.loc 1 79 5 view .LVU94
  79:Drivers/lvgl/src/misc/lv_lru.c ****         LV_LOG_WARN("LRU Cache unable to create cache object");
 303              		.loc 1 79 7 is_stmt 0 view .LVU95
 304 001a 2CB3     		cbz	r4, .L24
  83:Drivers/lvgl/src/misc/lv_lru.c ****     cache->average_item_length = average_length;
 305              		.loc 1 83 5 is_stmt 1 view .LVU96
  87:Drivers/lvgl/src/misc/lv_lru.c ****     cache->value_free = value_free ? value_free : lv_mem_free;
 306              		.loc 1 87 19 is_stmt 0 view .LVU97
 307 001c 4FF0FF31 		mov	r1, #-1
  84:Drivers/lvgl/src/misc/lv_lru.c ****     cache->free_memory = cache_size;
 308              		.loc 1 84 32 view .LVU98
 309 0020 A761     		str	r7, [r4, #24]
  86:Drivers/lvgl/src/misc/lv_lru.c ****     cache->seed = lv_rand(1, UINT32_MAX);
 310              		.loc 1 86 25 view .LVU99
 311 0022 C4E90488 		strd	r8, r8, [r4, #16]
  83:Drivers/lvgl/src/misc/lv_lru.c ****     cache->average_item_length = average_length;
 312              		.loc 1 83 41 view .LVU100
 313 0026 B8FBF7F7 		udiv	r7, r8, r7
 314              	.LVL35:
  87:Drivers/lvgl/src/misc/lv_lru.c ****     cache->value_free = value_free ? value_free : lv_mem_free;
 315              		.loc 1 87 19 view .LVU101
 316 002a 0120     		movs	r0, #1
  83:Drivers/lvgl/src/misc/lv_lru.c ****     cache->average_item_length = average_length;
 317              		.loc 1 83 28 view .LVU102
 318 002c E761     		str	r7, [r4, #28]
  84:Drivers/lvgl/src/misc/lv_lru.c ****     cache->free_memory = cache_size;
 319              		.loc 1 84 5 is_stmt 1 view .LVU103
  85:Drivers/lvgl/src/misc/lv_lru.c ****     cache->total_memory = cache_size;
 320              		.loc 1 85 5 view .LVU104
  87:Drivers/lvgl/src/misc/lv_lru.c ****     cache->value_free = value_free ? value_free : lv_mem_free;
 321              		.loc 1 87 5 view .LVU105
  87:Drivers/lvgl/src/misc/lv_lru.c ****     cache->value_free = value_free ? value_free : lv_mem_free;
 322              		.loc 1 87 19 is_stmt 0 view .LVU106
 323 002e FFF7FEFF 		bl	lv_rand
ARM GAS  /var/folders/lp/x54gwt890xv47sdkqj1k04q40000gn/T//cck1u84I.s 			page 14


 324              	.LVL36:
  88:Drivers/lvgl/src/misc/lv_lru.c ****     cache->key_free = key_free ? key_free : lv_mem_free;
 325              		.loc 1 88 49 discriminator 2 view .LVU107
 326 0032 0E4B     		ldr	r3, .L35
  87:Drivers/lvgl/src/misc/lv_lru.c ****     cache->value_free = value_free ? value_free : lv_mem_free;
 327              		.loc 1 87 17 discriminator 1 view .LVU108
 328 0034 2062     		str	r0, [r4, #32]
  88:Drivers/lvgl/src/misc/lv_lru.c ****     cache->key_free = key_free ? key_free : lv_mem_free;
 329              		.loc 1 88 5 is_stmt 1 view .LVU109
  92:Drivers/lvgl/src/misc/lv_lru.c ****     lv_memset_00(cache->items, sizeof(lv_lru_item_t *) * cache->hash_table_size);
 330              		.loc 1 92 39 is_stmt 0 view .LVU110
 331 0036 E069     		ldr	r0, [r4, #28]
  88:Drivers/lvgl/src/misc/lv_lru.c ****     cache->key_free = key_free ? key_free : lv_mem_free;
 332              		.loc 1 88 49 discriminator 2 view .LVU111
 333 0038 002E     		cmp	r6, #0
 334 003a 08BF     		it	eq
 335 003c 1E46     		moveq	r6, r3
 336              	.LVL37:
  89:Drivers/lvgl/src/misc/lv_lru.c **** 
 337              		.loc 1 89 43 discriminator 2 view .LVU112
 338 003e 002D     		cmp	r5, #0
 339 0040 08BF     		it	eq
 340 0042 1D46     		moveq	r5, r3
 341              	.LVL38:
  89:Drivers/lvgl/src/misc/lv_lru.c **** 
 342              		.loc 1 89 21 discriminator 4 view .LVU113
 343 0044 C4E90965 		strd	r6, r5, [r4, #36]
  92:Drivers/lvgl/src/misc/lv_lru.c ****     lv_memset_00(cache->items, sizeof(lv_lru_item_t *) * cache->hash_table_size);
 344              		.loc 1 92 5 is_stmt 1 view .LVU114
  92:Drivers/lvgl/src/misc/lv_lru.c ****     lv_memset_00(cache->items, sizeof(lv_lru_item_t *) * cache->hash_table_size);
 345              		.loc 1 92 39 is_stmt 0 view .LVU115
 346 0048 8000     		lsls	r0, r0, #2
 347 004a FFF7FEFF 		bl	lv_mem_alloc
 348              	.LVL39:
  93:Drivers/lvgl/src/misc/lv_lru.c ****     if(!cache->items) {
 349              		.loc 1 93 5 view .LVU116
 350 004e E169     		ldr	r1, [r4, #28]
  92:Drivers/lvgl/src/misc/lv_lru.c ****     lv_memset_00(cache->items, sizeof(lv_lru_item_t *) * cache->hash_table_size);
 351              		.loc 1 92 18 discriminator 1 view .LVU117
 352 0050 2060     		str	r0, [r4]
  93:Drivers/lvgl/src/misc/lv_lru.c ****     if(!cache->items) {
 353              		.loc 1 93 5 is_stmt 1 view .LVU118
 354 0052 8900     		lsls	r1, r1, #2
 355 0054 FFF7FEFF 		bl	lv_memset_00
 356              	.LVL40:
  94:Drivers/lvgl/src/misc/lv_lru.c ****         LV_LOG_WARN("LRU Cache unable to create cache hash table");
 357              		.loc 1 94 5 view .LVU119
  94:Drivers/lvgl/src/misc/lv_lru.c ****         LV_LOG_WARN("LRU Cache unable to create cache hash table");
 358              		.loc 1 94 7 is_stmt 0 view .LVU120
 359 0058 2368     		ldr	r3, [r4]
 360 005a 13B1     		cbz	r3, .L34
 361              	.LVL41:
 362              	.L23:
 100:Drivers/lvgl/src/misc/lv_lru.c **** 
 363              		.loc 1 100 1 view .LVU121
 364 005c 2046     		mov	r0, r4
 365 005e BDE8F081 		pop	{r4, r5, r6, r7, r8, pc}
ARM GAS  /var/folders/lp/x54gwt890xv47sdkqj1k04q40000gn/T//cck1u84I.s 			page 15


 366              	.LVL42:
 367              	.L34:
  95:Drivers/lvgl/src/misc/lv_lru.c ****         lv_mem_free(cache);
 368              		.loc 1 95 9 is_stmt 1 view .LVU122
  95:Drivers/lvgl/src/misc/lv_lru.c ****         lv_mem_free(cache);
 369              		.loc 1 95 9 view .LVU123
  95:Drivers/lvgl/src/misc/lv_lru.c ****         lv_mem_free(cache);
 370              		.loc 1 95 9 view .LVU124
  96:Drivers/lvgl/src/misc/lv_lru.c ****         return NULL;
 371              		.loc 1 96 9 view .LVU125
 372 0062 2046     		mov	r0, r4
 373 0064 FFF7FEFF 		bl	lv_mem_free
 374              	.LVL43:
  97:Drivers/lvgl/src/misc/lv_lru.c ****     }
 375              		.loc 1 97 9 view .LVU126
 376              	.L24:
  81:Drivers/lvgl/src/misc/lv_lru.c ****     }
 377              		.loc 1 81 16 is_stmt 0 view .LVU127
 378 0068 0024     		movs	r4, #0
 379              	.LVL44:
  81:Drivers/lvgl/src/misc/lv_lru.c ****     }
 380              		.loc 1 81 16 view .LVU128
 381 006a F7E7     		b	.L23
 382              	.L36:
 383              		.align	2
 384              	.L35:
 385 006c 00000000 		.word	lv_mem_free
 386              		.cfi_endproc
 387              	.LFE2:
 389              		.section	.text.lv_lru_del,"ax",%progbits
 390              		.align	1
 391              		.p2align 2,,3
 392              		.global	lv_lru_del
 393              		.syntax unified
 394              		.thumb
 395              		.thumb_func
 397              	lv_lru_del:
 398              	.LVL45:
 399              	.LFB3:
 104:Drivers/lvgl/src/misc/lv_lru.c ****     LV_ASSERT_NULL(cache);
 400              		.loc 1 104 1 is_stmt 1 view -0
 401              		.cfi_startproc
 402              		@ args = 0, pretend = 0, frame = 0
 403              		@ frame_needed = 0, uses_anonymous_args = 0
 105:Drivers/lvgl/src/misc/lv_lru.c **** 
 404              		.loc 1 105 5 view .LVU130
 105:Drivers/lvgl/src/misc/lv_lru.c **** 
 405              		.loc 1 105 5 view .LVU131
 406 0000 0028     		cmp	r0, #0
 407 0002 2ED0     		beq	.L39
 105:Drivers/lvgl/src/misc/lv_lru.c **** 
 408              		.loc 1 105 5 discriminator 2 view .LVU132
 105:Drivers/lvgl/src/misc/lv_lru.c **** 
 409              		.loc 1 105 26 discriminator 2 view .LVU133
 108:Drivers/lvgl/src/misc/lv_lru.c ****     uint32_t i = 0;
 410              		.loc 1 108 5 view .LVU134
 411              	.LVL46:
ARM GAS  /var/folders/lp/x54gwt890xv47sdkqj1k04q40000gn/T//cck1u84I.s 			page 16


 109:Drivers/lvgl/src/misc/lv_lru.c ****     if(cache->items) {
 412              		.loc 1 109 5 view .LVU135
 110:Drivers/lvgl/src/misc/lv_lru.c ****         for(; i < cache->hash_table_size; i++) {
 413              		.loc 1 110 5 view .LVU136
 104:Drivers/lvgl/src/misc/lv_lru.c ****     LV_ASSERT_NULL(cache);
 414              		.loc 1 104 1 is_stmt 0 view .LVU137
 415 0004 F8B5     		push	{r3, r4, r5, r6, r7, lr}
 416              		.cfi_def_cfa_offset 24
 417              		.cfi_offset 3, -24
 418              		.cfi_offset 4, -20
 419              		.cfi_offset 5, -16
 420              		.cfi_offset 6, -12
 421              		.cfi_offset 7, -8
 422              		.cfi_offset 14, -4
 423 0006 0546     		mov	r5, r0
 110:Drivers/lvgl/src/misc/lv_lru.c ****         for(; i < cache->hash_table_size; i++) {
 424              		.loc 1 110 13 view .LVU138
 425 0008 0068     		ldr	r0, [r0]
 426              	.LVL47:
 110:Drivers/lvgl/src/misc/lv_lru.c ****         for(; i < cache->hash_table_size; i++) {
 427              		.loc 1 110 7 view .LVU139
 428 000a E8B1     		cbz	r0, .L40
 111:Drivers/lvgl/src/misc/lv_lru.c ****             item = cache->items[i];
 429              		.loc 1 111 17 is_stmt 1 discriminator 1 view .LVU140
 430 000c EB69     		ldr	r3, [r5, #28]
 431 000e CBB1     		cbz	r3, .L41
 109:Drivers/lvgl/src/misc/lv_lru.c ****     if(cache->items) {
 432              		.loc 1 109 14 is_stmt 0 view .LVU141
 433 0010 0027     		movs	r7, #0
 434              	.LVL48:
 435              	.L44:
 112:Drivers/lvgl/src/misc/lv_lru.c ****             while(item) {
 436              		.loc 1 112 13 is_stmt 1 view .LVU142
 112:Drivers/lvgl/src/misc/lv_lru.c ****             while(item) {
 437              		.loc 1 112 18 is_stmt 0 view .LVU143
 438 0012 50F82760 		ldr	r6, [r0, r7, lsl #2]
 439              	.LVL49:
 113:Drivers/lvgl/src/misc/lv_lru.c ****                 next = (lv_lru_item_t *) item->next;
 440              		.loc 1 113 13 is_stmt 1 view .LVU144
 113:Drivers/lvgl/src/misc/lv_lru.c ****                 next = (lv_lru_item_t *) item->next;
 441              		.loc 1 113 19 view .LVU145
 442 0016 96B1     		cbz	r6, .L42
 443              	.L43:
 114:Drivers/lvgl/src/misc/lv_lru.c ****                 cache->value_free(item->value);
 444              		.loc 1 114 17 view .LVU146
 445 0018 3446     		mov	r4, r6
 115:Drivers/lvgl/src/misc/lv_lru.c ****                 cache->key_free(item->key);
 446              		.loc 1 115 17 is_stmt 0 view .LVU147
 447 001a 3068     		ldr	r0, [r6]
 448 001c 6B6A     		ldr	r3, [r5, #36]
 114:Drivers/lvgl/src/misc/lv_lru.c ****                 cache->value_free(item->value);
 449              		.loc 1 114 22 view .LVU148
 450 001e B669     		ldr	r6, [r6, #24]
 451              	.LVL50:
 115:Drivers/lvgl/src/misc/lv_lru.c ****                 cache->key_free(item->key);
 452              		.loc 1 115 17 is_stmt 1 view .LVU149
 453 0020 9847     		blx	r3
ARM GAS  /var/folders/lp/x54gwt890xv47sdkqj1k04q40000gn/T//cck1u84I.s 			page 17


 454              	.LVL51:
 116:Drivers/lvgl/src/misc/lv_lru.c ****                 cache->free_memory += item->value_length;
 455              		.loc 1 116 17 view .LVU150
 456 0022 AB6A     		ldr	r3, [r5, #40]
 457 0024 6068     		ldr	r0, [r4, #4]
 458 0026 9847     		blx	r3
 459              	.LVL52:
 117:Drivers/lvgl/src/misc/lv_lru.c ****                 lv_mem_free(item);
 460              		.loc 1 117 17 view .LVU151
 117:Drivers/lvgl/src/misc/lv_lru.c ****                 lv_mem_free(item);
 461              		.loc 1 117 36 is_stmt 0 view .LVU152
 462 0028 2B69     		ldr	r3, [r5, #16]
 463 002a A268     		ldr	r2, [r4, #8]
 464 002c 1344     		add	r3, r3, r2
 118:Drivers/lvgl/src/misc/lv_lru.c ****                 item = next;
 465              		.loc 1 118 17 view .LVU153
 466 002e 2046     		mov	r0, r4
 117:Drivers/lvgl/src/misc/lv_lru.c ****                 lv_mem_free(item);
 467              		.loc 1 117 36 view .LVU154
 468 0030 2B61     		str	r3, [r5, #16]
 118:Drivers/lvgl/src/misc/lv_lru.c ****                 item = next;
 469              		.loc 1 118 17 is_stmt 1 view .LVU155
 470 0032 FFF7FEFF 		bl	lv_mem_free
 471              	.LVL53:
 119:Drivers/lvgl/src/misc/lv_lru.c ****             }
 472              		.loc 1 119 17 view .LVU156
 113:Drivers/lvgl/src/misc/lv_lru.c ****                 next = (lv_lru_item_t *) item->next;
 473              		.loc 1 113 19 view .LVU157
 474 0036 002E     		cmp	r6, #0
 475 0038 EED1     		bne	.L43
 122:Drivers/lvgl/src/misc/lv_lru.c ****     }
 476              		.loc 1 122 26 is_stmt 0 view .LVU158
 477 003a 2868     		ldr	r0, [r5]
 478 003c EB69     		ldr	r3, [r5, #28]
 479              	.LVL54:
 480              	.L42:
 111:Drivers/lvgl/src/misc/lv_lru.c ****             item = cache->items[i];
 481              		.loc 1 111 44 is_stmt 1 view .LVU159
 482 003e 0137     		adds	r7, r7, #1
 483              	.LVL55:
 111:Drivers/lvgl/src/misc/lv_lru.c ****             item = cache->items[i];
 484              		.loc 1 111 17 discriminator 1 view .LVU160
 485 0040 BB42     		cmp	r3, r7
 486 0042 E6D8     		bhi	.L44
 487              	.LVL56:
 488              	.L41:
 122:Drivers/lvgl/src/misc/lv_lru.c ****     }
 489              		.loc 1 122 9 view .LVU161
 490 0044 FFF7FEFF 		bl	lv_mem_free
 491              	.LVL57:
 492              	.L40:
 125:Drivers/lvgl/src/misc/lv_lru.c ****         item = cache->free_items;
 493              		.loc 1 125 5 view .LVU162
 125:Drivers/lvgl/src/misc/lv_lru.c ****         item = cache->free_items;
 494              		.loc 1 125 13 is_stmt 0 view .LVU163
 495 0048 EC6A     		ldr	r4, [r5, #44]
 125:Drivers/lvgl/src/misc/lv_lru.c ****         item = cache->free_items;
ARM GAS  /var/folders/lp/x54gwt890xv47sdkqj1k04q40000gn/T//cck1u84I.s 			page 18


 496              		.loc 1 125 7 view .LVU164
 497 004a 2CB1     		cbz	r4, .L46
 498              	.L45:
 499              	.LVL58:
 128:Drivers/lvgl/src/misc/lv_lru.c ****             lv_mem_free(item);
 500              		.loc 1 128 13 is_stmt 1 view .LVU165
 501 004c 2046     		mov	r0, r4
 128:Drivers/lvgl/src/misc/lv_lru.c ****             lv_mem_free(item);
 502              		.loc 1 128 18 is_stmt 0 view .LVU166
 503 004e A469     		ldr	r4, [r4, #24]
 504              	.LVL59:
 129:Drivers/lvgl/src/misc/lv_lru.c ****             item = next;
 505              		.loc 1 129 13 is_stmt 1 view .LVU167
 506 0050 FFF7FEFF 		bl	lv_mem_free
 507              	.LVL60:
 130:Drivers/lvgl/src/misc/lv_lru.c ****         }
 508              		.loc 1 130 13 view .LVU168
 127:Drivers/lvgl/src/misc/lv_lru.c ****             next = (lv_lru_item_t *) item->next;
 509              		.loc 1 127 15 view .LVU169
 510 0054 002C     		cmp	r4, #0
 511 0056 F9D1     		bne	.L45
 512              	.LVL61:
 513              	.L46:
 135:Drivers/lvgl/src/misc/lv_lru.c **** }
 514              		.loc 1 135 5 view .LVU170
 515 0058 2846     		mov	r0, r5
 136:Drivers/lvgl/src/misc/lv_lru.c **** 
 516              		.loc 1 136 1 is_stmt 0 view .LVU171
 517 005a BDE8F840 		pop	{r3, r4, r5, r6, r7, lr}
 518              		.cfi_restore 14
 519              		.cfi_restore 7
 520              		.cfi_restore 6
 521              		.cfi_restore 5
 522              		.cfi_restore 4
 523              		.cfi_restore 3
 524              		.cfi_def_cfa_offset 0
 525              	.LVL62:
 135:Drivers/lvgl/src/misc/lv_lru.c **** }
 526              		.loc 1 135 5 view .LVU172
 527 005e FFF7FEBF 		b	lv_mem_free
 528              	.LVL63:
 529              	.L39:
 105:Drivers/lvgl/src/misc/lv_lru.c **** 
 530              		.loc 1 105 5 is_stmt 1 discriminator 1 view .LVU173
 105:Drivers/lvgl/src/misc/lv_lru.c **** 
 531              		.loc 1 105 5 discriminator 1 view .LVU174
 105:Drivers/lvgl/src/misc/lv_lru.c **** 
 532              		.loc 1 105 5 discriminator 1 view .LVU175
 105:Drivers/lvgl/src/misc/lv_lru.c **** 
 533              		.loc 1 105 5 discriminator 1 view .LVU176
 105:Drivers/lvgl/src/misc/lv_lru.c **** 
 534              		.loc 1 105 5 discriminator 1 view .LVU177
 105:Drivers/lvgl/src/misc/lv_lru.c **** 
 535              		.loc 1 105 5 discriminator 1 view .LVU178
 105:Drivers/lvgl/src/misc/lv_lru.c **** 
 536              		.loc 1 105 5 discriminator 1 view .LVU179
 105:Drivers/lvgl/src/misc/lv_lru.c **** 
ARM GAS  /var/folders/lp/x54gwt890xv47sdkqj1k04q40000gn/T//cck1u84I.s 			page 19


 537              		.loc 1 105 5 discriminator 1 view .LVU180
 105:Drivers/lvgl/src/misc/lv_lru.c **** 
 538              		.loc 1 105 5 discriminator 1 view .LVU181
 105:Drivers/lvgl/src/misc/lv_lru.c **** 
 539              		.loc 1 105 5 discriminator 1 view .LVU182
 540 0062 FEE7     		b	.L39
 541              		.cfi_endproc
 542              	.LFE3:
 544              		.section	.text.lv_lru_get,"ax",%progbits
 545              		.align	1
 546              		.p2align 2,,3
 547              		.global	lv_lru_get
 548              		.syntax unified
 549              		.thumb
 550              		.thumb_func
 552              	lv_lru_get:
 553              	.LVL64:
 554              	.LFB5:
 193:Drivers/lvgl/src/misc/lv_lru.c ****     test_for_missing_cache();
 555              		.loc 1 193 1 view -0
 556              		.cfi_startproc
 557              		@ args = 0, pretend = 0, frame = 0
 558              		@ frame_needed = 0, uses_anonymous_args = 0
 194:Drivers/lvgl/src/misc/lv_lru.c ****     test_for_missing_key();
 559              		.loc 1 194 5 view .LVU184
 560 0000 80B3     		cbz	r0, .L69
 194:Drivers/lvgl/src/misc/lv_lru.c ****     test_for_missing_key();
 561              		.loc 1 194 29 discriminator 2 view .LVU185
 195:Drivers/lvgl/src/misc/lv_lru.c **** 
 562              		.loc 1 195 5 view .LVU186
 193:Drivers/lvgl/src/misc/lv_lru.c ****     test_for_missing_cache();
 563              		.loc 1 193 1 is_stmt 0 view .LVU187
 564 0002 2DE9F041 		push	{r4, r5, r6, r7, r8, lr}
 565              		.cfi_def_cfa_offset 24
 566              		.cfi_offset 4, -24
 567              		.cfi_offset 5, -20
 568              		.cfi_offset 6, -16
 569              		.cfi_offset 7, -12
 570              		.cfi_offset 8, -8
 571              		.cfi_offset 14, -4
 572 0006 0F46     		mov	r7, r1
 195:Drivers/lvgl/src/misc/lv_lru.c **** 
 573              		.loc 1 195 5 view .LVU188
 574 0008 71B3     		cbz	r1, .L70
 195:Drivers/lvgl/src/misc/lv_lru.c **** 
 575              		.loc 1 195 27 is_stmt 1 discriminator 2 view .LVU189
 198:Drivers/lvgl/src/misc/lv_lru.c ****     lv_lru_item_t * item = cache->items[hash_index];
 576              		.loc 1 198 5 view .LVU190
 577 000a 0646     		mov	r6, r0
 578 000c 1546     		mov	r5, r2
 198:Drivers/lvgl/src/misc/lv_lru.c ****     lv_lru_item_t * item = cache->items[hash_index];
 579              		.loc 1 198 27 is_stmt 0 view .LVU191
 580 000e D0E90701 		ldrd	r0, r1, [r0, #28]
 581              	.LVL65:
 198:Drivers/lvgl/src/misc/lv_lru.c ****     lv_lru_item_t * item = cache->items[hash_index];
 582              		.loc 1 198 27 view .LVU192
 583 0012 9846     		mov	r8, r3
ARM GAS  /var/folders/lp/x54gwt890xv47sdkqj1k04q40000gn/T//cck1u84I.s 			page 20


 584 0014 1346     		mov	r3, r2
 585              	.LVL66:
 198:Drivers/lvgl/src/misc/lv_lru.c ****     lv_lru_item_t * item = cache->items[hash_index];
 586              		.loc 1 198 27 view .LVU193
 587 0016 3A46     		mov	r2, r7
 588              	.LVL67:
 198:Drivers/lvgl/src/misc/lv_lru.c ****     lv_lru_item_t * item = cache->items[hash_index];
 589              		.loc 1 198 27 view .LVU194
 590 0018 FFF7FEFF 		bl	lv_lru_hash.isra.0
 591              	.LVL68:
 199:Drivers/lvgl/src/misc/lv_lru.c **** 
 592              		.loc 1 199 5 is_stmt 1 view .LVU195
 199:Drivers/lvgl/src/misc/lv_lru.c **** 
 593              		.loc 1 199 21 is_stmt 0 view .LVU196
 594 001c 3368     		ldr	r3, [r6]
 595 001e 53F82040 		ldr	r4, [r3, r0, lsl #2]
 596              	.LVL69:
 201:Drivers/lvgl/src/misc/lv_lru.c ****         item = (lv_lru_item_t *) item->next;
 597              		.loc 1 201 5 is_stmt 1 view .LVU197
 201:Drivers/lvgl/src/misc/lv_lru.c ****         item = (lv_lru_item_t *) item->next;
 598              		.loc 1 201 16 view .LVU198
 599 0022 14B9     		cbnz	r4, .L64
 600 0024 1AE0     		b	.L65
 601              	.LVL70:
 602              	.L66:
 202:Drivers/lvgl/src/misc/lv_lru.c **** 
 603              		.loc 1 202 9 view .LVU199
 202:Drivers/lvgl/src/misc/lv_lru.c **** 
 604              		.loc 1 202 14 is_stmt 0 view .LVU200
 605 0026 A469     		ldr	r4, [r4, #24]
 606              	.LVL71:
 201:Drivers/lvgl/src/misc/lv_lru.c ****         item = (lv_lru_item_t *) item->next;
 607              		.loc 1 201 16 is_stmt 1 view .LVU201
 608 0028 C4B1     		cbz	r4, .L65
 609              	.L64:
 610              	.LVL72:
 611              	.LBB15:
 612              	.LBI15:
 304:Drivers/lvgl/src/misc/lv_lru.c **** {
 613              		.loc 1 304 12 view .LVU202
 614              	.LBB16:
 306:Drivers/lvgl/src/misc/lv_lru.c ****         return 1;
 615              		.loc 1 306 5 view .LVU203
 306:Drivers/lvgl/src/misc/lv_lru.c ****         return 1;
 616              		.loc 1 306 7 is_stmt 0 view .LVU204
 617 002a E368     		ldr	r3, [r4, #12]
 618 002c 9D42     		cmp	r5, r3
 619 002e FAD1     		bne	.L66
 620              	.LVL73:
 621              	.LBB17:
 622              	.LBI17:
 304:Drivers/lvgl/src/misc/lv_lru.c **** {
 623              		.loc 1 304 12 is_stmt 1 view .LVU205
 624              	.LBB18:
 310:Drivers/lvgl/src/misc/lv_lru.c ****     }
 625              		.loc 1 310 9 view .LVU206
 310:Drivers/lvgl/src/misc/lv_lru.c ****     }
ARM GAS  /var/folders/lp/x54gwt890xv47sdkqj1k04q40000gn/T//cck1u84I.s 			page 21


 626              		.loc 1 310 16 is_stmt 0 view .LVU207
 627 0030 6168     		ldr	r1, [r4, #4]
 628 0032 2A46     		mov	r2, r5
 629 0034 3846     		mov	r0, r7
 630 0036 FFF7FEFF 		bl	memcmp
 631              	.LVL74:
 310:Drivers/lvgl/src/misc/lv_lru.c ****     }
 632              		.loc 1 310 16 view .LVU208
 633              	.LBE18:
 634              	.LBE17:
 635              	.LBE16:
 636              	.LBE15:
 201:Drivers/lvgl/src/misc/lv_lru.c ****         item = (lv_lru_item_t *) item->next;
 637              		.loc 1 201 16 discriminator 1 view .LVU209
 638 003a 0028     		cmp	r0, #0
 639 003c F3D1     		bne	.L66
 204:Drivers/lvgl/src/misc/lv_lru.c ****         *value = item->value;
 640              		.loc 1 204 5 is_stmt 1 view .LVU210
 205:Drivers/lvgl/src/misc/lv_lru.c ****         item->access_count = ++cache->access_count;
 641              		.loc 1 205 9 view .LVU211
 206:Drivers/lvgl/src/misc/lv_lru.c ****     }
 642              		.loc 1 206 30 is_stmt 0 view .LVU212
 643 003e D6E90232 		ldrd	r3, r2, [r6, #8]
 644 0042 0133     		adds	r3, r3, #1
 205:Drivers/lvgl/src/misc/lv_lru.c ****         item->access_count = ++cache->access_count;
 645              		.loc 1 205 22 view .LVU213
 646 0044 2168     		ldr	r1, [r4]
 205:Drivers/lvgl/src/misc/lv_lru.c ****         item->access_count = ++cache->access_count;
 647              		.loc 1 205 16 view .LVU214
 648 0046 C8F80010 		str	r1, [r8]
 206:Drivers/lvgl/src/misc/lv_lru.c ****     }
 649              		.loc 1 206 9 is_stmt 1 view .LVU215
 206:Drivers/lvgl/src/misc/lv_lru.c ****     }
 650              		.loc 1 206 30 is_stmt 0 view .LVU216
 651 004a 42F10002 		adc	r2, r2, #0
 206:Drivers/lvgl/src/misc/lv_lru.c ****     }
 652              		.loc 1 206 28 view .LVU217
 653 004e C6E90232 		strd	r3, r2, [r6, #8]
 654 0052 C4E90432 		strd	r3, r2, [r4, #16]
 655              	.L68:
 212:Drivers/lvgl/src/misc/lv_lru.c **** }
 656              		.loc 1 212 12 view .LVU218
 657 0056 0020     		movs	r0, #0
 658              	.LVL75:
 659              	.L76:
 213:Drivers/lvgl/src/misc/lv_lru.c **** 
 660              		.loc 1 213 1 view .LVU219
 661 0058 BDE8F081 		pop	{r4, r5, r6, r7, r8, pc}
 662              	.LVL76:
 663              	.L65:
 204:Drivers/lvgl/src/misc/lv_lru.c ****         *value = item->value;
 664              		.loc 1 204 5 is_stmt 1 view .LVU220
 209:Drivers/lvgl/src/misc/lv_lru.c ****     }
 665              		.loc 1 209 9 view .LVU221
 209:Drivers/lvgl/src/misc/lv_lru.c ****     }
 666              		.loc 1 209 16 is_stmt 0 view .LVU222
 667 005c 0023     		movs	r3, #0
ARM GAS  /var/folders/lp/x54gwt890xv47sdkqj1k04q40000gn/T//cck1u84I.s 			page 22


 668 005e C8F80030 		str	r3, [r8]
 669 0062 F8E7     		b	.L68
 670              	.LVL77:
 671              	.L69:
 672              		.cfi_def_cfa_offset 0
 673              		.cfi_restore 4
 674              		.cfi_restore 5
 675              		.cfi_restore 6
 676              		.cfi_restore 7
 677              		.cfi_restore 8
 678              		.cfi_restore 14
 194:Drivers/lvgl/src/misc/lv_lru.c ****     test_for_missing_key();
 679              		.loc 1 194 5 discriminator 1 view .LVU223
 680 0064 0120     		movs	r0, #1
 681              	.LVL78:
 213:Drivers/lvgl/src/misc/lv_lru.c **** 
 682              		.loc 1 213 1 view .LVU224
 683 0066 7047     		bx	lr
 684              	.LVL79:
 685              	.L70:
 686              		.cfi_def_cfa_offset 24
 687              		.cfi_offset 4, -24
 688              		.cfi_offset 5, -20
 689              		.cfi_offset 6, -16
 690              		.cfi_offset 7, -12
 691              		.cfi_offset 8, -8
 692              		.cfi_offset 14, -4
 195:Drivers/lvgl/src/misc/lv_lru.c **** 
 693              		.loc 1 195 5 discriminator 1 view .LVU225
 694 0068 0220     		movs	r0, #2
 695              	.LVL80:
 195:Drivers/lvgl/src/misc/lv_lru.c **** 
 696              		.loc 1 195 5 discriminator 1 view .LVU226
 697 006a F5E7     		b	.L76
 698              		.cfi_endproc
 699              	.LFE5:
 701              		.section	.text.lv_lru_remove,"ax",%progbits
 702              		.align	1
 703              		.p2align 2,,3
 704              		.global	lv_lru_remove
 705              		.syntax unified
 706              		.thumb
 707              		.thumb_func
 709              	lv_lru_remove:
 710              	.LVL81:
 711              	.LFB6:
 216:Drivers/lvgl/src/misc/lv_lru.c ****     test_for_missing_cache();
 712              		.loc 1 216 1 is_stmt 1 view -0
 713              		.cfi_startproc
 714              		@ args = 0, pretend = 0, frame = 0
 715              		@ frame_needed = 0, uses_anonymous_args = 0
 217:Drivers/lvgl/src/misc/lv_lru.c ****     test_for_missing_key();
 716              		.loc 1 217 5 view .LVU228
 717 0000 50B3     		cbz	r0, .L87
 217:Drivers/lvgl/src/misc/lv_lru.c ****     test_for_missing_key();
 718              		.loc 1 217 29 discriminator 2 view .LVU229
 218:Drivers/lvgl/src/misc/lv_lru.c **** 
ARM GAS  /var/folders/lp/x54gwt890xv47sdkqj1k04q40000gn/T//cck1u84I.s 			page 23


 719              		.loc 1 218 5 view .LVU230
 216:Drivers/lvgl/src/misc/lv_lru.c ****     test_for_missing_cache();
 720              		.loc 1 216 1 is_stmt 0 view .LVU231
 721 0002 2DE9F047 		push	{r4, r5, r6, r7, r8, r9, r10, lr}
 722              		.cfi_def_cfa_offset 32
 723              		.cfi_offset 4, -32
 724              		.cfi_offset 5, -28
 725              		.cfi_offset 6, -24
 726              		.cfi_offset 7, -20
 727              		.cfi_offset 8, -16
 728              		.cfi_offset 9, -12
 729              		.cfi_offset 10, -8
 730              		.cfi_offset 14, -4
 731 0006 8846     		mov	r8, r1
 218:Drivers/lvgl/src/misc/lv_lru.c **** 
 732              		.loc 1 218 5 view .LVU232
 733 0008 41B3     		cbz	r1, .L88
 218:Drivers/lvgl/src/misc/lv_lru.c **** 
 734              		.loc 1 218 27 is_stmt 1 discriminator 2 view .LVU233
 221:Drivers/lvgl/src/misc/lv_lru.c ****     uint32_t hash_index = lv_lru_hash(cache, key, key_size);
 735              		.loc 1 221 5 view .LVU234
 736              	.LVL82:
 222:Drivers/lvgl/src/misc/lv_lru.c ****     item = cache->items[hash_index];
 737              		.loc 1 222 5 view .LVU235
 222:Drivers/lvgl/src/misc/lv_lru.c ****     item = cache->items[hash_index];
 738              		.loc 1 222 27 is_stmt 0 view .LVU236
 739 000a 1346     		mov	r3, r2
 740 000c 8146     		mov	r9, r0
 741 000e 1646     		mov	r6, r2
 742 0010 0A46     		mov	r2, r1
 743              	.LVL83:
 222:Drivers/lvgl/src/misc/lv_lru.c ****     item = cache->items[hash_index];
 744              		.loc 1 222 27 view .LVU237
 745 0012 D0E90701 		ldrd	r0, r1, [r0, #28]
 746              	.LVL84:
 222:Drivers/lvgl/src/misc/lv_lru.c ****     item = cache->items[hash_index];
 747              		.loc 1 222 27 view .LVU238
 748 0016 FFF7FEFF 		bl	lv_lru_hash.isra.0
 749              	.LVL85:
 223:Drivers/lvgl/src/misc/lv_lru.c **** 
 750              		.loc 1 223 10 view .LVU239
 751 001a D9F80030 		ldr	r3, [r9]
 752 001e 53F82040 		ldr	r4, [r3, r0, lsl #2]
 222:Drivers/lvgl/src/misc/lv_lru.c ****     item = cache->items[hash_index];
 753              		.loc 1 222 27 view .LVU240
 754 0022 8246     		mov	r10, r0
 755              	.LVL86:
 223:Drivers/lvgl/src/misc/lv_lru.c **** 
 756              		.loc 1 223 5 is_stmt 1 view .LVU241
 225:Drivers/lvgl/src/misc/lv_lru.c ****         prev = item;
 757              		.loc 1 225 5 view .LVU242
 225:Drivers/lvgl/src/misc/lv_lru.c ****         prev = item;
 758              		.loc 1 225 16 view .LVU243
 221:Drivers/lvgl/src/misc/lv_lru.c ****     uint32_t hash_index = lv_lru_hash(cache, key, key_size);
 759              		.loc 1 221 35 is_stmt 0 view .LVU244
 760 0024 0027     		movs	r7, #0
 225:Drivers/lvgl/src/misc/lv_lru.c ****         prev = item;
ARM GAS  /var/folders/lp/x54gwt890xv47sdkqj1k04q40000gn/T//cck1u84I.s 			page 24


 761              		.loc 1 225 16 view .LVU245
 762 0026 24B9     		cbnz	r4, .L83
 763 0028 13E0     		b	.L84
 764              	.LVL87:
 765              	.L85:
 226:Drivers/lvgl/src/misc/lv_lru.c ****         item = (lv_lru_item_t *) item->next;
 766              		.loc 1 226 9 is_stmt 1 view .LVU246
 227:Drivers/lvgl/src/misc/lv_lru.c ****     }
 767              		.loc 1 227 9 view .LVU247
 227:Drivers/lvgl/src/misc/lv_lru.c ****     }
 768              		.loc 1 227 14 is_stmt 0 view .LVU248
 769 002a A569     		ldr	r5, [r4, #24]
 770              	.LVL88:
 225:Drivers/lvgl/src/misc/lv_lru.c ****         prev = item;
 771              		.loc 1 225 16 is_stmt 1 view .LVU249
 772 002c 2746     		mov	r7, r4
 773 002e 85B1     		cbz	r5, .L84
 225:Drivers/lvgl/src/misc/lv_lru.c ****         prev = item;
 774              		.loc 1 225 16 is_stmt 0 view .LVU250
 775 0030 2C46     		mov	r4, r5
 776              	.LVL89:
 777              	.L83:
 778              	.LBB23:
 779              	.LBI23:
 304:Drivers/lvgl/src/misc/lv_lru.c **** {
 780              		.loc 1 304 12 is_stmt 1 view .LVU251
 781              	.LBB24:
 306:Drivers/lvgl/src/misc/lv_lru.c ****         return 1;
 782              		.loc 1 306 5 view .LVU252
 306:Drivers/lvgl/src/misc/lv_lru.c ****         return 1;
 783              		.loc 1 306 7 is_stmt 0 view .LVU253
 784 0032 E568     		ldr	r5, [r4, #12]
 785 0034 AE42     		cmp	r6, r5
 786 0036 F8D1     		bne	.L85
 787              	.LVL90:
 788              	.LBB25:
 789              	.LBI25:
 304:Drivers/lvgl/src/misc/lv_lru.c **** {
 790              		.loc 1 304 12 is_stmt 1 view .LVU254
 791              	.LBB26:
 310:Drivers/lvgl/src/misc/lv_lru.c ****     }
 792              		.loc 1 310 9 view .LVU255
 310:Drivers/lvgl/src/misc/lv_lru.c ****     }
 793              		.loc 1 310 16 is_stmt 0 view .LVU256
 794 0038 6168     		ldr	r1, [r4, #4]
 795 003a 3246     		mov	r2, r6
 796 003c 4046     		mov	r0, r8
 797 003e FFF7FEFF 		bl	memcmp
 798              	.LVL91:
 310:Drivers/lvgl/src/misc/lv_lru.c ****     }
 799              		.loc 1 310 16 view .LVU257
 800              	.LBE26:
 801              	.LBE25:
 802              	.LBE24:
 803              	.LBE23:
 225:Drivers/lvgl/src/misc/lv_lru.c ****         prev = item;
 804              		.loc 1 225 16 discriminator 1 view .LVU258
ARM GAS  /var/folders/lp/x54gwt890xv47sdkqj1k04q40000gn/T//cck1u84I.s 			page 25


 805 0042 0028     		cmp	r0, #0
 806 0044 F1D1     		bne	.L85
 230:Drivers/lvgl/src/misc/lv_lru.c ****         lv_lru_remove_item(cache, prev, item, hash_index);
 807              		.loc 1 230 5 is_stmt 1 view .LVU259
 231:Drivers/lvgl/src/misc/lv_lru.c ****     }
 808              		.loc 1 231 9 view .LVU260
 809 0046 5346     		mov	r3, r10
 810 0048 2246     		mov	r2, r4
 811 004a 3946     		mov	r1, r7
 812 004c 4846     		mov	r0, r9
 813 004e FFF7FEFF 		bl	lv_lru_remove_item
 814              	.LVL92:
 815              	.L84:
 234:Drivers/lvgl/src/misc/lv_lru.c **** }
 816              		.loc 1 234 12 is_stmt 0 view .LVU261
 817 0052 0020     		movs	r0, #0
 818              	.LVL93:
 819              	.L93:
 235:Drivers/lvgl/src/misc/lv_lru.c **** 
 820              		.loc 1 235 1 view .LVU262
 821 0054 BDE8F087 		pop	{r4, r5, r6, r7, r8, r9, r10, pc}
 822              	.LVL94:
 823              	.L87:
 824              		.cfi_def_cfa_offset 0
 825              		.cfi_restore 4
 826              		.cfi_restore 5
 827              		.cfi_restore 6
 828              		.cfi_restore 7
 829              		.cfi_restore 8
 830              		.cfi_restore 9
 831              		.cfi_restore 10
 832              		.cfi_restore 14
 217:Drivers/lvgl/src/misc/lv_lru.c ****     test_for_missing_key();
 833              		.loc 1 217 5 discriminator 1 view .LVU263
 834 0058 0120     		movs	r0, #1
 835              	.LVL95:
 235:Drivers/lvgl/src/misc/lv_lru.c **** 
 836              		.loc 1 235 1 view .LVU264
 837 005a 7047     		bx	lr
 838              	.LVL96:
 839              	.L88:
 840              		.cfi_def_cfa_offset 32
 841              		.cfi_offset 4, -32
 842              		.cfi_offset 5, -28
 843              		.cfi_offset 6, -24
 844              		.cfi_offset 7, -20
 845              		.cfi_offset 8, -16
 846              		.cfi_offset 9, -12
 847              		.cfi_offset 10, -8
 848              		.cfi_offset 14, -4
 218:Drivers/lvgl/src/misc/lv_lru.c **** 
 849              		.loc 1 218 5 discriminator 1 view .LVU265
 850 005c 0220     		movs	r0, #2
 851              	.LVL97:
 218:Drivers/lvgl/src/misc/lv_lru.c **** 
 852              		.loc 1 218 5 discriminator 1 view .LVU266
 853 005e F9E7     		b	.L93
ARM GAS  /var/folders/lp/x54gwt890xv47sdkqj1k04q40000gn/T//cck1u84I.s 			page 26


 854              		.cfi_endproc
 855              	.LFE6:
 857              		.section	.text.lv_lru_remove_lru_item,"ax",%progbits
 858              		.align	1
 859              		.p2align 2,,3
 860              		.global	lv_lru_remove_lru_item
 861              		.syntax unified
 862              		.thumb
 863              		.thumb_func
 865              	lv_lru_remove_lru_item:
 866              	.LVL98:
 867              	.LFB7:
 238:Drivers/lvgl/src/misc/lv_lru.c ****     lv_lru_item_t * min_item = NULL, *min_prev = NULL;
 868              		.loc 1 238 1 is_stmt 1 view -0
 869              		.cfi_startproc
 870              		@ args = 0, pretend = 0, frame = 0
 871              		@ frame_needed = 0, uses_anonymous_args = 0
 239:Drivers/lvgl/src/misc/lv_lru.c ****     lv_lru_item_t * item = NULL, *prev = NULL;
 872              		.loc 1 239 5 view .LVU268
 240:Drivers/lvgl/src/misc/lv_lru.c ****     uint32_t i = 0, min_index = -1;
 873              		.loc 1 240 5 view .LVU269
 241:Drivers/lvgl/src/misc/lv_lru.c ****     uint64_t min_access_count = -1;
 874              		.loc 1 241 5 view .LVU270
 242:Drivers/lvgl/src/misc/lv_lru.c **** 
 875              		.loc 1 242 5 view .LVU271
 244:Drivers/lvgl/src/misc/lv_lru.c ****         item = cache->items[i];
 876              		.loc 1 244 5 view .LVU272
 244:Drivers/lvgl/src/misc/lv_lru.c ****         item = cache->items[i];
 877              		.loc 1 244 13 discriminator 1 view .LVU273
 244:Drivers/lvgl/src/misc/lv_lru.c ****         item = cache->items[i];
 878              		.loc 1 244 20 is_stmt 0 discriminator 1 view .LVU274
 879 0000 C369     		ldr	r3, [r0, #28]
 244:Drivers/lvgl/src/misc/lv_lru.c ****         item = cache->items[i];
 880              		.loc 1 244 13 discriminator 1 view .LVU275
 881 0002 002B     		cmp	r3, #0
 882 0004 3ED0     		beq	.L119
 245:Drivers/lvgl/src/misc/lv_lru.c ****         prev = NULL;
 883              		.loc 1 245 21 view .LVU276
 884 0006 0268     		ldr	r2, [r0]
 238:Drivers/lvgl/src/misc/lv_lru.c ****     lv_lru_item_t * min_item = NULL, *min_prev = NULL;
 885              		.loc 1 238 1 view .LVU277
 886 0008 2DE9F04F 		push	{r4, r5, r6, r7, r8, r9, r10, fp, lr}
 887              		.cfi_def_cfa_offset 36
 888              		.cfi_offset 4, -36
 889              		.cfi_offset 5, -32
 890              		.cfi_offset 6, -28
 891              		.cfi_offset 7, -24
 892              		.cfi_offset 8, -20
 893              		.cfi_offset 9, -16
 894              		.cfi_offset 10, -12
 895              		.cfi_offset 11, -8
 896              		.cfi_offset 14, -4
 897 000c 02EB8303 		add	r3, r2, r3, lsl #2
 242:Drivers/lvgl/src/misc/lv_lru.c **** 
 898              		.loc 1 242 14 view .LVU278
 899 0010 4FF0FF3C 		mov	ip, #-1
 241:Drivers/lvgl/src/misc/lv_lru.c ****     uint64_t min_access_count = -1;
ARM GAS  /var/folders/lp/x54gwt890xv47sdkqj1k04q40000gn/T//cck1u84I.s 			page 27


 900              		.loc 1 241 14 view .LVU279
 901 0014 4FF00008 		mov	r8, #0
 902 0018 A2F10409 		sub	r9, r2, #4
 903 001c A3F1040A 		sub	r10, r3, #4
 242:Drivers/lvgl/src/misc/lv_lru.c **** 
 904              		.loc 1 242 14 view .LVU280
 905 0020 E646     		mov	lr, ip
 241:Drivers/lvgl/src/misc/lv_lru.c ****     uint64_t min_access_count = -1;
 906              		.loc 1 241 21 view .LVU281
 907 0022 6346     		mov	r3, ip
 239:Drivers/lvgl/src/misc/lv_lru.c ****     lv_lru_item_t * item = NULL, *prev = NULL;
 908              		.loc 1 239 39 view .LVU282
 909 0024 4146     		mov	r1, r8
 239:Drivers/lvgl/src/misc/lv_lru.c ****     lv_lru_item_t * item = NULL, *prev = NULL;
 910              		.loc 1 239 21 view .LVU283
 911 0026 4246     		mov	r2, r8
 912              	.LVL99:
 913              	.L104:
 245:Drivers/lvgl/src/misc/lv_lru.c ****         prev = NULL;
 914              		.loc 1 245 9 is_stmt 1 view .LVU284
 245:Drivers/lvgl/src/misc/lv_lru.c ****         prev = NULL;
 915              		.loc 1 245 14 is_stmt 0 view .LVU285
 916 0028 59F8044F 		ldr	r4, [r9, #4]!
 917              	.LVL100:
 246:Drivers/lvgl/src/misc/lv_lru.c **** 
 918              		.loc 1 246 9 is_stmt 1 view .LVU286
 248:Drivers/lvgl/src/misc/lv_lru.c ****             if(item->access_count < min_access_count || (int64_t) min_access_count == -1) {
 919              		.loc 1 248 9 view .LVU287
 248:Drivers/lvgl/src/misc/lv_lru.c ****             if(item->access_count < min_access_count || (int64_t) min_access_count == -1) {
 920              		.loc 1 248 15 view .LVU288
 921 002c FCB1     		cbz	r4, .L101
 246:Drivers/lvgl/src/misc/lv_lru.c **** 
 922              		.loc 1 246 14 is_stmt 0 view .LVU289
 923 002e 0027     		movs	r7, #0
 924 0030 0EE0     		b	.L103
 925              	.LVL101:
 926              	.L122:
 249:Drivers/lvgl/src/misc/lv_lru.c ****                 min_access_count = item->access_count;
 927              		.loc 1 249 54 discriminator 1 view .LVU290
 928 0032 BEF1FF3F 		cmp	lr, #-1
 929 0036 08BF     		it	eq
 930 0038 BCF1FF3F 		cmpeq	ip, #-1
 931 003c 04D1     		bne	.L102
 252:Drivers/lvgl/src/misc/lv_lru.c ****                 min_index = i;
 932              		.loc 1 252 26 view .LVU291
 933 003e 3946     		mov	r1, r7
 251:Drivers/lvgl/src/misc/lv_lru.c ****                 min_prev = prev;
 934              		.loc 1 251 26 view .LVU292
 935 0040 2246     		mov	r2, r4
 250:Drivers/lvgl/src/misc/lv_lru.c ****                 min_item = item;
 936              		.loc 1 250 34 view .LVU293
 937 0042 B446     		mov	ip, r6
 938              	.LVL102:
 250:Drivers/lvgl/src/misc/lv_lru.c ****                 min_item = item;
 939              		.loc 1 250 34 view .LVU294
 940 0044 AE46     		mov	lr, r5
 253:Drivers/lvgl/src/misc/lv_lru.c ****             }
ARM GAS  /var/folders/lp/x54gwt890xv47sdkqj1k04q40000gn/T//cck1u84I.s 			page 28


 941              		.loc 1 253 27 view .LVU295
 942 0046 4346     		mov	r3, r8
 943              	.L102:
 944              	.LVL103:
 255:Drivers/lvgl/src/misc/lv_lru.c ****             item = item->next;
 945              		.loc 1 255 13 is_stmt 1 view .LVU296
 256:Drivers/lvgl/src/misc/lv_lru.c ****         }
 946              		.loc 1 256 13 view .LVU297
 256:Drivers/lvgl/src/misc/lv_lru.c ****         }
 947              		.loc 1 256 18 is_stmt 0 view .LVU298
 948 0048 A569     		ldr	r5, [r4, #24]
 949              	.LVL104:
 248:Drivers/lvgl/src/misc/lv_lru.c ****             if(item->access_count < min_access_count || (int64_t) min_access_count == -1) {
 950              		.loc 1 248 15 is_stmt 1 view .LVU299
 951 004a 2746     		mov	r7, r4
 952 004c 7DB1     		cbz	r5, .L101
 953              	.LVL105:
 954              	.L107:
 256:Drivers/lvgl/src/misc/lv_lru.c ****         }
 955              		.loc 1 256 18 is_stmt 0 view .LVU300
 956 004e 2C46     		mov	r4, r5
 957              	.LVL106:
 958              	.L103:
 249:Drivers/lvgl/src/misc/lv_lru.c ****                 min_access_count = item->access_count;
 959              		.loc 1 249 13 is_stmt 1 view .LVU301
 249:Drivers/lvgl/src/misc/lv_lru.c ****                 min_access_count = item->access_count;
 960              		.loc 1 249 20 is_stmt 0 view .LVU302
 961 0050 D4E90465 		ldrd	r6, r5, [r4, #16]
 249:Drivers/lvgl/src/misc/lv_lru.c ****                 min_access_count = item->access_count;
 962              		.loc 1 249 15 view .LVU303
 963 0054 6645     		cmp	r6, ip
 964 0056 75EB0E0B 		sbcs	fp, r5, lr
 965 005a EAD2     		bcs	.L122
 250:Drivers/lvgl/src/misc/lv_lru.c ****                 min_item = item;
 966              		.loc 1 250 34 view .LVU304
 967 005c AE46     		mov	lr, r5
 968              	.LVL107:
 256:Drivers/lvgl/src/misc/lv_lru.c ****         }
 969              		.loc 1 256 18 view .LVU305
 970 005e A569     		ldr	r5, [r4, #24]
 252:Drivers/lvgl/src/misc/lv_lru.c ****                 min_index = i;
 971              		.loc 1 252 26 view .LVU306
 972 0060 3946     		mov	r1, r7
 250:Drivers/lvgl/src/misc/lv_lru.c ****                 min_item = item;
 973              		.loc 1 250 34 view .LVU307
 974 0062 B446     		mov	ip, r6
 253:Drivers/lvgl/src/misc/lv_lru.c ****             }
 975              		.loc 1 253 27 view .LVU308
 976 0064 4346     		mov	r3, r8
 251:Drivers/lvgl/src/misc/lv_lru.c ****                 min_prev = prev;
 977              		.loc 1 251 26 view .LVU309
 978 0066 2246     		mov	r2, r4
 979              	.LVL108:
 255:Drivers/lvgl/src/misc/lv_lru.c ****             item = item->next;
 980              		.loc 1 255 13 is_stmt 1 view .LVU310
 256:Drivers/lvgl/src/misc/lv_lru.c ****         }
 981              		.loc 1 256 13 view .LVU311
ARM GAS  /var/folders/lp/x54gwt890xv47sdkqj1k04q40000gn/T//cck1u84I.s 			page 29


 248:Drivers/lvgl/src/misc/lv_lru.c ****             if(item->access_count < min_access_count || (int64_t) min_access_count == -1) {
 982              		.loc 1 248 15 view .LVU312
 983 0068 2746     		mov	r7, r4
 984 006a 002D     		cmp	r5, #0
 985 006c EFD1     		bne	.L107
 986              	.LVL109:
 987              	.L101:
 244:Drivers/lvgl/src/misc/lv_lru.c ****         item = cache->items[i];
 988              		.loc 1 244 40 view .LVU313
 244:Drivers/lvgl/src/misc/lv_lru.c ****         item = cache->items[i];
 989              		.loc 1 244 13 is_stmt 0 discriminator 1 view .LVU314
 990 006e CA45     		cmp	r10, r9
 244:Drivers/lvgl/src/misc/lv_lru.c ****         item = cache->items[i];
 991              		.loc 1 244 40 view .LVU315
 992 0070 08F10108 		add	r8, r8, #1
 993              	.LVL110:
 244:Drivers/lvgl/src/misc/lv_lru.c ****         item = cache->items[i];
 994              		.loc 1 244 13 is_stmt 1 discriminator 1 view .LVU316
 995 0074 D8D1     		bne	.L104
 260:Drivers/lvgl/src/misc/lv_lru.c ****         lv_lru_remove_item(cache, min_prev, min_item, min_index);
 996              		.loc 1 260 5 view .LVU317
 260:Drivers/lvgl/src/misc/lv_lru.c ****         lv_lru_remove_item(cache, min_prev, min_item, min_index);
 997              		.loc 1 260 7 is_stmt 0 view .LVU318
 998 0076 1AB1     		cbz	r2, .L99
 261:Drivers/lvgl/src/misc/lv_lru.c ****     }
 999              		.loc 1 261 9 is_stmt 1 view .LVU319
 263:Drivers/lvgl/src/misc/lv_lru.c **** 
 1000              		.loc 1 263 1 is_stmt 0 view .LVU320
 1001 0078 BDE8F04F 		pop	{r4, r5, r6, r7, r8, r9, r10, fp, lr}
 1002              		.cfi_remember_state
 1003              		.cfi_restore 14
 1004              		.cfi_restore 11
 1005              		.cfi_restore 10
 1006              		.cfi_restore 9
 1007              		.cfi_restore 8
 1008              		.cfi_restore 7
 1009              		.cfi_restore 6
 1010              		.cfi_restore 5
 1011              		.cfi_restore 4
 1012              		.cfi_def_cfa_offset 0
 1013              	.LVL111:
 261:Drivers/lvgl/src/misc/lv_lru.c ****     }
 1014              		.loc 1 261 9 view .LVU321
 1015 007c FFF7FEBF 		b	lv_lru_remove_item
 1016              	.LVL112:
 1017              	.L99:
 1018              		.cfi_restore_state
 263:Drivers/lvgl/src/misc/lv_lru.c **** 
 1019              		.loc 1 263 1 view .LVU322
 1020 0080 BDE8F08F 		pop	{r4, r5, r6, r7, r8, r9, r10, fp, pc}
 1021              	.LVL113:
 1022              	.L119:
 1023              		.cfi_def_cfa_offset 0
 1024              		.cfi_restore 4
 1025              		.cfi_restore 5
 1026              		.cfi_restore 6
 1027              		.cfi_restore 7
ARM GAS  /var/folders/lp/x54gwt890xv47sdkqj1k04q40000gn/T//cck1u84I.s 			page 30


 1028              		.cfi_restore 8
 1029              		.cfi_restore 9
 1030              		.cfi_restore 10
 1031              		.cfi_restore 11
 1032              		.cfi_restore 14
 263:Drivers/lvgl/src/misc/lv_lru.c **** 
 1033              		.loc 1 263 1 view .LVU323
 1034 0084 7047     		bx	lr
 1035              		.cfi_endproc
 1036              	.LFE7:
 1038 0086 00BF     		.section	.text.lv_lru_set,"ax",%progbits
 1039              		.align	1
 1040              		.p2align 2,,3
 1041              		.global	lv_lru_set
 1042              		.syntax unified
 1043              		.thumb
 1044              		.thumb_func
 1046              	lv_lru_set:
 1047              	.LVL114:
 1048              	.LFB4:
 140:Drivers/lvgl/src/misc/lv_lru.c ****     test_for_missing_cache();
 1049              		.loc 1 140 1 is_stmt 1 view -0
 1050              		.cfi_startproc
 1051              		@ args = 4, pretend = 0, frame = 8
 1052              		@ frame_needed = 0, uses_anonymous_args = 0
 141:Drivers/lvgl/src/misc/lv_lru.c ****     test_for_missing_key();
 1053              		.loc 1 141 5 view .LVU325
 140:Drivers/lvgl/src/misc/lv_lru.c ****     test_for_missing_cache();
 1054              		.loc 1 140 1 is_stmt 0 view .LVU326
 1055 0000 2DE9F04F 		push	{r4, r5, r6, r7, r8, r9, r10, fp, lr}
 1056              		.cfi_def_cfa_offset 36
 1057              		.cfi_offset 4, -36
 1058              		.cfi_offset 5, -32
 1059              		.cfi_offset 6, -28
 1060              		.cfi_offset 7, -24
 1061              		.cfi_offset 8, -20
 1062              		.cfi_offset 9, -16
 1063              		.cfi_offset 10, -12
 1064              		.cfi_offset 11, -8
 1065              		.cfi_offset 14, -4
 1066 0004 83B0     		sub	sp, sp, #12
 1067              		.cfi_def_cfa_offset 48
 140:Drivers/lvgl/src/misc/lv_lru.c ****     test_for_missing_cache();
 1068              		.loc 1 140 1 view .LVU327
 1069 0006 DDF830A0 		ldr	r10, [sp, #48]
 141:Drivers/lvgl/src/misc/lv_lru.c ****     test_for_missing_key();
 1070              		.loc 1 141 5 view .LVU328
 1071 000a 0028     		cmp	r0, #0
 1072 000c 53D0     		beq	.L136
 141:Drivers/lvgl/src/misc/lv_lru.c ****     test_for_missing_key();
 1073              		.loc 1 141 29 is_stmt 1 discriminator 2 view .LVU329
 142:Drivers/lvgl/src/misc/lv_lru.c ****     test_for_missing_value();
 1074              		.loc 1 142 5 view .LVU330
 1075 000e 8846     		mov	r8, r1
 1076 0010 0029     		cmp	r1, #0
 1077 0012 54D0     		beq	.L137
 142:Drivers/lvgl/src/misc/lv_lru.c ****     test_for_missing_value();
ARM GAS  /var/folders/lp/x54gwt890xv47sdkqj1k04q40000gn/T//cck1u84I.s 			page 31


 1078              		.loc 1 142 27 discriminator 2 view .LVU331
 143:Drivers/lvgl/src/misc/lv_lru.c ****     test_for_value_too_large();
 1079              		.loc 1 143 5 view .LVU332
 1080 0014 9946     		mov	r9, r3
 1081 0016 002B     		cmp	r3, #0
 1082 0018 45D0     		beq	.L139
 143:Drivers/lvgl/src/misc/lv_lru.c ****     test_for_value_too_large();
 1083              		.loc 1 143 5 is_stmt 0 discriminator 2 view .LVU333
 1084 001a BAF1000F 		cmp	r10, #0
 1085 001e 42D0     		beq	.L139
 144:Drivers/lvgl/src/misc/lv_lru.c **** 
 1086              		.loc 1 144 5 view .LVU334
 1087 0020 4369     		ldr	r3, [r0, #20]
 1088              	.LVL115:
 144:Drivers/lvgl/src/misc/lv_lru.c **** 
 1089              		.loc 1 144 5 view .LVU335
 1090 0022 5345     		cmp	r3, r10
 1091 0024 0746     		mov	r7, r0
 143:Drivers/lvgl/src/misc/lv_lru.c ****     test_for_value_too_large();
 1092              		.loc 1 143 29 is_stmt 1 discriminator 4 view .LVU336
 144:Drivers/lvgl/src/misc/lv_lru.c **** 
 1093              		.loc 1 144 5 view .LVU337
 1094 0026 42D3     		bcc	.L140
 144:Drivers/lvgl/src/misc/lv_lru.c **** 
 1095              		.loc 1 144 31 discriminator 2 view .LVU338
 147:Drivers/lvgl/src/misc/lv_lru.c ****     int required = 0;
 1096              		.loc 1 147 5 view .LVU339
 147:Drivers/lvgl/src/misc/lv_lru.c ****     int required = 0;
 1097              		.loc 1 147 27 is_stmt 0 view .LVU340
 1098 0028 1346     		mov	r3, r2
 1099 002a D0E90701 		ldrd	r0, r1, [r0, #28]
 1100              	.LVL116:
 147:Drivers/lvgl/src/misc/lv_lru.c ****     int required = 0;
 1101              		.loc 1 147 27 view .LVU341
 1102 002e 1646     		mov	r6, r2
 1103 0030 4246     		mov	r2, r8
 1104              	.LVL117:
 147:Drivers/lvgl/src/misc/lv_lru.c ****     int required = 0;
 1105              		.loc 1 147 27 view .LVU342
 1106 0032 FFF7FEFF 		bl	lv_lru_hash.isra.0
 1107              	.LVL118:
 150:Drivers/lvgl/src/misc/lv_lru.c **** 
 1108              		.loc 1 150 10 view .LVU343
 1109 0036 3B68     		ldr	r3, [r7]
 1110 0038 53F82040 		ldr	r4, [r3, r0, lsl #2]
 147:Drivers/lvgl/src/misc/lv_lru.c ****     int required = 0;
 1111              		.loc 1 147 27 view .LVU344
 1112 003c 8346     		mov	fp, r0
 1113              	.LVL119:
 148:Drivers/lvgl/src/misc/lv_lru.c ****     lv_lru_item_t * item = NULL, *prev = NULL;
 1114              		.loc 1 148 5 is_stmt 1 view .LVU345
 149:Drivers/lvgl/src/misc/lv_lru.c ****     item = cache->items[hash_index];
 1115              		.loc 1 149 5 view .LVU346
 150:Drivers/lvgl/src/misc/lv_lru.c **** 
 1116              		.loc 1 150 5 view .LVU347
 152:Drivers/lvgl/src/misc/lv_lru.c ****         prev = item;
 1117              		.loc 1 152 5 view .LVU348
ARM GAS  /var/folders/lp/x54gwt890xv47sdkqj1k04q40000gn/T//cck1u84I.s 			page 32


 152:Drivers/lvgl/src/misc/lv_lru.c ****         prev = item;
 1118              		.loc 1 152 16 view .LVU349
 1119 003e 24B9     		cbnz	r4, .L125
 1120 0040 3FE0     		b	.L126
 1121              	.LVL120:
 1122              	.L127:
 153:Drivers/lvgl/src/misc/lv_lru.c ****         item = (lv_lru_item_t *) item->next;
 1123              		.loc 1 153 9 view .LVU350
 154:Drivers/lvgl/src/misc/lv_lru.c ****     }
 1124              		.loc 1 154 9 view .LVU351
 154:Drivers/lvgl/src/misc/lv_lru.c ****     }
 1125              		.loc 1 154 14 is_stmt 0 view .LVU352
 1126 0042 A569     		ldr	r5, [r4, #24]
 1127              	.LVL121:
 152:Drivers/lvgl/src/misc/lv_lru.c ****         prev = item;
 1128              		.loc 1 152 16 is_stmt 1 view .LVU353
 1129 0044 002D     		cmp	r5, #0
 1130 0046 3CD0     		beq	.L126
 152:Drivers/lvgl/src/misc/lv_lru.c ****         prev = item;
 1131              		.loc 1 152 16 is_stmt 0 view .LVU354
 1132 0048 2C46     		mov	r4, r5
 1133              	.LVL122:
 1134              	.L125:
 1135              	.LBB33:
 1136              	.LBI33:
 304:Drivers/lvgl/src/misc/lv_lru.c **** {
 1137              		.loc 1 304 12 is_stmt 1 view .LVU355
 1138              	.LBB34:
 306:Drivers/lvgl/src/misc/lv_lru.c ****         return 1;
 1139              		.loc 1 306 5 view .LVU356
 306:Drivers/lvgl/src/misc/lv_lru.c ****         return 1;
 1140              		.loc 1 306 7 is_stmt 0 view .LVU357
 1141 004a E368     		ldr	r3, [r4, #12]
 1142 004c 9E42     		cmp	r6, r3
 1143 004e F8D1     		bne	.L127
 1144              	.LVL123:
 1145              	.LBB35:
 1146              	.LBI35:
 304:Drivers/lvgl/src/misc/lv_lru.c **** {
 1147              		.loc 1 304 12 is_stmt 1 view .LVU358
 1148              	.LBB36:
 310:Drivers/lvgl/src/misc/lv_lru.c ****     }
 1149              		.loc 1 310 9 view .LVU359
 310:Drivers/lvgl/src/misc/lv_lru.c ****     }
 1150              		.loc 1 310 16 is_stmt 0 view .LVU360
 1151 0050 6168     		ldr	r1, [r4, #4]
 1152 0052 3246     		mov	r2, r6
 1153 0054 4046     		mov	r0, r8
 1154 0056 FFF7FEFF 		bl	memcmp
 1155              	.LVL124:
 310:Drivers/lvgl/src/misc/lv_lru.c ****     }
 1156              		.loc 1 310 16 view .LVU361
 1157              	.LBE36:
 1158              	.LBE35:
 1159              	.LBE34:
 1160              	.LBE33:
 152:Drivers/lvgl/src/misc/lv_lru.c ****         prev = item;
ARM GAS  /var/folders/lp/x54gwt890xv47sdkqj1k04q40000gn/T//cck1u84I.s 			page 33


 1161              		.loc 1 152 16 discriminator 1 view .LVU362
 1162 005a 0028     		cmp	r0, #0
 1163 005c F1D1     		bne	.L127
 157:Drivers/lvgl/src/misc/lv_lru.c ****         // update the value and value_lengths
 1164              		.loc 1 157 5 is_stmt 1 view .LVU363
 159:Drivers/lvgl/src/misc/lv_lru.c ****         cache->value_free(item->value);
 1165              		.loc 1 159 9 view .LVU364
 159:Drivers/lvgl/src/misc/lv_lru.c ****         cache->value_free(item->value);
 1166              		.loc 1 159 39 is_stmt 0 view .LVU365
 1167 005e A568     		ldr	r5, [r4, #8]
 160:Drivers/lvgl/src/misc/lv_lru.c ****         item->value = value;
 1168              		.loc 1 160 9 view .LVU366
 1169 0060 7B6A     		ldr	r3, [r7, #36]
 1170 0062 2068     		ldr	r0, [r4]
 159:Drivers/lvgl/src/misc/lv_lru.c ****         cache->value_free(item->value);
 1171              		.loc 1 159 39 view .LVU367
 1172 0064 AAEB0505 		sub	r5, r10, r5
 160:Drivers/lvgl/src/misc/lv_lru.c ****         item->value = value;
 1173              		.loc 1 160 9 view .LVU368
 1174 0068 9847     		blx	r3
 1175              	.LVL125:
 159:Drivers/lvgl/src/misc/lv_lru.c ****         cache->value_free(item->value);
 1176              		.loc 1 159 18 view .LVU369
 1177 006a 2E46     		mov	r6, r5
 1178              	.LVL126:
 160:Drivers/lvgl/src/misc/lv_lru.c ****         item->value = value;
 1179              		.loc 1 160 9 is_stmt 1 view .LVU370
 161:Drivers/lvgl/src/misc/lv_lru.c ****         item->value_length = value_length;
 1180              		.loc 1 161 9 view .LVU371
 161:Drivers/lvgl/src/misc/lv_lru.c ****         item->value_length = value_length;
 1181              		.loc 1 161 21 is_stmt 0 view .LVU372
 1182 006c C4F80090 		str	r9, [r4]
 162:Drivers/lvgl/src/misc/lv_lru.c **** 
 1183              		.loc 1 162 9 is_stmt 1 view .LVU373
 162:Drivers/lvgl/src/misc/lv_lru.c **** 
 1184              		.loc 1 162 28 is_stmt 0 view .LVU374
 1185 0070 C4F808A0 		str	r10, [r4, #8]
 1186              	.LVL127:
 1187              	.L135:
 180:Drivers/lvgl/src/misc/lv_lru.c **** 
 1188              		.loc 1 180 5 is_stmt 1 view .LVU375
 180:Drivers/lvgl/src/misc/lv_lru.c **** 
 1189              		.loc 1 180 26 is_stmt 0 view .LVU376
 1190 0074 BB68     		ldr	r3, [r7, #8]
 1191 0076 FA68     		ldr	r2, [r7, #12]
 1192 0078 0133     		adds	r3, r3, #1
 1193 007a 42F10002 		adc	r2, r2, #0
 183:Drivers/lvgl/src/misc/lv_lru.c ****         while(cache->free_memory < (size_t) required)
 1194              		.loc 1 183 7 view .LVU377
 1195 007e 002E     		cmp	r6, #0
 180:Drivers/lvgl/src/misc/lv_lru.c **** 
 1196              		.loc 1 180 24 view .LVU378
 1197 0080 BB60     		str	r3, [r7, #8]
 1198 0082 FA60     		str	r2, [r7, #12]
 1199 0084 C4E90432 		strd	r3, r2, [r4, #16]
 183:Drivers/lvgl/src/misc/lv_lru.c ****         while(cache->free_memory < (size_t) required)
 1200              		.loc 1 183 5 is_stmt 1 view .LVU379
ARM GAS  /var/folders/lp/x54gwt890xv47sdkqj1k04q40000gn/T//cck1u84I.s 			page 34


 183:Drivers/lvgl/src/misc/lv_lru.c ****         while(cache->free_memory < (size_t) required)
 1201              		.loc 1 183 49 is_stmt 0 discriminator 1 view .LVU380
 1202 0088 3B69     		ldr	r3, [r7, #16]
 183:Drivers/lvgl/src/misc/lv_lru.c ****         while(cache->free_memory < (size_t) required)
 1203              		.loc 1 183 7 view .LVU381
 1204 008a 04DC     		bgt	.L149
 183:Drivers/lvgl/src/misc/lv_lru.c ****         while(cache->free_memory < (size_t) required)
 1205              		.loc 1 183 7 view .LVU382
 1206 008c 05E0     		b	.L133
 1207              	.L134:
 185:Drivers/lvgl/src/misc/lv_lru.c ****     }
 1208              		.loc 1 185 13 is_stmt 1 view .LVU383
 1209 008e 3846     		mov	r0, r7
 1210 0090 FFF7FEFF 		bl	lv_lru_remove_lru_item
 1211              	.LVL128:
 184:Drivers/lvgl/src/misc/lv_lru.c ****             lv_lru_remove_lru_item(cache);
 1212              		.loc 1 184 34 view .LVU384
 184:Drivers/lvgl/src/misc/lv_lru.c ****             lv_lru_remove_lru_item(cache);
 1213              		.loc 1 184 20 is_stmt 0 view .LVU385
 1214 0094 3B69     		ldr	r3, [r7, #16]
 1215              	.L149:
 184:Drivers/lvgl/src/misc/lv_lru.c ****             lv_lru_remove_lru_item(cache);
 1216              		.loc 1 184 34 view .LVU386
 1217 0096 9D42     		cmp	r5, r3
 1218 0098 F9D8     		bhi	.L134
 1219              	.L133:
 187:Drivers/lvgl/src/misc/lv_lru.c ****     return LV_LRU_OK;
 1220              		.loc 1 187 5 is_stmt 1 view .LVU387
 187:Drivers/lvgl/src/misc/lv_lru.c ****     return LV_LRU_OK;
 1221              		.loc 1 187 24 is_stmt 0 view .LVU388
 1222 009a 5B1B     		subs	r3, r3, r5
 1223 009c 3B61     		str	r3, [r7, #16]
 188:Drivers/lvgl/src/misc/lv_lru.c **** }
 1224              		.loc 1 188 5 is_stmt 1 view .LVU389
 188:Drivers/lvgl/src/misc/lv_lru.c **** }
 1225              		.loc 1 188 12 is_stmt 0 view .LVU390
 1226 009e 0020     		movs	r0, #0
 1227              	.LVL129:
 1228              	.L147:
 189:Drivers/lvgl/src/misc/lv_lru.c **** 
 1229              		.loc 1 189 1 view .LVU391
 1230 00a0 03B0     		add	sp, sp, #12
 1231              		.cfi_remember_state
 1232              		.cfi_def_cfa_offset 36
 1233              		@ sp needed
 1234 00a2 BDE8F08F 		pop	{r4, r5, r6, r7, r8, r9, r10, fp, pc}
 1235              	.LVL130:
 1236              	.L139:
 1237              		.cfi_restore_state
 143:Drivers/lvgl/src/misc/lv_lru.c ****     test_for_value_too_large();
 1238              		.loc 1 143 5 discriminator 3 view .LVU392
 1239 00a6 0320     		movs	r0, #3
 1240              	.LVL131:
 189:Drivers/lvgl/src/misc/lv_lru.c **** 
 1241              		.loc 1 189 1 view .LVU393
 1242 00a8 03B0     		add	sp, sp, #12
 1243              		.cfi_remember_state
ARM GAS  /var/folders/lp/x54gwt890xv47sdkqj1k04q40000gn/T//cck1u84I.s 			page 35


 1244              		.cfi_def_cfa_offset 36
 1245              		@ sp needed
 1246 00aa BDE8F08F 		pop	{r4, r5, r6, r7, r8, r9, r10, fp, pc}
 1247              	.LVL132:
 1248              	.L140:
 1249              		.cfi_restore_state
 144:Drivers/lvgl/src/misc/lv_lru.c **** 
 1250              		.loc 1 144 5 discriminator 1 view .LVU394
 1251 00ae 0520     		movs	r0, #5
 1252              	.LVL133:
 189:Drivers/lvgl/src/misc/lv_lru.c **** 
 1253              		.loc 1 189 1 view .LVU395
 1254 00b0 03B0     		add	sp, sp, #12
 1255              		.cfi_remember_state
 1256              		.cfi_def_cfa_offset 36
 1257              		@ sp needed
 1258 00b2 BDE8F08F 		pop	{r4, r5, r6, r7, r8, r9, r10, fp, pc}
 1259              	.LVL134:
 1260              	.L136:
 1261              		.cfi_restore_state
 141:Drivers/lvgl/src/misc/lv_lru.c ****     test_for_missing_key();
 1262              		.loc 1 141 5 discriminator 1 view .LVU396
 1263 00b6 0120     		movs	r0, #1
 1264              	.LVL135:
 189:Drivers/lvgl/src/misc/lv_lru.c **** 
 1265              		.loc 1 189 1 view .LVU397
 1266 00b8 03B0     		add	sp, sp, #12
 1267              		.cfi_remember_state
 1268              		.cfi_def_cfa_offset 36
 1269              		@ sp needed
 1270 00ba BDE8F08F 		pop	{r4, r5, r6, r7, r8, r9, r10, fp, pc}
 1271              	.LVL136:
 1272              	.L137:
 1273              		.cfi_restore_state
 142:Drivers/lvgl/src/misc/lv_lru.c ****     test_for_missing_value();
 1274              		.loc 1 142 5 discriminator 1 view .LVU398
 1275 00be 0220     		movs	r0, #2
 1276              	.LVL137:
 142:Drivers/lvgl/src/misc/lv_lru.c ****     test_for_missing_value();
 1277              		.loc 1 142 5 discriminator 1 view .LVU399
 1278 00c0 EEE7     		b	.L147
 1279              	.LVL138:
 1280              	.L126:
 167:Drivers/lvgl/src/misc/lv_lru.c ****         item->value = value;
 1281              		.loc 1 167 9 is_stmt 1 view .LVU400
 1282              	.LBB37:
 1283              	.LBI37:
 333:Drivers/lvgl/src/misc/lv_lru.c **** 
 334:Drivers/lvgl/src/misc/lv_lru.c **** static lv_lru_item_t * lv_lru_pop_or_create_item(lv_lru_t * cache)
 1284              		.loc 1 334 24 view .LVU401
 1285              	.LBB38:
 335:Drivers/lvgl/src/misc/lv_lru.c **** {
 336:Drivers/lvgl/src/misc/lv_lru.c ****     lv_lru_item_t * item = NULL;
 1286              		.loc 1 336 5 view .LVU402
 337:Drivers/lvgl/src/misc/lv_lru.c **** 
 338:Drivers/lvgl/src/misc/lv_lru.c ****     if(cache->free_items) {
 1287              		.loc 1 338 5 view .LVU403
ARM GAS  /var/folders/lp/x54gwt890xv47sdkqj1k04q40000gn/T//cck1u84I.s 			page 36


 1288              		.loc 1 338 13 is_stmt 0 view .LVU404
 1289 00c2 FB6A     		ldr	r3, [r7, #44]
 1290              		.loc 1 338 7 view .LVU405
 1291 00c4 E3B1     		cbz	r3, .L129
 339:Drivers/lvgl/src/misc/lv_lru.c ****         item = cache->free_items;
 1292              		.loc 1 339 9 is_stmt 1 view .LVU406
 1293              	.LVL139:
 340:Drivers/lvgl/src/misc/lv_lru.c ****         cache->free_items = item->next;
 1294              		.loc 1 340 9 view .LVU407
 1295              		.loc 1 340 27 is_stmt 0 view .LVU408
 1296 00c6 9A69     		ldr	r2, [r3, #24]
 1297 00c8 FA62     		str	r2, [r7, #44]
 341:Drivers/lvgl/src/misc/lv_lru.c ****         lv_memset_00(item, sizeof(lv_lru_item_t));
 1298              		.loc 1 341 9 is_stmt 1 view .LVU409
 1299 00ca 1846     		mov	r0, r3
 1300 00cc 2021     		movs	r1, #32
 1301 00ce 0193     		str	r3, [sp, #4]
 1302 00d0 FFF7FEFF 		bl	lv_memset_00
 1303              	.LVL140:
 1304              		.loc 1 341 9 is_stmt 0 view .LVU410
 1305 00d4 019B     		ldr	r3, [sp, #4]
 1306              	.L130:
 1307              	.LVL141:
 342:Drivers/lvgl/src/misc/lv_lru.c ****     }
 343:Drivers/lvgl/src/misc/lv_lru.c ****     else {
 344:Drivers/lvgl/src/misc/lv_lru.c ****         item = (lv_lru_item_t *) lv_mem_alloc(sizeof(lv_lru_item_t));
 345:Drivers/lvgl/src/misc/lv_lru.c ****         lv_memset_00(item, sizeof(lv_lru_item_t));
 346:Drivers/lvgl/src/misc/lv_lru.c ****     }
 347:Drivers/lvgl/src/misc/lv_lru.c **** 
 348:Drivers/lvgl/src/misc/lv_lru.c ****     return item;
 1308              		.loc 1 348 5 is_stmt 1 view .LVU411
 1309              		.loc 1 348 5 is_stmt 0 view .LVU412
 1310              	.LBE38:
 1311              	.LBE37:
 168:Drivers/lvgl/src/misc/lv_lru.c ****         item->key = lv_mem_alloc(key_length);
 1312              		.loc 1 168 9 is_stmt 1 view .LVU413
 168:Drivers/lvgl/src/misc/lv_lru.c ****         item->key = lv_mem_alloc(key_length);
 1313              		.loc 1 168 21 is_stmt 0 view .LVU414
 1314 00d6 C3F80090 		str	r9, [r3]
 169:Drivers/lvgl/src/misc/lv_lru.c ****         memcpy(item->key, key, key_length);
 1315              		.loc 1 169 21 view .LVU415
 1316 00da 3046     		mov	r0, r6
 168:Drivers/lvgl/src/misc/lv_lru.c ****         item->key = lv_mem_alloc(key_length);
 1317              		.loc 1 168 21 view .LVU416
 1318 00dc 0193     		str	r3, [sp, #4]
 169:Drivers/lvgl/src/misc/lv_lru.c ****         memcpy(item->key, key, key_length);
 1319              		.loc 1 169 9 is_stmt 1 view .LVU417
 169:Drivers/lvgl/src/misc/lv_lru.c ****         memcpy(item->key, key, key_length);
 1320              		.loc 1 169 21 is_stmt 0 view .LVU418
 1321 00de FFF7FEFF 		bl	lv_mem_alloc
 1322              	.LVL142:
 169:Drivers/lvgl/src/misc/lv_lru.c ****         memcpy(item->key, key, key_length);
 1323              		.loc 1 169 19 discriminator 1 view .LVU419
 1324 00e2 019B     		ldr	r3, [sp, #4]
 170:Drivers/lvgl/src/misc/lv_lru.c ****         item->value_length = value_length;
 1325              		.loc 1 170 9 view .LVU420
 1326 00e4 4146     		mov	r1, r8
ARM GAS  /var/folders/lp/x54gwt890xv47sdkqj1k04q40000gn/T//cck1u84I.s 			page 37


 169:Drivers/lvgl/src/misc/lv_lru.c ****         memcpy(item->key, key, key_length);
 1327              		.loc 1 169 19 discriminator 1 view .LVU421
 1328 00e6 5860     		str	r0, [r3, #4]
 170:Drivers/lvgl/src/misc/lv_lru.c ****         item->value_length = value_length;
 1329              		.loc 1 170 9 is_stmt 1 view .LVU422
 1330 00e8 3246     		mov	r2, r6
 1331 00ea FFF7FEFF 		bl	memcpy
 1332              	.LVL143:
 171:Drivers/lvgl/src/misc/lv_lru.c ****         item->key_length = key_length;
 1333              		.loc 1 171 9 view .LVU423
 172:Drivers/lvgl/src/misc/lv_lru.c ****         required = (int) value_length;
 1334              		.loc 1 172 26 is_stmt 0 view .LVU424
 1335 00ee 019B     		ldr	r3, [sp, #4]
 171:Drivers/lvgl/src/misc/lv_lru.c ****         item->key_length = key_length;
 1336              		.loc 1 171 28 view .LVU425
 1337 00f0 C3E902A6 		strd	r10, r6, [r3, #8]
 172:Drivers/lvgl/src/misc/lv_lru.c ****         required = (int) value_length;
 1338              		.loc 1 172 9 is_stmt 1 view .LVU426
 173:Drivers/lvgl/src/misc/lv_lru.c **** 
 1339              		.loc 1 173 9 view .LVU427
 1340              	.LVL144:
 175:Drivers/lvgl/src/misc/lv_lru.c ****             prev->next = item;
 1341              		.loc 1 175 9 view .LVU428
 175:Drivers/lvgl/src/misc/lv_lru.c ****             prev->next = item;
 1342              		.loc 1 175 11 is_stmt 0 view .LVU429
 1343 00f4 6CB1     		cbz	r4, .L131
 1344              	.LVL145:
 176:Drivers/lvgl/src/misc/lv_lru.c ****         else
 1345              		.loc 1 176 13 is_stmt 1 view .LVU430
 176:Drivers/lvgl/src/misc/lv_lru.c ****         else
 1346              		.loc 1 176 24 is_stmt 0 view .LVU431
 1347 00f6 A361     		str	r3, [r4, #24]
 1348              	.L132:
 173:Drivers/lvgl/src/misc/lv_lru.c **** 
 1349              		.loc 1 173 18 view .LVU432
 1350 00f8 5646     		mov	r6, r10
 1351              	.LVL146:
 173:Drivers/lvgl/src/misc/lv_lru.c **** 
 1352              		.loc 1 173 18 view .LVU433
 1353 00fa 5546     		mov	r5, r10
 167:Drivers/lvgl/src/misc/lv_lru.c ****         item->value = value;
 1354              		.loc 1 167 16 view .LVU434
 1355 00fc 1C46     		mov	r4, r3
 1356 00fe B9E7     		b	.L135
 1357              	.LVL147:
 1358              	.L129:
 1359              	.LBB40:
 1360              	.LBB39:
 344:Drivers/lvgl/src/misc/lv_lru.c ****         lv_memset_00(item, sizeof(lv_lru_item_t));
 1361              		.loc 1 344 9 is_stmt 1 view .LVU435
 344:Drivers/lvgl/src/misc/lv_lru.c ****         lv_memset_00(item, sizeof(lv_lru_item_t));
 1362              		.loc 1 344 34 is_stmt 0 view .LVU436
 1363 0100 2020     		movs	r0, #32
 1364 0102 FFF7FEFF 		bl	lv_mem_alloc
 1365              	.LVL148:
 345:Drivers/lvgl/src/misc/lv_lru.c ****     }
 1366              		.loc 1 345 9 view .LVU437
ARM GAS  /var/folders/lp/x54gwt890xv47sdkqj1k04q40000gn/T//cck1u84I.s 			page 38


 1367 0106 2021     		movs	r1, #32
 344:Drivers/lvgl/src/misc/lv_lru.c ****         lv_memset_00(item, sizeof(lv_lru_item_t));
 1368              		.loc 1 344 34 view .LVU438
 1369 0108 0190     		str	r0, [sp, #4]
 1370              	.LVL149:
 345:Drivers/lvgl/src/misc/lv_lru.c ****     }
 1371              		.loc 1 345 9 is_stmt 1 view .LVU439
 1372 010a FFF7FEFF 		bl	lv_memset_00
 1373              	.LVL150:
 345:Drivers/lvgl/src/misc/lv_lru.c ****     }
 1374              		.loc 1 345 9 is_stmt 0 view .LVU440
 1375 010e 019B     		ldr	r3, [sp, #4]
 1376 0110 E1E7     		b	.L130
 1377              	.LVL151:
 1378              	.L131:
 345:Drivers/lvgl/src/misc/lv_lru.c ****     }
 1379              		.loc 1 345 9 view .LVU441
 1380              	.LBE39:
 1381              	.LBE40:
 178:Drivers/lvgl/src/misc/lv_lru.c ****     }
 1382              		.loc 1 178 13 is_stmt 1 view .LVU442
 178:Drivers/lvgl/src/misc/lv_lru.c ****     }
 1383              		.loc 1 178 38 is_stmt 0 view .LVU443
 1384 0112 3A68     		ldr	r2, [r7]
 1385 0114 42F82B30 		str	r3, [r2, fp, lsl #2]
 1386 0118 EEE7     		b	.L132
 1387              		.cfi_endproc
 1388              	.LFE4:
 1390 011a 00BF     		.text
 1391              	.Letext0:
 1392              		.file 2 "/Users/jr/Library/Application Support/Code/User/globalStorage/bmd.stm32-for-vscode/@xpack
 1393              		.file 3 "/Users/jr/Library/Application Support/Code/User/globalStorage/bmd.stm32-for-vscode/@xpack
 1394              		.file 4 "/Users/jr/Library/Application Support/Code/User/globalStorage/bmd.stm32-for-vscode/@xpack
 1395              		.file 5 "Drivers/lvgl/src/misc/lv_lru.h"
 1396              		.file 6 "/Users/jr/Library/Application Support/Code/User/globalStorage/bmd.stm32-for-vscode/@xpack
 1397              		.file 7 "Drivers/lvgl/src/misc/lv_math.h"
 1398              		.file 8 "Drivers/lvgl/src/misc/lv_mem.h"
 1399              		.file 9 "<built-in>"
ARM GAS  /var/folders/lp/x54gwt890xv47sdkqj1k04q40000gn/T//cck1u84I.s 			page 39

