ARM GAS  /var/folders/0z/tsy30v1j4xl4_7kw94k978ww0000gn/T//ccmglILZ.s 			page 1


   1              		.cpu cortex-m4
   2              		.arch armv7e-m
   3              		.fpu fpv4-sp-d16
   4              		.eabi_attribute 27, 1
   5              		.eabi_attribute 28, 1
   6              		.eabi_attribute 20, 1
   7              		.eabi_attribute 21, 1
   8              		.eabi_attribute 23, 3
   9              		.eabi_attribute 24, 1
  10              		.eabi_attribute 25, 1
  11              		.eabi_attribute 26, 1
  12              		.eabi_attribute 30, 2
  13              		.eabi_attribute 34, 1
  14              		.eabi_attribute 18, 4
  15              		.file	"lv_list.c"
  16              		.text
  17              	.Ltext0:
  18              		.cfi_sections	.debug_frame
  19              		.section	.text.lv_list_create,"ax",%progbits
  20              		.align	1
  21              		.p2align 2,,3
  22              		.global	lv_list_create
  23              		.syntax unified
  24              		.thumb
  25              		.thumb_func
  27              	lv_list_create:
  28              	.LVL0:
  29              	.LFB172:
  30              		.file 1 "Drivers/lvgl/src/extra/widgets/list/lv_list.c"
   1:Drivers/lvgl/src/extra/widgets/list/lv_list.c **** /**
   2:Drivers/lvgl/src/extra/widgets/list/lv_list.c ****  * @file lv_list.c
   3:Drivers/lvgl/src/extra/widgets/list/lv_list.c ****  *
   4:Drivers/lvgl/src/extra/widgets/list/lv_list.c ****  */
   5:Drivers/lvgl/src/extra/widgets/list/lv_list.c **** 
   6:Drivers/lvgl/src/extra/widgets/list/lv_list.c **** /*********************
   7:Drivers/lvgl/src/extra/widgets/list/lv_list.c ****  *      INCLUDES
   8:Drivers/lvgl/src/extra/widgets/list/lv_list.c ****  *********************/
   9:Drivers/lvgl/src/extra/widgets/list/lv_list.c **** #include "lv_list.h"
  10:Drivers/lvgl/src/extra/widgets/list/lv_list.c **** #include "../../../core/lv_disp.h"
  11:Drivers/lvgl/src/extra/widgets/list/lv_list.c **** #include "../../../widgets/lv_label.h"
  12:Drivers/lvgl/src/extra/widgets/list/lv_list.c **** #include "../../../widgets/lv_img.h"
  13:Drivers/lvgl/src/extra/widgets/list/lv_list.c **** #include "../../../widgets/lv_btn.h"
  14:Drivers/lvgl/src/extra/widgets/list/lv_list.c **** 
  15:Drivers/lvgl/src/extra/widgets/list/lv_list.c **** #if LV_USE_LIST
  16:Drivers/lvgl/src/extra/widgets/list/lv_list.c **** 
  17:Drivers/lvgl/src/extra/widgets/list/lv_list.c **** /*********************
  18:Drivers/lvgl/src/extra/widgets/list/lv_list.c ****  *      DEFINES
  19:Drivers/lvgl/src/extra/widgets/list/lv_list.c ****  *********************/
  20:Drivers/lvgl/src/extra/widgets/list/lv_list.c **** #define MV_CLASS &lv_list
  21:Drivers/lvgl/src/extra/widgets/list/lv_list.c **** 
  22:Drivers/lvgl/src/extra/widgets/list/lv_list.c **** /**********************
  23:Drivers/lvgl/src/extra/widgets/list/lv_list.c ****  *      TYPEDEFS
  24:Drivers/lvgl/src/extra/widgets/list/lv_list.c ****  **********************/
  25:Drivers/lvgl/src/extra/widgets/list/lv_list.c **** 
  26:Drivers/lvgl/src/extra/widgets/list/lv_list.c **** /**********************
  27:Drivers/lvgl/src/extra/widgets/list/lv_list.c ****  *  STATIC PROTOTYPES
  28:Drivers/lvgl/src/extra/widgets/list/lv_list.c ****  **********************/
ARM GAS  /var/folders/0z/tsy30v1j4xl4_7kw94k978ww0000gn/T//ccmglILZ.s 			page 2


  29:Drivers/lvgl/src/extra/widgets/list/lv_list.c **** 
  30:Drivers/lvgl/src/extra/widgets/list/lv_list.c **** const lv_obj_class_t lv_list_class = {
  31:Drivers/lvgl/src/extra/widgets/list/lv_list.c ****     .base_class = &lv_obj_class,
  32:Drivers/lvgl/src/extra/widgets/list/lv_list.c ****     .width_def = (LV_DPI_DEF * 3) / 2,
  33:Drivers/lvgl/src/extra/widgets/list/lv_list.c ****     .height_def = LV_DPI_DEF * 2
  34:Drivers/lvgl/src/extra/widgets/list/lv_list.c **** };
  35:Drivers/lvgl/src/extra/widgets/list/lv_list.c **** 
  36:Drivers/lvgl/src/extra/widgets/list/lv_list.c **** const lv_obj_class_t lv_list_btn_class = {
  37:Drivers/lvgl/src/extra/widgets/list/lv_list.c ****     .base_class = &lv_btn_class,
  38:Drivers/lvgl/src/extra/widgets/list/lv_list.c **** };
  39:Drivers/lvgl/src/extra/widgets/list/lv_list.c **** 
  40:Drivers/lvgl/src/extra/widgets/list/lv_list.c **** const lv_obj_class_t lv_list_text_class = {
  41:Drivers/lvgl/src/extra/widgets/list/lv_list.c ****     .base_class = &lv_label_class,
  42:Drivers/lvgl/src/extra/widgets/list/lv_list.c **** };
  43:Drivers/lvgl/src/extra/widgets/list/lv_list.c **** 
  44:Drivers/lvgl/src/extra/widgets/list/lv_list.c **** /**********************
  45:Drivers/lvgl/src/extra/widgets/list/lv_list.c ****  *  STATIC VARIABLES
  46:Drivers/lvgl/src/extra/widgets/list/lv_list.c ****  **********************/
  47:Drivers/lvgl/src/extra/widgets/list/lv_list.c **** 
  48:Drivers/lvgl/src/extra/widgets/list/lv_list.c **** /**********************
  49:Drivers/lvgl/src/extra/widgets/list/lv_list.c ****  *      MACROS
  50:Drivers/lvgl/src/extra/widgets/list/lv_list.c ****  **********************/
  51:Drivers/lvgl/src/extra/widgets/list/lv_list.c **** 
  52:Drivers/lvgl/src/extra/widgets/list/lv_list.c **** /**********************
  53:Drivers/lvgl/src/extra/widgets/list/lv_list.c ****  *   GLOBAL FUNCTIONS
  54:Drivers/lvgl/src/extra/widgets/list/lv_list.c ****  **********************/
  55:Drivers/lvgl/src/extra/widgets/list/lv_list.c **** 
  56:Drivers/lvgl/src/extra/widgets/list/lv_list.c **** lv_obj_t * lv_list_create(lv_obj_t * parent)
  57:Drivers/lvgl/src/extra/widgets/list/lv_list.c **** {
  31              		.loc 1 57 1 view -0
  32              		.cfi_startproc
  33              		@ args = 0, pretend = 0, frame = 0
  34              		@ frame_needed = 0, uses_anonymous_args = 0
  58:Drivers/lvgl/src/extra/widgets/list/lv_list.c ****     LV_LOG_INFO("begin");
  35              		.loc 1 58 5 view .LVU1
  36              		.loc 1 58 5 view .LVU2
  37              		.loc 1 58 5 view .LVU3
  59:Drivers/lvgl/src/extra/widgets/list/lv_list.c ****     lv_obj_t * obj = lv_obj_class_create_obj(&lv_list_class, parent);
  38              		.loc 1 59 5 view .LVU4
  57:Drivers/lvgl/src/extra/widgets/list/lv_list.c ****     LV_LOG_INFO("begin");
  39              		.loc 1 57 1 is_stmt 0 view .LVU5
  40 0000 10B5     		push	{r4, lr}
  41              		.cfi_def_cfa_offset 8
  42              		.cfi_offset 4, -8
  43              		.cfi_offset 14, -4
  57:Drivers/lvgl/src/extra/widgets/list/lv_list.c ****     LV_LOG_INFO("begin");
  44              		.loc 1 57 1 view .LVU6
  45 0002 0146     		mov	r1, r0
  46              		.loc 1 59 22 view .LVU7
  47 0004 0548     		ldr	r0, .L4
  48              	.LVL1:
  49              		.loc 1 59 22 view .LVU8
  50 0006 FFF7FEFF 		bl	lv_obj_class_create_obj
  51              	.LVL2:
  52              		.loc 1 59 22 view .LVU9
  53 000a 0446     		mov	r4, r0
  54              	.LVL3:
ARM GAS  /var/folders/0z/tsy30v1j4xl4_7kw94k978ww0000gn/T//ccmglILZ.s 			page 3


  60:Drivers/lvgl/src/extra/widgets/list/lv_list.c ****     lv_obj_class_init_obj(obj);
  55              		.loc 1 60 5 is_stmt 1 view .LVU10
  56 000c FFF7FEFF 		bl	lv_obj_class_init_obj
  57              	.LVL4:
  61:Drivers/lvgl/src/extra/widgets/list/lv_list.c ****     lv_obj_set_flex_flow(obj, LV_FLEX_FLOW_COLUMN);
  58              		.loc 1 61 5 view .LVU11
  59 0010 2046     		mov	r0, r4
  60 0012 0121     		movs	r1, #1
  61 0014 FFF7FEFF 		bl	lv_obj_set_flex_flow
  62              	.LVL5:
  62:Drivers/lvgl/src/extra/widgets/list/lv_list.c ****     return obj;
  63              		.loc 1 62 5 view .LVU12
  63:Drivers/lvgl/src/extra/widgets/list/lv_list.c **** }
  64              		.loc 1 63 1 is_stmt 0 view .LVU13
  65 0018 2046     		mov	r0, r4
  66 001a 10BD     		pop	{r4, pc}
  67              	.LVL6:
  68              	.L5:
  69              		.loc 1 63 1 view .LVU14
  70              		.align	2
  71              	.L4:
  72 001c 00000000 		.word	.LANCHOR0
  73              		.cfi_endproc
  74              	.LFE172:
  76              		.section	.text.lv_list_add_text,"ax",%progbits
  77              		.align	1
  78              		.p2align 2,,3
  79              		.global	lv_list_add_text
  80              		.syntax unified
  81              		.thumb
  82              		.thumb_func
  84              	lv_list_add_text:
  85              	.LVL7:
  86              	.LFB173:
  64:Drivers/lvgl/src/extra/widgets/list/lv_list.c **** 
  65:Drivers/lvgl/src/extra/widgets/list/lv_list.c **** lv_obj_t * lv_list_add_text(lv_obj_t * list, const char * txt)
  66:Drivers/lvgl/src/extra/widgets/list/lv_list.c **** {
  87              		.loc 1 66 1 is_stmt 1 view -0
  88              		.cfi_startproc
  89              		@ args = 0, pretend = 0, frame = 0
  90              		@ frame_needed = 0, uses_anonymous_args = 0
  67:Drivers/lvgl/src/extra/widgets/list/lv_list.c ****     LV_LOG_INFO("begin");
  91              		.loc 1 67 5 view .LVU16
  92              		.loc 1 67 5 view .LVU17
  93              		.loc 1 67 5 view .LVU18
  68:Drivers/lvgl/src/extra/widgets/list/lv_list.c ****     lv_obj_t * obj = lv_obj_class_create_obj(&lv_list_text_class, list);
  94              		.loc 1 68 5 view .LVU19
  66:Drivers/lvgl/src/extra/widgets/list/lv_list.c ****     LV_LOG_INFO("begin");
  95              		.loc 1 66 1 is_stmt 0 view .LVU20
  96 0000 38B5     		push	{r3, r4, r5, lr}
  97              		.cfi_def_cfa_offset 16
  98              		.cfi_offset 3, -16
  99              		.cfi_offset 4, -12
 100              		.cfi_offset 5, -8
 101              		.cfi_offset 14, -4
  66:Drivers/lvgl/src/extra/widgets/list/lv_list.c ****     LV_LOG_INFO("begin");
 102              		.loc 1 66 1 view .LVU21
ARM GAS  /var/folders/0z/tsy30v1j4xl4_7kw94k978ww0000gn/T//ccmglILZ.s 			page 4


 103 0002 0346     		mov	r3, r0
 104 0004 0D46     		mov	r5, r1
 105              		.loc 1 68 22 view .LVU22
 106 0006 0B48     		ldr	r0, .L8
 107              	.LVL8:
 108              		.loc 1 68 22 view .LVU23
 109 0008 1946     		mov	r1, r3
 110              	.LVL9:
 111              		.loc 1 68 22 view .LVU24
 112 000a FFF7FEFF 		bl	lv_obj_class_create_obj
 113              	.LVL10:
 114              		.loc 1 68 22 view .LVU25
 115 000e 0446     		mov	r4, r0
 116              	.LVL11:
  69:Drivers/lvgl/src/extra/widgets/list/lv_list.c ****     lv_obj_class_init_obj(obj);
 117              		.loc 1 69 5 is_stmt 1 view .LVU26
 118 0010 FFF7FEFF 		bl	lv_obj_class_init_obj
 119              	.LVL12:
  70:Drivers/lvgl/src/extra/widgets/list/lv_list.c ****     lv_label_set_text(obj, txt);
 120              		.loc 1 70 5 view .LVU27
 121 0014 2946     		mov	r1, r5
 122 0016 2046     		mov	r0, r4
 123 0018 FFF7FEFF 		bl	lv_label_set_text
 124              	.LVL13:
  71:Drivers/lvgl/src/extra/widgets/list/lv_list.c ****     lv_label_set_long_mode(obj, LV_LABEL_LONG_SCROLL_CIRCULAR);
 125              		.loc 1 71 5 view .LVU28
 126 001c 2046     		mov	r0, r4
 127 001e 0321     		movs	r1, #3
 128 0020 FFF7FEFF 		bl	lv_label_set_long_mode
 129              	.LVL14:
  72:Drivers/lvgl/src/extra/widgets/list/lv_list.c ****     lv_obj_set_width(obj, LV_PCT(100));
 130              		.loc 1 72 5 view .LVU29
 131 0024 2046     		mov	r0, r4
 132 0026 42F26401 		movw	r1, #8292
 133 002a FFF7FEFF 		bl	lv_obj_set_width
 134              	.LVL15:
  73:Drivers/lvgl/src/extra/widgets/list/lv_list.c ****     return obj;
 135              		.loc 1 73 5 view .LVU30
  74:Drivers/lvgl/src/extra/widgets/list/lv_list.c **** }
 136              		.loc 1 74 1 is_stmt 0 view .LVU31
 137 002e 2046     		mov	r0, r4
 138 0030 38BD     		pop	{r3, r4, r5, pc}
 139              	.LVL16:
 140              	.L9:
 141              		.loc 1 74 1 view .LVU32
 142 0032 00BF     		.align	2
 143              	.L8:
 144 0034 00000000 		.word	.LANCHOR1
 145              		.cfi_endproc
 146              	.LFE173:
 148              		.section	.text.lv_list_add_btn,"ax",%progbits
 149              		.align	1
 150              		.p2align 2,,3
 151              		.global	lv_list_add_btn
 152              		.syntax unified
 153              		.thumb
 154              		.thumb_func
ARM GAS  /var/folders/0z/tsy30v1j4xl4_7kw94k978ww0000gn/T//ccmglILZ.s 			page 5


 156              	lv_list_add_btn:
 157              	.LVL17:
 158              	.LFB174:
  75:Drivers/lvgl/src/extra/widgets/list/lv_list.c **** 
  76:Drivers/lvgl/src/extra/widgets/list/lv_list.c **** lv_obj_t * lv_list_add_btn(lv_obj_t * list, const void * icon, const char * txt)
  77:Drivers/lvgl/src/extra/widgets/list/lv_list.c **** {
 159              		.loc 1 77 1 is_stmt 1 view -0
 160              		.cfi_startproc
 161              		@ args = 0, pretend = 0, frame = 0
 162              		@ frame_needed = 0, uses_anonymous_args = 0
  78:Drivers/lvgl/src/extra/widgets/list/lv_list.c ****     LV_LOG_INFO("begin");
 163              		.loc 1 78 5 view .LVU34
 164              		.loc 1 78 5 view .LVU35
 165              		.loc 1 78 5 view .LVU36
  79:Drivers/lvgl/src/extra/widgets/list/lv_list.c ****     lv_obj_t * obj = lv_obj_class_create_obj(&lv_list_btn_class, list);
 166              		.loc 1 79 5 view .LVU37
  77:Drivers/lvgl/src/extra/widgets/list/lv_list.c ****     LV_LOG_INFO("begin");
 167              		.loc 1 77 1 is_stmt 0 view .LVU38
 168 0000 0346     		mov	r3, r0
 169 0002 70B5     		push	{r4, r5, r6, lr}
 170              		.cfi_def_cfa_offset 16
 171              		.cfi_offset 4, -16
 172              		.cfi_offset 5, -12
 173              		.cfi_offset 6, -8
 174              		.cfi_offset 14, -4
 175              		.loc 1 79 22 view .LVU39
 176 0004 1648     		ldr	r0, .L20
 177              	.LVL18:
  77:Drivers/lvgl/src/extra/widgets/list/lv_list.c ****     LV_LOG_INFO("begin");
 178              		.loc 1 77 1 view .LVU40
 179 0006 0E46     		mov	r6, r1
 180              		.loc 1 79 22 view .LVU41
 181 0008 1946     		mov	r1, r3
 182              	.LVL19:
  77:Drivers/lvgl/src/extra/widgets/list/lv_list.c ****     LV_LOG_INFO("begin");
 183              		.loc 1 77 1 view .LVU42
 184 000a 1546     		mov	r5, r2
 185              		.loc 1 79 22 view .LVU43
 186 000c FFF7FEFF 		bl	lv_obj_class_create_obj
 187              	.LVL20:
 188              		.loc 1 79 22 view .LVU44
 189 0010 0446     		mov	r4, r0
 190              	.LVL21:
  80:Drivers/lvgl/src/extra/widgets/list/lv_list.c ****     lv_obj_class_init_obj(obj);
 191              		.loc 1 80 5 is_stmt 1 view .LVU45
 192 0012 FFF7FEFF 		bl	lv_obj_class_init_obj
 193              	.LVL22:
  81:Drivers/lvgl/src/extra/widgets/list/lv_list.c ****     lv_obj_set_size(obj, LV_PCT(100), LV_SIZE_CONTENT);
 194              		.loc 1 81 5 view .LVU46
 195 0016 42F26401 		movw	r1, #8292
 196 001a 2046     		mov	r0, r4
 197 001c 42F2D172 		movw	r2, #10193
 198 0020 FFF7FEFF 		bl	lv_obj_set_size
 199              	.LVL23:
  82:Drivers/lvgl/src/extra/widgets/list/lv_list.c ****     lv_obj_set_flex_flow(obj, LV_FLEX_FLOW_ROW);
 200              		.loc 1 82 5 view .LVU47
 201 0024 0021     		movs	r1, #0
ARM GAS  /var/folders/0z/tsy30v1j4xl4_7kw94k978ww0000gn/T//ccmglILZ.s 			page 6


 202 0026 2046     		mov	r0, r4
 203 0028 FFF7FEFF 		bl	lv_obj_set_flex_flow
 204              	.LVL24:
  83:Drivers/lvgl/src/extra/widgets/list/lv_list.c **** 
  84:Drivers/lvgl/src/extra/widgets/list/lv_list.c **** #if LV_USE_IMG == 1
  85:Drivers/lvgl/src/extra/widgets/list/lv_list.c ****     if(icon) {
 205              		.loc 1 85 5 view .LVU48
 206              		.loc 1 85 7 is_stmt 0 view .LVU49
 207 002c 2EB1     		cbz	r6, .L11
 208              	.LBB2:
  86:Drivers/lvgl/src/extra/widgets/list/lv_list.c ****         lv_obj_t * img = lv_img_create(obj);
 209              		.loc 1 86 9 is_stmt 1 view .LVU50
 210              		.loc 1 86 26 is_stmt 0 view .LVU51
 211 002e 2046     		mov	r0, r4
 212 0030 FFF7FEFF 		bl	lv_img_create
 213              	.LVL25:
  87:Drivers/lvgl/src/extra/widgets/list/lv_list.c ****         lv_img_set_src(img, icon);
 214              		.loc 1 87 9 is_stmt 1 view .LVU52
 215 0034 3146     		mov	r1, r6
 216 0036 FFF7FEFF 		bl	lv_img_set_src
 217              	.LVL26:
 218              	.L11:
 219              		.loc 1 87 9 is_stmt 0 view .LVU53
 220              	.LBE2:
  88:Drivers/lvgl/src/extra/widgets/list/lv_list.c ****     }
  89:Drivers/lvgl/src/extra/widgets/list/lv_list.c **** #endif
  90:Drivers/lvgl/src/extra/widgets/list/lv_list.c **** 
  91:Drivers/lvgl/src/extra/widgets/list/lv_list.c ****     if(txt) {
 221              		.loc 1 91 5 is_stmt 1 view .LVU54
 222              		.loc 1 91 7 is_stmt 0 view .LVU55
 223 003a 75B1     		cbz	r5, .L10
 224              	.LBB3:
  92:Drivers/lvgl/src/extra/widgets/list/lv_list.c ****         lv_obj_t * label = lv_label_create(obj);
 225              		.loc 1 92 9 is_stmt 1 view .LVU56
 226              		.loc 1 92 28 is_stmt 0 view .LVU57
 227 003c 2046     		mov	r0, r4
 228 003e FFF7FEFF 		bl	lv_label_create
 229              	.LVL27:
  93:Drivers/lvgl/src/extra/widgets/list/lv_list.c ****         lv_label_set_text(label, txt);
 230              		.loc 1 93 9 view .LVU58
 231 0042 2946     		mov	r1, r5
  92:Drivers/lvgl/src/extra/widgets/list/lv_list.c ****         lv_obj_t * label = lv_label_create(obj);
 232              		.loc 1 92 28 view .LVU59
 233 0044 0646     		mov	r6, r0
 234              	.LVL28:
 235              		.loc 1 93 9 is_stmt 1 view .LVU60
 236 0046 FFF7FEFF 		bl	lv_label_set_text
 237              	.LVL29:
  94:Drivers/lvgl/src/extra/widgets/list/lv_list.c ****         lv_label_set_long_mode(label, LV_LABEL_LONG_SCROLL_CIRCULAR);
 238              		.loc 1 94 9 view .LVU61
 239 004a 0321     		movs	r1, #3
 240 004c 3046     		mov	r0, r6
 241 004e FFF7FEFF 		bl	lv_label_set_long_mode
 242              	.LVL30:
  95:Drivers/lvgl/src/extra/widgets/list/lv_list.c ****         lv_obj_set_flex_grow(label, 1);
 243              		.loc 1 95 9 view .LVU62
 244 0052 0121     		movs	r1, #1
ARM GAS  /var/folders/0z/tsy30v1j4xl4_7kw94k978ww0000gn/T//ccmglILZ.s 			page 7


 245 0054 3046     		mov	r0, r6
 246 0056 FFF7FEFF 		bl	lv_obj_set_flex_grow
 247              	.LVL31:
 248              	.LBE3:
  96:Drivers/lvgl/src/extra/widgets/list/lv_list.c ****     }
  97:Drivers/lvgl/src/extra/widgets/list/lv_list.c **** 
  98:Drivers/lvgl/src/extra/widgets/list/lv_list.c ****     return obj;
 249              		.loc 1 98 5 view .LVU63
 250              	.L10:
  99:Drivers/lvgl/src/extra/widgets/list/lv_list.c **** }
 251              		.loc 1 99 1 is_stmt 0 view .LVU64
 252 005a 2046     		mov	r0, r4
 253 005c 70BD     		pop	{r4, r5, r6, pc}
 254              	.LVL32:
 255              	.L21:
 256              		.loc 1 99 1 view .LVU65
 257 005e 00BF     		.align	2
 258              	.L20:
 259 0060 00000000 		.word	.LANCHOR2
 260              		.cfi_endproc
 261              	.LFE174:
 263              		.section	.rodata.lv_list_get_btn_text.str1.4,"aMS",%progbits,1
 264              		.align	2
 265              	.LC0:
 266 0000 00       		.ascii	"\000"
 267              		.section	.text.lv_list_get_btn_text,"ax",%progbits
 268              		.align	1
 269              		.p2align 2,,3
 270              		.global	lv_list_get_btn_text
 271              		.syntax unified
 272              		.thumb
 273              		.thumb_func
 275              	lv_list_get_btn_text:
 276              	.LVL33:
 277              	.LFB175:
 100:Drivers/lvgl/src/extra/widgets/list/lv_list.c **** 
 101:Drivers/lvgl/src/extra/widgets/list/lv_list.c **** const char * lv_list_get_btn_text(lv_obj_t * list, lv_obj_t * btn)
 102:Drivers/lvgl/src/extra/widgets/list/lv_list.c **** {
 278              		.loc 1 102 1 is_stmt 1 view -0
 279              		.cfi_startproc
 280              		@ args = 0, pretend = 0, frame = 0
 281              		@ frame_needed = 0, uses_anonymous_args = 0
 103:Drivers/lvgl/src/extra/widgets/list/lv_list.c ****     LV_UNUSED(list);
 282              		.loc 1 103 5 view .LVU67
 104:Drivers/lvgl/src/extra/widgets/list/lv_list.c ****     uint32_t i;
 283              		.loc 1 104 5 view .LVU68
 105:Drivers/lvgl/src/extra/widgets/list/lv_list.c ****     for(i = 0; i < lv_obj_get_child_cnt(btn); i++) {
 284              		.loc 1 105 5 view .LVU69
 102:Drivers/lvgl/src/extra/widgets/list/lv_list.c ****     LV_UNUSED(list);
 285              		.loc 1 102 1 is_stmt 0 view .LVU70
 286 0000 F8B5     		push	{r3, r4, r5, r6, r7, lr}
 287              		.cfi_def_cfa_offset 24
 288              		.cfi_offset 3, -24
 289              		.cfi_offset 4, -20
 290              		.cfi_offset 5, -16
 291              		.cfi_offset 6, -12
 292              		.cfi_offset 7, -8
ARM GAS  /var/folders/0z/tsy30v1j4xl4_7kw94k978ww0000gn/T//ccmglILZ.s 			page 8


 293              		.cfi_offset 14, -4
 294              	.LBB4:
 106:Drivers/lvgl/src/extra/widgets/list/lv_list.c ****         lv_obj_t * child = lv_obj_get_child(btn, i);
 107:Drivers/lvgl/src/extra/widgets/list/lv_list.c ****         if(lv_obj_check_type(child, &lv_label_class)) {
 295              		.loc 1 107 12 view .LVU71
 296 0002 0D4F     		ldr	r7, .L28
 297              	.LBE4:
 102:Drivers/lvgl/src/extra/widgets/list/lv_list.c ****     LV_UNUSED(list);
 298              		.loc 1 102 1 view .LVU72
 299 0004 0E46     		mov	r6, r1
 105:Drivers/lvgl/src/extra/widgets/list/lv_list.c ****         lv_obj_t * child = lv_obj_get_child(btn, i);
 300              		.loc 1 105 11 view .LVU73
 301 0006 0024     		movs	r4, #0
 105:Drivers/lvgl/src/extra/widgets/list/lv_list.c ****         lv_obj_t * child = lv_obj_get_child(btn, i);
 302              		.loc 1 105 5 view .LVU74
 303 0008 07E0     		b	.L23
 304              	.LVL34:
 305              	.L25:
 306              	.LBB5:
 106:Drivers/lvgl/src/extra/widgets/list/lv_list.c ****         lv_obj_t * child = lv_obj_get_child(btn, i);
 307              		.loc 1 106 28 view .LVU75
 308 000a FFF7FEFF 		bl	lv_obj_get_child
 309              	.LVL35:
 310              		.loc 1 107 12 view .LVU76
 311 000e 3946     		mov	r1, r7
 106:Drivers/lvgl/src/extra/widgets/list/lv_list.c ****         lv_obj_t * child = lv_obj_get_child(btn, i);
 312              		.loc 1 106 28 view .LVU77
 313 0010 0546     		mov	r5, r0
 314              	.LVL36:
 315              		.loc 1 107 9 is_stmt 1 view .LVU78
 316              		.loc 1 107 12 is_stmt 0 view .LVU79
 317 0012 FFF7FEFF 		bl	lv_obj_check_type
 318              	.LVL37:
 319              		.loc 1 107 12 view .LVU80
 320              	.LBE5:
 105:Drivers/lvgl/src/extra/widgets/list/lv_list.c ****         lv_obj_t * child = lv_obj_get_child(btn, i);
 321              		.loc 1 105 48 is_stmt 1 view .LVU81
 322              	.LBB6:
 323              		.loc 1 107 11 is_stmt 0 view .LVU82
 324 0016 50B9     		cbnz	r0, .L27
 325              	.LBE6:
 105:Drivers/lvgl/src/extra/widgets/list/lv_list.c ****         lv_obj_t * child = lv_obj_get_child(btn, i);
 326              		.loc 1 105 48 discriminator 2 view .LVU83
 327 0018 0134     		adds	r4, r4, #1
 328              	.LVL38:
 329              	.L23:
 105:Drivers/lvgl/src/extra/widgets/list/lv_list.c ****         lv_obj_t * child = lv_obj_get_child(btn, i);
 330              		.loc 1 105 18 is_stmt 1 discriminator 1 view .LVU84
 105:Drivers/lvgl/src/extra/widgets/list/lv_list.c ****         lv_obj_t * child = lv_obj_get_child(btn, i);
 331              		.loc 1 105 20 is_stmt 0 discriminator 1 view .LVU85
 332 001a 3046     		mov	r0, r6
 333 001c FFF7FEFF 		bl	lv_obj_get_child_cnt
 334              	.LVL39:
 335              	.LBB7:
 106:Drivers/lvgl/src/extra/widgets/list/lv_list.c ****         lv_obj_t * child = lv_obj_get_child(btn, i);
 336              		.loc 1 106 9 is_stmt 1 discriminator 1 view .LVU86
 337              	.LBE7:
ARM GAS  /var/folders/0z/tsy30v1j4xl4_7kw94k978ww0000gn/T//ccmglILZ.s 			page 9


 105:Drivers/lvgl/src/extra/widgets/list/lv_list.c ****         lv_obj_t * child = lv_obj_get_child(btn, i);
 338              		.loc 1 105 20 is_stmt 0 discriminator 1 view .LVU87
 339 0020 0346     		mov	r3, r0
 105:Drivers/lvgl/src/extra/widgets/list/lv_list.c ****         lv_obj_t * child = lv_obj_get_child(btn, i);
 340              		.loc 1 105 18 discriminator 1 view .LVU88
 341 0022 A342     		cmp	r3, r4
 342              	.LBB8:
 106:Drivers/lvgl/src/extra/widgets/list/lv_list.c ****         lv_obj_t * child = lv_obj_get_child(btn, i);
 343              		.loc 1 106 28 discriminator 1 view .LVU89
 344 0024 2146     		mov	r1, r4
 345 0026 3046     		mov	r0, r6
 346              	.LBE8:
 105:Drivers/lvgl/src/extra/widgets/list/lv_list.c ****         lv_obj_t * child = lv_obj_get_child(btn, i);
 347              		.loc 1 105 18 discriminator 1 view .LVU90
 348 0028 EFD8     		bhi	.L25
 349              	.LVL40:
 108:Drivers/lvgl/src/extra/widgets/list/lv_list.c ****             return lv_label_get_text(child);
 109:Drivers/lvgl/src/extra/widgets/list/lv_list.c ****         }
 110:Drivers/lvgl/src/extra/widgets/list/lv_list.c **** 
 111:Drivers/lvgl/src/extra/widgets/list/lv_list.c ****     }
 112:Drivers/lvgl/src/extra/widgets/list/lv_list.c **** 
 113:Drivers/lvgl/src/extra/widgets/list/lv_list.c ****     return "";
 114:Drivers/lvgl/src/extra/widgets/list/lv_list.c **** }
 350              		.loc 1 114 1 view .LVU91
 351 002a 0448     		ldr	r0, .L28+4
 352              	.LVL41:
 353              		.loc 1 114 1 view .LVU92
 354 002c F8BD     		pop	{r3, r4, r5, r6, r7, pc}
 355              	.LVL42:
 356              	.L27:
 357              	.LBB9:
 108:Drivers/lvgl/src/extra/widgets/list/lv_list.c ****             return lv_label_get_text(child);
 358              		.loc 1 108 13 is_stmt 1 view .LVU93
 108:Drivers/lvgl/src/extra/widgets/list/lv_list.c ****             return lv_label_get_text(child);
 359              		.loc 1 108 20 is_stmt 0 view .LVU94
 360 002e 2846     		mov	r0, r5
 361              	.LBE9:
 362              		.loc 1 114 1 view .LVU95
 363 0030 BDE8F840 		pop	{r3, r4, r5, r6, r7, lr}
 364              		.cfi_restore 14
 365              		.cfi_restore 7
 366              		.cfi_restore 6
 367              		.cfi_restore 5
 368              		.cfi_restore 4
 369              		.cfi_restore 3
 370              		.cfi_def_cfa_offset 0
 371              	.LVL43:
 372              	.LBB10:
 108:Drivers/lvgl/src/extra/widgets/list/lv_list.c ****             return lv_label_get_text(child);
 373              		.loc 1 108 20 view .LVU96
 374 0034 FFF7FEBF 		b	lv_label_get_text
 375              	.LVL44:
 376              	.L29:
 108:Drivers/lvgl/src/extra/widgets/list/lv_list.c ****             return lv_label_get_text(child);
 377              		.loc 1 108 20 view .LVU97
 378              		.align	2
 379              	.L28:
ARM GAS  /var/folders/0z/tsy30v1j4xl4_7kw94k978ww0000gn/T//ccmglILZ.s 			page 10


 380 0038 00000000 		.word	lv_label_class
 381 003c 00000000 		.word	.LC0
 382              	.LBE10:
 383              		.cfi_endproc
 384              	.LFE175:
 386              		.global	lv_list_text_class
 387              		.global	lv_list_btn_class
 388              		.global	lv_list_class
 389              		.section	.rodata.lv_list_btn_class,"a"
 390              		.align	2
 391              		.set	.LANCHOR2,. + 0
 394              	lv_list_btn_class:
 395 0000 00000000 		.word	lv_btn_class
 396 0004 00000000 		.space	24
 396      00000000 
 396      00000000 
 396      00000000 
 396      00000000 
 397              		.section	.rodata.lv_list_class,"a"
 398              		.align	2
 399              		.set	.LANCHOR0,. + 0
 402              	lv_list_class:
 403 0000 00000000 		.word	lv_obj_class
 404 0004 00000000 		.space	16
 404      00000000 
 404      00000000 
 404      00000000 
 405 0014 C300     		.short	195
 406 0016 0401     		.short	260
 407 0018 00000000 		.space	4
 408              		.section	.rodata.lv_list_text_class,"a"
 409              		.align	2
 410              		.set	.LANCHOR1,. + 0
 413              	lv_list_text_class:
 414 0000 00000000 		.word	lv_label_class
 415 0004 00000000 		.space	24
 415      00000000 
 415      00000000 
 415      00000000 
 415      00000000 
 416              		.text
 417              	.Letext0:
 418              		.file 2 "/Users/johannes/Library/Application Support/Code/User/globalStorage/bmd.stm32-for-vscode/
 419              		.file 3 "/Users/johannes/Library/Application Support/Code/User/globalStorage/bmd.stm32-for-vscode/
 420              		.file 4 "Drivers/lvgl/src/extra/widgets/list/../../../core/../misc/../font/../misc/lv_area.h"
 421              		.file 5 "Drivers/lvgl/src/extra/widgets/list/../../../core/../misc/lv_color.h"
 422              		.file 6 "Drivers/lvgl/src/extra/widgets/list/../../../core/../misc/lv_style.h"
 423              		.file 7 "Drivers/lvgl/src/extra/widgets/list/../../../core/lv_obj.h"
 424              		.file 8 "Drivers/lvgl/src/extra/widgets/list/../../../core/../hal/../misc/lv_ll.h"
 425              		.file 9 "Drivers/lvgl/src/extra/widgets/list/../../../core/lv_group.h"
 426              		.file 10 "Drivers/lvgl/src/extra/widgets/list/../../../core/lv_obj_scroll.h"
 427              		.file 11 "Drivers/lvgl/src/extra/widgets/list/../../../core/lv_obj_style.h"
 428              		.file 12 "Drivers/lvgl/src/extra/widgets/list/../../../core/lv_obj_class.h"
 429              		.file 13 "Drivers/lvgl/src/extra/widgets/list/../../../core/lv_event.h"
 430              		.file 14 "Drivers/lvgl/src/extra/widgets/list/../../layouts/flex/lv_flex.h"
 431              		.file 15 "Drivers/lvgl/src/extra/widgets/list/lv_list.h"
 432              		.file 16 "Drivers/lvgl/src/extra/widgets/list/../../../widgets/lv_label.h"
ARM GAS  /var/folders/0z/tsy30v1j4xl4_7kw94k978ww0000gn/T//ccmglILZ.s 			page 11


 433              		.file 17 "Drivers/lvgl/src/extra/widgets/list/../../../widgets/lv_btn.h"
 434              		.file 18 "Drivers/lvgl/src/extra/widgets/list/../../../core/lv_obj_tree.h"
 435              		.file 19 "Drivers/lvgl/src/extra/widgets/list/../../../widgets/lv_img.h"
 436              		.file 20 "Drivers/lvgl/src/extra/widgets/list/../../../core/../hal/../draw/sw/../../core/lv_obj_po
ARM GAS  /var/folders/0z/tsy30v1j4xl4_7kw94k978ww0000gn/T//ccmglILZ.s 			page 12


DEFINED SYMBOLS
                            *ABS*:0000000000000000 lv_list.c
/var/folders/0z/tsy30v1j4xl4_7kw94k978ww0000gn/T//ccmglILZ.s:20     .text.lv_list_create:0000000000000000 $t
/var/folders/0z/tsy30v1j4xl4_7kw94k978ww0000gn/T//ccmglILZ.s:27     .text.lv_list_create:0000000000000000 lv_list_create
/var/folders/0z/tsy30v1j4xl4_7kw94k978ww0000gn/T//ccmglILZ.s:72     .text.lv_list_create:000000000000001c $d
/var/folders/0z/tsy30v1j4xl4_7kw94k978ww0000gn/T//ccmglILZ.s:77     .text.lv_list_add_text:0000000000000000 $t
/var/folders/0z/tsy30v1j4xl4_7kw94k978ww0000gn/T//ccmglILZ.s:84     .text.lv_list_add_text:0000000000000000 lv_list_add_text
/var/folders/0z/tsy30v1j4xl4_7kw94k978ww0000gn/T//ccmglILZ.s:144    .text.lv_list_add_text:0000000000000034 $d
/var/folders/0z/tsy30v1j4xl4_7kw94k978ww0000gn/T//ccmglILZ.s:149    .text.lv_list_add_btn:0000000000000000 $t
/var/folders/0z/tsy30v1j4xl4_7kw94k978ww0000gn/T//ccmglILZ.s:156    .text.lv_list_add_btn:0000000000000000 lv_list_add_btn
/var/folders/0z/tsy30v1j4xl4_7kw94k978ww0000gn/T//ccmglILZ.s:259    .text.lv_list_add_btn:0000000000000060 $d
/var/folders/0z/tsy30v1j4xl4_7kw94k978ww0000gn/T//ccmglILZ.s:264    .rodata.lv_list_get_btn_text.str1.4:0000000000000000 $d
/var/folders/0z/tsy30v1j4xl4_7kw94k978ww0000gn/T//ccmglILZ.s:268    .text.lv_list_get_btn_text:0000000000000000 $t
/var/folders/0z/tsy30v1j4xl4_7kw94k978ww0000gn/T//ccmglILZ.s:275    .text.lv_list_get_btn_text:0000000000000000 lv_list_get_btn_text
/var/folders/0z/tsy30v1j4xl4_7kw94k978ww0000gn/T//ccmglILZ.s:380    .text.lv_list_get_btn_text:0000000000000038 $d
/var/folders/0z/tsy30v1j4xl4_7kw94k978ww0000gn/T//ccmglILZ.s:413    .rodata.lv_list_text_class:0000000000000000 lv_list_text_class
/var/folders/0z/tsy30v1j4xl4_7kw94k978ww0000gn/T//ccmglILZ.s:394    .rodata.lv_list_btn_class:0000000000000000 lv_list_btn_class
/var/folders/0z/tsy30v1j4xl4_7kw94k978ww0000gn/T//ccmglILZ.s:402    .rodata.lv_list_class:0000000000000000 lv_list_class
/var/folders/0z/tsy30v1j4xl4_7kw94k978ww0000gn/T//ccmglILZ.s:390    .rodata.lv_list_btn_class:0000000000000000 $d
/var/folders/0z/tsy30v1j4xl4_7kw94k978ww0000gn/T//ccmglILZ.s:398    .rodata.lv_list_class:0000000000000000 $d
/var/folders/0z/tsy30v1j4xl4_7kw94k978ww0000gn/T//ccmglILZ.s:409    .rodata.lv_list_text_class:0000000000000000 $d

UNDEFINED SYMBOLS
lv_obj_class_create_obj
lv_obj_class_init_obj
lv_obj_set_flex_flow
lv_label_set_text
lv_label_set_long_mode
lv_obj_set_width
lv_obj_set_size
lv_img_create
lv_img_set_src
lv_label_create
lv_obj_set_flex_grow
lv_obj_get_child
lv_obj_check_type
lv_obj_get_child_cnt
lv_label_get_text
lv_label_class
lv_btn_class
lv_obj_class
