ARM GAS  /var/folders/0z/tsy30v1j4xl4_7kw94k978ww0000gn/T//ccARu2Hd.s 			page 1


   1              		.cpu cortex-m4
   2              		.arch armv7e-m
   3              		.fpu fpv4-sp-d16
   4              		.eabi_attribute 27, 1
   5              		.eabi_attribute 28, 1
   6              		.eabi_attribute 20, 1
   7              		.eabi_attribute 21, 1
   8              		.eabi_attribute 23, 3
   9              		.eabi_attribute 24, 1
  10              		.eabi_attribute 25, 1
  11              		.eabi_attribute 26, 1
  12              		.eabi_attribute 30, 2
  13              		.eabi_attribute 34, 1
  14              		.eabi_attribute 18, 4
  15              		.file	"lv_line.c"
  16              		.text
  17              	.Ltext0:
  18              		.cfi_sections	.debug_frame
  19              		.section	.text.lv_line_constructor,"ax",%progbits
  20              		.align	1
  21              		.p2align 2,,3
  22              		.syntax unified
  23              		.thumb
  24              		.thumb_func
  26              	lv_line_constructor:
  27              	.LVL0:
  28              	.LFB165:
  29              		.file 1 "Drivers/lvgl/src/widgets/lv_line.c"
   1:Drivers/lvgl/src/widgets/lv_line.c **** /**
   2:Drivers/lvgl/src/widgets/lv_line.c ****  * @file lv_line.c
   3:Drivers/lvgl/src/widgets/lv_line.c ****  *
   4:Drivers/lvgl/src/widgets/lv_line.c ****  */
   5:Drivers/lvgl/src/widgets/lv_line.c **** 
   6:Drivers/lvgl/src/widgets/lv_line.c **** /*********************
   7:Drivers/lvgl/src/widgets/lv_line.c ****  *      INCLUDES
   8:Drivers/lvgl/src/widgets/lv_line.c ****  *********************/
   9:Drivers/lvgl/src/widgets/lv_line.c **** #include "lv_line.h"
  10:Drivers/lvgl/src/widgets/lv_line.c **** 
  11:Drivers/lvgl/src/widgets/lv_line.c **** #if LV_USE_LINE != 0
  12:Drivers/lvgl/src/widgets/lv_line.c **** #include "../misc/lv_assert.h"
  13:Drivers/lvgl/src/widgets/lv_line.c **** #include "../draw/lv_draw.h"
  14:Drivers/lvgl/src/widgets/lv_line.c **** #include "../misc/lv_math.h"
  15:Drivers/lvgl/src/widgets/lv_line.c **** #include <stdbool.h>
  16:Drivers/lvgl/src/widgets/lv_line.c **** #include <stdint.h>
  17:Drivers/lvgl/src/widgets/lv_line.c **** #include <string.h>
  18:Drivers/lvgl/src/widgets/lv_line.c **** 
  19:Drivers/lvgl/src/widgets/lv_line.c **** /*********************
  20:Drivers/lvgl/src/widgets/lv_line.c ****  *      DEFINES
  21:Drivers/lvgl/src/widgets/lv_line.c ****  *********************/
  22:Drivers/lvgl/src/widgets/lv_line.c **** #define MY_CLASS &lv_line_class
  23:Drivers/lvgl/src/widgets/lv_line.c **** 
  24:Drivers/lvgl/src/widgets/lv_line.c **** /**********************
  25:Drivers/lvgl/src/widgets/lv_line.c ****  *      TYPEDEFS
  26:Drivers/lvgl/src/widgets/lv_line.c ****  **********************/
  27:Drivers/lvgl/src/widgets/lv_line.c **** 
  28:Drivers/lvgl/src/widgets/lv_line.c **** /**********************
  29:Drivers/lvgl/src/widgets/lv_line.c ****  *  STATIC PROTOTYPES
ARM GAS  /var/folders/0z/tsy30v1j4xl4_7kw94k978ww0000gn/T//ccARu2Hd.s 			page 2


  30:Drivers/lvgl/src/widgets/lv_line.c ****  **********************/
  31:Drivers/lvgl/src/widgets/lv_line.c **** static void lv_line_constructor(const lv_obj_class_t * class_p, lv_obj_t * obj);
  32:Drivers/lvgl/src/widgets/lv_line.c **** static void lv_line_event(const lv_obj_class_t * class_p, lv_event_t * e);
  33:Drivers/lvgl/src/widgets/lv_line.c **** 
  34:Drivers/lvgl/src/widgets/lv_line.c **** /**********************
  35:Drivers/lvgl/src/widgets/lv_line.c ****  *  STATIC VARIABLES
  36:Drivers/lvgl/src/widgets/lv_line.c ****  **********************/
  37:Drivers/lvgl/src/widgets/lv_line.c **** const lv_obj_class_t lv_line_class = {
  38:Drivers/lvgl/src/widgets/lv_line.c ****     .constructor_cb = lv_line_constructor,
  39:Drivers/lvgl/src/widgets/lv_line.c ****     .event_cb = lv_line_event,
  40:Drivers/lvgl/src/widgets/lv_line.c ****     .width_def = LV_SIZE_CONTENT,
  41:Drivers/lvgl/src/widgets/lv_line.c ****     .height_def = LV_SIZE_CONTENT,
  42:Drivers/lvgl/src/widgets/lv_line.c ****     .instance_size = sizeof(lv_line_t),
  43:Drivers/lvgl/src/widgets/lv_line.c ****     .base_class = &lv_obj_class
  44:Drivers/lvgl/src/widgets/lv_line.c **** };
  45:Drivers/lvgl/src/widgets/lv_line.c **** 
  46:Drivers/lvgl/src/widgets/lv_line.c **** /**********************
  47:Drivers/lvgl/src/widgets/lv_line.c ****  *      MACROS
  48:Drivers/lvgl/src/widgets/lv_line.c ****  **********************/
  49:Drivers/lvgl/src/widgets/lv_line.c **** 
  50:Drivers/lvgl/src/widgets/lv_line.c **** /**********************
  51:Drivers/lvgl/src/widgets/lv_line.c ****  *   GLOBAL FUNCTIONS
  52:Drivers/lvgl/src/widgets/lv_line.c ****  **********************/
  53:Drivers/lvgl/src/widgets/lv_line.c **** 
  54:Drivers/lvgl/src/widgets/lv_line.c **** lv_obj_t * lv_line_create(lv_obj_t * parent)
  55:Drivers/lvgl/src/widgets/lv_line.c **** {
  56:Drivers/lvgl/src/widgets/lv_line.c ****     LV_LOG_INFO("begin");
  57:Drivers/lvgl/src/widgets/lv_line.c ****     lv_obj_t * obj = lv_obj_class_create_obj(MY_CLASS, parent);
  58:Drivers/lvgl/src/widgets/lv_line.c ****     lv_obj_class_init_obj(obj);
  59:Drivers/lvgl/src/widgets/lv_line.c ****     return obj;
  60:Drivers/lvgl/src/widgets/lv_line.c **** }
  61:Drivers/lvgl/src/widgets/lv_line.c **** 
  62:Drivers/lvgl/src/widgets/lv_line.c **** /*=====================
  63:Drivers/lvgl/src/widgets/lv_line.c ****  * Setter functions
  64:Drivers/lvgl/src/widgets/lv_line.c ****  *====================*/
  65:Drivers/lvgl/src/widgets/lv_line.c **** 
  66:Drivers/lvgl/src/widgets/lv_line.c **** void lv_line_set_points(lv_obj_t * obj, const lv_point_t points[], uint16_t point_num)
  67:Drivers/lvgl/src/widgets/lv_line.c **** {
  68:Drivers/lvgl/src/widgets/lv_line.c ****     LV_ASSERT_OBJ(obj, MY_CLASS);
  69:Drivers/lvgl/src/widgets/lv_line.c **** 
  70:Drivers/lvgl/src/widgets/lv_line.c ****     lv_line_t * line = (lv_line_t *)obj;
  71:Drivers/lvgl/src/widgets/lv_line.c ****     line->point_array    = points;
  72:Drivers/lvgl/src/widgets/lv_line.c ****     line->point_num      = point_num;
  73:Drivers/lvgl/src/widgets/lv_line.c **** 
  74:Drivers/lvgl/src/widgets/lv_line.c ****     lv_obj_refresh_self_size(obj);
  75:Drivers/lvgl/src/widgets/lv_line.c **** 
  76:Drivers/lvgl/src/widgets/lv_line.c ****     lv_obj_invalidate(obj);
  77:Drivers/lvgl/src/widgets/lv_line.c **** }
  78:Drivers/lvgl/src/widgets/lv_line.c **** 
  79:Drivers/lvgl/src/widgets/lv_line.c **** void lv_line_set_y_invert(lv_obj_t * obj, bool en)
  80:Drivers/lvgl/src/widgets/lv_line.c **** {
  81:Drivers/lvgl/src/widgets/lv_line.c ****     LV_ASSERT_OBJ(obj, MY_CLASS);
  82:Drivers/lvgl/src/widgets/lv_line.c **** 
  83:Drivers/lvgl/src/widgets/lv_line.c ****     lv_line_t * line = (lv_line_t *)obj;
  84:Drivers/lvgl/src/widgets/lv_line.c ****     if(line->y_inv == en) return;
  85:Drivers/lvgl/src/widgets/lv_line.c **** 
  86:Drivers/lvgl/src/widgets/lv_line.c ****     line->y_inv = en ? 1U : 0U;
ARM GAS  /var/folders/0z/tsy30v1j4xl4_7kw94k978ww0000gn/T//ccARu2Hd.s 			page 3


  87:Drivers/lvgl/src/widgets/lv_line.c **** 
  88:Drivers/lvgl/src/widgets/lv_line.c ****     lv_obj_invalidate(obj);
  89:Drivers/lvgl/src/widgets/lv_line.c **** }
  90:Drivers/lvgl/src/widgets/lv_line.c **** 
  91:Drivers/lvgl/src/widgets/lv_line.c **** /*=====================
  92:Drivers/lvgl/src/widgets/lv_line.c ****  * Getter functions
  93:Drivers/lvgl/src/widgets/lv_line.c ****  *====================*/
  94:Drivers/lvgl/src/widgets/lv_line.c **** 
  95:Drivers/lvgl/src/widgets/lv_line.c **** bool lv_line_get_y_invert(const lv_obj_t * obj)
  96:Drivers/lvgl/src/widgets/lv_line.c **** {
  97:Drivers/lvgl/src/widgets/lv_line.c ****     LV_ASSERT_OBJ(obj, MY_CLASS);
  98:Drivers/lvgl/src/widgets/lv_line.c **** 
  99:Drivers/lvgl/src/widgets/lv_line.c ****     lv_line_t * line = (lv_line_t *)obj;
 100:Drivers/lvgl/src/widgets/lv_line.c **** 
 101:Drivers/lvgl/src/widgets/lv_line.c ****     return line->y_inv == 1U;
 102:Drivers/lvgl/src/widgets/lv_line.c **** }
 103:Drivers/lvgl/src/widgets/lv_line.c **** 
 104:Drivers/lvgl/src/widgets/lv_line.c **** /**********************
 105:Drivers/lvgl/src/widgets/lv_line.c ****  *   STATIC FUNCTIONS
 106:Drivers/lvgl/src/widgets/lv_line.c ****  **********************/
 107:Drivers/lvgl/src/widgets/lv_line.c **** 
 108:Drivers/lvgl/src/widgets/lv_line.c **** static void lv_line_constructor(const lv_obj_class_t * class_p, lv_obj_t * obj)
 109:Drivers/lvgl/src/widgets/lv_line.c **** {
  30              		.loc 1 109 1 view -0
  31              		.cfi_startproc
  32              		@ args = 0, pretend = 0, frame = 0
  33              		@ frame_needed = 0, uses_anonymous_args = 0
  34              		@ link register save eliminated.
 110:Drivers/lvgl/src/widgets/lv_line.c ****     LV_UNUSED(class_p);
  35              		.loc 1 110 5 view .LVU1
 111:Drivers/lvgl/src/widgets/lv_line.c ****     LV_TRACE_OBJ_CREATE("begin");
  36              		.loc 1 111 33 view .LVU2
 112:Drivers/lvgl/src/widgets/lv_line.c **** 
 113:Drivers/lvgl/src/widgets/lv_line.c ****     lv_line_t * line = (lv_line_t *)obj;
  37              		.loc 1 113 5 view .LVU3
 114:Drivers/lvgl/src/widgets/lv_line.c **** 
 115:Drivers/lvgl/src/widgets/lv_line.c ****     line->point_num   = 0;
 116:Drivers/lvgl/src/widgets/lv_line.c ****     line->point_array = NULL;
 117:Drivers/lvgl/src/widgets/lv_line.c ****     line->y_inv       = 0;
  38              		.loc 1 117 23 is_stmt 0 view .LVU4
  39 0000 91F82A20 		ldrb	r2, [r1, #42]	@ zero_extendqisi2
 115:Drivers/lvgl/src/widgets/lv_line.c ****     line->point_array = NULL;
  40              		.loc 1 115 23 view .LVU5
  41 0004 0023     		movs	r3, #0
  42              		.loc 1 117 23 view .LVU6
  43 0006 63F30002 		bfi	r2, r3, #0, #1
 109:Drivers/lvgl/src/widgets/lv_line.c ****     LV_UNUSED(class_p);
  44              		.loc 1 109 1 view .LVU7
  45 000a 0846     		mov	r0, r1
  46              	.LVL1:
 115:Drivers/lvgl/src/widgets/lv_line.c ****     line->point_array = NULL;
  47              		.loc 1 115 5 is_stmt 1 view .LVU8
 115:Drivers/lvgl/src/widgets/lv_line.c ****     line->point_array = NULL;
  48              		.loc 1 115 23 is_stmt 0 view .LVU9
  49 000c 0B85     		strh	r3, [r1, #40]	@ movhi
 116:Drivers/lvgl/src/widgets/lv_line.c ****     line->y_inv       = 0;
  50              		.loc 1 116 5 is_stmt 1 view .LVU10
ARM GAS  /var/folders/0z/tsy30v1j4xl4_7kw94k978ww0000gn/T//ccARu2Hd.s 			page 4


 116:Drivers/lvgl/src/widgets/lv_line.c ****     line->y_inv       = 0;
  51              		.loc 1 116 23 is_stmt 0 view .LVU11
  52 000e 4B62     		str	r3, [r1, #36]
  53              		.loc 1 117 5 is_stmt 1 view .LVU12
  54              		.loc 1 117 23 is_stmt 0 view .LVU13
  55 0010 81F82A20 		strb	r2, [r1, #42]
 118:Drivers/lvgl/src/widgets/lv_line.c **** 
 119:Drivers/lvgl/src/widgets/lv_line.c ****     lv_obj_clear_flag(obj, LV_OBJ_FLAG_CLICKABLE);
  56              		.loc 1 119 5 is_stmt 1 view .LVU14
  57 0014 0221     		movs	r1, #2
  58              	.LVL2:
  59              		.loc 1 119 5 is_stmt 0 view .LVU15
  60 0016 FFF7FEBF 		b	lv_obj_clear_flag
  61              	.LVL3:
  62              		.loc 1 119 5 view .LVU16
  63              		.cfi_endproc
  64              	.LFE165:
  66 001a 00BF     		.section	.text.lv_line_event,"ax",%progbits
  67              		.align	1
  68              		.p2align 2,,3
  69              		.syntax unified
  70              		.thumb
  71              		.thumb_func
  73              	lv_line_event:
  74              	.LVL4:
  75              	.LFB166:
 120:Drivers/lvgl/src/widgets/lv_line.c **** 
 121:Drivers/lvgl/src/widgets/lv_line.c ****     LV_TRACE_OBJ_CREATE("finished");
 122:Drivers/lvgl/src/widgets/lv_line.c **** }
 123:Drivers/lvgl/src/widgets/lv_line.c **** 
 124:Drivers/lvgl/src/widgets/lv_line.c **** static void lv_line_event(const lv_obj_class_t * class_p, lv_event_t * e)
 125:Drivers/lvgl/src/widgets/lv_line.c **** {
  76              		.loc 1 125 1 is_stmt 1 view -0
  77              		.cfi_startproc
  78              		@ args = 0, pretend = 0, frame = 32
  79              		@ frame_needed = 0, uses_anonymous_args = 0
 126:Drivers/lvgl/src/widgets/lv_line.c ****     LV_UNUSED(class_p);
  80              		.loc 1 126 5 view .LVU18
 127:Drivers/lvgl/src/widgets/lv_line.c **** 
 128:Drivers/lvgl/src/widgets/lv_line.c ****     lv_res_t res;
  81              		.loc 1 128 5 view .LVU19
 129:Drivers/lvgl/src/widgets/lv_line.c **** 
 130:Drivers/lvgl/src/widgets/lv_line.c ****     /*Call the ancestor's event handler*/
 131:Drivers/lvgl/src/widgets/lv_line.c ****     res = lv_obj_event_base(MY_CLASS, e);
  82              		.loc 1 131 5 view .LVU20
 125:Drivers/lvgl/src/widgets/lv_line.c ****     LV_UNUSED(class_p);
  83              		.loc 1 125 1 is_stmt 0 view .LVU21
  84 0000 2DE9F04F 		push	{r4, r5, r6, r7, r8, r9, r10, fp, lr}
  85              		.cfi_def_cfa_offset 36
  86              		.cfi_offset 4, -36
  87              		.cfi_offset 5, -32
  88              		.cfi_offset 6, -28
  89              		.cfi_offset 7, -24
  90              		.cfi_offset 8, -20
  91              		.cfi_offset 9, -16
  92              		.cfi_offset 10, -12
  93              		.cfi_offset 11, -8
ARM GAS  /var/folders/0z/tsy30v1j4xl4_7kw94k978ww0000gn/T//ccARu2Hd.s 			page 5


  94              		.cfi_offset 14, -4
  95              		.loc 1 131 11 view .LVU22
  96 0004 6F48     		ldr	r0, .L33
  97              	.LVL5:
 125:Drivers/lvgl/src/widgets/lv_line.c ****     LV_UNUSED(class_p);
  98              		.loc 1 125 1 view .LVU23
  99 0006 89B0     		sub	sp, sp, #36
 100              		.cfi_def_cfa_offset 72
 125:Drivers/lvgl/src/widgets/lv_line.c ****     LV_UNUSED(class_p);
 101              		.loc 1 125 1 view .LVU24
 102 0008 0C46     		mov	r4, r1
 103              		.loc 1 131 11 view .LVU25
 104 000a FFF7FEFF 		bl	lv_obj_event_base
 105              	.LVL6:
 132:Drivers/lvgl/src/widgets/lv_line.c ****     if(res != LV_RES_OK) return;
 106              		.loc 1 132 5 is_stmt 1 view .LVU26
 107              		.loc 1 132 7 is_stmt 0 view .LVU27
 108 000e 0128     		cmp	r0, #1
 109 0010 02D0     		beq	.L29
 110              	.LVL7:
 111              	.L3:
 133:Drivers/lvgl/src/widgets/lv_line.c **** 
 134:Drivers/lvgl/src/widgets/lv_line.c ****     lv_event_code_t code = lv_event_get_code(e);
 135:Drivers/lvgl/src/widgets/lv_line.c ****     lv_obj_t * obj = lv_event_get_target(e);
 136:Drivers/lvgl/src/widgets/lv_line.c **** 
 137:Drivers/lvgl/src/widgets/lv_line.c ****     if(code == LV_EVENT_REFR_EXT_DRAW_SIZE) {
 138:Drivers/lvgl/src/widgets/lv_line.c ****         /*The corner of the skew lines is out of the intended area*/
 139:Drivers/lvgl/src/widgets/lv_line.c ****         lv_coord_t line_width = lv_obj_get_style_line_width(obj, LV_PART_MAIN);
 140:Drivers/lvgl/src/widgets/lv_line.c ****         lv_coord_t * s = lv_event_get_param(e);
 141:Drivers/lvgl/src/widgets/lv_line.c ****         if(*s < line_width) *s = line_width;
 142:Drivers/lvgl/src/widgets/lv_line.c ****     }
 143:Drivers/lvgl/src/widgets/lv_line.c ****     else if(code == LV_EVENT_GET_SELF_SIZE) {
 144:Drivers/lvgl/src/widgets/lv_line.c ****         lv_line_t * line = (lv_line_t *)obj;
 145:Drivers/lvgl/src/widgets/lv_line.c **** 
 146:Drivers/lvgl/src/widgets/lv_line.c ****         if(line->point_num == 0 || line->point_array == NULL) return;
 147:Drivers/lvgl/src/widgets/lv_line.c **** 
 148:Drivers/lvgl/src/widgets/lv_line.c ****         lv_point_t * p = lv_event_get_param(e);
 149:Drivers/lvgl/src/widgets/lv_line.c ****         lv_coord_t w = 0;
 150:Drivers/lvgl/src/widgets/lv_line.c ****         lv_coord_t h = 0;
 151:Drivers/lvgl/src/widgets/lv_line.c **** 
 152:Drivers/lvgl/src/widgets/lv_line.c ****         uint16_t i;
 153:Drivers/lvgl/src/widgets/lv_line.c ****         for(i = 0; i < line->point_num; i++) {
 154:Drivers/lvgl/src/widgets/lv_line.c ****             w = LV_MAX(line->point_array[i].x, w);
 155:Drivers/lvgl/src/widgets/lv_line.c ****             h = LV_MAX(line->point_array[i].y, h);
 156:Drivers/lvgl/src/widgets/lv_line.c ****         }
 157:Drivers/lvgl/src/widgets/lv_line.c **** 
 158:Drivers/lvgl/src/widgets/lv_line.c ****         lv_coord_t line_width = lv_obj_get_style_line_width(obj, LV_PART_MAIN);
 159:Drivers/lvgl/src/widgets/lv_line.c ****         w += line_width;
 160:Drivers/lvgl/src/widgets/lv_line.c ****         h += line_width;
 161:Drivers/lvgl/src/widgets/lv_line.c ****         p->x = w;
 162:Drivers/lvgl/src/widgets/lv_line.c ****         p->y = h;
 163:Drivers/lvgl/src/widgets/lv_line.c ****     }
 164:Drivers/lvgl/src/widgets/lv_line.c ****     else if(code == LV_EVENT_DRAW_MAIN) {
 165:Drivers/lvgl/src/widgets/lv_line.c ****         lv_line_t * line = (lv_line_t *)obj;
 166:Drivers/lvgl/src/widgets/lv_line.c ****         lv_draw_ctx_t * draw_ctx = lv_event_get_draw_ctx(e);
 167:Drivers/lvgl/src/widgets/lv_line.c **** 
 168:Drivers/lvgl/src/widgets/lv_line.c ****         if(line->point_num == 0 || line->point_array == NULL) return;
ARM GAS  /var/folders/0z/tsy30v1j4xl4_7kw94k978ww0000gn/T//ccARu2Hd.s 			page 6


 169:Drivers/lvgl/src/widgets/lv_line.c **** 
 170:Drivers/lvgl/src/widgets/lv_line.c ****         lv_area_t area;
 171:Drivers/lvgl/src/widgets/lv_line.c ****         lv_obj_get_coords(obj, &area);
 172:Drivers/lvgl/src/widgets/lv_line.c ****         lv_coord_t x_ofs = area.x1 - lv_obj_get_scroll_x(obj);
 173:Drivers/lvgl/src/widgets/lv_line.c ****         lv_coord_t y_ofs = area.y1 - lv_obj_get_scroll_y(obj);
 174:Drivers/lvgl/src/widgets/lv_line.c ****         lv_coord_t h = lv_obj_get_height(obj);
 175:Drivers/lvgl/src/widgets/lv_line.c **** 
 176:Drivers/lvgl/src/widgets/lv_line.c ****         lv_draw_line_dsc_t line_dsc;
 177:Drivers/lvgl/src/widgets/lv_line.c ****         lv_draw_line_dsc_init(&line_dsc);
 178:Drivers/lvgl/src/widgets/lv_line.c ****         lv_obj_init_draw_line_dsc(obj, LV_PART_MAIN, &line_dsc);
 179:Drivers/lvgl/src/widgets/lv_line.c **** 
 180:Drivers/lvgl/src/widgets/lv_line.c ****         /*Read all points and draw the lines*/
 181:Drivers/lvgl/src/widgets/lv_line.c ****         uint16_t i;
 182:Drivers/lvgl/src/widgets/lv_line.c ****         for(i = 0; i < line->point_num - 1; i++) {
 183:Drivers/lvgl/src/widgets/lv_line.c ****             lv_point_t p1;
 184:Drivers/lvgl/src/widgets/lv_line.c ****             lv_point_t p2;
 185:Drivers/lvgl/src/widgets/lv_line.c ****             p1.x = line->point_array[i].x + x_ofs;
 186:Drivers/lvgl/src/widgets/lv_line.c ****             p2.x = line->point_array[i + 1].x + x_ofs;
 187:Drivers/lvgl/src/widgets/lv_line.c **** 
 188:Drivers/lvgl/src/widgets/lv_line.c ****             if(line->y_inv == 0) {
 189:Drivers/lvgl/src/widgets/lv_line.c ****                 p1.y = line->point_array[i].y + y_ofs;
 190:Drivers/lvgl/src/widgets/lv_line.c ****                 p2.y = line->point_array[i + 1].y + y_ofs;
 191:Drivers/lvgl/src/widgets/lv_line.c ****             }
 192:Drivers/lvgl/src/widgets/lv_line.c ****             else {
 193:Drivers/lvgl/src/widgets/lv_line.c ****                 p1.y = h - line->point_array[i].y + y_ofs;
 194:Drivers/lvgl/src/widgets/lv_line.c ****                 p2.y = h - line->point_array[i + 1].y + y_ofs;
 195:Drivers/lvgl/src/widgets/lv_line.c ****             }
 196:Drivers/lvgl/src/widgets/lv_line.c ****             lv_draw_line(draw_ctx, &line_dsc, &p1, &p2);
 197:Drivers/lvgl/src/widgets/lv_line.c ****             line_dsc.round_start = 0;   /*Draw the rounding only on the end points after the first 
 198:Drivers/lvgl/src/widgets/lv_line.c ****         }
 199:Drivers/lvgl/src/widgets/lv_line.c ****     }
 200:Drivers/lvgl/src/widgets/lv_line.c **** }
 112              		.loc 1 200 1 view .LVU28
 113 0012 09B0     		add	sp, sp, #36
 114              		.cfi_remember_state
 115              		.cfi_def_cfa_offset 36
 116              		@ sp needed
 117 0014 BDE8F08F 		pop	{r4, r5, r6, r7, r8, r9, r10, fp, pc}
 118              	.LVL8:
 119              	.L29:
 120              		.cfi_restore_state
 121              	.LBB28:
 122              	.LBI28:
 124:Drivers/lvgl/src/widgets/lv_line.c **** {
 123              		.loc 1 124 13 is_stmt 1 view .LVU29
 124              	.LBB29:
 134:Drivers/lvgl/src/widgets/lv_line.c ****     lv_obj_t * obj = lv_event_get_target(e);
 125              		.loc 1 134 5 view .LVU30
 134:Drivers/lvgl/src/widgets/lv_line.c ****     lv_obj_t * obj = lv_event_get_target(e);
 126              		.loc 1 134 28 is_stmt 0 view .LVU31
 127 0018 2046     		mov	r0, r4
 128              	.LVL9:
 134:Drivers/lvgl/src/widgets/lv_line.c ****     lv_obj_t * obj = lv_event_get_target(e);
 129              		.loc 1 134 28 view .LVU32
 130 001a FFF7FEFF 		bl	lv_event_get_code
 131              	.LVL10:
 132 001e 0646     		mov	r6, r0
ARM GAS  /var/folders/0z/tsy30v1j4xl4_7kw94k978ww0000gn/T//ccARu2Hd.s 			page 7


 135:Drivers/lvgl/src/widgets/lv_line.c **** 
 133              		.loc 1 135 22 view .LVU33
 134 0020 2046     		mov	r0, r4
 135              	.LVL11:
 135:Drivers/lvgl/src/widgets/lv_line.c **** 
 136              		.loc 1 135 5 is_stmt 1 view .LVU34
 135:Drivers/lvgl/src/widgets/lv_line.c **** 
 137              		.loc 1 135 22 is_stmt 0 view .LVU35
 138 0022 FFF7FEFF 		bl	lv_event_get_target
 139              	.LVL12:
 137:Drivers/lvgl/src/widgets/lv_line.c ****         /*The corner of the skew lines is out of the intended area*/
 140              		.loc 1 137 7 view .LVU36
 141 0026 132E     		cmp	r6, #19
 135:Drivers/lvgl/src/widgets/lv_line.c **** 
 142              		.loc 1 135 22 view .LVU37
 143 0028 0546     		mov	r5, r0
 144              	.LVL13:
 137:Drivers/lvgl/src/widgets/lv_line.c ****         /*The corner of the skew lines is out of the intended area*/
 145              		.loc 1 137 5 is_stmt 1 view .LVU38
 137:Drivers/lvgl/src/widgets/lv_line.c ****         /*The corner of the skew lines is out of the intended area*/
 146              		.loc 1 137 7 is_stmt 0 view .LVU39
 147 002a 00F09A80 		beq	.L30
 143:Drivers/lvgl/src/widgets/lv_line.c ****         lv_line_t * line = (lv_line_t *)obj;
 148              		.loc 1 143 10 is_stmt 1 view .LVU40
 143:Drivers/lvgl/src/widgets/lv_line.c ****         lv_line_t * line = (lv_line_t *)obj;
 149              		.loc 1 143 12 is_stmt 0 view .LVU41
 150 002e 2C2E     		cmp	r6, #44
 151 0030 66D0     		beq	.L31
 164:Drivers/lvgl/src/widgets/lv_line.c ****         lv_line_t * line = (lv_line_t *)obj;
 152              		.loc 1 164 10 is_stmt 1 view .LVU42
 164:Drivers/lvgl/src/widgets/lv_line.c ****         lv_line_t * line = (lv_line_t *)obj;
 153              		.loc 1 164 12 is_stmt 0 view .LVU43
 154 0032 152E     		cmp	r6, #21
 155 0034 EDD1     		bne	.L3
 156              	.LBB30:
 165:Drivers/lvgl/src/widgets/lv_line.c ****         lv_draw_ctx_t * draw_ctx = lv_event_get_draw_ctx(e);
 157              		.loc 1 165 9 is_stmt 1 view .LVU44
 158              	.LVL14:
 166:Drivers/lvgl/src/widgets/lv_line.c **** 
 159              		.loc 1 166 9 view .LVU45
 166:Drivers/lvgl/src/widgets/lv_line.c **** 
 160              		.loc 1 166 36 is_stmt 0 view .LVU46
 161 0036 2046     		mov	r0, r4
 162              	.LVL15:
 166:Drivers/lvgl/src/widgets/lv_line.c **** 
 163              		.loc 1 166 36 view .LVU47
 164 0038 FFF7FEFF 		bl	lv_event_get_draw_ctx
 165              	.LVL16:
 168:Drivers/lvgl/src/widgets/lv_line.c **** 
 166              		.loc 1 168 11 view .LVU48
 167 003c 2B8D     		ldrh	r3, [r5, #40]
 166:Drivers/lvgl/src/widgets/lv_line.c **** 
 168              		.loc 1 166 36 view .LVU49
 169 003e 8146     		mov	r9, r0
 170              	.LVL17:
 168:Drivers/lvgl/src/widgets/lv_line.c **** 
 171              		.loc 1 168 9 is_stmt 1 view .LVU50
ARM GAS  /var/folders/0z/tsy30v1j4xl4_7kw94k978ww0000gn/T//ccARu2Hd.s 			page 8


 168:Drivers/lvgl/src/widgets/lv_line.c **** 
 172              		.loc 1 168 11 is_stmt 0 view .LVU51
 173 0040 002B     		cmp	r3, #0
 174 0042 E6D0     		beq	.L3
 168:Drivers/lvgl/src/widgets/lv_line.c **** 
 175              		.loc 1 168 33 view .LVU52
 176 0044 6B6A     		ldr	r3, [r5, #36]
 177 0046 002B     		cmp	r3, #0
 178 0048 E3D0     		beq	.L3
 170:Drivers/lvgl/src/widgets/lv_line.c ****         lv_obj_get_coords(obj, &area);
 179              		.loc 1 170 9 is_stmt 1 view .LVU53
 171:Drivers/lvgl/src/widgets/lv_line.c ****         lv_coord_t x_ofs = area.x1 - lv_obj_get_scroll_x(obj);
 180              		.loc 1 171 9 view .LVU54
 181 004a 03A9     		add	r1, sp, #12
 182 004c 2846     		mov	r0, r5
 183              	.LVL18:
 171:Drivers/lvgl/src/widgets/lv_line.c ****         lv_coord_t x_ofs = area.x1 - lv_obj_get_scroll_x(obj);
 184              		.loc 1 171 9 is_stmt 0 view .LVU55
 185 004e FFF7FEFF 		bl	lv_obj_get_coords
 186              	.LVL19:
 172:Drivers/lvgl/src/widgets/lv_line.c ****         lv_coord_t y_ofs = area.y1 - lv_obj_get_scroll_y(obj);
 187              		.loc 1 172 9 is_stmt 1 view .LVU56
 172:Drivers/lvgl/src/widgets/lv_line.c ****         lv_coord_t y_ofs = area.y1 - lv_obj_get_scroll_y(obj);
 188              		.loc 1 172 38 is_stmt 0 view .LVU57
 189 0052 2846     		mov	r0, r5
 172:Drivers/lvgl/src/widgets/lv_line.c ****         lv_coord_t y_ofs = area.y1 - lv_obj_get_scroll_y(obj);
 190              		.loc 1 172 32 view .LVU58
 191 0054 BDF80C80 		ldrh	r8, [sp, #12]
 172:Drivers/lvgl/src/widgets/lv_line.c ****         lv_coord_t y_ofs = area.y1 - lv_obj_get_scroll_y(obj);
 192              		.loc 1 172 38 view .LVU59
 193 0058 FFF7FEFF 		bl	lv_obj_get_scroll_x
 194              	.LVL20:
 172:Drivers/lvgl/src/widgets/lv_line.c ****         lv_coord_t y_ofs = area.y1 - lv_obj_get_scroll_y(obj);
 195              		.loc 1 172 36 view .LVU60
 196 005c A8EB0008 		sub	r8, r8, r0
 173:Drivers/lvgl/src/widgets/lv_line.c ****         lv_coord_t h = lv_obj_get_height(obj);
 197              		.loc 1 173 38 view .LVU61
 198 0060 2846     		mov	r0, r5
 173:Drivers/lvgl/src/widgets/lv_line.c ****         lv_coord_t h = lv_obj_get_height(obj);
 199              		.loc 1 173 32 view .LVU62
 200 0062 BDF80EB0 		ldrh	fp, [sp, #14]
 173:Drivers/lvgl/src/widgets/lv_line.c ****         lv_coord_t h = lv_obj_get_height(obj);
 201              		.loc 1 173 38 view .LVU63
 202 0066 FFF7FEFF 		bl	lv_obj_get_scroll_y
 203              	.LVL21:
 173:Drivers/lvgl/src/widgets/lv_line.c ****         lv_coord_t h = lv_obj_get_height(obj);
 204              		.loc 1 173 36 view .LVU64
 205 006a ABEB000B 		sub	fp, fp, r0
 174:Drivers/lvgl/src/widgets/lv_line.c **** 
 206              		.loc 1 174 24 view .LVU65
 207 006e 2846     		mov	r0, r5
 208 0070 FFF7FEFF 		bl	lv_obj_get_height
 209              	.LVL22:
 210 0074 0446     		mov	r4, r0
 211              	.LVL23:
 177:Drivers/lvgl/src/widgets/lv_line.c ****         lv_obj_init_draw_line_dsc(obj, LV_PART_MAIN, &line_dsc);
 212              		.loc 1 177 9 view .LVU66
ARM GAS  /var/folders/0z/tsy30v1j4xl4_7kw94k978ww0000gn/T//ccARu2Hd.s 			page 9


 213 0076 05A8     		add	r0, sp, #20
 214 0078 FFF7FEFF 		bl	lv_draw_line_dsc_init
 215              	.LVL24:
 178:Drivers/lvgl/src/widgets/lv_line.c **** 
 216              		.loc 1 178 9 view .LVU67
 217 007c 05AA     		add	r2, sp, #20
 218 007e 0021     		movs	r1, #0
 219 0080 2846     		mov	r0, r5
 220 0082 FFF7FEFF 		bl	lv_obj_init_draw_line_dsc
 221              	.LVL25:
 182:Drivers/lvgl/src/widgets/lv_line.c ****             lv_point_t p1;
 222              		.loc 1 182 22 view .LVU68
 223 0086 2B8D     		ldrh	r3, [r5, #40]
 224 0088 012B     		cmp	r3, #1
 172:Drivers/lvgl/src/widgets/lv_line.c ****         lv_coord_t y_ofs = area.y1 - lv_obj_get_scroll_y(obj);
 225              		.loc 1 172 36 view .LVU69
 226 008a 1FFA88F8 		uxth	r8, r8
 227              	.LVL26:
 173:Drivers/lvgl/src/widgets/lv_line.c ****         lv_coord_t h = lv_obj_get_height(obj);
 228              		.loc 1 173 9 is_stmt 1 view .LVU70
 173:Drivers/lvgl/src/widgets/lv_line.c ****         lv_coord_t h = lv_obj_get_height(obj);
 229              		.loc 1 173 36 is_stmt 0 view .LVU71
 230 008e 1FFA8BFB 		uxth	fp, fp
 231              	.LVL27:
 174:Drivers/lvgl/src/widgets/lv_line.c **** 
 232              		.loc 1 174 9 is_stmt 1 view .LVU72
 176:Drivers/lvgl/src/widgets/lv_line.c ****         lv_draw_line_dsc_init(&line_dsc);
 233              		.loc 1 176 9 view .LVU73
 177:Drivers/lvgl/src/widgets/lv_line.c ****         lv_obj_init_draw_line_dsc(obj, LV_PART_MAIN, &line_dsc);
 234              		.loc 1 177 9 view .LVU74
 178:Drivers/lvgl/src/widgets/lv_line.c **** 
 235              		.loc 1 178 9 view .LVU75
 181:Drivers/lvgl/src/widgets/lv_line.c ****         for(i = 0; i < line->point_num - 1; i++) {
 236              		.loc 1 181 9 view .LVU76
 182:Drivers/lvgl/src/widgets/lv_line.c ****             lv_point_t p1;
 237              		.loc 1 182 9 view .LVU77
 182:Drivers/lvgl/src/widgets/lv_line.c ****             lv_point_t p1;
 238              		.loc 1 182 22 view .LVU78
 239 0092 BED9     		bls	.L3
 240 0094 0BEB0400 		add	r0, fp, r4
 241 0098 1FFA80FA 		uxth	r10, r0
 182:Drivers/lvgl/src/widgets/lv_line.c ****             lv_point_t p1;
 242              		.loc 1 182 15 is_stmt 0 view .LVU79
 243 009c 0024     		movs	r4, #0
 244              	.LVL28:
 245              	.L15:
 246              	.LBB31:
 183:Drivers/lvgl/src/widgets/lv_line.c ****             lv_point_t p2;
 247              		.loc 1 183 13 is_stmt 1 view .LVU80
 184:Drivers/lvgl/src/widgets/lv_line.c ****             p1.x = line->point_array[i].x + x_ofs;
 248              		.loc 1 184 13 view .LVU81
 185:Drivers/lvgl/src/widgets/lv_line.c ****             p2.x = line->point_array[i + 1].x + x_ofs;
 249              		.loc 1 185 13 view .LVU82
 189:Drivers/lvgl/src/widgets/lv_line.c ****                 p2.y = line->point_array[i + 1].y + y_ofs;
 250              		.loc 1 189 17 view .LVU83
 193:Drivers/lvgl/src/widgets/lv_line.c ****                 p2.y = h - line->point_array[i + 1].y + y_ofs;
 251              		.loc 1 193 17 view .LVU84
ARM GAS  /var/folders/0z/tsy30v1j4xl4_7kw94k978ww0000gn/T//ccARu2Hd.s 			page 10


 185:Drivers/lvgl/src/widgets/lv_line.c ****             p2.x = line->point_array[i + 1].x + x_ofs;
 252              		.loc 1 185 24 is_stmt 0 view .LVU85
 253 009e 6F6A     		ldr	r7, [r5, #36]
 188:Drivers/lvgl/src/widgets/lv_line.c ****                 p1.y = line->point_array[i].y + y_ofs;
 254              		.loc 1 188 28 view .LVU86
 255 00a0 95F82AE0 		ldrb	lr, [r5, #42]	@ zero_extendqisi2
 185:Drivers/lvgl/src/widgets/lv_line.c ****             p2.x = line->point_array[i + 1].x + x_ofs;
 256              		.loc 1 185 43 view .LVU87
 257 00a4 37F82460 		ldrh	r6, [r7, r4, lsl #2]
 258 00a8 4644     		add	r6, r6, r8
 185:Drivers/lvgl/src/widgets/lv_line.c ****             p2.x = line->point_array[i + 1].x + x_ofs;
 259              		.loc 1 185 18 view .LVU88
 260 00aa ADF80460 		strh	r6, [sp, #4]	@ movhi
 186:Drivers/lvgl/src/widgets/lv_line.c **** 
 261              		.loc 1 186 13 is_stmt 1 view .LVU89
 185:Drivers/lvgl/src/widgets/lv_line.c ****             p2.x = line->point_array[i + 1].x + x_ofs;
 262              		.loc 1 185 37 is_stmt 0 view .LVU90
 263 00ae A600     		lsls	r6, r4, #2
 186:Drivers/lvgl/src/widgets/lv_line.c **** 
 264              		.loc 1 186 37 view .LVU91
 265 00b0 0436     		adds	r6, r6, #4
 196:Drivers/lvgl/src/widgets/lv_line.c ****             line_dsc.round_start = 0;   /*Draw the rounding only on the end points after the first 
 266              		.loc 1 196 13 view .LVU92
 267 00b2 02AB     		add	r3, sp, #8
 186:Drivers/lvgl/src/widgets/lv_line.c **** 
 268              		.loc 1 186 47 view .LVU93
 269 00b4 37F806C0 		ldrh	ip, [r7, r6]
 270 00b8 C444     		add	ip, ip, r8
 186:Drivers/lvgl/src/widgets/lv_line.c **** 
 271              		.loc 1 186 37 view .LVU94
 272 00ba 3E44     		add	r6, r6, r7
 186:Drivers/lvgl/src/widgets/lv_line.c **** 
 273              		.loc 1 186 18 view .LVU95
 274 00bc ADF808C0 		strh	ip, [sp, #8]	@ movhi
 188:Drivers/lvgl/src/widgets/lv_line.c ****                 p1.y = line->point_array[i].y + y_ofs;
 275              		.loc 1 188 13 is_stmt 1 view .LVU96
 185:Drivers/lvgl/src/widgets/lv_line.c ****             p2.x = line->point_array[i + 1].x + x_ofs;
 276              		.loc 1 185 37 is_stmt 0 view .LVU97
 277 00c0 07EB840C 		add	ip, r7, r4, lsl #2
 188:Drivers/lvgl/src/widgets/lv_line.c ****                 p1.y = line->point_array[i].y + y_ofs;
 278              		.loc 1 188 15 view .LVU98
 279 00c4 1EF00107 		ands	r7, lr, #1
 196:Drivers/lvgl/src/widgets/lv_line.c ****             line_dsc.round_start = 0;   /*Draw the rounding only on the end points after the first 
 280              		.loc 1 196 13 view .LVU99
 281 00c8 01AA     		add	r2, sp, #4
 282 00ca 05A9     		add	r1, sp, #20
 283 00cc 4846     		mov	r0, r9
 188:Drivers/lvgl/src/widgets/lv_line.c ****                 p1.y = line->point_array[i].y + y_ofs;
 284              		.loc 1 188 15 view .LVU100
 285 00ce 58D1     		bne	.L13
 286              	.LVL29:
 189:Drivers/lvgl/src/widgets/lv_line.c ****                 p2.y = line->point_array[i + 1].y + y_ofs;
 287              		.loc 1 189 47 view .LVU101
 288 00d0 BCF802C0 		ldrh	ip, [ip, #2]
 289 00d4 DC44     		add	ip, ip, fp
 189:Drivers/lvgl/src/widgets/lv_line.c ****                 p2.y = line->point_array[i + 1].y + y_ofs;
 290              		.loc 1 189 22 view .LVU102
ARM GAS  /var/folders/0z/tsy30v1j4xl4_7kw94k978ww0000gn/T//ccARu2Hd.s 			page 11


 291 00d6 ADF806C0 		strh	ip, [sp, #6]	@ movhi
 190:Drivers/lvgl/src/widgets/lv_line.c ****             }
 292              		.loc 1 190 17 is_stmt 1 view .LVU103
 190:Drivers/lvgl/src/widgets/lv_line.c ****             }
 293              		.loc 1 190 51 is_stmt 0 view .LVU104
 294 00da 7688     		ldrh	r6, [r6, #2]
 295 00dc 5E44     		add	r6, r6, fp
 190:Drivers/lvgl/src/widgets/lv_line.c ****             }
 296              		.loc 1 190 22 view .LVU105
 297 00de ADF80A60 		strh	r6, [sp, #10]	@ movhi
 196:Drivers/lvgl/src/widgets/lv_line.c ****             line_dsc.round_start = 0;   /*Draw the rounding only on the end points after the first 
 298              		.loc 1 196 13 is_stmt 1 view .LVU106
 299 00e2 FFF7FEFF 		bl	lv_draw_line
 300              	.LVL30:
 197:Drivers/lvgl/src/widgets/lv_line.c ****         }
 301              		.loc 1 197 13 view .LVU107
 197:Drivers/lvgl/src/widgets/lv_line.c ****         }
 302              		.loc 1 197 34 is_stmt 0 view .LVU108
 303 00e6 9DF81D30 		ldrb	r3, [sp, #29]	@ zero_extendqisi2
 304 00ea 67F38203 		bfi	r3, r7, #2, #1
 305 00ee 8DF81D30 		strb	r3, [sp, #29]
 306              	.LBE31:
 182:Drivers/lvgl/src/widgets/lv_line.c ****             lv_point_t p1;
 307              		.loc 1 182 46 is_stmt 1 view .LVU109
 182:Drivers/lvgl/src/widgets/lv_line.c ****             lv_point_t p1;
 308              		.loc 1 182 28 is_stmt 0 view .LVU110
 309 00f2 2B8D     		ldrh	r3, [r5, #40]
 182:Drivers/lvgl/src/widgets/lv_line.c ****             lv_point_t p1;
 310              		.loc 1 182 46 view .LVU111
 311 00f4 0134     		adds	r4, r4, #1
 312              	.LVL31:
 182:Drivers/lvgl/src/widgets/lv_line.c ****             lv_point_t p1;
 313              		.loc 1 182 46 view .LVU112
 314 00f6 A4B2     		uxth	r4, r4
 315              	.LVL32:
 182:Drivers/lvgl/src/widgets/lv_line.c ****             lv_point_t p1;
 316              		.loc 1 182 22 is_stmt 1 view .LVU113
 182:Drivers/lvgl/src/widgets/lv_line.c ****             lv_point_t p1;
 317              		.loc 1 182 40 is_stmt 0 view .LVU114
 318 00f8 013B     		subs	r3, r3, #1
 182:Drivers/lvgl/src/widgets/lv_line.c ****             lv_point_t p1;
 319              		.loc 1 182 22 view .LVU115
 320 00fa A342     		cmp	r3, r4
 321 00fc CFDC     		bgt	.L15
 322 00fe 88E7     		b	.L3
 323              	.LVL33:
 324              	.L31:
 182:Drivers/lvgl/src/widgets/lv_line.c ****             lv_point_t p1;
 325              		.loc 1 182 22 view .LVU116
 326              	.LBE30:
 327              	.LBB33:
 144:Drivers/lvgl/src/widgets/lv_line.c **** 
 328              		.loc 1 144 9 is_stmt 1 view .LVU117
 146:Drivers/lvgl/src/widgets/lv_line.c **** 
 329              		.loc 1 146 9 view .LVU118
 146:Drivers/lvgl/src/widgets/lv_line.c **** 
 330              		.loc 1 146 11 is_stmt 0 view .LVU119
ARM GAS  /var/folders/0z/tsy30v1j4xl4_7kw94k978ww0000gn/T//ccARu2Hd.s 			page 12


 331 0100 038D     		ldrh	r3, [r0, #40]
 332 0102 002B     		cmp	r3, #0
 333 0104 85D0     		beq	.L3
 146:Drivers/lvgl/src/widgets/lv_line.c **** 
 334              		.loc 1 146 33 view .LVU120
 335 0106 436A     		ldr	r3, [r0, #36]
 336 0108 002B     		cmp	r3, #0
 337 010a 82D0     		beq	.L3
 148:Drivers/lvgl/src/widgets/lv_line.c ****         lv_coord_t w = 0;
 338              		.loc 1 148 9 is_stmt 1 view .LVU121
 148:Drivers/lvgl/src/widgets/lv_line.c ****         lv_coord_t w = 0;
 339              		.loc 1 148 26 is_stmt 0 view .LVU122
 340 010c 2046     		mov	r0, r4
 341              	.LVL34:
 148:Drivers/lvgl/src/widgets/lv_line.c ****         lv_coord_t w = 0;
 342              		.loc 1 148 26 view .LVU123
 343 010e FFF7FEFF 		bl	lv_event_get_param
 344              	.LVL35:
 153:Drivers/lvgl/src/widgets/lv_line.c ****             w = LV_MAX(line->point_array[i].x, w);
 345              		.loc 1 153 28 view .LVU124
 346 0112 2C8D     		ldrh	r4, [r5, #40]
 347              	.LVL36:
 148:Drivers/lvgl/src/widgets/lv_line.c ****         lv_coord_t w = 0;
 348              		.loc 1 148 26 view .LVU125
 349 0114 0646     		mov	r6, r0
 350              	.LVL37:
 149:Drivers/lvgl/src/widgets/lv_line.c ****         lv_coord_t h = 0;
 351              		.loc 1 149 9 is_stmt 1 view .LVU126
 150:Drivers/lvgl/src/widgets/lv_line.c **** 
 352              		.loc 1 150 9 view .LVU127
 152:Drivers/lvgl/src/widgets/lv_line.c ****         for(i = 0; i < line->point_num; i++) {
 353              		.loc 1 152 9 view .LVU128
 153:Drivers/lvgl/src/widgets/lv_line.c ****             w = LV_MAX(line->point_array[i].x, w);
 354              		.loc 1 153 9 view .LVU129
 153:Drivers/lvgl/src/widgets/lv_line.c ****             w = LV_MAX(line->point_array[i].x, w);
 355              		.loc 1 153 22 view .LVU130
 356 0116 002C     		cmp	r4, #0
 357 0118 51D0     		beq	.L16
 358 011a 696A     		ldr	r1, [r5, #36]
 359 011c 621E     		subs	r2, r4, #1
 360 011e 92B2     		uxth	r2, r2
 361 0120 0B1D     		adds	r3, r1, #4
 150:Drivers/lvgl/src/widgets/lv_line.c **** 
 362              		.loc 1 150 20 is_stmt 0 view .LVU131
 363 0122 0020     		movs	r0, #0
 364              	.LVL38:
 150:Drivers/lvgl/src/widgets/lv_line.c **** 
 365              		.loc 1 150 20 view .LVU132
 366 0124 03EB820C 		add	ip, r3, r2, lsl #2
 149:Drivers/lvgl/src/widgets/lv_line.c ****         lv_coord_t h = 0;
 367              		.loc 1 149 20 view .LVU133
 368 0128 0246     		mov	r2, r0
 369 012a 00E0     		b	.L10
 370              	.LVL39:
 371              	.L32:
 149:Drivers/lvgl/src/widgets/lv_line.c ****         lv_coord_t h = 0;
 372              		.loc 1 149 20 view .LVU134
ARM GAS  /var/folders/0z/tsy30v1j4xl4_7kw94k978ww0000gn/T//ccARu2Hd.s 			page 13


 373 012c 0433     		adds	r3, r3, #4
 374              	.LVL40:
 375              	.L10:
 154:Drivers/lvgl/src/widgets/lv_line.c ****             h = LV_MAX(line->point_array[i].y, h);
 376              		.loc 1 154 13 is_stmt 1 view .LVU135
 154:Drivers/lvgl/src/widgets/lv_line.c ****             h = LV_MAX(line->point_array[i].y, h);
 377              		.loc 1 154 15 is_stmt 0 view .LVU136
 378 012e B1F90070 		ldrsh	r7, [r1]
 155:Drivers/lvgl/src/widgets/lv_line.c ****         }
 379              		.loc 1 155 15 view .LVU137
 380 0132 B1F90240 		ldrsh	r4, [r1, #2]
 154:Drivers/lvgl/src/widgets/lv_line.c ****             h = LV_MAX(line->point_array[i].y, h);
 381              		.loc 1 154 15 view .LVU138
 382 0136 BA42     		cmp	r2, r7
 383 0138 B8BF     		it	lt
 384 013a 3A46     		movlt	r2, r7
 385              	.LVL41:
 155:Drivers/lvgl/src/widgets/lv_line.c ****         }
 386              		.loc 1 155 13 is_stmt 1 view .LVU139
 155:Drivers/lvgl/src/widgets/lv_line.c ****         }
 387              		.loc 1 155 15 is_stmt 0 view .LVU140
 388 013c A042     		cmp	r0, r4
 389 013e B8BF     		it	lt
 390 0140 2046     		movlt	r0, r4
 391              	.LVL42:
 153:Drivers/lvgl/src/widgets/lv_line.c ****             w = LV_MAX(line->point_array[i].x, w);
 392              		.loc 1 153 42 is_stmt 1 view .LVU141
 153:Drivers/lvgl/src/widgets/lv_line.c ****             w = LV_MAX(line->point_array[i].x, w);
 393              		.loc 1 153 22 view .LVU142
 153:Drivers/lvgl/src/widgets/lv_line.c ****             w = LV_MAX(line->point_array[i].x, w);
 394              		.loc 1 153 22 is_stmt 0 view .LVU143
 395 0142 6345     		cmp	r3, ip
 396 0144 1946     		mov	r1, r3
 397 0146 F1D1     		bne	.L32
 159:Drivers/lvgl/src/widgets/lv_line.c ****         h += line_width;
 398              		.loc 1 159 11 view .LVU144
 399 0148 94B2     		uxth	r4, r2
 160:Drivers/lvgl/src/widgets/lv_line.c ****         p->x = w;
 400              		.loc 1 160 11 view .LVU145
 401 014a 87B2     		uxth	r7, r0
 402              	.LVL43:
 403              	.L9:
 158:Drivers/lvgl/src/widgets/lv_line.c ****         w += line_width;
 404              		.loc 1 158 9 is_stmt 1 view .LVU146
 405              	.LBB34:
 406              	.LBI34:
 407              		.file 2 "Drivers/lvgl/src/widgets/../core/lv_obj_style_gen.h"
   1:Drivers/lvgl/src/widgets/../core/lv_obj_style_gen.h **** static inline lv_coord_t lv_obj_get_style_width(const struct _lv_obj_t * obj, uint32_t part)
   2:Drivers/lvgl/src/widgets/../core/lv_obj_style_gen.h **** {
   3:Drivers/lvgl/src/widgets/../core/lv_obj_style_gen.h ****     lv_style_value_t v = lv_obj_get_style_prop(obj, part, LV_STYLE_WIDTH);
   4:Drivers/lvgl/src/widgets/../core/lv_obj_style_gen.h ****     return (lv_coord_t)v.num;
   5:Drivers/lvgl/src/widgets/../core/lv_obj_style_gen.h **** }
   6:Drivers/lvgl/src/widgets/../core/lv_obj_style_gen.h **** 
   7:Drivers/lvgl/src/widgets/../core/lv_obj_style_gen.h **** static inline lv_coord_t lv_obj_get_style_min_width(const struct _lv_obj_t * obj, uint32_t part)
   8:Drivers/lvgl/src/widgets/../core/lv_obj_style_gen.h **** {
   9:Drivers/lvgl/src/widgets/../core/lv_obj_style_gen.h ****     lv_style_value_t v = lv_obj_get_style_prop(obj, part, LV_STYLE_MIN_WIDTH);
  10:Drivers/lvgl/src/widgets/../core/lv_obj_style_gen.h ****     return (lv_coord_t)v.num;
ARM GAS  /var/folders/0z/tsy30v1j4xl4_7kw94k978ww0000gn/T//ccARu2Hd.s 			page 14


  11:Drivers/lvgl/src/widgets/../core/lv_obj_style_gen.h **** }
  12:Drivers/lvgl/src/widgets/../core/lv_obj_style_gen.h **** 
  13:Drivers/lvgl/src/widgets/../core/lv_obj_style_gen.h **** static inline lv_coord_t lv_obj_get_style_max_width(const struct _lv_obj_t * obj, uint32_t part)
  14:Drivers/lvgl/src/widgets/../core/lv_obj_style_gen.h **** {
  15:Drivers/lvgl/src/widgets/../core/lv_obj_style_gen.h ****     lv_style_value_t v = lv_obj_get_style_prop(obj, part, LV_STYLE_MAX_WIDTH);
  16:Drivers/lvgl/src/widgets/../core/lv_obj_style_gen.h ****     return (lv_coord_t)v.num;
  17:Drivers/lvgl/src/widgets/../core/lv_obj_style_gen.h **** }
  18:Drivers/lvgl/src/widgets/../core/lv_obj_style_gen.h **** 
  19:Drivers/lvgl/src/widgets/../core/lv_obj_style_gen.h **** static inline lv_coord_t lv_obj_get_style_height(const struct _lv_obj_t * obj, uint32_t part)
  20:Drivers/lvgl/src/widgets/../core/lv_obj_style_gen.h **** {
  21:Drivers/lvgl/src/widgets/../core/lv_obj_style_gen.h ****     lv_style_value_t v = lv_obj_get_style_prop(obj, part, LV_STYLE_HEIGHT);
  22:Drivers/lvgl/src/widgets/../core/lv_obj_style_gen.h ****     return (lv_coord_t)v.num;
  23:Drivers/lvgl/src/widgets/../core/lv_obj_style_gen.h **** }
  24:Drivers/lvgl/src/widgets/../core/lv_obj_style_gen.h **** 
  25:Drivers/lvgl/src/widgets/../core/lv_obj_style_gen.h **** static inline lv_coord_t lv_obj_get_style_min_height(const struct _lv_obj_t * obj, uint32_t part)
  26:Drivers/lvgl/src/widgets/../core/lv_obj_style_gen.h **** {
  27:Drivers/lvgl/src/widgets/../core/lv_obj_style_gen.h ****     lv_style_value_t v = lv_obj_get_style_prop(obj, part, LV_STYLE_MIN_HEIGHT);
  28:Drivers/lvgl/src/widgets/../core/lv_obj_style_gen.h ****     return (lv_coord_t)v.num;
  29:Drivers/lvgl/src/widgets/../core/lv_obj_style_gen.h **** }
  30:Drivers/lvgl/src/widgets/../core/lv_obj_style_gen.h **** 
  31:Drivers/lvgl/src/widgets/../core/lv_obj_style_gen.h **** static inline lv_coord_t lv_obj_get_style_max_height(const struct _lv_obj_t * obj, uint32_t part)
  32:Drivers/lvgl/src/widgets/../core/lv_obj_style_gen.h **** {
  33:Drivers/lvgl/src/widgets/../core/lv_obj_style_gen.h ****     lv_style_value_t v = lv_obj_get_style_prop(obj, part, LV_STYLE_MAX_HEIGHT);
  34:Drivers/lvgl/src/widgets/../core/lv_obj_style_gen.h ****     return (lv_coord_t)v.num;
  35:Drivers/lvgl/src/widgets/../core/lv_obj_style_gen.h **** }
  36:Drivers/lvgl/src/widgets/../core/lv_obj_style_gen.h **** 
  37:Drivers/lvgl/src/widgets/../core/lv_obj_style_gen.h **** static inline lv_coord_t lv_obj_get_style_x(const struct _lv_obj_t * obj, uint32_t part)
  38:Drivers/lvgl/src/widgets/../core/lv_obj_style_gen.h **** {
  39:Drivers/lvgl/src/widgets/../core/lv_obj_style_gen.h ****     lv_style_value_t v = lv_obj_get_style_prop(obj, part, LV_STYLE_X);
  40:Drivers/lvgl/src/widgets/../core/lv_obj_style_gen.h ****     return (lv_coord_t)v.num;
  41:Drivers/lvgl/src/widgets/../core/lv_obj_style_gen.h **** }
  42:Drivers/lvgl/src/widgets/../core/lv_obj_style_gen.h **** 
  43:Drivers/lvgl/src/widgets/../core/lv_obj_style_gen.h **** static inline lv_coord_t lv_obj_get_style_y(const struct _lv_obj_t * obj, uint32_t part)
  44:Drivers/lvgl/src/widgets/../core/lv_obj_style_gen.h **** {
  45:Drivers/lvgl/src/widgets/../core/lv_obj_style_gen.h ****     lv_style_value_t v = lv_obj_get_style_prop(obj, part, LV_STYLE_Y);
  46:Drivers/lvgl/src/widgets/../core/lv_obj_style_gen.h ****     return (lv_coord_t)v.num;
  47:Drivers/lvgl/src/widgets/../core/lv_obj_style_gen.h **** }
  48:Drivers/lvgl/src/widgets/../core/lv_obj_style_gen.h **** 
  49:Drivers/lvgl/src/widgets/../core/lv_obj_style_gen.h **** static inline lv_align_t lv_obj_get_style_align(const struct _lv_obj_t * obj, uint32_t part)
  50:Drivers/lvgl/src/widgets/../core/lv_obj_style_gen.h **** {
  51:Drivers/lvgl/src/widgets/../core/lv_obj_style_gen.h ****     lv_style_value_t v = lv_obj_get_style_prop(obj, part, LV_STYLE_ALIGN);
  52:Drivers/lvgl/src/widgets/../core/lv_obj_style_gen.h ****     return (lv_align_t)v.num;
  53:Drivers/lvgl/src/widgets/../core/lv_obj_style_gen.h **** }
  54:Drivers/lvgl/src/widgets/../core/lv_obj_style_gen.h **** 
  55:Drivers/lvgl/src/widgets/../core/lv_obj_style_gen.h **** static inline lv_coord_t lv_obj_get_style_transform_width(const struct _lv_obj_t * obj, uint32_t pa
  56:Drivers/lvgl/src/widgets/../core/lv_obj_style_gen.h **** {
  57:Drivers/lvgl/src/widgets/../core/lv_obj_style_gen.h ****     lv_style_value_t v = lv_obj_get_style_prop(obj, part, LV_STYLE_TRANSFORM_WIDTH);
  58:Drivers/lvgl/src/widgets/../core/lv_obj_style_gen.h ****     return (lv_coord_t)v.num;
  59:Drivers/lvgl/src/widgets/../core/lv_obj_style_gen.h **** }
  60:Drivers/lvgl/src/widgets/../core/lv_obj_style_gen.h **** 
  61:Drivers/lvgl/src/widgets/../core/lv_obj_style_gen.h **** static inline lv_coord_t lv_obj_get_style_transform_height(const struct _lv_obj_t * obj, uint32_t p
  62:Drivers/lvgl/src/widgets/../core/lv_obj_style_gen.h **** {
  63:Drivers/lvgl/src/widgets/../core/lv_obj_style_gen.h ****     lv_style_value_t v = lv_obj_get_style_prop(obj, part, LV_STYLE_TRANSFORM_HEIGHT);
  64:Drivers/lvgl/src/widgets/../core/lv_obj_style_gen.h ****     return (lv_coord_t)v.num;
  65:Drivers/lvgl/src/widgets/../core/lv_obj_style_gen.h **** }
  66:Drivers/lvgl/src/widgets/../core/lv_obj_style_gen.h **** 
  67:Drivers/lvgl/src/widgets/../core/lv_obj_style_gen.h **** static inline lv_coord_t lv_obj_get_style_translate_x(const struct _lv_obj_t * obj, uint32_t part)
ARM GAS  /var/folders/0z/tsy30v1j4xl4_7kw94k978ww0000gn/T//ccARu2Hd.s 			page 15


  68:Drivers/lvgl/src/widgets/../core/lv_obj_style_gen.h **** {
  69:Drivers/lvgl/src/widgets/../core/lv_obj_style_gen.h ****     lv_style_value_t v = lv_obj_get_style_prop(obj, part, LV_STYLE_TRANSLATE_X);
  70:Drivers/lvgl/src/widgets/../core/lv_obj_style_gen.h ****     return (lv_coord_t)v.num;
  71:Drivers/lvgl/src/widgets/../core/lv_obj_style_gen.h **** }
  72:Drivers/lvgl/src/widgets/../core/lv_obj_style_gen.h **** 
  73:Drivers/lvgl/src/widgets/../core/lv_obj_style_gen.h **** static inline lv_coord_t lv_obj_get_style_translate_y(const struct _lv_obj_t * obj, uint32_t part)
  74:Drivers/lvgl/src/widgets/../core/lv_obj_style_gen.h **** {
  75:Drivers/lvgl/src/widgets/../core/lv_obj_style_gen.h ****     lv_style_value_t v = lv_obj_get_style_prop(obj, part, LV_STYLE_TRANSLATE_Y);
  76:Drivers/lvgl/src/widgets/../core/lv_obj_style_gen.h ****     return (lv_coord_t)v.num;
  77:Drivers/lvgl/src/widgets/../core/lv_obj_style_gen.h **** }
  78:Drivers/lvgl/src/widgets/../core/lv_obj_style_gen.h **** 
  79:Drivers/lvgl/src/widgets/../core/lv_obj_style_gen.h **** static inline lv_coord_t lv_obj_get_style_transform_zoom(const struct _lv_obj_t * obj, uint32_t par
  80:Drivers/lvgl/src/widgets/../core/lv_obj_style_gen.h **** {
  81:Drivers/lvgl/src/widgets/../core/lv_obj_style_gen.h ****     lv_style_value_t v = lv_obj_get_style_prop(obj, part, LV_STYLE_TRANSFORM_ZOOM);
  82:Drivers/lvgl/src/widgets/../core/lv_obj_style_gen.h ****     return (lv_coord_t)v.num;
  83:Drivers/lvgl/src/widgets/../core/lv_obj_style_gen.h **** }
  84:Drivers/lvgl/src/widgets/../core/lv_obj_style_gen.h **** 
  85:Drivers/lvgl/src/widgets/../core/lv_obj_style_gen.h **** static inline lv_coord_t lv_obj_get_style_transform_angle(const struct _lv_obj_t * obj, uint32_t pa
  86:Drivers/lvgl/src/widgets/../core/lv_obj_style_gen.h **** {
  87:Drivers/lvgl/src/widgets/../core/lv_obj_style_gen.h ****     lv_style_value_t v = lv_obj_get_style_prop(obj, part, LV_STYLE_TRANSFORM_ANGLE);
  88:Drivers/lvgl/src/widgets/../core/lv_obj_style_gen.h ****     return (lv_coord_t)v.num;
  89:Drivers/lvgl/src/widgets/../core/lv_obj_style_gen.h **** }
  90:Drivers/lvgl/src/widgets/../core/lv_obj_style_gen.h **** 
  91:Drivers/lvgl/src/widgets/../core/lv_obj_style_gen.h **** static inline lv_coord_t lv_obj_get_style_transform_pivot_x(const struct _lv_obj_t * obj, uint32_t 
  92:Drivers/lvgl/src/widgets/../core/lv_obj_style_gen.h **** {
  93:Drivers/lvgl/src/widgets/../core/lv_obj_style_gen.h ****     lv_style_value_t v = lv_obj_get_style_prop(obj, part, LV_STYLE_TRANSFORM_PIVOT_X);
  94:Drivers/lvgl/src/widgets/../core/lv_obj_style_gen.h ****     return (lv_coord_t)v.num;
  95:Drivers/lvgl/src/widgets/../core/lv_obj_style_gen.h **** }
  96:Drivers/lvgl/src/widgets/../core/lv_obj_style_gen.h **** 
  97:Drivers/lvgl/src/widgets/../core/lv_obj_style_gen.h **** static inline lv_coord_t lv_obj_get_style_transform_pivot_y(const struct _lv_obj_t * obj, uint32_t 
  98:Drivers/lvgl/src/widgets/../core/lv_obj_style_gen.h **** {
  99:Drivers/lvgl/src/widgets/../core/lv_obj_style_gen.h ****     lv_style_value_t v = lv_obj_get_style_prop(obj, part, LV_STYLE_TRANSFORM_PIVOT_Y);
 100:Drivers/lvgl/src/widgets/../core/lv_obj_style_gen.h ****     return (lv_coord_t)v.num;
 101:Drivers/lvgl/src/widgets/../core/lv_obj_style_gen.h **** }
 102:Drivers/lvgl/src/widgets/../core/lv_obj_style_gen.h **** 
 103:Drivers/lvgl/src/widgets/../core/lv_obj_style_gen.h **** static inline lv_coord_t lv_obj_get_style_pad_top(const struct _lv_obj_t * obj, uint32_t part)
 104:Drivers/lvgl/src/widgets/../core/lv_obj_style_gen.h **** {
 105:Drivers/lvgl/src/widgets/../core/lv_obj_style_gen.h ****     lv_style_value_t v = lv_obj_get_style_prop(obj, part, LV_STYLE_PAD_TOP);
 106:Drivers/lvgl/src/widgets/../core/lv_obj_style_gen.h ****     return (lv_coord_t)v.num;
 107:Drivers/lvgl/src/widgets/../core/lv_obj_style_gen.h **** }
 108:Drivers/lvgl/src/widgets/../core/lv_obj_style_gen.h **** 
 109:Drivers/lvgl/src/widgets/../core/lv_obj_style_gen.h **** static inline lv_coord_t lv_obj_get_style_pad_bottom(const struct _lv_obj_t * obj, uint32_t part)
 110:Drivers/lvgl/src/widgets/../core/lv_obj_style_gen.h **** {
 111:Drivers/lvgl/src/widgets/../core/lv_obj_style_gen.h ****     lv_style_value_t v = lv_obj_get_style_prop(obj, part, LV_STYLE_PAD_BOTTOM);
 112:Drivers/lvgl/src/widgets/../core/lv_obj_style_gen.h ****     return (lv_coord_t)v.num;
 113:Drivers/lvgl/src/widgets/../core/lv_obj_style_gen.h **** }
 114:Drivers/lvgl/src/widgets/../core/lv_obj_style_gen.h **** 
 115:Drivers/lvgl/src/widgets/../core/lv_obj_style_gen.h **** static inline lv_coord_t lv_obj_get_style_pad_left(const struct _lv_obj_t * obj, uint32_t part)
 116:Drivers/lvgl/src/widgets/../core/lv_obj_style_gen.h **** {
 117:Drivers/lvgl/src/widgets/../core/lv_obj_style_gen.h ****     lv_style_value_t v = lv_obj_get_style_prop(obj, part, LV_STYLE_PAD_LEFT);
 118:Drivers/lvgl/src/widgets/../core/lv_obj_style_gen.h ****     return (lv_coord_t)v.num;
 119:Drivers/lvgl/src/widgets/../core/lv_obj_style_gen.h **** }
 120:Drivers/lvgl/src/widgets/../core/lv_obj_style_gen.h **** 
 121:Drivers/lvgl/src/widgets/../core/lv_obj_style_gen.h **** static inline lv_coord_t lv_obj_get_style_pad_right(const struct _lv_obj_t * obj, uint32_t part)
 122:Drivers/lvgl/src/widgets/../core/lv_obj_style_gen.h **** {
 123:Drivers/lvgl/src/widgets/../core/lv_obj_style_gen.h ****     lv_style_value_t v = lv_obj_get_style_prop(obj, part, LV_STYLE_PAD_RIGHT);
 124:Drivers/lvgl/src/widgets/../core/lv_obj_style_gen.h ****     return (lv_coord_t)v.num;
ARM GAS  /var/folders/0z/tsy30v1j4xl4_7kw94k978ww0000gn/T//ccARu2Hd.s 			page 16


 125:Drivers/lvgl/src/widgets/../core/lv_obj_style_gen.h **** }
 126:Drivers/lvgl/src/widgets/../core/lv_obj_style_gen.h **** 
 127:Drivers/lvgl/src/widgets/../core/lv_obj_style_gen.h **** static inline lv_coord_t lv_obj_get_style_pad_row(const struct _lv_obj_t * obj, uint32_t part)
 128:Drivers/lvgl/src/widgets/../core/lv_obj_style_gen.h **** {
 129:Drivers/lvgl/src/widgets/../core/lv_obj_style_gen.h ****     lv_style_value_t v = lv_obj_get_style_prop(obj, part, LV_STYLE_PAD_ROW);
 130:Drivers/lvgl/src/widgets/../core/lv_obj_style_gen.h ****     return (lv_coord_t)v.num;
 131:Drivers/lvgl/src/widgets/../core/lv_obj_style_gen.h **** }
 132:Drivers/lvgl/src/widgets/../core/lv_obj_style_gen.h **** 
 133:Drivers/lvgl/src/widgets/../core/lv_obj_style_gen.h **** static inline lv_coord_t lv_obj_get_style_pad_column(const struct _lv_obj_t * obj, uint32_t part)
 134:Drivers/lvgl/src/widgets/../core/lv_obj_style_gen.h **** {
 135:Drivers/lvgl/src/widgets/../core/lv_obj_style_gen.h ****     lv_style_value_t v = lv_obj_get_style_prop(obj, part, LV_STYLE_PAD_COLUMN);
 136:Drivers/lvgl/src/widgets/../core/lv_obj_style_gen.h ****     return (lv_coord_t)v.num;
 137:Drivers/lvgl/src/widgets/../core/lv_obj_style_gen.h **** }
 138:Drivers/lvgl/src/widgets/../core/lv_obj_style_gen.h **** 
 139:Drivers/lvgl/src/widgets/../core/lv_obj_style_gen.h **** static inline lv_color_t lv_obj_get_style_bg_color(const struct _lv_obj_t * obj, uint32_t part)
 140:Drivers/lvgl/src/widgets/../core/lv_obj_style_gen.h **** {
 141:Drivers/lvgl/src/widgets/../core/lv_obj_style_gen.h ****     lv_style_value_t v = lv_obj_get_style_prop(obj, part, LV_STYLE_BG_COLOR);
 142:Drivers/lvgl/src/widgets/../core/lv_obj_style_gen.h ****     return v.color;
 143:Drivers/lvgl/src/widgets/../core/lv_obj_style_gen.h **** }
 144:Drivers/lvgl/src/widgets/../core/lv_obj_style_gen.h **** 
 145:Drivers/lvgl/src/widgets/../core/lv_obj_style_gen.h **** static inline lv_color_t lv_obj_get_style_bg_color_filtered(const struct _lv_obj_t * obj, uint32_t 
 146:Drivers/lvgl/src/widgets/../core/lv_obj_style_gen.h **** {
 147:Drivers/lvgl/src/widgets/../core/lv_obj_style_gen.h ****     lv_style_value_t v = _lv_obj_style_apply_color_filter(obj, part, lv_obj_get_style_prop(obj, par
 148:Drivers/lvgl/src/widgets/../core/lv_obj_style_gen.h ****     return v.color;
 149:Drivers/lvgl/src/widgets/../core/lv_obj_style_gen.h **** }
 150:Drivers/lvgl/src/widgets/../core/lv_obj_style_gen.h **** 
 151:Drivers/lvgl/src/widgets/../core/lv_obj_style_gen.h **** static inline lv_opa_t lv_obj_get_style_bg_opa(const struct _lv_obj_t * obj, uint32_t part)
 152:Drivers/lvgl/src/widgets/../core/lv_obj_style_gen.h **** {
 153:Drivers/lvgl/src/widgets/../core/lv_obj_style_gen.h ****     lv_style_value_t v = lv_obj_get_style_prop(obj, part, LV_STYLE_BG_OPA);
 154:Drivers/lvgl/src/widgets/../core/lv_obj_style_gen.h ****     return (lv_opa_t)v.num;
 155:Drivers/lvgl/src/widgets/../core/lv_obj_style_gen.h **** }
 156:Drivers/lvgl/src/widgets/../core/lv_obj_style_gen.h **** 
 157:Drivers/lvgl/src/widgets/../core/lv_obj_style_gen.h **** static inline lv_color_t lv_obj_get_style_bg_grad_color(const struct _lv_obj_t * obj, uint32_t part
 158:Drivers/lvgl/src/widgets/../core/lv_obj_style_gen.h **** {
 159:Drivers/lvgl/src/widgets/../core/lv_obj_style_gen.h ****     lv_style_value_t v = lv_obj_get_style_prop(obj, part, LV_STYLE_BG_GRAD_COLOR);
 160:Drivers/lvgl/src/widgets/../core/lv_obj_style_gen.h ****     return v.color;
 161:Drivers/lvgl/src/widgets/../core/lv_obj_style_gen.h **** }
 162:Drivers/lvgl/src/widgets/../core/lv_obj_style_gen.h **** 
 163:Drivers/lvgl/src/widgets/../core/lv_obj_style_gen.h **** static inline lv_color_t lv_obj_get_style_bg_grad_color_filtered(const struct _lv_obj_t * obj, uint
 164:Drivers/lvgl/src/widgets/../core/lv_obj_style_gen.h **** {
 165:Drivers/lvgl/src/widgets/../core/lv_obj_style_gen.h ****     lv_style_value_t v = _lv_obj_style_apply_color_filter(obj, part, lv_obj_get_style_prop(obj, par
 166:Drivers/lvgl/src/widgets/../core/lv_obj_style_gen.h ****     return v.color;
 167:Drivers/lvgl/src/widgets/../core/lv_obj_style_gen.h **** }
 168:Drivers/lvgl/src/widgets/../core/lv_obj_style_gen.h **** 
 169:Drivers/lvgl/src/widgets/../core/lv_obj_style_gen.h **** static inline lv_grad_dir_t lv_obj_get_style_bg_grad_dir(const struct _lv_obj_t * obj, uint32_t par
 170:Drivers/lvgl/src/widgets/../core/lv_obj_style_gen.h **** {
 171:Drivers/lvgl/src/widgets/../core/lv_obj_style_gen.h ****     lv_style_value_t v = lv_obj_get_style_prop(obj, part, LV_STYLE_BG_GRAD_DIR);
 172:Drivers/lvgl/src/widgets/../core/lv_obj_style_gen.h ****     return (lv_grad_dir_t)v.num;
 173:Drivers/lvgl/src/widgets/../core/lv_obj_style_gen.h **** }
 174:Drivers/lvgl/src/widgets/../core/lv_obj_style_gen.h **** 
 175:Drivers/lvgl/src/widgets/../core/lv_obj_style_gen.h **** static inline lv_coord_t lv_obj_get_style_bg_main_stop(const struct _lv_obj_t * obj, uint32_t part)
 176:Drivers/lvgl/src/widgets/../core/lv_obj_style_gen.h **** {
 177:Drivers/lvgl/src/widgets/../core/lv_obj_style_gen.h ****     lv_style_value_t v = lv_obj_get_style_prop(obj, part, LV_STYLE_BG_MAIN_STOP);
 178:Drivers/lvgl/src/widgets/../core/lv_obj_style_gen.h ****     return (lv_coord_t)v.num;
 179:Drivers/lvgl/src/widgets/../core/lv_obj_style_gen.h **** }
 180:Drivers/lvgl/src/widgets/../core/lv_obj_style_gen.h **** 
 181:Drivers/lvgl/src/widgets/../core/lv_obj_style_gen.h **** static inline lv_coord_t lv_obj_get_style_bg_grad_stop(const struct _lv_obj_t * obj, uint32_t part)
ARM GAS  /var/folders/0z/tsy30v1j4xl4_7kw94k978ww0000gn/T//ccARu2Hd.s 			page 17


 182:Drivers/lvgl/src/widgets/../core/lv_obj_style_gen.h **** {
 183:Drivers/lvgl/src/widgets/../core/lv_obj_style_gen.h ****     lv_style_value_t v = lv_obj_get_style_prop(obj, part, LV_STYLE_BG_GRAD_STOP);
 184:Drivers/lvgl/src/widgets/../core/lv_obj_style_gen.h ****     return (lv_coord_t)v.num;
 185:Drivers/lvgl/src/widgets/../core/lv_obj_style_gen.h **** }
 186:Drivers/lvgl/src/widgets/../core/lv_obj_style_gen.h **** 
 187:Drivers/lvgl/src/widgets/../core/lv_obj_style_gen.h **** static inline const lv_grad_dsc_t * lv_obj_get_style_bg_grad(const struct _lv_obj_t * obj, uint32_t
 188:Drivers/lvgl/src/widgets/../core/lv_obj_style_gen.h **** {
 189:Drivers/lvgl/src/widgets/../core/lv_obj_style_gen.h ****     lv_style_value_t v = lv_obj_get_style_prop(obj, part, LV_STYLE_BG_GRAD);
 190:Drivers/lvgl/src/widgets/../core/lv_obj_style_gen.h ****     return (const lv_grad_dsc_t *)v.ptr;
 191:Drivers/lvgl/src/widgets/../core/lv_obj_style_gen.h **** }
 192:Drivers/lvgl/src/widgets/../core/lv_obj_style_gen.h **** 
 193:Drivers/lvgl/src/widgets/../core/lv_obj_style_gen.h **** static inline lv_dither_mode_t lv_obj_get_style_bg_dither_mode(const struct _lv_obj_t * obj, uint32
 194:Drivers/lvgl/src/widgets/../core/lv_obj_style_gen.h **** {
 195:Drivers/lvgl/src/widgets/../core/lv_obj_style_gen.h ****     lv_style_value_t v = lv_obj_get_style_prop(obj, part, LV_STYLE_BG_DITHER_MODE);
 196:Drivers/lvgl/src/widgets/../core/lv_obj_style_gen.h ****     return (lv_dither_mode_t)v.num;
 197:Drivers/lvgl/src/widgets/../core/lv_obj_style_gen.h **** }
 198:Drivers/lvgl/src/widgets/../core/lv_obj_style_gen.h **** 
 199:Drivers/lvgl/src/widgets/../core/lv_obj_style_gen.h **** static inline const void * lv_obj_get_style_bg_img_src(const struct _lv_obj_t * obj, uint32_t part)
 200:Drivers/lvgl/src/widgets/../core/lv_obj_style_gen.h **** {
 201:Drivers/lvgl/src/widgets/../core/lv_obj_style_gen.h ****     lv_style_value_t v = lv_obj_get_style_prop(obj, part, LV_STYLE_BG_IMG_SRC);
 202:Drivers/lvgl/src/widgets/../core/lv_obj_style_gen.h ****     return (const void *)v.ptr;
 203:Drivers/lvgl/src/widgets/../core/lv_obj_style_gen.h **** }
 204:Drivers/lvgl/src/widgets/../core/lv_obj_style_gen.h **** 
 205:Drivers/lvgl/src/widgets/../core/lv_obj_style_gen.h **** static inline lv_opa_t lv_obj_get_style_bg_img_opa(const struct _lv_obj_t * obj, uint32_t part)
 206:Drivers/lvgl/src/widgets/../core/lv_obj_style_gen.h **** {
 207:Drivers/lvgl/src/widgets/../core/lv_obj_style_gen.h ****     lv_style_value_t v = lv_obj_get_style_prop(obj, part, LV_STYLE_BG_IMG_OPA);
 208:Drivers/lvgl/src/widgets/../core/lv_obj_style_gen.h ****     return (lv_opa_t)v.num;
 209:Drivers/lvgl/src/widgets/../core/lv_obj_style_gen.h **** }
 210:Drivers/lvgl/src/widgets/../core/lv_obj_style_gen.h **** 
 211:Drivers/lvgl/src/widgets/../core/lv_obj_style_gen.h **** static inline lv_color_t lv_obj_get_style_bg_img_recolor(const struct _lv_obj_t * obj, uint32_t par
 212:Drivers/lvgl/src/widgets/../core/lv_obj_style_gen.h **** {
 213:Drivers/lvgl/src/widgets/../core/lv_obj_style_gen.h ****     lv_style_value_t v = lv_obj_get_style_prop(obj, part, LV_STYLE_BG_IMG_RECOLOR);
 214:Drivers/lvgl/src/widgets/../core/lv_obj_style_gen.h ****     return v.color;
 215:Drivers/lvgl/src/widgets/../core/lv_obj_style_gen.h **** }
 216:Drivers/lvgl/src/widgets/../core/lv_obj_style_gen.h **** 
 217:Drivers/lvgl/src/widgets/../core/lv_obj_style_gen.h **** static inline lv_color_t lv_obj_get_style_bg_img_recolor_filtered(const struct _lv_obj_t * obj, uin
 218:Drivers/lvgl/src/widgets/../core/lv_obj_style_gen.h **** {
 219:Drivers/lvgl/src/widgets/../core/lv_obj_style_gen.h ****     lv_style_value_t v = _lv_obj_style_apply_color_filter(obj, part, lv_obj_get_style_prop(obj, par
 220:Drivers/lvgl/src/widgets/../core/lv_obj_style_gen.h ****     return v.color;
 221:Drivers/lvgl/src/widgets/../core/lv_obj_style_gen.h **** }
 222:Drivers/lvgl/src/widgets/../core/lv_obj_style_gen.h **** 
 223:Drivers/lvgl/src/widgets/../core/lv_obj_style_gen.h **** static inline lv_opa_t lv_obj_get_style_bg_img_recolor_opa(const struct _lv_obj_t * obj, uint32_t p
 224:Drivers/lvgl/src/widgets/../core/lv_obj_style_gen.h **** {
 225:Drivers/lvgl/src/widgets/../core/lv_obj_style_gen.h ****     lv_style_value_t v = lv_obj_get_style_prop(obj, part, LV_STYLE_BG_IMG_RECOLOR_OPA);
 226:Drivers/lvgl/src/widgets/../core/lv_obj_style_gen.h ****     return (lv_opa_t)v.num;
 227:Drivers/lvgl/src/widgets/../core/lv_obj_style_gen.h **** }
 228:Drivers/lvgl/src/widgets/../core/lv_obj_style_gen.h **** 
 229:Drivers/lvgl/src/widgets/../core/lv_obj_style_gen.h **** static inline bool lv_obj_get_style_bg_img_tiled(const struct _lv_obj_t * obj, uint32_t part)
 230:Drivers/lvgl/src/widgets/../core/lv_obj_style_gen.h **** {
 231:Drivers/lvgl/src/widgets/../core/lv_obj_style_gen.h ****     lv_style_value_t v = lv_obj_get_style_prop(obj, part, LV_STYLE_BG_IMG_TILED);
 232:Drivers/lvgl/src/widgets/../core/lv_obj_style_gen.h ****     return (bool)v.num;
 233:Drivers/lvgl/src/widgets/../core/lv_obj_style_gen.h **** }
 234:Drivers/lvgl/src/widgets/../core/lv_obj_style_gen.h **** 
 235:Drivers/lvgl/src/widgets/../core/lv_obj_style_gen.h **** static inline lv_color_t lv_obj_get_style_border_color(const struct _lv_obj_t * obj, uint32_t part)
 236:Drivers/lvgl/src/widgets/../core/lv_obj_style_gen.h **** {
 237:Drivers/lvgl/src/widgets/../core/lv_obj_style_gen.h ****     lv_style_value_t v = lv_obj_get_style_prop(obj, part, LV_STYLE_BORDER_COLOR);
 238:Drivers/lvgl/src/widgets/../core/lv_obj_style_gen.h ****     return v.color;
ARM GAS  /var/folders/0z/tsy30v1j4xl4_7kw94k978ww0000gn/T//ccARu2Hd.s 			page 18


 239:Drivers/lvgl/src/widgets/../core/lv_obj_style_gen.h **** }
 240:Drivers/lvgl/src/widgets/../core/lv_obj_style_gen.h **** 
 241:Drivers/lvgl/src/widgets/../core/lv_obj_style_gen.h **** static inline lv_color_t lv_obj_get_style_border_color_filtered(const struct _lv_obj_t * obj, uint3
 242:Drivers/lvgl/src/widgets/../core/lv_obj_style_gen.h **** {
 243:Drivers/lvgl/src/widgets/../core/lv_obj_style_gen.h ****     lv_style_value_t v = _lv_obj_style_apply_color_filter(obj, part, lv_obj_get_style_prop(obj, par
 244:Drivers/lvgl/src/widgets/../core/lv_obj_style_gen.h ****     return v.color;
 245:Drivers/lvgl/src/widgets/../core/lv_obj_style_gen.h **** }
 246:Drivers/lvgl/src/widgets/../core/lv_obj_style_gen.h **** 
 247:Drivers/lvgl/src/widgets/../core/lv_obj_style_gen.h **** static inline lv_opa_t lv_obj_get_style_border_opa(const struct _lv_obj_t * obj, uint32_t part)
 248:Drivers/lvgl/src/widgets/../core/lv_obj_style_gen.h **** {
 249:Drivers/lvgl/src/widgets/../core/lv_obj_style_gen.h ****     lv_style_value_t v = lv_obj_get_style_prop(obj, part, LV_STYLE_BORDER_OPA);
 250:Drivers/lvgl/src/widgets/../core/lv_obj_style_gen.h ****     return (lv_opa_t)v.num;
 251:Drivers/lvgl/src/widgets/../core/lv_obj_style_gen.h **** }
 252:Drivers/lvgl/src/widgets/../core/lv_obj_style_gen.h **** 
 253:Drivers/lvgl/src/widgets/../core/lv_obj_style_gen.h **** static inline lv_coord_t lv_obj_get_style_border_width(const struct _lv_obj_t * obj, uint32_t part)
 254:Drivers/lvgl/src/widgets/../core/lv_obj_style_gen.h **** {
 255:Drivers/lvgl/src/widgets/../core/lv_obj_style_gen.h ****     lv_style_value_t v = lv_obj_get_style_prop(obj, part, LV_STYLE_BORDER_WIDTH);
 256:Drivers/lvgl/src/widgets/../core/lv_obj_style_gen.h ****     return (lv_coord_t)v.num;
 257:Drivers/lvgl/src/widgets/../core/lv_obj_style_gen.h **** }
 258:Drivers/lvgl/src/widgets/../core/lv_obj_style_gen.h **** 
 259:Drivers/lvgl/src/widgets/../core/lv_obj_style_gen.h **** static inline lv_border_side_t lv_obj_get_style_border_side(const struct _lv_obj_t * obj, uint32_t 
 260:Drivers/lvgl/src/widgets/../core/lv_obj_style_gen.h **** {
 261:Drivers/lvgl/src/widgets/../core/lv_obj_style_gen.h ****     lv_style_value_t v = lv_obj_get_style_prop(obj, part, LV_STYLE_BORDER_SIDE);
 262:Drivers/lvgl/src/widgets/../core/lv_obj_style_gen.h ****     return (lv_border_side_t)v.num;
 263:Drivers/lvgl/src/widgets/../core/lv_obj_style_gen.h **** }
 264:Drivers/lvgl/src/widgets/../core/lv_obj_style_gen.h **** 
 265:Drivers/lvgl/src/widgets/../core/lv_obj_style_gen.h **** static inline bool lv_obj_get_style_border_post(const struct _lv_obj_t * obj, uint32_t part)
 266:Drivers/lvgl/src/widgets/../core/lv_obj_style_gen.h **** {
 267:Drivers/lvgl/src/widgets/../core/lv_obj_style_gen.h ****     lv_style_value_t v = lv_obj_get_style_prop(obj, part, LV_STYLE_BORDER_POST);
 268:Drivers/lvgl/src/widgets/../core/lv_obj_style_gen.h ****     return (bool)v.num;
 269:Drivers/lvgl/src/widgets/../core/lv_obj_style_gen.h **** }
 270:Drivers/lvgl/src/widgets/../core/lv_obj_style_gen.h **** 
 271:Drivers/lvgl/src/widgets/../core/lv_obj_style_gen.h **** static inline lv_coord_t lv_obj_get_style_outline_width(const struct _lv_obj_t * obj, uint32_t part
 272:Drivers/lvgl/src/widgets/../core/lv_obj_style_gen.h **** {
 273:Drivers/lvgl/src/widgets/../core/lv_obj_style_gen.h ****     lv_style_value_t v = lv_obj_get_style_prop(obj, part, LV_STYLE_OUTLINE_WIDTH);
 274:Drivers/lvgl/src/widgets/../core/lv_obj_style_gen.h ****     return (lv_coord_t)v.num;
 275:Drivers/lvgl/src/widgets/../core/lv_obj_style_gen.h **** }
 276:Drivers/lvgl/src/widgets/../core/lv_obj_style_gen.h **** 
 277:Drivers/lvgl/src/widgets/../core/lv_obj_style_gen.h **** static inline lv_color_t lv_obj_get_style_outline_color(const struct _lv_obj_t * obj, uint32_t part
 278:Drivers/lvgl/src/widgets/../core/lv_obj_style_gen.h **** {
 279:Drivers/lvgl/src/widgets/../core/lv_obj_style_gen.h ****     lv_style_value_t v = lv_obj_get_style_prop(obj, part, LV_STYLE_OUTLINE_COLOR);
 280:Drivers/lvgl/src/widgets/../core/lv_obj_style_gen.h ****     return v.color;
 281:Drivers/lvgl/src/widgets/../core/lv_obj_style_gen.h **** }
 282:Drivers/lvgl/src/widgets/../core/lv_obj_style_gen.h **** 
 283:Drivers/lvgl/src/widgets/../core/lv_obj_style_gen.h **** static inline lv_color_t lv_obj_get_style_outline_color_filtered(const struct _lv_obj_t * obj, uint
 284:Drivers/lvgl/src/widgets/../core/lv_obj_style_gen.h **** {
 285:Drivers/lvgl/src/widgets/../core/lv_obj_style_gen.h ****     lv_style_value_t v = _lv_obj_style_apply_color_filter(obj, part, lv_obj_get_style_prop(obj, par
 286:Drivers/lvgl/src/widgets/../core/lv_obj_style_gen.h ****     return v.color;
 287:Drivers/lvgl/src/widgets/../core/lv_obj_style_gen.h **** }
 288:Drivers/lvgl/src/widgets/../core/lv_obj_style_gen.h **** 
 289:Drivers/lvgl/src/widgets/../core/lv_obj_style_gen.h **** static inline lv_opa_t lv_obj_get_style_outline_opa(const struct _lv_obj_t * obj, uint32_t part)
 290:Drivers/lvgl/src/widgets/../core/lv_obj_style_gen.h **** {
 291:Drivers/lvgl/src/widgets/../core/lv_obj_style_gen.h ****     lv_style_value_t v = lv_obj_get_style_prop(obj, part, LV_STYLE_OUTLINE_OPA);
 292:Drivers/lvgl/src/widgets/../core/lv_obj_style_gen.h ****     return (lv_opa_t)v.num;
 293:Drivers/lvgl/src/widgets/../core/lv_obj_style_gen.h **** }
 294:Drivers/lvgl/src/widgets/../core/lv_obj_style_gen.h **** 
 295:Drivers/lvgl/src/widgets/../core/lv_obj_style_gen.h **** static inline lv_coord_t lv_obj_get_style_outline_pad(const struct _lv_obj_t * obj, uint32_t part)
ARM GAS  /var/folders/0z/tsy30v1j4xl4_7kw94k978ww0000gn/T//ccARu2Hd.s 			page 19


 296:Drivers/lvgl/src/widgets/../core/lv_obj_style_gen.h **** {
 297:Drivers/lvgl/src/widgets/../core/lv_obj_style_gen.h ****     lv_style_value_t v = lv_obj_get_style_prop(obj, part, LV_STYLE_OUTLINE_PAD);
 298:Drivers/lvgl/src/widgets/../core/lv_obj_style_gen.h ****     return (lv_coord_t)v.num;
 299:Drivers/lvgl/src/widgets/../core/lv_obj_style_gen.h **** }
 300:Drivers/lvgl/src/widgets/../core/lv_obj_style_gen.h **** 
 301:Drivers/lvgl/src/widgets/../core/lv_obj_style_gen.h **** static inline lv_coord_t lv_obj_get_style_shadow_width(const struct _lv_obj_t * obj, uint32_t part)
 302:Drivers/lvgl/src/widgets/../core/lv_obj_style_gen.h **** {
 303:Drivers/lvgl/src/widgets/../core/lv_obj_style_gen.h ****     lv_style_value_t v = lv_obj_get_style_prop(obj, part, LV_STYLE_SHADOW_WIDTH);
 304:Drivers/lvgl/src/widgets/../core/lv_obj_style_gen.h ****     return (lv_coord_t)v.num;
 305:Drivers/lvgl/src/widgets/../core/lv_obj_style_gen.h **** }
 306:Drivers/lvgl/src/widgets/../core/lv_obj_style_gen.h **** 
 307:Drivers/lvgl/src/widgets/../core/lv_obj_style_gen.h **** static inline lv_coord_t lv_obj_get_style_shadow_ofs_x(const struct _lv_obj_t * obj, uint32_t part)
 308:Drivers/lvgl/src/widgets/../core/lv_obj_style_gen.h **** {
 309:Drivers/lvgl/src/widgets/../core/lv_obj_style_gen.h ****     lv_style_value_t v = lv_obj_get_style_prop(obj, part, LV_STYLE_SHADOW_OFS_X);
 310:Drivers/lvgl/src/widgets/../core/lv_obj_style_gen.h ****     return (lv_coord_t)v.num;
 311:Drivers/lvgl/src/widgets/../core/lv_obj_style_gen.h **** }
 312:Drivers/lvgl/src/widgets/../core/lv_obj_style_gen.h **** 
 313:Drivers/lvgl/src/widgets/../core/lv_obj_style_gen.h **** static inline lv_coord_t lv_obj_get_style_shadow_ofs_y(const struct _lv_obj_t * obj, uint32_t part)
 314:Drivers/lvgl/src/widgets/../core/lv_obj_style_gen.h **** {
 315:Drivers/lvgl/src/widgets/../core/lv_obj_style_gen.h ****     lv_style_value_t v = lv_obj_get_style_prop(obj, part, LV_STYLE_SHADOW_OFS_Y);
 316:Drivers/lvgl/src/widgets/../core/lv_obj_style_gen.h ****     return (lv_coord_t)v.num;
 317:Drivers/lvgl/src/widgets/../core/lv_obj_style_gen.h **** }
 318:Drivers/lvgl/src/widgets/../core/lv_obj_style_gen.h **** 
 319:Drivers/lvgl/src/widgets/../core/lv_obj_style_gen.h **** static inline lv_coord_t lv_obj_get_style_shadow_spread(const struct _lv_obj_t * obj, uint32_t part
 320:Drivers/lvgl/src/widgets/../core/lv_obj_style_gen.h **** {
 321:Drivers/lvgl/src/widgets/../core/lv_obj_style_gen.h ****     lv_style_value_t v = lv_obj_get_style_prop(obj, part, LV_STYLE_SHADOW_SPREAD);
 322:Drivers/lvgl/src/widgets/../core/lv_obj_style_gen.h ****     return (lv_coord_t)v.num;
 323:Drivers/lvgl/src/widgets/../core/lv_obj_style_gen.h **** }
 324:Drivers/lvgl/src/widgets/../core/lv_obj_style_gen.h **** 
 325:Drivers/lvgl/src/widgets/../core/lv_obj_style_gen.h **** static inline lv_color_t lv_obj_get_style_shadow_color(const struct _lv_obj_t * obj, uint32_t part)
 326:Drivers/lvgl/src/widgets/../core/lv_obj_style_gen.h **** {
 327:Drivers/lvgl/src/widgets/../core/lv_obj_style_gen.h ****     lv_style_value_t v = lv_obj_get_style_prop(obj, part, LV_STYLE_SHADOW_COLOR);
 328:Drivers/lvgl/src/widgets/../core/lv_obj_style_gen.h ****     return v.color;
 329:Drivers/lvgl/src/widgets/../core/lv_obj_style_gen.h **** }
 330:Drivers/lvgl/src/widgets/../core/lv_obj_style_gen.h **** 
 331:Drivers/lvgl/src/widgets/../core/lv_obj_style_gen.h **** static inline lv_color_t lv_obj_get_style_shadow_color_filtered(const struct _lv_obj_t * obj, uint3
 332:Drivers/lvgl/src/widgets/../core/lv_obj_style_gen.h **** {
 333:Drivers/lvgl/src/widgets/../core/lv_obj_style_gen.h ****     lv_style_value_t v = _lv_obj_style_apply_color_filter(obj, part, lv_obj_get_style_prop(obj, par
 334:Drivers/lvgl/src/widgets/../core/lv_obj_style_gen.h ****     return v.color;
 335:Drivers/lvgl/src/widgets/../core/lv_obj_style_gen.h **** }
 336:Drivers/lvgl/src/widgets/../core/lv_obj_style_gen.h **** 
 337:Drivers/lvgl/src/widgets/../core/lv_obj_style_gen.h **** static inline lv_opa_t lv_obj_get_style_shadow_opa(const struct _lv_obj_t * obj, uint32_t part)
 338:Drivers/lvgl/src/widgets/../core/lv_obj_style_gen.h **** {
 339:Drivers/lvgl/src/widgets/../core/lv_obj_style_gen.h ****     lv_style_value_t v = lv_obj_get_style_prop(obj, part, LV_STYLE_SHADOW_OPA);
 340:Drivers/lvgl/src/widgets/../core/lv_obj_style_gen.h ****     return (lv_opa_t)v.num;
 341:Drivers/lvgl/src/widgets/../core/lv_obj_style_gen.h **** }
 342:Drivers/lvgl/src/widgets/../core/lv_obj_style_gen.h **** 
 343:Drivers/lvgl/src/widgets/../core/lv_obj_style_gen.h **** static inline lv_opa_t lv_obj_get_style_img_opa(const struct _lv_obj_t * obj, uint32_t part)
 344:Drivers/lvgl/src/widgets/../core/lv_obj_style_gen.h **** {
 345:Drivers/lvgl/src/widgets/../core/lv_obj_style_gen.h ****     lv_style_value_t v = lv_obj_get_style_prop(obj, part, LV_STYLE_IMG_OPA);
 346:Drivers/lvgl/src/widgets/../core/lv_obj_style_gen.h ****     return (lv_opa_t)v.num;
 347:Drivers/lvgl/src/widgets/../core/lv_obj_style_gen.h **** }
 348:Drivers/lvgl/src/widgets/../core/lv_obj_style_gen.h **** 
 349:Drivers/lvgl/src/widgets/../core/lv_obj_style_gen.h **** static inline lv_color_t lv_obj_get_style_img_recolor(const struct _lv_obj_t * obj, uint32_t part)
 350:Drivers/lvgl/src/widgets/../core/lv_obj_style_gen.h **** {
 351:Drivers/lvgl/src/widgets/../core/lv_obj_style_gen.h ****     lv_style_value_t v = lv_obj_get_style_prop(obj, part, LV_STYLE_IMG_RECOLOR);
 352:Drivers/lvgl/src/widgets/../core/lv_obj_style_gen.h ****     return v.color;
ARM GAS  /var/folders/0z/tsy30v1j4xl4_7kw94k978ww0000gn/T//ccARu2Hd.s 			page 20


 353:Drivers/lvgl/src/widgets/../core/lv_obj_style_gen.h **** }
 354:Drivers/lvgl/src/widgets/../core/lv_obj_style_gen.h **** 
 355:Drivers/lvgl/src/widgets/../core/lv_obj_style_gen.h **** static inline lv_color_t lv_obj_get_style_img_recolor_filtered(const struct _lv_obj_t * obj, uint32
 356:Drivers/lvgl/src/widgets/../core/lv_obj_style_gen.h **** {
 357:Drivers/lvgl/src/widgets/../core/lv_obj_style_gen.h ****     lv_style_value_t v = _lv_obj_style_apply_color_filter(obj, part, lv_obj_get_style_prop(obj, par
 358:Drivers/lvgl/src/widgets/../core/lv_obj_style_gen.h ****     return v.color;
 359:Drivers/lvgl/src/widgets/../core/lv_obj_style_gen.h **** }
 360:Drivers/lvgl/src/widgets/../core/lv_obj_style_gen.h **** 
 361:Drivers/lvgl/src/widgets/../core/lv_obj_style_gen.h **** static inline lv_opa_t lv_obj_get_style_img_recolor_opa(const struct _lv_obj_t * obj, uint32_t part
 362:Drivers/lvgl/src/widgets/../core/lv_obj_style_gen.h **** {
 363:Drivers/lvgl/src/widgets/../core/lv_obj_style_gen.h ****     lv_style_value_t v = lv_obj_get_style_prop(obj, part, LV_STYLE_IMG_RECOLOR_OPA);
 364:Drivers/lvgl/src/widgets/../core/lv_obj_style_gen.h ****     return (lv_opa_t)v.num;
 365:Drivers/lvgl/src/widgets/../core/lv_obj_style_gen.h **** }
 366:Drivers/lvgl/src/widgets/../core/lv_obj_style_gen.h **** 
 367:Drivers/lvgl/src/widgets/../core/lv_obj_style_gen.h **** static inline lv_coord_t lv_obj_get_style_line_width(const struct _lv_obj_t * obj, uint32_t part)
 408              		.loc 2 367 26 view .LVU147
 409              	.LBB35:
 368:Drivers/lvgl/src/widgets/../core/lv_obj_style_gen.h **** {
 369:Drivers/lvgl/src/widgets/../core/lv_obj_style_gen.h ****     lv_style_value_t v = lv_obj_get_style_prop(obj, part, LV_STYLE_LINE_WIDTH);
 410              		.loc 2 369 5 view .LVU148
 411              		.loc 2 369 26 is_stmt 0 view .LVU149
 412 014c 4922     		movs	r2, #73
 413 014e 2846     		mov	r0, r5
 414 0150 0021     		movs	r1, #0
 415 0152 FFF7FEFF 		bl	lv_obj_get_style_prop
 416              	.LVL44:
 370:Drivers/lvgl/src/widgets/../core/lv_obj_style_gen.h ****     return (lv_coord_t)v.num;
 417              		.loc 2 370 5 is_stmt 1 view .LVU150
 418              		.loc 2 370 5 is_stmt 0 view .LVU151
 419              	.LBE35:
 420              	.LBE34:
 159:Drivers/lvgl/src/widgets/lv_line.c ****         h += line_width;
 421              		.loc 1 159 9 is_stmt 1 view .LVU152
 159:Drivers/lvgl/src/widgets/lv_line.c ****         h += line_width;
 422              		.loc 1 159 11 is_stmt 0 view .LVU153
 423 0156 80B2     		uxth	r0, r0
 424              	.LVL45:
 160:Drivers/lvgl/src/widgets/lv_line.c ****         p->x = w;
 425              		.loc 1 160 9 is_stmt 1 view .LVU154
 161:Drivers/lvgl/src/widgets/lv_line.c ****         p->y = h;
 426              		.loc 1 161 9 view .LVU155
 159:Drivers/lvgl/src/widgets/lv_line.c ****         h += line_width;
 427              		.loc 1 159 11 is_stmt 0 view .LVU156
 428 0158 0219     		adds	r2, r0, r4
 160:Drivers/lvgl/src/widgets/lv_line.c ****         p->x = w;
 429              		.loc 1 160 11 view .LVU157
 430 015a 3844     		add	r0, r0, r7
 431              	.LVL46:
 161:Drivers/lvgl/src/widgets/lv_line.c ****         p->y = h;
 432              		.loc 1 161 14 view .LVU158
 433 015c 3280     		strh	r2, [r6]	@ movhi
 162:Drivers/lvgl/src/widgets/lv_line.c ****     }
 434              		.loc 1 162 9 is_stmt 1 view .LVU159
 162:Drivers/lvgl/src/widgets/lv_line.c ****     }
 435              		.loc 1 162 14 is_stmt 0 view .LVU160
 436 015e 7080     		strh	r0, [r6, #2]	@ movhi
 437              	.LBE33:
ARM GAS  /var/folders/0z/tsy30v1j4xl4_7kw94k978ww0000gn/T//ccARu2Hd.s 			page 21


 438 0160 57E7     		b	.L3
 439              	.LVL47:
 440              	.L30:
 441              	.LBB36:
 139:Drivers/lvgl/src/widgets/lv_line.c ****         lv_coord_t * s = lv_event_get_param(e);
 442              		.loc 1 139 9 is_stmt 1 view .LVU161
 443              	.LBB37:
 444              	.LBI37:
 367:Drivers/lvgl/src/widgets/../core/lv_obj_style_gen.h **** {
 445              		.loc 2 367 26 view .LVU162
 446              	.LBB38:
 369:Drivers/lvgl/src/widgets/../core/lv_obj_style_gen.h ****     return (lv_coord_t)v.num;
 447              		.loc 2 369 5 view .LVU163
 369:Drivers/lvgl/src/widgets/../core/lv_obj_style_gen.h ****     return (lv_coord_t)v.num;
 448              		.loc 2 369 26 is_stmt 0 view .LVU164
 449 0162 4922     		movs	r2, #73
 450 0164 0021     		movs	r1, #0
 451 0166 FFF7FEFF 		bl	lv_obj_get_style_prop
 452              	.LVL48:
 453              		.loc 2 370 5 is_stmt 1 view .LVU165
 369:Drivers/lvgl/src/widgets/../core/lv_obj_style_gen.h ****     return (lv_coord_t)v.num;
 454              		.loc 2 369 26 is_stmt 0 view .LVU166
 455 016a 0346     		mov	r3, r0
 456              	.LBE38:
 457              	.LBE37:
 140:Drivers/lvgl/src/widgets/lv_line.c ****         if(*s < line_width) *s = line_width;
 458              		.loc 1 140 26 view .LVU167
 459 016c 2046     		mov	r0, r4
 460              	.LBB40:
 461              	.LBB39:
 462              		.loc 2 370 12 view .LVU168
 463 016e 1CB2     		sxth	r4, r3
 464              	.LVL49:
 465              		.loc 2 370 12 view .LVU169
 466              	.LBE39:
 467              	.LBE40:
 140:Drivers/lvgl/src/widgets/lv_line.c ****         if(*s < line_width) *s = line_width;
 468              		.loc 1 140 9 is_stmt 1 view .LVU170
 140:Drivers/lvgl/src/widgets/lv_line.c ****         if(*s < line_width) *s = line_width;
 469              		.loc 1 140 26 is_stmt 0 view .LVU171
 470 0170 FFF7FEFF 		bl	lv_event_get_param
 471              	.LVL50:
 141:Drivers/lvgl/src/widgets/lv_line.c ****     }
 472              		.loc 1 141 9 is_stmt 1 view .LVU172
 141:Drivers/lvgl/src/widgets/lv_line.c ****     }
 473              		.loc 1 141 11 is_stmt 0 view .LVU173
 474 0174 B0F90030 		ldrsh	r3, [r0]
 475 0178 A342     		cmp	r3, r4
 476 017a BFF64AAF 		bge	.L3
 141:Drivers/lvgl/src/widgets/lv_line.c ****     }
 477              		.loc 1 141 29 is_stmt 1 view .LVU174
 141:Drivers/lvgl/src/widgets/lv_line.c ****     }
 478              		.loc 1 141 32 is_stmt 0 view .LVU175
 479 017e 0480     		strh	r4, [r0]	@ movhi
 480 0180 47E7     		b	.L3
 481              	.LVL51:
 482              	.L13:
ARM GAS  /var/folders/0z/tsy30v1j4xl4_7kw94k978ww0000gn/T//ccARu2Hd.s 			page 22


 141:Drivers/lvgl/src/widgets/lv_line.c ****     }
 483              		.loc 1 141 32 view .LVU176
 484              	.LBE36:
 485              	.LBB41:
 486              	.LBB32:
 193:Drivers/lvgl/src/widgets/lv_line.c ****                 p2.y = h - line->point_array[i + 1].y + y_ofs;
 487              		.loc 1 193 51 view .LVU177
 488 0182 BCF80230 		ldrh	r3, [ip, #2]
 489 0186 AAEB0303 		sub	r3, r10, r3
 193:Drivers/lvgl/src/widgets/lv_line.c ****                 p2.y = h - line->point_array[i + 1].y + y_ofs;
 490              		.loc 1 193 22 view .LVU178
 491 018a ADF80630 		strh	r3, [sp, #6]	@ movhi
 194:Drivers/lvgl/src/widgets/lv_line.c ****             }
 492              		.loc 1 194 17 is_stmt 1 view .LVU179
 194:Drivers/lvgl/src/widgets/lv_line.c ****             }
 493              		.loc 1 194 55 is_stmt 0 view .LVU180
 494 018e 7388     		ldrh	r3, [r6, #2]
 495 0190 AAEB0303 		sub	r3, r10, r3
 190:Drivers/lvgl/src/widgets/lv_line.c ****             }
 496              		.loc 1 190 22 view .LVU181
 497 0194 ADF80A30 		strh	r3, [sp, #10]	@ movhi
 196:Drivers/lvgl/src/widgets/lv_line.c ****             line_dsc.round_start = 0;   /*Draw the rounding only on the end points after the first 
 498              		.loc 1 196 13 is_stmt 1 view .LVU182
 499 0198 01AA     		add	r2, sp, #4
 500 019a 02AB     		add	r3, sp, #8
 501 019c 05A9     		add	r1, sp, #20
 502 019e FFF7FEFF 		bl	lv_draw_line
 503              	.LVL52:
 197:Drivers/lvgl/src/widgets/lv_line.c ****         }
 504              		.loc 1 197 13 view .LVU183
 197:Drivers/lvgl/src/widgets/lv_line.c ****         }
 505              		.loc 1 197 34 is_stmt 0 view .LVU184
 506 01a2 9DF81D30 		ldrb	r3, [sp, #29]	@ zero_extendqisi2
 507 01a6 6FF38203 		bfc	r3, #2, #1
 508 01aa 8DF81D30 		strb	r3, [sp, #29]
 509              	.LBE32:
 182:Drivers/lvgl/src/widgets/lv_line.c ****             lv_point_t p1;
 510              		.loc 1 182 46 is_stmt 1 view .LVU185
 182:Drivers/lvgl/src/widgets/lv_line.c ****             lv_point_t p1;
 511              		.loc 1 182 28 is_stmt 0 view .LVU186
 512 01ae 2B8D     		ldrh	r3, [r5, #40]
 182:Drivers/lvgl/src/widgets/lv_line.c ****             lv_point_t p1;
 513              		.loc 1 182 46 view .LVU187
 514 01b0 0134     		adds	r4, r4, #1
 515              	.LVL53:
 182:Drivers/lvgl/src/widgets/lv_line.c ****             lv_point_t p1;
 516              		.loc 1 182 46 view .LVU188
 517 01b2 A4B2     		uxth	r4, r4
 518              	.LVL54:
 182:Drivers/lvgl/src/widgets/lv_line.c ****             lv_point_t p1;
 519              		.loc 1 182 22 is_stmt 1 view .LVU189
 182:Drivers/lvgl/src/widgets/lv_line.c ****             lv_point_t p1;
 520              		.loc 1 182 40 is_stmt 0 view .LVU190
 521 01b4 013B     		subs	r3, r3, #1
 182:Drivers/lvgl/src/widgets/lv_line.c ****             lv_point_t p1;
 522              		.loc 1 182 22 view .LVU191
 523 01b6 9C42     		cmp	r4, r3
ARM GAS  /var/folders/0z/tsy30v1j4xl4_7kw94k978ww0000gn/T//ccARu2Hd.s 			page 23


 524 01b8 FFF671AF 		blt	.L15
 525 01bc 29E7     		b	.L3
 526              	.LVL55:
 527              	.L16:
 182:Drivers/lvgl/src/widgets/lv_line.c ****             lv_point_t p1;
 528              		.loc 1 182 22 view .LVU192
 529              	.LBE41:
 530              	.LBB42:
 153:Drivers/lvgl/src/widgets/lv_line.c ****             w = LV_MAX(line->point_array[i].x, w);
 531              		.loc 1 153 22 view .LVU193
 532 01be 2746     		mov	r7, r4
 533 01c0 C4E7     		b	.L9
 534              	.L34:
 535 01c2 00BF     		.align	2
 536              	.L33:
 537 01c4 00000000 		.word	.LANCHOR0
 538              	.LBE42:
 539              	.LBE29:
 540              	.LBE28:
 541              		.cfi_endproc
 542              	.LFE166:
 544              		.section	.text.lv_line_create,"ax",%progbits
 545              		.align	1
 546              		.p2align 2,,3
 547              		.global	lv_line_create
 548              		.syntax unified
 549              		.thumb
 550              		.thumb_func
 552              	lv_line_create:
 553              	.LVL56:
 554              	.LFB161:
  55:Drivers/lvgl/src/widgets/lv_line.c ****     LV_LOG_INFO("begin");
 555              		.loc 1 55 1 is_stmt 1 view -0
 556              		.cfi_startproc
 557              		@ args = 0, pretend = 0, frame = 0
 558              		@ frame_needed = 0, uses_anonymous_args = 0
  56:Drivers/lvgl/src/widgets/lv_line.c ****     lv_obj_t * obj = lv_obj_class_create_obj(MY_CLASS, parent);
 559              		.loc 1 56 5 view .LVU195
  56:Drivers/lvgl/src/widgets/lv_line.c ****     lv_obj_t * obj = lv_obj_class_create_obj(MY_CLASS, parent);
 560              		.loc 1 56 5 view .LVU196
  56:Drivers/lvgl/src/widgets/lv_line.c ****     lv_obj_t * obj = lv_obj_class_create_obj(MY_CLASS, parent);
 561              		.loc 1 56 5 view .LVU197
  57:Drivers/lvgl/src/widgets/lv_line.c ****     lv_obj_class_init_obj(obj);
 562              		.loc 1 57 5 view .LVU198
  55:Drivers/lvgl/src/widgets/lv_line.c ****     LV_LOG_INFO("begin");
 563              		.loc 1 55 1 is_stmt 0 view .LVU199
 564 0000 10B5     		push	{r4, lr}
 565              		.cfi_def_cfa_offset 8
 566              		.cfi_offset 4, -8
 567              		.cfi_offset 14, -4
  55:Drivers/lvgl/src/widgets/lv_line.c ****     LV_LOG_INFO("begin");
 568              		.loc 1 55 1 view .LVU200
 569 0002 0146     		mov	r1, r0
  57:Drivers/lvgl/src/widgets/lv_line.c ****     lv_obj_class_init_obj(obj);
 570              		.loc 1 57 22 view .LVU201
 571 0004 0348     		ldr	r0, .L37
 572              	.LVL57:
ARM GAS  /var/folders/0z/tsy30v1j4xl4_7kw94k978ww0000gn/T//ccARu2Hd.s 			page 24


  57:Drivers/lvgl/src/widgets/lv_line.c ****     lv_obj_class_init_obj(obj);
 573              		.loc 1 57 22 view .LVU202
 574 0006 FFF7FEFF 		bl	lv_obj_class_create_obj
 575              	.LVL58:
  57:Drivers/lvgl/src/widgets/lv_line.c ****     lv_obj_class_init_obj(obj);
 576              		.loc 1 57 22 view .LVU203
 577 000a 0446     		mov	r4, r0
 578              	.LVL59:
  58:Drivers/lvgl/src/widgets/lv_line.c ****     return obj;
 579              		.loc 1 58 5 is_stmt 1 view .LVU204
 580 000c FFF7FEFF 		bl	lv_obj_class_init_obj
 581              	.LVL60:
  59:Drivers/lvgl/src/widgets/lv_line.c **** }
 582              		.loc 1 59 5 view .LVU205
  60:Drivers/lvgl/src/widgets/lv_line.c **** 
 583              		.loc 1 60 1 is_stmt 0 view .LVU206
 584 0010 2046     		mov	r0, r4
 585 0012 10BD     		pop	{r4, pc}
 586              	.LVL61:
 587              	.L38:
  60:Drivers/lvgl/src/widgets/lv_line.c **** 
 588              		.loc 1 60 1 view .LVU207
 589              		.align	2
 590              	.L37:
 591 0014 00000000 		.word	.LANCHOR0
 592              		.cfi_endproc
 593              	.LFE161:
 595              		.section	.text.lv_line_set_points,"ax",%progbits
 596              		.align	1
 597              		.p2align 2,,3
 598              		.global	lv_line_set_points
 599              		.syntax unified
 600              		.thumb
 601              		.thumb_func
 603              	lv_line_set_points:
 604              	.LVL62:
 605              	.LFB162:
  67:Drivers/lvgl/src/widgets/lv_line.c ****     LV_ASSERT_OBJ(obj, MY_CLASS);
 606              		.loc 1 67 1 is_stmt 1 view -0
 607              		.cfi_startproc
 608              		@ args = 0, pretend = 0, frame = 0
 609              		@ frame_needed = 0, uses_anonymous_args = 0
  68:Drivers/lvgl/src/widgets/lv_line.c **** 
 610              		.loc 1 68 5 view .LVU209
  68:Drivers/lvgl/src/widgets/lv_line.c **** 
 611              		.loc 1 68 5 view .LVU210
  68:Drivers/lvgl/src/widgets/lv_line.c **** 
 612              		.loc 1 68 5 view .LVU211
  70:Drivers/lvgl/src/widgets/lv_line.c ****     line->point_array    = points;
 613              		.loc 1 70 5 view .LVU212
  67:Drivers/lvgl/src/widgets/lv_line.c ****     LV_ASSERT_OBJ(obj, MY_CLASS);
 614              		.loc 1 67 1 is_stmt 0 view .LVU213
 615 0000 10B5     		push	{r4, lr}
 616              		.cfi_def_cfa_offset 8
 617              		.cfi_offset 4, -8
 618              		.cfi_offset 14, -4
  67:Drivers/lvgl/src/widgets/lv_line.c ****     LV_ASSERT_OBJ(obj, MY_CLASS);
ARM GAS  /var/folders/0z/tsy30v1j4xl4_7kw94k978ww0000gn/T//ccARu2Hd.s 			page 25


 619              		.loc 1 67 1 view .LVU214
 620 0002 0446     		mov	r4, r0
 621              	.LVL63:
  71:Drivers/lvgl/src/widgets/lv_line.c ****     line->point_num      = point_num;
 622              		.loc 1 71 5 is_stmt 1 view .LVU215
  71:Drivers/lvgl/src/widgets/lv_line.c ****     line->point_num      = point_num;
 623              		.loc 1 71 26 is_stmt 0 view .LVU216
 624 0004 4162     		str	r1, [r0, #36]
  72:Drivers/lvgl/src/widgets/lv_line.c **** 
 625              		.loc 1 72 5 is_stmt 1 view .LVU217
  72:Drivers/lvgl/src/widgets/lv_line.c **** 
 626              		.loc 1 72 26 is_stmt 0 view .LVU218
 627 0006 0285     		strh	r2, [r0, #40]	@ movhi
  74:Drivers/lvgl/src/widgets/lv_line.c **** 
 628              		.loc 1 74 5 is_stmt 1 view .LVU219
 629 0008 FFF7FEFF 		bl	lv_obj_refresh_self_size
 630              	.LVL64:
  76:Drivers/lvgl/src/widgets/lv_line.c **** }
 631              		.loc 1 76 5 view .LVU220
 632 000c 2046     		mov	r0, r4
  77:Drivers/lvgl/src/widgets/lv_line.c **** 
 633              		.loc 1 77 1 is_stmt 0 view .LVU221
 634 000e BDE81040 		pop	{r4, lr}
 635              		.cfi_restore 14
 636              		.cfi_restore 4
 637              		.cfi_def_cfa_offset 0
 638              	.LVL65:
  76:Drivers/lvgl/src/widgets/lv_line.c **** }
 639              		.loc 1 76 5 view .LVU222
 640 0012 FFF7FEBF 		b	lv_obj_invalidate
 641              	.LVL66:
  76:Drivers/lvgl/src/widgets/lv_line.c **** }
 642              		.loc 1 76 5 view .LVU223
 643              		.cfi_endproc
 644              	.LFE162:
 646 0016 00BF     		.section	.text.lv_line_set_y_invert,"ax",%progbits
 647              		.align	1
 648              		.p2align 2,,3
 649              		.global	lv_line_set_y_invert
 650              		.syntax unified
 651              		.thumb
 652              		.thumb_func
 654              	lv_line_set_y_invert:
 655              	.LVL67:
 656              	.LFB163:
  80:Drivers/lvgl/src/widgets/lv_line.c ****     LV_ASSERT_OBJ(obj, MY_CLASS);
 657              		.loc 1 80 1 is_stmt 1 view -0
 658              		.cfi_startproc
 659              		@ args = 0, pretend = 0, frame = 0
 660              		@ frame_needed = 0, uses_anonymous_args = 0
 661              		@ link register save eliminated.
  81:Drivers/lvgl/src/widgets/lv_line.c **** 
 662              		.loc 1 81 5 view .LVU225
  81:Drivers/lvgl/src/widgets/lv_line.c **** 
 663              		.loc 1 81 5 view .LVU226
  81:Drivers/lvgl/src/widgets/lv_line.c **** 
 664              		.loc 1 81 5 view .LVU227
ARM GAS  /var/folders/0z/tsy30v1j4xl4_7kw94k978ww0000gn/T//ccARu2Hd.s 			page 26


  83:Drivers/lvgl/src/widgets/lv_line.c ****     if(line->y_inv == en) return;
 665              		.loc 1 83 5 view .LVU228
  84:Drivers/lvgl/src/widgets/lv_line.c **** 
 666              		.loc 1 84 5 view .LVU229
  84:Drivers/lvgl/src/widgets/lv_line.c **** 
 667              		.loc 1 84 12 is_stmt 0 view .LVU230
 668 0000 90F82A30 		ldrb	r3, [r0, #42]	@ zero_extendqisi2
  84:Drivers/lvgl/src/widgets/lv_line.c **** 
 669              		.loc 1 84 7 view .LVU231
 670 0004 03F0010C 		and	ip, r3, #1
 671 0008 8C45     		cmp	ip, r1
 672 000a 05D0     		beq	.L41
  86:Drivers/lvgl/src/widgets/lv_line.c **** 
 673              		.loc 1 86 5 is_stmt 1 discriminator 4 view .LVU232
  86:Drivers/lvgl/src/widgets/lv_line.c **** 
 674              		.loc 1 86 17 is_stmt 0 discriminator 4 view .LVU233
 675 000c 61F30003 		bfi	r3, r1, #0, #1
 676 0010 80F82A30 		strb	r3, [r0, #42]
  88:Drivers/lvgl/src/widgets/lv_line.c **** }
 677              		.loc 1 88 5 is_stmt 1 discriminator 4 view .LVU234
 678 0014 FFF7FEBF 		b	lv_obj_invalidate
 679              	.LVL68:
 680              	.L41:
  89:Drivers/lvgl/src/widgets/lv_line.c **** 
 681              		.loc 1 89 1 is_stmt 0 view .LVU235
 682 0018 7047     		bx	lr
 683              		.cfi_endproc
 684              	.LFE163:
 686 001a 00BF     		.section	.text.lv_line_get_y_invert,"ax",%progbits
 687              		.align	1
 688              		.p2align 2,,3
 689              		.global	lv_line_get_y_invert
 690              		.syntax unified
 691              		.thumb
 692              		.thumb_func
 694              	lv_line_get_y_invert:
 695              	.LVL69:
 696              	.LFB164:
  96:Drivers/lvgl/src/widgets/lv_line.c ****     LV_ASSERT_OBJ(obj, MY_CLASS);
 697              		.loc 1 96 1 is_stmt 1 view -0
 698              		.cfi_startproc
 699              		@ args = 0, pretend = 0, frame = 0
 700              		@ frame_needed = 0, uses_anonymous_args = 0
 701              		@ link register save eliminated.
  97:Drivers/lvgl/src/widgets/lv_line.c **** 
 702              		.loc 1 97 5 view .LVU237
  97:Drivers/lvgl/src/widgets/lv_line.c **** 
 703              		.loc 1 97 5 view .LVU238
  97:Drivers/lvgl/src/widgets/lv_line.c **** 
 704              		.loc 1 97 5 view .LVU239
  99:Drivers/lvgl/src/widgets/lv_line.c **** 
 705              		.loc 1 99 5 view .LVU240
 101:Drivers/lvgl/src/widgets/lv_line.c **** }
 706              		.loc 1 101 5 view .LVU241
 101:Drivers/lvgl/src/widgets/lv_line.c **** }
 707              		.loc 1 101 24 is_stmt 0 view .LVU242
 708 0000 90F82A00 		ldrb	r0, [r0, #42]	@ zero_extendqisi2
ARM GAS  /var/folders/0z/tsy30v1j4xl4_7kw94k978ww0000gn/T//ccARu2Hd.s 			page 27


 709              	.LVL70:
 102:Drivers/lvgl/src/widgets/lv_line.c **** 
 710              		.loc 1 102 1 view .LVU243
 711 0004 00F00100 		and	r0, r0, #1
 712 0008 7047     		bx	lr
 713              		.cfi_endproc
 714              	.LFE164:
 716              		.global	lv_line_class
 717 000a 00BF     		.section	.rodata.lv_line_class,"a"
 718              		.align	2
 719              		.set	.LANCHOR0,. + 0
 722              	lv_line_class:
 723 0000 00000000 		.word	lv_obj_class
 724 0004 00000000 		.word	lv_line_constructor
 725 0008 00000000 		.space	8
 725      00000000 
 726 0010 00000000 		.word	lv_line_event
 727 0014 D127     		.short	10193
 728 0016 D127     		.short	10193
 729 0018 C0       		.byte	192
 730 0019 02       		.byte	2
 731 001a 00       		.byte	0
 732 001b 00       		.space	1
 733              		.text
 734              	.Letext0:
 735              		.file 3 "/Users/johannes/Library/Application Support/Code/User/globalStorage/bmd.stm32-for-vscode/
 736              		.file 4 "/Users/johannes/Library/Application Support/Code/User/globalStorage/bmd.stm32-for-vscode/
 737              		.file 5 "/Users/johannes/Library/Application Support/Code/User/globalStorage/bmd.stm32-for-vscode/
 738              		.file 6 "Drivers/lvgl/src/widgets/../core/../misc/../font/../misc/lv_area.h"
 739              		.file 7 "Drivers/lvgl/src/widgets/../core/../misc/../font/lv_font.h"
 740              		.file 8 "Drivers/lvgl/src/widgets/../core/../misc/lv_types.h"
 741              		.file 9 "Drivers/lvgl/src/widgets/../core/../misc/lv_color.h"
 742              		.file 10 "Drivers/lvgl/src/widgets/../core/../misc/lv_txt.h"
 743              		.file 11 "Drivers/lvgl/src/widgets/../core/../misc/lv_bidi.h"
 744              		.file 12 "Drivers/lvgl/src/widgets/../core/../misc/lv_style.h"
 745              		.file 13 "Drivers/lvgl/src/widgets/../core/../hal/../draw/lv_img_buf.h"
 746              		.file 14 "Drivers/lvgl/src/widgets/../core/lv_obj.h"
 747              		.file 15 "Drivers/lvgl/src/widgets/../core/../hal/../draw/lv_draw_rect.h"
 748              		.file 16 "Drivers/lvgl/src/widgets/../core/../hal/../draw/lv_draw_label.h"
 749              		.file 17 "Drivers/lvgl/src/widgets/../core/../hal/../draw/lv_draw_img.h"
 750              		.file 18 "Drivers/lvgl/src/widgets/../core/../hal/../draw/lv_draw_line.h"
 751              		.file 19 "Drivers/lvgl/src/widgets/../core/../hal/../draw/lv_draw_arc.h"
 752              		.file 20 "Drivers/lvgl/src/widgets/../core/../hal/../draw/lv_draw_layer.h"
 753              		.file 21 "Drivers/lvgl/src/widgets/../core/../hal/../draw/lv_draw.h"
 754              		.file 22 "Drivers/lvgl/src/widgets/../core/../hal/../misc/lv_ll.h"
 755              		.file 23 "Drivers/lvgl/src/widgets/../core/lv_group.h"
 756              		.file 24 "Drivers/lvgl/src/widgets/../core/lv_obj_scroll.h"
 757              		.file 25 "Drivers/lvgl/src/widgets/../core/lv_obj_style.h"
 758              		.file 26 "Drivers/lvgl/src/widgets/../core/lv_obj_class.h"
 759              		.file 27 "Drivers/lvgl/src/widgets/../core/lv_event.h"
 760              		.file 28 "Drivers/lvgl/src/widgets/lv_line.h"
 761              		.file 29 "Drivers/lvgl/src/widgets/../core/../hal/../draw/sw/../../core/lv_obj_pos.h"
 762              		.file 30 "Drivers/lvgl/src/widgets/../core/lv_obj_draw.h"
ARM GAS  /var/folders/0z/tsy30v1j4xl4_7kw94k978ww0000gn/T//ccARu2Hd.s 			page 28


DEFINED SYMBOLS
                            *ABS*:0000000000000000 lv_line.c
/var/folders/0z/tsy30v1j4xl4_7kw94k978ww0000gn/T//ccARu2Hd.s:20     .text.lv_line_constructor:0000000000000000 $t
/var/folders/0z/tsy30v1j4xl4_7kw94k978ww0000gn/T//ccARu2Hd.s:26     .text.lv_line_constructor:0000000000000000 lv_line_constructor
/var/folders/0z/tsy30v1j4xl4_7kw94k978ww0000gn/T//ccARu2Hd.s:67     .text.lv_line_event:0000000000000000 $t
/var/folders/0z/tsy30v1j4xl4_7kw94k978ww0000gn/T//ccARu2Hd.s:73     .text.lv_line_event:0000000000000000 lv_line_event
/var/folders/0z/tsy30v1j4xl4_7kw94k978ww0000gn/T//ccARu2Hd.s:537    .text.lv_line_event:00000000000001c4 $d
/var/folders/0z/tsy30v1j4xl4_7kw94k978ww0000gn/T//ccARu2Hd.s:545    .text.lv_line_create:0000000000000000 $t
/var/folders/0z/tsy30v1j4xl4_7kw94k978ww0000gn/T//ccARu2Hd.s:552    .text.lv_line_create:0000000000000000 lv_line_create
/var/folders/0z/tsy30v1j4xl4_7kw94k978ww0000gn/T//ccARu2Hd.s:591    .text.lv_line_create:0000000000000014 $d
/var/folders/0z/tsy30v1j4xl4_7kw94k978ww0000gn/T//ccARu2Hd.s:596    .text.lv_line_set_points:0000000000000000 $t
/var/folders/0z/tsy30v1j4xl4_7kw94k978ww0000gn/T//ccARu2Hd.s:603    .text.lv_line_set_points:0000000000000000 lv_line_set_points
/var/folders/0z/tsy30v1j4xl4_7kw94k978ww0000gn/T//ccARu2Hd.s:647    .text.lv_line_set_y_invert:0000000000000000 $t
/var/folders/0z/tsy30v1j4xl4_7kw94k978ww0000gn/T//ccARu2Hd.s:654    .text.lv_line_set_y_invert:0000000000000000 lv_line_set_y_invert
/var/folders/0z/tsy30v1j4xl4_7kw94k978ww0000gn/T//ccARu2Hd.s:687    .text.lv_line_get_y_invert:0000000000000000 $t
/var/folders/0z/tsy30v1j4xl4_7kw94k978ww0000gn/T//ccARu2Hd.s:694    .text.lv_line_get_y_invert:0000000000000000 lv_line_get_y_invert
/var/folders/0z/tsy30v1j4xl4_7kw94k978ww0000gn/T//ccARu2Hd.s:722    .rodata.lv_line_class:0000000000000000 lv_line_class
/var/folders/0z/tsy30v1j4xl4_7kw94k978ww0000gn/T//ccARu2Hd.s:718    .rodata.lv_line_class:0000000000000000 $d

UNDEFINED SYMBOLS
lv_obj_clear_flag
lv_obj_event_base
lv_event_get_code
lv_event_get_target
lv_event_get_draw_ctx
lv_obj_get_coords
lv_obj_get_scroll_x
lv_obj_get_scroll_y
lv_obj_get_height
lv_draw_line_dsc_init
lv_obj_init_draw_line_dsc
lv_draw_line
lv_event_get_param
lv_obj_get_style_prop
lv_obj_class_create_obj
lv_obj_class_init_obj
lv_obj_refresh_self_size
lv_obj_invalidate
lv_obj_class
