ARM GAS  /var/folders/0z/tsy30v1j4xl4_7kw94k978ww0000gn/T//ccsXEBTu.s 			page 1


   1              		.cpu cortex-m4
   2              		.arch armv7e-m
   3              		.fpu fpv4-sp-d16
   4              		.eabi_attribute 27, 1
   5              		.eabi_attribute 28, 1
   6              		.eabi_attribute 20, 1
   7              		.eabi_attribute 21, 1
   8              		.eabi_attribute 23, 3
   9              		.eabi_attribute 24, 1
  10              		.eabi_attribute 25, 1
  11              		.eabi_attribute 26, 1
  12              		.eabi_attribute 30, 2
  13              		.eabi_attribute 34, 1
  14              		.eabi_attribute 18, 4
  15              		.file	"lv_line.c"
  16              		.text
  17              	.Ltext0:
  18              		.cfi_sections	.debug_frame
  19              		.section	.text.lv_line_constructor,"ax",%progbits
  20              		.align	1
  21              		.p2align 2,,3
  22              		.syntax unified
  23              		.thumb
  24              		.thumb_func
  26              	lv_line_constructor:
  27              	.LVL0:
  28              	.LFB165:
  29              		.file 1 "Drivers/lvgl/src/widgets/lv_line.c"
   1:Drivers/lvgl/src/widgets/lv_line.c **** /**
   2:Drivers/lvgl/src/widgets/lv_line.c ****  * @file lv_line.c
   3:Drivers/lvgl/src/widgets/lv_line.c ****  *
   4:Drivers/lvgl/src/widgets/lv_line.c ****  */
   5:Drivers/lvgl/src/widgets/lv_line.c **** 
   6:Drivers/lvgl/src/widgets/lv_line.c **** /*********************
   7:Drivers/lvgl/src/widgets/lv_line.c ****  *      INCLUDES
   8:Drivers/lvgl/src/widgets/lv_line.c ****  *********************/
   9:Drivers/lvgl/src/widgets/lv_line.c **** #include "lv_line.h"
  10:Drivers/lvgl/src/widgets/lv_line.c **** 
  11:Drivers/lvgl/src/widgets/lv_line.c **** #if LV_USE_LINE != 0
  12:Drivers/lvgl/src/widgets/lv_line.c **** #include "../misc/lv_assert.h"
  13:Drivers/lvgl/src/widgets/lv_line.c **** #include "../draw/lv_draw.h"
  14:Drivers/lvgl/src/widgets/lv_line.c **** #include "../misc/lv_math.h"
  15:Drivers/lvgl/src/widgets/lv_line.c **** #include <stdbool.h>
  16:Drivers/lvgl/src/widgets/lv_line.c **** #include <stdint.h>
  17:Drivers/lvgl/src/widgets/lv_line.c **** #include <string.h>
  18:Drivers/lvgl/src/widgets/lv_line.c **** 
  19:Drivers/lvgl/src/widgets/lv_line.c **** /*********************
  20:Drivers/lvgl/src/widgets/lv_line.c ****  *      DEFINES
  21:Drivers/lvgl/src/widgets/lv_line.c ****  *********************/
  22:Drivers/lvgl/src/widgets/lv_line.c **** #define MY_CLASS &lv_line_class
  23:Drivers/lvgl/src/widgets/lv_line.c **** 
  24:Drivers/lvgl/src/widgets/lv_line.c **** /**********************
  25:Drivers/lvgl/src/widgets/lv_line.c ****  *      TYPEDEFS
  26:Drivers/lvgl/src/widgets/lv_line.c ****  **********************/
  27:Drivers/lvgl/src/widgets/lv_line.c **** 
  28:Drivers/lvgl/src/widgets/lv_line.c **** /**********************
  29:Drivers/lvgl/src/widgets/lv_line.c ****  *  STATIC PROTOTYPES
ARM GAS  /var/folders/0z/tsy30v1j4xl4_7kw94k978ww0000gn/T//ccsXEBTu.s 			page 2


  30:Drivers/lvgl/src/widgets/lv_line.c ****  **********************/
  31:Drivers/lvgl/src/widgets/lv_line.c **** static void lv_line_constructor(const lv_obj_class_t * class_p, lv_obj_t * obj);
  32:Drivers/lvgl/src/widgets/lv_line.c **** static void lv_line_event(const lv_obj_class_t * class_p, lv_event_t * e);
  33:Drivers/lvgl/src/widgets/lv_line.c **** 
  34:Drivers/lvgl/src/widgets/lv_line.c **** /**********************
  35:Drivers/lvgl/src/widgets/lv_line.c ****  *  STATIC VARIABLES
  36:Drivers/lvgl/src/widgets/lv_line.c ****  **********************/
  37:Drivers/lvgl/src/widgets/lv_line.c **** const lv_obj_class_t lv_line_class = {
  38:Drivers/lvgl/src/widgets/lv_line.c ****     .constructor_cb = lv_line_constructor,
  39:Drivers/lvgl/src/widgets/lv_line.c ****     .event_cb = lv_line_event,
  40:Drivers/lvgl/src/widgets/lv_line.c ****     .width_def = LV_SIZE_CONTENT,
  41:Drivers/lvgl/src/widgets/lv_line.c ****     .height_def = LV_SIZE_CONTENT,
  42:Drivers/lvgl/src/widgets/lv_line.c ****     .instance_size = sizeof(lv_line_t),
  43:Drivers/lvgl/src/widgets/lv_line.c ****     .base_class = &lv_obj_class
  44:Drivers/lvgl/src/widgets/lv_line.c **** };
  45:Drivers/lvgl/src/widgets/lv_line.c **** 
  46:Drivers/lvgl/src/widgets/lv_line.c **** /**********************
  47:Drivers/lvgl/src/widgets/lv_line.c ****  *      MACROS
  48:Drivers/lvgl/src/widgets/lv_line.c ****  **********************/
  49:Drivers/lvgl/src/widgets/lv_line.c **** 
  50:Drivers/lvgl/src/widgets/lv_line.c **** /**********************
  51:Drivers/lvgl/src/widgets/lv_line.c ****  *   GLOBAL FUNCTIONS
  52:Drivers/lvgl/src/widgets/lv_line.c ****  **********************/
  53:Drivers/lvgl/src/widgets/lv_line.c **** 
  54:Drivers/lvgl/src/widgets/lv_line.c **** lv_obj_t * lv_line_create(lv_obj_t * parent)
  55:Drivers/lvgl/src/widgets/lv_line.c **** {
  56:Drivers/lvgl/src/widgets/lv_line.c ****     LV_LOG_INFO("begin");
  57:Drivers/lvgl/src/widgets/lv_line.c ****     lv_obj_t * obj = lv_obj_class_create_obj(MY_CLASS, parent);
  58:Drivers/lvgl/src/widgets/lv_line.c ****     lv_obj_class_init_obj(obj);
  59:Drivers/lvgl/src/widgets/lv_line.c ****     return obj;
  60:Drivers/lvgl/src/widgets/lv_line.c **** }
  61:Drivers/lvgl/src/widgets/lv_line.c **** 
  62:Drivers/lvgl/src/widgets/lv_line.c **** /*=====================
  63:Drivers/lvgl/src/widgets/lv_line.c ****  * Setter functions
  64:Drivers/lvgl/src/widgets/lv_line.c ****  *====================*/
  65:Drivers/lvgl/src/widgets/lv_line.c **** 
  66:Drivers/lvgl/src/widgets/lv_line.c **** void lv_line_set_points(lv_obj_t * obj, const lv_point_t points[], uint16_t point_num)
  67:Drivers/lvgl/src/widgets/lv_line.c **** {
  68:Drivers/lvgl/src/widgets/lv_line.c ****     LV_ASSERT_OBJ(obj, MY_CLASS);
  69:Drivers/lvgl/src/widgets/lv_line.c **** 
  70:Drivers/lvgl/src/widgets/lv_line.c ****     lv_line_t * line = (lv_line_t *)obj;
  71:Drivers/lvgl/src/widgets/lv_line.c ****     line->point_array    = points;
  72:Drivers/lvgl/src/widgets/lv_line.c ****     line->point_num      = point_num;
  73:Drivers/lvgl/src/widgets/lv_line.c **** 
  74:Drivers/lvgl/src/widgets/lv_line.c ****     lv_obj_refresh_self_size(obj);
  75:Drivers/lvgl/src/widgets/lv_line.c **** 
  76:Drivers/lvgl/src/widgets/lv_line.c ****     lv_obj_invalidate(obj);
  77:Drivers/lvgl/src/widgets/lv_line.c **** }
  78:Drivers/lvgl/src/widgets/lv_line.c **** 
  79:Drivers/lvgl/src/widgets/lv_line.c **** void lv_line_set_y_invert(lv_obj_t * obj, bool en)
  80:Drivers/lvgl/src/widgets/lv_line.c **** {
  81:Drivers/lvgl/src/widgets/lv_line.c ****     LV_ASSERT_OBJ(obj, MY_CLASS);
  82:Drivers/lvgl/src/widgets/lv_line.c **** 
  83:Drivers/lvgl/src/widgets/lv_line.c ****     lv_line_t * line = (lv_line_t *)obj;
  84:Drivers/lvgl/src/widgets/lv_line.c ****     if(line->y_inv == en) return;
  85:Drivers/lvgl/src/widgets/lv_line.c **** 
  86:Drivers/lvgl/src/widgets/lv_line.c ****     line->y_inv = en ? 1U : 0U;
ARM GAS  /var/folders/0z/tsy30v1j4xl4_7kw94k978ww0000gn/T//ccsXEBTu.s 			page 3


  87:Drivers/lvgl/src/widgets/lv_line.c **** 
  88:Drivers/lvgl/src/widgets/lv_line.c ****     lv_obj_invalidate(obj);
  89:Drivers/lvgl/src/widgets/lv_line.c **** }
  90:Drivers/lvgl/src/widgets/lv_line.c **** 
  91:Drivers/lvgl/src/widgets/lv_line.c **** /*=====================
  92:Drivers/lvgl/src/widgets/lv_line.c ****  * Getter functions
  93:Drivers/lvgl/src/widgets/lv_line.c ****  *====================*/
  94:Drivers/lvgl/src/widgets/lv_line.c **** 
  95:Drivers/lvgl/src/widgets/lv_line.c **** bool lv_line_get_y_invert(const lv_obj_t * obj)
  96:Drivers/lvgl/src/widgets/lv_line.c **** {
  97:Drivers/lvgl/src/widgets/lv_line.c ****     LV_ASSERT_OBJ(obj, MY_CLASS);
  98:Drivers/lvgl/src/widgets/lv_line.c **** 
  99:Drivers/lvgl/src/widgets/lv_line.c ****     lv_line_t * line = (lv_line_t *)obj;
 100:Drivers/lvgl/src/widgets/lv_line.c **** 
 101:Drivers/lvgl/src/widgets/lv_line.c ****     return line->y_inv == 1U;
 102:Drivers/lvgl/src/widgets/lv_line.c **** }
 103:Drivers/lvgl/src/widgets/lv_line.c **** 
 104:Drivers/lvgl/src/widgets/lv_line.c **** /**********************
 105:Drivers/lvgl/src/widgets/lv_line.c ****  *   STATIC FUNCTIONS
 106:Drivers/lvgl/src/widgets/lv_line.c ****  **********************/
 107:Drivers/lvgl/src/widgets/lv_line.c **** 
 108:Drivers/lvgl/src/widgets/lv_line.c **** static void lv_line_constructor(const lv_obj_class_t * class_p, lv_obj_t * obj)
 109:Drivers/lvgl/src/widgets/lv_line.c **** {
  30              		.loc 1 109 1 view -0
  31              		.cfi_startproc
  32              		@ args = 0, pretend = 0, frame = 0
  33              		@ frame_needed = 0, uses_anonymous_args = 0
  34              		@ link register save eliminated.
 110:Drivers/lvgl/src/widgets/lv_line.c ****     LV_UNUSED(class_p);
  35              		.loc 1 110 5 view .LVU1
 111:Drivers/lvgl/src/widgets/lv_line.c ****     LV_TRACE_OBJ_CREATE("begin");
  36              		.loc 1 111 33 view .LVU2
 112:Drivers/lvgl/src/widgets/lv_line.c **** 
 113:Drivers/lvgl/src/widgets/lv_line.c ****     lv_line_t * line = (lv_line_t *)obj;
  37              		.loc 1 113 5 view .LVU3
 114:Drivers/lvgl/src/widgets/lv_line.c **** 
 115:Drivers/lvgl/src/widgets/lv_line.c ****     line->point_num   = 0;
 116:Drivers/lvgl/src/widgets/lv_line.c ****     line->point_array = NULL;
 117:Drivers/lvgl/src/widgets/lv_line.c ****     line->y_inv       = 0;
  38              		.loc 1 117 23 is_stmt 0 view .LVU4
  39 0000 91F82A20 		ldrb	r2, [r1, #42]	@ zero_extendqisi2
 115:Drivers/lvgl/src/widgets/lv_line.c ****     line->point_array = NULL;
  40              		.loc 1 115 23 view .LVU5
  41 0004 0023     		movs	r3, #0
  42              		.loc 1 117 23 view .LVU6
  43 0006 63F30002 		bfi	r2, r3, #0, #1
 109:Drivers/lvgl/src/widgets/lv_line.c ****     LV_UNUSED(class_p);
  44              		.loc 1 109 1 view .LVU7
  45 000a 0846     		mov	r0, r1
  46              	.LVL1:
 115:Drivers/lvgl/src/widgets/lv_line.c ****     line->point_array = NULL;
  47              		.loc 1 115 5 is_stmt 1 view .LVU8
 115:Drivers/lvgl/src/widgets/lv_line.c ****     line->point_array = NULL;
  48              		.loc 1 115 23 is_stmt 0 view .LVU9
  49 000c 0B85     		strh	r3, [r1, #40]	@ movhi
 116:Drivers/lvgl/src/widgets/lv_line.c ****     line->y_inv       = 0;
  50              		.loc 1 116 5 is_stmt 1 view .LVU10
ARM GAS  /var/folders/0z/tsy30v1j4xl4_7kw94k978ww0000gn/T//ccsXEBTu.s 			page 4


 116:Drivers/lvgl/src/widgets/lv_line.c ****     line->y_inv       = 0;
  51              		.loc 1 116 23 is_stmt 0 view .LVU11
  52 000e 4B62     		str	r3, [r1, #36]
  53              		.loc 1 117 5 is_stmt 1 view .LVU12
  54              		.loc 1 117 23 is_stmt 0 view .LVU13
  55 0010 81F82A20 		strb	r2, [r1, #42]
 118:Drivers/lvgl/src/widgets/lv_line.c **** 
 119:Drivers/lvgl/src/widgets/lv_line.c ****     lv_obj_clear_flag(obj, LV_OBJ_FLAG_CLICKABLE);
  56              		.loc 1 119 5 is_stmt 1 view .LVU14
  57 0014 0221     		movs	r1, #2
  58              	.LVL2:
  59              		.loc 1 119 5 is_stmt 0 view .LVU15
  60 0016 FFF7FEBF 		b	lv_obj_clear_flag
  61              	.LVL3:
  62              		.loc 1 119 5 view .LVU16
  63              		.cfi_endproc
  64              	.LFE165:
  66 001a 00BF     		.section	.text.lv_line_event,"ax",%progbits
  67              		.align	1
  68              		.p2align 2,,3
  69              		.syntax unified
  70              		.thumb
  71              		.thumb_func
  73              	lv_line_event:
  74              	.LVL4:
  75              	.LFB166:
 120:Drivers/lvgl/src/widgets/lv_line.c **** 
 121:Drivers/lvgl/src/widgets/lv_line.c ****     LV_TRACE_OBJ_CREATE("finished");
 122:Drivers/lvgl/src/widgets/lv_line.c **** }
 123:Drivers/lvgl/src/widgets/lv_line.c **** 
 124:Drivers/lvgl/src/widgets/lv_line.c **** static void lv_line_event(const lv_obj_class_t * class_p, lv_event_t * e)
 125:Drivers/lvgl/src/widgets/lv_line.c **** {
  76              		.loc 1 125 1 is_stmt 1 view -0
  77              		.cfi_startproc
  78              		@ args = 0, pretend = 0, frame = 32
  79              		@ frame_needed = 0, uses_anonymous_args = 0
 126:Drivers/lvgl/src/widgets/lv_line.c ****     LV_UNUSED(class_p);
  80              		.loc 1 126 5 view .LVU18
 127:Drivers/lvgl/src/widgets/lv_line.c **** 
 128:Drivers/lvgl/src/widgets/lv_line.c ****     lv_res_t res;
  81              		.loc 1 128 5 view .LVU19
 129:Drivers/lvgl/src/widgets/lv_line.c **** 
 130:Drivers/lvgl/src/widgets/lv_line.c ****     /*Call the ancestor's event handler*/
 131:Drivers/lvgl/src/widgets/lv_line.c ****     res = lv_obj_event_base(MY_CLASS, e);
  82              		.loc 1 131 5 view .LVU20
 125:Drivers/lvgl/src/widgets/lv_line.c ****     LV_UNUSED(class_p);
  83              		.loc 1 125 1 is_stmt 0 view .LVU21
  84 0000 2DE9F043 		push	{r4, r5, r6, r7, r8, r9, lr}
  85              		.cfi_def_cfa_offset 28
  86              		.cfi_offset 4, -28
  87              		.cfi_offset 5, -24
  88              		.cfi_offset 6, -20
  89              		.cfi_offset 7, -16
  90              		.cfi_offset 8, -12
  91              		.cfi_offset 9, -8
  92              		.cfi_offset 14, -4
  93              		.loc 1 131 11 view .LVU22
ARM GAS  /var/folders/0z/tsy30v1j4xl4_7kw94k978ww0000gn/T//ccsXEBTu.s 			page 5


  94 0004 6248     		ldr	r0, .L35
  95              	.LVL5:
 125:Drivers/lvgl/src/widgets/lv_line.c ****     LV_UNUSED(class_p);
  96              		.loc 1 125 1 view .LVU23
  97 0006 89B0     		sub	sp, sp, #36
  98              		.cfi_def_cfa_offset 64
 125:Drivers/lvgl/src/widgets/lv_line.c ****     LV_UNUSED(class_p);
  99              		.loc 1 125 1 view .LVU24
 100 0008 0C46     		mov	r4, r1
 101              		.loc 1 131 11 view .LVU25
 102 000a FFF7FEFF 		bl	lv_obj_event_base
 103              	.LVL6:
 132:Drivers/lvgl/src/widgets/lv_line.c ****     if(res != LV_RES_OK) return;
 104              		.loc 1 132 5 is_stmt 1 view .LVU26
 105              		.loc 1 132 7 is_stmt 0 view .LVU27
 106 000e 0128     		cmp	r0, #1
 107 0010 02D0     		beq	.L30
 108              	.LVL7:
 109              	.L3:
 133:Drivers/lvgl/src/widgets/lv_line.c **** 
 134:Drivers/lvgl/src/widgets/lv_line.c ****     lv_event_code_t code = lv_event_get_code(e);
 135:Drivers/lvgl/src/widgets/lv_line.c ****     lv_obj_t * obj = lv_event_get_target(e);
 136:Drivers/lvgl/src/widgets/lv_line.c **** 
 137:Drivers/lvgl/src/widgets/lv_line.c ****     if(code == LV_EVENT_REFR_EXT_DRAW_SIZE) {
 138:Drivers/lvgl/src/widgets/lv_line.c ****         /*The corner of the skew lines is out of the intended area*/
 139:Drivers/lvgl/src/widgets/lv_line.c ****         lv_coord_t line_width = lv_obj_get_style_line_width(obj, LV_PART_MAIN);
 140:Drivers/lvgl/src/widgets/lv_line.c ****         lv_coord_t * s = lv_event_get_param(e);
 141:Drivers/lvgl/src/widgets/lv_line.c ****         if(*s < line_width) *s = line_width;
 142:Drivers/lvgl/src/widgets/lv_line.c ****     }
 143:Drivers/lvgl/src/widgets/lv_line.c ****     else if(code == LV_EVENT_GET_SELF_SIZE) {
 144:Drivers/lvgl/src/widgets/lv_line.c ****         lv_line_t * line = (lv_line_t *)obj;
 145:Drivers/lvgl/src/widgets/lv_line.c **** 
 146:Drivers/lvgl/src/widgets/lv_line.c ****         if(line->point_num == 0 || line->point_array == NULL) return;
 147:Drivers/lvgl/src/widgets/lv_line.c **** 
 148:Drivers/lvgl/src/widgets/lv_line.c ****         lv_point_t * p = lv_event_get_param(e);
 149:Drivers/lvgl/src/widgets/lv_line.c ****         lv_coord_t w = 0;
 150:Drivers/lvgl/src/widgets/lv_line.c ****         lv_coord_t h = 0;
 151:Drivers/lvgl/src/widgets/lv_line.c **** 
 152:Drivers/lvgl/src/widgets/lv_line.c ****         uint16_t i;
 153:Drivers/lvgl/src/widgets/lv_line.c ****         for(i = 0; i < line->point_num; i++) {
 154:Drivers/lvgl/src/widgets/lv_line.c ****             w = LV_MAX(line->point_array[i].x, w);
 155:Drivers/lvgl/src/widgets/lv_line.c ****             h = LV_MAX(line->point_array[i].y, h);
 156:Drivers/lvgl/src/widgets/lv_line.c ****         }
 157:Drivers/lvgl/src/widgets/lv_line.c **** 
 158:Drivers/lvgl/src/widgets/lv_line.c ****         lv_coord_t line_width = lv_obj_get_style_line_width(obj, LV_PART_MAIN);
 159:Drivers/lvgl/src/widgets/lv_line.c ****         w += line_width;
 160:Drivers/lvgl/src/widgets/lv_line.c ****         h += line_width;
 161:Drivers/lvgl/src/widgets/lv_line.c ****         p->x = w;
 162:Drivers/lvgl/src/widgets/lv_line.c ****         p->y = h;
 163:Drivers/lvgl/src/widgets/lv_line.c ****     }
 164:Drivers/lvgl/src/widgets/lv_line.c ****     else if(code == LV_EVENT_DRAW_MAIN) {
 165:Drivers/lvgl/src/widgets/lv_line.c ****         lv_line_t * line = (lv_line_t *)obj;
 166:Drivers/lvgl/src/widgets/lv_line.c ****         lv_draw_ctx_t * draw_ctx = lv_event_get_draw_ctx(e);
 167:Drivers/lvgl/src/widgets/lv_line.c **** 
 168:Drivers/lvgl/src/widgets/lv_line.c ****         if(line->point_num == 0 || line->point_array == NULL) return;
 169:Drivers/lvgl/src/widgets/lv_line.c **** 
 170:Drivers/lvgl/src/widgets/lv_line.c ****         lv_area_t area;
ARM GAS  /var/folders/0z/tsy30v1j4xl4_7kw94k978ww0000gn/T//ccsXEBTu.s 			page 6


 171:Drivers/lvgl/src/widgets/lv_line.c ****         lv_obj_get_coords(obj, &area);
 172:Drivers/lvgl/src/widgets/lv_line.c ****         lv_coord_t x_ofs = area.x1 - lv_obj_get_scroll_x(obj);
 173:Drivers/lvgl/src/widgets/lv_line.c ****         lv_coord_t y_ofs = area.y1 - lv_obj_get_scroll_y(obj);
 174:Drivers/lvgl/src/widgets/lv_line.c ****         lv_coord_t h = lv_obj_get_height(obj);
 175:Drivers/lvgl/src/widgets/lv_line.c **** 
 176:Drivers/lvgl/src/widgets/lv_line.c ****         lv_draw_line_dsc_t line_dsc;
 177:Drivers/lvgl/src/widgets/lv_line.c ****         lv_draw_line_dsc_init(&line_dsc);
 178:Drivers/lvgl/src/widgets/lv_line.c ****         lv_obj_init_draw_line_dsc(obj, LV_PART_MAIN, &line_dsc);
 179:Drivers/lvgl/src/widgets/lv_line.c **** 
 180:Drivers/lvgl/src/widgets/lv_line.c ****         /*Read all points and draw the lines*/
 181:Drivers/lvgl/src/widgets/lv_line.c ****         uint16_t i;
 182:Drivers/lvgl/src/widgets/lv_line.c ****         for(i = 0; i < line->point_num - 1; i++) {
 183:Drivers/lvgl/src/widgets/lv_line.c ****             lv_point_t p1;
 184:Drivers/lvgl/src/widgets/lv_line.c ****             lv_point_t p2;
 185:Drivers/lvgl/src/widgets/lv_line.c ****             p1.x = line->point_array[i].x + x_ofs;
 186:Drivers/lvgl/src/widgets/lv_line.c ****             p2.x = line->point_array[i + 1].x + x_ofs;
 187:Drivers/lvgl/src/widgets/lv_line.c **** 
 188:Drivers/lvgl/src/widgets/lv_line.c ****             if(line->y_inv == 0) {
 189:Drivers/lvgl/src/widgets/lv_line.c ****                 p1.y = line->point_array[i].y + y_ofs;
 190:Drivers/lvgl/src/widgets/lv_line.c ****                 p2.y = line->point_array[i + 1].y + y_ofs;
 191:Drivers/lvgl/src/widgets/lv_line.c ****             }
 192:Drivers/lvgl/src/widgets/lv_line.c ****             else {
 193:Drivers/lvgl/src/widgets/lv_line.c ****                 p1.y = h - line->point_array[i].y + y_ofs;
 194:Drivers/lvgl/src/widgets/lv_line.c ****                 p2.y = h - line->point_array[i + 1].y + y_ofs;
 195:Drivers/lvgl/src/widgets/lv_line.c ****             }
 196:Drivers/lvgl/src/widgets/lv_line.c ****             lv_draw_line(draw_ctx, &line_dsc, &p1, &p2);
 197:Drivers/lvgl/src/widgets/lv_line.c ****             line_dsc.round_start = 0;   /*Draw the rounding only on the end points after the first 
 198:Drivers/lvgl/src/widgets/lv_line.c ****         }
 199:Drivers/lvgl/src/widgets/lv_line.c ****     }
 200:Drivers/lvgl/src/widgets/lv_line.c **** }
 110              		.loc 1 200 1 view .LVU28
 111 0012 09B0     		add	sp, sp, #36
 112              		.cfi_remember_state
 113              		.cfi_def_cfa_offset 28
 114              		@ sp needed
 115 0014 BDE8F083 		pop	{r4, r5, r6, r7, r8, r9, pc}
 116              	.LVL8:
 117              	.L30:
 118              		.cfi_restore_state
 119              	.LBB28:
 120              	.LBI28:
 124:Drivers/lvgl/src/widgets/lv_line.c **** {
 121              		.loc 1 124 13 is_stmt 1 view .LVU29
 122              	.LBB29:
 134:Drivers/lvgl/src/widgets/lv_line.c ****     lv_obj_t * obj = lv_event_get_target(e);
 123              		.loc 1 134 5 view .LVU30
 134:Drivers/lvgl/src/widgets/lv_line.c ****     lv_obj_t * obj = lv_event_get_target(e);
 124              		.loc 1 134 28 is_stmt 0 view .LVU31
 125 0018 2046     		mov	r0, r4
 126              	.LVL9:
 134:Drivers/lvgl/src/widgets/lv_line.c ****     lv_obj_t * obj = lv_event_get_target(e);
 127              		.loc 1 134 28 view .LVU32
 128 001a FFF7FEFF 		bl	lv_event_get_code
 129              	.LVL10:
 130 001e 0646     		mov	r6, r0
 135:Drivers/lvgl/src/widgets/lv_line.c **** 
 131              		.loc 1 135 22 view .LVU33
ARM GAS  /var/folders/0z/tsy30v1j4xl4_7kw94k978ww0000gn/T//ccsXEBTu.s 			page 7


 132 0020 2046     		mov	r0, r4
 133              	.LVL11:
 135:Drivers/lvgl/src/widgets/lv_line.c **** 
 134              		.loc 1 135 5 is_stmt 1 view .LVU34
 135:Drivers/lvgl/src/widgets/lv_line.c **** 
 135              		.loc 1 135 22 is_stmt 0 view .LVU35
 136 0022 FFF7FEFF 		bl	lv_event_get_target
 137              	.LVL12:
 137:Drivers/lvgl/src/widgets/lv_line.c ****         /*The corner of the skew lines is out of the intended area*/
 138              		.loc 1 137 7 view .LVU36
 139 0026 132E     		cmp	r6, #19
 135:Drivers/lvgl/src/widgets/lv_line.c **** 
 140              		.loc 1 135 22 view .LVU37
 141 0028 0546     		mov	r5, r0
 142              	.LVL13:
 137:Drivers/lvgl/src/widgets/lv_line.c ****         /*The corner of the skew lines is out of the intended area*/
 143              		.loc 1 137 5 is_stmt 1 view .LVU38
 137:Drivers/lvgl/src/widgets/lv_line.c ****         /*The corner of the skew lines is out of the intended area*/
 144              		.loc 1 137 7 is_stmt 0 view .LVU39
 145 002a 00F09F80 		beq	.L31
 143:Drivers/lvgl/src/widgets/lv_line.c ****         lv_line_t * line = (lv_line_t *)obj;
 146              		.loc 1 143 10 is_stmt 1 view .LVU40
 143:Drivers/lvgl/src/widgets/lv_line.c ****         lv_line_t * line = (lv_line_t *)obj;
 147              		.loc 1 143 12 is_stmt 0 view .LVU41
 148 002e 2C2E     		cmp	r6, #44
 149 0030 6BD0     		beq	.L32
 164:Drivers/lvgl/src/widgets/lv_line.c ****         lv_line_t * line = (lv_line_t *)obj;
 150              		.loc 1 164 10 is_stmt 1 view .LVU42
 164:Drivers/lvgl/src/widgets/lv_line.c ****         lv_line_t * line = (lv_line_t *)obj;
 151              		.loc 1 164 12 is_stmt 0 view .LVU43
 152 0032 152E     		cmp	r6, #21
 153 0034 EDD1     		bne	.L3
 154              	.LBB30:
 165:Drivers/lvgl/src/widgets/lv_line.c ****         lv_draw_ctx_t * draw_ctx = lv_event_get_draw_ctx(e);
 155              		.loc 1 165 9 is_stmt 1 view .LVU44
 156              	.LVL14:
 166:Drivers/lvgl/src/widgets/lv_line.c **** 
 157              		.loc 1 166 9 view .LVU45
 166:Drivers/lvgl/src/widgets/lv_line.c **** 
 158              		.loc 1 166 36 is_stmt 0 view .LVU46
 159 0036 2046     		mov	r0, r4
 160              	.LVL15:
 166:Drivers/lvgl/src/widgets/lv_line.c **** 
 161              		.loc 1 166 36 view .LVU47
 162 0038 FFF7FEFF 		bl	lv_event_get_draw_ctx
 163              	.LVL16:
 168:Drivers/lvgl/src/widgets/lv_line.c **** 
 164              		.loc 1 168 11 view .LVU48
 165 003c 2B8D     		ldrh	r3, [r5, #40]
 166:Drivers/lvgl/src/widgets/lv_line.c **** 
 166              		.loc 1 166 36 view .LVU49
 167 003e 0746     		mov	r7, r0
 168              	.LVL17:
 168:Drivers/lvgl/src/widgets/lv_line.c **** 
 169              		.loc 1 168 9 is_stmt 1 view .LVU50
 168:Drivers/lvgl/src/widgets/lv_line.c **** 
 170              		.loc 1 168 11 is_stmt 0 view .LVU51
ARM GAS  /var/folders/0z/tsy30v1j4xl4_7kw94k978ww0000gn/T//ccsXEBTu.s 			page 8


 171 0040 002B     		cmp	r3, #0
 172 0042 E6D0     		beq	.L3
 168:Drivers/lvgl/src/widgets/lv_line.c **** 
 173              		.loc 1 168 33 view .LVU52
 174 0044 6B6A     		ldr	r3, [r5, #36]
 175 0046 002B     		cmp	r3, #0
 176 0048 E3D0     		beq	.L3
 170:Drivers/lvgl/src/widgets/lv_line.c ****         lv_obj_get_coords(obj, &area);
 177              		.loc 1 170 9 is_stmt 1 view .LVU53
 171:Drivers/lvgl/src/widgets/lv_line.c ****         lv_coord_t x_ofs = area.x1 - lv_obj_get_scroll_x(obj);
 178              		.loc 1 171 9 view .LVU54
 179 004a 03A9     		add	r1, sp, #12
 180 004c 2846     		mov	r0, r5
 181              	.LVL18:
 171:Drivers/lvgl/src/widgets/lv_line.c ****         lv_coord_t x_ofs = area.x1 - lv_obj_get_scroll_x(obj);
 182              		.loc 1 171 9 is_stmt 0 view .LVU55
 183 004e FFF7FEFF 		bl	lv_obj_get_coords
 184              	.LVL19:
 172:Drivers/lvgl/src/widgets/lv_line.c ****         lv_coord_t y_ofs = area.y1 - lv_obj_get_scroll_y(obj);
 185              		.loc 1 172 9 is_stmt 1 view .LVU56
 172:Drivers/lvgl/src/widgets/lv_line.c ****         lv_coord_t y_ofs = area.y1 - lv_obj_get_scroll_y(obj);
 186              		.loc 1 172 38 is_stmt 0 view .LVU57
 187 0052 2846     		mov	r0, r5
 172:Drivers/lvgl/src/widgets/lv_line.c ****         lv_coord_t y_ofs = area.y1 - lv_obj_get_scroll_y(obj);
 188              		.loc 1 172 32 view .LVU58
 189 0054 BDF80C60 		ldrh	r6, [sp, #12]
 190              	.LVL20:
 172:Drivers/lvgl/src/widgets/lv_line.c ****         lv_coord_t y_ofs = area.y1 - lv_obj_get_scroll_y(obj);
 191              		.loc 1 172 38 view .LVU59
 192 0058 FFF7FEFF 		bl	lv_obj_get_scroll_x
 193              	.LVL21:
 172:Drivers/lvgl/src/widgets/lv_line.c ****         lv_coord_t y_ofs = area.y1 - lv_obj_get_scroll_y(obj);
 194              		.loc 1 172 36 view .LVU60
 195 005c 361A     		subs	r6, r6, r0
 173:Drivers/lvgl/src/widgets/lv_line.c ****         lv_coord_t h = lv_obj_get_height(obj);
 196              		.loc 1 173 38 view .LVU61
 197 005e 2846     		mov	r0, r5
 173:Drivers/lvgl/src/widgets/lv_line.c ****         lv_coord_t h = lv_obj_get_height(obj);
 198              		.loc 1 173 32 view .LVU62
 199 0060 BDF80E90 		ldrh	r9, [sp, #14]
 173:Drivers/lvgl/src/widgets/lv_line.c ****         lv_coord_t h = lv_obj_get_height(obj);
 200              		.loc 1 173 38 view .LVU63
 201 0064 FFF7FEFF 		bl	lv_obj_get_scroll_y
 202              	.LVL22:
 173:Drivers/lvgl/src/widgets/lv_line.c ****         lv_coord_t h = lv_obj_get_height(obj);
 203              		.loc 1 173 36 view .LVU64
 204 0068 A9EB0009 		sub	r9, r9, r0
 174:Drivers/lvgl/src/widgets/lv_line.c **** 
 205              		.loc 1 174 24 view .LVU65
 206 006c 2846     		mov	r0, r5
 207 006e FFF7FEFF 		bl	lv_obj_get_height
 208              	.LVL23:
 209 0072 0446     		mov	r4, r0
 210              	.LVL24:
 177:Drivers/lvgl/src/widgets/lv_line.c ****         lv_obj_init_draw_line_dsc(obj, LV_PART_MAIN, &line_dsc);
 211              		.loc 1 177 9 view .LVU66
 212 0074 05A8     		add	r0, sp, #20
ARM GAS  /var/folders/0z/tsy30v1j4xl4_7kw94k978ww0000gn/T//ccsXEBTu.s 			page 9


 213 0076 FFF7FEFF 		bl	lv_draw_line_dsc_init
 214              	.LVL25:
 178:Drivers/lvgl/src/widgets/lv_line.c **** 
 215              		.loc 1 178 9 view .LVU67
 216 007a 05AA     		add	r2, sp, #20
 217 007c 0021     		movs	r1, #0
 218 007e 2846     		mov	r0, r5
 219 0080 FFF7FEFF 		bl	lv_obj_init_draw_line_dsc
 220              	.LVL26:
 182:Drivers/lvgl/src/widgets/lv_line.c ****             lv_point_t p1;
 221              		.loc 1 182 22 view .LVU68
 222 0084 2B8D     		ldrh	r3, [r5, #40]
 223 0086 012B     		cmp	r3, #1
 172:Drivers/lvgl/src/widgets/lv_line.c ****         lv_coord_t y_ofs = area.y1 - lv_obj_get_scroll_y(obj);
 224              		.loc 1 172 36 view .LVU69
 225 0088 B6B2     		uxth	r6, r6
 226              	.LVL27:
 173:Drivers/lvgl/src/widgets/lv_line.c ****         lv_coord_t h = lv_obj_get_height(obj);
 227              		.loc 1 173 9 is_stmt 1 view .LVU70
 173:Drivers/lvgl/src/widgets/lv_line.c ****         lv_coord_t h = lv_obj_get_height(obj);
 228              		.loc 1 173 36 is_stmt 0 view .LVU71
 229 008a 1FFA89F9 		uxth	r9, r9
 230              	.LVL28:
 174:Drivers/lvgl/src/widgets/lv_line.c **** 
 231              		.loc 1 174 9 is_stmt 1 view .LVU72
 176:Drivers/lvgl/src/widgets/lv_line.c ****         lv_draw_line_dsc_init(&line_dsc);
 232              		.loc 1 176 9 view .LVU73
 177:Drivers/lvgl/src/widgets/lv_line.c ****         lv_obj_init_draw_line_dsc(obj, LV_PART_MAIN, &line_dsc);
 233              		.loc 1 177 9 view .LVU74
 178:Drivers/lvgl/src/widgets/lv_line.c **** 
 234              		.loc 1 178 9 view .LVU75
 181:Drivers/lvgl/src/widgets/lv_line.c ****         for(i = 0; i < line->point_num - 1; i++) {
 235              		.loc 1 181 9 view .LVU76
 182:Drivers/lvgl/src/widgets/lv_line.c ****             lv_point_t p1;
 236              		.loc 1 182 9 view .LVU77
 182:Drivers/lvgl/src/widgets/lv_line.c ****             lv_point_t p1;
 237              		.loc 1 182 22 view .LVU78
 238 008e C0D9     		bls	.L3
 239 0090 09EB0400 		add	r0, r9, r4
 240 0094 1FFA80F8 		uxth	r8, r0
 182:Drivers/lvgl/src/widgets/lv_line.c ****             lv_point_t p1;
 241              		.loc 1 182 15 is_stmt 0 view .LVU79
 242 0098 0024     		movs	r4, #0
 243              	.LVL29:
 182:Drivers/lvgl/src/widgets/lv_line.c ****             lv_point_t p1;
 244              		.loc 1 182 15 view .LVU80
 245 009a 19E0     		b	.L15
 246              	.LVL30:
 247              	.L33:
 248              	.LBB31:
 189:Drivers/lvgl/src/widgets/lv_line.c ****                 p2.y = line->point_array[i + 1].y + y_ofs;
 249              		.loc 1 189 47 view .LVU81
 250 009c 4B44     		add	r3, r3, r9
 189:Drivers/lvgl/src/widgets/lv_line.c ****                 p2.y = line->point_array[i + 1].y + y_ofs;
 251              		.loc 1 189 22 view .LVU82
 252 009e ADF80630 		strh	r3, [sp, #6]	@ movhi
 190:Drivers/lvgl/src/widgets/lv_line.c ****             }
ARM GAS  /var/folders/0z/tsy30v1j4xl4_7kw94k978ww0000gn/T//ccsXEBTu.s 			page 10


 253              		.loc 1 190 17 is_stmt 1 view .LVU83
 190:Drivers/lvgl/src/widgets/lv_line.c ****             }
 254              		.loc 1 190 51 is_stmt 0 view .LVU84
 255 00a2 5388     		ldrh	r3, [r2, #2]
 256 00a4 4B44     		add	r3, r3, r9
 257 00a6 1BB2     		sxth	r3, r3
 258              	.L14:
 190:Drivers/lvgl/src/widgets/lv_line.c ****             }
 259              		.loc 1 190 22 view .LVU85
 260 00a8 ADF80A30 		strh	r3, [sp, #10]	@ movhi
 196:Drivers/lvgl/src/widgets/lv_line.c ****             line_dsc.round_start = 0;   /*Draw the rounding only on the end points after the first 
 261              		.loc 1 196 13 is_stmt 1 view .LVU86
 262 00ac 01AA     		add	r2, sp, #4
 263 00ae 02AB     		add	r3, sp, #8
 264 00b0 05A9     		add	r1, sp, #20
 265 00b2 3846     		mov	r0, r7
 266 00b4 FFF7FEFF 		bl	lv_draw_line
 267              	.LVL31:
 197:Drivers/lvgl/src/widgets/lv_line.c ****         }
 268              		.loc 1 197 13 view .LVU87
 197:Drivers/lvgl/src/widgets/lv_line.c ****         }
 269              		.loc 1 197 34 is_stmt 0 view .LVU88
 270 00b8 9DF81D30 		ldrb	r3, [sp, #29]	@ zero_extendqisi2
 271 00bc 6FF38203 		bfc	r3, #2, #1
 272 00c0 8DF81D30 		strb	r3, [sp, #29]
 273              	.LBE31:
 182:Drivers/lvgl/src/widgets/lv_line.c ****             lv_point_t p1;
 274              		.loc 1 182 46 is_stmt 1 view .LVU89
 182:Drivers/lvgl/src/widgets/lv_line.c ****             lv_point_t p1;
 275              		.loc 1 182 28 is_stmt 0 view .LVU90
 276 00c4 2B8D     		ldrh	r3, [r5, #40]
 182:Drivers/lvgl/src/widgets/lv_line.c ****             lv_point_t p1;
 277              		.loc 1 182 46 view .LVU91
 278 00c6 0134     		adds	r4, r4, #1
 279              	.LVL32:
 182:Drivers/lvgl/src/widgets/lv_line.c ****             lv_point_t p1;
 280              		.loc 1 182 46 view .LVU92
 281 00c8 A4B2     		uxth	r4, r4
 282              	.LVL33:
 182:Drivers/lvgl/src/widgets/lv_line.c ****             lv_point_t p1;
 283              		.loc 1 182 22 is_stmt 1 view .LVU93
 182:Drivers/lvgl/src/widgets/lv_line.c ****             lv_point_t p1;
 284              		.loc 1 182 40 is_stmt 0 view .LVU94
 285 00ca 013B     		subs	r3, r3, #1
 182:Drivers/lvgl/src/widgets/lv_line.c ****             lv_point_t p1;
 286              		.loc 1 182 22 view .LVU95
 287 00cc 9C42     		cmp	r4, r3
 288 00ce A0DA     		bge	.L3
 289              	.LVL34:
 290              	.L15:
 291              	.LBB32:
 183:Drivers/lvgl/src/widgets/lv_line.c ****             lv_point_t p2;
 292              		.loc 1 183 13 is_stmt 1 view .LVU96
 184:Drivers/lvgl/src/widgets/lv_line.c ****             p1.x = line->point_array[i].x + x_ofs;
 293              		.loc 1 184 13 view .LVU97
 185:Drivers/lvgl/src/widgets/lv_line.c ****             p2.x = line->point_array[i + 1].x + x_ofs;
 294              		.loc 1 185 13 view .LVU98
ARM GAS  /var/folders/0z/tsy30v1j4xl4_7kw94k978ww0000gn/T//ccsXEBTu.s 			page 11


 189:Drivers/lvgl/src/widgets/lv_line.c ****                 p2.y = line->point_array[i + 1].y + y_ofs;
 295              		.loc 1 189 17 view .LVU99
 193:Drivers/lvgl/src/widgets/lv_line.c ****                 p2.y = h - line->point_array[i + 1].y + y_ofs;
 296              		.loc 1 193 17 view .LVU100
 185:Drivers/lvgl/src/widgets/lv_line.c ****             p2.x = line->point_array[i + 1].x + x_ofs;
 297              		.loc 1 185 24 is_stmt 0 view .LVU101
 298 00d0 6B6A     		ldr	r3, [r5, #36]
 185:Drivers/lvgl/src/widgets/lv_line.c ****             p2.x = line->point_array[i + 1].x + x_ofs;
 299              		.loc 1 185 43 view .LVU102
 300 00d2 33F82410 		ldrh	r1, [r3, r4, lsl #2]
 185:Drivers/lvgl/src/widgets/lv_line.c ****             p2.x = line->point_array[i + 1].x + x_ofs;
 301              		.loc 1 185 37 view .LVU103
 302 00d6 A200     		lsls	r2, r4, #2
 186:Drivers/lvgl/src/widgets/lv_line.c **** 
 303              		.loc 1 186 37 view .LVU104
 304 00d8 0432     		adds	r2, r2, #4
 185:Drivers/lvgl/src/widgets/lv_line.c ****             p2.x = line->point_array[i + 1].x + x_ofs;
 305              		.loc 1 185 43 view .LVU105
 306 00da 3144     		add	r1, r1, r6
 185:Drivers/lvgl/src/widgets/lv_line.c ****             p2.x = line->point_array[i + 1].x + x_ofs;
 307              		.loc 1 185 18 view .LVU106
 308 00dc ADF80410 		strh	r1, [sp, #4]	@ movhi
 186:Drivers/lvgl/src/widgets/lv_line.c **** 
 309              		.loc 1 186 13 is_stmt 1 view .LVU107
 186:Drivers/lvgl/src/widgets/lv_line.c **** 
 310              		.loc 1 186 47 is_stmt 0 view .LVU108
 311 00e0 995A     		ldrh	r1, [r3, r2]
 312 00e2 3144     		add	r1, r1, r6
 186:Drivers/lvgl/src/widgets/lv_line.c **** 
 313              		.loc 1 186 18 view .LVU109
 314 00e4 ADF80810 		strh	r1, [sp, #8]	@ movhi
 188:Drivers/lvgl/src/widgets/lv_line.c ****                 p1.y = line->point_array[i].y + y_ofs;
 315              		.loc 1 188 13 is_stmt 1 view .LVU110
 188:Drivers/lvgl/src/widgets/lv_line.c ****                 p1.y = line->point_array[i].y + y_ofs;
 316              		.loc 1 188 28 is_stmt 0 view .LVU111
 317 00e8 95F82A10 		ldrb	r1, [r5, #42]	@ zero_extendqisi2
 186:Drivers/lvgl/src/widgets/lv_line.c **** 
 318              		.loc 1 186 37 view .LVU112
 319 00ec 1A44     		add	r2, r2, r3
 185:Drivers/lvgl/src/widgets/lv_line.c ****             p2.x = line->point_array[i + 1].x + x_ofs;
 320              		.loc 1 185 37 view .LVU113
 321 00ee 03EB8403 		add	r3, r3, r4, lsl #2
 188:Drivers/lvgl/src/widgets/lv_line.c ****                 p1.y = line->point_array[i].y + y_ofs;
 322              		.loc 1 188 15 view .LVU114
 323 00f2 C907     		lsls	r1, r1, #31
 189:Drivers/lvgl/src/widgets/lv_line.c ****                 p2.y = line->point_array[i + 1].y + y_ofs;
 324              		.loc 1 189 47 view .LVU115
 325 00f4 5B88     		ldrh	r3, [r3, #2]
 188:Drivers/lvgl/src/widgets/lv_line.c ****                 p1.y = line->point_array[i].y + y_ofs;
 326              		.loc 1 188 15 view .LVU116
 327 00f6 D1D5     		bpl	.L33
 193:Drivers/lvgl/src/widgets/lv_line.c ****                 p2.y = h - line->point_array[i + 1].y + y_ofs;
 328              		.loc 1 193 51 view .LVU117
 329 00f8 A8EB0303 		sub	r3, r8, r3
 193:Drivers/lvgl/src/widgets/lv_line.c ****                 p2.y = h - line->point_array[i + 1].y + y_ofs;
 330              		.loc 1 193 22 view .LVU118
 331 00fc ADF80630 		strh	r3, [sp, #6]	@ movhi
ARM GAS  /var/folders/0z/tsy30v1j4xl4_7kw94k978ww0000gn/T//ccsXEBTu.s 			page 12


 194:Drivers/lvgl/src/widgets/lv_line.c ****             }
 332              		.loc 1 194 17 is_stmt 1 view .LVU119
 194:Drivers/lvgl/src/widgets/lv_line.c ****             }
 333              		.loc 1 194 55 is_stmt 0 view .LVU120
 334 0100 5388     		ldrh	r3, [r2, #2]
 335 0102 A8EB0303 		sub	r3, r8, r3
 336 0106 1BB2     		sxth	r3, r3
 337 0108 CEE7     		b	.L14
 338              	.LVL35:
 339              	.L32:
 194:Drivers/lvgl/src/widgets/lv_line.c ****             }
 340              		.loc 1 194 55 view .LVU121
 341              	.LBE32:
 342              	.LBE30:
 343              	.LBB33:
 144:Drivers/lvgl/src/widgets/lv_line.c **** 
 344              		.loc 1 144 9 is_stmt 1 view .LVU122
 146:Drivers/lvgl/src/widgets/lv_line.c **** 
 345              		.loc 1 146 9 view .LVU123
 146:Drivers/lvgl/src/widgets/lv_line.c **** 
 346              		.loc 1 146 11 is_stmt 0 view .LVU124
 347 010a 038D     		ldrh	r3, [r0, #40]
 348 010c 002B     		cmp	r3, #0
 349 010e 80D0     		beq	.L3
 146:Drivers/lvgl/src/widgets/lv_line.c **** 
 350              		.loc 1 146 33 view .LVU125
 351 0110 436A     		ldr	r3, [r0, #36]
 352 0112 002B     		cmp	r3, #0
 353 0114 3FF47DAF 		beq	.L3
 148:Drivers/lvgl/src/widgets/lv_line.c ****         lv_coord_t w = 0;
 354              		.loc 1 148 9 is_stmt 1 view .LVU126
 148:Drivers/lvgl/src/widgets/lv_line.c ****         lv_coord_t w = 0;
 355              		.loc 1 148 26 is_stmt 0 view .LVU127
 356 0118 2046     		mov	r0, r4
 357              	.LVL36:
 148:Drivers/lvgl/src/widgets/lv_line.c ****         lv_coord_t w = 0;
 358              		.loc 1 148 26 view .LVU128
 359 011a FFF7FEFF 		bl	lv_event_get_param
 360              	.LVL37:
 153:Drivers/lvgl/src/widgets/lv_line.c ****             w = LV_MAX(line->point_array[i].x, w);
 361              		.loc 1 153 28 view .LVU129
 362 011e 2C8D     		ldrh	r4, [r5, #40]
 363              	.LVL38:
 148:Drivers/lvgl/src/widgets/lv_line.c ****         lv_coord_t w = 0;
 364              		.loc 1 148 26 view .LVU130
 365 0120 0646     		mov	r6, r0
 366              	.LVL39:
 149:Drivers/lvgl/src/widgets/lv_line.c ****         lv_coord_t h = 0;
 367              		.loc 1 149 9 is_stmt 1 view .LVU131
 150:Drivers/lvgl/src/widgets/lv_line.c **** 
 368              		.loc 1 150 9 view .LVU132
 152:Drivers/lvgl/src/widgets/lv_line.c ****         for(i = 0; i < line->point_num; i++) {
 369              		.loc 1 152 9 view .LVU133
 153:Drivers/lvgl/src/widgets/lv_line.c ****             w = LV_MAX(line->point_array[i].x, w);
 370              		.loc 1 153 9 view .LVU134
 153:Drivers/lvgl/src/widgets/lv_line.c ****             w = LV_MAX(line->point_array[i].x, w);
 371              		.loc 1 153 22 view .LVU135
ARM GAS  /var/folders/0z/tsy30v1j4xl4_7kw94k978ww0000gn/T//ccsXEBTu.s 			page 13


 372 0122 9CB3     		cbz	r4, .L16
 373 0124 696A     		ldr	r1, [r5, #36]
 374 0126 621E     		subs	r2, r4, #1
 375 0128 92B2     		uxth	r2, r2
 376 012a 0B1D     		adds	r3, r1, #4
 150:Drivers/lvgl/src/widgets/lv_line.c **** 
 377              		.loc 1 150 20 is_stmt 0 view .LVU136
 378 012c 0020     		movs	r0, #0
 379              	.LVL40:
 150:Drivers/lvgl/src/widgets/lv_line.c **** 
 380              		.loc 1 150 20 view .LVU137
 381 012e 03EB820C 		add	ip, r3, r2, lsl #2
 149:Drivers/lvgl/src/widgets/lv_line.c ****         lv_coord_t h = 0;
 382              		.loc 1 149 20 view .LVU138
 383 0132 0246     		mov	r2, r0
 384 0134 00E0     		b	.L10
 385              	.LVL41:
 386              	.L34:
 149:Drivers/lvgl/src/widgets/lv_line.c ****         lv_coord_t h = 0;
 387              		.loc 1 149 20 view .LVU139
 388 0136 0433     		adds	r3, r3, #4
 389              	.LVL42:
 390              	.L10:
 154:Drivers/lvgl/src/widgets/lv_line.c ****             h = LV_MAX(line->point_array[i].y, h);
 391              		.loc 1 154 13 is_stmt 1 view .LVU140
 154:Drivers/lvgl/src/widgets/lv_line.c ****             h = LV_MAX(line->point_array[i].y, h);
 392              		.loc 1 154 15 is_stmt 0 view .LVU141
 393 0138 B1F90070 		ldrsh	r7, [r1]
 155:Drivers/lvgl/src/widgets/lv_line.c ****         }
 394              		.loc 1 155 15 view .LVU142
 395 013c B1F90240 		ldrsh	r4, [r1, #2]
 154:Drivers/lvgl/src/widgets/lv_line.c ****             h = LV_MAX(line->point_array[i].y, h);
 396              		.loc 1 154 15 view .LVU143
 397 0140 BA42     		cmp	r2, r7
 398 0142 B8BF     		it	lt
 399 0144 3A46     		movlt	r2, r7
 400              	.LVL43:
 155:Drivers/lvgl/src/widgets/lv_line.c ****         }
 401              		.loc 1 155 13 is_stmt 1 view .LVU144
 155:Drivers/lvgl/src/widgets/lv_line.c ****         }
 402              		.loc 1 155 15 is_stmt 0 view .LVU145
 403 0146 A042     		cmp	r0, r4
 404 0148 B8BF     		it	lt
 405 014a 2046     		movlt	r0, r4
 406              	.LVL44:
 153:Drivers/lvgl/src/widgets/lv_line.c ****             w = LV_MAX(line->point_array[i].x, w);
 407              		.loc 1 153 42 is_stmt 1 view .LVU146
 153:Drivers/lvgl/src/widgets/lv_line.c ****             w = LV_MAX(line->point_array[i].x, w);
 408              		.loc 1 153 22 view .LVU147
 153:Drivers/lvgl/src/widgets/lv_line.c ****             w = LV_MAX(line->point_array[i].x, w);
 409              		.loc 1 153 22 is_stmt 0 view .LVU148
 410 014c 6345     		cmp	r3, ip
 411 014e 1946     		mov	r1, r3
 412 0150 F1D1     		bne	.L34
 159:Drivers/lvgl/src/widgets/lv_line.c ****         h += line_width;
 413              		.loc 1 159 11 view .LVU149
 414 0152 94B2     		uxth	r4, r2
ARM GAS  /var/folders/0z/tsy30v1j4xl4_7kw94k978ww0000gn/T//ccsXEBTu.s 			page 14


 160:Drivers/lvgl/src/widgets/lv_line.c ****         p->x = w;
 415              		.loc 1 160 11 view .LVU150
 416 0154 87B2     		uxth	r7, r0
 417              	.LVL45:
 418              	.L9:
 158:Drivers/lvgl/src/widgets/lv_line.c ****         w += line_width;
 419              		.loc 1 158 9 is_stmt 1 view .LVU151
 420              	.LBB34:
 421              	.LBI34:
 422              		.file 2 "Drivers/lvgl/src/widgets/../core/lv_obj_style_gen.h"
   1:Drivers/lvgl/src/widgets/../core/lv_obj_style_gen.h **** static inline lv_coord_t lv_obj_get_style_width(const struct _lv_obj_t * obj, uint32_t part)
   2:Drivers/lvgl/src/widgets/../core/lv_obj_style_gen.h **** {
   3:Drivers/lvgl/src/widgets/../core/lv_obj_style_gen.h ****     lv_style_value_t v = lv_obj_get_style_prop(obj, part, LV_STYLE_WIDTH);
   4:Drivers/lvgl/src/widgets/../core/lv_obj_style_gen.h ****     return (lv_coord_t)v.num;
   5:Drivers/lvgl/src/widgets/../core/lv_obj_style_gen.h **** }
   6:Drivers/lvgl/src/widgets/../core/lv_obj_style_gen.h **** 
   7:Drivers/lvgl/src/widgets/../core/lv_obj_style_gen.h **** static inline lv_coord_t lv_obj_get_style_min_width(const struct _lv_obj_t * obj, uint32_t part)
   8:Drivers/lvgl/src/widgets/../core/lv_obj_style_gen.h **** {
   9:Drivers/lvgl/src/widgets/../core/lv_obj_style_gen.h ****     lv_style_value_t v = lv_obj_get_style_prop(obj, part, LV_STYLE_MIN_WIDTH);
  10:Drivers/lvgl/src/widgets/../core/lv_obj_style_gen.h ****     return (lv_coord_t)v.num;
  11:Drivers/lvgl/src/widgets/../core/lv_obj_style_gen.h **** }
  12:Drivers/lvgl/src/widgets/../core/lv_obj_style_gen.h **** 
  13:Drivers/lvgl/src/widgets/../core/lv_obj_style_gen.h **** static inline lv_coord_t lv_obj_get_style_max_width(const struct _lv_obj_t * obj, uint32_t part)
  14:Drivers/lvgl/src/widgets/../core/lv_obj_style_gen.h **** {
  15:Drivers/lvgl/src/widgets/../core/lv_obj_style_gen.h ****     lv_style_value_t v = lv_obj_get_style_prop(obj, part, LV_STYLE_MAX_WIDTH);
  16:Drivers/lvgl/src/widgets/../core/lv_obj_style_gen.h ****     return (lv_coord_t)v.num;
  17:Drivers/lvgl/src/widgets/../core/lv_obj_style_gen.h **** }
  18:Drivers/lvgl/src/widgets/../core/lv_obj_style_gen.h **** 
  19:Drivers/lvgl/src/widgets/../core/lv_obj_style_gen.h **** static inline lv_coord_t lv_obj_get_style_height(const struct _lv_obj_t * obj, uint32_t part)
  20:Drivers/lvgl/src/widgets/../core/lv_obj_style_gen.h **** {
  21:Drivers/lvgl/src/widgets/../core/lv_obj_style_gen.h ****     lv_style_value_t v = lv_obj_get_style_prop(obj, part, LV_STYLE_HEIGHT);
  22:Drivers/lvgl/src/widgets/../core/lv_obj_style_gen.h ****     return (lv_coord_t)v.num;
  23:Drivers/lvgl/src/widgets/../core/lv_obj_style_gen.h **** }
  24:Drivers/lvgl/src/widgets/../core/lv_obj_style_gen.h **** 
  25:Drivers/lvgl/src/widgets/../core/lv_obj_style_gen.h **** static inline lv_coord_t lv_obj_get_style_min_height(const struct _lv_obj_t * obj, uint32_t part)
  26:Drivers/lvgl/src/widgets/../core/lv_obj_style_gen.h **** {
  27:Drivers/lvgl/src/widgets/../core/lv_obj_style_gen.h ****     lv_style_value_t v = lv_obj_get_style_prop(obj, part, LV_STYLE_MIN_HEIGHT);
  28:Drivers/lvgl/src/widgets/../core/lv_obj_style_gen.h ****     return (lv_coord_t)v.num;
  29:Drivers/lvgl/src/widgets/../core/lv_obj_style_gen.h **** }
  30:Drivers/lvgl/src/widgets/../core/lv_obj_style_gen.h **** 
  31:Drivers/lvgl/src/widgets/../core/lv_obj_style_gen.h **** static inline lv_coord_t lv_obj_get_style_max_height(const struct _lv_obj_t * obj, uint32_t part)
  32:Drivers/lvgl/src/widgets/../core/lv_obj_style_gen.h **** {
  33:Drivers/lvgl/src/widgets/../core/lv_obj_style_gen.h ****     lv_style_value_t v = lv_obj_get_style_prop(obj, part, LV_STYLE_MAX_HEIGHT);
  34:Drivers/lvgl/src/widgets/../core/lv_obj_style_gen.h ****     return (lv_coord_t)v.num;
  35:Drivers/lvgl/src/widgets/../core/lv_obj_style_gen.h **** }
  36:Drivers/lvgl/src/widgets/../core/lv_obj_style_gen.h **** 
  37:Drivers/lvgl/src/widgets/../core/lv_obj_style_gen.h **** static inline lv_coord_t lv_obj_get_style_x(const struct _lv_obj_t * obj, uint32_t part)
  38:Drivers/lvgl/src/widgets/../core/lv_obj_style_gen.h **** {
  39:Drivers/lvgl/src/widgets/../core/lv_obj_style_gen.h ****     lv_style_value_t v = lv_obj_get_style_prop(obj, part, LV_STYLE_X);
  40:Drivers/lvgl/src/widgets/../core/lv_obj_style_gen.h ****     return (lv_coord_t)v.num;
  41:Drivers/lvgl/src/widgets/../core/lv_obj_style_gen.h **** }
  42:Drivers/lvgl/src/widgets/../core/lv_obj_style_gen.h **** 
  43:Drivers/lvgl/src/widgets/../core/lv_obj_style_gen.h **** static inline lv_coord_t lv_obj_get_style_y(const struct _lv_obj_t * obj, uint32_t part)
  44:Drivers/lvgl/src/widgets/../core/lv_obj_style_gen.h **** {
  45:Drivers/lvgl/src/widgets/../core/lv_obj_style_gen.h ****     lv_style_value_t v = lv_obj_get_style_prop(obj, part, LV_STYLE_Y);
  46:Drivers/lvgl/src/widgets/../core/lv_obj_style_gen.h ****     return (lv_coord_t)v.num;
  47:Drivers/lvgl/src/widgets/../core/lv_obj_style_gen.h **** }
ARM GAS  /var/folders/0z/tsy30v1j4xl4_7kw94k978ww0000gn/T//ccsXEBTu.s 			page 15


  48:Drivers/lvgl/src/widgets/../core/lv_obj_style_gen.h **** 
  49:Drivers/lvgl/src/widgets/../core/lv_obj_style_gen.h **** static inline lv_align_t lv_obj_get_style_align(const struct _lv_obj_t * obj, uint32_t part)
  50:Drivers/lvgl/src/widgets/../core/lv_obj_style_gen.h **** {
  51:Drivers/lvgl/src/widgets/../core/lv_obj_style_gen.h ****     lv_style_value_t v = lv_obj_get_style_prop(obj, part, LV_STYLE_ALIGN);
  52:Drivers/lvgl/src/widgets/../core/lv_obj_style_gen.h ****     return (lv_align_t)v.num;
  53:Drivers/lvgl/src/widgets/../core/lv_obj_style_gen.h **** }
  54:Drivers/lvgl/src/widgets/../core/lv_obj_style_gen.h **** 
  55:Drivers/lvgl/src/widgets/../core/lv_obj_style_gen.h **** static inline lv_coord_t lv_obj_get_style_transform_width(const struct _lv_obj_t * obj, uint32_t pa
  56:Drivers/lvgl/src/widgets/../core/lv_obj_style_gen.h **** {
  57:Drivers/lvgl/src/widgets/../core/lv_obj_style_gen.h ****     lv_style_value_t v = lv_obj_get_style_prop(obj, part, LV_STYLE_TRANSFORM_WIDTH);
  58:Drivers/lvgl/src/widgets/../core/lv_obj_style_gen.h ****     return (lv_coord_t)v.num;
  59:Drivers/lvgl/src/widgets/../core/lv_obj_style_gen.h **** }
  60:Drivers/lvgl/src/widgets/../core/lv_obj_style_gen.h **** 
  61:Drivers/lvgl/src/widgets/../core/lv_obj_style_gen.h **** static inline lv_coord_t lv_obj_get_style_transform_height(const struct _lv_obj_t * obj, uint32_t p
  62:Drivers/lvgl/src/widgets/../core/lv_obj_style_gen.h **** {
  63:Drivers/lvgl/src/widgets/../core/lv_obj_style_gen.h ****     lv_style_value_t v = lv_obj_get_style_prop(obj, part, LV_STYLE_TRANSFORM_HEIGHT);
  64:Drivers/lvgl/src/widgets/../core/lv_obj_style_gen.h ****     return (lv_coord_t)v.num;
  65:Drivers/lvgl/src/widgets/../core/lv_obj_style_gen.h **** }
  66:Drivers/lvgl/src/widgets/../core/lv_obj_style_gen.h **** 
  67:Drivers/lvgl/src/widgets/../core/lv_obj_style_gen.h **** static inline lv_coord_t lv_obj_get_style_translate_x(const struct _lv_obj_t * obj, uint32_t part)
  68:Drivers/lvgl/src/widgets/../core/lv_obj_style_gen.h **** {
  69:Drivers/lvgl/src/widgets/../core/lv_obj_style_gen.h ****     lv_style_value_t v = lv_obj_get_style_prop(obj, part, LV_STYLE_TRANSLATE_X);
  70:Drivers/lvgl/src/widgets/../core/lv_obj_style_gen.h ****     return (lv_coord_t)v.num;
  71:Drivers/lvgl/src/widgets/../core/lv_obj_style_gen.h **** }
  72:Drivers/lvgl/src/widgets/../core/lv_obj_style_gen.h **** 
  73:Drivers/lvgl/src/widgets/../core/lv_obj_style_gen.h **** static inline lv_coord_t lv_obj_get_style_translate_y(const struct _lv_obj_t * obj, uint32_t part)
  74:Drivers/lvgl/src/widgets/../core/lv_obj_style_gen.h **** {
  75:Drivers/lvgl/src/widgets/../core/lv_obj_style_gen.h ****     lv_style_value_t v = lv_obj_get_style_prop(obj, part, LV_STYLE_TRANSLATE_Y);
  76:Drivers/lvgl/src/widgets/../core/lv_obj_style_gen.h ****     return (lv_coord_t)v.num;
  77:Drivers/lvgl/src/widgets/../core/lv_obj_style_gen.h **** }
  78:Drivers/lvgl/src/widgets/../core/lv_obj_style_gen.h **** 
  79:Drivers/lvgl/src/widgets/../core/lv_obj_style_gen.h **** static inline lv_coord_t lv_obj_get_style_transform_zoom(const struct _lv_obj_t * obj, uint32_t par
  80:Drivers/lvgl/src/widgets/../core/lv_obj_style_gen.h **** {
  81:Drivers/lvgl/src/widgets/../core/lv_obj_style_gen.h ****     lv_style_value_t v = lv_obj_get_style_prop(obj, part, LV_STYLE_TRANSFORM_ZOOM);
  82:Drivers/lvgl/src/widgets/../core/lv_obj_style_gen.h ****     return (lv_coord_t)v.num;
  83:Drivers/lvgl/src/widgets/../core/lv_obj_style_gen.h **** }
  84:Drivers/lvgl/src/widgets/../core/lv_obj_style_gen.h **** 
  85:Drivers/lvgl/src/widgets/../core/lv_obj_style_gen.h **** static inline lv_coord_t lv_obj_get_style_transform_angle(const struct _lv_obj_t * obj, uint32_t pa
  86:Drivers/lvgl/src/widgets/../core/lv_obj_style_gen.h **** {
  87:Drivers/lvgl/src/widgets/../core/lv_obj_style_gen.h ****     lv_style_value_t v = lv_obj_get_style_prop(obj, part, LV_STYLE_TRANSFORM_ANGLE);
  88:Drivers/lvgl/src/widgets/../core/lv_obj_style_gen.h ****     return (lv_coord_t)v.num;
  89:Drivers/lvgl/src/widgets/../core/lv_obj_style_gen.h **** }
  90:Drivers/lvgl/src/widgets/../core/lv_obj_style_gen.h **** 
  91:Drivers/lvgl/src/widgets/../core/lv_obj_style_gen.h **** static inline lv_coord_t lv_obj_get_style_transform_pivot_x(const struct _lv_obj_t * obj, uint32_t 
  92:Drivers/lvgl/src/widgets/../core/lv_obj_style_gen.h **** {
  93:Drivers/lvgl/src/widgets/../core/lv_obj_style_gen.h ****     lv_style_value_t v = lv_obj_get_style_prop(obj, part, LV_STYLE_TRANSFORM_PIVOT_X);
  94:Drivers/lvgl/src/widgets/../core/lv_obj_style_gen.h ****     return (lv_coord_t)v.num;
  95:Drivers/lvgl/src/widgets/../core/lv_obj_style_gen.h **** }
  96:Drivers/lvgl/src/widgets/../core/lv_obj_style_gen.h **** 
  97:Drivers/lvgl/src/widgets/../core/lv_obj_style_gen.h **** static inline lv_coord_t lv_obj_get_style_transform_pivot_y(const struct _lv_obj_t * obj, uint32_t 
  98:Drivers/lvgl/src/widgets/../core/lv_obj_style_gen.h **** {
  99:Drivers/lvgl/src/widgets/../core/lv_obj_style_gen.h ****     lv_style_value_t v = lv_obj_get_style_prop(obj, part, LV_STYLE_TRANSFORM_PIVOT_Y);
 100:Drivers/lvgl/src/widgets/../core/lv_obj_style_gen.h ****     return (lv_coord_t)v.num;
 101:Drivers/lvgl/src/widgets/../core/lv_obj_style_gen.h **** }
 102:Drivers/lvgl/src/widgets/../core/lv_obj_style_gen.h **** 
 103:Drivers/lvgl/src/widgets/../core/lv_obj_style_gen.h **** static inline lv_coord_t lv_obj_get_style_pad_top(const struct _lv_obj_t * obj, uint32_t part)
 104:Drivers/lvgl/src/widgets/../core/lv_obj_style_gen.h **** {
ARM GAS  /var/folders/0z/tsy30v1j4xl4_7kw94k978ww0000gn/T//ccsXEBTu.s 			page 16


 105:Drivers/lvgl/src/widgets/../core/lv_obj_style_gen.h ****     lv_style_value_t v = lv_obj_get_style_prop(obj, part, LV_STYLE_PAD_TOP);
 106:Drivers/lvgl/src/widgets/../core/lv_obj_style_gen.h ****     return (lv_coord_t)v.num;
 107:Drivers/lvgl/src/widgets/../core/lv_obj_style_gen.h **** }
 108:Drivers/lvgl/src/widgets/../core/lv_obj_style_gen.h **** 
 109:Drivers/lvgl/src/widgets/../core/lv_obj_style_gen.h **** static inline lv_coord_t lv_obj_get_style_pad_bottom(const struct _lv_obj_t * obj, uint32_t part)
 110:Drivers/lvgl/src/widgets/../core/lv_obj_style_gen.h **** {
 111:Drivers/lvgl/src/widgets/../core/lv_obj_style_gen.h ****     lv_style_value_t v = lv_obj_get_style_prop(obj, part, LV_STYLE_PAD_BOTTOM);
 112:Drivers/lvgl/src/widgets/../core/lv_obj_style_gen.h ****     return (lv_coord_t)v.num;
 113:Drivers/lvgl/src/widgets/../core/lv_obj_style_gen.h **** }
 114:Drivers/lvgl/src/widgets/../core/lv_obj_style_gen.h **** 
 115:Drivers/lvgl/src/widgets/../core/lv_obj_style_gen.h **** static inline lv_coord_t lv_obj_get_style_pad_left(const struct _lv_obj_t * obj, uint32_t part)
 116:Drivers/lvgl/src/widgets/../core/lv_obj_style_gen.h **** {
 117:Drivers/lvgl/src/widgets/../core/lv_obj_style_gen.h ****     lv_style_value_t v = lv_obj_get_style_prop(obj, part, LV_STYLE_PAD_LEFT);
 118:Drivers/lvgl/src/widgets/../core/lv_obj_style_gen.h ****     return (lv_coord_t)v.num;
 119:Drivers/lvgl/src/widgets/../core/lv_obj_style_gen.h **** }
 120:Drivers/lvgl/src/widgets/../core/lv_obj_style_gen.h **** 
 121:Drivers/lvgl/src/widgets/../core/lv_obj_style_gen.h **** static inline lv_coord_t lv_obj_get_style_pad_right(const struct _lv_obj_t * obj, uint32_t part)
 122:Drivers/lvgl/src/widgets/../core/lv_obj_style_gen.h **** {
 123:Drivers/lvgl/src/widgets/../core/lv_obj_style_gen.h ****     lv_style_value_t v = lv_obj_get_style_prop(obj, part, LV_STYLE_PAD_RIGHT);
 124:Drivers/lvgl/src/widgets/../core/lv_obj_style_gen.h ****     return (lv_coord_t)v.num;
 125:Drivers/lvgl/src/widgets/../core/lv_obj_style_gen.h **** }
 126:Drivers/lvgl/src/widgets/../core/lv_obj_style_gen.h **** 
 127:Drivers/lvgl/src/widgets/../core/lv_obj_style_gen.h **** static inline lv_coord_t lv_obj_get_style_pad_row(const struct _lv_obj_t * obj, uint32_t part)
 128:Drivers/lvgl/src/widgets/../core/lv_obj_style_gen.h **** {
 129:Drivers/lvgl/src/widgets/../core/lv_obj_style_gen.h ****     lv_style_value_t v = lv_obj_get_style_prop(obj, part, LV_STYLE_PAD_ROW);
 130:Drivers/lvgl/src/widgets/../core/lv_obj_style_gen.h ****     return (lv_coord_t)v.num;
 131:Drivers/lvgl/src/widgets/../core/lv_obj_style_gen.h **** }
 132:Drivers/lvgl/src/widgets/../core/lv_obj_style_gen.h **** 
 133:Drivers/lvgl/src/widgets/../core/lv_obj_style_gen.h **** static inline lv_coord_t lv_obj_get_style_pad_column(const struct _lv_obj_t * obj, uint32_t part)
 134:Drivers/lvgl/src/widgets/../core/lv_obj_style_gen.h **** {
 135:Drivers/lvgl/src/widgets/../core/lv_obj_style_gen.h ****     lv_style_value_t v = lv_obj_get_style_prop(obj, part, LV_STYLE_PAD_COLUMN);
 136:Drivers/lvgl/src/widgets/../core/lv_obj_style_gen.h ****     return (lv_coord_t)v.num;
 137:Drivers/lvgl/src/widgets/../core/lv_obj_style_gen.h **** }
 138:Drivers/lvgl/src/widgets/../core/lv_obj_style_gen.h **** 
 139:Drivers/lvgl/src/widgets/../core/lv_obj_style_gen.h **** static inline lv_color_t lv_obj_get_style_bg_color(const struct _lv_obj_t * obj, uint32_t part)
 140:Drivers/lvgl/src/widgets/../core/lv_obj_style_gen.h **** {
 141:Drivers/lvgl/src/widgets/../core/lv_obj_style_gen.h ****     lv_style_value_t v = lv_obj_get_style_prop(obj, part, LV_STYLE_BG_COLOR);
 142:Drivers/lvgl/src/widgets/../core/lv_obj_style_gen.h ****     return v.color;
 143:Drivers/lvgl/src/widgets/../core/lv_obj_style_gen.h **** }
 144:Drivers/lvgl/src/widgets/../core/lv_obj_style_gen.h **** 
 145:Drivers/lvgl/src/widgets/../core/lv_obj_style_gen.h **** static inline lv_color_t lv_obj_get_style_bg_color_filtered(const struct _lv_obj_t * obj, uint32_t 
 146:Drivers/lvgl/src/widgets/../core/lv_obj_style_gen.h **** {
 147:Drivers/lvgl/src/widgets/../core/lv_obj_style_gen.h ****     lv_style_value_t v = _lv_obj_style_apply_color_filter(obj, part, lv_obj_get_style_prop(obj, par
 148:Drivers/lvgl/src/widgets/../core/lv_obj_style_gen.h ****     return v.color;
 149:Drivers/lvgl/src/widgets/../core/lv_obj_style_gen.h **** }
 150:Drivers/lvgl/src/widgets/../core/lv_obj_style_gen.h **** 
 151:Drivers/lvgl/src/widgets/../core/lv_obj_style_gen.h **** static inline lv_opa_t lv_obj_get_style_bg_opa(const struct _lv_obj_t * obj, uint32_t part)
 152:Drivers/lvgl/src/widgets/../core/lv_obj_style_gen.h **** {
 153:Drivers/lvgl/src/widgets/../core/lv_obj_style_gen.h ****     lv_style_value_t v = lv_obj_get_style_prop(obj, part, LV_STYLE_BG_OPA);
 154:Drivers/lvgl/src/widgets/../core/lv_obj_style_gen.h ****     return (lv_opa_t)v.num;
 155:Drivers/lvgl/src/widgets/../core/lv_obj_style_gen.h **** }
 156:Drivers/lvgl/src/widgets/../core/lv_obj_style_gen.h **** 
 157:Drivers/lvgl/src/widgets/../core/lv_obj_style_gen.h **** static inline lv_color_t lv_obj_get_style_bg_grad_color(const struct _lv_obj_t * obj, uint32_t part
 158:Drivers/lvgl/src/widgets/../core/lv_obj_style_gen.h **** {
 159:Drivers/lvgl/src/widgets/../core/lv_obj_style_gen.h ****     lv_style_value_t v = lv_obj_get_style_prop(obj, part, LV_STYLE_BG_GRAD_COLOR);
 160:Drivers/lvgl/src/widgets/../core/lv_obj_style_gen.h ****     return v.color;
 161:Drivers/lvgl/src/widgets/../core/lv_obj_style_gen.h **** }
ARM GAS  /var/folders/0z/tsy30v1j4xl4_7kw94k978ww0000gn/T//ccsXEBTu.s 			page 17


 162:Drivers/lvgl/src/widgets/../core/lv_obj_style_gen.h **** 
 163:Drivers/lvgl/src/widgets/../core/lv_obj_style_gen.h **** static inline lv_color_t lv_obj_get_style_bg_grad_color_filtered(const struct _lv_obj_t * obj, uint
 164:Drivers/lvgl/src/widgets/../core/lv_obj_style_gen.h **** {
 165:Drivers/lvgl/src/widgets/../core/lv_obj_style_gen.h ****     lv_style_value_t v = _lv_obj_style_apply_color_filter(obj, part, lv_obj_get_style_prop(obj, par
 166:Drivers/lvgl/src/widgets/../core/lv_obj_style_gen.h ****     return v.color;
 167:Drivers/lvgl/src/widgets/../core/lv_obj_style_gen.h **** }
 168:Drivers/lvgl/src/widgets/../core/lv_obj_style_gen.h **** 
 169:Drivers/lvgl/src/widgets/../core/lv_obj_style_gen.h **** static inline lv_grad_dir_t lv_obj_get_style_bg_grad_dir(const struct _lv_obj_t * obj, uint32_t par
 170:Drivers/lvgl/src/widgets/../core/lv_obj_style_gen.h **** {
 171:Drivers/lvgl/src/widgets/../core/lv_obj_style_gen.h ****     lv_style_value_t v = lv_obj_get_style_prop(obj, part, LV_STYLE_BG_GRAD_DIR);
 172:Drivers/lvgl/src/widgets/../core/lv_obj_style_gen.h ****     return (lv_grad_dir_t)v.num;
 173:Drivers/lvgl/src/widgets/../core/lv_obj_style_gen.h **** }
 174:Drivers/lvgl/src/widgets/../core/lv_obj_style_gen.h **** 
 175:Drivers/lvgl/src/widgets/../core/lv_obj_style_gen.h **** static inline lv_coord_t lv_obj_get_style_bg_main_stop(const struct _lv_obj_t * obj, uint32_t part)
 176:Drivers/lvgl/src/widgets/../core/lv_obj_style_gen.h **** {
 177:Drivers/lvgl/src/widgets/../core/lv_obj_style_gen.h ****     lv_style_value_t v = lv_obj_get_style_prop(obj, part, LV_STYLE_BG_MAIN_STOP);
 178:Drivers/lvgl/src/widgets/../core/lv_obj_style_gen.h ****     return (lv_coord_t)v.num;
 179:Drivers/lvgl/src/widgets/../core/lv_obj_style_gen.h **** }
 180:Drivers/lvgl/src/widgets/../core/lv_obj_style_gen.h **** 
 181:Drivers/lvgl/src/widgets/../core/lv_obj_style_gen.h **** static inline lv_coord_t lv_obj_get_style_bg_grad_stop(const struct _lv_obj_t * obj, uint32_t part)
 182:Drivers/lvgl/src/widgets/../core/lv_obj_style_gen.h **** {
 183:Drivers/lvgl/src/widgets/../core/lv_obj_style_gen.h ****     lv_style_value_t v = lv_obj_get_style_prop(obj, part, LV_STYLE_BG_GRAD_STOP);
 184:Drivers/lvgl/src/widgets/../core/lv_obj_style_gen.h ****     return (lv_coord_t)v.num;
 185:Drivers/lvgl/src/widgets/../core/lv_obj_style_gen.h **** }
 186:Drivers/lvgl/src/widgets/../core/lv_obj_style_gen.h **** 
 187:Drivers/lvgl/src/widgets/../core/lv_obj_style_gen.h **** static inline const lv_grad_dsc_t * lv_obj_get_style_bg_grad(const struct _lv_obj_t * obj, uint32_t
 188:Drivers/lvgl/src/widgets/../core/lv_obj_style_gen.h **** {
 189:Drivers/lvgl/src/widgets/../core/lv_obj_style_gen.h ****     lv_style_value_t v = lv_obj_get_style_prop(obj, part, LV_STYLE_BG_GRAD);
 190:Drivers/lvgl/src/widgets/../core/lv_obj_style_gen.h ****     return (const lv_grad_dsc_t *)v.ptr;
 191:Drivers/lvgl/src/widgets/../core/lv_obj_style_gen.h **** }
 192:Drivers/lvgl/src/widgets/../core/lv_obj_style_gen.h **** 
 193:Drivers/lvgl/src/widgets/../core/lv_obj_style_gen.h **** static inline lv_dither_mode_t lv_obj_get_style_bg_dither_mode(const struct _lv_obj_t * obj, uint32
 194:Drivers/lvgl/src/widgets/../core/lv_obj_style_gen.h **** {
 195:Drivers/lvgl/src/widgets/../core/lv_obj_style_gen.h ****     lv_style_value_t v = lv_obj_get_style_prop(obj, part, LV_STYLE_BG_DITHER_MODE);
 196:Drivers/lvgl/src/widgets/../core/lv_obj_style_gen.h ****     return (lv_dither_mode_t)v.num;
 197:Drivers/lvgl/src/widgets/../core/lv_obj_style_gen.h **** }
 198:Drivers/lvgl/src/widgets/../core/lv_obj_style_gen.h **** 
 199:Drivers/lvgl/src/widgets/../core/lv_obj_style_gen.h **** static inline const void * lv_obj_get_style_bg_img_src(const struct _lv_obj_t * obj, uint32_t part)
 200:Drivers/lvgl/src/widgets/../core/lv_obj_style_gen.h **** {
 201:Drivers/lvgl/src/widgets/../core/lv_obj_style_gen.h ****     lv_style_value_t v = lv_obj_get_style_prop(obj, part, LV_STYLE_BG_IMG_SRC);
 202:Drivers/lvgl/src/widgets/../core/lv_obj_style_gen.h ****     return (const void *)v.ptr;
 203:Drivers/lvgl/src/widgets/../core/lv_obj_style_gen.h **** }
 204:Drivers/lvgl/src/widgets/../core/lv_obj_style_gen.h **** 
 205:Drivers/lvgl/src/widgets/../core/lv_obj_style_gen.h **** static inline lv_opa_t lv_obj_get_style_bg_img_opa(const struct _lv_obj_t * obj, uint32_t part)
 206:Drivers/lvgl/src/widgets/../core/lv_obj_style_gen.h **** {
 207:Drivers/lvgl/src/widgets/../core/lv_obj_style_gen.h ****     lv_style_value_t v = lv_obj_get_style_prop(obj, part, LV_STYLE_BG_IMG_OPA);
 208:Drivers/lvgl/src/widgets/../core/lv_obj_style_gen.h ****     return (lv_opa_t)v.num;
 209:Drivers/lvgl/src/widgets/../core/lv_obj_style_gen.h **** }
 210:Drivers/lvgl/src/widgets/../core/lv_obj_style_gen.h **** 
 211:Drivers/lvgl/src/widgets/../core/lv_obj_style_gen.h **** static inline lv_color_t lv_obj_get_style_bg_img_recolor(const struct _lv_obj_t * obj, uint32_t par
 212:Drivers/lvgl/src/widgets/../core/lv_obj_style_gen.h **** {
 213:Drivers/lvgl/src/widgets/../core/lv_obj_style_gen.h ****     lv_style_value_t v = lv_obj_get_style_prop(obj, part, LV_STYLE_BG_IMG_RECOLOR);
 214:Drivers/lvgl/src/widgets/../core/lv_obj_style_gen.h ****     return v.color;
 215:Drivers/lvgl/src/widgets/../core/lv_obj_style_gen.h **** }
 216:Drivers/lvgl/src/widgets/../core/lv_obj_style_gen.h **** 
 217:Drivers/lvgl/src/widgets/../core/lv_obj_style_gen.h **** static inline lv_color_t lv_obj_get_style_bg_img_recolor_filtered(const struct _lv_obj_t * obj, uin
 218:Drivers/lvgl/src/widgets/../core/lv_obj_style_gen.h **** {
ARM GAS  /var/folders/0z/tsy30v1j4xl4_7kw94k978ww0000gn/T//ccsXEBTu.s 			page 18


 219:Drivers/lvgl/src/widgets/../core/lv_obj_style_gen.h ****     lv_style_value_t v = _lv_obj_style_apply_color_filter(obj, part, lv_obj_get_style_prop(obj, par
 220:Drivers/lvgl/src/widgets/../core/lv_obj_style_gen.h ****     return v.color;
 221:Drivers/lvgl/src/widgets/../core/lv_obj_style_gen.h **** }
 222:Drivers/lvgl/src/widgets/../core/lv_obj_style_gen.h **** 
 223:Drivers/lvgl/src/widgets/../core/lv_obj_style_gen.h **** static inline lv_opa_t lv_obj_get_style_bg_img_recolor_opa(const struct _lv_obj_t * obj, uint32_t p
 224:Drivers/lvgl/src/widgets/../core/lv_obj_style_gen.h **** {
 225:Drivers/lvgl/src/widgets/../core/lv_obj_style_gen.h ****     lv_style_value_t v = lv_obj_get_style_prop(obj, part, LV_STYLE_BG_IMG_RECOLOR_OPA);
 226:Drivers/lvgl/src/widgets/../core/lv_obj_style_gen.h ****     return (lv_opa_t)v.num;
 227:Drivers/lvgl/src/widgets/../core/lv_obj_style_gen.h **** }
 228:Drivers/lvgl/src/widgets/../core/lv_obj_style_gen.h **** 
 229:Drivers/lvgl/src/widgets/../core/lv_obj_style_gen.h **** static inline bool lv_obj_get_style_bg_img_tiled(const struct _lv_obj_t * obj, uint32_t part)
 230:Drivers/lvgl/src/widgets/../core/lv_obj_style_gen.h **** {
 231:Drivers/lvgl/src/widgets/../core/lv_obj_style_gen.h ****     lv_style_value_t v = lv_obj_get_style_prop(obj, part, LV_STYLE_BG_IMG_TILED);
 232:Drivers/lvgl/src/widgets/../core/lv_obj_style_gen.h ****     return (bool)v.num;
 233:Drivers/lvgl/src/widgets/../core/lv_obj_style_gen.h **** }
 234:Drivers/lvgl/src/widgets/../core/lv_obj_style_gen.h **** 
 235:Drivers/lvgl/src/widgets/../core/lv_obj_style_gen.h **** static inline lv_color_t lv_obj_get_style_border_color(const struct _lv_obj_t * obj, uint32_t part)
 236:Drivers/lvgl/src/widgets/../core/lv_obj_style_gen.h **** {
 237:Drivers/lvgl/src/widgets/../core/lv_obj_style_gen.h ****     lv_style_value_t v = lv_obj_get_style_prop(obj, part, LV_STYLE_BORDER_COLOR);
 238:Drivers/lvgl/src/widgets/../core/lv_obj_style_gen.h ****     return v.color;
 239:Drivers/lvgl/src/widgets/../core/lv_obj_style_gen.h **** }
 240:Drivers/lvgl/src/widgets/../core/lv_obj_style_gen.h **** 
 241:Drivers/lvgl/src/widgets/../core/lv_obj_style_gen.h **** static inline lv_color_t lv_obj_get_style_border_color_filtered(const struct _lv_obj_t * obj, uint3
 242:Drivers/lvgl/src/widgets/../core/lv_obj_style_gen.h **** {
 243:Drivers/lvgl/src/widgets/../core/lv_obj_style_gen.h ****     lv_style_value_t v = _lv_obj_style_apply_color_filter(obj, part, lv_obj_get_style_prop(obj, par
 244:Drivers/lvgl/src/widgets/../core/lv_obj_style_gen.h ****     return v.color;
 245:Drivers/lvgl/src/widgets/../core/lv_obj_style_gen.h **** }
 246:Drivers/lvgl/src/widgets/../core/lv_obj_style_gen.h **** 
 247:Drivers/lvgl/src/widgets/../core/lv_obj_style_gen.h **** static inline lv_opa_t lv_obj_get_style_border_opa(const struct _lv_obj_t * obj, uint32_t part)
 248:Drivers/lvgl/src/widgets/../core/lv_obj_style_gen.h **** {
 249:Drivers/lvgl/src/widgets/../core/lv_obj_style_gen.h ****     lv_style_value_t v = lv_obj_get_style_prop(obj, part, LV_STYLE_BORDER_OPA);
 250:Drivers/lvgl/src/widgets/../core/lv_obj_style_gen.h ****     return (lv_opa_t)v.num;
 251:Drivers/lvgl/src/widgets/../core/lv_obj_style_gen.h **** }
 252:Drivers/lvgl/src/widgets/../core/lv_obj_style_gen.h **** 
 253:Drivers/lvgl/src/widgets/../core/lv_obj_style_gen.h **** static inline lv_coord_t lv_obj_get_style_border_width(const struct _lv_obj_t * obj, uint32_t part)
 254:Drivers/lvgl/src/widgets/../core/lv_obj_style_gen.h **** {
 255:Drivers/lvgl/src/widgets/../core/lv_obj_style_gen.h ****     lv_style_value_t v = lv_obj_get_style_prop(obj, part, LV_STYLE_BORDER_WIDTH);
 256:Drivers/lvgl/src/widgets/../core/lv_obj_style_gen.h ****     return (lv_coord_t)v.num;
 257:Drivers/lvgl/src/widgets/../core/lv_obj_style_gen.h **** }
 258:Drivers/lvgl/src/widgets/../core/lv_obj_style_gen.h **** 
 259:Drivers/lvgl/src/widgets/../core/lv_obj_style_gen.h **** static inline lv_border_side_t lv_obj_get_style_border_side(const struct _lv_obj_t * obj, uint32_t 
 260:Drivers/lvgl/src/widgets/../core/lv_obj_style_gen.h **** {
 261:Drivers/lvgl/src/widgets/../core/lv_obj_style_gen.h ****     lv_style_value_t v = lv_obj_get_style_prop(obj, part, LV_STYLE_BORDER_SIDE);
 262:Drivers/lvgl/src/widgets/../core/lv_obj_style_gen.h ****     return (lv_border_side_t)v.num;
 263:Drivers/lvgl/src/widgets/../core/lv_obj_style_gen.h **** }
 264:Drivers/lvgl/src/widgets/../core/lv_obj_style_gen.h **** 
 265:Drivers/lvgl/src/widgets/../core/lv_obj_style_gen.h **** static inline bool lv_obj_get_style_border_post(const struct _lv_obj_t * obj, uint32_t part)
 266:Drivers/lvgl/src/widgets/../core/lv_obj_style_gen.h **** {
 267:Drivers/lvgl/src/widgets/../core/lv_obj_style_gen.h ****     lv_style_value_t v = lv_obj_get_style_prop(obj, part, LV_STYLE_BORDER_POST);
 268:Drivers/lvgl/src/widgets/../core/lv_obj_style_gen.h ****     return (bool)v.num;
 269:Drivers/lvgl/src/widgets/../core/lv_obj_style_gen.h **** }
 270:Drivers/lvgl/src/widgets/../core/lv_obj_style_gen.h **** 
 271:Drivers/lvgl/src/widgets/../core/lv_obj_style_gen.h **** static inline lv_coord_t lv_obj_get_style_outline_width(const struct _lv_obj_t * obj, uint32_t part
 272:Drivers/lvgl/src/widgets/../core/lv_obj_style_gen.h **** {
 273:Drivers/lvgl/src/widgets/../core/lv_obj_style_gen.h ****     lv_style_value_t v = lv_obj_get_style_prop(obj, part, LV_STYLE_OUTLINE_WIDTH);
 274:Drivers/lvgl/src/widgets/../core/lv_obj_style_gen.h ****     return (lv_coord_t)v.num;
 275:Drivers/lvgl/src/widgets/../core/lv_obj_style_gen.h **** }
ARM GAS  /var/folders/0z/tsy30v1j4xl4_7kw94k978ww0000gn/T//ccsXEBTu.s 			page 19


 276:Drivers/lvgl/src/widgets/../core/lv_obj_style_gen.h **** 
 277:Drivers/lvgl/src/widgets/../core/lv_obj_style_gen.h **** static inline lv_color_t lv_obj_get_style_outline_color(const struct _lv_obj_t * obj, uint32_t part
 278:Drivers/lvgl/src/widgets/../core/lv_obj_style_gen.h **** {
 279:Drivers/lvgl/src/widgets/../core/lv_obj_style_gen.h ****     lv_style_value_t v = lv_obj_get_style_prop(obj, part, LV_STYLE_OUTLINE_COLOR);
 280:Drivers/lvgl/src/widgets/../core/lv_obj_style_gen.h ****     return v.color;
 281:Drivers/lvgl/src/widgets/../core/lv_obj_style_gen.h **** }
 282:Drivers/lvgl/src/widgets/../core/lv_obj_style_gen.h **** 
 283:Drivers/lvgl/src/widgets/../core/lv_obj_style_gen.h **** static inline lv_color_t lv_obj_get_style_outline_color_filtered(const struct _lv_obj_t * obj, uint
 284:Drivers/lvgl/src/widgets/../core/lv_obj_style_gen.h **** {
 285:Drivers/lvgl/src/widgets/../core/lv_obj_style_gen.h ****     lv_style_value_t v = _lv_obj_style_apply_color_filter(obj, part, lv_obj_get_style_prop(obj, par
 286:Drivers/lvgl/src/widgets/../core/lv_obj_style_gen.h ****     return v.color;
 287:Drivers/lvgl/src/widgets/../core/lv_obj_style_gen.h **** }
 288:Drivers/lvgl/src/widgets/../core/lv_obj_style_gen.h **** 
 289:Drivers/lvgl/src/widgets/../core/lv_obj_style_gen.h **** static inline lv_opa_t lv_obj_get_style_outline_opa(const struct _lv_obj_t * obj, uint32_t part)
 290:Drivers/lvgl/src/widgets/../core/lv_obj_style_gen.h **** {
 291:Drivers/lvgl/src/widgets/../core/lv_obj_style_gen.h ****     lv_style_value_t v = lv_obj_get_style_prop(obj, part, LV_STYLE_OUTLINE_OPA);
 292:Drivers/lvgl/src/widgets/../core/lv_obj_style_gen.h ****     return (lv_opa_t)v.num;
 293:Drivers/lvgl/src/widgets/../core/lv_obj_style_gen.h **** }
 294:Drivers/lvgl/src/widgets/../core/lv_obj_style_gen.h **** 
 295:Drivers/lvgl/src/widgets/../core/lv_obj_style_gen.h **** static inline lv_coord_t lv_obj_get_style_outline_pad(const struct _lv_obj_t * obj, uint32_t part)
 296:Drivers/lvgl/src/widgets/../core/lv_obj_style_gen.h **** {
 297:Drivers/lvgl/src/widgets/../core/lv_obj_style_gen.h ****     lv_style_value_t v = lv_obj_get_style_prop(obj, part, LV_STYLE_OUTLINE_PAD);
 298:Drivers/lvgl/src/widgets/../core/lv_obj_style_gen.h ****     return (lv_coord_t)v.num;
 299:Drivers/lvgl/src/widgets/../core/lv_obj_style_gen.h **** }
 300:Drivers/lvgl/src/widgets/../core/lv_obj_style_gen.h **** 
 301:Drivers/lvgl/src/widgets/../core/lv_obj_style_gen.h **** static inline lv_coord_t lv_obj_get_style_shadow_width(const struct _lv_obj_t * obj, uint32_t part)
 302:Drivers/lvgl/src/widgets/../core/lv_obj_style_gen.h **** {
 303:Drivers/lvgl/src/widgets/../core/lv_obj_style_gen.h ****     lv_style_value_t v = lv_obj_get_style_prop(obj, part, LV_STYLE_SHADOW_WIDTH);
 304:Drivers/lvgl/src/widgets/../core/lv_obj_style_gen.h ****     return (lv_coord_t)v.num;
 305:Drivers/lvgl/src/widgets/../core/lv_obj_style_gen.h **** }
 306:Drivers/lvgl/src/widgets/../core/lv_obj_style_gen.h **** 
 307:Drivers/lvgl/src/widgets/../core/lv_obj_style_gen.h **** static inline lv_coord_t lv_obj_get_style_shadow_ofs_x(const struct _lv_obj_t * obj, uint32_t part)
 308:Drivers/lvgl/src/widgets/../core/lv_obj_style_gen.h **** {
 309:Drivers/lvgl/src/widgets/../core/lv_obj_style_gen.h ****     lv_style_value_t v = lv_obj_get_style_prop(obj, part, LV_STYLE_SHADOW_OFS_X);
 310:Drivers/lvgl/src/widgets/../core/lv_obj_style_gen.h ****     return (lv_coord_t)v.num;
 311:Drivers/lvgl/src/widgets/../core/lv_obj_style_gen.h **** }
 312:Drivers/lvgl/src/widgets/../core/lv_obj_style_gen.h **** 
 313:Drivers/lvgl/src/widgets/../core/lv_obj_style_gen.h **** static inline lv_coord_t lv_obj_get_style_shadow_ofs_y(const struct _lv_obj_t * obj, uint32_t part)
 314:Drivers/lvgl/src/widgets/../core/lv_obj_style_gen.h **** {
 315:Drivers/lvgl/src/widgets/../core/lv_obj_style_gen.h ****     lv_style_value_t v = lv_obj_get_style_prop(obj, part, LV_STYLE_SHADOW_OFS_Y);
 316:Drivers/lvgl/src/widgets/../core/lv_obj_style_gen.h ****     return (lv_coord_t)v.num;
 317:Drivers/lvgl/src/widgets/../core/lv_obj_style_gen.h **** }
 318:Drivers/lvgl/src/widgets/../core/lv_obj_style_gen.h **** 
 319:Drivers/lvgl/src/widgets/../core/lv_obj_style_gen.h **** static inline lv_coord_t lv_obj_get_style_shadow_spread(const struct _lv_obj_t * obj, uint32_t part
 320:Drivers/lvgl/src/widgets/../core/lv_obj_style_gen.h **** {
 321:Drivers/lvgl/src/widgets/../core/lv_obj_style_gen.h ****     lv_style_value_t v = lv_obj_get_style_prop(obj, part, LV_STYLE_SHADOW_SPREAD);
 322:Drivers/lvgl/src/widgets/../core/lv_obj_style_gen.h ****     return (lv_coord_t)v.num;
 323:Drivers/lvgl/src/widgets/../core/lv_obj_style_gen.h **** }
 324:Drivers/lvgl/src/widgets/../core/lv_obj_style_gen.h **** 
 325:Drivers/lvgl/src/widgets/../core/lv_obj_style_gen.h **** static inline lv_color_t lv_obj_get_style_shadow_color(const struct _lv_obj_t * obj, uint32_t part)
 326:Drivers/lvgl/src/widgets/../core/lv_obj_style_gen.h **** {
 327:Drivers/lvgl/src/widgets/../core/lv_obj_style_gen.h ****     lv_style_value_t v = lv_obj_get_style_prop(obj, part, LV_STYLE_SHADOW_COLOR);
 328:Drivers/lvgl/src/widgets/../core/lv_obj_style_gen.h ****     return v.color;
 329:Drivers/lvgl/src/widgets/../core/lv_obj_style_gen.h **** }
 330:Drivers/lvgl/src/widgets/../core/lv_obj_style_gen.h **** 
 331:Drivers/lvgl/src/widgets/../core/lv_obj_style_gen.h **** static inline lv_color_t lv_obj_get_style_shadow_color_filtered(const struct _lv_obj_t * obj, uint3
 332:Drivers/lvgl/src/widgets/../core/lv_obj_style_gen.h **** {
ARM GAS  /var/folders/0z/tsy30v1j4xl4_7kw94k978ww0000gn/T//ccsXEBTu.s 			page 20


 333:Drivers/lvgl/src/widgets/../core/lv_obj_style_gen.h ****     lv_style_value_t v = _lv_obj_style_apply_color_filter(obj, part, lv_obj_get_style_prop(obj, par
 334:Drivers/lvgl/src/widgets/../core/lv_obj_style_gen.h ****     return v.color;
 335:Drivers/lvgl/src/widgets/../core/lv_obj_style_gen.h **** }
 336:Drivers/lvgl/src/widgets/../core/lv_obj_style_gen.h **** 
 337:Drivers/lvgl/src/widgets/../core/lv_obj_style_gen.h **** static inline lv_opa_t lv_obj_get_style_shadow_opa(const struct _lv_obj_t * obj, uint32_t part)
 338:Drivers/lvgl/src/widgets/../core/lv_obj_style_gen.h **** {
 339:Drivers/lvgl/src/widgets/../core/lv_obj_style_gen.h ****     lv_style_value_t v = lv_obj_get_style_prop(obj, part, LV_STYLE_SHADOW_OPA);
 340:Drivers/lvgl/src/widgets/../core/lv_obj_style_gen.h ****     return (lv_opa_t)v.num;
 341:Drivers/lvgl/src/widgets/../core/lv_obj_style_gen.h **** }
 342:Drivers/lvgl/src/widgets/../core/lv_obj_style_gen.h **** 
 343:Drivers/lvgl/src/widgets/../core/lv_obj_style_gen.h **** static inline lv_opa_t lv_obj_get_style_img_opa(const struct _lv_obj_t * obj, uint32_t part)
 344:Drivers/lvgl/src/widgets/../core/lv_obj_style_gen.h **** {
 345:Drivers/lvgl/src/widgets/../core/lv_obj_style_gen.h ****     lv_style_value_t v = lv_obj_get_style_prop(obj, part, LV_STYLE_IMG_OPA);
 346:Drivers/lvgl/src/widgets/../core/lv_obj_style_gen.h ****     return (lv_opa_t)v.num;
 347:Drivers/lvgl/src/widgets/../core/lv_obj_style_gen.h **** }
 348:Drivers/lvgl/src/widgets/../core/lv_obj_style_gen.h **** 
 349:Drivers/lvgl/src/widgets/../core/lv_obj_style_gen.h **** static inline lv_color_t lv_obj_get_style_img_recolor(const struct _lv_obj_t * obj, uint32_t part)
 350:Drivers/lvgl/src/widgets/../core/lv_obj_style_gen.h **** {
 351:Drivers/lvgl/src/widgets/../core/lv_obj_style_gen.h ****     lv_style_value_t v = lv_obj_get_style_prop(obj, part, LV_STYLE_IMG_RECOLOR);
 352:Drivers/lvgl/src/widgets/../core/lv_obj_style_gen.h ****     return v.color;
 353:Drivers/lvgl/src/widgets/../core/lv_obj_style_gen.h **** }
 354:Drivers/lvgl/src/widgets/../core/lv_obj_style_gen.h **** 
 355:Drivers/lvgl/src/widgets/../core/lv_obj_style_gen.h **** static inline lv_color_t lv_obj_get_style_img_recolor_filtered(const struct _lv_obj_t * obj, uint32
 356:Drivers/lvgl/src/widgets/../core/lv_obj_style_gen.h **** {
 357:Drivers/lvgl/src/widgets/../core/lv_obj_style_gen.h ****     lv_style_value_t v = _lv_obj_style_apply_color_filter(obj, part, lv_obj_get_style_prop(obj, par
 358:Drivers/lvgl/src/widgets/../core/lv_obj_style_gen.h ****     return v.color;
 359:Drivers/lvgl/src/widgets/../core/lv_obj_style_gen.h **** }
 360:Drivers/lvgl/src/widgets/../core/lv_obj_style_gen.h **** 
 361:Drivers/lvgl/src/widgets/../core/lv_obj_style_gen.h **** static inline lv_opa_t lv_obj_get_style_img_recolor_opa(const struct _lv_obj_t * obj, uint32_t part
 362:Drivers/lvgl/src/widgets/../core/lv_obj_style_gen.h **** {
 363:Drivers/lvgl/src/widgets/../core/lv_obj_style_gen.h ****     lv_style_value_t v = lv_obj_get_style_prop(obj, part, LV_STYLE_IMG_RECOLOR_OPA);
 364:Drivers/lvgl/src/widgets/../core/lv_obj_style_gen.h ****     return (lv_opa_t)v.num;
 365:Drivers/lvgl/src/widgets/../core/lv_obj_style_gen.h **** }
 366:Drivers/lvgl/src/widgets/../core/lv_obj_style_gen.h **** 
 367:Drivers/lvgl/src/widgets/../core/lv_obj_style_gen.h **** static inline lv_coord_t lv_obj_get_style_line_width(const struct _lv_obj_t * obj, uint32_t part)
 423              		.loc 2 367 26 view .LVU152
 424              	.LBB35:
 368:Drivers/lvgl/src/widgets/../core/lv_obj_style_gen.h **** {
 369:Drivers/lvgl/src/widgets/../core/lv_obj_style_gen.h ****     lv_style_value_t v = lv_obj_get_style_prop(obj, part, LV_STYLE_LINE_WIDTH);
 425              		.loc 2 369 5 view .LVU153
 426              		.loc 2 369 26 is_stmt 0 view .LVU154
 427 0156 4922     		movs	r2, #73
 428 0158 2846     		mov	r0, r5
 429 015a 0021     		movs	r1, #0
 430 015c FFF7FEFF 		bl	lv_obj_get_style_prop
 431              	.LVL46:
 370:Drivers/lvgl/src/widgets/../core/lv_obj_style_gen.h ****     return (lv_coord_t)v.num;
 432              		.loc 2 370 5 is_stmt 1 view .LVU155
 433              		.loc 2 370 5 is_stmt 0 view .LVU156
 434              	.LBE35:
 435              	.LBE34:
 159:Drivers/lvgl/src/widgets/lv_line.c ****         h += line_width;
 436              		.loc 1 159 9 is_stmt 1 view .LVU157
 159:Drivers/lvgl/src/widgets/lv_line.c ****         h += line_width;
 437              		.loc 1 159 11 is_stmt 0 view .LVU158
 438 0160 80B2     		uxth	r0, r0
 439              	.LVL47:
ARM GAS  /var/folders/0z/tsy30v1j4xl4_7kw94k978ww0000gn/T//ccsXEBTu.s 			page 21


 160:Drivers/lvgl/src/widgets/lv_line.c ****         p->x = w;
 440              		.loc 1 160 9 is_stmt 1 view .LVU159
 161:Drivers/lvgl/src/widgets/lv_line.c ****         p->y = h;
 441              		.loc 1 161 9 view .LVU160
 159:Drivers/lvgl/src/widgets/lv_line.c ****         h += line_width;
 442              		.loc 1 159 11 is_stmt 0 view .LVU161
 443 0162 0219     		adds	r2, r0, r4
 160:Drivers/lvgl/src/widgets/lv_line.c ****         p->x = w;
 444              		.loc 1 160 11 view .LVU162
 445 0164 3844     		add	r0, r0, r7
 446              	.LVL48:
 161:Drivers/lvgl/src/widgets/lv_line.c ****         p->y = h;
 447              		.loc 1 161 14 view .LVU163
 448 0166 3280     		strh	r2, [r6]	@ movhi
 162:Drivers/lvgl/src/widgets/lv_line.c ****     }
 449              		.loc 1 162 9 is_stmt 1 view .LVU164
 162:Drivers/lvgl/src/widgets/lv_line.c ****     }
 450              		.loc 1 162 14 is_stmt 0 view .LVU165
 451 0168 7080     		strh	r0, [r6, #2]	@ movhi
 452              	.LBE33:
 453 016a 52E7     		b	.L3
 454              	.LVL49:
 455              	.L31:
 456              	.LBB36:
 139:Drivers/lvgl/src/widgets/lv_line.c ****         lv_coord_t * s = lv_event_get_param(e);
 457              		.loc 1 139 9 is_stmt 1 view .LVU166
 458              	.LBB37:
 459              	.LBI37:
 367:Drivers/lvgl/src/widgets/../core/lv_obj_style_gen.h **** {
 460              		.loc 2 367 26 view .LVU167
 461              	.LBB38:
 369:Drivers/lvgl/src/widgets/../core/lv_obj_style_gen.h ****     return (lv_coord_t)v.num;
 462              		.loc 2 369 5 view .LVU168
 369:Drivers/lvgl/src/widgets/../core/lv_obj_style_gen.h ****     return (lv_coord_t)v.num;
 463              		.loc 2 369 26 is_stmt 0 view .LVU169
 464 016c 4922     		movs	r2, #73
 465 016e 0021     		movs	r1, #0
 466 0170 FFF7FEFF 		bl	lv_obj_get_style_prop
 467              	.LVL50:
 468              		.loc 2 370 5 is_stmt 1 view .LVU170
 369:Drivers/lvgl/src/widgets/../core/lv_obj_style_gen.h ****     return (lv_coord_t)v.num;
 469              		.loc 2 369 26 is_stmt 0 view .LVU171
 470 0174 0346     		mov	r3, r0
 471              	.LBE38:
 472              	.LBE37:
 140:Drivers/lvgl/src/widgets/lv_line.c ****         if(*s < line_width) *s = line_width;
 473              		.loc 1 140 26 view .LVU172
 474 0176 2046     		mov	r0, r4
 475              	.LBB40:
 476              	.LBB39:
 477              		.loc 2 370 12 view .LVU173
 478 0178 1CB2     		sxth	r4, r3
 479              	.LVL51:
 480              		.loc 2 370 12 view .LVU174
 481              	.LBE39:
 482              	.LBE40:
 140:Drivers/lvgl/src/widgets/lv_line.c ****         if(*s < line_width) *s = line_width;
ARM GAS  /var/folders/0z/tsy30v1j4xl4_7kw94k978ww0000gn/T//ccsXEBTu.s 			page 22


 483              		.loc 1 140 9 is_stmt 1 view .LVU175
 140:Drivers/lvgl/src/widgets/lv_line.c ****         if(*s < line_width) *s = line_width;
 484              		.loc 1 140 26 is_stmt 0 view .LVU176
 485 017a FFF7FEFF 		bl	lv_event_get_param
 486              	.LVL52:
 141:Drivers/lvgl/src/widgets/lv_line.c ****     }
 487              		.loc 1 141 9 is_stmt 1 view .LVU177
 141:Drivers/lvgl/src/widgets/lv_line.c ****     }
 488              		.loc 1 141 11 is_stmt 0 view .LVU178
 489 017e B0F90030 		ldrsh	r3, [r0]
 490 0182 A342     		cmp	r3, r4
 491 0184 BFF645AF 		bge	.L3
 141:Drivers/lvgl/src/widgets/lv_line.c ****     }
 492              		.loc 1 141 29 is_stmt 1 view .LVU179
 141:Drivers/lvgl/src/widgets/lv_line.c ****     }
 493              		.loc 1 141 32 is_stmt 0 view .LVU180
 494 0188 0480     		strh	r4, [r0]	@ movhi
 495 018a 42E7     		b	.L3
 496              	.LVL53:
 497              	.L16:
 141:Drivers/lvgl/src/widgets/lv_line.c ****     }
 498              		.loc 1 141 32 view .LVU181
 499              	.LBE36:
 500              	.LBB41:
 153:Drivers/lvgl/src/widgets/lv_line.c ****             w = LV_MAX(line->point_array[i].x, w);
 501              		.loc 1 153 22 view .LVU182
 502 018c 2746     		mov	r7, r4
 503 018e E2E7     		b	.L9
 504              	.L36:
 505              		.align	2
 506              	.L35:
 507 0190 00000000 		.word	.LANCHOR0
 508              	.LBE41:
 509              	.LBE29:
 510              	.LBE28:
 511              		.cfi_endproc
 512              	.LFE166:
 514              		.section	.text.lv_line_create,"ax",%progbits
 515              		.align	1
 516              		.p2align 2,,3
 517              		.global	lv_line_create
 518              		.syntax unified
 519              		.thumb
 520              		.thumb_func
 522              	lv_line_create:
 523              	.LVL54:
 524              	.LFB161:
  55:Drivers/lvgl/src/widgets/lv_line.c ****     LV_LOG_INFO("begin");
 525              		.loc 1 55 1 is_stmt 1 view -0
 526              		.cfi_startproc
 527              		@ args = 0, pretend = 0, frame = 0
 528              		@ frame_needed = 0, uses_anonymous_args = 0
  56:Drivers/lvgl/src/widgets/lv_line.c ****     lv_obj_t * obj = lv_obj_class_create_obj(MY_CLASS, parent);
 529              		.loc 1 56 5 view .LVU184
  56:Drivers/lvgl/src/widgets/lv_line.c ****     lv_obj_t * obj = lv_obj_class_create_obj(MY_CLASS, parent);
 530              		.loc 1 56 5 view .LVU185
  56:Drivers/lvgl/src/widgets/lv_line.c ****     lv_obj_t * obj = lv_obj_class_create_obj(MY_CLASS, parent);
ARM GAS  /var/folders/0z/tsy30v1j4xl4_7kw94k978ww0000gn/T//ccsXEBTu.s 			page 23


 531              		.loc 1 56 5 view .LVU186
  57:Drivers/lvgl/src/widgets/lv_line.c ****     lv_obj_class_init_obj(obj);
 532              		.loc 1 57 5 view .LVU187
  55:Drivers/lvgl/src/widgets/lv_line.c ****     LV_LOG_INFO("begin");
 533              		.loc 1 55 1 is_stmt 0 view .LVU188
 534 0000 10B5     		push	{r4, lr}
 535              		.cfi_def_cfa_offset 8
 536              		.cfi_offset 4, -8
 537              		.cfi_offset 14, -4
  55:Drivers/lvgl/src/widgets/lv_line.c ****     LV_LOG_INFO("begin");
 538              		.loc 1 55 1 view .LVU189
 539 0002 0146     		mov	r1, r0
  57:Drivers/lvgl/src/widgets/lv_line.c ****     lv_obj_class_init_obj(obj);
 540              		.loc 1 57 22 view .LVU190
 541 0004 0348     		ldr	r0, .L39
 542              	.LVL55:
  57:Drivers/lvgl/src/widgets/lv_line.c ****     lv_obj_class_init_obj(obj);
 543              		.loc 1 57 22 view .LVU191
 544 0006 FFF7FEFF 		bl	lv_obj_class_create_obj
 545              	.LVL56:
  57:Drivers/lvgl/src/widgets/lv_line.c ****     lv_obj_class_init_obj(obj);
 546              		.loc 1 57 22 view .LVU192
 547 000a 0446     		mov	r4, r0
 548              	.LVL57:
  58:Drivers/lvgl/src/widgets/lv_line.c ****     return obj;
 549              		.loc 1 58 5 is_stmt 1 view .LVU193
 550 000c FFF7FEFF 		bl	lv_obj_class_init_obj
 551              	.LVL58:
  59:Drivers/lvgl/src/widgets/lv_line.c **** }
 552              		.loc 1 59 5 view .LVU194
  60:Drivers/lvgl/src/widgets/lv_line.c **** 
 553              		.loc 1 60 1 is_stmt 0 view .LVU195
 554 0010 2046     		mov	r0, r4
 555 0012 10BD     		pop	{r4, pc}
 556              	.LVL59:
 557              	.L40:
  60:Drivers/lvgl/src/widgets/lv_line.c **** 
 558              		.loc 1 60 1 view .LVU196
 559              		.align	2
 560              	.L39:
 561 0014 00000000 		.word	.LANCHOR0
 562              		.cfi_endproc
 563              	.LFE161:
 565              		.section	.text.lv_line_set_points,"ax",%progbits
 566              		.align	1
 567              		.p2align 2,,3
 568              		.global	lv_line_set_points
 569              		.syntax unified
 570              		.thumb
 571              		.thumb_func
 573              	lv_line_set_points:
 574              	.LVL60:
 575              	.LFB162:
  67:Drivers/lvgl/src/widgets/lv_line.c ****     LV_ASSERT_OBJ(obj, MY_CLASS);
 576              		.loc 1 67 1 is_stmt 1 view -0
 577              		.cfi_startproc
 578              		@ args = 0, pretend = 0, frame = 0
ARM GAS  /var/folders/0z/tsy30v1j4xl4_7kw94k978ww0000gn/T//ccsXEBTu.s 			page 24


 579              		@ frame_needed = 0, uses_anonymous_args = 0
  68:Drivers/lvgl/src/widgets/lv_line.c **** 
 580              		.loc 1 68 5 view .LVU198
  68:Drivers/lvgl/src/widgets/lv_line.c **** 
 581              		.loc 1 68 5 view .LVU199
  68:Drivers/lvgl/src/widgets/lv_line.c **** 
 582              		.loc 1 68 5 view .LVU200
  70:Drivers/lvgl/src/widgets/lv_line.c ****     line->point_array    = points;
 583              		.loc 1 70 5 view .LVU201
  67:Drivers/lvgl/src/widgets/lv_line.c ****     LV_ASSERT_OBJ(obj, MY_CLASS);
 584              		.loc 1 67 1 is_stmt 0 view .LVU202
 585 0000 10B5     		push	{r4, lr}
 586              		.cfi_def_cfa_offset 8
 587              		.cfi_offset 4, -8
 588              		.cfi_offset 14, -4
  67:Drivers/lvgl/src/widgets/lv_line.c ****     LV_ASSERT_OBJ(obj, MY_CLASS);
 589              		.loc 1 67 1 view .LVU203
 590 0002 0446     		mov	r4, r0
 591              	.LVL61:
  71:Drivers/lvgl/src/widgets/lv_line.c ****     line->point_num      = point_num;
 592              		.loc 1 71 5 is_stmt 1 view .LVU204
  71:Drivers/lvgl/src/widgets/lv_line.c ****     line->point_num      = point_num;
 593              		.loc 1 71 26 is_stmt 0 view .LVU205
 594 0004 4162     		str	r1, [r0, #36]
  72:Drivers/lvgl/src/widgets/lv_line.c **** 
 595              		.loc 1 72 5 is_stmt 1 view .LVU206
  72:Drivers/lvgl/src/widgets/lv_line.c **** 
 596              		.loc 1 72 26 is_stmt 0 view .LVU207
 597 0006 0285     		strh	r2, [r0, #40]	@ movhi
  74:Drivers/lvgl/src/widgets/lv_line.c **** 
 598              		.loc 1 74 5 is_stmt 1 view .LVU208
 599 0008 FFF7FEFF 		bl	lv_obj_refresh_self_size
 600              	.LVL62:
  76:Drivers/lvgl/src/widgets/lv_line.c **** }
 601              		.loc 1 76 5 view .LVU209
 602 000c 2046     		mov	r0, r4
  77:Drivers/lvgl/src/widgets/lv_line.c **** 
 603              		.loc 1 77 1 is_stmt 0 view .LVU210
 604 000e BDE81040 		pop	{r4, lr}
 605              		.cfi_restore 14
 606              		.cfi_restore 4
 607              		.cfi_def_cfa_offset 0
 608              	.LVL63:
  76:Drivers/lvgl/src/widgets/lv_line.c **** }
 609              		.loc 1 76 5 view .LVU211
 610 0012 FFF7FEBF 		b	lv_obj_invalidate
 611              	.LVL64:
  76:Drivers/lvgl/src/widgets/lv_line.c **** }
 612              		.loc 1 76 5 view .LVU212
 613              		.cfi_endproc
 614              	.LFE162:
 616 0016 00BF     		.section	.text.lv_line_set_y_invert,"ax",%progbits
 617              		.align	1
 618              		.p2align 2,,3
 619              		.global	lv_line_set_y_invert
 620              		.syntax unified
 621              		.thumb
ARM GAS  /var/folders/0z/tsy30v1j4xl4_7kw94k978ww0000gn/T//ccsXEBTu.s 			page 25


 622              		.thumb_func
 624              	lv_line_set_y_invert:
 625              	.LVL65:
 626              	.LFB163:
  80:Drivers/lvgl/src/widgets/lv_line.c ****     LV_ASSERT_OBJ(obj, MY_CLASS);
 627              		.loc 1 80 1 is_stmt 1 view -0
 628              		.cfi_startproc
 629              		@ args = 0, pretend = 0, frame = 0
 630              		@ frame_needed = 0, uses_anonymous_args = 0
 631              		@ link register save eliminated.
  81:Drivers/lvgl/src/widgets/lv_line.c **** 
 632              		.loc 1 81 5 view .LVU214
  81:Drivers/lvgl/src/widgets/lv_line.c **** 
 633              		.loc 1 81 5 view .LVU215
  81:Drivers/lvgl/src/widgets/lv_line.c **** 
 634              		.loc 1 81 5 view .LVU216
  83:Drivers/lvgl/src/widgets/lv_line.c ****     if(line->y_inv == en) return;
 635              		.loc 1 83 5 view .LVU217
  84:Drivers/lvgl/src/widgets/lv_line.c **** 
 636              		.loc 1 84 5 view .LVU218
  84:Drivers/lvgl/src/widgets/lv_line.c **** 
 637              		.loc 1 84 12 is_stmt 0 view .LVU219
 638 0000 90F82A30 		ldrb	r3, [r0, #42]	@ zero_extendqisi2
  84:Drivers/lvgl/src/widgets/lv_line.c **** 
 639              		.loc 1 84 7 view .LVU220
 640 0004 03F0010C 		and	ip, r3, #1
 641 0008 8C45     		cmp	ip, r1
 642 000a 05D0     		beq	.L43
  86:Drivers/lvgl/src/widgets/lv_line.c **** 
 643              		.loc 1 86 5 is_stmt 1 discriminator 4 view .LVU221
  86:Drivers/lvgl/src/widgets/lv_line.c **** 
 644              		.loc 1 86 17 is_stmt 0 discriminator 4 view .LVU222
 645 000c 61F30003 		bfi	r3, r1, #0, #1
 646 0010 80F82A30 		strb	r3, [r0, #42]
  88:Drivers/lvgl/src/widgets/lv_line.c **** }
 647              		.loc 1 88 5 is_stmt 1 discriminator 4 view .LVU223
 648 0014 FFF7FEBF 		b	lv_obj_invalidate
 649              	.LVL66:
 650              	.L43:
  89:Drivers/lvgl/src/widgets/lv_line.c **** 
 651              		.loc 1 89 1 is_stmt 0 view .LVU224
 652 0018 7047     		bx	lr
 653              		.cfi_endproc
 654              	.LFE163:
 656 001a 00BF     		.section	.text.lv_line_get_y_invert,"ax",%progbits
 657              		.align	1
 658              		.p2align 2,,3
 659              		.global	lv_line_get_y_invert
 660              		.syntax unified
 661              		.thumb
 662              		.thumb_func
 664              	lv_line_get_y_invert:
 665              	.LVL67:
 666              	.LFB164:
  96:Drivers/lvgl/src/widgets/lv_line.c ****     LV_ASSERT_OBJ(obj, MY_CLASS);
 667              		.loc 1 96 1 is_stmt 1 view -0
 668              		.cfi_startproc
ARM GAS  /var/folders/0z/tsy30v1j4xl4_7kw94k978ww0000gn/T//ccsXEBTu.s 			page 26


 669              		@ args = 0, pretend = 0, frame = 0
 670              		@ frame_needed = 0, uses_anonymous_args = 0
 671              		@ link register save eliminated.
  97:Drivers/lvgl/src/widgets/lv_line.c **** 
 672              		.loc 1 97 5 view .LVU226
  97:Drivers/lvgl/src/widgets/lv_line.c **** 
 673              		.loc 1 97 5 view .LVU227
  97:Drivers/lvgl/src/widgets/lv_line.c **** 
 674              		.loc 1 97 5 view .LVU228
  99:Drivers/lvgl/src/widgets/lv_line.c **** 
 675              		.loc 1 99 5 view .LVU229
 101:Drivers/lvgl/src/widgets/lv_line.c **** }
 676              		.loc 1 101 5 view .LVU230
 101:Drivers/lvgl/src/widgets/lv_line.c **** }
 677              		.loc 1 101 24 is_stmt 0 view .LVU231
 678 0000 90F82A00 		ldrb	r0, [r0, #42]	@ zero_extendqisi2
 679              	.LVL68:
 102:Drivers/lvgl/src/widgets/lv_line.c **** 
 680              		.loc 1 102 1 view .LVU232
 681 0004 00F00100 		and	r0, r0, #1
 682 0008 7047     		bx	lr
 683              		.cfi_endproc
 684              	.LFE164:
 686              		.global	lv_line_class
 687 000a 00BF     		.section	.rodata.lv_line_class,"a"
 688              		.align	2
 689              		.set	.LANCHOR0,. + 0
 692              	lv_line_class:
 693 0000 00000000 		.word	lv_obj_class
 694 0004 00000000 		.word	lv_line_constructor
 695 0008 00000000 		.space	8
 695      00000000 
 696 0010 00000000 		.word	lv_line_event
 697 0014 D127     		.short	10193
 698 0016 D127     		.short	10193
 699 0018 C0       		.byte	192
 700 0019 02       		.byte	2
 701 001a 00       		.byte	0
 702 001b 00       		.space	1
 703              		.text
 704              	.Letext0:
 705              		.file 3 "/Users/johannes/Library/Application Support/Code/User/globalStorage/bmd.stm32-for-vscode/
 706              		.file 4 "/Users/johannes/Library/Application Support/Code/User/globalStorage/bmd.stm32-for-vscode/
 707              		.file 5 "/Users/johannes/Library/Application Support/Code/User/globalStorage/bmd.stm32-for-vscode/
 708              		.file 6 "Drivers/lvgl/src/widgets/../core/../misc/../font/../misc/lv_area.h"
 709              		.file 7 "Drivers/lvgl/src/widgets/../core/../misc/../font/lv_font.h"
 710              		.file 8 "Drivers/lvgl/src/widgets/../core/../misc/lv_types.h"
 711              		.file 9 "Drivers/lvgl/src/widgets/../core/../misc/lv_color.h"
 712              		.file 10 "Drivers/lvgl/src/widgets/../core/../misc/lv_txt.h"
 713              		.file 11 "Drivers/lvgl/src/widgets/../core/../misc/lv_bidi.h"
 714              		.file 12 "Drivers/lvgl/src/widgets/../core/../misc/lv_style.h"
 715              		.file 13 "Drivers/lvgl/src/widgets/../core/../hal/../draw/lv_img_buf.h"
 716              		.file 14 "Drivers/lvgl/src/widgets/../core/lv_obj.h"
 717              		.file 15 "Drivers/lvgl/src/widgets/../core/../hal/../draw/lv_draw_rect.h"
 718              		.file 16 "Drivers/lvgl/src/widgets/../core/../hal/../draw/lv_draw_label.h"
 719              		.file 17 "Drivers/lvgl/src/widgets/../core/../hal/../draw/lv_draw_img.h"
 720              		.file 18 "Drivers/lvgl/src/widgets/../core/../hal/../draw/lv_draw_line.h"
ARM GAS  /var/folders/0z/tsy30v1j4xl4_7kw94k978ww0000gn/T//ccsXEBTu.s 			page 27


 721              		.file 19 "Drivers/lvgl/src/widgets/../core/../hal/../draw/lv_draw_arc.h"
 722              		.file 20 "Drivers/lvgl/src/widgets/../core/../hal/../draw/lv_draw_layer.h"
 723              		.file 21 "Drivers/lvgl/src/widgets/../core/../hal/../draw/lv_draw.h"
 724              		.file 22 "Drivers/lvgl/src/widgets/../core/../hal/../misc/lv_ll.h"
 725              		.file 23 "Drivers/lvgl/src/widgets/../core/lv_group.h"
 726              		.file 24 "Drivers/lvgl/src/widgets/../core/lv_obj_scroll.h"
 727              		.file 25 "Drivers/lvgl/src/widgets/../core/lv_obj_style.h"
 728              		.file 26 "Drivers/lvgl/src/widgets/../core/lv_obj_class.h"
 729              		.file 27 "Drivers/lvgl/src/widgets/../core/lv_event.h"
 730              		.file 28 "Drivers/lvgl/src/widgets/lv_line.h"
 731              		.file 29 "Drivers/lvgl/src/widgets/../core/../hal/../draw/sw/../../core/lv_obj_pos.h"
 732              		.file 30 "Drivers/lvgl/src/widgets/../core/lv_obj_draw.h"
ARM GAS  /var/folders/0z/tsy30v1j4xl4_7kw94k978ww0000gn/T//ccsXEBTu.s 			page 28

