ARM GAS  /var/folders/0z/tsy30v1j4xl4_7kw94k978ww0000gn/T//ccv0B7zj.s 			page 1


   1              		.cpu cortex-m4
   2              		.arch armv7e-m
   3              		.fpu fpv4-sp-d16
   4              		.eabi_attribute 27, 1
   5              		.eabi_attribute 28, 1
   6              		.eabi_attribute 23, 1
   7              		.eabi_attribute 24, 1
   8              		.eabi_attribute 25, 1
   9              		.eabi_attribute 26, 1
  10              		.eabi_attribute 30, 2
  11              		.eabi_attribute 34, 1
  12              		.eabi_attribute 18, 4
  13              		.file	"lv_list.c"
  14              		.text
  15              	.Ltext0:
  16              		.cfi_sections	.debug_frame
  17              		.section	.text.lv_list_create,"ax",%progbits
  18              		.align	1
  19              		.p2align 2,,3
  20              		.global	lv_list_create
  21              		.syntax unified
  22              		.thumb
  23              		.thumb_func
  25              	lv_list_create:
  26              	.LVL0:
  27              	.LFB172:
  28              		.file 1 "Drivers/lvgl/src/extra/widgets/list/lv_list.c"
   1:Drivers/lvgl/src/extra/widgets/list/lv_list.c **** /**
   2:Drivers/lvgl/src/extra/widgets/list/lv_list.c ****  * @file lv_list.c
   3:Drivers/lvgl/src/extra/widgets/list/lv_list.c ****  *
   4:Drivers/lvgl/src/extra/widgets/list/lv_list.c ****  */
   5:Drivers/lvgl/src/extra/widgets/list/lv_list.c **** 
   6:Drivers/lvgl/src/extra/widgets/list/lv_list.c **** /*********************
   7:Drivers/lvgl/src/extra/widgets/list/lv_list.c ****  *      INCLUDES
   8:Drivers/lvgl/src/extra/widgets/list/lv_list.c ****  *********************/
   9:Drivers/lvgl/src/extra/widgets/list/lv_list.c **** #include "lv_list.h"
  10:Drivers/lvgl/src/extra/widgets/list/lv_list.c **** #include "../../../core/lv_disp.h"
  11:Drivers/lvgl/src/extra/widgets/list/lv_list.c **** #include "../../../widgets/lv_label.h"
  12:Drivers/lvgl/src/extra/widgets/list/lv_list.c **** #include "../../../widgets/lv_img.h"
  13:Drivers/lvgl/src/extra/widgets/list/lv_list.c **** #include "../../../widgets/lv_btn.h"
  14:Drivers/lvgl/src/extra/widgets/list/lv_list.c **** 
  15:Drivers/lvgl/src/extra/widgets/list/lv_list.c **** #if LV_USE_LIST
  16:Drivers/lvgl/src/extra/widgets/list/lv_list.c **** 
  17:Drivers/lvgl/src/extra/widgets/list/lv_list.c **** /*********************
  18:Drivers/lvgl/src/extra/widgets/list/lv_list.c ****  *      DEFINES
  19:Drivers/lvgl/src/extra/widgets/list/lv_list.c ****  *********************/
  20:Drivers/lvgl/src/extra/widgets/list/lv_list.c **** #define MV_CLASS &lv_list
  21:Drivers/lvgl/src/extra/widgets/list/lv_list.c **** 
  22:Drivers/lvgl/src/extra/widgets/list/lv_list.c **** /**********************
  23:Drivers/lvgl/src/extra/widgets/list/lv_list.c ****  *      TYPEDEFS
  24:Drivers/lvgl/src/extra/widgets/list/lv_list.c ****  **********************/
  25:Drivers/lvgl/src/extra/widgets/list/lv_list.c **** 
  26:Drivers/lvgl/src/extra/widgets/list/lv_list.c **** /**********************
  27:Drivers/lvgl/src/extra/widgets/list/lv_list.c ****  *  STATIC PROTOTYPES
  28:Drivers/lvgl/src/extra/widgets/list/lv_list.c ****  **********************/
  29:Drivers/lvgl/src/extra/widgets/list/lv_list.c **** 
  30:Drivers/lvgl/src/extra/widgets/list/lv_list.c **** const lv_obj_class_t lv_list_class = {
ARM GAS  /var/folders/0z/tsy30v1j4xl4_7kw94k978ww0000gn/T//ccv0B7zj.s 			page 2


  31:Drivers/lvgl/src/extra/widgets/list/lv_list.c ****     .base_class = &lv_obj_class,
  32:Drivers/lvgl/src/extra/widgets/list/lv_list.c ****     .width_def = (LV_DPI_DEF * 3) / 2,
  33:Drivers/lvgl/src/extra/widgets/list/lv_list.c ****     .height_def = LV_DPI_DEF * 2
  34:Drivers/lvgl/src/extra/widgets/list/lv_list.c **** };
  35:Drivers/lvgl/src/extra/widgets/list/lv_list.c **** 
  36:Drivers/lvgl/src/extra/widgets/list/lv_list.c **** const lv_obj_class_t lv_list_btn_class = {
  37:Drivers/lvgl/src/extra/widgets/list/lv_list.c ****     .base_class = &lv_btn_class,
  38:Drivers/lvgl/src/extra/widgets/list/lv_list.c **** };
  39:Drivers/lvgl/src/extra/widgets/list/lv_list.c **** 
  40:Drivers/lvgl/src/extra/widgets/list/lv_list.c **** const lv_obj_class_t lv_list_text_class = {
  41:Drivers/lvgl/src/extra/widgets/list/lv_list.c ****     .base_class = &lv_label_class,
  42:Drivers/lvgl/src/extra/widgets/list/lv_list.c **** };
  43:Drivers/lvgl/src/extra/widgets/list/lv_list.c **** 
  44:Drivers/lvgl/src/extra/widgets/list/lv_list.c **** /**********************
  45:Drivers/lvgl/src/extra/widgets/list/lv_list.c ****  *  STATIC VARIABLES
  46:Drivers/lvgl/src/extra/widgets/list/lv_list.c ****  **********************/
  47:Drivers/lvgl/src/extra/widgets/list/lv_list.c **** 
  48:Drivers/lvgl/src/extra/widgets/list/lv_list.c **** /**********************
  49:Drivers/lvgl/src/extra/widgets/list/lv_list.c ****  *      MACROS
  50:Drivers/lvgl/src/extra/widgets/list/lv_list.c ****  **********************/
  51:Drivers/lvgl/src/extra/widgets/list/lv_list.c **** 
  52:Drivers/lvgl/src/extra/widgets/list/lv_list.c **** /**********************
  53:Drivers/lvgl/src/extra/widgets/list/lv_list.c ****  *   GLOBAL FUNCTIONS
  54:Drivers/lvgl/src/extra/widgets/list/lv_list.c ****  **********************/
  55:Drivers/lvgl/src/extra/widgets/list/lv_list.c **** 
  56:Drivers/lvgl/src/extra/widgets/list/lv_list.c **** lv_obj_t * lv_list_create(lv_obj_t * parent)
  57:Drivers/lvgl/src/extra/widgets/list/lv_list.c **** {
  29              		.loc 1 57 1 view -0
  30              		.cfi_startproc
  31              		@ args = 0, pretend = 0, frame = 0
  32              		@ frame_needed = 0, uses_anonymous_args = 0
  58:Drivers/lvgl/src/extra/widgets/list/lv_list.c ****     LV_LOG_INFO("begin");
  33              		.loc 1 58 5 view .LVU1
  34              		.loc 1 58 5 view .LVU2
  35              		.loc 1 58 5 view .LVU3
  59:Drivers/lvgl/src/extra/widgets/list/lv_list.c ****     lv_obj_t * obj = lv_obj_class_create_obj(&lv_list_class, parent);
  36              		.loc 1 59 5 view .LVU4
  57:Drivers/lvgl/src/extra/widgets/list/lv_list.c ****     LV_LOG_INFO("begin");
  37              		.loc 1 57 1 is_stmt 0 view .LVU5
  38 0000 10B5     		push	{r4, lr}
  39              		.cfi_def_cfa_offset 8
  40              		.cfi_offset 4, -8
  41              		.cfi_offset 14, -4
  57:Drivers/lvgl/src/extra/widgets/list/lv_list.c ****     LV_LOG_INFO("begin");
  42              		.loc 1 57 1 view .LVU6
  43 0002 0146     		mov	r1, r0
  44              		.loc 1 59 22 view .LVU7
  45 0004 0548     		ldr	r0, .L4
  46              	.LVL1:
  47              		.loc 1 59 22 view .LVU8
  48 0006 FFF7FEFF 		bl	lv_obj_class_create_obj
  49              	.LVL2:
  50              		.loc 1 59 22 view .LVU9
  51 000a 0446     		mov	r4, r0
  52              	.LVL3:
  60:Drivers/lvgl/src/extra/widgets/list/lv_list.c ****     lv_obj_class_init_obj(obj);
  53              		.loc 1 60 5 is_stmt 1 view .LVU10
ARM GAS  /var/folders/0z/tsy30v1j4xl4_7kw94k978ww0000gn/T//ccv0B7zj.s 			page 3


  54 000c FFF7FEFF 		bl	lv_obj_class_init_obj
  55              	.LVL4:
  61:Drivers/lvgl/src/extra/widgets/list/lv_list.c ****     lv_obj_set_flex_flow(obj, LV_FLEX_FLOW_COLUMN);
  56              		.loc 1 61 5 view .LVU11
  57 0010 2046     		mov	r0, r4
  58 0012 0121     		movs	r1, #1
  59 0014 FFF7FEFF 		bl	lv_obj_set_flex_flow
  60              	.LVL5:
  62:Drivers/lvgl/src/extra/widgets/list/lv_list.c ****     return obj;
  61              		.loc 1 62 5 view .LVU12
  63:Drivers/lvgl/src/extra/widgets/list/lv_list.c **** }
  62              		.loc 1 63 1 is_stmt 0 view .LVU13
  63 0018 2046     		mov	r0, r4
  64 001a 10BD     		pop	{r4, pc}
  65              	.LVL6:
  66              	.L5:
  67              		.loc 1 63 1 view .LVU14
  68              		.align	2
  69              	.L4:
  70 001c 00000000 		.word	.LANCHOR0
  71              		.cfi_endproc
  72              	.LFE172:
  74              		.section	.text.lv_list_add_text,"ax",%progbits
  75              		.align	1
  76              		.p2align 2,,3
  77              		.global	lv_list_add_text
  78              		.syntax unified
  79              		.thumb
  80              		.thumb_func
  82              	lv_list_add_text:
  83              	.LVL7:
  84              	.LFB173:
  64:Drivers/lvgl/src/extra/widgets/list/lv_list.c **** 
  65:Drivers/lvgl/src/extra/widgets/list/lv_list.c **** lv_obj_t * lv_list_add_text(lv_obj_t * list, const char * txt)
  66:Drivers/lvgl/src/extra/widgets/list/lv_list.c **** {
  85              		.loc 1 66 1 is_stmt 1 view -0
  86              		.cfi_startproc
  87              		@ args = 0, pretend = 0, frame = 0
  88              		@ frame_needed = 0, uses_anonymous_args = 0
  67:Drivers/lvgl/src/extra/widgets/list/lv_list.c ****     LV_LOG_INFO("begin");
  89              		.loc 1 67 5 view .LVU16
  90              		.loc 1 67 5 view .LVU17
  91              		.loc 1 67 5 view .LVU18
  68:Drivers/lvgl/src/extra/widgets/list/lv_list.c ****     lv_obj_t * obj = lv_obj_class_create_obj(&lv_list_text_class, list);
  92              		.loc 1 68 5 view .LVU19
  66:Drivers/lvgl/src/extra/widgets/list/lv_list.c ****     LV_LOG_INFO("begin");
  93              		.loc 1 66 1 is_stmt 0 view .LVU20
  94 0000 38B5     		push	{r3, r4, r5, lr}
  95              		.cfi_def_cfa_offset 16
  96              		.cfi_offset 3, -16
  97              		.cfi_offset 4, -12
  98              		.cfi_offset 5, -8
  99              		.cfi_offset 14, -4
  66:Drivers/lvgl/src/extra/widgets/list/lv_list.c ****     LV_LOG_INFO("begin");
 100              		.loc 1 66 1 view .LVU21
 101 0002 0346     		mov	r3, r0
 102 0004 0D46     		mov	r5, r1
ARM GAS  /var/folders/0z/tsy30v1j4xl4_7kw94k978ww0000gn/T//ccv0B7zj.s 			page 4


 103              		.loc 1 68 22 view .LVU22
 104 0006 0B48     		ldr	r0, .L8
 105              	.LVL8:
 106              		.loc 1 68 22 view .LVU23
 107 0008 1946     		mov	r1, r3
 108              	.LVL9:
 109              		.loc 1 68 22 view .LVU24
 110 000a FFF7FEFF 		bl	lv_obj_class_create_obj
 111              	.LVL10:
 112              		.loc 1 68 22 view .LVU25
 113 000e 0446     		mov	r4, r0
 114              	.LVL11:
  69:Drivers/lvgl/src/extra/widgets/list/lv_list.c ****     lv_obj_class_init_obj(obj);
 115              		.loc 1 69 5 is_stmt 1 view .LVU26
 116 0010 FFF7FEFF 		bl	lv_obj_class_init_obj
 117              	.LVL12:
  70:Drivers/lvgl/src/extra/widgets/list/lv_list.c ****     lv_label_set_text(obj, txt);
 118              		.loc 1 70 5 view .LVU27
 119 0014 2946     		mov	r1, r5
 120 0016 2046     		mov	r0, r4
 121 0018 FFF7FEFF 		bl	lv_label_set_text
 122              	.LVL13:
  71:Drivers/lvgl/src/extra/widgets/list/lv_list.c ****     lv_label_set_long_mode(obj, LV_LABEL_LONG_SCROLL_CIRCULAR);
 123              		.loc 1 71 5 view .LVU28
 124 001c 2046     		mov	r0, r4
 125 001e 0321     		movs	r1, #3
 126 0020 FFF7FEFF 		bl	lv_label_set_long_mode
 127              	.LVL14:
  72:Drivers/lvgl/src/extra/widgets/list/lv_list.c ****     lv_obj_set_width(obj, LV_PCT(100));
 128              		.loc 1 72 5 view .LVU29
 129 0024 2046     		mov	r0, r4
 130 0026 42F26401 		movw	r1, #8292
 131 002a FFF7FEFF 		bl	lv_obj_set_width
 132              	.LVL15:
  73:Drivers/lvgl/src/extra/widgets/list/lv_list.c ****     return obj;
 133              		.loc 1 73 5 view .LVU30
  74:Drivers/lvgl/src/extra/widgets/list/lv_list.c **** }
 134              		.loc 1 74 1 is_stmt 0 view .LVU31
 135 002e 2046     		mov	r0, r4
 136 0030 38BD     		pop	{r3, r4, r5, pc}
 137              	.LVL16:
 138              	.L9:
 139              		.loc 1 74 1 view .LVU32
 140 0032 00BF     		.align	2
 141              	.L8:
 142 0034 00000000 		.word	.LANCHOR1
 143              		.cfi_endproc
 144              	.LFE173:
 146              		.section	.text.lv_list_add_btn,"ax",%progbits
 147              		.align	1
 148              		.p2align 2,,3
 149              		.global	lv_list_add_btn
 150              		.syntax unified
 151              		.thumb
 152              		.thumb_func
 154              	lv_list_add_btn:
 155              	.LVL17:
ARM GAS  /var/folders/0z/tsy30v1j4xl4_7kw94k978ww0000gn/T//ccv0B7zj.s 			page 5


 156              	.LFB174:
  75:Drivers/lvgl/src/extra/widgets/list/lv_list.c **** 
  76:Drivers/lvgl/src/extra/widgets/list/lv_list.c **** lv_obj_t * lv_list_add_btn(lv_obj_t * list, const void * icon, const char * txt)
  77:Drivers/lvgl/src/extra/widgets/list/lv_list.c **** {
 157              		.loc 1 77 1 is_stmt 1 view -0
 158              		.cfi_startproc
 159              		@ args = 0, pretend = 0, frame = 0
 160              		@ frame_needed = 0, uses_anonymous_args = 0
  78:Drivers/lvgl/src/extra/widgets/list/lv_list.c ****     LV_LOG_INFO("begin");
 161              		.loc 1 78 5 view .LVU34
 162              		.loc 1 78 5 view .LVU35
 163              		.loc 1 78 5 view .LVU36
  79:Drivers/lvgl/src/extra/widgets/list/lv_list.c ****     lv_obj_t * obj = lv_obj_class_create_obj(&lv_list_btn_class, list);
 164              		.loc 1 79 5 view .LVU37
  77:Drivers/lvgl/src/extra/widgets/list/lv_list.c ****     LV_LOG_INFO("begin");
 165              		.loc 1 77 1 is_stmt 0 view .LVU38
 166 0000 0346     		mov	r3, r0
 167 0002 70B5     		push	{r4, r5, r6, lr}
 168              		.cfi_def_cfa_offset 16
 169              		.cfi_offset 4, -16
 170              		.cfi_offset 5, -12
 171              		.cfi_offset 6, -8
 172              		.cfi_offset 14, -4
 173              		.loc 1 79 22 view .LVU39
 174 0004 1648     		ldr	r0, .L20
 175              	.LVL18:
  77:Drivers/lvgl/src/extra/widgets/list/lv_list.c ****     LV_LOG_INFO("begin");
 176              		.loc 1 77 1 view .LVU40
 177 0006 0E46     		mov	r6, r1
 178              		.loc 1 79 22 view .LVU41
 179 0008 1946     		mov	r1, r3
 180              	.LVL19:
  77:Drivers/lvgl/src/extra/widgets/list/lv_list.c ****     LV_LOG_INFO("begin");
 181              		.loc 1 77 1 view .LVU42
 182 000a 1546     		mov	r5, r2
 183              		.loc 1 79 22 view .LVU43
 184 000c FFF7FEFF 		bl	lv_obj_class_create_obj
 185              	.LVL20:
 186              		.loc 1 79 22 view .LVU44
 187 0010 0446     		mov	r4, r0
 188              	.LVL21:
  80:Drivers/lvgl/src/extra/widgets/list/lv_list.c ****     lv_obj_class_init_obj(obj);
 189              		.loc 1 80 5 is_stmt 1 view .LVU45
 190 0012 FFF7FEFF 		bl	lv_obj_class_init_obj
 191              	.LVL22:
  81:Drivers/lvgl/src/extra/widgets/list/lv_list.c ****     lv_obj_set_size(obj, LV_PCT(100), LV_SIZE_CONTENT);
 192              		.loc 1 81 5 view .LVU46
 193 0016 42F26401 		movw	r1, #8292
 194 001a 2046     		mov	r0, r4
 195 001c 42F2D172 		movw	r2, #10193
 196 0020 FFF7FEFF 		bl	lv_obj_set_size
 197              	.LVL23:
  82:Drivers/lvgl/src/extra/widgets/list/lv_list.c ****     lv_obj_set_flex_flow(obj, LV_FLEX_FLOW_ROW);
 198              		.loc 1 82 5 view .LVU47
 199 0024 0021     		movs	r1, #0
 200 0026 2046     		mov	r0, r4
 201 0028 FFF7FEFF 		bl	lv_obj_set_flex_flow
ARM GAS  /var/folders/0z/tsy30v1j4xl4_7kw94k978ww0000gn/T//ccv0B7zj.s 			page 6


 202              	.LVL24:
  83:Drivers/lvgl/src/extra/widgets/list/lv_list.c **** 
  84:Drivers/lvgl/src/extra/widgets/list/lv_list.c **** #if LV_USE_IMG == 1
  85:Drivers/lvgl/src/extra/widgets/list/lv_list.c ****     if(icon) {
 203              		.loc 1 85 5 view .LVU48
 204              		.loc 1 85 7 is_stmt 0 view .LVU49
 205 002c 2EB1     		cbz	r6, .L11
 206              	.LBB2:
  86:Drivers/lvgl/src/extra/widgets/list/lv_list.c ****         lv_obj_t * img = lv_img_create(obj);
 207              		.loc 1 86 9 is_stmt 1 view .LVU50
 208              		.loc 1 86 26 is_stmt 0 view .LVU51
 209 002e 2046     		mov	r0, r4
 210 0030 FFF7FEFF 		bl	lv_img_create
 211              	.LVL25:
  87:Drivers/lvgl/src/extra/widgets/list/lv_list.c ****         lv_img_set_src(img, icon);
 212              		.loc 1 87 9 is_stmt 1 view .LVU52
 213 0034 3146     		mov	r1, r6
 214 0036 FFF7FEFF 		bl	lv_img_set_src
 215              	.LVL26:
 216              	.L11:
 217              		.loc 1 87 9 is_stmt 0 view .LVU53
 218              	.LBE2:
  88:Drivers/lvgl/src/extra/widgets/list/lv_list.c ****     }
  89:Drivers/lvgl/src/extra/widgets/list/lv_list.c **** #endif
  90:Drivers/lvgl/src/extra/widgets/list/lv_list.c **** 
  91:Drivers/lvgl/src/extra/widgets/list/lv_list.c ****     if(txt) {
 219              		.loc 1 91 5 is_stmt 1 view .LVU54
 220              		.loc 1 91 7 is_stmt 0 view .LVU55
 221 003a 75B1     		cbz	r5, .L10
 222              	.LBB3:
  92:Drivers/lvgl/src/extra/widgets/list/lv_list.c ****         lv_obj_t * label = lv_label_create(obj);
 223              		.loc 1 92 9 is_stmt 1 view .LVU56
 224              		.loc 1 92 28 is_stmt 0 view .LVU57
 225 003c 2046     		mov	r0, r4
 226 003e FFF7FEFF 		bl	lv_label_create
 227              	.LVL27:
  93:Drivers/lvgl/src/extra/widgets/list/lv_list.c ****         lv_label_set_text(label, txt);
 228              		.loc 1 93 9 view .LVU58
 229 0042 2946     		mov	r1, r5
  92:Drivers/lvgl/src/extra/widgets/list/lv_list.c ****         lv_obj_t * label = lv_label_create(obj);
 230              		.loc 1 92 28 view .LVU59
 231 0044 0646     		mov	r6, r0
 232              	.LVL28:
 233              		.loc 1 93 9 is_stmt 1 view .LVU60
 234 0046 FFF7FEFF 		bl	lv_label_set_text
 235              	.LVL29:
  94:Drivers/lvgl/src/extra/widgets/list/lv_list.c ****         lv_label_set_long_mode(label, LV_LABEL_LONG_SCROLL_CIRCULAR);
 236              		.loc 1 94 9 view .LVU61
 237 004a 0321     		movs	r1, #3
 238 004c 3046     		mov	r0, r6
 239 004e FFF7FEFF 		bl	lv_label_set_long_mode
 240              	.LVL30:
  95:Drivers/lvgl/src/extra/widgets/list/lv_list.c ****         lv_obj_set_flex_grow(label, 1);
 241              		.loc 1 95 9 view .LVU62
 242 0052 0121     		movs	r1, #1
 243 0054 3046     		mov	r0, r6
 244 0056 FFF7FEFF 		bl	lv_obj_set_flex_grow
ARM GAS  /var/folders/0z/tsy30v1j4xl4_7kw94k978ww0000gn/T//ccv0B7zj.s 			page 7


 245              	.LVL31:
 246              	.LBE3:
  96:Drivers/lvgl/src/extra/widgets/list/lv_list.c ****     }
  97:Drivers/lvgl/src/extra/widgets/list/lv_list.c **** 
  98:Drivers/lvgl/src/extra/widgets/list/lv_list.c ****     return obj;
 247              		.loc 1 98 5 view .LVU63
 248              	.L10:
  99:Drivers/lvgl/src/extra/widgets/list/lv_list.c **** }
 249              		.loc 1 99 1 is_stmt 0 view .LVU64
 250 005a 2046     		mov	r0, r4
 251 005c 70BD     		pop	{r4, r5, r6, pc}
 252              	.LVL32:
 253              	.L21:
 254              		.loc 1 99 1 view .LVU65
 255 005e 00BF     		.align	2
 256              	.L20:
 257 0060 00000000 		.word	.LANCHOR2
 258              		.cfi_endproc
 259              	.LFE174:
 261              		.section	.rodata.lv_list_get_btn_text.str1.4,"aMS",%progbits,1
 262              		.align	2
 263              	.LC0:
 264 0000 00       		.ascii	"\000"
 265              		.section	.text.lv_list_get_btn_text,"ax",%progbits
 266              		.align	1
 267              		.p2align 2,,3
 268              		.global	lv_list_get_btn_text
 269              		.syntax unified
 270              		.thumb
 271              		.thumb_func
 273              	lv_list_get_btn_text:
 274              	.LVL33:
 275              	.LFB175:
 100:Drivers/lvgl/src/extra/widgets/list/lv_list.c **** 
 101:Drivers/lvgl/src/extra/widgets/list/lv_list.c **** const char * lv_list_get_btn_text(lv_obj_t * list, lv_obj_t * btn)
 102:Drivers/lvgl/src/extra/widgets/list/lv_list.c **** {
 276              		.loc 1 102 1 is_stmt 1 view -0
 277              		.cfi_startproc
 278              		@ args = 0, pretend = 0, frame = 0
 279              		@ frame_needed = 0, uses_anonymous_args = 0
 103:Drivers/lvgl/src/extra/widgets/list/lv_list.c ****     LV_UNUSED(list);
 280              		.loc 1 103 5 view .LVU67
 104:Drivers/lvgl/src/extra/widgets/list/lv_list.c ****     uint32_t i;
 281              		.loc 1 104 5 view .LVU68
 105:Drivers/lvgl/src/extra/widgets/list/lv_list.c ****     for(i = 0; i < lv_obj_get_child_cnt(btn); i++) {
 282              		.loc 1 105 5 view .LVU69
 102:Drivers/lvgl/src/extra/widgets/list/lv_list.c ****     LV_UNUSED(list);
 283              		.loc 1 102 1 is_stmt 0 view .LVU70
 284 0000 F8B5     		push	{r3, r4, r5, r6, r7, lr}
 285              		.cfi_def_cfa_offset 24
 286              		.cfi_offset 3, -24
 287              		.cfi_offset 4, -20
 288              		.cfi_offset 5, -16
 289              		.cfi_offset 6, -12
 290              		.cfi_offset 7, -8
 291              		.cfi_offset 14, -4
 292              	.LBB4:
ARM GAS  /var/folders/0z/tsy30v1j4xl4_7kw94k978ww0000gn/T//ccv0B7zj.s 			page 8


 106:Drivers/lvgl/src/extra/widgets/list/lv_list.c ****         lv_obj_t * child = lv_obj_get_child(btn, i);
 107:Drivers/lvgl/src/extra/widgets/list/lv_list.c ****         if(lv_obj_check_type(child, &lv_label_class)) {
 293              		.loc 1 107 12 view .LVU71
 294 0002 0D4F     		ldr	r7, .L28
 295              	.LBE4:
 102:Drivers/lvgl/src/extra/widgets/list/lv_list.c ****     LV_UNUSED(list);
 296              		.loc 1 102 1 view .LVU72
 297 0004 0E46     		mov	r6, r1
 105:Drivers/lvgl/src/extra/widgets/list/lv_list.c ****         lv_obj_t * child = lv_obj_get_child(btn, i);
 298              		.loc 1 105 11 view .LVU73
 299 0006 0024     		movs	r4, #0
 105:Drivers/lvgl/src/extra/widgets/list/lv_list.c ****         lv_obj_t * child = lv_obj_get_child(btn, i);
 300              		.loc 1 105 5 view .LVU74
 301 0008 07E0     		b	.L23
 302              	.LVL34:
 303              	.L25:
 304              	.LBB5:
 106:Drivers/lvgl/src/extra/widgets/list/lv_list.c ****         lv_obj_t * child = lv_obj_get_child(btn, i);
 305              		.loc 1 106 28 view .LVU75
 306 000a FFF7FEFF 		bl	lv_obj_get_child
 307              	.LVL35:
 308              		.loc 1 107 12 view .LVU76
 309 000e 3946     		mov	r1, r7
 106:Drivers/lvgl/src/extra/widgets/list/lv_list.c ****         lv_obj_t * child = lv_obj_get_child(btn, i);
 310              		.loc 1 106 28 view .LVU77
 311 0010 0546     		mov	r5, r0
 312              	.LVL36:
 313              		.loc 1 107 9 is_stmt 1 view .LVU78
 314              		.loc 1 107 12 is_stmt 0 view .LVU79
 315 0012 FFF7FEFF 		bl	lv_obj_check_type
 316              	.LVL37:
 317              		.loc 1 107 12 view .LVU80
 318              	.LBE5:
 105:Drivers/lvgl/src/extra/widgets/list/lv_list.c ****         lv_obj_t * child = lv_obj_get_child(btn, i);
 319              		.loc 1 105 48 is_stmt 1 view .LVU81
 320              	.LBB6:
 321              		.loc 1 107 11 is_stmt 0 view .LVU82
 322 0016 50B9     		cbnz	r0, .L27
 323              	.LBE6:
 105:Drivers/lvgl/src/extra/widgets/list/lv_list.c ****         lv_obj_t * child = lv_obj_get_child(btn, i);
 324              		.loc 1 105 48 discriminator 2 view .LVU83
 325 0018 0134     		adds	r4, r4, #1
 326              	.LVL38:
 327              	.L23:
 105:Drivers/lvgl/src/extra/widgets/list/lv_list.c ****         lv_obj_t * child = lv_obj_get_child(btn, i);
 328              		.loc 1 105 18 is_stmt 1 discriminator 1 view .LVU84
 105:Drivers/lvgl/src/extra/widgets/list/lv_list.c ****         lv_obj_t * child = lv_obj_get_child(btn, i);
 329              		.loc 1 105 20 is_stmt 0 discriminator 1 view .LVU85
 330 001a 3046     		mov	r0, r6
 331 001c FFF7FEFF 		bl	lv_obj_get_child_cnt
 332              	.LVL39:
 333              	.LBB7:
 106:Drivers/lvgl/src/extra/widgets/list/lv_list.c ****         lv_obj_t * child = lv_obj_get_child(btn, i);
 334              		.loc 1 106 9 is_stmt 1 discriminator 1 view .LVU86
 335              	.LBE7:
 105:Drivers/lvgl/src/extra/widgets/list/lv_list.c ****         lv_obj_t * child = lv_obj_get_child(btn, i);
 336              		.loc 1 105 20 is_stmt 0 discriminator 1 view .LVU87
ARM GAS  /var/folders/0z/tsy30v1j4xl4_7kw94k978ww0000gn/T//ccv0B7zj.s 			page 9


 337 0020 0346     		mov	r3, r0
 105:Drivers/lvgl/src/extra/widgets/list/lv_list.c ****         lv_obj_t * child = lv_obj_get_child(btn, i);
 338              		.loc 1 105 18 discriminator 1 view .LVU88
 339 0022 A342     		cmp	r3, r4
 340              	.LBB8:
 106:Drivers/lvgl/src/extra/widgets/list/lv_list.c ****         lv_obj_t * child = lv_obj_get_child(btn, i);
 341              		.loc 1 106 28 discriminator 1 view .LVU89
 342 0024 2146     		mov	r1, r4
 343 0026 3046     		mov	r0, r6
 344              	.LBE8:
 105:Drivers/lvgl/src/extra/widgets/list/lv_list.c ****         lv_obj_t * child = lv_obj_get_child(btn, i);
 345              		.loc 1 105 18 discriminator 1 view .LVU90
 346 0028 EFD8     		bhi	.L25
 347              	.LVL40:
 108:Drivers/lvgl/src/extra/widgets/list/lv_list.c ****             return lv_label_get_text(child);
 109:Drivers/lvgl/src/extra/widgets/list/lv_list.c ****         }
 110:Drivers/lvgl/src/extra/widgets/list/lv_list.c **** 
 111:Drivers/lvgl/src/extra/widgets/list/lv_list.c ****     }
 112:Drivers/lvgl/src/extra/widgets/list/lv_list.c **** 
 113:Drivers/lvgl/src/extra/widgets/list/lv_list.c ****     return "";
 114:Drivers/lvgl/src/extra/widgets/list/lv_list.c **** }
 348              		.loc 1 114 1 view .LVU91
 349 002a 0448     		ldr	r0, .L28+4
 350              	.LVL41:
 351              		.loc 1 114 1 view .LVU92
 352 002c F8BD     		pop	{r3, r4, r5, r6, r7, pc}
 353              	.LVL42:
 354              	.L27:
 355              	.LBB9:
 108:Drivers/lvgl/src/extra/widgets/list/lv_list.c ****             return lv_label_get_text(child);
 356              		.loc 1 108 13 is_stmt 1 view .LVU93
 108:Drivers/lvgl/src/extra/widgets/list/lv_list.c ****             return lv_label_get_text(child);
 357              		.loc 1 108 20 is_stmt 0 view .LVU94
 358 002e 2846     		mov	r0, r5
 359              	.LBE9:
 360              		.loc 1 114 1 view .LVU95
 361 0030 BDE8F840 		pop	{r3, r4, r5, r6, r7, lr}
 362              		.cfi_restore 14
 363              		.cfi_restore 7
 364              		.cfi_restore 6
 365              		.cfi_restore 5
 366              		.cfi_restore 4
 367              		.cfi_restore 3
 368              		.cfi_def_cfa_offset 0
 369              	.LVL43:
 370              	.LBB10:
 108:Drivers/lvgl/src/extra/widgets/list/lv_list.c ****             return lv_label_get_text(child);
 371              		.loc 1 108 20 view .LVU96
 372 0034 FFF7FEBF 		b	lv_label_get_text
 373              	.LVL44:
 374              	.L29:
 108:Drivers/lvgl/src/extra/widgets/list/lv_list.c ****             return lv_label_get_text(child);
 375              		.loc 1 108 20 view .LVU97
 376              		.align	2
 377              	.L28:
 378 0038 00000000 		.word	lv_label_class
 379 003c 00000000 		.word	.LC0
ARM GAS  /var/folders/0z/tsy30v1j4xl4_7kw94k978ww0000gn/T//ccv0B7zj.s 			page 10


 380              	.LBE10:
 381              		.cfi_endproc
 382              	.LFE175:
 384              		.global	lv_list_text_class
 385              		.global	lv_list_btn_class
 386              		.global	lv_list_class
 387              		.section	.rodata.lv_list_btn_class,"a"
 388              		.align	2
 389              		.set	.LANCHOR2,. + 0
 392              	lv_list_btn_class:
 393 0000 00000000 		.word	lv_btn_class
 394 0004 00000000 		.space	24
 394      00000000 
 394      00000000 
 394      00000000 
 394      00000000 
 395              		.section	.rodata.lv_list_class,"a"
 396              		.align	2
 397              		.set	.LANCHOR0,. + 0
 400              	lv_list_class:
 401 0000 00000000 		.word	lv_obj_class
 402 0004 00000000 		.space	16
 402      00000000 
 402      00000000 
 402      00000000 
 403 0014 C300     		.short	195
 404 0016 0401     		.short	260
 405 0018 00000000 		.space	4
 406              		.section	.rodata.lv_list_text_class,"a"
 407              		.align	2
 408              		.set	.LANCHOR1,. + 0
 411              	lv_list_text_class:
 412 0000 00000000 		.word	lv_label_class
 413 0004 00000000 		.space	24
 413      00000000 
 413      00000000 
 413      00000000 
 413      00000000 
 414              		.text
 415              	.Letext0:
 416              		.file 2 "/Users/johannes/Library/Application Support/Code/User/globalStorage/bmd.stm32-for-vscode/
 417              		.file 3 "/Users/johannes/Library/Application Support/Code/User/globalStorage/bmd.stm32-for-vscode/
 418              		.file 4 "Drivers/lvgl/src/extra/widgets/list/../../../core/../misc/../font/../misc/lv_area.h"
 419              		.file 5 "Drivers/lvgl/src/extra/widgets/list/../../../core/../misc/lv_color.h"
 420              		.file 6 "Drivers/lvgl/src/extra/widgets/list/../../../core/../misc/lv_style.h"
 421              		.file 7 "Drivers/lvgl/src/extra/widgets/list/../../../core/lv_obj.h"
 422              		.file 8 "Drivers/lvgl/src/extra/widgets/list/../../../core/../hal/../misc/lv_ll.h"
 423              		.file 9 "Drivers/lvgl/src/extra/widgets/list/../../../core/lv_group.h"
 424              		.file 10 "Drivers/lvgl/src/extra/widgets/list/../../../core/lv_obj_scroll.h"
 425              		.file 11 "Drivers/lvgl/src/extra/widgets/list/../../../core/lv_obj_style.h"
 426              		.file 12 "Drivers/lvgl/src/extra/widgets/list/../../../core/lv_obj_class.h"
 427              		.file 13 "Drivers/lvgl/src/extra/widgets/list/../../../core/lv_event.h"
 428              		.file 14 "Drivers/lvgl/src/extra/widgets/list/../../layouts/flex/lv_flex.h"
 429              		.file 15 "Drivers/lvgl/src/extra/widgets/list/lv_list.h"
 430              		.file 16 "Drivers/lvgl/src/extra/widgets/list/../../../widgets/lv_label.h"
 431              		.file 17 "Drivers/lvgl/src/extra/widgets/list/../../../widgets/lv_btn.h"
 432              		.file 18 "Drivers/lvgl/src/extra/widgets/list/../../../core/lv_obj_tree.h"
ARM GAS  /var/folders/0z/tsy30v1j4xl4_7kw94k978ww0000gn/T//ccv0B7zj.s 			page 11


 433              		.file 19 "Drivers/lvgl/src/extra/widgets/list/../../../widgets/lv_img.h"
 434              		.file 20 "Drivers/lvgl/src/extra/widgets/list/../../../core/../hal/../draw/sw/../../core/lv_obj_po
ARM GAS  /var/folders/0z/tsy30v1j4xl4_7kw94k978ww0000gn/T//ccv0B7zj.s 			page 12

