ARM GAS  /var/folders/0z/tsy30v1j4xl4_7kw94k978ww0000gn/T//ccKkGvdV.s 			page 1


   1              		.cpu cortex-m4
   2              		.arch armv7e-m
   3              		.fpu fpv4-sp-d16
   4              		.eabi_attribute 27, 1
   5              		.eabi_attribute 28, 1
   6              		.eabi_attribute 20, 1
   7              		.eabi_attribute 21, 1
   8              		.eabi_attribute 23, 3
   9              		.eabi_attribute 24, 1
  10              		.eabi_attribute 25, 1
  11              		.eabi_attribute 26, 1
  12              		.eabi_attribute 30, 2
  13              		.eabi_attribute 34, 1
  14              		.eabi_attribute 18, 4
  15              		.file	"lv_lru.c"
  16              		.text
  17              	.Ltext0:
  18              		.cfi_sections	.debug_frame
  19              		.section	.text.lv_lru_remove_item,"ax",%progbits
  20              		.align	1
  21              		.p2align 2,,3
  22              		.syntax unified
  23              		.thumb
  24              		.thumb_func
  26              	lv_lru_remove_item:
  27              	.LVL0:
  28              	.LFB10:
  29              		.file 1 "Drivers/lvgl/src/misc/lv_lru.c"
   1:Drivers/lvgl/src/misc/lv_lru.c **** /**
   2:Drivers/lvgl/src/misc/lv_lru.c ****  * @file lv_lru.c
   3:Drivers/lvgl/src/misc/lv_lru.c ****  *
   4:Drivers/lvgl/src/misc/lv_lru.c ****  * @see https://github.com/willcannings/C-LRU-Cache
   5:Drivers/lvgl/src/misc/lv_lru.c ****  */
   6:Drivers/lvgl/src/misc/lv_lru.c **** 
   7:Drivers/lvgl/src/misc/lv_lru.c **** /*********************
   8:Drivers/lvgl/src/misc/lv_lru.c ****  *      INCLUDES
   9:Drivers/lvgl/src/misc/lv_lru.c ****  *********************/
  10:Drivers/lvgl/src/misc/lv_lru.c **** 
  11:Drivers/lvgl/src/misc/lv_lru.c **** #include "lv_lru.h"
  12:Drivers/lvgl/src/misc/lv_lru.c **** #include "lv_math.h"
  13:Drivers/lvgl/src/misc/lv_lru.c **** #include "lv_mem.h"
  14:Drivers/lvgl/src/misc/lv_lru.c **** #include "lv_assert.h"
  15:Drivers/lvgl/src/misc/lv_lru.c **** #include "lv_log.h"
  16:Drivers/lvgl/src/misc/lv_lru.c **** 
  17:Drivers/lvgl/src/misc/lv_lru.c **** /*********************
  18:Drivers/lvgl/src/misc/lv_lru.c ****  *      DEFINES
  19:Drivers/lvgl/src/misc/lv_lru.c ****  *********************/
  20:Drivers/lvgl/src/misc/lv_lru.c **** 
  21:Drivers/lvgl/src/misc/lv_lru.c **** /**********************
  22:Drivers/lvgl/src/misc/lv_lru.c ****  *      TYPEDEFS
  23:Drivers/lvgl/src/misc/lv_lru.c ****  **********************/
  24:Drivers/lvgl/src/misc/lv_lru.c **** 
  25:Drivers/lvgl/src/misc/lv_lru.c **** struct _lv_lru_item_t {
  26:Drivers/lvgl/src/misc/lv_lru.c ****     void * value;
  27:Drivers/lvgl/src/misc/lv_lru.c ****     void * key;
  28:Drivers/lvgl/src/misc/lv_lru.c ****     size_t value_length;
  29:Drivers/lvgl/src/misc/lv_lru.c ****     size_t key_length;
ARM GAS  /var/folders/0z/tsy30v1j4xl4_7kw94k978ww0000gn/T//ccKkGvdV.s 			page 2


  30:Drivers/lvgl/src/misc/lv_lru.c ****     uint64_t access_count;
  31:Drivers/lvgl/src/misc/lv_lru.c ****     struct _lv_lru_item_t * next;
  32:Drivers/lvgl/src/misc/lv_lru.c **** };
  33:Drivers/lvgl/src/misc/lv_lru.c **** 
  34:Drivers/lvgl/src/misc/lv_lru.c **** /**********************
  35:Drivers/lvgl/src/misc/lv_lru.c ****  *  STATIC PROTOTYPES
  36:Drivers/lvgl/src/misc/lv_lru.c ****  **********************/
  37:Drivers/lvgl/src/misc/lv_lru.c **** 
  38:Drivers/lvgl/src/misc/lv_lru.c **** /**
  39:Drivers/lvgl/src/misc/lv_lru.c ****  * MurmurHash2
  40:Drivers/lvgl/src/misc/lv_lru.c ****  * @author Austin Appleby
  41:Drivers/lvgl/src/misc/lv_lru.c ****  * @see http://sites.google.com/site/murmurhash/
  42:Drivers/lvgl/src/misc/lv_lru.c ****  */
  43:Drivers/lvgl/src/misc/lv_lru.c **** static uint32_t lv_lru_hash(lv_lru_t * cache, const void * key, uint32_t key_length);
  44:Drivers/lvgl/src/misc/lv_lru.c **** 
  45:Drivers/lvgl/src/misc/lv_lru.c **** /** compare a key against an existing item's key */
  46:Drivers/lvgl/src/misc/lv_lru.c **** static int lv_lru_cmp_keys(lv_lru_item_t * item, const void * key, uint32_t key_length);
  47:Drivers/lvgl/src/misc/lv_lru.c **** 
  48:Drivers/lvgl/src/misc/lv_lru.c **** /** remove an item and push it to the free items queue */
  49:Drivers/lvgl/src/misc/lv_lru.c **** static void lv_lru_remove_item(lv_lru_t * cache, lv_lru_item_t * prev, lv_lru_item_t * item, uint32
  50:Drivers/lvgl/src/misc/lv_lru.c **** 
  51:Drivers/lvgl/src/misc/lv_lru.c **** /** pop an existing item off the free queue, or create a new one */
  52:Drivers/lvgl/src/misc/lv_lru.c **** static lv_lru_item_t * lv_lru_pop_or_create_item(lv_lru_t * cache);
  53:Drivers/lvgl/src/misc/lv_lru.c **** 
  54:Drivers/lvgl/src/misc/lv_lru.c **** /**********************
  55:Drivers/lvgl/src/misc/lv_lru.c ****  *  STATIC VARIABLES
  56:Drivers/lvgl/src/misc/lv_lru.c ****  **********************/
  57:Drivers/lvgl/src/misc/lv_lru.c **** 
  58:Drivers/lvgl/src/misc/lv_lru.c **** /**********************
  59:Drivers/lvgl/src/misc/lv_lru.c ****  *      MACROS
  60:Drivers/lvgl/src/misc/lv_lru.c ****  **********************/
  61:Drivers/lvgl/src/misc/lv_lru.c **** 
  62:Drivers/lvgl/src/misc/lv_lru.c **** /* error helpers */
  63:Drivers/lvgl/src/misc/lv_lru.c **** #define error_for(conditions, error)  if(conditions) {return error;}
  64:Drivers/lvgl/src/misc/lv_lru.c **** #define test_for_missing_cache()      error_for(!cache, LV_LRU_MISSING_CACHE)
  65:Drivers/lvgl/src/misc/lv_lru.c **** #define test_for_missing_key()        error_for(!key, LV_LRU_MISSING_KEY)
  66:Drivers/lvgl/src/misc/lv_lru.c **** #define test_for_missing_value()      error_for(!value || value_length == 0, LV_LRU_MISSING_VALUE)
  67:Drivers/lvgl/src/misc/lv_lru.c **** #define test_for_value_too_large()    error_for(value_length > cache->total_memory, LV_LRU_VALUE_TO
  68:Drivers/lvgl/src/misc/lv_lru.c **** 
  69:Drivers/lvgl/src/misc/lv_lru.c **** /**********************
  70:Drivers/lvgl/src/misc/lv_lru.c ****  *   GLOBAL FUNCTIONS
  71:Drivers/lvgl/src/misc/lv_lru.c ****  **********************/
  72:Drivers/lvgl/src/misc/lv_lru.c **** 
  73:Drivers/lvgl/src/misc/lv_lru.c **** lv_lru_t * lv_lru_create(size_t cache_size, size_t average_length, lv_lru_free_t * value_free,
  74:Drivers/lvgl/src/misc/lv_lru.c ****                          lv_lru_free_t * key_free)
  75:Drivers/lvgl/src/misc/lv_lru.c **** {
  76:Drivers/lvgl/src/misc/lv_lru.c ****     // create the cache
  77:Drivers/lvgl/src/misc/lv_lru.c ****     lv_lru_t * cache = (lv_lru_t *) lv_mem_alloc(sizeof(lv_lru_t));
  78:Drivers/lvgl/src/misc/lv_lru.c ****     lv_memset_00(cache, sizeof(lv_lru_t));
  79:Drivers/lvgl/src/misc/lv_lru.c ****     if(!cache) {
  80:Drivers/lvgl/src/misc/lv_lru.c ****         LV_LOG_WARN("LRU Cache unable to create cache object");
  81:Drivers/lvgl/src/misc/lv_lru.c ****         return NULL;
  82:Drivers/lvgl/src/misc/lv_lru.c ****     }
  83:Drivers/lvgl/src/misc/lv_lru.c ****     cache->hash_table_size = cache_size / average_length;
  84:Drivers/lvgl/src/misc/lv_lru.c ****     cache->average_item_length = average_length;
  85:Drivers/lvgl/src/misc/lv_lru.c ****     cache->free_memory = cache_size;
  86:Drivers/lvgl/src/misc/lv_lru.c ****     cache->total_memory = cache_size;
ARM GAS  /var/folders/0z/tsy30v1j4xl4_7kw94k978ww0000gn/T//ccKkGvdV.s 			page 3


  87:Drivers/lvgl/src/misc/lv_lru.c ****     cache->seed = lv_rand(1, UINT32_MAX);
  88:Drivers/lvgl/src/misc/lv_lru.c ****     cache->value_free = value_free ? value_free : lv_mem_free;
  89:Drivers/lvgl/src/misc/lv_lru.c ****     cache->key_free = key_free ? key_free : lv_mem_free;
  90:Drivers/lvgl/src/misc/lv_lru.c **** 
  91:Drivers/lvgl/src/misc/lv_lru.c ****     // size the hash table to a guestimate of the number of slots required (assuming a perfect hash
  92:Drivers/lvgl/src/misc/lv_lru.c ****     cache->items = (lv_lru_item_t **) lv_mem_alloc(sizeof(lv_lru_item_t *) * cache->hash_table_size
  93:Drivers/lvgl/src/misc/lv_lru.c ****     lv_memset_00(cache->items, sizeof(lv_lru_item_t *) * cache->hash_table_size);
  94:Drivers/lvgl/src/misc/lv_lru.c ****     if(!cache->items) {
  95:Drivers/lvgl/src/misc/lv_lru.c ****         LV_LOG_WARN("LRU Cache unable to create cache hash table");
  96:Drivers/lvgl/src/misc/lv_lru.c ****         lv_mem_free(cache);
  97:Drivers/lvgl/src/misc/lv_lru.c ****         return NULL;
  98:Drivers/lvgl/src/misc/lv_lru.c ****     }
  99:Drivers/lvgl/src/misc/lv_lru.c ****     return cache;
 100:Drivers/lvgl/src/misc/lv_lru.c **** }
 101:Drivers/lvgl/src/misc/lv_lru.c **** 
 102:Drivers/lvgl/src/misc/lv_lru.c **** 
 103:Drivers/lvgl/src/misc/lv_lru.c **** void lv_lru_del(lv_lru_t * cache)
 104:Drivers/lvgl/src/misc/lv_lru.c **** {
 105:Drivers/lvgl/src/misc/lv_lru.c ****     LV_ASSERT_NULL(cache);
 106:Drivers/lvgl/src/misc/lv_lru.c **** 
 107:Drivers/lvgl/src/misc/lv_lru.c ****     // free each of the cached items, and the hash table
 108:Drivers/lvgl/src/misc/lv_lru.c ****     lv_lru_item_t * item = NULL, *next = NULL;
 109:Drivers/lvgl/src/misc/lv_lru.c ****     uint32_t i = 0;
 110:Drivers/lvgl/src/misc/lv_lru.c ****     if(cache->items) {
 111:Drivers/lvgl/src/misc/lv_lru.c ****         for(; i < cache->hash_table_size; i++) {
 112:Drivers/lvgl/src/misc/lv_lru.c ****             item = cache->items[i];
 113:Drivers/lvgl/src/misc/lv_lru.c ****             while(item) {
 114:Drivers/lvgl/src/misc/lv_lru.c ****                 next = (lv_lru_item_t *) item->next;
 115:Drivers/lvgl/src/misc/lv_lru.c ****                 cache->value_free(item->value);
 116:Drivers/lvgl/src/misc/lv_lru.c ****                 cache->key_free(item->key);
 117:Drivers/lvgl/src/misc/lv_lru.c ****                 cache->free_memory += item->value_length;
 118:Drivers/lvgl/src/misc/lv_lru.c ****                 lv_mem_free(item);
 119:Drivers/lvgl/src/misc/lv_lru.c ****                 item = next;
 120:Drivers/lvgl/src/misc/lv_lru.c ****             }
 121:Drivers/lvgl/src/misc/lv_lru.c ****         }
 122:Drivers/lvgl/src/misc/lv_lru.c ****         lv_mem_free(cache->items);
 123:Drivers/lvgl/src/misc/lv_lru.c ****     }
 124:Drivers/lvgl/src/misc/lv_lru.c **** 
 125:Drivers/lvgl/src/misc/lv_lru.c ****     if(cache->free_items) {
 126:Drivers/lvgl/src/misc/lv_lru.c ****         item = cache->free_items;
 127:Drivers/lvgl/src/misc/lv_lru.c ****         while(item) {
 128:Drivers/lvgl/src/misc/lv_lru.c ****             next = (lv_lru_item_t *) item->next;
 129:Drivers/lvgl/src/misc/lv_lru.c ****             lv_mem_free(item);
 130:Drivers/lvgl/src/misc/lv_lru.c ****             item = next;
 131:Drivers/lvgl/src/misc/lv_lru.c ****         }
 132:Drivers/lvgl/src/misc/lv_lru.c ****     }
 133:Drivers/lvgl/src/misc/lv_lru.c **** 
 134:Drivers/lvgl/src/misc/lv_lru.c ****     // free the cache
 135:Drivers/lvgl/src/misc/lv_lru.c ****     lv_mem_free(cache);
 136:Drivers/lvgl/src/misc/lv_lru.c **** }
 137:Drivers/lvgl/src/misc/lv_lru.c **** 
 138:Drivers/lvgl/src/misc/lv_lru.c **** 
 139:Drivers/lvgl/src/misc/lv_lru.c **** lv_lru_res_t lv_lru_set(lv_lru_t * cache, const void * key, size_t key_length, void * value, size_t
 140:Drivers/lvgl/src/misc/lv_lru.c **** {
 141:Drivers/lvgl/src/misc/lv_lru.c ****     test_for_missing_cache();
 142:Drivers/lvgl/src/misc/lv_lru.c ****     test_for_missing_key();
 143:Drivers/lvgl/src/misc/lv_lru.c ****     test_for_missing_value();
ARM GAS  /var/folders/0z/tsy30v1j4xl4_7kw94k978ww0000gn/T//ccKkGvdV.s 			page 4


 144:Drivers/lvgl/src/misc/lv_lru.c ****     test_for_value_too_large();
 145:Drivers/lvgl/src/misc/lv_lru.c **** 
 146:Drivers/lvgl/src/misc/lv_lru.c ****     // see if the key already exists
 147:Drivers/lvgl/src/misc/lv_lru.c ****     uint32_t hash_index = lv_lru_hash(cache, key, key_length);
 148:Drivers/lvgl/src/misc/lv_lru.c ****     int required = 0;
 149:Drivers/lvgl/src/misc/lv_lru.c ****     lv_lru_item_t * item = NULL, *prev = NULL;
 150:Drivers/lvgl/src/misc/lv_lru.c ****     item = cache->items[hash_index];
 151:Drivers/lvgl/src/misc/lv_lru.c **** 
 152:Drivers/lvgl/src/misc/lv_lru.c ****     while(item && lv_lru_cmp_keys(item, key, key_length)) {
 153:Drivers/lvgl/src/misc/lv_lru.c ****         prev = item;
 154:Drivers/lvgl/src/misc/lv_lru.c ****         item = (lv_lru_item_t *) item->next;
 155:Drivers/lvgl/src/misc/lv_lru.c ****     }
 156:Drivers/lvgl/src/misc/lv_lru.c **** 
 157:Drivers/lvgl/src/misc/lv_lru.c ****     if(item) {
 158:Drivers/lvgl/src/misc/lv_lru.c ****         // update the value and value_lengths
 159:Drivers/lvgl/src/misc/lv_lru.c ****         required = (int)(value_length - item->value_length);
 160:Drivers/lvgl/src/misc/lv_lru.c ****         cache->value_free(item->value);
 161:Drivers/lvgl/src/misc/lv_lru.c ****         item->value = value;
 162:Drivers/lvgl/src/misc/lv_lru.c ****         item->value_length = value_length;
 163:Drivers/lvgl/src/misc/lv_lru.c **** 
 164:Drivers/lvgl/src/misc/lv_lru.c ****     }
 165:Drivers/lvgl/src/misc/lv_lru.c ****     else {
 166:Drivers/lvgl/src/misc/lv_lru.c ****         // insert a new item
 167:Drivers/lvgl/src/misc/lv_lru.c ****         item = lv_lru_pop_or_create_item(cache);
 168:Drivers/lvgl/src/misc/lv_lru.c ****         item->value = value;
 169:Drivers/lvgl/src/misc/lv_lru.c ****         item->key = lv_mem_alloc(key_length);
 170:Drivers/lvgl/src/misc/lv_lru.c ****         memcpy(item->key, key, key_length);
 171:Drivers/lvgl/src/misc/lv_lru.c ****         item->value_length = value_length;
 172:Drivers/lvgl/src/misc/lv_lru.c ****         item->key_length = key_length;
 173:Drivers/lvgl/src/misc/lv_lru.c ****         required = (int) value_length;
 174:Drivers/lvgl/src/misc/lv_lru.c **** 
 175:Drivers/lvgl/src/misc/lv_lru.c ****         if(prev)
 176:Drivers/lvgl/src/misc/lv_lru.c ****             prev->next = item;
 177:Drivers/lvgl/src/misc/lv_lru.c ****         else
 178:Drivers/lvgl/src/misc/lv_lru.c ****             cache->items[hash_index] = item;
 179:Drivers/lvgl/src/misc/lv_lru.c ****     }
 180:Drivers/lvgl/src/misc/lv_lru.c ****     item->access_count = ++cache->access_count;
 181:Drivers/lvgl/src/misc/lv_lru.c **** 
 182:Drivers/lvgl/src/misc/lv_lru.c ****     // remove as many items as necessary to free enough space
 183:Drivers/lvgl/src/misc/lv_lru.c ****     if(required > 0 && (size_t) required > cache->free_memory) {
 184:Drivers/lvgl/src/misc/lv_lru.c ****         while(cache->free_memory < (size_t) required)
 185:Drivers/lvgl/src/misc/lv_lru.c ****             lv_lru_remove_lru_item(cache);
 186:Drivers/lvgl/src/misc/lv_lru.c ****     }
 187:Drivers/lvgl/src/misc/lv_lru.c ****     cache->free_memory -= required;
 188:Drivers/lvgl/src/misc/lv_lru.c ****     return LV_LRU_OK;
 189:Drivers/lvgl/src/misc/lv_lru.c **** }
 190:Drivers/lvgl/src/misc/lv_lru.c **** 
 191:Drivers/lvgl/src/misc/lv_lru.c **** 
 192:Drivers/lvgl/src/misc/lv_lru.c **** lv_lru_res_t lv_lru_get(lv_lru_t * cache, const void * key, size_t key_size, void ** value)
 193:Drivers/lvgl/src/misc/lv_lru.c **** {
 194:Drivers/lvgl/src/misc/lv_lru.c ****     test_for_missing_cache();
 195:Drivers/lvgl/src/misc/lv_lru.c ****     test_for_missing_key();
 196:Drivers/lvgl/src/misc/lv_lru.c **** 
 197:Drivers/lvgl/src/misc/lv_lru.c ****     // loop until we find the item, or hit the end of a chain
 198:Drivers/lvgl/src/misc/lv_lru.c ****     uint32_t hash_index = lv_lru_hash(cache, key, key_size);
 199:Drivers/lvgl/src/misc/lv_lru.c ****     lv_lru_item_t * item = cache->items[hash_index];
 200:Drivers/lvgl/src/misc/lv_lru.c **** 
ARM GAS  /var/folders/0z/tsy30v1j4xl4_7kw94k978ww0000gn/T//ccKkGvdV.s 			page 5


 201:Drivers/lvgl/src/misc/lv_lru.c ****     while(item && lv_lru_cmp_keys(item, key, key_size))
 202:Drivers/lvgl/src/misc/lv_lru.c ****         item = (lv_lru_item_t *) item->next;
 203:Drivers/lvgl/src/misc/lv_lru.c **** 
 204:Drivers/lvgl/src/misc/lv_lru.c ****     if(item) {
 205:Drivers/lvgl/src/misc/lv_lru.c ****         *value = item->value;
 206:Drivers/lvgl/src/misc/lv_lru.c ****         item->access_count = ++cache->access_count;
 207:Drivers/lvgl/src/misc/lv_lru.c ****     }
 208:Drivers/lvgl/src/misc/lv_lru.c ****     else {
 209:Drivers/lvgl/src/misc/lv_lru.c ****         *value = NULL;
 210:Drivers/lvgl/src/misc/lv_lru.c ****     }
 211:Drivers/lvgl/src/misc/lv_lru.c **** 
 212:Drivers/lvgl/src/misc/lv_lru.c ****     return LV_LRU_OK;
 213:Drivers/lvgl/src/misc/lv_lru.c **** }
 214:Drivers/lvgl/src/misc/lv_lru.c **** 
 215:Drivers/lvgl/src/misc/lv_lru.c **** lv_lru_res_t lv_lru_remove(lv_lru_t * cache, const void * key, size_t key_size)
 216:Drivers/lvgl/src/misc/lv_lru.c **** {
 217:Drivers/lvgl/src/misc/lv_lru.c ****     test_for_missing_cache();
 218:Drivers/lvgl/src/misc/lv_lru.c ****     test_for_missing_key();
 219:Drivers/lvgl/src/misc/lv_lru.c **** 
 220:Drivers/lvgl/src/misc/lv_lru.c ****     // loop until we find the item, or hit the end of a chain
 221:Drivers/lvgl/src/misc/lv_lru.c ****     lv_lru_item_t * item = NULL, *prev = NULL;
 222:Drivers/lvgl/src/misc/lv_lru.c ****     uint32_t hash_index = lv_lru_hash(cache, key, key_size);
 223:Drivers/lvgl/src/misc/lv_lru.c ****     item = cache->items[hash_index];
 224:Drivers/lvgl/src/misc/lv_lru.c **** 
 225:Drivers/lvgl/src/misc/lv_lru.c ****     while(item && lv_lru_cmp_keys(item, key, key_size)) {
 226:Drivers/lvgl/src/misc/lv_lru.c ****         prev = item;
 227:Drivers/lvgl/src/misc/lv_lru.c ****         item = (lv_lru_item_t *) item->next;
 228:Drivers/lvgl/src/misc/lv_lru.c ****     }
 229:Drivers/lvgl/src/misc/lv_lru.c **** 
 230:Drivers/lvgl/src/misc/lv_lru.c ****     if(item) {
 231:Drivers/lvgl/src/misc/lv_lru.c ****         lv_lru_remove_item(cache, prev, item, hash_index);
 232:Drivers/lvgl/src/misc/lv_lru.c ****     }
 233:Drivers/lvgl/src/misc/lv_lru.c **** 
 234:Drivers/lvgl/src/misc/lv_lru.c ****     return LV_LRU_OK;
 235:Drivers/lvgl/src/misc/lv_lru.c **** }
 236:Drivers/lvgl/src/misc/lv_lru.c **** 
 237:Drivers/lvgl/src/misc/lv_lru.c **** void lv_lru_remove_lru_item(lv_lru_t * cache)
 238:Drivers/lvgl/src/misc/lv_lru.c **** {
 239:Drivers/lvgl/src/misc/lv_lru.c ****     lv_lru_item_t * min_item = NULL, *min_prev = NULL;
 240:Drivers/lvgl/src/misc/lv_lru.c ****     lv_lru_item_t * item = NULL, *prev = NULL;
 241:Drivers/lvgl/src/misc/lv_lru.c ****     uint32_t i = 0, min_index = -1;
 242:Drivers/lvgl/src/misc/lv_lru.c ****     uint64_t min_access_count = -1;
 243:Drivers/lvgl/src/misc/lv_lru.c **** 
 244:Drivers/lvgl/src/misc/lv_lru.c ****     for(; i < cache->hash_table_size; i++) {
 245:Drivers/lvgl/src/misc/lv_lru.c ****         item = cache->items[i];
 246:Drivers/lvgl/src/misc/lv_lru.c ****         prev = NULL;
 247:Drivers/lvgl/src/misc/lv_lru.c **** 
 248:Drivers/lvgl/src/misc/lv_lru.c ****         while(item) {
 249:Drivers/lvgl/src/misc/lv_lru.c ****             if(item->access_count < min_access_count || (int64_t) min_access_count == -1) {
 250:Drivers/lvgl/src/misc/lv_lru.c ****                 min_access_count = item->access_count;
 251:Drivers/lvgl/src/misc/lv_lru.c ****                 min_item = item;
 252:Drivers/lvgl/src/misc/lv_lru.c ****                 min_prev = prev;
 253:Drivers/lvgl/src/misc/lv_lru.c ****                 min_index = i;
 254:Drivers/lvgl/src/misc/lv_lru.c ****             }
 255:Drivers/lvgl/src/misc/lv_lru.c ****             prev = item;
 256:Drivers/lvgl/src/misc/lv_lru.c ****             item = item->next;
 257:Drivers/lvgl/src/misc/lv_lru.c ****         }
ARM GAS  /var/folders/0z/tsy30v1j4xl4_7kw94k978ww0000gn/T//ccKkGvdV.s 			page 6


 258:Drivers/lvgl/src/misc/lv_lru.c ****     }
 259:Drivers/lvgl/src/misc/lv_lru.c **** 
 260:Drivers/lvgl/src/misc/lv_lru.c ****     if(min_item) {
 261:Drivers/lvgl/src/misc/lv_lru.c ****         lv_lru_remove_item(cache, min_prev, min_item, min_index);
 262:Drivers/lvgl/src/misc/lv_lru.c ****     }
 263:Drivers/lvgl/src/misc/lv_lru.c **** }
 264:Drivers/lvgl/src/misc/lv_lru.c **** 
 265:Drivers/lvgl/src/misc/lv_lru.c **** /**********************
 266:Drivers/lvgl/src/misc/lv_lru.c ****  *   STATIC FUNCTIONS
 267:Drivers/lvgl/src/misc/lv_lru.c ****  **********************/
 268:Drivers/lvgl/src/misc/lv_lru.c **** 
 269:Drivers/lvgl/src/misc/lv_lru.c **** static uint32_t lv_lru_hash(lv_lru_t * cache, const void * key, uint32_t key_length)
 270:Drivers/lvgl/src/misc/lv_lru.c **** {
 271:Drivers/lvgl/src/misc/lv_lru.c ****     uint32_t m = 0x5bd1e995;
 272:Drivers/lvgl/src/misc/lv_lru.c ****     uint32_t r = 24;
 273:Drivers/lvgl/src/misc/lv_lru.c ****     uint32_t h = cache->seed ^ key_length;
 274:Drivers/lvgl/src/misc/lv_lru.c ****     char * data = (char *) key;
 275:Drivers/lvgl/src/misc/lv_lru.c **** 
 276:Drivers/lvgl/src/misc/lv_lru.c ****     while(key_length >= 4) {
 277:Drivers/lvgl/src/misc/lv_lru.c ****         uint32_t k = *(uint32_t *) data;
 278:Drivers/lvgl/src/misc/lv_lru.c ****         k *= m;
 279:Drivers/lvgl/src/misc/lv_lru.c ****         k ^= k >> r;
 280:Drivers/lvgl/src/misc/lv_lru.c ****         k *= m;
 281:Drivers/lvgl/src/misc/lv_lru.c ****         h *= m;
 282:Drivers/lvgl/src/misc/lv_lru.c ****         h ^= k;
 283:Drivers/lvgl/src/misc/lv_lru.c ****         data += 4;
 284:Drivers/lvgl/src/misc/lv_lru.c ****         key_length -= 4;
 285:Drivers/lvgl/src/misc/lv_lru.c ****     }
 286:Drivers/lvgl/src/misc/lv_lru.c **** 
 287:Drivers/lvgl/src/misc/lv_lru.c ****     if(key_length >= 3) {
 288:Drivers/lvgl/src/misc/lv_lru.c ****         h ^= data[2] << 16;
 289:Drivers/lvgl/src/misc/lv_lru.c ****     }
 290:Drivers/lvgl/src/misc/lv_lru.c ****     if(key_length >= 2) {
 291:Drivers/lvgl/src/misc/lv_lru.c ****         h ^= data[1] << 8;
 292:Drivers/lvgl/src/misc/lv_lru.c ****     }
 293:Drivers/lvgl/src/misc/lv_lru.c ****     if(key_length >= 1) {
 294:Drivers/lvgl/src/misc/lv_lru.c ****         h ^= data[0];
 295:Drivers/lvgl/src/misc/lv_lru.c ****         h *= m;
 296:Drivers/lvgl/src/misc/lv_lru.c ****     }
 297:Drivers/lvgl/src/misc/lv_lru.c **** 
 298:Drivers/lvgl/src/misc/lv_lru.c ****     h ^= h >> 13;
 299:Drivers/lvgl/src/misc/lv_lru.c ****     h *= m;
 300:Drivers/lvgl/src/misc/lv_lru.c ****     h ^= h >> 15;
 301:Drivers/lvgl/src/misc/lv_lru.c ****     return h % cache->hash_table_size;
 302:Drivers/lvgl/src/misc/lv_lru.c **** }
 303:Drivers/lvgl/src/misc/lv_lru.c **** 
 304:Drivers/lvgl/src/misc/lv_lru.c **** static int lv_lru_cmp_keys(lv_lru_item_t * item, const void * key, uint32_t key_length)
 305:Drivers/lvgl/src/misc/lv_lru.c **** {
 306:Drivers/lvgl/src/misc/lv_lru.c ****     if(key_length != item->key_length) {
 307:Drivers/lvgl/src/misc/lv_lru.c ****         return 1;
 308:Drivers/lvgl/src/misc/lv_lru.c ****     }
 309:Drivers/lvgl/src/misc/lv_lru.c ****     else {
 310:Drivers/lvgl/src/misc/lv_lru.c ****         return memcmp(key, item->key, key_length);
 311:Drivers/lvgl/src/misc/lv_lru.c ****     }
 312:Drivers/lvgl/src/misc/lv_lru.c **** }
 313:Drivers/lvgl/src/misc/lv_lru.c **** 
 314:Drivers/lvgl/src/misc/lv_lru.c **** static void lv_lru_remove_item(lv_lru_t * cache, lv_lru_item_t * prev, lv_lru_item_t * item, uint32
ARM GAS  /var/folders/0z/tsy30v1j4xl4_7kw94k978ww0000gn/T//ccKkGvdV.s 			page 7


 315:Drivers/lvgl/src/misc/lv_lru.c **** {
  30              		.loc 1 315 1 view -0
  31              		.cfi_startproc
  32              		@ args = 0, pretend = 0, frame = 0
  33              		@ frame_needed = 0, uses_anonymous_args = 0
 316:Drivers/lvgl/src/misc/lv_lru.c ****     if(prev) {
  34              		.loc 1 316 5 view .LVU1
 315:Drivers/lvgl/src/misc/lv_lru.c ****     if(prev) {
  35              		.loc 1 315 1 is_stmt 0 view .LVU2
  36 0000 38B5     		push	{r3, r4, r5, lr}
  37              		.cfi_def_cfa_offset 16
  38              		.cfi_offset 3, -16
  39              		.cfi_offset 4, -12
  40              		.cfi_offset 5, -8
  41              		.cfi_offset 14, -4
 315:Drivers/lvgl/src/misc/lv_lru.c ****     if(prev) {
  42              		.loc 1 315 1 view .LVU3
  43 0002 0546     		mov	r5, r0
  44 0004 1446     		mov	r4, r2
  45              		.loc 1 316 7 view .LVU4
  46 0006 99B1     		cbz	r1, .L2
 317:Drivers/lvgl/src/misc/lv_lru.c ****         prev->next = item->next;
  47              		.loc 1 317 9 is_stmt 1 view .LVU5
  48              		.loc 1 317 26 is_stmt 0 view .LVU6
  49 0008 9369     		ldr	r3, [r2, #24]
  50              	.LVL1:
  51              		.loc 1 317 20 view .LVU7
  52 000a 8B61     		str	r3, [r1, #24]
  53              	.LVL2:
  54              	.L3:
 318:Drivers/lvgl/src/misc/lv_lru.c ****     }
 319:Drivers/lvgl/src/misc/lv_lru.c ****     else {
 320:Drivers/lvgl/src/misc/lv_lru.c ****         cache->items[hash_index] = (lv_lru_item_t *) item->next;
 321:Drivers/lvgl/src/misc/lv_lru.c ****     }
 322:Drivers/lvgl/src/misc/lv_lru.c **** 
 323:Drivers/lvgl/src/misc/lv_lru.c ****     // free memory and update the free memory counter
 324:Drivers/lvgl/src/misc/lv_lru.c ****     cache->free_memory += item->value_length;
  55              		.loc 1 324 5 is_stmt 1 view .LVU8
  56              		.loc 1 324 24 is_stmt 0 view .LVU9
  57 000c A268     		ldr	r2, [r4, #8]
  58 000e 2B69     		ldr	r3, [r5, #16]
 325:Drivers/lvgl/src/misc/lv_lru.c ****     cache->value_free(item->value);
  59              		.loc 1 325 5 view .LVU10
  60 0010 2068     		ldr	r0, [r4]
  61              	.LVL3:
 324:Drivers/lvgl/src/misc/lv_lru.c ****     cache->value_free(item->value);
  62              		.loc 1 324 24 view .LVU11
  63 0012 1344     		add	r3, r3, r2
  64 0014 2B61     		str	r3, [r5, #16]
  65              		.loc 1 325 5 is_stmt 1 view .LVU12
  66 0016 6A6A     		ldr	r2, [r5, #36]
  67 0018 9047     		blx	r2
  68              	.LVL4:
 326:Drivers/lvgl/src/misc/lv_lru.c ****     cache->key_free(item->key);
  69              		.loc 1 326 5 view .LVU13
  70 001a AB6A     		ldr	r3, [r5, #40]
  71 001c 6068     		ldr	r0, [r4, #4]
ARM GAS  /var/folders/0z/tsy30v1j4xl4_7kw94k978ww0000gn/T//ccKkGvdV.s 			page 8


  72 001e 9847     		blx	r3
  73              	.LVL5:
 327:Drivers/lvgl/src/misc/lv_lru.c **** 
 328:Drivers/lvgl/src/misc/lv_lru.c ****     // push the item to the free items queue
 329:Drivers/lvgl/src/misc/lv_lru.c ****     lv_memset_00(item, sizeof(lv_lru_item_t));
  74              		.loc 1 329 5 view .LVU14
  75 0020 2021     		movs	r1, #32
  76 0022 2046     		mov	r0, r4
  77 0024 FFF7FEFF 		bl	lv_memset_00
  78              	.LVL6:
 330:Drivers/lvgl/src/misc/lv_lru.c ****     item->next = cache->free_items;
  79              		.loc 1 330 5 view .LVU15
  80              		.loc 1 330 16 is_stmt 0 view .LVU16
  81 0028 EB6A     		ldr	r3, [r5, #44]
  82 002a A361     		str	r3, [r4, #24]
 331:Drivers/lvgl/src/misc/lv_lru.c ****     cache->free_items = item;
  83              		.loc 1 331 5 is_stmt 1 view .LVU17
  84              		.loc 1 331 23 is_stmt 0 view .LVU18
  85 002c EC62     		str	r4, [r5, #44]
 332:Drivers/lvgl/src/misc/lv_lru.c **** }
  86              		.loc 1 332 1 view .LVU19
  87 002e 38BD     		pop	{r3, r4, r5, pc}
  88              	.LVL7:
  89              	.L2:
 320:Drivers/lvgl/src/misc/lv_lru.c ****     }
  90              		.loc 1 320 9 is_stmt 1 view .LVU20
 320:Drivers/lvgl/src/misc/lv_lru.c ****     }
  91              		.loc 1 320 34 is_stmt 0 view .LVU21
  92 0030 0268     		ldr	r2, [r0]
  93              	.LVL8:
 320:Drivers/lvgl/src/misc/lv_lru.c ****     }
  94              		.loc 1 320 58 view .LVU22
  95 0032 A169     		ldr	r1, [r4, #24]
  96              	.LVL9:
 320:Drivers/lvgl/src/misc/lv_lru.c ****     }
  97              		.loc 1 320 34 view .LVU23
  98 0034 42F82310 		str	r1, [r2, r3, lsl #2]
  99 0038 E8E7     		b	.L3
 100              		.cfi_endproc
 101              	.LFE10:
 103 003a 00BF     		.section	.text.lv_lru_hash.isra.0,"ax",%progbits
 104              		.align	1
 105              		.p2align 2,,3
 106              		.syntax unified
 107              		.thumb
 108              		.thumb_func
 110              	lv_lru_hash.isra.0:
 111              	.LVL10:
 112              	.LFB13:
 269:Drivers/lvgl/src/misc/lv_lru.c **** {
 113              		.loc 1 269 17 is_stmt 1 view -0
 114              		.cfi_startproc
 115              		@ args = 0, pretend = 0, frame = 0
 116              		@ frame_needed = 0, uses_anonymous_args = 0
 271:Drivers/lvgl/src/misc/lv_lru.c ****     uint32_t r = 24;
 117              		.loc 1 271 5 view .LVU25
 272:Drivers/lvgl/src/misc/lv_lru.c ****     uint32_t h = cache->seed ^ key_length;
ARM GAS  /var/folders/0z/tsy30v1j4xl4_7kw94k978ww0000gn/T//ccKkGvdV.s 			page 9


 118              		.loc 1 272 5 view .LVU26
 273:Drivers/lvgl/src/misc/lv_lru.c ****     char * data = (char *) key;
 119              		.loc 1 273 5 view .LVU27
 276:Drivers/lvgl/src/misc/lv_lru.c ****         uint32_t k = *(uint32_t *) data;
 120              		.loc 1 276 22 is_stmt 0 view .LVU28
 121 0000 032B     		cmp	r3, #3
 269:Drivers/lvgl/src/misc/lv_lru.c **** {
 122              		.loc 1 269 17 view .LVU29
 123 0002 30B5     		push	{r4, r5, lr}
 124              		.cfi_def_cfa_offset 12
 125              		.cfi_offset 4, -12
 126              		.cfi_offset 5, -8
 127              		.cfi_offset 14, -4
 273:Drivers/lvgl/src/misc/lv_lru.c ****     char * data = (char *) key;
 128              		.loc 1 273 14 view .LVU30
 129 0004 81EA0301 		eor	r1, r1, r3
 130              	.LVL11:
 274:Drivers/lvgl/src/misc/lv_lru.c **** 
 131              		.loc 1 274 5 is_stmt 1 view .LVU31
 276:Drivers/lvgl/src/misc/lv_lru.c ****         uint32_t k = *(uint32_t *) data;
 132              		.loc 1 276 5 view .LVU32
 276:Drivers/lvgl/src/misc/lv_lru.c ****         uint32_t k = *(uint32_t *) data;
 133              		.loc 1 276 22 view .LVU33
 134 0008 37D9     		bls	.L14
 135 000a A3F1040E 		sub	lr, r3, #4
 136 000e 2EF0030E 		bic	lr, lr, #3
 137 0012 0EF1040E 		add	lr, lr, #4
 138              	.LBB9:
 278:Drivers/lvgl/src/misc/lv_lru.c ****         k ^= k >> r;
 139              		.loc 1 278 11 is_stmt 0 view .LVU34
 140 0016 1A4D     		ldr	r5, .L21
 141 0018 9644     		add	lr, lr, r2
 142              	.LVL12:
 143              	.L8:
 277:Drivers/lvgl/src/misc/lv_lru.c ****         k *= m;
 144              		.loc 1 277 9 is_stmt 1 view .LVU35
 277:Drivers/lvgl/src/misc/lv_lru.c ****         k *= m;
 145              		.loc 1 277 18 is_stmt 0 view .LVU36
 146 001a 52F8044B 		ldr	r4, [r2], #4
 147              	.LVL13:
 278:Drivers/lvgl/src/misc/lv_lru.c ****         k ^= k >> r;
 148              		.loc 1 278 9 is_stmt 1 view .LVU37
 278:Drivers/lvgl/src/misc/lv_lru.c ****         k ^= k >> r;
 149              		.loc 1 278 11 is_stmt 0 view .LVU38
 150 001e 05FB04FC 		mul	ip, r5, r4
 151              	.LVL14:
 279:Drivers/lvgl/src/misc/lv_lru.c ****         k *= m;
 152              		.loc 1 279 9 is_stmt 1 view .LVU39
 279:Drivers/lvgl/src/misc/lv_lru.c ****         k *= m;
 153              		.loc 1 279 11 is_stmt 0 view .LVU40
 154 0022 8CEA1C6C 		eor	ip, ip, ip, lsr #24
 155              	.LVL15:
 280:Drivers/lvgl/src/misc/lv_lru.c ****         h *= m;
 156              		.loc 1 280 9 is_stmt 1 view .LVU41
 281:Drivers/lvgl/src/misc/lv_lru.c ****         h ^= k;
 157              		.loc 1 281 9 view .LVU42
 281:Drivers/lvgl/src/misc/lv_lru.c ****         h ^= k;
ARM GAS  /var/folders/0z/tsy30v1j4xl4_7kw94k978ww0000gn/T//ccKkGvdV.s 			page 10


 158              		.loc 1 281 11 is_stmt 0 view .LVU43
 159 0026 05FB01F1 		mul	r1, r5, r1
 160              	.LVL16:
 282:Drivers/lvgl/src/misc/lv_lru.c ****         data += 4;
 161              		.loc 1 282 9 is_stmt 1 view .LVU44
 280:Drivers/lvgl/src/misc/lv_lru.c ****         h *= m;
 162              		.loc 1 280 11 is_stmt 0 view .LVU45
 163 002a 05FB0CFC 		mul	ip, r5, ip
 164              	.LVL17:
 280:Drivers/lvgl/src/misc/lv_lru.c ****         h *= m;
 165              		.loc 1 280 11 view .LVU46
 166              	.LBE9:
 276:Drivers/lvgl/src/misc/lv_lru.c ****         uint32_t k = *(uint32_t *) data;
 167              		.loc 1 276 22 view .LVU47
 168 002e 7245     		cmp	r2, lr
 169              	.LBB10:
 282:Drivers/lvgl/src/misc/lv_lru.c ****         data += 4;
 170              		.loc 1 282 11 view .LVU48
 171 0030 8CEA0101 		eor	r1, ip, r1
 172              	.LVL18:
 283:Drivers/lvgl/src/misc/lv_lru.c ****         key_length -= 4;
 173              		.loc 1 283 9 is_stmt 1 view .LVU49
 284:Drivers/lvgl/src/misc/lv_lru.c ****     }
 174              		.loc 1 284 9 view .LVU50
 284:Drivers/lvgl/src/misc/lv_lru.c ****     }
 175              		.loc 1 284 9 is_stmt 0 view .LVU51
 176              	.LBE10:
 276:Drivers/lvgl/src/misc/lv_lru.c ****         uint32_t k = *(uint32_t *) data;
 177              		.loc 1 276 22 is_stmt 1 view .LVU52
 178 0034 F1D1     		bne	.L8
 179              	.LBB11:
 284:Drivers/lvgl/src/misc/lv_lru.c ****     }
 180              		.loc 1 284 20 is_stmt 0 view .LVU53
 181 0036 03F00303 		and	r3, r3, #3
 182              	.LVL19:
 183              	.L7:
 284:Drivers/lvgl/src/misc/lv_lru.c ****     }
 184              		.loc 1 284 20 view .LVU54
 185              	.LBE11:
 287:Drivers/lvgl/src/misc/lv_lru.c ****         h ^= data[2] << 16;
 186              		.loc 1 287 5 is_stmt 1 view .LVU55
 287:Drivers/lvgl/src/misc/lv_lru.c ****         h ^= data[2] << 16;
 187              		.loc 1 287 7 is_stmt 0 view .LVU56
 188 003a 032B     		cmp	r3, #3
 189 003c 0ED0     		beq	.L20
 290:Drivers/lvgl/src/misc/lv_lru.c ****         h ^= data[1] << 8;
 190              		.loc 1 290 5 is_stmt 1 view .LVU57
 290:Drivers/lvgl/src/misc/lv_lru.c ****         h ^= data[1] << 8;
 191              		.loc 1 290 7 is_stmt 0 view .LVU58
 192 003e 022B     		cmp	r3, #2
 193 0040 10D0     		beq	.L10
 293:Drivers/lvgl/src/misc/lv_lru.c ****         h ^= data[0];
 194              		.loc 1 293 5 is_stmt 1 view .LVU59
 293:Drivers/lvgl/src/misc/lv_lru.c ****         h ^= data[0];
 195              		.loc 1 293 7 is_stmt 0 view .LVU60
 196 0042 9BB9     		cbnz	r3, .L12
 197              	.LVL20:
ARM GAS  /var/folders/0z/tsy30v1j4xl4_7kw94k978ww0000gn/T//ccKkGvdV.s 			page 11


 198              	.L13:
 298:Drivers/lvgl/src/misc/lv_lru.c ****     h *= m;
 199              		.loc 1 298 5 is_stmt 1 view .LVU61
 299:Drivers/lvgl/src/misc/lv_lru.c ****     h ^= h >> 15;
 200              		.loc 1 299 7 is_stmt 0 view .LVU62
 201 0044 0E4B     		ldr	r3, .L21
 298:Drivers/lvgl/src/misc/lv_lru.c ****     h *= m;
 202              		.loc 1 298 7 view .LVU63
 203 0046 81EA5131 		eor	r1, r1, r1, lsr #13
 204              	.LVL21:
 299:Drivers/lvgl/src/misc/lv_lru.c ****     h ^= h >> 15;
 205              		.loc 1 299 5 is_stmt 1 view .LVU64
 299:Drivers/lvgl/src/misc/lv_lru.c ****     h ^= h >> 15;
 206              		.loc 1 299 7 is_stmt 0 view .LVU65
 207 004a 03FB01F1 		mul	r1, r3, r1
 208              	.LVL22:
 300:Drivers/lvgl/src/misc/lv_lru.c ****     return h % cache->hash_table_size;
 209              		.loc 1 300 5 is_stmt 1 view .LVU66
 301:Drivers/lvgl/src/misc/lv_lru.c **** }
 210              		.loc 1 301 5 view .LVU67
 300:Drivers/lvgl/src/misc/lv_lru.c ****     return h % cache->hash_table_size;
 211              		.loc 1 300 7 is_stmt 0 view .LVU68
 212 004e 81EAD131 		eor	r1, r1, r1, lsr #15
 213              	.LVL23:
 301:Drivers/lvgl/src/misc/lv_lru.c **** }
 214              		.loc 1 301 14 view .LVU69
 215 0052 B1FBF0F3 		udiv	r3, r1, r0
 302:Drivers/lvgl/src/misc/lv_lru.c **** 
 216              		.loc 1 302 1 view .LVU70
 217 0056 00FB1310 		mls	r0, r0, r3, r1
 218 005a 30BD     		pop	{r4, r5, pc}
 219              	.LVL24:
 220              	.L20:
 288:Drivers/lvgl/src/misc/lv_lru.c ****     }
 221              		.loc 1 288 9 is_stmt 1 view .LVU71
 288:Drivers/lvgl/src/misc/lv_lru.c ****     }
 222              		.loc 1 288 18 is_stmt 0 view .LVU72
 223 005c 9EF80230 		ldrb	r3, [lr, #2]	@ zero_extendqisi2
 288:Drivers/lvgl/src/misc/lv_lru.c ****     }
 224              		.loc 1 288 11 view .LVU73
 225 0060 81EA0341 		eor	r1, r1, r3, lsl #16
 226              	.LVL25:
 290:Drivers/lvgl/src/misc/lv_lru.c ****         h ^= data[1] << 8;
 227              		.loc 1 290 5 is_stmt 1 view .LVU74
 228              	.L10:
 291:Drivers/lvgl/src/misc/lv_lru.c ****     }
 229              		.loc 1 291 9 view .LVU75
 291:Drivers/lvgl/src/misc/lv_lru.c ****     }
 230              		.loc 1 291 18 is_stmt 0 view .LVU76
 231 0064 9EF80130 		ldrb	r3, [lr, #1]	@ zero_extendqisi2
 291:Drivers/lvgl/src/misc/lv_lru.c ****     }
 232              		.loc 1 291 11 view .LVU77
 233 0068 81EA0321 		eor	r1, r1, r3, lsl #8
 234              	.LVL26:
 293:Drivers/lvgl/src/misc/lv_lru.c ****         h ^= data[0];
 235              		.loc 1 293 5 is_stmt 1 view .LVU78
 236              	.L12:
ARM GAS  /var/folders/0z/tsy30v1j4xl4_7kw94k978ww0000gn/T//ccKkGvdV.s 			page 12


 294:Drivers/lvgl/src/misc/lv_lru.c ****         h *= m;
 237              		.loc 1 294 9 view .LVU79
 294:Drivers/lvgl/src/misc/lv_lru.c ****         h *= m;
 238              		.loc 1 294 18 is_stmt 0 view .LVU80
 239 006c 9EF80030 		ldrb	r3, [lr]	@ zero_extendqisi2
 295:Drivers/lvgl/src/misc/lv_lru.c ****     }
 240              		.loc 1 295 11 view .LVU81
 241 0070 034A     		ldr	r2, .L21
 242              	.LVL27:
 294:Drivers/lvgl/src/misc/lv_lru.c ****         h *= m;
 243              		.loc 1 294 11 view .LVU82
 244 0072 4B40     		eors	r3, r3, r1
 245              	.LVL28:
 295:Drivers/lvgl/src/misc/lv_lru.c ****     }
 246              		.loc 1 295 9 is_stmt 1 view .LVU83
 295:Drivers/lvgl/src/misc/lv_lru.c ****     }
 247              		.loc 1 295 11 is_stmt 0 view .LVU84
 248 0074 02FB03F1 		mul	r1, r2, r3
 249              	.LVL29:
 295:Drivers/lvgl/src/misc/lv_lru.c ****     }
 250              		.loc 1 295 11 view .LVU85
 251 0078 E4E7     		b	.L13
 252              	.LVL30:
 253              	.L14:
 274:Drivers/lvgl/src/misc/lv_lru.c **** 
 254              		.loc 1 274 12 view .LVU86
 255 007a 9646     		mov	lr, r2
 256 007c DDE7     		b	.L7
 257              	.L22:
 258 007e 00BF     		.align	2
 259              	.L21:
 260 0080 95E9D15B 		.word	1540483477
 261              		.cfi_endproc
 262              	.LFE13:
 264              		.section	.text.lv_lru_create,"ax",%progbits
 265              		.align	1
 266              		.p2align 2,,3
 267              		.global	lv_lru_create
 268              		.syntax unified
 269              		.thumb
 270              		.thumb_func
 272              	lv_lru_create:
 273              	.LVL31:
 274              	.LFB2:
  75:Drivers/lvgl/src/misc/lv_lru.c ****     // create the cache
 275              		.loc 1 75 1 is_stmt 1 view -0
 276              		.cfi_startproc
 277              		@ args = 0, pretend = 0, frame = 0
 278              		@ frame_needed = 0, uses_anonymous_args = 0
  77:Drivers/lvgl/src/misc/lv_lru.c ****     lv_memset_00(cache, sizeof(lv_lru_t));
 279              		.loc 1 77 5 view .LVU88
  75:Drivers/lvgl/src/misc/lv_lru.c ****     // create the cache
 280              		.loc 1 75 1 is_stmt 0 view .LVU89
 281 0000 2DE9F041 		push	{r4, r5, r6, r7, r8, lr}
 282              		.cfi_def_cfa_offset 24
 283              		.cfi_offset 4, -24
 284              		.cfi_offset 5, -20
ARM GAS  /var/folders/0z/tsy30v1j4xl4_7kw94k978ww0000gn/T//ccKkGvdV.s 			page 13


 285              		.cfi_offset 6, -16
 286              		.cfi_offset 7, -12
 287              		.cfi_offset 8, -8
 288              		.cfi_offset 14, -4
  75:Drivers/lvgl/src/misc/lv_lru.c ****     // create the cache
 289              		.loc 1 75 1 view .LVU90
 290 0004 0546     		mov	r5, r0
  77:Drivers/lvgl/src/misc/lv_lru.c ****     lv_memset_00(cache, sizeof(lv_lru_t));
 291              		.loc 1 77 37 view .LVU91
 292 0006 3020     		movs	r0, #48
 293              	.LVL32:
  75:Drivers/lvgl/src/misc/lv_lru.c ****     // create the cache
 294              		.loc 1 75 1 view .LVU92
 295 0008 8846     		mov	r8, r1
 296 000a 1746     		mov	r7, r2
 297 000c 1E46     		mov	r6, r3
  77:Drivers/lvgl/src/misc/lv_lru.c ****     lv_memset_00(cache, sizeof(lv_lru_t));
 298              		.loc 1 77 37 view .LVU93
 299 000e FFF7FEFF 		bl	lv_mem_alloc
 300              	.LVL33:
  78:Drivers/lvgl/src/misc/lv_lru.c ****     if(!cache) {
 301              		.loc 1 78 5 view .LVU94
 302 0012 3021     		movs	r1, #48
  77:Drivers/lvgl/src/misc/lv_lru.c ****     lv_memset_00(cache, sizeof(lv_lru_t));
 303              		.loc 1 77 37 view .LVU95
 304 0014 0446     		mov	r4, r0
 305              	.LVL34:
  78:Drivers/lvgl/src/misc/lv_lru.c ****     if(!cache) {
 306              		.loc 1 78 5 is_stmt 1 view .LVU96
 307 0016 FFF7FEFF 		bl	lv_memset_00
 308              	.LVL35:
  79:Drivers/lvgl/src/misc/lv_lru.c ****         LV_LOG_WARN("LRU Cache unable to create cache object");
 309              		.loc 1 79 5 view .LVU97
  79:Drivers/lvgl/src/misc/lv_lru.c ****         LV_LOG_WARN("LRU Cache unable to create cache object");
 310              		.loc 1 79 7 is_stmt 0 view .LVU98
 311 001a 04B3     		cbz	r4, .L23
  83:Drivers/lvgl/src/misc/lv_lru.c ****     cache->average_item_length = average_length;
 312              		.loc 1 83 5 is_stmt 1 view .LVU99
  87:Drivers/lvgl/src/misc/lv_lru.c ****     cache->value_free = value_free ? value_free : lv_mem_free;
 313              		.loc 1 87 19 is_stmt 0 view .LVU100
 314 001c 4FF0FF31 		mov	r1, #-1
  86:Drivers/lvgl/src/misc/lv_lru.c ****     cache->seed = lv_rand(1, UINT32_MAX);
 315              		.loc 1 86 25 view .LVU101
 316 0020 C4E90455 		strd	r5, r5, [r4, #16]
  83:Drivers/lvgl/src/misc/lv_lru.c ****     cache->average_item_length = average_length;
 317              		.loc 1 83 41 view .LVU102
 318 0024 B5FBF8F5 		udiv	r5, r5, r8
 319              	.LVL36:
  84:Drivers/lvgl/src/misc/lv_lru.c ****     cache->free_memory = cache_size;
 320              		.loc 1 84 32 view .LVU103
 321 0028 C4F81880 		str	r8, [r4, #24]
  83:Drivers/lvgl/src/misc/lv_lru.c ****     cache->average_item_length = average_length;
 322              		.loc 1 83 28 view .LVU104
 323 002c E561     		str	r5, [r4, #28]
  84:Drivers/lvgl/src/misc/lv_lru.c ****     cache->free_memory = cache_size;
 324              		.loc 1 84 5 is_stmt 1 view .LVU105
  85:Drivers/lvgl/src/misc/lv_lru.c ****     cache->total_memory = cache_size;
ARM GAS  /var/folders/0z/tsy30v1j4xl4_7kw94k978ww0000gn/T//ccKkGvdV.s 			page 14


 325              		.loc 1 85 5 view .LVU106
  86:Drivers/lvgl/src/misc/lv_lru.c ****     cache->seed = lv_rand(1, UINT32_MAX);
 326              		.loc 1 86 5 view .LVU107
  87:Drivers/lvgl/src/misc/lv_lru.c ****     cache->value_free = value_free ? value_free : lv_mem_free;
 327              		.loc 1 87 5 view .LVU108
  87:Drivers/lvgl/src/misc/lv_lru.c ****     cache->value_free = value_free ? value_free : lv_mem_free;
 328              		.loc 1 87 19 is_stmt 0 view .LVU109
 329 002e 0120     		movs	r0, #1
 330 0030 FFF7FEFF 		bl	lv_rand
 331              	.LVL37:
  88:Drivers/lvgl/src/misc/lv_lru.c ****     cache->key_free = key_free ? key_free : lv_mem_free;
 332              		.loc 1 88 49 view .LVU110
 333 0034 0E4B     		ldr	r3, .L32
  87:Drivers/lvgl/src/misc/lv_lru.c ****     cache->value_free = value_free ? value_free : lv_mem_free;
 334              		.loc 1 87 17 view .LVU111
 335 0036 2062     		str	r0, [r4, #32]
  88:Drivers/lvgl/src/misc/lv_lru.c ****     cache->key_free = key_free ? key_free : lv_mem_free;
 336              		.loc 1 88 5 is_stmt 1 view .LVU112
  92:Drivers/lvgl/src/misc/lv_lru.c ****     lv_memset_00(cache->items, sizeof(lv_lru_item_t *) * cache->hash_table_size);
 337              		.loc 1 92 39 is_stmt 0 view .LVU113
 338 0038 E069     		ldr	r0, [r4, #28]
  88:Drivers/lvgl/src/misc/lv_lru.c ****     cache->key_free = key_free ? key_free : lv_mem_free;
 339              		.loc 1 88 49 view .LVU114
 340 003a 002F     		cmp	r7, #0
 341 003c 08BF     		it	eq
 342 003e 1F46     		moveq	r7, r3
 343              	.LVL38:
  89:Drivers/lvgl/src/misc/lv_lru.c **** 
 344              		.loc 1 89 43 view .LVU115
 345 0040 002E     		cmp	r6, #0
 346 0042 08BF     		it	eq
 347 0044 1E46     		moveq	r6, r3
 348              	.LVL39:
  89:Drivers/lvgl/src/misc/lv_lru.c **** 
 349              		.loc 1 89 21 view .LVU116
 350 0046 C4E90976 		strd	r7, r6, [r4, #36]
  92:Drivers/lvgl/src/misc/lv_lru.c ****     lv_memset_00(cache->items, sizeof(lv_lru_item_t *) * cache->hash_table_size);
 351              		.loc 1 92 5 is_stmt 1 view .LVU117
  92:Drivers/lvgl/src/misc/lv_lru.c ****     lv_memset_00(cache->items, sizeof(lv_lru_item_t *) * cache->hash_table_size);
 352              		.loc 1 92 39 is_stmt 0 view .LVU118
 353 004a 8000     		lsls	r0, r0, #2
 354 004c FFF7FEFF 		bl	lv_mem_alloc
 355              	.LVL40:
  93:Drivers/lvgl/src/misc/lv_lru.c ****     if(!cache->items) {
 356              		.loc 1 93 5 view .LVU119
 357 0050 E169     		ldr	r1, [r4, #28]
  92:Drivers/lvgl/src/misc/lv_lru.c ****     lv_memset_00(cache->items, sizeof(lv_lru_item_t *) * cache->hash_table_size);
 358              		.loc 1 92 18 view .LVU120
 359 0052 2060     		str	r0, [r4]
  93:Drivers/lvgl/src/misc/lv_lru.c ****     if(!cache->items) {
 360              		.loc 1 93 5 is_stmt 1 view .LVU121
 361 0054 8900     		lsls	r1, r1, #2
 362 0056 FFF7FEFF 		bl	lv_memset_00
 363              	.LVL41:
  94:Drivers/lvgl/src/misc/lv_lru.c ****         LV_LOG_WARN("LRU Cache unable to create cache hash table");
 364              		.loc 1 94 5 view .LVU122
  94:Drivers/lvgl/src/misc/lv_lru.c ****         LV_LOG_WARN("LRU Cache unable to create cache hash table");
ARM GAS  /var/folders/0z/tsy30v1j4xl4_7kw94k978ww0000gn/T//ccKkGvdV.s 			page 15


 365              		.loc 1 94 14 is_stmt 0 view .LVU123
 366 005a 2568     		ldr	r5, [r4]
  94:Drivers/lvgl/src/misc/lv_lru.c ****         LV_LOG_WARN("LRU Cache unable to create cache hash table");
 367              		.loc 1 94 7 view .LVU124
 368 005c 15B1     		cbz	r5, .L31
 369              	.LVL42:
 370              	.L23:
 100:Drivers/lvgl/src/misc/lv_lru.c **** 
 371              		.loc 1 100 1 view .LVU125
 372 005e 2046     		mov	r0, r4
 373 0060 BDE8F081 		pop	{r4, r5, r6, r7, r8, pc}
 374              	.LVL43:
 375              	.L31:
  95:Drivers/lvgl/src/misc/lv_lru.c ****         lv_mem_free(cache);
 376              		.loc 1 95 9 is_stmt 1 view .LVU126
  95:Drivers/lvgl/src/misc/lv_lru.c ****         lv_mem_free(cache);
 377              		.loc 1 95 9 view .LVU127
  95:Drivers/lvgl/src/misc/lv_lru.c ****         lv_mem_free(cache);
 378              		.loc 1 95 9 view .LVU128
  96:Drivers/lvgl/src/misc/lv_lru.c ****         return NULL;
 379              		.loc 1 96 9 view .LVU129
 380 0064 2046     		mov	r0, r4
 381 0066 FFF7FEFF 		bl	lv_mem_free
 382              	.LVL44:
  97:Drivers/lvgl/src/misc/lv_lru.c ****     }
 383              		.loc 1 97 9 view .LVU130
  97:Drivers/lvgl/src/misc/lv_lru.c ****     }
 384              		.loc 1 97 16 is_stmt 0 view .LVU131
 385 006a 2C46     		mov	r4, r5
 386              	.LVL45:
  97:Drivers/lvgl/src/misc/lv_lru.c ****     }
 387              		.loc 1 97 16 view .LVU132
 388 006c F7E7     		b	.L23
 389              	.L33:
 390 006e 00BF     		.align	2
 391              	.L32:
 392 0070 00000000 		.word	lv_mem_free
 393              		.cfi_endproc
 394              	.LFE2:
 396              		.section	.text.lv_lru_del,"ax",%progbits
 397              		.align	1
 398              		.p2align 2,,3
 399              		.global	lv_lru_del
 400              		.syntax unified
 401              		.thumb
 402              		.thumb_func
 404              	lv_lru_del:
 405              	.LVL46:
 406              	.LFB3:
 104:Drivers/lvgl/src/misc/lv_lru.c ****     LV_ASSERT_NULL(cache);
 407              		.loc 1 104 1 is_stmt 1 view -0
 408              		.cfi_startproc
 409              		@ args = 0, pretend = 0, frame = 0
 410              		@ frame_needed = 0, uses_anonymous_args = 0
 105:Drivers/lvgl/src/misc/lv_lru.c **** 
 411              		.loc 1 105 5 view .LVU134
 105:Drivers/lvgl/src/misc/lv_lru.c **** 
ARM GAS  /var/folders/0z/tsy30v1j4xl4_7kw94k978ww0000gn/T//ccKkGvdV.s 			page 16


 412              		.loc 1 105 5 view .LVU135
 413 0000 0028     		cmp	r0, #0
 414 0002 2ED0     		beq	.L36
 105:Drivers/lvgl/src/misc/lv_lru.c **** 
 415              		.loc 1 105 5 discriminator 2 view .LVU136
 105:Drivers/lvgl/src/misc/lv_lru.c **** 
 416              		.loc 1 105 26 discriminator 2 view .LVU137
 108:Drivers/lvgl/src/misc/lv_lru.c ****     uint32_t i = 0;
 417              		.loc 1 108 5 discriminator 2 view .LVU138
 418              	.LVL47:
 109:Drivers/lvgl/src/misc/lv_lru.c ****     if(cache->items) {
 419              		.loc 1 109 5 discriminator 2 view .LVU139
 110:Drivers/lvgl/src/misc/lv_lru.c ****         for(; i < cache->hash_table_size; i++) {
 420              		.loc 1 110 5 discriminator 2 view .LVU140
 104:Drivers/lvgl/src/misc/lv_lru.c ****     LV_ASSERT_NULL(cache);
 421              		.loc 1 104 1 is_stmt 0 discriminator 2 view .LVU141
 422 0004 F8B5     		push	{r3, r4, r5, r6, r7, lr}
 423              		.cfi_def_cfa_offset 24
 424              		.cfi_offset 3, -24
 425              		.cfi_offset 4, -20
 426              		.cfi_offset 5, -16
 427              		.cfi_offset 6, -12
 428              		.cfi_offset 7, -8
 429              		.cfi_offset 14, -4
 430 0006 0546     		mov	r5, r0
 110:Drivers/lvgl/src/misc/lv_lru.c ****         for(; i < cache->hash_table_size; i++) {
 431              		.loc 1 110 13 discriminator 2 view .LVU142
 432 0008 0068     		ldr	r0, [r0]
 433              	.LVL48:
 110:Drivers/lvgl/src/misc/lv_lru.c ****         for(; i < cache->hash_table_size; i++) {
 434              		.loc 1 110 7 discriminator 2 view .LVU143
 435 000a E8B1     		cbz	r0, .L37
 111:Drivers/lvgl/src/misc/lv_lru.c ****             item = cache->items[i];
 436              		.loc 1 111 17 is_stmt 1 view .LVU144
 437 000c EB69     		ldr	r3, [r5, #28]
 438 000e CBB1     		cbz	r3, .L38
 109:Drivers/lvgl/src/misc/lv_lru.c ****     if(cache->items) {
 439              		.loc 1 109 14 is_stmt 0 view .LVU145
 440 0010 0027     		movs	r7, #0
 441              	.LVL49:
 442              	.L41:
 112:Drivers/lvgl/src/misc/lv_lru.c ****             while(item) {
 443              		.loc 1 112 13 is_stmt 1 view .LVU146
 112:Drivers/lvgl/src/misc/lv_lru.c ****             while(item) {
 444              		.loc 1 112 18 is_stmt 0 view .LVU147
 445 0012 50F82760 		ldr	r6, [r0, r7, lsl #2]
 446              	.LVL50:
 113:Drivers/lvgl/src/misc/lv_lru.c ****                 next = (lv_lru_item_t *) item->next;
 447              		.loc 1 113 13 is_stmt 1 view .LVU148
 113:Drivers/lvgl/src/misc/lv_lru.c ****                 next = (lv_lru_item_t *) item->next;
 448              		.loc 1 113 19 view .LVU149
 449 0016 96B1     		cbz	r6, .L39
 450              	.L40:
 114:Drivers/lvgl/src/misc/lv_lru.c ****                 cache->value_free(item->value);
 451              		.loc 1 114 17 view .LVU150
 452 0018 3446     		mov	r4, r6
 115:Drivers/lvgl/src/misc/lv_lru.c ****                 cache->key_free(item->key);
ARM GAS  /var/folders/0z/tsy30v1j4xl4_7kw94k978ww0000gn/T//ccKkGvdV.s 			page 17


 453              		.loc 1 115 17 is_stmt 0 view .LVU151
 454 001a 3068     		ldr	r0, [r6]
 455 001c 6B6A     		ldr	r3, [r5, #36]
 114:Drivers/lvgl/src/misc/lv_lru.c ****                 cache->value_free(item->value);
 456              		.loc 1 114 22 view .LVU152
 457 001e B669     		ldr	r6, [r6, #24]
 458              	.LVL51:
 115:Drivers/lvgl/src/misc/lv_lru.c ****                 cache->key_free(item->key);
 459              		.loc 1 115 17 is_stmt 1 view .LVU153
 460 0020 9847     		blx	r3
 461              	.LVL52:
 116:Drivers/lvgl/src/misc/lv_lru.c ****                 cache->free_memory += item->value_length;
 462              		.loc 1 116 17 view .LVU154
 463 0022 6068     		ldr	r0, [r4, #4]
 464 0024 AB6A     		ldr	r3, [r5, #40]
 465 0026 9847     		blx	r3
 466              	.LVL53:
 117:Drivers/lvgl/src/misc/lv_lru.c ****                 lv_mem_free(item);
 467              		.loc 1 117 17 view .LVU155
 117:Drivers/lvgl/src/misc/lv_lru.c ****                 lv_mem_free(item);
 468              		.loc 1 117 36 is_stmt 0 view .LVU156
 469 0028 2B69     		ldr	r3, [r5, #16]
 470 002a A268     		ldr	r2, [r4, #8]
 471 002c 1344     		add	r3, r3, r2
 118:Drivers/lvgl/src/misc/lv_lru.c ****                 item = next;
 472              		.loc 1 118 17 view .LVU157
 473 002e 2046     		mov	r0, r4
 117:Drivers/lvgl/src/misc/lv_lru.c ****                 lv_mem_free(item);
 474              		.loc 1 117 36 view .LVU158
 475 0030 2B61     		str	r3, [r5, #16]
 118:Drivers/lvgl/src/misc/lv_lru.c ****                 item = next;
 476              		.loc 1 118 17 is_stmt 1 view .LVU159
 477 0032 FFF7FEFF 		bl	lv_mem_free
 478              	.LVL54:
 119:Drivers/lvgl/src/misc/lv_lru.c ****             }
 479              		.loc 1 119 17 view .LVU160
 113:Drivers/lvgl/src/misc/lv_lru.c ****                 next = (lv_lru_item_t *) item->next;
 480              		.loc 1 113 19 view .LVU161
 481 0036 002E     		cmp	r6, #0
 482 0038 EED1     		bne	.L40
 122:Drivers/lvgl/src/misc/lv_lru.c ****     }
 483              		.loc 1 122 26 is_stmt 0 view .LVU162
 484 003a 2868     		ldr	r0, [r5]
 485 003c EB69     		ldr	r3, [r5, #28]
 486              	.LVL55:
 487              	.L39:
 111:Drivers/lvgl/src/misc/lv_lru.c ****             item = cache->items[i];
 488              		.loc 1 111 44 is_stmt 1 view .LVU163
 489 003e 0137     		adds	r7, r7, #1
 490              	.LVL56:
 111:Drivers/lvgl/src/misc/lv_lru.c ****             item = cache->items[i];
 491              		.loc 1 111 17 view .LVU164
 492 0040 BB42     		cmp	r3, r7
 493 0042 E6D8     		bhi	.L41
 494              	.LVL57:
 495              	.L38:
 122:Drivers/lvgl/src/misc/lv_lru.c ****     }
ARM GAS  /var/folders/0z/tsy30v1j4xl4_7kw94k978ww0000gn/T//ccKkGvdV.s 			page 18


 496              		.loc 1 122 9 view .LVU165
 497 0044 FFF7FEFF 		bl	lv_mem_free
 498              	.LVL58:
 499              	.L37:
 125:Drivers/lvgl/src/misc/lv_lru.c ****         item = cache->free_items;
 500              		.loc 1 125 5 view .LVU166
 125:Drivers/lvgl/src/misc/lv_lru.c ****         item = cache->free_items;
 501              		.loc 1 125 13 is_stmt 0 view .LVU167
 502 0048 EC6A     		ldr	r4, [r5, #44]
 125:Drivers/lvgl/src/misc/lv_lru.c ****         item = cache->free_items;
 503              		.loc 1 125 7 view .LVU168
 504 004a 2CB1     		cbz	r4, .L43
 505              	.L42:
 506              	.LVL59:
 128:Drivers/lvgl/src/misc/lv_lru.c ****             lv_mem_free(item);
 507              		.loc 1 128 13 is_stmt 1 view .LVU169
 508 004c 2046     		mov	r0, r4
 128:Drivers/lvgl/src/misc/lv_lru.c ****             lv_mem_free(item);
 509              		.loc 1 128 18 is_stmt 0 view .LVU170
 510 004e A469     		ldr	r4, [r4, #24]
 511              	.LVL60:
 129:Drivers/lvgl/src/misc/lv_lru.c ****             item = next;
 512              		.loc 1 129 13 is_stmt 1 view .LVU171
 513 0050 FFF7FEFF 		bl	lv_mem_free
 514              	.LVL61:
 130:Drivers/lvgl/src/misc/lv_lru.c ****         }
 515              		.loc 1 130 13 view .LVU172
 127:Drivers/lvgl/src/misc/lv_lru.c ****             next = (lv_lru_item_t *) item->next;
 516              		.loc 1 127 15 view .LVU173
 517 0054 002C     		cmp	r4, #0
 518 0056 F9D1     		bne	.L42
 519              	.LVL62:
 520              	.L43:
 135:Drivers/lvgl/src/misc/lv_lru.c **** }
 521              		.loc 1 135 5 view .LVU174
 522 0058 2846     		mov	r0, r5
 136:Drivers/lvgl/src/misc/lv_lru.c **** 
 523              		.loc 1 136 1 is_stmt 0 view .LVU175
 524 005a BDE8F840 		pop	{r3, r4, r5, r6, r7, lr}
 525              		.cfi_restore 14
 526              		.cfi_restore 7
 527              		.cfi_restore 6
 528              		.cfi_restore 5
 529              		.cfi_restore 4
 530              		.cfi_restore 3
 531              		.cfi_def_cfa_offset 0
 532              	.LVL63:
 135:Drivers/lvgl/src/misc/lv_lru.c **** }
 533              		.loc 1 135 5 view .LVU176
 534 005e FFF7FEBF 		b	lv_mem_free
 535              	.LVL64:
 536              	.L36:
 105:Drivers/lvgl/src/misc/lv_lru.c **** 
 537              		.loc 1 105 5 is_stmt 1 discriminator 1 view .LVU177
 105:Drivers/lvgl/src/misc/lv_lru.c **** 
 538              		.loc 1 105 5 discriminator 1 view .LVU178
 105:Drivers/lvgl/src/misc/lv_lru.c **** 
ARM GAS  /var/folders/0z/tsy30v1j4xl4_7kw94k978ww0000gn/T//ccKkGvdV.s 			page 19


 539              		.loc 1 105 5 discriminator 1 view .LVU179
 105:Drivers/lvgl/src/misc/lv_lru.c **** 
 540              		.loc 1 105 5 discriminator 1 view .LVU180
 105:Drivers/lvgl/src/misc/lv_lru.c **** 
 541              		.loc 1 105 5 discriminator 1 view .LVU181
 105:Drivers/lvgl/src/misc/lv_lru.c **** 
 542              		.loc 1 105 5 discriminator 1 view .LVU182
 105:Drivers/lvgl/src/misc/lv_lru.c **** 
 543              		.loc 1 105 5 discriminator 1 view .LVU183
 105:Drivers/lvgl/src/misc/lv_lru.c **** 
 544              		.loc 1 105 5 discriminator 1 view .LVU184
 105:Drivers/lvgl/src/misc/lv_lru.c **** 
 545              		.loc 1 105 5 discriminator 1 view .LVU185
 105:Drivers/lvgl/src/misc/lv_lru.c **** 
 546              		.loc 1 105 5 discriminator 1 view .LVU186
 547 0062 FEE7     		b	.L36
 548              		.cfi_endproc
 549              	.LFE3:
 551              		.section	.text.lv_lru_get,"ax",%progbits
 552              		.align	1
 553              		.p2align 2,,3
 554              		.global	lv_lru_get
 555              		.syntax unified
 556              		.thumb
 557              		.thumb_func
 559              	lv_lru_get:
 560              	.LVL65:
 561              	.LFB5:
 193:Drivers/lvgl/src/misc/lv_lru.c ****     test_for_missing_cache();
 562              		.loc 1 193 1 view -0
 563              		.cfi_startproc
 564              		@ args = 0, pretend = 0, frame = 0
 565              		@ frame_needed = 0, uses_anonymous_args = 0
 194:Drivers/lvgl/src/misc/lv_lru.c ****     test_for_missing_key();
 566              		.loc 1 194 5 view .LVU188
 567 0000 70B3     		cbz	r0, .L65
 194:Drivers/lvgl/src/misc/lv_lru.c ****     test_for_missing_key();
 568              		.loc 1 194 29 discriminator 2 view .LVU189
 195:Drivers/lvgl/src/misc/lv_lru.c **** 
 569              		.loc 1 195 5 discriminator 2 view .LVU190
 193:Drivers/lvgl/src/misc/lv_lru.c ****     test_for_missing_cache();
 570              		.loc 1 193 1 is_stmt 0 discriminator 2 view .LVU191
 571 0002 2DE9F041 		push	{r4, r5, r6, r7, r8, lr}
 572              		.cfi_def_cfa_offset 24
 573              		.cfi_offset 4, -24
 574              		.cfi_offset 5, -20
 575              		.cfi_offset 6, -16
 576              		.cfi_offset 7, -12
 577              		.cfi_offset 8, -8
 578              		.cfi_offset 14, -4
 579 0006 8846     		mov	r8, r1
 195:Drivers/lvgl/src/misc/lv_lru.c **** 
 580              		.loc 1 195 5 discriminator 2 view .LVU192
 581 0008 61B3     		cbz	r1, .L66
 195:Drivers/lvgl/src/misc/lv_lru.c **** 
 582              		.loc 1 195 27 is_stmt 1 discriminator 2 view .LVU193
 198:Drivers/lvgl/src/misc/lv_lru.c ****     lv_lru_item_t * item = cache->items[hash_index];
ARM GAS  /var/folders/0z/tsy30v1j4xl4_7kw94k978ww0000gn/T//ccKkGvdV.s 			page 20


 583              		.loc 1 198 5 discriminator 2 view .LVU194
 584 000a 0646     		mov	r6, r0
 585 000c 1546     		mov	r5, r2
 198:Drivers/lvgl/src/misc/lv_lru.c ****     lv_lru_item_t * item = cache->items[hash_index];
 586              		.loc 1 198 27 is_stmt 0 discriminator 2 view .LVU195
 587 000e D0E90701 		ldrd	r0, r1, [r0, #28]
 588              	.LVL66:
 198:Drivers/lvgl/src/misc/lv_lru.c ****     lv_lru_item_t * item = cache->items[hash_index];
 589              		.loc 1 198 27 discriminator 2 view .LVU196
 590 0012 1F46     		mov	r7, r3
 591 0014 1346     		mov	r3, r2
 592              	.LVL67:
 198:Drivers/lvgl/src/misc/lv_lru.c ****     lv_lru_item_t * item = cache->items[hash_index];
 593              		.loc 1 198 27 discriminator 2 view .LVU197
 594 0016 4246     		mov	r2, r8
 595              	.LVL68:
 198:Drivers/lvgl/src/misc/lv_lru.c ****     lv_lru_item_t * item = cache->items[hash_index];
 596              		.loc 1 198 27 discriminator 2 view .LVU198
 597 0018 FFF7FEFF 		bl	lv_lru_hash.isra.0
 598              	.LVL69:
 199:Drivers/lvgl/src/misc/lv_lru.c **** 
 599              		.loc 1 199 5 is_stmt 1 discriminator 2 view .LVU199
 199:Drivers/lvgl/src/misc/lv_lru.c **** 
 600              		.loc 1 199 21 is_stmt 0 discriminator 2 view .LVU200
 601 001c 3368     		ldr	r3, [r6]
 602 001e 53F82040 		ldr	r4, [r3, r0, lsl #2]
 603              	.LVL70:
 201:Drivers/lvgl/src/misc/lv_lru.c ****         item = (lv_lru_item_t *) item->next;
 604              		.loc 1 201 5 is_stmt 1 discriminator 2 view .LVU201
 201:Drivers/lvgl/src/misc/lv_lru.c ****         item = (lv_lru_item_t *) item->next;
 605              		.loc 1 201 16 discriminator 2 view .LVU202
 606 0022 14B9     		cbnz	r4, .L61
 607 0024 18E0     		b	.L62
 608              	.LVL71:
 609              	.L63:
 202:Drivers/lvgl/src/misc/lv_lru.c **** 
 610              		.loc 1 202 9 view .LVU203
 202:Drivers/lvgl/src/misc/lv_lru.c **** 
 611              		.loc 1 202 14 is_stmt 0 view .LVU204
 612 0026 A469     		ldr	r4, [r4, #24]
 613              	.LVL72:
 201:Drivers/lvgl/src/misc/lv_lru.c ****         item = (lv_lru_item_t *) item->next;
 614              		.loc 1 201 16 is_stmt 1 view .LVU205
 615 0028 B4B1     		cbz	r4, .L62
 616              	.L61:
 617              	.LVL73:
 618              	.LBB16:
 619              	.LBI16:
 304:Drivers/lvgl/src/misc/lv_lru.c **** {
 620              		.loc 1 304 12 view .LVU206
 621              	.LBB17:
 306:Drivers/lvgl/src/misc/lv_lru.c ****         return 1;
 622              		.loc 1 306 5 view .LVU207
 306:Drivers/lvgl/src/misc/lv_lru.c ****         return 1;
 623              		.loc 1 306 7 is_stmt 0 view .LVU208
 624 002a E368     		ldr	r3, [r4, #12]
 625 002c 9D42     		cmp	r5, r3
ARM GAS  /var/folders/0z/tsy30v1j4xl4_7kw94k978ww0000gn/T//ccKkGvdV.s 			page 21


 626 002e FAD1     		bne	.L63
 627              	.LVL74:
 628              	.LBB18:
 629              	.LBI18:
 304:Drivers/lvgl/src/misc/lv_lru.c **** {
 630              		.loc 1 304 12 is_stmt 1 view .LVU209
 631              	.LBB19:
 310:Drivers/lvgl/src/misc/lv_lru.c ****     }
 632              		.loc 1 310 9 view .LVU210
 310:Drivers/lvgl/src/misc/lv_lru.c ****     }
 633              		.loc 1 310 16 is_stmt 0 view .LVU211
 634 0030 6168     		ldr	r1, [r4, #4]
 635 0032 2A46     		mov	r2, r5
 636 0034 4046     		mov	r0, r8
 637 0036 FFF7FEFF 		bl	memcmp
 638              	.LVL75:
 310:Drivers/lvgl/src/misc/lv_lru.c ****     }
 639              		.loc 1 310 16 view .LVU212
 640              	.LBE19:
 641              	.LBE18:
 642              	.LBE17:
 643              	.LBE16:
 201:Drivers/lvgl/src/misc/lv_lru.c ****         item = (lv_lru_item_t *) item->next;
 644              		.loc 1 201 16 view .LVU213
 645 003a 0028     		cmp	r0, #0
 646 003c F3D1     		bne	.L63
 204:Drivers/lvgl/src/misc/lv_lru.c ****         *value = item->value;
 647              		.loc 1 204 5 is_stmt 1 view .LVU214
 205:Drivers/lvgl/src/misc/lv_lru.c ****         item->access_count = ++cache->access_count;
 648              		.loc 1 205 9 view .LVU215
 205:Drivers/lvgl/src/misc/lv_lru.c ****         item->access_count = ++cache->access_count;
 649              		.loc 1 205 22 is_stmt 0 view .LVU216
 650 003e 2368     		ldr	r3, [r4]
 205:Drivers/lvgl/src/misc/lv_lru.c ****         item->access_count = ++cache->access_count;
 651              		.loc 1 205 16 view .LVU217
 652 0040 3B60     		str	r3, [r7]
 206:Drivers/lvgl/src/misc/lv_lru.c ****     }
 653              		.loc 1 206 9 is_stmt 1 view .LVU218
 206:Drivers/lvgl/src/misc/lv_lru.c ****     }
 654              		.loc 1 206 30 is_stmt 0 view .LVU219
 655 0042 D6E90232 		ldrd	r3, r2, [r6, #8]
 656 0046 0133     		adds	r3, r3, #1
 657 0048 42F10002 		adc	r2, r2, #0
 206:Drivers/lvgl/src/misc/lv_lru.c ****     }
 658              		.loc 1 206 28 view .LVU220
 659 004c C6E90232 		strd	r3, r2, [r6, #8]
 660 0050 C4E90432 		strd	r3, r2, [r4, #16]
 661              	.LVL76:
 662              	.L72:
 213:Drivers/lvgl/src/misc/lv_lru.c **** 
 663              		.loc 1 213 1 view .LVU221
 664 0054 BDE8F081 		pop	{r4, r5, r6, r7, r8, pc}
 665              	.LVL77:
 666              	.L62:
 204:Drivers/lvgl/src/misc/lv_lru.c ****         *value = item->value;
 667              		.loc 1 204 5 is_stmt 1 view .LVU222
 209:Drivers/lvgl/src/misc/lv_lru.c ****     }
ARM GAS  /var/folders/0z/tsy30v1j4xl4_7kw94k978ww0000gn/T//ccKkGvdV.s 			page 22


 668              		.loc 1 209 9 view .LVU223
 209:Drivers/lvgl/src/misc/lv_lru.c ****     }
 669              		.loc 1 209 16 is_stmt 0 view .LVU224
 670 0058 0020     		movs	r0, #0
 671 005a 3860     		str	r0, [r7]
 213:Drivers/lvgl/src/misc/lv_lru.c **** 
 672              		.loc 1 213 1 view .LVU225
 673 005c BDE8F081 		pop	{r4, r5, r6, r7, r8, pc}
 674              	.LVL78:
 675              	.L65:
 676              		.cfi_def_cfa_offset 0
 677              		.cfi_restore 4
 678              		.cfi_restore 5
 679              		.cfi_restore 6
 680              		.cfi_restore 7
 681              		.cfi_restore 8
 682              		.cfi_restore 14
 194:Drivers/lvgl/src/misc/lv_lru.c ****     test_for_missing_key();
 683              		.loc 1 194 5 view .LVU226
 684 0060 0120     		movs	r0, #1
 685              	.LVL79:
 213:Drivers/lvgl/src/misc/lv_lru.c **** 
 686              		.loc 1 213 1 view .LVU227
 687 0062 7047     		bx	lr
 688              	.LVL80:
 689              	.L66:
 690              		.cfi_def_cfa_offset 24
 691              		.cfi_offset 4, -24
 692              		.cfi_offset 5, -20
 693              		.cfi_offset 6, -16
 694              		.cfi_offset 7, -12
 695              		.cfi_offset 8, -8
 696              		.cfi_offset 14, -4
 195:Drivers/lvgl/src/misc/lv_lru.c **** 
 697              		.loc 1 195 5 view .LVU228
 698 0064 0220     		movs	r0, #2
 699              	.LVL81:
 195:Drivers/lvgl/src/misc/lv_lru.c **** 
 700              		.loc 1 195 5 view .LVU229
 701 0066 F5E7     		b	.L72
 702              		.cfi_endproc
 703              	.LFE5:
 705              		.section	.text.lv_lru_remove,"ax",%progbits
 706              		.align	1
 707              		.p2align 2,,3
 708              		.global	lv_lru_remove
 709              		.syntax unified
 710              		.thumb
 711              		.thumb_func
 713              	lv_lru_remove:
 714              	.LVL82:
 715              	.LFB6:
 216:Drivers/lvgl/src/misc/lv_lru.c ****     test_for_missing_cache();
 716              		.loc 1 216 1 is_stmt 1 view -0
 717              		.cfi_startproc
 718              		@ args = 0, pretend = 0, frame = 0
 719              		@ frame_needed = 0, uses_anonymous_args = 0
ARM GAS  /var/folders/0z/tsy30v1j4xl4_7kw94k978ww0000gn/T//ccKkGvdV.s 			page 23


 217:Drivers/lvgl/src/misc/lv_lru.c ****     test_for_missing_key();
 720              		.loc 1 217 5 view .LVU231
 721 0000 60B3     		cbz	r0, .L82
 217:Drivers/lvgl/src/misc/lv_lru.c ****     test_for_missing_key();
 722              		.loc 1 217 29 discriminator 2 view .LVU232
 218:Drivers/lvgl/src/misc/lv_lru.c **** 
 723              		.loc 1 218 5 discriminator 2 view .LVU233
 216:Drivers/lvgl/src/misc/lv_lru.c ****     test_for_missing_cache();
 724              		.loc 1 216 1 is_stmt 0 discriminator 2 view .LVU234
 725 0002 2DE9F047 		push	{r4, r5, r6, r7, r8, r9, r10, lr}
 726              		.cfi_def_cfa_offset 32
 727              		.cfi_offset 4, -32
 728              		.cfi_offset 5, -28
 729              		.cfi_offset 6, -24
 730              		.cfi_offset 7, -20
 731              		.cfi_offset 8, -16
 732              		.cfi_offset 9, -12
 733              		.cfi_offset 10, -8
 734              		.cfi_offset 14, -4
 735 0006 0F46     		mov	r7, r1
 218:Drivers/lvgl/src/misc/lv_lru.c **** 
 736              		.loc 1 218 5 discriminator 2 view .LVU235
 737 0008 51B3     		cbz	r1, .L83
 218:Drivers/lvgl/src/misc/lv_lru.c **** 
 738              		.loc 1 218 27 is_stmt 1 discriminator 2 view .LVU236
 221:Drivers/lvgl/src/misc/lv_lru.c ****     uint32_t hash_index = lv_lru_hash(cache, key, key_size);
 739              		.loc 1 221 5 discriminator 2 view .LVU237
 740              	.LVL83:
 222:Drivers/lvgl/src/misc/lv_lru.c ****     item = cache->items[hash_index];
 741              		.loc 1 222 5 discriminator 2 view .LVU238
 222:Drivers/lvgl/src/misc/lv_lru.c ****     item = cache->items[hash_index];
 742              		.loc 1 222 27 is_stmt 0 discriminator 2 view .LVU239
 743 000a 1346     		mov	r3, r2
 744 000c 8046     		mov	r8, r0
 745 000e 9246     		mov	r10, r2
 746 0010 0A46     		mov	r2, r1
 747              	.LVL84:
 222:Drivers/lvgl/src/misc/lv_lru.c ****     item = cache->items[hash_index];
 748              		.loc 1 222 27 discriminator 2 view .LVU240
 749 0012 D0E90701 		ldrd	r0, r1, [r0, #28]
 750              	.LVL85:
 222:Drivers/lvgl/src/misc/lv_lru.c ****     item = cache->items[hash_index];
 751              		.loc 1 222 27 discriminator 2 view .LVU241
 752 0016 FFF7FEFF 		bl	lv_lru_hash.isra.0
 753              	.LVL86:
 223:Drivers/lvgl/src/misc/lv_lru.c **** 
 754              		.loc 1 223 10 discriminator 2 view .LVU242
 755 001a D8F80030 		ldr	r3, [r8]
 756 001e 53F82050 		ldr	r5, [r3, r0, lsl #2]
 222:Drivers/lvgl/src/misc/lv_lru.c ****     item = cache->items[hash_index];
 757              		.loc 1 222 27 discriminator 2 view .LVU243
 758 0022 8146     		mov	r9, r0
 759              	.LVL87:
 223:Drivers/lvgl/src/misc/lv_lru.c **** 
 760              		.loc 1 223 5 is_stmt 1 discriminator 2 view .LVU244
 225:Drivers/lvgl/src/misc/lv_lru.c ****         prev = item;
 761              		.loc 1 225 5 discriminator 2 view .LVU245
ARM GAS  /var/folders/0z/tsy30v1j4xl4_7kw94k978ww0000gn/T//ccKkGvdV.s 			page 24


 225:Drivers/lvgl/src/misc/lv_lru.c ****         prev = item;
 762              		.loc 1 225 16 discriminator 2 view .LVU246
 234:Drivers/lvgl/src/misc/lv_lru.c **** }
 763              		.loc 1 234 12 is_stmt 0 discriminator 2 view .LVU247
 764 0024 2846     		mov	r0, r5
 765              	.LVL88:
 225:Drivers/lvgl/src/misc/lv_lru.c ****         prev = item;
 766              		.loc 1 225 16 discriminator 2 view .LVU248
 767 0026 BDB1     		cbz	r5, .L86
 221:Drivers/lvgl/src/misc/lv_lru.c ****     uint32_t hash_index = lv_lru_hash(cache, key, key_size);
 768              		.loc 1 221 35 view .LVU249
 769 0028 0026     		movs	r6, #0
 770 002a 03E0     		b	.L79
 771              	.LVL89:
 772              	.L80:
 226:Drivers/lvgl/src/misc/lv_lru.c ****         item = (lv_lru_item_t *) item->next;
 773              		.loc 1 226 9 is_stmt 1 view .LVU250
 227:Drivers/lvgl/src/misc/lv_lru.c ****     }
 774              		.loc 1 227 9 view .LVU251
 227:Drivers/lvgl/src/misc/lv_lru.c ****     }
 775              		.loc 1 227 14 is_stmt 0 view .LVU252
 776 002c A869     		ldr	r0, [r5, #24]
 777              	.LVL90:
 225:Drivers/lvgl/src/misc/lv_lru.c ****         prev = item;
 778              		.loc 1 225 16 is_stmt 1 view .LVU253
 779 002e 2E46     		mov	r6, r5
 780 0030 90B1     		cbz	r0, .L86
 225:Drivers/lvgl/src/misc/lv_lru.c ****         prev = item;
 781              		.loc 1 225 16 is_stmt 0 view .LVU254
 782 0032 0546     		mov	r5, r0
 783              	.LVL91:
 784              	.L79:
 785              	.LBB24:
 786              	.LBI24:
 304:Drivers/lvgl/src/misc/lv_lru.c **** {
 787              		.loc 1 304 12 is_stmt 1 view .LVU255
 788              	.LBB25:
 306:Drivers/lvgl/src/misc/lv_lru.c ****         return 1;
 789              		.loc 1 306 5 view .LVU256
 306:Drivers/lvgl/src/misc/lv_lru.c ****         return 1;
 790              		.loc 1 306 7 is_stmt 0 view .LVU257
 791 0034 EB68     		ldr	r3, [r5, #12]
 792 0036 9A45     		cmp	r10, r3
 793 0038 F8D1     		bne	.L80
 794              	.LVL92:
 795              	.LBB26:
 796              	.LBI26:
 304:Drivers/lvgl/src/misc/lv_lru.c **** {
 797              		.loc 1 304 12 is_stmt 1 view .LVU258
 798              	.LBB27:
 310:Drivers/lvgl/src/misc/lv_lru.c ****     }
 799              		.loc 1 310 9 view .LVU259
 310:Drivers/lvgl/src/misc/lv_lru.c ****     }
 800              		.loc 1 310 16 is_stmt 0 view .LVU260
 801 003a 6968     		ldr	r1, [r5, #4]
 802 003c 5246     		mov	r2, r10
 803 003e 3846     		mov	r0, r7
ARM GAS  /var/folders/0z/tsy30v1j4xl4_7kw94k978ww0000gn/T//ccKkGvdV.s 			page 25


 804              	.LVL93:
 310:Drivers/lvgl/src/misc/lv_lru.c ****     }
 805              		.loc 1 310 16 view .LVU261
 806 0040 FFF7FEFF 		bl	memcmp
 807              	.LVL94:
 310:Drivers/lvgl/src/misc/lv_lru.c ****     }
 808              		.loc 1 310 16 view .LVU262
 809              	.LBE27:
 810              	.LBE26:
 811              	.LBE25:
 812              	.LBE24:
 225:Drivers/lvgl/src/misc/lv_lru.c ****         prev = item;
 813              		.loc 1 225 16 view .LVU263
 814 0044 0446     		mov	r4, r0
 815 0046 0028     		cmp	r0, #0
 816 0048 F0D1     		bne	.L80
 230:Drivers/lvgl/src/misc/lv_lru.c ****         lv_lru_remove_item(cache, prev, item, hash_index);
 817              		.loc 1 230 5 is_stmt 1 view .LVU264
 231:Drivers/lvgl/src/misc/lv_lru.c ****     }
 818              		.loc 1 231 9 view .LVU265
 819 004a 4046     		mov	r0, r8
 820 004c 4B46     		mov	r3, r9
 821 004e 2A46     		mov	r2, r5
 822 0050 3146     		mov	r1, r6
 823 0052 FFF7FEFF 		bl	lv_lru_remove_item
 824              	.LVL95:
 234:Drivers/lvgl/src/misc/lv_lru.c **** }
 825              		.loc 1 234 12 is_stmt 0 view .LVU266
 826 0056 2046     		mov	r0, r4
 827              	.LVL96:
 828              	.L86:
 235:Drivers/lvgl/src/misc/lv_lru.c **** 
 829              		.loc 1 235 1 view .LVU267
 830 0058 BDE8F087 		pop	{r4, r5, r6, r7, r8, r9, r10, pc}
 831              	.LVL97:
 832              	.L82:
 833              		.cfi_def_cfa_offset 0
 834              		.cfi_restore 4
 835              		.cfi_restore 5
 836              		.cfi_restore 6
 837              		.cfi_restore 7
 838              		.cfi_restore 8
 839              		.cfi_restore 9
 840              		.cfi_restore 10
 841              		.cfi_restore 14
 217:Drivers/lvgl/src/misc/lv_lru.c ****     test_for_missing_key();
 842              		.loc 1 217 5 view .LVU268
 843 005c 0120     		movs	r0, #1
 844              	.LVL98:
 235:Drivers/lvgl/src/misc/lv_lru.c **** 
 845              		.loc 1 235 1 view .LVU269
 846 005e 7047     		bx	lr
 847              	.LVL99:
 848              	.L83:
 849              		.cfi_def_cfa_offset 32
 850              		.cfi_offset 4, -32
 851              		.cfi_offset 5, -28
ARM GAS  /var/folders/0z/tsy30v1j4xl4_7kw94k978ww0000gn/T//ccKkGvdV.s 			page 26


 852              		.cfi_offset 6, -24
 853              		.cfi_offset 7, -20
 854              		.cfi_offset 8, -16
 855              		.cfi_offset 9, -12
 856              		.cfi_offset 10, -8
 857              		.cfi_offset 14, -4
 218:Drivers/lvgl/src/misc/lv_lru.c **** 
 858              		.loc 1 218 5 view .LVU270
 859 0060 0220     		movs	r0, #2
 860              	.LVL100:
 218:Drivers/lvgl/src/misc/lv_lru.c **** 
 861              		.loc 1 218 5 view .LVU271
 862 0062 F9E7     		b	.L86
 863              		.cfi_endproc
 864              	.LFE6:
 866              		.section	.text.lv_lru_remove_lru_item,"ax",%progbits
 867              		.align	1
 868              		.p2align 2,,3
 869              		.global	lv_lru_remove_lru_item
 870              		.syntax unified
 871              		.thumb
 872              		.thumb_func
 874              	lv_lru_remove_lru_item:
 875              	.LVL101:
 876              	.LFB7:
 238:Drivers/lvgl/src/misc/lv_lru.c ****     lv_lru_item_t * min_item = NULL, *min_prev = NULL;
 877              		.loc 1 238 1 is_stmt 1 view -0
 878              		.cfi_startproc
 879              		@ args = 0, pretend = 0, frame = 0
 880              		@ frame_needed = 0, uses_anonymous_args = 0
 239:Drivers/lvgl/src/misc/lv_lru.c ****     lv_lru_item_t * item = NULL, *prev = NULL;
 881              		.loc 1 239 5 view .LVU273
 240:Drivers/lvgl/src/misc/lv_lru.c ****     uint32_t i = 0, min_index = -1;
 882              		.loc 1 240 5 view .LVU274
 241:Drivers/lvgl/src/misc/lv_lru.c ****     uint64_t min_access_count = -1;
 883              		.loc 1 241 5 view .LVU275
 242:Drivers/lvgl/src/misc/lv_lru.c **** 
 884              		.loc 1 242 5 view .LVU276
 244:Drivers/lvgl/src/misc/lv_lru.c ****         item = cache->items[i];
 885              		.loc 1 244 5 view .LVU277
 244:Drivers/lvgl/src/misc/lv_lru.c ****         item = cache->items[i];
 886              		.loc 1 244 13 view .LVU278
 244:Drivers/lvgl/src/misc/lv_lru.c ****         item = cache->items[i];
 887              		.loc 1 244 20 is_stmt 0 view .LVU279
 888 0000 C369     		ldr	r3, [r0, #28]
 244:Drivers/lvgl/src/misc/lv_lru.c ****         item = cache->items[i];
 889              		.loc 1 244 13 view .LVU280
 890 0002 002B     		cmp	r3, #0
 891 0004 3ED0     		beq	.L111
 245:Drivers/lvgl/src/misc/lv_lru.c ****         prev = NULL;
 892              		.loc 1 245 21 view .LVU281
 893 0006 0268     		ldr	r2, [r0]
 238:Drivers/lvgl/src/misc/lv_lru.c ****     lv_lru_item_t * min_item = NULL, *min_prev = NULL;
 894              		.loc 1 238 1 view .LVU282
 895 0008 2DE9F04F 		push	{r4, r5, r6, r7, r8, r9, r10, fp, lr}
 896              		.cfi_def_cfa_offset 36
 897              		.cfi_offset 4, -36
ARM GAS  /var/folders/0z/tsy30v1j4xl4_7kw94k978ww0000gn/T//ccKkGvdV.s 			page 27


 898              		.cfi_offset 5, -32
 899              		.cfi_offset 6, -28
 900              		.cfi_offset 7, -24
 901              		.cfi_offset 8, -20
 902              		.cfi_offset 9, -16
 903              		.cfi_offset 10, -12
 904              		.cfi_offset 11, -8
 905              		.cfi_offset 14, -4
 906 000c 02EB8303 		add	r3, r2, r3, lsl #2
 242:Drivers/lvgl/src/misc/lv_lru.c **** 
 907              		.loc 1 242 14 view .LVU283
 908 0010 4FF0FF3C 		mov	ip, #-1
 241:Drivers/lvgl/src/misc/lv_lru.c ****     uint64_t min_access_count = -1;
 909              		.loc 1 241 14 view .LVU284
 910 0014 4FF00008 		mov	r8, #0
 911 0018 A2F10409 		sub	r9, r2, #4
 912 001c A3F1040A 		sub	r10, r3, #4
 242:Drivers/lvgl/src/misc/lv_lru.c **** 
 913              		.loc 1 242 14 view .LVU285
 914 0020 E646     		mov	lr, ip
 241:Drivers/lvgl/src/misc/lv_lru.c ****     uint64_t min_access_count = -1;
 915              		.loc 1 241 21 view .LVU286
 916 0022 6346     		mov	r3, ip
 239:Drivers/lvgl/src/misc/lv_lru.c ****     lv_lru_item_t * item = NULL, *prev = NULL;
 917              		.loc 1 239 39 view .LVU287
 918 0024 4146     		mov	r1, r8
 239:Drivers/lvgl/src/misc/lv_lru.c ****     lv_lru_item_t * item = NULL, *prev = NULL;
 919              		.loc 1 239 21 view .LVU288
 920 0026 4246     		mov	r2, r8
 921              	.LVL102:
 922              	.L97:
 245:Drivers/lvgl/src/misc/lv_lru.c ****         prev = NULL;
 923              		.loc 1 245 9 is_stmt 1 view .LVU289
 245:Drivers/lvgl/src/misc/lv_lru.c ****         prev = NULL;
 924              		.loc 1 245 14 is_stmt 0 view .LVU290
 925 0028 59F8044F 		ldr	r4, [r9, #4]!
 926              	.LVL103:
 246:Drivers/lvgl/src/misc/lv_lru.c **** 
 927              		.loc 1 246 9 is_stmt 1 view .LVU291
 248:Drivers/lvgl/src/misc/lv_lru.c ****             if(item->access_count < min_access_count || (int64_t) min_access_count == -1) {
 928              		.loc 1 248 9 view .LVU292
 248:Drivers/lvgl/src/misc/lv_lru.c ****             if(item->access_count < min_access_count || (int64_t) min_access_count == -1) {
 929              		.loc 1 248 15 view .LVU293
 930 002c FCB1     		cbz	r4, .L94
 246:Drivers/lvgl/src/misc/lv_lru.c **** 
 931              		.loc 1 246 14 is_stmt 0 view .LVU294
 932 002e 0027     		movs	r7, #0
 933 0030 0EE0     		b	.L96
 934              	.LVL104:
 935              	.L114:
 249:Drivers/lvgl/src/misc/lv_lru.c ****                 min_access_count = item->access_count;
 936              		.loc 1 249 54 discriminator 1 view .LVU295
 937 0032 BEF1FF3F 		cmp	lr, #-1
 938 0036 08BF     		it	eq
 939 0038 BCF1FF3F 		cmpeq	ip, #-1
 940 003c 04D1     		bne	.L95
 249:Drivers/lvgl/src/misc/lv_lru.c ****                 min_access_count = item->access_count;
ARM GAS  /var/folders/0z/tsy30v1j4xl4_7kw94k978ww0000gn/T//ccKkGvdV.s 			page 28


 941              		.loc 1 249 54 view .LVU296
 942 003e B446     		mov	ip, r6
 943              	.LVL105:
 249:Drivers/lvgl/src/misc/lv_lru.c ****                 min_access_count = item->access_count;
 944              		.loc 1 249 54 view .LVU297
 945 0040 AE46     		mov	lr, r5
 946 0042 4346     		mov	r3, r8
 947 0044 3946     		mov	r1, r7
 948 0046 2246     		mov	r2, r4
 949              	.L95:
 950              	.LVL106:
 255:Drivers/lvgl/src/misc/lv_lru.c ****             item = item->next;
 951              		.loc 1 255 13 is_stmt 1 view .LVU298
 256:Drivers/lvgl/src/misc/lv_lru.c ****         }
 952              		.loc 1 256 13 view .LVU299
 256:Drivers/lvgl/src/misc/lv_lru.c ****         }
 953              		.loc 1 256 18 is_stmt 0 view .LVU300
 954 0048 A569     		ldr	r5, [r4, #24]
 955              	.LVL107:
 248:Drivers/lvgl/src/misc/lv_lru.c ****             if(item->access_count < min_access_count || (int64_t) min_access_count == -1) {
 956              		.loc 1 248 15 is_stmt 1 view .LVU301
 957 004a 2746     		mov	r7, r4
 958 004c 7DB1     		cbz	r5, .L94
 959              	.LVL108:
 960              	.L99:
 248:Drivers/lvgl/src/misc/lv_lru.c ****             if(item->access_count < min_access_count || (int64_t) min_access_count == -1) {
 961              		.loc 1 248 15 is_stmt 0 view .LVU302
 962 004e 2C46     		mov	r4, r5
 963              	.LVL109:
 964              	.L96:
 249:Drivers/lvgl/src/misc/lv_lru.c ****                 min_access_count = item->access_count;
 965              		.loc 1 249 13 is_stmt 1 view .LVU303
 249:Drivers/lvgl/src/misc/lv_lru.c ****                 min_access_count = item->access_count;
 966              		.loc 1 249 20 is_stmt 0 view .LVU304
 967 0050 D4E90465 		ldrd	r6, r5, [r4, #16]
 249:Drivers/lvgl/src/misc/lv_lru.c ****                 min_access_count = item->access_count;
 968              		.loc 1 249 15 view .LVU305
 969 0054 6645     		cmp	r6, ip
 970 0056 75EB0E0B 		sbcs	fp, r5, lr
 971 005a EAD2     		bcs	.L114
 249:Drivers/lvgl/src/misc/lv_lru.c ****                 min_access_count = item->access_count;
 972              		.loc 1 249 15 view .LVU306
 973 005c AE46     		mov	lr, r5
 974              	.LVL110:
 256:Drivers/lvgl/src/misc/lv_lru.c ****         }
 975              		.loc 1 256 18 view .LVU307
 976 005e A569     		ldr	r5, [r4, #24]
 977 0060 3946     		mov	r1, r7
 978 0062 2246     		mov	r2, r4
 979 0064 B446     		mov	ip, r6
 256:Drivers/lvgl/src/misc/lv_lru.c ****         }
 980              		.loc 1 256 18 view .LVU308
 981 0066 4346     		mov	r3, r8
 982              	.LVL111:
 255:Drivers/lvgl/src/misc/lv_lru.c ****             item = item->next;
 983              		.loc 1 255 13 is_stmt 1 view .LVU309
 256:Drivers/lvgl/src/misc/lv_lru.c ****         }
ARM GAS  /var/folders/0z/tsy30v1j4xl4_7kw94k978ww0000gn/T//ccKkGvdV.s 			page 29


 984              		.loc 1 256 13 view .LVU310
 248:Drivers/lvgl/src/misc/lv_lru.c ****             if(item->access_count < min_access_count || (int64_t) min_access_count == -1) {
 985              		.loc 1 248 15 view .LVU311
 986 0068 2746     		mov	r7, r4
 987 006a 002D     		cmp	r5, #0
 988 006c EFD1     		bne	.L99
 989              	.LVL112:
 990              	.L94:
 244:Drivers/lvgl/src/misc/lv_lru.c ****         item = cache->items[i];
 991              		.loc 1 244 40 view .LVU312
 244:Drivers/lvgl/src/misc/lv_lru.c ****         item = cache->items[i];
 992              		.loc 1 244 13 is_stmt 0 view .LVU313
 993 006e D145     		cmp	r9, r10
 244:Drivers/lvgl/src/misc/lv_lru.c ****         item = cache->items[i];
 994              		.loc 1 244 40 view .LVU314
 995 0070 08F10108 		add	r8, r8, #1
 996              	.LVL113:
 244:Drivers/lvgl/src/misc/lv_lru.c ****         item = cache->items[i];
 997              		.loc 1 244 13 is_stmt 1 view .LVU315
 998 0074 D8D1     		bne	.L97
 260:Drivers/lvgl/src/misc/lv_lru.c ****         lv_lru_remove_item(cache, min_prev, min_item, min_index);
 999              		.loc 1 260 5 view .LVU316
 260:Drivers/lvgl/src/misc/lv_lru.c ****         lv_lru_remove_item(cache, min_prev, min_item, min_index);
 1000              		.loc 1 260 7 is_stmt 0 view .LVU317
 1001 0076 1AB1     		cbz	r2, .L92
 261:Drivers/lvgl/src/misc/lv_lru.c ****     }
 1002              		.loc 1 261 9 is_stmt 1 view .LVU318
 263:Drivers/lvgl/src/misc/lv_lru.c **** 
 1003              		.loc 1 263 1 is_stmt 0 view .LVU319
 1004 0078 BDE8F04F 		pop	{r4, r5, r6, r7, r8, r9, r10, fp, lr}
 1005              		.cfi_remember_state
 1006              		.cfi_restore 14
 1007              		.cfi_restore 11
 1008              		.cfi_restore 10
 1009              		.cfi_restore 9
 1010              		.cfi_restore 8
 1011              		.cfi_restore 7
 1012              		.cfi_restore 6
 1013              		.cfi_restore 5
 1014              		.cfi_restore 4
 1015              		.cfi_def_cfa_offset 0
 1016              	.LVL114:
 261:Drivers/lvgl/src/misc/lv_lru.c ****     }
 1017              		.loc 1 261 9 view .LVU320
 1018 007c FFF7FEBF 		b	lv_lru_remove_item
 1019              	.LVL115:
 1020              	.L92:
 1021              		.cfi_restore_state
 263:Drivers/lvgl/src/misc/lv_lru.c **** 
 1022              		.loc 1 263 1 view .LVU321
 1023 0080 BDE8F08F 		pop	{r4, r5, r6, r7, r8, r9, r10, fp, pc}
 1024              	.LVL116:
 1025              	.L111:
 1026              		.cfi_def_cfa_offset 0
 1027              		.cfi_restore 4
 1028              		.cfi_restore 5
 1029              		.cfi_restore 6
ARM GAS  /var/folders/0z/tsy30v1j4xl4_7kw94k978ww0000gn/T//ccKkGvdV.s 			page 30


 1030              		.cfi_restore 7
 1031              		.cfi_restore 8
 1032              		.cfi_restore 9
 1033              		.cfi_restore 10
 1034              		.cfi_restore 11
 1035              		.cfi_restore 14
 263:Drivers/lvgl/src/misc/lv_lru.c **** 
 1036              		.loc 1 263 1 view .LVU322
 1037 0084 7047     		bx	lr
 1038              		.cfi_endproc
 1039              	.LFE7:
 1041 0086 00BF     		.section	.text.lv_lru_set,"ax",%progbits
 1042              		.align	1
 1043              		.p2align 2,,3
 1044              		.global	lv_lru_set
 1045              		.syntax unified
 1046              		.thumb
 1047              		.thumb_func
 1049              	lv_lru_set:
 1050              	.LVL117:
 1051              	.LFB4:
 140:Drivers/lvgl/src/misc/lv_lru.c ****     test_for_missing_cache();
 1052              		.loc 1 140 1 is_stmt 1 view -0
 1053              		.cfi_startproc
 1054              		@ args = 4, pretend = 0, frame = 0
 1055              		@ frame_needed = 0, uses_anonymous_args = 0
 141:Drivers/lvgl/src/misc/lv_lru.c ****     test_for_missing_key();
 1056              		.loc 1 141 5 view .LVU324
 140:Drivers/lvgl/src/misc/lv_lru.c ****     test_for_missing_cache();
 1057              		.loc 1 140 1 is_stmt 0 view .LVU325
 1058 0000 2DE9F84F 		push	{r3, r4, r5, r6, r7, r8, r9, r10, fp, lr}
 1059              		.cfi_def_cfa_offset 40
 1060              		.cfi_offset 3, -40
 1061              		.cfi_offset 4, -36
 1062              		.cfi_offset 5, -32
 1063              		.cfi_offset 6, -28
 1064              		.cfi_offset 7, -24
 1065              		.cfi_offset 8, -20
 1066              		.cfi_offset 9, -16
 1067              		.cfi_offset 10, -12
 1068              		.cfi_offset 11, -8
 1069              		.cfi_offset 14, -4
 140:Drivers/lvgl/src/misc/lv_lru.c ****     test_for_missing_cache();
 1070              		.loc 1 140 1 view .LVU326
 1071 0004 DDF828A0 		ldr	r10, [sp, #40]
 141:Drivers/lvgl/src/misc/lv_lru.c ****     test_for_missing_key();
 1072              		.loc 1 141 5 view .LVU327
 1073 0008 0028     		cmp	r0, #0
 1074 000a 51D0     		beq	.L129
 141:Drivers/lvgl/src/misc/lv_lru.c ****     test_for_missing_key();
 1075              		.loc 1 141 29 is_stmt 1 discriminator 2 view .LVU328
 142:Drivers/lvgl/src/misc/lv_lru.c ****     test_for_missing_value();
 1076              		.loc 1 142 5 discriminator 2 view .LVU329
 1077 000c 8846     		mov	r8, r1
 1078 000e 0029     		cmp	r1, #0
 1079 0010 51D0     		beq	.L130
 142:Drivers/lvgl/src/misc/lv_lru.c ****     test_for_missing_value();
ARM GAS  /var/folders/0z/tsy30v1j4xl4_7kw94k978ww0000gn/T//ccKkGvdV.s 			page 31


 1080              		.loc 1 142 27 discriminator 2 view .LVU330
 143:Drivers/lvgl/src/misc/lv_lru.c ****     test_for_value_too_large();
 1081              		.loc 1 143 5 discriminator 2 view .LVU331
 1082 0012 9946     		mov	r9, r3
 1083 0014 002B     		cmp	r3, #0
 1084 0016 45D0     		beq	.L132
 1085 0018 BAF1000F 		cmp	r10, #0
 1086 001c 42D0     		beq	.L132
 144:Drivers/lvgl/src/misc/lv_lru.c **** 
 1087              		.loc 1 144 5 is_stmt 0 discriminator 4 view .LVU332
 1088 001e 4369     		ldr	r3, [r0, #20]
 1089              	.LVL118:
 144:Drivers/lvgl/src/misc/lv_lru.c **** 
 1090              		.loc 1 144 5 discriminator 4 view .LVU333
 1091 0020 5345     		cmp	r3, r10
 1092 0022 0746     		mov	r7, r0
 143:Drivers/lvgl/src/misc/lv_lru.c ****     test_for_value_too_large();
 1093              		.loc 1 143 29 is_stmt 1 discriminator 4 view .LVU334
 144:Drivers/lvgl/src/misc/lv_lru.c **** 
 1094              		.loc 1 144 5 discriminator 4 view .LVU335
 1095 0024 41D3     		bcc	.L133
 144:Drivers/lvgl/src/misc/lv_lru.c **** 
 1096              		.loc 1 144 31 discriminator 2 view .LVU336
 147:Drivers/lvgl/src/misc/lv_lru.c ****     int required = 0;
 1097              		.loc 1 147 5 discriminator 2 view .LVU337
 147:Drivers/lvgl/src/misc/lv_lru.c ****     int required = 0;
 1098              		.loc 1 147 27 is_stmt 0 discriminator 2 view .LVU338
 1099 0026 1346     		mov	r3, r2
 1100 0028 D0E90701 		ldrd	r0, r1, [r0, #28]
 1101              	.LVL119:
 147:Drivers/lvgl/src/misc/lv_lru.c ****     int required = 0;
 1102              		.loc 1 147 27 discriminator 2 view .LVU339
 1103 002c 1646     		mov	r6, r2
 1104 002e 4246     		mov	r2, r8
 1105              	.LVL120:
 147:Drivers/lvgl/src/misc/lv_lru.c ****     int required = 0;
 1106              		.loc 1 147 27 discriminator 2 view .LVU340
 1107 0030 FFF7FEFF 		bl	lv_lru_hash.isra.0
 1108              	.LVL121:
 150:Drivers/lvgl/src/misc/lv_lru.c **** 
 1109              		.loc 1 150 10 discriminator 2 view .LVU341
 1110 0034 3B68     		ldr	r3, [r7]
 1111 0036 53F82040 		ldr	r4, [r3, r0, lsl #2]
 147:Drivers/lvgl/src/misc/lv_lru.c ****     int required = 0;
 1112              		.loc 1 147 27 discriminator 2 view .LVU342
 1113 003a 8346     		mov	fp, r0
 1114              	.LVL122:
 148:Drivers/lvgl/src/misc/lv_lru.c ****     lv_lru_item_t * item = NULL, *prev = NULL;
 1115              		.loc 1 148 5 is_stmt 1 discriminator 2 view .LVU343
 149:Drivers/lvgl/src/misc/lv_lru.c ****     item = cache->items[hash_index];
 1116              		.loc 1 149 5 discriminator 2 view .LVU344
 150:Drivers/lvgl/src/misc/lv_lru.c **** 
 1117              		.loc 1 150 5 discriminator 2 view .LVU345
 152:Drivers/lvgl/src/misc/lv_lru.c ****         prev = item;
 1118              		.loc 1 152 5 discriminator 2 view .LVU346
 152:Drivers/lvgl/src/misc/lv_lru.c ****         prev = item;
 1119              		.loc 1 152 16 discriminator 2 view .LVU347
ARM GAS  /var/folders/0z/tsy30v1j4xl4_7kw94k978ww0000gn/T//ccKkGvdV.s 			page 32


 1120 003c 24B9     		cbnz	r4, .L117
 1121 003e 3CE0     		b	.L118
 1122              	.LVL123:
 1123              	.L119:
 153:Drivers/lvgl/src/misc/lv_lru.c ****         item = (lv_lru_item_t *) item->next;
 1124              		.loc 1 153 9 view .LVU348
 154:Drivers/lvgl/src/misc/lv_lru.c ****     }
 1125              		.loc 1 154 9 view .LVU349
 154:Drivers/lvgl/src/misc/lv_lru.c ****     }
 1126              		.loc 1 154 14 is_stmt 0 view .LVU350
 1127 0040 A569     		ldr	r5, [r4, #24]
 1128              	.LVL124:
 152:Drivers/lvgl/src/misc/lv_lru.c ****         prev = item;
 1129              		.loc 1 152 16 is_stmt 1 view .LVU351
 1130 0042 002D     		cmp	r5, #0
 1131 0044 39D0     		beq	.L118
 152:Drivers/lvgl/src/misc/lv_lru.c ****         prev = item;
 1132              		.loc 1 152 16 is_stmt 0 view .LVU352
 1133 0046 2C46     		mov	r4, r5
 1134              	.LVL125:
 1135              	.L117:
 1136              	.LBB34:
 1137              	.LBI34:
 304:Drivers/lvgl/src/misc/lv_lru.c **** {
 1138              		.loc 1 304 12 is_stmt 1 view .LVU353
 1139              	.LBB35:
 306:Drivers/lvgl/src/misc/lv_lru.c ****         return 1;
 1140              		.loc 1 306 5 view .LVU354
 306:Drivers/lvgl/src/misc/lv_lru.c ****         return 1;
 1141              		.loc 1 306 7 is_stmt 0 view .LVU355
 1142 0048 E368     		ldr	r3, [r4, #12]
 1143 004a 9E42     		cmp	r6, r3
 1144 004c F8D1     		bne	.L119
 1145              	.LVL126:
 1146              	.LBB36:
 1147              	.LBI36:
 304:Drivers/lvgl/src/misc/lv_lru.c **** {
 1148              		.loc 1 304 12 is_stmt 1 view .LVU356
 1149              	.LBB37:
 310:Drivers/lvgl/src/misc/lv_lru.c ****     }
 1150              		.loc 1 310 9 view .LVU357
 310:Drivers/lvgl/src/misc/lv_lru.c ****     }
 1151              		.loc 1 310 16 is_stmt 0 view .LVU358
 1152 004e 6168     		ldr	r1, [r4, #4]
 1153 0050 3246     		mov	r2, r6
 1154 0052 4046     		mov	r0, r8
 1155 0054 FFF7FEFF 		bl	memcmp
 1156              	.LVL127:
 310:Drivers/lvgl/src/misc/lv_lru.c ****     }
 1157              		.loc 1 310 16 view .LVU359
 1158              	.LBE37:
 1159              	.LBE36:
 1160              	.LBE35:
 1161              	.LBE34:
 152:Drivers/lvgl/src/misc/lv_lru.c ****         prev = item;
 1162              		.loc 1 152 16 view .LVU360
 1163 0058 0028     		cmp	r0, #0
ARM GAS  /var/folders/0z/tsy30v1j4xl4_7kw94k978ww0000gn/T//ccKkGvdV.s 			page 33


 1164 005a F1D1     		bne	.L119
 157:Drivers/lvgl/src/misc/lv_lru.c ****         // update the value and value_lengths
 1165              		.loc 1 157 5 is_stmt 1 view .LVU361
 159:Drivers/lvgl/src/misc/lv_lru.c ****         cache->value_free(item->value);
 1166              		.loc 1 159 9 view .LVU362
 159:Drivers/lvgl/src/misc/lv_lru.c ****         cache->value_free(item->value);
 1167              		.loc 1 159 39 is_stmt 0 view .LVU363
 1168 005c A668     		ldr	r6, [r4, #8]
 1169              	.LVL128:
 160:Drivers/lvgl/src/misc/lv_lru.c ****         item->value = value;
 1170              		.loc 1 160 9 view .LVU364
 1171 005e 7B6A     		ldr	r3, [r7, #36]
 1172 0060 2068     		ldr	r0, [r4]
 159:Drivers/lvgl/src/misc/lv_lru.c ****         cache->value_free(item->value);
 1173              		.loc 1 159 39 view .LVU365
 1174 0062 AAEB0606 		sub	r6, r10, r6
 160:Drivers/lvgl/src/misc/lv_lru.c ****         item->value = value;
 1175              		.loc 1 160 9 view .LVU366
 1176 0066 9847     		blx	r3
 1177              	.LVL129:
 162:Drivers/lvgl/src/misc/lv_lru.c **** 
 1178              		.loc 1 162 28 view .LVU367
 1179 0068 C4F808A0 		str	r10, [r4, #8]
 161:Drivers/lvgl/src/misc/lv_lru.c ****         item->value_length = value_length;
 1180              		.loc 1 161 21 view .LVU368
 1181 006c C4F80090 		str	r9, [r4]
 159:Drivers/lvgl/src/misc/lv_lru.c ****         cache->value_free(item->value);
 1182              		.loc 1 159 18 view .LVU369
 1183 0070 B246     		mov	r10, r6
 1184              	.LVL130:
 160:Drivers/lvgl/src/misc/lv_lru.c ****         item->value = value;
 1185              		.loc 1 160 9 is_stmt 1 view .LVU370
 161:Drivers/lvgl/src/misc/lv_lru.c ****         item->value_length = value_length;
 1186              		.loc 1 161 9 view .LVU371
 162:Drivers/lvgl/src/misc/lv_lru.c **** 
 1187              		.loc 1 162 9 view .LVU372
 1188              	.L123:
 180:Drivers/lvgl/src/misc/lv_lru.c **** 
 1189              		.loc 1 180 5 view .LVU373
 180:Drivers/lvgl/src/misc/lv_lru.c **** 
 1190              		.loc 1 180 26 is_stmt 0 view .LVU374
 1191 0072 BB68     		ldr	r3, [r7, #8]
 1192 0074 FA68     		ldr	r2, [r7, #12]
 1193 0076 0133     		adds	r3, r3, #1
 1194 0078 42F10002 		adc	r2, r2, #0
 183:Drivers/lvgl/src/misc/lv_lru.c ****         while(cache->free_memory < (size_t) required)
 1195              		.loc 1 183 7 view .LVU375
 1196 007c BAF1000F 		cmp	r10, #0
 180:Drivers/lvgl/src/misc/lv_lru.c **** 
 1197              		.loc 1 180 24 view .LVU376
 1198 0080 BB60     		str	r3, [r7, #8]
 1199 0082 FA60     		str	r2, [r7, #12]
 1200 0084 C4E90432 		strd	r3, r2, [r4, #16]
 183:Drivers/lvgl/src/misc/lv_lru.c ****         while(cache->free_memory < (size_t) required)
 1201              		.loc 1 183 5 is_stmt 1 view .LVU377
 183:Drivers/lvgl/src/misc/lv_lru.c ****         while(cache->free_memory < (size_t) required)
 1202              		.loc 1 183 49 is_stmt 0 view .LVU378
ARM GAS  /var/folders/0z/tsy30v1j4xl4_7kw94k978ww0000gn/T//ccKkGvdV.s 			page 34


 1203 0088 3B69     		ldr	r3, [r7, #16]
 183:Drivers/lvgl/src/misc/lv_lru.c ****         while(cache->free_memory < (size_t) required)
 1204              		.loc 1 183 7 view .LVU379
 1205 008a 04DC     		bgt	.L143
 183:Drivers/lvgl/src/misc/lv_lru.c ****         while(cache->free_memory < (size_t) required)
 1206              		.loc 1 183 7 view .LVU380
 1207 008c 05E0     		b	.L125
 1208              	.L126:
 185:Drivers/lvgl/src/misc/lv_lru.c ****     }
 1209              		.loc 1 185 13 is_stmt 1 view .LVU381
 1210 008e 3846     		mov	r0, r7
 1211 0090 FFF7FEFF 		bl	lv_lru_remove_lru_item
 1212              	.LVL131:
 184:Drivers/lvgl/src/misc/lv_lru.c ****             lv_lru_remove_lru_item(cache);
 1213              		.loc 1 184 34 view .LVU382
 184:Drivers/lvgl/src/misc/lv_lru.c ****             lv_lru_remove_lru_item(cache);
 1214              		.loc 1 184 20 is_stmt 0 view .LVU383
 1215 0094 3B69     		ldr	r3, [r7, #16]
 1216              	.L143:
 184:Drivers/lvgl/src/misc/lv_lru.c ****             lv_lru_remove_lru_item(cache);
 1217              		.loc 1 184 34 view .LVU384
 1218 0096 B342     		cmp	r3, r6
 1219 0098 F9D3     		bcc	.L126
 1220              	.L125:
 187:Drivers/lvgl/src/misc/lv_lru.c ****     return LV_LRU_OK;
 1221              		.loc 1 187 5 is_stmt 1 view .LVU385
 187:Drivers/lvgl/src/misc/lv_lru.c ****     return LV_LRU_OK;
 1222              		.loc 1 187 24 is_stmt 0 view .LVU386
 1223 009a 9B1B     		subs	r3, r3, r6
 1224 009c 3B61     		str	r3, [r7, #16]
 188:Drivers/lvgl/src/misc/lv_lru.c **** }
 1225              		.loc 1 188 5 is_stmt 1 view .LVU387
 188:Drivers/lvgl/src/misc/lv_lru.c **** }
 1226              		.loc 1 188 12 is_stmt 0 view .LVU388
 1227 009e 0020     		movs	r0, #0
 1228              	.LVL132:
 1229              	.L140:
 189:Drivers/lvgl/src/misc/lv_lru.c **** 
 1230              		.loc 1 189 1 view .LVU389
 1231 00a0 BDE8F88F 		pop	{r3, r4, r5, r6, r7, r8, r9, r10, fp, pc}
 1232              	.LVL133:
 1233              	.L132:
 143:Drivers/lvgl/src/misc/lv_lru.c ****     test_for_value_too_large();
 1234              		.loc 1 143 5 view .LVU390
 1235 00a4 0320     		movs	r0, #3
 1236              	.LVL134:
 189:Drivers/lvgl/src/misc/lv_lru.c **** 
 1237              		.loc 1 189 1 view .LVU391
 1238 00a6 BDE8F88F 		pop	{r3, r4, r5, r6, r7, r8, r9, r10, fp, pc}
 1239              	.LVL135:
 1240              	.L133:
 144:Drivers/lvgl/src/misc/lv_lru.c **** 
 1241              		.loc 1 144 5 view .LVU392
 1242 00aa 0520     		movs	r0, #5
 1243              	.LVL136:
 189:Drivers/lvgl/src/misc/lv_lru.c **** 
 1244              		.loc 1 189 1 view .LVU393
ARM GAS  /var/folders/0z/tsy30v1j4xl4_7kw94k978ww0000gn/T//ccKkGvdV.s 			page 35


 1245 00ac BDE8F88F 		pop	{r3, r4, r5, r6, r7, r8, r9, r10, fp, pc}
 1246              	.LVL137:
 1247              	.L129:
 141:Drivers/lvgl/src/misc/lv_lru.c ****     test_for_missing_key();
 1248              		.loc 1 141 5 view .LVU394
 1249 00b0 0120     		movs	r0, #1
 1250              	.LVL138:
 189:Drivers/lvgl/src/misc/lv_lru.c **** 
 1251              		.loc 1 189 1 view .LVU395
 1252 00b2 BDE8F88F 		pop	{r3, r4, r5, r6, r7, r8, r9, r10, fp, pc}
 1253              	.LVL139:
 1254              	.L130:
 142:Drivers/lvgl/src/misc/lv_lru.c ****     test_for_missing_value();
 1255              		.loc 1 142 5 view .LVU396
 1256 00b6 0220     		movs	r0, #2
 1257              	.LVL140:
 142:Drivers/lvgl/src/misc/lv_lru.c ****     test_for_missing_value();
 1258              		.loc 1 142 5 view .LVU397
 1259 00b8 F2E7     		b	.L140
 1260              	.LVL141:
 1261              	.L118:
 157:Drivers/lvgl/src/misc/lv_lru.c ****         // update the value and value_lengths
 1262              		.loc 1 157 5 is_stmt 1 view .LVU398
 167:Drivers/lvgl/src/misc/lv_lru.c ****         item->value = value;
 1263              		.loc 1 167 9 view .LVU399
 1264              	.LBB38:
 1265              	.LBI38:
 333:Drivers/lvgl/src/misc/lv_lru.c **** 
 334:Drivers/lvgl/src/misc/lv_lru.c **** static lv_lru_item_t * lv_lru_pop_or_create_item(lv_lru_t * cache)
 1266              		.loc 1 334 24 view .LVU400
 1267              	.LBB39:
 335:Drivers/lvgl/src/misc/lv_lru.c **** {
 336:Drivers/lvgl/src/misc/lv_lru.c ****     lv_lru_item_t * item = NULL;
 1268              		.loc 1 336 5 view .LVU401
 337:Drivers/lvgl/src/misc/lv_lru.c **** 
 338:Drivers/lvgl/src/misc/lv_lru.c ****     if(cache->free_items) {
 1269              		.loc 1 338 5 view .LVU402
 1270              		.loc 1 338 13 is_stmt 0 view .LVU403
 1271 00ba FD6A     		ldr	r5, [r7, #44]
 1272              		.loc 1 338 7 view .LVU404
 1273 00bc B5B1     		cbz	r5, .L144
 339:Drivers/lvgl/src/misc/lv_lru.c ****         item = cache->free_items;
 1274              		.loc 1 339 9 is_stmt 1 view .LVU405
 1275              	.LVL142:
 340:Drivers/lvgl/src/misc/lv_lru.c ****         cache->free_items = item->next;
 1276              		.loc 1 340 9 view .LVU406
 1277              		.loc 1 340 27 is_stmt 0 view .LVU407
 1278 00be AB69     		ldr	r3, [r5, #24]
 1279 00c0 FB62     		str	r3, [r7, #44]
 341:Drivers/lvgl/src/misc/lv_lru.c ****         lv_memset_00(item, sizeof(lv_lru_item_t));
 1280              		.loc 1 341 9 is_stmt 1 view .LVU408
 1281 00c2 2021     		movs	r1, #32
 1282 00c4 2846     		mov	r0, r5
 1283 00c6 FFF7FEFF 		bl	lv_memset_00
 1284              	.LVL143:
 1285              	.L121:
 342:Drivers/lvgl/src/misc/lv_lru.c ****     }
ARM GAS  /var/folders/0z/tsy30v1j4xl4_7kw94k978ww0000gn/T//ccKkGvdV.s 			page 36


 343:Drivers/lvgl/src/misc/lv_lru.c ****     else {
 344:Drivers/lvgl/src/misc/lv_lru.c ****         item = (lv_lru_item_t *) lv_mem_alloc(sizeof(lv_lru_item_t));
 345:Drivers/lvgl/src/misc/lv_lru.c ****         lv_memset_00(item, sizeof(lv_lru_item_t));
 346:Drivers/lvgl/src/misc/lv_lru.c ****     }
 347:Drivers/lvgl/src/misc/lv_lru.c **** 
 348:Drivers/lvgl/src/misc/lv_lru.c ****     return item;
 1286              		.loc 1 348 5 view .LVU409
 1287              		.loc 1 348 5 is_stmt 0 view .LVU410
 1288              	.LBE39:
 1289              	.LBE38:
 168:Drivers/lvgl/src/misc/lv_lru.c ****         item->key = lv_mem_alloc(key_length);
 1290              		.loc 1 168 9 is_stmt 1 view .LVU411
 168:Drivers/lvgl/src/misc/lv_lru.c ****         item->key = lv_mem_alloc(key_length);
 1291              		.loc 1 168 21 is_stmt 0 view .LVU412
 1292 00ca C5F80090 		str	r9, [r5]
 169:Drivers/lvgl/src/misc/lv_lru.c ****         memcpy(item->key, key, key_length);
 1293              		.loc 1 169 9 is_stmt 1 view .LVU413
 169:Drivers/lvgl/src/misc/lv_lru.c ****         memcpy(item->key, key, key_length);
 1294              		.loc 1 169 21 is_stmt 0 view .LVU414
 1295 00ce 3046     		mov	r0, r6
 1296 00d0 FFF7FEFF 		bl	lv_mem_alloc
 1297              	.LVL144:
 170:Drivers/lvgl/src/misc/lv_lru.c ****         item->value_length = value_length;
 1298              		.loc 1 170 9 view .LVU415
 1299 00d4 4146     		mov	r1, r8
 169:Drivers/lvgl/src/misc/lv_lru.c ****         memcpy(item->key, key, key_length);
 1300              		.loc 1 169 19 view .LVU416
 1301 00d6 6860     		str	r0, [r5, #4]
 170:Drivers/lvgl/src/misc/lv_lru.c ****         item->value_length = value_length;
 1302              		.loc 1 170 9 is_stmt 1 view .LVU417
 1303 00d8 3246     		mov	r2, r6
 1304 00da FFF7FEFF 		bl	memcpy
 1305              	.LVL145:
 171:Drivers/lvgl/src/misc/lv_lru.c ****         item->key_length = key_length;
 1306              		.loc 1 171 9 view .LVU418
 171:Drivers/lvgl/src/misc/lv_lru.c ****         item->key_length = key_length;
 1307              		.loc 1 171 28 is_stmt 0 view .LVU419
 1308 00de C5E902A6 		strd	r10, r6, [r5, #8]
 172:Drivers/lvgl/src/misc/lv_lru.c ****         required = (int) value_length;
 1309              		.loc 1 172 9 is_stmt 1 view .LVU420
 173:Drivers/lvgl/src/misc/lv_lru.c **** 
 1310              		.loc 1 173 9 view .LVU421
 1311              	.LVL146:
 175:Drivers/lvgl/src/misc/lv_lru.c ****             prev->next = item;
 1312              		.loc 1 175 9 view .LVU422
 175:Drivers/lvgl/src/misc/lv_lru.c ****             prev->next = item;
 1313              		.loc 1 175 11 is_stmt 0 view .LVU423
 1314 00e2 5CB1     		cbz	r4, .L122
 1315              	.LVL147:
 176:Drivers/lvgl/src/misc/lv_lru.c ****         else
 1316              		.loc 1 176 13 is_stmt 1 view .LVU424
 176:Drivers/lvgl/src/misc/lv_lru.c ****         else
 1317              		.loc 1 176 24 is_stmt 0 view .LVU425
 1318 00e4 A561     		str	r5, [r4, #24]
 1319 00e6 5646     		mov	r6, r10
 1320              	.LVL148:
 176:Drivers/lvgl/src/misc/lv_lru.c ****         else
ARM GAS  /var/folders/0z/tsy30v1j4xl4_7kw94k978ww0000gn/T//ccKkGvdV.s 			page 37


 1321              		.loc 1 176 24 view .LVU426
 1322 00e8 2C46     		mov	r4, r5
 1323 00ea C2E7     		b	.L123
 1324              	.LVL149:
 1325              	.L144:
 1326              	.LBB41:
 1327              	.LBB40:
 344:Drivers/lvgl/src/misc/lv_lru.c ****         lv_memset_00(item, sizeof(lv_lru_item_t));
 1328              		.loc 1 344 9 is_stmt 1 view .LVU427
 344:Drivers/lvgl/src/misc/lv_lru.c ****         lv_memset_00(item, sizeof(lv_lru_item_t));
 1329              		.loc 1 344 34 is_stmt 0 view .LVU428
 1330 00ec 2020     		movs	r0, #32
 1331 00ee FFF7FEFF 		bl	lv_mem_alloc
 1332              	.LVL150:
 345:Drivers/lvgl/src/misc/lv_lru.c ****     }
 1333              		.loc 1 345 9 view .LVU429
 1334 00f2 2021     		movs	r1, #32
 344:Drivers/lvgl/src/misc/lv_lru.c ****         lv_memset_00(item, sizeof(lv_lru_item_t));
 1335              		.loc 1 344 34 view .LVU430
 1336 00f4 0546     		mov	r5, r0
 1337              	.LVL151:
 345:Drivers/lvgl/src/misc/lv_lru.c ****     }
 1338              		.loc 1 345 9 is_stmt 1 view .LVU431
 1339 00f6 FFF7FEFF 		bl	lv_memset_00
 1340              	.LVL152:
 345:Drivers/lvgl/src/misc/lv_lru.c ****     }
 1341              		.loc 1 345 9 is_stmt 0 view .LVU432
 1342 00fa E6E7     		b	.L121
 1343              	.LVL153:
 1344              	.L122:
 345:Drivers/lvgl/src/misc/lv_lru.c ****     }
 1345              		.loc 1 345 9 view .LVU433
 1346              	.LBE40:
 1347              	.LBE41:
 178:Drivers/lvgl/src/misc/lv_lru.c ****     }
 1348              		.loc 1 178 13 is_stmt 1 view .LVU434
 178:Drivers/lvgl/src/misc/lv_lru.c ****     }
 1349              		.loc 1 178 38 is_stmt 0 view .LVU435
 1350 00fc 3B68     		ldr	r3, [r7]
 1351 00fe 5646     		mov	r6, r10
 1352              	.LVL154:
 178:Drivers/lvgl/src/misc/lv_lru.c ****     }
 1353              		.loc 1 178 38 view .LVU436
 1354 0100 43F82B50 		str	r5, [r3, fp, lsl #2]
 1355 0104 2C46     		mov	r4, r5
 1356 0106 B4E7     		b	.L123
 1357              		.cfi_endproc
 1358              	.LFE4:
 1360              		.text
 1361              	.Letext0:
 1362              		.file 2 "/Users/johannes/Library/Application Support/Code/User/globalStorage/bmd.stm32-for-vscode/
 1363              		.file 3 "/Users/johannes/Library/Application Support/Code/User/globalStorage/bmd.stm32-for-vscode/
 1364              		.file 4 "/Users/johannes/Library/Application Support/Code/User/globalStorage/bmd.stm32-for-vscode/
 1365              		.file 5 "Drivers/lvgl/src/misc/lv_lru.h"
 1366              		.file 6 "/Users/johannes/Library/Application Support/Code/User/globalStorage/bmd.stm32-for-vscode/
 1367              		.file 7 "Drivers/lvgl/src/misc/lv_math.h"
 1368              		.file 8 "Drivers/lvgl/src/misc/lv_mem.h"
ARM GAS  /var/folders/0z/tsy30v1j4xl4_7kw94k978ww0000gn/T//ccKkGvdV.s 			page 38


 1369              		.file 9 "<built-in>"
ARM GAS  /var/folders/0z/tsy30v1j4xl4_7kw94k978ww0000gn/T//ccKkGvdV.s 			page 39


DEFINED SYMBOLS
                            *ABS*:0000000000000000 lv_lru.c
/var/folders/0z/tsy30v1j4xl4_7kw94k978ww0000gn/T//ccKkGvdV.s:20     .text.lv_lru_remove_item:0000000000000000 $t
/var/folders/0z/tsy30v1j4xl4_7kw94k978ww0000gn/T//ccKkGvdV.s:26     .text.lv_lru_remove_item:0000000000000000 lv_lru_remove_item
/var/folders/0z/tsy30v1j4xl4_7kw94k978ww0000gn/T//ccKkGvdV.s:104    .text.lv_lru_hash.isra.0:0000000000000000 $t
/var/folders/0z/tsy30v1j4xl4_7kw94k978ww0000gn/T//ccKkGvdV.s:110    .text.lv_lru_hash.isra.0:0000000000000000 lv_lru_hash.isra.0
/var/folders/0z/tsy30v1j4xl4_7kw94k978ww0000gn/T//ccKkGvdV.s:260    .text.lv_lru_hash.isra.0:0000000000000080 $d
/var/folders/0z/tsy30v1j4xl4_7kw94k978ww0000gn/T//ccKkGvdV.s:265    .text.lv_lru_create:0000000000000000 $t
/var/folders/0z/tsy30v1j4xl4_7kw94k978ww0000gn/T//ccKkGvdV.s:272    .text.lv_lru_create:0000000000000000 lv_lru_create
/var/folders/0z/tsy30v1j4xl4_7kw94k978ww0000gn/T//ccKkGvdV.s:392    .text.lv_lru_create:0000000000000070 $d
/var/folders/0z/tsy30v1j4xl4_7kw94k978ww0000gn/T//ccKkGvdV.s:397    .text.lv_lru_del:0000000000000000 $t
/var/folders/0z/tsy30v1j4xl4_7kw94k978ww0000gn/T//ccKkGvdV.s:404    .text.lv_lru_del:0000000000000000 lv_lru_del
/var/folders/0z/tsy30v1j4xl4_7kw94k978ww0000gn/T//ccKkGvdV.s:552    .text.lv_lru_get:0000000000000000 $t
/var/folders/0z/tsy30v1j4xl4_7kw94k978ww0000gn/T//ccKkGvdV.s:559    .text.lv_lru_get:0000000000000000 lv_lru_get
/var/folders/0z/tsy30v1j4xl4_7kw94k978ww0000gn/T//ccKkGvdV.s:706    .text.lv_lru_remove:0000000000000000 $t
/var/folders/0z/tsy30v1j4xl4_7kw94k978ww0000gn/T//ccKkGvdV.s:713    .text.lv_lru_remove:0000000000000000 lv_lru_remove
/var/folders/0z/tsy30v1j4xl4_7kw94k978ww0000gn/T//ccKkGvdV.s:867    .text.lv_lru_remove_lru_item:0000000000000000 $t
/var/folders/0z/tsy30v1j4xl4_7kw94k978ww0000gn/T//ccKkGvdV.s:874    .text.lv_lru_remove_lru_item:0000000000000000 lv_lru_remove_lru_item
/var/folders/0z/tsy30v1j4xl4_7kw94k978ww0000gn/T//ccKkGvdV.s:1042   .text.lv_lru_set:0000000000000000 $t
/var/folders/0z/tsy30v1j4xl4_7kw94k978ww0000gn/T//ccKkGvdV.s:1049   .text.lv_lru_set:0000000000000000 lv_lru_set

UNDEFINED SYMBOLS
lv_memset_00
lv_mem_alloc
lv_rand
lv_mem_free
memcmp
memcpy
