ARM GAS  /var/folders/0z/tsy30v1j4xl4_7kw94k978ww0000gn/T//ccbD5QfV.s 			page 1


   1              		.cpu cortex-m4
   2              		.arch armv7e-m
   3              		.fpu fpv4-sp-d16
   4              		.eabi_attribute 27, 1
   5              		.eabi_attribute 28, 1
   6              		.eabi_attribute 20, 1
   7              		.eabi_attribute 21, 1
   8              		.eabi_attribute 23, 3
   9              		.eabi_attribute 24, 1
  10              		.eabi_attribute 25, 1
  11              		.eabi_attribute 26, 1
  12              		.eabi_attribute 30, 2
  13              		.eabi_attribute 34, 1
  14              		.eabi_attribute 18, 4
  15              		.file	"lv_lru.c"
  16              		.text
  17              	.Ltext0:
  18              		.cfi_sections	.debug_frame
  19              		.section	.text.lv_lru_create,"ax",%progbits
  20              		.align	1
  21              		.p2align 2,,3
  22              		.global	lv_lru_create
  23              		.syntax unified
  24              		.thumb
  25              		.thumb_func
  27              	lv_lru_create:
  28              	.LVL0:
  29              	.LFB2:
  30              		.file 1 "Drivers/lvgl/src/misc/lv_lru.c"
   1:Drivers/lvgl/src/misc/lv_lru.c **** /**
   2:Drivers/lvgl/src/misc/lv_lru.c ****  * @file lv_lru.c
   3:Drivers/lvgl/src/misc/lv_lru.c ****  *
   4:Drivers/lvgl/src/misc/lv_lru.c ****  * @see https://github.com/willcannings/C-LRU-Cache
   5:Drivers/lvgl/src/misc/lv_lru.c ****  */
   6:Drivers/lvgl/src/misc/lv_lru.c **** 
   7:Drivers/lvgl/src/misc/lv_lru.c **** /*********************
   8:Drivers/lvgl/src/misc/lv_lru.c ****  *      INCLUDES
   9:Drivers/lvgl/src/misc/lv_lru.c ****  *********************/
  10:Drivers/lvgl/src/misc/lv_lru.c **** 
  11:Drivers/lvgl/src/misc/lv_lru.c **** #include "lv_lru.h"
  12:Drivers/lvgl/src/misc/lv_lru.c **** #include "lv_math.h"
  13:Drivers/lvgl/src/misc/lv_lru.c **** #include "lv_mem.h"
  14:Drivers/lvgl/src/misc/lv_lru.c **** #include "lv_assert.h"
  15:Drivers/lvgl/src/misc/lv_lru.c **** #include "lv_log.h"
  16:Drivers/lvgl/src/misc/lv_lru.c **** 
  17:Drivers/lvgl/src/misc/lv_lru.c **** /*********************
  18:Drivers/lvgl/src/misc/lv_lru.c ****  *      DEFINES
  19:Drivers/lvgl/src/misc/lv_lru.c ****  *********************/
  20:Drivers/lvgl/src/misc/lv_lru.c **** 
  21:Drivers/lvgl/src/misc/lv_lru.c **** /**********************
  22:Drivers/lvgl/src/misc/lv_lru.c ****  *      TYPEDEFS
  23:Drivers/lvgl/src/misc/lv_lru.c ****  **********************/
  24:Drivers/lvgl/src/misc/lv_lru.c **** 
  25:Drivers/lvgl/src/misc/lv_lru.c **** struct _lv_lru_item_t {
  26:Drivers/lvgl/src/misc/lv_lru.c ****     void * value;
  27:Drivers/lvgl/src/misc/lv_lru.c ****     void * key;
  28:Drivers/lvgl/src/misc/lv_lru.c ****     size_t value_length;
ARM GAS  /var/folders/0z/tsy30v1j4xl4_7kw94k978ww0000gn/T//ccbD5QfV.s 			page 2


  29:Drivers/lvgl/src/misc/lv_lru.c ****     size_t key_length;
  30:Drivers/lvgl/src/misc/lv_lru.c ****     uint64_t access_count;
  31:Drivers/lvgl/src/misc/lv_lru.c ****     struct _lv_lru_item_t * next;
  32:Drivers/lvgl/src/misc/lv_lru.c **** };
  33:Drivers/lvgl/src/misc/lv_lru.c **** 
  34:Drivers/lvgl/src/misc/lv_lru.c **** /**********************
  35:Drivers/lvgl/src/misc/lv_lru.c ****  *  STATIC PROTOTYPES
  36:Drivers/lvgl/src/misc/lv_lru.c ****  **********************/
  37:Drivers/lvgl/src/misc/lv_lru.c **** 
  38:Drivers/lvgl/src/misc/lv_lru.c **** /**
  39:Drivers/lvgl/src/misc/lv_lru.c ****  * MurmurHash2
  40:Drivers/lvgl/src/misc/lv_lru.c ****  * @author Austin Appleby
  41:Drivers/lvgl/src/misc/lv_lru.c ****  * @see http://sites.google.com/site/murmurhash/
  42:Drivers/lvgl/src/misc/lv_lru.c ****  */
  43:Drivers/lvgl/src/misc/lv_lru.c **** static uint32_t lv_lru_hash(lv_lru_t * cache, const void * key, uint32_t key_length);
  44:Drivers/lvgl/src/misc/lv_lru.c **** 
  45:Drivers/lvgl/src/misc/lv_lru.c **** /** compare a key against an existing item's key */
  46:Drivers/lvgl/src/misc/lv_lru.c **** static int lv_lru_cmp_keys(lv_lru_item_t * item, const void * key, uint32_t key_length);
  47:Drivers/lvgl/src/misc/lv_lru.c **** 
  48:Drivers/lvgl/src/misc/lv_lru.c **** /** remove an item and push it to the free items queue */
  49:Drivers/lvgl/src/misc/lv_lru.c **** static void lv_lru_remove_item(lv_lru_t * cache, lv_lru_item_t * prev, lv_lru_item_t * item, uint32
  50:Drivers/lvgl/src/misc/lv_lru.c **** 
  51:Drivers/lvgl/src/misc/lv_lru.c **** /** pop an existing item off the free queue, or create a new one */
  52:Drivers/lvgl/src/misc/lv_lru.c **** static lv_lru_item_t * lv_lru_pop_or_create_item(lv_lru_t * cache);
  53:Drivers/lvgl/src/misc/lv_lru.c **** 
  54:Drivers/lvgl/src/misc/lv_lru.c **** /**********************
  55:Drivers/lvgl/src/misc/lv_lru.c ****  *  STATIC VARIABLES
  56:Drivers/lvgl/src/misc/lv_lru.c ****  **********************/
  57:Drivers/lvgl/src/misc/lv_lru.c **** 
  58:Drivers/lvgl/src/misc/lv_lru.c **** /**********************
  59:Drivers/lvgl/src/misc/lv_lru.c ****  *      MACROS
  60:Drivers/lvgl/src/misc/lv_lru.c ****  **********************/
  61:Drivers/lvgl/src/misc/lv_lru.c **** 
  62:Drivers/lvgl/src/misc/lv_lru.c **** /* error helpers */
  63:Drivers/lvgl/src/misc/lv_lru.c **** #define error_for(conditions, error)  if(conditions) {return error;}
  64:Drivers/lvgl/src/misc/lv_lru.c **** #define test_for_missing_cache()      error_for(!cache, LV_LRU_MISSING_CACHE)
  65:Drivers/lvgl/src/misc/lv_lru.c **** #define test_for_missing_key()        error_for(!key, LV_LRU_MISSING_KEY)
  66:Drivers/lvgl/src/misc/lv_lru.c **** #define test_for_missing_value()      error_for(!value || value_length == 0, LV_LRU_MISSING_VALUE)
  67:Drivers/lvgl/src/misc/lv_lru.c **** #define test_for_value_too_large()    error_for(value_length > cache->total_memory, LV_LRU_VALUE_TO
  68:Drivers/lvgl/src/misc/lv_lru.c **** 
  69:Drivers/lvgl/src/misc/lv_lru.c **** /**********************
  70:Drivers/lvgl/src/misc/lv_lru.c ****  *   GLOBAL FUNCTIONS
  71:Drivers/lvgl/src/misc/lv_lru.c ****  **********************/
  72:Drivers/lvgl/src/misc/lv_lru.c **** 
  73:Drivers/lvgl/src/misc/lv_lru.c **** lv_lru_t * lv_lru_create(size_t cache_size, size_t average_length, lv_lru_free_t * value_free,
  74:Drivers/lvgl/src/misc/lv_lru.c ****                          lv_lru_free_t * key_free)
  75:Drivers/lvgl/src/misc/lv_lru.c **** {
  31              		.loc 1 75 1 view -0
  32              		.cfi_startproc
  33              		@ args = 0, pretend = 0, frame = 0
  34              		@ frame_needed = 0, uses_anonymous_args = 0
  76:Drivers/lvgl/src/misc/lv_lru.c ****     // create the cache
  77:Drivers/lvgl/src/misc/lv_lru.c ****     lv_lru_t * cache = (lv_lru_t *) lv_mem_alloc(sizeof(lv_lru_t));
  35              		.loc 1 77 5 view .LVU1
  75:Drivers/lvgl/src/misc/lv_lru.c ****     // create the cache
  36              		.loc 1 75 1 is_stmt 0 view .LVU2
  37 0000 2DE9F041 		push	{r4, r5, r6, r7, r8, lr}
ARM GAS  /var/folders/0z/tsy30v1j4xl4_7kw94k978ww0000gn/T//ccbD5QfV.s 			page 3


  38              		.cfi_def_cfa_offset 24
  39              		.cfi_offset 4, -24
  40              		.cfi_offset 5, -20
  41              		.cfi_offset 6, -16
  42              		.cfi_offset 7, -12
  43              		.cfi_offset 8, -8
  44              		.cfi_offset 14, -4
  75:Drivers/lvgl/src/misc/lv_lru.c ****     // create the cache
  45              		.loc 1 75 1 view .LVU3
  46 0004 0546     		mov	r5, r0
  47              		.loc 1 77 37 view .LVU4
  48 0006 3020     		movs	r0, #48
  49              	.LVL1:
  75:Drivers/lvgl/src/misc/lv_lru.c ****     // create the cache
  50              		.loc 1 75 1 view .LVU5
  51 0008 8846     		mov	r8, r1
  52 000a 1746     		mov	r7, r2
  53 000c 1E46     		mov	r6, r3
  54              		.loc 1 77 37 view .LVU6
  55 000e FFF7FEFF 		bl	lv_mem_alloc
  56              	.LVL2:
  78:Drivers/lvgl/src/misc/lv_lru.c ****     lv_memset_00(cache, sizeof(lv_lru_t));
  57              		.loc 1 78 5 view .LVU7
  58 0012 3021     		movs	r1, #48
  77:Drivers/lvgl/src/misc/lv_lru.c ****     lv_memset_00(cache, sizeof(lv_lru_t));
  59              		.loc 1 77 37 view .LVU8
  60 0014 0446     		mov	r4, r0
  61              	.LVL3:
  62              		.loc 1 78 5 is_stmt 1 view .LVU9
  63 0016 FFF7FEFF 		bl	lv_memset_00
  64              	.LVL4:
  79:Drivers/lvgl/src/misc/lv_lru.c ****     if(!cache) {
  65              		.loc 1 79 5 view .LVU10
  66              		.loc 1 79 7 is_stmt 0 view .LVU11
  67 001a 04B3     		cbz	r4, .L1
  80:Drivers/lvgl/src/misc/lv_lru.c ****         LV_LOG_WARN("LRU Cache unable to create cache object");
  81:Drivers/lvgl/src/misc/lv_lru.c ****         return NULL;
  82:Drivers/lvgl/src/misc/lv_lru.c ****     }
  83:Drivers/lvgl/src/misc/lv_lru.c ****     cache->hash_table_size = cache_size / average_length;
  68              		.loc 1 83 5 is_stmt 1 view .LVU12
  84:Drivers/lvgl/src/misc/lv_lru.c ****     cache->average_item_length = average_length;
  85:Drivers/lvgl/src/misc/lv_lru.c ****     cache->free_memory = cache_size;
  86:Drivers/lvgl/src/misc/lv_lru.c ****     cache->total_memory = cache_size;
  87:Drivers/lvgl/src/misc/lv_lru.c ****     cache->seed = lv_rand(1, UINT32_MAX);
  69              		.loc 1 87 19 is_stmt 0 view .LVU13
  70 001c 4FF0FF31 		mov	r1, #-1
  86:Drivers/lvgl/src/misc/lv_lru.c ****     cache->seed = lv_rand(1, UINT32_MAX);
  71              		.loc 1 86 25 view .LVU14
  72 0020 C4E90455 		strd	r5, r5, [r4, #16]
  83:Drivers/lvgl/src/misc/lv_lru.c ****     cache->average_item_length = average_length;
  73              		.loc 1 83 41 view .LVU15
  74 0024 B5FBF8F5 		udiv	r5, r5, r8
  75              	.LVL5:
  84:Drivers/lvgl/src/misc/lv_lru.c ****     cache->average_item_length = average_length;
  76              		.loc 1 84 32 view .LVU16
  77 0028 C4F81880 		str	r8, [r4, #24]
  83:Drivers/lvgl/src/misc/lv_lru.c ****     cache->average_item_length = average_length;
ARM GAS  /var/folders/0z/tsy30v1j4xl4_7kw94k978ww0000gn/T//ccbD5QfV.s 			page 4


  78              		.loc 1 83 28 view .LVU17
  79 002c E561     		str	r5, [r4, #28]
  84:Drivers/lvgl/src/misc/lv_lru.c ****     cache->average_item_length = average_length;
  80              		.loc 1 84 5 is_stmt 1 view .LVU18
  85:Drivers/lvgl/src/misc/lv_lru.c ****     cache->total_memory = cache_size;
  81              		.loc 1 85 5 view .LVU19
  86:Drivers/lvgl/src/misc/lv_lru.c ****     cache->seed = lv_rand(1, UINT32_MAX);
  82              		.loc 1 86 5 view .LVU20
  83              		.loc 1 87 5 view .LVU21
  84              		.loc 1 87 19 is_stmt 0 view .LVU22
  85 002e 0120     		movs	r0, #1
  86 0030 FFF7FEFF 		bl	lv_rand
  87              	.LVL6:
  88:Drivers/lvgl/src/misc/lv_lru.c ****     cache->value_free = value_free ? value_free : lv_mem_free;
  88              		.loc 1 88 49 view .LVU23
  89 0034 0E4B     		ldr	r3, .L11
  87:Drivers/lvgl/src/misc/lv_lru.c ****     cache->value_free = value_free ? value_free : lv_mem_free;
  90              		.loc 1 87 17 view .LVU24
  91 0036 2062     		str	r0, [r4, #32]
  92              		.loc 1 88 5 is_stmt 1 view .LVU25
  89:Drivers/lvgl/src/misc/lv_lru.c ****     cache->key_free = key_free ? key_free : lv_mem_free;
  90:Drivers/lvgl/src/misc/lv_lru.c **** 
  91:Drivers/lvgl/src/misc/lv_lru.c ****     // size the hash table to a guestimate of the number of slots required (assuming a perfect hash
  92:Drivers/lvgl/src/misc/lv_lru.c ****     cache->items = (lv_lru_item_t **) lv_mem_alloc(sizeof(lv_lru_item_t *) * cache->hash_table_size
  93              		.loc 1 92 39 is_stmt 0 view .LVU26
  94 0038 E069     		ldr	r0, [r4, #28]
  88:Drivers/lvgl/src/misc/lv_lru.c ****     cache->key_free = key_free ? key_free : lv_mem_free;
  95              		.loc 1 88 49 view .LVU27
  96 003a 002F     		cmp	r7, #0
  97 003c 08BF     		it	eq
  98 003e 1F46     		moveq	r7, r3
  99              	.LVL7:
  89:Drivers/lvgl/src/misc/lv_lru.c ****     cache->key_free = key_free ? key_free : lv_mem_free;
 100              		.loc 1 89 43 view .LVU28
 101 0040 002E     		cmp	r6, #0
 102 0042 08BF     		it	eq
 103 0044 1E46     		moveq	r6, r3
 104              	.LVL8:
  89:Drivers/lvgl/src/misc/lv_lru.c ****     cache->key_free = key_free ? key_free : lv_mem_free;
 105              		.loc 1 89 21 view .LVU29
 106 0046 C4E90976 		strd	r7, r6, [r4, #36]
 107              		.loc 1 92 5 is_stmt 1 view .LVU30
 108              		.loc 1 92 39 is_stmt 0 view .LVU31
 109 004a 8000     		lsls	r0, r0, #2
 110 004c FFF7FEFF 		bl	lv_mem_alloc
 111              	.LVL9:
  93:Drivers/lvgl/src/misc/lv_lru.c ****     lv_memset_00(cache->items, sizeof(lv_lru_item_t *) * cache->hash_table_size);
 112              		.loc 1 93 5 view .LVU32
 113 0050 E169     		ldr	r1, [r4, #28]
  92:Drivers/lvgl/src/misc/lv_lru.c ****     lv_memset_00(cache->items, sizeof(lv_lru_item_t *) * cache->hash_table_size);
 114              		.loc 1 92 18 view .LVU33
 115 0052 2060     		str	r0, [r4]
 116              		.loc 1 93 5 is_stmt 1 view .LVU34
 117 0054 8900     		lsls	r1, r1, #2
 118 0056 FFF7FEFF 		bl	lv_memset_00
 119              	.LVL10:
  94:Drivers/lvgl/src/misc/lv_lru.c ****     if(!cache->items) {
ARM GAS  /var/folders/0z/tsy30v1j4xl4_7kw94k978ww0000gn/T//ccbD5QfV.s 			page 5


 120              		.loc 1 94 5 view .LVU35
 121              		.loc 1 94 14 is_stmt 0 view .LVU36
 122 005a 2568     		ldr	r5, [r4]
 123              		.loc 1 94 7 view .LVU37
 124 005c 15B1     		cbz	r5, .L10
 125              	.LVL11:
 126              	.L1:
  95:Drivers/lvgl/src/misc/lv_lru.c ****         LV_LOG_WARN("LRU Cache unable to create cache hash table");
  96:Drivers/lvgl/src/misc/lv_lru.c ****         lv_mem_free(cache);
  97:Drivers/lvgl/src/misc/lv_lru.c ****         return NULL;
  98:Drivers/lvgl/src/misc/lv_lru.c ****     }
  99:Drivers/lvgl/src/misc/lv_lru.c ****     return cache;
 100:Drivers/lvgl/src/misc/lv_lru.c **** }
 127              		.loc 1 100 1 view .LVU38
 128 005e 2046     		mov	r0, r4
 129 0060 BDE8F081 		pop	{r4, r5, r6, r7, r8, pc}
 130              	.LVL12:
 131              	.L10:
  95:Drivers/lvgl/src/misc/lv_lru.c ****         LV_LOG_WARN("LRU Cache unable to create cache hash table");
 132              		.loc 1 95 9 is_stmt 1 view .LVU39
  95:Drivers/lvgl/src/misc/lv_lru.c ****         LV_LOG_WARN("LRU Cache unable to create cache hash table");
 133              		.loc 1 95 9 view .LVU40
  95:Drivers/lvgl/src/misc/lv_lru.c ****         LV_LOG_WARN("LRU Cache unable to create cache hash table");
 134              		.loc 1 95 9 view .LVU41
  96:Drivers/lvgl/src/misc/lv_lru.c ****         return NULL;
 135              		.loc 1 96 9 view .LVU42
 136 0064 2046     		mov	r0, r4
 137 0066 FFF7FEFF 		bl	lv_mem_free
 138              	.LVL13:
  97:Drivers/lvgl/src/misc/lv_lru.c ****     }
 139              		.loc 1 97 9 view .LVU43
  97:Drivers/lvgl/src/misc/lv_lru.c ****     }
 140              		.loc 1 97 16 is_stmt 0 view .LVU44
 141 006a 2C46     		mov	r4, r5
 142              	.LVL14:
  97:Drivers/lvgl/src/misc/lv_lru.c ****     }
 143              		.loc 1 97 16 view .LVU45
 144 006c F7E7     		b	.L1
 145              	.L12:
 146 006e 00BF     		.align	2
 147              	.L11:
 148 0070 00000000 		.word	lv_mem_free
 149              		.cfi_endproc
 150              	.LFE2:
 152              		.section	.text.lv_lru_del,"ax",%progbits
 153              		.align	1
 154              		.p2align 2,,3
 155              		.global	lv_lru_del
 156              		.syntax unified
 157              		.thumb
 158              		.thumb_func
 160              	lv_lru_del:
 161              	.LVL15:
 162              	.LFB3:
 101:Drivers/lvgl/src/misc/lv_lru.c **** 
 102:Drivers/lvgl/src/misc/lv_lru.c **** 
 103:Drivers/lvgl/src/misc/lv_lru.c **** void lv_lru_del(lv_lru_t * cache)
ARM GAS  /var/folders/0z/tsy30v1j4xl4_7kw94k978ww0000gn/T//ccbD5QfV.s 			page 6


 104:Drivers/lvgl/src/misc/lv_lru.c **** {
 163              		.loc 1 104 1 is_stmt 1 view -0
 164              		.cfi_startproc
 165              		@ args = 0, pretend = 0, frame = 0
 166              		@ frame_needed = 0, uses_anonymous_args = 0
 105:Drivers/lvgl/src/misc/lv_lru.c ****     LV_ASSERT_NULL(cache);
 167              		.loc 1 105 5 view .LVU47
 168              		.loc 1 105 5 view .LVU48
 169 0000 0028     		cmp	r0, #0
 170 0002 2ED0     		beq	.L15
 171              		.loc 1 105 5 discriminator 2 view .LVU49
 172              		.loc 1 105 26 discriminator 2 view .LVU50
 106:Drivers/lvgl/src/misc/lv_lru.c **** 
 107:Drivers/lvgl/src/misc/lv_lru.c ****     // free each of the cached items, and the hash table
 108:Drivers/lvgl/src/misc/lv_lru.c ****     lv_lru_item_t * item = NULL, *next = NULL;
 173              		.loc 1 108 5 discriminator 2 view .LVU51
 174              	.LVL16:
 109:Drivers/lvgl/src/misc/lv_lru.c ****     uint32_t i = 0;
 175              		.loc 1 109 5 discriminator 2 view .LVU52
 110:Drivers/lvgl/src/misc/lv_lru.c ****     if(cache->items) {
 176              		.loc 1 110 5 discriminator 2 view .LVU53
 104:Drivers/lvgl/src/misc/lv_lru.c ****     LV_ASSERT_NULL(cache);
 177              		.loc 1 104 1 is_stmt 0 discriminator 2 view .LVU54
 178 0004 F8B5     		push	{r3, r4, r5, r6, r7, lr}
 179              		.cfi_def_cfa_offset 24
 180              		.cfi_offset 3, -24
 181              		.cfi_offset 4, -20
 182              		.cfi_offset 5, -16
 183              		.cfi_offset 6, -12
 184              		.cfi_offset 7, -8
 185              		.cfi_offset 14, -4
 186 0006 0546     		mov	r5, r0
 187              		.loc 1 110 13 discriminator 2 view .LVU55
 188 0008 0068     		ldr	r0, [r0]
 189              	.LVL17:
 190              		.loc 1 110 7 discriminator 2 view .LVU56
 191 000a E8B1     		cbz	r0, .L16
 111:Drivers/lvgl/src/misc/lv_lru.c ****         for(; i < cache->hash_table_size; i++) {
 192              		.loc 1 111 17 is_stmt 1 view .LVU57
 193              		.loc 1 111 24 is_stmt 0 view .LVU58
 194 000c EB69     		ldr	r3, [r5, #28]
 195              		.loc 1 111 17 view .LVU59
 196 000e CBB1     		cbz	r3, .L17
 109:Drivers/lvgl/src/misc/lv_lru.c ****     if(cache->items) {
 197              		.loc 1 109 14 view .LVU60
 198 0010 0027     		movs	r7, #0
 199              	.LVL18:
 200              	.L20:
 112:Drivers/lvgl/src/misc/lv_lru.c ****             item = cache->items[i];
 201              		.loc 1 112 13 is_stmt 1 view .LVU61
 202              		.loc 1 112 18 is_stmt 0 view .LVU62
 203 0012 50F82760 		ldr	r6, [r0, r7, lsl #2]
 204              	.LVL19:
 113:Drivers/lvgl/src/misc/lv_lru.c ****             while(item) {
 205              		.loc 1 113 13 is_stmt 1 view .LVU63
 206              		.loc 1 113 19 view .LVU64
 207 0016 96B1     		cbz	r6, .L18
ARM GAS  /var/folders/0z/tsy30v1j4xl4_7kw94k978ww0000gn/T//ccbD5QfV.s 			page 7


 208              	.L19:
 114:Drivers/lvgl/src/misc/lv_lru.c ****                 next = (lv_lru_item_t *) item->next;
 209              		.loc 1 114 17 view .LVU65
 210 0018 3446     		mov	r4, r6
 115:Drivers/lvgl/src/misc/lv_lru.c ****                 cache->value_free(item->value);
 211              		.loc 1 115 17 is_stmt 0 view .LVU66
 212 001a 3068     		ldr	r0, [r6]
 213 001c 6B6A     		ldr	r3, [r5, #36]
 114:Drivers/lvgl/src/misc/lv_lru.c ****                 next = (lv_lru_item_t *) item->next;
 214              		.loc 1 114 22 view .LVU67
 215 001e B669     		ldr	r6, [r6, #24]
 216              	.LVL20:
 217              		.loc 1 115 17 is_stmt 1 view .LVU68
 218 0020 9847     		blx	r3
 219              	.LVL21:
 116:Drivers/lvgl/src/misc/lv_lru.c ****                 cache->key_free(item->key);
 220              		.loc 1 116 17 view .LVU69
 221 0022 6068     		ldr	r0, [r4, #4]
 222 0024 AB6A     		ldr	r3, [r5, #40]
 223 0026 9847     		blx	r3
 224              	.LVL22:
 117:Drivers/lvgl/src/misc/lv_lru.c ****                 cache->free_memory += item->value_length;
 225              		.loc 1 117 17 view .LVU70
 226              		.loc 1 117 36 is_stmt 0 view .LVU71
 227 0028 2B69     		ldr	r3, [r5, #16]
 228 002a A268     		ldr	r2, [r4, #8]
 229 002c 1344     		add	r3, r3, r2
 118:Drivers/lvgl/src/misc/lv_lru.c ****                 lv_mem_free(item);
 230              		.loc 1 118 17 view .LVU72
 231 002e 2046     		mov	r0, r4
 117:Drivers/lvgl/src/misc/lv_lru.c ****                 cache->free_memory += item->value_length;
 232              		.loc 1 117 36 view .LVU73
 233 0030 2B61     		str	r3, [r5, #16]
 234              		.loc 1 118 17 is_stmt 1 view .LVU74
 235 0032 FFF7FEFF 		bl	lv_mem_free
 236              	.LVL23:
 119:Drivers/lvgl/src/misc/lv_lru.c ****                 item = next;
 237              		.loc 1 119 17 view .LVU75
 113:Drivers/lvgl/src/misc/lv_lru.c ****                 next = (lv_lru_item_t *) item->next;
 238              		.loc 1 113 19 view .LVU76
 239 0036 002E     		cmp	r6, #0
 240 0038 EED1     		bne	.L19
 111:Drivers/lvgl/src/misc/lv_lru.c ****             item = cache->items[i];
 241              		.loc 1 111 24 is_stmt 0 view .LVU77
 242 003a EB69     		ldr	r3, [r5, #28]
 120:Drivers/lvgl/src/misc/lv_lru.c ****             }
 121:Drivers/lvgl/src/misc/lv_lru.c ****         }
 122:Drivers/lvgl/src/misc/lv_lru.c ****         lv_mem_free(cache->items);
 243              		.loc 1 122 26 view .LVU78
 244 003c 2868     		ldr	r0, [r5]
 245              	.LVL24:
 246              	.L18:
 111:Drivers/lvgl/src/misc/lv_lru.c ****             item = cache->items[i];
 247              		.loc 1 111 44 is_stmt 1 view .LVU79
 248 003e 0137     		adds	r7, r7, #1
 249              	.LVL25:
 111:Drivers/lvgl/src/misc/lv_lru.c ****             item = cache->items[i];
ARM GAS  /var/folders/0z/tsy30v1j4xl4_7kw94k978ww0000gn/T//ccbD5QfV.s 			page 8


 250              		.loc 1 111 17 view .LVU80
 251 0040 9F42     		cmp	r7, r3
 252 0042 E6D3     		bcc	.L20
 253              	.LVL26:
 254              	.L17:
 255              		.loc 1 122 9 view .LVU81
 256 0044 FFF7FEFF 		bl	lv_mem_free
 257              	.LVL27:
 258              	.L16:
 123:Drivers/lvgl/src/misc/lv_lru.c ****     }
 124:Drivers/lvgl/src/misc/lv_lru.c **** 
 125:Drivers/lvgl/src/misc/lv_lru.c ****     if(cache->free_items) {
 259              		.loc 1 125 5 view .LVU82
 260              		.loc 1 125 13 is_stmt 0 view .LVU83
 261 0048 EC6A     		ldr	r4, [r5, #44]
 262              		.loc 1 125 7 view .LVU84
 263 004a 2CB1     		cbz	r4, .L22
 264              	.L21:
 265              	.LVL28:
 126:Drivers/lvgl/src/misc/lv_lru.c ****         item = cache->free_items;
 127:Drivers/lvgl/src/misc/lv_lru.c ****         while(item) {
 128:Drivers/lvgl/src/misc/lv_lru.c ****             next = (lv_lru_item_t *) item->next;
 266              		.loc 1 128 13 is_stmt 1 view .LVU85
 267 004c 2046     		mov	r0, r4
 268              		.loc 1 128 18 is_stmt 0 view .LVU86
 269 004e A469     		ldr	r4, [r4, #24]
 270              	.LVL29:
 129:Drivers/lvgl/src/misc/lv_lru.c ****             lv_mem_free(item);
 271              		.loc 1 129 13 is_stmt 1 view .LVU87
 272 0050 FFF7FEFF 		bl	lv_mem_free
 273              	.LVL30:
 130:Drivers/lvgl/src/misc/lv_lru.c ****             item = next;
 274              		.loc 1 130 13 view .LVU88
 127:Drivers/lvgl/src/misc/lv_lru.c ****             next = (lv_lru_item_t *) item->next;
 275              		.loc 1 127 15 view .LVU89
 276 0054 002C     		cmp	r4, #0
 277 0056 F9D1     		bne	.L21
 278              	.LVL31:
 279              	.L22:
 131:Drivers/lvgl/src/misc/lv_lru.c ****         }
 132:Drivers/lvgl/src/misc/lv_lru.c ****     }
 133:Drivers/lvgl/src/misc/lv_lru.c **** 
 134:Drivers/lvgl/src/misc/lv_lru.c ****     // free the cache
 135:Drivers/lvgl/src/misc/lv_lru.c ****     lv_mem_free(cache);
 280              		.loc 1 135 5 view .LVU90
 281 0058 2846     		mov	r0, r5
 136:Drivers/lvgl/src/misc/lv_lru.c **** }
 282              		.loc 1 136 1 is_stmt 0 view .LVU91
 283 005a BDE8F840 		pop	{r3, r4, r5, r6, r7, lr}
 284              		.cfi_restore 14
 285              		.cfi_restore 7
 286              		.cfi_restore 6
 287              		.cfi_restore 5
 288              		.cfi_restore 4
 289              		.cfi_restore 3
 290              		.cfi_def_cfa_offset 0
 291              	.LVL32:
ARM GAS  /var/folders/0z/tsy30v1j4xl4_7kw94k978ww0000gn/T//ccbD5QfV.s 			page 9


 135:Drivers/lvgl/src/misc/lv_lru.c **** }
 292              		.loc 1 135 5 view .LVU92
 293 005e FFF7FEBF 		b	lv_mem_free
 294              	.LVL33:
 295              	.L15:
 105:Drivers/lvgl/src/misc/lv_lru.c **** 
 296              		.loc 1 105 5 is_stmt 1 discriminator 1 view .LVU93
 105:Drivers/lvgl/src/misc/lv_lru.c **** 
 297              		.loc 1 105 5 discriminator 1 view .LVU94
 105:Drivers/lvgl/src/misc/lv_lru.c **** 
 298              		.loc 1 105 5 discriminator 1 view .LVU95
 105:Drivers/lvgl/src/misc/lv_lru.c **** 
 299              		.loc 1 105 5 discriminator 1 view .LVU96
 105:Drivers/lvgl/src/misc/lv_lru.c **** 
 300              		.loc 1 105 5 discriminator 1 view .LVU97
 105:Drivers/lvgl/src/misc/lv_lru.c **** 
 301              		.loc 1 105 5 discriminator 1 view .LVU98
 105:Drivers/lvgl/src/misc/lv_lru.c **** 
 302              		.loc 1 105 5 discriminator 1 view .LVU99
 105:Drivers/lvgl/src/misc/lv_lru.c **** 
 303              		.loc 1 105 5 discriminator 1 view .LVU100
 105:Drivers/lvgl/src/misc/lv_lru.c **** 
 304              		.loc 1 105 5 discriminator 1 view .LVU101
 105:Drivers/lvgl/src/misc/lv_lru.c **** 
 305              		.loc 1 105 5 discriminator 1 view .LVU102
 306 0062 FEE7     		b	.L15
 307              		.cfi_endproc
 308              	.LFE3:
 310              		.section	.text.lv_lru_get,"ax",%progbits
 311              		.align	1
 312              		.p2align 2,,3
 313              		.global	lv_lru_get
 314              		.syntax unified
 315              		.thumb
 316              		.thumb_func
 318              	lv_lru_get:
 319              	.LVL34:
 320              	.LFB5:
 137:Drivers/lvgl/src/misc/lv_lru.c **** 
 138:Drivers/lvgl/src/misc/lv_lru.c **** 
 139:Drivers/lvgl/src/misc/lv_lru.c **** lv_lru_res_t lv_lru_set(lv_lru_t * cache, const void * key, size_t key_length, void * value, size_t
 140:Drivers/lvgl/src/misc/lv_lru.c **** {
 141:Drivers/lvgl/src/misc/lv_lru.c ****     test_for_missing_cache();
 142:Drivers/lvgl/src/misc/lv_lru.c ****     test_for_missing_key();
 143:Drivers/lvgl/src/misc/lv_lru.c ****     test_for_missing_value();
 144:Drivers/lvgl/src/misc/lv_lru.c ****     test_for_value_too_large();
 145:Drivers/lvgl/src/misc/lv_lru.c **** 
 146:Drivers/lvgl/src/misc/lv_lru.c ****     // see if the key already exists
 147:Drivers/lvgl/src/misc/lv_lru.c ****     uint32_t hash_index = lv_lru_hash(cache, key, key_length);
 148:Drivers/lvgl/src/misc/lv_lru.c ****     int required = 0;
 149:Drivers/lvgl/src/misc/lv_lru.c ****     lv_lru_item_t * item = NULL, *prev = NULL;
 150:Drivers/lvgl/src/misc/lv_lru.c ****     item = cache->items[hash_index];
 151:Drivers/lvgl/src/misc/lv_lru.c **** 
 152:Drivers/lvgl/src/misc/lv_lru.c ****     while(item && lv_lru_cmp_keys(item, key, key_length)) {
 153:Drivers/lvgl/src/misc/lv_lru.c ****         prev = item;
 154:Drivers/lvgl/src/misc/lv_lru.c ****         item = (lv_lru_item_t *) item->next;
 155:Drivers/lvgl/src/misc/lv_lru.c ****     }
ARM GAS  /var/folders/0z/tsy30v1j4xl4_7kw94k978ww0000gn/T//ccbD5QfV.s 			page 10


 156:Drivers/lvgl/src/misc/lv_lru.c **** 
 157:Drivers/lvgl/src/misc/lv_lru.c ****     if(item) {
 158:Drivers/lvgl/src/misc/lv_lru.c ****         // update the value and value_lengths
 159:Drivers/lvgl/src/misc/lv_lru.c ****         required = (int)(value_length - item->value_length);
 160:Drivers/lvgl/src/misc/lv_lru.c ****         cache->value_free(item->value);
 161:Drivers/lvgl/src/misc/lv_lru.c ****         item->value = value;
 162:Drivers/lvgl/src/misc/lv_lru.c ****         item->value_length = value_length;
 163:Drivers/lvgl/src/misc/lv_lru.c **** 
 164:Drivers/lvgl/src/misc/lv_lru.c ****     }
 165:Drivers/lvgl/src/misc/lv_lru.c ****     else {
 166:Drivers/lvgl/src/misc/lv_lru.c ****         // insert a new item
 167:Drivers/lvgl/src/misc/lv_lru.c ****         item = lv_lru_pop_or_create_item(cache);
 168:Drivers/lvgl/src/misc/lv_lru.c ****         item->value = value;
 169:Drivers/lvgl/src/misc/lv_lru.c ****         item->key = lv_mem_alloc(key_length);
 170:Drivers/lvgl/src/misc/lv_lru.c ****         memcpy(item->key, key, key_length);
 171:Drivers/lvgl/src/misc/lv_lru.c ****         item->value_length = value_length;
 172:Drivers/lvgl/src/misc/lv_lru.c ****         item->key_length = key_length;
 173:Drivers/lvgl/src/misc/lv_lru.c ****         required = (int) value_length;
 174:Drivers/lvgl/src/misc/lv_lru.c **** 
 175:Drivers/lvgl/src/misc/lv_lru.c ****         if(prev)
 176:Drivers/lvgl/src/misc/lv_lru.c ****             prev->next = item;
 177:Drivers/lvgl/src/misc/lv_lru.c ****         else
 178:Drivers/lvgl/src/misc/lv_lru.c ****             cache->items[hash_index] = item;
 179:Drivers/lvgl/src/misc/lv_lru.c ****     }
 180:Drivers/lvgl/src/misc/lv_lru.c ****     item->access_count = ++cache->access_count;
 181:Drivers/lvgl/src/misc/lv_lru.c **** 
 182:Drivers/lvgl/src/misc/lv_lru.c ****     // remove as many items as necessary to free enough space
 183:Drivers/lvgl/src/misc/lv_lru.c ****     if(required > 0 && (size_t) required > cache->free_memory) {
 184:Drivers/lvgl/src/misc/lv_lru.c ****         while(cache->free_memory < (size_t) required)
 185:Drivers/lvgl/src/misc/lv_lru.c ****             lv_lru_remove_lru_item(cache);
 186:Drivers/lvgl/src/misc/lv_lru.c ****     }
 187:Drivers/lvgl/src/misc/lv_lru.c ****     cache->free_memory -= required;
 188:Drivers/lvgl/src/misc/lv_lru.c ****     return LV_LRU_OK;
 189:Drivers/lvgl/src/misc/lv_lru.c **** }
 190:Drivers/lvgl/src/misc/lv_lru.c **** 
 191:Drivers/lvgl/src/misc/lv_lru.c **** 
 192:Drivers/lvgl/src/misc/lv_lru.c **** lv_lru_res_t lv_lru_get(lv_lru_t * cache, const void * key, size_t key_size, void ** value)
 193:Drivers/lvgl/src/misc/lv_lru.c **** {
 321              		.loc 1 193 1 view -0
 322              		.cfi_startproc
 323              		@ args = 0, pretend = 0, frame = 0
 324              		@ frame_needed = 0, uses_anonymous_args = 0
 194:Drivers/lvgl/src/misc/lv_lru.c ****     test_for_missing_cache();
 325              		.loc 1 194 5 view .LVU104
 326 0000 0028     		cmp	r0, #0
 327 0002 69D0     		beq	.L51
 328              		.loc 1 194 29 discriminator 2 view .LVU105
 195:Drivers/lvgl/src/misc/lv_lru.c ****     test_for_missing_key();
 329              		.loc 1 195 5 discriminator 2 view .LVU106
 193:Drivers/lvgl/src/misc/lv_lru.c ****     test_for_missing_cache();
 330              		.loc 1 193 1 is_stmt 0 discriminator 2 view .LVU107
 331 0004 2DE9F041 		push	{r4, r5, r6, r7, r8, lr}
 332              		.cfi_def_cfa_offset 24
 333              		.cfi_offset 4, -24
 334              		.cfi_offset 5, -20
 335              		.cfi_offset 6, -16
 336              		.cfi_offset 7, -12
ARM GAS  /var/folders/0z/tsy30v1j4xl4_7kw94k978ww0000gn/T//ccbD5QfV.s 			page 11


 337              		.cfi_offset 8, -8
 338              		.cfi_offset 14, -4
 339 0008 0D46     		mov	r5, r1
 340              		.loc 1 195 5 discriminator 2 view .LVU108
 341 000a 0029     		cmp	r1, #0
 342 000c 66D0     		beq	.L52
 343 000e 9046     		mov	r8, r2
 344 0010 1E46     		mov	r6, r3
 345              	.LBB16:
 346              	.LBB17:
 196:Drivers/lvgl/src/misc/lv_lru.c **** 
 197:Drivers/lvgl/src/misc/lv_lru.c ****     // loop until we find the item, or hit the end of a chain
 198:Drivers/lvgl/src/misc/lv_lru.c ****     uint32_t hash_index = lv_lru_hash(cache, key, key_size);
 199:Drivers/lvgl/src/misc/lv_lru.c ****     lv_lru_item_t * item = cache->items[hash_index];
 200:Drivers/lvgl/src/misc/lv_lru.c **** 
 201:Drivers/lvgl/src/misc/lv_lru.c ****     while(item && lv_lru_cmp_keys(item, key, key_size))
 202:Drivers/lvgl/src/misc/lv_lru.c ****         item = (lv_lru_item_t *) item->next;
 203:Drivers/lvgl/src/misc/lv_lru.c **** 
 204:Drivers/lvgl/src/misc/lv_lru.c ****     if(item) {
 205:Drivers/lvgl/src/misc/lv_lru.c ****         *value = item->value;
 206:Drivers/lvgl/src/misc/lv_lru.c ****         item->access_count = ++cache->access_count;
 207:Drivers/lvgl/src/misc/lv_lru.c ****     }
 208:Drivers/lvgl/src/misc/lv_lru.c ****     else {
 209:Drivers/lvgl/src/misc/lv_lru.c ****         *value = NULL;
 210:Drivers/lvgl/src/misc/lv_lru.c ****     }
 211:Drivers/lvgl/src/misc/lv_lru.c **** 
 212:Drivers/lvgl/src/misc/lv_lru.c ****     return LV_LRU_OK;
 213:Drivers/lvgl/src/misc/lv_lru.c **** }
 214:Drivers/lvgl/src/misc/lv_lru.c **** 
 215:Drivers/lvgl/src/misc/lv_lru.c **** lv_lru_res_t lv_lru_remove(lv_lru_t * cache, const void * key, size_t key_size)
 216:Drivers/lvgl/src/misc/lv_lru.c **** {
 217:Drivers/lvgl/src/misc/lv_lru.c ****     test_for_missing_cache();
 218:Drivers/lvgl/src/misc/lv_lru.c ****     test_for_missing_key();
 219:Drivers/lvgl/src/misc/lv_lru.c **** 
 220:Drivers/lvgl/src/misc/lv_lru.c ****     // loop until we find the item, or hit the end of a chain
 221:Drivers/lvgl/src/misc/lv_lru.c ****     lv_lru_item_t * item = NULL, *prev = NULL;
 222:Drivers/lvgl/src/misc/lv_lru.c ****     uint32_t hash_index = lv_lru_hash(cache, key, key_size);
 223:Drivers/lvgl/src/misc/lv_lru.c ****     item = cache->items[hash_index];
 224:Drivers/lvgl/src/misc/lv_lru.c **** 
 225:Drivers/lvgl/src/misc/lv_lru.c ****     while(item && lv_lru_cmp_keys(item, key, key_size)) {
 226:Drivers/lvgl/src/misc/lv_lru.c ****         prev = item;
 227:Drivers/lvgl/src/misc/lv_lru.c ****         item = (lv_lru_item_t *) item->next;
 228:Drivers/lvgl/src/misc/lv_lru.c ****     }
 229:Drivers/lvgl/src/misc/lv_lru.c **** 
 230:Drivers/lvgl/src/misc/lv_lru.c ****     if(item) {
 231:Drivers/lvgl/src/misc/lv_lru.c ****         lv_lru_remove_item(cache, prev, item, hash_index);
 232:Drivers/lvgl/src/misc/lv_lru.c ****     }
 233:Drivers/lvgl/src/misc/lv_lru.c **** 
 234:Drivers/lvgl/src/misc/lv_lru.c ****     return LV_LRU_OK;
 235:Drivers/lvgl/src/misc/lv_lru.c **** }
 236:Drivers/lvgl/src/misc/lv_lru.c **** 
 237:Drivers/lvgl/src/misc/lv_lru.c **** void lv_lru_remove_lru_item(lv_lru_t * cache)
 238:Drivers/lvgl/src/misc/lv_lru.c **** {
 239:Drivers/lvgl/src/misc/lv_lru.c ****     lv_lru_item_t * min_item = NULL, *min_prev = NULL;
 240:Drivers/lvgl/src/misc/lv_lru.c ****     lv_lru_item_t * item = NULL, *prev = NULL;
 241:Drivers/lvgl/src/misc/lv_lru.c ****     uint32_t i = 0, min_index = -1;
 242:Drivers/lvgl/src/misc/lv_lru.c ****     uint64_t min_access_count = -1;
ARM GAS  /var/folders/0z/tsy30v1j4xl4_7kw94k978ww0000gn/T//ccbD5QfV.s 			page 12


 243:Drivers/lvgl/src/misc/lv_lru.c **** 
 244:Drivers/lvgl/src/misc/lv_lru.c ****     for(; i < cache->hash_table_size; i++) {
 245:Drivers/lvgl/src/misc/lv_lru.c ****         item = cache->items[i];
 246:Drivers/lvgl/src/misc/lv_lru.c ****         prev = NULL;
 247:Drivers/lvgl/src/misc/lv_lru.c **** 
 248:Drivers/lvgl/src/misc/lv_lru.c ****         while(item) {
 249:Drivers/lvgl/src/misc/lv_lru.c ****             if(item->access_count < min_access_count || (int64_t) min_access_count == -1) {
 250:Drivers/lvgl/src/misc/lv_lru.c ****                 min_access_count = item->access_count;
 251:Drivers/lvgl/src/misc/lv_lru.c ****                 min_item = item;
 252:Drivers/lvgl/src/misc/lv_lru.c ****                 min_prev = prev;
 253:Drivers/lvgl/src/misc/lv_lru.c ****                 min_index = i;
 254:Drivers/lvgl/src/misc/lv_lru.c ****             }
 255:Drivers/lvgl/src/misc/lv_lru.c ****             prev = item;
 256:Drivers/lvgl/src/misc/lv_lru.c ****             item = item->next;
 257:Drivers/lvgl/src/misc/lv_lru.c ****         }
 258:Drivers/lvgl/src/misc/lv_lru.c ****     }
 259:Drivers/lvgl/src/misc/lv_lru.c **** 
 260:Drivers/lvgl/src/misc/lv_lru.c ****     if(min_item) {
 261:Drivers/lvgl/src/misc/lv_lru.c ****         lv_lru_remove_item(cache, min_prev, min_item, min_index);
 262:Drivers/lvgl/src/misc/lv_lru.c ****     }
 263:Drivers/lvgl/src/misc/lv_lru.c **** }
 264:Drivers/lvgl/src/misc/lv_lru.c **** 
 265:Drivers/lvgl/src/misc/lv_lru.c **** /**********************
 266:Drivers/lvgl/src/misc/lv_lru.c ****  *   STATIC FUNCTIONS
 267:Drivers/lvgl/src/misc/lv_lru.c ****  **********************/
 268:Drivers/lvgl/src/misc/lv_lru.c **** 
 269:Drivers/lvgl/src/misc/lv_lru.c **** static uint32_t lv_lru_hash(lv_lru_t * cache, const void * key, uint32_t key_length)
 270:Drivers/lvgl/src/misc/lv_lru.c **** {
 271:Drivers/lvgl/src/misc/lv_lru.c ****     uint32_t m = 0x5bd1e995;
 272:Drivers/lvgl/src/misc/lv_lru.c ****     uint32_t r = 24;
 273:Drivers/lvgl/src/misc/lv_lru.c ****     uint32_t h = cache->seed ^ key_length;
 347              		.loc 1 273 14 discriminator 2 view .LVU109
 348 0012 D0E90723 		ldrd	r2, r3, [r0, #28]
 349              	.LVL35:
 274:Drivers/lvgl/src/misc/lv_lru.c ****     char * data = (char *) key;
 275:Drivers/lvgl/src/misc/lv_lru.c **** 
 276:Drivers/lvgl/src/misc/lv_lru.c ****     while(key_length >= 4) {
 350              		.loc 1 276 22 discriminator 2 view .LVU110
 351 0016 B8F1030F 		cmp	r8, #3
 352 001a 0746     		mov	r7, r0
 353              	.LBE17:
 354              	.LBE16:
 195:Drivers/lvgl/src/misc/lv_lru.c **** 
 355              		.loc 1 195 27 is_stmt 1 discriminator 2 view .LVU111
 198:Drivers/lvgl/src/misc/lv_lru.c ****     lv_lru_item_t * item = cache->items[hash_index];
 356              		.loc 1 198 5 discriminator 2 view .LVU112
 357              	.LBB27:
 358              	.LBB22:
 273:Drivers/lvgl/src/misc/lv_lru.c ****     char * data = (char *) key;
 359              		.loc 1 273 14 is_stmt 0 discriminator 2 view .LVU113
 360 001c 88EA030C 		eor	ip, r8, r3
 361              	.LVL36:
 274:Drivers/lvgl/src/misc/lv_lru.c **** 
 362              		.loc 1 274 5 is_stmt 1 discriminator 2 view .LVU114
 363              		.loc 1 276 5 discriminator 2 view .LVU115
 364              		.loc 1 276 22 discriminator 2 view .LVU116
 365 0020 5ED9     		bls	.L53
ARM GAS  /var/folders/0z/tsy30v1j4xl4_7kw94k978ww0000gn/T//ccbD5QfV.s 			page 13


 366 0022 A8F1040E 		sub	lr, r8, #4
 367 0026 2EF0030E 		bic	lr, lr, #3
 368 002a 0EF1040E 		add	lr, lr, #4
 369 002e 8E44     		add	lr, lr, r1
 370              	.LBB18:
 277:Drivers/lvgl/src/misc/lv_lru.c ****         uint32_t k = *(uint32_t *) data;
 278:Drivers/lvgl/src/misc/lv_lru.c ****         k *= m;
 371              		.loc 1 278 11 is_stmt 0 view .LVU117
 372 0030 2D49     		ldr	r1, .L69
 373              	.LVL37:
 374              		.loc 1 278 11 view .LVU118
 375              	.LBE18:
 276:Drivers/lvgl/src/misc/lv_lru.c ****         uint32_t k = *(uint32_t *) data;
 376              		.loc 1 276 22 view .LVU119
 377 0032 2B46     		mov	r3, r5
 378              	.LVL38:
 379              	.L41:
 380              	.LBB19:
 277:Drivers/lvgl/src/misc/lv_lru.c ****         uint32_t k = *(uint32_t *) data;
 381              		.loc 1 277 9 is_stmt 1 view .LVU120
 277:Drivers/lvgl/src/misc/lv_lru.c ****         uint32_t k = *(uint32_t *) data;
 382              		.loc 1 277 18 is_stmt 0 view .LVU121
 383 0034 53F8044B 		ldr	r4, [r3], #4
 384              	.LVL39:
 385              		.loc 1 278 9 is_stmt 1 view .LVU122
 279:Drivers/lvgl/src/misc/lv_lru.c ****         k ^= k >> r;
 280:Drivers/lvgl/src/misc/lv_lru.c ****         k *= m;
 281:Drivers/lvgl/src/misc/lv_lru.c ****         h *= m;
 386              		.loc 1 281 11 is_stmt 0 view .LVU123
 387 0038 01FB0CF0 		mul	r0, r1, ip
 278:Drivers/lvgl/src/misc/lv_lru.c ****         k ^= k >> r;
 388              		.loc 1 278 11 view .LVU124
 389 003c 01FB04FC 		mul	ip, r1, r4
 390              	.LVL40:
 279:Drivers/lvgl/src/misc/lv_lru.c ****         k ^= k >> r;
 391              		.loc 1 279 9 is_stmt 1 view .LVU125
 279:Drivers/lvgl/src/misc/lv_lru.c ****         k ^= k >> r;
 392              		.loc 1 279 11 is_stmt 0 view .LVU126
 393 0040 8CEA1C6C 		eor	ip, ip, ip, lsr #24
 394              	.LVL41:
 280:Drivers/lvgl/src/misc/lv_lru.c ****         h *= m;
 395              		.loc 1 280 9 is_stmt 1 view .LVU127
 396              		.loc 1 281 9 view .LVU128
 282:Drivers/lvgl/src/misc/lv_lru.c ****         h ^= k;
 397              		.loc 1 282 9 view .LVU129
 280:Drivers/lvgl/src/misc/lv_lru.c ****         h *= m;
 398              		.loc 1 280 11 is_stmt 0 view .LVU130
 399 0044 01FB0CFC 		mul	ip, r1, ip
 400              	.LVL42:
 280:Drivers/lvgl/src/misc/lv_lru.c ****         h *= m;
 401              		.loc 1 280 11 view .LVU131
 402              	.LBE19:
 276:Drivers/lvgl/src/misc/lv_lru.c ****         uint32_t k = *(uint32_t *) data;
 403              		.loc 1 276 22 view .LVU132
 404 0048 7345     		cmp	r3, lr
 405              	.LBB20:
 406              		.loc 1 282 11 view .LVU133
ARM GAS  /var/folders/0z/tsy30v1j4xl4_7kw94k978ww0000gn/T//ccbD5QfV.s 			page 14


 407 004a 8CEA000C 		eor	ip, ip, r0
 408              	.LVL43:
 283:Drivers/lvgl/src/misc/lv_lru.c ****         data += 4;
 409              		.loc 1 283 9 is_stmt 1 view .LVU134
 284:Drivers/lvgl/src/misc/lv_lru.c ****         key_length -= 4;
 410              		.loc 1 284 9 view .LVU135
 411              		.loc 1 284 9 is_stmt 0 view .LVU136
 412              	.LBE20:
 276:Drivers/lvgl/src/misc/lv_lru.c ****         uint32_t k = *(uint32_t *) data;
 413              		.loc 1 276 22 is_stmt 1 view .LVU137
 414 004e F1D1     		bne	.L41
 415              	.LBB21:
 416              		.loc 1 284 20 is_stmt 0 view .LVU138
 417 0050 08F00303 		and	r3, r8, #3
 418              	.LVL44:
 419              	.L40:
 420              		.loc 1 284 20 view .LVU139
 421              	.LBE21:
 285:Drivers/lvgl/src/misc/lv_lru.c ****     }
 286:Drivers/lvgl/src/misc/lv_lru.c **** 
 287:Drivers/lvgl/src/misc/lv_lru.c ****     if(key_length >= 3) {
 422              		.loc 1 287 5 is_stmt 1 view .LVU140
 423              		.loc 1 287 7 is_stmt 0 view .LVU141
 424 0054 032B     		cmp	r3, #3
 425 0056 2BD0     		beq	.L68
 288:Drivers/lvgl/src/misc/lv_lru.c ****         h ^= data[2] << 16;
 289:Drivers/lvgl/src/misc/lv_lru.c ****     }
 290:Drivers/lvgl/src/misc/lv_lru.c ****     if(key_length >= 2) {
 426              		.loc 1 290 5 is_stmt 1 view .LVU142
 427              		.loc 1 290 7 is_stmt 0 view .LVU143
 428 0058 022B     		cmp	r3, #2
 429 005a 2DD0     		beq	.L43
 291:Drivers/lvgl/src/misc/lv_lru.c ****         h ^= data[1] << 8;
 292:Drivers/lvgl/src/misc/lv_lru.c ****     }
 293:Drivers/lvgl/src/misc/lv_lru.c ****     if(key_length >= 1) {
 430              		.loc 1 293 5 is_stmt 1 view .LVU144
 431              		.loc 1 293 7 is_stmt 0 view .LVU145
 432 005c 83BB     		cbnz	r3, .L45
 433              	.L46:
 294:Drivers/lvgl/src/misc/lv_lru.c ****         h ^= data[0];
 295:Drivers/lvgl/src/misc/lv_lru.c ****         h *= m;
 296:Drivers/lvgl/src/misc/lv_lru.c ****     }
 297:Drivers/lvgl/src/misc/lv_lru.c **** 
 298:Drivers/lvgl/src/misc/lv_lru.c ****     h ^= h >> 13;
 434              		.loc 1 298 5 is_stmt 1 view .LVU146
 299:Drivers/lvgl/src/misc/lv_lru.c ****     h *= m;
 435              		.loc 1 299 7 is_stmt 0 view .LVU147
 436 005e 224B     		ldr	r3, .L69
 298:Drivers/lvgl/src/misc/lv_lru.c ****     h *= m;
 437              		.loc 1 298 7 view .LVU148
 438 0060 8CEA5C3C 		eor	ip, ip, ip, lsr #13
 439              	.LVL45:
 440              		.loc 1 299 5 is_stmt 1 view .LVU149
 441              		.loc 1 299 7 is_stmt 0 view .LVU150
 442 0064 03FB0CFC 		mul	ip, r3, ip
 443              	.LVL46:
 300:Drivers/lvgl/src/misc/lv_lru.c ****     h ^= h >> 15;
ARM GAS  /var/folders/0z/tsy30v1j4xl4_7kw94k978ww0000gn/T//ccbD5QfV.s 			page 15


 444              		.loc 1 300 5 is_stmt 1 view .LVU151
 301:Drivers/lvgl/src/misc/lv_lru.c ****     return h % cache->hash_table_size;
 445              		.loc 1 301 5 view .LVU152
 446              		.loc 1 301 5 is_stmt 0 view .LVU153
 447              	.LBE22:
 448              	.LBE27:
 199:Drivers/lvgl/src/misc/lv_lru.c **** 
 449              		.loc 1 199 5 is_stmt 1 view .LVU154
 450              	.LBB28:
 451              	.LBB23:
 300:Drivers/lvgl/src/misc/lv_lru.c ****     h ^= h >> 15;
 452              		.loc 1 300 7 is_stmt 0 view .LVU155
 453 0068 8CEADC3C 		eor	ip, ip, ip, lsr #15
 454              	.LVL47:
 300:Drivers/lvgl/src/misc/lv_lru.c ****     h ^= h >> 15;
 455              		.loc 1 300 7 view .LVU156
 456              	.LBE23:
 457              	.LBE28:
 199:Drivers/lvgl/src/misc/lv_lru.c **** 
 458              		.loc 1 199 21 view .LVU157
 459 006c 3B68     		ldr	r3, [r7]
 460              	.LBB29:
 461              	.LBB24:
 462              		.loc 1 301 14 view .LVU158
 463 006e BCFBF2F1 		udiv	r1, ip, r2
 464 0072 02FB11CC 		mls	ip, r2, r1, ip
 465              	.LBE24:
 466              	.LBE29:
 199:Drivers/lvgl/src/misc/lv_lru.c **** 
 467              		.loc 1 199 21 view .LVU159
 468 0076 53F82C40 		ldr	r4, [r3, ip, lsl #2]
 469              	.LVL48:
 201:Drivers/lvgl/src/misc/lv_lru.c ****         item = (lv_lru_item_t *) item->next;
 470              		.loc 1 201 5 is_stmt 1 view .LVU160
 201:Drivers/lvgl/src/misc/lv_lru.c ****         item = (lv_lru_item_t *) item->next;
 471              		.loc 1 201 16 view .LVU161
 472 007a 14B9     		cbnz	r4, .L47
 473 007c 28E0     		b	.L48
 474              	.L49:
 202:Drivers/lvgl/src/misc/lv_lru.c **** 
 475              		.loc 1 202 9 view .LVU162
 202:Drivers/lvgl/src/misc/lv_lru.c **** 
 476              		.loc 1 202 14 is_stmt 0 view .LVU163
 477 007e A469     		ldr	r4, [r4, #24]
 478              	.LVL49:
 201:Drivers/lvgl/src/misc/lv_lru.c ****         item = (lv_lru_item_t *) item->next;
 479              		.loc 1 201 16 is_stmt 1 view .LVU164
 480 0080 34B3     		cbz	r4, .L48
 481              	.L47:
 482              	.LVL50:
 483              	.LBB30:
 484              	.LBI30:
 302:Drivers/lvgl/src/misc/lv_lru.c **** }
 303:Drivers/lvgl/src/misc/lv_lru.c **** 
 304:Drivers/lvgl/src/misc/lv_lru.c **** static int lv_lru_cmp_keys(lv_lru_item_t * item, const void * key, uint32_t key_length)
 485              		.loc 1 304 12 view .LVU165
 486              	.LBB31:
ARM GAS  /var/folders/0z/tsy30v1j4xl4_7kw94k978ww0000gn/T//ccbD5QfV.s 			page 16


 305:Drivers/lvgl/src/misc/lv_lru.c **** {
 306:Drivers/lvgl/src/misc/lv_lru.c ****     if(key_length != item->key_length) {
 487              		.loc 1 306 5 view .LVU166
 488              		.loc 1 306 7 is_stmt 0 view .LVU167
 489 0082 E368     		ldr	r3, [r4, #12]
 490 0084 9845     		cmp	r8, r3
 491 0086 FAD1     		bne	.L49
 492              	.LVL51:
 493              	.LBB32:
 494              	.LBI32:
 304:Drivers/lvgl/src/misc/lv_lru.c **** {
 495              		.loc 1 304 12 is_stmt 1 view .LVU168
 496              	.LBB33:
 307:Drivers/lvgl/src/misc/lv_lru.c ****         return 1;
 308:Drivers/lvgl/src/misc/lv_lru.c ****     }
 309:Drivers/lvgl/src/misc/lv_lru.c ****     else {
 310:Drivers/lvgl/src/misc/lv_lru.c ****         return memcmp(key, item->key, key_length);
 497              		.loc 1 310 9 view .LVU169
 498              		.loc 1 310 16 is_stmt 0 view .LVU170
 499 0088 6168     		ldr	r1, [r4, #4]
 500 008a 4246     		mov	r2, r8
 501 008c 2846     		mov	r0, r5
 502 008e FFF7FEFF 		bl	memcmp
 503              	.LVL52:
 504              		.loc 1 310 16 view .LVU171
 505              	.LBE33:
 506              	.LBE32:
 507              	.LBE31:
 508              	.LBE30:
 201:Drivers/lvgl/src/misc/lv_lru.c ****         item = (lv_lru_item_t *) item->next;
 509              		.loc 1 201 16 view .LVU172
 510 0092 0028     		cmp	r0, #0
 511 0094 F3D1     		bne	.L49
 204:Drivers/lvgl/src/misc/lv_lru.c ****         *value = item->value;
 512              		.loc 1 204 5 is_stmt 1 view .LVU173
 205:Drivers/lvgl/src/misc/lv_lru.c ****         item->access_count = ++cache->access_count;
 513              		.loc 1 205 9 view .LVU174
 205:Drivers/lvgl/src/misc/lv_lru.c ****         item->access_count = ++cache->access_count;
 514              		.loc 1 205 22 is_stmt 0 view .LVU175
 515 0096 2368     		ldr	r3, [r4]
 205:Drivers/lvgl/src/misc/lv_lru.c ****         item->access_count = ++cache->access_count;
 516              		.loc 1 205 16 view .LVU176
 517 0098 3360     		str	r3, [r6]
 206:Drivers/lvgl/src/misc/lv_lru.c ****     }
 518              		.loc 1 206 9 is_stmt 1 view .LVU177
 206:Drivers/lvgl/src/misc/lv_lru.c ****     }
 519              		.loc 1 206 30 is_stmt 0 view .LVU178
 520 009a D7E90232 		ldrd	r3, r2, [r7, #8]
 521 009e 0133     		adds	r3, r3, #1
 522 00a0 42F10002 		adc	r2, r2, #0
 206:Drivers/lvgl/src/misc/lv_lru.c ****     }
 523              		.loc 1 206 28 view .LVU179
 524 00a4 C7E90232 		strd	r3, r2, [r7, #8]
 525 00a8 C4E90432 		strd	r3, r2, [r4, #16]
 526              	.LVL53:
 527              	.L63:
 213:Drivers/lvgl/src/misc/lv_lru.c **** 
ARM GAS  /var/folders/0z/tsy30v1j4xl4_7kw94k978ww0000gn/T//ccbD5QfV.s 			page 17


 528              		.loc 1 213 1 view .LVU180
 529 00ac BDE8F081 		pop	{r4, r5, r6, r7, r8, pc}
 530              	.LVL54:
 531              	.L68:
 532              	.LBB34:
 533              	.LBB25:
 288:Drivers/lvgl/src/misc/lv_lru.c ****     }
 534              		.loc 1 288 9 is_stmt 1 view .LVU181
 288:Drivers/lvgl/src/misc/lv_lru.c ****     }
 535              		.loc 1 288 18 is_stmt 0 view .LVU182
 536 00b0 9EF80230 		ldrb	r3, [lr, #2]	@ zero_extendqisi2
 288:Drivers/lvgl/src/misc/lv_lru.c ****     }
 537              		.loc 1 288 11 view .LVU183
 538 00b4 8CEA034C 		eor	ip, ip, r3, lsl #16
 539              	.LVL55:
 290:Drivers/lvgl/src/misc/lv_lru.c ****         h ^= data[1] << 8;
 540              		.loc 1 290 5 is_stmt 1 view .LVU184
 541              	.L43:
 291:Drivers/lvgl/src/misc/lv_lru.c ****     }
 542              		.loc 1 291 9 view .LVU185
 291:Drivers/lvgl/src/misc/lv_lru.c ****     }
 543              		.loc 1 291 18 is_stmt 0 view .LVU186
 544 00b8 9EF80130 		ldrb	r3, [lr, #1]	@ zero_extendqisi2
 291:Drivers/lvgl/src/misc/lv_lru.c ****     }
 545              		.loc 1 291 11 view .LVU187
 546 00bc 8CEA032C 		eor	ip, ip, r3, lsl #8
 547              	.LVL56:
 293:Drivers/lvgl/src/misc/lv_lru.c ****         h ^= data[0];
 548              		.loc 1 293 5 is_stmt 1 view .LVU188
 549              	.L45:
 294:Drivers/lvgl/src/misc/lv_lru.c ****         h *= m;
 550              		.loc 1 294 9 view .LVU189
 294:Drivers/lvgl/src/misc/lv_lru.c ****         h *= m;
 551              		.loc 1 294 18 is_stmt 0 view .LVU190
 552 00c0 9EF80030 		ldrb	r3, [lr]	@ zero_extendqisi2
 295:Drivers/lvgl/src/misc/lv_lru.c ****     }
 553              		.loc 1 295 11 view .LVU191
 554 00c4 0849     		ldr	r1, .L69
 294:Drivers/lvgl/src/misc/lv_lru.c ****         h *= m;
 555              		.loc 1 294 11 view .LVU192
 556 00c6 83EA0C03 		eor	r3, r3, ip
 557              	.LVL57:
 295:Drivers/lvgl/src/misc/lv_lru.c ****     }
 558              		.loc 1 295 9 is_stmt 1 view .LVU193
 295:Drivers/lvgl/src/misc/lv_lru.c ****     }
 559              		.loc 1 295 11 is_stmt 0 view .LVU194
 560 00ca 01FB03FC 		mul	ip, r1, r3
 561              	.LVL58:
 295:Drivers/lvgl/src/misc/lv_lru.c ****     }
 562              		.loc 1 295 11 view .LVU195
 563 00ce C6E7     		b	.L46
 564              	.LVL59:
 565              	.L48:
 295:Drivers/lvgl/src/misc/lv_lru.c ****     }
 566              		.loc 1 295 11 view .LVU196
 567              	.LBE25:
 568              	.LBE34:
ARM GAS  /var/folders/0z/tsy30v1j4xl4_7kw94k978ww0000gn/T//ccbD5QfV.s 			page 18


 204:Drivers/lvgl/src/misc/lv_lru.c ****         *value = item->value;
 569              		.loc 1 204 5 is_stmt 1 view .LVU197
 209:Drivers/lvgl/src/misc/lv_lru.c ****     }
 570              		.loc 1 209 9 view .LVU198
 209:Drivers/lvgl/src/misc/lv_lru.c ****     }
 571              		.loc 1 209 16 is_stmt 0 view .LVU199
 572 00d0 0020     		movs	r0, #0
 573 00d2 3060     		str	r0, [r6]
 213:Drivers/lvgl/src/misc/lv_lru.c **** 
 574              		.loc 1 213 1 view .LVU200
 575 00d4 BDE8F081 		pop	{r4, r5, r6, r7, r8, pc}
 576              	.LVL60:
 577              	.L51:
 578              		.cfi_def_cfa_offset 0
 579              		.cfi_restore 4
 580              		.cfi_restore 5
 581              		.cfi_restore 6
 582              		.cfi_restore 7
 583              		.cfi_restore 8
 584              		.cfi_restore 14
 194:Drivers/lvgl/src/misc/lv_lru.c ****     test_for_missing_key();
 585              		.loc 1 194 5 view .LVU201
 586 00d8 0120     		movs	r0, #1
 587              	.LVL61:
 213:Drivers/lvgl/src/misc/lv_lru.c **** 
 588              		.loc 1 213 1 view .LVU202
 589 00da 7047     		bx	lr
 590              	.LVL62:
 591              	.L52:
 592              		.cfi_def_cfa_offset 24
 593              		.cfi_offset 4, -24
 594              		.cfi_offset 5, -20
 595              		.cfi_offset 6, -16
 596              		.cfi_offset 7, -12
 597              		.cfi_offset 8, -8
 598              		.cfi_offset 14, -4
 195:Drivers/lvgl/src/misc/lv_lru.c **** 
 599              		.loc 1 195 5 view .LVU203
 600 00dc 0220     		movs	r0, #2
 601              	.LVL63:
 195:Drivers/lvgl/src/misc/lv_lru.c **** 
 602              		.loc 1 195 5 view .LVU204
 603 00de E5E7     		b	.L63
 604              	.LVL64:
 605              	.L53:
 606              	.LBB35:
 607              	.LBB26:
 276:Drivers/lvgl/src/misc/lv_lru.c ****         uint32_t k = *(uint32_t *) data;
 608              		.loc 1 276 22 view .LVU205
 609 00e0 4346     		mov	r3, r8
 610 00e2 8E46     		mov	lr, r1
 611 00e4 B6E7     		b	.L40
 612              	.L70:
 613 00e6 00BF     		.align	2
 614              	.L69:
 615 00e8 95E9D15B 		.word	1540483477
 616              	.LBE26:
ARM GAS  /var/folders/0z/tsy30v1j4xl4_7kw94k978ww0000gn/T//ccbD5QfV.s 			page 19


 617              	.LBE35:
 618              		.cfi_endproc
 619              	.LFE5:
 621              		.section	.text.lv_lru_remove,"ax",%progbits
 622              		.align	1
 623              		.p2align 2,,3
 624              		.global	lv_lru_remove
 625              		.syntax unified
 626              		.thumb
 627              		.thumb_func
 629              	lv_lru_remove:
 630              	.LVL65:
 631              	.LFB6:
 216:Drivers/lvgl/src/misc/lv_lru.c ****     test_for_missing_cache();
 632              		.loc 1 216 1 is_stmt 1 view -0
 633              		.cfi_startproc
 634              		@ args = 0, pretend = 0, frame = 0
 635              		@ frame_needed = 0, uses_anonymous_args = 0
 217:Drivers/lvgl/src/misc/lv_lru.c ****     test_for_missing_key();
 636              		.loc 1 217 5 view .LVU207
 637 0000 0028     		cmp	r0, #0
 638 0002 75D0     		beq	.L86
 217:Drivers/lvgl/src/misc/lv_lru.c ****     test_for_missing_key();
 639              		.loc 1 217 29 discriminator 2 view .LVU208
 218:Drivers/lvgl/src/misc/lv_lru.c **** 
 640              		.loc 1 218 5 discriminator 2 view .LVU209
 216:Drivers/lvgl/src/misc/lv_lru.c ****     test_for_missing_cache();
 641              		.loc 1 216 1 is_stmt 0 discriminator 2 view .LVU210
 642 0004 2DE9F047 		push	{r4, r5, r6, r7, r8, r9, r10, lr}
 643              		.cfi_def_cfa_offset 32
 644              		.cfi_offset 4, -32
 645              		.cfi_offset 5, -28
 646              		.cfi_offset 6, -24
 647              		.cfi_offset 7, -20
 648              		.cfi_offset 8, -16
 649              		.cfi_offset 9, -12
 650              		.cfi_offset 10, -8
 651              		.cfi_offset 14, -4
 652 0008 0E46     		mov	r6, r1
 218:Drivers/lvgl/src/misc/lv_lru.c **** 
 653              		.loc 1 218 5 discriminator 2 view .LVU211
 654 000a 0029     		cmp	r1, #0
 655 000c 76D0     		beq	.L87
 656 000e D0E90714 		ldrd	r1, r4, [r0, #28]
 657              	.LVL66:
 658              	.LBB45:
 659              	.LBB46:
 276:Drivers/lvgl/src/misc/lv_lru.c ****         uint32_t k = *(uint32_t *) data;
 660              		.loc 1 276 22 discriminator 2 view .LVU212
 661 0012 032A     		cmp	r2, #3
 662 0014 1746     		mov	r7, r2
 663 0016 0546     		mov	r5, r0
 664              	.LBE46:
 665              	.LBE45:
 218:Drivers/lvgl/src/misc/lv_lru.c **** 
 666              		.loc 1 218 27 is_stmt 1 discriminator 2 view .LVU213
 221:Drivers/lvgl/src/misc/lv_lru.c ****     uint32_t hash_index = lv_lru_hash(cache, key, key_size);
ARM GAS  /var/folders/0z/tsy30v1j4xl4_7kw94k978ww0000gn/T//ccbD5QfV.s 			page 20


 667              		.loc 1 221 5 discriminator 2 view .LVU214
 668              	.LVL67:
 222:Drivers/lvgl/src/misc/lv_lru.c ****     item = cache->items[hash_index];
 669              		.loc 1 222 5 discriminator 2 view .LVU215
 670              	.LBB56:
 671              	.LBI45:
 269:Drivers/lvgl/src/misc/lv_lru.c **** {
 672              		.loc 1 269 17 discriminator 2 view .LVU216
 673              	.LBB51:
 271:Drivers/lvgl/src/misc/lv_lru.c ****     uint32_t r = 24;
 674              		.loc 1 271 5 discriminator 2 view .LVU217
 272:Drivers/lvgl/src/misc/lv_lru.c ****     uint32_t h = cache->seed ^ key_length;
 675              		.loc 1 272 5 discriminator 2 view .LVU218
 273:Drivers/lvgl/src/misc/lv_lru.c ****     char * data = (char *) key;
 676              		.loc 1 273 5 discriminator 2 view .LVU219
 273:Drivers/lvgl/src/misc/lv_lru.c ****     char * data = (char *) key;
 677              		.loc 1 273 14 is_stmt 0 discriminator 2 view .LVU220
 678 0018 84EA0204 		eor	r4, r4, r2
 679              	.LVL68:
 274:Drivers/lvgl/src/misc/lv_lru.c **** 
 680              		.loc 1 274 5 is_stmt 1 discriminator 2 view .LVU221
 276:Drivers/lvgl/src/misc/lv_lru.c ****         uint32_t k = *(uint32_t *) data;
 681              		.loc 1 276 5 discriminator 2 view .LVU222
 276:Drivers/lvgl/src/misc/lv_lru.c ****         uint32_t k = *(uint32_t *) data;
 682              		.loc 1 276 22 discriminator 2 view .LVU223
 683 001c 70D9     		bls	.L88
 684 001e 131F     		subs	r3, r2, #4
 685 0020 23F00303 		bic	r3, r3, #3
 686 0024 0433     		adds	r3, r3, #4
 687              	.LBB47:
 278:Drivers/lvgl/src/misc/lv_lru.c ****         k ^= k >> r;
 688              		.loc 1 278 11 is_stmt 0 view .LVU224
 689 0026 3748     		ldr	r0, .L104
 690              	.LVL69:
 278:Drivers/lvgl/src/misc/lv_lru.c ****         k ^= k >> r;
 691              		.loc 1 278 11 view .LVU225
 692 0028 06EB030C 		add	ip, r6, r3
 693              	.LBE47:
 276:Drivers/lvgl/src/misc/lv_lru.c ****         uint32_t k = *(uint32_t *) data;
 694              		.loc 1 276 22 view .LVU226
 695 002c 3246     		mov	r2, r6
 696              	.LVL70:
 697              	.L74:
 698              	.LBB48:
 277:Drivers/lvgl/src/misc/lv_lru.c ****         k *= m;
 699              		.loc 1 277 9 is_stmt 1 view .LVU227
 277:Drivers/lvgl/src/misc/lv_lru.c ****         k *= m;
 700              		.loc 1 277 18 is_stmt 0 view .LVU228
 701 002e 52F8043B 		ldr	r3, [r2], #4
 702              	.LVL71:
 278:Drivers/lvgl/src/misc/lv_lru.c ****         k ^= k >> r;
 703              		.loc 1 278 9 is_stmt 1 view .LVU229
 278:Drivers/lvgl/src/misc/lv_lru.c ****         k ^= k >> r;
 704              		.loc 1 278 11 is_stmt 0 view .LVU230
 705 0032 00FB03F3 		mul	r3, r0, r3
 706              	.LVL72:
 279:Drivers/lvgl/src/misc/lv_lru.c ****         k *= m;
ARM GAS  /var/folders/0z/tsy30v1j4xl4_7kw94k978ww0000gn/T//ccbD5QfV.s 			page 21


 707              		.loc 1 279 9 is_stmt 1 view .LVU231
 279:Drivers/lvgl/src/misc/lv_lru.c ****         k *= m;
 708              		.loc 1 279 11 is_stmt 0 view .LVU232
 709 0036 83EA1363 		eor	r3, r3, r3, lsr #24
 710              	.LVL73:
 280:Drivers/lvgl/src/misc/lv_lru.c ****         h *= m;
 711              		.loc 1 280 9 is_stmt 1 view .LVU233
 281:Drivers/lvgl/src/misc/lv_lru.c ****         h ^= k;
 712              		.loc 1 281 9 view .LVU234
 281:Drivers/lvgl/src/misc/lv_lru.c ****         h ^= k;
 713              		.loc 1 281 11 is_stmt 0 view .LVU235
 714 003a 00FB04F4 		mul	r4, r0, r4
 715              	.LVL74:
 282:Drivers/lvgl/src/misc/lv_lru.c ****         data += 4;
 716              		.loc 1 282 9 is_stmt 1 view .LVU236
 280:Drivers/lvgl/src/misc/lv_lru.c ****         h *= m;
 717              		.loc 1 280 11 is_stmt 0 view .LVU237
 718 003e 00FB03F3 		mul	r3, r0, r3
 719              	.LVL75:
 280:Drivers/lvgl/src/misc/lv_lru.c ****         h *= m;
 720              		.loc 1 280 11 view .LVU238
 721              	.LBE48:
 276:Drivers/lvgl/src/misc/lv_lru.c ****         uint32_t k = *(uint32_t *) data;
 722              		.loc 1 276 22 view .LVU239
 723 0042 6245     		cmp	r2, ip
 724              	.LBB49:
 282:Drivers/lvgl/src/misc/lv_lru.c ****         data += 4;
 725              		.loc 1 282 11 view .LVU240
 726 0044 84EA0304 		eor	r4, r4, r3
 727              	.LVL76:
 283:Drivers/lvgl/src/misc/lv_lru.c ****         key_length -= 4;
 728              		.loc 1 283 9 is_stmt 1 view .LVU241
 284:Drivers/lvgl/src/misc/lv_lru.c ****     }
 729              		.loc 1 284 9 view .LVU242
 284:Drivers/lvgl/src/misc/lv_lru.c ****     }
 730              		.loc 1 284 9 is_stmt 0 view .LVU243
 731              	.LBE49:
 276:Drivers/lvgl/src/misc/lv_lru.c ****         uint32_t k = *(uint32_t *) data;
 732              		.loc 1 276 22 is_stmt 1 view .LVU244
 733 0048 F1D1     		bne	.L74
 734              	.LBB50:
 284:Drivers/lvgl/src/misc/lv_lru.c ****     }
 735              		.loc 1 284 20 is_stmt 0 view .LVU245
 736 004a 07F00302 		and	r2, r7, #3
 737              	.LVL77:
 738              	.L73:
 284:Drivers/lvgl/src/misc/lv_lru.c ****     }
 739              		.loc 1 284 20 view .LVU246
 740              	.LBE50:
 287:Drivers/lvgl/src/misc/lv_lru.c ****         h ^= data[2] << 16;
 741              		.loc 1 287 5 is_stmt 1 view .LVU247
 287:Drivers/lvgl/src/misc/lv_lru.c ****         h ^= data[2] << 16;
 742              		.loc 1 287 7 is_stmt 0 view .LVU248
 743 004e 032A     		cmp	r2, #3
 744 0050 3FD0     		beq	.L102
 290:Drivers/lvgl/src/misc/lv_lru.c ****         h ^= data[1] << 8;
 745              		.loc 1 290 5 is_stmt 1 view .LVU249
ARM GAS  /var/folders/0z/tsy30v1j4xl4_7kw94k978ww0000gn/T//ccbD5QfV.s 			page 22


 290:Drivers/lvgl/src/misc/lv_lru.c ****         h ^= data[1] << 8;
 746              		.loc 1 290 7 is_stmt 0 view .LVU250
 747 0052 022A     		cmp	r2, #2
 748 0054 41D0     		beq	.L76
 293:Drivers/lvgl/src/misc/lv_lru.c ****         h ^= data[0];
 749              		.loc 1 293 5 is_stmt 1 view .LVU251
 293:Drivers/lvgl/src/misc/lv_lru.c ****         h ^= data[0];
 750              		.loc 1 293 7 is_stmt 0 view .LVU252
 751 0056 002A     		cmp	r2, #0
 752 0058 43D1     		bne	.L78
 753              	.L79:
 298:Drivers/lvgl/src/misc/lv_lru.c ****     h *= m;
 754              		.loc 1 298 5 is_stmt 1 view .LVU253
 299:Drivers/lvgl/src/misc/lv_lru.c ****     h ^= h >> 15;
 755              		.loc 1 299 7 is_stmt 0 view .LVU254
 756 005a 2A4B     		ldr	r3, .L104
 757              	.LBE51:
 758              	.LBE56:
 223:Drivers/lvgl/src/misc/lv_lru.c **** 
 759              		.loc 1 223 24 view .LVU255
 760 005c D5F80080 		ldr	r8, [r5]
 761              	.LBB57:
 762              	.LBB52:
 298:Drivers/lvgl/src/misc/lv_lru.c ****     h *= m;
 763              		.loc 1 298 7 view .LVU256
 764 0060 84EA5434 		eor	r4, r4, r4, lsr #13
 765              	.LVL78:
 299:Drivers/lvgl/src/misc/lv_lru.c ****     h ^= h >> 15;
 766              		.loc 1 299 5 is_stmt 1 view .LVU257
 299:Drivers/lvgl/src/misc/lv_lru.c ****     h ^= h >> 15;
 767              		.loc 1 299 7 is_stmt 0 view .LVU258
 768 0064 03FB04F4 		mul	r4, r3, r4
 769              	.LVL79:
 300:Drivers/lvgl/src/misc/lv_lru.c ****     return h % cache->hash_table_size;
 770              		.loc 1 300 5 is_stmt 1 view .LVU259
 301:Drivers/lvgl/src/misc/lv_lru.c **** }
 771              		.loc 1 301 5 view .LVU260
 301:Drivers/lvgl/src/misc/lv_lru.c **** }
 772              		.loc 1 301 5 is_stmt 0 view .LVU261
 773              	.LBE52:
 774              	.LBE57:
 223:Drivers/lvgl/src/misc/lv_lru.c **** 
 775              		.loc 1 223 5 is_stmt 1 view .LVU262
 776              	.LBB58:
 777              	.LBB53:
 300:Drivers/lvgl/src/misc/lv_lru.c ****     return h % cache->hash_table_size;
 778              		.loc 1 300 7 is_stmt 0 view .LVU263
 779 0068 84EAD434 		eor	r4, r4, r4, lsr #15
 780              	.LVL80:
 301:Drivers/lvgl/src/misc/lv_lru.c **** }
 781              		.loc 1 301 14 view .LVU264
 782 006c B4FBF1F3 		udiv	r3, r4, r1
 301:Drivers/lvgl/src/misc/lv_lru.c **** }
 783              		.loc 1 301 14 view .LVU265
 784 0070 01FB1349 		mls	r9, r1, r3, r4
 785              	.LBE53:
 786              	.LBE58:
ARM GAS  /var/folders/0z/tsy30v1j4xl4_7kw94k978ww0000gn/T//ccbD5QfV.s 			page 23


 223:Drivers/lvgl/src/misc/lv_lru.c **** 
 787              		.loc 1 223 10 view .LVU266
 788 0074 58F82940 		ldr	r4, [r8, r9, lsl #2]
 789              	.LVL81:
 225:Drivers/lvgl/src/misc/lv_lru.c ****         prev = item;
 790              		.loc 1 225 5 is_stmt 1 view .LVU267
 225:Drivers/lvgl/src/misc/lv_lru.c ****         prev = item;
 791              		.loc 1 225 16 view .LVU268
 234:Drivers/lvgl/src/misc/lv_lru.c **** }
 792              		.loc 1 234 12 is_stmt 0 view .LVU269
 793 0078 2046     		mov	r0, r4
 225:Drivers/lvgl/src/misc/lv_lru.c ****         prev = item;
 794              		.loc 1 225 16 view .LVU270
 795 007a 44B3     		cbz	r4, .L95
 221:Drivers/lvgl/src/misc/lv_lru.c ****     uint32_t hash_index = lv_lru_hash(cache, key, key_size);
 796              		.loc 1 221 35 view .LVU271
 797 007c 4FF0000A 		mov	r10, #0
 798 0080 03E0     		b	.L80
 799              	.LVL82:
 800              	.L81:
 226:Drivers/lvgl/src/misc/lv_lru.c ****         item = (lv_lru_item_t *) item->next;
 801              		.loc 1 226 9 is_stmt 1 view .LVU272
 227:Drivers/lvgl/src/misc/lv_lru.c ****     }
 802              		.loc 1 227 9 view .LVU273
 227:Drivers/lvgl/src/misc/lv_lru.c ****     }
 803              		.loc 1 227 14 is_stmt 0 view .LVU274
 804 0082 A069     		ldr	r0, [r4, #24]
 805              	.LVL83:
 225:Drivers/lvgl/src/misc/lv_lru.c ****         prev = item;
 806              		.loc 1 225 16 is_stmt 1 view .LVU275
 807 0084 A246     		mov	r10, r4
 808 0086 10B3     		cbz	r0, .L95
 225:Drivers/lvgl/src/misc/lv_lru.c ****         prev = item;
 809              		.loc 1 225 16 is_stmt 0 view .LVU276
 810 0088 0446     		mov	r4, r0
 811              	.LVL84:
 812              	.L80:
 813              	.LBB59:
 814              	.LBI59:
 304:Drivers/lvgl/src/misc/lv_lru.c **** {
 815              		.loc 1 304 12 is_stmt 1 view .LVU277
 816              	.LBB60:
 306:Drivers/lvgl/src/misc/lv_lru.c ****         return 1;
 817              		.loc 1 306 5 view .LVU278
 306:Drivers/lvgl/src/misc/lv_lru.c ****         return 1;
 818              		.loc 1 306 7 is_stmt 0 view .LVU279
 819 008a E368     		ldr	r3, [r4, #12]
 820 008c 9F42     		cmp	r7, r3
 821 008e F8D1     		bne	.L81
 822              	.LVL85:
 823              	.LBB61:
 824              	.LBI61:
 304:Drivers/lvgl/src/misc/lv_lru.c **** {
 825              		.loc 1 304 12 is_stmt 1 view .LVU280
 826              	.LBB62:
 827              		.loc 1 310 9 view .LVU281
 828              		.loc 1 310 16 is_stmt 0 view .LVU282
ARM GAS  /var/folders/0z/tsy30v1j4xl4_7kw94k978ww0000gn/T//ccbD5QfV.s 			page 24


 829 0090 6168     		ldr	r1, [r4, #4]
 830 0092 3A46     		mov	r2, r7
 831 0094 3046     		mov	r0, r6
 832              	.LVL86:
 833              		.loc 1 310 16 view .LVU283
 834 0096 FFF7FEFF 		bl	memcmp
 835              	.LVL87:
 836              		.loc 1 310 16 view .LVU284
 837              	.LBE62:
 838              	.LBE61:
 839              	.LBE60:
 840              	.LBE59:
 225:Drivers/lvgl/src/misc/lv_lru.c ****         prev = item;
 841              		.loc 1 225 16 view .LVU285
 842 009a 0028     		cmp	r0, #0
 843 009c F1D1     		bne	.L81
 230:Drivers/lvgl/src/misc/lv_lru.c ****         lv_lru_remove_item(cache, prev, item, hash_index);
 844              		.loc 1 230 5 is_stmt 1 view .LVU286
 231:Drivers/lvgl/src/misc/lv_lru.c ****     }
 845              		.loc 1 231 9 view .LVU287
 846              	.LVL88:
 847              	.LBB63:
 848              	.LBI63:
 311:Drivers/lvgl/src/misc/lv_lru.c ****     }
 312:Drivers/lvgl/src/misc/lv_lru.c **** }
 313:Drivers/lvgl/src/misc/lv_lru.c **** 
 314:Drivers/lvgl/src/misc/lv_lru.c **** static void lv_lru_remove_item(lv_lru_t * cache, lv_lru_item_t * prev, lv_lru_item_t * item, uint32
 849              		.loc 1 314 13 view .LVU288
 850              	.LBB64:
 315:Drivers/lvgl/src/misc/lv_lru.c **** {
 316:Drivers/lvgl/src/misc/lv_lru.c ****     if(prev) {
 851              		.loc 1 316 5 view .LVU289
 852              		.loc 1 316 7 is_stmt 0 view .LVU290
 853 009e BAF1000F 		cmp	r10, #0
 854 00a2 27D0     		beq	.L103
 317:Drivers/lvgl/src/misc/lv_lru.c ****         prev->next = item->next;
 855              		.loc 1 317 9 is_stmt 1 view .LVU291
 856              		.loc 1 317 26 is_stmt 0 view .LVU292
 857 00a4 A369     		ldr	r3, [r4, #24]
 858              		.loc 1 317 20 view .LVU293
 859 00a6 CAF81830 		str	r3, [r10, #24]
 860              	.L83:
 318:Drivers/lvgl/src/misc/lv_lru.c ****     }
 319:Drivers/lvgl/src/misc/lv_lru.c ****     else {
 320:Drivers/lvgl/src/misc/lv_lru.c ****         cache->items[hash_index] = (lv_lru_item_t *) item->next;
 321:Drivers/lvgl/src/misc/lv_lru.c ****     }
 322:Drivers/lvgl/src/misc/lv_lru.c **** 
 323:Drivers/lvgl/src/misc/lv_lru.c ****     // free memory and update the free memory counter
 324:Drivers/lvgl/src/misc/lv_lru.c ****     cache->free_memory += item->value_length;
 861              		.loc 1 324 5 is_stmt 1 view .LVU294
 862              		.loc 1 324 24 is_stmt 0 view .LVU295
 863 00aa A268     		ldr	r2, [r4, #8]
 864 00ac 2B69     		ldr	r3, [r5, #16]
 325:Drivers/lvgl/src/misc/lv_lru.c ****     cache->value_free(item->value);
 865              		.loc 1 325 5 view .LVU296
 866 00ae 2068     		ldr	r0, [r4]
 324:Drivers/lvgl/src/misc/lv_lru.c ****     cache->value_free(item->value);
ARM GAS  /var/folders/0z/tsy30v1j4xl4_7kw94k978ww0000gn/T//ccbD5QfV.s 			page 25


 867              		.loc 1 324 24 view .LVU297
 868 00b0 1344     		add	r3, r3, r2
 869 00b2 2B61     		str	r3, [r5, #16]
 870              		.loc 1 325 5 is_stmt 1 view .LVU298
 871 00b4 6A6A     		ldr	r2, [r5, #36]
 872 00b6 9047     		blx	r2
 873              	.LVL89:
 326:Drivers/lvgl/src/misc/lv_lru.c ****     cache->key_free(item->key);
 874              		.loc 1 326 5 view .LVU299
 875 00b8 AB6A     		ldr	r3, [r5, #40]
 876 00ba 6068     		ldr	r0, [r4, #4]
 877 00bc 9847     		blx	r3
 878              	.LVL90:
 327:Drivers/lvgl/src/misc/lv_lru.c **** 
 328:Drivers/lvgl/src/misc/lv_lru.c ****     // push the item to the free items queue
 329:Drivers/lvgl/src/misc/lv_lru.c ****     lv_memset_00(item, sizeof(lv_lru_item_t));
 879              		.loc 1 329 5 view .LVU300
 880 00be 2046     		mov	r0, r4
 881 00c0 2021     		movs	r1, #32
 882 00c2 FFF7FEFF 		bl	lv_memset_00
 883              	.LVL91:
 330:Drivers/lvgl/src/misc/lv_lru.c ****     item->next = cache->free_items;
 884              		.loc 1 330 5 view .LVU301
 885              		.loc 1 330 16 is_stmt 0 view .LVU302
 886 00c6 EB6A     		ldr	r3, [r5, #44]
 887 00c8 A361     		str	r3, [r4, #24]
 331:Drivers/lvgl/src/misc/lv_lru.c ****     cache->free_items = item;
 888              		.loc 1 331 5 is_stmt 1 view .LVU303
 889              	.LBE64:
 890              	.LBE63:
 234:Drivers/lvgl/src/misc/lv_lru.c **** }
 891              		.loc 1 234 12 is_stmt 0 view .LVU304
 892 00ca 0020     		movs	r0, #0
 893              	.LBB67:
 894              	.LBB65:
 895              		.loc 1 331 23 view .LVU305
 896 00cc EC62     		str	r4, [r5, #44]
 897              	.LVL92:
 898              	.L95:
 899              		.loc 1 331 23 view .LVU306
 900              	.LBE65:
 901              	.LBE67:
 235:Drivers/lvgl/src/misc/lv_lru.c **** 
 902              		.loc 1 235 1 view .LVU307
 903 00ce BDE8F087 		pop	{r4, r5, r6, r7, r8, r9, r10, pc}
 904              	.LVL93:
 905              	.L102:
 906              	.LBB68:
 907              	.LBB54:
 288:Drivers/lvgl/src/misc/lv_lru.c ****     }
 908              		.loc 1 288 9 is_stmt 1 view .LVU308
 288:Drivers/lvgl/src/misc/lv_lru.c ****     }
 909              		.loc 1 288 18 is_stmt 0 view .LVU309
 910 00d2 9CF80230 		ldrb	r3, [ip, #2]	@ zero_extendqisi2
 288:Drivers/lvgl/src/misc/lv_lru.c ****     }
 911              		.loc 1 288 11 view .LVU310
 912 00d6 84EA0344 		eor	r4, r4, r3, lsl #16
ARM GAS  /var/folders/0z/tsy30v1j4xl4_7kw94k978ww0000gn/T//ccbD5QfV.s 			page 26


 913              	.LVL94:
 290:Drivers/lvgl/src/misc/lv_lru.c ****         h ^= data[1] << 8;
 914              		.loc 1 290 5 is_stmt 1 view .LVU311
 915              	.L76:
 291:Drivers/lvgl/src/misc/lv_lru.c ****     }
 916              		.loc 1 291 9 view .LVU312
 291:Drivers/lvgl/src/misc/lv_lru.c ****     }
 917              		.loc 1 291 18 is_stmt 0 view .LVU313
 918 00da 9CF80130 		ldrb	r3, [ip, #1]	@ zero_extendqisi2
 291:Drivers/lvgl/src/misc/lv_lru.c ****     }
 919              		.loc 1 291 11 view .LVU314
 920 00de 84EA0324 		eor	r4, r4, r3, lsl #8
 921              	.LVL95:
 293:Drivers/lvgl/src/misc/lv_lru.c ****         h ^= data[0];
 922              		.loc 1 293 5 is_stmt 1 view .LVU315
 923              	.L78:
 294:Drivers/lvgl/src/misc/lv_lru.c ****         h *= m;
 924              		.loc 1 294 9 view .LVU316
 294:Drivers/lvgl/src/misc/lv_lru.c ****         h *= m;
 925              		.loc 1 294 18 is_stmt 0 view .LVU317
 926 00e2 9CF80030 		ldrb	r3, [ip]	@ zero_extendqisi2
 294:Drivers/lvgl/src/misc/lv_lru.c ****         h *= m;
 927              		.loc 1 294 11 view .LVU318
 928 00e6 6340     		eors	r3, r3, r4
 929              	.LVL96:
 295:Drivers/lvgl/src/misc/lv_lru.c ****     }
 930              		.loc 1 295 9 is_stmt 1 view .LVU319
 295:Drivers/lvgl/src/misc/lv_lru.c ****     }
 931              		.loc 1 295 11 is_stmt 0 view .LVU320
 932 00e8 064C     		ldr	r4, .L104
 933 00ea 03FB04F4 		mul	r4, r3, r4
 934              	.LVL97:
 295:Drivers/lvgl/src/misc/lv_lru.c ****     }
 935              		.loc 1 295 11 view .LVU321
 936 00ee B4E7     		b	.L79
 937              	.LVL98:
 938              	.L86:
 939              		.cfi_def_cfa_offset 0
 940              		.cfi_restore 4
 941              		.cfi_restore 5
 942              		.cfi_restore 6
 943              		.cfi_restore 7
 944              		.cfi_restore 8
 945              		.cfi_restore 9
 946              		.cfi_restore 10
 947              		.cfi_restore 14
 295:Drivers/lvgl/src/misc/lv_lru.c ****     }
 948              		.loc 1 295 11 view .LVU322
 949              	.LBE54:
 950              	.LBE68:
 217:Drivers/lvgl/src/misc/lv_lru.c ****     test_for_missing_key();
 951              		.loc 1 217 5 view .LVU323
 952 00f0 0120     		movs	r0, #1
 953              	.LVL99:
 235:Drivers/lvgl/src/misc/lv_lru.c **** 
 954              		.loc 1 235 1 view .LVU324
 955 00f2 7047     		bx	lr
ARM GAS  /var/folders/0z/tsy30v1j4xl4_7kw94k978ww0000gn/T//ccbD5QfV.s 			page 27


 956              	.LVL100:
 957              	.L103:
 958              		.cfi_def_cfa_offset 32
 959              		.cfi_offset 4, -32
 960              		.cfi_offset 5, -28
 961              		.cfi_offset 6, -24
 962              		.cfi_offset 7, -20
 963              		.cfi_offset 8, -16
 964              		.cfi_offset 9, -12
 965              		.cfi_offset 10, -8
 966              		.cfi_offset 14, -4
 967              	.LBB69:
 968              	.LBB66:
 320:Drivers/lvgl/src/misc/lv_lru.c ****     }
 969              		.loc 1 320 9 is_stmt 1 view .LVU325
 320:Drivers/lvgl/src/misc/lv_lru.c ****     }
 970              		.loc 1 320 58 is_stmt 0 view .LVU326
 971 00f4 A369     		ldr	r3, [r4, #24]
 320:Drivers/lvgl/src/misc/lv_lru.c ****     }
 972              		.loc 1 320 34 view .LVU327
 973 00f6 48F82930 		str	r3, [r8, r9, lsl #2]
 974 00fa D6E7     		b	.L83
 975              	.LVL101:
 976              	.L87:
 320:Drivers/lvgl/src/misc/lv_lru.c ****     }
 977              		.loc 1 320 34 view .LVU328
 978              	.LBE66:
 979              	.LBE69:
 218:Drivers/lvgl/src/misc/lv_lru.c **** 
 980              		.loc 1 218 5 view .LVU329
 981 00fc 0220     		movs	r0, #2
 982              	.LVL102:
 218:Drivers/lvgl/src/misc/lv_lru.c **** 
 983              		.loc 1 218 5 view .LVU330
 984 00fe E6E7     		b	.L95
 985              	.LVL103:
 986              	.L88:
 987              	.LBB70:
 988              	.LBB55:
 276:Drivers/lvgl/src/misc/lv_lru.c ****         uint32_t k = *(uint32_t *) data;
 989              		.loc 1 276 22 view .LVU331
 990 0100 B446     		mov	ip, r6
 991 0102 A4E7     		b	.L73
 992              	.L105:
 993              		.align	2
 994              	.L104:
 995 0104 95E9D15B 		.word	1540483477
 996              	.LBE55:
 997              	.LBE70:
 998              		.cfi_endproc
 999              	.LFE6:
 1001              		.section	.text.lv_lru_remove_lru_item,"ax",%progbits
 1002              		.align	1
 1003              		.p2align 2,,3
 1004              		.global	lv_lru_remove_lru_item
 1005              		.syntax unified
 1006              		.thumb
ARM GAS  /var/folders/0z/tsy30v1j4xl4_7kw94k978ww0000gn/T//ccbD5QfV.s 			page 28


 1007              		.thumb_func
 1009              	lv_lru_remove_lru_item:
 1010              	.LVL104:
 1011              	.LFB7:
 238:Drivers/lvgl/src/misc/lv_lru.c ****     lv_lru_item_t * min_item = NULL, *min_prev = NULL;
 1012              		.loc 1 238 1 is_stmt 1 view -0
 1013              		.cfi_startproc
 1014              		@ args = 0, pretend = 0, frame = 8
 1015              		@ frame_needed = 0, uses_anonymous_args = 0
 239:Drivers/lvgl/src/misc/lv_lru.c ****     lv_lru_item_t * item = NULL, *prev = NULL;
 1016              		.loc 1 239 5 view .LVU333
 240:Drivers/lvgl/src/misc/lv_lru.c ****     uint32_t i = 0, min_index = -1;
 1017              		.loc 1 240 5 view .LVU334
 241:Drivers/lvgl/src/misc/lv_lru.c ****     uint64_t min_access_count = -1;
 1018              		.loc 1 241 5 view .LVU335
 242:Drivers/lvgl/src/misc/lv_lru.c **** 
 1019              		.loc 1 242 5 view .LVU336
 244:Drivers/lvgl/src/misc/lv_lru.c ****         item = cache->items[i];
 1020              		.loc 1 244 5 view .LVU337
 244:Drivers/lvgl/src/misc/lv_lru.c ****         item = cache->items[i];
 1021              		.loc 1 244 13 view .LVU338
 244:Drivers/lvgl/src/misc/lv_lru.c ****         item = cache->items[i];
 1022              		.loc 1 244 20 is_stmt 0 view .LVU339
 1023 0000 C369     		ldr	r3, [r0, #28]
 244:Drivers/lvgl/src/misc/lv_lru.c ****         item = cache->items[i];
 1024              		.loc 1 244 13 view .LVU340
 1025 0002 002B     		cmp	r3, #0
 1026 0004 5BD0     		beq	.L127
 238:Drivers/lvgl/src/misc/lv_lru.c ****     lv_lru_item_t * min_item = NULL, *min_prev = NULL;
 1027              		.loc 1 238 1 view .LVU341
 1028 0006 2DE9F04F 		push	{r4, r5, r6, r7, r8, r9, r10, fp, lr}
 1029              		.cfi_def_cfa_offset 36
 1030              		.cfi_offset 4, -36
 1031              		.cfi_offset 5, -32
 1032              		.cfi_offset 6, -28
 1033              		.cfi_offset 7, -24
 1034              		.cfi_offset 8, -20
 1035              		.cfi_offset 9, -16
 1036              		.cfi_offset 10, -12
 1037              		.cfi_offset 11, -8
 1038              		.cfi_offset 14, -4
 245:Drivers/lvgl/src/misc/lv_lru.c ****         prev = NULL;
 1039              		.loc 1 245 21 view .LVU342
 1040 000a 0268     		ldr	r2, [r0]
 238:Drivers/lvgl/src/misc/lv_lru.c ****     lv_lru_item_t * min_item = NULL, *min_prev = NULL;
 1041              		.loc 1 238 1 view .LVU343
 1042 000c 83B0     		sub	sp, sp, #12
 1043              		.cfi_def_cfa_offset 48
 242:Drivers/lvgl/src/misc/lv_lru.c **** 
 1044              		.loc 1 242 14 view .LVU344
 1045 000e 4FF0FF3C 		mov	ip, #-1
 241:Drivers/lvgl/src/misc/lv_lru.c ****     uint64_t min_access_count = -1;
 1046              		.loc 1 241 14 view .LVU345
 1047 0012 0026     		movs	r6, #0
 1048 0014 02EB8303 		add	r3, r2, r3, lsl #2
 1049 0018 8046     		mov	r8, r0
 245:Drivers/lvgl/src/misc/lv_lru.c ****         prev = NULL;
ARM GAS  /var/folders/0z/tsy30v1j4xl4_7kw94k978ww0000gn/T//ccbD5QfV.s 			page 29


 1050              		.loc 1 245 21 view .LVU346
 1051 001a 0192     		str	r2, [sp, #4]
 1052 001c A2F1040A 		sub	r10, r2, #4
 1053 0020 A3F1040B 		sub	fp, r3, #4
 242:Drivers/lvgl/src/misc/lv_lru.c **** 
 1054              		.loc 1 242 14 view .LVU347
 1055 0024 E646     		mov	lr, ip
 241:Drivers/lvgl/src/misc/lv_lru.c ****     uint64_t min_access_count = -1;
 1056              		.loc 1 241 21 view .LVU348
 1057 0026 E146     		mov	r9, ip
 239:Drivers/lvgl/src/misc/lv_lru.c ****     lv_lru_item_t * item = NULL, *prev = NULL;
 1058              		.loc 1 239 39 view .LVU349
 1059 0028 3046     		mov	r0, r6
 1060              	.LVL105:
 239:Drivers/lvgl/src/misc/lv_lru.c ****     lv_lru_item_t * item = NULL, *prev = NULL;
 1061              		.loc 1 239 21 view .LVU350
 1062 002a 3746     		mov	r7, r6
 1063              	.LVL106:
 1064              	.L111:
 245:Drivers/lvgl/src/misc/lv_lru.c ****         prev = NULL;
 1065              		.loc 1 245 9 is_stmt 1 view .LVU351
 245:Drivers/lvgl/src/misc/lv_lru.c ****         prev = NULL;
 1066              		.loc 1 245 14 is_stmt 0 view .LVU352
 1067 002c 5AF8043F 		ldr	r3, [r10, #4]!
 1068              	.LVL107:
 246:Drivers/lvgl/src/misc/lv_lru.c **** 
 1069              		.loc 1 246 9 is_stmt 1 view .LVU353
 248:Drivers/lvgl/src/misc/lv_lru.c ****             if(item->access_count < min_access_count || (int64_t) min_access_count == -1) {
 1070              		.loc 1 248 9 view .LVU354
 248:Drivers/lvgl/src/misc/lv_lru.c ****             if(item->access_count < min_access_count || (int64_t) min_access_count == -1) {
 1071              		.loc 1 248 15 view .LVU355
 1072 0030 FBB1     		cbz	r3, .L108
 246:Drivers/lvgl/src/misc/lv_lru.c **** 
 1073              		.loc 1 246 14 is_stmt 0 view .LVU356
 1074 0032 0024     		movs	r4, #0
 1075 0034 0EE0     		b	.L110
 1076              	.LVL108:
 1077              	.L130:
 249:Drivers/lvgl/src/misc/lv_lru.c ****                 min_access_count = item->access_count;
 1078              		.loc 1 249 54 view .LVU357
 1079 0036 BEF1FF3F 		cmp	lr, #-1
 1080 003a 08BF     		it	eq
 1081 003c BCF1FF3F 		cmpeq	ip, #-1
 1082 0040 04D1     		bne	.L109
 249:Drivers/lvgl/src/misc/lv_lru.c ****                 min_access_count = item->access_count;
 1083              		.loc 1 249 54 view .LVU358
 1084 0042 8C46     		mov	ip, r1
 1085              	.LVL109:
 249:Drivers/lvgl/src/misc/lv_lru.c ****                 min_access_count = item->access_count;
 1086              		.loc 1 249 54 view .LVU359
 1087 0044 9646     		mov	lr, r2
 1088 0046 B146     		mov	r9, r6
 1089 0048 2046     		mov	r0, r4
 1090 004a 1F46     		mov	r7, r3
 1091              	.L109:
 1092              	.LVL110:
 255:Drivers/lvgl/src/misc/lv_lru.c ****             item = item->next;
ARM GAS  /var/folders/0z/tsy30v1j4xl4_7kw94k978ww0000gn/T//ccbD5QfV.s 			page 30


 1093              		.loc 1 255 13 is_stmt 1 view .LVU360
 256:Drivers/lvgl/src/misc/lv_lru.c ****         }
 1094              		.loc 1 256 13 view .LVU361
 256:Drivers/lvgl/src/misc/lv_lru.c ****         }
 1095              		.loc 1 256 18 is_stmt 0 view .LVU362
 1096 004c 9A69     		ldr	r2, [r3, #24]
 1097              	.LVL111:
 248:Drivers/lvgl/src/misc/lv_lru.c ****             if(item->access_count < min_access_count || (int64_t) min_access_count == -1) {
 1098              		.loc 1 248 15 is_stmt 1 view .LVU363
 1099 004e 1C46     		mov	r4, r3
 1100 0050 7AB1     		cbz	r2, .L108
 1101              	.LVL112:
 1102              	.L115:
 248:Drivers/lvgl/src/misc/lv_lru.c ****             if(item->access_count < min_access_count || (int64_t) min_access_count == -1) {
 1103              		.loc 1 248 15 is_stmt 0 view .LVU364
 1104 0052 1346     		mov	r3, r2
 1105              	.LVL113:
 1106              	.L110:
 249:Drivers/lvgl/src/misc/lv_lru.c ****                 min_access_count = item->access_count;
 1107              		.loc 1 249 13 is_stmt 1 view .LVU365
 249:Drivers/lvgl/src/misc/lv_lru.c ****                 min_access_count = item->access_count;
 1108              		.loc 1 249 20 is_stmt 0 view .LVU366
 1109 0054 D3E90412 		ldrd	r1, r2, [r3, #16]
 249:Drivers/lvgl/src/misc/lv_lru.c ****                 min_access_count = item->access_count;
 1110              		.loc 1 249 15 view .LVU367
 1111 0058 6145     		cmp	r1, ip
 1112 005a 72EB0E05 		sbcs	r5, r2, lr
 1113 005e EAD2     		bcs	.L130
 249:Drivers/lvgl/src/misc/lv_lru.c ****                 min_access_count = item->access_count;
 1114              		.loc 1 249 15 view .LVU368
 1115 0060 9646     		mov	lr, r2
 1116              	.LVL114:
 256:Drivers/lvgl/src/misc/lv_lru.c ****         }
 1117              		.loc 1 256 18 view .LVU369
 1118 0062 9A69     		ldr	r2, [r3, #24]
 249:Drivers/lvgl/src/misc/lv_lru.c ****                 min_access_count = item->access_count;
 1119              		.loc 1 249 15 view .LVU370
 1120 0064 2046     		mov	r0, r4
 1121 0066 1F46     		mov	r7, r3
 1122 0068 8C46     		mov	ip, r1
 249:Drivers/lvgl/src/misc/lv_lru.c ****                 min_access_count = item->access_count;
 1123              		.loc 1 249 15 view .LVU371
 1124 006a B146     		mov	r9, r6
 1125              	.LVL115:
 255:Drivers/lvgl/src/misc/lv_lru.c ****             item = item->next;
 1126              		.loc 1 255 13 is_stmt 1 view .LVU372
 256:Drivers/lvgl/src/misc/lv_lru.c ****         }
 1127              		.loc 1 256 13 view .LVU373
 248:Drivers/lvgl/src/misc/lv_lru.c ****             if(item->access_count < min_access_count || (int64_t) min_access_count == -1) {
 1128              		.loc 1 248 15 view .LVU374
 1129 006c 1C46     		mov	r4, r3
 1130 006e 002A     		cmp	r2, #0
 1131 0070 EFD1     		bne	.L115
 1132              	.LVL116:
 1133              	.L108:
 244:Drivers/lvgl/src/misc/lv_lru.c ****         item = cache->items[i];
 1134              		.loc 1 244 40 view .LVU375
ARM GAS  /var/folders/0z/tsy30v1j4xl4_7kw94k978ww0000gn/T//ccbD5QfV.s 			page 31


 244:Drivers/lvgl/src/misc/lv_lru.c ****         item = cache->items[i];
 1135              		.loc 1 244 13 is_stmt 0 view .LVU376
 1136 0072 D345     		cmp	fp, r10
 244:Drivers/lvgl/src/misc/lv_lru.c ****         item = cache->items[i];
 1137              		.loc 1 244 40 view .LVU377
 1138 0074 06F10106 		add	r6, r6, #1
 1139              	.LVL117:
 244:Drivers/lvgl/src/misc/lv_lru.c ****         item = cache->items[i];
 1140              		.loc 1 244 13 is_stmt 1 view .LVU378
 1141 0078 D8D1     		bne	.L111
 260:Drivers/lvgl/src/misc/lv_lru.c ****         lv_lru_remove_item(cache, min_prev, min_item, min_index);
 1142              		.loc 1 260 5 view .LVU379
 260:Drivers/lvgl/src/misc/lv_lru.c ****         lv_lru_remove_item(cache, min_prev, min_item, min_index);
 1143              		.loc 1 260 7 is_stmt 0 view .LVU380
 1144 007a CFB1     		cbz	r7, .L106
 261:Drivers/lvgl/src/misc/lv_lru.c ****     }
 1145              		.loc 1 261 9 is_stmt 1 view .LVU381
 1146              	.LVL118:
 1147              	.LBB73:
 1148              	.LBI73:
 314:Drivers/lvgl/src/misc/lv_lru.c **** {
 1149              		.loc 1 314 13 view .LVU382
 1150              	.LBB74:
 316:Drivers/lvgl/src/misc/lv_lru.c ****         prev->next = item->next;
 1151              		.loc 1 316 5 view .LVU383
 317:Drivers/lvgl/src/misc/lv_lru.c ****     }
 1152              		.loc 1 317 26 is_stmt 0 view .LVU384
 1153 007c BB69     		ldr	r3, [r7, #24]
 316:Drivers/lvgl/src/misc/lv_lru.c ****         prev->next = item->next;
 1154              		.loc 1 316 7 view .LVU385
 1155 007e D0B1     		cbz	r0, .L112
 317:Drivers/lvgl/src/misc/lv_lru.c ****     }
 1156              		.loc 1 317 9 is_stmt 1 view .LVU386
 317:Drivers/lvgl/src/misc/lv_lru.c ****     }
 1157              		.loc 1 317 20 is_stmt 0 view .LVU387
 1158 0080 8361     		str	r3, [r0, #24]
 1159              	.L113:
 324:Drivers/lvgl/src/misc/lv_lru.c ****     cache->value_free(item->value);
 1160              		.loc 1 324 5 is_stmt 1 view .LVU388
 324:Drivers/lvgl/src/misc/lv_lru.c ****     cache->value_free(item->value);
 1161              		.loc 1 324 24 is_stmt 0 view .LVU389
 1162 0082 BA68     		ldr	r2, [r7, #8]
 1163 0084 D8F81030 		ldr	r3, [r8, #16]
 325:Drivers/lvgl/src/misc/lv_lru.c ****     cache->key_free(item->key);
 1164              		.loc 1 325 5 view .LVU390
 1165 0088 3868     		ldr	r0, [r7]
 1166              	.LVL119:
 324:Drivers/lvgl/src/misc/lv_lru.c ****     cache->value_free(item->value);
 1167              		.loc 1 324 24 view .LVU391
 1168 008a 1344     		add	r3, r3, r2
 1169 008c C8F81030 		str	r3, [r8, #16]
 325:Drivers/lvgl/src/misc/lv_lru.c ****     cache->key_free(item->key);
 1170              		.loc 1 325 5 is_stmt 1 view .LVU392
 1171 0090 D8F82420 		ldr	r2, [r8, #36]
 1172 0094 9047     		blx	r2
 1173              	.LVL120:
 326:Drivers/lvgl/src/misc/lv_lru.c **** 
ARM GAS  /var/folders/0z/tsy30v1j4xl4_7kw94k978ww0000gn/T//ccbD5QfV.s 			page 32


 1174              		.loc 1 326 5 view .LVU393
 1175 0096 D8F82830 		ldr	r3, [r8, #40]
 1176 009a 7868     		ldr	r0, [r7, #4]
 1177 009c 9847     		blx	r3
 1178              	.LVL121:
 329:Drivers/lvgl/src/misc/lv_lru.c ****     item->next = cache->free_items;
 1179              		.loc 1 329 5 view .LVU394
 1180 009e 2021     		movs	r1, #32
 1181 00a0 3846     		mov	r0, r7
 1182 00a2 FFF7FEFF 		bl	lv_memset_00
 1183              	.LVL122:
 330:Drivers/lvgl/src/misc/lv_lru.c ****     cache->free_items = item;
 1184              		.loc 1 330 5 view .LVU395
 330:Drivers/lvgl/src/misc/lv_lru.c ****     cache->free_items = item;
 1185              		.loc 1 330 16 is_stmt 0 view .LVU396
 1186 00a6 D8F82C30 		ldr	r3, [r8, #44]
 1187 00aa BB61     		str	r3, [r7, #24]
 1188              		.loc 1 331 5 is_stmt 1 view .LVU397
 1189              		.loc 1 331 23 is_stmt 0 view .LVU398
 1190 00ac C8F82C70 		str	r7, [r8, #44]
 1191              	.LVL123:
 1192              	.L106:
 1193              		.loc 1 331 23 view .LVU399
 1194              	.LBE74:
 1195              	.LBE73:
 263:Drivers/lvgl/src/misc/lv_lru.c **** 
 1196              		.loc 1 263 1 view .LVU400
 1197 00b0 03B0     		add	sp, sp, #12
 1198              		.cfi_remember_state
 1199              		.cfi_def_cfa_offset 36
 1200              		@ sp needed
 1201 00b2 BDE8F08F 		pop	{r4, r5, r6, r7, r8, r9, r10, fp, pc}
 1202              	.LVL124:
 1203              	.L112:
 1204              		.cfi_restore_state
 1205              	.LBB76:
 1206              	.LBB75:
 320:Drivers/lvgl/src/misc/lv_lru.c ****     }
 1207              		.loc 1 320 9 is_stmt 1 view .LVU401
 320:Drivers/lvgl/src/misc/lv_lru.c ****     }
 1208              		.loc 1 320 34 is_stmt 0 view .LVU402
 1209 00b6 019A     		ldr	r2, [sp, #4]
 1210 00b8 42F82930 		str	r3, [r2, r9, lsl #2]
 1211 00bc E1E7     		b	.L113
 1212              	.LVL125:
 1213              	.L127:
 1214              		.cfi_def_cfa_offset 0
 1215              		.cfi_restore 4
 1216              		.cfi_restore 5
 1217              		.cfi_restore 6
 1218              		.cfi_restore 7
 1219              		.cfi_restore 8
 1220              		.cfi_restore 9
 1221              		.cfi_restore 10
 1222              		.cfi_restore 11
 1223              		.cfi_restore 14
 320:Drivers/lvgl/src/misc/lv_lru.c ****     }
ARM GAS  /var/folders/0z/tsy30v1j4xl4_7kw94k978ww0000gn/T//ccbD5QfV.s 			page 33


 1224              		.loc 1 320 34 view .LVU403
 1225 00be 7047     		bx	lr
 1226              	.LBE75:
 1227              	.LBE76:
 1228              		.cfi_endproc
 1229              	.LFE7:
 1231              		.section	.text.lv_lru_set,"ax",%progbits
 1232              		.align	1
 1233              		.p2align 2,,3
 1234              		.global	lv_lru_set
 1235              		.syntax unified
 1236              		.thumb
 1237              		.thumb_func
 1239              	lv_lru_set:
 1240              	.LVL126:
 1241              	.LFB4:
 140:Drivers/lvgl/src/misc/lv_lru.c ****     test_for_missing_cache();
 1242              		.loc 1 140 1 is_stmt 1 view -0
 1243              		.cfi_startproc
 1244              		@ args = 4, pretend = 0, frame = 0
 1245              		@ frame_needed = 0, uses_anonymous_args = 0
 141:Drivers/lvgl/src/misc/lv_lru.c ****     test_for_missing_key();
 1246              		.loc 1 141 5 view .LVU405
 140:Drivers/lvgl/src/misc/lv_lru.c ****     test_for_missing_cache();
 1247              		.loc 1 140 1 is_stmt 0 view .LVU406
 1248 0000 2DE9F84F 		push	{r3, r4, r5, r6, r7, r8, r9, r10, fp, lr}
 1249              		.cfi_def_cfa_offset 40
 1250              		.cfi_offset 3, -40
 1251              		.cfi_offset 4, -36
 1252              		.cfi_offset 5, -32
 1253              		.cfi_offset 6, -28
 1254              		.cfi_offset 7, -24
 1255              		.cfi_offset 8, -20
 1256              		.cfi_offset 9, -16
 1257              		.cfi_offset 10, -12
 1258              		.cfi_offset 11, -8
 1259              		.cfi_offset 14, -4
 140:Drivers/lvgl/src/misc/lv_lru.c ****     test_for_missing_cache();
 1260              		.loc 1 140 1 view .LVU407
 1261 0004 0A9F     		ldr	r7, [sp, #40]
 141:Drivers/lvgl/src/misc/lv_lru.c ****     test_for_missing_key();
 1262              		.loc 1 141 5 view .LVU408
 1263 0006 0028     		cmp	r0, #0
 1264 0008 00F08980 		beq	.L152
 141:Drivers/lvgl/src/misc/lv_lru.c ****     test_for_missing_key();
 1265              		.loc 1 141 29 is_stmt 1 discriminator 2 view .LVU409
 142:Drivers/lvgl/src/misc/lv_lru.c ****     test_for_missing_value();
 1266              		.loc 1 142 5 discriminator 2 view .LVU410
 1267 000c 8846     		mov	r8, r1
 1268 000e 0029     		cmp	r1, #0
 1269 0010 00F08880 		beq	.L153
 142:Drivers/lvgl/src/misc/lv_lru.c ****     test_for_missing_value();
 1270              		.loc 1 142 27 discriminator 2 view .LVU411
 143:Drivers/lvgl/src/misc/lv_lru.c ****     test_for_value_too_large();
 1271              		.loc 1 143 5 discriminator 2 view .LVU412
 1272 0014 1E46     		mov	r6, r3
 1273 0016 002B     		cmp	r3, #0
ARM GAS  /var/folders/0z/tsy30v1j4xl4_7kw94k978ww0000gn/T//ccbD5QfV.s 			page 34


 1274 0018 7BD0     		beq	.L155
 1275 001a 002F     		cmp	r7, #0
 1276 001c 79D0     		beq	.L155
 144:Drivers/lvgl/src/misc/lv_lru.c **** 
 1277              		.loc 1 144 5 is_stmt 0 discriminator 4 view .LVU413
 1278 001e 4369     		ldr	r3, [r0, #20]
 1279              	.LVL127:
 144:Drivers/lvgl/src/misc/lv_lru.c **** 
 1280              		.loc 1 144 5 discriminator 4 view .LVU414
 1281 0020 BB42     		cmp	r3, r7
 1282 0022 0546     		mov	r5, r0
 143:Drivers/lvgl/src/misc/lv_lru.c ****     test_for_value_too_large();
 1283              		.loc 1 143 29 is_stmt 1 discriminator 4 view .LVU415
 144:Drivers/lvgl/src/misc/lv_lru.c **** 
 1284              		.loc 1 144 5 discriminator 4 view .LVU416
 1285 0024 78D3     		bcc	.L156
 1286              	.LBB86:
 1287              	.LBB87:
 273:Drivers/lvgl/src/misc/lv_lru.c ****     char * data = (char *) key;
 1288              		.loc 1 273 14 is_stmt 0 discriminator 2 view .LVU417
 1289 0026 036A     		ldr	r3, [r0, #32]
 1290 0028 C169     		ldr	r1, [r0, #28]
 1291              	.LVL128:
 276:Drivers/lvgl/src/misc/lv_lru.c ****         uint32_t k = *(uint32_t *) data;
 1292              		.loc 1 276 22 discriminator 2 view .LVU418
 1293 002a 032A     		cmp	r2, #3
 1294 002c 9146     		mov	r9, r2
 1295              	.LBE87:
 1296              	.LBE86:
 144:Drivers/lvgl/src/misc/lv_lru.c **** 
 1297              		.loc 1 144 31 is_stmt 1 discriminator 2 view .LVU419
 147:Drivers/lvgl/src/misc/lv_lru.c ****     int required = 0;
 1298              		.loc 1 147 5 discriminator 2 view .LVU420
 1299              	.LVL129:
 1300              	.LBB97:
 1301              	.LBI86:
 269:Drivers/lvgl/src/misc/lv_lru.c **** {
 1302              		.loc 1 269 17 discriminator 2 view .LVU421
 1303              	.LBB92:
 271:Drivers/lvgl/src/misc/lv_lru.c ****     uint32_t r = 24;
 1304              		.loc 1 271 5 discriminator 2 view .LVU422
 272:Drivers/lvgl/src/misc/lv_lru.c ****     uint32_t h = cache->seed ^ key_length;
 1305              		.loc 1 272 5 discriminator 2 view .LVU423
 273:Drivers/lvgl/src/misc/lv_lru.c ****     char * data = (char *) key;
 1306              		.loc 1 273 5 discriminator 2 view .LVU424
 273:Drivers/lvgl/src/misc/lv_lru.c ****     char * data = (char *) key;
 1307              		.loc 1 273 14 is_stmt 0 discriminator 2 view .LVU425
 1308 002e 82EA0303 		eor	r3, r2, r3
 1309              	.LVL130:
 274:Drivers/lvgl/src/misc/lv_lru.c **** 
 1310              		.loc 1 274 5 is_stmt 1 discriminator 2 view .LVU426
 276:Drivers/lvgl/src/misc/lv_lru.c ****         uint32_t k = *(uint32_t *) data;
 1311              		.loc 1 276 5 discriminator 2 view .LVU427
 276:Drivers/lvgl/src/misc/lv_lru.c ****         uint32_t k = *(uint32_t *) data;
 1312              		.loc 1 276 22 discriminator 2 view .LVU428
 1313 0032 40F2A080 		bls	.L157
 1314 0036 A2F1040E 		sub	lr, r2, #4
ARM GAS  /var/folders/0z/tsy30v1j4xl4_7kw94k978ww0000gn/T//ccbD5QfV.s 			page 35


 1315 003a 2EF0030E 		bic	lr, lr, #3
 1316 003e 0EF1040E 		add	lr, lr, #4
 1317              	.LBB88:
 278:Drivers/lvgl/src/misc/lv_lru.c ****         k ^= k >> r;
 1318              		.loc 1 278 11 is_stmt 0 view .LVU429
 1319 0042 5148     		ldr	r0, .L174
 1320              	.LVL131:
 278:Drivers/lvgl/src/misc/lv_lru.c ****         k ^= k >> r;
 1321              		.loc 1 278 11 view .LVU430
 1322 0044 C644     		add	lr, lr, r8
 1323              	.LBE88:
 276:Drivers/lvgl/src/misc/lv_lru.c ****         uint32_t k = *(uint32_t *) data;
 1324              		.loc 1 276 22 view .LVU431
 1325 0046 4246     		mov	r2, r8
 1326              	.LVL132:
 1327              	.L134:
 1328              	.LBB89:
 277:Drivers/lvgl/src/misc/lv_lru.c ****         k *= m;
 1329              		.loc 1 277 9 is_stmt 1 view .LVU432
 277:Drivers/lvgl/src/misc/lv_lru.c ****         k *= m;
 1330              		.loc 1 277 18 is_stmt 0 view .LVU433
 1331 0048 52F8044B 		ldr	r4, [r2], #4
 1332              	.LVL133:
 278:Drivers/lvgl/src/misc/lv_lru.c ****         k ^= k >> r;
 1333              		.loc 1 278 9 is_stmt 1 view .LVU434
 278:Drivers/lvgl/src/misc/lv_lru.c ****         k ^= k >> r;
 1334              		.loc 1 278 11 is_stmt 0 view .LVU435
 1335 004c 00FB04FC 		mul	ip, r0, r4
 1336              	.LVL134:
 279:Drivers/lvgl/src/misc/lv_lru.c ****         k *= m;
 1337              		.loc 1 279 9 is_stmt 1 view .LVU436
 279:Drivers/lvgl/src/misc/lv_lru.c ****         k *= m;
 1338              		.loc 1 279 11 is_stmt 0 view .LVU437
 1339 0050 8CEA1C6C 		eor	ip, ip, ip, lsr #24
 1340              	.LVL135:
 280:Drivers/lvgl/src/misc/lv_lru.c ****         h *= m;
 1341              		.loc 1 280 9 is_stmt 1 view .LVU438
 281:Drivers/lvgl/src/misc/lv_lru.c ****         h ^= k;
 1342              		.loc 1 281 9 view .LVU439
 281:Drivers/lvgl/src/misc/lv_lru.c ****         h ^= k;
 1343              		.loc 1 281 11 is_stmt 0 view .LVU440
 1344 0054 00FB03F3 		mul	r3, r0, r3
 1345              	.LVL136:
 282:Drivers/lvgl/src/misc/lv_lru.c ****         data += 4;
 1346              		.loc 1 282 9 is_stmt 1 view .LVU441
 280:Drivers/lvgl/src/misc/lv_lru.c ****         h *= m;
 1347              		.loc 1 280 11 is_stmt 0 view .LVU442
 1348 0058 00FB0CFC 		mul	ip, r0, ip
 1349              	.LVL137:
 280:Drivers/lvgl/src/misc/lv_lru.c ****         h *= m;
 1350              		.loc 1 280 11 view .LVU443
 1351              	.LBE89:
 276:Drivers/lvgl/src/misc/lv_lru.c ****         uint32_t k = *(uint32_t *) data;
 1352              		.loc 1 276 22 view .LVU444
 1353 005c 7245     		cmp	r2, lr
 1354              	.LBB90:
 282:Drivers/lvgl/src/misc/lv_lru.c ****         data += 4;
ARM GAS  /var/folders/0z/tsy30v1j4xl4_7kw94k978ww0000gn/T//ccbD5QfV.s 			page 36


 1355              		.loc 1 282 11 view .LVU445
 1356 005e 8CEA0303 		eor	r3, ip, r3
 1357              	.LVL138:
 283:Drivers/lvgl/src/misc/lv_lru.c ****         key_length -= 4;
 1358              		.loc 1 283 9 is_stmt 1 view .LVU446
 284:Drivers/lvgl/src/misc/lv_lru.c ****     }
 1359              		.loc 1 284 9 view .LVU447
 284:Drivers/lvgl/src/misc/lv_lru.c ****     }
 1360              		.loc 1 284 9 is_stmt 0 view .LVU448
 1361              	.LBE90:
 276:Drivers/lvgl/src/misc/lv_lru.c ****         uint32_t k = *(uint32_t *) data;
 1362              		.loc 1 276 22 is_stmt 1 view .LVU449
 1363 0062 F1D1     		bne	.L134
 1364              	.LBB91:
 284:Drivers/lvgl/src/misc/lv_lru.c ****     }
 1365              		.loc 1 284 20 is_stmt 0 view .LVU450
 1366 0064 09F00302 		and	r2, r9, #3
 1367              	.LVL139:
 1368              	.L133:
 284:Drivers/lvgl/src/misc/lv_lru.c ****     }
 1369              		.loc 1 284 20 view .LVU451
 1370              	.LBE91:
 287:Drivers/lvgl/src/misc/lv_lru.c ****         h ^= data[2] << 16;
 1371              		.loc 1 287 5 is_stmt 1 view .LVU452
 287:Drivers/lvgl/src/misc/lv_lru.c ****         h ^= data[2] << 16;
 1372              		.loc 1 287 7 is_stmt 0 view .LVU453
 1373 0068 032A     		cmp	r2, #3
 1374 006a 43D0     		beq	.L172
 290:Drivers/lvgl/src/misc/lv_lru.c ****         h ^= data[1] << 8;
 1375              		.loc 1 290 5 is_stmt 1 view .LVU454
 290:Drivers/lvgl/src/misc/lv_lru.c ****         h ^= data[1] << 8;
 1376              		.loc 1 290 7 is_stmt 0 view .LVU455
 1377 006c 022A     		cmp	r2, #2
 1378 006e 45D0     		beq	.L136
 293:Drivers/lvgl/src/misc/lv_lru.c ****         h ^= data[0];
 1379              		.loc 1 293 5 is_stmt 1 view .LVU456
 293:Drivers/lvgl/src/misc/lv_lru.c ****         h ^= data[0];
 1380              		.loc 1 293 7 is_stmt 0 view .LVU457
 1381 0070 002A     		cmp	r2, #0
 1382 0072 47D1     		bne	.L138
 1383              	.L139:
 298:Drivers/lvgl/src/misc/lv_lru.c ****     h *= m;
 1384              		.loc 1 298 5 is_stmt 1 view .LVU458
 299:Drivers/lvgl/src/misc/lv_lru.c ****     h ^= h >> 15;
 1385              		.loc 1 299 7 is_stmt 0 view .LVU459
 1386 0074 444A     		ldr	r2, .L174
 298:Drivers/lvgl/src/misc/lv_lru.c ****     h *= m;
 1387              		.loc 1 298 7 view .LVU460
 1388 0076 83EA5333 		eor	r3, r3, r3, lsr #13
 1389              	.LVL140:
 299:Drivers/lvgl/src/misc/lv_lru.c ****     h ^= h >> 15;
 1390              		.loc 1 299 5 is_stmt 1 view .LVU461
 299:Drivers/lvgl/src/misc/lv_lru.c ****     h ^= h >> 15;
 1391              		.loc 1 299 7 is_stmt 0 view .LVU462
 1392 007a 02FB03F3 		mul	r3, r2, r3
 1393              	.LVL141:
 300:Drivers/lvgl/src/misc/lv_lru.c ****     return h % cache->hash_table_size;
ARM GAS  /var/folders/0z/tsy30v1j4xl4_7kw94k978ww0000gn/T//ccbD5QfV.s 			page 37


 1394              		.loc 1 300 5 is_stmt 1 view .LVU463
 301:Drivers/lvgl/src/misc/lv_lru.c **** }
 1395              		.loc 1 301 5 view .LVU464
 301:Drivers/lvgl/src/misc/lv_lru.c **** }
 1396              		.loc 1 301 5 is_stmt 0 view .LVU465
 1397              	.LBE92:
 1398              	.LBE97:
 148:Drivers/lvgl/src/misc/lv_lru.c ****     lv_lru_item_t * item = NULL, *prev = NULL;
 1399              		.loc 1 148 5 is_stmt 1 view .LVU466
 149:Drivers/lvgl/src/misc/lv_lru.c ****     item = cache->items[hash_index];
 1400              		.loc 1 149 5 view .LVU467
 150:Drivers/lvgl/src/misc/lv_lru.c **** 
 1401              		.loc 1 150 5 view .LVU468
 1402              	.LBB98:
 1403              	.LBB93:
 300:Drivers/lvgl/src/misc/lv_lru.c ****     return h % cache->hash_table_size;
 1404              		.loc 1 300 7 is_stmt 0 view .LVU469
 1405 007e 83EAD333 		eor	r3, r3, r3, lsr #15
 1406              	.LVL142:
 300:Drivers/lvgl/src/misc/lv_lru.c ****     return h % cache->hash_table_size;
 1407              		.loc 1 300 7 view .LVU470
 1408              	.LBE93:
 1409              	.LBE98:
 150:Drivers/lvgl/src/misc/lv_lru.c **** 
 1410              		.loc 1 150 10 view .LVU471
 1411 0082 2A68     		ldr	r2, [r5]
 1412              	.LBB99:
 1413              	.LBB94:
 301:Drivers/lvgl/src/misc/lv_lru.c **** }
 1414              		.loc 1 301 14 view .LVU472
 1415 0084 B3FBF1F0 		udiv	r0, r3, r1
 1416 0088 01FB103A 		mls	r10, r1, r0, r3
 1417              	.LBE94:
 1418              	.LBE99:
 150:Drivers/lvgl/src/misc/lv_lru.c **** 
 1419              		.loc 1 150 10 view .LVU473
 1420 008c 52F82A40 		ldr	r4, [r2, r10, lsl #2]
 1421              	.LVL143:
 152:Drivers/lvgl/src/misc/lv_lru.c ****         prev = item;
 1422              		.loc 1 152 5 is_stmt 1 view .LVU474
 152:Drivers/lvgl/src/misc/lv_lru.c ****         prev = item;
 1423              		.loc 1 152 16 view .LVU475
 1424 0090 24B9     		cbnz	r4, .L140
 1425 0092 49E0     		b	.L141
 1426              	.L142:
 153:Drivers/lvgl/src/misc/lv_lru.c ****         item = (lv_lru_item_t *) item->next;
 1427              		.loc 1 153 9 view .LVU476
 1428              	.LVL144:
 154:Drivers/lvgl/src/misc/lv_lru.c ****     }
 1429              		.loc 1 154 9 view .LVU477
 154:Drivers/lvgl/src/misc/lv_lru.c ****     }
 1430              		.loc 1 154 14 is_stmt 0 view .LVU478
 1431 0094 A369     		ldr	r3, [r4, #24]
 1432              	.LVL145:
 152:Drivers/lvgl/src/misc/lv_lru.c ****         prev = item;
 1433              		.loc 1 152 16 is_stmt 1 view .LVU479
 1434 0096 002B     		cmp	r3, #0
ARM GAS  /var/folders/0z/tsy30v1j4xl4_7kw94k978ww0000gn/T//ccbD5QfV.s 			page 38


 1435 0098 46D0     		beq	.L141
 152:Drivers/lvgl/src/misc/lv_lru.c ****         prev = item;
 1436              		.loc 1 152 16 is_stmt 0 view .LVU480
 1437 009a 1C46     		mov	r4, r3
 1438              	.LVL146:
 1439              	.L140:
 1440              	.LBB100:
 1441              	.LBI100:
 304:Drivers/lvgl/src/misc/lv_lru.c **** {
 1442              		.loc 1 304 12 is_stmt 1 view .LVU481
 1443              	.LBB101:
 306:Drivers/lvgl/src/misc/lv_lru.c ****         return 1;
 1444              		.loc 1 306 5 view .LVU482
 306:Drivers/lvgl/src/misc/lv_lru.c ****         return 1;
 1445              		.loc 1 306 7 is_stmt 0 view .LVU483
 1446 009c E368     		ldr	r3, [r4, #12]
 1447 009e 9945     		cmp	r9, r3
 1448 00a0 F8D1     		bne	.L142
 1449              	.LVL147:
 1450              	.LBB102:
 1451              	.LBI102:
 304:Drivers/lvgl/src/misc/lv_lru.c **** {
 1452              		.loc 1 304 12 is_stmt 1 view .LVU484
 1453              	.LBB103:
 310:Drivers/lvgl/src/misc/lv_lru.c ****     }
 1454              		.loc 1 310 9 view .LVU485
 310:Drivers/lvgl/src/misc/lv_lru.c ****     }
 1455              		.loc 1 310 16 is_stmt 0 view .LVU486
 1456 00a2 6168     		ldr	r1, [r4, #4]
 1457 00a4 4A46     		mov	r2, r9
 1458 00a6 4046     		mov	r0, r8
 1459 00a8 FFF7FEFF 		bl	memcmp
 1460              	.LVL148:
 310:Drivers/lvgl/src/misc/lv_lru.c ****     }
 1461              		.loc 1 310 16 view .LVU487
 1462              	.LBE103:
 1463              	.LBE102:
 1464              	.LBE101:
 1465              	.LBE100:
 152:Drivers/lvgl/src/misc/lv_lru.c ****         prev = item;
 1466              		.loc 1 152 16 view .LVU488
 1467 00ac 0028     		cmp	r0, #0
 1468 00ae F1D1     		bne	.L142
 157:Drivers/lvgl/src/misc/lv_lru.c ****         // update the value and value_lengths
 1469              		.loc 1 157 5 is_stmt 1 view .LVU489
 159:Drivers/lvgl/src/misc/lv_lru.c ****         cache->value_free(item->value);
 1470              		.loc 1 159 9 view .LVU490
 159:Drivers/lvgl/src/misc/lv_lru.c ****         cache->value_free(item->value);
 1471              		.loc 1 159 39 is_stmt 0 view .LVU491
 1472 00b0 A368     		ldr	r3, [r4, #8]
 160:Drivers/lvgl/src/misc/lv_lru.c ****         item->value = value;
 1473              		.loc 1 160 9 view .LVU492
 1474 00b2 2068     		ldr	r0, [r4]
 159:Drivers/lvgl/src/misc/lv_lru.c ****         cache->value_free(item->value);
 1475              		.loc 1 159 39 view .LVU493
 1476 00b4 A7EB0308 		sub	r8, r7, r3
 1477              	.LVL149:
ARM GAS  /var/folders/0z/tsy30v1j4xl4_7kw94k978ww0000gn/T//ccbD5QfV.s 			page 39


 160:Drivers/lvgl/src/misc/lv_lru.c ****         item->value = value;
 1478              		.loc 1 160 9 view .LVU494
 1479 00b8 6B6A     		ldr	r3, [r5, #36]
 1480 00ba 9847     		blx	r3
 1481              	.LVL150:
 162:Drivers/lvgl/src/misc/lv_lru.c **** 
 1482              		.loc 1 162 28 view .LVU495
 1483 00bc A760     		str	r7, [r4, #8]
 161:Drivers/lvgl/src/misc/lv_lru.c ****         item->value_length = value_length;
 1484              		.loc 1 161 21 view .LVU496
 1485 00be 2660     		str	r6, [r4]
 159:Drivers/lvgl/src/misc/lv_lru.c ****         cache->value_free(item->value);
 1486              		.loc 1 159 18 view .LVU497
 1487 00c0 4746     		mov	r7, r8
 1488              	.LVL151:
 160:Drivers/lvgl/src/misc/lv_lru.c ****         item->value = value;
 1489              		.loc 1 160 9 is_stmt 1 view .LVU498
 161:Drivers/lvgl/src/misc/lv_lru.c ****         item->value_length = value_length;
 1490              		.loc 1 161 9 view .LVU499
 162:Drivers/lvgl/src/misc/lv_lru.c **** 
 1491              		.loc 1 162 9 view .LVU500
 1492              	.L146:
 180:Drivers/lvgl/src/misc/lv_lru.c **** 
 1493              		.loc 1 180 5 view .LVU501
 180:Drivers/lvgl/src/misc/lv_lru.c **** 
 1494              		.loc 1 180 26 is_stmt 0 view .LVU502
 1495 00c2 AB68     		ldr	r3, [r5, #8]
 1496 00c4 EA68     		ldr	r2, [r5, #12]
 1497 00c6 0133     		adds	r3, r3, #1
 1498 00c8 42F10002 		adc	r2, r2, #0
 183:Drivers/lvgl/src/misc/lv_lru.c ****         while(cache->free_memory < (size_t) required)
 1499              		.loc 1 183 7 view .LVU503
 1500 00cc 002F     		cmp	r7, #0
 180:Drivers/lvgl/src/misc/lv_lru.c **** 
 1501              		.loc 1 180 24 view .LVU504
 1502 00ce AB60     		str	r3, [r5, #8]
 1503 00d0 EA60     		str	r2, [r5, #12]
 1504 00d2 C4E90432 		strd	r3, r2, [r4, #16]
 183:Drivers/lvgl/src/misc/lv_lru.c ****         while(cache->free_memory < (size_t) required)
 1505              		.loc 1 183 5 is_stmt 1 view .LVU505
 183:Drivers/lvgl/src/misc/lv_lru.c ****         while(cache->free_memory < (size_t) required)
 1506              		.loc 1 183 49 is_stmt 0 view .LVU506
 1507 00d6 2B69     		ldr	r3, [r5, #16]
 183:Drivers/lvgl/src/misc/lv_lru.c ****         while(cache->free_memory < (size_t) required)
 1508              		.loc 1 183 7 view .LVU507
 1509 00d8 04DC     		bgt	.L171
 183:Drivers/lvgl/src/misc/lv_lru.c ****         while(cache->free_memory < (size_t) required)
 1510              		.loc 1 183 7 view .LVU508
 1511 00da 05E0     		b	.L148
 1512              	.L149:
 185:Drivers/lvgl/src/misc/lv_lru.c ****     }
 1513              		.loc 1 185 13 is_stmt 1 view .LVU509
 1514 00dc 2846     		mov	r0, r5
 1515 00de FFF7FEFF 		bl	lv_lru_remove_lru_item
 1516              	.LVL152:
 184:Drivers/lvgl/src/misc/lv_lru.c ****             lv_lru_remove_lru_item(cache);
 1517              		.loc 1 184 34 view .LVU510
ARM GAS  /var/folders/0z/tsy30v1j4xl4_7kw94k978ww0000gn/T//ccbD5QfV.s 			page 40


 184:Drivers/lvgl/src/misc/lv_lru.c ****             lv_lru_remove_lru_item(cache);
 1518              		.loc 1 184 20 is_stmt 0 view .LVU511
 1519 00e2 2B69     		ldr	r3, [r5, #16]
 1520              	.L171:
 184:Drivers/lvgl/src/misc/lv_lru.c ****             lv_lru_remove_lru_item(cache);
 1521              		.loc 1 184 34 view .LVU512
 1522 00e4 4345     		cmp	r3, r8
 1523 00e6 F9D3     		bcc	.L149
 1524              	.L148:
 187:Drivers/lvgl/src/misc/lv_lru.c ****     return LV_LRU_OK;
 1525              		.loc 1 187 5 is_stmt 1 view .LVU513
 187:Drivers/lvgl/src/misc/lv_lru.c ****     return LV_LRU_OK;
 1526              		.loc 1 187 24 is_stmt 0 view .LVU514
 1527 00e8 A3EB0803 		sub	r3, r3, r8
 1528 00ec 2B61     		str	r3, [r5, #16]
 188:Drivers/lvgl/src/misc/lv_lru.c **** }
 1529              		.loc 1 188 5 is_stmt 1 view .LVU515
 188:Drivers/lvgl/src/misc/lv_lru.c **** }
 1530              		.loc 1 188 12 is_stmt 0 view .LVU516
 1531 00ee 0020     		movs	r0, #0
 1532              	.LVL153:
 1533              	.L168:
 189:Drivers/lvgl/src/misc/lv_lru.c **** 
 1534              		.loc 1 189 1 view .LVU517
 1535 00f0 BDE8F88F 		pop	{r3, r4, r5, r6, r7, r8, r9, r10, fp, pc}
 1536              	.LVL154:
 1537              	.L172:
 1538              	.LBB104:
 1539              	.LBB95:
 288:Drivers/lvgl/src/misc/lv_lru.c ****     }
 1540              		.loc 1 288 9 is_stmt 1 view .LVU518
 288:Drivers/lvgl/src/misc/lv_lru.c ****     }
 1541              		.loc 1 288 18 is_stmt 0 view .LVU519
 1542 00f4 9EF80220 		ldrb	r2, [lr, #2]	@ zero_extendqisi2
 288:Drivers/lvgl/src/misc/lv_lru.c ****     }
 1543              		.loc 1 288 11 view .LVU520
 1544 00f8 83EA0243 		eor	r3, r3, r2, lsl #16
 1545              	.LVL155:
 290:Drivers/lvgl/src/misc/lv_lru.c ****         h ^= data[1] << 8;
 1546              		.loc 1 290 5 is_stmt 1 view .LVU521
 1547              	.L136:
 291:Drivers/lvgl/src/misc/lv_lru.c ****     }
 1548              		.loc 1 291 9 view .LVU522
 291:Drivers/lvgl/src/misc/lv_lru.c ****     }
 1549              		.loc 1 291 18 is_stmt 0 view .LVU523
 1550 00fc 9EF80120 		ldrb	r2, [lr, #1]	@ zero_extendqisi2
 291:Drivers/lvgl/src/misc/lv_lru.c ****     }
 1551              		.loc 1 291 11 view .LVU524
 1552 0100 83EA0223 		eor	r3, r3, r2, lsl #8
 1553              	.LVL156:
 293:Drivers/lvgl/src/misc/lv_lru.c ****         h ^= data[0];
 1554              		.loc 1 293 5 is_stmt 1 view .LVU525
 1555              	.L138:
 294:Drivers/lvgl/src/misc/lv_lru.c ****         h *= m;
 1556              		.loc 1 294 9 view .LVU526
 294:Drivers/lvgl/src/misc/lv_lru.c ****         h *= m;
 1557              		.loc 1 294 18 is_stmt 0 view .LVU527
ARM GAS  /var/folders/0z/tsy30v1j4xl4_7kw94k978ww0000gn/T//ccbD5QfV.s 			page 41


 1558 0104 9EF80020 		ldrb	r2, [lr]	@ zero_extendqisi2
 294:Drivers/lvgl/src/misc/lv_lru.c ****         h *= m;
 1559              		.loc 1 294 11 view .LVU528
 1560 0108 5A40     		eors	r2, r2, r3
 1561              	.LVL157:
 295:Drivers/lvgl/src/misc/lv_lru.c ****     }
 1562              		.loc 1 295 9 is_stmt 1 view .LVU529
 295:Drivers/lvgl/src/misc/lv_lru.c ****     }
 1563              		.loc 1 295 11 is_stmt 0 view .LVU530
 1564 010a 1F4B     		ldr	r3, .L174
 1565 010c 02FB03F3 		mul	r3, r2, r3
 1566              	.LVL158:
 295:Drivers/lvgl/src/misc/lv_lru.c ****     }
 1567              		.loc 1 295 11 view .LVU531
 1568 0110 B0E7     		b	.L139
 1569              	.LVL159:
 1570              	.L155:
 295:Drivers/lvgl/src/misc/lv_lru.c ****     }
 1571              		.loc 1 295 11 view .LVU532
 1572              	.LBE95:
 1573              	.LBE104:
 143:Drivers/lvgl/src/misc/lv_lru.c ****     test_for_value_too_large();
 1574              		.loc 1 143 5 view .LVU533
 1575 0112 0320     		movs	r0, #3
 1576              	.LVL160:
 189:Drivers/lvgl/src/misc/lv_lru.c **** 
 1577              		.loc 1 189 1 view .LVU534
 1578 0114 BDE8F88F 		pop	{r3, r4, r5, r6, r7, r8, r9, r10, fp, pc}
 1579              	.LVL161:
 1580              	.L156:
 144:Drivers/lvgl/src/misc/lv_lru.c **** 
 1581              		.loc 1 144 5 view .LVU535
 1582 0118 0520     		movs	r0, #5
 1583              	.LVL162:
 189:Drivers/lvgl/src/misc/lv_lru.c **** 
 1584              		.loc 1 189 1 view .LVU536
 1585 011a BDE8F88F 		pop	{r3, r4, r5, r6, r7, r8, r9, r10, fp, pc}
 1586              	.LVL163:
 1587              	.L152:
 141:Drivers/lvgl/src/misc/lv_lru.c ****     test_for_missing_key();
 1588              		.loc 1 141 5 view .LVU537
 1589 011e 0120     		movs	r0, #1
 1590              	.LVL164:
 189:Drivers/lvgl/src/misc/lv_lru.c **** 
 1591              		.loc 1 189 1 view .LVU538
 1592 0120 BDE8F88F 		pop	{r3, r4, r5, r6, r7, r8, r9, r10, fp, pc}
 1593              	.LVL165:
 1594              	.L153:
 142:Drivers/lvgl/src/misc/lv_lru.c ****     test_for_missing_value();
 1595              		.loc 1 142 5 view .LVU539
 1596 0124 0220     		movs	r0, #2
 1597              	.LVL166:
 142:Drivers/lvgl/src/misc/lv_lru.c ****     test_for_missing_value();
 1598              		.loc 1 142 5 view .LVU540
 1599 0126 E3E7     		b	.L168
 1600              	.LVL167:
 1601              	.L141:
ARM GAS  /var/folders/0z/tsy30v1j4xl4_7kw94k978ww0000gn/T//ccbD5QfV.s 			page 42


 157:Drivers/lvgl/src/misc/lv_lru.c ****         // update the value and value_lengths
 1602              		.loc 1 157 5 is_stmt 1 view .LVU541
 167:Drivers/lvgl/src/misc/lv_lru.c ****         item->value = value;
 1603              		.loc 1 167 9 view .LVU542
 1604              	.LBB105:
 1605              	.LBI105:
 332:Drivers/lvgl/src/misc/lv_lru.c **** }
 333:Drivers/lvgl/src/misc/lv_lru.c **** 
 334:Drivers/lvgl/src/misc/lv_lru.c **** static lv_lru_item_t * lv_lru_pop_or_create_item(lv_lru_t * cache)
 1606              		.loc 1 334 24 view .LVU543
 1607              	.LBB106:
 335:Drivers/lvgl/src/misc/lv_lru.c **** {
 336:Drivers/lvgl/src/misc/lv_lru.c ****     lv_lru_item_t * item = NULL;
 1608              		.loc 1 336 5 view .LVU544
 337:Drivers/lvgl/src/misc/lv_lru.c **** 
 338:Drivers/lvgl/src/misc/lv_lru.c ****     if(cache->free_items) {
 1609              		.loc 1 338 5 view .LVU545
 1610              		.loc 1 338 13 is_stmt 0 view .LVU546
 1611 0128 D5F82CB0 		ldr	fp, [r5, #44]
 1612              		.loc 1 338 7 view .LVU547
 1613 012c BBF1000F 		cmp	fp, #0
 1614 0130 19D0     		beq	.L173
 339:Drivers/lvgl/src/misc/lv_lru.c ****         item = cache->free_items;
 1615              		.loc 1 339 9 is_stmt 1 view .LVU548
 1616              	.LVL168:
 340:Drivers/lvgl/src/misc/lv_lru.c ****         cache->free_items = item->next;
 1617              		.loc 1 340 9 view .LVU549
 1618              		.loc 1 340 27 is_stmt 0 view .LVU550
 1619 0132 DBF81830 		ldr	r3, [fp, #24]
 1620 0136 EB62     		str	r3, [r5, #44]
 341:Drivers/lvgl/src/misc/lv_lru.c ****         lv_memset_00(item, sizeof(lv_lru_item_t));
 1621              		.loc 1 341 9 is_stmt 1 view .LVU551
 1622 0138 2021     		movs	r1, #32
 1623 013a 5846     		mov	r0, fp
 1624 013c FFF7FEFF 		bl	lv_memset_00
 1625              	.LVL169:
 1626              	.L144:
 342:Drivers/lvgl/src/misc/lv_lru.c ****     }
 343:Drivers/lvgl/src/misc/lv_lru.c ****     else {
 344:Drivers/lvgl/src/misc/lv_lru.c ****         item = (lv_lru_item_t *) lv_mem_alloc(sizeof(lv_lru_item_t));
 345:Drivers/lvgl/src/misc/lv_lru.c ****         lv_memset_00(item, sizeof(lv_lru_item_t));
 346:Drivers/lvgl/src/misc/lv_lru.c ****     }
 347:Drivers/lvgl/src/misc/lv_lru.c **** 
 348:Drivers/lvgl/src/misc/lv_lru.c ****     return item;
 1627              		.loc 1 348 5 view .LVU552
 1628              		.loc 1 348 5 is_stmt 0 view .LVU553
 1629              	.LBE106:
 1630              	.LBE105:
 168:Drivers/lvgl/src/misc/lv_lru.c ****         item->key = lv_mem_alloc(key_length);
 1631              		.loc 1 168 9 is_stmt 1 view .LVU554
 168:Drivers/lvgl/src/misc/lv_lru.c ****         item->key = lv_mem_alloc(key_length);
 1632              		.loc 1 168 21 is_stmt 0 view .LVU555
 1633 0140 CBF80060 		str	r6, [fp]
 169:Drivers/lvgl/src/misc/lv_lru.c ****         memcpy(item->key, key, key_length);
 1634              		.loc 1 169 9 is_stmt 1 view .LVU556
 169:Drivers/lvgl/src/misc/lv_lru.c ****         memcpy(item->key, key, key_length);
 1635              		.loc 1 169 21 is_stmt 0 view .LVU557
ARM GAS  /var/folders/0z/tsy30v1j4xl4_7kw94k978ww0000gn/T//ccbD5QfV.s 			page 43


 1636 0144 4846     		mov	r0, r9
 1637 0146 FFF7FEFF 		bl	lv_mem_alloc
 1638              	.LVL170:
 170:Drivers/lvgl/src/misc/lv_lru.c ****         item->value_length = value_length;
 1639              		.loc 1 170 9 view .LVU558
 1640 014a 4146     		mov	r1, r8
 169:Drivers/lvgl/src/misc/lv_lru.c ****         memcpy(item->key, key, key_length);
 1641              		.loc 1 169 19 view .LVU559
 1642 014c CBF80400 		str	r0, [fp, #4]
 170:Drivers/lvgl/src/misc/lv_lru.c ****         item->value_length = value_length;
 1643              		.loc 1 170 9 is_stmt 1 view .LVU560
 1644 0150 4A46     		mov	r2, r9
 1645 0152 FFF7FEFF 		bl	memcpy
 1646              	.LVL171:
 171:Drivers/lvgl/src/misc/lv_lru.c ****         item->key_length = key_length;
 1647              		.loc 1 171 9 view .LVU561
 171:Drivers/lvgl/src/misc/lv_lru.c ****         item->key_length = key_length;
 1648              		.loc 1 171 28 is_stmt 0 view .LVU562
 1649 0156 CBE90279 		strd	r7, r9, [fp, #8]
 172:Drivers/lvgl/src/misc/lv_lru.c ****         required = (int) value_length;
 1650              		.loc 1 172 9 is_stmt 1 view .LVU563
 173:Drivers/lvgl/src/misc/lv_lru.c **** 
 1651              		.loc 1 173 9 view .LVU564
 1652              	.LVL172:
 175:Drivers/lvgl/src/misc/lv_lru.c ****             prev->next = item;
 1653              		.loc 1 175 9 view .LVU565
 175:Drivers/lvgl/src/misc/lv_lru.c ****             prev->next = item;
 1654              		.loc 1 175 11 is_stmt 0 view .LVU566
 1655 015a 74B1     		cbz	r4, .L145
 1656              	.LVL173:
 176:Drivers/lvgl/src/misc/lv_lru.c ****         else
 1657              		.loc 1 176 13 is_stmt 1 view .LVU567
 176:Drivers/lvgl/src/misc/lv_lru.c ****         else
 1658              		.loc 1 176 24 is_stmt 0 view .LVU568
 1659 015c C4F818B0 		str	fp, [r4, #24]
 1660 0160 B846     		mov	r8, r7
 1661              	.LVL174:
 176:Drivers/lvgl/src/misc/lv_lru.c ****         else
 1662              		.loc 1 176 24 view .LVU569
 1663 0162 5C46     		mov	r4, fp
 1664 0164 ADE7     		b	.L146
 1665              	.LVL175:
 1666              	.L173:
 1667              	.LBB108:
 1668              	.LBB107:
 344:Drivers/lvgl/src/misc/lv_lru.c ****         lv_memset_00(item, sizeof(lv_lru_item_t));
 1669              		.loc 1 344 9 is_stmt 1 view .LVU570
 344:Drivers/lvgl/src/misc/lv_lru.c ****         lv_memset_00(item, sizeof(lv_lru_item_t));
 1670              		.loc 1 344 34 is_stmt 0 view .LVU571
 1671 0166 2020     		movs	r0, #32
 1672 0168 FFF7FEFF 		bl	lv_mem_alloc
 1673              	.LVL176:
 345:Drivers/lvgl/src/misc/lv_lru.c ****     }
 1674              		.loc 1 345 9 view .LVU572
 1675 016c 2021     		movs	r1, #32
 344:Drivers/lvgl/src/misc/lv_lru.c ****         lv_memset_00(item, sizeof(lv_lru_item_t));
 1676              		.loc 1 344 34 view .LVU573
ARM GAS  /var/folders/0z/tsy30v1j4xl4_7kw94k978ww0000gn/T//ccbD5QfV.s 			page 44


 1677 016e 8346     		mov	fp, r0
 1678              	.LVL177:
 345:Drivers/lvgl/src/misc/lv_lru.c ****     }
 1679              		.loc 1 345 9 is_stmt 1 view .LVU574
 1680 0170 FFF7FEFF 		bl	lv_memset_00
 1681              	.LVL178:
 345:Drivers/lvgl/src/misc/lv_lru.c ****     }
 1682              		.loc 1 345 9 is_stmt 0 view .LVU575
 1683 0174 E4E7     		b	.L144
 1684              	.LVL179:
 1685              	.L157:
 345:Drivers/lvgl/src/misc/lv_lru.c ****     }
 1686              		.loc 1 345 9 view .LVU576
 1687              	.LBE107:
 1688              	.LBE108:
 1689              	.LBB109:
 1690              	.LBB96:
 276:Drivers/lvgl/src/misc/lv_lru.c ****         uint32_t k = *(uint32_t *) data;
 1691              		.loc 1 276 22 view .LVU577
 1692 0176 C646     		mov	lr, r8
 1693 0178 76E7     		b	.L133
 1694              	.LVL180:
 1695              	.L145:
 276:Drivers/lvgl/src/misc/lv_lru.c ****         uint32_t k = *(uint32_t *) data;
 1696              		.loc 1 276 22 view .LVU578
 1697              	.LBE96:
 1698              	.LBE109:
 178:Drivers/lvgl/src/misc/lv_lru.c ****     }
 1699              		.loc 1 178 13 is_stmt 1 view .LVU579
 178:Drivers/lvgl/src/misc/lv_lru.c ****     }
 1700              		.loc 1 178 38 is_stmt 0 view .LVU580
 1701 017a 2B68     		ldr	r3, [r5]
 1702 017c B846     		mov	r8, r7
 1703              	.LVL181:
 178:Drivers/lvgl/src/misc/lv_lru.c ****     }
 1704              		.loc 1 178 38 view .LVU581
 1705 017e 43F82AB0 		str	fp, [r3, r10, lsl #2]
 1706 0182 5C46     		mov	r4, fp
 1707 0184 9DE7     		b	.L146
 1708              	.L175:
 1709 0186 00BF     		.align	2
 1710              	.L174:
 1711 0188 95E9D15B 		.word	1540483477
 1712              		.cfi_endproc
 1713              	.LFE4:
 1715              		.text
 1716              	.Letext0:
 1717              		.file 2 "/Users/johannes/Library/Application Support/Code/User/globalStorage/bmd.stm32-for-vscode/
 1718              		.file 3 "/Users/johannes/Library/Application Support/Code/User/globalStorage/bmd.stm32-for-vscode/
 1719              		.file 4 "/Users/johannes/Library/Application Support/Code/User/globalStorage/bmd.stm32-for-vscode/
 1720              		.file 5 "Drivers/lvgl/src/misc/lv_lru.h"
 1721              		.file 6 "/Users/johannes/Library/Application Support/Code/User/globalStorage/bmd.stm32-for-vscode/
 1722              		.file 7 "Drivers/lvgl/src/misc/lv_math.h"
 1723              		.file 8 "Drivers/lvgl/src/misc/lv_mem.h"
 1724              		.file 9 "<built-in>"
ARM GAS  /var/folders/0z/tsy30v1j4xl4_7kw94k978ww0000gn/T//ccbD5QfV.s 			page 45


DEFINED SYMBOLS
                            *ABS*:0000000000000000 lv_lru.c
/var/folders/0z/tsy30v1j4xl4_7kw94k978ww0000gn/T//ccbD5QfV.s:20     .text.lv_lru_create:0000000000000000 $t
/var/folders/0z/tsy30v1j4xl4_7kw94k978ww0000gn/T//ccbD5QfV.s:27     .text.lv_lru_create:0000000000000000 lv_lru_create
/var/folders/0z/tsy30v1j4xl4_7kw94k978ww0000gn/T//ccbD5QfV.s:148    .text.lv_lru_create:0000000000000070 $d
/var/folders/0z/tsy30v1j4xl4_7kw94k978ww0000gn/T//ccbD5QfV.s:153    .text.lv_lru_del:0000000000000000 $t
/var/folders/0z/tsy30v1j4xl4_7kw94k978ww0000gn/T//ccbD5QfV.s:160    .text.lv_lru_del:0000000000000000 lv_lru_del
/var/folders/0z/tsy30v1j4xl4_7kw94k978ww0000gn/T//ccbD5QfV.s:311    .text.lv_lru_get:0000000000000000 $t
/var/folders/0z/tsy30v1j4xl4_7kw94k978ww0000gn/T//ccbD5QfV.s:318    .text.lv_lru_get:0000000000000000 lv_lru_get
/var/folders/0z/tsy30v1j4xl4_7kw94k978ww0000gn/T//ccbD5QfV.s:615    .text.lv_lru_get:00000000000000e8 $d
/var/folders/0z/tsy30v1j4xl4_7kw94k978ww0000gn/T//ccbD5QfV.s:622    .text.lv_lru_remove:0000000000000000 $t
/var/folders/0z/tsy30v1j4xl4_7kw94k978ww0000gn/T//ccbD5QfV.s:629    .text.lv_lru_remove:0000000000000000 lv_lru_remove
/var/folders/0z/tsy30v1j4xl4_7kw94k978ww0000gn/T//ccbD5QfV.s:995    .text.lv_lru_remove:0000000000000104 $d
/var/folders/0z/tsy30v1j4xl4_7kw94k978ww0000gn/T//ccbD5QfV.s:1002   .text.lv_lru_remove_lru_item:0000000000000000 $t
/var/folders/0z/tsy30v1j4xl4_7kw94k978ww0000gn/T//ccbD5QfV.s:1009   .text.lv_lru_remove_lru_item:0000000000000000 lv_lru_remove_lru_item
/var/folders/0z/tsy30v1j4xl4_7kw94k978ww0000gn/T//ccbD5QfV.s:1232   .text.lv_lru_set:0000000000000000 $t
/var/folders/0z/tsy30v1j4xl4_7kw94k978ww0000gn/T//ccbD5QfV.s:1239   .text.lv_lru_set:0000000000000000 lv_lru_set
/var/folders/0z/tsy30v1j4xl4_7kw94k978ww0000gn/T//ccbD5QfV.s:1711   .text.lv_lru_set:0000000000000188 $d

UNDEFINED SYMBOLS
lv_mem_alloc
lv_memset_00
lv_rand
lv_mem_free
memcmp
memcpy
