ARM GAS  /var/folders/lp/x54gwt890xv47sdkqj1k04q40000gn/T//ccVgM3G4.s 			page 1


   1              		.cpu cortex-m4
   2              		.arch armv7e-m
   3              		.fpu fpv4-sp-d16
   4              		.eabi_attribute 27, 1
   5              		.eabi_attribute 28, 1
   6              		.eabi_attribute 20, 1
   7              		.eabi_attribute 21, 1
   8              		.eabi_attribute 23, 3
   9              		.eabi_attribute 24, 1
  10              		.eabi_attribute 25, 1
  11              		.eabi_attribute 26, 1
  12              		.eabi_attribute 30, 2
  13              		.eabi_attribute 34, 1
  14              		.eabi_attribute 18, 4
  15              		.file	"lv_meter.c"
  16              		.text
  17              	.Ltext0:
  18              		.cfi_sections	.debug_frame
  19              		.file 1 "Drivers/lvgl/src/extra/widgets/meter/lv_meter.c"
  20              		.section	.text.lv_meter_destructor,"ax",%progbits
  21              		.align	1
  22              		.p2align 2,,3
  23              		.syntax unified
  24              		.thumb
  25              		.thumb_func
  27              	lv_meter_destructor:
  28              	.LVL0:
  29              	.LFB217:
   1:Drivers/lvgl/src/extra/widgets/meter/lv_meter.c **** /**
   2:Drivers/lvgl/src/extra/widgets/meter/lv_meter.c ****  * @file lv_meter.c
   3:Drivers/lvgl/src/extra/widgets/meter/lv_meter.c ****  *
   4:Drivers/lvgl/src/extra/widgets/meter/lv_meter.c ****  */
   5:Drivers/lvgl/src/extra/widgets/meter/lv_meter.c **** 
   6:Drivers/lvgl/src/extra/widgets/meter/lv_meter.c **** /*********************
   7:Drivers/lvgl/src/extra/widgets/meter/lv_meter.c ****  *      INCLUDES
   8:Drivers/lvgl/src/extra/widgets/meter/lv_meter.c ****  *********************/
   9:Drivers/lvgl/src/extra/widgets/meter/lv_meter.c **** #include "lv_meter.h"
  10:Drivers/lvgl/src/extra/widgets/meter/lv_meter.c **** #if LV_USE_METER != 0
  11:Drivers/lvgl/src/extra/widgets/meter/lv_meter.c **** 
  12:Drivers/lvgl/src/extra/widgets/meter/lv_meter.c **** #include "../../../misc/lv_assert.h"
  13:Drivers/lvgl/src/extra/widgets/meter/lv_meter.c **** 
  14:Drivers/lvgl/src/extra/widgets/meter/lv_meter.c **** /*********************
  15:Drivers/lvgl/src/extra/widgets/meter/lv_meter.c ****  *      DEFINES
  16:Drivers/lvgl/src/extra/widgets/meter/lv_meter.c ****  *********************/
  17:Drivers/lvgl/src/extra/widgets/meter/lv_meter.c **** #define MY_CLASS &lv_meter_class
  18:Drivers/lvgl/src/extra/widgets/meter/lv_meter.c **** 
  19:Drivers/lvgl/src/extra/widgets/meter/lv_meter.c **** /**********************
  20:Drivers/lvgl/src/extra/widgets/meter/lv_meter.c ****  *      TYPEDEFS
  21:Drivers/lvgl/src/extra/widgets/meter/lv_meter.c ****  **********************/
  22:Drivers/lvgl/src/extra/widgets/meter/lv_meter.c **** 
  23:Drivers/lvgl/src/extra/widgets/meter/lv_meter.c **** /**********************
  24:Drivers/lvgl/src/extra/widgets/meter/lv_meter.c ****  *  STATIC PROTOTYPES
  25:Drivers/lvgl/src/extra/widgets/meter/lv_meter.c ****  **********************/
  26:Drivers/lvgl/src/extra/widgets/meter/lv_meter.c **** static void lv_meter_constructor(const lv_obj_class_t * class_p, lv_obj_t * obj);
  27:Drivers/lvgl/src/extra/widgets/meter/lv_meter.c **** static void lv_meter_destructor(const lv_obj_class_t * class_p, lv_obj_t * obj);
  28:Drivers/lvgl/src/extra/widgets/meter/lv_meter.c **** static void lv_meter_event(const lv_obj_class_t * class_p, lv_event_t * e);
  29:Drivers/lvgl/src/extra/widgets/meter/lv_meter.c **** static void draw_arcs(lv_obj_t * obj, lv_draw_ctx_t * draw_ctx, const lv_area_t * scale_area);
ARM GAS  /var/folders/lp/x54gwt890xv47sdkqj1k04q40000gn/T//ccVgM3G4.s 			page 2


  30:Drivers/lvgl/src/extra/widgets/meter/lv_meter.c **** static void draw_ticks_and_labels(lv_obj_t * obj, lv_draw_ctx_t * draw_ctx, const lv_area_t * scale
  31:Drivers/lvgl/src/extra/widgets/meter/lv_meter.c **** static void draw_needles(lv_obj_t * obj, lv_draw_ctx_t * draw_ctx, const lv_area_t * scale_area);
  32:Drivers/lvgl/src/extra/widgets/meter/lv_meter.c **** static void inv_arc(lv_obj_t * obj, lv_meter_indicator_t * indic, int32_t old_value, int32_t new_va
  33:Drivers/lvgl/src/extra/widgets/meter/lv_meter.c **** static void inv_line(lv_obj_t * obj, lv_meter_indicator_t * indic, int32_t value);
  34:Drivers/lvgl/src/extra/widgets/meter/lv_meter.c **** 
  35:Drivers/lvgl/src/extra/widgets/meter/lv_meter.c **** /**********************
  36:Drivers/lvgl/src/extra/widgets/meter/lv_meter.c ****  *  STATIC VARIABLES
  37:Drivers/lvgl/src/extra/widgets/meter/lv_meter.c ****  **********************/
  38:Drivers/lvgl/src/extra/widgets/meter/lv_meter.c **** const lv_obj_class_t lv_meter_class = {
  39:Drivers/lvgl/src/extra/widgets/meter/lv_meter.c ****     .constructor_cb = lv_meter_constructor,
  40:Drivers/lvgl/src/extra/widgets/meter/lv_meter.c ****     .destructor_cb = lv_meter_destructor,
  41:Drivers/lvgl/src/extra/widgets/meter/lv_meter.c ****     .event_cb = lv_meter_event,
  42:Drivers/lvgl/src/extra/widgets/meter/lv_meter.c ****     .instance_size = sizeof(lv_meter_t),
  43:Drivers/lvgl/src/extra/widgets/meter/lv_meter.c ****     .base_class = &lv_obj_class
  44:Drivers/lvgl/src/extra/widgets/meter/lv_meter.c **** };
  45:Drivers/lvgl/src/extra/widgets/meter/lv_meter.c **** 
  46:Drivers/lvgl/src/extra/widgets/meter/lv_meter.c **** /**********************
  47:Drivers/lvgl/src/extra/widgets/meter/lv_meter.c ****  *      MACROS
  48:Drivers/lvgl/src/extra/widgets/meter/lv_meter.c ****  **********************/
  49:Drivers/lvgl/src/extra/widgets/meter/lv_meter.c **** 
  50:Drivers/lvgl/src/extra/widgets/meter/lv_meter.c **** /**********************
  51:Drivers/lvgl/src/extra/widgets/meter/lv_meter.c ****  *   GLOBAL FUNCTIONS
  52:Drivers/lvgl/src/extra/widgets/meter/lv_meter.c ****  **********************/
  53:Drivers/lvgl/src/extra/widgets/meter/lv_meter.c **** 
  54:Drivers/lvgl/src/extra/widgets/meter/lv_meter.c **** lv_obj_t * lv_meter_create(lv_obj_t * parent)
  55:Drivers/lvgl/src/extra/widgets/meter/lv_meter.c **** {
  56:Drivers/lvgl/src/extra/widgets/meter/lv_meter.c ****     LV_LOG_INFO("begin");
  57:Drivers/lvgl/src/extra/widgets/meter/lv_meter.c ****     lv_obj_t * obj = lv_obj_class_create_obj(MY_CLASS, parent);
  58:Drivers/lvgl/src/extra/widgets/meter/lv_meter.c ****     lv_obj_class_init_obj(obj);
  59:Drivers/lvgl/src/extra/widgets/meter/lv_meter.c ****     return obj;
  60:Drivers/lvgl/src/extra/widgets/meter/lv_meter.c **** }
  61:Drivers/lvgl/src/extra/widgets/meter/lv_meter.c **** 
  62:Drivers/lvgl/src/extra/widgets/meter/lv_meter.c **** /*=====================
  63:Drivers/lvgl/src/extra/widgets/meter/lv_meter.c ****  * Add scale
  64:Drivers/lvgl/src/extra/widgets/meter/lv_meter.c ****  *====================*/
  65:Drivers/lvgl/src/extra/widgets/meter/lv_meter.c **** 
  66:Drivers/lvgl/src/extra/widgets/meter/lv_meter.c **** lv_meter_scale_t * lv_meter_add_scale(lv_obj_t * obj)
  67:Drivers/lvgl/src/extra/widgets/meter/lv_meter.c **** {
  68:Drivers/lvgl/src/extra/widgets/meter/lv_meter.c ****     LV_ASSERT_OBJ(obj, MY_CLASS);
  69:Drivers/lvgl/src/extra/widgets/meter/lv_meter.c ****     lv_meter_t * meter = (lv_meter_t *)obj;
  70:Drivers/lvgl/src/extra/widgets/meter/lv_meter.c **** 
  71:Drivers/lvgl/src/extra/widgets/meter/lv_meter.c ****     lv_meter_scale_t * scale = _lv_ll_ins_head(&meter->scale_ll);
  72:Drivers/lvgl/src/extra/widgets/meter/lv_meter.c ****     LV_ASSERT_MALLOC(scale);
  73:Drivers/lvgl/src/extra/widgets/meter/lv_meter.c ****     lv_memset_00(scale, sizeof(lv_meter_scale_t));
  74:Drivers/lvgl/src/extra/widgets/meter/lv_meter.c **** 
  75:Drivers/lvgl/src/extra/widgets/meter/lv_meter.c ****     scale->angle_range = 270;
  76:Drivers/lvgl/src/extra/widgets/meter/lv_meter.c ****     scale->rotation = 90 + (360 - scale->angle_range) / 2;
  77:Drivers/lvgl/src/extra/widgets/meter/lv_meter.c ****     scale->min = 0;
  78:Drivers/lvgl/src/extra/widgets/meter/lv_meter.c ****     scale->max = 100;
  79:Drivers/lvgl/src/extra/widgets/meter/lv_meter.c ****     scale->tick_cnt = 6;
  80:Drivers/lvgl/src/extra/widgets/meter/lv_meter.c ****     scale->tick_length = 8;
  81:Drivers/lvgl/src/extra/widgets/meter/lv_meter.c ****     scale->tick_width = 2;
  82:Drivers/lvgl/src/extra/widgets/meter/lv_meter.c ****     scale->label_gap = 2;
  83:Drivers/lvgl/src/extra/widgets/meter/lv_meter.c **** 
  84:Drivers/lvgl/src/extra/widgets/meter/lv_meter.c ****     return scale;
  85:Drivers/lvgl/src/extra/widgets/meter/lv_meter.c **** }
  86:Drivers/lvgl/src/extra/widgets/meter/lv_meter.c **** 
ARM GAS  /var/folders/lp/x54gwt890xv47sdkqj1k04q40000gn/T//ccVgM3G4.s 			page 3


  87:Drivers/lvgl/src/extra/widgets/meter/lv_meter.c **** void lv_meter_set_scale_ticks(lv_obj_t * obj, lv_meter_scale_t * scale, uint16_t cnt, uint16_t widt
  88:Drivers/lvgl/src/extra/widgets/meter/lv_meter.c ****                               lv_color_t color)
  89:Drivers/lvgl/src/extra/widgets/meter/lv_meter.c **** {
  90:Drivers/lvgl/src/extra/widgets/meter/lv_meter.c ****     scale->tick_cnt = cnt;
  91:Drivers/lvgl/src/extra/widgets/meter/lv_meter.c ****     scale->tick_width = width;
  92:Drivers/lvgl/src/extra/widgets/meter/lv_meter.c ****     scale->tick_length = len;
  93:Drivers/lvgl/src/extra/widgets/meter/lv_meter.c ****     scale->tick_color = color;
  94:Drivers/lvgl/src/extra/widgets/meter/lv_meter.c ****     lv_obj_invalidate(obj);
  95:Drivers/lvgl/src/extra/widgets/meter/lv_meter.c **** }
  96:Drivers/lvgl/src/extra/widgets/meter/lv_meter.c **** 
  97:Drivers/lvgl/src/extra/widgets/meter/lv_meter.c **** void lv_meter_set_scale_major_ticks(lv_obj_t * obj, lv_meter_scale_t * scale, uint16_t nth, uint16_
  98:Drivers/lvgl/src/extra/widgets/meter/lv_meter.c ****                                     uint16_t len, lv_color_t color, int16_t label_gap)
  99:Drivers/lvgl/src/extra/widgets/meter/lv_meter.c **** {
 100:Drivers/lvgl/src/extra/widgets/meter/lv_meter.c ****     scale->tick_major_nth = nth;
 101:Drivers/lvgl/src/extra/widgets/meter/lv_meter.c ****     scale->tick_major_width = width;
 102:Drivers/lvgl/src/extra/widgets/meter/lv_meter.c ****     scale->tick_major_length = len;
 103:Drivers/lvgl/src/extra/widgets/meter/lv_meter.c ****     scale->tick_major_color = color;
 104:Drivers/lvgl/src/extra/widgets/meter/lv_meter.c ****     scale->label_gap = label_gap;
 105:Drivers/lvgl/src/extra/widgets/meter/lv_meter.c ****     lv_obj_invalidate(obj);
 106:Drivers/lvgl/src/extra/widgets/meter/lv_meter.c **** }
 107:Drivers/lvgl/src/extra/widgets/meter/lv_meter.c **** 
 108:Drivers/lvgl/src/extra/widgets/meter/lv_meter.c **** void lv_meter_set_scale_range(lv_obj_t * obj, lv_meter_scale_t * scale, int32_t min, int32_t max, u
 109:Drivers/lvgl/src/extra/widgets/meter/lv_meter.c ****                               uint32_t rotation)
 110:Drivers/lvgl/src/extra/widgets/meter/lv_meter.c **** {
 111:Drivers/lvgl/src/extra/widgets/meter/lv_meter.c ****     scale->min = min;
 112:Drivers/lvgl/src/extra/widgets/meter/lv_meter.c ****     scale->max = max;
 113:Drivers/lvgl/src/extra/widgets/meter/lv_meter.c ****     scale->angle_range = angle_range;
 114:Drivers/lvgl/src/extra/widgets/meter/lv_meter.c ****     scale->rotation = rotation;
 115:Drivers/lvgl/src/extra/widgets/meter/lv_meter.c ****     lv_obj_invalidate(obj);
 116:Drivers/lvgl/src/extra/widgets/meter/lv_meter.c **** }
 117:Drivers/lvgl/src/extra/widgets/meter/lv_meter.c **** 
 118:Drivers/lvgl/src/extra/widgets/meter/lv_meter.c **** /*=====================
 119:Drivers/lvgl/src/extra/widgets/meter/lv_meter.c ****  * Add indicator
 120:Drivers/lvgl/src/extra/widgets/meter/lv_meter.c ****  *====================*/
 121:Drivers/lvgl/src/extra/widgets/meter/lv_meter.c **** 
 122:Drivers/lvgl/src/extra/widgets/meter/lv_meter.c **** lv_meter_indicator_t * lv_meter_add_needle_line(lv_obj_t * obj, lv_meter_scale_t * scale, uint16_t 
 123:Drivers/lvgl/src/extra/widgets/meter/lv_meter.c ****                                                 lv_color_t color, int16_t r_mod)
 124:Drivers/lvgl/src/extra/widgets/meter/lv_meter.c **** {
 125:Drivers/lvgl/src/extra/widgets/meter/lv_meter.c ****     LV_ASSERT_OBJ(obj, MY_CLASS);
 126:Drivers/lvgl/src/extra/widgets/meter/lv_meter.c ****     lv_meter_t * meter = (lv_meter_t *)obj;
 127:Drivers/lvgl/src/extra/widgets/meter/lv_meter.c ****     lv_meter_indicator_t * indic = _lv_ll_ins_head(&meter->indicator_ll);
 128:Drivers/lvgl/src/extra/widgets/meter/lv_meter.c ****     LV_ASSERT_MALLOC(indic);
 129:Drivers/lvgl/src/extra/widgets/meter/lv_meter.c ****     lv_memset_00(indic, sizeof(lv_meter_indicator_t));
 130:Drivers/lvgl/src/extra/widgets/meter/lv_meter.c ****     indic->scale = scale;
 131:Drivers/lvgl/src/extra/widgets/meter/lv_meter.c ****     indic->opa = LV_OPA_COVER;
 132:Drivers/lvgl/src/extra/widgets/meter/lv_meter.c **** 
 133:Drivers/lvgl/src/extra/widgets/meter/lv_meter.c ****     indic->type = LV_METER_INDICATOR_TYPE_NEEDLE_LINE;
 134:Drivers/lvgl/src/extra/widgets/meter/lv_meter.c ****     indic->type_data.needle_line.width = width;
 135:Drivers/lvgl/src/extra/widgets/meter/lv_meter.c ****     indic->type_data.needle_line.color = color;
 136:Drivers/lvgl/src/extra/widgets/meter/lv_meter.c ****     indic->type_data.needle_line.r_mod = r_mod;
 137:Drivers/lvgl/src/extra/widgets/meter/lv_meter.c ****     lv_obj_invalidate(obj);
 138:Drivers/lvgl/src/extra/widgets/meter/lv_meter.c **** 
 139:Drivers/lvgl/src/extra/widgets/meter/lv_meter.c ****     return indic;
 140:Drivers/lvgl/src/extra/widgets/meter/lv_meter.c **** }
 141:Drivers/lvgl/src/extra/widgets/meter/lv_meter.c **** 
 142:Drivers/lvgl/src/extra/widgets/meter/lv_meter.c **** lv_meter_indicator_t * lv_meter_add_needle_img(lv_obj_t * obj, lv_meter_scale_t * scale, const void
 143:Drivers/lvgl/src/extra/widgets/meter/lv_meter.c ****                                                lv_coord_t pivot_x, lv_coord_t pivot_y)
ARM GAS  /var/folders/lp/x54gwt890xv47sdkqj1k04q40000gn/T//ccVgM3G4.s 			page 4


 144:Drivers/lvgl/src/extra/widgets/meter/lv_meter.c **** {
 145:Drivers/lvgl/src/extra/widgets/meter/lv_meter.c ****     LV_ASSERT_OBJ(obj, MY_CLASS);
 146:Drivers/lvgl/src/extra/widgets/meter/lv_meter.c ****     lv_meter_t * meter = (lv_meter_t *)obj;
 147:Drivers/lvgl/src/extra/widgets/meter/lv_meter.c ****     lv_meter_indicator_t * indic = _lv_ll_ins_head(&meter->indicator_ll);
 148:Drivers/lvgl/src/extra/widgets/meter/lv_meter.c ****     LV_ASSERT_MALLOC(indic);
 149:Drivers/lvgl/src/extra/widgets/meter/lv_meter.c ****     lv_memset_00(indic, sizeof(lv_meter_indicator_t));
 150:Drivers/lvgl/src/extra/widgets/meter/lv_meter.c ****     indic->scale = scale;
 151:Drivers/lvgl/src/extra/widgets/meter/lv_meter.c ****     indic->opa = LV_OPA_COVER;
 152:Drivers/lvgl/src/extra/widgets/meter/lv_meter.c **** 
 153:Drivers/lvgl/src/extra/widgets/meter/lv_meter.c ****     indic->type = LV_METER_INDICATOR_TYPE_NEEDLE_IMG;
 154:Drivers/lvgl/src/extra/widgets/meter/lv_meter.c ****     indic->type_data.needle_img.src = src;
 155:Drivers/lvgl/src/extra/widgets/meter/lv_meter.c ****     indic->type_data.needle_img.pivot.x = pivot_x;
 156:Drivers/lvgl/src/extra/widgets/meter/lv_meter.c ****     indic->type_data.needle_img.pivot.y = pivot_y;
 157:Drivers/lvgl/src/extra/widgets/meter/lv_meter.c ****     lv_obj_invalidate(obj);
 158:Drivers/lvgl/src/extra/widgets/meter/lv_meter.c **** 
 159:Drivers/lvgl/src/extra/widgets/meter/lv_meter.c ****     return indic;
 160:Drivers/lvgl/src/extra/widgets/meter/lv_meter.c **** }
 161:Drivers/lvgl/src/extra/widgets/meter/lv_meter.c **** 
 162:Drivers/lvgl/src/extra/widgets/meter/lv_meter.c **** lv_meter_indicator_t * lv_meter_add_arc(lv_obj_t * obj, lv_meter_scale_t * scale, uint16_t width, l
 163:Drivers/lvgl/src/extra/widgets/meter/lv_meter.c ****                                         int16_t r_mod)
 164:Drivers/lvgl/src/extra/widgets/meter/lv_meter.c **** {
 165:Drivers/lvgl/src/extra/widgets/meter/lv_meter.c ****     LV_ASSERT_OBJ(obj, MY_CLASS);
 166:Drivers/lvgl/src/extra/widgets/meter/lv_meter.c ****     lv_meter_t * meter = (lv_meter_t *)obj;
 167:Drivers/lvgl/src/extra/widgets/meter/lv_meter.c ****     lv_meter_indicator_t * indic = _lv_ll_ins_head(&meter->indicator_ll);
 168:Drivers/lvgl/src/extra/widgets/meter/lv_meter.c ****     LV_ASSERT_MALLOC(indic);
 169:Drivers/lvgl/src/extra/widgets/meter/lv_meter.c ****     lv_memset_00(indic, sizeof(lv_meter_indicator_t));
 170:Drivers/lvgl/src/extra/widgets/meter/lv_meter.c ****     indic->scale = scale;
 171:Drivers/lvgl/src/extra/widgets/meter/lv_meter.c ****     indic->opa = LV_OPA_COVER;
 172:Drivers/lvgl/src/extra/widgets/meter/lv_meter.c **** 
 173:Drivers/lvgl/src/extra/widgets/meter/lv_meter.c ****     indic->type = LV_METER_INDICATOR_TYPE_ARC;
 174:Drivers/lvgl/src/extra/widgets/meter/lv_meter.c ****     indic->type_data.arc.width = width;
 175:Drivers/lvgl/src/extra/widgets/meter/lv_meter.c ****     indic->type_data.arc.color = color;
 176:Drivers/lvgl/src/extra/widgets/meter/lv_meter.c ****     indic->type_data.arc.r_mod = r_mod;
 177:Drivers/lvgl/src/extra/widgets/meter/lv_meter.c **** 
 178:Drivers/lvgl/src/extra/widgets/meter/lv_meter.c ****     lv_obj_invalidate(obj);
 179:Drivers/lvgl/src/extra/widgets/meter/lv_meter.c ****     return indic;
 180:Drivers/lvgl/src/extra/widgets/meter/lv_meter.c **** }
 181:Drivers/lvgl/src/extra/widgets/meter/lv_meter.c **** 
 182:Drivers/lvgl/src/extra/widgets/meter/lv_meter.c **** lv_meter_indicator_t * lv_meter_add_scale_lines(lv_obj_t * obj, lv_meter_scale_t * scale, lv_color_
 183:Drivers/lvgl/src/extra/widgets/meter/lv_meter.c ****                                                 lv_color_t color_end, bool local, int16_t width_mod
 184:Drivers/lvgl/src/extra/widgets/meter/lv_meter.c **** {
 185:Drivers/lvgl/src/extra/widgets/meter/lv_meter.c ****     LV_ASSERT_OBJ(obj, MY_CLASS);
 186:Drivers/lvgl/src/extra/widgets/meter/lv_meter.c ****     lv_meter_t * meter = (lv_meter_t *)obj;
 187:Drivers/lvgl/src/extra/widgets/meter/lv_meter.c ****     lv_meter_indicator_t * indic = _lv_ll_ins_head(&meter->indicator_ll);
 188:Drivers/lvgl/src/extra/widgets/meter/lv_meter.c ****     LV_ASSERT_MALLOC(indic);
 189:Drivers/lvgl/src/extra/widgets/meter/lv_meter.c ****     lv_memset_00(indic, sizeof(lv_meter_indicator_t));
 190:Drivers/lvgl/src/extra/widgets/meter/lv_meter.c ****     indic->scale = scale;
 191:Drivers/lvgl/src/extra/widgets/meter/lv_meter.c ****     indic->opa = LV_OPA_COVER;
 192:Drivers/lvgl/src/extra/widgets/meter/lv_meter.c **** 
 193:Drivers/lvgl/src/extra/widgets/meter/lv_meter.c ****     indic->type = LV_METER_INDICATOR_TYPE_SCALE_LINES;
 194:Drivers/lvgl/src/extra/widgets/meter/lv_meter.c ****     indic->type_data.scale_lines.color_start = color_start;
 195:Drivers/lvgl/src/extra/widgets/meter/lv_meter.c ****     indic->type_data.scale_lines.color_end = color_end;
 196:Drivers/lvgl/src/extra/widgets/meter/lv_meter.c ****     indic->type_data.scale_lines.local_grad = local;
 197:Drivers/lvgl/src/extra/widgets/meter/lv_meter.c ****     indic->type_data.scale_lines.width_mod = width_mod;
 198:Drivers/lvgl/src/extra/widgets/meter/lv_meter.c **** 
 199:Drivers/lvgl/src/extra/widgets/meter/lv_meter.c ****     lv_obj_invalidate(obj);
 200:Drivers/lvgl/src/extra/widgets/meter/lv_meter.c ****     return indic;
ARM GAS  /var/folders/lp/x54gwt890xv47sdkqj1k04q40000gn/T//ccVgM3G4.s 			page 5


 201:Drivers/lvgl/src/extra/widgets/meter/lv_meter.c **** }
 202:Drivers/lvgl/src/extra/widgets/meter/lv_meter.c **** 
 203:Drivers/lvgl/src/extra/widgets/meter/lv_meter.c **** /*=====================
 204:Drivers/lvgl/src/extra/widgets/meter/lv_meter.c ****  * Set indicator value
 205:Drivers/lvgl/src/extra/widgets/meter/lv_meter.c ****  *====================*/
 206:Drivers/lvgl/src/extra/widgets/meter/lv_meter.c **** 
 207:Drivers/lvgl/src/extra/widgets/meter/lv_meter.c **** void lv_meter_set_indicator_value(lv_obj_t * obj, lv_meter_indicator_t * indic, int32_t value)
 208:Drivers/lvgl/src/extra/widgets/meter/lv_meter.c **** {
 209:Drivers/lvgl/src/extra/widgets/meter/lv_meter.c ****     int32_t old_start = indic->start_value;
 210:Drivers/lvgl/src/extra/widgets/meter/lv_meter.c ****     int32_t old_end = indic->end_value;
 211:Drivers/lvgl/src/extra/widgets/meter/lv_meter.c ****     indic->start_value = value;
 212:Drivers/lvgl/src/extra/widgets/meter/lv_meter.c ****     indic->end_value = value;
 213:Drivers/lvgl/src/extra/widgets/meter/lv_meter.c **** 
 214:Drivers/lvgl/src/extra/widgets/meter/lv_meter.c ****     if(indic->type == LV_METER_INDICATOR_TYPE_ARC) {
 215:Drivers/lvgl/src/extra/widgets/meter/lv_meter.c ****         inv_arc(obj, indic, old_start, value);
 216:Drivers/lvgl/src/extra/widgets/meter/lv_meter.c ****         inv_arc(obj, indic, old_end, value);
 217:Drivers/lvgl/src/extra/widgets/meter/lv_meter.c ****     }
 218:Drivers/lvgl/src/extra/widgets/meter/lv_meter.c ****     else if(indic->type == LV_METER_INDICATOR_TYPE_NEEDLE_IMG || indic->type == LV_METER_INDICATOR_
 219:Drivers/lvgl/src/extra/widgets/meter/lv_meter.c ****         inv_line(obj, indic, old_start);
 220:Drivers/lvgl/src/extra/widgets/meter/lv_meter.c ****         inv_line(obj, indic, old_end);
 221:Drivers/lvgl/src/extra/widgets/meter/lv_meter.c ****         inv_line(obj, indic, value);
 222:Drivers/lvgl/src/extra/widgets/meter/lv_meter.c ****     }
 223:Drivers/lvgl/src/extra/widgets/meter/lv_meter.c ****     else {
 224:Drivers/lvgl/src/extra/widgets/meter/lv_meter.c ****         lv_obj_invalidate(obj);
 225:Drivers/lvgl/src/extra/widgets/meter/lv_meter.c ****     }
 226:Drivers/lvgl/src/extra/widgets/meter/lv_meter.c **** }
 227:Drivers/lvgl/src/extra/widgets/meter/lv_meter.c **** 
 228:Drivers/lvgl/src/extra/widgets/meter/lv_meter.c **** void lv_meter_set_indicator_start_value(lv_obj_t * obj, lv_meter_indicator_t * indic, int32_t value
 229:Drivers/lvgl/src/extra/widgets/meter/lv_meter.c **** {
 230:Drivers/lvgl/src/extra/widgets/meter/lv_meter.c ****     int32_t old_value = indic->start_value;
 231:Drivers/lvgl/src/extra/widgets/meter/lv_meter.c ****     indic->start_value = value;
 232:Drivers/lvgl/src/extra/widgets/meter/lv_meter.c **** 
 233:Drivers/lvgl/src/extra/widgets/meter/lv_meter.c ****     if(indic->type == LV_METER_INDICATOR_TYPE_ARC) {
 234:Drivers/lvgl/src/extra/widgets/meter/lv_meter.c ****         inv_arc(obj, indic, old_value, value);
 235:Drivers/lvgl/src/extra/widgets/meter/lv_meter.c ****     }
 236:Drivers/lvgl/src/extra/widgets/meter/lv_meter.c ****     else if(indic->type == LV_METER_INDICATOR_TYPE_NEEDLE_IMG || indic->type == LV_METER_INDICATOR_
 237:Drivers/lvgl/src/extra/widgets/meter/lv_meter.c ****         inv_line(obj, indic, old_value);
 238:Drivers/lvgl/src/extra/widgets/meter/lv_meter.c ****         inv_line(obj, indic, value);
 239:Drivers/lvgl/src/extra/widgets/meter/lv_meter.c ****     }
 240:Drivers/lvgl/src/extra/widgets/meter/lv_meter.c ****     else {
 241:Drivers/lvgl/src/extra/widgets/meter/lv_meter.c ****         lv_obj_invalidate(obj);
 242:Drivers/lvgl/src/extra/widgets/meter/lv_meter.c ****     }
 243:Drivers/lvgl/src/extra/widgets/meter/lv_meter.c **** }
 244:Drivers/lvgl/src/extra/widgets/meter/lv_meter.c **** 
 245:Drivers/lvgl/src/extra/widgets/meter/lv_meter.c **** void lv_meter_set_indicator_end_value(lv_obj_t * obj, lv_meter_indicator_t * indic, int32_t value)
 246:Drivers/lvgl/src/extra/widgets/meter/lv_meter.c **** {
 247:Drivers/lvgl/src/extra/widgets/meter/lv_meter.c ****     int32_t old_value = indic->end_value;
 248:Drivers/lvgl/src/extra/widgets/meter/lv_meter.c ****     indic->end_value = value;
 249:Drivers/lvgl/src/extra/widgets/meter/lv_meter.c **** 
 250:Drivers/lvgl/src/extra/widgets/meter/lv_meter.c ****     if(indic->type == LV_METER_INDICATOR_TYPE_ARC) {
 251:Drivers/lvgl/src/extra/widgets/meter/lv_meter.c ****         inv_arc(obj, indic, old_value, value);
 252:Drivers/lvgl/src/extra/widgets/meter/lv_meter.c ****     }
 253:Drivers/lvgl/src/extra/widgets/meter/lv_meter.c ****     else if(indic->type == LV_METER_INDICATOR_TYPE_NEEDLE_IMG || indic->type == LV_METER_INDICATOR_
 254:Drivers/lvgl/src/extra/widgets/meter/lv_meter.c ****         inv_line(obj, indic, old_value);
 255:Drivers/lvgl/src/extra/widgets/meter/lv_meter.c ****         inv_line(obj, indic, value);
 256:Drivers/lvgl/src/extra/widgets/meter/lv_meter.c ****     }
 257:Drivers/lvgl/src/extra/widgets/meter/lv_meter.c ****     else {
ARM GAS  /var/folders/lp/x54gwt890xv47sdkqj1k04q40000gn/T//ccVgM3G4.s 			page 6


 258:Drivers/lvgl/src/extra/widgets/meter/lv_meter.c ****         lv_obj_invalidate(obj);
 259:Drivers/lvgl/src/extra/widgets/meter/lv_meter.c ****     }
 260:Drivers/lvgl/src/extra/widgets/meter/lv_meter.c **** }
 261:Drivers/lvgl/src/extra/widgets/meter/lv_meter.c **** 
 262:Drivers/lvgl/src/extra/widgets/meter/lv_meter.c **** /**********************
 263:Drivers/lvgl/src/extra/widgets/meter/lv_meter.c ****  *   STATIC FUNCTIONS
 264:Drivers/lvgl/src/extra/widgets/meter/lv_meter.c ****  **********************/
 265:Drivers/lvgl/src/extra/widgets/meter/lv_meter.c **** 
 266:Drivers/lvgl/src/extra/widgets/meter/lv_meter.c **** static void lv_meter_constructor(const lv_obj_class_t * class_p, lv_obj_t * obj)
 267:Drivers/lvgl/src/extra/widgets/meter/lv_meter.c **** {
 268:Drivers/lvgl/src/extra/widgets/meter/lv_meter.c ****     LV_UNUSED(class_p);
 269:Drivers/lvgl/src/extra/widgets/meter/lv_meter.c ****     LV_TRACE_OBJ_CREATE("begin");
 270:Drivers/lvgl/src/extra/widgets/meter/lv_meter.c **** 
 271:Drivers/lvgl/src/extra/widgets/meter/lv_meter.c ****     lv_meter_t * meter = (lv_meter_t *)obj;
 272:Drivers/lvgl/src/extra/widgets/meter/lv_meter.c **** 
 273:Drivers/lvgl/src/extra/widgets/meter/lv_meter.c ****     _lv_ll_init(&meter->scale_ll, sizeof(lv_meter_scale_t));
 274:Drivers/lvgl/src/extra/widgets/meter/lv_meter.c ****     _lv_ll_init(&meter->indicator_ll, sizeof(lv_meter_indicator_t));
 275:Drivers/lvgl/src/extra/widgets/meter/lv_meter.c **** 
 276:Drivers/lvgl/src/extra/widgets/meter/lv_meter.c ****     LV_TRACE_OBJ_CREATE("finished");
 277:Drivers/lvgl/src/extra/widgets/meter/lv_meter.c **** }
 278:Drivers/lvgl/src/extra/widgets/meter/lv_meter.c **** 
 279:Drivers/lvgl/src/extra/widgets/meter/lv_meter.c **** static void lv_meter_destructor(const lv_obj_class_t * class_p, lv_obj_t * obj)
 280:Drivers/lvgl/src/extra/widgets/meter/lv_meter.c **** {
  30              		.loc 1 280 1 view -0
  31              		.cfi_startproc
  32              		@ args = 0, pretend = 0, frame = 0
  33              		@ frame_needed = 0, uses_anonymous_args = 0
 281:Drivers/lvgl/src/extra/widgets/meter/lv_meter.c ****     LV_UNUSED(class_p);
  34              		.loc 1 281 5 view .LVU1
 282:Drivers/lvgl/src/extra/widgets/meter/lv_meter.c ****     LV_ASSERT_OBJ(obj, MY_CLASS);
  35              		.loc 1 282 5 view .LVU2
  36              		.loc 1 282 5 view .LVU3
  37              		.loc 1 282 5 view .LVU4
 283:Drivers/lvgl/src/extra/widgets/meter/lv_meter.c ****     lv_meter_t * meter = (lv_meter_t *)obj;
  38              		.loc 1 283 5 view .LVU5
 280:Drivers/lvgl/src/extra/widgets/meter/lv_meter.c ****     LV_UNUSED(class_p);
  39              		.loc 1 280 1 is_stmt 0 view .LVU6
  40 0000 10B5     		push	{r4, lr}
  41              		.cfi_def_cfa_offset 8
  42              		.cfi_offset 4, -8
  43              		.cfi_offset 14, -4
 284:Drivers/lvgl/src/extra/widgets/meter/lv_meter.c ****     _lv_ll_clear(&meter->indicator_ll);
  44              		.loc 1 284 5 view .LVU7
  45 0002 01F13000 		add	r0, r1, #48
  46              	.LVL1:
 280:Drivers/lvgl/src/extra/widgets/meter/lv_meter.c ****     LV_UNUSED(class_p);
  47              		.loc 1 280 1 view .LVU8
  48 0006 0C46     		mov	r4, r1
  49              	.LVL2:
  50              		.loc 1 284 5 is_stmt 1 view .LVU9
  51 0008 FFF7FEFF 		bl	_lv_ll_clear
  52              	.LVL3:
 285:Drivers/lvgl/src/extra/widgets/meter/lv_meter.c ****     _lv_ll_clear(&meter->scale_ll);
  53              		.loc 1 285 5 view .LVU10
  54 000c 04F12400 		add	r0, r4, #36
 286:Drivers/lvgl/src/extra/widgets/meter/lv_meter.c **** 
 287:Drivers/lvgl/src/extra/widgets/meter/lv_meter.c **** }
ARM GAS  /var/folders/lp/x54gwt890xv47sdkqj1k04q40000gn/T//ccVgM3G4.s 			page 7


  55              		.loc 1 287 1 is_stmt 0 view .LVU11
  56 0010 BDE81040 		pop	{r4, lr}
  57              		.cfi_restore 14
  58              		.cfi_restore 4
  59              		.cfi_def_cfa_offset 0
  60              	.LVL4:
 285:Drivers/lvgl/src/extra/widgets/meter/lv_meter.c ****     _lv_ll_clear(&meter->scale_ll);
  61              		.loc 1 285 5 view .LVU12
  62 0014 FFF7FEBF 		b	_lv_ll_clear
  63              	.LVL5:
 285:Drivers/lvgl/src/extra/widgets/meter/lv_meter.c ****     _lv_ll_clear(&meter->scale_ll);
  64              		.loc 1 285 5 view .LVU13
  65              		.cfi_endproc
  66              	.LFE217:
  68              		.section	.text.lv_meter_constructor,"ax",%progbits
  69              		.align	1
  70              		.p2align 2,,3
  71              		.syntax unified
  72              		.thumb
  73              		.thumb_func
  75              	lv_meter_constructor:
  76              	.LVL6:
  77              	.LFB216:
 267:Drivers/lvgl/src/extra/widgets/meter/lv_meter.c ****     LV_UNUSED(class_p);
  78              		.loc 1 267 1 is_stmt 1 view -0
  79              		.cfi_startproc
  80              		@ args = 0, pretend = 0, frame = 0
  81              		@ frame_needed = 0, uses_anonymous_args = 0
 268:Drivers/lvgl/src/extra/widgets/meter/lv_meter.c ****     LV_TRACE_OBJ_CREATE("begin");
  82              		.loc 1 268 5 view .LVU15
 269:Drivers/lvgl/src/extra/widgets/meter/lv_meter.c **** 
  83              		.loc 1 269 33 view .LVU16
 271:Drivers/lvgl/src/extra/widgets/meter/lv_meter.c **** 
  84              		.loc 1 271 5 view .LVU17
 267:Drivers/lvgl/src/extra/widgets/meter/lv_meter.c ****     LV_UNUSED(class_p);
  85              		.loc 1 267 1 is_stmt 0 view .LVU18
  86 0000 10B5     		push	{r4, lr}
  87              		.cfi_def_cfa_offset 8
  88              		.cfi_offset 4, -8
  89              		.cfi_offset 14, -4
 267:Drivers/lvgl/src/extra/widgets/meter/lv_meter.c ****     LV_UNUSED(class_p);
  90              		.loc 1 267 1 view .LVU19
  91 0002 0C46     		mov	r4, r1
  92              	.LVL7:
 273:Drivers/lvgl/src/extra/widgets/meter/lv_meter.c ****     _lv_ll_init(&meter->indicator_ll, sizeof(lv_meter_indicator_t));
  93              		.loc 1 273 5 is_stmt 1 view .LVU20
  94 0004 2421     		movs	r1, #36
  95              	.LVL8:
 273:Drivers/lvgl/src/extra/widgets/meter/lv_meter.c ****     _lv_ll_init(&meter->indicator_ll, sizeof(lv_meter_indicator_t));
  96              		.loc 1 273 5 is_stmt 0 view .LVU21
  97 0006 6018     		adds	r0, r4, r1
  98              	.LVL9:
 273:Drivers/lvgl/src/extra/widgets/meter/lv_meter.c ****     _lv_ll_init(&meter->indicator_ll, sizeof(lv_meter_indicator_t));
  99              		.loc 1 273 5 view .LVU22
 100 0008 FFF7FEFF 		bl	_lv_ll_init
 101              	.LVL10:
 274:Drivers/lvgl/src/extra/widgets/meter/lv_meter.c **** 
ARM GAS  /var/folders/lp/x54gwt890xv47sdkqj1k04q40000gn/T//ccVgM3G4.s 			page 8


 102              		.loc 1 274 5 is_stmt 1 view .LVU23
 103 000c 04F13000 		add	r0, r4, #48
 104 0010 1C21     		movs	r1, #28
 277:Drivers/lvgl/src/extra/widgets/meter/lv_meter.c **** 
 105              		.loc 1 277 1 is_stmt 0 view .LVU24
 106 0012 BDE81040 		pop	{r4, lr}
 107              		.cfi_restore 14
 108              		.cfi_restore 4
 109              		.cfi_def_cfa_offset 0
 110              	.LVL11:
 274:Drivers/lvgl/src/extra/widgets/meter/lv_meter.c **** 
 111              		.loc 1 274 5 view .LVU25
 112 0016 FFF7FEBF 		b	_lv_ll_init
 113              	.LVL12:
 274:Drivers/lvgl/src/extra/widgets/meter/lv_meter.c **** 
 114              		.loc 1 274 5 view .LVU26
 115              		.cfi_endproc
 116              	.LFE216:
 118 001a 00BF     		.section	.text.inv_arc,"ax",%progbits
 119              		.align	1
 120              		.p2align 2,,3
 121              		.syntax unified
 122              		.thumb
 123              		.thumb_func
 125              	inv_arc:
 126              	.LVL13:
 127              	.LFB222:
 288:Drivers/lvgl/src/extra/widgets/meter/lv_meter.c **** 
 289:Drivers/lvgl/src/extra/widgets/meter/lv_meter.c **** static void lv_meter_event(const lv_obj_class_t * class_p, lv_event_t * e)
 290:Drivers/lvgl/src/extra/widgets/meter/lv_meter.c **** {
 291:Drivers/lvgl/src/extra/widgets/meter/lv_meter.c ****     LV_UNUSED(class_p);
 292:Drivers/lvgl/src/extra/widgets/meter/lv_meter.c **** 
 293:Drivers/lvgl/src/extra/widgets/meter/lv_meter.c ****     lv_res_t res = lv_obj_event_base(MY_CLASS, e);
 294:Drivers/lvgl/src/extra/widgets/meter/lv_meter.c ****     if(res != LV_RES_OK) return;
 295:Drivers/lvgl/src/extra/widgets/meter/lv_meter.c **** 
 296:Drivers/lvgl/src/extra/widgets/meter/lv_meter.c ****     lv_event_code_t code = lv_event_get_code(e);
 297:Drivers/lvgl/src/extra/widgets/meter/lv_meter.c ****     lv_obj_t * obj = lv_event_get_target(e);
 298:Drivers/lvgl/src/extra/widgets/meter/lv_meter.c ****     if(code == LV_EVENT_DRAW_MAIN) {
 299:Drivers/lvgl/src/extra/widgets/meter/lv_meter.c ****         lv_draw_ctx_t * draw_ctx = lv_event_get_draw_ctx(e);
 300:Drivers/lvgl/src/extra/widgets/meter/lv_meter.c ****         lv_area_t scale_area;
 301:Drivers/lvgl/src/extra/widgets/meter/lv_meter.c ****         lv_obj_get_content_coords(obj, &scale_area);
 302:Drivers/lvgl/src/extra/widgets/meter/lv_meter.c **** 
 303:Drivers/lvgl/src/extra/widgets/meter/lv_meter.c ****         draw_arcs(obj, draw_ctx, &scale_area);
 304:Drivers/lvgl/src/extra/widgets/meter/lv_meter.c ****         draw_ticks_and_labels(obj, draw_ctx, &scale_area);
 305:Drivers/lvgl/src/extra/widgets/meter/lv_meter.c ****         draw_needles(obj, draw_ctx, &scale_area);
 306:Drivers/lvgl/src/extra/widgets/meter/lv_meter.c **** 
 307:Drivers/lvgl/src/extra/widgets/meter/lv_meter.c ****         lv_coord_t r_edge = lv_area_get_width(&scale_area) / 2;
 308:Drivers/lvgl/src/extra/widgets/meter/lv_meter.c ****         lv_point_t scale_center;
 309:Drivers/lvgl/src/extra/widgets/meter/lv_meter.c ****         scale_center.x = scale_area.x1 + r_edge;
 310:Drivers/lvgl/src/extra/widgets/meter/lv_meter.c ****         scale_center.y = scale_area.y1 + r_edge;
 311:Drivers/lvgl/src/extra/widgets/meter/lv_meter.c **** 
 312:Drivers/lvgl/src/extra/widgets/meter/lv_meter.c ****         lv_draw_rect_dsc_t mid_dsc;
 313:Drivers/lvgl/src/extra/widgets/meter/lv_meter.c ****         lv_draw_rect_dsc_init(&mid_dsc);
 314:Drivers/lvgl/src/extra/widgets/meter/lv_meter.c ****         lv_obj_init_draw_rect_dsc(obj, LV_PART_INDICATOR, &mid_dsc);
 315:Drivers/lvgl/src/extra/widgets/meter/lv_meter.c ****         lv_coord_t w = lv_obj_get_style_width(obj, LV_PART_INDICATOR) / 2;
 316:Drivers/lvgl/src/extra/widgets/meter/lv_meter.c ****         lv_coord_t h = lv_obj_get_style_height(obj, LV_PART_INDICATOR) / 2;
 317:Drivers/lvgl/src/extra/widgets/meter/lv_meter.c ****         lv_area_t nm_cord;
ARM GAS  /var/folders/lp/x54gwt890xv47sdkqj1k04q40000gn/T//ccVgM3G4.s 			page 9


 318:Drivers/lvgl/src/extra/widgets/meter/lv_meter.c ****         nm_cord.x1 = scale_center.x - w;
 319:Drivers/lvgl/src/extra/widgets/meter/lv_meter.c ****         nm_cord.y1 = scale_center.y - h;
 320:Drivers/lvgl/src/extra/widgets/meter/lv_meter.c ****         nm_cord.x2 = scale_center.x + w;
 321:Drivers/lvgl/src/extra/widgets/meter/lv_meter.c ****         nm_cord.y2 = scale_center.y + h;
 322:Drivers/lvgl/src/extra/widgets/meter/lv_meter.c ****         lv_draw_rect(draw_ctx, &mid_dsc, &nm_cord);
 323:Drivers/lvgl/src/extra/widgets/meter/lv_meter.c ****     }
 324:Drivers/lvgl/src/extra/widgets/meter/lv_meter.c **** }
 325:Drivers/lvgl/src/extra/widgets/meter/lv_meter.c **** 
 326:Drivers/lvgl/src/extra/widgets/meter/lv_meter.c **** static void draw_arcs(lv_obj_t * obj, lv_draw_ctx_t * draw_ctx, const lv_area_t * scale_area)
 327:Drivers/lvgl/src/extra/widgets/meter/lv_meter.c **** {
 328:Drivers/lvgl/src/extra/widgets/meter/lv_meter.c ****     lv_meter_t * meter = (lv_meter_t *)obj;
 329:Drivers/lvgl/src/extra/widgets/meter/lv_meter.c **** 
 330:Drivers/lvgl/src/extra/widgets/meter/lv_meter.c ****     lv_draw_arc_dsc_t arc_dsc;
 331:Drivers/lvgl/src/extra/widgets/meter/lv_meter.c ****     lv_draw_arc_dsc_init(&arc_dsc);
 332:Drivers/lvgl/src/extra/widgets/meter/lv_meter.c ****     arc_dsc.rounded = lv_obj_get_style_arc_rounded(obj, LV_PART_ITEMS);
 333:Drivers/lvgl/src/extra/widgets/meter/lv_meter.c **** 
 334:Drivers/lvgl/src/extra/widgets/meter/lv_meter.c ****     lv_coord_t r_out = lv_area_get_width(scale_area) / 2 ;
 335:Drivers/lvgl/src/extra/widgets/meter/lv_meter.c ****     lv_point_t scale_center;
 336:Drivers/lvgl/src/extra/widgets/meter/lv_meter.c ****     scale_center.x = scale_area->x1 + r_out;
 337:Drivers/lvgl/src/extra/widgets/meter/lv_meter.c ****     scale_center.y = scale_area->y1 + r_out;
 338:Drivers/lvgl/src/extra/widgets/meter/lv_meter.c **** 
 339:Drivers/lvgl/src/extra/widgets/meter/lv_meter.c ****     lv_opa_t opa_main = lv_obj_get_style_opa_recursive(obj, LV_PART_MAIN);
 340:Drivers/lvgl/src/extra/widgets/meter/lv_meter.c ****     lv_meter_indicator_t * indic;
 341:Drivers/lvgl/src/extra/widgets/meter/lv_meter.c **** 
 342:Drivers/lvgl/src/extra/widgets/meter/lv_meter.c ****     lv_obj_draw_part_dsc_t part_draw_dsc;
 343:Drivers/lvgl/src/extra/widgets/meter/lv_meter.c ****     lv_obj_draw_dsc_init(&part_draw_dsc, draw_ctx);
 344:Drivers/lvgl/src/extra/widgets/meter/lv_meter.c ****     part_draw_dsc.arc_dsc = &arc_dsc;
 345:Drivers/lvgl/src/extra/widgets/meter/lv_meter.c ****     part_draw_dsc.part = LV_PART_INDICATOR;
 346:Drivers/lvgl/src/extra/widgets/meter/lv_meter.c ****     part_draw_dsc.class_p = MY_CLASS;
 347:Drivers/lvgl/src/extra/widgets/meter/lv_meter.c ****     part_draw_dsc.type = LV_METER_DRAW_PART_ARC;
 348:Drivers/lvgl/src/extra/widgets/meter/lv_meter.c **** 
 349:Drivers/lvgl/src/extra/widgets/meter/lv_meter.c ****     _LV_LL_READ_BACK(&meter->indicator_ll, indic) {
 350:Drivers/lvgl/src/extra/widgets/meter/lv_meter.c ****         if(indic->type != LV_METER_INDICATOR_TYPE_ARC) continue;
 351:Drivers/lvgl/src/extra/widgets/meter/lv_meter.c **** 
 352:Drivers/lvgl/src/extra/widgets/meter/lv_meter.c ****         arc_dsc.color = indic->type_data.arc.color;
 353:Drivers/lvgl/src/extra/widgets/meter/lv_meter.c ****         arc_dsc.width = indic->type_data.arc.width;
 354:Drivers/lvgl/src/extra/widgets/meter/lv_meter.c ****         arc_dsc.opa = indic->opa > LV_OPA_MAX ? opa_main : (opa_main * indic->opa) >> 8;
 355:Drivers/lvgl/src/extra/widgets/meter/lv_meter.c **** 
 356:Drivers/lvgl/src/extra/widgets/meter/lv_meter.c ****         lv_meter_scale_t * scale = indic->scale;
 357:Drivers/lvgl/src/extra/widgets/meter/lv_meter.c **** 
 358:Drivers/lvgl/src/extra/widgets/meter/lv_meter.c ****         int32_t start_angle = lv_map(indic->start_value, scale->min, scale->max, scale->rotation,
 359:Drivers/lvgl/src/extra/widgets/meter/lv_meter.c ****                                      scale->rotation + scale->angle_range);
 360:Drivers/lvgl/src/extra/widgets/meter/lv_meter.c ****         int32_t end_angle = lv_map(indic->end_value, scale->min, scale->max, scale->rotation,
 361:Drivers/lvgl/src/extra/widgets/meter/lv_meter.c ****                                    scale->rotation + scale->angle_range);
 362:Drivers/lvgl/src/extra/widgets/meter/lv_meter.c **** 
 363:Drivers/lvgl/src/extra/widgets/meter/lv_meter.c ****         arc_dsc.start_angle = start_angle;
 364:Drivers/lvgl/src/extra/widgets/meter/lv_meter.c ****         arc_dsc.end_angle = end_angle;
 365:Drivers/lvgl/src/extra/widgets/meter/lv_meter.c ****         part_draw_dsc.radius = r_out + indic->type_data.arc.r_mod;
 366:Drivers/lvgl/src/extra/widgets/meter/lv_meter.c ****         part_draw_dsc.sub_part_ptr = indic;
 367:Drivers/lvgl/src/extra/widgets/meter/lv_meter.c ****         part_draw_dsc.p1 = &scale_center;
 368:Drivers/lvgl/src/extra/widgets/meter/lv_meter.c **** 
 369:Drivers/lvgl/src/extra/widgets/meter/lv_meter.c ****         lv_event_send(obj, LV_EVENT_DRAW_PART_BEGIN, &part_draw_dsc);
 370:Drivers/lvgl/src/extra/widgets/meter/lv_meter.c ****         lv_draw_arc(draw_ctx, &arc_dsc, &scale_center, part_draw_dsc.radius, start_angle, end_angle
 371:Drivers/lvgl/src/extra/widgets/meter/lv_meter.c ****         lv_event_send(obj, LV_EVENT_DRAW_PART_END, &part_draw_dsc);
 372:Drivers/lvgl/src/extra/widgets/meter/lv_meter.c ****     }
 373:Drivers/lvgl/src/extra/widgets/meter/lv_meter.c **** }
 374:Drivers/lvgl/src/extra/widgets/meter/lv_meter.c **** 
ARM GAS  /var/folders/lp/x54gwt890xv47sdkqj1k04q40000gn/T//ccVgM3G4.s 			page 10


 375:Drivers/lvgl/src/extra/widgets/meter/lv_meter.c **** static void draw_ticks_and_labels(lv_obj_t * obj, lv_draw_ctx_t * draw_ctx, const lv_area_t * scale
 376:Drivers/lvgl/src/extra/widgets/meter/lv_meter.c **** {
 377:Drivers/lvgl/src/extra/widgets/meter/lv_meter.c ****     lv_meter_t * meter    = (lv_meter_t *)obj;
 378:Drivers/lvgl/src/extra/widgets/meter/lv_meter.c **** 
 379:Drivers/lvgl/src/extra/widgets/meter/lv_meter.c ****     lv_point_t p_center;
 380:Drivers/lvgl/src/extra/widgets/meter/lv_meter.c ****     lv_coord_t r_edge = LV_MIN(lv_area_get_width(scale_area) / 2, lv_area_get_height(scale_area) / 
 381:Drivers/lvgl/src/extra/widgets/meter/lv_meter.c ****     p_center.x = scale_area->x1 + r_edge;
 382:Drivers/lvgl/src/extra/widgets/meter/lv_meter.c ****     p_center.y = scale_area->y1 + r_edge;
 383:Drivers/lvgl/src/extra/widgets/meter/lv_meter.c **** 
 384:Drivers/lvgl/src/extra/widgets/meter/lv_meter.c ****     lv_draw_line_dsc_t line_dsc;
 385:Drivers/lvgl/src/extra/widgets/meter/lv_meter.c ****     lv_draw_line_dsc_init(&line_dsc);
 386:Drivers/lvgl/src/extra/widgets/meter/lv_meter.c ****     lv_obj_init_draw_line_dsc(obj, LV_PART_TICKS, &line_dsc);
 387:Drivers/lvgl/src/extra/widgets/meter/lv_meter.c ****     line_dsc.raw_end = 1;
 388:Drivers/lvgl/src/extra/widgets/meter/lv_meter.c **** 
 389:Drivers/lvgl/src/extra/widgets/meter/lv_meter.c ****     lv_draw_label_dsc_t label_dsc;
 390:Drivers/lvgl/src/extra/widgets/meter/lv_meter.c ****     lv_draw_label_dsc_init(&label_dsc);
 391:Drivers/lvgl/src/extra/widgets/meter/lv_meter.c ****     lv_obj_init_draw_label_dsc(obj, LV_PART_TICKS, &label_dsc);
 392:Drivers/lvgl/src/extra/widgets/meter/lv_meter.c **** 
 393:Drivers/lvgl/src/extra/widgets/meter/lv_meter.c ****     lv_meter_scale_t * scale;
 394:Drivers/lvgl/src/extra/widgets/meter/lv_meter.c **** 
 395:Drivers/lvgl/src/extra/widgets/meter/lv_meter.c ****     lv_draw_mask_radius_param_t inner_minor_mask;
 396:Drivers/lvgl/src/extra/widgets/meter/lv_meter.c ****     lv_draw_mask_radius_param_t inner_major_mask;
 397:Drivers/lvgl/src/extra/widgets/meter/lv_meter.c ****     lv_draw_mask_radius_param_t outer_mask;
 398:Drivers/lvgl/src/extra/widgets/meter/lv_meter.c **** 
 399:Drivers/lvgl/src/extra/widgets/meter/lv_meter.c ****     lv_obj_draw_part_dsc_t part_draw_dsc;
 400:Drivers/lvgl/src/extra/widgets/meter/lv_meter.c ****     lv_obj_draw_dsc_init(&part_draw_dsc, draw_ctx);
 401:Drivers/lvgl/src/extra/widgets/meter/lv_meter.c ****     part_draw_dsc.class_p = MY_CLASS;
 402:Drivers/lvgl/src/extra/widgets/meter/lv_meter.c ****     part_draw_dsc.part = LV_PART_TICKS;
 403:Drivers/lvgl/src/extra/widgets/meter/lv_meter.c ****     part_draw_dsc.type = LV_METER_DRAW_PART_TICK;
 404:Drivers/lvgl/src/extra/widgets/meter/lv_meter.c ****     part_draw_dsc.line_dsc = &line_dsc;
 405:Drivers/lvgl/src/extra/widgets/meter/lv_meter.c **** 
 406:Drivers/lvgl/src/extra/widgets/meter/lv_meter.c ****     _LV_LL_READ_BACK(&meter->scale_ll, scale) {
 407:Drivers/lvgl/src/extra/widgets/meter/lv_meter.c ****         part_draw_dsc.sub_part_ptr = scale;
 408:Drivers/lvgl/src/extra/widgets/meter/lv_meter.c **** 
 409:Drivers/lvgl/src/extra/widgets/meter/lv_meter.c ****         lv_coord_t r_out = r_edge;
 410:Drivers/lvgl/src/extra/widgets/meter/lv_meter.c ****         lv_coord_t r_in_minor = r_out - scale->tick_length;
 411:Drivers/lvgl/src/extra/widgets/meter/lv_meter.c ****         lv_coord_t r_in_major = r_out - scale->tick_major_length;
 412:Drivers/lvgl/src/extra/widgets/meter/lv_meter.c **** 
 413:Drivers/lvgl/src/extra/widgets/meter/lv_meter.c ****         lv_area_t area_inner_minor;
 414:Drivers/lvgl/src/extra/widgets/meter/lv_meter.c ****         area_inner_minor.x1 = p_center.x - r_in_minor;
 415:Drivers/lvgl/src/extra/widgets/meter/lv_meter.c ****         area_inner_minor.y1 = p_center.y - r_in_minor;
 416:Drivers/lvgl/src/extra/widgets/meter/lv_meter.c ****         area_inner_minor.x2 = p_center.x + r_in_minor;
 417:Drivers/lvgl/src/extra/widgets/meter/lv_meter.c ****         area_inner_minor.y2 = p_center.y + r_in_minor;
 418:Drivers/lvgl/src/extra/widgets/meter/lv_meter.c ****         lv_draw_mask_radius_init(&inner_minor_mask, &area_inner_minor, LV_RADIUS_CIRCLE, true);
 419:Drivers/lvgl/src/extra/widgets/meter/lv_meter.c **** 
 420:Drivers/lvgl/src/extra/widgets/meter/lv_meter.c ****         lv_area_t area_inner_major;
 421:Drivers/lvgl/src/extra/widgets/meter/lv_meter.c ****         area_inner_major.x1 = p_center.x - r_in_major;
 422:Drivers/lvgl/src/extra/widgets/meter/lv_meter.c ****         area_inner_major.y1 = p_center.y - r_in_major;
 423:Drivers/lvgl/src/extra/widgets/meter/lv_meter.c ****         area_inner_major.x2 = p_center.x + r_in_major - 1;
 424:Drivers/lvgl/src/extra/widgets/meter/lv_meter.c ****         area_inner_major.y2 = p_center.y + r_in_major - 1;
 425:Drivers/lvgl/src/extra/widgets/meter/lv_meter.c ****         lv_draw_mask_radius_init(&inner_major_mask, &area_inner_major, LV_RADIUS_CIRCLE, true);
 426:Drivers/lvgl/src/extra/widgets/meter/lv_meter.c **** 
 427:Drivers/lvgl/src/extra/widgets/meter/lv_meter.c ****         lv_area_t area_outer;
 428:Drivers/lvgl/src/extra/widgets/meter/lv_meter.c ****         area_outer.x1 = p_center.x - r_out;
 429:Drivers/lvgl/src/extra/widgets/meter/lv_meter.c ****         area_outer.y1 = p_center.y - r_out;
 430:Drivers/lvgl/src/extra/widgets/meter/lv_meter.c ****         area_outer.x2 = p_center.x + r_out - 1;
 431:Drivers/lvgl/src/extra/widgets/meter/lv_meter.c ****         area_outer.y2 = p_center.y + r_out - 1;
ARM GAS  /var/folders/lp/x54gwt890xv47sdkqj1k04q40000gn/T//ccVgM3G4.s 			page 11


 432:Drivers/lvgl/src/extra/widgets/meter/lv_meter.c ****         lv_draw_mask_radius_init(&outer_mask, &area_outer, LV_RADIUS_CIRCLE, false);
 433:Drivers/lvgl/src/extra/widgets/meter/lv_meter.c ****         int16_t outer_mask_id = lv_draw_mask_add(&outer_mask, NULL);
 434:Drivers/lvgl/src/extra/widgets/meter/lv_meter.c **** 
 435:Drivers/lvgl/src/extra/widgets/meter/lv_meter.c ****         int16_t inner_act_mask_id = LV_MASK_ID_INV; /*Will be added later*/
 436:Drivers/lvgl/src/extra/widgets/meter/lv_meter.c **** 
 437:Drivers/lvgl/src/extra/widgets/meter/lv_meter.c ****         uint32_t minor_cnt = scale->tick_major_nth ? scale->tick_major_nth - 1 : 0xFFFF;
 438:Drivers/lvgl/src/extra/widgets/meter/lv_meter.c ****         uint16_t i;
 439:Drivers/lvgl/src/extra/widgets/meter/lv_meter.c ****         for(i = 0; i < scale->tick_cnt; i++) {
 440:Drivers/lvgl/src/extra/widgets/meter/lv_meter.c ****             minor_cnt++;
 441:Drivers/lvgl/src/extra/widgets/meter/lv_meter.c ****             bool major = false;
 442:Drivers/lvgl/src/extra/widgets/meter/lv_meter.c ****             if(minor_cnt == scale->tick_major_nth) {
 443:Drivers/lvgl/src/extra/widgets/meter/lv_meter.c ****                 minor_cnt = 0;
 444:Drivers/lvgl/src/extra/widgets/meter/lv_meter.c ****                 major = true;
 445:Drivers/lvgl/src/extra/widgets/meter/lv_meter.c ****             }
 446:Drivers/lvgl/src/extra/widgets/meter/lv_meter.c **** 
 447:Drivers/lvgl/src/extra/widgets/meter/lv_meter.c ****             int32_t value_of_line = lv_map(i, 0, scale->tick_cnt - 1, scale->min, scale->max);
 448:Drivers/lvgl/src/extra/widgets/meter/lv_meter.c ****             part_draw_dsc.value = value_of_line;
 449:Drivers/lvgl/src/extra/widgets/meter/lv_meter.c **** 
 450:Drivers/lvgl/src/extra/widgets/meter/lv_meter.c ****             lv_color_t line_color = major ? scale->tick_major_color : scale->tick_color;
 451:Drivers/lvgl/src/extra/widgets/meter/lv_meter.c ****             lv_color_t line_color_ori = line_color;
 452:Drivers/lvgl/src/extra/widgets/meter/lv_meter.c **** 
 453:Drivers/lvgl/src/extra/widgets/meter/lv_meter.c ****             lv_coord_t line_width_ori = major ? scale->tick_major_width : scale->tick_width;
 454:Drivers/lvgl/src/extra/widgets/meter/lv_meter.c ****             lv_coord_t line_width = line_width_ori;
 455:Drivers/lvgl/src/extra/widgets/meter/lv_meter.c **** 
 456:Drivers/lvgl/src/extra/widgets/meter/lv_meter.c ****             lv_meter_indicator_t * indic;
 457:Drivers/lvgl/src/extra/widgets/meter/lv_meter.c ****             _LV_LL_READ_BACK(&meter->indicator_ll, indic) {
 458:Drivers/lvgl/src/extra/widgets/meter/lv_meter.c ****                 if(indic->type != LV_METER_INDICATOR_TYPE_SCALE_LINES) continue;
 459:Drivers/lvgl/src/extra/widgets/meter/lv_meter.c ****                 if(value_of_line >= indic->start_value && value_of_line <= indic->end_value) {
 460:Drivers/lvgl/src/extra/widgets/meter/lv_meter.c ****                     line_width += indic->type_data.scale_lines.width_mod;
 461:Drivers/lvgl/src/extra/widgets/meter/lv_meter.c **** 
 462:Drivers/lvgl/src/extra/widgets/meter/lv_meter.c ****                     if(indic->type_data.scale_lines.color_start.full == indic->type_data.scale_line
 463:Drivers/lvgl/src/extra/widgets/meter/lv_meter.c ****                         line_color = indic->type_data.scale_lines.color_start;
 464:Drivers/lvgl/src/extra/widgets/meter/lv_meter.c ****                     }
 465:Drivers/lvgl/src/extra/widgets/meter/lv_meter.c ****                     else {
 466:Drivers/lvgl/src/extra/widgets/meter/lv_meter.c ****                         lv_opa_t ratio;
 467:Drivers/lvgl/src/extra/widgets/meter/lv_meter.c ****                         if(indic->type_data.scale_lines.local_grad) {
 468:Drivers/lvgl/src/extra/widgets/meter/lv_meter.c ****                             ratio = lv_map(value_of_line, indic->start_value, indic->end_value, LV_
 469:Drivers/lvgl/src/extra/widgets/meter/lv_meter.c ****                         }
 470:Drivers/lvgl/src/extra/widgets/meter/lv_meter.c ****                         else {
 471:Drivers/lvgl/src/extra/widgets/meter/lv_meter.c ****                             ratio = lv_map(value_of_line, scale->min, scale->max, LV_OPA_TRANSP, LV
 472:Drivers/lvgl/src/extra/widgets/meter/lv_meter.c ****                         }
 473:Drivers/lvgl/src/extra/widgets/meter/lv_meter.c ****                         line_color = lv_color_mix(indic->type_data.scale_lines.color_end, indic->ty
 474:Drivers/lvgl/src/extra/widgets/meter/lv_meter.c ****                     }
 475:Drivers/lvgl/src/extra/widgets/meter/lv_meter.c ****                 }
 476:Drivers/lvgl/src/extra/widgets/meter/lv_meter.c ****             }
 477:Drivers/lvgl/src/extra/widgets/meter/lv_meter.c **** 
 478:Drivers/lvgl/src/extra/widgets/meter/lv_meter.c ****             int32_t angle_upscale = ((i * scale->angle_range) * 10) / (scale->tick_cnt - 1) +  + sc
 479:Drivers/lvgl/src/extra/widgets/meter/lv_meter.c **** 
 480:Drivers/lvgl/src/extra/widgets/meter/lv_meter.c ****             line_dsc.color = line_color;
 481:Drivers/lvgl/src/extra/widgets/meter/lv_meter.c ****             line_dsc.width = line_width;
 482:Drivers/lvgl/src/extra/widgets/meter/lv_meter.c **** 
 483:Drivers/lvgl/src/extra/widgets/meter/lv_meter.c ****             /*Draw a little bit longer lines to be sure the mask will clip them correctly
 484:Drivers/lvgl/src/extra/widgets/meter/lv_meter.c ****              *and to get a better precision*/
 485:Drivers/lvgl/src/extra/widgets/meter/lv_meter.c ****             lv_point_t p_outer;
 486:Drivers/lvgl/src/extra/widgets/meter/lv_meter.c ****             p_outer.x = p_center.x + r_out + LV_MAX(LV_DPI_DEF, r_out);
 487:Drivers/lvgl/src/extra/widgets/meter/lv_meter.c ****             p_outer.y = p_center.y;
 488:Drivers/lvgl/src/extra/widgets/meter/lv_meter.c ****             lv_point_transform(&p_outer, angle_upscale, 256, &p_center);
ARM GAS  /var/folders/lp/x54gwt890xv47sdkqj1k04q40000gn/T//ccVgM3G4.s 			page 12


 489:Drivers/lvgl/src/extra/widgets/meter/lv_meter.c **** 
 490:Drivers/lvgl/src/extra/widgets/meter/lv_meter.c ****             part_draw_dsc.p1 = &p_center;
 491:Drivers/lvgl/src/extra/widgets/meter/lv_meter.c ****             part_draw_dsc.p2 = &p_outer;
 492:Drivers/lvgl/src/extra/widgets/meter/lv_meter.c ****             part_draw_dsc.id = i;
 493:Drivers/lvgl/src/extra/widgets/meter/lv_meter.c ****             part_draw_dsc.label_dsc = &label_dsc;
 494:Drivers/lvgl/src/extra/widgets/meter/lv_meter.c **** 
 495:Drivers/lvgl/src/extra/widgets/meter/lv_meter.c ****             /*Draw the text*/
 496:Drivers/lvgl/src/extra/widgets/meter/lv_meter.c ****             if(major) {
 497:Drivers/lvgl/src/extra/widgets/meter/lv_meter.c ****                 lv_draw_mask_remove_id(outer_mask_id);
 498:Drivers/lvgl/src/extra/widgets/meter/lv_meter.c ****                 uint32_t r_text = r_in_major - scale->label_gap;
 499:Drivers/lvgl/src/extra/widgets/meter/lv_meter.c ****                 lv_point_t p;
 500:Drivers/lvgl/src/extra/widgets/meter/lv_meter.c ****                 p.x = p_center.x + r_text;
 501:Drivers/lvgl/src/extra/widgets/meter/lv_meter.c ****                 p.y = p_center.y;
 502:Drivers/lvgl/src/extra/widgets/meter/lv_meter.c ****                 lv_point_transform(&p, angle_upscale, 256, &p_center);
 503:Drivers/lvgl/src/extra/widgets/meter/lv_meter.c **** 
 504:Drivers/lvgl/src/extra/widgets/meter/lv_meter.c ****                 lv_draw_label_dsc_t label_dsc_tmp;
 505:Drivers/lvgl/src/extra/widgets/meter/lv_meter.c ****                 lv_memcpy(&label_dsc_tmp, &label_dsc, sizeof(label_dsc_tmp));
 506:Drivers/lvgl/src/extra/widgets/meter/lv_meter.c **** 
 507:Drivers/lvgl/src/extra/widgets/meter/lv_meter.c ****                 part_draw_dsc.label_dsc = &label_dsc_tmp;
 508:Drivers/lvgl/src/extra/widgets/meter/lv_meter.c ****                 char buf[16];
 509:Drivers/lvgl/src/extra/widgets/meter/lv_meter.c **** 
 510:Drivers/lvgl/src/extra/widgets/meter/lv_meter.c ****                 lv_snprintf(buf, sizeof(buf), "%" LV_PRId32, value_of_line);
 511:Drivers/lvgl/src/extra/widgets/meter/lv_meter.c ****                 part_draw_dsc.text = buf;
 512:Drivers/lvgl/src/extra/widgets/meter/lv_meter.c **** 
 513:Drivers/lvgl/src/extra/widgets/meter/lv_meter.c ****                 lv_event_send(obj, LV_EVENT_DRAW_PART_BEGIN, &part_draw_dsc);
 514:Drivers/lvgl/src/extra/widgets/meter/lv_meter.c **** 
 515:Drivers/lvgl/src/extra/widgets/meter/lv_meter.c ****                 lv_point_t label_size;
 516:Drivers/lvgl/src/extra/widgets/meter/lv_meter.c ****                 lv_txt_get_size(&label_size, part_draw_dsc.text, label_dsc_tmp.font, label_dsc_tmp.
 517:Drivers/lvgl/src/extra/widgets/meter/lv_meter.c ****                                 label_dsc_tmp.line_space,
 518:Drivers/lvgl/src/extra/widgets/meter/lv_meter.c ****                                 LV_COORD_MAX, LV_TEXT_FLAG_NONE);
 519:Drivers/lvgl/src/extra/widgets/meter/lv_meter.c **** 
 520:Drivers/lvgl/src/extra/widgets/meter/lv_meter.c ****                 lv_area_t label_cord;
 521:Drivers/lvgl/src/extra/widgets/meter/lv_meter.c ****                 label_cord.x1 = p.x - label_size.x / 2;
 522:Drivers/lvgl/src/extra/widgets/meter/lv_meter.c ****                 label_cord.y1 = p.y - label_size.y / 2;
 523:Drivers/lvgl/src/extra/widgets/meter/lv_meter.c ****                 label_cord.x2 = label_cord.x1 + label_size.x;
 524:Drivers/lvgl/src/extra/widgets/meter/lv_meter.c ****                 label_cord.y2 = label_cord.y1 + label_size.y;
 525:Drivers/lvgl/src/extra/widgets/meter/lv_meter.c **** 
 526:Drivers/lvgl/src/extra/widgets/meter/lv_meter.c ****                 lv_draw_label(draw_ctx, part_draw_dsc.label_dsc, &label_cord, part_draw_dsc.text, N
 527:Drivers/lvgl/src/extra/widgets/meter/lv_meter.c **** 
 528:Drivers/lvgl/src/extra/widgets/meter/lv_meter.c ****                 outer_mask_id = lv_draw_mask_add(&outer_mask, NULL);
 529:Drivers/lvgl/src/extra/widgets/meter/lv_meter.c ****             }
 530:Drivers/lvgl/src/extra/widgets/meter/lv_meter.c ****             else {
 531:Drivers/lvgl/src/extra/widgets/meter/lv_meter.c ****                 part_draw_dsc.label_dsc = NULL;
 532:Drivers/lvgl/src/extra/widgets/meter/lv_meter.c ****                 part_draw_dsc.text = NULL;
 533:Drivers/lvgl/src/extra/widgets/meter/lv_meter.c ****                 lv_event_send(obj, LV_EVENT_DRAW_PART_BEGIN, &part_draw_dsc);
 534:Drivers/lvgl/src/extra/widgets/meter/lv_meter.c ****             }
 535:Drivers/lvgl/src/extra/widgets/meter/lv_meter.c **** 
 536:Drivers/lvgl/src/extra/widgets/meter/lv_meter.c ****             inner_act_mask_id = lv_draw_mask_add(major ? &inner_major_mask : &inner_minor_mask, NUL
 537:Drivers/lvgl/src/extra/widgets/meter/lv_meter.c ****             lv_draw_line(draw_ctx, &line_dsc, &p_outer, &p_center);
 538:Drivers/lvgl/src/extra/widgets/meter/lv_meter.c ****             lv_draw_mask_remove_id(inner_act_mask_id);
 539:Drivers/lvgl/src/extra/widgets/meter/lv_meter.c ****             lv_event_send(obj, LV_EVENT_DRAW_MAIN_END, &part_draw_dsc);
 540:Drivers/lvgl/src/extra/widgets/meter/lv_meter.c **** 
 541:Drivers/lvgl/src/extra/widgets/meter/lv_meter.c ****             line_dsc.color = line_color_ori;
 542:Drivers/lvgl/src/extra/widgets/meter/lv_meter.c ****             line_dsc.width = line_width_ori;
 543:Drivers/lvgl/src/extra/widgets/meter/lv_meter.c **** 
 544:Drivers/lvgl/src/extra/widgets/meter/lv_meter.c ****         }
 545:Drivers/lvgl/src/extra/widgets/meter/lv_meter.c ****         lv_draw_mask_free_param(&inner_minor_mask);
ARM GAS  /var/folders/lp/x54gwt890xv47sdkqj1k04q40000gn/T//ccVgM3G4.s 			page 13


 546:Drivers/lvgl/src/extra/widgets/meter/lv_meter.c ****         lv_draw_mask_free_param(&inner_major_mask);
 547:Drivers/lvgl/src/extra/widgets/meter/lv_meter.c ****         lv_draw_mask_free_param(&outer_mask);
 548:Drivers/lvgl/src/extra/widgets/meter/lv_meter.c ****         lv_draw_mask_remove_id(outer_mask_id);
 549:Drivers/lvgl/src/extra/widgets/meter/lv_meter.c ****     }
 550:Drivers/lvgl/src/extra/widgets/meter/lv_meter.c **** }
 551:Drivers/lvgl/src/extra/widgets/meter/lv_meter.c **** 
 552:Drivers/lvgl/src/extra/widgets/meter/lv_meter.c **** 
 553:Drivers/lvgl/src/extra/widgets/meter/lv_meter.c **** static void draw_needles(lv_obj_t * obj, lv_draw_ctx_t * draw_ctx, const lv_area_t * scale_area)
 554:Drivers/lvgl/src/extra/widgets/meter/lv_meter.c **** {
 555:Drivers/lvgl/src/extra/widgets/meter/lv_meter.c ****     lv_meter_t * meter = (lv_meter_t *)obj;
 556:Drivers/lvgl/src/extra/widgets/meter/lv_meter.c **** 
 557:Drivers/lvgl/src/extra/widgets/meter/lv_meter.c ****     lv_coord_t r_edge = lv_area_get_width(scale_area) / 2;
 558:Drivers/lvgl/src/extra/widgets/meter/lv_meter.c ****     lv_point_t scale_center;
 559:Drivers/lvgl/src/extra/widgets/meter/lv_meter.c ****     scale_center.x = scale_area->x1 + r_edge;
 560:Drivers/lvgl/src/extra/widgets/meter/lv_meter.c ****     scale_center.y = scale_area->y1 + r_edge;
 561:Drivers/lvgl/src/extra/widgets/meter/lv_meter.c **** 
 562:Drivers/lvgl/src/extra/widgets/meter/lv_meter.c ****     lv_draw_line_dsc_t line_dsc;
 563:Drivers/lvgl/src/extra/widgets/meter/lv_meter.c ****     lv_draw_line_dsc_init(&line_dsc);
 564:Drivers/lvgl/src/extra/widgets/meter/lv_meter.c ****     lv_obj_init_draw_line_dsc(obj, LV_PART_ITEMS, &line_dsc);
 565:Drivers/lvgl/src/extra/widgets/meter/lv_meter.c **** 
 566:Drivers/lvgl/src/extra/widgets/meter/lv_meter.c ****     lv_draw_img_dsc_t img_dsc;
 567:Drivers/lvgl/src/extra/widgets/meter/lv_meter.c ****     lv_draw_img_dsc_init(&img_dsc);
 568:Drivers/lvgl/src/extra/widgets/meter/lv_meter.c ****     lv_obj_init_draw_img_dsc(obj, LV_PART_ITEMS, &img_dsc);
 569:Drivers/lvgl/src/extra/widgets/meter/lv_meter.c ****     lv_opa_t opa_main = lv_obj_get_style_opa_recursive(obj, LV_PART_MAIN);
 570:Drivers/lvgl/src/extra/widgets/meter/lv_meter.c **** 
 571:Drivers/lvgl/src/extra/widgets/meter/lv_meter.c ****     lv_obj_draw_part_dsc_t part_draw_dsc;
 572:Drivers/lvgl/src/extra/widgets/meter/lv_meter.c ****     lv_obj_draw_dsc_init(&part_draw_dsc, draw_ctx);
 573:Drivers/lvgl/src/extra/widgets/meter/lv_meter.c ****     part_draw_dsc.class_p = MY_CLASS;
 574:Drivers/lvgl/src/extra/widgets/meter/lv_meter.c ****     part_draw_dsc.p1 = &scale_center;
 575:Drivers/lvgl/src/extra/widgets/meter/lv_meter.c ****     part_draw_dsc.part = LV_PART_INDICATOR;
 576:Drivers/lvgl/src/extra/widgets/meter/lv_meter.c **** 
 577:Drivers/lvgl/src/extra/widgets/meter/lv_meter.c ****     lv_meter_indicator_t * indic;
 578:Drivers/lvgl/src/extra/widgets/meter/lv_meter.c ****     _LV_LL_READ_BACK(&meter->indicator_ll, indic) {
 579:Drivers/lvgl/src/extra/widgets/meter/lv_meter.c ****         lv_meter_scale_t * scale = indic->scale;
 580:Drivers/lvgl/src/extra/widgets/meter/lv_meter.c ****         part_draw_dsc.sub_part_ptr = indic;
 581:Drivers/lvgl/src/extra/widgets/meter/lv_meter.c **** 
 582:Drivers/lvgl/src/extra/widgets/meter/lv_meter.c ****         if(indic->type == LV_METER_INDICATOR_TYPE_NEEDLE_LINE) {
 583:Drivers/lvgl/src/extra/widgets/meter/lv_meter.c ****             int32_t angle = lv_map(indic->end_value, scale->min, scale->max, scale->rotation, scale
 584:Drivers/lvgl/src/extra/widgets/meter/lv_meter.c ****             lv_coord_t r_out = r_edge + scale->r_mod + indic->type_data.needle_line.r_mod;
 585:Drivers/lvgl/src/extra/widgets/meter/lv_meter.c ****             lv_point_t p_end;
 586:Drivers/lvgl/src/extra/widgets/meter/lv_meter.c ****             p_end.y = (lv_trigo_sin(angle) * (r_out)) / LV_TRIGO_SIN_MAX + scale_center.y;
 587:Drivers/lvgl/src/extra/widgets/meter/lv_meter.c ****             p_end.x = (lv_trigo_cos(angle) * (r_out)) / LV_TRIGO_SIN_MAX + scale_center.x;
 588:Drivers/lvgl/src/extra/widgets/meter/lv_meter.c ****             line_dsc.color = indic->type_data.needle_line.color;
 589:Drivers/lvgl/src/extra/widgets/meter/lv_meter.c ****             line_dsc.width = indic->type_data.needle_line.width;
 590:Drivers/lvgl/src/extra/widgets/meter/lv_meter.c ****             line_dsc.opa = indic->opa > LV_OPA_MAX ? opa_main : (opa_main * indic->opa) >> 8;
 591:Drivers/lvgl/src/extra/widgets/meter/lv_meter.c **** 
 592:Drivers/lvgl/src/extra/widgets/meter/lv_meter.c ****             part_draw_dsc.type = LV_METER_DRAW_PART_NEEDLE_LINE;
 593:Drivers/lvgl/src/extra/widgets/meter/lv_meter.c ****             part_draw_dsc.line_dsc = &line_dsc;
 594:Drivers/lvgl/src/extra/widgets/meter/lv_meter.c ****             part_draw_dsc.p2 = &p_end;
 595:Drivers/lvgl/src/extra/widgets/meter/lv_meter.c ****             part_draw_dsc.p1 = &scale_center;
 596:Drivers/lvgl/src/extra/widgets/meter/lv_meter.c ****             lv_event_send(obj, LV_EVENT_DRAW_PART_BEGIN, &part_draw_dsc);
 597:Drivers/lvgl/src/extra/widgets/meter/lv_meter.c ****             lv_draw_line(draw_ctx, &line_dsc, part_draw_dsc.p1, &p_end);
 598:Drivers/lvgl/src/extra/widgets/meter/lv_meter.c ****             lv_event_send(obj, LV_EVENT_DRAW_PART_END, &part_draw_dsc);
 599:Drivers/lvgl/src/extra/widgets/meter/lv_meter.c ****         }
 600:Drivers/lvgl/src/extra/widgets/meter/lv_meter.c ****         else if(indic->type == LV_METER_INDICATOR_TYPE_NEEDLE_IMG) {
 601:Drivers/lvgl/src/extra/widgets/meter/lv_meter.c ****             if(indic->type_data.needle_img.src == NULL) continue;
 602:Drivers/lvgl/src/extra/widgets/meter/lv_meter.c **** 
ARM GAS  /var/folders/lp/x54gwt890xv47sdkqj1k04q40000gn/T//ccVgM3G4.s 			page 14


 603:Drivers/lvgl/src/extra/widgets/meter/lv_meter.c ****             int32_t angle = lv_map(indic->end_value, scale->min, scale->max, scale->rotation, scale
 604:Drivers/lvgl/src/extra/widgets/meter/lv_meter.c ****             lv_img_header_t info;
 605:Drivers/lvgl/src/extra/widgets/meter/lv_meter.c ****             lv_img_decoder_get_info(indic->type_data.needle_img.src, &info);
 606:Drivers/lvgl/src/extra/widgets/meter/lv_meter.c ****             lv_area_t a;
 607:Drivers/lvgl/src/extra/widgets/meter/lv_meter.c ****             a.x1 = scale_center.x - indic->type_data.needle_img.pivot.x;
 608:Drivers/lvgl/src/extra/widgets/meter/lv_meter.c ****             a.y1 = scale_center.y - indic->type_data.needle_img.pivot.y;
 609:Drivers/lvgl/src/extra/widgets/meter/lv_meter.c ****             a.x2 = a.x1 + info.w - 1;
 610:Drivers/lvgl/src/extra/widgets/meter/lv_meter.c ****             a.y2 = a.y1 + info.h - 1;
 611:Drivers/lvgl/src/extra/widgets/meter/lv_meter.c **** 
 612:Drivers/lvgl/src/extra/widgets/meter/lv_meter.c ****             img_dsc.opa = indic->opa > LV_OPA_MAX ? opa_main : (opa_main * indic->opa) >> 8;
 613:Drivers/lvgl/src/extra/widgets/meter/lv_meter.c ****             img_dsc.pivot.x = indic->type_data.needle_img.pivot.x;
 614:Drivers/lvgl/src/extra/widgets/meter/lv_meter.c ****             img_dsc.pivot.y = indic->type_data.needle_img.pivot.y;
 615:Drivers/lvgl/src/extra/widgets/meter/lv_meter.c ****             angle = angle * 10;
 616:Drivers/lvgl/src/extra/widgets/meter/lv_meter.c ****             if(angle > 3600) angle -= 3600;
 617:Drivers/lvgl/src/extra/widgets/meter/lv_meter.c ****             img_dsc.angle = angle;
 618:Drivers/lvgl/src/extra/widgets/meter/lv_meter.c **** 
 619:Drivers/lvgl/src/extra/widgets/meter/lv_meter.c ****             part_draw_dsc.type = LV_METER_DRAW_PART_NEEDLE_IMG;
 620:Drivers/lvgl/src/extra/widgets/meter/lv_meter.c ****             part_draw_dsc.img_dsc = &img_dsc;
 621:Drivers/lvgl/src/extra/widgets/meter/lv_meter.c **** 
 622:Drivers/lvgl/src/extra/widgets/meter/lv_meter.c ****             lv_event_send(obj, LV_EVENT_DRAW_PART_BEGIN, &part_draw_dsc);
 623:Drivers/lvgl/src/extra/widgets/meter/lv_meter.c ****             lv_draw_img(draw_ctx, &img_dsc, &a, indic->type_data.needle_img.src);
 624:Drivers/lvgl/src/extra/widgets/meter/lv_meter.c ****             lv_event_send(obj, LV_EVENT_DRAW_PART_END, &part_draw_dsc);
 625:Drivers/lvgl/src/extra/widgets/meter/lv_meter.c ****         }
 626:Drivers/lvgl/src/extra/widgets/meter/lv_meter.c ****     }
 627:Drivers/lvgl/src/extra/widgets/meter/lv_meter.c **** }
 628:Drivers/lvgl/src/extra/widgets/meter/lv_meter.c **** 
 629:Drivers/lvgl/src/extra/widgets/meter/lv_meter.c **** static void inv_arc(lv_obj_t * obj, lv_meter_indicator_t * indic, int32_t old_value, int32_t new_va
 630:Drivers/lvgl/src/extra/widgets/meter/lv_meter.c **** {
 128              		.loc 1 630 1 is_stmt 1 view -0
 129              		.cfi_startproc
 130              		@ args = 0, pretend = 0, frame = 24
 131              		@ frame_needed = 0, uses_anonymous_args = 0
 631:Drivers/lvgl/src/extra/widgets/meter/lv_meter.c ****     bool rounded = lv_obj_get_style_arc_rounded(obj, LV_PART_ITEMS);
 132              		.loc 1 631 5 view .LVU28
 630:Drivers/lvgl/src/extra/widgets/meter/lv_meter.c ****     bool rounded = lv_obj_get_style_arc_rounded(obj, LV_PART_ITEMS);
 133              		.loc 1 630 1 is_stmt 0 view .LVU29
 134 0000 2DE9F04F 		push	{r4, r5, r6, r7, r8, r9, r10, fp, lr}
 135              		.cfi_def_cfa_offset 36
 136              		.cfi_offset 4, -36
 137              		.cfi_offset 5, -32
 138              		.cfi_offset 6, -28
 139              		.cfi_offset 7, -24
 140              		.cfi_offset 8, -20
 141              		.cfi_offset 9, -16
 142              		.cfi_offset 10, -12
 143              		.cfi_offset 11, -8
 144              		.cfi_offset 14, -4
 145 0004 8846     		mov	r8, r1
 146 0006 8BB0     		sub	sp, sp, #44
 147              		.cfi_def_cfa_offset 80
 630:Drivers/lvgl/src/extra/widgets/meter/lv_meter.c ****     bool rounded = lv_obj_get_style_arc_rounded(obj, LV_PART_ITEMS);
 148              		.loc 1 630 1 view .LVU30
 149 0008 1446     		mov	r4, r2
 150              	.LBB50:
 151              	.LBB51:
 152              		.file 2 "Drivers/lvgl/src/extra/widgets/meter/../../../../src/core/lv_obj_style_gen.h"
   1:Drivers/lvgl/src/extra/widgets/meter/../../../../src/core/lv_obj_style_gen.h **** static inline lv_coord_t lv_obj_get_style_width(const struct _lv_obj_t * obj, uint32_t part)
ARM GAS  /var/folders/lp/x54gwt890xv47sdkqj1k04q40000gn/T//ccVgM3G4.s 			page 15


   2:Drivers/lvgl/src/extra/widgets/meter/../../../../src/core/lv_obj_style_gen.h **** {
   3:Drivers/lvgl/src/extra/widgets/meter/../../../../src/core/lv_obj_style_gen.h ****     lv_style_value_t v = lv_obj_get_style_prop(obj, part, LV_STYLE_WIDTH);
   4:Drivers/lvgl/src/extra/widgets/meter/../../../../src/core/lv_obj_style_gen.h ****     return (lv_coord_t)v.num;
   5:Drivers/lvgl/src/extra/widgets/meter/../../../../src/core/lv_obj_style_gen.h **** }
   6:Drivers/lvgl/src/extra/widgets/meter/../../../../src/core/lv_obj_style_gen.h **** 
   7:Drivers/lvgl/src/extra/widgets/meter/../../../../src/core/lv_obj_style_gen.h **** static inline lv_coord_t lv_obj_get_style_min_width(const struct _lv_obj_t * obj, uint32_t part)
   8:Drivers/lvgl/src/extra/widgets/meter/../../../../src/core/lv_obj_style_gen.h **** {
   9:Drivers/lvgl/src/extra/widgets/meter/../../../../src/core/lv_obj_style_gen.h ****     lv_style_value_t v = lv_obj_get_style_prop(obj, part, LV_STYLE_MIN_WIDTH);
  10:Drivers/lvgl/src/extra/widgets/meter/../../../../src/core/lv_obj_style_gen.h ****     return (lv_coord_t)v.num;
  11:Drivers/lvgl/src/extra/widgets/meter/../../../../src/core/lv_obj_style_gen.h **** }
  12:Drivers/lvgl/src/extra/widgets/meter/../../../../src/core/lv_obj_style_gen.h **** 
  13:Drivers/lvgl/src/extra/widgets/meter/../../../../src/core/lv_obj_style_gen.h **** static inline lv_coord_t lv_obj_get_style_max_width(const struct _lv_obj_t * obj, uint32_t part)
  14:Drivers/lvgl/src/extra/widgets/meter/../../../../src/core/lv_obj_style_gen.h **** {
  15:Drivers/lvgl/src/extra/widgets/meter/../../../../src/core/lv_obj_style_gen.h ****     lv_style_value_t v = lv_obj_get_style_prop(obj, part, LV_STYLE_MAX_WIDTH);
  16:Drivers/lvgl/src/extra/widgets/meter/../../../../src/core/lv_obj_style_gen.h ****     return (lv_coord_t)v.num;
  17:Drivers/lvgl/src/extra/widgets/meter/../../../../src/core/lv_obj_style_gen.h **** }
  18:Drivers/lvgl/src/extra/widgets/meter/../../../../src/core/lv_obj_style_gen.h **** 
  19:Drivers/lvgl/src/extra/widgets/meter/../../../../src/core/lv_obj_style_gen.h **** static inline lv_coord_t lv_obj_get_style_height(const struct _lv_obj_t * obj, uint32_t part)
  20:Drivers/lvgl/src/extra/widgets/meter/../../../../src/core/lv_obj_style_gen.h **** {
  21:Drivers/lvgl/src/extra/widgets/meter/../../../../src/core/lv_obj_style_gen.h ****     lv_style_value_t v = lv_obj_get_style_prop(obj, part, LV_STYLE_HEIGHT);
  22:Drivers/lvgl/src/extra/widgets/meter/../../../../src/core/lv_obj_style_gen.h ****     return (lv_coord_t)v.num;
  23:Drivers/lvgl/src/extra/widgets/meter/../../../../src/core/lv_obj_style_gen.h **** }
  24:Drivers/lvgl/src/extra/widgets/meter/../../../../src/core/lv_obj_style_gen.h **** 
  25:Drivers/lvgl/src/extra/widgets/meter/../../../../src/core/lv_obj_style_gen.h **** static inline lv_coord_t lv_obj_get_style_min_height(const struct _lv_obj_t * obj, uint32_t part)
  26:Drivers/lvgl/src/extra/widgets/meter/../../../../src/core/lv_obj_style_gen.h **** {
  27:Drivers/lvgl/src/extra/widgets/meter/../../../../src/core/lv_obj_style_gen.h ****     lv_style_value_t v = lv_obj_get_style_prop(obj, part, LV_STYLE_MIN_HEIGHT);
  28:Drivers/lvgl/src/extra/widgets/meter/../../../../src/core/lv_obj_style_gen.h ****     return (lv_coord_t)v.num;
  29:Drivers/lvgl/src/extra/widgets/meter/../../../../src/core/lv_obj_style_gen.h **** }
  30:Drivers/lvgl/src/extra/widgets/meter/../../../../src/core/lv_obj_style_gen.h **** 
  31:Drivers/lvgl/src/extra/widgets/meter/../../../../src/core/lv_obj_style_gen.h **** static inline lv_coord_t lv_obj_get_style_max_height(const struct _lv_obj_t * obj, uint32_t part)
  32:Drivers/lvgl/src/extra/widgets/meter/../../../../src/core/lv_obj_style_gen.h **** {
  33:Drivers/lvgl/src/extra/widgets/meter/../../../../src/core/lv_obj_style_gen.h ****     lv_style_value_t v = lv_obj_get_style_prop(obj, part, LV_STYLE_MAX_HEIGHT);
  34:Drivers/lvgl/src/extra/widgets/meter/../../../../src/core/lv_obj_style_gen.h ****     return (lv_coord_t)v.num;
  35:Drivers/lvgl/src/extra/widgets/meter/../../../../src/core/lv_obj_style_gen.h **** }
  36:Drivers/lvgl/src/extra/widgets/meter/../../../../src/core/lv_obj_style_gen.h **** 
  37:Drivers/lvgl/src/extra/widgets/meter/../../../../src/core/lv_obj_style_gen.h **** static inline lv_coord_t lv_obj_get_style_x(const struct _lv_obj_t * obj, uint32_t part)
  38:Drivers/lvgl/src/extra/widgets/meter/../../../../src/core/lv_obj_style_gen.h **** {
  39:Drivers/lvgl/src/extra/widgets/meter/../../../../src/core/lv_obj_style_gen.h ****     lv_style_value_t v = lv_obj_get_style_prop(obj, part, LV_STYLE_X);
  40:Drivers/lvgl/src/extra/widgets/meter/../../../../src/core/lv_obj_style_gen.h ****     return (lv_coord_t)v.num;
  41:Drivers/lvgl/src/extra/widgets/meter/../../../../src/core/lv_obj_style_gen.h **** }
  42:Drivers/lvgl/src/extra/widgets/meter/../../../../src/core/lv_obj_style_gen.h **** 
  43:Drivers/lvgl/src/extra/widgets/meter/../../../../src/core/lv_obj_style_gen.h **** static inline lv_coord_t lv_obj_get_style_y(const struct _lv_obj_t * obj, uint32_t part)
  44:Drivers/lvgl/src/extra/widgets/meter/../../../../src/core/lv_obj_style_gen.h **** {
  45:Drivers/lvgl/src/extra/widgets/meter/../../../../src/core/lv_obj_style_gen.h ****     lv_style_value_t v = lv_obj_get_style_prop(obj, part, LV_STYLE_Y);
  46:Drivers/lvgl/src/extra/widgets/meter/../../../../src/core/lv_obj_style_gen.h ****     return (lv_coord_t)v.num;
  47:Drivers/lvgl/src/extra/widgets/meter/../../../../src/core/lv_obj_style_gen.h **** }
  48:Drivers/lvgl/src/extra/widgets/meter/../../../../src/core/lv_obj_style_gen.h **** 
  49:Drivers/lvgl/src/extra/widgets/meter/../../../../src/core/lv_obj_style_gen.h **** static inline lv_align_t lv_obj_get_style_align(const struct _lv_obj_t * obj, uint32_t part)
  50:Drivers/lvgl/src/extra/widgets/meter/../../../../src/core/lv_obj_style_gen.h **** {
  51:Drivers/lvgl/src/extra/widgets/meter/../../../../src/core/lv_obj_style_gen.h ****     lv_style_value_t v = lv_obj_get_style_prop(obj, part, LV_STYLE_ALIGN);
  52:Drivers/lvgl/src/extra/widgets/meter/../../../../src/core/lv_obj_style_gen.h ****     return (lv_align_t)v.num;
  53:Drivers/lvgl/src/extra/widgets/meter/../../../../src/core/lv_obj_style_gen.h **** }
  54:Drivers/lvgl/src/extra/widgets/meter/../../../../src/core/lv_obj_style_gen.h **** 
  55:Drivers/lvgl/src/extra/widgets/meter/../../../../src/core/lv_obj_style_gen.h **** static inline lv_coord_t lv_obj_get_style_transform_width(const struct _lv_obj_t * obj, uint32_t pa
  56:Drivers/lvgl/src/extra/widgets/meter/../../../../src/core/lv_obj_style_gen.h **** {
  57:Drivers/lvgl/src/extra/widgets/meter/../../../../src/core/lv_obj_style_gen.h ****     lv_style_value_t v = lv_obj_get_style_prop(obj, part, LV_STYLE_TRANSFORM_WIDTH);
  58:Drivers/lvgl/src/extra/widgets/meter/../../../../src/core/lv_obj_style_gen.h ****     return (lv_coord_t)v.num;
ARM GAS  /var/folders/lp/x54gwt890xv47sdkqj1k04q40000gn/T//ccVgM3G4.s 			page 16


  59:Drivers/lvgl/src/extra/widgets/meter/../../../../src/core/lv_obj_style_gen.h **** }
  60:Drivers/lvgl/src/extra/widgets/meter/../../../../src/core/lv_obj_style_gen.h **** 
  61:Drivers/lvgl/src/extra/widgets/meter/../../../../src/core/lv_obj_style_gen.h **** static inline lv_coord_t lv_obj_get_style_transform_height(const struct _lv_obj_t * obj, uint32_t p
  62:Drivers/lvgl/src/extra/widgets/meter/../../../../src/core/lv_obj_style_gen.h **** {
  63:Drivers/lvgl/src/extra/widgets/meter/../../../../src/core/lv_obj_style_gen.h ****     lv_style_value_t v = lv_obj_get_style_prop(obj, part, LV_STYLE_TRANSFORM_HEIGHT);
  64:Drivers/lvgl/src/extra/widgets/meter/../../../../src/core/lv_obj_style_gen.h ****     return (lv_coord_t)v.num;
  65:Drivers/lvgl/src/extra/widgets/meter/../../../../src/core/lv_obj_style_gen.h **** }
  66:Drivers/lvgl/src/extra/widgets/meter/../../../../src/core/lv_obj_style_gen.h **** 
  67:Drivers/lvgl/src/extra/widgets/meter/../../../../src/core/lv_obj_style_gen.h **** static inline lv_coord_t lv_obj_get_style_translate_x(const struct _lv_obj_t * obj, uint32_t part)
  68:Drivers/lvgl/src/extra/widgets/meter/../../../../src/core/lv_obj_style_gen.h **** {
  69:Drivers/lvgl/src/extra/widgets/meter/../../../../src/core/lv_obj_style_gen.h ****     lv_style_value_t v = lv_obj_get_style_prop(obj, part, LV_STYLE_TRANSLATE_X);
  70:Drivers/lvgl/src/extra/widgets/meter/../../../../src/core/lv_obj_style_gen.h ****     return (lv_coord_t)v.num;
  71:Drivers/lvgl/src/extra/widgets/meter/../../../../src/core/lv_obj_style_gen.h **** }
  72:Drivers/lvgl/src/extra/widgets/meter/../../../../src/core/lv_obj_style_gen.h **** 
  73:Drivers/lvgl/src/extra/widgets/meter/../../../../src/core/lv_obj_style_gen.h **** static inline lv_coord_t lv_obj_get_style_translate_y(const struct _lv_obj_t * obj, uint32_t part)
  74:Drivers/lvgl/src/extra/widgets/meter/../../../../src/core/lv_obj_style_gen.h **** {
  75:Drivers/lvgl/src/extra/widgets/meter/../../../../src/core/lv_obj_style_gen.h ****     lv_style_value_t v = lv_obj_get_style_prop(obj, part, LV_STYLE_TRANSLATE_Y);
  76:Drivers/lvgl/src/extra/widgets/meter/../../../../src/core/lv_obj_style_gen.h ****     return (lv_coord_t)v.num;
  77:Drivers/lvgl/src/extra/widgets/meter/../../../../src/core/lv_obj_style_gen.h **** }
  78:Drivers/lvgl/src/extra/widgets/meter/../../../../src/core/lv_obj_style_gen.h **** 
  79:Drivers/lvgl/src/extra/widgets/meter/../../../../src/core/lv_obj_style_gen.h **** static inline lv_coord_t lv_obj_get_style_transform_zoom(const struct _lv_obj_t * obj, uint32_t par
  80:Drivers/lvgl/src/extra/widgets/meter/../../../../src/core/lv_obj_style_gen.h **** {
  81:Drivers/lvgl/src/extra/widgets/meter/../../../../src/core/lv_obj_style_gen.h ****     lv_style_value_t v = lv_obj_get_style_prop(obj, part, LV_STYLE_TRANSFORM_ZOOM);
  82:Drivers/lvgl/src/extra/widgets/meter/../../../../src/core/lv_obj_style_gen.h ****     return (lv_coord_t)v.num;
  83:Drivers/lvgl/src/extra/widgets/meter/../../../../src/core/lv_obj_style_gen.h **** }
  84:Drivers/lvgl/src/extra/widgets/meter/../../../../src/core/lv_obj_style_gen.h **** 
  85:Drivers/lvgl/src/extra/widgets/meter/../../../../src/core/lv_obj_style_gen.h **** static inline lv_coord_t lv_obj_get_style_transform_angle(const struct _lv_obj_t * obj, uint32_t pa
  86:Drivers/lvgl/src/extra/widgets/meter/../../../../src/core/lv_obj_style_gen.h **** {
  87:Drivers/lvgl/src/extra/widgets/meter/../../../../src/core/lv_obj_style_gen.h ****     lv_style_value_t v = lv_obj_get_style_prop(obj, part, LV_STYLE_TRANSFORM_ANGLE);
  88:Drivers/lvgl/src/extra/widgets/meter/../../../../src/core/lv_obj_style_gen.h ****     return (lv_coord_t)v.num;
  89:Drivers/lvgl/src/extra/widgets/meter/../../../../src/core/lv_obj_style_gen.h **** }
  90:Drivers/lvgl/src/extra/widgets/meter/../../../../src/core/lv_obj_style_gen.h **** 
  91:Drivers/lvgl/src/extra/widgets/meter/../../../../src/core/lv_obj_style_gen.h **** static inline lv_coord_t lv_obj_get_style_transform_pivot_x(const struct _lv_obj_t * obj, uint32_t 
  92:Drivers/lvgl/src/extra/widgets/meter/../../../../src/core/lv_obj_style_gen.h **** {
  93:Drivers/lvgl/src/extra/widgets/meter/../../../../src/core/lv_obj_style_gen.h ****     lv_style_value_t v = lv_obj_get_style_prop(obj, part, LV_STYLE_TRANSFORM_PIVOT_X);
  94:Drivers/lvgl/src/extra/widgets/meter/../../../../src/core/lv_obj_style_gen.h ****     return (lv_coord_t)v.num;
  95:Drivers/lvgl/src/extra/widgets/meter/../../../../src/core/lv_obj_style_gen.h **** }
  96:Drivers/lvgl/src/extra/widgets/meter/../../../../src/core/lv_obj_style_gen.h **** 
  97:Drivers/lvgl/src/extra/widgets/meter/../../../../src/core/lv_obj_style_gen.h **** static inline lv_coord_t lv_obj_get_style_transform_pivot_y(const struct _lv_obj_t * obj, uint32_t 
  98:Drivers/lvgl/src/extra/widgets/meter/../../../../src/core/lv_obj_style_gen.h **** {
  99:Drivers/lvgl/src/extra/widgets/meter/../../../../src/core/lv_obj_style_gen.h ****     lv_style_value_t v = lv_obj_get_style_prop(obj, part, LV_STYLE_TRANSFORM_PIVOT_Y);
 100:Drivers/lvgl/src/extra/widgets/meter/../../../../src/core/lv_obj_style_gen.h ****     return (lv_coord_t)v.num;
 101:Drivers/lvgl/src/extra/widgets/meter/../../../../src/core/lv_obj_style_gen.h **** }
 102:Drivers/lvgl/src/extra/widgets/meter/../../../../src/core/lv_obj_style_gen.h **** 
 103:Drivers/lvgl/src/extra/widgets/meter/../../../../src/core/lv_obj_style_gen.h **** static inline lv_coord_t lv_obj_get_style_pad_top(const struct _lv_obj_t * obj, uint32_t part)
 104:Drivers/lvgl/src/extra/widgets/meter/../../../../src/core/lv_obj_style_gen.h **** {
 105:Drivers/lvgl/src/extra/widgets/meter/../../../../src/core/lv_obj_style_gen.h ****     lv_style_value_t v = lv_obj_get_style_prop(obj, part, LV_STYLE_PAD_TOP);
 106:Drivers/lvgl/src/extra/widgets/meter/../../../../src/core/lv_obj_style_gen.h ****     return (lv_coord_t)v.num;
 107:Drivers/lvgl/src/extra/widgets/meter/../../../../src/core/lv_obj_style_gen.h **** }
 108:Drivers/lvgl/src/extra/widgets/meter/../../../../src/core/lv_obj_style_gen.h **** 
 109:Drivers/lvgl/src/extra/widgets/meter/../../../../src/core/lv_obj_style_gen.h **** static inline lv_coord_t lv_obj_get_style_pad_bottom(const struct _lv_obj_t * obj, uint32_t part)
 110:Drivers/lvgl/src/extra/widgets/meter/../../../../src/core/lv_obj_style_gen.h **** {
 111:Drivers/lvgl/src/extra/widgets/meter/../../../../src/core/lv_obj_style_gen.h ****     lv_style_value_t v = lv_obj_get_style_prop(obj, part, LV_STYLE_PAD_BOTTOM);
 112:Drivers/lvgl/src/extra/widgets/meter/../../../../src/core/lv_obj_style_gen.h ****     return (lv_coord_t)v.num;
 113:Drivers/lvgl/src/extra/widgets/meter/../../../../src/core/lv_obj_style_gen.h **** }
 114:Drivers/lvgl/src/extra/widgets/meter/../../../../src/core/lv_obj_style_gen.h **** 
 115:Drivers/lvgl/src/extra/widgets/meter/../../../../src/core/lv_obj_style_gen.h **** static inline lv_coord_t lv_obj_get_style_pad_left(const struct _lv_obj_t * obj, uint32_t part)
ARM GAS  /var/folders/lp/x54gwt890xv47sdkqj1k04q40000gn/T//ccVgM3G4.s 			page 17


 116:Drivers/lvgl/src/extra/widgets/meter/../../../../src/core/lv_obj_style_gen.h **** {
 117:Drivers/lvgl/src/extra/widgets/meter/../../../../src/core/lv_obj_style_gen.h ****     lv_style_value_t v = lv_obj_get_style_prop(obj, part, LV_STYLE_PAD_LEFT);
 118:Drivers/lvgl/src/extra/widgets/meter/../../../../src/core/lv_obj_style_gen.h ****     return (lv_coord_t)v.num;
 119:Drivers/lvgl/src/extra/widgets/meter/../../../../src/core/lv_obj_style_gen.h **** }
 120:Drivers/lvgl/src/extra/widgets/meter/../../../../src/core/lv_obj_style_gen.h **** 
 121:Drivers/lvgl/src/extra/widgets/meter/../../../../src/core/lv_obj_style_gen.h **** static inline lv_coord_t lv_obj_get_style_pad_right(const struct _lv_obj_t * obj, uint32_t part)
 122:Drivers/lvgl/src/extra/widgets/meter/../../../../src/core/lv_obj_style_gen.h **** {
 123:Drivers/lvgl/src/extra/widgets/meter/../../../../src/core/lv_obj_style_gen.h ****     lv_style_value_t v = lv_obj_get_style_prop(obj, part, LV_STYLE_PAD_RIGHT);
 124:Drivers/lvgl/src/extra/widgets/meter/../../../../src/core/lv_obj_style_gen.h ****     return (lv_coord_t)v.num;
 125:Drivers/lvgl/src/extra/widgets/meter/../../../../src/core/lv_obj_style_gen.h **** }
 126:Drivers/lvgl/src/extra/widgets/meter/../../../../src/core/lv_obj_style_gen.h **** 
 127:Drivers/lvgl/src/extra/widgets/meter/../../../../src/core/lv_obj_style_gen.h **** static inline lv_coord_t lv_obj_get_style_pad_row(const struct _lv_obj_t * obj, uint32_t part)
 128:Drivers/lvgl/src/extra/widgets/meter/../../../../src/core/lv_obj_style_gen.h **** {
 129:Drivers/lvgl/src/extra/widgets/meter/../../../../src/core/lv_obj_style_gen.h ****     lv_style_value_t v = lv_obj_get_style_prop(obj, part, LV_STYLE_PAD_ROW);
 130:Drivers/lvgl/src/extra/widgets/meter/../../../../src/core/lv_obj_style_gen.h ****     return (lv_coord_t)v.num;
 131:Drivers/lvgl/src/extra/widgets/meter/../../../../src/core/lv_obj_style_gen.h **** }
 132:Drivers/lvgl/src/extra/widgets/meter/../../../../src/core/lv_obj_style_gen.h **** 
 133:Drivers/lvgl/src/extra/widgets/meter/../../../../src/core/lv_obj_style_gen.h **** static inline lv_coord_t lv_obj_get_style_pad_column(const struct _lv_obj_t * obj, uint32_t part)
 134:Drivers/lvgl/src/extra/widgets/meter/../../../../src/core/lv_obj_style_gen.h **** {
 135:Drivers/lvgl/src/extra/widgets/meter/../../../../src/core/lv_obj_style_gen.h ****     lv_style_value_t v = lv_obj_get_style_prop(obj, part, LV_STYLE_PAD_COLUMN);
 136:Drivers/lvgl/src/extra/widgets/meter/../../../../src/core/lv_obj_style_gen.h ****     return (lv_coord_t)v.num;
 137:Drivers/lvgl/src/extra/widgets/meter/../../../../src/core/lv_obj_style_gen.h **** }
 138:Drivers/lvgl/src/extra/widgets/meter/../../../../src/core/lv_obj_style_gen.h **** 
 139:Drivers/lvgl/src/extra/widgets/meter/../../../../src/core/lv_obj_style_gen.h **** static inline lv_color_t lv_obj_get_style_bg_color(const struct _lv_obj_t * obj, uint32_t part)
 140:Drivers/lvgl/src/extra/widgets/meter/../../../../src/core/lv_obj_style_gen.h **** {
 141:Drivers/lvgl/src/extra/widgets/meter/../../../../src/core/lv_obj_style_gen.h ****     lv_style_value_t v = lv_obj_get_style_prop(obj, part, LV_STYLE_BG_COLOR);
 142:Drivers/lvgl/src/extra/widgets/meter/../../../../src/core/lv_obj_style_gen.h ****     return v.color;
 143:Drivers/lvgl/src/extra/widgets/meter/../../../../src/core/lv_obj_style_gen.h **** }
 144:Drivers/lvgl/src/extra/widgets/meter/../../../../src/core/lv_obj_style_gen.h **** 
 145:Drivers/lvgl/src/extra/widgets/meter/../../../../src/core/lv_obj_style_gen.h **** static inline lv_color_t lv_obj_get_style_bg_color_filtered(const struct _lv_obj_t * obj, uint32_t 
 146:Drivers/lvgl/src/extra/widgets/meter/../../../../src/core/lv_obj_style_gen.h **** {
 147:Drivers/lvgl/src/extra/widgets/meter/../../../../src/core/lv_obj_style_gen.h ****     lv_style_value_t v = _lv_obj_style_apply_color_filter(obj, part, lv_obj_get_style_prop(obj, par
 148:Drivers/lvgl/src/extra/widgets/meter/../../../../src/core/lv_obj_style_gen.h ****     return v.color;
 149:Drivers/lvgl/src/extra/widgets/meter/../../../../src/core/lv_obj_style_gen.h **** }
 150:Drivers/lvgl/src/extra/widgets/meter/../../../../src/core/lv_obj_style_gen.h **** 
 151:Drivers/lvgl/src/extra/widgets/meter/../../../../src/core/lv_obj_style_gen.h **** static inline lv_opa_t lv_obj_get_style_bg_opa(const struct _lv_obj_t * obj, uint32_t part)
 152:Drivers/lvgl/src/extra/widgets/meter/../../../../src/core/lv_obj_style_gen.h **** {
 153:Drivers/lvgl/src/extra/widgets/meter/../../../../src/core/lv_obj_style_gen.h ****     lv_style_value_t v = lv_obj_get_style_prop(obj, part, LV_STYLE_BG_OPA);
 154:Drivers/lvgl/src/extra/widgets/meter/../../../../src/core/lv_obj_style_gen.h ****     return (lv_opa_t)v.num;
 155:Drivers/lvgl/src/extra/widgets/meter/../../../../src/core/lv_obj_style_gen.h **** }
 156:Drivers/lvgl/src/extra/widgets/meter/../../../../src/core/lv_obj_style_gen.h **** 
 157:Drivers/lvgl/src/extra/widgets/meter/../../../../src/core/lv_obj_style_gen.h **** static inline lv_color_t lv_obj_get_style_bg_grad_color(const struct _lv_obj_t * obj, uint32_t part
 158:Drivers/lvgl/src/extra/widgets/meter/../../../../src/core/lv_obj_style_gen.h **** {
 159:Drivers/lvgl/src/extra/widgets/meter/../../../../src/core/lv_obj_style_gen.h ****     lv_style_value_t v = lv_obj_get_style_prop(obj, part, LV_STYLE_BG_GRAD_COLOR);
 160:Drivers/lvgl/src/extra/widgets/meter/../../../../src/core/lv_obj_style_gen.h ****     return v.color;
 161:Drivers/lvgl/src/extra/widgets/meter/../../../../src/core/lv_obj_style_gen.h **** }
 162:Drivers/lvgl/src/extra/widgets/meter/../../../../src/core/lv_obj_style_gen.h **** 
 163:Drivers/lvgl/src/extra/widgets/meter/../../../../src/core/lv_obj_style_gen.h **** static inline lv_color_t lv_obj_get_style_bg_grad_color_filtered(const struct _lv_obj_t * obj, uint
 164:Drivers/lvgl/src/extra/widgets/meter/../../../../src/core/lv_obj_style_gen.h **** {
 165:Drivers/lvgl/src/extra/widgets/meter/../../../../src/core/lv_obj_style_gen.h ****     lv_style_value_t v = _lv_obj_style_apply_color_filter(obj, part, lv_obj_get_style_prop(obj, par
 166:Drivers/lvgl/src/extra/widgets/meter/../../../../src/core/lv_obj_style_gen.h ****     return v.color;
 167:Drivers/lvgl/src/extra/widgets/meter/../../../../src/core/lv_obj_style_gen.h **** }
 168:Drivers/lvgl/src/extra/widgets/meter/../../../../src/core/lv_obj_style_gen.h **** 
 169:Drivers/lvgl/src/extra/widgets/meter/../../../../src/core/lv_obj_style_gen.h **** static inline lv_grad_dir_t lv_obj_get_style_bg_grad_dir(const struct _lv_obj_t * obj, uint32_t par
 170:Drivers/lvgl/src/extra/widgets/meter/../../../../src/core/lv_obj_style_gen.h **** {
 171:Drivers/lvgl/src/extra/widgets/meter/../../../../src/core/lv_obj_style_gen.h ****     lv_style_value_t v = lv_obj_get_style_prop(obj, part, LV_STYLE_BG_GRAD_DIR);
 172:Drivers/lvgl/src/extra/widgets/meter/../../../../src/core/lv_obj_style_gen.h ****     return (lv_grad_dir_t)v.num;
ARM GAS  /var/folders/lp/x54gwt890xv47sdkqj1k04q40000gn/T//ccVgM3G4.s 			page 18


 173:Drivers/lvgl/src/extra/widgets/meter/../../../../src/core/lv_obj_style_gen.h **** }
 174:Drivers/lvgl/src/extra/widgets/meter/../../../../src/core/lv_obj_style_gen.h **** 
 175:Drivers/lvgl/src/extra/widgets/meter/../../../../src/core/lv_obj_style_gen.h **** static inline lv_coord_t lv_obj_get_style_bg_main_stop(const struct _lv_obj_t * obj, uint32_t part)
 176:Drivers/lvgl/src/extra/widgets/meter/../../../../src/core/lv_obj_style_gen.h **** {
 177:Drivers/lvgl/src/extra/widgets/meter/../../../../src/core/lv_obj_style_gen.h ****     lv_style_value_t v = lv_obj_get_style_prop(obj, part, LV_STYLE_BG_MAIN_STOP);
 178:Drivers/lvgl/src/extra/widgets/meter/../../../../src/core/lv_obj_style_gen.h ****     return (lv_coord_t)v.num;
 179:Drivers/lvgl/src/extra/widgets/meter/../../../../src/core/lv_obj_style_gen.h **** }
 180:Drivers/lvgl/src/extra/widgets/meter/../../../../src/core/lv_obj_style_gen.h **** 
 181:Drivers/lvgl/src/extra/widgets/meter/../../../../src/core/lv_obj_style_gen.h **** static inline lv_coord_t lv_obj_get_style_bg_grad_stop(const struct _lv_obj_t * obj, uint32_t part)
 182:Drivers/lvgl/src/extra/widgets/meter/../../../../src/core/lv_obj_style_gen.h **** {
 183:Drivers/lvgl/src/extra/widgets/meter/../../../../src/core/lv_obj_style_gen.h ****     lv_style_value_t v = lv_obj_get_style_prop(obj, part, LV_STYLE_BG_GRAD_STOP);
 184:Drivers/lvgl/src/extra/widgets/meter/../../../../src/core/lv_obj_style_gen.h ****     return (lv_coord_t)v.num;
 185:Drivers/lvgl/src/extra/widgets/meter/../../../../src/core/lv_obj_style_gen.h **** }
 186:Drivers/lvgl/src/extra/widgets/meter/../../../../src/core/lv_obj_style_gen.h **** 
 187:Drivers/lvgl/src/extra/widgets/meter/../../../../src/core/lv_obj_style_gen.h **** static inline const lv_grad_dsc_t * lv_obj_get_style_bg_grad(const struct _lv_obj_t * obj, uint32_t
 188:Drivers/lvgl/src/extra/widgets/meter/../../../../src/core/lv_obj_style_gen.h **** {
 189:Drivers/lvgl/src/extra/widgets/meter/../../../../src/core/lv_obj_style_gen.h ****     lv_style_value_t v = lv_obj_get_style_prop(obj, part, LV_STYLE_BG_GRAD);
 190:Drivers/lvgl/src/extra/widgets/meter/../../../../src/core/lv_obj_style_gen.h ****     return (const lv_grad_dsc_t *)v.ptr;
 191:Drivers/lvgl/src/extra/widgets/meter/../../../../src/core/lv_obj_style_gen.h **** }
 192:Drivers/lvgl/src/extra/widgets/meter/../../../../src/core/lv_obj_style_gen.h **** 
 193:Drivers/lvgl/src/extra/widgets/meter/../../../../src/core/lv_obj_style_gen.h **** static inline lv_dither_mode_t lv_obj_get_style_bg_dither_mode(const struct _lv_obj_t * obj, uint32
 194:Drivers/lvgl/src/extra/widgets/meter/../../../../src/core/lv_obj_style_gen.h **** {
 195:Drivers/lvgl/src/extra/widgets/meter/../../../../src/core/lv_obj_style_gen.h ****     lv_style_value_t v = lv_obj_get_style_prop(obj, part, LV_STYLE_BG_DITHER_MODE);
 196:Drivers/lvgl/src/extra/widgets/meter/../../../../src/core/lv_obj_style_gen.h ****     return (lv_dither_mode_t)v.num;
 197:Drivers/lvgl/src/extra/widgets/meter/../../../../src/core/lv_obj_style_gen.h **** }
 198:Drivers/lvgl/src/extra/widgets/meter/../../../../src/core/lv_obj_style_gen.h **** 
 199:Drivers/lvgl/src/extra/widgets/meter/../../../../src/core/lv_obj_style_gen.h **** static inline const void * lv_obj_get_style_bg_img_src(const struct _lv_obj_t * obj, uint32_t part)
 200:Drivers/lvgl/src/extra/widgets/meter/../../../../src/core/lv_obj_style_gen.h **** {
 201:Drivers/lvgl/src/extra/widgets/meter/../../../../src/core/lv_obj_style_gen.h ****     lv_style_value_t v = lv_obj_get_style_prop(obj, part, LV_STYLE_BG_IMG_SRC);
 202:Drivers/lvgl/src/extra/widgets/meter/../../../../src/core/lv_obj_style_gen.h ****     return (const void *)v.ptr;
 203:Drivers/lvgl/src/extra/widgets/meter/../../../../src/core/lv_obj_style_gen.h **** }
 204:Drivers/lvgl/src/extra/widgets/meter/../../../../src/core/lv_obj_style_gen.h **** 
 205:Drivers/lvgl/src/extra/widgets/meter/../../../../src/core/lv_obj_style_gen.h **** static inline lv_opa_t lv_obj_get_style_bg_img_opa(const struct _lv_obj_t * obj, uint32_t part)
 206:Drivers/lvgl/src/extra/widgets/meter/../../../../src/core/lv_obj_style_gen.h **** {
 207:Drivers/lvgl/src/extra/widgets/meter/../../../../src/core/lv_obj_style_gen.h ****     lv_style_value_t v = lv_obj_get_style_prop(obj, part, LV_STYLE_BG_IMG_OPA);
 208:Drivers/lvgl/src/extra/widgets/meter/../../../../src/core/lv_obj_style_gen.h ****     return (lv_opa_t)v.num;
 209:Drivers/lvgl/src/extra/widgets/meter/../../../../src/core/lv_obj_style_gen.h **** }
 210:Drivers/lvgl/src/extra/widgets/meter/../../../../src/core/lv_obj_style_gen.h **** 
 211:Drivers/lvgl/src/extra/widgets/meter/../../../../src/core/lv_obj_style_gen.h **** static inline lv_color_t lv_obj_get_style_bg_img_recolor(const struct _lv_obj_t * obj, uint32_t par
 212:Drivers/lvgl/src/extra/widgets/meter/../../../../src/core/lv_obj_style_gen.h **** {
 213:Drivers/lvgl/src/extra/widgets/meter/../../../../src/core/lv_obj_style_gen.h ****     lv_style_value_t v = lv_obj_get_style_prop(obj, part, LV_STYLE_BG_IMG_RECOLOR);
 214:Drivers/lvgl/src/extra/widgets/meter/../../../../src/core/lv_obj_style_gen.h ****     return v.color;
 215:Drivers/lvgl/src/extra/widgets/meter/../../../../src/core/lv_obj_style_gen.h **** }
 216:Drivers/lvgl/src/extra/widgets/meter/../../../../src/core/lv_obj_style_gen.h **** 
 217:Drivers/lvgl/src/extra/widgets/meter/../../../../src/core/lv_obj_style_gen.h **** static inline lv_color_t lv_obj_get_style_bg_img_recolor_filtered(const struct _lv_obj_t * obj, uin
 218:Drivers/lvgl/src/extra/widgets/meter/../../../../src/core/lv_obj_style_gen.h **** {
 219:Drivers/lvgl/src/extra/widgets/meter/../../../../src/core/lv_obj_style_gen.h ****     lv_style_value_t v = _lv_obj_style_apply_color_filter(obj, part, lv_obj_get_style_prop(obj, par
 220:Drivers/lvgl/src/extra/widgets/meter/../../../../src/core/lv_obj_style_gen.h ****     return v.color;
 221:Drivers/lvgl/src/extra/widgets/meter/../../../../src/core/lv_obj_style_gen.h **** }
 222:Drivers/lvgl/src/extra/widgets/meter/../../../../src/core/lv_obj_style_gen.h **** 
 223:Drivers/lvgl/src/extra/widgets/meter/../../../../src/core/lv_obj_style_gen.h **** static inline lv_opa_t lv_obj_get_style_bg_img_recolor_opa(const struct _lv_obj_t * obj, uint32_t p
 224:Drivers/lvgl/src/extra/widgets/meter/../../../../src/core/lv_obj_style_gen.h **** {
 225:Drivers/lvgl/src/extra/widgets/meter/../../../../src/core/lv_obj_style_gen.h ****     lv_style_value_t v = lv_obj_get_style_prop(obj, part, LV_STYLE_BG_IMG_RECOLOR_OPA);
 226:Drivers/lvgl/src/extra/widgets/meter/../../../../src/core/lv_obj_style_gen.h ****     return (lv_opa_t)v.num;
 227:Drivers/lvgl/src/extra/widgets/meter/../../../../src/core/lv_obj_style_gen.h **** }
 228:Drivers/lvgl/src/extra/widgets/meter/../../../../src/core/lv_obj_style_gen.h **** 
 229:Drivers/lvgl/src/extra/widgets/meter/../../../../src/core/lv_obj_style_gen.h **** static inline bool lv_obj_get_style_bg_img_tiled(const struct _lv_obj_t * obj, uint32_t part)
ARM GAS  /var/folders/lp/x54gwt890xv47sdkqj1k04q40000gn/T//ccVgM3G4.s 			page 19


 230:Drivers/lvgl/src/extra/widgets/meter/../../../../src/core/lv_obj_style_gen.h **** {
 231:Drivers/lvgl/src/extra/widgets/meter/../../../../src/core/lv_obj_style_gen.h ****     lv_style_value_t v = lv_obj_get_style_prop(obj, part, LV_STYLE_BG_IMG_TILED);
 232:Drivers/lvgl/src/extra/widgets/meter/../../../../src/core/lv_obj_style_gen.h ****     return (bool)v.num;
 233:Drivers/lvgl/src/extra/widgets/meter/../../../../src/core/lv_obj_style_gen.h **** }
 234:Drivers/lvgl/src/extra/widgets/meter/../../../../src/core/lv_obj_style_gen.h **** 
 235:Drivers/lvgl/src/extra/widgets/meter/../../../../src/core/lv_obj_style_gen.h **** static inline lv_color_t lv_obj_get_style_border_color(const struct _lv_obj_t * obj, uint32_t part)
 236:Drivers/lvgl/src/extra/widgets/meter/../../../../src/core/lv_obj_style_gen.h **** {
 237:Drivers/lvgl/src/extra/widgets/meter/../../../../src/core/lv_obj_style_gen.h ****     lv_style_value_t v = lv_obj_get_style_prop(obj, part, LV_STYLE_BORDER_COLOR);
 238:Drivers/lvgl/src/extra/widgets/meter/../../../../src/core/lv_obj_style_gen.h ****     return v.color;
 239:Drivers/lvgl/src/extra/widgets/meter/../../../../src/core/lv_obj_style_gen.h **** }
 240:Drivers/lvgl/src/extra/widgets/meter/../../../../src/core/lv_obj_style_gen.h **** 
 241:Drivers/lvgl/src/extra/widgets/meter/../../../../src/core/lv_obj_style_gen.h **** static inline lv_color_t lv_obj_get_style_border_color_filtered(const struct _lv_obj_t * obj, uint3
 242:Drivers/lvgl/src/extra/widgets/meter/../../../../src/core/lv_obj_style_gen.h **** {
 243:Drivers/lvgl/src/extra/widgets/meter/../../../../src/core/lv_obj_style_gen.h ****     lv_style_value_t v = _lv_obj_style_apply_color_filter(obj, part, lv_obj_get_style_prop(obj, par
 244:Drivers/lvgl/src/extra/widgets/meter/../../../../src/core/lv_obj_style_gen.h ****     return v.color;
 245:Drivers/lvgl/src/extra/widgets/meter/../../../../src/core/lv_obj_style_gen.h **** }
 246:Drivers/lvgl/src/extra/widgets/meter/../../../../src/core/lv_obj_style_gen.h **** 
 247:Drivers/lvgl/src/extra/widgets/meter/../../../../src/core/lv_obj_style_gen.h **** static inline lv_opa_t lv_obj_get_style_border_opa(const struct _lv_obj_t * obj, uint32_t part)
 248:Drivers/lvgl/src/extra/widgets/meter/../../../../src/core/lv_obj_style_gen.h **** {
 249:Drivers/lvgl/src/extra/widgets/meter/../../../../src/core/lv_obj_style_gen.h ****     lv_style_value_t v = lv_obj_get_style_prop(obj, part, LV_STYLE_BORDER_OPA);
 250:Drivers/lvgl/src/extra/widgets/meter/../../../../src/core/lv_obj_style_gen.h ****     return (lv_opa_t)v.num;
 251:Drivers/lvgl/src/extra/widgets/meter/../../../../src/core/lv_obj_style_gen.h **** }
 252:Drivers/lvgl/src/extra/widgets/meter/../../../../src/core/lv_obj_style_gen.h **** 
 253:Drivers/lvgl/src/extra/widgets/meter/../../../../src/core/lv_obj_style_gen.h **** static inline lv_coord_t lv_obj_get_style_border_width(const struct _lv_obj_t * obj, uint32_t part)
 254:Drivers/lvgl/src/extra/widgets/meter/../../../../src/core/lv_obj_style_gen.h **** {
 255:Drivers/lvgl/src/extra/widgets/meter/../../../../src/core/lv_obj_style_gen.h ****     lv_style_value_t v = lv_obj_get_style_prop(obj, part, LV_STYLE_BORDER_WIDTH);
 256:Drivers/lvgl/src/extra/widgets/meter/../../../../src/core/lv_obj_style_gen.h ****     return (lv_coord_t)v.num;
 257:Drivers/lvgl/src/extra/widgets/meter/../../../../src/core/lv_obj_style_gen.h **** }
 258:Drivers/lvgl/src/extra/widgets/meter/../../../../src/core/lv_obj_style_gen.h **** 
 259:Drivers/lvgl/src/extra/widgets/meter/../../../../src/core/lv_obj_style_gen.h **** static inline lv_border_side_t lv_obj_get_style_border_side(const struct _lv_obj_t * obj, uint32_t 
 260:Drivers/lvgl/src/extra/widgets/meter/../../../../src/core/lv_obj_style_gen.h **** {
 261:Drivers/lvgl/src/extra/widgets/meter/../../../../src/core/lv_obj_style_gen.h ****     lv_style_value_t v = lv_obj_get_style_prop(obj, part, LV_STYLE_BORDER_SIDE);
 262:Drivers/lvgl/src/extra/widgets/meter/../../../../src/core/lv_obj_style_gen.h ****     return (lv_border_side_t)v.num;
 263:Drivers/lvgl/src/extra/widgets/meter/../../../../src/core/lv_obj_style_gen.h **** }
 264:Drivers/lvgl/src/extra/widgets/meter/../../../../src/core/lv_obj_style_gen.h **** 
 265:Drivers/lvgl/src/extra/widgets/meter/../../../../src/core/lv_obj_style_gen.h **** static inline bool lv_obj_get_style_border_post(const struct _lv_obj_t * obj, uint32_t part)
 266:Drivers/lvgl/src/extra/widgets/meter/../../../../src/core/lv_obj_style_gen.h **** {
 267:Drivers/lvgl/src/extra/widgets/meter/../../../../src/core/lv_obj_style_gen.h ****     lv_style_value_t v = lv_obj_get_style_prop(obj, part, LV_STYLE_BORDER_POST);
 268:Drivers/lvgl/src/extra/widgets/meter/../../../../src/core/lv_obj_style_gen.h ****     return (bool)v.num;
 269:Drivers/lvgl/src/extra/widgets/meter/../../../../src/core/lv_obj_style_gen.h **** }
 270:Drivers/lvgl/src/extra/widgets/meter/../../../../src/core/lv_obj_style_gen.h **** 
 271:Drivers/lvgl/src/extra/widgets/meter/../../../../src/core/lv_obj_style_gen.h **** static inline lv_coord_t lv_obj_get_style_outline_width(const struct _lv_obj_t * obj, uint32_t part
 272:Drivers/lvgl/src/extra/widgets/meter/../../../../src/core/lv_obj_style_gen.h **** {
 273:Drivers/lvgl/src/extra/widgets/meter/../../../../src/core/lv_obj_style_gen.h ****     lv_style_value_t v = lv_obj_get_style_prop(obj, part, LV_STYLE_OUTLINE_WIDTH);
 274:Drivers/lvgl/src/extra/widgets/meter/../../../../src/core/lv_obj_style_gen.h ****     return (lv_coord_t)v.num;
 275:Drivers/lvgl/src/extra/widgets/meter/../../../../src/core/lv_obj_style_gen.h **** }
 276:Drivers/lvgl/src/extra/widgets/meter/../../../../src/core/lv_obj_style_gen.h **** 
 277:Drivers/lvgl/src/extra/widgets/meter/../../../../src/core/lv_obj_style_gen.h **** static inline lv_color_t lv_obj_get_style_outline_color(const struct _lv_obj_t * obj, uint32_t part
 278:Drivers/lvgl/src/extra/widgets/meter/../../../../src/core/lv_obj_style_gen.h **** {
 279:Drivers/lvgl/src/extra/widgets/meter/../../../../src/core/lv_obj_style_gen.h ****     lv_style_value_t v = lv_obj_get_style_prop(obj, part, LV_STYLE_OUTLINE_COLOR);
 280:Drivers/lvgl/src/extra/widgets/meter/../../../../src/core/lv_obj_style_gen.h ****     return v.color;
 281:Drivers/lvgl/src/extra/widgets/meter/../../../../src/core/lv_obj_style_gen.h **** }
 282:Drivers/lvgl/src/extra/widgets/meter/../../../../src/core/lv_obj_style_gen.h **** 
 283:Drivers/lvgl/src/extra/widgets/meter/../../../../src/core/lv_obj_style_gen.h **** static inline lv_color_t lv_obj_get_style_outline_color_filtered(const struct _lv_obj_t * obj, uint
 284:Drivers/lvgl/src/extra/widgets/meter/../../../../src/core/lv_obj_style_gen.h **** {
 285:Drivers/lvgl/src/extra/widgets/meter/../../../../src/core/lv_obj_style_gen.h ****     lv_style_value_t v = _lv_obj_style_apply_color_filter(obj, part, lv_obj_get_style_prop(obj, par
 286:Drivers/lvgl/src/extra/widgets/meter/../../../../src/core/lv_obj_style_gen.h ****     return v.color;
ARM GAS  /var/folders/lp/x54gwt890xv47sdkqj1k04q40000gn/T//ccVgM3G4.s 			page 20


 287:Drivers/lvgl/src/extra/widgets/meter/../../../../src/core/lv_obj_style_gen.h **** }
 288:Drivers/lvgl/src/extra/widgets/meter/../../../../src/core/lv_obj_style_gen.h **** 
 289:Drivers/lvgl/src/extra/widgets/meter/../../../../src/core/lv_obj_style_gen.h **** static inline lv_opa_t lv_obj_get_style_outline_opa(const struct _lv_obj_t * obj, uint32_t part)
 290:Drivers/lvgl/src/extra/widgets/meter/../../../../src/core/lv_obj_style_gen.h **** {
 291:Drivers/lvgl/src/extra/widgets/meter/../../../../src/core/lv_obj_style_gen.h ****     lv_style_value_t v = lv_obj_get_style_prop(obj, part, LV_STYLE_OUTLINE_OPA);
 292:Drivers/lvgl/src/extra/widgets/meter/../../../../src/core/lv_obj_style_gen.h ****     return (lv_opa_t)v.num;
 293:Drivers/lvgl/src/extra/widgets/meter/../../../../src/core/lv_obj_style_gen.h **** }
 294:Drivers/lvgl/src/extra/widgets/meter/../../../../src/core/lv_obj_style_gen.h **** 
 295:Drivers/lvgl/src/extra/widgets/meter/../../../../src/core/lv_obj_style_gen.h **** static inline lv_coord_t lv_obj_get_style_outline_pad(const struct _lv_obj_t * obj, uint32_t part)
 296:Drivers/lvgl/src/extra/widgets/meter/../../../../src/core/lv_obj_style_gen.h **** {
 297:Drivers/lvgl/src/extra/widgets/meter/../../../../src/core/lv_obj_style_gen.h ****     lv_style_value_t v = lv_obj_get_style_prop(obj, part, LV_STYLE_OUTLINE_PAD);
 298:Drivers/lvgl/src/extra/widgets/meter/../../../../src/core/lv_obj_style_gen.h ****     return (lv_coord_t)v.num;
 299:Drivers/lvgl/src/extra/widgets/meter/../../../../src/core/lv_obj_style_gen.h **** }
 300:Drivers/lvgl/src/extra/widgets/meter/../../../../src/core/lv_obj_style_gen.h **** 
 301:Drivers/lvgl/src/extra/widgets/meter/../../../../src/core/lv_obj_style_gen.h **** static inline lv_coord_t lv_obj_get_style_shadow_width(const struct _lv_obj_t * obj, uint32_t part)
 302:Drivers/lvgl/src/extra/widgets/meter/../../../../src/core/lv_obj_style_gen.h **** {
 303:Drivers/lvgl/src/extra/widgets/meter/../../../../src/core/lv_obj_style_gen.h ****     lv_style_value_t v = lv_obj_get_style_prop(obj, part, LV_STYLE_SHADOW_WIDTH);
 304:Drivers/lvgl/src/extra/widgets/meter/../../../../src/core/lv_obj_style_gen.h ****     return (lv_coord_t)v.num;
 305:Drivers/lvgl/src/extra/widgets/meter/../../../../src/core/lv_obj_style_gen.h **** }
 306:Drivers/lvgl/src/extra/widgets/meter/../../../../src/core/lv_obj_style_gen.h **** 
 307:Drivers/lvgl/src/extra/widgets/meter/../../../../src/core/lv_obj_style_gen.h **** static inline lv_coord_t lv_obj_get_style_shadow_ofs_x(const struct _lv_obj_t * obj, uint32_t part)
 308:Drivers/lvgl/src/extra/widgets/meter/../../../../src/core/lv_obj_style_gen.h **** {
 309:Drivers/lvgl/src/extra/widgets/meter/../../../../src/core/lv_obj_style_gen.h ****     lv_style_value_t v = lv_obj_get_style_prop(obj, part, LV_STYLE_SHADOW_OFS_X);
 310:Drivers/lvgl/src/extra/widgets/meter/../../../../src/core/lv_obj_style_gen.h ****     return (lv_coord_t)v.num;
 311:Drivers/lvgl/src/extra/widgets/meter/../../../../src/core/lv_obj_style_gen.h **** }
 312:Drivers/lvgl/src/extra/widgets/meter/../../../../src/core/lv_obj_style_gen.h **** 
 313:Drivers/lvgl/src/extra/widgets/meter/../../../../src/core/lv_obj_style_gen.h **** static inline lv_coord_t lv_obj_get_style_shadow_ofs_y(const struct _lv_obj_t * obj, uint32_t part)
 314:Drivers/lvgl/src/extra/widgets/meter/../../../../src/core/lv_obj_style_gen.h **** {
 315:Drivers/lvgl/src/extra/widgets/meter/../../../../src/core/lv_obj_style_gen.h ****     lv_style_value_t v = lv_obj_get_style_prop(obj, part, LV_STYLE_SHADOW_OFS_Y);
 316:Drivers/lvgl/src/extra/widgets/meter/../../../../src/core/lv_obj_style_gen.h ****     return (lv_coord_t)v.num;
 317:Drivers/lvgl/src/extra/widgets/meter/../../../../src/core/lv_obj_style_gen.h **** }
 318:Drivers/lvgl/src/extra/widgets/meter/../../../../src/core/lv_obj_style_gen.h **** 
 319:Drivers/lvgl/src/extra/widgets/meter/../../../../src/core/lv_obj_style_gen.h **** static inline lv_coord_t lv_obj_get_style_shadow_spread(const struct _lv_obj_t * obj, uint32_t part
 320:Drivers/lvgl/src/extra/widgets/meter/../../../../src/core/lv_obj_style_gen.h **** {
 321:Drivers/lvgl/src/extra/widgets/meter/../../../../src/core/lv_obj_style_gen.h ****     lv_style_value_t v = lv_obj_get_style_prop(obj, part, LV_STYLE_SHADOW_SPREAD);
 322:Drivers/lvgl/src/extra/widgets/meter/../../../../src/core/lv_obj_style_gen.h ****     return (lv_coord_t)v.num;
 323:Drivers/lvgl/src/extra/widgets/meter/../../../../src/core/lv_obj_style_gen.h **** }
 324:Drivers/lvgl/src/extra/widgets/meter/../../../../src/core/lv_obj_style_gen.h **** 
 325:Drivers/lvgl/src/extra/widgets/meter/../../../../src/core/lv_obj_style_gen.h **** static inline lv_color_t lv_obj_get_style_shadow_color(const struct _lv_obj_t * obj, uint32_t part)
 326:Drivers/lvgl/src/extra/widgets/meter/../../../../src/core/lv_obj_style_gen.h **** {
 327:Drivers/lvgl/src/extra/widgets/meter/../../../../src/core/lv_obj_style_gen.h ****     lv_style_value_t v = lv_obj_get_style_prop(obj, part, LV_STYLE_SHADOW_COLOR);
 328:Drivers/lvgl/src/extra/widgets/meter/../../../../src/core/lv_obj_style_gen.h ****     return v.color;
 329:Drivers/lvgl/src/extra/widgets/meter/../../../../src/core/lv_obj_style_gen.h **** }
 330:Drivers/lvgl/src/extra/widgets/meter/../../../../src/core/lv_obj_style_gen.h **** 
 331:Drivers/lvgl/src/extra/widgets/meter/../../../../src/core/lv_obj_style_gen.h **** static inline lv_color_t lv_obj_get_style_shadow_color_filtered(const struct _lv_obj_t * obj, uint3
 332:Drivers/lvgl/src/extra/widgets/meter/../../../../src/core/lv_obj_style_gen.h **** {
 333:Drivers/lvgl/src/extra/widgets/meter/../../../../src/core/lv_obj_style_gen.h ****     lv_style_value_t v = _lv_obj_style_apply_color_filter(obj, part, lv_obj_get_style_prop(obj, par
 334:Drivers/lvgl/src/extra/widgets/meter/../../../../src/core/lv_obj_style_gen.h ****     return v.color;
 335:Drivers/lvgl/src/extra/widgets/meter/../../../../src/core/lv_obj_style_gen.h **** }
 336:Drivers/lvgl/src/extra/widgets/meter/../../../../src/core/lv_obj_style_gen.h **** 
 337:Drivers/lvgl/src/extra/widgets/meter/../../../../src/core/lv_obj_style_gen.h **** static inline lv_opa_t lv_obj_get_style_shadow_opa(const struct _lv_obj_t * obj, uint32_t part)
 338:Drivers/lvgl/src/extra/widgets/meter/../../../../src/core/lv_obj_style_gen.h **** {
 339:Drivers/lvgl/src/extra/widgets/meter/../../../../src/core/lv_obj_style_gen.h ****     lv_style_value_t v = lv_obj_get_style_prop(obj, part, LV_STYLE_SHADOW_OPA);
 340:Drivers/lvgl/src/extra/widgets/meter/../../../../src/core/lv_obj_style_gen.h ****     return (lv_opa_t)v.num;
 341:Drivers/lvgl/src/extra/widgets/meter/../../../../src/core/lv_obj_style_gen.h **** }
 342:Drivers/lvgl/src/extra/widgets/meter/../../../../src/core/lv_obj_style_gen.h **** 
 343:Drivers/lvgl/src/extra/widgets/meter/../../../../src/core/lv_obj_style_gen.h **** static inline lv_opa_t lv_obj_get_style_img_opa(const struct _lv_obj_t * obj, uint32_t part)
ARM GAS  /var/folders/lp/x54gwt890xv47sdkqj1k04q40000gn/T//ccVgM3G4.s 			page 21


 344:Drivers/lvgl/src/extra/widgets/meter/../../../../src/core/lv_obj_style_gen.h **** {
 345:Drivers/lvgl/src/extra/widgets/meter/../../../../src/core/lv_obj_style_gen.h ****     lv_style_value_t v = lv_obj_get_style_prop(obj, part, LV_STYLE_IMG_OPA);
 346:Drivers/lvgl/src/extra/widgets/meter/../../../../src/core/lv_obj_style_gen.h ****     return (lv_opa_t)v.num;
 347:Drivers/lvgl/src/extra/widgets/meter/../../../../src/core/lv_obj_style_gen.h **** }
 348:Drivers/lvgl/src/extra/widgets/meter/../../../../src/core/lv_obj_style_gen.h **** 
 349:Drivers/lvgl/src/extra/widgets/meter/../../../../src/core/lv_obj_style_gen.h **** static inline lv_color_t lv_obj_get_style_img_recolor(const struct _lv_obj_t * obj, uint32_t part)
 350:Drivers/lvgl/src/extra/widgets/meter/../../../../src/core/lv_obj_style_gen.h **** {
 351:Drivers/lvgl/src/extra/widgets/meter/../../../../src/core/lv_obj_style_gen.h ****     lv_style_value_t v = lv_obj_get_style_prop(obj, part, LV_STYLE_IMG_RECOLOR);
 352:Drivers/lvgl/src/extra/widgets/meter/../../../../src/core/lv_obj_style_gen.h ****     return v.color;
 353:Drivers/lvgl/src/extra/widgets/meter/../../../../src/core/lv_obj_style_gen.h **** }
 354:Drivers/lvgl/src/extra/widgets/meter/../../../../src/core/lv_obj_style_gen.h **** 
 355:Drivers/lvgl/src/extra/widgets/meter/../../../../src/core/lv_obj_style_gen.h **** static inline lv_color_t lv_obj_get_style_img_recolor_filtered(const struct _lv_obj_t * obj, uint32
 356:Drivers/lvgl/src/extra/widgets/meter/../../../../src/core/lv_obj_style_gen.h **** {
 357:Drivers/lvgl/src/extra/widgets/meter/../../../../src/core/lv_obj_style_gen.h ****     lv_style_value_t v = _lv_obj_style_apply_color_filter(obj, part, lv_obj_get_style_prop(obj, par
 358:Drivers/lvgl/src/extra/widgets/meter/../../../../src/core/lv_obj_style_gen.h ****     return v.color;
 359:Drivers/lvgl/src/extra/widgets/meter/../../../../src/core/lv_obj_style_gen.h **** }
 360:Drivers/lvgl/src/extra/widgets/meter/../../../../src/core/lv_obj_style_gen.h **** 
 361:Drivers/lvgl/src/extra/widgets/meter/../../../../src/core/lv_obj_style_gen.h **** static inline lv_opa_t lv_obj_get_style_img_recolor_opa(const struct _lv_obj_t * obj, uint32_t part
 362:Drivers/lvgl/src/extra/widgets/meter/../../../../src/core/lv_obj_style_gen.h **** {
 363:Drivers/lvgl/src/extra/widgets/meter/../../../../src/core/lv_obj_style_gen.h ****     lv_style_value_t v = lv_obj_get_style_prop(obj, part, LV_STYLE_IMG_RECOLOR_OPA);
 364:Drivers/lvgl/src/extra/widgets/meter/../../../../src/core/lv_obj_style_gen.h ****     return (lv_opa_t)v.num;
 365:Drivers/lvgl/src/extra/widgets/meter/../../../../src/core/lv_obj_style_gen.h **** }
 366:Drivers/lvgl/src/extra/widgets/meter/../../../../src/core/lv_obj_style_gen.h **** 
 367:Drivers/lvgl/src/extra/widgets/meter/../../../../src/core/lv_obj_style_gen.h **** static inline lv_coord_t lv_obj_get_style_line_width(const struct _lv_obj_t * obj, uint32_t part)
 368:Drivers/lvgl/src/extra/widgets/meter/../../../../src/core/lv_obj_style_gen.h **** {
 369:Drivers/lvgl/src/extra/widgets/meter/../../../../src/core/lv_obj_style_gen.h ****     lv_style_value_t v = lv_obj_get_style_prop(obj, part, LV_STYLE_LINE_WIDTH);
 370:Drivers/lvgl/src/extra/widgets/meter/../../../../src/core/lv_obj_style_gen.h ****     return (lv_coord_t)v.num;
 371:Drivers/lvgl/src/extra/widgets/meter/../../../../src/core/lv_obj_style_gen.h **** }
 372:Drivers/lvgl/src/extra/widgets/meter/../../../../src/core/lv_obj_style_gen.h **** 
 373:Drivers/lvgl/src/extra/widgets/meter/../../../../src/core/lv_obj_style_gen.h **** static inline lv_coord_t lv_obj_get_style_line_dash_width(const struct _lv_obj_t * obj, uint32_t pa
 374:Drivers/lvgl/src/extra/widgets/meter/../../../../src/core/lv_obj_style_gen.h **** {
 375:Drivers/lvgl/src/extra/widgets/meter/../../../../src/core/lv_obj_style_gen.h ****     lv_style_value_t v = lv_obj_get_style_prop(obj, part, LV_STYLE_LINE_DASH_WIDTH);
 376:Drivers/lvgl/src/extra/widgets/meter/../../../../src/core/lv_obj_style_gen.h ****     return (lv_coord_t)v.num;
 377:Drivers/lvgl/src/extra/widgets/meter/../../../../src/core/lv_obj_style_gen.h **** }
 378:Drivers/lvgl/src/extra/widgets/meter/../../../../src/core/lv_obj_style_gen.h **** 
 379:Drivers/lvgl/src/extra/widgets/meter/../../../../src/core/lv_obj_style_gen.h **** static inline lv_coord_t lv_obj_get_style_line_dash_gap(const struct _lv_obj_t * obj, uint32_t part
 380:Drivers/lvgl/src/extra/widgets/meter/../../../../src/core/lv_obj_style_gen.h **** {
 381:Drivers/lvgl/src/extra/widgets/meter/../../../../src/core/lv_obj_style_gen.h ****     lv_style_value_t v = lv_obj_get_style_prop(obj, part, LV_STYLE_LINE_DASH_GAP);
 382:Drivers/lvgl/src/extra/widgets/meter/../../../../src/core/lv_obj_style_gen.h ****     return (lv_coord_t)v.num;
 383:Drivers/lvgl/src/extra/widgets/meter/../../../../src/core/lv_obj_style_gen.h **** }
 384:Drivers/lvgl/src/extra/widgets/meter/../../../../src/core/lv_obj_style_gen.h **** 
 385:Drivers/lvgl/src/extra/widgets/meter/../../../../src/core/lv_obj_style_gen.h **** static inline bool lv_obj_get_style_line_rounded(const struct _lv_obj_t * obj, uint32_t part)
 386:Drivers/lvgl/src/extra/widgets/meter/../../../../src/core/lv_obj_style_gen.h **** {
 387:Drivers/lvgl/src/extra/widgets/meter/../../../../src/core/lv_obj_style_gen.h ****     lv_style_value_t v = lv_obj_get_style_prop(obj, part, LV_STYLE_LINE_ROUNDED);
 388:Drivers/lvgl/src/extra/widgets/meter/../../../../src/core/lv_obj_style_gen.h ****     return (bool)v.num;
 389:Drivers/lvgl/src/extra/widgets/meter/../../../../src/core/lv_obj_style_gen.h **** }
 390:Drivers/lvgl/src/extra/widgets/meter/../../../../src/core/lv_obj_style_gen.h **** 
 391:Drivers/lvgl/src/extra/widgets/meter/../../../../src/core/lv_obj_style_gen.h **** static inline lv_color_t lv_obj_get_style_line_color(const struct _lv_obj_t * obj, uint32_t part)
 392:Drivers/lvgl/src/extra/widgets/meter/../../../../src/core/lv_obj_style_gen.h **** {
 393:Drivers/lvgl/src/extra/widgets/meter/../../../../src/core/lv_obj_style_gen.h ****     lv_style_value_t v = lv_obj_get_style_prop(obj, part, LV_STYLE_LINE_COLOR);
 394:Drivers/lvgl/src/extra/widgets/meter/../../../../src/core/lv_obj_style_gen.h ****     return v.color;
 395:Drivers/lvgl/src/extra/widgets/meter/../../../../src/core/lv_obj_style_gen.h **** }
 396:Drivers/lvgl/src/extra/widgets/meter/../../../../src/core/lv_obj_style_gen.h **** 
 397:Drivers/lvgl/src/extra/widgets/meter/../../../../src/core/lv_obj_style_gen.h **** static inline lv_color_t lv_obj_get_style_line_color_filtered(const struct _lv_obj_t * obj, uint32_
 398:Drivers/lvgl/src/extra/widgets/meter/../../../../src/core/lv_obj_style_gen.h **** {
 399:Drivers/lvgl/src/extra/widgets/meter/../../../../src/core/lv_obj_style_gen.h ****     lv_style_value_t v = _lv_obj_style_apply_color_filter(obj, part, lv_obj_get_style_prop(obj, par
 400:Drivers/lvgl/src/extra/widgets/meter/../../../../src/core/lv_obj_style_gen.h ****     return v.color;
ARM GAS  /var/folders/lp/x54gwt890xv47sdkqj1k04q40000gn/T//ccVgM3G4.s 			page 22


 401:Drivers/lvgl/src/extra/widgets/meter/../../../../src/core/lv_obj_style_gen.h **** }
 402:Drivers/lvgl/src/extra/widgets/meter/../../../../src/core/lv_obj_style_gen.h **** 
 403:Drivers/lvgl/src/extra/widgets/meter/../../../../src/core/lv_obj_style_gen.h **** static inline lv_opa_t lv_obj_get_style_line_opa(const struct _lv_obj_t * obj, uint32_t part)
 404:Drivers/lvgl/src/extra/widgets/meter/../../../../src/core/lv_obj_style_gen.h **** {
 405:Drivers/lvgl/src/extra/widgets/meter/../../../../src/core/lv_obj_style_gen.h ****     lv_style_value_t v = lv_obj_get_style_prop(obj, part, LV_STYLE_LINE_OPA);
 406:Drivers/lvgl/src/extra/widgets/meter/../../../../src/core/lv_obj_style_gen.h ****     return (lv_opa_t)v.num;
 407:Drivers/lvgl/src/extra/widgets/meter/../../../../src/core/lv_obj_style_gen.h **** }
 408:Drivers/lvgl/src/extra/widgets/meter/../../../../src/core/lv_obj_style_gen.h **** 
 409:Drivers/lvgl/src/extra/widgets/meter/../../../../src/core/lv_obj_style_gen.h **** static inline lv_coord_t lv_obj_get_style_arc_width(const struct _lv_obj_t * obj, uint32_t part)
 410:Drivers/lvgl/src/extra/widgets/meter/../../../../src/core/lv_obj_style_gen.h **** {
 411:Drivers/lvgl/src/extra/widgets/meter/../../../../src/core/lv_obj_style_gen.h ****     lv_style_value_t v = lv_obj_get_style_prop(obj, part, LV_STYLE_ARC_WIDTH);
 412:Drivers/lvgl/src/extra/widgets/meter/../../../../src/core/lv_obj_style_gen.h ****     return (lv_coord_t)v.num;
 413:Drivers/lvgl/src/extra/widgets/meter/../../../../src/core/lv_obj_style_gen.h **** }
 414:Drivers/lvgl/src/extra/widgets/meter/../../../../src/core/lv_obj_style_gen.h **** 
 415:Drivers/lvgl/src/extra/widgets/meter/../../../../src/core/lv_obj_style_gen.h **** static inline bool lv_obj_get_style_arc_rounded(const struct _lv_obj_t * obj, uint32_t part)
 416:Drivers/lvgl/src/extra/widgets/meter/../../../../src/core/lv_obj_style_gen.h **** {
 417:Drivers/lvgl/src/extra/widgets/meter/../../../../src/core/lv_obj_style_gen.h ****     lv_style_value_t v = lv_obj_get_style_prop(obj, part, LV_STYLE_ARC_ROUNDED);
 153              		.loc 2 417 26 view .LVU31
 154 000a 4FF4A021 		mov	r1, #327680
 155              	.LVL14:
 156              		.loc 2 417 26 view .LVU32
 157 000e 5122     		movs	r2, #81
 158              	.LVL15:
 159              		.loc 2 417 26 view .LVU33
 160              	.LBE51:
 161              	.LBE50:
 630:Drivers/lvgl/src/extra/widgets/meter/lv_meter.c ****     bool rounded = lv_obj_get_style_arc_rounded(obj, LV_PART_ITEMS);
 162              		.loc 1 630 1 view .LVU34
 163 0010 8146     		mov	r9, r0
 164              	.LVL16:
 165              	.LBB56:
 166              	.LBI50:
 415:Drivers/lvgl/src/extra/widgets/meter/../../../../src/core/lv_obj_style_gen.h **** {
 167              		.loc 2 415 20 is_stmt 1 view .LVU35
 168              	.LBB52:
 169              		.loc 2 417 5 view .LVU36
 170              	.LBE52:
 171              	.LBE56:
 630:Drivers/lvgl/src/extra/widgets/meter/lv_meter.c ****     bool rounded = lv_obj_get_style_arc_rounded(obj, LV_PART_ITEMS);
 172              		.loc 1 630 1 is_stmt 0 view .LVU37
 173 0012 9A46     		mov	r10, r3
 174              	.LBB57:
 175              	.LBB53:
 176              		.loc 2 417 26 view .LVU38
 177 0014 FFF7FEFF 		bl	lv_obj_get_style_prop
 178              	.LVL17:
 418:Drivers/lvgl/src/extra/widgets/meter/../../../../src/core/lv_obj_style_gen.h ****     return (bool)v.num;
 179              		.loc 2 418 5 is_stmt 1 view .LVU39
 180              		.loc 2 418 5 is_stmt 0 view .LVU40
 181              	.LBE53:
 182              	.LBE57:
 632:Drivers/lvgl/src/extra/widgets/meter/lv_meter.c **** 
 633:Drivers/lvgl/src/extra/widgets/meter/lv_meter.c ****     lv_area_t scale_area;
 183              		.loc 1 633 5 is_stmt 1 view .LVU41
 634:Drivers/lvgl/src/extra/widgets/meter/lv_meter.c ****     lv_obj_get_content_coords(obj, &scale_area);
 184              		.loc 1 634 5 view .LVU42
 185              	.LBB58:
ARM GAS  /var/folders/lp/x54gwt890xv47sdkqj1k04q40000gn/T//ccVgM3G4.s 			page 23


 186              	.LBB54:
 187              		.loc 2 418 12 is_stmt 0 view .LVU43
 188 0018 031E     		subs	r3, r0, #0
 189 001a 18BF     		it	ne
 190 001c 0123     		movne	r3, #1
 191              	.LBE54:
 192              	.LBE58:
 193              		.loc 1 634 5 view .LVU44
 194 001e 06A9     		add	r1, sp, #24
 195 0020 4846     		mov	r0, r9
 196              	.LBB59:
 197              	.LBB55:
 198              		.loc 2 418 12 view .LVU45
 199 0022 0593     		str	r3, [sp, #20]
 200              	.LVL18:
 201              		.loc 2 418 12 view .LVU46
 202              	.LBE55:
 203              	.LBE59:
 204              		.loc 1 634 5 view .LVU47
 205 0024 FFF7FEFF 		bl	lv_obj_get_content_coords
 206              	.LVL19:
 635:Drivers/lvgl/src/extra/widgets/meter/lv_meter.c **** 
 636:Drivers/lvgl/src/extra/widgets/meter/lv_meter.c ****     lv_coord_t r_out = lv_area_get_width(&scale_area) / 2;
 207              		.loc 1 636 5 is_stmt 1 view .LVU48
 208              	.LBB60:
 209              	.LBI60:
 210              		.file 3 "Drivers/lvgl/src/extra/widgets/meter/../../../../src/hal/../draw/../misc/../font/../misc/
   1:Drivers/lvgl/src/extra/widgets/meter/../../../../src/hal/../draw/../misc/../font/../misc/lv_area.h **** /**
   2:Drivers/lvgl/src/extra/widgets/meter/../../../../src/hal/../draw/../misc/../font/../misc/lv_area.h ****  * @file lv_area.h
   3:Drivers/lvgl/src/extra/widgets/meter/../../../../src/hal/../draw/../misc/../font/../misc/lv_area.h ****  *
   4:Drivers/lvgl/src/extra/widgets/meter/../../../../src/hal/../draw/../misc/../font/../misc/lv_area.h ****  */
   5:Drivers/lvgl/src/extra/widgets/meter/../../../../src/hal/../draw/../misc/../font/../misc/lv_area.h **** 
   6:Drivers/lvgl/src/extra/widgets/meter/../../../../src/hal/../draw/../misc/../font/../misc/lv_area.h **** #ifndef LV_AREA_H
   7:Drivers/lvgl/src/extra/widgets/meter/../../../../src/hal/../draw/../misc/../font/../misc/lv_area.h **** #define LV_AREA_H
   8:Drivers/lvgl/src/extra/widgets/meter/../../../../src/hal/../draw/../misc/../font/../misc/lv_area.h **** 
   9:Drivers/lvgl/src/extra/widgets/meter/../../../../src/hal/../draw/../misc/../font/../misc/lv_area.h **** #ifdef __cplusplus
  10:Drivers/lvgl/src/extra/widgets/meter/../../../../src/hal/../draw/../misc/../font/../misc/lv_area.h **** extern "C" {
  11:Drivers/lvgl/src/extra/widgets/meter/../../../../src/hal/../draw/../misc/../font/../misc/lv_area.h **** #endif
  12:Drivers/lvgl/src/extra/widgets/meter/../../../../src/hal/../draw/../misc/../font/../misc/lv_area.h **** 
  13:Drivers/lvgl/src/extra/widgets/meter/../../../../src/hal/../draw/../misc/../font/../misc/lv_area.h **** /*********************
  14:Drivers/lvgl/src/extra/widgets/meter/../../../../src/hal/../draw/../misc/../font/../misc/lv_area.h ****  *      INCLUDES
  15:Drivers/lvgl/src/extra/widgets/meter/../../../../src/hal/../draw/../misc/../font/../misc/lv_area.h ****  *********************/
  16:Drivers/lvgl/src/extra/widgets/meter/../../../../src/hal/../draw/../misc/../font/../misc/lv_area.h **** #include "../lv_conf_internal.h"
  17:Drivers/lvgl/src/extra/widgets/meter/../../../../src/hal/../draw/../misc/../font/../misc/lv_area.h **** #include <stdbool.h>
  18:Drivers/lvgl/src/extra/widgets/meter/../../../../src/hal/../draw/../misc/../font/../misc/lv_area.h **** #include <stdint.h>
  19:Drivers/lvgl/src/extra/widgets/meter/../../../../src/hal/../draw/../misc/../font/../misc/lv_area.h **** 
  20:Drivers/lvgl/src/extra/widgets/meter/../../../../src/hal/../draw/../misc/../font/../misc/lv_area.h **** /*********************
  21:Drivers/lvgl/src/extra/widgets/meter/../../../../src/hal/../draw/../misc/../font/../misc/lv_area.h ****  *      DEFINES
  22:Drivers/lvgl/src/extra/widgets/meter/../../../../src/hal/../draw/../misc/../font/../misc/lv_area.h ****  *********************/
  23:Drivers/lvgl/src/extra/widgets/meter/../../../../src/hal/../draw/../misc/../font/../misc/lv_area.h **** 
  24:Drivers/lvgl/src/extra/widgets/meter/../../../../src/hal/../draw/../misc/../font/../misc/lv_area.h **** #if LV_USE_LARGE_COORD
  25:Drivers/lvgl/src/extra/widgets/meter/../../../../src/hal/../draw/../misc/../font/../misc/lv_area.h **** typedef int32_t lv_coord_t;
  26:Drivers/lvgl/src/extra/widgets/meter/../../../../src/hal/../draw/../misc/../font/../misc/lv_area.h **** #else
  27:Drivers/lvgl/src/extra/widgets/meter/../../../../src/hal/../draw/../misc/../font/../misc/lv_area.h **** typedef int16_t lv_coord_t;
  28:Drivers/lvgl/src/extra/widgets/meter/../../../../src/hal/../draw/../misc/../font/../misc/lv_area.h **** #endif
  29:Drivers/lvgl/src/extra/widgets/meter/../../../../src/hal/../draw/../misc/../font/../misc/lv_area.h **** 
  30:Drivers/lvgl/src/extra/widgets/meter/../../../../src/hal/../draw/../misc/../font/../misc/lv_area.h **** /**********************
ARM GAS  /var/folders/lp/x54gwt890xv47sdkqj1k04q40000gn/T//ccVgM3G4.s 			page 24


  31:Drivers/lvgl/src/extra/widgets/meter/../../../../src/hal/../draw/../misc/../font/../misc/lv_area.h ****  *      TYPEDEFS
  32:Drivers/lvgl/src/extra/widgets/meter/../../../../src/hal/../draw/../misc/../font/../misc/lv_area.h ****  **********************/
  33:Drivers/lvgl/src/extra/widgets/meter/../../../../src/hal/../draw/../misc/../font/../misc/lv_area.h **** 
  34:Drivers/lvgl/src/extra/widgets/meter/../../../../src/hal/../draw/../misc/../font/../misc/lv_area.h **** /**
  35:Drivers/lvgl/src/extra/widgets/meter/../../../../src/hal/../draw/../misc/../font/../misc/lv_area.h ****  * Represents a point on the screen.
  36:Drivers/lvgl/src/extra/widgets/meter/../../../../src/hal/../draw/../misc/../font/../misc/lv_area.h ****  */
  37:Drivers/lvgl/src/extra/widgets/meter/../../../../src/hal/../draw/../misc/../font/../misc/lv_area.h **** typedef struct {
  38:Drivers/lvgl/src/extra/widgets/meter/../../../../src/hal/../draw/../misc/../font/../misc/lv_area.h ****     lv_coord_t x;
  39:Drivers/lvgl/src/extra/widgets/meter/../../../../src/hal/../draw/../misc/../font/../misc/lv_area.h ****     lv_coord_t y;
  40:Drivers/lvgl/src/extra/widgets/meter/../../../../src/hal/../draw/../misc/../font/../misc/lv_area.h **** } lv_point_t;
  41:Drivers/lvgl/src/extra/widgets/meter/../../../../src/hal/../draw/../misc/../font/../misc/lv_area.h **** 
  42:Drivers/lvgl/src/extra/widgets/meter/../../../../src/hal/../draw/../misc/../font/../misc/lv_area.h **** /** Represents an area of the screen.*/
  43:Drivers/lvgl/src/extra/widgets/meter/../../../../src/hal/../draw/../misc/../font/../misc/lv_area.h **** typedef struct {
  44:Drivers/lvgl/src/extra/widgets/meter/../../../../src/hal/../draw/../misc/../font/../misc/lv_area.h ****     lv_coord_t x1;
  45:Drivers/lvgl/src/extra/widgets/meter/../../../../src/hal/../draw/../misc/../font/../misc/lv_area.h ****     lv_coord_t y1;
  46:Drivers/lvgl/src/extra/widgets/meter/../../../../src/hal/../draw/../misc/../font/../misc/lv_area.h ****     lv_coord_t x2;
  47:Drivers/lvgl/src/extra/widgets/meter/../../../../src/hal/../draw/../misc/../font/../misc/lv_area.h ****     lv_coord_t y2;
  48:Drivers/lvgl/src/extra/widgets/meter/../../../../src/hal/../draw/../misc/../font/../misc/lv_area.h **** } lv_area_t;
  49:Drivers/lvgl/src/extra/widgets/meter/../../../../src/hal/../draw/../misc/../font/../misc/lv_area.h **** 
  50:Drivers/lvgl/src/extra/widgets/meter/../../../../src/hal/../draw/../misc/../font/../misc/lv_area.h **** /** Alignments*/
  51:Drivers/lvgl/src/extra/widgets/meter/../../../../src/hal/../draw/../misc/../font/../misc/lv_area.h **** enum {
  52:Drivers/lvgl/src/extra/widgets/meter/../../../../src/hal/../draw/../misc/../font/../misc/lv_area.h ****     LV_ALIGN_DEFAULT = 0,
  53:Drivers/lvgl/src/extra/widgets/meter/../../../../src/hal/../draw/../misc/../font/../misc/lv_area.h ****     LV_ALIGN_TOP_LEFT,
  54:Drivers/lvgl/src/extra/widgets/meter/../../../../src/hal/../draw/../misc/../font/../misc/lv_area.h ****     LV_ALIGN_TOP_MID,
  55:Drivers/lvgl/src/extra/widgets/meter/../../../../src/hal/../draw/../misc/../font/../misc/lv_area.h ****     LV_ALIGN_TOP_RIGHT,
  56:Drivers/lvgl/src/extra/widgets/meter/../../../../src/hal/../draw/../misc/../font/../misc/lv_area.h ****     LV_ALIGN_BOTTOM_LEFT,
  57:Drivers/lvgl/src/extra/widgets/meter/../../../../src/hal/../draw/../misc/../font/../misc/lv_area.h ****     LV_ALIGN_BOTTOM_MID,
  58:Drivers/lvgl/src/extra/widgets/meter/../../../../src/hal/../draw/../misc/../font/../misc/lv_area.h ****     LV_ALIGN_BOTTOM_RIGHT,
  59:Drivers/lvgl/src/extra/widgets/meter/../../../../src/hal/../draw/../misc/../font/../misc/lv_area.h ****     LV_ALIGN_LEFT_MID,
  60:Drivers/lvgl/src/extra/widgets/meter/../../../../src/hal/../draw/../misc/../font/../misc/lv_area.h ****     LV_ALIGN_RIGHT_MID,
  61:Drivers/lvgl/src/extra/widgets/meter/../../../../src/hal/../draw/../misc/../font/../misc/lv_area.h ****     LV_ALIGN_CENTER,
  62:Drivers/lvgl/src/extra/widgets/meter/../../../../src/hal/../draw/../misc/../font/../misc/lv_area.h **** 
  63:Drivers/lvgl/src/extra/widgets/meter/../../../../src/hal/../draw/../misc/../font/../misc/lv_area.h ****     LV_ALIGN_OUT_TOP_LEFT,
  64:Drivers/lvgl/src/extra/widgets/meter/../../../../src/hal/../draw/../misc/../font/../misc/lv_area.h ****     LV_ALIGN_OUT_TOP_MID,
  65:Drivers/lvgl/src/extra/widgets/meter/../../../../src/hal/../draw/../misc/../font/../misc/lv_area.h ****     LV_ALIGN_OUT_TOP_RIGHT,
  66:Drivers/lvgl/src/extra/widgets/meter/../../../../src/hal/../draw/../misc/../font/../misc/lv_area.h ****     LV_ALIGN_OUT_BOTTOM_LEFT,
  67:Drivers/lvgl/src/extra/widgets/meter/../../../../src/hal/../draw/../misc/../font/../misc/lv_area.h ****     LV_ALIGN_OUT_BOTTOM_MID,
  68:Drivers/lvgl/src/extra/widgets/meter/../../../../src/hal/../draw/../misc/../font/../misc/lv_area.h ****     LV_ALIGN_OUT_BOTTOM_RIGHT,
  69:Drivers/lvgl/src/extra/widgets/meter/../../../../src/hal/../draw/../misc/../font/../misc/lv_area.h ****     LV_ALIGN_OUT_LEFT_TOP,
  70:Drivers/lvgl/src/extra/widgets/meter/../../../../src/hal/../draw/../misc/../font/../misc/lv_area.h ****     LV_ALIGN_OUT_LEFT_MID,
  71:Drivers/lvgl/src/extra/widgets/meter/../../../../src/hal/../draw/../misc/../font/../misc/lv_area.h ****     LV_ALIGN_OUT_LEFT_BOTTOM,
  72:Drivers/lvgl/src/extra/widgets/meter/../../../../src/hal/../draw/../misc/../font/../misc/lv_area.h ****     LV_ALIGN_OUT_RIGHT_TOP,
  73:Drivers/lvgl/src/extra/widgets/meter/../../../../src/hal/../draw/../misc/../font/../misc/lv_area.h ****     LV_ALIGN_OUT_RIGHT_MID,
  74:Drivers/lvgl/src/extra/widgets/meter/../../../../src/hal/../draw/../misc/../font/../misc/lv_area.h ****     LV_ALIGN_OUT_RIGHT_BOTTOM,
  75:Drivers/lvgl/src/extra/widgets/meter/../../../../src/hal/../draw/../misc/../font/../misc/lv_area.h **** };
  76:Drivers/lvgl/src/extra/widgets/meter/../../../../src/hal/../draw/../misc/../font/../misc/lv_area.h **** typedef uint8_t lv_align_t;
  77:Drivers/lvgl/src/extra/widgets/meter/../../../../src/hal/../draw/../misc/../font/../misc/lv_area.h **** 
  78:Drivers/lvgl/src/extra/widgets/meter/../../../../src/hal/../draw/../misc/../font/../misc/lv_area.h **** enum {
  79:Drivers/lvgl/src/extra/widgets/meter/../../../../src/hal/../draw/../misc/../font/../misc/lv_area.h ****     LV_DIR_NONE     = 0x00,
  80:Drivers/lvgl/src/extra/widgets/meter/../../../../src/hal/../draw/../misc/../font/../misc/lv_area.h ****     LV_DIR_LEFT     = (1 << 0),
  81:Drivers/lvgl/src/extra/widgets/meter/../../../../src/hal/../draw/../misc/../font/../misc/lv_area.h ****     LV_DIR_RIGHT    = (1 << 1),
  82:Drivers/lvgl/src/extra/widgets/meter/../../../../src/hal/../draw/../misc/../font/../misc/lv_area.h ****     LV_DIR_TOP      = (1 << 2),
  83:Drivers/lvgl/src/extra/widgets/meter/../../../../src/hal/../draw/../misc/../font/../misc/lv_area.h ****     LV_DIR_BOTTOM   = (1 << 3),
  84:Drivers/lvgl/src/extra/widgets/meter/../../../../src/hal/../draw/../misc/../font/../misc/lv_area.h ****     LV_DIR_HOR      = LV_DIR_LEFT | LV_DIR_RIGHT,
  85:Drivers/lvgl/src/extra/widgets/meter/../../../../src/hal/../draw/../misc/../font/../misc/lv_area.h ****     LV_DIR_VER      = LV_DIR_TOP | LV_DIR_BOTTOM,
  86:Drivers/lvgl/src/extra/widgets/meter/../../../../src/hal/../draw/../misc/../font/../misc/lv_area.h ****     LV_DIR_ALL      = LV_DIR_HOR | LV_DIR_VER,
  87:Drivers/lvgl/src/extra/widgets/meter/../../../../src/hal/../draw/../misc/../font/../misc/lv_area.h **** };
ARM GAS  /var/folders/lp/x54gwt890xv47sdkqj1k04q40000gn/T//ccVgM3G4.s 			page 25


  88:Drivers/lvgl/src/extra/widgets/meter/../../../../src/hal/../draw/../misc/../font/../misc/lv_area.h **** 
  89:Drivers/lvgl/src/extra/widgets/meter/../../../../src/hal/../draw/../misc/../font/../misc/lv_area.h **** typedef uint8_t lv_dir_t;
  90:Drivers/lvgl/src/extra/widgets/meter/../../../../src/hal/../draw/../misc/../font/../misc/lv_area.h **** 
  91:Drivers/lvgl/src/extra/widgets/meter/../../../../src/hal/../draw/../misc/../font/../misc/lv_area.h **** /**********************
  92:Drivers/lvgl/src/extra/widgets/meter/../../../../src/hal/../draw/../misc/../font/../misc/lv_area.h ****  * GLOBAL PROTOTYPES
  93:Drivers/lvgl/src/extra/widgets/meter/../../../../src/hal/../draw/../misc/../font/../misc/lv_area.h ****  **********************/
  94:Drivers/lvgl/src/extra/widgets/meter/../../../../src/hal/../draw/../misc/../font/../misc/lv_area.h **** 
  95:Drivers/lvgl/src/extra/widgets/meter/../../../../src/hal/../draw/../misc/../font/../misc/lv_area.h **** /**
  96:Drivers/lvgl/src/extra/widgets/meter/../../../../src/hal/../draw/../misc/../font/../misc/lv_area.h ****  * Initialize an area
  97:Drivers/lvgl/src/extra/widgets/meter/../../../../src/hal/../draw/../misc/../font/../misc/lv_area.h ****  * @param area_p pointer to an area
  98:Drivers/lvgl/src/extra/widgets/meter/../../../../src/hal/../draw/../misc/../font/../misc/lv_area.h ****  * @param x1 left coordinate of the area
  99:Drivers/lvgl/src/extra/widgets/meter/../../../../src/hal/../draw/../misc/../font/../misc/lv_area.h ****  * @param y1 top coordinate of the area
 100:Drivers/lvgl/src/extra/widgets/meter/../../../../src/hal/../draw/../misc/../font/../misc/lv_area.h ****  * @param x2 right coordinate of the area
 101:Drivers/lvgl/src/extra/widgets/meter/../../../../src/hal/../draw/../misc/../font/../misc/lv_area.h ****  * @param y2 bottom coordinate of the area
 102:Drivers/lvgl/src/extra/widgets/meter/../../../../src/hal/../draw/../misc/../font/../misc/lv_area.h ****  */
 103:Drivers/lvgl/src/extra/widgets/meter/../../../../src/hal/../draw/../misc/../font/../misc/lv_area.h **** void lv_area_set(lv_area_t * area_p, lv_coord_t x1, lv_coord_t y1, lv_coord_t x2, lv_coord_t y2);
 104:Drivers/lvgl/src/extra/widgets/meter/../../../../src/hal/../draw/../misc/../font/../misc/lv_area.h **** 
 105:Drivers/lvgl/src/extra/widgets/meter/../../../../src/hal/../draw/../misc/../font/../misc/lv_area.h **** /**
 106:Drivers/lvgl/src/extra/widgets/meter/../../../../src/hal/../draw/../misc/../font/../misc/lv_area.h ****  * Copy an area
 107:Drivers/lvgl/src/extra/widgets/meter/../../../../src/hal/../draw/../misc/../font/../misc/lv_area.h ****  * @param dest pointer to the destination area
 108:Drivers/lvgl/src/extra/widgets/meter/../../../../src/hal/../draw/../misc/../font/../misc/lv_area.h ****  * @param src pointer to the source area
 109:Drivers/lvgl/src/extra/widgets/meter/../../../../src/hal/../draw/../misc/../font/../misc/lv_area.h ****  */
 110:Drivers/lvgl/src/extra/widgets/meter/../../../../src/hal/../draw/../misc/../font/../misc/lv_area.h **** inline static void lv_area_copy(lv_area_t * dest, const lv_area_t * src)
 111:Drivers/lvgl/src/extra/widgets/meter/../../../../src/hal/../draw/../misc/../font/../misc/lv_area.h **** {
 112:Drivers/lvgl/src/extra/widgets/meter/../../../../src/hal/../draw/../misc/../font/../misc/lv_area.h ****     dest->x1 = src->x1;
 113:Drivers/lvgl/src/extra/widgets/meter/../../../../src/hal/../draw/../misc/../font/../misc/lv_area.h ****     dest->y1 = src->y1;
 114:Drivers/lvgl/src/extra/widgets/meter/../../../../src/hal/../draw/../misc/../font/../misc/lv_area.h ****     dest->x2 = src->x2;
 115:Drivers/lvgl/src/extra/widgets/meter/../../../../src/hal/../draw/../misc/../font/../misc/lv_area.h ****     dest->y2 = src->y2;
 116:Drivers/lvgl/src/extra/widgets/meter/../../../../src/hal/../draw/../misc/../font/../misc/lv_area.h **** }
 117:Drivers/lvgl/src/extra/widgets/meter/../../../../src/hal/../draw/../misc/../font/../misc/lv_area.h **** 
 118:Drivers/lvgl/src/extra/widgets/meter/../../../../src/hal/../draw/../misc/../font/../misc/lv_area.h **** /**
 119:Drivers/lvgl/src/extra/widgets/meter/../../../../src/hal/../draw/../misc/../font/../misc/lv_area.h ****  * Get the width of an area
 120:Drivers/lvgl/src/extra/widgets/meter/../../../../src/hal/../draw/../misc/../font/../misc/lv_area.h ****  * @param area_p pointer to an area
 121:Drivers/lvgl/src/extra/widgets/meter/../../../../src/hal/../draw/../misc/../font/../misc/lv_area.h ****  * @return the width of the area (if x1 == x2 -> width = 1)
 122:Drivers/lvgl/src/extra/widgets/meter/../../../../src/hal/../draw/../misc/../font/../misc/lv_area.h ****  */
 123:Drivers/lvgl/src/extra/widgets/meter/../../../../src/hal/../draw/../misc/../font/../misc/lv_area.h **** static inline lv_coord_t lv_area_get_width(const lv_area_t * area_p)
 211              		.loc 3 123 26 view .LVU49
 212              	.LBB61:
 124:Drivers/lvgl/src/extra/widgets/meter/../../../../src/hal/../draw/../misc/../font/../misc/lv_area.h **** {
 125:Drivers/lvgl/src/extra/widgets/meter/../../../../src/hal/../draw/../misc/../font/../misc/lv_area.h ****     return (lv_coord_t)(area_p->x2 - area_p->x1 + 1);
 213              		.loc 3 125 5 view .LVU50
 214              	.LBE61:
 215              	.LBE60:
 637:Drivers/lvgl/src/extra/widgets/meter/lv_meter.c ****     lv_point_t scale_center;
 638:Drivers/lvgl/src/extra/widgets/meter/lv_meter.c ****     scale_center.x = scale_area.x1 + r_out;
 639:Drivers/lvgl/src/extra/widgets/meter/lv_meter.c ****     scale_center.y = scale_area.y1 + r_out;
 640:Drivers/lvgl/src/extra/widgets/meter/lv_meter.c **** 
 641:Drivers/lvgl/src/extra/widgets/meter/lv_meter.c ****     r_out += indic->type_data.arc.r_mod;
 642:Drivers/lvgl/src/extra/widgets/meter/lv_meter.c **** 
 643:Drivers/lvgl/src/extra/widgets/meter/lv_meter.c ****     lv_meter_scale_t * scale = indic->scale;
 644:Drivers/lvgl/src/extra/widgets/meter/lv_meter.c **** 
 645:Drivers/lvgl/src/extra/widgets/meter/lv_meter.c ****     int32_t start_angle = lv_map(old_value, scale->min, scale->max, scale->rotation, scale->angle_r
 216              		.loc 1 645 27 is_stmt 0 view .LVU51
 217 0028 2046     		mov	r0, r4
 218              	.LBB64:
 219              	.LBB62:
 220              		.loc 3 125 49 view .LVU52
ARM GAS  /var/folders/lp/x54gwt890xv47sdkqj1k04q40000gn/T//ccVgM3G4.s 			page 26


 221 002a BDF81C40 		ldrh	r4, [sp, #28]
 222              	.LVL20:
 223              		.loc 3 125 44 view .LVU53
 224 002e BDF818B0 		ldrh	fp, [sp, #24]
 225              	.LVL21:
 226              		.loc 3 125 44 view .LVU54
 227              	.LBE62:
 228              	.LBE64:
 637:Drivers/lvgl/src/extra/widgets/meter/lv_meter.c ****     lv_point_t scale_center;
 229              		.loc 1 637 5 is_stmt 1 view .LVU55
 638:Drivers/lvgl/src/extra/widgets/meter/lv_meter.c ****     scale_center.y = scale_area.y1 + r_out;
 230              		.loc 1 638 5 view .LVU56
 643:Drivers/lvgl/src/extra/widgets/meter/lv_meter.c **** 
 231              		.loc 1 643 24 is_stmt 0 view .LVU57
 232 0032 D8F80050 		ldr	r5, [r8]
 233              	.LBB65:
 234              	.LBB63:
 235              		.loc 3 125 49 view .LVU58
 236 0036 0134     		adds	r4, r4, #1
 237 0038 A4EB0B04 		sub	r4, r4, fp
 238              	.LBE63:
 239              	.LBE65:
 636:Drivers/lvgl/src/extra/widgets/meter/lv_meter.c ****     lv_point_t scale_center;
 240              		.loc 1 636 16 discriminator 1 view .LVU59
 241 003c C4F3C033 		ubfx	r3, r4, #15, #1
 242              		.loc 1 645 91 view .LVU60
 243 0040 EE8B     		ldrh	r6, [r5, #30]
 636:Drivers/lvgl/src/extra/widgets/meter/lv_meter.c ****     lv_point_t scale_center;
 244              		.loc 1 636 16 discriminator 1 view .LVU61
 245 0042 03FA84F4 		sxtah	r4, r3, r4
 246              		.loc 1 645 27 view .LVU62
 247 0046 B5F92030 		ldrsh	r3, [r5, #32]
 248              		.loc 1 645 105 view .LVU63
 249 004a 1E44     		add	r6, r6, r3
 250              		.loc 1 645 27 view .LVU64
 251 004c D5E90512 		ldrd	r1, r2, [r5, #20]
 252 0050 0096     		str	r6, [sp]
 253              	.LVL22:
 639:Drivers/lvgl/src/extra/widgets/meter/lv_meter.c **** 
 254              		.loc 1 639 36 view .LVU65
 255 0052 BDF81A60 		ldrh	r6, [sp, #26]
 641:Drivers/lvgl/src/extra/widgets/meter/lv_meter.c **** 
 256              		.loc 1 641 11 view .LVU66
 257 0056 B8F81A70 		ldrh	r7, [r8, #26]
 638:Drivers/lvgl/src/extra/widgets/meter/lv_meter.c ****     scale_center.y = scale_area.y1 + r_out;
 258              		.loc 1 638 36 view .LVU67
 259 005a C4F34F04 		ubfx	r4, r4, #1, #16
 260              	.LVL23:
 639:Drivers/lvgl/src/extra/widgets/meter/lv_meter.c **** 
 261              		.loc 1 639 5 is_stmt 1 view .LVU68
 641:Drivers/lvgl/src/extra/widgets/meter/lv_meter.c **** 
 262              		.loc 1 641 5 view .LVU69
 639:Drivers/lvgl/src/extra/widgets/meter/lv_meter.c **** 
 263              		.loc 1 639 36 is_stmt 0 view .LVU70
 264 005e 2644     		add	r6, r6, r4
 265 0060 36B2     		sxth	r6, r6
 266 0062 0496     		str	r6, [sp, #16]
ARM GAS  /var/folders/lp/x54gwt890xv47sdkqj1k04q40000gn/T//ccVgM3G4.s 			page 27


 267              	.LVL24:
 268              		.loc 1 645 27 view .LVU71
 269 0064 FFF7FEFF 		bl	lv_map
 270              	.LVL25:
 646:Drivers/lvgl/src/extra/widgets/meter/lv_meter.c ****     int32_t end_angle = lv_map(new_value, scale->min, scale->max, scale->rotation, scale->angle_ran
 271              		.loc 1 646 25 view .LVU72
 272 0068 B5F92030 		ldrsh	r3, [r5, #32]
 273              		.loc 1 646 89 view .LVU73
 274 006c B5F81EC0 		ldrh	ip, [r5, #30]
 275              		.loc 1 646 103 view .LVU74
 276 0070 9C44     		add	ip, ip, r3
 645:Drivers/lvgl/src/extra/widgets/meter/lv_meter.c ****     int32_t end_angle = lv_map(new_value, scale->min, scale->max, scale->rotation, scale->angle_ran
 277              		.loc 1 645 27 view .LVU75
 278 0072 0646     		mov	r6, r0
 279              		.loc 1 646 25 view .LVU76
 280 0074 D5E90512 		ldrd	r1, r2, [r5, #20]
 281 0078 5046     		mov	r0, r10
 282 007a CDF800C0 		str	ip, [sp]
 283 007e FFF7FEFF 		bl	lv_map
 284              	.LVL26:
 647:Drivers/lvgl/src/extra/widgets/meter/lv_meter.c **** 
 648:Drivers/lvgl/src/extra/widgets/meter/lv_meter.c ****     lv_area_t a;
 649:Drivers/lvgl/src/extra/widgets/meter/lv_meter.c ****     lv_draw_arc_get_area(scale_center.x, scale_center.y, r_out, LV_MIN(start_angle, end_angle), LV_
 285              		.loc 1 649 5 view .LVU77
 286 0082 059B     		ldr	r3, [sp, #20]
 287 0084 0293     		str	r3, [sp, #8]
 646:Drivers/lvgl/src/extra/widgets/meter/lv_meter.c **** 
 288              		.loc 1 646 25 view .LVU78
 289 0086 0346     		mov	r3, r0
 290              		.loc 1 649 97 view .LVU79
 291 0088 9E42     		cmp	r6, r3
 641:Drivers/lvgl/src/extra/widgets/meter/lv_meter.c **** 
 292              		.loc 1 641 11 view .LVU80
 293 008a 2744     		add	r7, r7, r4
 638:Drivers/lvgl/src/extra/widgets/meter/lv_meter.c ****     scale_center.y = scale_area.y1 + r_out;
 294              		.loc 1 638 36 view .LVU81
 295 008c 5C44     		add	r4, r4, fp
 296              	.LVL27:
 297              		.loc 1 649 5 view .LVU82
 298 008e 20B2     		sxth	r0, r4
 299              		.loc 1 649 97 view .LVU83
 300 0090 3446     		mov	r4, r6
 301 0092 B8BF     		it	lt
 302 0094 1C46     		movlt	r4, r3
 303              		.loc 1 649 5 view .LVU84
 304 0096 A4B2     		uxth	r4, r4
 305              		.loc 1 649 65 view .LVU85
 306 0098 9E42     		cmp	r6, r3
 307              		.loc 1 649 5 view .LVU86
 308 009a B8F91020 		ldrsh	r2, [r8, #16]
 309 009e 0094     		str	r4, [sp]
 310              		.loc 1 649 65 view .LVU87
 311 00a0 A8BF     		it	ge
 312 00a2 1E46     		movge	r6, r3
 313              		.loc 1 649 5 view .LVU88
 314 00a4 08AC     		add	r4, sp, #32
 641:Drivers/lvgl/src/extra/widgets/meter/lv_meter.c **** 
ARM GAS  /var/folders/lp/x54gwt890xv47sdkqj1k04q40000gn/T//ccVgM3G4.s 			page 28


 315              		.loc 1 641 11 view .LVU89
 316 00a6 BFB2     		uxth	r7, r7
 317              	.LVL28:
 643:Drivers/lvgl/src/extra/widgets/meter/lv_meter.c **** 
 318              		.loc 1 643 5 is_stmt 1 view .LVU90
 645:Drivers/lvgl/src/extra/widgets/meter/lv_meter.c ****     int32_t end_angle = lv_map(new_value, scale->min, scale->max, scale->rotation, scale->angle_ran
 319              		.loc 1 645 5 view .LVU91
 646:Drivers/lvgl/src/extra/widgets/meter/lv_meter.c **** 
 320              		.loc 1 646 5 view .LVU92
 648:Drivers/lvgl/src/extra/widgets/meter/lv_meter.c ****     lv_draw_arc_get_area(scale_center.x, scale_center.y, r_out, LV_MIN(start_angle, end_angle), LV_
 321              		.loc 1 648 5 view .LVU93
 322              		.loc 1 649 5 view .LVU94
 323 00a8 0499     		ldr	r1, [sp, #16]
 324 00aa 0192     		str	r2, [sp, #4]
 325 00ac B3B2     		uxth	r3, r6
 326              	.LVL29:
 327              		.loc 1 649 5 is_stmt 0 view .LVU95
 328 00ae 3A46     		mov	r2, r7
 329 00b0 0394     		str	r4, [sp, #12]
 330 00b2 FFF7FEFF 		bl	lv_draw_arc_get_area
 331              	.LVL30:
 650:Drivers/lvgl/src/extra/widgets/meter/lv_meter.c ****                                                                                                    
 651:Drivers/lvgl/src/extra/widgets/meter/lv_meter.c ****     lv_obj_invalidate_area(obj, &a);
 332              		.loc 1 651 5 is_stmt 1 view .LVU96
 333 00b6 2146     		mov	r1, r4
 334 00b8 4846     		mov	r0, r9
 335 00ba FFF7FEFF 		bl	lv_obj_invalidate_area
 336              	.LVL31:
 652:Drivers/lvgl/src/extra/widgets/meter/lv_meter.c **** }
 337              		.loc 1 652 1 is_stmt 0 view .LVU97
 338 00be 0BB0     		add	sp, sp, #44
 339              		.cfi_def_cfa_offset 36
 340              		@ sp needed
 341 00c0 BDE8F08F 		pop	{r4, r5, r6, r7, r8, r9, r10, fp, pc}
 342              		.loc 1 652 1 view .LVU98
 343              		.cfi_endproc
 344              	.LFE222:
 346              		.section	.text.inv_line,"ax",%progbits
 347              		.align	1
 348              		.p2align 2,,3
 349              		.syntax unified
 350              		.thumb
 351              		.thumb_func
 353              	inv_line:
 354              	.LVL32:
 355              	.LFB223:
 653:Drivers/lvgl/src/extra/widgets/meter/lv_meter.c **** 
 654:Drivers/lvgl/src/extra/widgets/meter/lv_meter.c **** 
 655:Drivers/lvgl/src/extra/widgets/meter/lv_meter.c **** static void inv_line(lv_obj_t * obj, lv_meter_indicator_t * indic, int32_t value)
 656:Drivers/lvgl/src/extra/widgets/meter/lv_meter.c **** {
 356              		.loc 1 656 1 is_stmt 1 view -0
 357              		.cfi_startproc
 358              		@ args = 0, pretend = 0, frame = 32
 359              		@ frame_needed = 0, uses_anonymous_args = 0
 657:Drivers/lvgl/src/extra/widgets/meter/lv_meter.c ****     lv_area_t scale_area;
 360              		.loc 1 657 5 view .LVU100
 658:Drivers/lvgl/src/extra/widgets/meter/lv_meter.c ****     lv_obj_get_content_coords(obj, &scale_area);
ARM GAS  /var/folders/lp/x54gwt890xv47sdkqj1k04q40000gn/T//ccVgM3G4.s 			page 29


 361              		.loc 1 658 5 view .LVU101
 656:Drivers/lvgl/src/extra/widgets/meter/lv_meter.c ****     lv_area_t scale_area;
 362              		.loc 1 656 1 is_stmt 0 view .LVU102
 363 0000 2DE9F04F 		push	{r4, r5, r6, r7, r8, r9, r10, fp, lr}
 364              		.cfi_def_cfa_offset 36
 365              		.cfi_offset 4, -36
 366              		.cfi_offset 5, -32
 367              		.cfi_offset 6, -28
 368              		.cfi_offset 7, -24
 369              		.cfi_offset 8, -20
 370              		.cfi_offset 9, -16
 371              		.cfi_offset 10, -12
 372              		.cfi_offset 11, -8
 373              		.cfi_offset 14, -4
 374 0004 8BB0     		sub	sp, sp, #44
 375              		.cfi_def_cfa_offset 80
 656:Drivers/lvgl/src/extra/widgets/meter/lv_meter.c ****     lv_area_t scale_area;
 376              		.loc 1 656 1 view .LVU103
 377 0006 0D46     		mov	r5, r1
 378              		.loc 1 658 5 view .LVU104
 379 0008 08A9     		add	r1, sp, #32
 380              	.LVL33:
 656:Drivers/lvgl/src/extra/widgets/meter/lv_meter.c ****     lv_area_t scale_area;
 381              		.loc 1 656 1 view .LVU105
 382 000a 1746     		mov	r7, r2
 383 000c 0646     		mov	r6, r0
 384              		.loc 1 658 5 view .LVU106
 385 000e FFF7FEFF 		bl	lv_obj_get_content_coords
 386              	.LVL34:
 659:Drivers/lvgl/src/extra/widgets/meter/lv_meter.c **** 
 660:Drivers/lvgl/src/extra/widgets/meter/lv_meter.c ****     lv_coord_t r_out = lv_area_get_width(&scale_area) / 2;
 387              		.loc 1 660 5 is_stmt 1 view .LVU107
 388              	.LBB66:
 389              	.LBI66:
 123:Drivers/lvgl/src/extra/widgets/meter/../../../../src/hal/../draw/../misc/../font/../misc/lv_area.h **** {
 390              		.loc 3 123 26 view .LVU108
 391              	.LBB67:
 392              		.loc 3 125 5 view .LVU109
 393              		.loc 3 125 49 is_stmt 0 view .LVU110
 394 0012 BDF82440 		ldrh	r4, [sp, #36]
 395              		.loc 3 125 44 view .LVU111
 396 0016 BDF82030 		ldrh	r3, [sp, #32]
 397              	.LVL35:
 398              		.loc 3 125 44 view .LVU112
 399              	.LBE67:
 400              	.LBE66:
 661:Drivers/lvgl/src/extra/widgets/meter/lv_meter.c ****     lv_point_t scale_center;
 401              		.loc 1 661 5 is_stmt 1 view .LVU113
 662:Drivers/lvgl/src/extra/widgets/meter/lv_meter.c ****     scale_center.x = scale_area.x1 + r_out;
 402              		.loc 1 662 5 view .LVU114
 663:Drivers/lvgl/src/extra/widgets/meter/lv_meter.c ****     scale_center.y = scale_area.y1 + r_out;
 403              		.loc 1 663 36 is_stmt 0 view .LVU115
 404 001a BDF82280 		ldrh	r8, [sp, #34]
 664:Drivers/lvgl/src/extra/widgets/meter/lv_meter.c **** 
 665:Drivers/lvgl/src/extra/widgets/meter/lv_meter.c ****     lv_meter_scale_t * scale = indic->scale;
 405              		.loc 1 665 24 view .LVU116
 406 001e D5F800A0 		ldr	r10, [r5]
ARM GAS  /var/folders/lp/x54gwt890xv47sdkqj1k04q40000gn/T//ccVgM3G4.s 			page 30


 407              	.LBB69:
 408              	.LBB68:
 409              		.loc 3 125 49 view .LVU117
 410 0022 0134     		adds	r4, r4, #1
 411 0024 E41A     		subs	r4, r4, r3
 412              	.LBE68:
 413              	.LBE69:
 660:Drivers/lvgl/src/extra/widgets/meter/lv_meter.c ****     lv_point_t scale_center;
 414              		.loc 1 660 16 discriminator 1 view .LVU118
 415 0026 C4F3C032 		ubfx	r2, r4, #15, #1
 416 002a 02FA84F4 		sxtah	r4, r2, r4
 662:Drivers/lvgl/src/extra/widgets/meter/lv_meter.c ****     scale_center.y = scale_area.y1 + r_out;
 417              		.loc 1 662 36 view .LVU119
 418 002e C4F34F04 		ubfx	r4, r4, #1, #16
 419 0032 2344     		add	r3, r3, r4
 420              	.LVL36:
 662:Drivers/lvgl/src/extra/widgets/meter/lv_meter.c ****     scale_center.y = scale_area.y1 + r_out;
 421              		.loc 1 662 36 view .LVU120
 422 0034 1FFA83F9 		uxth	r9, r3
 423              	.LVL37:
 663:Drivers/lvgl/src/extra/widgets/meter/lv_meter.c **** 
 424              		.loc 1 663 5 is_stmt 1 view .LVU121
 666:Drivers/lvgl/src/extra/widgets/meter/lv_meter.c **** 
 667:Drivers/lvgl/src/extra/widgets/meter/lv_meter.c ****     if(indic->type == LV_METER_INDICATOR_TYPE_NEEDLE_LINE) {
 425              		.loc 1 667 13 is_stmt 0 view .LVU122
 426 0038 2B79     		ldrb	r3, [r5, #4]	@ zero_extendqisi2
 663:Drivers/lvgl/src/extra/widgets/meter/lv_meter.c **** 
 427              		.loc 1 663 36 view .LVU123
 428 003a A044     		add	r8, r8, r4
 429              		.loc 1 667 7 view .LVU124
 430 003c 012B     		cmp	r3, #1
 663:Drivers/lvgl/src/extra/widgets/meter/lv_meter.c **** 
 431              		.loc 1 663 36 view .LVU125
 432 003e 1FFA88F8 		uxth	r8, r8
 433              	.LVL38:
 665:Drivers/lvgl/src/extra/widgets/meter/lv_meter.c **** 
 434              		.loc 1 665 5 is_stmt 1 view .LVU126
 435              		.loc 1 667 5 view .LVU127
 436              		.loc 1 667 7 is_stmt 0 view .LVU128
 437 0042 58D0     		beq	.L13
 668:Drivers/lvgl/src/extra/widgets/meter/lv_meter.c ****         int32_t angle = lv_map(value, scale->min, scale->max, scale->rotation, scale->rotation + sc
 669:Drivers/lvgl/src/extra/widgets/meter/lv_meter.c ****         r_out += scale->r_mod + indic->type_data.needle_line.r_mod;
 670:Drivers/lvgl/src/extra/widgets/meter/lv_meter.c ****         lv_point_t p_end;
 671:Drivers/lvgl/src/extra/widgets/meter/lv_meter.c ****         p_end.y = (lv_trigo_sin(angle) * (r_out)) / LV_TRIGO_SIN_MAX + scale_center.y;
 672:Drivers/lvgl/src/extra/widgets/meter/lv_meter.c ****         p_end.x = (lv_trigo_cos(angle) * (r_out)) / LV_TRIGO_SIN_MAX + scale_center.x;
 673:Drivers/lvgl/src/extra/widgets/meter/lv_meter.c **** 
 674:Drivers/lvgl/src/extra/widgets/meter/lv_meter.c ****         lv_area_t a;
 675:Drivers/lvgl/src/extra/widgets/meter/lv_meter.c ****         a.x1 = LV_MIN(scale_center.x, p_end.x) - indic->type_data.needle_line.width - 2;
 676:Drivers/lvgl/src/extra/widgets/meter/lv_meter.c ****         a.y1 = LV_MIN(scale_center.y, p_end.y) - indic->type_data.needle_line.width - 2;
 677:Drivers/lvgl/src/extra/widgets/meter/lv_meter.c ****         a.x2 = LV_MAX(scale_center.x, p_end.x) + indic->type_data.needle_line.width + 2;
 678:Drivers/lvgl/src/extra/widgets/meter/lv_meter.c ****         a.y2 = LV_MAX(scale_center.y, p_end.y) + indic->type_data.needle_line.width + 2;
 679:Drivers/lvgl/src/extra/widgets/meter/lv_meter.c **** 
 680:Drivers/lvgl/src/extra/widgets/meter/lv_meter.c ****         lv_obj_invalidate_area(obj, &a);
 681:Drivers/lvgl/src/extra/widgets/meter/lv_meter.c ****     }
 682:Drivers/lvgl/src/extra/widgets/meter/lv_meter.c ****     else if(indic->type == LV_METER_INDICATOR_TYPE_NEEDLE_IMG) {
 438              		.loc 1 682 10 is_stmt 1 view .LVU129
 439              		.loc 1 682 12 is_stmt 0 view .LVU130
ARM GAS  /var/folders/lp/x54gwt890xv47sdkqj1k04q40000gn/T//ccVgM3G4.s 			page 31


 440 0044 13B1     		cbz	r3, .L14
 683:Drivers/lvgl/src/extra/widgets/meter/lv_meter.c ****         int32_t angle = lv_map(value, scale->min, scale->max, scale->rotation, scale->rotation + sc
 684:Drivers/lvgl/src/extra/widgets/meter/lv_meter.c ****         lv_img_header_t info;
 685:Drivers/lvgl/src/extra/widgets/meter/lv_meter.c ****         lv_img_decoder_get_info(indic->type_data.needle_img.src, &info);
 686:Drivers/lvgl/src/extra/widgets/meter/lv_meter.c **** 
 687:Drivers/lvgl/src/extra/widgets/meter/lv_meter.c ****         angle = angle * 10;
 688:Drivers/lvgl/src/extra/widgets/meter/lv_meter.c ****         if(angle > 3600) angle -= 3600;
 689:Drivers/lvgl/src/extra/widgets/meter/lv_meter.c **** 
 690:Drivers/lvgl/src/extra/widgets/meter/lv_meter.c ****         scale_center.x -= indic->type_data.needle_img.pivot.x;
 691:Drivers/lvgl/src/extra/widgets/meter/lv_meter.c ****         scale_center.y -= indic->type_data.needle_img.pivot.y;
 692:Drivers/lvgl/src/extra/widgets/meter/lv_meter.c ****         lv_area_t a;
 693:Drivers/lvgl/src/extra/widgets/meter/lv_meter.c ****         _lv_img_buf_get_transformed_area(&a, info.w, info.h, angle, LV_IMG_ZOOM_NONE, &indic->type_
 694:Drivers/lvgl/src/extra/widgets/meter/lv_meter.c ****         a.x1 += scale_center.x - 2;
 695:Drivers/lvgl/src/extra/widgets/meter/lv_meter.c ****         a.y1 += scale_center.y - 2;
 696:Drivers/lvgl/src/extra/widgets/meter/lv_meter.c ****         a.x2 += scale_center.x + 2;
 697:Drivers/lvgl/src/extra/widgets/meter/lv_meter.c ****         a.y2 += scale_center.y + 2;
 698:Drivers/lvgl/src/extra/widgets/meter/lv_meter.c **** 
 699:Drivers/lvgl/src/extra/widgets/meter/lv_meter.c ****         lv_obj_invalidate_area(obj, &a);
 700:Drivers/lvgl/src/extra/widgets/meter/lv_meter.c ****     }
 701:Drivers/lvgl/src/extra/widgets/meter/lv_meter.c **** }
 441              		.loc 1 701 1 view .LVU131
 442 0046 0BB0     		add	sp, sp, #44
 443              		.cfi_remember_state
 444              		.cfi_def_cfa_offset 36
 445              		@ sp needed
 446 0048 BDE8F08F 		pop	{r4, r5, r6, r7, r8, r9, r10, fp, pc}
 447              	.LVL39:
 448              	.L14:
 449              		.cfi_restore_state
 450              	.LBB70:
 683:Drivers/lvgl/src/extra/widgets/meter/lv_meter.c ****         int32_t angle = lv_map(value, scale->min, scale->max, scale->rotation, scale->rotation + sc
 451              		.loc 1 683 9 is_stmt 1 view .LVU132
 683:Drivers/lvgl/src/extra/widgets/meter/lv_meter.c ****         int32_t angle = lv_map(value, scale->min, scale->max, scale->rotation, scale->rotation + sc
 452              		.loc 1 683 25 is_stmt 0 view .LVU133
 453 004c BAF92030 		ldrsh	r3, [r10, #32]
 683:Drivers/lvgl/src/extra/widgets/meter/lv_meter.c ****         int32_t angle = lv_map(value, scale->min, scale->max, scale->rotation, scale->rotation + sc
 454              		.loc 1 683 103 view .LVU134
 455 0050 BAF81E40 		ldrh	r4, [r10, #30]
 683:Drivers/lvgl/src/extra/widgets/meter/lv_meter.c ****         int32_t angle = lv_map(value, scale->min, scale->max, scale->rotation, scale->rotation + sc
 456              		.loc 1 683 96 view .LVU135
 457 0054 1C44     		add	r4, r4, r3
 683:Drivers/lvgl/src/extra/widgets/meter/lv_meter.c ****         int32_t angle = lv_map(value, scale->min, scale->max, scale->rotation, scale->rotation + sc
 458              		.loc 1 683 25 view .LVU136
 459 0056 DAE90512 		ldrd	r1, r2, [r10, #20]
 460 005a 3846     		mov	r0, r7
 461 005c 0094     		str	r4, [sp]
 462              	.LVL40:
 683:Drivers/lvgl/src/extra/widgets/meter/lv_meter.c ****         int32_t angle = lv_map(value, scale->min, scale->max, scale->rotation, scale->rotation + sc
 463              		.loc 1 683 25 view .LVU137
 464 005e FFF7FEFF 		bl	lv_map
 465              	.LVL41:
 685:Drivers/lvgl/src/extra/widgets/meter/lv_meter.c **** 
 466              		.loc 1 685 9 view .LVU138
 467 0062 05A9     		add	r1, sp, #20
 683:Drivers/lvgl/src/extra/widgets/meter/lv_meter.c ****         int32_t angle = lv_map(value, scale->min, scale->max, scale->rotation, scale->rotation + sc
 468              		.loc 1 683 25 view .LVU139
 469 0064 0446     		mov	r4, r0
ARM GAS  /var/folders/lp/x54gwt890xv47sdkqj1k04q40000gn/T//ccVgM3G4.s 			page 32


 470              	.LVL42:
 684:Drivers/lvgl/src/extra/widgets/meter/lv_meter.c ****         lv_img_decoder_get_info(indic->type_data.needle_img.src, &info);
 471              		.loc 1 684 9 is_stmt 1 view .LVU140
 685:Drivers/lvgl/src/extra/widgets/meter/lv_meter.c **** 
 472              		.loc 1 685 9 view .LVU141
 473 0066 2869     		ldr	r0, [r5, #16]
 474              	.LVL43:
 685:Drivers/lvgl/src/extra/widgets/meter/lv_meter.c **** 
 475              		.loc 1 685 9 is_stmt 0 view .LVU142
 476 0068 FFF7FEFF 		bl	lv_img_decoder_get_info
 477              	.LVL44:
 687:Drivers/lvgl/src/extra/widgets/meter/lv_meter.c ****         if(angle > 3600) angle -= 3600;
 478              		.loc 1 687 9 is_stmt 1 view .LVU143
 690:Drivers/lvgl/src/extra/widgets/meter/lv_meter.c ****         scale_center.y -= indic->type_data.needle_img.pivot.y;
 479              		.loc 1 690 24 is_stmt 0 view .LVU144
 480 006c AA8A     		ldrh	r2, [r5, #20]
 693:Drivers/lvgl/src/extra/widgets/meter/lv_meter.c ****         a.x1 += scale_center.x - 2;
 481              		.loc 1 693 50 view .LVU145
 482 006e 0599     		ldr	r1, [sp, #20]
 690:Drivers/lvgl/src/extra/widgets/meter/lv_meter.c ****         scale_center.y -= indic->type_data.needle_img.pivot.y;
 483              		.loc 1 690 24 view .LVU146
 484 0070 A9EB0209 		sub	r9, r9, r2
 485              	.LVL45:
 691:Drivers/lvgl/src/extra/widgets/meter/lv_meter.c ****         lv_area_t a;
 486              		.loc 1 691 24 view .LVU147
 487 0074 EA8A     		ldrh	r2, [r5, #22]
 687:Drivers/lvgl/src/extra/widgets/meter/lv_meter.c ****         if(angle > 3600) angle -= 3600;
 488              		.loc 1 687 15 view .LVU148
 489 0076 04EB8404 		add	r4, r4, r4, lsl #2
 490              	.LVL46:
 687:Drivers/lvgl/src/extra/widgets/meter/lv_meter.c ****         if(angle > 3600) angle -= 3600;
 491              		.loc 1 687 15 view .LVU149
 492 007a 6300     		lsls	r3, r4, #1
 493              	.LVL47:
 688:Drivers/lvgl/src/extra/widgets/meter/lv_meter.c **** 
 494              		.loc 1 688 9 is_stmt 1 view .LVU150
 691:Drivers/lvgl/src/extra/widgets/meter/lv_meter.c ****         lv_area_t a;
 495              		.loc 1 691 24 is_stmt 0 view .LVU151
 496 007c A8EB0208 		sub	r8, r8, r2
 497              	.LVL48:
 693:Drivers/lvgl/src/extra/widgets/meter/lv_meter.c ****         a.x1 += scale_center.x - 2;
 498              		.loc 1 693 9 view .LVU152
 499 0080 4FF48072 		mov	r2, #256
 688:Drivers/lvgl/src/extra/widgets/meter/lv_meter.c **** 
 500              		.loc 1 688 11 view .LVU153
 501 0084 B3F5616F 		cmp	r3, #3600
 688:Drivers/lvgl/src/extra/widgets/meter/lv_meter.c **** 
 502              		.loc 1 688 26 is_stmt 1 discriminator 1 view .LVU154
 693:Drivers/lvgl/src/extra/widgets/meter/lv_meter.c ****         a.x1 += scale_center.x - 2;
 503              		.loc 1 693 9 is_stmt 0 view .LVU155
 504 0088 0092     		str	r2, [sp]
 693:Drivers/lvgl/src/extra/widgets/meter/lv_meter.c ****         a.x1 += scale_center.x - 2;
 505              		.loc 1 693 58 view .LVU156
 506 008a BDF81620 		ldrh	r2, [sp, #22]
 688:Drivers/lvgl/src/extra/widgets/meter/lv_meter.c **** 
 507              		.loc 1 688 32 discriminator 1 view .LVU157
 508 008e C8BF     		it	gt
ARM GAS  /var/folders/lp/x54gwt890xv47sdkqj1k04q40000gn/T//ccVgM3G4.s 			page 33


 509 0090 A3F56163 		subgt	r3, r3, #3600
 510              	.LVL49:
 690:Drivers/lvgl/src/extra/widgets/meter/lv_meter.c ****         scale_center.y -= indic->type_data.needle_img.pivot.y;
 511              		.loc 1 690 9 is_stmt 1 view .LVU158
 693:Drivers/lvgl/src/extra/widgets/meter/lv_meter.c ****         a.x1 += scale_center.x - 2;
 512              		.loc 1 693 87 is_stmt 0 view .LVU159
 513 0094 1435     		adds	r5, r5, #20
 514              	.LVL50:
 693:Drivers/lvgl/src/extra/widgets/meter/lv_meter.c ****         a.x1 += scale_center.x - 2;
 515              		.loc 1 693 9 view .LVU160
 516 0096 0195     		str	r5, [sp, #4]
 517 0098 06A8     		add	r0, sp, #24
 518 009a 1BB2     		sxth	r3, r3
 519              	.LVL51:
 693:Drivers/lvgl/src/extra/widgets/meter/lv_meter.c ****         a.x1 += scale_center.x - 2;
 520              		.loc 1 693 9 view .LVU161
 521 009c C2F34A12 		ubfx	r2, r2, #5, #11
 522 00a0 C1F38A21 		ubfx	r1, r1, #10, #11
 523 00a4 FFF7FEFF 		bl	_lv_img_buf_get_transformed_area
 524              	.LVL52:
 694:Drivers/lvgl/src/extra/widgets/meter/lv_meter.c ****         a.y1 += scale_center.y - 2;
 525              		.loc 1 694 14 view .LVU162
 526 00a8 BDF81840 		ldrh	r4, [sp, #24]
 527              	.LVL53:
 696:Drivers/lvgl/src/extra/widgets/meter/lv_meter.c ****         a.y2 += scale_center.y + 2;
 528              		.loc 1 696 14 view .LVU163
 529 00ac BDF81C30 		ldrh	r3, [sp, #28]
 695:Drivers/lvgl/src/extra/widgets/meter/lv_meter.c ****         a.x2 += scale_center.x + 2;
 530              		.loc 1 695 14 view .LVU164
 531 00b0 BDF81A20 		ldrh	r2, [sp, #26]
 690:Drivers/lvgl/src/extra/widgets/meter/lv_meter.c ****         scale_center.y -= indic->type_data.needle_img.pivot.y;
 532              		.loc 1 690 24 view .LVU165
 533 00b4 1FFA89F9 		uxth	r9, r9
 534              	.LVL54:
 691:Drivers/lvgl/src/extra/widgets/meter/lv_meter.c ****         lv_area_t a;
 535              		.loc 1 691 9 is_stmt 1 view .LVU166
 696:Drivers/lvgl/src/extra/widgets/meter/lv_meter.c ****         a.y2 += scale_center.y + 2;
 536              		.loc 1 696 14 is_stmt 0 view .LVU167
 537 00b8 0233     		adds	r3, r3, #2
 694:Drivers/lvgl/src/extra/widgets/meter/lv_meter.c ****         a.y1 += scale_center.y - 2;
 538              		.loc 1 694 14 view .LVU168
 539 00ba 023C     		subs	r4, r4, #2
 540 00bc 4C44     		add	r4, r4, r9
 696:Drivers/lvgl/src/extra/widgets/meter/lv_meter.c ****         a.y2 += scale_center.y + 2;
 541              		.loc 1 696 14 view .LVU169
 542 00be 9944     		add	r9, r9, r3
 543              	.LVL55:
 697:Drivers/lvgl/src/extra/widgets/meter/lv_meter.c **** 
 544              		.loc 1 697 14 view .LVU170
 545 00c0 BDF81E30 		ldrh	r3, [sp, #30]
 691:Drivers/lvgl/src/extra/widgets/meter/lv_meter.c ****         lv_area_t a;
 546              		.loc 1 691 24 view .LVU171
 547 00c4 1FFA88F8 		uxth	r8, r8
 548              	.LVL56:
 692:Drivers/lvgl/src/extra/widgets/meter/lv_meter.c ****         _lv_img_buf_get_transformed_area(&a, info.w, info.h, angle, LV_IMG_ZOOM_NONE, &indic->type_
 549              		.loc 1 692 9 is_stmt 1 view .LVU172
 693:Drivers/lvgl/src/extra/widgets/meter/lv_meter.c ****         a.x1 += scale_center.x - 2;
ARM GAS  /var/folders/lp/x54gwt890xv47sdkqj1k04q40000gn/T//ccVgM3G4.s 			page 34


 550              		.loc 1 693 9 view .LVU173
 694:Drivers/lvgl/src/extra/widgets/meter/lv_meter.c ****         a.y1 += scale_center.y - 2;
 551              		.loc 1 694 9 view .LVU174
 695:Drivers/lvgl/src/extra/widgets/meter/lv_meter.c ****         a.x2 += scale_center.x + 2;
 552              		.loc 1 695 9 view .LVU175
 696:Drivers/lvgl/src/extra/widgets/meter/lv_meter.c ****         a.y2 += scale_center.y + 2;
 553              		.loc 1 696 9 view .LVU176
 697:Drivers/lvgl/src/extra/widgets/meter/lv_meter.c **** 
 554              		.loc 1 697 9 view .LVU177
 694:Drivers/lvgl/src/extra/widgets/meter/lv_meter.c ****         a.y1 += scale_center.y - 2;
 555              		.loc 1 694 14 is_stmt 0 view .LVU178
 556 00c8 0025     		movs	r5, #0
 557              	.LVL57:
 697:Drivers/lvgl/src/extra/widgets/meter/lv_meter.c **** 
 558              		.loc 1 697 14 view .LVU179
 559 00ca 0233     		adds	r3, r3, #2
 695:Drivers/lvgl/src/extra/widgets/meter/lv_meter.c ****         a.x2 += scale_center.x + 2;
 560              		.loc 1 695 14 view .LVU180
 561 00cc 023A     		subs	r2, r2, #2
 562 00ce 4244     		add	r2, r2, r8
 697:Drivers/lvgl/src/extra/widgets/meter/lv_meter.c **** 
 563              		.loc 1 697 14 view .LVU181
 564 00d0 9844     		add	r8, r8, r3
 565              	.LVL58:
 694:Drivers/lvgl/src/extra/widgets/meter/lv_meter.c ****         a.y1 += scale_center.y - 2;
 566              		.loc 1 694 14 view .LVU182
 567 00d2 2B46     		mov	r3, r5
 568 00d4 69F30F03 		bfi	r3, r9, #0, #16
 569 00d8 64F30F05 		bfi	r5, r4, #0, #16
 570 00dc 62F31F45 		bfi	r5, r2, #16, #16
 571 00e0 68F31F43 		bfi	r3, r8, #16, #16
 699:Drivers/lvgl/src/extra/widgets/meter/lv_meter.c ****     }
 572              		.loc 1 699 9 view .LVU183
 573 00e4 06A9     		add	r1, sp, #24
 574 00e6 3046     		mov	r0, r6
 694:Drivers/lvgl/src/extra/widgets/meter/lv_meter.c ****         a.y1 += scale_center.y - 2;
 575              		.loc 1 694 14 view .LVU184
 576 00e8 CDE90653 		strd	r5, r3, [sp, #24]
 699:Drivers/lvgl/src/extra/widgets/meter/lv_meter.c ****     }
 577              		.loc 1 699 9 is_stmt 1 view .LVU185
 578 00ec FFF7FEFF 		bl	lv_obj_invalidate_area
 579              	.LVL59:
 580              	.LBE70:
 581              		.loc 1 701 1 is_stmt 0 view .LVU186
 582 00f0 0BB0     		add	sp, sp, #44
 583              		.cfi_remember_state
 584              		.cfi_def_cfa_offset 36
 585              		@ sp needed
 586 00f2 BDE8F08F 		pop	{r4, r5, r6, r7, r8, r9, r10, fp, pc}
 587              	.LVL60:
 588              	.L13:
 589              		.cfi_restore_state
 590              	.LBB71:
 668:Drivers/lvgl/src/extra/widgets/meter/lv_meter.c ****         r_out += scale->r_mod + indic->type_data.needle_line.r_mod;
 591              		.loc 1 668 25 view .LVU187
 592 00f6 BAF92030 		ldrsh	r3, [r10, #32]
 593 00fa 3846     		mov	r0, r7
ARM GAS  /var/folders/lp/x54gwt890xv47sdkqj1k04q40000gn/T//ccVgM3G4.s 			page 35


 668:Drivers/lvgl/src/extra/widgets/meter/lv_meter.c ****         r_out += scale->r_mod + indic->type_data.needle_line.r_mod;
 594              		.loc 1 668 103 view .LVU188
 595 00fc BAF81E70 		ldrh	r7, [r10, #30]
 596              	.LVL61:
 668:Drivers/lvgl/src/extra/widgets/meter/lv_meter.c ****         r_out += scale->r_mod + indic->type_data.needle_line.r_mod;
 597              		.loc 1 668 96 view .LVU189
 598 0100 1F44     		add	r7, r7, r3
 668:Drivers/lvgl/src/extra/widgets/meter/lv_meter.c ****         r_out += scale->r_mod + indic->type_data.needle_line.r_mod;
 599              		.loc 1 668 25 view .LVU190
 600 0102 DAE90512 		ldrd	r1, r2, [r10, #20]
 601 0106 0097     		str	r7, [sp]
 602              	.LVL62:
 668:Drivers/lvgl/src/extra/widgets/meter/lv_meter.c ****         r_out += scale->r_mod + indic->type_data.needle_line.r_mod;
 603              		.loc 1 668 25 view .LVU191
 604 0108 FFF7FEFF 		bl	lv_map
 605              	.LVL63:
 669:Drivers/lvgl/src/extra/widgets/meter/lv_meter.c ****         lv_point_t p_end;
 606              		.loc 1 669 15 view .LVU192
 607 010c BAF81C20 		ldrh	r2, [r10, #28]
 671:Drivers/lvgl/src/extra/widgets/meter/lv_meter.c ****         p_end.x = (lv_trigo_cos(angle) * (r_out)) / LV_TRIGO_SIN_MAX + scale_center.x;
 608              		.loc 1 671 51 discriminator 1 view .LVU193
 609 0110 DFF8ACA0 		ldr	r10, .L15
 610              	.LVL64:
 669:Drivers/lvgl/src/extra/widgets/meter/lv_meter.c ****         lv_point_t p_end;
 611              		.loc 1 669 15 view .LVU194
 612 0114 1444     		add	r4, r4, r2
 613 0116 6A8A     		ldrh	r2, [r5, #18]
 668:Drivers/lvgl/src/extra/widgets/meter/lv_meter.c ****         r_out += scale->r_mod + indic->type_data.needle_line.r_mod;
 614              		.loc 1 668 25 view .LVU195
 615 0118 0346     		mov	r3, r0
 671:Drivers/lvgl/src/extra/widgets/meter/lv_meter.c ****         p_end.x = (lv_trigo_cos(angle) * (r_out)) / LV_TRIGO_SIN_MAX + scale_center.x;
 616              		.loc 1 671 20 view .LVU196
 617 011a 00B2     		sxth	r0, r0
 669:Drivers/lvgl/src/extra/widgets/meter/lv_meter.c ****         lv_point_t p_end;
 618              		.loc 1 669 15 view .LVU197
 619 011c 1444     		add	r4, r4, r2
 671:Drivers/lvgl/src/extra/widgets/meter/lv_meter.c ****         p_end.x = (lv_trigo_cos(angle) * (r_out)) / LV_TRIGO_SIN_MAX + scale_center.x;
 620              		.loc 1 671 20 view .LVU198
 621 011e 0393     		str	r3, [sp, #12]
 622 0120 FFF7FEFF 		bl	lv_trigo_sin
 623              	.LVL65:
 669:Drivers/lvgl/src/extra/widgets/meter/lv_meter.c ****         lv_point_t p_end;
 624              		.loc 1 669 15 view .LVU199
 625 0124 24B2     		sxth	r4, r4
 671:Drivers/lvgl/src/extra/widgets/meter/lv_meter.c ****         p_end.x = (lv_trigo_cos(angle) * (r_out)) / LV_TRIGO_SIN_MAX + scale_center.x;
 626              		.loc 1 671 40 discriminator 1 view .LVU200
 627 0126 00FB04F2 		mul	r2, r0, r4
 628              	.LBB72:
 629              	.LBB73:
 630              		.file 4 "Drivers/lvgl/src/extra/widgets/meter/../../../../src/misc/lv_math.h"
   1:Drivers/lvgl/src/extra/widgets/meter/../../../../src/misc/lv_math.h **** /**
   2:Drivers/lvgl/src/extra/widgets/meter/../../../../src/misc/lv_math.h ****  * @file lv_math.h
   3:Drivers/lvgl/src/extra/widgets/meter/../../../../src/misc/lv_math.h ****  *
   4:Drivers/lvgl/src/extra/widgets/meter/../../../../src/misc/lv_math.h ****  */
   5:Drivers/lvgl/src/extra/widgets/meter/../../../../src/misc/lv_math.h **** 
   6:Drivers/lvgl/src/extra/widgets/meter/../../../../src/misc/lv_math.h **** #ifndef LV_MATH_H
   7:Drivers/lvgl/src/extra/widgets/meter/../../../../src/misc/lv_math.h **** #define LV_MATH_H
ARM GAS  /var/folders/lp/x54gwt890xv47sdkqj1k04q40000gn/T//ccVgM3G4.s 			page 36


   8:Drivers/lvgl/src/extra/widgets/meter/../../../../src/misc/lv_math.h **** 
   9:Drivers/lvgl/src/extra/widgets/meter/../../../../src/misc/lv_math.h **** #ifdef __cplusplus
  10:Drivers/lvgl/src/extra/widgets/meter/../../../../src/misc/lv_math.h **** extern "C" {
  11:Drivers/lvgl/src/extra/widgets/meter/../../../../src/misc/lv_math.h **** #endif
  12:Drivers/lvgl/src/extra/widgets/meter/../../../../src/misc/lv_math.h **** 
  13:Drivers/lvgl/src/extra/widgets/meter/../../../../src/misc/lv_math.h **** /*********************
  14:Drivers/lvgl/src/extra/widgets/meter/../../../../src/misc/lv_math.h ****  *      INCLUDES
  15:Drivers/lvgl/src/extra/widgets/meter/../../../../src/misc/lv_math.h ****  *********************/
  16:Drivers/lvgl/src/extra/widgets/meter/../../../../src/misc/lv_math.h **** #include "../lv_conf_internal.h"
  17:Drivers/lvgl/src/extra/widgets/meter/../../../../src/misc/lv_math.h **** #include <stdint.h>
  18:Drivers/lvgl/src/extra/widgets/meter/../../../../src/misc/lv_math.h **** 
  19:Drivers/lvgl/src/extra/widgets/meter/../../../../src/misc/lv_math.h **** /*********************
  20:Drivers/lvgl/src/extra/widgets/meter/../../../../src/misc/lv_math.h ****  *      DEFINES
  21:Drivers/lvgl/src/extra/widgets/meter/../../../../src/misc/lv_math.h ****  *********************/
  22:Drivers/lvgl/src/extra/widgets/meter/../../../../src/misc/lv_math.h **** #define LV_TRIGO_SIN_MAX 32767
  23:Drivers/lvgl/src/extra/widgets/meter/../../../../src/misc/lv_math.h **** #define LV_TRIGO_SHIFT 15 /**<  >> LV_TRIGO_SHIFT to normalize*/
  24:Drivers/lvgl/src/extra/widgets/meter/../../../../src/misc/lv_math.h **** 
  25:Drivers/lvgl/src/extra/widgets/meter/../../../../src/misc/lv_math.h **** #define LV_BEZIER_VAL_MAX 1024 /**< Max time in Bezier functions (not [0..1] to use integers)*/
  26:Drivers/lvgl/src/extra/widgets/meter/../../../../src/misc/lv_math.h **** #define LV_BEZIER_VAL_SHIFT 10 /**< log2(LV_BEZIER_VAL_MAX): used to normalize up scaled values*/
  27:Drivers/lvgl/src/extra/widgets/meter/../../../../src/misc/lv_math.h **** 
  28:Drivers/lvgl/src/extra/widgets/meter/../../../../src/misc/lv_math.h **** /**********************
  29:Drivers/lvgl/src/extra/widgets/meter/../../../../src/misc/lv_math.h ****  *      TYPEDEFS
  30:Drivers/lvgl/src/extra/widgets/meter/../../../../src/misc/lv_math.h ****  **********************/
  31:Drivers/lvgl/src/extra/widgets/meter/../../../../src/misc/lv_math.h **** 
  32:Drivers/lvgl/src/extra/widgets/meter/../../../../src/misc/lv_math.h **** typedef struct {
  33:Drivers/lvgl/src/extra/widgets/meter/../../../../src/misc/lv_math.h ****     uint16_t i;
  34:Drivers/lvgl/src/extra/widgets/meter/../../../../src/misc/lv_math.h ****     uint16_t f;
  35:Drivers/lvgl/src/extra/widgets/meter/../../../../src/misc/lv_math.h **** } lv_sqrt_res_t;
  36:Drivers/lvgl/src/extra/widgets/meter/../../../../src/misc/lv_math.h **** 
  37:Drivers/lvgl/src/extra/widgets/meter/../../../../src/misc/lv_math.h **** /**********************
  38:Drivers/lvgl/src/extra/widgets/meter/../../../../src/misc/lv_math.h ****  * GLOBAL PROTOTYPES
  39:Drivers/lvgl/src/extra/widgets/meter/../../../../src/misc/lv_math.h ****  **********************/
  40:Drivers/lvgl/src/extra/widgets/meter/../../../../src/misc/lv_math.h **** 
  41:Drivers/lvgl/src/extra/widgets/meter/../../../../src/misc/lv_math.h **** //! @cond Doxygen_Suppress
  42:Drivers/lvgl/src/extra/widgets/meter/../../../../src/misc/lv_math.h **** /**
  43:Drivers/lvgl/src/extra/widgets/meter/../../../../src/misc/lv_math.h ****  * Return with sinus of an angle
  44:Drivers/lvgl/src/extra/widgets/meter/../../../../src/misc/lv_math.h ****  * @param angle
  45:Drivers/lvgl/src/extra/widgets/meter/../../../../src/misc/lv_math.h ****  * @return sinus of 'angle'. sin(-90) = -32767, sin(90) = 32767
  46:Drivers/lvgl/src/extra/widgets/meter/../../../../src/misc/lv_math.h ****  */
  47:Drivers/lvgl/src/extra/widgets/meter/../../../../src/misc/lv_math.h **** int16_t /* LV_ATTRIBUTE_FAST_MEM */ lv_trigo_sin(int16_t angle);
  48:Drivers/lvgl/src/extra/widgets/meter/../../../../src/misc/lv_math.h **** 
  49:Drivers/lvgl/src/extra/widgets/meter/../../../../src/misc/lv_math.h **** static inline int16_t LV_ATTRIBUTE_FAST_MEM lv_trigo_cos(int16_t angle)
  50:Drivers/lvgl/src/extra/widgets/meter/../../../../src/misc/lv_math.h **** {
  51:Drivers/lvgl/src/extra/widgets/meter/../../../../src/misc/lv_math.h ****     return lv_trigo_sin(angle + 90);
 631              		.loc 4 51 31 view .LVU201
 632 012a 039B     		ldr	r3, [sp, #12]
 633              	.LBE73:
 634              	.LBE72:
 671:Drivers/lvgl/src/extra/widgets/meter/lv_meter.c ****         p_end.x = (lv_trigo_cos(angle) * (r_out)) / LV_TRIGO_SIN_MAX + scale_center.x;
 635              		.loc 1 671 51 discriminator 1 view .LVU202
 636 012c 8AFB02C1 		smull	ip, r1, r10, r2
 637              	.LBB78:
 638              	.LBB74:
 639              		.loc 4 51 31 view .LVU203
 640 0130 03F15A00 		add	r0, r3, #90
 641              	.LBE74:
 642              	.LBE78:
ARM GAS  /var/folders/lp/x54gwt890xv47sdkqj1k04q40000gn/T//ccVgM3G4.s 			page 37


 671:Drivers/lvgl/src/extra/widgets/meter/lv_meter.c ****         p_end.x = (lv_trigo_cos(angle) * (r_out)) / LV_TRIGO_SIN_MAX + scale_center.x;
 643              		.loc 1 671 51 discriminator 1 view .LVU204
 644 0134 D317     		asrs	r3, r2, #31
 645 0136 0A44     		add	r2, r2, r1
 646 0138 C3EBA233 		rsb	r3, r3, r2, asr #14
 647              	.LBB79:
 648              	.LBB75:
 649              		.loc 4 51 12 view .LVU205
 650 013c 00B2     		sxth	r0, r0
 651              	.LBE75:
 652              	.LBE79:
 653              	.LBE71:
 663:Drivers/lvgl/src/extra/widgets/meter/lv_meter.c **** 
 654              		.loc 1 663 36 view .LVU206
 655 013e 0FFA88F7 		sxth	r7, r8
 656              	.LBB82:
 668:Drivers/lvgl/src/extra/widgets/meter/lv_meter.c ****         r_out += scale->r_mod + indic->type_data.needle_line.r_mod;
 657              		.loc 1 668 9 is_stmt 1 view .LVU207
 669:Drivers/lvgl/src/extra/widgets/meter/lv_meter.c ****         lv_point_t p_end;
 658              		.loc 1 669 9 view .LVU208
 659              	.LVL66:
 670:Drivers/lvgl/src/extra/widgets/meter/lv_meter.c ****         p_end.y = (lv_trigo_sin(angle) * (r_out)) / LV_TRIGO_SIN_MAX + scale_center.y;
 660              		.loc 1 670 9 view .LVU209
 671:Drivers/lvgl/src/extra/widgets/meter/lv_meter.c ****         p_end.x = (lv_trigo_cos(angle) * (r_out)) / LV_TRIGO_SIN_MAX + scale_center.x;
 661              		.loc 1 671 9 view .LVU210
 671:Drivers/lvgl/src/extra/widgets/meter/lv_meter.c ****         p_end.x = (lv_trigo_cos(angle) * (r_out)) / LV_TRIGO_SIN_MAX + scale_center.x;
 662              		.loc 1 671 70 is_stmt 0 discriminator 1 view .LVU211
 663 0142 9844     		add	r8, r8, r3
 664              	.LVL67:
 665              	.LBB80:
 666              	.LBB76:
 667              		.loc 4 51 12 view .LVU212
 668 0144 FFF7FEFF 		bl	lv_trigo_sin
 669              	.LVL68:
 670              	.LBE76:
 671              	.LBE80:
 672:Drivers/lvgl/src/extra/widgets/meter/lv_meter.c **** 
 672              		.loc 1 672 40 discriminator 1 view .LVU213
 673 0148 04FB00F0 		mul	r0, r4, r0
 675:Drivers/lvgl/src/extra/widgets/meter/lv_meter.c ****         a.y1 = LV_MIN(scale_center.y, p_end.y) - indic->type_data.needle_line.width - 2;
 674              		.loc 1 675 78 view .LVU214
 675 014c 2A8A     		ldrh	r2, [r5, #16]
 672:Drivers/lvgl/src/extra/widgets/meter/lv_meter.c **** 
 676              		.loc 1 672 51 discriminator 1 view .LVU215
 677 014e 8AFB003A 		smull	r3, r10, r10, r0
 678 0152 8244     		add	r10, r10, r0
 679 0154 C317     		asrs	r3, r0, #31
 680 0156 C3EBAA33 		rsb	r3, r3, r10, asr #14
 681 015a C2F57F41 		rsb	r1, r2, #65280
 672:Drivers/lvgl/src/extra/widgets/meter/lv_meter.c **** 
 682              		.loc 1 672 70 discriminator 1 view .LVU216
 683 015e 4B44     		add	r3, r3, r9
 684 0160 FE31     		adds	r1, r1, #254
 685 0162 0232     		adds	r2, r2, #2
 686 0164 1BB2     		sxth	r3, r3
 687              	.LBE82:
 662:Drivers/lvgl/src/extra/widgets/meter/lv_meter.c ****     scale_center.y = scale_area.y1 + r_out;
ARM GAS  /var/folders/lp/x54gwt890xv47sdkqj1k04q40000gn/T//ccVgM3G4.s 			page 38


 688              		.loc 1 662 36 view .LVU217
 689 0166 0FFA89FB 		sxth	fp, r9
 690 016a 89B2     		uxth	r1, r1
 691 016c 92B2     		uxth	r2, r2
 692              	.LBB83:
 675:Drivers/lvgl/src/extra/widgets/meter/lv_meter.c ****         a.y1 = LV_MIN(scale_center.y, p_end.y) - indic->type_data.needle_line.width - 2;
 693              		.loc 1 675 85 view .LVU218
 694 016e 0024     		movs	r4, #0
 695              	.LVL69:
 675:Drivers/lvgl/src/extra/widgets/meter/lv_meter.c ****         a.y1 = LV_MIN(scale_center.y, p_end.y) - indic->type_data.needle_line.width - 2;
 696              		.loc 1 675 85 view .LVU219
 697 0170 9B45     		cmp	fp, r3
 698 0172 D4BF     		ite	le
 699 0174 01EB0B0C 		addle	ip, r1, fp
 700 0178 01EB030C 		addgt	ip, r1, r3
 671:Drivers/lvgl/src/extra/widgets/meter/lv_meter.c ****         p_end.x = (lv_trigo_cos(angle) * (r_out)) / LV_TRIGO_SIN_MAX + scale_center.x;
 701              		.loc 1 671 70 discriminator 1 view .LVU220
 702 017c 0FFA88F8 		sxth	r8, r8
 703              	.LVL70:
 672:Drivers/lvgl/src/extra/widgets/meter/lv_meter.c **** 
 704              		.loc 1 672 9 is_stmt 1 view .LVU221
 705              	.LBB81:
 706              	.LBI72:
  49:Drivers/lvgl/src/extra/widgets/meter/../../../../src/misc/lv_math.h **** {
 707              		.loc 4 49 45 view .LVU222
 708              	.LBB77:
 709              		.loc 4 51 5 view .LVU223
 710              		.loc 4 51 5 is_stmt 0 view .LVU224
 711              	.LBE77:
 712              	.LBE81:
 674:Drivers/lvgl/src/extra/widgets/meter/lv_meter.c ****         a.x1 = LV_MIN(scale_center.x, p_end.x) - indic->type_data.needle_line.width - 2;
 713              		.loc 1 674 9 is_stmt 1 view .LVU225
 675:Drivers/lvgl/src/extra/widgets/meter/lv_meter.c ****         a.y1 = LV_MIN(scale_center.y, p_end.y) - indic->type_data.needle_line.width - 2;
 714              		.loc 1 675 9 view .LVU226
 676:Drivers/lvgl/src/extra/widgets/meter/lv_meter.c ****         a.x2 = LV_MAX(scale_center.x, p_end.x) + indic->type_data.needle_line.width + 2;
 715              		.loc 1 676 9 view .LVU227
 677:Drivers/lvgl/src/extra/widgets/meter/lv_meter.c ****         a.y2 = LV_MAX(scale_center.y, p_end.y) + indic->type_data.needle_line.width + 2;
 716              		.loc 1 677 9 view .LVU228
 678:Drivers/lvgl/src/extra/widgets/meter/lv_meter.c **** 
 717              		.loc 1 678 9 view .LVU229
 680:Drivers/lvgl/src/extra/widgets/meter/lv_meter.c ****     }
 718              		.loc 1 680 9 is_stmt 0 view .LVU230
 719 0180 3046     		mov	r0, r6
 675:Drivers/lvgl/src/extra/widgets/meter/lv_meter.c ****         a.y1 = LV_MIN(scale_center.y, p_end.y) - indic->type_data.needle_line.width - 2;
 720              		.loc 1 675 85 view .LVU231
 721 0182 2546     		mov	r5, r4
 722              	.LVL71:
 677:Drivers/lvgl/src/extra/widgets/meter/lv_meter.c ****         a.y2 = LV_MAX(scale_center.y, p_end.y) + indic->type_data.needle_line.width + 2;
 723              		.loc 1 677 85 view .LVU232
 724 0184 9B45     		cmp	fp, r3
 725 0186 ACBF     		ite	ge
 726 0188 02EB0B06 		addge	r6, r2, fp
 727 018c D618     		addlt	r6, r2, r3
 728              	.LVL72:
 675:Drivers/lvgl/src/extra/widgets/meter/lv_meter.c ****         a.y1 = LV_MIN(scale_center.y, p_end.y) - indic->type_data.needle_line.width - 2;
 729              		.loc 1 675 85 view .LVU233
 730 018e 6CF30F04 		bfi	r4, ip, #0, #16
ARM GAS  /var/folders/lp/x54gwt890xv47sdkqj1k04q40000gn/T//ccVgM3G4.s 			page 39


 676:Drivers/lvgl/src/extra/widgets/meter/lv_meter.c ****         a.x2 = LV_MAX(scale_center.x, p_end.x) + indic->type_data.needle_line.width + 2;
 731              		.loc 1 676 85 view .LVU234
 732 0192 4745     		cmp	r7, r8
 733 0194 D4BF     		ite	le
 734 0196 C919     		addle	r1, r1, r7
 735 0198 4144     		addgt	r1, r1, r8
 678:Drivers/lvgl/src/extra/widgets/meter/lv_meter.c **** 
 736              		.loc 1 678 85 view .LVU235
 737 019a 4745     		cmp	r7, r8
 738 019c ACBF     		ite	ge
 739 019e D219     		addge	r2, r2, r7
 740 01a0 4244     		addlt	r2, r2, r8
 675:Drivers/lvgl/src/extra/widgets/meter/lv_meter.c ****         a.y1 = LV_MIN(scale_center.y, p_end.y) - indic->type_data.needle_line.width - 2;
 741              		.loc 1 675 85 view .LVU236
 742 01a2 66F30F05 		bfi	r5, r6, #0, #16
 743 01a6 61F31F44 		bfi	r4, r1, #16, #16
 744 01aa 62F31F45 		bfi	r5, r2, #16, #16
 680:Drivers/lvgl/src/extra/widgets/meter/lv_meter.c ****     }
 745              		.loc 1 680 9 view .LVU237
 746 01ae 06A9     		add	r1, sp, #24
 675:Drivers/lvgl/src/extra/widgets/meter/lv_meter.c ****         a.y1 = LV_MIN(scale_center.y, p_end.y) - indic->type_data.needle_line.width - 2;
 747              		.loc 1 675 14 view .LVU238
 748 01b0 CDE90645 		strd	r4, r5, [sp, #24]
 680:Drivers/lvgl/src/extra/widgets/meter/lv_meter.c ****     }
 749              		.loc 1 680 9 is_stmt 1 view .LVU239
 750 01b4 FFF7FEFF 		bl	lv_obj_invalidate_area
 751              	.LVL73:
 680:Drivers/lvgl/src/extra/widgets/meter/lv_meter.c ****     }
 752              		.loc 1 680 9 is_stmt 0 view .LVU240
 753              	.LBE83:
 754              		.loc 1 701 1 view .LVU241
 755 01b8 0BB0     		add	sp, sp, #44
 756              		.cfi_def_cfa_offset 36
 757              		@ sp needed
 758 01ba BDE8F08F 		pop	{r4, r5, r6, r7, r8, r9, r10, fp, pc}
 759              	.LVL74:
 760              	.L16:
 761              		.loc 1 701 1 view .LVU242
 762 01be 00BF     		.align	2
 763              	.L15:
 764 01c0 03000180 		.word	-2147418109
 765              		.cfi_endproc
 766              	.LFE223:
 768              		.section	.rodata.lv_meter_event.str1.4,"aMS",%progbits,1
 769              		.align	2
 770              	.LC0:
 771 0000 256C6400 		.ascii	"%ld\000"
 772              		.section	.text.lv_meter_event,"ax",%progbits
 773              		.align	1
 774              		.p2align 2,,3
 775              		.syntax unified
 776              		.thumb
 777              		.thumb_func
 779              	lv_meter_event:
 780              	.LVL75:
 781              	.LFB218:
 290:Drivers/lvgl/src/extra/widgets/meter/lv_meter.c ****     LV_UNUSED(class_p);
ARM GAS  /var/folders/lp/x54gwt890xv47sdkqj1k04q40000gn/T//ccVgM3G4.s 			page 40


 782              		.loc 1 290 1 is_stmt 1 view -0
 783              		.cfi_startproc
 784              		@ args = 0, pretend = 0, frame = 344
 785              		@ frame_needed = 0, uses_anonymous_args = 0
 291:Drivers/lvgl/src/extra/widgets/meter/lv_meter.c **** 
 786              		.loc 1 291 5 view .LVU244
 293:Drivers/lvgl/src/extra/widgets/meter/lv_meter.c ****     if(res != LV_RES_OK) return;
 787              		.loc 1 293 5 view .LVU245
 290:Drivers/lvgl/src/extra/widgets/meter/lv_meter.c ****     LV_UNUSED(class_p);
 788              		.loc 1 290 1 is_stmt 0 view .LVU246
 789 0000 2DE9F04F 		push	{r4, r5, r6, r7, r8, r9, r10, fp, lr}
 790              		.cfi_def_cfa_offset 36
 791              		.cfi_offset 4, -36
 792              		.cfi_offset 5, -32
 793              		.cfi_offset 6, -28
 794              		.cfi_offset 7, -24
 795              		.cfi_offset 8, -20
 796              		.cfi_offset 9, -16
 797              		.cfi_offset 10, -12
 798              		.cfi_offset 11, -8
 799              		.cfi_offset 14, -4
 293:Drivers/lvgl/src/extra/widgets/meter/lv_meter.c ****     if(res != LV_RES_OK) return;
 800              		.loc 1 293 20 view .LVU247
 801 0004 0448     		ldr	r0, .L69
 802              	.LVL76:
 290:Drivers/lvgl/src/extra/widgets/meter/lv_meter.c ****     LV_UNUSED(class_p);
 803              		.loc 1 290 1 view .LVU248
 804 0006 DBB0     		sub	sp, sp, #364
 805              		.cfi_def_cfa_offset 400
 290:Drivers/lvgl/src/extra/widgets/meter/lv_meter.c ****     LV_UNUSED(class_p);
 806              		.loc 1 290 1 view .LVU249
 807 0008 0C46     		mov	r4, r1
 293:Drivers/lvgl/src/extra/widgets/meter/lv_meter.c ****     if(res != LV_RES_OK) return;
 808              		.loc 1 293 20 view .LVU250
 809 000a FFF7FEFF 		bl	lv_obj_event_base
 810              	.LVL77:
 294:Drivers/lvgl/src/extra/widgets/meter/lv_meter.c **** 
 811              		.loc 1 294 5 is_stmt 1 view .LVU251
 294:Drivers/lvgl/src/extra/widgets/meter/lv_meter.c **** 
 812              		.loc 1 294 7 is_stmt 0 view .LVU252
 813 000e 0128     		cmp	r0, #1
 814 0010 04D0     		beq	.L66
 815              	.LVL78:
 816              	.L17:
 324:Drivers/lvgl/src/extra/widgets/meter/lv_meter.c **** 
 817              		.loc 1 324 1 view .LVU253
 818 0012 5BB0     		add	sp, sp, #364
 819              		.cfi_remember_state
 820              		.cfi_def_cfa_offset 36
 821              		@ sp needed
 822 0014 BDE8F08F 		pop	{r4, r5, r6, r7, r8, r9, r10, fp, pc}
 823              	.L70:
 824              		.align	2
 825              	.L69:
 826 0018 00000000 		.word	lv_meter_class
 827              	.LVL79:
 828              	.L66:
ARM GAS  /var/folders/lp/x54gwt890xv47sdkqj1k04q40000gn/T//ccVgM3G4.s 			page 41


 829              		.cfi_restore_state
 830              	.LBB136:
 831              	.LBI136:
 289:Drivers/lvgl/src/extra/widgets/meter/lv_meter.c **** {
 832              		.loc 1 289 13 is_stmt 1 view .LVU254
 833              	.LBB137:
 296:Drivers/lvgl/src/extra/widgets/meter/lv_meter.c ****     lv_obj_t * obj = lv_event_get_target(e);
 834              		.loc 1 296 5 view .LVU255
 296:Drivers/lvgl/src/extra/widgets/meter/lv_meter.c ****     lv_obj_t * obj = lv_event_get_target(e);
 835              		.loc 1 296 28 is_stmt 0 view .LVU256
 836 001c 2046     		mov	r0, r4
 837              	.LVL80:
 296:Drivers/lvgl/src/extra/widgets/meter/lv_meter.c ****     lv_obj_t * obj = lv_event_get_target(e);
 838              		.loc 1 296 28 view .LVU257
 839 001e FFF7FEFF 		bl	lv_event_get_code
 840              	.LVL81:
 841 0022 0546     		mov	r5, r0
 842              	.LVL82:
 297:Drivers/lvgl/src/extra/widgets/meter/lv_meter.c ****     if(code == LV_EVENT_DRAW_MAIN) {
 843              		.loc 1 297 5 is_stmt 1 view .LVU258
 297:Drivers/lvgl/src/extra/widgets/meter/lv_meter.c ****     if(code == LV_EVENT_DRAW_MAIN) {
 844              		.loc 1 297 22 is_stmt 0 view .LVU259
 845 0024 2046     		mov	r0, r4
 846 0026 FFF7FEFF 		bl	lv_event_get_target
 847              	.LVL83:
 298:Drivers/lvgl/src/extra/widgets/meter/lv_meter.c ****         lv_draw_ctx_t * draw_ctx = lv_event_get_draw_ctx(e);
 848              		.loc 1 298 7 view .LVU260
 849 002a 152D     		cmp	r5, #21
 297:Drivers/lvgl/src/extra/widgets/meter/lv_meter.c ****     if(code == LV_EVENT_DRAW_MAIN) {
 850              		.loc 1 297 22 view .LVU261
 851 002c 0790     		str	r0, [sp, #28]
 852              	.LVL84:
 298:Drivers/lvgl/src/extra/widgets/meter/lv_meter.c ****         lv_draw_ctx_t * draw_ctx = lv_event_get_draw_ctx(e);
 853              		.loc 1 298 5 is_stmt 1 view .LVU262
 298:Drivers/lvgl/src/extra/widgets/meter/lv_meter.c ****         lv_draw_ctx_t * draw_ctx = lv_event_get_draw_ctx(e);
 854              		.loc 1 298 7 is_stmt 0 view .LVU263
 855 002e F0D1     		bne	.L17
 856              	.LBB138:
 299:Drivers/lvgl/src/extra/widgets/meter/lv_meter.c ****         lv_area_t scale_area;
 857              		.loc 1 299 9 is_stmt 1 view .LVU264
 299:Drivers/lvgl/src/extra/widgets/meter/lv_meter.c ****         lv_area_t scale_area;
 858              		.loc 1 299 36 is_stmt 0 view .LVU265
 859 0030 2046     		mov	r0, r4
 860              	.LVL85:
 299:Drivers/lvgl/src/extra/widgets/meter/lv_meter.c ****         lv_area_t scale_area;
 861              		.loc 1 299 36 view .LVU266
 862 0032 FFF7FEFF 		bl	lv_event_get_draw_ctx
 863              	.LVL86:
 301:Drivers/lvgl/src/extra/widgets/meter/lv_meter.c **** 
 864              		.loc 1 301 9 view .LVU267
 865 0036 079C     		ldr	r4, [sp, #28]
 866              	.LVL87:
 299:Drivers/lvgl/src/extra/widgets/meter/lv_meter.c ****         lv_area_t scale_area;
 867              		.loc 1 299 36 view .LVU268
 868 0038 0890     		str	r0, [sp, #32]
 301:Drivers/lvgl/src/extra/widgets/meter/lv_meter.c **** 
 869              		.loc 1 301 9 view .LVU269
ARM GAS  /var/folders/lp/x54gwt890xv47sdkqj1k04q40000gn/T//ccVgM3G4.s 			page 42


 870 003a 15A9     		add	r1, sp, #84
 299:Drivers/lvgl/src/extra/widgets/meter/lv_meter.c ****         lv_area_t scale_area;
 871              		.loc 1 299 36 view .LVU270
 872 003c 0546     		mov	r5, r0
 873              	.LVL88:
 300:Drivers/lvgl/src/extra/widgets/meter/lv_meter.c ****         lv_obj_get_content_coords(obj, &scale_area);
 874              		.loc 1 300 9 is_stmt 1 view .LVU271
 301:Drivers/lvgl/src/extra/widgets/meter/lv_meter.c **** 
 875              		.loc 1 301 9 view .LVU272
 876 003e 2046     		mov	r0, r4
 877              	.LVL89:
 301:Drivers/lvgl/src/extra/widgets/meter/lv_meter.c **** 
 878              		.loc 1 301 9 is_stmt 0 view .LVU273
 879 0040 FFF7FEFF 		bl	lv_obj_get_content_coords
 880              	.LVL90:
 303:Drivers/lvgl/src/extra/widgets/meter/lv_meter.c ****         draw_ticks_and_labels(obj, draw_ctx, &scale_area);
 881              		.loc 1 303 9 is_stmt 1 view .LVU274
 882              	.LBB139:
 883              	.LBI139:
 326:Drivers/lvgl/src/extra/widgets/meter/lv_meter.c **** {
 884              		.loc 1 326 13 view .LVU275
 885              	.LBB140:
 328:Drivers/lvgl/src/extra/widgets/meter/lv_meter.c **** 
 886              		.loc 1 328 5 view .LVU276
 330:Drivers/lvgl/src/extra/widgets/meter/lv_meter.c ****     lv_draw_arc_dsc_init(&arc_dsc);
 887              		.loc 1 330 5 view .LVU277
 331:Drivers/lvgl/src/extra/widgets/meter/lv_meter.c ****     arc_dsc.rounded = lv_obj_get_style_arc_rounded(obj, LV_PART_ITEMS);
 888              		.loc 1 331 5 view .LVU278
 889 0044 40A8     		add	r0, sp, #256
 890 0046 FFF7FEFF 		bl	lv_draw_arc_dsc_init
 891              	.LVL91:
 332:Drivers/lvgl/src/extra/widgets/meter/lv_meter.c **** 
 892              		.loc 1 332 5 view .LVU279
 893              	.LBB141:
 894              	.LBI141:
 415:Drivers/lvgl/src/extra/widgets/meter/../../../../src/core/lv_obj_style_gen.h **** {
 895              		.loc 2 415 20 view .LVU280
 896              	.LBB142:
 417:Drivers/lvgl/src/extra/widgets/meter/../../../../src/core/lv_obj_style_gen.h ****     return (bool)v.num;
 897              		.loc 2 417 5 view .LVU281
 417:Drivers/lvgl/src/extra/widgets/meter/../../../../src/core/lv_obj_style_gen.h ****     return (bool)v.num;
 898              		.loc 2 417 26 is_stmt 0 view .LVU282
 899 004a 5122     		movs	r2, #81
 900 004c 4FF4A021 		mov	r1, #327680
 901 0050 2046     		mov	r0, r4
 902 0052 FFF7FEFF 		bl	lv_obj_get_style_prop
 903              	.LVL92:
 904              		.loc 2 418 5 is_stmt 1 view .LVU283
 905              	.LBE142:
 906              	.LBE141:
 907              	.LBB145:
 908              	.LBB146:
 909              		.loc 3 125 49 is_stmt 0 view .LVU284
 910 0056 BDF85830 		ldrh	r3, [sp, #88]
 911              		.loc 3 125 44 view .LVU285
 912 005a BDF85420 		ldrh	r2, [sp, #84]
 913              		.loc 3 125 49 view .LVU286
ARM GAS  /var/folders/lp/x54gwt890xv47sdkqj1k04q40000gn/T//ccVgM3G4.s 			page 43


 914 005e 0133     		adds	r3, r3, #1
 915 0060 9B1A     		subs	r3, r3, r2
 916              	.LBE146:
 917              	.LBE145:
 918              	.LBB148:
 919              	.LBB143:
 920              		.loc 2 418 12 view .LVU287
 921 0062 011E     		subs	r1, r0, #0
 922              	.LBE143:
 923              	.LBE148:
 334:Drivers/lvgl/src/extra/widgets/meter/lv_meter.c ****     lv_point_t scale_center;
 924              		.loc 1 334 16 discriminator 1 view .LVU288
 925 0064 C3F3C030 		ubfx	r0, r3, #15, #1
 926 0068 00FA83F3 		sxtah	r3, r0, r3
 336:Drivers/lvgl/src/extra/widgets/meter/lv_meter.c ****     scale_center.y = scale_area->y1 + r_out;
 927              		.loc 1 336 37 view .LVU289
 928 006c C3F34F07 		ubfx	r7, r3, #1, #16
 332:Drivers/lvgl/src/extra/widgets/meter/lv_meter.c **** 
 929              		.loc 1 332 21 discriminator 1 view .LVU290
 930 0070 9DF80D31 		ldrb	r3, [sp, #269]	@ zero_extendqisi2
 931              	.LBB149:
 932              	.LBB144:
 933              		.loc 2 418 12 view .LVU291
 934 0074 18BF     		it	ne
 935 0076 0121     		movne	r1, #1
 936              	.LVL93:
 937              		.loc 2 418 12 view .LVU292
 938              	.LBE144:
 939              	.LBE149:
 332:Drivers/lvgl/src/extra/widgets/meter/lv_meter.c **** 
 940              		.loc 1 332 21 discriminator 1 view .LVU293
 941 0078 61F38203 		bfi	r3, r1, #2, #1
 942 007c 8DF80D31 		strb	r3, [sp, #269]
 334:Drivers/lvgl/src/extra/widgets/meter/lv_meter.c ****     lv_point_t scale_center;
 943              		.loc 1 334 5 is_stmt 1 view .LVU294
 944              	.LVL94:
 945              	.LBB150:
 946              	.LBI145:
 123:Drivers/lvgl/src/extra/widgets/meter/../../../../src/hal/../draw/../misc/../font/../misc/lv_area.h **** {
 947              		.loc 3 123 26 view .LVU295
 948              	.LBB147:
 949              		.loc 3 125 5 view .LVU296
 950              		.loc 3 125 5 is_stmt 0 view .LVU297
 951              	.LBE147:
 952              	.LBE150:
 335:Drivers/lvgl/src/extra/widgets/meter/lv_meter.c ****     scale_center.x = scale_area->x1 + r_out;
 953              		.loc 1 335 5 is_stmt 1 view .LVU298
 336:Drivers/lvgl/src/extra/widgets/meter/lv_meter.c ****     scale_center.y = scale_area->y1 + r_out;
 954              		.loc 1 336 5 view .LVU299
 337:Drivers/lvgl/src/extra/widgets/meter/lv_meter.c **** 
 955              		.loc 1 337 5 view .LVU300
 337:Drivers/lvgl/src/extra/widgets/meter/lv_meter.c **** 
 956              		.loc 1 337 37 is_stmt 0 view .LVU301
 957 0080 BDF85630 		ldrh	r3, [sp, #86]
 336:Drivers/lvgl/src/extra/widgets/meter/lv_meter.c ****     scale_center.y = scale_area->y1 + r_out;
 958              		.loc 1 336 37 view .LVU302
 959 0084 3A44     		add	r2, r2, r7
ARM GAS  /var/folders/lp/x54gwt890xv47sdkqj1k04q40000gn/T//ccVgM3G4.s 			page 44


 960              	.LVL95:
 337:Drivers/lvgl/src/extra/widgets/meter/lv_meter.c **** 
 961              		.loc 1 337 37 view .LVU303
 962 0086 3B44     		add	r3, r3, r7
 339:Drivers/lvgl/src/extra/widgets/meter/lv_meter.c ****     lv_meter_indicator_t * indic;
 963              		.loc 1 339 25 view .LVU304
 964 0088 0021     		movs	r1, #0
 965 008a 2046     		mov	r0, r4
 336:Drivers/lvgl/src/extra/widgets/meter/lv_meter.c ****     scale_center.y = scale_area->y1 + r_out;
 966              		.loc 1 336 20 view .LVU305
 967 008c ADF8E020 		strh	r2, [sp, #224]	@ movhi
 337:Drivers/lvgl/src/extra/widgets/meter/lv_meter.c **** 
 968              		.loc 1 337 20 view .LVU306
 969 0090 ADF8E230 		strh	r3, [sp, #226]	@ movhi
 339:Drivers/lvgl/src/extra/widgets/meter/lv_meter.c ****     lv_meter_indicator_t * indic;
 970              		.loc 1 339 5 is_stmt 1 view .LVU307
 339:Drivers/lvgl/src/extra/widgets/meter/lv_meter.c ****     lv_meter_indicator_t * indic;
 971              		.loc 1 339 25 is_stmt 0 view .LVU308
 972 0094 FFF7FEFF 		bl	lv_obj_get_style_opa_recursive
 973              	.LVL96:
 343:Drivers/lvgl/src/extra/widgets/meter/lv_meter.c ****     part_draw_dsc.arc_dsc = &arc_dsc;
 974              		.loc 1 343 5 view .LVU309
 975 0098 2946     		mov	r1, r5
 339:Drivers/lvgl/src/extra/widgets/meter/lv_meter.c ****     lv_meter_indicator_t * indic;
 976              		.loc 1 339 25 view .LVU310
 977 009a 8046     		mov	r8, r0
 978              	.LVL97:
 340:Drivers/lvgl/src/extra/widgets/meter/lv_meter.c **** 
 979              		.loc 1 340 5 is_stmt 1 view .LVU311
 342:Drivers/lvgl/src/extra/widgets/meter/lv_meter.c ****     lv_obj_draw_dsc_init(&part_draw_dsc, draw_ctx);
 980              		.loc 1 342 5 view .LVU312
 343:Drivers/lvgl/src/extra/widgets/meter/lv_meter.c ****     part_draw_dsc.arc_dsc = &arc_dsc;
 981              		.loc 1 343 5 view .LVU313
 982 009c 48A8     		add	r0, sp, #288
 983 009e FFF7FEFF 		bl	lv_obj_draw_dsc_init
 984              	.LVL98:
 344:Drivers/lvgl/src/extra/widgets/meter/lv_meter.c ****     part_draw_dsc.part = LV_PART_INDICATOR;
 985              		.loc 1 344 5 view .LVU314
 344:Drivers/lvgl/src/extra/widgets/meter/lv_meter.c ****     part_draw_dsc.part = LV_PART_INDICATOR;
 986              		.loc 1 344 27 is_stmt 0 view .LVU315
 987 00a2 40AB     		add	r3, sp, #256
 988 00a4 5093     		str	r3, [sp, #320]
 345:Drivers/lvgl/src/extra/widgets/meter/lv_meter.c ****     part_draw_dsc.class_p = MY_CLASS;
 989              		.loc 1 345 5 is_stmt 1 view .LVU316
 346:Drivers/lvgl/src/extra/widgets/meter/lv_meter.c ****     part_draw_dsc.type = LV_METER_DRAW_PART_ARC;
 990              		.loc 1 346 27 is_stmt 0 view .LVU317
 991 00a6 A54B     		ldr	r3, .L71
 992 00a8 4993     		str	r3, [sp, #292]
 349:Drivers/lvgl/src/extra/widgets/meter/lv_meter.c ****         if(indic->type != LV_METER_INDICATOR_TYPE_ARC) continue;
 993              		.loc 1 349 5 view .LVU318
 994 00aa 04F1300B 		add	fp, r4, #48
 345:Drivers/lvgl/src/extra/widgets/meter/lv_meter.c ****     part_draw_dsc.class_p = MY_CLASS;
 995              		.loc 1 345 24 view .LVU319
 996 00ae 4FF40033 		mov	r3, #131072
 997 00b2 5593     		str	r3, [sp, #340]
 346:Drivers/lvgl/src/extra/widgets/meter/lv_meter.c ****     part_draw_dsc.type = LV_METER_DRAW_PART_ARC;
 998              		.loc 1 346 5 is_stmt 1 view .LVU320
ARM GAS  /var/folders/lp/x54gwt890xv47sdkqj1k04q40000gn/T//ccVgM3G4.s 			page 45


 347:Drivers/lvgl/src/extra/widgets/meter/lv_meter.c **** 
 999              		.loc 1 347 5 view .LVU321
 349:Drivers/lvgl/src/extra/widgets/meter/lv_meter.c ****         if(indic->type != LV_METER_INDICATOR_TYPE_ARC) continue;
 1000              		.loc 1 349 5 is_stmt 0 view .LVU322
 1001 00b4 5846     		mov	r0, fp
 347:Drivers/lvgl/src/extra/widgets/meter/lv_meter.c **** 
 1002              		.loc 1 347 24 view .LVU323
 1003 00b6 0023     		movs	r3, #0
 1004 00b8 4A93     		str	r3, [sp, #296]
 349:Drivers/lvgl/src/extra/widgets/meter/lv_meter.c ****         if(indic->type != LV_METER_INDICATOR_TYPE_ARC) continue;
 1005              		.loc 1 349 5 is_stmt 1 view .LVU324
 1006 00ba FFF7FEFF 		bl	_lv_ll_get_tail
 1007              	.LVL99:
 349:Drivers/lvgl/src/extra/widgets/meter/lv_meter.c ****         if(indic->type != LV_METER_INDICATOR_TYPE_ARC) continue;
 1008              		.loc 1 349 5 discriminator 1 view .LVU325
 1009 00be 38AB     		add	r3, sp, #224
 1010 00c0 0446     		mov	r4, r0
 1011              	.LVL100:
 349:Drivers/lvgl/src/extra/widgets/meter/lv_meter.c ****         if(indic->type != LV_METER_INDICATOR_TYPE_ARC) continue;
 1012              		.loc 1 349 5 is_stmt 0 discriminator 1 view .LVU326
 1013 00c2 0993     		str	r3, [sp, #36]
 1014 00c4 0028     		cmp	r0, #0
 1015 00c6 54D0     		beq	.L26
 1016 00c8 DDF81C90 		ldr	r9, [sp, #28]
 1017 00cc BA46     		mov	r10, r7
 1018 00ce 1F46     		mov	r7, r3
 1019              	.LVL101:
 1020              	.L21:
 1021              	.LBB151:
 350:Drivers/lvgl/src/extra/widgets/meter/lv_meter.c **** 
 1022              		.loc 1 350 9 is_stmt 1 view .LVU327
 352:Drivers/lvgl/src/extra/widgets/meter/lv_meter.c ****         arc_dsc.width = indic->type_data.arc.width;
 1023              		.loc 1 352 9 view .LVU328
 350:Drivers/lvgl/src/extra/widgets/meter/lv_meter.c **** 
 1024              		.loc 1 350 11 is_stmt 0 view .LVU329
 1025 00d0 2379     		ldrb	r3, [r4, #4]	@ zero_extendqisi2
 1026 00d2 032B     		cmp	r3, #3
 1027 00d4 46D1     		bne	.L24
 352:Drivers/lvgl/src/extra/widgets/meter/lv_meter.c ****         arc_dsc.width = indic->type_data.arc.width;
 1028              		.loc 1 352 23 view .LVU330
 1029 00d6 238B     		ldrh	r3, [r4, #24]
 1030 00d8 ADF80031 		strh	r3, [sp, #256]	@ movhi
 353:Drivers/lvgl/src/extra/widgets/meter/lv_meter.c ****         arc_dsc.opa = indic->opa > LV_OPA_MAX ? opa_main : (opa_main * indic->opa) >> 8;
 1031              		.loc 1 353 9 is_stmt 1 view .LVU331
 353:Drivers/lvgl/src/extra/widgets/meter/lv_meter.c ****         arc_dsc.opa = indic->opa > LV_OPA_MAX ? opa_main : (opa_main * indic->opa) >> 8;
 1032              		.loc 1 353 23 is_stmt 0 view .LVU332
 1033 00dc 238A     		ldrh	r3, [r4, #16]
 1034 00de ADF80231 		strh	r3, [sp, #258]	@ movhi
 354:Drivers/lvgl/src/extra/widgets/meter/lv_meter.c **** 
 1035              		.loc 1 354 9 is_stmt 1 view .LVU333
 354:Drivers/lvgl/src/extra/widgets/meter/lv_meter.c **** 
 1036              		.loc 1 354 28 is_stmt 0 view .LVU334
 1037 00e2 6379     		ldrb	r3, [r4, #5]	@ zero_extendqisi2
 354:Drivers/lvgl/src/extra/widgets/meter/lv_meter.c **** 
 1038              		.loc 1 354 21 view .LVU335
 1039 00e4 FD2B     		cmp	r3, #253
 354:Drivers/lvgl/src/extra/widgets/meter/lv_meter.c **** 
ARM GAS  /var/folders/lp/x54gwt890xv47sdkqj1k04q40000gn/T//ccVgM3G4.s 			page 46


 1040              		.loc 1 354 70 discriminator 1 view .LVU336
 1041 00e6 18FB03F3 		smulbb	r3, r8, r3
 354:Drivers/lvgl/src/extra/widgets/meter/lv_meter.c **** 
 1042              		.loc 1 354 21 discriminator 2 view .LVU337
 1043 00ea 4246     		mov	r2, r8
 354:Drivers/lvgl/src/extra/widgets/meter/lv_meter.c **** 
 1044              		.loc 1 354 21 discriminator 1 view .LVU338
 1045 00ec 98BF     		it	ls
 1046 00ee C3F30722 		ubfxls	r2, r3, #8, #8
 354:Drivers/lvgl/src/extra/widgets/meter/lv_meter.c **** 
 1047              		.loc 1 354 21 discriminator 4 view .LVU339
 1048 00f2 8DF80C21 		strb	r2, [sp, #268]
 356:Drivers/lvgl/src/extra/widgets/meter/lv_meter.c **** 
 1049              		.loc 1 356 9 is_stmt 1 view .LVU340
 356:Drivers/lvgl/src/extra/widgets/meter/lv_meter.c **** 
 1050              		.loc 1 356 28 is_stmt 0 view .LVU341
 1051 00f6 2568     		ldr	r5, [r4]
 1052              	.LVL102:
 358:Drivers/lvgl/src/extra/widgets/meter/lv_meter.c ****                                      scale->rotation + scale->angle_range);
 1053              		.loc 1 358 9 is_stmt 1 view .LVU342
 358:Drivers/lvgl/src/extra/widgets/meter/lv_meter.c ****                                      scale->rotation + scale->angle_range);
 1054              		.loc 1 358 31 is_stmt 0 view .LVU343
 1055 00f8 A068     		ldr	r0, [r4, #8]
 1056              	.LVL103:
 358:Drivers/lvgl/src/extra/widgets/meter/lv_meter.c ****                                      scale->rotation + scale->angle_range);
 1057              		.loc 1 358 31 view .LVU344
 1058 00fa B5F92030 		ldrsh	r3, [r5, #32]
 359:Drivers/lvgl/src/extra/widgets/meter/lv_meter.c ****         int32_t end_angle = lv_map(indic->end_value, scale->min, scale->max, scale->rotation,
 1059              		.loc 1 359 61 view .LVU345
 1060 00fe EE8B     		ldrh	r6, [r5, #30]
 359:Drivers/lvgl/src/extra/widgets/meter/lv_meter.c ****         int32_t end_angle = lv_map(indic->end_value, scale->min, scale->max, scale->rotation,
 1061              		.loc 1 359 54 view .LVU346
 1062 0100 1E44     		add	r6, r6, r3
 358:Drivers/lvgl/src/extra/widgets/meter/lv_meter.c ****                                      scale->rotation + scale->angle_range);
 1063              		.loc 1 358 31 view .LVU347
 1064 0102 D5E90512 		ldrd	r1, r2, [r5, #20]
 1065 0106 0096     		str	r6, [sp]
 1066 0108 FFF7FEFF 		bl	lv_map
 1067              	.LVL104:
 360:Drivers/lvgl/src/extra/widgets/meter/lv_meter.c ****                                    scale->rotation + scale->angle_range);
 1068              		.loc 1 360 29 view .LVU348
 1069 010c B5F92030 		ldrsh	r3, [r5, #32]
 361:Drivers/lvgl/src/extra/widgets/meter/lv_meter.c **** 
 1070              		.loc 1 361 59 view .LVU349
 1071 0110 B5F81EC0 		ldrh	ip, [r5, #30]
 361:Drivers/lvgl/src/extra/widgets/meter/lv_meter.c **** 
 1072              		.loc 1 361 52 view .LVU350
 1073 0114 9C44     		add	ip, ip, r3
 360:Drivers/lvgl/src/extra/widgets/meter/lv_meter.c ****                                    scale->rotation + scale->angle_range);
 1074              		.loc 1 360 29 view .LVU351
 1075 0116 D5E90512 		ldrd	r1, r2, [r5, #20]
 358:Drivers/lvgl/src/extra/widgets/meter/lv_meter.c ****                                      scale->rotation + scale->angle_range);
 1076              		.loc 1 358 31 view .LVU352
 1077 011a 0646     		mov	r6, r0
 1078              	.LVL105:
 360:Drivers/lvgl/src/extra/widgets/meter/lv_meter.c ****                                    scale->rotation + scale->angle_range);
 1079              		.loc 1 360 9 is_stmt 1 view .LVU353
ARM GAS  /var/folders/lp/x54gwt890xv47sdkqj1k04q40000gn/T//ccVgM3G4.s 			page 47


 360:Drivers/lvgl/src/extra/widgets/meter/lv_meter.c ****                                    scale->rotation + scale->angle_range);
 1080              		.loc 1 360 29 is_stmt 0 view .LVU354
 1081 011c E068     		ldr	r0, [r4, #12]
 1082              	.LVL106:
 360:Drivers/lvgl/src/extra/widgets/meter/lv_meter.c ****                                    scale->rotation + scale->angle_range);
 1083              		.loc 1 360 29 view .LVU355
 1084 011e CDF800C0 		str	ip, [sp]
 1085 0122 FFF7FEFF 		bl	lv_map
 1086              	.LVL107:
 363:Drivers/lvgl/src/extra/widgets/meter/lv_meter.c ****         arc_dsc.end_angle = end_angle;
 1087              		.loc 1 363 9 is_stmt 1 view .LVU356
 365:Drivers/lvgl/src/extra/widgets/meter/lv_meter.c ****         part_draw_dsc.sub_part_ptr = indic;
 1088              		.loc 1 365 38 is_stmt 0 view .LVU357
 1089 0126 638B     		ldrh	r3, [r4, #26]
 366:Drivers/lvgl/src/extra/widgets/meter/lv_meter.c ****         part_draw_dsc.p1 = &scale_center;
 1090              		.loc 1 366 36 view .LVU358
 1091 0128 5994     		str	r4, [sp, #356]
 364:Drivers/lvgl/src/extra/widgets/meter/lv_meter.c ****         part_draw_dsc.radius = r_out + indic->type_data.arc.r_mod;
 1092              		.loc 1 364 27 view .LVU359
 1093 012a 85B2     		uxth	r5, r0
 1094              	.LVL108:
 365:Drivers/lvgl/src/extra/widgets/meter/lv_meter.c ****         part_draw_dsc.sub_part_ptr = indic;
 1095              		.loc 1 365 38 view .LVU360
 1096 012c 5344     		add	r3, r3, r10
 363:Drivers/lvgl/src/extra/widgets/meter/lv_meter.c ****         arc_dsc.end_angle = end_angle;
 1097              		.loc 1 363 29 view .LVU361
 1098 012e B6B2     		uxth	r6, r6
 1099              	.LVL109:
 369:Drivers/lvgl/src/extra/widgets/meter/lv_meter.c ****         lv_draw_arc(draw_ctx, &arc_dsc, &scale_center, part_draw_dsc.radius, start_angle, end_angle
 1100              		.loc 1 369 9 view .LVU362
 1101 0130 48AA     		add	r2, sp, #288
 1102 0132 1A21     		movs	r1, #26
 1103 0134 4846     		mov	r0, r9
 1104              	.LVL110:
 365:Drivers/lvgl/src/extra/widgets/meter/lv_meter.c ****         part_draw_dsc.sub_part_ptr = indic;
 1105              		.loc 1 365 30 view .LVU363
 1106 0136 ADF85C31 		strh	r3, [sp, #348]	@ movhi
 363:Drivers/lvgl/src/extra/widgets/meter/lv_meter.c ****         arc_dsc.end_angle = end_angle;
 1107              		.loc 1 363 29 view .LVU364
 1108 013a ADF80461 		strh	r6, [sp, #260]	@ movhi
 364:Drivers/lvgl/src/extra/widgets/meter/lv_meter.c ****         part_draw_dsc.radius = r_out + indic->type_data.arc.r_mod;
 1109              		.loc 1 364 9 is_stmt 1 view .LVU365
 364:Drivers/lvgl/src/extra/widgets/meter/lv_meter.c ****         part_draw_dsc.radius = r_out + indic->type_data.arc.r_mod;
 1110              		.loc 1 364 27 is_stmt 0 view .LVU366
 1111 013e ADF80651 		strh	r5, [sp, #262]	@ movhi
 365:Drivers/lvgl/src/extra/widgets/meter/lv_meter.c ****         part_draw_dsc.sub_part_ptr = indic;
 1112              		.loc 1 365 9 is_stmt 1 view .LVU367
 366:Drivers/lvgl/src/extra/widgets/meter/lv_meter.c ****         part_draw_dsc.p1 = &scale_center;
 1113              		.loc 1 366 9 view .LVU368
 367:Drivers/lvgl/src/extra/widgets/meter/lv_meter.c **** 
 1114              		.loc 1 367 9 view .LVU369
 367:Drivers/lvgl/src/extra/widgets/meter/lv_meter.c **** 
 1115              		.loc 1 367 26 is_stmt 0 view .LVU370
 1116 0142 5197     		str	r7, [sp, #324]
 369:Drivers/lvgl/src/extra/widgets/meter/lv_meter.c ****         lv_draw_arc(draw_ctx, &arc_dsc, &scale_center, part_draw_dsc.radius, start_angle, end_angle
 1117              		.loc 1 369 9 is_stmt 1 view .LVU371
 1118 0144 FFF7FEFF 		bl	lv_event_send
ARM GAS  /var/folders/lp/x54gwt890xv47sdkqj1k04q40000gn/T//ccVgM3G4.s 			page 48


 1119              	.LVL111:
 370:Drivers/lvgl/src/extra/widgets/meter/lv_meter.c ****         lv_event_send(obj, LV_EVENT_DRAW_PART_END, &part_draw_dsc);
 1120              		.loc 1 370 9 view .LVU372
 1121 0148 0898     		ldr	r0, [sp, #32]
 1122 014a BDF85C31 		ldrh	r3, [sp, #348]
 1123 014e 3A46     		mov	r2, r7
 1124 0150 40A9     		add	r1, sp, #256
 1125 0152 CDE90065 		strd	r6, r5, [sp]
 1126 0156 FFF7FEFF 		bl	lv_draw_arc
 1127              	.LVL112:
 371:Drivers/lvgl/src/extra/widgets/meter/lv_meter.c ****     }
 1128              		.loc 1 371 9 view .LVU373
 1129 015a 48AA     		add	r2, sp, #288
 1130 015c 1B21     		movs	r1, #27
 1131 015e 4846     		mov	r0, r9
 1132 0160 FFF7FEFF 		bl	lv_event_send
 1133              	.LVL113:
 1134              	.L24:
 371:Drivers/lvgl/src/extra/widgets/meter/lv_meter.c ****     }
 1135              		.loc 1 371 9 is_stmt 0 view .LVU374
 1136              	.LBE151:
 349:Drivers/lvgl/src/extra/widgets/meter/lv_meter.c ****         if(indic->type != LV_METER_INDICATOR_TYPE_ARC) continue;
 1137              		.loc 1 349 5 is_stmt 1 discriminator 2 view .LVU375
 1138 0164 2146     		mov	r1, r4
 1139 0166 5846     		mov	r0, fp
 1140 0168 FFF7FEFF 		bl	_lv_ll_get_prev
 1141              	.LVL114:
 349:Drivers/lvgl/src/extra/widgets/meter/lv_meter.c ****         if(indic->type != LV_METER_INDICATOR_TYPE_ARC) continue;
 1142              		.loc 1 349 5 discriminator 1 view .LVU376
 1143 016c 0446     		mov	r4, r0
 1144 016e 0028     		cmp	r0, #0
 1145 0170 AED1     		bne	.L21
 1146              	.L26:
 1147              	.LVL115:
 349:Drivers/lvgl/src/extra/widgets/meter/lv_meter.c ****         if(indic->type != LV_METER_INDICATOR_TYPE_ARC) continue;
 1148              		.loc 1 349 5 is_stmt 0 discriminator 1 view .LVU377
 1149              	.LBE140:
 1150              	.LBE139:
 304:Drivers/lvgl/src/extra/widgets/meter/lv_meter.c ****         draw_needles(obj, draw_ctx, &scale_area);
 1151              		.loc 1 304 9 is_stmt 1 view .LVU378
 1152              	.LBB152:
 1153              	.LBI152:
 375:Drivers/lvgl/src/extra/widgets/meter/lv_meter.c **** {
 1154              		.loc 1 375 13 view .LVU379
 1155              	.LBB153:
 377:Drivers/lvgl/src/extra/widgets/meter/lv_meter.c **** 
 1156              		.loc 1 377 5 view .LVU380
 379:Drivers/lvgl/src/extra/widgets/meter/lv_meter.c ****     lv_coord_t r_edge = LV_MIN(lv_area_get_width(scale_area) / 2, lv_area_get_height(scale_area) / 
 1157              		.loc 1 379 5 view .LVU381
 380:Drivers/lvgl/src/extra/widgets/meter/lv_meter.c ****     p_center.x = scale_area->x1 + r_edge;
 1158              		.loc 1 380 5 view .LVU382
 1159              	.LBB154:
 1160              	.LBI154:
 123:Drivers/lvgl/src/extra/widgets/meter/../../../../src/hal/../draw/../misc/../font/../misc/lv_area.h **** {
 1161              		.loc 3 123 26 view .LVU383
 1162              	.LBB155:
 1163              		.loc 3 125 5 view .LVU384
ARM GAS  /var/folders/lp/x54gwt890xv47sdkqj1k04q40000gn/T//ccVgM3G4.s 			page 49


 1164              		.loc 3 125 49 is_stmt 0 view .LVU385
 1165 0172 BDF85800 		ldrh	r0, [sp, #88]
 1166              		.loc 3 125 44 view .LVU386
 1167 0176 BDF85410 		ldrh	r1, [sp, #84]
 1168              	.LVL116:
 1169              		.loc 3 125 44 view .LVU387
 1170              	.LBE155:
 1171              	.LBE154:
 1172              	.LBB157:
 1173              	.LBI157:
 126:Drivers/lvgl/src/extra/widgets/meter/../../../../src/hal/../draw/../misc/../font/../misc/lv_area.h **** }
 127:Drivers/lvgl/src/extra/widgets/meter/../../../../src/hal/../draw/../misc/../font/../misc/lv_area.h **** 
 128:Drivers/lvgl/src/extra/widgets/meter/../../../../src/hal/../draw/../misc/../font/../misc/lv_area.h **** /**
 129:Drivers/lvgl/src/extra/widgets/meter/../../../../src/hal/../draw/../misc/../font/../misc/lv_area.h ****  * Get the height of an area
 130:Drivers/lvgl/src/extra/widgets/meter/../../../../src/hal/../draw/../misc/../font/../misc/lv_area.h ****  * @param area_p pointer to an area
 131:Drivers/lvgl/src/extra/widgets/meter/../../../../src/hal/../draw/../misc/../font/../misc/lv_area.h ****  * @return the height of the area (if y1 == y2 -> height = 1)
 132:Drivers/lvgl/src/extra/widgets/meter/../../../../src/hal/../draw/../misc/../font/../misc/lv_area.h ****  */
 133:Drivers/lvgl/src/extra/widgets/meter/../../../../src/hal/../draw/../misc/../font/../misc/lv_area.h **** static inline lv_coord_t lv_area_get_height(const lv_area_t * area_p)
 1174              		.loc 3 133 26 is_stmt 1 view .LVU388
 1175              	.LBB158:
 134:Drivers/lvgl/src/extra/widgets/meter/../../../../src/hal/../draw/../misc/../font/../misc/lv_area.h **** {
 135:Drivers/lvgl/src/extra/widgets/meter/../../../../src/hal/../draw/../misc/../font/../misc/lv_area.h ****     return (lv_coord_t)(area_p->y2 - area_p->y1 + 1);
 1176              		.loc 3 135 5 view .LVU389
 1177              		.loc 3 135 49 is_stmt 0 view .LVU390
 1178 017a BDF85A30 		ldrh	r3, [sp, #90]
 1179              		.loc 3 135 44 view .LVU391
 1180 017e BDF85620 		ldrh	r2, [sp, #86]
 1181              	.LVL117:
 1182              		.loc 3 135 44 view .LVU392
 1183              	.LBE158:
 1184              	.LBE157:
 1185              	.LBB160:
 1186              	.LBB156:
 125:Drivers/lvgl/src/extra/widgets/meter/../../../../src/hal/../draw/../misc/../font/../misc/lv_area.h **** }
 1187              		.loc 3 125 49 view .LVU393
 1188 0182 0130     		adds	r0, r0, #1
 1189 0184 401A     		subs	r0, r0, r1
 1190              	.LBE156:
 1191              	.LBE160:
 1192              	.LBB161:
 1193              	.LBB159:
 1194              		.loc 3 135 49 view .LVU394
 1195 0186 0133     		adds	r3, r3, #1
 1196 0188 9B1A     		subs	r3, r3, r2
 1197              	.LBE159:
 1198              	.LBE161:
 380:Drivers/lvgl/src/extra/widgets/meter/lv_meter.c ****     p_center.x = scale_area->x1 + r_edge;
 1199              		.loc 1 380 25 discriminator 1 view .LVU395
 1200 018a C0F3C034 		ubfx	r4, r0, #15, #1
 1201 018e 04FA80F4 		sxtah	r4, r4, r0
 380:Drivers/lvgl/src/extra/widgets/meter/lv_meter.c ****     p_center.x = scale_area->x1 + r_edge;
 1202              		.loc 1 380 25 discriminator 2 view .LVU396
 1203 0192 C3F3C030 		ubfx	r0, r3, #15, #1
 1204 0196 00FA83F3 		sxtah	r3, r0, r3
 380:Drivers/lvgl/src/extra/widgets/meter/lv_meter.c ****     p_center.x = scale_area->x1 + r_edge;
 1205              		.loc 1 380 16 discriminator 2 view .LVU397
 1206 019a 6410     		asrs	r4, r4, #1
ARM GAS  /var/folders/lp/x54gwt890xv47sdkqj1k04q40000gn/T//ccVgM3G4.s 			page 50


 1207 019c 5B10     		asrs	r3, r3, #1
 1208 019e 9C42     		cmp	r4, r3
 1209 01a0 A8BF     		it	ge
 1210 01a2 1C46     		movge	r4, r3
 1211              	.LVL118:
 381:Drivers/lvgl/src/extra/widgets/meter/lv_meter.c ****     p_center.y = scale_area->y1 + r_edge;
 1212              		.loc 1 381 5 is_stmt 1 view .LVU398
 381:Drivers/lvgl/src/extra/widgets/meter/lv_meter.c ****     p_center.y = scale_area->y1 + r_edge;
 1213              		.loc 1 381 33 is_stmt 0 view .LVU399
 1214 01a4 A3B2     		uxth	r3, r4
 1215 01a6 1944     		add	r1, r1, r3
 382:Drivers/lvgl/src/extra/widgets/meter/lv_meter.c **** 
 1216              		.loc 1 382 33 view .LVU400
 1217 01a8 1A44     		add	r2, r2, r3
 385:Drivers/lvgl/src/extra/widgets/meter/lv_meter.c ****     lv_obj_init_draw_line_dsc(obj, LV_PART_TICKS, &line_dsc);
 1218              		.loc 1 385 5 view .LVU401
 1219 01aa 1FA8     		add	r0, sp, #124
 381:Drivers/lvgl/src/extra/widgets/meter/lv_meter.c ****     p_center.y = scale_area->y1 + r_edge;
 1220              		.loc 1 381 33 view .LVU402
 1221 01ac 0A93     		str	r3, [sp, #40]
 381:Drivers/lvgl/src/extra/widgets/meter/lv_meter.c ****     p_center.y = scale_area->y1 + r_edge;
 1222              		.loc 1 381 16 view .LVU403
 1223 01ae ADF84410 		strh	r1, [sp, #68]	@ movhi
 382:Drivers/lvgl/src/extra/widgets/meter/lv_meter.c **** 
 1224              		.loc 1 382 5 is_stmt 1 view .LVU404
 382:Drivers/lvgl/src/extra/widgets/meter/lv_meter.c **** 
 1225              		.loc 1 382 16 is_stmt 0 view .LVU405
 1226 01b2 ADF84620 		strh	r2, [sp, #70]	@ movhi
 384:Drivers/lvgl/src/extra/widgets/meter/lv_meter.c ****     lv_draw_line_dsc_init(&line_dsc);
 1227              		.loc 1 384 5 is_stmt 1 view .LVU406
 385:Drivers/lvgl/src/extra/widgets/meter/lv_meter.c ****     lv_obj_init_draw_line_dsc(obj, LV_PART_TICKS, &line_dsc);
 1228              		.loc 1 385 5 view .LVU407
 1229 01b6 FFF7FEFF 		bl	lv_draw_line_dsc_init
 1230              	.LVL119:
 386:Drivers/lvgl/src/extra/widgets/meter/lv_meter.c ****     line_dsc.raw_end = 1;
 1231              		.loc 1 386 5 view .LVU408
 1232 01ba 079D     		ldr	r5, [sp, #28]
 1233 01bc 1FAA     		add	r2, sp, #124
 1234 01be 4FF4C021 		mov	r1, #393216
 1235 01c2 2846     		mov	r0, r5
 1236 01c4 FFF7FEFF 		bl	lv_obj_init_draw_line_dsc
 1237              	.LVL120:
 387:Drivers/lvgl/src/extra/widgets/meter/lv_meter.c **** 
 1238              		.loc 1 387 5 view .LVU409
 387:Drivers/lvgl/src/extra/widgets/meter/lv_meter.c **** 
 1239              		.loc 1 387 22 is_stmt 0 view .LVU410
 1240 01c8 9DF88530 		ldrb	r3, [sp, #133]	@ zero_extendqisi2
 390:Drivers/lvgl/src/extra/widgets/meter/lv_meter.c ****     lv_obj_init_draw_label_dsc(obj, LV_PART_TICKS, &label_dsc);
 1241              		.loc 1 390 5 view .LVU411
 1242 01cc 099E     		ldr	r6, [sp, #36]
 387:Drivers/lvgl/src/extra/widgets/meter/lv_meter.c **** 
 1243              		.loc 1 387 22 view .LVU412
 1244 01ce 43F01003 		orr	r3, r3, #16
 390:Drivers/lvgl/src/extra/widgets/meter/lv_meter.c ****     lv_obj_init_draw_label_dsc(obj, LV_PART_TICKS, &label_dsc);
 1245              		.loc 1 390 5 view .LVU413
 1246 01d2 3046     		mov	r0, r6
 387:Drivers/lvgl/src/extra/widgets/meter/lv_meter.c **** 
ARM GAS  /var/folders/lp/x54gwt890xv47sdkqj1k04q40000gn/T//ccVgM3G4.s 			page 51


 1247              		.loc 1 387 22 view .LVU414
 1248 01d4 8DF88530 		strb	r3, [sp, #133]
 389:Drivers/lvgl/src/extra/widgets/meter/lv_meter.c ****     lv_draw_label_dsc_init(&label_dsc);
 1249              		.loc 1 389 5 is_stmt 1 view .LVU415
 390:Drivers/lvgl/src/extra/widgets/meter/lv_meter.c ****     lv_obj_init_draw_label_dsc(obj, LV_PART_TICKS, &label_dsc);
 1250              		.loc 1 390 5 view .LVU416
 1251 01d8 FFF7FEFF 		bl	lv_draw_label_dsc_init
 1252              	.LVL121:
 391:Drivers/lvgl/src/extra/widgets/meter/lv_meter.c **** 
 1253              		.loc 1 391 5 view .LVU417
 1254 01dc 3246     		mov	r2, r6
 1255 01de 4FF4C021 		mov	r1, #393216
 1256 01e2 2846     		mov	r0, r5
 1257 01e4 FFF7FEFF 		bl	lv_obj_init_draw_label_dsc
 1258              	.LVL122:
 393:Drivers/lvgl/src/extra/widgets/meter/lv_meter.c **** 
 1259              		.loc 1 393 5 view .LVU418
 395:Drivers/lvgl/src/extra/widgets/meter/lv_meter.c ****     lv_draw_mask_radius_param_t inner_major_mask;
 1260              		.loc 1 395 5 view .LVU419
 396:Drivers/lvgl/src/extra/widgets/meter/lv_meter.c ****     lv_draw_mask_radius_param_t outer_mask;
 1261              		.loc 1 396 5 view .LVU420
 397:Drivers/lvgl/src/extra/widgets/meter/lv_meter.c **** 
 1262              		.loc 1 397 5 view .LVU421
 399:Drivers/lvgl/src/extra/widgets/meter/lv_meter.c ****     lv_obj_draw_dsc_init(&part_draw_dsc, draw_ctx);
 1263              		.loc 1 399 5 view .LVU422
 400:Drivers/lvgl/src/extra/widgets/meter/lv_meter.c ****     part_draw_dsc.class_p = MY_CLASS;
 1264              		.loc 1 400 5 view .LVU423
 1265 01e8 48A8     		add	r0, sp, #288
 1266 01ea 0899     		ldr	r1, [sp, #32]
 1267 01ec FFF7FEFF 		bl	lv_obj_draw_dsc_init
 1268              	.LVL123:
 401:Drivers/lvgl/src/extra/widgets/meter/lv_meter.c ****     part_draw_dsc.part = LV_PART_TICKS;
 1269              		.loc 1 401 5 view .LVU424
 401:Drivers/lvgl/src/extra/widgets/meter/lv_meter.c ****     part_draw_dsc.part = LV_PART_TICKS;
 1270              		.loc 1 401 27 is_stmt 0 view .LVU425
 1271 01f0 524B     		ldr	r3, .L71
 1272 01f2 4993     		str	r3, [sp, #292]
 402:Drivers/lvgl/src/extra/widgets/meter/lv_meter.c ****     part_draw_dsc.type = LV_METER_DRAW_PART_TICK;
 1273              		.loc 1 402 5 is_stmt 1 view .LVU426
 404:Drivers/lvgl/src/extra/widgets/meter/lv_meter.c **** 
 1274              		.loc 1 404 28 is_stmt 0 view .LVU427
 1275 01f4 1FAB     		add	r3, sp, #124
 1276 01f6 4E93     		str	r3, [sp, #312]
 406:Drivers/lvgl/src/extra/widgets/meter/lv_meter.c ****         part_draw_dsc.sub_part_ptr = scale;
 1277              		.loc 1 406 5 view .LVU428
 1278 01f8 05F12409 		add	r9, r5, #36
 402:Drivers/lvgl/src/extra/widgets/meter/lv_meter.c ****     part_draw_dsc.type = LV_METER_DRAW_PART_TICK;
 1279              		.loc 1 402 24 view .LVU429
 1280 01fc 4FF4C023 		mov	r3, #393216
 1281 0200 5593     		str	r3, [sp, #340]
 403:Drivers/lvgl/src/extra/widgets/meter/lv_meter.c ****     part_draw_dsc.line_dsc = &line_dsc;
 1282              		.loc 1 403 5 is_stmt 1 view .LVU430
 406:Drivers/lvgl/src/extra/widgets/meter/lv_meter.c ****         part_draw_dsc.sub_part_ptr = scale;
 1283              		.loc 1 406 5 is_stmt 0 view .LVU431
 1284 0202 4846     		mov	r0, r9
 403:Drivers/lvgl/src/extra/widgets/meter/lv_meter.c ****     part_draw_dsc.line_dsc = &line_dsc;
 1285              		.loc 1 403 24 view .LVU432
ARM GAS  /var/folders/lp/x54gwt890xv47sdkqj1k04q40000gn/T//ccVgM3G4.s 			page 52


 1286 0204 0323     		movs	r3, #3
 1287 0206 4A93     		str	r3, [sp, #296]
 404:Drivers/lvgl/src/extra/widgets/meter/lv_meter.c **** 
 1288              		.loc 1 404 5 is_stmt 1 view .LVU433
 406:Drivers/lvgl/src/extra/widgets/meter/lv_meter.c ****         part_draw_dsc.sub_part_ptr = scale;
 1289              		.loc 1 406 5 view .LVU434
 1290 0208 FFF7FEFF 		bl	_lv_ll_get_tail
 1291              	.LVL124:
 406:Drivers/lvgl/src/extra/widgets/meter/lv_meter.c ****         part_draw_dsc.sub_part_ptr = scale;
 1292              		.loc 1 406 5 discriminator 1 view .LVU435
 1293 020c 0028     		cmp	r0, #0
 1294 020e 00F03A83 		beq	.L67
 1295              	.LBB162:
 1296              	.LBB163:
 486:Drivers/lvgl/src/extra/widgets/meter/lv_meter.c ****             p_outer.y = p_center.y;
 1297              		.loc 1 486 46 is_stmt 0 view .LVU436
 1298 0212 822C     		cmp	r4, #130
 1299 0214 B8BF     		it	lt
 1300 0216 8224     		movlt	r4, #130
 1301              	.LVL125:
 486:Drivers/lvgl/src/extra/widgets/meter/lv_meter.c ****             p_outer.y = p_center.y;
 1302              		.loc 1 486 46 view .LVU437
 1303 0218 A3B2     		uxth	r3, r4
 1304 021a 0C93     		str	r3, [sp, #48]
 1305 021c 26AB     		add	r3, sp, #152
 1306 021e 0D93     		str	r3, [sp, #52]
 1307 0220 CDF83C90 		str	r9, [sp, #60]
 1308 0224 0646     		mov	r6, r0
 1309              	.L22:
 486:Drivers/lvgl/src/extra/widgets/meter/lv_meter.c ****             p_outer.y = p_center.y;
 1310              		.loc 1 486 46 view .LVU438
 1311              	.LBE163:
 407:Drivers/lvgl/src/extra/widgets/meter/lv_meter.c **** 
 1312              		.loc 1 407 9 is_stmt 1 view .LVU439
 410:Drivers/lvgl/src/extra/widgets/meter/lv_meter.c ****         lv_coord_t r_in_major = r_out - scale->tick_major_length;
 1313              		.loc 1 410 46 is_stmt 0 view .LVU440
 1314 0226 B388     		ldrh	r3, [r6, #4]
 410:Drivers/lvgl/src/extra/widgets/meter/lv_meter.c ****         lv_coord_t r_in_major = r_out - scale->tick_major_length;
 1315              		.loc 1 410 39 view .LVU441
 1316 0228 0A9F     		ldr	r7, [sp, #40]
 415:Drivers/lvgl/src/extra/widgets/meter/lv_meter.c ****         area_inner_minor.x2 = p_center.x + r_in_minor;
 1317              		.loc 1 415 39 view .LVU442
 1318 022a BDF84610 		ldrh	r1, [sp, #70]
 411:Drivers/lvgl/src/extra/widgets/meter/lv_meter.c **** 
 1319              		.loc 1 411 46 view .LVU443
 1320 022e B489     		ldrh	r4, [r6, #12]
 414:Drivers/lvgl/src/extra/widgets/meter/lv_meter.c ****         area_inner_minor.y1 = p_center.y - r_in_minor;
 1321              		.loc 1 414 39 view .LVU444
 1322 0230 BDF84420 		ldrh	r2, [sp, #68]
 407:Drivers/lvgl/src/extra/widgets/meter/lv_meter.c **** 
 1323              		.loc 1 407 36 view .LVU445
 1324 0234 5996     		str	r6, [sp, #356]
 409:Drivers/lvgl/src/extra/widgets/meter/lv_meter.c ****         lv_coord_t r_in_minor = r_out - scale->tick_length;
 1325              		.loc 1 409 9 is_stmt 1 view .LVU446
 410:Drivers/lvgl/src/extra/widgets/meter/lv_meter.c ****         lv_coord_t r_in_major = r_out - scale->tick_major_length;
 1326              		.loc 1 410 9 view .LVU447
 410:Drivers/lvgl/src/extra/widgets/meter/lv_meter.c ****         lv_coord_t r_in_major = r_out - scale->tick_major_length;
ARM GAS  /var/folders/lp/x54gwt890xv47sdkqj1k04q40000gn/T//ccVgM3G4.s 			page 53


 1327              		.loc 1 410 39 is_stmt 0 view .LVU448
 1328 0236 F81A     		subs	r0, r7, r3
 1329              	.LVL126:
 410:Drivers/lvgl/src/extra/widgets/meter/lv_meter.c ****         lv_coord_t r_in_major = r_out - scale->tick_major_length;
 1330              		.loc 1 410 39 view .LVU449
 1331 0238 DB1B     		subs	r3, r3, r7
 1332 023a 80B2     		uxth	r0, r0
 1333              	.LVL127:
 411:Drivers/lvgl/src/extra/widgets/meter/lv_meter.c **** 
 1334              		.loc 1 411 9 is_stmt 1 view .LVU450
 1335 023c 9BB2     		uxth	r3, r3
 411:Drivers/lvgl/src/extra/widgets/meter/lv_meter.c **** 
 1336              		.loc 1 411 39 is_stmt 0 view .LVU451
 1337 023e 3F1B     		subs	r7, r7, r4
 414:Drivers/lvgl/src/extra/widgets/meter/lv_meter.c ****         area_inner_minor.y1 = p_center.y - r_in_minor;
 1338              		.loc 1 414 42 view .LVU452
 1339 0240 D518     		adds	r5, r2, r3
 415:Drivers/lvgl/src/extra/widgets/meter/lv_meter.c ****         area_inner_minor.x2 = p_center.x + r_in_minor;
 1340              		.loc 1 415 42 view .LVU453
 1341 0242 0B44     		add	r3, r3, r1
 416:Drivers/lvgl/src/extra/widgets/meter/lv_meter.c ****         area_inner_minor.y2 = p_center.y + r_in_minor;
 1342              		.loc 1 416 42 view .LVU454
 1343 0244 0244     		add	r2, r2, r0
 417:Drivers/lvgl/src/extra/widgets/meter/lv_meter.c ****         lv_draw_mask_radius_init(&inner_minor_mask, &area_inner_minor, LV_RADIUS_CIRCLE, true);
 1344              		.loc 1 417 42 view .LVU455
 1345 0246 0844     		add	r0, r0, r1
 1346              	.LVL128:
 411:Drivers/lvgl/src/extra/widgets/meter/lv_meter.c **** 
 1347              		.loc 1 411 20 view .LVU456
 1348 0248 0FFA87FC 		sxth	ip, r7
 415:Drivers/lvgl/src/extra/widgets/meter/lv_meter.c ****         area_inner_minor.x2 = p_center.x + r_in_minor;
 1349              		.loc 1 415 29 view .LVU457
 1350 024c ADF85E30 		strh	r3, [sp, #94]	@ movhi
 416:Drivers/lvgl/src/extra/widgets/meter/lv_meter.c ****         area_inner_minor.y2 = p_center.y + r_in_minor;
 1351              		.loc 1 416 29 view .LVU458
 1352 0250 ADF86020 		strh	r2, [sp, #96]	@ movhi
 417:Drivers/lvgl/src/extra/widgets/meter/lv_meter.c ****         lv_draw_mask_radius_init(&inner_minor_mask, &area_inner_minor, LV_RADIUS_CIRCLE, true);
 1353              		.loc 1 417 29 view .LVU459
 1354 0254 ADF86200 		strh	r0, [sp, #98]	@ movhi
 418:Drivers/lvgl/src/extra/widgets/meter/lv_meter.c **** 
 1355              		.loc 1 418 9 view .LVU460
 1356 0258 0123     		movs	r3, #1
 1357 025a 0D98     		ldr	r0, [sp, #52]
 411:Drivers/lvgl/src/extra/widgets/meter/lv_meter.c **** 
 1358              		.loc 1 411 20 view .LVU461
 1359 025c CDF838C0 		str	ip, [sp, #56]
 1360              	.LVL129:
 413:Drivers/lvgl/src/extra/widgets/meter/lv_meter.c ****         area_inner_minor.x1 = p_center.x - r_in_minor;
 1361              		.loc 1 413 9 is_stmt 1 view .LVU462
 414:Drivers/lvgl/src/extra/widgets/meter/lv_meter.c ****         area_inner_minor.y1 = p_center.y - r_in_minor;
 1362              		.loc 1 414 9 view .LVU463
 415:Drivers/lvgl/src/extra/widgets/meter/lv_meter.c ****         area_inner_minor.x2 = p_center.x + r_in_minor;
 1363              		.loc 1 415 9 view .LVU464
 416:Drivers/lvgl/src/extra/widgets/meter/lv_meter.c ****         area_inner_minor.y2 = p_center.y + r_in_minor;
 1364              		.loc 1 416 9 view .LVU465
 417:Drivers/lvgl/src/extra/widgets/meter/lv_meter.c ****         lv_draw_mask_radius_init(&inner_minor_mask, &area_inner_minor, LV_RADIUS_CIRCLE, true);
 1365              		.loc 1 417 9 view .LVU466
ARM GAS  /var/folders/lp/x54gwt890xv47sdkqj1k04q40000gn/T//ccVgM3G4.s 			page 54


 418:Drivers/lvgl/src/extra/widgets/meter/lv_meter.c **** 
 1366              		.loc 1 418 9 view .LVU467
 1367 0260 47F6FF72 		movw	r2, #32767
 1368 0264 17A9     		add	r1, sp, #92
 414:Drivers/lvgl/src/extra/widgets/meter/lv_meter.c ****         area_inner_minor.y1 = p_center.y - r_in_minor;
 1369              		.loc 1 414 29 is_stmt 0 view .LVU468
 1370 0266 ADF85C50 		strh	r5, [sp, #92]	@ movhi
 418:Drivers/lvgl/src/extra/widgets/meter/lv_meter.c **** 
 1371              		.loc 1 418 9 view .LVU469
 1372 026a FFF7FEFF 		bl	lv_draw_mask_radius_init
 1373              	.LVL130:
 420:Drivers/lvgl/src/extra/widgets/meter/lv_meter.c ****         area_inner_major.x1 = p_center.x - r_in_major;
 1374              		.loc 1 420 9 is_stmt 1 view .LVU470
 421:Drivers/lvgl/src/extra/widgets/meter/lv_meter.c ****         area_inner_major.y1 = p_center.y - r_in_major;
 1375              		.loc 1 421 9 view .LVU471
 411:Drivers/lvgl/src/extra/widgets/meter/lv_meter.c **** 
 1376              		.loc 1 411 39 is_stmt 0 view .LVU472
 1377 026e BDB2     		uxth	r5, r7
 1378 0270 0A9F     		ldr	r7, [sp, #40]
 421:Drivers/lvgl/src/extra/widgets/meter/lv_meter.c ****         area_inner_major.y1 = p_center.y - r_in_major;
 1379              		.loc 1 421 39 view .LVU473
 1380 0272 BDF84410 		ldrh	r1, [sp, #68]
 422:Drivers/lvgl/src/extra/widgets/meter/lv_meter.c ****         area_inner_major.x2 = p_center.x + r_in_major - 1;
 1381              		.loc 1 422 39 view .LVU474
 1382 0276 BDF84620 		ldrh	r2, [sp, #70]
 1383 027a E31B     		subs	r3, r4, r7
 1384 027c 9BB2     		uxth	r3, r3
 423:Drivers/lvgl/src/extra/widgets/meter/lv_meter.c ****         area_inner_major.y2 = p_center.y + r_in_major - 1;
 1385              		.loc 1 423 55 view .LVU475
 1386 027e 481E     		subs	r0, r1, #1
 1387 0280 2844     		add	r0, r0, r5
 421:Drivers/lvgl/src/extra/widgets/meter/lv_meter.c ****         area_inner_major.y1 = p_center.y - r_in_major;
 1388              		.loc 1 421 42 view .LVU476
 1389 0282 1944     		add	r1, r1, r3
 422:Drivers/lvgl/src/extra/widgets/meter/lv_meter.c ****         area_inner_major.x2 = p_center.x + r_in_major - 1;
 1390              		.loc 1 422 42 view .LVU477
 1391 0284 1344     		add	r3, r3, r2
 424:Drivers/lvgl/src/extra/widgets/meter/lv_meter.c ****         lv_draw_mask_radius_init(&inner_major_mask, &area_inner_major, LV_RADIUS_CIRCLE, true);
 1392              		.loc 1 424 55 view .LVU478
 1393 0286 013A     		subs	r2, r2, #1
 421:Drivers/lvgl/src/extra/widgets/meter/lv_meter.c ****         area_inner_major.y1 = p_center.y - r_in_major;
 1394              		.loc 1 421 29 view .LVU479
 1395 0288 ADF86410 		strh	r1, [sp, #100]	@ movhi
 422:Drivers/lvgl/src/extra/widgets/meter/lv_meter.c ****         area_inner_major.x2 = p_center.x + r_in_major - 1;
 1396              		.loc 1 422 9 is_stmt 1 view .LVU480
 422:Drivers/lvgl/src/extra/widgets/meter/lv_meter.c ****         area_inner_major.x2 = p_center.x + r_in_major - 1;
 1397              		.loc 1 422 29 is_stmt 0 view .LVU481
 1398 028c ADF86630 		strh	r3, [sp, #102]	@ movhi
 423:Drivers/lvgl/src/extra/widgets/meter/lv_meter.c ****         area_inner_major.y2 = p_center.y + r_in_major - 1;
 1399              		.loc 1 423 9 is_stmt 1 view .LVU482
 424:Drivers/lvgl/src/extra/widgets/meter/lv_meter.c ****         lv_draw_mask_radius_init(&inner_major_mask, &area_inner_major, LV_RADIUS_CIRCLE, true);
 1400              		.loc 1 424 55 is_stmt 0 view .LVU483
 1401 0290 1544     		add	r5, r5, r2
 423:Drivers/lvgl/src/extra/widgets/meter/lv_meter.c ****         area_inner_major.y2 = p_center.y + r_in_major - 1;
 1402              		.loc 1 423 29 view .LVU484
 1403 0292 ADF86800 		strh	r0, [sp, #104]	@ movhi
 424:Drivers/lvgl/src/extra/widgets/meter/lv_meter.c ****         lv_draw_mask_radius_init(&inner_major_mask, &area_inner_major, LV_RADIUS_CIRCLE, true);
ARM GAS  /var/folders/lp/x54gwt890xv47sdkqj1k04q40000gn/T//ccVgM3G4.s 			page 55


 1404              		.loc 1 424 9 is_stmt 1 view .LVU485
 425:Drivers/lvgl/src/extra/widgets/meter/lv_meter.c **** 
 1405              		.loc 1 425 9 is_stmt 0 view .LVU486
 1406 0296 0123     		movs	r3, #1
 1407 0298 47F6FF72 		movw	r2, #32767
 1408 029c 19A9     		add	r1, sp, #100
 1409 029e 2CA8     		add	r0, sp, #176
 424:Drivers/lvgl/src/extra/widgets/meter/lv_meter.c ****         lv_draw_mask_radius_init(&inner_major_mask, &area_inner_major, LV_RADIUS_CIRCLE, true);
 1410              		.loc 1 424 29 view .LVU487
 1411 02a0 ADF86A50 		strh	r5, [sp, #106]	@ movhi
 425:Drivers/lvgl/src/extra/widgets/meter/lv_meter.c **** 
 1412              		.loc 1 425 9 is_stmt 1 view .LVU488
 1413 02a4 FFF7FEFF 		bl	lv_draw_mask_radius_init
 1414              	.LVL131:
 427:Drivers/lvgl/src/extra/widgets/meter/lv_meter.c ****         area_outer.x1 = p_center.x - r_out;
 1415              		.loc 1 427 9 view .LVU489
 428:Drivers/lvgl/src/extra/widgets/meter/lv_meter.c ****         area_outer.y1 = p_center.y - r_out;
 1416              		.loc 1 428 9 view .LVU490
 428:Drivers/lvgl/src/extra/widgets/meter/lv_meter.c ****         area_outer.y1 = p_center.y - r_out;
 1417              		.loc 1 428 33 is_stmt 0 view .LVU491
 1418 02a8 BDF84400 		ldrh	r0, [sp, #68]
 429:Drivers/lvgl/src/extra/widgets/meter/lv_meter.c ****         area_outer.x2 = p_center.x + r_out - 1;
 1419              		.loc 1 429 33 view .LVU492
 1420 02ac BDF84610 		ldrh	r1, [sp, #70]
 430:Drivers/lvgl/src/extra/widgets/meter/lv_meter.c ****         area_outer.y2 = p_center.y + r_out - 1;
 1421              		.loc 1 430 44 view .LVU493
 1422 02b0 441E     		subs	r4, r0, #1
 428:Drivers/lvgl/src/extra/widgets/meter/lv_meter.c ****         area_outer.y1 = p_center.y - r_out;
 1423              		.loc 1 428 36 view .LVU494
 1424 02b2 C01B     		subs	r0, r0, r7
 428:Drivers/lvgl/src/extra/widgets/meter/lv_meter.c ****         area_outer.y1 = p_center.y - r_out;
 1425              		.loc 1 428 23 view .LVU495
 1426 02b4 ADF86C00 		strh	r0, [sp, #108]	@ movhi
 429:Drivers/lvgl/src/extra/widgets/meter/lv_meter.c ****         area_outer.x2 = p_center.x + r_out - 1;
 1427              		.loc 1 429 9 is_stmt 1 view .LVU496
 430:Drivers/lvgl/src/extra/widgets/meter/lv_meter.c ****         area_outer.y2 = p_center.y + r_out - 1;
 1428              		.loc 1 430 44 is_stmt 0 view .LVU497
 1429 02b8 3819     		adds	r0, r7, r4
 430:Drivers/lvgl/src/extra/widgets/meter/lv_meter.c ****         area_outer.y2 = p_center.y + r_out - 1;
 1430              		.loc 1 430 23 view .LVU498
 1431 02ba ADF87000 		strh	r0, [sp, #112]	@ movhi
 431:Drivers/lvgl/src/extra/widgets/meter/lv_meter.c ****         lv_draw_mask_radius_init(&outer_mask, &area_outer, LV_RADIUS_CIRCLE, false);
 1432              		.loc 1 431 44 view .LVU499
 1433 02be 481E     		subs	r0, r1, #1
 429:Drivers/lvgl/src/extra/widgets/meter/lv_meter.c ****         area_outer.x2 = p_center.x + r_out - 1;
 1434              		.loc 1 429 36 view .LVU500
 1435 02c0 C91B     		subs	r1, r1, r7
 429:Drivers/lvgl/src/extra/widgets/meter/lv_meter.c ****         area_outer.x2 = p_center.x + r_out - 1;
 1436              		.loc 1 429 23 view .LVU501
 1437 02c2 ADF86E10 		strh	r1, [sp, #110]	@ movhi
 430:Drivers/lvgl/src/extra/widgets/meter/lv_meter.c ****         area_outer.y2 = p_center.y + r_out - 1;
 1438              		.loc 1 430 9 is_stmt 1 view .LVU502
 431:Drivers/lvgl/src/extra/widgets/meter/lv_meter.c ****         lv_draw_mask_radius_init(&outer_mask, &area_outer, LV_RADIUS_CIRCLE, false);
 1439              		.loc 1 431 9 view .LVU503
 431:Drivers/lvgl/src/extra/widgets/meter/lv_meter.c ****         lv_draw_mask_radius_init(&outer_mask, &area_outer, LV_RADIUS_CIRCLE, false);
 1440              		.loc 1 431 44 is_stmt 0 view .LVU504
 1441 02c6 3918     		adds	r1, r7, r0
ARM GAS  /var/folders/lp/x54gwt890xv47sdkqj1k04q40000gn/T//ccVgM3G4.s 			page 56


 432:Drivers/lvgl/src/extra/widgets/meter/lv_meter.c ****         int16_t outer_mask_id = lv_draw_mask_add(&outer_mask, NULL);
 1442              		.loc 1 432 9 view .LVU505
 1443 02c8 0023     		movs	r3, #0
 1444 02ca 47F6FF72 		movw	r2, #32767
 431:Drivers/lvgl/src/extra/widgets/meter/lv_meter.c ****         lv_draw_mask_radius_init(&outer_mask, &area_outer, LV_RADIUS_CIRCLE, false);
 1445              		.loc 1 431 23 view .LVU506
 1446 02ce ADF87210 		strh	r1, [sp, #114]	@ movhi
 432:Drivers/lvgl/src/extra/widgets/meter/lv_meter.c ****         int16_t outer_mask_id = lv_draw_mask_add(&outer_mask, NULL);
 1447              		.loc 1 432 9 is_stmt 1 view .LVU507
 1448 02d2 32A8     		add	r0, sp, #200
 1449 02d4 1BA9     		add	r1, sp, #108
 1450 02d6 FFF7FEFF 		bl	lv_draw_mask_radius_init
 1451              	.LVL132:
 433:Drivers/lvgl/src/extra/widgets/meter/lv_meter.c **** 
 1452              		.loc 1 433 9 view .LVU508
 433:Drivers/lvgl/src/extra/widgets/meter/lv_meter.c **** 
 1453              		.loc 1 433 33 is_stmt 0 view .LVU509
 1454 02da 0021     		movs	r1, #0
 1455 02dc 32A8     		add	r0, sp, #200
 1456 02de FFF7FEFF 		bl	lv_draw_mask_add
 1457              	.LVL133:
 437:Drivers/lvgl/src/extra/widgets/meter/lv_meter.c ****         uint16_t i;
 1458              		.loc 1 437 35 view .LVU510
 1459 02e2 7189     		ldrh	r1, [r6, #10]
 433:Drivers/lvgl/src/extra/widgets/meter/lv_meter.c **** 
 1460              		.loc 1 433 33 view .LVU511
 1461 02e4 0B90     		str	r0, [sp, #44]
 1462              	.LVL134:
 435:Drivers/lvgl/src/extra/widgets/meter/lv_meter.c **** 
 1463              		.loc 1 435 9 is_stmt 1 view .LVU512
 437:Drivers/lvgl/src/extra/widgets/meter/lv_meter.c ****         uint16_t i;
 1464              		.loc 1 437 9 view .LVU513
 437:Drivers/lvgl/src/extra/widgets/meter/lv_meter.c ****         uint16_t i;
 1465              		.loc 1 437 80 is_stmt 0 view .LVU514
 1466 02e6 0029     		cmp	r1, #0
 1467 02e8 00F08382 		beq	.L49
 437:Drivers/lvgl/src/extra/widgets/meter/lv_meter.c ****         uint16_t i;
 1468              		.loc 1 437 76 discriminator 1 view .LVU515
 1469 02ec 01F1FF38 		add	r8, r1, #-1
 1470              	.L29:
 1471              	.LVL135:
 439:Drivers/lvgl/src/extra/widgets/meter/lv_meter.c ****             minor_cnt++;
 1472              		.loc 1 439 22 is_stmt 1 discriminator 1 view .LVU516
 439:Drivers/lvgl/src/extra/widgets/meter/lv_meter.c ****             minor_cnt++;
 1473              		.loc 1 439 29 is_stmt 0 discriminator 1 view .LVU517
 1474 02f0 7288     		ldrh	r2, [r6, #2]
 439:Drivers/lvgl/src/extra/widgets/meter/lv_meter.c ****             minor_cnt++;
 1475              		.loc 1 439 22 discriminator 1 view .LVU518
 1476 02f2 002A     		cmp	r2, #0
 1477 02f4 00F05581 		beq	.L30
 1478              	.LBB171:
 440:Drivers/lvgl/src/extra/widgets/meter/lv_meter.c ****             bool major = false;
 1479              		.loc 1 440 22 view .LVU519
 1480 02f8 08F10108 		add	r8, r8, #1
 1481              	.LVL136:
 442:Drivers/lvgl/src/extra/widgets/meter/lv_meter.c ****                 minor_cnt = 0;
 1482              		.loc 1 442 15 view .LVU520
ARM GAS  /var/folders/lp/x54gwt890xv47sdkqj1k04q40000gn/T//ccVgM3G4.s 			page 57


 1483 02fc 8845     		cmp	r8, r1
 447:Drivers/lvgl/src/extra/widgets/meter/lv_meter.c ****             part_draw_dsc.value = value_of_line;
 1484              		.loc 1 447 37 view .LVU521
 1485 02fe D6E90530 		ldrd	r3, r0, [r6, #20]
 486:Drivers/lvgl/src/extra/widgets/meter/lv_meter.c ****             p_outer.y = p_center.y;
 1486              		.loc 1 486 46 view .LVU522
 1487 0302 4FF00007 		mov	r7, #0
 1488              	.LVL137:
 440:Drivers/lvgl/src/extra/widgets/meter/lv_meter.c ****             bool major = false;
 1489              		.loc 1 440 13 is_stmt 1 view .LVU523
 441:Drivers/lvgl/src/extra/widgets/meter/lv_meter.c ****             if(minor_cnt == scale->tick_major_nth) {
 1490              		.loc 1 441 13 view .LVU524
 442:Drivers/lvgl/src/extra/widgets/meter/lv_meter.c ****                 minor_cnt = 0;
 1491              		.loc 1 442 13 view .LVU525
 447:Drivers/lvgl/src/extra/widgets/meter/lv_meter.c ****             part_draw_dsc.value = value_of_line;
 1492              		.loc 1 447 66 is_stmt 0 view .LVU526
 1493 0306 02F1FF32 		add	r2, r2, #-1
 442:Drivers/lvgl/src/extra/widgets/meter/lv_meter.c ****                 minor_cnt = 0;
 1494              		.loc 1 442 15 view .LVU527
 1495 030a 00F02F81 		beq	.L68
 1496              	.LVL138:
 1497              	.L63:
 447:Drivers/lvgl/src/extra/widgets/meter/lv_meter.c ****             part_draw_dsc.value = value_of_line;
 1498              		.loc 1 447 13 is_stmt 1 view .LVU528
 447:Drivers/lvgl/src/extra/widgets/meter/lv_meter.c ****             part_draw_dsc.value = value_of_line;
 1499              		.loc 1 447 37 is_stmt 0 view .LVU529
 1500 030e 0090     		str	r0, [sp]
 1501 0310 0021     		movs	r1, #0
 1502 0312 3846     		mov	r0, r7
 1503 0314 FFF7FEFF 		bl	lv_map
 1504              	.LVL139:
 450:Drivers/lvgl/src/extra/widgets/meter/lv_meter.c ****             lv_color_t line_color_ori = line_color;
 1505              		.loc 1 450 24 discriminator 2 view .LVU530
 1506 0318 3388     		ldrh	r3, [r6]
 1507 031a 0493     		str	r3, [sp, #16]
 453:Drivers/lvgl/src/extra/widgets/meter/lv_meter.c ****             lv_coord_t line_width = line_width_ori;
 1508              		.loc 1 453 24 discriminator 2 view .LVU531
 1509 031c B6F90630 		ldrsh	r3, [r6, #6]
 1510 0320 0593     		str	r3, [sp, #20]
 441:Drivers/lvgl/src/extra/widgets/meter/lv_meter.c ****             if(minor_cnt == scale->tick_major_nth) {
 1511              		.loc 1 441 18 view .LVU532
 1512 0322 0023     		movs	r3, #0
 447:Drivers/lvgl/src/extra/widgets/meter/lv_meter.c ****             part_draw_dsc.value = value_of_line;
 1513              		.loc 1 447 37 view .LVU533
 1514 0324 0546     		mov	r5, r0
 1515              	.LVL140:
 448:Drivers/lvgl/src/extra/widgets/meter/lv_meter.c **** 
 1516              		.loc 1 448 13 is_stmt 1 view .LVU534
 448:Drivers/lvgl/src/extra/widgets/meter/lv_meter.c **** 
 1517              		.loc 1 448 33 is_stmt 0 view .LVU535
 1518 0326 5890     		str	r0, [sp, #352]
 450:Drivers/lvgl/src/extra/widgets/meter/lv_meter.c ****             lv_color_t line_color_ori = line_color;
 1519              		.loc 1 450 13 is_stmt 1 view .LVU536
 1520              	.LVL141:
 451:Drivers/lvgl/src/extra/widgets/meter/lv_meter.c **** 
 1521              		.loc 1 451 13 view .LVU537
 453:Drivers/lvgl/src/extra/widgets/meter/lv_meter.c ****             lv_coord_t line_width = line_width_ori;
ARM GAS  /var/folders/lp/x54gwt890xv47sdkqj1k04q40000gn/T//ccVgM3G4.s 			page 58


 1522              		.loc 1 453 13 view .LVU538
 441:Drivers/lvgl/src/extra/widgets/meter/lv_meter.c ****             if(minor_cnt == scale->tick_major_nth) {
 1523              		.loc 1 441 18 is_stmt 0 view .LVU539
 1524 0328 0693     		str	r3, [sp, #24]
 1525              	.LVL142:
 1526              	.L47:
 454:Drivers/lvgl/src/extra/widgets/meter/lv_meter.c **** 
 1527              		.loc 1 454 13 is_stmt 1 view .LVU540
 456:Drivers/lvgl/src/extra/widgets/meter/lv_meter.c ****             _LV_LL_READ_BACK(&meter->indicator_ll, indic) {
 1528              		.loc 1 456 13 view .LVU541
 457:Drivers/lvgl/src/extra/widgets/meter/lv_meter.c ****                 if(indic->type != LV_METER_INDICATOR_TYPE_SCALE_LINES) continue;
 1529              		.loc 1 457 13 view .LVU542
 1530 032a 5846     		mov	r0, fp
 1531              	.LVL143:
 457:Drivers/lvgl/src/extra/widgets/meter/lv_meter.c ****                 if(indic->type != LV_METER_INDICATOR_TYPE_SCALE_LINES) continue;
 1532              		.loc 1 457 13 is_stmt 0 view .LVU543
 1533 032c FFF7FEFF 		bl	_lv_ll_get_tail
 1534              	.LVL144:
 457:Drivers/lvgl/src/extra/widgets/meter/lv_meter.c ****                 if(indic->type != LV_METER_INDICATOR_TYPE_SCALE_LINES) continue;
 1535              		.loc 1 457 13 is_stmt 1 discriminator 1 view .LVU544
 454:Drivers/lvgl/src/extra/widgets/meter/lv_meter.c **** 
 1536              		.loc 1 454 24 is_stmt 0 view .LVU545
 1537 0330 DDE904A9 		ldrd	r10, r9, [sp, #16]
 457:Drivers/lvgl/src/extra/widgets/meter/lv_meter.c ****                 if(indic->type != LV_METER_INDICATOR_TYPE_SCALE_LINES) continue;
 1538              		.loc 1 457 13 discriminator 1 view .LVU546
 1539 0334 0446     		mov	r4, r0
 1540 0336 0028     		cmp	r0, #0
 1541 0338 5CD0     		beq	.L33
 1542 033a 01E0     		b	.L72
 1543              	.L73:
 1544              		.align	2
 1545              	.L71:
 1546 033c 00000000 		.word	lv_meter_class
 1547              	.L72:
 1548              	.LVL145:
 1549              	.L37:
 458:Drivers/lvgl/src/extra/widgets/meter/lv_meter.c ****                 if(value_of_line >= indic->start_value && value_of_line <= indic->end_value) {
 1550              		.loc 1 458 17 is_stmt 1 view .LVU547
 459:Drivers/lvgl/src/extra/widgets/meter/lv_meter.c ****                     line_width += indic->type_data.scale_lines.width_mod;
 1551              		.loc 1 459 17 view .LVU548
 458:Drivers/lvgl/src/extra/widgets/meter/lv_meter.c ****                 if(value_of_line >= indic->start_value && value_of_line <= indic->end_value) {
 1552              		.loc 1 458 19 is_stmt 0 view .LVU549
 1553 0340 2379     		ldrb	r3, [r4, #4]	@ zero_extendqisi2
 1554 0342 022B     		cmp	r3, #2
 1555 0344 4FD1     		bne	.L34
 459:Drivers/lvgl/src/extra/widgets/meter/lv_meter.c ****                     line_width += indic->type_data.scale_lines.width_mod;
 1556              		.loc 1 459 42 view .LVU550
 1557 0346 A168     		ldr	r1, [r4, #8]
 459:Drivers/lvgl/src/extra/widgets/meter/lv_meter.c ****                     line_width += indic->type_data.scale_lines.width_mod;
 1558              		.loc 1 459 19 view .LVU551
 1559 0348 A942     		cmp	r1, r5
 1560 034a 4CDC     		bgt	.L34
 460:Drivers/lvgl/src/extra/widgets/meter/lv_meter.c **** 
 1561              		.loc 1 460 21 is_stmt 1 view .LVU552
 459:Drivers/lvgl/src/extra/widgets/meter/lv_meter.c ****                     line_width += indic->type_data.scale_lines.width_mod;
 1562              		.loc 1 459 81 is_stmt 0 discriminator 1 view .LVU553
 1563 034c E268     		ldr	r2, [r4, #12]
ARM GAS  /var/folders/lp/x54gwt890xv47sdkqj1k04q40000gn/T//ccVgM3G4.s 			page 59


 459:Drivers/lvgl/src/extra/widgets/meter/lv_meter.c ****                     line_width += indic->type_data.scale_lines.width_mod;
 1564              		.loc 1 459 56 discriminator 1 view .LVU554
 1565 034e AA42     		cmp	r2, r5
 1566 0350 49DB     		blt	.L34
 1567              	.LBB164:
 466:Drivers/lvgl/src/extra/widgets/meter/lv_meter.c ****                         if(indic->type_data.scale_lines.local_grad) {
 1568              		.loc 1 466 25 is_stmt 1 view .LVU555
 467:Drivers/lvgl/src/extra/widgets/meter/lv_meter.c ****                             ratio = lv_map(value_of_line, indic->start_value, indic->end_value, LV_
 1569              		.loc 1 467 25 view .LVU556
 1570              	.LBE164:
 460:Drivers/lvgl/src/extra/widgets/meter/lv_meter.c **** 
 1571              		.loc 1 460 32 is_stmt 0 view .LVU557
 1572 0352 238A     		ldrh	r3, [r4, #16]
 462:Drivers/lvgl/src/extra/widgets/meter/lv_meter.c ****                         line_color = indic->type_data.scale_lines.color_start;
 1573              		.loc 1 462 111 view .LVU558
 1574 0354 B4F814A0 		ldrh	r10, [r4, #20]
 462:Drivers/lvgl/src/extra/widgets/meter/lv_meter.c ****                         line_color = indic->type_data.scale_lines.color_start;
 1575              		.loc 1 462 23 view .LVU559
 1576 0358 608A     		ldrh	r0, [r4, #18]
 1577              	.LVL146:
 460:Drivers/lvgl/src/extra/widgets/meter/lv_meter.c **** 
 1578              		.loc 1 460 32 view .LVU560
 1579 035a 4B44     		add	r3, r3, r9
 462:Drivers/lvgl/src/extra/widgets/meter/lv_meter.c ****                         line_color = indic->type_data.scale_lines.color_start;
 1580              		.loc 1 462 23 view .LVU561
 1581 035c 5045     		cmp	r0, r10
 460:Drivers/lvgl/src/extra/widgets/meter/lv_meter.c **** 
 1582              		.loc 1 460 32 view .LVU562
 1583 035e 0FFA83F9 		sxth	r9, r3
 1584              	.LVL147:
 462:Drivers/lvgl/src/extra/widgets/meter/lv_meter.c ****                         line_color = indic->type_data.scale_lines.color_start;
 1585              		.loc 1 462 21 is_stmt 1 view .LVU563
 462:Drivers/lvgl/src/extra/widgets/meter/lv_meter.c ****                         line_color = indic->type_data.scale_lines.color_start;
 1586              		.loc 1 462 23 is_stmt 0 view .LVU564
 1587 0362 40D0     		beq	.L34
 1588              	.LBB169:
 468:Drivers/lvgl/src/extra/widgets/meter/lv_meter.c ****                         }
 1589              		.loc 1 468 29 is_stmt 1 view .LVU565
 471:Drivers/lvgl/src/extra/widgets/meter/lv_meter.c ****                         }
 1590              		.loc 1 471 29 view .LVU566
 467:Drivers/lvgl/src/extra/widgets/meter/lv_meter.c ****                             ratio = lv_map(value_of_line, indic->start_value, indic->end_value, LV_
 1591              		.loc 1 467 28 is_stmt 0 view .LVU567
 1592 0364 A07D     		ldrb	r0, [r4, #22]	@ zero_extendqisi2
 468:Drivers/lvgl/src/extra/widgets/meter/lv_meter.c ****                         }
 1593              		.loc 1 468 37 view .LVU568
 1594 0366 4FF0FF0C 		mov	ip, #255
 467:Drivers/lvgl/src/extra/widgets/meter/lv_meter.c ****                             ratio = lv_map(value_of_line, indic->start_value, indic->end_value, LV_
 1595              		.loc 1 467 27 view .LVU569
 1596 036a 10F00100 		ands	r0, r0, #1
 471:Drivers/lvgl/src/extra/widgets/meter/lv_meter.c ****                         }
 1597              		.loc 1 471 37 view .LVU570
 1598 036e 08BF     		it	eq
 1599 0370 D6E90512 		ldrdeq	r1, r2, [r6, #20]
 468:Drivers/lvgl/src/extra/widgets/meter/lv_meter.c ****                         }
 1600              		.loc 1 468 37 view .LVU571
 1601 0374 4FF00003 		mov	r3, #0
 1602 0378 12BF     		itee	ne
ARM GAS  /var/folders/lp/x54gwt890xv47sdkqj1k04q40000gn/T//ccVgM3G4.s 			page 60


 1603 037a CDF800C0 		strne	ip, [sp]
 471:Drivers/lvgl/src/extra/widgets/meter/lv_meter.c ****                         }
 1604              		.loc 1 471 37 view .LVU572
 1605 037e 0346     		moveq	r3, r0
 1606 0380 CDF800C0 		streq	ip, [sp]
 1607 0384 2846     		mov	r0, r5
 1608 0386 FFF7FEFF 		bl	lv_map
 1609              	.LVL148:
 1610              	.LBB165:
 1611              	.LBB166:
 1612              		.file 5 "Drivers/lvgl/src/extra/widgets/meter/../../../../src/hal/../draw/../misc/lv_color.h"
   1:Drivers/lvgl/src/extra/widgets/meter/../../../../src/hal/../draw/../misc/lv_color.h **** /**
   2:Drivers/lvgl/src/extra/widgets/meter/../../../../src/hal/../draw/../misc/lv_color.h ****  * @file lv_color.h
   3:Drivers/lvgl/src/extra/widgets/meter/../../../../src/hal/../draw/../misc/lv_color.h ****  *
   4:Drivers/lvgl/src/extra/widgets/meter/../../../../src/hal/../draw/../misc/lv_color.h ****  */
   5:Drivers/lvgl/src/extra/widgets/meter/../../../../src/hal/../draw/../misc/lv_color.h **** 
   6:Drivers/lvgl/src/extra/widgets/meter/../../../../src/hal/../draw/../misc/lv_color.h **** #ifndef LV_COLOR_H
   7:Drivers/lvgl/src/extra/widgets/meter/../../../../src/hal/../draw/../misc/lv_color.h **** #define LV_COLOR_H
   8:Drivers/lvgl/src/extra/widgets/meter/../../../../src/hal/../draw/../misc/lv_color.h **** 
   9:Drivers/lvgl/src/extra/widgets/meter/../../../../src/hal/../draw/../misc/lv_color.h **** #ifdef __cplusplus
  10:Drivers/lvgl/src/extra/widgets/meter/../../../../src/hal/../draw/../misc/lv_color.h **** extern "C" {
  11:Drivers/lvgl/src/extra/widgets/meter/../../../../src/hal/../draw/../misc/lv_color.h **** #endif
  12:Drivers/lvgl/src/extra/widgets/meter/../../../../src/hal/../draw/../misc/lv_color.h **** 
  13:Drivers/lvgl/src/extra/widgets/meter/../../../../src/hal/../draw/../misc/lv_color.h **** /*********************
  14:Drivers/lvgl/src/extra/widgets/meter/../../../../src/hal/../draw/../misc/lv_color.h ****  *      INCLUDES
  15:Drivers/lvgl/src/extra/widgets/meter/../../../../src/hal/../draw/../misc/lv_color.h ****  *********************/
  16:Drivers/lvgl/src/extra/widgets/meter/../../../../src/hal/../draw/../misc/lv_color.h **** #include "../lv_conf_internal.h"
  17:Drivers/lvgl/src/extra/widgets/meter/../../../../src/hal/../draw/../misc/lv_color.h **** #include "lv_assert.h"
  18:Drivers/lvgl/src/extra/widgets/meter/../../../../src/hal/../draw/../misc/lv_color.h **** #include "lv_math.h"
  19:Drivers/lvgl/src/extra/widgets/meter/../../../../src/hal/../draw/../misc/lv_color.h **** #include "lv_types.h"
  20:Drivers/lvgl/src/extra/widgets/meter/../../../../src/hal/../draw/../misc/lv_color.h **** 
  21:Drivers/lvgl/src/extra/widgets/meter/../../../../src/hal/../draw/../misc/lv_color.h **** /*Error checking*/
  22:Drivers/lvgl/src/extra/widgets/meter/../../../../src/hal/../draw/../misc/lv_color.h **** #if LV_COLOR_DEPTH == 24
  23:Drivers/lvgl/src/extra/widgets/meter/../../../../src/hal/../draw/../misc/lv_color.h **** #error "LV_COLOR_DEPTH 24 is deprecated. Use LV_COLOR_DEPTH 32 instead (lv_conf.h)"
  24:Drivers/lvgl/src/extra/widgets/meter/../../../../src/hal/../draw/../misc/lv_color.h **** #endif
  25:Drivers/lvgl/src/extra/widgets/meter/../../../../src/hal/../draw/../misc/lv_color.h **** 
  26:Drivers/lvgl/src/extra/widgets/meter/../../../../src/hal/../draw/../misc/lv_color.h **** #if LV_COLOR_DEPTH != 16 && LV_COLOR_16_SWAP != 0
  27:Drivers/lvgl/src/extra/widgets/meter/../../../../src/hal/../draw/../misc/lv_color.h **** #error "LV_COLOR_16_SWAP requires LV_COLOR_DEPTH == 16. Set it in lv_conf.h"
  28:Drivers/lvgl/src/extra/widgets/meter/../../../../src/hal/../draw/../misc/lv_color.h **** #endif
  29:Drivers/lvgl/src/extra/widgets/meter/../../../../src/hal/../draw/../misc/lv_color.h **** 
  30:Drivers/lvgl/src/extra/widgets/meter/../../../../src/hal/../draw/../misc/lv_color.h **** #include <stdint.h>
  31:Drivers/lvgl/src/extra/widgets/meter/../../../../src/hal/../draw/../misc/lv_color.h **** 
  32:Drivers/lvgl/src/extra/widgets/meter/../../../../src/hal/../draw/../misc/lv_color.h **** /*********************
  33:Drivers/lvgl/src/extra/widgets/meter/../../../../src/hal/../draw/../misc/lv_color.h ****  *      DEFINES
  34:Drivers/lvgl/src/extra/widgets/meter/../../../../src/hal/../draw/../misc/lv_color.h ****  *********************/
  35:Drivers/lvgl/src/extra/widgets/meter/../../../../src/hal/../draw/../misc/lv_color.h **** LV_EXPORT_CONST_INT(LV_COLOR_DEPTH);
  36:Drivers/lvgl/src/extra/widgets/meter/../../../../src/hal/../draw/../misc/lv_color.h **** LV_EXPORT_CONST_INT(LV_COLOR_16_SWAP);
  37:Drivers/lvgl/src/extra/widgets/meter/../../../../src/hal/../draw/../misc/lv_color.h **** 
  38:Drivers/lvgl/src/extra/widgets/meter/../../../../src/hal/../draw/../misc/lv_color.h **** /**
  39:Drivers/lvgl/src/extra/widgets/meter/../../../../src/hal/../draw/../misc/lv_color.h ****  * Opacity percentages.
  40:Drivers/lvgl/src/extra/widgets/meter/../../../../src/hal/../draw/../misc/lv_color.h ****  */
  41:Drivers/lvgl/src/extra/widgets/meter/../../../../src/hal/../draw/../misc/lv_color.h **** enum {
  42:Drivers/lvgl/src/extra/widgets/meter/../../../../src/hal/../draw/../misc/lv_color.h ****     LV_OPA_TRANSP = 0,
  43:Drivers/lvgl/src/extra/widgets/meter/../../../../src/hal/../draw/../misc/lv_color.h ****     LV_OPA_0      = 0,
  44:Drivers/lvgl/src/extra/widgets/meter/../../../../src/hal/../draw/../misc/lv_color.h ****     LV_OPA_10     = 25,
  45:Drivers/lvgl/src/extra/widgets/meter/../../../../src/hal/../draw/../misc/lv_color.h ****     LV_OPA_20     = 51,
  46:Drivers/lvgl/src/extra/widgets/meter/../../../../src/hal/../draw/../misc/lv_color.h ****     LV_OPA_30     = 76,
ARM GAS  /var/folders/lp/x54gwt890xv47sdkqj1k04q40000gn/T//ccVgM3G4.s 			page 61


  47:Drivers/lvgl/src/extra/widgets/meter/../../../../src/hal/../draw/../misc/lv_color.h ****     LV_OPA_40     = 102,
  48:Drivers/lvgl/src/extra/widgets/meter/../../../../src/hal/../draw/../misc/lv_color.h ****     LV_OPA_50     = 127,
  49:Drivers/lvgl/src/extra/widgets/meter/../../../../src/hal/../draw/../misc/lv_color.h ****     LV_OPA_60     = 153,
  50:Drivers/lvgl/src/extra/widgets/meter/../../../../src/hal/../draw/../misc/lv_color.h ****     LV_OPA_70     = 178,
  51:Drivers/lvgl/src/extra/widgets/meter/../../../../src/hal/../draw/../misc/lv_color.h ****     LV_OPA_80     = 204,
  52:Drivers/lvgl/src/extra/widgets/meter/../../../../src/hal/../draw/../misc/lv_color.h ****     LV_OPA_90     = 229,
  53:Drivers/lvgl/src/extra/widgets/meter/../../../../src/hal/../draw/../misc/lv_color.h ****     LV_OPA_100    = 255,
  54:Drivers/lvgl/src/extra/widgets/meter/../../../../src/hal/../draw/../misc/lv_color.h ****     LV_OPA_COVER  = 255,
  55:Drivers/lvgl/src/extra/widgets/meter/../../../../src/hal/../draw/../misc/lv_color.h **** };
  56:Drivers/lvgl/src/extra/widgets/meter/../../../../src/hal/../draw/../misc/lv_color.h **** 
  57:Drivers/lvgl/src/extra/widgets/meter/../../../../src/hal/../draw/../misc/lv_color.h **** #define LV_OPA_MIN 2    /*Opacities below this will be transparent*/
  58:Drivers/lvgl/src/extra/widgets/meter/../../../../src/hal/../draw/../misc/lv_color.h **** #define LV_OPA_MAX 253  /*Opacities above this will fully cover*/
  59:Drivers/lvgl/src/extra/widgets/meter/../../../../src/hal/../draw/../misc/lv_color.h **** 
  60:Drivers/lvgl/src/extra/widgets/meter/../../../../src/hal/../draw/../misc/lv_color.h **** #if LV_COLOR_DEPTH == 1
  61:Drivers/lvgl/src/extra/widgets/meter/../../../../src/hal/../draw/../misc/lv_color.h **** #define LV_COLOR_SIZE 8
  62:Drivers/lvgl/src/extra/widgets/meter/../../../../src/hal/../draw/../misc/lv_color.h **** #elif LV_COLOR_DEPTH == 8
  63:Drivers/lvgl/src/extra/widgets/meter/../../../../src/hal/../draw/../misc/lv_color.h **** #define LV_COLOR_SIZE 8
  64:Drivers/lvgl/src/extra/widgets/meter/../../../../src/hal/../draw/../misc/lv_color.h **** #elif LV_COLOR_DEPTH == 16
  65:Drivers/lvgl/src/extra/widgets/meter/../../../../src/hal/../draw/../misc/lv_color.h **** #define LV_COLOR_SIZE 16
  66:Drivers/lvgl/src/extra/widgets/meter/../../../../src/hal/../draw/../misc/lv_color.h **** #elif LV_COLOR_DEPTH == 32
  67:Drivers/lvgl/src/extra/widgets/meter/../../../../src/hal/../draw/../misc/lv_color.h **** #define LV_COLOR_SIZE 32
  68:Drivers/lvgl/src/extra/widgets/meter/../../../../src/hal/../draw/../misc/lv_color.h **** #else
  69:Drivers/lvgl/src/extra/widgets/meter/../../../../src/hal/../draw/../misc/lv_color.h **** #error "Invalid LV_COLOR_DEPTH in lv_conf.h! Set it to 1, 8, 16 or 32!"
  70:Drivers/lvgl/src/extra/widgets/meter/../../../../src/hal/../draw/../misc/lv_color.h **** #endif
  71:Drivers/lvgl/src/extra/widgets/meter/../../../../src/hal/../draw/../misc/lv_color.h **** 
  72:Drivers/lvgl/src/extra/widgets/meter/../../../../src/hal/../draw/../misc/lv_color.h **** #if defined(__cplusplus) && !defined(_LV_COLOR_HAS_MODERN_CPP)
  73:Drivers/lvgl/src/extra/widgets/meter/../../../../src/hal/../draw/../misc/lv_color.h **** /**
  74:Drivers/lvgl/src/extra/widgets/meter/../../../../src/hal/../draw/../misc/lv_color.h **** * MSVC compiler's definition of the __cplusplus indicating 199711L regardless to C++ standard versi
  75:Drivers/lvgl/src/extra/widgets/meter/../../../../src/hal/../draw/../misc/lv_color.h **** * see https://devblogs.microsoft.com/cppblog/msvc-now-correctly-reports-cplusplus
  76:Drivers/lvgl/src/extra/widgets/meter/../../../../src/hal/../draw/../misc/lv_color.h **** * so we use _MSC_VER macro instead of __cplusplus
  77:Drivers/lvgl/src/extra/widgets/meter/../../../../src/hal/../draw/../misc/lv_color.h **** */
  78:Drivers/lvgl/src/extra/widgets/meter/../../../../src/hal/../draw/../misc/lv_color.h **** #ifdef _MSC_VER
  79:Drivers/lvgl/src/extra/widgets/meter/../../../../src/hal/../draw/../misc/lv_color.h **** #if _MSC_VER >= 1900 /*Visual Studio 2015*/
  80:Drivers/lvgl/src/extra/widgets/meter/../../../../src/hal/../draw/../misc/lv_color.h **** #define _LV_COLOR_HAS_MODERN_CPP 1
  81:Drivers/lvgl/src/extra/widgets/meter/../../../../src/hal/../draw/../misc/lv_color.h **** #endif
  82:Drivers/lvgl/src/extra/widgets/meter/../../../../src/hal/../draw/../misc/lv_color.h **** #else
  83:Drivers/lvgl/src/extra/widgets/meter/../../../../src/hal/../draw/../misc/lv_color.h **** #if __cplusplus >= 201103L
  84:Drivers/lvgl/src/extra/widgets/meter/../../../../src/hal/../draw/../misc/lv_color.h **** #define _LV_COLOR_HAS_MODERN_CPP 1
  85:Drivers/lvgl/src/extra/widgets/meter/../../../../src/hal/../draw/../misc/lv_color.h **** #endif
  86:Drivers/lvgl/src/extra/widgets/meter/../../../../src/hal/../draw/../misc/lv_color.h **** #endif
  87:Drivers/lvgl/src/extra/widgets/meter/../../../../src/hal/../draw/../misc/lv_color.h **** #endif /*__cplusplus*/
  88:Drivers/lvgl/src/extra/widgets/meter/../../../../src/hal/../draw/../misc/lv_color.h **** 
  89:Drivers/lvgl/src/extra/widgets/meter/../../../../src/hal/../draw/../misc/lv_color.h **** #ifndef _LV_COLOR_HAS_MODERN_CPP
  90:Drivers/lvgl/src/extra/widgets/meter/../../../../src/hal/../draw/../misc/lv_color.h **** #define _LV_COLOR_HAS_MODERN_CPP 0
  91:Drivers/lvgl/src/extra/widgets/meter/../../../../src/hal/../draw/../misc/lv_color.h **** #endif
  92:Drivers/lvgl/src/extra/widgets/meter/../../../../src/hal/../draw/../misc/lv_color.h **** 
  93:Drivers/lvgl/src/extra/widgets/meter/../../../../src/hal/../draw/../misc/lv_color.h **** #if _LV_COLOR_HAS_MODERN_CPP
  94:Drivers/lvgl/src/extra/widgets/meter/../../../../src/hal/../draw/../misc/lv_color.h **** /*Fix msvc compiler error C4576 inside C++ code*/
  95:Drivers/lvgl/src/extra/widgets/meter/../../../../src/hal/../draw/../misc/lv_color.h **** #define _LV_COLOR_MAKE_TYPE_HELPER lv_color_t
  96:Drivers/lvgl/src/extra/widgets/meter/../../../../src/hal/../draw/../misc/lv_color.h **** #else
  97:Drivers/lvgl/src/extra/widgets/meter/../../../../src/hal/../draw/../misc/lv_color.h **** #define _LV_COLOR_MAKE_TYPE_HELPER (lv_color_t)
  98:Drivers/lvgl/src/extra/widgets/meter/../../../../src/hal/../draw/../misc/lv_color.h **** #endif
  99:Drivers/lvgl/src/extra/widgets/meter/../../../../src/hal/../draw/../misc/lv_color.h **** 
 100:Drivers/lvgl/src/extra/widgets/meter/../../../../src/hal/../draw/../misc/lv_color.h **** /*---------------------------------------
 101:Drivers/lvgl/src/extra/widgets/meter/../../../../src/hal/../draw/../misc/lv_color.h ****  * Macros for all existing color depths
 102:Drivers/lvgl/src/extra/widgets/meter/../../../../src/hal/../draw/../misc/lv_color.h ****  * to set/get values of the color channels
 103:Drivers/lvgl/src/extra/widgets/meter/../../../../src/hal/../draw/../misc/lv_color.h ****  *------------------------------------------*/
ARM GAS  /var/folders/lp/x54gwt890xv47sdkqj1k04q40000gn/T//ccVgM3G4.s 			page 62


 104:Drivers/lvgl/src/extra/widgets/meter/../../../../src/hal/../draw/../misc/lv_color.h **** # define LV_COLOR_SET_R1(c, v) (c).ch.red = (uint8_t)((v) & 0x1)
 105:Drivers/lvgl/src/extra/widgets/meter/../../../../src/hal/../draw/../misc/lv_color.h **** # define LV_COLOR_SET_G1(c, v) (c).ch.green = (uint8_t)((v) & 0x1)
 106:Drivers/lvgl/src/extra/widgets/meter/../../../../src/hal/../draw/../misc/lv_color.h **** # define LV_COLOR_SET_B1(c, v) (c).ch.blue = (uint8_t)((v) & 0x1)
 107:Drivers/lvgl/src/extra/widgets/meter/../../../../src/hal/../draw/../misc/lv_color.h **** # define LV_COLOR_SET_A1(c, v) do {} while(0)
 108:Drivers/lvgl/src/extra/widgets/meter/../../../../src/hal/../draw/../misc/lv_color.h **** 
 109:Drivers/lvgl/src/extra/widgets/meter/../../../../src/hal/../draw/../misc/lv_color.h **** # define LV_COLOR_GET_R1(c) (c).ch.red
 110:Drivers/lvgl/src/extra/widgets/meter/../../../../src/hal/../draw/../misc/lv_color.h **** # define LV_COLOR_GET_G1(c) (c).ch.green
 111:Drivers/lvgl/src/extra/widgets/meter/../../../../src/hal/../draw/../misc/lv_color.h **** # define LV_COLOR_GET_B1(c) (c).ch.blue
 112:Drivers/lvgl/src/extra/widgets/meter/../../../../src/hal/../draw/../misc/lv_color.h **** # define LV_COLOR_GET_A1(c) 0xFF
 113:Drivers/lvgl/src/extra/widgets/meter/../../../../src/hal/../draw/../misc/lv_color.h **** 
 114:Drivers/lvgl/src/extra/widgets/meter/../../../../src/hal/../draw/../misc/lv_color.h **** # define _LV_COLOR_ZERO_INITIALIZER1 {0x00}
 115:Drivers/lvgl/src/extra/widgets/meter/../../../../src/hal/../draw/../misc/lv_color.h **** # define LV_COLOR_MAKE1(r8, g8, b8)  {(uint8_t)((b8 >> 7) | (g8 >> 7) | (r8 >> 7))}
 116:Drivers/lvgl/src/extra/widgets/meter/../../../../src/hal/../draw/../misc/lv_color.h **** 
 117:Drivers/lvgl/src/extra/widgets/meter/../../../../src/hal/../draw/../misc/lv_color.h **** # define LV_COLOR_SET_R8(c, v) (c).ch.red = (uint8_t)((v) & 0x7U)
 118:Drivers/lvgl/src/extra/widgets/meter/../../../../src/hal/../draw/../misc/lv_color.h **** # define LV_COLOR_SET_G8(c, v) (c).ch.green = (uint8_t)((v) & 0x7U)
 119:Drivers/lvgl/src/extra/widgets/meter/../../../../src/hal/../draw/../misc/lv_color.h **** # define LV_COLOR_SET_B8(c, v) (c).ch.blue = (uint8_t)((v) & 0x3U)
 120:Drivers/lvgl/src/extra/widgets/meter/../../../../src/hal/../draw/../misc/lv_color.h **** # define LV_COLOR_SET_A8(c, v) do {} while(0)
 121:Drivers/lvgl/src/extra/widgets/meter/../../../../src/hal/../draw/../misc/lv_color.h **** 
 122:Drivers/lvgl/src/extra/widgets/meter/../../../../src/hal/../draw/../misc/lv_color.h **** # define LV_COLOR_GET_R8(c) (c).ch.red
 123:Drivers/lvgl/src/extra/widgets/meter/../../../../src/hal/../draw/../misc/lv_color.h **** # define LV_COLOR_GET_G8(c) (c).ch.green
 124:Drivers/lvgl/src/extra/widgets/meter/../../../../src/hal/../draw/../misc/lv_color.h **** # define LV_COLOR_GET_B8(c) (c).ch.blue
 125:Drivers/lvgl/src/extra/widgets/meter/../../../../src/hal/../draw/../misc/lv_color.h **** # define LV_COLOR_GET_A8(c) 0xFF
 126:Drivers/lvgl/src/extra/widgets/meter/../../../../src/hal/../draw/../misc/lv_color.h **** 
 127:Drivers/lvgl/src/extra/widgets/meter/../../../../src/hal/../draw/../misc/lv_color.h **** # define _LV_COLOR_ZERO_INITIALIZER8 {{0x00, 0x00, 0x00}}
 128:Drivers/lvgl/src/extra/widgets/meter/../../../../src/hal/../draw/../misc/lv_color.h **** # define LV_COLOR_MAKE8(r8, g8, b8) {{(uint8_t)((b8 >> 6) & 0x3U), (uint8_t)((g8 >> 5) & 0x7U), (ui
 129:Drivers/lvgl/src/extra/widgets/meter/../../../../src/hal/../draw/../misc/lv_color.h **** 
 130:Drivers/lvgl/src/extra/widgets/meter/../../../../src/hal/../draw/../misc/lv_color.h **** # define LV_COLOR_SET_R16(c, v) (c).ch.red = (uint8_t)((v) & 0x1FU)
 131:Drivers/lvgl/src/extra/widgets/meter/../../../../src/hal/../draw/../misc/lv_color.h **** #if LV_COLOR_16_SWAP == 0
 132:Drivers/lvgl/src/extra/widgets/meter/../../../../src/hal/../draw/../misc/lv_color.h **** # define LV_COLOR_SET_G16(c, v) (c).ch.green = (uint8_t)((v) & 0x3FU)
 133:Drivers/lvgl/src/extra/widgets/meter/../../../../src/hal/../draw/../misc/lv_color.h **** #else
 134:Drivers/lvgl/src/extra/widgets/meter/../../../../src/hal/../draw/../misc/lv_color.h **** # define LV_COLOR_SET_G16(c, v) {(c).ch.green_h = (uint8_t)(((v) >> 3) & 0x7); (c).ch.green_l = (ui
 135:Drivers/lvgl/src/extra/widgets/meter/../../../../src/hal/../draw/../misc/lv_color.h **** #endif
 136:Drivers/lvgl/src/extra/widgets/meter/../../../../src/hal/../draw/../misc/lv_color.h **** # define LV_COLOR_SET_B16(c, v) (c).ch.blue = (uint8_t)((v) & 0x1FU)
 137:Drivers/lvgl/src/extra/widgets/meter/../../../../src/hal/../draw/../misc/lv_color.h **** # define LV_COLOR_SET_A16(c, v) do {} while(0)
 138:Drivers/lvgl/src/extra/widgets/meter/../../../../src/hal/../draw/../misc/lv_color.h **** 
 139:Drivers/lvgl/src/extra/widgets/meter/../../../../src/hal/../draw/../misc/lv_color.h **** # define LV_COLOR_GET_R16(c) (c).ch.red
 140:Drivers/lvgl/src/extra/widgets/meter/../../../../src/hal/../draw/../misc/lv_color.h **** #if LV_COLOR_16_SWAP == 0
 141:Drivers/lvgl/src/extra/widgets/meter/../../../../src/hal/../draw/../misc/lv_color.h **** # define LV_COLOR_GET_G16(c) (c).ch.green
 142:Drivers/lvgl/src/extra/widgets/meter/../../../../src/hal/../draw/../misc/lv_color.h **** #else
 143:Drivers/lvgl/src/extra/widgets/meter/../../../../src/hal/../draw/../misc/lv_color.h **** # define LV_COLOR_GET_G16(c) (((c).ch.green_h << 3) + (c).ch.green_l)
 144:Drivers/lvgl/src/extra/widgets/meter/../../../../src/hal/../draw/../misc/lv_color.h **** #endif
 145:Drivers/lvgl/src/extra/widgets/meter/../../../../src/hal/../draw/../misc/lv_color.h **** # define LV_COLOR_GET_B16(c) (c).ch.blue
 146:Drivers/lvgl/src/extra/widgets/meter/../../../../src/hal/../draw/../misc/lv_color.h **** # define LV_COLOR_GET_A16(c) 0xFF
 147:Drivers/lvgl/src/extra/widgets/meter/../../../../src/hal/../draw/../misc/lv_color.h **** 
 148:Drivers/lvgl/src/extra/widgets/meter/../../../../src/hal/../draw/../misc/lv_color.h **** #if LV_COLOR_16_SWAP == 0
 149:Drivers/lvgl/src/extra/widgets/meter/../../../../src/hal/../draw/../misc/lv_color.h **** # define _LV_COLOR_ZERO_INITIALIZER16  {{0x00, 0x00, 0x00}}
 150:Drivers/lvgl/src/extra/widgets/meter/../../../../src/hal/../draw/../misc/lv_color.h **** # define LV_COLOR_MAKE16(r8, g8, b8) {{(uint8_t)((b8 >> 3) & 0x1FU), (uint8_t)((g8 >> 2) & 0x3FU), 
 151:Drivers/lvgl/src/extra/widgets/meter/../../../../src/hal/../draw/../misc/lv_color.h **** #else
 152:Drivers/lvgl/src/extra/widgets/meter/../../../../src/hal/../draw/../misc/lv_color.h **** # define _LV_COLOR_ZERO_INITIALIZER16 {{0x00, 0x00, 0x00, 0x00}}
 153:Drivers/lvgl/src/extra/widgets/meter/../../../../src/hal/../draw/../misc/lv_color.h **** # define LV_COLOR_MAKE16(r8, g8, b8) {{(uint8_t)((g8 >> 5) & 0x7U), (uint8_t)((r8 >> 3) & 0x1FU), (
 154:Drivers/lvgl/src/extra/widgets/meter/../../../../src/hal/../draw/../misc/lv_color.h **** #endif
 155:Drivers/lvgl/src/extra/widgets/meter/../../../../src/hal/../draw/../misc/lv_color.h **** 
 156:Drivers/lvgl/src/extra/widgets/meter/../../../../src/hal/../draw/../misc/lv_color.h **** # define LV_COLOR_SET_R32(c, v) (c).ch.red = (uint8_t)((v) & 0xFF)
 157:Drivers/lvgl/src/extra/widgets/meter/../../../../src/hal/../draw/../misc/lv_color.h **** # define LV_COLOR_SET_G32(c, v) (c).ch.green = (uint8_t)((v) & 0xFF)
 158:Drivers/lvgl/src/extra/widgets/meter/../../../../src/hal/../draw/../misc/lv_color.h **** # define LV_COLOR_SET_B32(c, v) (c).ch.blue = (uint8_t)((v) & 0xFF)
 159:Drivers/lvgl/src/extra/widgets/meter/../../../../src/hal/../draw/../misc/lv_color.h **** # define LV_COLOR_SET_A32(c, v) (c).ch.alpha = (uint8_t)((v) & 0xFF)
 160:Drivers/lvgl/src/extra/widgets/meter/../../../../src/hal/../draw/../misc/lv_color.h **** 
ARM GAS  /var/folders/lp/x54gwt890xv47sdkqj1k04q40000gn/T//ccVgM3G4.s 			page 63


 161:Drivers/lvgl/src/extra/widgets/meter/../../../../src/hal/../draw/../misc/lv_color.h **** # define LV_COLOR_GET_R32(c) (c).ch.red
 162:Drivers/lvgl/src/extra/widgets/meter/../../../../src/hal/../draw/../misc/lv_color.h **** # define LV_COLOR_GET_G32(c) (c).ch.green
 163:Drivers/lvgl/src/extra/widgets/meter/../../../../src/hal/../draw/../misc/lv_color.h **** # define LV_COLOR_GET_B32(c) (c).ch.blue
 164:Drivers/lvgl/src/extra/widgets/meter/../../../../src/hal/../draw/../misc/lv_color.h **** # define LV_COLOR_GET_A32(c) (c).ch.alpha
 165:Drivers/lvgl/src/extra/widgets/meter/../../../../src/hal/../draw/../misc/lv_color.h **** 
 166:Drivers/lvgl/src/extra/widgets/meter/../../../../src/hal/../draw/../misc/lv_color.h **** # define _LV_COLOR_ZERO_INITIALIZER32  {{0x00, 0x00, 0x00, 0x00}}
 167:Drivers/lvgl/src/extra/widgets/meter/../../../../src/hal/../draw/../misc/lv_color.h **** # define LV_COLOR_MAKE32(r8, g8, b8) {{b8, g8, r8, 0xff}} /*Fix 0xff alpha*/
 168:Drivers/lvgl/src/extra/widgets/meter/../../../../src/hal/../draw/../misc/lv_color.h **** 
 169:Drivers/lvgl/src/extra/widgets/meter/../../../../src/hal/../draw/../misc/lv_color.h **** /*---------------------------------------
 170:Drivers/lvgl/src/extra/widgets/meter/../../../../src/hal/../draw/../misc/lv_color.h ****  * Macros for the current color depth
 171:Drivers/lvgl/src/extra/widgets/meter/../../../../src/hal/../draw/../misc/lv_color.h ****  * to set/get values of the color channels
 172:Drivers/lvgl/src/extra/widgets/meter/../../../../src/hal/../draw/../misc/lv_color.h ****  *------------------------------------------*/
 173:Drivers/lvgl/src/extra/widgets/meter/../../../../src/hal/../draw/../misc/lv_color.h **** #define LV_COLOR_SET_R(c, v) LV_CONCAT(LV_COLOR_SET_R, LV_COLOR_DEPTH)(c, v)
 174:Drivers/lvgl/src/extra/widgets/meter/../../../../src/hal/../draw/../misc/lv_color.h **** #define LV_COLOR_SET_G(c, v) LV_CONCAT(LV_COLOR_SET_G, LV_COLOR_DEPTH)(c, v)
 175:Drivers/lvgl/src/extra/widgets/meter/../../../../src/hal/../draw/../misc/lv_color.h **** #define LV_COLOR_SET_B(c, v) LV_CONCAT(LV_COLOR_SET_B, LV_COLOR_DEPTH)(c, v)
 176:Drivers/lvgl/src/extra/widgets/meter/../../../../src/hal/../draw/../misc/lv_color.h **** #define LV_COLOR_SET_A(c, v) LV_CONCAT(LV_COLOR_SET_A, LV_COLOR_DEPTH)(c, v)
 177:Drivers/lvgl/src/extra/widgets/meter/../../../../src/hal/../draw/../misc/lv_color.h **** 
 178:Drivers/lvgl/src/extra/widgets/meter/../../../../src/hal/../draw/../misc/lv_color.h **** #define LV_COLOR_GET_R(c) LV_CONCAT(LV_COLOR_GET_R, LV_COLOR_DEPTH)(c)
 179:Drivers/lvgl/src/extra/widgets/meter/../../../../src/hal/../draw/../misc/lv_color.h **** #define LV_COLOR_GET_G(c) LV_CONCAT(LV_COLOR_GET_G, LV_COLOR_DEPTH)(c)
 180:Drivers/lvgl/src/extra/widgets/meter/../../../../src/hal/../draw/../misc/lv_color.h **** #define LV_COLOR_GET_B(c) LV_CONCAT(LV_COLOR_GET_B, LV_COLOR_DEPTH)(c)
 181:Drivers/lvgl/src/extra/widgets/meter/../../../../src/hal/../draw/../misc/lv_color.h **** #define LV_COLOR_GET_A(c) LV_CONCAT(LV_COLOR_GET_A, LV_COLOR_DEPTH)(c)
 182:Drivers/lvgl/src/extra/widgets/meter/../../../../src/hal/../draw/../misc/lv_color.h **** 
 183:Drivers/lvgl/src/extra/widgets/meter/../../../../src/hal/../draw/../misc/lv_color.h **** #define _LV_COLOR_ZERO_INITIALIZER LV_CONCAT(_LV_COLOR_ZERO_INITIALIZER, LV_COLOR_DEPTH)
 184:Drivers/lvgl/src/extra/widgets/meter/../../../../src/hal/../draw/../misc/lv_color.h **** #define LV_COLOR_MAKE(r8, g8, b8) LV_CONCAT(LV_COLOR_MAKE, LV_COLOR_DEPTH)(r8, g8, b8)
 185:Drivers/lvgl/src/extra/widgets/meter/../../../../src/hal/../draw/../misc/lv_color.h **** 
 186:Drivers/lvgl/src/extra/widgets/meter/../../../../src/hal/../draw/../misc/lv_color.h **** /**********************
 187:Drivers/lvgl/src/extra/widgets/meter/../../../../src/hal/../draw/../misc/lv_color.h ****  *      TYPEDEFS
 188:Drivers/lvgl/src/extra/widgets/meter/../../../../src/hal/../draw/../misc/lv_color.h ****  **********************/
 189:Drivers/lvgl/src/extra/widgets/meter/../../../../src/hal/../draw/../misc/lv_color.h **** 
 190:Drivers/lvgl/src/extra/widgets/meter/../../../../src/hal/../draw/../misc/lv_color.h **** typedef union {
 191:Drivers/lvgl/src/extra/widgets/meter/../../../../src/hal/../draw/../misc/lv_color.h ****     uint8_t full; /*must be declared first to set all bits of byte via initializer list*/
 192:Drivers/lvgl/src/extra/widgets/meter/../../../../src/hal/../draw/../misc/lv_color.h ****     union {
 193:Drivers/lvgl/src/extra/widgets/meter/../../../../src/hal/../draw/../misc/lv_color.h ****         uint8_t blue : 1;
 194:Drivers/lvgl/src/extra/widgets/meter/../../../../src/hal/../draw/../misc/lv_color.h ****         uint8_t green : 1;
 195:Drivers/lvgl/src/extra/widgets/meter/../../../../src/hal/../draw/../misc/lv_color.h ****         uint8_t red : 1;
 196:Drivers/lvgl/src/extra/widgets/meter/../../../../src/hal/../draw/../misc/lv_color.h ****     } ch;
 197:Drivers/lvgl/src/extra/widgets/meter/../../../../src/hal/../draw/../misc/lv_color.h **** } lv_color1_t;
 198:Drivers/lvgl/src/extra/widgets/meter/../../../../src/hal/../draw/../misc/lv_color.h **** 
 199:Drivers/lvgl/src/extra/widgets/meter/../../../../src/hal/../draw/../misc/lv_color.h **** typedef union {
 200:Drivers/lvgl/src/extra/widgets/meter/../../../../src/hal/../draw/../misc/lv_color.h ****     struct {
 201:Drivers/lvgl/src/extra/widgets/meter/../../../../src/hal/../draw/../misc/lv_color.h ****         uint8_t blue : 2;
 202:Drivers/lvgl/src/extra/widgets/meter/../../../../src/hal/../draw/../misc/lv_color.h ****         uint8_t green : 3;
 203:Drivers/lvgl/src/extra/widgets/meter/../../../../src/hal/../draw/../misc/lv_color.h ****         uint8_t red : 3;
 204:Drivers/lvgl/src/extra/widgets/meter/../../../../src/hal/../draw/../misc/lv_color.h ****     } ch;
 205:Drivers/lvgl/src/extra/widgets/meter/../../../../src/hal/../draw/../misc/lv_color.h ****     uint8_t full;
 206:Drivers/lvgl/src/extra/widgets/meter/../../../../src/hal/../draw/../misc/lv_color.h **** } lv_color8_t;
 207:Drivers/lvgl/src/extra/widgets/meter/../../../../src/hal/../draw/../misc/lv_color.h **** 
 208:Drivers/lvgl/src/extra/widgets/meter/../../../../src/hal/../draw/../misc/lv_color.h **** typedef union {
 209:Drivers/lvgl/src/extra/widgets/meter/../../../../src/hal/../draw/../misc/lv_color.h ****     struct {
 210:Drivers/lvgl/src/extra/widgets/meter/../../../../src/hal/../draw/../misc/lv_color.h **** #if LV_COLOR_16_SWAP == 0
 211:Drivers/lvgl/src/extra/widgets/meter/../../../../src/hal/../draw/../misc/lv_color.h ****         uint16_t blue : 5;
 212:Drivers/lvgl/src/extra/widgets/meter/../../../../src/hal/../draw/../misc/lv_color.h ****         uint16_t green : 6;
 213:Drivers/lvgl/src/extra/widgets/meter/../../../../src/hal/../draw/../misc/lv_color.h ****         uint16_t red : 5;
 214:Drivers/lvgl/src/extra/widgets/meter/../../../../src/hal/../draw/../misc/lv_color.h **** #else
 215:Drivers/lvgl/src/extra/widgets/meter/../../../../src/hal/../draw/../misc/lv_color.h ****         uint16_t green_h : 3;
 216:Drivers/lvgl/src/extra/widgets/meter/../../../../src/hal/../draw/../misc/lv_color.h ****         uint16_t red : 5;
 217:Drivers/lvgl/src/extra/widgets/meter/../../../../src/hal/../draw/../misc/lv_color.h ****         uint16_t blue : 5;
ARM GAS  /var/folders/lp/x54gwt890xv47sdkqj1k04q40000gn/T//ccVgM3G4.s 			page 64


 218:Drivers/lvgl/src/extra/widgets/meter/../../../../src/hal/../draw/../misc/lv_color.h ****         uint16_t green_l : 3;
 219:Drivers/lvgl/src/extra/widgets/meter/../../../../src/hal/../draw/../misc/lv_color.h **** #endif
 220:Drivers/lvgl/src/extra/widgets/meter/../../../../src/hal/../draw/../misc/lv_color.h ****     } ch;
 221:Drivers/lvgl/src/extra/widgets/meter/../../../../src/hal/../draw/../misc/lv_color.h ****     uint16_t full;
 222:Drivers/lvgl/src/extra/widgets/meter/../../../../src/hal/../draw/../misc/lv_color.h **** } lv_color16_t;
 223:Drivers/lvgl/src/extra/widgets/meter/../../../../src/hal/../draw/../misc/lv_color.h **** 
 224:Drivers/lvgl/src/extra/widgets/meter/../../../../src/hal/../draw/../misc/lv_color.h **** typedef union {
 225:Drivers/lvgl/src/extra/widgets/meter/../../../../src/hal/../draw/../misc/lv_color.h ****     struct {
 226:Drivers/lvgl/src/extra/widgets/meter/../../../../src/hal/../draw/../misc/lv_color.h ****         uint8_t blue;
 227:Drivers/lvgl/src/extra/widgets/meter/../../../../src/hal/../draw/../misc/lv_color.h ****         uint8_t green;
 228:Drivers/lvgl/src/extra/widgets/meter/../../../../src/hal/../draw/../misc/lv_color.h ****         uint8_t red;
 229:Drivers/lvgl/src/extra/widgets/meter/../../../../src/hal/../draw/../misc/lv_color.h ****         uint8_t alpha;
 230:Drivers/lvgl/src/extra/widgets/meter/../../../../src/hal/../draw/../misc/lv_color.h ****     } ch;
 231:Drivers/lvgl/src/extra/widgets/meter/../../../../src/hal/../draw/../misc/lv_color.h ****     uint32_t full;
 232:Drivers/lvgl/src/extra/widgets/meter/../../../../src/hal/../draw/../misc/lv_color.h **** } lv_color32_t;
 233:Drivers/lvgl/src/extra/widgets/meter/../../../../src/hal/../draw/../misc/lv_color.h **** 
 234:Drivers/lvgl/src/extra/widgets/meter/../../../../src/hal/../draw/../misc/lv_color.h **** typedef LV_CONCAT3(uint, LV_COLOR_SIZE, _t) lv_color_int_t;
 235:Drivers/lvgl/src/extra/widgets/meter/../../../../src/hal/../draw/../misc/lv_color.h **** typedef LV_CONCAT3(lv_color, LV_COLOR_DEPTH, _t) lv_color_t;
 236:Drivers/lvgl/src/extra/widgets/meter/../../../../src/hal/../draw/../misc/lv_color.h **** 
 237:Drivers/lvgl/src/extra/widgets/meter/../../../../src/hal/../draw/../misc/lv_color.h **** typedef struct {
 238:Drivers/lvgl/src/extra/widgets/meter/../../../../src/hal/../draw/../misc/lv_color.h ****     uint16_t h;
 239:Drivers/lvgl/src/extra/widgets/meter/../../../../src/hal/../draw/../misc/lv_color.h ****     uint8_t s;
 240:Drivers/lvgl/src/extra/widgets/meter/../../../../src/hal/../draw/../misc/lv_color.h ****     uint8_t v;
 241:Drivers/lvgl/src/extra/widgets/meter/../../../../src/hal/../draw/../misc/lv_color.h **** } lv_color_hsv_t;
 242:Drivers/lvgl/src/extra/widgets/meter/../../../../src/hal/../draw/../misc/lv_color.h **** 
 243:Drivers/lvgl/src/extra/widgets/meter/../../../../src/hal/../draw/../misc/lv_color.h **** //! @cond Doxygen_Suppress
 244:Drivers/lvgl/src/extra/widgets/meter/../../../../src/hal/../draw/../misc/lv_color.h **** /*No idea where the guard is required but else throws warnings in the docs*/
 245:Drivers/lvgl/src/extra/widgets/meter/../../../../src/hal/../draw/../misc/lv_color.h **** typedef uint8_t lv_opa_t;
 246:Drivers/lvgl/src/extra/widgets/meter/../../../../src/hal/../draw/../misc/lv_color.h **** //! @endcond
 247:Drivers/lvgl/src/extra/widgets/meter/../../../../src/hal/../draw/../misc/lv_color.h **** 
 248:Drivers/lvgl/src/extra/widgets/meter/../../../../src/hal/../draw/../misc/lv_color.h **** struct _lv_color_filter_dsc_t;
 249:Drivers/lvgl/src/extra/widgets/meter/../../../../src/hal/../draw/../misc/lv_color.h **** 
 250:Drivers/lvgl/src/extra/widgets/meter/../../../../src/hal/../draw/../misc/lv_color.h **** typedef lv_color_t (*lv_color_filter_cb_t)(const struct _lv_color_filter_dsc_t *, lv_color_t, lv_op
 251:Drivers/lvgl/src/extra/widgets/meter/../../../../src/hal/../draw/../misc/lv_color.h **** 
 252:Drivers/lvgl/src/extra/widgets/meter/../../../../src/hal/../draw/../misc/lv_color.h **** typedef struct _lv_color_filter_dsc_t {
 253:Drivers/lvgl/src/extra/widgets/meter/../../../../src/hal/../draw/../misc/lv_color.h ****     lv_color_filter_cb_t filter_cb;
 254:Drivers/lvgl/src/extra/widgets/meter/../../../../src/hal/../draw/../misc/lv_color.h ****     void * user_data;
 255:Drivers/lvgl/src/extra/widgets/meter/../../../../src/hal/../draw/../misc/lv_color.h **** } lv_color_filter_dsc_t;
 256:Drivers/lvgl/src/extra/widgets/meter/../../../../src/hal/../draw/../misc/lv_color.h **** 
 257:Drivers/lvgl/src/extra/widgets/meter/../../../../src/hal/../draw/../misc/lv_color.h **** 
 258:Drivers/lvgl/src/extra/widgets/meter/../../../../src/hal/../draw/../misc/lv_color.h **** typedef enum {
 259:Drivers/lvgl/src/extra/widgets/meter/../../../../src/hal/../draw/../misc/lv_color.h ****     LV_PALETTE_RED,
 260:Drivers/lvgl/src/extra/widgets/meter/../../../../src/hal/../draw/../misc/lv_color.h ****     LV_PALETTE_PINK,
 261:Drivers/lvgl/src/extra/widgets/meter/../../../../src/hal/../draw/../misc/lv_color.h ****     LV_PALETTE_PURPLE,
 262:Drivers/lvgl/src/extra/widgets/meter/../../../../src/hal/../draw/../misc/lv_color.h ****     LV_PALETTE_DEEP_PURPLE,
 263:Drivers/lvgl/src/extra/widgets/meter/../../../../src/hal/../draw/../misc/lv_color.h ****     LV_PALETTE_INDIGO,
 264:Drivers/lvgl/src/extra/widgets/meter/../../../../src/hal/../draw/../misc/lv_color.h ****     LV_PALETTE_BLUE,
 265:Drivers/lvgl/src/extra/widgets/meter/../../../../src/hal/../draw/../misc/lv_color.h ****     LV_PALETTE_LIGHT_BLUE,
 266:Drivers/lvgl/src/extra/widgets/meter/../../../../src/hal/../draw/../misc/lv_color.h ****     LV_PALETTE_CYAN,
 267:Drivers/lvgl/src/extra/widgets/meter/../../../../src/hal/../draw/../misc/lv_color.h ****     LV_PALETTE_TEAL,
 268:Drivers/lvgl/src/extra/widgets/meter/../../../../src/hal/../draw/../misc/lv_color.h ****     LV_PALETTE_GREEN,
 269:Drivers/lvgl/src/extra/widgets/meter/../../../../src/hal/../draw/../misc/lv_color.h ****     LV_PALETTE_LIGHT_GREEN,
 270:Drivers/lvgl/src/extra/widgets/meter/../../../../src/hal/../draw/../misc/lv_color.h ****     LV_PALETTE_LIME,
 271:Drivers/lvgl/src/extra/widgets/meter/../../../../src/hal/../draw/../misc/lv_color.h ****     LV_PALETTE_YELLOW,
 272:Drivers/lvgl/src/extra/widgets/meter/../../../../src/hal/../draw/../misc/lv_color.h ****     LV_PALETTE_AMBER,
 273:Drivers/lvgl/src/extra/widgets/meter/../../../../src/hal/../draw/../misc/lv_color.h ****     LV_PALETTE_ORANGE,
 274:Drivers/lvgl/src/extra/widgets/meter/../../../../src/hal/../draw/../misc/lv_color.h ****     LV_PALETTE_DEEP_ORANGE,
ARM GAS  /var/folders/lp/x54gwt890xv47sdkqj1k04q40000gn/T//ccVgM3G4.s 			page 65


 275:Drivers/lvgl/src/extra/widgets/meter/../../../../src/hal/../draw/../misc/lv_color.h ****     LV_PALETTE_BROWN,
 276:Drivers/lvgl/src/extra/widgets/meter/../../../../src/hal/../draw/../misc/lv_color.h ****     LV_PALETTE_BLUE_GREY,
 277:Drivers/lvgl/src/extra/widgets/meter/../../../../src/hal/../draw/../misc/lv_color.h ****     LV_PALETTE_GREY,
 278:Drivers/lvgl/src/extra/widgets/meter/../../../../src/hal/../draw/../misc/lv_color.h ****     _LV_PALETTE_LAST,
 279:Drivers/lvgl/src/extra/widgets/meter/../../../../src/hal/../draw/../misc/lv_color.h ****     LV_PALETTE_NONE = 0xff,
 280:Drivers/lvgl/src/extra/widgets/meter/../../../../src/hal/../draw/../misc/lv_color.h **** } lv_palette_t;
 281:Drivers/lvgl/src/extra/widgets/meter/../../../../src/hal/../draw/../misc/lv_color.h **** 
 282:Drivers/lvgl/src/extra/widgets/meter/../../../../src/hal/../draw/../misc/lv_color.h **** /**********************
 283:Drivers/lvgl/src/extra/widgets/meter/../../../../src/hal/../draw/../misc/lv_color.h ****  * GLOBAL PROTOTYPES
 284:Drivers/lvgl/src/extra/widgets/meter/../../../../src/hal/../draw/../misc/lv_color.h ****  **********************/
 285:Drivers/lvgl/src/extra/widgets/meter/../../../../src/hal/../draw/../misc/lv_color.h **** 
 286:Drivers/lvgl/src/extra/widgets/meter/../../../../src/hal/../draw/../misc/lv_color.h **** /*In color conversations:
 287:Drivers/lvgl/src/extra/widgets/meter/../../../../src/hal/../draw/../misc/lv_color.h ****  * - When converting to bigger color type the LSB weight of 1 LSB is calculated
 288:Drivers/lvgl/src/extra/widgets/meter/../../../../src/hal/../draw/../misc/lv_color.h ****  *   E.g. 16 bit Red has 5 bits
 289:Drivers/lvgl/src/extra/widgets/meter/../../../../src/hal/../draw/../misc/lv_color.h ****  *         8 bit Red has 3 bits
 290:Drivers/lvgl/src/extra/widgets/meter/../../../../src/hal/../draw/../misc/lv_color.h ****  *        ----------------------
 291:Drivers/lvgl/src/extra/widgets/meter/../../../../src/hal/../draw/../misc/lv_color.h ****  *        8 bit red LSB = (2^5 - 1) / (2^3 - 1) = 31 / 7 = 4
 292:Drivers/lvgl/src/extra/widgets/meter/../../../../src/hal/../draw/../misc/lv_color.h ****  *
 293:Drivers/lvgl/src/extra/widgets/meter/../../../../src/hal/../draw/../misc/lv_color.h ****  * - When calculating to smaller color type simply shift out the LSBs
 294:Drivers/lvgl/src/extra/widgets/meter/../../../../src/hal/../draw/../misc/lv_color.h ****  *   E.g.  8 bit Red has 3 bits
 295:Drivers/lvgl/src/extra/widgets/meter/../../../../src/hal/../draw/../misc/lv_color.h ****  *        16 bit Red has 5 bits
 296:Drivers/lvgl/src/extra/widgets/meter/../../../../src/hal/../draw/../misc/lv_color.h ****  *        ----------------------
 297:Drivers/lvgl/src/extra/widgets/meter/../../../../src/hal/../draw/../misc/lv_color.h ****  *         Shift right with 5 - 3 = 2
 298:Drivers/lvgl/src/extra/widgets/meter/../../../../src/hal/../draw/../misc/lv_color.h ****  */
 299:Drivers/lvgl/src/extra/widgets/meter/../../../../src/hal/../draw/../misc/lv_color.h **** static inline uint8_t lv_color_to1(lv_color_t color)
 300:Drivers/lvgl/src/extra/widgets/meter/../../../../src/hal/../draw/../misc/lv_color.h **** {
 301:Drivers/lvgl/src/extra/widgets/meter/../../../../src/hal/../draw/../misc/lv_color.h **** #if LV_COLOR_DEPTH == 1
 302:Drivers/lvgl/src/extra/widgets/meter/../../../../src/hal/../draw/../misc/lv_color.h ****     return color.full;
 303:Drivers/lvgl/src/extra/widgets/meter/../../../../src/hal/../draw/../misc/lv_color.h **** #elif LV_COLOR_DEPTH == 8
 304:Drivers/lvgl/src/extra/widgets/meter/../../../../src/hal/../draw/../misc/lv_color.h ****     if((LV_COLOR_GET_R(color) & 0x4) || (LV_COLOR_GET_G(color) & 0x4) || (LV_COLOR_GET_B(color) & 0
 305:Drivers/lvgl/src/extra/widgets/meter/../../../../src/hal/../draw/../misc/lv_color.h ****         return 1;
 306:Drivers/lvgl/src/extra/widgets/meter/../../../../src/hal/../draw/../misc/lv_color.h ****     }
 307:Drivers/lvgl/src/extra/widgets/meter/../../../../src/hal/../draw/../misc/lv_color.h ****     else {
 308:Drivers/lvgl/src/extra/widgets/meter/../../../../src/hal/../draw/../misc/lv_color.h ****         return 0;
 309:Drivers/lvgl/src/extra/widgets/meter/../../../../src/hal/../draw/../misc/lv_color.h ****     }
 310:Drivers/lvgl/src/extra/widgets/meter/../../../../src/hal/../draw/../misc/lv_color.h **** #elif LV_COLOR_DEPTH == 16
 311:Drivers/lvgl/src/extra/widgets/meter/../../../../src/hal/../draw/../misc/lv_color.h ****     if((LV_COLOR_GET_R(color) & 0x10) || (LV_COLOR_GET_G(color) & 0x20) || (LV_COLOR_GET_B(color) &
 312:Drivers/lvgl/src/extra/widgets/meter/../../../../src/hal/../draw/../misc/lv_color.h ****         return 1;
 313:Drivers/lvgl/src/extra/widgets/meter/../../../../src/hal/../draw/../misc/lv_color.h ****     }
 314:Drivers/lvgl/src/extra/widgets/meter/../../../../src/hal/../draw/../misc/lv_color.h ****     else {
 315:Drivers/lvgl/src/extra/widgets/meter/../../../../src/hal/../draw/../misc/lv_color.h ****         return 0;
 316:Drivers/lvgl/src/extra/widgets/meter/../../../../src/hal/../draw/../misc/lv_color.h ****     }
 317:Drivers/lvgl/src/extra/widgets/meter/../../../../src/hal/../draw/../misc/lv_color.h **** #elif LV_COLOR_DEPTH == 32
 318:Drivers/lvgl/src/extra/widgets/meter/../../../../src/hal/../draw/../misc/lv_color.h ****     if((LV_COLOR_GET_R(color) & 0x80) || (LV_COLOR_GET_G(color) & 0x80) || (LV_COLOR_GET_B(color) &
 319:Drivers/lvgl/src/extra/widgets/meter/../../../../src/hal/../draw/../misc/lv_color.h ****         return 1;
 320:Drivers/lvgl/src/extra/widgets/meter/../../../../src/hal/../draw/../misc/lv_color.h ****     }
 321:Drivers/lvgl/src/extra/widgets/meter/../../../../src/hal/../draw/../misc/lv_color.h ****     else {
 322:Drivers/lvgl/src/extra/widgets/meter/../../../../src/hal/../draw/../misc/lv_color.h ****         return 0;
 323:Drivers/lvgl/src/extra/widgets/meter/../../../../src/hal/../draw/../misc/lv_color.h ****     }
 324:Drivers/lvgl/src/extra/widgets/meter/../../../../src/hal/../draw/../misc/lv_color.h **** #endif
 325:Drivers/lvgl/src/extra/widgets/meter/../../../../src/hal/../draw/../misc/lv_color.h **** }
 326:Drivers/lvgl/src/extra/widgets/meter/../../../../src/hal/../draw/../misc/lv_color.h **** 
 327:Drivers/lvgl/src/extra/widgets/meter/../../../../src/hal/../draw/../misc/lv_color.h **** static inline uint8_t lv_color_to8(lv_color_t color)
 328:Drivers/lvgl/src/extra/widgets/meter/../../../../src/hal/../draw/../misc/lv_color.h **** {
 329:Drivers/lvgl/src/extra/widgets/meter/../../../../src/hal/../draw/../misc/lv_color.h **** #if LV_COLOR_DEPTH == 1
 330:Drivers/lvgl/src/extra/widgets/meter/../../../../src/hal/../draw/../misc/lv_color.h ****     if(color.full == 0)
 331:Drivers/lvgl/src/extra/widgets/meter/../../../../src/hal/../draw/../misc/lv_color.h ****         return 0;
ARM GAS  /var/folders/lp/x54gwt890xv47sdkqj1k04q40000gn/T//ccVgM3G4.s 			page 66


 332:Drivers/lvgl/src/extra/widgets/meter/../../../../src/hal/../draw/../misc/lv_color.h ****     else
 333:Drivers/lvgl/src/extra/widgets/meter/../../../../src/hal/../draw/../misc/lv_color.h ****         return 0xFF;
 334:Drivers/lvgl/src/extra/widgets/meter/../../../../src/hal/../draw/../misc/lv_color.h **** #elif LV_COLOR_DEPTH == 8
 335:Drivers/lvgl/src/extra/widgets/meter/../../../../src/hal/../draw/../misc/lv_color.h ****     return color.full;
 336:Drivers/lvgl/src/extra/widgets/meter/../../../../src/hal/../draw/../misc/lv_color.h **** #elif LV_COLOR_DEPTH == 16
 337:Drivers/lvgl/src/extra/widgets/meter/../../../../src/hal/../draw/../misc/lv_color.h ****     lv_color8_t ret;
 338:Drivers/lvgl/src/extra/widgets/meter/../../../../src/hal/../draw/../misc/lv_color.h ****     LV_COLOR_SET_R8(ret, LV_COLOR_GET_R(color) >> 2); /*5 - 3  = 2*/
 339:Drivers/lvgl/src/extra/widgets/meter/../../../../src/hal/../draw/../misc/lv_color.h ****     LV_COLOR_SET_G8(ret, LV_COLOR_GET_G(color) >> 3); /*6 - 3  = 3*/
 340:Drivers/lvgl/src/extra/widgets/meter/../../../../src/hal/../draw/../misc/lv_color.h ****     LV_COLOR_SET_B8(ret, LV_COLOR_GET_B(color) >> 3); /*5 - 2  = 3*/
 341:Drivers/lvgl/src/extra/widgets/meter/../../../../src/hal/../draw/../misc/lv_color.h ****     return ret.full;
 342:Drivers/lvgl/src/extra/widgets/meter/../../../../src/hal/../draw/../misc/lv_color.h **** #elif LV_COLOR_DEPTH == 32
 343:Drivers/lvgl/src/extra/widgets/meter/../../../../src/hal/../draw/../misc/lv_color.h ****     lv_color8_t ret;
 344:Drivers/lvgl/src/extra/widgets/meter/../../../../src/hal/../draw/../misc/lv_color.h ****     LV_COLOR_SET_R8(ret, LV_COLOR_GET_R(color) >> 5); /*8 - 3  = 5*/
 345:Drivers/lvgl/src/extra/widgets/meter/../../../../src/hal/../draw/../misc/lv_color.h ****     LV_COLOR_SET_G8(ret, LV_COLOR_GET_G(color) >> 5); /*8 - 3  = 5*/
 346:Drivers/lvgl/src/extra/widgets/meter/../../../../src/hal/../draw/../misc/lv_color.h ****     LV_COLOR_SET_B8(ret, LV_COLOR_GET_B(color) >> 6); /*8 - 2  = 6*/
 347:Drivers/lvgl/src/extra/widgets/meter/../../../../src/hal/../draw/../misc/lv_color.h ****     return ret.full;
 348:Drivers/lvgl/src/extra/widgets/meter/../../../../src/hal/../draw/../misc/lv_color.h **** #endif
 349:Drivers/lvgl/src/extra/widgets/meter/../../../../src/hal/../draw/../misc/lv_color.h **** }
 350:Drivers/lvgl/src/extra/widgets/meter/../../../../src/hal/../draw/../misc/lv_color.h **** 
 351:Drivers/lvgl/src/extra/widgets/meter/../../../../src/hal/../draw/../misc/lv_color.h **** static inline uint16_t lv_color_to16(lv_color_t color)
 352:Drivers/lvgl/src/extra/widgets/meter/../../../../src/hal/../draw/../misc/lv_color.h **** {
 353:Drivers/lvgl/src/extra/widgets/meter/../../../../src/hal/../draw/../misc/lv_color.h **** #if LV_COLOR_DEPTH == 1
 354:Drivers/lvgl/src/extra/widgets/meter/../../../../src/hal/../draw/../misc/lv_color.h ****     if(color.full == 0)
 355:Drivers/lvgl/src/extra/widgets/meter/../../../../src/hal/../draw/../misc/lv_color.h ****         return 0;
 356:Drivers/lvgl/src/extra/widgets/meter/../../../../src/hal/../draw/../misc/lv_color.h ****     else
 357:Drivers/lvgl/src/extra/widgets/meter/../../../../src/hal/../draw/../misc/lv_color.h ****         return 0xFFFF;
 358:Drivers/lvgl/src/extra/widgets/meter/../../../../src/hal/../draw/../misc/lv_color.h **** #elif LV_COLOR_DEPTH == 8
 359:Drivers/lvgl/src/extra/widgets/meter/../../../../src/hal/../draw/../misc/lv_color.h ****     lv_color16_t ret;
 360:Drivers/lvgl/src/extra/widgets/meter/../../../../src/hal/../draw/../misc/lv_color.h ****     LV_COLOR_SET_R16(ret, LV_COLOR_GET_R(color) * 4);  /*(2^5 - 1)/(2^3 - 1) = 31/7 = 4*/
 361:Drivers/lvgl/src/extra/widgets/meter/../../../../src/hal/../draw/../misc/lv_color.h ****     LV_COLOR_SET_G16(ret, LV_COLOR_GET_G(color) * 9);  /*(2^6 - 1)/(2^3 - 1) = 63/7 = 9*/
 362:Drivers/lvgl/src/extra/widgets/meter/../../../../src/hal/../draw/../misc/lv_color.h ****     LV_COLOR_SET_B16(ret, LV_COLOR_GET_B(color) * 10); /*(2^5 - 1)/(2^2 - 1) = 31/3 = 10*/
 363:Drivers/lvgl/src/extra/widgets/meter/../../../../src/hal/../draw/../misc/lv_color.h ****     return ret.full;
 364:Drivers/lvgl/src/extra/widgets/meter/../../../../src/hal/../draw/../misc/lv_color.h **** #elif LV_COLOR_DEPTH == 16
 365:Drivers/lvgl/src/extra/widgets/meter/../../../../src/hal/../draw/../misc/lv_color.h ****     return color.full;
 366:Drivers/lvgl/src/extra/widgets/meter/../../../../src/hal/../draw/../misc/lv_color.h **** #elif LV_COLOR_DEPTH == 32
 367:Drivers/lvgl/src/extra/widgets/meter/../../../../src/hal/../draw/../misc/lv_color.h ****     lv_color16_t ret;
 368:Drivers/lvgl/src/extra/widgets/meter/../../../../src/hal/../draw/../misc/lv_color.h ****     LV_COLOR_SET_R16(ret, LV_COLOR_GET_R(color) >> 3); /*8 - 5  = 3*/
 369:Drivers/lvgl/src/extra/widgets/meter/../../../../src/hal/../draw/../misc/lv_color.h ****     LV_COLOR_SET_G16(ret, LV_COLOR_GET_G(color) >> 2); /*8 - 6  = 2*/
 370:Drivers/lvgl/src/extra/widgets/meter/../../../../src/hal/../draw/../misc/lv_color.h ****     LV_COLOR_SET_B16(ret, LV_COLOR_GET_B(color) >> 3); /*8 - 5  = 3*/
 371:Drivers/lvgl/src/extra/widgets/meter/../../../../src/hal/../draw/../misc/lv_color.h ****     return ret.full;
 372:Drivers/lvgl/src/extra/widgets/meter/../../../../src/hal/../draw/../misc/lv_color.h **** #endif
 373:Drivers/lvgl/src/extra/widgets/meter/../../../../src/hal/../draw/../misc/lv_color.h **** }
 374:Drivers/lvgl/src/extra/widgets/meter/../../../../src/hal/../draw/../misc/lv_color.h **** 
 375:Drivers/lvgl/src/extra/widgets/meter/../../../../src/hal/../draw/../misc/lv_color.h **** static inline uint32_t lv_color_to32(lv_color_t color)
 376:Drivers/lvgl/src/extra/widgets/meter/../../../../src/hal/../draw/../misc/lv_color.h **** {
 377:Drivers/lvgl/src/extra/widgets/meter/../../../../src/hal/../draw/../misc/lv_color.h **** #if LV_COLOR_DEPTH == 1
 378:Drivers/lvgl/src/extra/widgets/meter/../../../../src/hal/../draw/../misc/lv_color.h ****     if(color.full == 0)
 379:Drivers/lvgl/src/extra/widgets/meter/../../../../src/hal/../draw/../misc/lv_color.h ****         return 0xFF000000;
 380:Drivers/lvgl/src/extra/widgets/meter/../../../../src/hal/../draw/../misc/lv_color.h ****     else
 381:Drivers/lvgl/src/extra/widgets/meter/../../../../src/hal/../draw/../misc/lv_color.h ****         return 0xFFFFFFFF;
 382:Drivers/lvgl/src/extra/widgets/meter/../../../../src/hal/../draw/../misc/lv_color.h **** #elif LV_COLOR_DEPTH == 8
 383:Drivers/lvgl/src/extra/widgets/meter/../../../../src/hal/../draw/../misc/lv_color.h ****     lv_color32_t ret;
 384:Drivers/lvgl/src/extra/widgets/meter/../../../../src/hal/../draw/../misc/lv_color.h ****     LV_COLOR_SET_R32(ret, LV_COLOR_GET_R(color) * 36); /*(2^8 - 1)/(2^3 - 1) = 255/7 = 36*/
 385:Drivers/lvgl/src/extra/widgets/meter/../../../../src/hal/../draw/../misc/lv_color.h ****     LV_COLOR_SET_G32(ret, LV_COLOR_GET_G(color) * 36); /*(2^8 - 1)/(2^3 - 1) = 255/7 = 36*/
 386:Drivers/lvgl/src/extra/widgets/meter/../../../../src/hal/../draw/../misc/lv_color.h ****     LV_COLOR_SET_B32(ret, LV_COLOR_GET_B(color) * 85); /*(2^8 - 1)/(2^2 - 1) = 255/3 = 85*/
 387:Drivers/lvgl/src/extra/widgets/meter/../../../../src/hal/../draw/../misc/lv_color.h ****     LV_COLOR_SET_A32(ret, 0xFF);
 388:Drivers/lvgl/src/extra/widgets/meter/../../../../src/hal/../draw/../misc/lv_color.h ****     return ret.full;
ARM GAS  /var/folders/lp/x54gwt890xv47sdkqj1k04q40000gn/T//ccVgM3G4.s 			page 67


 389:Drivers/lvgl/src/extra/widgets/meter/../../../../src/hal/../draw/../misc/lv_color.h **** #elif LV_COLOR_DEPTH == 16
 390:Drivers/lvgl/src/extra/widgets/meter/../../../../src/hal/../draw/../misc/lv_color.h ****     /**
 391:Drivers/lvgl/src/extra/widgets/meter/../../../../src/hal/../draw/../misc/lv_color.h ****      * The floating point math for conversion is:
 392:Drivers/lvgl/src/extra/widgets/meter/../../../../src/hal/../draw/../misc/lv_color.h ****      *  valueto = valuefrom * ( (2^bitsto - 1) / (float)(2^bitsfrom - 1) )
 393:Drivers/lvgl/src/extra/widgets/meter/../../../../src/hal/../draw/../misc/lv_color.h ****      * The faster integer math for conversion is:
 394:Drivers/lvgl/src/extra/widgets/meter/../../../../src/hal/../draw/../misc/lv_color.h ****      *  valueto = ( valuefrom * multiplier + adder ) >> divisor
 395:Drivers/lvgl/src/extra/widgets/meter/../../../../src/hal/../draw/../misc/lv_color.h ****      *   multiplier = FLOOR( ( (2^bitsto - 1) << divisor ) / (float)(2^bitsfrom - 1) )
 396:Drivers/lvgl/src/extra/widgets/meter/../../../../src/hal/../draw/../misc/lv_color.h ****      *
 397:Drivers/lvgl/src/extra/widgets/meter/../../../../src/hal/../draw/../misc/lv_color.h ****      * Find the first divisor where ( adder >> divisor ) <= 0
 398:Drivers/lvgl/src/extra/widgets/meter/../../../../src/hal/../draw/../misc/lv_color.h ****      *
 399:Drivers/lvgl/src/extra/widgets/meter/../../../../src/hal/../draw/../misc/lv_color.h ****      * 5-bit to 8-bit: ( 31 * multiplier + adder ) >> divisor = 255
 400:Drivers/lvgl/src/extra/widgets/meter/../../../../src/hal/../draw/../misc/lv_color.h ****      * divisor  multiplier  adder  min (0)  max (31)
 401:Drivers/lvgl/src/extra/widgets/meter/../../../../src/hal/../draw/../misc/lv_color.h ****      *       0           8      7        7       255
 402:Drivers/lvgl/src/extra/widgets/meter/../../../../src/hal/../draw/../misc/lv_color.h ****      *       1          16     14        7       255
 403:Drivers/lvgl/src/extra/widgets/meter/../../../../src/hal/../draw/../misc/lv_color.h ****      *       2          32     28        7       255
 404:Drivers/lvgl/src/extra/widgets/meter/../../../../src/hal/../draw/../misc/lv_color.h ****      *       3          65     25        3       255
 405:Drivers/lvgl/src/extra/widgets/meter/../../../../src/hal/../draw/../misc/lv_color.h ****      *       4         131     19        1       255
 406:Drivers/lvgl/src/extra/widgets/meter/../../../../src/hal/../draw/../misc/lv_color.h ****      *       5         263      7        0       255
 407:Drivers/lvgl/src/extra/widgets/meter/../../../../src/hal/../draw/../misc/lv_color.h ****      *
 408:Drivers/lvgl/src/extra/widgets/meter/../../../../src/hal/../draw/../misc/lv_color.h ****      * 6-bit to 8-bit: 255 = ( 63 * multiplier + adder ) >> divisor
 409:Drivers/lvgl/src/extra/widgets/meter/../../../../src/hal/../draw/../misc/lv_color.h ****      * divisor  multiplier  adder  min (0)  max (63)
 410:Drivers/lvgl/src/extra/widgets/meter/../../../../src/hal/../draw/../misc/lv_color.h ****      *       0           4      3        3       255
 411:Drivers/lvgl/src/extra/widgets/meter/../../../../src/hal/../draw/../misc/lv_color.h ****      *       1           8      6        3       255
 412:Drivers/lvgl/src/extra/widgets/meter/../../../../src/hal/../draw/../misc/lv_color.h ****      *       2          16     12        3       255
 413:Drivers/lvgl/src/extra/widgets/meter/../../../../src/hal/../draw/../misc/lv_color.h ****      *       3          32     24        3       255
 414:Drivers/lvgl/src/extra/widgets/meter/../../../../src/hal/../draw/../misc/lv_color.h ****      *       4          64     48        3       255
 415:Drivers/lvgl/src/extra/widgets/meter/../../../../src/hal/../draw/../misc/lv_color.h ****      *       5         129     33        1       255
 416:Drivers/lvgl/src/extra/widgets/meter/../../../../src/hal/../draw/../misc/lv_color.h ****      *       6         259      3        0       255
 417:Drivers/lvgl/src/extra/widgets/meter/../../../../src/hal/../draw/../misc/lv_color.h ****      */
 418:Drivers/lvgl/src/extra/widgets/meter/../../../../src/hal/../draw/../misc/lv_color.h **** 
 419:Drivers/lvgl/src/extra/widgets/meter/../../../../src/hal/../draw/../misc/lv_color.h ****     lv_color32_t ret;
 420:Drivers/lvgl/src/extra/widgets/meter/../../../../src/hal/../draw/../misc/lv_color.h ****     LV_COLOR_SET_R32(ret, (LV_COLOR_GET_R(color) * 263 + 7) >> 5);
 421:Drivers/lvgl/src/extra/widgets/meter/../../../../src/hal/../draw/../misc/lv_color.h ****     LV_COLOR_SET_G32(ret, (LV_COLOR_GET_G(color) * 259 + 3) >> 6);
 422:Drivers/lvgl/src/extra/widgets/meter/../../../../src/hal/../draw/../misc/lv_color.h ****     LV_COLOR_SET_B32(ret, (LV_COLOR_GET_B(color) * 263 + 7) >> 5);
 423:Drivers/lvgl/src/extra/widgets/meter/../../../../src/hal/../draw/../misc/lv_color.h ****     LV_COLOR_SET_A32(ret, 0xFF);
 424:Drivers/lvgl/src/extra/widgets/meter/../../../../src/hal/../draw/../misc/lv_color.h ****     return ret.full;
 425:Drivers/lvgl/src/extra/widgets/meter/../../../../src/hal/../draw/../misc/lv_color.h **** #elif LV_COLOR_DEPTH == 32
 426:Drivers/lvgl/src/extra/widgets/meter/../../../../src/hal/../draw/../misc/lv_color.h ****     return color.full;
 427:Drivers/lvgl/src/extra/widgets/meter/../../../../src/hal/../draw/../misc/lv_color.h **** #endif
 428:Drivers/lvgl/src/extra/widgets/meter/../../../../src/hal/../draw/../misc/lv_color.h **** }
 429:Drivers/lvgl/src/extra/widgets/meter/../../../../src/hal/../draw/../misc/lv_color.h **** 
 430:Drivers/lvgl/src/extra/widgets/meter/../../../../src/hal/../draw/../misc/lv_color.h **** //! @cond Doxygen_Suppress
 431:Drivers/lvgl/src/extra/widgets/meter/../../../../src/hal/../draw/../misc/lv_color.h **** 
 432:Drivers/lvgl/src/extra/widgets/meter/../../../../src/hal/../draw/../misc/lv_color.h **** /**
 433:Drivers/lvgl/src/extra/widgets/meter/../../../../src/hal/../draw/../misc/lv_color.h ****  * Mix two colors with a given ratio.
 434:Drivers/lvgl/src/extra/widgets/meter/../../../../src/hal/../draw/../misc/lv_color.h ****  * @param c1 the first color to mix (usually the foreground)
 435:Drivers/lvgl/src/extra/widgets/meter/../../../../src/hal/../draw/../misc/lv_color.h ****  * @param c2 the second color to mix (usually the background)
 436:Drivers/lvgl/src/extra/widgets/meter/../../../../src/hal/../draw/../misc/lv_color.h ****  * @param mix The ratio of the colors. 0: full `c2`, 255: full `c1`, 127: half `c1` and half`c2`
 437:Drivers/lvgl/src/extra/widgets/meter/../../../../src/hal/../draw/../misc/lv_color.h ****  * @return the mixed color
 438:Drivers/lvgl/src/extra/widgets/meter/../../../../src/hal/../draw/../misc/lv_color.h ****  */
 439:Drivers/lvgl/src/extra/widgets/meter/../../../../src/hal/../draw/../misc/lv_color.h **** static inline lv_color_t LV_ATTRIBUTE_FAST_MEM lv_color_mix(lv_color_t c1, lv_color_t c2, uint8_t m
 440:Drivers/lvgl/src/extra/widgets/meter/../../../../src/hal/../draw/../misc/lv_color.h **** {
 441:Drivers/lvgl/src/extra/widgets/meter/../../../../src/hal/../draw/../misc/lv_color.h ****     lv_color_t ret;
 442:Drivers/lvgl/src/extra/widgets/meter/../../../../src/hal/../draw/../misc/lv_color.h **** 
 443:Drivers/lvgl/src/extra/widgets/meter/../../../../src/hal/../draw/../misc/lv_color.h **** #if LV_COLOR_DEPTH == 16 && LV_COLOR_MIX_ROUND_OFS == 0
 444:Drivers/lvgl/src/extra/widgets/meter/../../../../src/hal/../draw/../misc/lv_color.h **** #if LV_COLOR_16_SWAP == 1
 445:Drivers/lvgl/src/extra/widgets/meter/../../../../src/hal/../draw/../misc/lv_color.h ****     c1.full = c1.full << 8 | c1.full >> 8;
ARM GAS  /var/folders/lp/x54gwt890xv47sdkqj1k04q40000gn/T//ccVgM3G4.s 			page 68


 446:Drivers/lvgl/src/extra/widgets/meter/../../../../src/hal/../draw/../misc/lv_color.h ****     c2.full = c2.full << 8 | c2.full >> 8;
 1613              		.loc 5 446 28 view .LVU573
 1614 038a B4F812A0 		ldrh	r10, [r4, #18]
 445:Drivers/lvgl/src/extra/widgets/meter/../../../../src/hal/../draw/../misc/lv_color.h ****     c2.full = c2.full << 8 | c2.full >> 8;
 1615              		.loc 5 445 28 view .LVU574
 1616 038e A38A     		ldrh	r3, [r4, #20]
 1617              		.loc 5 446 28 view .LVU575
 1618 0390 9AFA9AFA 		rev16	r10, r10
 445:Drivers/lvgl/src/extra/widgets/meter/../../../../src/hal/../draw/../misc/lv_color.h ****     c2.full = c2.full << 8 | c2.full >> 8;
 1619              		.loc 5 445 28 view .LVU576
 1620 0394 5BBA     		rev16	r3, r3
 447:Drivers/lvgl/src/extra/widgets/meter/../../../../src/hal/../draw/../misc/lv_color.h **** #endif
 448:Drivers/lvgl/src/extra/widgets/meter/../../../../src/hal/../draw/../misc/lv_color.h ****     /*Source: https://stackoverflow.com/a/50012418/1999969*/
 449:Drivers/lvgl/src/extra/widgets/meter/../../../../src/hal/../draw/../misc/lv_color.h ****     mix = (uint32_t)((uint32_t)mix + 4) >> 3;
 450:Drivers/lvgl/src/extra/widgets/meter/../../../../src/hal/../draw/../misc/lv_color.h ****     uint32_t bg = (uint32_t)((uint32_t)c2.full | ((uint32_t)c2.full << 16)) &
 1621              		.loc 5 450 19 view .LVU577
 1622 0396 4FEA0A42 		lsl	r2, r10, #16
 1623 039a 12FA8AFA 		uxtah	r10, r2, r10
 451:Drivers/lvgl/src/extra/widgets/meter/../../../../src/hal/../draw/../misc/lv_color.h ****                   0x7E0F81F; /*0b00000111111000001111100000011111*/
 452:Drivers/lvgl/src/extra/widgets/meter/../../../../src/hal/../draw/../misc/lv_color.h ****     uint32_t fg = (uint32_t)((uint32_t)c1.full | ((uint32_t)c1.full << 16)) & 0x7E0F81F;
 1624              		.loc 5 452 19 view .LVU578
 1625 039e 1A04     		lsls	r2, r3, #16
 1626 03a0 12FA83F3 		uxtah	r3, r2, r3
 450:Drivers/lvgl/src/extra/widgets/meter/../../../../src/hal/../draw/../misc/lv_color.h ****                   0x7E0F81F; /*0b00000111111000001111100000011111*/
 1627              		.loc 5 450 14 view .LVU579
 1628 03a4 2AF0784A 		bic	r10, r10, #-134217728
 1629              		.loc 5 452 14 view .LVU580
 1630 03a8 23F07843 		bic	r3, r3, #-134217728
 1631              	.LBE166:
 1632              	.LBE165:
 471:Drivers/lvgl/src/extra/widgets/meter/lv_meter.c ****                         }
 1633              		.loc 1 471 35 discriminator 1 view .LVU581
 1634 03ac C0B2     		uxtb	r0, r0
 1635              	.LVL149:
 473:Drivers/lvgl/src/extra/widgets/meter/lv_meter.c ****                     }
 1636              		.loc 1 473 25 is_stmt 1 view .LVU582
 1637              	.LBB168:
 1638              	.LBI165:
 439:Drivers/lvgl/src/extra/widgets/meter/../../../../src/hal/../draw/../misc/lv_color.h **** {
 1639              		.loc 5 439 48 view .LVU583
 1640              	.LBB167:
 441:Drivers/lvgl/src/extra/widgets/meter/../../../../src/hal/../draw/../misc/lv_color.h **** 
 1641              		.loc 5 441 5 view .LVU584
 445:Drivers/lvgl/src/extra/widgets/meter/../../../../src/hal/../draw/../misc/lv_color.h ****     c2.full = c2.full << 8 | c2.full >> 8;
 1642              		.loc 5 445 5 view .LVU585
 446:Drivers/lvgl/src/extra/widgets/meter/../../../../src/hal/../draw/../misc/lv_color.h **** #endif
 1643              		.loc 5 446 5 view .LVU586
 449:Drivers/lvgl/src/extra/widgets/meter/../../../../src/hal/../draw/../misc/lv_color.h ****     uint32_t bg = (uint32_t)((uint32_t)c2.full | ((uint32_t)c2.full << 16)) &
 1644              		.loc 5 449 5 view .LVU587
 450:Drivers/lvgl/src/extra/widgets/meter/../../../../src/hal/../draw/../misc/lv_color.h ****                   0x7E0F81F; /*0b00000111111000001111100000011111*/
 1645              		.loc 5 450 5 view .LVU588
 450:Drivers/lvgl/src/extra/widgets/meter/../../../../src/hal/../draw/../misc/lv_color.h ****                   0x7E0F81F; /*0b00000111111000001111100000011111*/
 1646              		.loc 5 450 14 is_stmt 0 view .LVU589
 1647 03ae 2AF4F81A 		bic	r10, r10, #2031616
 1648              		.loc 5 452 14 view .LVU590
 1649 03b2 23F4F813 		bic	r3, r3, #2031616
 450:Drivers/lvgl/src/extra/widgets/meter/../../../../src/hal/../draw/../misc/lv_color.h ****                   0x7E0F81F; /*0b00000111111000001111100000011111*/
ARM GAS  /var/folders/lp/x54gwt890xv47sdkqj1k04q40000gn/T//ccVgM3G4.s 			page 69


 1650              		.loc 5 450 14 view .LVU591
 1651 03b6 2AF4FC6A 		bic	r10, r10, #2016
 1652              	.LVL150:
 1653              		.loc 5 452 5 is_stmt 1 view .LVU592
 453:Drivers/lvgl/src/extra/widgets/meter/../../../../src/hal/../draw/../misc/lv_color.h ****     uint32_t result = ((((fg - bg) * mix) >> 5) + bg) & 0x7E0F81F;
 1654              		.loc 5 453 5 view .LVU593
 452:Drivers/lvgl/src/extra/widgets/meter/../../../../src/hal/../draw/../misc/lv_color.h ****     uint32_t result = ((((fg - bg) * mix) >> 5) + bg) & 0x7E0F81F;
 1655              		.loc 5 452 14 is_stmt 0 view .LVU594
 1656 03ba 23F4FC63 		bic	r3, r3, #2016
 449:Drivers/lvgl/src/extra/widgets/meter/../../../../src/hal/../draw/../misc/lv_color.h ****     uint32_t bg = (uint32_t)((uint32_t)c2.full | ((uint32_t)c2.full << 16)) &
 1657              		.loc 5 449 11 view .LVU595
 1658 03be 0430     		adds	r0, r0, #4
 1659              	.LVL151:
 1660              		.loc 5 453 30 view .LVU596
 1661 03c0 A3EB0A03 		sub	r3, r3, r10
 449:Drivers/lvgl/src/extra/widgets/meter/../../../../src/hal/../draw/../misc/lv_color.h ****     uint32_t bg = (uint32_t)((uint32_t)c2.full | ((uint32_t)c2.full << 16)) &
 1662              		.loc 5 449 41 view .LVU597
 1663 03c4 C008     		lsrs	r0, r0, #3
 1664              	.LVL152:
 1665              		.loc 5 453 36 view .LVU598
 1666 03c6 00FB03F3 		mul	r3, r0, r3
 1667              		.loc 5 453 49 view .LVU599
 1668 03ca 0AEB531A 		add	r10, r10, r3, lsr #5
 1669              	.LVL153:
 1670              		.loc 5 453 14 view .LVU600
 1671 03ce 2AF0784A 		bic	r10, r10, #-134217728
 1672 03d2 2AF4F81A 		bic	r10, r10, #2031616
 1673 03d6 2AF4FC6A 		bic	r10, r10, #2016
 1674              	.LVL154:
 454:Drivers/lvgl/src/extra/widgets/meter/../../../../src/hal/../draw/../misc/lv_color.h ****     ret.full = (uint16_t)((result >> 16) | result);
 1675              		.loc 5 454 5 is_stmt 1 view .LVU601
 455:Drivers/lvgl/src/extra/widgets/meter/../../../../src/hal/../draw/../misc/lv_color.h **** #if LV_COLOR_16_SWAP == 1
 456:Drivers/lvgl/src/extra/widgets/meter/../../../../src/hal/../draw/../misc/lv_color.h ****     ret.full = ret.full << 8 | ret.full >> 8;
 1676              		.loc 5 456 5 view .LVU602
 454:Drivers/lvgl/src/extra/widgets/meter/../../../../src/hal/../draw/../misc/lv_color.h ****     ret.full = (uint16_t)((result >> 16) | result);
 1677              		.loc 5 454 16 is_stmt 0 view .LVU603
 1678 03da 4AEA1A4A 		orr	r10, r10, r10, lsr #16
 1679              	.LVL155:
 1680              		.loc 5 456 30 view .LVU604
 1681 03de 9AFA9AFA 		rev16	r10, r10
 1682 03e2 1FFA8AFA 		uxth	r10, r10
 1683              	.LVL156:
 457:Drivers/lvgl/src/extra/widgets/meter/../../../../src/hal/../draw/../misc/lv_color.h **** #endif
 458:Drivers/lvgl/src/extra/widgets/meter/../../../../src/hal/../draw/../misc/lv_color.h **** #elif LV_COLOR_DEPTH != 1
 459:Drivers/lvgl/src/extra/widgets/meter/../../../../src/hal/../draw/../misc/lv_color.h ****     /*LV_COLOR_DEPTH == 8, 16 or 32*/
 460:Drivers/lvgl/src/extra/widgets/meter/../../../../src/hal/../draw/../misc/lv_color.h ****     LV_COLOR_SET_R(ret, LV_UDIV255((uint16_t)LV_COLOR_GET_R(c1) * mix + LV_COLOR_GET_R(c2) *
 461:Drivers/lvgl/src/extra/widgets/meter/../../../../src/hal/../draw/../misc/lv_color.h ****                                    (255 - mix) + LV_COLOR_MIX_ROUND_OFS));
 462:Drivers/lvgl/src/extra/widgets/meter/../../../../src/hal/../draw/../misc/lv_color.h ****     LV_COLOR_SET_G(ret, LV_UDIV255((uint16_t)LV_COLOR_GET_G(c1) * mix + LV_COLOR_GET_G(c2) *
 463:Drivers/lvgl/src/extra/widgets/meter/../../../../src/hal/../draw/../misc/lv_color.h ****                                    (255 - mix) + LV_COLOR_MIX_ROUND_OFS));
 464:Drivers/lvgl/src/extra/widgets/meter/../../../../src/hal/../draw/../misc/lv_color.h ****     LV_COLOR_SET_B(ret, LV_UDIV255((uint16_t)LV_COLOR_GET_B(c1) * mix + LV_COLOR_GET_B(c2) *
 465:Drivers/lvgl/src/extra/widgets/meter/../../../../src/hal/../draw/../misc/lv_color.h ****                                    (255 - mix) + LV_COLOR_MIX_ROUND_OFS));
 466:Drivers/lvgl/src/extra/widgets/meter/../../../../src/hal/../draw/../misc/lv_color.h ****     LV_COLOR_SET_A(ret, 0xFF);
 467:Drivers/lvgl/src/extra/widgets/meter/../../../../src/hal/../draw/../misc/lv_color.h **** #else
 468:Drivers/lvgl/src/extra/widgets/meter/../../../../src/hal/../draw/../misc/lv_color.h ****     /*LV_COLOR_DEPTH == 1*/
 469:Drivers/lvgl/src/extra/widgets/meter/../../../../src/hal/../draw/../misc/lv_color.h ****     ret.full = mix > LV_OPA_50 ? c1.full : c2.full;
 470:Drivers/lvgl/src/extra/widgets/meter/../../../../src/hal/../draw/../misc/lv_color.h **** #endif
 471:Drivers/lvgl/src/extra/widgets/meter/../../../../src/hal/../draw/../misc/lv_color.h **** 
ARM GAS  /var/folders/lp/x54gwt890xv47sdkqj1k04q40000gn/T//ccVgM3G4.s 			page 70


 472:Drivers/lvgl/src/extra/widgets/meter/../../../../src/hal/../draw/../misc/lv_color.h ****     return ret;
 1684              		.loc 5 472 5 is_stmt 1 view .LVU605
 1685              	.L34:
 1686              		.loc 5 472 5 is_stmt 0 view .LVU606
 1687              	.LBE167:
 1688              	.LBE168:
 1689              	.LBE169:
 457:Drivers/lvgl/src/extra/widgets/meter/lv_meter.c ****                 if(indic->type != LV_METER_INDICATOR_TYPE_SCALE_LINES) continue;
 1690              		.loc 1 457 13 is_stmt 1 discriminator 2 view .LVU607
 1691 03e6 2146     		mov	r1, r4
 1692 03e8 5846     		mov	r0, fp
 1693 03ea FFF7FEFF 		bl	_lv_ll_get_prev
 1694              	.LVL157:
 457:Drivers/lvgl/src/extra/widgets/meter/lv_meter.c ****                 if(indic->type != LV_METER_INDICATOR_TYPE_SCALE_LINES) continue;
 1695              		.loc 1 457 13 discriminator 1 view .LVU608
 1696 03ee 0446     		mov	r4, r0
 1697 03f0 0028     		cmp	r0, #0
 1698 03f2 A5D1     		bne	.L37
 1699              	.LVL158:
 1700              	.L33:
 478:Drivers/lvgl/src/extra/widgets/meter/lv_meter.c **** 
 1701              		.loc 1 478 13 view .LVU609
 478:Drivers/lvgl/src/extra/widgets/meter/lv_meter.c **** 
 1702              		.loc 1 478 48 is_stmt 0 view .LVU610
 1703 03f4 F28B     		ldrh	r2, [r6, #30]
 478:Drivers/lvgl/src/extra/widgets/meter/lv_meter.c **** 
 1704              		.loc 1 478 77 view .LVU611
 1705 03f6 7188     		ldrh	r1, [r6, #2]
 478:Drivers/lvgl/src/extra/widgets/meter/lv_meter.c **** 
 1706              		.loc 1 478 21 view .LVU612
 1707 03f8 348C     		ldrh	r4, [r6, #32]
 480:Drivers/lvgl/src/extra/widgets/meter/lv_meter.c ****             line_dsc.width = line_width;
 1708              		.loc 1 480 28 view .LVU613
 1709 03fa ADF87CA0 		strh	r10, [sp, #124]	@ movhi
 478:Drivers/lvgl/src/extra/widgets/meter/lv_meter.c **** 
 1710              		.loc 1 478 41 view .LVU614
 1711 03fe 07FB02F2 		mul	r2, r7, r2
 478:Drivers/lvgl/src/extra/widgets/meter/lv_meter.c **** 
 1712              		.loc 1 478 63 view .LVU615
 1713 0402 02EB8202 		add	r2, r2, r2, lsl #2
 478:Drivers/lvgl/src/extra/widgets/meter/lv_meter.c **** 
 1714              		.loc 1 478 88 view .LVU616
 1715 0406 4B1E     		subs	r3, r1, #1
 478:Drivers/lvgl/src/extra/widgets/meter/lv_meter.c **** 
 1716              		.loc 1 478 63 view .LVU617
 1717 0408 5200     		lsls	r2, r2, #1
 486:Drivers/lvgl/src/extra/widgets/meter/lv_meter.c ****             p_outer.y = p_center.y;
 1718              		.loc 1 486 36 view .LVU618
 1719 040a 0A99     		ldr	r1, [sp, #40]
 478:Drivers/lvgl/src/extra/widgets/meter/lv_meter.c **** 
 1720              		.loc 1 478 69 view .LVU619
 1721 040c 92FBF3F2 		sdiv	r2, r2, r3
 486:Drivers/lvgl/src/extra/widgets/meter/lv_meter.c ****             p_outer.y = p_center.y;
 1722              		.loc 1 486 36 view .LVU620
 1723 0410 BDF84430 		ldrh	r3, [sp, #68]
 481:Drivers/lvgl/src/extra/widgets/meter/lv_meter.c **** 
 1724              		.loc 1 481 28 view .LVU621
ARM GAS  /var/folders/lp/x54gwt890xv47sdkqj1k04q40000gn/T//ccVgM3G4.s 			page 71


 1725 0414 ADF87E90 		strh	r9, [sp, #126]	@ movhi
 486:Drivers/lvgl/src/extra/widgets/meter/lv_meter.c ****             p_outer.y = p_center.y;
 1726              		.loc 1 486 36 view .LVU622
 1727 0418 0B44     		add	r3, r3, r1
 486:Drivers/lvgl/src/extra/widgets/meter/lv_meter.c ****             p_outer.y = p_center.y;
 1728              		.loc 1 486 44 view .LVU623
 1729 041a 0C99     		ldr	r1, [sp, #48]
 1730 041c 0B44     		add	r3, r3, r1
 486:Drivers/lvgl/src/extra/widgets/meter/lv_meter.c ****             p_outer.y = p_center.y;
 1731              		.loc 1 486 23 view .LVU624
 1732 041e ADF84830 		strh	r3, [sp, #72]	@ movhi
 478:Drivers/lvgl/src/extra/widgets/meter/lv_meter.c **** 
 1733              		.loc 1 478 21 view .LVU625
 1734 0422 0A23     		movs	r3, #10
 1735 0424 14FB0324 		smlabb	r4, r4, r3, r2
 1736              	.LVL159:
 480:Drivers/lvgl/src/extra/widgets/meter/lv_meter.c ****             line_dsc.width = line_width;
 1737              		.loc 1 480 13 is_stmt 1 view .LVU626
 481:Drivers/lvgl/src/extra/widgets/meter/lv_meter.c **** 
 1738              		.loc 1 481 13 view .LVU627
 485:Drivers/lvgl/src/extra/widgets/meter/lv_meter.c ****             p_outer.x = p_center.x + r_out + LV_MAX(LV_DPI_DEF, r_out);
 1739              		.loc 1 485 13 view .LVU628
 486:Drivers/lvgl/src/extra/widgets/meter/lv_meter.c ****             p_outer.y = p_center.y;
 1740              		.loc 1 486 13 view .LVU629
 487:Drivers/lvgl/src/extra/widgets/meter/lv_meter.c ****             lv_point_transform(&p_outer, angle_upscale, 256, &p_center);
 1741              		.loc 1 487 13 view .LVU630
 487:Drivers/lvgl/src/extra/widgets/meter/lv_meter.c ****             lv_point_transform(&p_outer, angle_upscale, 256, &p_center);
 1742              		.loc 1 487 23 is_stmt 0 view .LVU631
 1743 0428 BDF84630 		ldrh	r3, [sp, #70]
 1744 042c ADF84A30 		strh	r3, [sp, #74]	@ movhi
 488:Drivers/lvgl/src/extra/widgets/meter/lv_meter.c **** 
 1745              		.loc 1 488 13 is_stmt 1 view .LVU632
 1746 0430 4FF48072 		mov	r2, #256
 1747 0434 11AB     		add	r3, sp, #68
 1748 0436 2146     		mov	r1, r4
 1749 0438 12A8     		add	r0, sp, #72
 1750              	.LVL160:
 488:Drivers/lvgl/src/extra/widgets/meter/lv_meter.c **** 
 1751              		.loc 1 488 13 is_stmt 0 view .LVU633
 1752 043a FFF7FEFF 		bl	lv_point_transform
 1753              	.LVL161:
 490:Drivers/lvgl/src/extra/widgets/meter/lv_meter.c ****             part_draw_dsc.p2 = &p_outer;
 1754              		.loc 1 490 13 is_stmt 1 view .LVU634
 490:Drivers/lvgl/src/extra/widgets/meter/lv_meter.c ****             part_draw_dsc.p2 = &p_outer;
 1755              		.loc 1 490 30 is_stmt 0 view .LVU635
 1756 043e 11AB     		add	r3, sp, #68
 1757 0440 5193     		str	r3, [sp, #324]
 491:Drivers/lvgl/src/extra/widgets/meter/lv_meter.c ****             part_draw_dsc.id = i;
 1758              		.loc 1 491 13 is_stmt 1 view .LVU636
 496:Drivers/lvgl/src/extra/widgets/meter/lv_meter.c ****                 lv_draw_mask_remove_id(outer_mask_id);
 1759              		.loc 1 496 15 is_stmt 0 view .LVU637
 1760 0442 069A     		ldr	r2, [sp, #24]
 492:Drivers/lvgl/src/extra/widgets/meter/lv_meter.c ****             part_draw_dsc.label_dsc = &label_dsc;
 1761              		.loc 1 492 30 view .LVU638
 1762 0444 5697     		str	r7, [sp, #344]
 491:Drivers/lvgl/src/extra/widgets/meter/lv_meter.c ****             part_draw_dsc.id = i;
 1763              		.loc 1 491 30 view .LVU639
ARM GAS  /var/folders/lp/x54gwt890xv47sdkqj1k04q40000gn/T//ccVgM3G4.s 			page 72


 1764 0446 12AB     		add	r3, sp, #72
 1765 0448 5293     		str	r3, [sp, #328]
 492:Drivers/lvgl/src/extra/widgets/meter/lv_meter.c ****             part_draw_dsc.label_dsc = &label_dsc;
 1766              		.loc 1 492 13 is_stmt 1 view .LVU640
 493:Drivers/lvgl/src/extra/widgets/meter/lv_meter.c **** 
 1767              		.loc 1 493 13 view .LVU641
 493:Drivers/lvgl/src/extra/widgets/meter/lv_meter.c **** 
 1768              		.loc 1 493 37 is_stmt 0 view .LVU642
 1769 044a 099B     		ldr	r3, [sp, #36]
 1770 044c 4D93     		str	r3, [sp, #308]
 496:Drivers/lvgl/src/extra/widgets/meter/lv_meter.c ****                 lv_draw_mask_remove_id(outer_mask_id);
 1771              		.loc 1 496 13 is_stmt 1 view .LVU643
 496:Drivers/lvgl/src/extra/widgets/meter/lv_meter.c ****                 lv_draw_mask_remove_id(outer_mask_id);
 1772              		.loc 1 496 15 is_stmt 0 view .LVU644
 1773 044e 002A     		cmp	r2, #0
 1774 0450 00F09D80 		beq	.L38
 1775              	.LBB170:
 497:Drivers/lvgl/src/extra/widgets/meter/lv_meter.c ****                 uint32_t r_text = r_in_major - scale->label_gap;
 1776              		.loc 1 497 17 is_stmt 1 view .LVU645
 1777 0454 0B98     		ldr	r0, [sp, #44]
 1778 0456 FFF7FEFF 		bl	lv_draw_mask_remove_id
 1779              	.LVL162:
 498:Drivers/lvgl/src/extra/widgets/meter/lv_meter.c ****                 lv_point_t p;
 1780              		.loc 1 498 17 view .LVU646
 499:Drivers/lvgl/src/extra/widgets/meter/lv_meter.c ****                 p.x = p_center.x + r_text;
 1781              		.loc 1 499 17 view .LVU647
 500:Drivers/lvgl/src/extra/widgets/meter/lv_meter.c ****                 p.y = p_center.y;
 1782              		.loc 1 500 17 view .LVU648
 498:Drivers/lvgl/src/extra/widgets/meter/lv_meter.c ****                 lv_point_t p;
 1783              		.loc 1 498 46 is_stmt 0 view .LVU649
 1784 045a 0E9A     		ldr	r2, [sp, #56]
 498:Drivers/lvgl/src/extra/widgets/meter/lv_meter.c ****                 lv_point_t p;
 1785              		.loc 1 498 53 view .LVU650
 1786 045c B6F91030 		ldrsh	r3, [r6, #16]
 498:Drivers/lvgl/src/extra/widgets/meter/lv_meter.c ****                 lv_point_t p;
 1787              		.loc 1 498 46 view .LVU651
 1788 0460 D31A     		subs	r3, r2, r3
 500:Drivers/lvgl/src/extra/widgets/meter/lv_meter.c ****                 p.y = p_center.y;
 1789              		.loc 1 500 34 view .LVU652
 1790 0462 BDF84420 		ldrh	r2, [sp, #68]
 1791 0466 1344     		add	r3, r3, r2
 500:Drivers/lvgl/src/extra/widgets/meter/lv_meter.c ****                 p.y = p_center.y;
 1792              		.loc 1 500 21 view .LVU653
 1793 0468 ADF84C30 		strh	r3, [sp, #76]	@ movhi
 501:Drivers/lvgl/src/extra/widgets/meter/lv_meter.c ****                 lv_point_transform(&p, angle_upscale, 256, &p_center);
 1794              		.loc 1 501 17 is_stmt 1 view .LVU654
 502:Drivers/lvgl/src/extra/widgets/meter/lv_meter.c **** 
 1795              		.loc 1 502 17 is_stmt 0 view .LVU655
 1796 046c 11AA     		add	r2, sp, #68
 501:Drivers/lvgl/src/extra/widgets/meter/lv_meter.c ****                 lv_point_transform(&p, angle_upscale, 256, &p_center);
 1797              		.loc 1 501 21 view .LVU656
 1798 046e BDF84630 		ldrh	r3, [sp, #70]
 1799 0472 ADF84E30 		strh	r3, [sp, #78]	@ movhi
 502:Drivers/lvgl/src/extra/widgets/meter/lv_meter.c **** 
 1800              		.loc 1 502 17 is_stmt 1 view .LVU657
 1801 0476 2146     		mov	r1, r4
 1802 0478 1346     		mov	r3, r2
ARM GAS  /var/folders/lp/x54gwt890xv47sdkqj1k04q40000gn/T//ccVgM3G4.s 			page 73


 1803 047a 13A8     		add	r0, sp, #76
 1804 047c 4FF48072 		mov	r2, #256
 1805 0480 FFF7FEFF 		bl	lv_point_transform
 1806              	.LVL163:
 504:Drivers/lvgl/src/extra/widgets/meter/lv_meter.c ****                 lv_memcpy(&label_dsc_tmp, &label_dsc, sizeof(label_dsc_tmp));
 1807              		.loc 1 504 17 view .LVU658
 505:Drivers/lvgl/src/extra/widgets/meter/lv_meter.c **** 
 1808              		.loc 1 505 17 view .LVU659
 1809 0484 0999     		ldr	r1, [sp, #36]
 1810 0486 2022     		movs	r2, #32
 1811 0488 40A8     		add	r0, sp, #256
 1812 048a FFF7FEFF 		bl	lv_memcpy
 1813              	.LVL164:
 507:Drivers/lvgl/src/extra/widgets/meter/lv_meter.c ****                 char buf[16];
 1814              		.loc 1 507 17 view .LVU660
 510:Drivers/lvgl/src/extra/widgets/meter/lv_meter.c ****                 part_draw_dsc.text = buf;
 1815              		.loc 1 510 17 is_stmt 0 view .LVU661
 1816 048e 22AC     		add	r4, sp, #136
 1817              	.LVL165:
 507:Drivers/lvgl/src/extra/widgets/meter/lv_meter.c ****                 char buf[16];
 1818              		.loc 1 507 41 view .LVU662
 1819 0490 40AA     		add	r2, sp, #256
 510:Drivers/lvgl/src/extra/widgets/meter/lv_meter.c ****                 part_draw_dsc.text = buf;
 1820              		.loc 1 510 17 view .LVU663
 1821 0492 2B46     		mov	r3, r5
 507:Drivers/lvgl/src/extra/widgets/meter/lv_meter.c ****                 char buf[16];
 1822              		.loc 1 507 41 view .LVU664
 1823 0494 4D92     		str	r2, [sp, #308]
 508:Drivers/lvgl/src/extra/widgets/meter/lv_meter.c **** 
 1824              		.loc 1 508 17 is_stmt 1 view .LVU665
 510:Drivers/lvgl/src/extra/widgets/meter/lv_meter.c ****                 part_draw_dsc.text = buf;
 1825              		.loc 1 510 17 view .LVU666
 1826 0496 1021     		movs	r1, #16
 1827 0498 6E4A     		ldr	r2, .L74
 1828 049a 2046     		mov	r0, r4
 1829 049c FFF7FEFF 		bl	lv_snprintf
 1830              	.LVL166:
 511:Drivers/lvgl/src/extra/widgets/meter/lv_meter.c **** 
 1831              		.loc 1 511 17 view .LVU667
 513:Drivers/lvgl/src/extra/widgets/meter/lv_meter.c **** 
 1832              		.loc 1 513 17 is_stmt 0 view .LVU668
 1833 04a0 48AA     		add	r2, sp, #288
 1834 04a2 1A21     		movs	r1, #26
 1835 04a4 0798     		ldr	r0, [sp, #28]
 511:Drivers/lvgl/src/extra/widgets/meter/lv_meter.c **** 
 1836              		.loc 1 511 36 view .LVU669
 1837 04a6 5394     		str	r4, [sp, #332]
 513:Drivers/lvgl/src/extra/widgets/meter/lv_meter.c **** 
 1838              		.loc 1 513 17 is_stmt 1 view .LVU670
 1839 04a8 FFF7FEFF 		bl	lv_event_send
 1840              	.LVL167:
 515:Drivers/lvgl/src/extra/widgets/meter/lv_meter.c ****                 lv_txt_get_size(&label_size, part_draw_dsc.text, label_dsc_tmp.font, label_dsc_tmp.
 1841              		.loc 1 515 17 view .LVU671
 516:Drivers/lvgl/src/extra/widgets/meter/lv_meter.c ****                                 label_dsc_tmp.line_space,
 1842              		.loc 1 516 17 view .LVU672
 1843 04ac 0023     		movs	r3, #0
 1844 04ae 0293     		str	r3, [sp, #8]
ARM GAS  /var/folders/lp/x54gwt890xv47sdkqj1k04q40000gn/T//ccVgM3G4.s 			page 74


 1845 04b0 BDF91231 		ldrsh	r3, [sp, #274]
 1846 04b4 0093     		str	r3, [sp]
 1847 04b6 41F6FF73 		movw	r3, #8191
 1848 04ba 409A     		ldr	r2, [sp, #256]
 1849 04bc 5399     		ldr	r1, [sp, #332]
 1850 04be 0193     		str	r3, [sp, #4]
 1851 04c0 14A8     		add	r0, sp, #80
 1852 04c2 BDF91431 		ldrsh	r3, [sp, #276]
 1853 04c6 FFF7FEFF 		bl	lv_txt_get_size
 1854              	.LVL168:
 520:Drivers/lvgl/src/extra/widgets/meter/lv_meter.c ****                 label_cord.x1 = p.x - label_size.x / 2;
 1855              		.loc 1 520 17 view .LVU673
 521:Drivers/lvgl/src/extra/widgets/meter/lv_meter.c ****                 label_cord.y1 = p.y - label_size.y / 2;
 1856              		.loc 1 521 17 view .LVU674
 521:Drivers/lvgl/src/extra/widgets/meter/lv_meter.c ****                 label_cord.y1 = p.y - label_size.y / 2;
 1857              		.loc 1 521 49 is_stmt 0 view .LVU675
 1858 04ca BDF95000 		ldrsh	r0, [sp, #80]
 521:Drivers/lvgl/src/extra/widgets/meter/lv_meter.c ****                 label_cord.y1 = p.y - label_size.y / 2;
 1859              		.loc 1 521 37 view .LVU676
 1860 04ce BDF84C20 		ldrh	r2, [sp, #76]
 522:Drivers/lvgl/src/extra/widgets/meter/lv_meter.c ****                 label_cord.x2 = label_cord.x1 + label_size.x;
 1861              		.loc 1 522 49 view .LVU677
 1862 04d2 BDF95210 		ldrsh	r1, [sp, #82]
 521:Drivers/lvgl/src/extra/widgets/meter/lv_meter.c ****                 label_cord.y1 = p.y - label_size.y / 2;
 1863              		.loc 1 521 37 view .LVU678
 1864 04d6 00EBD074 		add	r4, r0, r0, lsr #31
 526:Drivers/lvgl/src/extra/widgets/meter/lv_meter.c **** 
 1865              		.loc 1 526 17 view .LVU679
 1866 04da 0023     		movs	r3, #0
 521:Drivers/lvgl/src/extra/widgets/meter/lv_meter.c ****                 label_cord.y1 = p.y - label_size.y / 2;
 1867              		.loc 1 521 37 view .LVU680
 1868 04dc A2EB6402 		sub	r2, r2, r4, asr #1
 1869 04e0 92B2     		uxth	r2, r2
 526:Drivers/lvgl/src/extra/widgets/meter/lv_meter.c **** 
 1870              		.loc 1 526 17 view .LVU681
 1871 04e2 0093     		str	r3, [sp]
 522:Drivers/lvgl/src/extra/widgets/meter/lv_meter.c ****                 label_cord.x2 = label_cord.x1 + label_size.x;
 1872              		.loc 1 522 37 view .LVU682
 1873 04e4 BDF84E30 		ldrh	r3, [sp, #78]
 521:Drivers/lvgl/src/extra/widgets/meter/lv_meter.c ****                 label_cord.y1 = p.y - label_size.y / 2;
 1874              		.loc 1 521 31 view .LVU683
 1875 04e8 ADF87420 		strh	r2, [sp, #116]	@ movhi
 522:Drivers/lvgl/src/extra/widgets/meter/lv_meter.c ****                 label_cord.x2 = label_cord.x1 + label_size.x;
 1876              		.loc 1 522 17 is_stmt 1 view .LVU684
 523:Drivers/lvgl/src/extra/widgets/meter/lv_meter.c ****                 label_cord.y2 = label_cord.y1 + label_size.y;
 1877              		.loc 1 523 47 is_stmt 0 view .LVU685
 1878 04ec 1044     		add	r0, r0, r2
 522:Drivers/lvgl/src/extra/widgets/meter/lv_meter.c ****                 label_cord.x2 = label_cord.x1 + label_size.x;
 1879              		.loc 1 522 37 view .LVU686
 1880 04ee 01EBD172 		add	r2, r1, r1, lsr #31
 1881 04f2 A3EB6203 		sub	r3, r3, r2, asr #1
 1882 04f6 9BB2     		uxth	r3, r3
 524:Drivers/lvgl/src/extra/widgets/meter/lv_meter.c **** 
 1883              		.loc 1 524 47 view .LVU687
 1884 04f8 1944     		add	r1, r1, r3
 523:Drivers/lvgl/src/extra/widgets/meter/lv_meter.c ****                 label_cord.y2 = label_cord.y1 + label_size.y;
 1885              		.loc 1 523 31 view .LVU688
ARM GAS  /var/folders/lp/x54gwt890xv47sdkqj1k04q40000gn/T//ccVgM3G4.s 			page 75


 1886 04fa ADF87800 		strh	r0, [sp, #120]	@ movhi
 522:Drivers/lvgl/src/extra/widgets/meter/lv_meter.c ****                 label_cord.x2 = label_cord.x1 + label_size.x;
 1887              		.loc 1 522 31 view .LVU689
 1888 04fe ADF87630 		strh	r3, [sp, #118]	@ movhi
 523:Drivers/lvgl/src/extra/widgets/meter/lv_meter.c ****                 label_cord.y2 = label_cord.y1 + label_size.y;
 1889              		.loc 1 523 17 is_stmt 1 view .LVU690
 524:Drivers/lvgl/src/extra/widgets/meter/lv_meter.c **** 
 1890              		.loc 1 524 17 view .LVU691
 526:Drivers/lvgl/src/extra/widgets/meter/lv_meter.c **** 
 1891              		.loc 1 526 17 is_stmt 0 view .LVU692
 1892 0502 0898     		ldr	r0, [sp, #32]
 1893 0504 539B     		ldr	r3, [sp, #332]
 524:Drivers/lvgl/src/extra/widgets/meter/lv_meter.c **** 
 1894              		.loc 1 524 31 view .LVU693
 1895 0506 ADF87A10 		strh	r1, [sp, #122]	@ movhi
 526:Drivers/lvgl/src/extra/widgets/meter/lv_meter.c **** 
 1896              		.loc 1 526 17 is_stmt 1 view .LVU694
 1897 050a 1DAA     		add	r2, sp, #116
 1898 050c 4D99     		ldr	r1, [sp, #308]
 1899 050e FFF7FEFF 		bl	lv_draw_label
 1900              	.LVL169:
 528:Drivers/lvgl/src/extra/widgets/meter/lv_meter.c ****             }
 1901              		.loc 1 528 17 view .LVU695
 528:Drivers/lvgl/src/extra/widgets/meter/lv_meter.c ****             }
 1902              		.loc 1 528 33 is_stmt 0 view .LVU696
 1903 0512 0021     		movs	r1, #0
 1904 0514 32A8     		add	r0, sp, #200
 1905 0516 FFF7FEFF 		bl	lv_draw_mask_add
 1906              	.LVL170:
 1907 051a 0B90     		str	r0, [sp, #44]
 1908              	.LVL171:
 528:Drivers/lvgl/src/extra/widgets/meter/lv_meter.c ****             }
 1909              		.loc 1 528 33 view .LVU697
 1910              	.LBE170:
 536:Drivers/lvgl/src/extra/widgets/meter/lv_meter.c ****             lv_draw_line(draw_ctx, &line_dsc, &p_outer, &p_center);
 1911              		.loc 1 536 13 is_stmt 1 view .LVU698
 536:Drivers/lvgl/src/extra/widgets/meter/lv_meter.c ****             lv_draw_line(draw_ctx, &line_dsc, &p_outer, &p_center);
 1912              		.loc 1 536 33 is_stmt 0 discriminator 1 view .LVU699
 1913 051c 2CA8     		add	r0, sp, #176
 1914              	.LVL172:
 1915              	.L39:
 536:Drivers/lvgl/src/extra/widgets/meter/lv_meter.c ****             lv_draw_line(draw_ctx, &line_dsc, &p_outer, &p_center);
 1916              		.loc 1 536 33 discriminator 4 view .LVU700
 1917 051e 0021     		movs	r1, #0
 1918 0520 FFF7FEFF 		bl	lv_draw_mask_add
 1919              	.LVL173:
 537:Drivers/lvgl/src/extra/widgets/meter/lv_meter.c ****             lv_draw_mask_remove_id(inner_act_mask_id);
 1920              		.loc 1 537 13 view .LVU701
 1921 0524 11AB     		add	r3, sp, #68
 1922 0526 12AA     		add	r2, sp, #72
 1923 0528 1FA9     		add	r1, sp, #124
 536:Drivers/lvgl/src/extra/widgets/meter/lv_meter.c ****             lv_draw_line(draw_ctx, &line_dsc, &p_outer, &p_center);
 1924              		.loc 1 536 33 discriminator 4 view .LVU702
 1925 052a 0446     		mov	r4, r0
 1926              	.LVL174:
 537:Drivers/lvgl/src/extra/widgets/meter/lv_meter.c ****             lv_draw_mask_remove_id(inner_act_mask_id);
 1927              		.loc 1 537 13 is_stmt 1 view .LVU703
ARM GAS  /var/folders/lp/x54gwt890xv47sdkqj1k04q40000gn/T//ccVgM3G4.s 			page 76


 1928 052c 0898     		ldr	r0, [sp, #32]
 1929 052e FFF7FEFF 		bl	lv_draw_line
 1930              	.LVL175:
 538:Drivers/lvgl/src/extra/widgets/meter/lv_meter.c ****             lv_event_send(obj, LV_EVENT_DRAW_MAIN_END, &part_draw_dsc);
 1931              		.loc 1 538 13 view .LVU704
 1932 0532 2046     		mov	r0, r4
 1933 0534 FFF7FEFF 		bl	lv_draw_mask_remove_id
 1934              	.LVL176:
 539:Drivers/lvgl/src/extra/widgets/meter/lv_meter.c **** 
 1935              		.loc 1 539 13 view .LVU705
 1936 0538 48AA     		add	r2, sp, #288
 1937 053a 0798     		ldr	r0, [sp, #28]
 1938 053c 1621     		movs	r1, #22
 1939 053e FFF7FEFF 		bl	lv_event_send
 1940              	.LVL177:
 541:Drivers/lvgl/src/extra/widgets/meter/lv_meter.c ****             line_dsc.width = line_width_ori;
 1941              		.loc 1 541 13 view .LVU706
 541:Drivers/lvgl/src/extra/widgets/meter/lv_meter.c ****             line_dsc.width = line_width_ori;
 1942              		.loc 1 541 28 is_stmt 0 view .LVU707
 1943 0542 049B     		ldr	r3, [sp, #16]
 1944              	.LBE171:
 439:Drivers/lvgl/src/extra/widgets/meter/lv_meter.c ****             minor_cnt++;
 1945              		.loc 1 439 29 discriminator 1 view .LVU708
 1946 0544 7288     		ldrh	r2, [r6, #2]
 1947              	.LBB172:
 541:Drivers/lvgl/src/extra/widgets/meter/lv_meter.c ****             line_dsc.width = line_width_ori;
 1948              		.loc 1 541 28 view .LVU709
 1949 0546 ADF87C30 		strh	r3, [sp, #124]	@ movhi
 542:Drivers/lvgl/src/extra/widgets/meter/lv_meter.c **** 
 1950              		.loc 1 542 13 is_stmt 1 view .LVU710
 1951              	.LBE172:
 439:Drivers/lvgl/src/extra/widgets/meter/lv_meter.c ****             minor_cnt++;
 1952              		.loc 1 439 22 is_stmt 0 discriminator 1 view .LVU711
 1953 054a 0137     		adds	r7, r7, #1
 1954              	.LVL178:
 1955              	.LBB173:
 542:Drivers/lvgl/src/extra/widgets/meter/lv_meter.c **** 
 1956              		.loc 1 542 28 view .LVU712
 1957 054c 059B     		ldr	r3, [sp, #20]
 1958 054e ADF87E30 		strh	r3, [sp, #126]	@ movhi
 1959              	.LVL179:
 542:Drivers/lvgl/src/extra/widgets/meter/lv_meter.c **** 
 1960              		.loc 1 542 28 view .LVU713
 1961              	.LBE173:
 439:Drivers/lvgl/src/extra/widgets/meter/lv_meter.c ****             minor_cnt++;
 1962              		.loc 1 439 42 is_stmt 1 discriminator 2 view .LVU714
 439:Drivers/lvgl/src/extra/widgets/meter/lv_meter.c ****             minor_cnt++;
 1963              		.loc 1 439 22 discriminator 1 view .LVU715
 1964 0552 BBB2     		uxth	r3, r7
 1965 0554 9A42     		cmp	r2, r3
 1966 0556 24D9     		bls	.L30
 1967              	.LBB174:
 442:Drivers/lvgl/src/extra/widgets/meter/lv_meter.c ****                 minor_cnt = 0;
 1968              		.loc 1 442 34 is_stmt 0 view .LVU716
 1969 0558 7189     		ldrh	r1, [r6, #10]
 1970              	.LVL180:
 440:Drivers/lvgl/src/extra/widgets/meter/lv_meter.c ****             bool major = false;
ARM GAS  /var/folders/lp/x54gwt890xv47sdkqj1k04q40000gn/T//ccVgM3G4.s 			page 77


 1971              		.loc 1 440 13 is_stmt 1 view .LVU717
 440:Drivers/lvgl/src/extra/widgets/meter/lv_meter.c ****             bool major = false;
 1972              		.loc 1 440 22 is_stmt 0 view .LVU718
 1973 055a 08F10108 		add	r8, r8, #1
 1974              	.LVL181:
 441:Drivers/lvgl/src/extra/widgets/meter/lv_meter.c ****             if(minor_cnt == scale->tick_major_nth) {
 1975              		.loc 1 441 13 is_stmt 1 view .LVU719
 442:Drivers/lvgl/src/extra/widgets/meter/lv_meter.c ****                 minor_cnt = 0;
 1976              		.loc 1 442 13 view .LVU720
 442:Drivers/lvgl/src/extra/widgets/meter/lv_meter.c ****                 minor_cnt = 0;
 1977              		.loc 1 442 15 is_stmt 0 view .LVU721
 1978 055e 8845     		cmp	r8, r1
 447:Drivers/lvgl/src/extra/widgets/meter/lv_meter.c ****             part_draw_dsc.value = value_of_line;
 1979              		.loc 1 447 37 view .LVU722
 1980 0560 D6E90530 		ldrd	r3, r0, [r6, #20]
 447:Drivers/lvgl/src/extra/widgets/meter/lv_meter.c ****             part_draw_dsc.value = value_of_line;
 1981              		.loc 1 447 66 view .LVU723
 1982 0564 02F1FF32 		add	r2, r2, #-1
 442:Drivers/lvgl/src/extra/widgets/meter/lv_meter.c ****                 minor_cnt = 0;
 1983              		.loc 1 442 15 view .LVU724
 1984 0568 7FF4D1AE 		bne	.L63
 1985              	.LVL182:
 1986              	.L68:
 443:Drivers/lvgl/src/extra/widgets/meter/lv_meter.c ****                 major = true;
 1987              		.loc 1 443 17 is_stmt 1 view .LVU725
 444:Drivers/lvgl/src/extra/widgets/meter/lv_meter.c ****             }
 1988              		.loc 1 444 17 view .LVU726
 447:Drivers/lvgl/src/extra/widgets/meter/lv_meter.c ****             part_draw_dsc.value = value_of_line;
 1989              		.loc 1 447 13 view .LVU727
 447:Drivers/lvgl/src/extra/widgets/meter/lv_meter.c ****             part_draw_dsc.value = value_of_line;
 1990              		.loc 1 447 37 is_stmt 0 view .LVU728
 1991 056c 0090     		str	r0, [sp]
 1992 056e 0021     		movs	r1, #0
 1993 0570 3846     		mov	r0, r7
 1994 0572 FFF7FEFF 		bl	lv_map
 1995              	.LVL183:
 450:Drivers/lvgl/src/extra/widgets/meter/lv_meter.c ****             lv_color_t line_color_ori = line_color;
 1996              		.loc 1 450 24 discriminator 1 view .LVU729
 1997 0576 3389     		ldrh	r3, [r6, #8]
 1998 0578 0493     		str	r3, [sp, #16]
 453:Drivers/lvgl/src/extra/widgets/meter/lv_meter.c ****             lv_coord_t line_width = line_width_ori;
 1999              		.loc 1 453 24 discriminator 1 view .LVU730
 2000 057a B6F90E30 		ldrsh	r3, [r6, #14]
 2001 057e 0593     		str	r3, [sp, #20]
 444:Drivers/lvgl/src/extra/widgets/meter/lv_meter.c ****             }
 2002              		.loc 1 444 23 view .LVU731
 2003 0580 0123     		movs	r3, #1
 447:Drivers/lvgl/src/extra/widgets/meter/lv_meter.c ****             part_draw_dsc.value = value_of_line;
 2004              		.loc 1 447 37 view .LVU732
 2005 0582 0546     		mov	r5, r0
 2006              	.LVL184:
 448:Drivers/lvgl/src/extra/widgets/meter/lv_meter.c **** 
 2007              		.loc 1 448 13 is_stmt 1 view .LVU733
 448:Drivers/lvgl/src/extra/widgets/meter/lv_meter.c **** 
 2008              		.loc 1 448 33 is_stmt 0 view .LVU734
 2009 0584 5890     		str	r0, [sp, #352]
 450:Drivers/lvgl/src/extra/widgets/meter/lv_meter.c ****             lv_color_t line_color_ori = line_color;
ARM GAS  /var/folders/lp/x54gwt890xv47sdkqj1k04q40000gn/T//ccVgM3G4.s 			page 78


 2010              		.loc 1 450 13 is_stmt 1 view .LVU735
 2011              	.LVL185:
 451:Drivers/lvgl/src/extra/widgets/meter/lv_meter.c **** 
 2012              		.loc 1 451 13 view .LVU736
 453:Drivers/lvgl/src/extra/widgets/meter/lv_meter.c ****             lv_coord_t line_width = line_width_ori;
 2013              		.loc 1 453 13 view .LVU737
 443:Drivers/lvgl/src/extra/widgets/meter/lv_meter.c ****                 major = true;
 2014              		.loc 1 443 27 is_stmt 0 view .LVU738
 2015 0586 4FF00008 		mov	r8, #0
 444:Drivers/lvgl/src/extra/widgets/meter/lv_meter.c ****             }
 2016              		.loc 1 444 23 view .LVU739
 2017 058a 0693     		str	r3, [sp, #24]
 2018 058c CDE6     		b	.L47
 2019              	.LVL186:
 2020              	.L38:
 531:Drivers/lvgl/src/extra/widgets/meter/lv_meter.c ****                 part_draw_dsc.text = NULL;
 2021              		.loc 1 531 17 is_stmt 1 view .LVU740
 531:Drivers/lvgl/src/extra/widgets/meter/lv_meter.c ****                 part_draw_dsc.text = NULL;
 2022              		.loc 1 531 41 is_stmt 0 view .LVU741
 2023 058e 069B     		ldr	r3, [sp, #24]
 533:Drivers/lvgl/src/extra/widgets/meter/lv_meter.c ****             }
 2024              		.loc 1 533 17 view .LVU742
 2025 0590 0798     		ldr	r0, [sp, #28]
 531:Drivers/lvgl/src/extra/widgets/meter/lv_meter.c ****                 part_draw_dsc.text = NULL;
 2026              		.loc 1 531 41 view .LVU743
 2027 0592 4D93     		str	r3, [sp, #308]
 532:Drivers/lvgl/src/extra/widgets/meter/lv_meter.c ****                 lv_event_send(obj, LV_EVENT_DRAW_PART_BEGIN, &part_draw_dsc);
 2028              		.loc 1 532 17 is_stmt 1 view .LVU744
 533:Drivers/lvgl/src/extra/widgets/meter/lv_meter.c ****             }
 2029              		.loc 1 533 17 is_stmt 0 view .LVU745
 2030 0594 48AA     		add	r2, sp, #288
 2031 0596 1A21     		movs	r1, #26
 532:Drivers/lvgl/src/extra/widgets/meter/lv_meter.c ****                 lv_event_send(obj, LV_EVENT_DRAW_PART_BEGIN, &part_draw_dsc);
 2032              		.loc 1 532 36 view .LVU746
 2033 0598 5393     		str	r3, [sp, #332]
 533:Drivers/lvgl/src/extra/widgets/meter/lv_meter.c ****             }
 2034              		.loc 1 533 17 is_stmt 1 view .LVU747
 2035 059a FFF7FEFF 		bl	lv_event_send
 2036              	.LVL187:
 536:Drivers/lvgl/src/extra/widgets/meter/lv_meter.c ****             lv_draw_line(draw_ctx, &line_dsc, &p_outer, &p_center);
 2037              		.loc 1 536 13 view .LVU748
 536:Drivers/lvgl/src/extra/widgets/meter/lv_meter.c ****             lv_draw_line(draw_ctx, &line_dsc, &p_outer, &p_center);
 2038              		.loc 1 536 33 is_stmt 0 discriminator 2 view .LVU749
 2039 059e 0D98     		ldr	r0, [sp, #52]
 2040 05a0 BDE7     		b	.L39
 2041              	.LVL188:
 2042              	.L30:
 536:Drivers/lvgl/src/extra/widgets/meter/lv_meter.c ****             lv_draw_line(draw_ctx, &line_dsc, &p_outer, &p_center);
 2043              		.loc 1 536 33 discriminator 2 view .LVU750
 2044              	.LBE174:
 545:Drivers/lvgl/src/extra/widgets/meter/lv_meter.c ****         lv_draw_mask_free_param(&inner_major_mask);
 2045              		.loc 1 545 9 is_stmt 1 view .LVU751
 2046 05a2 0D98     		ldr	r0, [sp, #52]
 2047 05a4 FFF7FEFF 		bl	lv_draw_mask_free_param
 2048              	.LVL189:
 546:Drivers/lvgl/src/extra/widgets/meter/lv_meter.c ****         lv_draw_mask_free_param(&outer_mask);
 2049              		.loc 1 546 9 view .LVU752
ARM GAS  /var/folders/lp/x54gwt890xv47sdkqj1k04q40000gn/T//ccVgM3G4.s 			page 79


 2050 05a8 2CA8     		add	r0, sp, #176
 2051 05aa FFF7FEFF 		bl	lv_draw_mask_free_param
 2052              	.LVL190:
 547:Drivers/lvgl/src/extra/widgets/meter/lv_meter.c ****         lv_draw_mask_remove_id(outer_mask_id);
 2053              		.loc 1 547 9 view .LVU753
 2054 05ae 32A8     		add	r0, sp, #200
 2055 05b0 FFF7FEFF 		bl	lv_draw_mask_free_param
 2056              	.LVL191:
 548:Drivers/lvgl/src/extra/widgets/meter/lv_meter.c ****     }
 2057              		.loc 1 548 9 view .LVU754
 2058 05b4 0B98     		ldr	r0, [sp, #44]
 2059 05b6 FFF7FEFF 		bl	lv_draw_mask_remove_id
 2060              	.LVL192:
 2061              	.LBE162:
 406:Drivers/lvgl/src/extra/widgets/meter/lv_meter.c ****         part_draw_dsc.sub_part_ptr = scale;
 2062              		.loc 1 406 5 discriminator 2 view .LVU755
 2063 05ba 3146     		mov	r1, r6
 2064 05bc 0F98     		ldr	r0, [sp, #60]
 2065 05be FFF7FEFF 		bl	_lv_ll_get_prev
 2066              	.LVL193:
 406:Drivers/lvgl/src/extra/widgets/meter/lv_meter.c ****         part_draw_dsc.sub_part_ptr = scale;
 2067              		.loc 1 406 5 discriminator 1 view .LVU756
 2068 05c2 0646     		mov	r6, r0
 2069 05c4 0028     		cmp	r0, #0
 2070 05c6 7FF42EAE 		bne	.L22
 2071              	.LVL194:
 2072              	.L23:
 406:Drivers/lvgl/src/extra/widgets/meter/lv_meter.c ****         part_draw_dsc.sub_part_ptr = scale;
 2073              		.loc 1 406 5 is_stmt 0 discriminator 1 view .LVU757
 2074              	.LBE153:
 2075              	.LBE152:
 305:Drivers/lvgl/src/extra/widgets/meter/lv_meter.c **** 
 2076              		.loc 1 305 9 is_stmt 1 view .LVU758
 2077              	.LBB177:
 2078              	.LBB178:
 2079              	.LBB179:
 2080              	.LBB180:
 125:Drivers/lvgl/src/extra/widgets/meter/../../../../src/hal/../draw/../misc/../font/../misc/lv_area.h **** }
 2081              		.loc 3 125 49 is_stmt 0 view .LVU759
 2082 05ca BDF85830 		ldrh	r3, [sp, #88]
 125:Drivers/lvgl/src/extra/widgets/meter/../../../../src/hal/../draw/../misc/../font/../misc/lv_area.h **** }
 2083              		.loc 3 125 44 view .LVU760
 2084 05ce BDF85420 		ldrh	r2, [sp, #84]
 2085              	.LBE180:
 2086              	.LBE179:
 563:Drivers/lvgl/src/extra/widgets/meter/lv_meter.c ****     lv_obj_init_draw_line_dsc(obj, LV_PART_ITEMS, &line_dsc);
 2087              		.loc 1 563 5 view .LVU761
 2088 05d2 099C     		ldr	r4, [sp, #36]
 2089              	.LBB183:
 2090              	.LBB181:
 125:Drivers/lvgl/src/extra/widgets/meter/../../../../src/hal/../draw/../misc/../font/../misc/lv_area.h **** }
 2091              		.loc 3 125 49 view .LVU762
 2092 05d4 0133     		adds	r3, r3, #1
 2093 05d6 9B1A     		subs	r3, r3, r2
 2094              	.LBE181:
 2095              	.LBE183:
 557:Drivers/lvgl/src/extra/widgets/meter/lv_meter.c ****     lv_point_t scale_center;
ARM GAS  /var/folders/lp/x54gwt890xv47sdkqj1k04q40000gn/T//ccVgM3G4.s 			page 80


 2096              		.loc 1 557 16 discriminator 1 view .LVU763
 2097 05d8 C3F3C031 		ubfx	r1, r3, #15, #1
 2098 05dc 01FA83F3 		sxtah	r3, r1, r3
 559:Drivers/lvgl/src/extra/widgets/meter/lv_meter.c ****     scale_center.y = scale_area->y1 + r_edge;
 2099              		.loc 1 559 37 view .LVU764
 2100 05e0 C3F34F07 		ubfx	r7, r3, #1, #16
 2101 05e4 BDF95630 		ldrsh	r3, [sp, #86]
 2102              	.LVL195:
 559:Drivers/lvgl/src/extra/widgets/meter/lv_meter.c ****     scale_center.y = scale_area->y1 + r_edge;
 2103              		.loc 1 559 37 view .LVU765
 2104              	.LBE178:
 2105              	.LBI177:
 553:Drivers/lvgl/src/extra/widgets/meter/lv_meter.c **** {
 2106              		.loc 1 553 13 is_stmt 1 view .LVU766
 2107              	.LBB197:
 555:Drivers/lvgl/src/extra/widgets/meter/lv_meter.c **** 
 2108              		.loc 1 555 5 view .LVU767
 557:Drivers/lvgl/src/extra/widgets/meter/lv_meter.c ****     lv_point_t scale_center;
 2109              		.loc 1 557 5 view .LVU768
 2110              	.LBB184:
 2111              	.LBI179:
 123:Drivers/lvgl/src/extra/widgets/meter/../../../../src/hal/../draw/../misc/../font/../misc/lv_area.h **** {
 2112              		.loc 3 123 26 view .LVU769
 2113              	.LBB182:
 125:Drivers/lvgl/src/extra/widgets/meter/../../../../src/hal/../draw/../misc/../font/../misc/lv_area.h **** }
 2114              		.loc 3 125 5 view .LVU770
 125:Drivers/lvgl/src/extra/widgets/meter/../../../../src/hal/../draw/../misc/../font/../misc/lv_area.h **** }
 2115              		.loc 3 125 5 is_stmt 0 view .LVU771
 2116              	.LBE182:
 2117              	.LBE184:
 558:Drivers/lvgl/src/extra/widgets/meter/lv_meter.c ****     scale_center.x = scale_area->x1 + r_edge;
 2118              		.loc 1 558 5 is_stmt 1 view .LVU772
 559:Drivers/lvgl/src/extra/widgets/meter/lv_meter.c ****     scale_center.y = scale_area->y1 + r_edge;
 2119              		.loc 1 559 5 view .LVU773
 560:Drivers/lvgl/src/extra/widgets/meter/lv_meter.c **** 
 2120              		.loc 1 560 5 view .LVU774
 559:Drivers/lvgl/src/extra/widgets/meter/lv_meter.c ****     scale_center.y = scale_area->y1 + r_edge;
 2121              		.loc 1 559 37 is_stmt 0 view .LVU775
 2122 05e8 3A44     		add	r2, r2, r7
 2123              	.LVL196:
 560:Drivers/lvgl/src/extra/widgets/meter/lv_meter.c **** 
 2124              		.loc 1 560 37 view .LVU776
 2125 05ea 3B44     		add	r3, r3, r7
 563:Drivers/lvgl/src/extra/widgets/meter/lv_meter.c ****     lv_obj_init_draw_line_dsc(obj, LV_PART_ITEMS, &line_dsc);
 2126              		.loc 1 563 5 view .LVU777
 2127 05ec 2046     		mov	r0, r4
 560:Drivers/lvgl/src/extra/widgets/meter/lv_meter.c **** 
 2128              		.loc 1 560 20 view .LVU778
 2129 05ee ADF89A30 		strh	r3, [sp, #154]	@ movhi
 562:Drivers/lvgl/src/extra/widgets/meter/lv_meter.c ****     lv_draw_line_dsc_init(&line_dsc);
 2130              		.loc 1 562 5 is_stmt 1 view .LVU779
 563:Drivers/lvgl/src/extra/widgets/meter/lv_meter.c ****     lv_obj_init_draw_line_dsc(obj, LV_PART_ITEMS, &line_dsc);
 2131              		.loc 1 563 5 view .LVU780
 559:Drivers/lvgl/src/extra/widgets/meter/lv_meter.c ****     scale_center.y = scale_area->y1 + r_edge;
 2132              		.loc 1 559 20 is_stmt 0 view .LVU781
 2133 05f2 ADF89820 		strh	r2, [sp, #152]	@ movhi
 563:Drivers/lvgl/src/extra/widgets/meter/lv_meter.c ****     lv_obj_init_draw_line_dsc(obj, LV_PART_ITEMS, &line_dsc);
ARM GAS  /var/folders/lp/x54gwt890xv47sdkqj1k04q40000gn/T//ccVgM3G4.s 			page 81


 2134              		.loc 1 563 5 view .LVU782
 2135 05f6 FFF7FEFF 		bl	lv_draw_line_dsc_init
 2136              	.LVL197:
 564:Drivers/lvgl/src/extra/widgets/meter/lv_meter.c **** 
 2137              		.loc 1 564 5 is_stmt 1 view .LVU783
 2138 05fa DDF81CA0 		ldr	r10, [sp, #28]
 2139 05fe 2246     		mov	r2, r4
 2140 0600 4FF4A021 		mov	r1, #327680
 2141 0604 5046     		mov	r0, r10
 2142 0606 FFF7FEFF 		bl	lv_obj_init_draw_line_dsc
 2143              	.LVL198:
 566:Drivers/lvgl/src/extra/widgets/meter/lv_meter.c ****     lv_draw_img_dsc_init(&img_dsc);
 2144              		.loc 1 566 5 view .LVU784
 567:Drivers/lvgl/src/extra/widgets/meter/lv_meter.c ****     lv_obj_init_draw_img_dsc(obj, LV_PART_ITEMS, &img_dsc);
 2145              		.loc 1 567 5 view .LVU785
 2146 060a 40A8     		add	r0, sp, #256
 2147 060c FFF7FEFF 		bl	lv_draw_img_dsc_init
 2148              	.LVL199:
 568:Drivers/lvgl/src/extra/widgets/meter/lv_meter.c ****     lv_opa_t opa_main = lv_obj_get_style_opa_recursive(obj, LV_PART_MAIN);
 2149              		.loc 1 568 5 view .LVU786
 2150 0610 40AA     		add	r2, sp, #256
 2151 0612 4FF4A021 		mov	r1, #327680
 2152 0616 5046     		mov	r0, r10
 2153 0618 FFF7FEFF 		bl	lv_obj_init_draw_img_dsc
 2154              	.LVL200:
 569:Drivers/lvgl/src/extra/widgets/meter/lv_meter.c **** 
 2155              		.loc 1 569 5 view .LVU787
 569:Drivers/lvgl/src/extra/widgets/meter/lv_meter.c **** 
 2156              		.loc 1 569 25 is_stmt 0 view .LVU788
 2157 061c 0021     		movs	r1, #0
 2158 061e 5046     		mov	r0, r10
 2159 0620 FFF7FEFF 		bl	lv_obj_get_style_opa_recursive
 2160              	.LVL201:
 572:Drivers/lvgl/src/extra/widgets/meter/lv_meter.c ****     part_draw_dsc.class_p = MY_CLASS;
 2161              		.loc 1 572 5 view .LVU789
 2162 0624 0899     		ldr	r1, [sp, #32]
 569:Drivers/lvgl/src/extra/widgets/meter/lv_meter.c **** 
 2163              		.loc 1 569 25 view .LVU790
 2164 0626 0646     		mov	r6, r0
 2165              	.LVL202:
 571:Drivers/lvgl/src/extra/widgets/meter/lv_meter.c ****     lv_obj_draw_dsc_init(&part_draw_dsc, draw_ctx);
 2166              		.loc 1 571 5 is_stmt 1 view .LVU791
 572:Drivers/lvgl/src/extra/widgets/meter/lv_meter.c ****     part_draw_dsc.class_p = MY_CLASS;
 2167              		.loc 1 572 5 view .LVU792
 2168 0628 48A8     		add	r0, sp, #288
 2169 062a FFF7FEFF 		bl	lv_obj_draw_dsc_init
 2170              	.LVL203:
 573:Drivers/lvgl/src/extra/widgets/meter/lv_meter.c ****     part_draw_dsc.p1 = &scale_center;
 2171              		.loc 1 573 5 view .LVU793
 573:Drivers/lvgl/src/extra/widgets/meter/lv_meter.c ****     part_draw_dsc.p1 = &scale_center;
 2172              		.loc 1 573 27 is_stmt 0 view .LVU794
 2173 062e 0A4B     		ldr	r3, .L74+4
 2174 0630 4993     		str	r3, [sp, #292]
 574:Drivers/lvgl/src/extra/widgets/meter/lv_meter.c ****     part_draw_dsc.part = LV_PART_INDICATOR;
 2175              		.loc 1 574 5 is_stmt 1 view .LVU795
 574:Drivers/lvgl/src/extra/widgets/meter/lv_meter.c ****     part_draw_dsc.part = LV_PART_INDICATOR;
 2176              		.loc 1 574 22 is_stmt 0 view .LVU796
ARM GAS  /var/folders/lp/x54gwt890xv47sdkqj1k04q40000gn/T//ccVgM3G4.s 			page 82


 2177 0632 0D9B     		ldr	r3, [sp, #52]
 2178 0634 5193     		str	r3, [sp, #324]
 575:Drivers/lvgl/src/extra/widgets/meter/lv_meter.c **** 
 2179              		.loc 1 575 5 is_stmt 1 view .LVU797
 578:Drivers/lvgl/src/extra/widgets/meter/lv_meter.c ****         lv_meter_scale_t * scale = indic->scale;
 2180              		.loc 1 578 5 is_stmt 0 view .LVU798
 2181 0636 5846     		mov	r0, fp
 575:Drivers/lvgl/src/extra/widgets/meter/lv_meter.c **** 
 2182              		.loc 1 575 24 view .LVU799
 2183 0638 4FF40033 		mov	r3, #131072
 2184 063c 5593     		str	r3, [sp, #340]
 577:Drivers/lvgl/src/extra/widgets/meter/lv_meter.c ****     _LV_LL_READ_BACK(&meter->indicator_ll, indic) {
 2185              		.loc 1 577 5 is_stmt 1 view .LVU800
 578:Drivers/lvgl/src/extra/widgets/meter/lv_meter.c ****         lv_meter_scale_t * scale = indic->scale;
 2186              		.loc 1 578 5 view .LVU801
 2187 063e FFF7FEFF 		bl	_lv_ll_get_tail
 2188              	.LVL204:
 578:Drivers/lvgl/src/extra/widgets/meter/lv_meter.c ****         lv_meter_scale_t * scale = indic->scale;
 2189              		.loc 1 578 5 discriminator 1 view .LVU802
 2190 0642 0446     		mov	r4, r0
 2191 0644 0028     		cmp	r0, #0
 2192 0646 00F0D780 		beq	.L28
 2193              	.LBB185:
 2194              	.LBB186:
 586:Drivers/lvgl/src/extra/widgets/meter/lv_meter.c ****             p_end.x = (lv_trigo_cos(angle) * (r_out)) / LV_TRIGO_SIN_MAX + scale_center.x;
 2195              		.loc 1 586 55 is_stmt 0 discriminator 1 view .LVU803
 2196 064a DFF81080 		ldr	r8, .L74+8
 2197              	.LBE186:
 2198              	.LBB193:
 619:Drivers/lvgl/src/extra/widgets/meter/lv_meter.c ****             part_draw_dsc.img_dsc = &img_dsc;
 2199              		.loc 1 619 32 view .LVU804
 2200 064e 4FF00209 		mov	r9, #2
 2201 0652 6BE0     		b	.L27
 2202              	.L75:
 2203              		.align	2
 2204              	.L74:
 2205 0654 00000000 		.word	.LC0
 2206 0658 00000000 		.word	lv_meter_class
 2207 065c 03000180 		.word	-2147418109
 2208              	.LVL205:
 2209              	.L41:
 619:Drivers/lvgl/src/extra/widgets/meter/lv_meter.c ****             part_draw_dsc.img_dsc = &img_dsc;
 2210              		.loc 1 619 32 view .LVU805
 2211              	.LBE193:
 600:Drivers/lvgl/src/extra/widgets/meter/lv_meter.c ****             if(indic->type_data.needle_img.src == NULL) continue;
 2212              		.loc 1 600 14 is_stmt 1 view .LVU806
 600:Drivers/lvgl/src/extra/widgets/meter/lv_meter.c ****             if(indic->type_data.needle_img.src == NULL) continue;
 2213              		.loc 1 600 16 is_stmt 0 view .LVU807
 2214 0660 002B     		cmp	r3, #0
 2215 0662 5CD1     		bne	.L43
 2216              	.LBB194:
 601:Drivers/lvgl/src/extra/widgets/meter/lv_meter.c **** 
 2217              		.loc 1 601 13 is_stmt 1 view .LVU808
 601:Drivers/lvgl/src/extra/widgets/meter/lv_meter.c **** 
 2218              		.loc 1 601 15 is_stmt 0 view .LVU809
 2219 0664 2369     		ldr	r3, [r4, #16]
 2220 0666 002B     		cmp	r3, #0
ARM GAS  /var/folders/lp/x54gwt890xv47sdkqj1k04q40000gn/T//ccVgM3G4.s 			page 83


 2221 0668 59D0     		beq	.L43
 603:Drivers/lvgl/src/extra/widgets/meter/lv_meter.c ****             lv_img_header_t info;
 2222              		.loc 1 603 13 is_stmt 1 view .LVU810
 603:Drivers/lvgl/src/extra/widgets/meter/lv_meter.c ****             lv_img_header_t info;
 2223              		.loc 1 603 29 is_stmt 0 view .LVU811
 2224 066a B5F92030 		ldrsh	r3, [r5, #32]
 603:Drivers/lvgl/src/extra/widgets/meter/lv_meter.c ****             lv_img_header_t info;
 2225              		.loc 1 603 118 view .LVU812
 2226 066e B5F81EC0 		ldrh	ip, [r5, #30]
 603:Drivers/lvgl/src/extra/widgets/meter/lv_meter.c ****             lv_img_header_t info;
 2227              		.loc 1 603 29 view .LVU813
 2228 0672 E068     		ldr	r0, [r4, #12]
 2229              	.LVL206:
 603:Drivers/lvgl/src/extra/widgets/meter/lv_meter.c ****             lv_img_header_t info;
 2230              		.loc 1 603 111 view .LVU814
 2231 0674 9C44     		add	ip, ip, r3
 603:Drivers/lvgl/src/extra/widgets/meter/lv_meter.c ****             lv_img_header_t info;
 2232              		.loc 1 603 29 view .LVU815
 2233 0676 D5E90512 		ldrd	r1, r2, [r5, #20]
 2234 067a CDF800C0 		str	ip, [sp]
 2235 067e FFF7FEFF 		bl	lv_map
 2236              	.LVL207:
 605:Drivers/lvgl/src/extra/widgets/meter/lv_meter.c ****             lv_area_t a;
 2237              		.loc 1 605 13 view .LVU816
 2238 0682 2CA9     		add	r1, sp, #176
 603:Drivers/lvgl/src/extra/widgets/meter/lv_meter.c ****             lv_img_header_t info;
 2239              		.loc 1 603 29 view .LVU817
 2240 0684 0546     		mov	r5, r0
 2241              	.LVL208:
 604:Drivers/lvgl/src/extra/widgets/meter/lv_meter.c ****             lv_img_decoder_get_info(indic->type_data.needle_img.src, &info);
 2242              		.loc 1 604 13 is_stmt 1 view .LVU818
 605:Drivers/lvgl/src/extra/widgets/meter/lv_meter.c ****             lv_area_t a;
 2243              		.loc 1 605 13 view .LVU819
 2244 0686 2069     		ldr	r0, [r4, #16]
 2245              	.LVL209:
 605:Drivers/lvgl/src/extra/widgets/meter/lv_meter.c ****             lv_area_t a;
 2246              		.loc 1 605 13 is_stmt 0 view .LVU820
 2247 0688 FFF7FEFF 		bl	lv_img_decoder_get_info
 2248              	.LVL210:
 606:Drivers/lvgl/src/extra/widgets/meter/lv_meter.c ****             a.x1 = scale_center.x - indic->type_data.needle_img.pivot.x;
 2249              		.loc 1 606 13 is_stmt 1 view .LVU821
 607:Drivers/lvgl/src/extra/widgets/meter/lv_meter.c ****             a.y1 = scale_center.y - indic->type_data.needle_img.pivot.y;
 2250              		.loc 1 607 13 view .LVU822
 608:Drivers/lvgl/src/extra/widgets/meter/lv_meter.c ****             a.x2 = a.x1 + info.w - 1;
 2251              		.loc 1 608 35 is_stmt 0 view .LVU823
 2252 068c E38A     		ldrh	r3, [r4, #22]
 2253 068e BDF89A10 		ldrh	r1, [sp, #154]
 607:Drivers/lvgl/src/extra/widgets/meter/lv_meter.c ****             a.y1 = scale_center.y - indic->type_data.needle_img.pivot.y;
 2254              		.loc 1 607 35 view .LVU824
 2255 0692 A28A     		ldrh	r2, [r4, #20]
 2256 0694 BDF89800 		ldrh	r0, [sp, #152]
 607:Drivers/lvgl/src/extra/widgets/meter/lv_meter.c ****             a.y1 = scale_center.y - indic->type_data.needle_img.pivot.y;
 2257              		.loc 1 607 70 view .LVU825
 2258 0698 D4F814C0 		ldr	ip, [r4, #20]
 608:Drivers/lvgl/src/extra/widgets/meter/lv_meter.c ****             a.x2 = a.x1 + info.w - 1;
 2259              		.loc 1 608 35 view .LVU826
 2260 069c C91A     		subs	r1, r1, r3
ARM GAS  /var/folders/lp/x54gwt890xv47sdkqj1k04q40000gn/T//ccVgM3G4.s 			page 84


 609:Drivers/lvgl/src/extra/widgets/meter/lv_meter.c ****             a.y2 = a.y1 + info.h - 1;
 2261              		.loc 1 609 31 view .LVU827
 2262 069e 2C9B     		ldr	r3, [sp, #176]
 607:Drivers/lvgl/src/extra/widgets/meter/lv_meter.c ****             a.y1 = scale_center.y - indic->type_data.needle_img.pivot.y;
 2263              		.loc 1 607 35 view .LVU828
 2264 06a0 801A     		subs	r0, r0, r2
 609:Drivers/lvgl/src/extra/widgets/meter/lv_meter.c ****             a.y2 = a.y1 + info.h - 1;
 2265              		.loc 1 609 31 view .LVU829
 2266 06a2 C3F38A22 		ubfx	r2, r3, #10, #11
 610:Drivers/lvgl/src/extra/widgets/meter/lv_meter.c **** 
 2267              		.loc 1 610 31 view .LVU830
 2268 06a6 BDF8B230 		ldrh	r3, [sp, #178]
 2269 06aa C3F34A13 		ubfx	r3, r3, #5, #11
 607:Drivers/lvgl/src/extra/widgets/meter/lv_meter.c ****             a.y1 = scale_center.y - indic->type_data.needle_img.pivot.y;
 2270              		.loc 1 607 35 view .LVU831
 2271 06ae 80B2     		uxth	r0, r0
 608:Drivers/lvgl/src/extra/widgets/meter/lv_meter.c ****             a.x2 = a.x1 + info.w - 1;
 2272              		.loc 1 608 35 view .LVU832
 2273 06b0 89B2     		uxth	r1, r1
 609:Drivers/lvgl/src/extra/widgets/meter/lv_meter.c ****             a.y2 = a.y1 + info.h - 1;
 2274              		.loc 1 609 34 view .LVU833
 2275 06b2 013A     		subs	r2, r2, #1
 610:Drivers/lvgl/src/extra/widgets/meter/lv_meter.c **** 
 2276              		.loc 1 610 34 view .LVU834
 2277 06b4 013B     		subs	r3, r3, #1
 609:Drivers/lvgl/src/extra/widgets/meter/lv_meter.c ****             a.y2 = a.y1 + info.h - 1;
 2278              		.loc 1 609 34 view .LVU835
 2279 06b6 0244     		add	r2, r2, r0
 610:Drivers/lvgl/src/extra/widgets/meter/lv_meter.c **** 
 2280              		.loc 1 610 34 view .LVU836
 2281 06b8 0B44     		add	r3, r3, r1
 607:Drivers/lvgl/src/extra/widgets/meter/lv_meter.c ****             a.y1 = scale_center.y - indic->type_data.needle_img.pivot.y;
 2282              		.loc 1 607 18 view .LVU837
 2283 06ba ADF8C800 		strh	r0, [sp, #200]	@ movhi
 608:Drivers/lvgl/src/extra/widgets/meter/lv_meter.c ****             a.x2 = a.x1 + info.w - 1;
 2284              		.loc 1 608 13 is_stmt 1 view .LVU838
 608:Drivers/lvgl/src/extra/widgets/meter/lv_meter.c ****             a.x2 = a.x1 + info.w - 1;
 2285              		.loc 1 608 18 is_stmt 0 view .LVU839
 2286 06be ADF8CA10 		strh	r1, [sp, #202]	@ movhi
 609:Drivers/lvgl/src/extra/widgets/meter/lv_meter.c ****             a.y2 = a.y1 + info.h - 1;
 2287              		.loc 1 609 13 is_stmt 1 view .LVU840
 609:Drivers/lvgl/src/extra/widgets/meter/lv_meter.c ****             a.y2 = a.y1 + info.h - 1;
 2288              		.loc 1 609 18 is_stmt 0 view .LVU841
 2289 06c2 ADF8CC20 		strh	r2, [sp, #204]	@ movhi
 610:Drivers/lvgl/src/extra/widgets/meter/lv_meter.c **** 
 2290              		.loc 1 610 13 is_stmt 1 view .LVU842
 610:Drivers/lvgl/src/extra/widgets/meter/lv_meter.c **** 
 2291              		.loc 1 610 18 is_stmt 0 view .LVU843
 2292 06c6 ADF8CE30 		strh	r3, [sp, #206]	@ movhi
 612:Drivers/lvgl/src/extra/widgets/meter/lv_meter.c ****             img_dsc.pivot.x = indic->type_data.needle_img.pivot.x;
 2293              		.loc 1 612 13 is_stmt 1 view .LVU844
 612:Drivers/lvgl/src/extra/widgets/meter/lv_meter.c ****             img_dsc.pivot.x = indic->type_data.needle_img.pivot.x;
 2294              		.loc 1 612 32 is_stmt 0 view .LVU845
 2295 06ca 6379     		ldrb	r3, [r4, #5]	@ zero_extendqisi2
 613:Drivers/lvgl/src/extra/widgets/meter/lv_meter.c ****             img_dsc.pivot.y = indic->type_data.needle_img.pivot.y;
 2296              		.loc 1 613 29 view .LVU846
 2297 06cc CDF804C1 		str	ip, [sp, #260]
ARM GAS  /var/folders/lp/x54gwt890xv47sdkqj1k04q40000gn/T//ccVgM3G4.s 			page 85


 612:Drivers/lvgl/src/extra/widgets/meter/lv_meter.c ****             img_dsc.pivot.x = indic->type_data.needle_img.pivot.x;
 2298              		.loc 1 612 25 view .LVU847
 2299 06d0 FD2B     		cmp	r3, #253
 612:Drivers/lvgl/src/extra/widgets/meter/lv_meter.c ****             img_dsc.pivot.x = indic->type_data.needle_img.pivot.x;
 2300              		.loc 1 612 74 discriminator 1 view .LVU848
 2301 06d2 9ABF     		itte	ls
 2302 06d4 16FB03F3 		smulbbls	r3, r6, r3
 612:Drivers/lvgl/src/extra/widgets/meter/lv_meter.c ****             img_dsc.pivot.x = indic->type_data.needle_img.pivot.x;
 2303              		.loc 1 612 25 discriminator 1 view .LVU849
 2304 06d8 C3F30723 		ubfxls	r3, r3, #8, #8
 612:Drivers/lvgl/src/extra/widgets/meter/lv_meter.c ****             img_dsc.pivot.x = indic->type_data.needle_img.pivot.x;
 2305              		.loc 1 612 25 discriminator 2 view .LVU850
 2306 06dc 3346     		movhi	r3, r6
 615:Drivers/lvgl/src/extra/widgets/meter/lv_meter.c ****             if(angle > 3600) angle -= 3600;
 2307              		.loc 1 615 19 view .LVU851
 2308 06de 05EB8505 		add	r5, r5, r5, lsl #2
 2309              	.LVL211:
 612:Drivers/lvgl/src/extra/widgets/meter/lv_meter.c ****             img_dsc.pivot.x = indic->type_data.needle_img.pivot.x;
 2310              		.loc 1 612 25 discriminator 4 view .LVU852
 2311 06e2 8DF80B31 		strb	r3, [sp, #267]
 613:Drivers/lvgl/src/extra/widgets/meter/lv_meter.c ****             img_dsc.pivot.y = indic->type_data.needle_img.pivot.y;
 2312              		.loc 1 613 13 is_stmt 1 view .LVU853
 614:Drivers/lvgl/src/extra/widgets/meter/lv_meter.c ****             angle = angle * 10;
 2313              		.loc 1 614 13 view .LVU854
 615:Drivers/lvgl/src/extra/widgets/meter/lv_meter.c ****             if(angle > 3600) angle -= 3600;
 2314              		.loc 1 615 13 view .LVU855
 615:Drivers/lvgl/src/extra/widgets/meter/lv_meter.c ****             if(angle > 3600) angle -= 3600;
 2315              		.loc 1 615 19 is_stmt 0 view .LVU856
 2316 06e6 6B00     		lsls	r3, r5, #1
 2317              	.LVL212:
 616:Drivers/lvgl/src/extra/widgets/meter/lv_meter.c ****             img_dsc.angle = angle;
 2318              		.loc 1 616 13 is_stmt 1 view .LVU857
 616:Drivers/lvgl/src/extra/widgets/meter/lv_meter.c ****             img_dsc.angle = angle;
 2319              		.loc 1 616 15 is_stmt 0 view .LVU858
 2320 06e8 B3F5616F 		cmp	r3, #3600
 616:Drivers/lvgl/src/extra/widgets/meter/lv_meter.c ****             img_dsc.angle = angle;
 2321              		.loc 1 616 30 is_stmt 1 discriminator 1 view .LVU859
 616:Drivers/lvgl/src/extra/widgets/meter/lv_meter.c ****             img_dsc.angle = angle;
 2322              		.loc 1 616 36 is_stmt 0 discriminator 1 view .LVU860
 2323 06ec C8BF     		it	gt
 2324 06ee A3F56163 		subgt	r3, r3, #3600
 2325              	.LVL213:
 617:Drivers/lvgl/src/extra/widgets/meter/lv_meter.c **** 
 2326              		.loc 1 617 13 is_stmt 1 view .LVU861
 617:Drivers/lvgl/src/extra/widgets/meter/lv_meter.c **** 
 2327              		.loc 1 617 27 is_stmt 0 view .LVU862
 2328 06f2 ADF80031 		strh	r3, [sp, #256]	@ movhi
 619:Drivers/lvgl/src/extra/widgets/meter/lv_meter.c ****             part_draw_dsc.img_dsc = &img_dsc;
 2329              		.loc 1 619 13 is_stmt 1 view .LVU863
 622:Drivers/lvgl/src/extra/widgets/meter/lv_meter.c ****             lv_draw_img(draw_ctx, &img_dsc, &a, indic->type_data.needle_img.src);
 2330              		.loc 1 622 13 is_stmt 0 view .LVU864
 2331 06f6 48AA     		add	r2, sp, #288
 620:Drivers/lvgl/src/extra/widgets/meter/lv_meter.c **** 
 2332              		.loc 1 620 35 view .LVU865
 2333 06f8 40AB     		add	r3, sp, #256
 2334              	.LVL214:
 622:Drivers/lvgl/src/extra/widgets/meter/lv_meter.c ****             lv_draw_img(draw_ctx, &img_dsc, &a, indic->type_data.needle_img.src);
ARM GAS  /var/folders/lp/x54gwt890xv47sdkqj1k04q40000gn/T//ccVgM3G4.s 			page 86


 2335              		.loc 1 622 13 view .LVU866
 2336 06fa 1A21     		movs	r1, #26
 2337 06fc 5046     		mov	r0, r10
 620:Drivers/lvgl/src/extra/widgets/meter/lv_meter.c **** 
 2338              		.loc 1 620 35 view .LVU867
 2339 06fe 4F93     		str	r3, [sp, #316]
 619:Drivers/lvgl/src/extra/widgets/meter/lv_meter.c ****             part_draw_dsc.img_dsc = &img_dsc;
 2340              		.loc 1 619 32 view .LVU868
 2341 0700 CDF82891 		str	r9, [sp, #296]
 620:Drivers/lvgl/src/extra/widgets/meter/lv_meter.c **** 
 2342              		.loc 1 620 13 is_stmt 1 view .LVU869
 622:Drivers/lvgl/src/extra/widgets/meter/lv_meter.c ****             lv_draw_img(draw_ctx, &img_dsc, &a, indic->type_data.needle_img.src);
 2343              		.loc 1 622 13 view .LVU870
 2344 0704 FFF7FEFF 		bl	lv_event_send
 2345              	.LVL215:
 623:Drivers/lvgl/src/extra/widgets/meter/lv_meter.c ****             lv_event_send(obj, LV_EVENT_DRAW_PART_END, &part_draw_dsc);
 2346              		.loc 1 623 13 view .LVU871
 2347 0708 0898     		ldr	r0, [sp, #32]
 2348 070a 2369     		ldr	r3, [r4, #16]
 2349 070c 32AA     		add	r2, sp, #200
 2350 070e 40A9     		add	r1, sp, #256
 2351 0710 FFF7FEFF 		bl	lv_draw_img
 2352              	.LVL216:
 624:Drivers/lvgl/src/extra/widgets/meter/lv_meter.c ****         }
 2353              		.loc 1 624 13 view .LVU872
 2354 0714 48AA     		add	r2, sp, #288
 2355 0716 1B21     		movs	r1, #27
 2356 0718 5046     		mov	r0, r10
 2357 071a FFF7FEFF 		bl	lv_event_send
 2358              	.LVL217:
 2359              	.L43:
 624:Drivers/lvgl/src/extra/widgets/meter/lv_meter.c ****         }
 2360              		.loc 1 624 13 is_stmt 0 view .LVU873
 2361              	.LBE194:
 2362              	.LBE185:
 578:Drivers/lvgl/src/extra/widgets/meter/lv_meter.c ****         lv_meter_scale_t * scale = indic->scale;
 2363              		.loc 1 578 5 is_stmt 1 discriminator 2 view .LVU874
 2364 071e 2146     		mov	r1, r4
 2365 0720 5846     		mov	r0, fp
 2366 0722 FFF7FEFF 		bl	_lv_ll_get_prev
 2367              	.LVL218:
 578:Drivers/lvgl/src/extra/widgets/meter/lv_meter.c ****         lv_meter_scale_t * scale = indic->scale;
 2368              		.loc 1 578 5 discriminator 1 view .LVU875
 2369 0726 0446     		mov	r4, r0
 2370 0728 0028     		cmp	r0, #0
 2371 072a 65D0     		beq	.L28
 2372              	.LVL219:
 2373              	.L27:
 2374              	.LBB196:
 579:Drivers/lvgl/src/extra/widgets/meter/lv_meter.c ****         part_draw_dsc.sub_part_ptr = indic;
 2375              		.loc 1 579 9 view .LVU876
 579:Drivers/lvgl/src/extra/widgets/meter/lv_meter.c ****         part_draw_dsc.sub_part_ptr = indic;
 2376              		.loc 1 579 28 is_stmt 0 view .LVU877
 2377 072c 2568     		ldr	r5, [r4]
 2378              	.LVL220:
 580:Drivers/lvgl/src/extra/widgets/meter/lv_meter.c **** 
 2379              		.loc 1 580 9 is_stmt 1 view .LVU878
ARM GAS  /var/folders/lp/x54gwt890xv47sdkqj1k04q40000gn/T//ccVgM3G4.s 			page 87


 580:Drivers/lvgl/src/extra/widgets/meter/lv_meter.c **** 
 2380              		.loc 1 580 36 is_stmt 0 view .LVU879
 2381 072e 5994     		str	r4, [sp, #356]
 582:Drivers/lvgl/src/extra/widgets/meter/lv_meter.c ****             int32_t angle = lv_map(indic->end_value, scale->min, scale->max, scale->rotation, scale
 2382              		.loc 1 582 9 is_stmt 1 view .LVU880
 582:Drivers/lvgl/src/extra/widgets/meter/lv_meter.c ****             int32_t angle = lv_map(indic->end_value, scale->min, scale->max, scale->rotation, scale
 2383              		.loc 1 582 17 is_stmt 0 view .LVU881
 2384 0730 2379     		ldrb	r3, [r4, #4]	@ zero_extendqisi2
 582:Drivers/lvgl/src/extra/widgets/meter/lv_meter.c ****             int32_t angle = lv_map(indic->end_value, scale->min, scale->max, scale->rotation, scale
 2385              		.loc 1 582 11 view .LVU882
 2386 0732 012B     		cmp	r3, #1
 2387 0734 94D1     		bne	.L41
 2388              	.LBB195:
 583:Drivers/lvgl/src/extra/widgets/meter/lv_meter.c ****             lv_coord_t r_out = r_edge + scale->r_mod + indic->type_data.needle_line.r_mod;
 2389              		.loc 1 583 13 is_stmt 1 view .LVU883
 583:Drivers/lvgl/src/extra/widgets/meter/lv_meter.c ****             lv_coord_t r_out = r_edge + scale->r_mod + indic->type_data.needle_line.r_mod;
 2390              		.loc 1 583 29 is_stmt 0 view .LVU884
 2391 0736 B5F92030 		ldrsh	r3, [r5, #32]
 583:Drivers/lvgl/src/extra/widgets/meter/lv_meter.c ****             lv_coord_t r_out = r_edge + scale->r_mod + indic->type_data.needle_line.r_mod;
 2392              		.loc 1 583 118 view .LVU885
 2393 073a B5F81EC0 		ldrh	ip, [r5, #30]
 583:Drivers/lvgl/src/extra/widgets/meter/lv_meter.c ****             lv_coord_t r_out = r_edge + scale->r_mod + indic->type_data.needle_line.r_mod;
 2394              		.loc 1 583 29 view .LVU886
 2395 073e E068     		ldr	r0, [r4, #12]
 2396              	.LVL221:
 583:Drivers/lvgl/src/extra/widgets/meter/lv_meter.c ****             lv_coord_t r_out = r_edge + scale->r_mod + indic->type_data.needle_line.r_mod;
 2397              		.loc 1 583 111 view .LVU887
 2398 0740 9C44     		add	ip, ip, r3
 583:Drivers/lvgl/src/extra/widgets/meter/lv_meter.c ****             lv_coord_t r_out = r_edge + scale->r_mod + indic->type_data.needle_line.r_mod;
 2399              		.loc 1 583 29 view .LVU888
 2400 0742 D5E90512 		ldrd	r1, r2, [r5, #20]
 2401 0746 CDF800C0 		str	ip, [sp]
 2402 074a FFF7FEFF 		bl	lv_map
 2403              	.LVL222:
 584:Drivers/lvgl/src/extra/widgets/meter/lv_meter.c ****             lv_point_t p_end;
 2404              		.loc 1 584 54 view .LVU889
 2405 074e AB8B     		ldrh	r3, [r5, #28]
 2406 0750 658A     		ldrh	r5, [r4, #18]
 2407              	.LVL223:
 583:Drivers/lvgl/src/extra/widgets/meter/lv_meter.c ****             lv_coord_t r_out = r_edge + scale->r_mod + indic->type_data.needle_line.r_mod;
 2408              		.loc 1 583 29 view .LVU890
 2409 0752 0246     		mov	r2, r0
 2410              	.LVL224:
 584:Drivers/lvgl/src/extra/widgets/meter/lv_meter.c ****             lv_point_t p_end;
 2411              		.loc 1 584 13 is_stmt 1 view .LVU891
 584:Drivers/lvgl/src/extra/widgets/meter/lv_meter.c ****             lv_point_t p_end;
 2412              		.loc 1 584 54 is_stmt 0 view .LVU892
 2413 0754 3D44     		add	r5, r5, r7
 586:Drivers/lvgl/src/extra/widgets/meter/lv_meter.c ****             p_end.x = (lv_trigo_cos(angle) * (r_out)) / LV_TRIGO_SIN_MAX + scale_center.x;
 2414              		.loc 1 586 24 view .LVU893
 2415 0756 00B2     		sxth	r0, r0
 2416              	.LVL225:
 584:Drivers/lvgl/src/extra/widgets/meter/lv_meter.c ****             lv_point_t p_end;
 2417              		.loc 1 584 54 view .LVU894
 2418 0758 1D44     		add	r5, r5, r3
 586:Drivers/lvgl/src/extra/widgets/meter/lv_meter.c ****             p_end.x = (lv_trigo_cos(angle) * (r_out)) / LV_TRIGO_SIN_MAX + scale_center.x;
 2419              		.loc 1 586 24 view .LVU895
ARM GAS  /var/folders/lp/x54gwt890xv47sdkqj1k04q40000gn/T//ccVgM3G4.s 			page 88


 2420 075a 0492     		str	r2, [sp, #16]
 2421 075c FFF7FEFF 		bl	lv_trigo_sin
 2422              	.LVL226:
 2423              	.LBB187:
 2424              	.LBB188:
 2425              		.loc 4 51 31 view .LVU896
 2426 0760 049A     		ldr	r2, [sp, #16]
 2427              	.LBE188:
 2428              	.LBE187:
 584:Drivers/lvgl/src/extra/widgets/meter/lv_meter.c ****             lv_point_t p_end;
 2429              		.loc 1 584 24 view .LVU897
 2430 0762 2DB2     		sxth	r5, r5
 2431              	.LVL227:
 585:Drivers/lvgl/src/extra/widgets/meter/lv_meter.c ****             p_end.y = (lv_trigo_sin(angle) * (r_out)) / LV_TRIGO_SIN_MAX + scale_center.y;
 2432              		.loc 1 585 13 is_stmt 1 view .LVU898
 586:Drivers/lvgl/src/extra/widgets/meter/lv_meter.c ****             p_end.x = (lv_trigo_cos(angle) * (r_out)) / LV_TRIGO_SIN_MAX + scale_center.x;
 2433              		.loc 1 586 13 view .LVU899
 586:Drivers/lvgl/src/extra/widgets/meter/lv_meter.c ****             p_end.x = (lv_trigo_cos(angle) * (r_out)) / LV_TRIGO_SIN_MAX + scale_center.x;
 2434              		.loc 1 586 44 is_stmt 0 discriminator 1 view .LVU900
 2435 0764 00FB05F3 		mul	r3, r0, r5
 2436              	.LBB191:
 2437              	.LBB189:
 2438              		.loc 4 51 31 view .LVU901
 2439 0768 5A32     		adds	r2, r2, #90
 2440              		.loc 4 51 12 view .LVU902
 2441 076a 10B2     		sxth	r0, r2
 2442              	.LBE189:
 2443              	.LBE191:
 586:Drivers/lvgl/src/extra/widgets/meter/lv_meter.c ****             p_end.x = (lv_trigo_cos(angle) * (r_out)) / LV_TRIGO_SIN_MAX + scale_center.x;
 2444              		.loc 1 586 55 discriminator 1 view .LVU903
 2445 076c 88FB0312 		smull	r1, r2, r8, r3
 2446 0770 1A44     		add	r2, r2, r3
 2447 0772 DB17     		asrs	r3, r3, #31
 2448 0774 C3EBA233 		rsb	r3, r3, r2, asr #14
 586:Drivers/lvgl/src/extra/widgets/meter/lv_meter.c ****             p_end.x = (lv_trigo_cos(angle) * (r_out)) / LV_TRIGO_SIN_MAX + scale_center.x;
 2449              		.loc 1 586 74 discriminator 1 view .LVU904
 2450 0778 BDF89A20 		ldrh	r2, [sp, #154]
 2451 077c 1344     		add	r3, r3, r2
 586:Drivers/lvgl/src/extra/widgets/meter/lv_meter.c ****             p_end.x = (lv_trigo_cos(angle) * (r_out)) / LV_TRIGO_SIN_MAX + scale_center.x;
 2452              		.loc 1 586 21 discriminator 1 view .LVU905
 2453 077e ADF8CA30 		strh	r3, [sp, #202]	@ movhi
 587:Drivers/lvgl/src/extra/widgets/meter/lv_meter.c ****             line_dsc.color = indic->type_data.needle_line.color;
 2454              		.loc 1 587 13 is_stmt 1 view .LVU906
 2455              	.LVL228:
 2456              	.LBB192:
 2457              	.LBI187:
  49:Drivers/lvgl/src/extra/widgets/meter/../../../../src/misc/lv_math.h **** {
 2458              		.loc 4 49 45 view .LVU907
 2459              	.LBB190:
 2460              		.loc 4 51 5 view .LVU908
 2461              		.loc 4 51 12 is_stmt 0 view .LVU909
 2462 0782 FFF7FEFF 		bl	lv_trigo_sin
 2463              	.LVL229:
 2464              		.loc 4 51 12 view .LVU910
 2465              	.LBE190:
 2466              	.LBE192:
 587:Drivers/lvgl/src/extra/widgets/meter/lv_meter.c ****             line_dsc.color = indic->type_data.needle_line.color;
ARM GAS  /var/folders/lp/x54gwt890xv47sdkqj1k04q40000gn/T//ccVgM3G4.s 			page 89


 2467              		.loc 1 587 44 discriminator 1 view .LVU911
 2468 0786 05FB00F3 		mul	r3, r5, r0
 587:Drivers/lvgl/src/extra/widgets/meter/lv_meter.c ****             line_dsc.color = indic->type_data.needle_line.color;
 2469              		.loc 1 587 55 discriminator 1 view .LVU912
 2470 078a 88FB0312 		smull	r1, r2, r8, r3
 2471 078e 1A44     		add	r2, r2, r3
 2472 0790 DB17     		asrs	r3, r3, #31
 2473 0792 C3EBA233 		rsb	r3, r3, r2, asr #14
 587:Drivers/lvgl/src/extra/widgets/meter/lv_meter.c ****             line_dsc.color = indic->type_data.needle_line.color;
 2474              		.loc 1 587 74 discriminator 1 view .LVU913
 2475 0796 BDF89820 		ldrh	r2, [sp, #152]
 2476 079a 1344     		add	r3, r3, r2
 587:Drivers/lvgl/src/extra/widgets/meter/lv_meter.c ****             line_dsc.color = indic->type_data.needle_line.color;
 2477              		.loc 1 587 21 discriminator 1 view .LVU914
 2478 079c ADF8C830 		strh	r3, [sp, #200]	@ movhi
 588:Drivers/lvgl/src/extra/widgets/meter/lv_meter.c ****             line_dsc.width = indic->type_data.needle_line.width;
 2479              		.loc 1 588 13 is_stmt 1 view .LVU915
 588:Drivers/lvgl/src/extra/widgets/meter/lv_meter.c ****             line_dsc.width = indic->type_data.needle_line.width;
 2480              		.loc 1 588 28 is_stmt 0 view .LVU916
 2481 07a0 A38A     		ldrh	r3, [r4, #20]
 2482 07a2 ADF8E030 		strh	r3, [sp, #224]	@ movhi
 589:Drivers/lvgl/src/extra/widgets/meter/lv_meter.c ****             line_dsc.opa = indic->opa > LV_OPA_MAX ? opa_main : (opa_main * indic->opa) >> 8;
 2483              		.loc 1 589 13 is_stmt 1 view .LVU917
 589:Drivers/lvgl/src/extra/widgets/meter/lv_meter.c ****             line_dsc.opa = indic->opa > LV_OPA_MAX ? opa_main : (opa_main * indic->opa) >> 8;
 2484              		.loc 1 589 28 is_stmt 0 view .LVU918
 2485 07a6 238A     		ldrh	r3, [r4, #16]
 2486 07a8 ADF8E230 		strh	r3, [sp, #226]	@ movhi
 590:Drivers/lvgl/src/extra/widgets/meter/lv_meter.c **** 
 2487              		.loc 1 590 13 is_stmt 1 view .LVU919
 590:Drivers/lvgl/src/extra/widgets/meter/lv_meter.c **** 
 2488              		.loc 1 590 33 is_stmt 0 view .LVU920
 2489 07ac 6379     		ldrb	r3, [r4, #5]	@ zero_extendqisi2
 595:Drivers/lvgl/src/extra/widgets/meter/lv_meter.c ****             lv_event_send(obj, LV_EVENT_DRAW_PART_BEGIN, &part_draw_dsc);
 2490              		.loc 1 595 30 view .LVU921
 2491 07ae 0D9A     		ldr	r2, [sp, #52]
 2492 07b0 5192     		str	r2, [sp, #324]
 590:Drivers/lvgl/src/extra/widgets/meter/lv_meter.c **** 
 2493              		.loc 1 590 26 view .LVU922
 2494 07b2 FD2B     		cmp	r3, #253
 590:Drivers/lvgl/src/extra/widgets/meter/lv_meter.c **** 
 2495              		.loc 1 590 75 discriminator 1 view .LVU923
 2496 07b4 9ABF     		itte	ls
 2497 07b6 16FB03F3 		smulbbls	r3, r6, r3
 590:Drivers/lvgl/src/extra/widgets/meter/lv_meter.c **** 
 2498              		.loc 1 590 26 discriminator 1 view .LVU924
 2499 07ba C3F30723 		ubfxls	r3, r3, #8, #8
 590:Drivers/lvgl/src/extra/widgets/meter/lv_meter.c **** 
 2500              		.loc 1 590 26 discriminator 2 view .LVU925
 2501 07be 3346     		movhi	r3, r6
 590:Drivers/lvgl/src/extra/widgets/meter/lv_meter.c **** 
 2502              		.loc 1 590 26 discriminator 4 view .LVU926
 2503 07c0 8DF8E830 		strb	r3, [sp, #232]
 592:Drivers/lvgl/src/extra/widgets/meter/lv_meter.c ****             part_draw_dsc.line_dsc = &line_dsc;
 2504              		.loc 1 592 13 is_stmt 1 view .LVU927
 593:Drivers/lvgl/src/extra/widgets/meter/lv_meter.c ****             part_draw_dsc.p2 = &p_end;
 2505              		.loc 1 593 36 is_stmt 0 view .LVU928
 2506 07c4 099B     		ldr	r3, [sp, #36]
ARM GAS  /var/folders/lp/x54gwt890xv47sdkqj1k04q40000gn/T//ccVgM3G4.s 			page 90


 2507 07c6 4E93     		str	r3, [sp, #312]
 594:Drivers/lvgl/src/extra/widgets/meter/lv_meter.c ****             part_draw_dsc.p1 = &scale_center;
 2508              		.loc 1 594 30 view .LVU929
 2509 07c8 32AD     		add	r5, sp, #200
 2510              	.LVL230:
 592:Drivers/lvgl/src/extra/widgets/meter/lv_meter.c ****             part_draw_dsc.line_dsc = &line_dsc;
 2511              		.loc 1 592 32 view .LVU930
 2512 07ca 0123     		movs	r3, #1
 596:Drivers/lvgl/src/extra/widgets/meter/lv_meter.c ****             lv_draw_line(draw_ctx, &line_dsc, part_draw_dsc.p1, &p_end);
 2513              		.loc 1 596 13 view .LVU931
 2514 07cc 48AA     		add	r2, sp, #288
 2515 07ce 1A21     		movs	r1, #26
 2516 07d0 5046     		mov	r0, r10
 592:Drivers/lvgl/src/extra/widgets/meter/lv_meter.c ****             part_draw_dsc.line_dsc = &line_dsc;
 2517              		.loc 1 592 32 view .LVU932
 2518 07d2 4A93     		str	r3, [sp, #296]
 593:Drivers/lvgl/src/extra/widgets/meter/lv_meter.c ****             part_draw_dsc.p2 = &p_end;
 2519              		.loc 1 593 13 is_stmt 1 view .LVU933
 594:Drivers/lvgl/src/extra/widgets/meter/lv_meter.c ****             part_draw_dsc.p1 = &scale_center;
 2520              		.loc 1 594 13 view .LVU934
 594:Drivers/lvgl/src/extra/widgets/meter/lv_meter.c ****             part_draw_dsc.p1 = &scale_center;
 2521              		.loc 1 594 30 is_stmt 0 view .LVU935
 2522 07d4 5295     		str	r5, [sp, #328]
 595:Drivers/lvgl/src/extra/widgets/meter/lv_meter.c ****             lv_event_send(obj, LV_EVENT_DRAW_PART_BEGIN, &part_draw_dsc);
 2523              		.loc 1 595 13 is_stmt 1 view .LVU936
 596:Drivers/lvgl/src/extra/widgets/meter/lv_meter.c ****             lv_draw_line(draw_ctx, &line_dsc, part_draw_dsc.p1, &p_end);
 2524              		.loc 1 596 13 view .LVU937
 2525 07d6 FFF7FEFF 		bl	lv_event_send
 2526              	.LVL231:
 597:Drivers/lvgl/src/extra/widgets/meter/lv_meter.c ****             lv_event_send(obj, LV_EVENT_DRAW_PART_END, &part_draw_dsc);
 2527              		.loc 1 597 13 view .LVU938
 2528 07da DDE90801 		ldrd	r0, r1, [sp, #32]
 2529 07de 519A     		ldr	r2, [sp, #324]
 2530 07e0 2B46     		mov	r3, r5
 2531 07e2 FFF7FEFF 		bl	lv_draw_line
 2532              	.LVL232:
 598:Drivers/lvgl/src/extra/widgets/meter/lv_meter.c ****         }
 2533              		.loc 1 598 13 view .LVU939
 2534 07e6 48AA     		add	r2, sp, #288
 2535 07e8 1B21     		movs	r1, #27
 2536 07ea 5046     		mov	r0, r10
 2537 07ec FFF7FEFF 		bl	lv_event_send
 2538              	.LVL233:
 2539              	.LBE195:
 2540 07f0 95E7     		b	.L43
 2541              	.LVL234:
 2542              	.L49:
 598:Drivers/lvgl/src/extra/widgets/meter/lv_meter.c ****         }
 2543              		.loc 1 598 13 is_stmt 0 view .LVU940
 2544              	.LBE196:
 2545              	.LBE197:
 2546              	.LBE177:
 2547              	.LBB198:
 2548              	.LBB176:
 2549              	.LBB175:
 437:Drivers/lvgl/src/extra/widgets/meter/lv_meter.c ****         uint16_t i;
 2550              		.loc 1 437 80 discriminator 2 view .LVU941
ARM GAS  /var/folders/lp/x54gwt890xv47sdkqj1k04q40000gn/T//ccVgM3G4.s 			page 91


 2551 07f2 4FF6FF78 		movw	r8, #65535
 2552 07f6 7BE5     		b	.L29
 2553              	.LVL235:
 2554              	.L28:
 437:Drivers/lvgl/src/extra/widgets/meter/lv_meter.c ****         uint16_t i;
 2555              		.loc 1 437 80 discriminator 2 view .LVU942
 2556              	.LBE175:
 2557              	.LBE176:
 2558              	.LBE198:
 307:Drivers/lvgl/src/extra/widgets/meter/lv_meter.c ****         lv_point_t scale_center;
 2559              		.loc 1 307 9 is_stmt 1 view .LVU943
 2560              	.LBB199:
 2561              	.LBI199:
 123:Drivers/lvgl/src/extra/widgets/meter/../../../../src/hal/../draw/../misc/../font/../misc/lv_area.h **** {
 2562              		.loc 3 123 26 view .LVU944
 2563              	.LBB200:
 125:Drivers/lvgl/src/extra/widgets/meter/../../../../src/hal/../draw/../misc/../font/../misc/lv_area.h **** }
 2564              		.loc 3 125 5 view .LVU945
 125:Drivers/lvgl/src/extra/widgets/meter/../../../../src/hal/../draw/../misc/../font/../misc/lv_area.h **** }
 2565              		.loc 3 125 49 is_stmt 0 view .LVU946
 2566 07f8 BDF85830 		ldrh	r3, [sp, #88]
 125:Drivers/lvgl/src/extra/widgets/meter/../../../../src/hal/../draw/../misc/../font/../misc/lv_area.h **** }
 2567              		.loc 3 125 44 view .LVU947
 2568 07fc BDF85420 		ldrh	r2, [sp, #84]
 2569              	.LVL236:
 125:Drivers/lvgl/src/extra/widgets/meter/../../../../src/hal/../draw/../misc/../font/../misc/lv_area.h **** }
 2570              		.loc 3 125 44 view .LVU948
 2571              	.LBE200:
 2572              	.LBE199:
 308:Drivers/lvgl/src/extra/widgets/meter/lv_meter.c ****         scale_center.x = scale_area.x1 + r_edge;
 2573              		.loc 1 308 9 is_stmt 1 view .LVU949
 309:Drivers/lvgl/src/extra/widgets/meter/lv_meter.c ****         scale_center.y = scale_area.y1 + r_edge;
 2574              		.loc 1 309 9 view .LVU950
 310:Drivers/lvgl/src/extra/widgets/meter/lv_meter.c **** 
 2575              		.loc 1 310 40 is_stmt 0 view .LVU951
 2576 0800 BDF85610 		ldrh	r1, [sp, #86]
 2577              	.LBB202:
 2578              	.LBB201:
 125:Drivers/lvgl/src/extra/widgets/meter/../../../../src/hal/../draw/../misc/../font/../misc/lv_area.h **** }
 2579              		.loc 3 125 49 view .LVU952
 2580 0804 0133     		adds	r3, r3, #1
 2581 0806 9B1A     		subs	r3, r3, r2
 2582              	.LBE201:
 2583              	.LBE202:
 307:Drivers/lvgl/src/extra/widgets/meter/lv_meter.c ****         lv_point_t scale_center;
 2584              		.loc 1 307 20 discriminator 1 view .LVU953
 2585 0808 C3F3C030 		ubfx	r0, r3, #15, #1
 2586 080c 00FA83F3 		sxtah	r3, r0, r3
 309:Drivers/lvgl/src/extra/widgets/meter/lv_meter.c ****         scale_center.y = scale_area.y1 + r_edge;
 2587              		.loc 1 309 40 view .LVU954
 2588 0810 C3F34F03 		ubfx	r3, r3, #1, #16
 2589 0814 1A44     		add	r2, r2, r3
 2590              	.LVL237:
 313:Drivers/lvgl/src/extra/widgets/meter/lv_meter.c ****         lv_obj_init_draw_rect_dsc(obj, LV_PART_INDICATOR, &mid_dsc);
 2591              		.loc 1 313 9 view .LVU955
 2592 0816 48A8     		add	r0, sp, #288
 310:Drivers/lvgl/src/extra/widgets/meter/lv_meter.c **** 
ARM GAS  /var/folders/lp/x54gwt890xv47sdkqj1k04q40000gn/T//ccVgM3G4.s 			page 92


 2593              		.loc 1 310 40 view .LVU956
 2594 0818 0B44     		add	r3, r3, r1
 2595 081a 9CB2     		uxth	r4, r3
 309:Drivers/lvgl/src/extra/widgets/meter/lv_meter.c ****         scale_center.y = scale_area.y1 + r_edge;
 2596              		.loc 1 309 40 view .LVU957
 2597 081c 95B2     		uxth	r5, r2
 2598              	.LVL238:
 310:Drivers/lvgl/src/extra/widgets/meter/lv_meter.c **** 
 2599              		.loc 1 310 9 is_stmt 1 view .LVU958
 312:Drivers/lvgl/src/extra/widgets/meter/lv_meter.c ****         lv_draw_rect_dsc_init(&mid_dsc);
 2600              		.loc 1 312 9 view .LVU959
 313:Drivers/lvgl/src/extra/widgets/meter/lv_meter.c ****         lv_obj_init_draw_rect_dsc(obj, LV_PART_INDICATOR, &mid_dsc);
 2601              		.loc 1 313 9 view .LVU960
 2602 081e FFF7FEFF 		bl	lv_draw_rect_dsc_init
 2603              	.LVL239:
 314:Drivers/lvgl/src/extra/widgets/meter/lv_meter.c ****         lv_coord_t w = lv_obj_get_style_width(obj, LV_PART_INDICATOR) / 2;
 2604              		.loc 1 314 9 view .LVU961
 2605 0822 079F     		ldr	r7, [sp, #28]
 2606 0824 48AA     		add	r2, sp, #288
 2607 0826 3846     		mov	r0, r7
 2608 0828 4FF40031 		mov	r1, #131072
 2609 082c FFF7FEFF 		bl	lv_obj_init_draw_rect_dsc
 2610              	.LVL240:
 315:Drivers/lvgl/src/extra/widgets/meter/lv_meter.c ****         lv_coord_t h = lv_obj_get_style_height(obj, LV_PART_INDICATOR) / 2;
 2611              		.loc 1 315 9 view .LVU962
 2612              	.LBB203:
 2613              	.LBI203:
   1:Drivers/lvgl/src/extra/widgets/meter/../../../../src/core/lv_obj_style_gen.h **** {
 2614              		.loc 2 1 26 view .LVU963
 2615              	.LBB204:
   3:Drivers/lvgl/src/extra/widgets/meter/../../../../src/core/lv_obj_style_gen.h ****     return (lv_coord_t)v.num;
 2616              		.loc 2 3 5 view .LVU964
   3:Drivers/lvgl/src/extra/widgets/meter/../../../../src/core/lv_obj_style_gen.h ****     return (lv_coord_t)v.num;
 2617              		.loc 2 3 26 is_stmt 0 view .LVU965
 2618 0830 0122     		movs	r2, #1
 2619 0832 4FF40031 		mov	r1, #131072
 2620 0836 3846     		mov	r0, r7
 2621 0838 FFF7FEFF 		bl	lv_obj_get_style_prop
 2622              	.LVL241:
   4:Drivers/lvgl/src/extra/widgets/meter/../../../../src/core/lv_obj_style_gen.h **** }
 2623              		.loc 2 4 5 is_stmt 1 view .LVU966
 2624              	.LBE204:
 2625              	.LBE203:
 2626              	.LBB206:
 2627              	.LBB207:
  21:Drivers/lvgl/src/extra/widgets/meter/../../../../src/core/lv_obj_style_gen.h ****     return (lv_coord_t)v.num;
 2628              		.loc 2 21 26 is_stmt 0 view .LVU967
 2629 083c 0422     		movs	r2, #4
 2630              	.LBE207:
 2631              	.LBE206:
 2632              	.LBB210:
 2633              	.LBB205:
   4:Drivers/lvgl/src/extra/widgets/meter/../../../../src/core/lv_obj_style_gen.h **** }
 2634              		.loc 2 4 12 view .LVU968
 2635 083e 06B2     		sxth	r6, r0
 2636              	.LVL242:
   4:Drivers/lvgl/src/extra/widgets/meter/../../../../src/core/lv_obj_style_gen.h **** }
ARM GAS  /var/folders/lp/x54gwt890xv47sdkqj1k04q40000gn/T//ccVgM3G4.s 			page 93


 2637              		.loc 2 4 12 view .LVU969
 2638              	.LBE205:
 2639              	.LBE210:
 316:Drivers/lvgl/src/extra/widgets/meter/lv_meter.c ****         lv_area_t nm_cord;
 2640              		.loc 1 316 9 is_stmt 1 view .LVU970
 2641              	.LBB211:
 2642              	.LBI206:
  19:Drivers/lvgl/src/extra/widgets/meter/../../../../src/core/lv_obj_style_gen.h **** {
 2643              		.loc 2 19 26 view .LVU971
 2644              	.LBB208:
  21:Drivers/lvgl/src/extra/widgets/meter/../../../../src/core/lv_obj_style_gen.h ****     return (lv_coord_t)v.num;
 2645              		.loc 2 21 5 view .LVU972
  21:Drivers/lvgl/src/extra/widgets/meter/../../../../src/core/lv_obj_style_gen.h ****     return (lv_coord_t)v.num;
 2646              		.loc 2 21 26 is_stmt 0 view .LVU973
 2647 0840 4FF40031 		mov	r1, #131072
 2648 0844 3846     		mov	r0, r7
 2649 0846 FFF7FEFF 		bl	lv_obj_get_style_prop
 2650              	.LVL243:
  22:Drivers/lvgl/src/extra/widgets/meter/../../../../src/core/lv_obj_style_gen.h **** }
 2651              		.loc 2 22 5 is_stmt 1 view .LVU974
  22:Drivers/lvgl/src/extra/widgets/meter/../../../../src/core/lv_obj_style_gen.h **** }
 2652              		.loc 2 22 5 is_stmt 0 view .LVU975
 2653              	.LBE208:
 2654              	.LBE211:
 315:Drivers/lvgl/src/extra/widgets/meter/lv_meter.c ****         lv_coord_t h = lv_obj_get_style_height(obj, LV_PART_INDICATOR) / 2;
 2655              		.loc 1 315 20 discriminator 1 view .LVU976
 2656 084a 06EBD676 		add	r6, r6, r6, lsr #31
 2657              	.LVL244:
 2658              	.LBB212:
 2659              	.LBB209:
  21:Drivers/lvgl/src/extra/widgets/meter/../../../../src/core/lv_obj_style_gen.h ****     return (lv_coord_t)v.num;
 2660              		.loc 2 21 26 view .LVU977
 2661 084e 0746     		mov	r7, r0
 2662              	.LVL245:
  21:Drivers/lvgl/src/extra/widgets/meter/../../../../src/core/lv_obj_style_gen.h ****     return (lv_coord_t)v.num;
 2663              		.loc 2 21 26 view .LVU978
 2664              	.LBE209:
 2665              	.LBE212:
 317:Drivers/lvgl/src/extra/widgets/meter/lv_meter.c ****         nm_cord.x1 = scale_center.x - w;
 2666              		.loc 1 317 9 is_stmt 1 view .LVU979
 318:Drivers/lvgl/src/extra/widgets/meter/lv_meter.c ****         nm_cord.y1 = scale_center.y - h;
 2667              		.loc 1 318 9 view .LVU980
 318:Drivers/lvgl/src/extra/widgets/meter/lv_meter.c ****         nm_cord.y1 = scale_center.y - h;
 2668              		.loc 1 318 37 is_stmt 0 view .LVU981
 2669 0850 C6F34F03 		ubfx	r3, r6, #1, #16
 316:Drivers/lvgl/src/extra/widgets/meter/lv_meter.c ****         lv_area_t nm_cord;
 2670              		.loc 1 316 20 discriminator 1 view .LVU982
 2671 0854 C7F3C036 		ubfx	r6, r7, #15, #1
 2672 0858 06FA87F6 		sxtah	r6, r6, r7
 319:Drivers/lvgl/src/extra/widgets/meter/lv_meter.c ****         nm_cord.x2 = scale_center.x + w;
 2673              		.loc 1 319 37 view .LVU983
 2674 085c C6F34F06 		ubfx	r6, r6, #1, #16
 318:Drivers/lvgl/src/extra/widgets/meter/lv_meter.c ****         nm_cord.y1 = scale_center.y - h;
 2675              		.loc 1 318 37 view .LVU984
 2676 0860 EF1A     		subs	r7, r5, r3
 2677              	.LVL246:
 322:Drivers/lvgl/src/extra/widgets/meter/lv_meter.c ****     }
ARM GAS  /var/folders/lp/x54gwt890xv47sdkqj1k04q40000gn/T//ccVgM3G4.s 			page 94


 2678              		.loc 1 322 9 view .LVU985
 2679 0862 0898     		ldr	r0, [sp, #32]
 318:Drivers/lvgl/src/extra/widgets/meter/lv_meter.c ****         nm_cord.y1 = scale_center.y - h;
 2680              		.loc 1 318 20 view .LVU986
 2681 0864 ADF80071 		strh	r7, [sp, #256]	@ movhi
 319:Drivers/lvgl/src/extra/widgets/meter/lv_meter.c ****         nm_cord.x2 = scale_center.x + w;
 2682              		.loc 1 319 9 is_stmt 1 view .LVU987
 320:Drivers/lvgl/src/extra/widgets/meter/lv_meter.c ****         nm_cord.y2 = scale_center.y + h;
 2683              		.loc 1 320 37 is_stmt 0 view .LVU988
 2684 0868 1D44     		add	r5, r5, r3
 2685              	.LVL247:
 322:Drivers/lvgl/src/extra/widgets/meter/lv_meter.c ****     }
 2686              		.loc 1 322 9 view .LVU989
 2687 086a 40AA     		add	r2, sp, #256
 319:Drivers/lvgl/src/extra/widgets/meter/lv_meter.c ****         nm_cord.x2 = scale_center.x + w;
 2688              		.loc 1 319 37 view .LVU990
 2689 086c A31B     		subs	r3, r4, r6
 322:Drivers/lvgl/src/extra/widgets/meter/lv_meter.c ****     }
 2690              		.loc 1 322 9 view .LVU991
 2691 086e 48A9     		add	r1, sp, #288
 321:Drivers/lvgl/src/extra/widgets/meter/lv_meter.c ****         lv_draw_rect(draw_ctx, &mid_dsc, &nm_cord);
 2692              		.loc 1 321 37 view .LVU992
 2693 0870 3444     		add	r4, r4, r6
 2694              	.LVL248:
 320:Drivers/lvgl/src/extra/widgets/meter/lv_meter.c ****         nm_cord.y2 = scale_center.y + h;
 2695              		.loc 1 320 20 view .LVU993
 2696 0872 ADF80451 		strh	r5, [sp, #260]	@ movhi
 319:Drivers/lvgl/src/extra/widgets/meter/lv_meter.c ****         nm_cord.x2 = scale_center.x + w;
 2697              		.loc 1 319 20 view .LVU994
 2698 0876 ADF80231 		strh	r3, [sp, #258]	@ movhi
 320:Drivers/lvgl/src/extra/widgets/meter/lv_meter.c ****         nm_cord.y2 = scale_center.y + h;
 2699              		.loc 1 320 9 is_stmt 1 view .LVU995
 321:Drivers/lvgl/src/extra/widgets/meter/lv_meter.c ****         lv_draw_rect(draw_ctx, &mid_dsc, &nm_cord);
 2700              		.loc 1 321 9 view .LVU996
 321:Drivers/lvgl/src/extra/widgets/meter/lv_meter.c ****         lv_draw_rect(draw_ctx, &mid_dsc, &nm_cord);
 2701              		.loc 1 321 20 is_stmt 0 view .LVU997
 2702 087a ADF80641 		strh	r4, [sp, #262]	@ movhi
 322:Drivers/lvgl/src/extra/widgets/meter/lv_meter.c ****     }
 2703              		.loc 1 322 9 is_stmt 1 view .LVU998
 2704 087e FFF7FEFF 		bl	lv_draw_rect
 2705              	.LVL249:
 2706 0882 FFF7C6BB 		b	.L17
 2707              	.LVL250:
 2708              	.L67:
 322:Drivers/lvgl/src/extra/widgets/meter/lv_meter.c ****     }
 2709              		.loc 1 322 9 is_stmt 0 view .LVU999
 2710 0886 26AB     		add	r3, sp, #152
 2711 0888 0D93     		str	r3, [sp, #52]
 2712 088a 9EE6     		b	.L23
 2713              	.LBE138:
 2714              	.LBE137:
 2715              	.LBE136:
 2716              		.cfi_endproc
 2717              	.LFE218:
 2719              		.section	.text.lv_meter_create,"ax",%progbits
 2720              		.align	1
 2721              		.p2align 2,,3
ARM GAS  /var/folders/lp/x54gwt890xv47sdkqj1k04q40000gn/T//ccVgM3G4.s 			page 95


 2722              		.global	lv_meter_create
 2723              		.syntax unified
 2724              		.thumb
 2725              		.thumb_func
 2727              	lv_meter_create:
 2728              	.LVL251:
 2729              	.LFB204:
  55:Drivers/lvgl/src/extra/widgets/meter/lv_meter.c ****     LV_LOG_INFO("begin");
 2730              		.loc 1 55 1 is_stmt 1 view -0
 2731              		.cfi_startproc
 2732              		@ args = 0, pretend = 0, frame = 0
 2733              		@ frame_needed = 0, uses_anonymous_args = 0
  56:Drivers/lvgl/src/extra/widgets/meter/lv_meter.c ****     lv_obj_t * obj = lv_obj_class_create_obj(MY_CLASS, parent);
 2734              		.loc 1 56 5 view .LVU1001
  56:Drivers/lvgl/src/extra/widgets/meter/lv_meter.c ****     lv_obj_t * obj = lv_obj_class_create_obj(MY_CLASS, parent);
 2735              		.loc 1 56 5 view .LVU1002
  56:Drivers/lvgl/src/extra/widgets/meter/lv_meter.c ****     lv_obj_t * obj = lv_obj_class_create_obj(MY_CLASS, parent);
 2736              		.loc 1 56 5 view .LVU1003
  57:Drivers/lvgl/src/extra/widgets/meter/lv_meter.c ****     lv_obj_class_init_obj(obj);
 2737              		.loc 1 57 5 view .LVU1004
  55:Drivers/lvgl/src/extra/widgets/meter/lv_meter.c ****     LV_LOG_INFO("begin");
 2738              		.loc 1 55 1 is_stmt 0 view .LVU1005
 2739 0000 10B5     		push	{r4, lr}
 2740              		.cfi_def_cfa_offset 8
 2741              		.cfi_offset 4, -8
 2742              		.cfi_offset 14, -4
  55:Drivers/lvgl/src/extra/widgets/meter/lv_meter.c ****     LV_LOG_INFO("begin");
 2743              		.loc 1 55 1 view .LVU1006
 2744 0002 0146     		mov	r1, r0
  57:Drivers/lvgl/src/extra/widgets/meter/lv_meter.c ****     lv_obj_class_init_obj(obj);
 2745              		.loc 1 57 22 view .LVU1007
 2746 0004 0348     		ldr	r0, .L78
 2747              	.LVL252:
  57:Drivers/lvgl/src/extra/widgets/meter/lv_meter.c ****     lv_obj_class_init_obj(obj);
 2748              		.loc 1 57 22 view .LVU1008
 2749 0006 FFF7FEFF 		bl	lv_obj_class_create_obj
 2750              	.LVL253:
  57:Drivers/lvgl/src/extra/widgets/meter/lv_meter.c ****     lv_obj_class_init_obj(obj);
 2751              		.loc 1 57 22 view .LVU1009
 2752 000a 0446     		mov	r4, r0
 2753              	.LVL254:
  58:Drivers/lvgl/src/extra/widgets/meter/lv_meter.c ****     return obj;
 2754              		.loc 1 58 5 is_stmt 1 view .LVU1010
 2755 000c FFF7FEFF 		bl	lv_obj_class_init_obj
 2756              	.LVL255:
  59:Drivers/lvgl/src/extra/widgets/meter/lv_meter.c **** }
 2757              		.loc 1 59 5 view .LVU1011
  60:Drivers/lvgl/src/extra/widgets/meter/lv_meter.c **** 
 2758              		.loc 1 60 1 is_stmt 0 view .LVU1012
 2759 0010 2046     		mov	r0, r4
 2760 0012 10BD     		pop	{r4, pc}
 2761              	.LVL256:
 2762              	.L79:
  60:Drivers/lvgl/src/extra/widgets/meter/lv_meter.c **** 
 2763              		.loc 1 60 1 view .LVU1013
 2764              		.align	2
 2765              	.L78:
ARM GAS  /var/folders/lp/x54gwt890xv47sdkqj1k04q40000gn/T//ccVgM3G4.s 			page 96


 2766 0014 00000000 		.word	lv_meter_class
 2767              		.cfi_endproc
 2768              	.LFE204:
 2770              		.section	.text.lv_meter_add_scale,"ax",%progbits
 2771              		.align	1
 2772              		.p2align 2,,3
 2773              		.global	lv_meter_add_scale
 2774              		.syntax unified
 2775              		.thumb
 2776              		.thumb_func
 2778              	lv_meter_add_scale:
 2779              	.LVL257:
 2780              	.LFB205:
  67:Drivers/lvgl/src/extra/widgets/meter/lv_meter.c ****     LV_ASSERT_OBJ(obj, MY_CLASS);
 2781              		.loc 1 67 1 is_stmt 1 view -0
 2782              		.cfi_startproc
 2783              		@ args = 0, pretend = 0, frame = 0
 2784              		@ frame_needed = 0, uses_anonymous_args = 0
  68:Drivers/lvgl/src/extra/widgets/meter/lv_meter.c ****     lv_meter_t * meter = (lv_meter_t *)obj;
 2785              		.loc 1 68 5 view .LVU1015
  68:Drivers/lvgl/src/extra/widgets/meter/lv_meter.c ****     lv_meter_t * meter = (lv_meter_t *)obj;
 2786              		.loc 1 68 5 view .LVU1016
  68:Drivers/lvgl/src/extra/widgets/meter/lv_meter.c ****     lv_meter_t * meter = (lv_meter_t *)obj;
 2787              		.loc 1 68 5 view .LVU1017
  69:Drivers/lvgl/src/extra/widgets/meter/lv_meter.c **** 
 2788              		.loc 1 69 5 view .LVU1018
  71:Drivers/lvgl/src/extra/widgets/meter/lv_meter.c ****     LV_ASSERT_MALLOC(scale);
 2789              		.loc 1 71 5 view .LVU1019
  67:Drivers/lvgl/src/extra/widgets/meter/lv_meter.c ****     LV_ASSERT_OBJ(obj, MY_CLASS);
 2790              		.loc 1 67 1 is_stmt 0 view .LVU1020
 2791 0000 10B5     		push	{r4, lr}
 2792              		.cfi_def_cfa_offset 8
 2793              		.cfi_offset 4, -8
 2794              		.cfi_offset 14, -4
  71:Drivers/lvgl/src/extra/widgets/meter/lv_meter.c ****     LV_ASSERT_MALLOC(scale);
 2795              		.loc 1 71 32 view .LVU1021
 2796 0002 2430     		adds	r0, r0, #36
 2797              	.LVL258:
  71:Drivers/lvgl/src/extra/widgets/meter/lv_meter.c ****     LV_ASSERT_MALLOC(scale);
 2798              		.loc 1 71 32 view .LVU1022
 2799 0004 FFF7FEFF 		bl	_lv_ll_ins_head
 2800              	.LVL259:
  72:Drivers/lvgl/src/extra/widgets/meter/lv_meter.c ****     lv_memset_00(scale, sizeof(lv_meter_scale_t));
 2801              		.loc 1 72 5 is_stmt 1 view .LVU1023
  72:Drivers/lvgl/src/extra/widgets/meter/lv_meter.c ****     lv_memset_00(scale, sizeof(lv_meter_scale_t));
 2802              		.loc 1 72 5 view .LVU1024
 2803 0008 A0B1     		cbz	r0, .L82
 2804 000a 0446     		mov	r4, r0
  72:Drivers/lvgl/src/extra/widgets/meter/lv_meter.c ****     lv_memset_00(scale, sizeof(lv_meter_scale_t));
 2805              		.loc 1 72 5 discriminator 2 view .LVU1025
  72:Drivers/lvgl/src/extra/widgets/meter/lv_meter.c ****     lv_memset_00(scale, sizeof(lv_meter_scale_t));
 2806              		.loc 1 72 28 discriminator 2 view .LVU1026
  73:Drivers/lvgl/src/extra/widgets/meter/lv_meter.c **** 
 2807              		.loc 1 73 5 view .LVU1027
 2808 000c 2421     		movs	r1, #36
 2809 000e FFF7FEFF 		bl	lv_memset_00
 2810              	.LVL260:
ARM GAS  /var/folders/lp/x54gwt890xv47sdkqj1k04q40000gn/T//ccVgM3G4.s 			page 97


  75:Drivers/lvgl/src/extra/widgets/meter/lv_meter.c ****     scale->rotation = 90 + (360 - scale->angle_range) / 2;
 2811              		.loc 1 75 5 view .LVU1028
  75:Drivers/lvgl/src/extra/widgets/meter/lv_meter.c ****     scale->rotation = 90 + (360 - scale->angle_range) / 2;
 2812              		.loc 1 75 24 is_stmt 0 view .LVU1029
 2813 0012 4FF48770 		mov	r0, #270
  76:Drivers/lvgl/src/extra/widgets/meter/lv_meter.c ****     scale->min = 0;
 2814              		.loc 1 76 21 view .LVU1030
 2815 0016 8721     		movs	r1, #135
  81:Drivers/lvgl/src/extra/widgets/meter/lv_meter.c ****     scale->label_gap = 2;
 2816              		.loc 1 81 23 view .LVU1031
 2817 0018 0223     		movs	r3, #2
  79:Drivers/lvgl/src/extra/widgets/meter/lv_meter.c ****     scale->tick_length = 8;
 2818              		.loc 1 79 21 view .LVU1032
 2819 001a 074A     		ldr	r2, .L84
  75:Drivers/lvgl/src/extra/widgets/meter/lv_meter.c ****     scale->rotation = 90 + (360 - scale->angle_range) / 2;
 2820              		.loc 1 75 24 view .LVU1033
 2821 001c E083     		strh	r0, [r4, #30]	@ movhi
  76:Drivers/lvgl/src/extra/widgets/meter/lv_meter.c ****     scale->min = 0;
 2822              		.loc 1 76 5 is_stmt 1 view .LVU1034
  76:Drivers/lvgl/src/extra/widgets/meter/lv_meter.c ****     scale->min = 0;
 2823              		.loc 1 76 21 is_stmt 0 view .LVU1035
 2824 001e 2184     		strh	r1, [r4, #32]	@ movhi
  77:Drivers/lvgl/src/extra/widgets/meter/lv_meter.c ****     scale->max = 100;
 2825              		.loc 1 77 5 is_stmt 1 view .LVU1036
  78:Drivers/lvgl/src/extra/widgets/meter/lv_meter.c ****     scale->tick_cnt = 6;
 2826              		.loc 1 78 16 is_stmt 0 view .LVU1037
 2827 0020 0020     		movs	r0, #0
 2828 0022 6421     		movs	r1, #100
 2829 0024 C4E90501 		strd	r0, r1, [r4, #20]
  79:Drivers/lvgl/src/extra/widgets/meter/lv_meter.c ****     scale->tick_length = 8;
 2830              		.loc 1 79 5 is_stmt 1 view .LVU1038
  80:Drivers/lvgl/src/extra/widgets/meter/lv_meter.c ****     scale->tick_width = 2;
 2831              		.loc 1 80 5 view .LVU1039
  79:Drivers/lvgl/src/extra/widgets/meter/lv_meter.c ****     scale->tick_length = 8;
 2832              		.loc 1 79 21 is_stmt 0 view .LVU1040
 2833 0028 C4F80220 		str	r2, [r4, #2]	@ unaligned
  81:Drivers/lvgl/src/extra/widgets/meter/lv_meter.c ****     scale->label_gap = 2;
 2834              		.loc 1 81 5 is_stmt 1 view .LVU1041
  81:Drivers/lvgl/src/extra/widgets/meter/lv_meter.c ****     scale->label_gap = 2;
 2835              		.loc 1 81 23 is_stmt 0 view .LVU1042
 2836 002c E380     		strh	r3, [r4, #6]	@ movhi
  82:Drivers/lvgl/src/extra/widgets/meter/lv_meter.c **** 
 2837              		.loc 1 82 5 is_stmt 1 view .LVU1043
  82:Drivers/lvgl/src/extra/widgets/meter/lv_meter.c **** 
 2838              		.loc 1 82 22 is_stmt 0 view .LVU1044
 2839 002e 2382     		strh	r3, [r4, #16]	@ movhi
  84:Drivers/lvgl/src/extra/widgets/meter/lv_meter.c **** }
 2840              		.loc 1 84 5 is_stmt 1 view .LVU1045
  85:Drivers/lvgl/src/extra/widgets/meter/lv_meter.c **** 
 2841              		.loc 1 85 1 is_stmt 0 view .LVU1046
 2842 0030 2046     		mov	r0, r4
 2843 0032 10BD     		pop	{r4, pc}
 2844              	.LVL261:
 2845              	.L82:
  72:Drivers/lvgl/src/extra/widgets/meter/lv_meter.c ****     lv_memset_00(scale, sizeof(lv_meter_scale_t));
 2846              		.loc 1 72 5 is_stmt 1 discriminator 1 view .LVU1047
  72:Drivers/lvgl/src/extra/widgets/meter/lv_meter.c ****     lv_memset_00(scale, sizeof(lv_meter_scale_t));
ARM GAS  /var/folders/lp/x54gwt890xv47sdkqj1k04q40000gn/T//ccVgM3G4.s 			page 98


 2847              		.loc 1 72 5 discriminator 1 view .LVU1048
  72:Drivers/lvgl/src/extra/widgets/meter/lv_meter.c ****     lv_memset_00(scale, sizeof(lv_meter_scale_t));
 2848              		.loc 1 72 5 discriminator 1 view .LVU1049
  72:Drivers/lvgl/src/extra/widgets/meter/lv_meter.c ****     lv_memset_00(scale, sizeof(lv_meter_scale_t));
 2849              		.loc 1 72 5 discriminator 1 view .LVU1050
  72:Drivers/lvgl/src/extra/widgets/meter/lv_meter.c ****     lv_memset_00(scale, sizeof(lv_meter_scale_t));
 2850              		.loc 1 72 5 discriminator 1 view .LVU1051
  72:Drivers/lvgl/src/extra/widgets/meter/lv_meter.c ****     lv_memset_00(scale, sizeof(lv_meter_scale_t));
 2851              		.loc 1 72 5 discriminator 1 view .LVU1052
  72:Drivers/lvgl/src/extra/widgets/meter/lv_meter.c ****     lv_memset_00(scale, sizeof(lv_meter_scale_t));
 2852              		.loc 1 72 5 discriminator 1 view .LVU1053
  72:Drivers/lvgl/src/extra/widgets/meter/lv_meter.c ****     lv_memset_00(scale, sizeof(lv_meter_scale_t));
 2853              		.loc 1 72 5 discriminator 1 view .LVU1054
  72:Drivers/lvgl/src/extra/widgets/meter/lv_meter.c ****     lv_memset_00(scale, sizeof(lv_meter_scale_t));
 2854              		.loc 1 72 5 discriminator 1 view .LVU1055
  72:Drivers/lvgl/src/extra/widgets/meter/lv_meter.c ****     lv_memset_00(scale, sizeof(lv_meter_scale_t));
 2855              		.loc 1 72 5 discriminator 1 view .LVU1056
 2856 0034 FEE7     		b	.L82
 2857              	.L85:
 2858 0036 00BF     		.align	2
 2859              	.L84:
 2860 0038 06000800 		.word	524294
 2861              		.cfi_endproc
 2862              	.LFE205:
 2864              		.section	.text.lv_meter_set_scale_ticks,"ax",%progbits
 2865              		.align	1
 2866              		.p2align 2,,3
 2867              		.global	lv_meter_set_scale_ticks
 2868              		.syntax unified
 2869              		.thumb
 2870              		.thumb_func
 2872              	lv_meter_set_scale_ticks:
 2873              	.LVL262:
 2874              	.LFB206:
  89:Drivers/lvgl/src/extra/widgets/meter/lv_meter.c ****     scale->tick_cnt = cnt;
 2875              		.loc 1 89 1 view -0
 2876              		.cfi_startproc
 2877              		@ args = 8, pretend = 0, frame = 0
 2878              		@ frame_needed = 0, uses_anonymous_args = 0
 2879              		@ link register save eliminated.
  90:Drivers/lvgl/src/extra/widgets/meter/lv_meter.c ****     scale->tick_width = width;
 2880              		.loc 1 90 5 view .LVU1058
  89:Drivers/lvgl/src/extra/widgets/meter/lv_meter.c ****     scale->tick_cnt = cnt;
 2881              		.loc 1 89 1 is_stmt 0 view .LVU1059
 2882 0000 BDF800C0 		ldrh	ip, [sp]
  91:Drivers/lvgl/src/extra/widgets/meter/lv_meter.c ****     scale->tick_length = len;
 2883              		.loc 1 91 23 view .LVU1060
 2884 0004 CB80     		strh	r3, [r1, #6]	@ movhi
  89:Drivers/lvgl/src/extra/widgets/meter/lv_meter.c ****     scale->tick_cnt = cnt;
 2885              		.loc 1 89 1 view .LVU1061
 2886 0006 BDF80430 		ldrh	r3, [sp, #4]
 2887              	.LVL263:
  92:Drivers/lvgl/src/extra/widgets/meter/lv_meter.c ****     scale->tick_color = color;
 2888              		.loc 1 92 24 view .LVU1062
 2889 000a A1F804C0 		strh	ip, [r1, #4]	@ movhi
  90:Drivers/lvgl/src/extra/widgets/meter/lv_meter.c ****     scale->tick_width = width;
 2890              		.loc 1 90 21 view .LVU1063
ARM GAS  /var/folders/lp/x54gwt890xv47sdkqj1k04q40000gn/T//ccVgM3G4.s 			page 99


 2891 000e 4A80     		strh	r2, [r1, #2]	@ movhi
  91:Drivers/lvgl/src/extra/widgets/meter/lv_meter.c ****     scale->tick_length = len;
 2892              		.loc 1 91 5 is_stmt 1 view .LVU1064
  92:Drivers/lvgl/src/extra/widgets/meter/lv_meter.c ****     scale->tick_color = color;
 2893              		.loc 1 92 5 view .LVU1065
  93:Drivers/lvgl/src/extra/widgets/meter/lv_meter.c ****     lv_obj_invalidate(obj);
 2894              		.loc 1 93 5 view .LVU1066
  93:Drivers/lvgl/src/extra/widgets/meter/lv_meter.c ****     lv_obj_invalidate(obj);
 2895              		.loc 1 93 23 is_stmt 0 view .LVU1067
 2896 0010 0B80     		strh	r3, [r1]	@ movhi
  94:Drivers/lvgl/src/extra/widgets/meter/lv_meter.c **** }
 2897              		.loc 1 94 5 is_stmt 1 view .LVU1068
 2898 0012 FFF7FEBF 		b	lv_obj_invalidate
 2899              	.LVL264:
  94:Drivers/lvgl/src/extra/widgets/meter/lv_meter.c **** }
 2900              		.loc 1 94 5 is_stmt 0 view .LVU1069
 2901              		.cfi_endproc
 2902              	.LFE206:
 2904 0016 00BF     		.section	.text.lv_meter_set_scale_major_ticks,"ax",%progbits
 2905              		.align	1
 2906              		.p2align 2,,3
 2907              		.global	lv_meter_set_scale_major_ticks
 2908              		.syntax unified
 2909              		.thumb
 2910              		.thumb_func
 2912              	lv_meter_set_scale_major_ticks:
 2913              	.LVL265:
 2914              	.LFB207:
  99:Drivers/lvgl/src/extra/widgets/meter/lv_meter.c ****     scale->tick_major_nth = nth;
 2915              		.loc 1 99 1 is_stmt 1 view -0
 2916              		.cfi_startproc
 2917              		@ args = 12, pretend = 0, frame = 0
 2918              		@ frame_needed = 0, uses_anonymous_args = 0
 2919              		@ link register save eliminated.
 100:Drivers/lvgl/src/extra/widgets/meter/lv_meter.c ****     scale->tick_major_width = width;
 2920              		.loc 1 100 5 view .LVU1071
  99:Drivers/lvgl/src/extra/widgets/meter/lv_meter.c ****     scale->tick_major_nth = nth;
 2921              		.loc 1 99 1 is_stmt 0 view .LVU1072
 2922 0000 BDF800C0 		ldrh	ip, [sp]
 100:Drivers/lvgl/src/extra/widgets/meter/lv_meter.c ****     scale->tick_major_width = width;
 2923              		.loc 1 100 27 view .LVU1073
 2924 0004 4A81     		strh	r2, [r1, #10]	@ movhi
 101:Drivers/lvgl/src/extra/widgets/meter/lv_meter.c ****     scale->tick_major_length = len;
 2925              		.loc 1 101 5 is_stmt 1 view .LVU1074
 101:Drivers/lvgl/src/extra/widgets/meter/lv_meter.c ****     scale->tick_major_length = len;
 2926              		.loc 1 101 29 is_stmt 0 view .LVU1075
 2927 0006 CB81     		strh	r3, [r1, #14]	@ movhi
 102:Drivers/lvgl/src/extra/widgets/meter/lv_meter.c ****     scale->tick_major_color = color;
 2928              		.loc 1 102 5 is_stmt 1 view .LVU1076
 103:Drivers/lvgl/src/extra/widgets/meter/lv_meter.c ****     scale->label_gap = label_gap;
 2929              		.loc 1 103 5 view .LVU1077
  99:Drivers/lvgl/src/extra/widgets/meter/lv_meter.c ****     scale->tick_major_nth = nth;
 2930              		.loc 1 99 1 is_stmt 0 view .LVU1078
 2931 0008 BDF80420 		ldrh	r2, [sp, #4]
 2932              	.LVL266:
  99:Drivers/lvgl/src/extra/widgets/meter/lv_meter.c ****     scale->tick_major_nth = nth;
 2933              		.loc 1 99 1 view .LVU1079
ARM GAS  /var/folders/lp/x54gwt890xv47sdkqj1k04q40000gn/T//ccVgM3G4.s 			page 100


 2934 000c BDF90830 		ldrsh	r3, [sp, #8]
 2935              	.LVL267:
 102:Drivers/lvgl/src/extra/widgets/meter/lv_meter.c ****     scale->tick_major_color = color;
 2936              		.loc 1 102 30 view .LVU1080
 2937 0010 A1F80CC0 		strh	ip, [r1, #12]	@ movhi
 103:Drivers/lvgl/src/extra/widgets/meter/lv_meter.c ****     scale->label_gap = label_gap;
 2938              		.loc 1 103 29 view .LVU1081
 2939 0014 0A81     		strh	r2, [r1, #8]	@ movhi
 104:Drivers/lvgl/src/extra/widgets/meter/lv_meter.c ****     lv_obj_invalidate(obj);
 2940              		.loc 1 104 5 is_stmt 1 view .LVU1082
 104:Drivers/lvgl/src/extra/widgets/meter/lv_meter.c ****     lv_obj_invalidate(obj);
 2941              		.loc 1 104 22 is_stmt 0 view .LVU1083
 2942 0016 0B82     		strh	r3, [r1, #16]	@ movhi
 105:Drivers/lvgl/src/extra/widgets/meter/lv_meter.c **** }
 2943              		.loc 1 105 5 is_stmt 1 view .LVU1084
 2944 0018 FFF7FEBF 		b	lv_obj_invalidate
 2945              	.LVL268:
 105:Drivers/lvgl/src/extra/widgets/meter/lv_meter.c **** }
 2946              		.loc 1 105 5 is_stmt 0 view .LVU1085
 2947              		.cfi_endproc
 2948              	.LFE207:
 2950              		.section	.text.lv_meter_set_scale_range,"ax",%progbits
 2951              		.align	1
 2952              		.p2align 2,,3
 2953              		.global	lv_meter_set_scale_range
 2954              		.syntax unified
 2955              		.thumb
 2956              		.thumb_func
 2958              	lv_meter_set_scale_range:
 2959              	.LVL269:
 2960              	.LFB208:
 110:Drivers/lvgl/src/extra/widgets/meter/lv_meter.c ****     scale->min = min;
 2961              		.loc 1 110 1 is_stmt 1 view -0
 2962              		.cfi_startproc
 2963              		@ args = 8, pretend = 0, frame = 0
 2964              		@ frame_needed = 0, uses_anonymous_args = 0
 2965              		@ link register save eliminated.
 111:Drivers/lvgl/src/extra/widgets/meter/lv_meter.c ****     scale->max = max;
 2966              		.loc 1 111 5 view .LVU1087
 112:Drivers/lvgl/src/extra/widgets/meter/lv_meter.c ****     scale->angle_range = angle_range;
 2967              		.loc 1 112 16 is_stmt 0 view .LVU1088
 2968 0000 C1E90523 		strd	r2, r3, [r1, #20]
 113:Drivers/lvgl/src/extra/widgets/meter/lv_meter.c ****     scale->rotation = rotation;
 2969              		.loc 1 113 5 is_stmt 1 view .LVU1089
 114:Drivers/lvgl/src/extra/widgets/meter/lv_meter.c ****     lv_obj_invalidate(obj);
 2970              		.loc 1 114 5 view .LVU1090
 113:Drivers/lvgl/src/extra/widgets/meter/lv_meter.c ****     scale->rotation = rotation;
 2971              		.loc 1 113 24 is_stmt 0 view .LVU1091
 2972 0004 DDF800C0 		ldr	ip, [sp]
 110:Drivers/lvgl/src/extra/widgets/meter/lv_meter.c ****     scale->min = min;
 2973              		.loc 1 110 1 view .LVU1092
 2974 0008 019B     		ldr	r3, [sp, #4]
 2975              	.LVL270:
 113:Drivers/lvgl/src/extra/widgets/meter/lv_meter.c ****     scale->rotation = rotation;
 2976              		.loc 1 113 24 view .LVU1093
 2977 000a A1F81EC0 		strh	ip, [r1, #30]	@ movhi
 114:Drivers/lvgl/src/extra/widgets/meter/lv_meter.c ****     lv_obj_invalidate(obj);
ARM GAS  /var/folders/lp/x54gwt890xv47sdkqj1k04q40000gn/T//ccVgM3G4.s 			page 101


 2978              		.loc 1 114 21 view .LVU1094
 2979 000e 0B84     		strh	r3, [r1, #32]	@ movhi
 115:Drivers/lvgl/src/extra/widgets/meter/lv_meter.c **** }
 2980              		.loc 1 115 5 is_stmt 1 view .LVU1095
 2981 0010 FFF7FEBF 		b	lv_obj_invalidate
 2982              	.LVL271:
 115:Drivers/lvgl/src/extra/widgets/meter/lv_meter.c **** }
 2983              		.loc 1 115 5 is_stmt 0 view .LVU1096
 2984              		.cfi_endproc
 2985              	.LFE208:
 2987              		.section	.text.lv_meter_add_needle_line,"ax",%progbits
 2988              		.align	1
 2989              		.p2align 2,,3
 2990              		.global	lv_meter_add_needle_line
 2991              		.syntax unified
 2992              		.thumb
 2993              		.thumb_func
 2995              	lv_meter_add_needle_line:
 2996              	.LVL272:
 2997              	.LFB209:
 124:Drivers/lvgl/src/extra/widgets/meter/lv_meter.c ****     LV_ASSERT_OBJ(obj, MY_CLASS);
 2998              		.loc 1 124 1 is_stmt 1 view -0
 2999              		.cfi_startproc
 3000              		@ args = 4, pretend = 0, frame = 0
 3001              		@ frame_needed = 0, uses_anonymous_args = 0
 125:Drivers/lvgl/src/extra/widgets/meter/lv_meter.c ****     lv_meter_t * meter = (lv_meter_t *)obj;
 3002              		.loc 1 125 5 view .LVU1098
 125:Drivers/lvgl/src/extra/widgets/meter/lv_meter.c ****     lv_meter_t * meter = (lv_meter_t *)obj;
 3003              		.loc 1 125 5 view .LVU1099
 125:Drivers/lvgl/src/extra/widgets/meter/lv_meter.c ****     lv_meter_t * meter = (lv_meter_t *)obj;
 3004              		.loc 1 125 5 view .LVU1100
 126:Drivers/lvgl/src/extra/widgets/meter/lv_meter.c ****     lv_meter_indicator_t * indic = _lv_ll_ins_head(&meter->indicator_ll);
 3005              		.loc 1 126 5 view .LVU1101
 124:Drivers/lvgl/src/extra/widgets/meter/lv_meter.c ****     LV_ASSERT_OBJ(obj, MY_CLASS);
 3006              		.loc 1 124 1 is_stmt 0 view .LVU1102
 3007 0000 2DE9F843 		push	{r3, r4, r5, r6, r7, r8, r9, lr}
 3008              		.cfi_def_cfa_offset 32
 3009              		.cfi_offset 3, -32
 3010              		.cfi_offset 4, -28
 3011              		.cfi_offset 5, -24
 3012              		.cfi_offset 6, -20
 3013              		.cfi_offset 7, -16
 3014              		.cfi_offset 8, -12
 3015              		.cfi_offset 9, -8
 3016              		.cfi_offset 14, -4
 124:Drivers/lvgl/src/extra/widgets/meter/lv_meter.c ****     LV_ASSERT_OBJ(obj, MY_CLASS);
 3017              		.loc 1 124 1 view .LVU1103
 3018 0004 0546     		mov	r5, r0
 3019              	.LVL273:
 127:Drivers/lvgl/src/extra/widgets/meter/lv_meter.c ****     LV_ASSERT_MALLOC(indic);
 3020              		.loc 1 127 5 is_stmt 1 view .LVU1104
 127:Drivers/lvgl/src/extra/widgets/meter/lv_meter.c ****     LV_ASSERT_MALLOC(indic);
 3021              		.loc 1 127 36 is_stmt 0 view .LVU1105
 3022 0006 3030     		adds	r0, r0, #48
 3023              	.LVL274:
 124:Drivers/lvgl/src/extra/widgets/meter/lv_meter.c ****     LV_ASSERT_OBJ(obj, MY_CLASS);
 3024              		.loc 1 124 1 view .LVU1106
ARM GAS  /var/folders/lp/x54gwt890xv47sdkqj1k04q40000gn/T//ccVgM3G4.s 			page 102


 3025 0008 BDF92080 		ldrsh	r8, [sp, #32]
 3026 000c 0F46     		mov	r7, r1
 3027 000e 9146     		mov	r9, r2
 3028 0010 1E46     		mov	r6, r3	@ movhi
 3029              	.LVL275:
 127:Drivers/lvgl/src/extra/widgets/meter/lv_meter.c ****     LV_ASSERT_MALLOC(indic);
 3030              		.loc 1 127 36 view .LVU1107
 3031 0012 FFF7FEFF 		bl	_lv_ll_ins_head
 3032              	.LVL276:
 128:Drivers/lvgl/src/extra/widgets/meter/lv_meter.c ****     lv_memset_00(indic, sizeof(lv_meter_indicator_t));
 3033              		.loc 1 128 5 is_stmt 1 view .LVU1108
 128:Drivers/lvgl/src/extra/widgets/meter/lv_meter.c ****     lv_memset_00(indic, sizeof(lv_meter_indicator_t));
 3034              		.loc 1 128 5 view .LVU1109
 3035 0016 90B1     		cbz	r0, .L91
 3036 0018 0446     		mov	r4, r0
 128:Drivers/lvgl/src/extra/widgets/meter/lv_meter.c ****     lv_memset_00(indic, sizeof(lv_meter_indicator_t));
 3037              		.loc 1 128 5 discriminator 2 view .LVU1110
 128:Drivers/lvgl/src/extra/widgets/meter/lv_meter.c ****     lv_memset_00(indic, sizeof(lv_meter_indicator_t));
 3038              		.loc 1 128 28 discriminator 2 view .LVU1111
 129:Drivers/lvgl/src/extra/widgets/meter/lv_meter.c ****     indic->scale = scale;
 3039              		.loc 1 129 5 view .LVU1112
 3040 001a 1C21     		movs	r1, #28
 3041 001c FFF7FEFF 		bl	lv_memset_00
 3042              	.LVL277:
 130:Drivers/lvgl/src/extra/widgets/meter/lv_meter.c ****     indic->opa = LV_OPA_COVER;
 3043              		.loc 1 130 5 view .LVU1113
 133:Drivers/lvgl/src/extra/widgets/meter/lv_meter.c ****     indic->type_data.needle_line.width = width;
 3044              		.loc 1 133 17 is_stmt 0 view .LVU1114
 3045 0020 4FF60173 		movw	r3, #65281
 137:Drivers/lvgl/src/extra/widgets/meter/lv_meter.c **** 
 3046              		.loc 1 137 5 view .LVU1115
 3047 0024 2846     		mov	r0, r5
 130:Drivers/lvgl/src/extra/widgets/meter/lv_meter.c ****     indic->opa = LV_OPA_COVER;
 3048              		.loc 1 130 18 view .LVU1116
 3049 0026 2760     		str	r7, [r4]
 131:Drivers/lvgl/src/extra/widgets/meter/lv_meter.c **** 
 3050              		.loc 1 131 5 is_stmt 1 view .LVU1117
 133:Drivers/lvgl/src/extra/widgets/meter/lv_meter.c ****     indic->type_data.needle_line.width = width;
 3051              		.loc 1 133 5 view .LVU1118
 134:Drivers/lvgl/src/extra/widgets/meter/lv_meter.c ****     indic->type_data.needle_line.color = color;
 3052              		.loc 1 134 40 is_stmt 0 view .LVU1119
 3053 0028 A4F81090 		strh	r9, [r4, #16]	@ movhi
 3054              	.LVL278:
 135:Drivers/lvgl/src/extra/widgets/meter/lv_meter.c ****     indic->type_data.needle_line.r_mod = r_mod;
 3055              		.loc 1 135 40 view .LVU1120
 3056 002c A682     		strh	r6, [r4, #20]	@ movhi
 136:Drivers/lvgl/src/extra/widgets/meter/lv_meter.c ****     lv_obj_invalidate(obj);
 3057              		.loc 1 136 40 view .LVU1121
 3058 002e A4F81280 		strh	r8, [r4, #18]	@ movhi
 133:Drivers/lvgl/src/extra/widgets/meter/lv_meter.c ****     indic->type_data.needle_line.width = width;
 3059              		.loc 1 133 17 view .LVU1122
 3060 0032 A380     		strh	r3, [r4, #4]	@ movhi
 134:Drivers/lvgl/src/extra/widgets/meter/lv_meter.c ****     indic->type_data.needle_line.color = color;
 3061              		.loc 1 134 5 is_stmt 1 view .LVU1123
 135:Drivers/lvgl/src/extra/widgets/meter/lv_meter.c ****     indic->type_data.needle_line.r_mod = r_mod;
 3062              		.loc 1 135 5 view .LVU1124
 136:Drivers/lvgl/src/extra/widgets/meter/lv_meter.c ****     lv_obj_invalidate(obj);
ARM GAS  /var/folders/lp/x54gwt890xv47sdkqj1k04q40000gn/T//ccVgM3G4.s 			page 103


 3063              		.loc 1 136 5 view .LVU1125
 137:Drivers/lvgl/src/extra/widgets/meter/lv_meter.c **** 
 3064              		.loc 1 137 5 view .LVU1126
 3065 0034 FFF7FEFF 		bl	lv_obj_invalidate
 3066              	.LVL279:
 139:Drivers/lvgl/src/extra/widgets/meter/lv_meter.c **** }
 3067              		.loc 1 139 5 view .LVU1127
 140:Drivers/lvgl/src/extra/widgets/meter/lv_meter.c **** 
 3068              		.loc 1 140 1 is_stmt 0 view .LVU1128
 3069 0038 2046     		mov	r0, r4
 3070 003a BDE8F883 		pop	{r3, r4, r5, r6, r7, r8, r9, pc}
 3071              	.LVL280:
 3072              	.L91:
 128:Drivers/lvgl/src/extra/widgets/meter/lv_meter.c ****     lv_memset_00(indic, sizeof(lv_meter_indicator_t));
 3073              		.loc 1 128 5 is_stmt 1 discriminator 1 view .LVU1129
 128:Drivers/lvgl/src/extra/widgets/meter/lv_meter.c ****     lv_memset_00(indic, sizeof(lv_meter_indicator_t));
 3074              		.loc 1 128 5 discriminator 1 view .LVU1130
 128:Drivers/lvgl/src/extra/widgets/meter/lv_meter.c ****     lv_memset_00(indic, sizeof(lv_meter_indicator_t));
 3075              		.loc 1 128 5 discriminator 1 view .LVU1131
 128:Drivers/lvgl/src/extra/widgets/meter/lv_meter.c ****     lv_memset_00(indic, sizeof(lv_meter_indicator_t));
 3076              		.loc 1 128 5 discriminator 1 view .LVU1132
 128:Drivers/lvgl/src/extra/widgets/meter/lv_meter.c ****     lv_memset_00(indic, sizeof(lv_meter_indicator_t));
 3077              		.loc 1 128 5 discriminator 1 view .LVU1133
 128:Drivers/lvgl/src/extra/widgets/meter/lv_meter.c ****     lv_memset_00(indic, sizeof(lv_meter_indicator_t));
 3078              		.loc 1 128 5 discriminator 1 view .LVU1134
 128:Drivers/lvgl/src/extra/widgets/meter/lv_meter.c ****     lv_memset_00(indic, sizeof(lv_meter_indicator_t));
 3079              		.loc 1 128 5 discriminator 1 view .LVU1135
 128:Drivers/lvgl/src/extra/widgets/meter/lv_meter.c ****     lv_memset_00(indic, sizeof(lv_meter_indicator_t));
 3080              		.loc 1 128 5 discriminator 1 view .LVU1136
 128:Drivers/lvgl/src/extra/widgets/meter/lv_meter.c ****     lv_memset_00(indic, sizeof(lv_meter_indicator_t));
 3081              		.loc 1 128 5 discriminator 1 view .LVU1137
 128:Drivers/lvgl/src/extra/widgets/meter/lv_meter.c ****     lv_memset_00(indic, sizeof(lv_meter_indicator_t));
 3082              		.loc 1 128 5 discriminator 1 view .LVU1138
 3083 003e FEE7     		b	.L91
 3084              		.cfi_endproc
 3085              	.LFE209:
 3087              		.section	.text.lv_meter_add_needle_img,"ax",%progbits
 3088              		.align	1
 3089              		.p2align 2,,3
 3090              		.global	lv_meter_add_needle_img
 3091              		.syntax unified
 3092              		.thumb
 3093              		.thumb_func
 3095              	lv_meter_add_needle_img:
 3096              	.LVL281:
 3097              	.LFB210:
 144:Drivers/lvgl/src/extra/widgets/meter/lv_meter.c ****     LV_ASSERT_OBJ(obj, MY_CLASS);
 3098              		.loc 1 144 1 view -0
 3099              		.cfi_startproc
 3100              		@ args = 4, pretend = 0, frame = 0
 3101              		@ frame_needed = 0, uses_anonymous_args = 0
 145:Drivers/lvgl/src/extra/widgets/meter/lv_meter.c ****     lv_meter_t * meter = (lv_meter_t *)obj;
 3102              		.loc 1 145 5 view .LVU1140
 145:Drivers/lvgl/src/extra/widgets/meter/lv_meter.c ****     lv_meter_t * meter = (lv_meter_t *)obj;
 3103              		.loc 1 145 5 view .LVU1141
 145:Drivers/lvgl/src/extra/widgets/meter/lv_meter.c ****     lv_meter_t * meter = (lv_meter_t *)obj;
 3104              		.loc 1 145 5 view .LVU1142
ARM GAS  /var/folders/lp/x54gwt890xv47sdkqj1k04q40000gn/T//ccVgM3G4.s 			page 104


 146:Drivers/lvgl/src/extra/widgets/meter/lv_meter.c ****     lv_meter_indicator_t * indic = _lv_ll_ins_head(&meter->indicator_ll);
 3105              		.loc 1 146 5 view .LVU1143
 144:Drivers/lvgl/src/extra/widgets/meter/lv_meter.c ****     LV_ASSERT_OBJ(obj, MY_CLASS);
 3106              		.loc 1 144 1 is_stmt 0 view .LVU1144
 3107 0000 2DE9F843 		push	{r3, r4, r5, r6, r7, r8, r9, lr}
 3108              		.cfi_def_cfa_offset 32
 3109              		.cfi_offset 3, -32
 3110              		.cfi_offset 4, -28
 3111              		.cfi_offset 5, -24
 3112              		.cfi_offset 6, -20
 3113              		.cfi_offset 7, -16
 3114              		.cfi_offset 8, -12
 3115              		.cfi_offset 9, -8
 3116              		.cfi_offset 14, -4
 144:Drivers/lvgl/src/extra/widgets/meter/lv_meter.c ****     LV_ASSERT_OBJ(obj, MY_CLASS);
 3117              		.loc 1 144 1 view .LVU1145
 3118 0004 0546     		mov	r5, r0
 3119              	.LVL282:
 147:Drivers/lvgl/src/extra/widgets/meter/lv_meter.c ****     LV_ASSERT_MALLOC(indic);
 3120              		.loc 1 147 5 is_stmt 1 view .LVU1146
 147:Drivers/lvgl/src/extra/widgets/meter/lv_meter.c ****     LV_ASSERT_MALLOC(indic);
 3121              		.loc 1 147 36 is_stmt 0 view .LVU1147
 3122 0006 3030     		adds	r0, r0, #48
 3123              	.LVL283:
 144:Drivers/lvgl/src/extra/widgets/meter/lv_meter.c ****     LV_ASSERT_OBJ(obj, MY_CLASS);
 3124              		.loc 1 144 1 view .LVU1148
 3125 0008 BDF92080 		ldrsh	r8, [sp, #32]
 3126 000c 0F46     		mov	r7, r1
 3127 000e 9146     		mov	r9, r2
 3128 0010 1E46     		mov	r6, r3
 147:Drivers/lvgl/src/extra/widgets/meter/lv_meter.c ****     LV_ASSERT_MALLOC(indic);
 3129              		.loc 1 147 36 view .LVU1149
 3130 0012 FFF7FEFF 		bl	_lv_ll_ins_head
 3131              	.LVL284:
 148:Drivers/lvgl/src/extra/widgets/meter/lv_meter.c ****     lv_memset_00(indic, sizeof(lv_meter_indicator_t));
 3132              		.loc 1 148 5 is_stmt 1 view .LVU1150
 148:Drivers/lvgl/src/extra/widgets/meter/lv_meter.c ****     lv_memset_00(indic, sizeof(lv_meter_indicator_t));
 3133              		.loc 1 148 5 view .LVU1151
 3134 0016 90B1     		cbz	r0, .L95
 3135 0018 0446     		mov	r4, r0
 148:Drivers/lvgl/src/extra/widgets/meter/lv_meter.c ****     lv_memset_00(indic, sizeof(lv_meter_indicator_t));
 3136              		.loc 1 148 5 discriminator 2 view .LVU1152
 148:Drivers/lvgl/src/extra/widgets/meter/lv_meter.c ****     lv_memset_00(indic, sizeof(lv_meter_indicator_t));
 3137              		.loc 1 148 28 discriminator 2 view .LVU1153
 149:Drivers/lvgl/src/extra/widgets/meter/lv_meter.c ****     indic->scale = scale;
 3138              		.loc 1 149 5 view .LVU1154
 3139 001a 1C21     		movs	r1, #28
 3140 001c FFF7FEFF 		bl	lv_memset_00
 3141              	.LVL285:
 150:Drivers/lvgl/src/extra/widgets/meter/lv_meter.c ****     indic->opa = LV_OPA_COVER;
 3142              		.loc 1 150 5 view .LVU1155
 153:Drivers/lvgl/src/extra/widgets/meter/lv_meter.c ****     indic->type_data.needle_img.src = src;
 3143              		.loc 1 153 17 is_stmt 0 view .LVU1156
 3144 0020 4FF47F43 		mov	r3, #65280
 157:Drivers/lvgl/src/extra/widgets/meter/lv_meter.c **** 
 3145              		.loc 1 157 5 view .LVU1157
 3146 0024 2846     		mov	r0, r5
ARM GAS  /var/folders/lp/x54gwt890xv47sdkqj1k04q40000gn/T//ccVgM3G4.s 			page 105


 150:Drivers/lvgl/src/extra/widgets/meter/lv_meter.c ****     indic->opa = LV_OPA_COVER;
 3147              		.loc 1 150 18 view .LVU1158
 3148 0026 2760     		str	r7, [r4]
 151:Drivers/lvgl/src/extra/widgets/meter/lv_meter.c **** 
 3149              		.loc 1 151 5 is_stmt 1 view .LVU1159
 153:Drivers/lvgl/src/extra/widgets/meter/lv_meter.c ****     indic->type_data.needle_img.src = src;
 3150              		.loc 1 153 5 view .LVU1160
 154:Drivers/lvgl/src/extra/widgets/meter/lv_meter.c ****     indic->type_data.needle_img.pivot.x = pivot_x;
 3151              		.loc 1 154 37 is_stmt 0 view .LVU1161
 3152 0028 C4F81090 		str	r9, [r4, #16]
 155:Drivers/lvgl/src/extra/widgets/meter/lv_meter.c ****     indic->type_data.needle_img.pivot.y = pivot_y;
 3153              		.loc 1 155 41 view .LVU1162
 3154 002c A682     		strh	r6, [r4, #20]	@ movhi
 156:Drivers/lvgl/src/extra/widgets/meter/lv_meter.c ****     lv_obj_invalidate(obj);
 3155              		.loc 1 156 41 view .LVU1163
 3156 002e A4F81680 		strh	r8, [r4, #22]	@ movhi
 153:Drivers/lvgl/src/extra/widgets/meter/lv_meter.c ****     indic->type_data.needle_img.src = src;
 3157              		.loc 1 153 17 view .LVU1164
 3158 0032 A380     		strh	r3, [r4, #4]	@ movhi
 154:Drivers/lvgl/src/extra/widgets/meter/lv_meter.c ****     indic->type_data.needle_img.pivot.x = pivot_x;
 3159              		.loc 1 154 5 is_stmt 1 view .LVU1165
 155:Drivers/lvgl/src/extra/widgets/meter/lv_meter.c ****     indic->type_data.needle_img.pivot.y = pivot_y;
 3160              		.loc 1 155 5 view .LVU1166
 156:Drivers/lvgl/src/extra/widgets/meter/lv_meter.c ****     lv_obj_invalidate(obj);
 3161              		.loc 1 156 5 view .LVU1167
 157:Drivers/lvgl/src/extra/widgets/meter/lv_meter.c **** 
 3162              		.loc 1 157 5 view .LVU1168
 3163 0034 FFF7FEFF 		bl	lv_obj_invalidate
 3164              	.LVL286:
 159:Drivers/lvgl/src/extra/widgets/meter/lv_meter.c **** }
 3165              		.loc 1 159 5 view .LVU1169
 160:Drivers/lvgl/src/extra/widgets/meter/lv_meter.c **** 
 3166              		.loc 1 160 1 is_stmt 0 view .LVU1170
 3167 0038 2046     		mov	r0, r4
 3168 003a BDE8F883 		pop	{r3, r4, r5, r6, r7, r8, r9, pc}
 3169              	.LVL287:
 3170              	.L95:
 148:Drivers/lvgl/src/extra/widgets/meter/lv_meter.c ****     lv_memset_00(indic, sizeof(lv_meter_indicator_t));
 3171              		.loc 1 148 5 is_stmt 1 discriminator 1 view .LVU1171
 148:Drivers/lvgl/src/extra/widgets/meter/lv_meter.c ****     lv_memset_00(indic, sizeof(lv_meter_indicator_t));
 3172              		.loc 1 148 5 discriminator 1 view .LVU1172
 148:Drivers/lvgl/src/extra/widgets/meter/lv_meter.c ****     lv_memset_00(indic, sizeof(lv_meter_indicator_t));
 3173              		.loc 1 148 5 discriminator 1 view .LVU1173
 148:Drivers/lvgl/src/extra/widgets/meter/lv_meter.c ****     lv_memset_00(indic, sizeof(lv_meter_indicator_t));
 3174              		.loc 1 148 5 discriminator 1 view .LVU1174
 148:Drivers/lvgl/src/extra/widgets/meter/lv_meter.c ****     lv_memset_00(indic, sizeof(lv_meter_indicator_t));
 3175              		.loc 1 148 5 discriminator 1 view .LVU1175
 148:Drivers/lvgl/src/extra/widgets/meter/lv_meter.c ****     lv_memset_00(indic, sizeof(lv_meter_indicator_t));
 3176              		.loc 1 148 5 discriminator 1 view .LVU1176
 148:Drivers/lvgl/src/extra/widgets/meter/lv_meter.c ****     lv_memset_00(indic, sizeof(lv_meter_indicator_t));
 3177              		.loc 1 148 5 discriminator 1 view .LVU1177
 148:Drivers/lvgl/src/extra/widgets/meter/lv_meter.c ****     lv_memset_00(indic, sizeof(lv_meter_indicator_t));
 3178              		.loc 1 148 5 discriminator 1 view .LVU1178
 148:Drivers/lvgl/src/extra/widgets/meter/lv_meter.c ****     lv_memset_00(indic, sizeof(lv_meter_indicator_t));
 3179              		.loc 1 148 5 discriminator 1 view .LVU1179
 148:Drivers/lvgl/src/extra/widgets/meter/lv_meter.c ****     lv_memset_00(indic, sizeof(lv_meter_indicator_t));
 3180              		.loc 1 148 5 discriminator 1 view .LVU1180
ARM GAS  /var/folders/lp/x54gwt890xv47sdkqj1k04q40000gn/T//ccVgM3G4.s 			page 106


 3181 003e FEE7     		b	.L95
 3182              		.cfi_endproc
 3183              	.LFE210:
 3185              		.section	.text.lv_meter_add_arc,"ax",%progbits
 3186              		.align	1
 3187              		.p2align 2,,3
 3188              		.global	lv_meter_add_arc
 3189              		.syntax unified
 3190              		.thumb
 3191              		.thumb_func
 3193              	lv_meter_add_arc:
 3194              	.LVL288:
 3195              	.LFB211:
 164:Drivers/lvgl/src/extra/widgets/meter/lv_meter.c ****     LV_ASSERT_OBJ(obj, MY_CLASS);
 3196              		.loc 1 164 1 view -0
 3197              		.cfi_startproc
 3198              		@ args = 4, pretend = 0, frame = 0
 3199              		@ frame_needed = 0, uses_anonymous_args = 0
 165:Drivers/lvgl/src/extra/widgets/meter/lv_meter.c ****     lv_meter_t * meter = (lv_meter_t *)obj;
 3200              		.loc 1 165 5 view .LVU1182
 165:Drivers/lvgl/src/extra/widgets/meter/lv_meter.c ****     lv_meter_t * meter = (lv_meter_t *)obj;
 3201              		.loc 1 165 5 view .LVU1183
 165:Drivers/lvgl/src/extra/widgets/meter/lv_meter.c ****     lv_meter_t * meter = (lv_meter_t *)obj;
 3202              		.loc 1 165 5 view .LVU1184
 166:Drivers/lvgl/src/extra/widgets/meter/lv_meter.c ****     lv_meter_indicator_t * indic = _lv_ll_ins_head(&meter->indicator_ll);
 3203              		.loc 1 166 5 view .LVU1185
 164:Drivers/lvgl/src/extra/widgets/meter/lv_meter.c ****     LV_ASSERT_OBJ(obj, MY_CLASS);
 3204              		.loc 1 164 1 is_stmt 0 view .LVU1186
 3205 0000 2DE9F843 		push	{r3, r4, r5, r6, r7, r8, r9, lr}
 3206              		.cfi_def_cfa_offset 32
 3207              		.cfi_offset 3, -32
 3208              		.cfi_offset 4, -28
 3209              		.cfi_offset 5, -24
 3210              		.cfi_offset 6, -20
 3211              		.cfi_offset 7, -16
 3212              		.cfi_offset 8, -12
 3213              		.cfi_offset 9, -8
 3214              		.cfi_offset 14, -4
 164:Drivers/lvgl/src/extra/widgets/meter/lv_meter.c ****     LV_ASSERT_OBJ(obj, MY_CLASS);
 3215              		.loc 1 164 1 view .LVU1187
 3216 0004 0546     		mov	r5, r0
 3217              	.LVL289:
 167:Drivers/lvgl/src/extra/widgets/meter/lv_meter.c ****     LV_ASSERT_MALLOC(indic);
 3218              		.loc 1 167 5 is_stmt 1 view .LVU1188
 167:Drivers/lvgl/src/extra/widgets/meter/lv_meter.c ****     LV_ASSERT_MALLOC(indic);
 3219              		.loc 1 167 36 is_stmt 0 view .LVU1189
 3220 0006 3030     		adds	r0, r0, #48
 3221              	.LVL290:
 164:Drivers/lvgl/src/extra/widgets/meter/lv_meter.c ****     LV_ASSERT_OBJ(obj, MY_CLASS);
 3222              		.loc 1 164 1 view .LVU1190
 3223 0008 BDF92080 		ldrsh	r8, [sp, #32]
 3224 000c 0F46     		mov	r7, r1
 3225 000e 9146     		mov	r9, r2
 3226 0010 1E46     		mov	r6, r3	@ movhi
 3227              	.LVL291:
 167:Drivers/lvgl/src/extra/widgets/meter/lv_meter.c ****     LV_ASSERT_MALLOC(indic);
 3228              		.loc 1 167 36 view .LVU1191
ARM GAS  /var/folders/lp/x54gwt890xv47sdkqj1k04q40000gn/T//ccVgM3G4.s 			page 107


 3229 0012 FFF7FEFF 		bl	_lv_ll_ins_head
 3230              	.LVL292:
 168:Drivers/lvgl/src/extra/widgets/meter/lv_meter.c ****     lv_memset_00(indic, sizeof(lv_meter_indicator_t));
 3231              		.loc 1 168 5 is_stmt 1 view .LVU1192
 168:Drivers/lvgl/src/extra/widgets/meter/lv_meter.c ****     lv_memset_00(indic, sizeof(lv_meter_indicator_t));
 3232              		.loc 1 168 5 view .LVU1193
 3233 0016 90B1     		cbz	r0, .L99
 3234 0018 0446     		mov	r4, r0
 168:Drivers/lvgl/src/extra/widgets/meter/lv_meter.c ****     lv_memset_00(indic, sizeof(lv_meter_indicator_t));
 3235              		.loc 1 168 5 discriminator 2 view .LVU1194
 168:Drivers/lvgl/src/extra/widgets/meter/lv_meter.c ****     lv_memset_00(indic, sizeof(lv_meter_indicator_t));
 3236              		.loc 1 168 28 discriminator 2 view .LVU1195
 169:Drivers/lvgl/src/extra/widgets/meter/lv_meter.c ****     indic->scale = scale;
 3237              		.loc 1 169 5 view .LVU1196
 3238 001a 1C21     		movs	r1, #28
 3239 001c FFF7FEFF 		bl	lv_memset_00
 3240              	.LVL293:
 170:Drivers/lvgl/src/extra/widgets/meter/lv_meter.c ****     indic->opa = LV_OPA_COVER;
 3241              		.loc 1 170 5 view .LVU1197
 173:Drivers/lvgl/src/extra/widgets/meter/lv_meter.c ****     indic->type_data.arc.width = width;
 3242              		.loc 1 173 17 is_stmt 0 view .LVU1198
 3243 0020 4FF60373 		movw	r3, #65283
 178:Drivers/lvgl/src/extra/widgets/meter/lv_meter.c ****     return indic;
 3244              		.loc 1 178 5 view .LVU1199
 3245 0024 2846     		mov	r0, r5
 170:Drivers/lvgl/src/extra/widgets/meter/lv_meter.c ****     indic->opa = LV_OPA_COVER;
 3246              		.loc 1 170 18 view .LVU1200
 3247 0026 2760     		str	r7, [r4]
 171:Drivers/lvgl/src/extra/widgets/meter/lv_meter.c **** 
 3248              		.loc 1 171 5 is_stmt 1 view .LVU1201
 173:Drivers/lvgl/src/extra/widgets/meter/lv_meter.c ****     indic->type_data.arc.width = width;
 3249              		.loc 1 173 5 view .LVU1202
 174:Drivers/lvgl/src/extra/widgets/meter/lv_meter.c ****     indic->type_data.arc.color = color;
 3250              		.loc 1 174 32 is_stmt 0 view .LVU1203
 3251 0028 A4F81090 		strh	r9, [r4, #16]	@ movhi
 3252              	.LVL294:
 175:Drivers/lvgl/src/extra/widgets/meter/lv_meter.c ****     indic->type_data.arc.r_mod = r_mod;
 3253              		.loc 1 175 32 view .LVU1204
 3254 002c 2683     		strh	r6, [r4, #24]	@ movhi
 176:Drivers/lvgl/src/extra/widgets/meter/lv_meter.c **** 
 3255              		.loc 1 176 32 view .LVU1205
 3256 002e A4F81A80 		strh	r8, [r4, #26]	@ movhi
 173:Drivers/lvgl/src/extra/widgets/meter/lv_meter.c ****     indic->type_data.arc.width = width;
 3257              		.loc 1 173 17 view .LVU1206
 3258 0032 A380     		strh	r3, [r4, #4]	@ movhi
 174:Drivers/lvgl/src/extra/widgets/meter/lv_meter.c ****     indic->type_data.arc.color = color;
 3259              		.loc 1 174 5 is_stmt 1 view .LVU1207
 175:Drivers/lvgl/src/extra/widgets/meter/lv_meter.c ****     indic->type_data.arc.r_mod = r_mod;
 3260              		.loc 1 175 5 view .LVU1208
 176:Drivers/lvgl/src/extra/widgets/meter/lv_meter.c **** 
 3261              		.loc 1 176 5 view .LVU1209
 178:Drivers/lvgl/src/extra/widgets/meter/lv_meter.c ****     return indic;
 3262              		.loc 1 178 5 view .LVU1210
 3263 0034 FFF7FEFF 		bl	lv_obj_invalidate
 3264              	.LVL295:
 179:Drivers/lvgl/src/extra/widgets/meter/lv_meter.c **** }
 3265              		.loc 1 179 5 view .LVU1211
ARM GAS  /var/folders/lp/x54gwt890xv47sdkqj1k04q40000gn/T//ccVgM3G4.s 			page 108


 180:Drivers/lvgl/src/extra/widgets/meter/lv_meter.c **** 
 3266              		.loc 1 180 1 is_stmt 0 view .LVU1212
 3267 0038 2046     		mov	r0, r4
 3268 003a BDE8F883 		pop	{r3, r4, r5, r6, r7, r8, r9, pc}
 3269              	.LVL296:
 3270              	.L99:
 168:Drivers/lvgl/src/extra/widgets/meter/lv_meter.c ****     lv_memset_00(indic, sizeof(lv_meter_indicator_t));
 3271              		.loc 1 168 5 is_stmt 1 discriminator 1 view .LVU1213
 168:Drivers/lvgl/src/extra/widgets/meter/lv_meter.c ****     lv_memset_00(indic, sizeof(lv_meter_indicator_t));
 3272              		.loc 1 168 5 discriminator 1 view .LVU1214
 168:Drivers/lvgl/src/extra/widgets/meter/lv_meter.c ****     lv_memset_00(indic, sizeof(lv_meter_indicator_t));
 3273              		.loc 1 168 5 discriminator 1 view .LVU1215
 168:Drivers/lvgl/src/extra/widgets/meter/lv_meter.c ****     lv_memset_00(indic, sizeof(lv_meter_indicator_t));
 3274              		.loc 1 168 5 discriminator 1 view .LVU1216
 168:Drivers/lvgl/src/extra/widgets/meter/lv_meter.c ****     lv_memset_00(indic, sizeof(lv_meter_indicator_t));
 3275              		.loc 1 168 5 discriminator 1 view .LVU1217
 168:Drivers/lvgl/src/extra/widgets/meter/lv_meter.c ****     lv_memset_00(indic, sizeof(lv_meter_indicator_t));
 3276              		.loc 1 168 5 discriminator 1 view .LVU1218
 168:Drivers/lvgl/src/extra/widgets/meter/lv_meter.c ****     lv_memset_00(indic, sizeof(lv_meter_indicator_t));
 3277              		.loc 1 168 5 discriminator 1 view .LVU1219
 168:Drivers/lvgl/src/extra/widgets/meter/lv_meter.c ****     lv_memset_00(indic, sizeof(lv_meter_indicator_t));
 3278              		.loc 1 168 5 discriminator 1 view .LVU1220
 168:Drivers/lvgl/src/extra/widgets/meter/lv_meter.c ****     lv_memset_00(indic, sizeof(lv_meter_indicator_t));
 3279              		.loc 1 168 5 discriminator 1 view .LVU1221
 168:Drivers/lvgl/src/extra/widgets/meter/lv_meter.c ****     lv_memset_00(indic, sizeof(lv_meter_indicator_t));
 3280              		.loc 1 168 5 discriminator 1 view .LVU1222
 3281 003e FEE7     		b	.L99
 3282              		.cfi_endproc
 3283              	.LFE211:
 3285              		.section	.text.lv_meter_add_scale_lines,"ax",%progbits
 3286              		.align	1
 3287              		.p2align 2,,3
 3288              		.global	lv_meter_add_scale_lines
 3289              		.syntax unified
 3290              		.thumb
 3291              		.thumb_func
 3293              	lv_meter_add_scale_lines:
 3294              	.LVL297:
 3295              	.LFB212:
 184:Drivers/lvgl/src/extra/widgets/meter/lv_meter.c ****     LV_ASSERT_OBJ(obj, MY_CLASS);
 3296              		.loc 1 184 1 view -0
 3297              		.cfi_startproc
 3298              		@ args = 8, pretend = 0, frame = 0
 3299              		@ frame_needed = 0, uses_anonymous_args = 0
 185:Drivers/lvgl/src/extra/widgets/meter/lv_meter.c ****     lv_meter_t * meter = (lv_meter_t *)obj;
 3300              		.loc 1 185 5 view .LVU1224
 185:Drivers/lvgl/src/extra/widgets/meter/lv_meter.c ****     lv_meter_t * meter = (lv_meter_t *)obj;
 3301              		.loc 1 185 5 view .LVU1225
 185:Drivers/lvgl/src/extra/widgets/meter/lv_meter.c ****     lv_meter_t * meter = (lv_meter_t *)obj;
 3302              		.loc 1 185 5 view .LVU1226
 186:Drivers/lvgl/src/extra/widgets/meter/lv_meter.c ****     lv_meter_indicator_t * indic = _lv_ll_ins_head(&meter->indicator_ll);
 3303              		.loc 1 186 5 view .LVU1227
 184:Drivers/lvgl/src/extra/widgets/meter/lv_meter.c ****     LV_ASSERT_OBJ(obj, MY_CLASS);
 3304              		.loc 1 184 1 is_stmt 0 view .LVU1228
 3305 0000 2DE9F047 		push	{r4, r5, r6, r7, r8, r9, r10, lr}
 3306              		.cfi_def_cfa_offset 32
 3307              		.cfi_offset 4, -32
ARM GAS  /var/folders/lp/x54gwt890xv47sdkqj1k04q40000gn/T//ccVgM3G4.s 			page 109


 3308              		.cfi_offset 5, -28
 3309              		.cfi_offset 6, -24
 3310              		.cfi_offset 7, -20
 3311              		.cfi_offset 8, -16
 3312              		.cfi_offset 9, -12
 3313              		.cfi_offset 10, -8
 3314              		.cfi_offset 14, -4
 184:Drivers/lvgl/src/extra/widgets/meter/lv_meter.c ****     LV_ASSERT_OBJ(obj, MY_CLASS);
 3315              		.loc 1 184 1 view .LVU1229
 3316 0004 0546     		mov	r5, r0
 3317              	.LVL298:
 187:Drivers/lvgl/src/extra/widgets/meter/lv_meter.c ****     LV_ASSERT_MALLOC(indic);
 3318              		.loc 1 187 5 is_stmt 1 view .LVU1230
 187:Drivers/lvgl/src/extra/widgets/meter/lv_meter.c ****     LV_ASSERT_MALLOC(indic);
 3319              		.loc 1 187 36 is_stmt 0 view .LVU1231
 3320 0006 3030     		adds	r0, r0, #48
 3321              	.LVL299:
 184:Drivers/lvgl/src/extra/widgets/meter/lv_meter.c ****     LV_ASSERT_OBJ(obj, MY_CLASS);
 3322              		.loc 1 184 1 view .LVU1232
 3323 0008 9DF82080 		ldrb	r8, [sp, #32]	@ zero_extendqisi2
 3324 000c BDF924A0 		ldrsh	r10, [sp, #36]
 3325 0010 0F46     		mov	r7, r1
 3326 0012 9146     		mov	r9, r2	@ movhi
 3327              	.LVL300:
 184:Drivers/lvgl/src/extra/widgets/meter/lv_meter.c ****     LV_ASSERT_OBJ(obj, MY_CLASS);
 3328              		.loc 1 184 1 view .LVU1233
 3329 0014 1E46     		mov	r6, r3	@ movhi
 3330              	.LVL301:
 187:Drivers/lvgl/src/extra/widgets/meter/lv_meter.c ****     LV_ASSERT_MALLOC(indic);
 3331              		.loc 1 187 36 view .LVU1234
 3332 0016 FFF7FEFF 		bl	_lv_ll_ins_head
 3333              	.LVL302:
 188:Drivers/lvgl/src/extra/widgets/meter/lv_meter.c ****     lv_memset_00(indic, sizeof(lv_meter_indicator_t));
 3334              		.loc 1 188 5 is_stmt 1 view .LVU1235
 188:Drivers/lvgl/src/extra/widgets/meter/lv_meter.c ****     lv_memset_00(indic, sizeof(lv_meter_indicator_t));
 3335              		.loc 1 188 5 view .LVU1236
 3336 001a B0B1     		cbz	r0, .L103
 188:Drivers/lvgl/src/extra/widgets/meter/lv_meter.c ****     lv_memset_00(indic, sizeof(lv_meter_indicator_t));
 3337              		.loc 1 188 5 discriminator 2 view .LVU1237
 188:Drivers/lvgl/src/extra/widgets/meter/lv_meter.c ****     lv_memset_00(indic, sizeof(lv_meter_indicator_t));
 3338              		.loc 1 188 28 discriminator 2 view .LVU1238
 189:Drivers/lvgl/src/extra/widgets/meter/lv_meter.c ****     indic->scale = scale;
 3339              		.loc 1 189 5 view .LVU1239
 3340 001c 0446     		mov	r4, r0
 3341 001e 1C21     		movs	r1, #28
 3342 0020 FFF7FEFF 		bl	lv_memset_00
 3343              	.LVL303:
 190:Drivers/lvgl/src/extra/widgets/meter/lv_meter.c ****     indic->opa = LV_OPA_COVER;
 3344              		.loc 1 190 5 view .LVU1240
 196:Drivers/lvgl/src/extra/widgets/meter/lv_meter.c ****     indic->type_data.scale_lines.width_mod = width_mod;
 3345              		.loc 1 196 45 is_stmt 0 view .LVU1241
 3346 0024 A37D     		ldrb	r3, [r4, #22]	@ zero_extendqisi2
 190:Drivers/lvgl/src/extra/widgets/meter/lv_meter.c ****     indic->opa = LV_OPA_COVER;
 3347              		.loc 1 190 18 view .LVU1242
 3348 0026 2760     		str	r7, [r4]
 191:Drivers/lvgl/src/extra/widgets/meter/lv_meter.c **** 
 3349              		.loc 1 191 5 is_stmt 1 view .LVU1243
ARM GAS  /var/folders/lp/x54gwt890xv47sdkqj1k04q40000gn/T//ccVgM3G4.s 			page 110


 193:Drivers/lvgl/src/extra/widgets/meter/lv_meter.c ****     indic->type_data.scale_lines.color_start = color_start;
 3350              		.loc 1 193 5 view .LVU1244
 196:Drivers/lvgl/src/extra/widgets/meter/lv_meter.c ****     indic->type_data.scale_lines.width_mod = width_mod;
 3351              		.loc 1 196 45 is_stmt 0 view .LVU1245
 3352 0028 68F30003 		bfi	r3, r8, #0, #1
 3353 002c A375     		strb	r3, [r4, #22]
 193:Drivers/lvgl/src/extra/widgets/meter/lv_meter.c ****     indic->type_data.scale_lines.color_start = color_start;
 3354              		.loc 1 193 17 view .LVU1246
 3355 002e 4FF60273 		movw	r3, #65282
 199:Drivers/lvgl/src/extra/widgets/meter/lv_meter.c ****     return indic;
 3356              		.loc 1 199 5 view .LVU1247
 3357 0032 2846     		mov	r0, r5
 3358              	.LVL304:
 194:Drivers/lvgl/src/extra/widgets/meter/lv_meter.c ****     indic->type_data.scale_lines.color_end = color_end;
 3359              		.loc 1 194 46 view .LVU1248
 3360 0034 A4F81290 		strh	r9, [r4, #18]	@ movhi
 3361              	.LVL305:
 195:Drivers/lvgl/src/extra/widgets/meter/lv_meter.c ****     indic->type_data.scale_lines.local_grad = local;
 3362              		.loc 1 195 44 view .LVU1249
 3363 0038 A682     		strh	r6, [r4, #20]	@ movhi
 197:Drivers/lvgl/src/extra/widgets/meter/lv_meter.c **** 
 3364              		.loc 1 197 44 view .LVU1250
 3365 003a A4F810A0 		strh	r10, [r4, #16]	@ movhi
 193:Drivers/lvgl/src/extra/widgets/meter/lv_meter.c ****     indic->type_data.scale_lines.color_start = color_start;
 3366              		.loc 1 193 17 view .LVU1251
 3367 003e A380     		strh	r3, [r4, #4]	@ movhi
 194:Drivers/lvgl/src/extra/widgets/meter/lv_meter.c ****     indic->type_data.scale_lines.color_end = color_end;
 3368              		.loc 1 194 5 is_stmt 1 view .LVU1252
 195:Drivers/lvgl/src/extra/widgets/meter/lv_meter.c ****     indic->type_data.scale_lines.local_grad = local;
 3369              		.loc 1 195 5 view .LVU1253
 196:Drivers/lvgl/src/extra/widgets/meter/lv_meter.c ****     indic->type_data.scale_lines.width_mod = width_mod;
 3370              		.loc 1 196 5 view .LVU1254
 197:Drivers/lvgl/src/extra/widgets/meter/lv_meter.c **** 
 3371              		.loc 1 197 5 view .LVU1255
 199:Drivers/lvgl/src/extra/widgets/meter/lv_meter.c ****     return indic;
 3372              		.loc 1 199 5 view .LVU1256
 3373 0040 FFF7FEFF 		bl	lv_obj_invalidate
 3374              	.LVL306:
 200:Drivers/lvgl/src/extra/widgets/meter/lv_meter.c **** }
 3375              		.loc 1 200 5 view .LVU1257
 201:Drivers/lvgl/src/extra/widgets/meter/lv_meter.c **** 
 3376              		.loc 1 201 1 is_stmt 0 view .LVU1258
 3377 0044 2046     		mov	r0, r4
 3378 0046 BDE8F087 		pop	{r4, r5, r6, r7, r8, r9, r10, pc}
 3379              	.LVL307:
 3380              	.L103:
 188:Drivers/lvgl/src/extra/widgets/meter/lv_meter.c ****     lv_memset_00(indic, sizeof(lv_meter_indicator_t));
 3381              		.loc 1 188 5 is_stmt 1 discriminator 1 view .LVU1259
 188:Drivers/lvgl/src/extra/widgets/meter/lv_meter.c ****     lv_memset_00(indic, sizeof(lv_meter_indicator_t));
 3382              		.loc 1 188 5 discriminator 1 view .LVU1260
 188:Drivers/lvgl/src/extra/widgets/meter/lv_meter.c ****     lv_memset_00(indic, sizeof(lv_meter_indicator_t));
 3383              		.loc 1 188 5 discriminator 1 view .LVU1261
 188:Drivers/lvgl/src/extra/widgets/meter/lv_meter.c ****     lv_memset_00(indic, sizeof(lv_meter_indicator_t));
 3384              		.loc 1 188 5 discriminator 1 view .LVU1262
 188:Drivers/lvgl/src/extra/widgets/meter/lv_meter.c ****     lv_memset_00(indic, sizeof(lv_meter_indicator_t));
 3385              		.loc 1 188 5 discriminator 1 view .LVU1263
 188:Drivers/lvgl/src/extra/widgets/meter/lv_meter.c ****     lv_memset_00(indic, sizeof(lv_meter_indicator_t));
ARM GAS  /var/folders/lp/x54gwt890xv47sdkqj1k04q40000gn/T//ccVgM3G4.s 			page 111


 3386              		.loc 1 188 5 discriminator 1 view .LVU1264
 188:Drivers/lvgl/src/extra/widgets/meter/lv_meter.c ****     lv_memset_00(indic, sizeof(lv_meter_indicator_t));
 3387              		.loc 1 188 5 discriminator 1 view .LVU1265
 188:Drivers/lvgl/src/extra/widgets/meter/lv_meter.c ****     lv_memset_00(indic, sizeof(lv_meter_indicator_t));
 3388              		.loc 1 188 5 discriminator 1 view .LVU1266
 188:Drivers/lvgl/src/extra/widgets/meter/lv_meter.c ****     lv_memset_00(indic, sizeof(lv_meter_indicator_t));
 3389              		.loc 1 188 5 discriminator 1 view .LVU1267
 188:Drivers/lvgl/src/extra/widgets/meter/lv_meter.c ****     lv_memset_00(indic, sizeof(lv_meter_indicator_t));
 3390              		.loc 1 188 5 discriminator 1 view .LVU1268
 3391 004a FEE7     		b	.L103
 3392              		.cfi_endproc
 3393              	.LFE212:
 3395              		.section	.text.lv_meter_set_indicator_value,"ax",%progbits
 3396              		.align	1
 3397              		.p2align 2,,3
 3398              		.global	lv_meter_set_indicator_value
 3399              		.syntax unified
 3400              		.thumb
 3401              		.thumb_func
 3403              	lv_meter_set_indicator_value:
 3404              	.LVL308:
 3405              	.LFB213:
 208:Drivers/lvgl/src/extra/widgets/meter/lv_meter.c ****     int32_t old_start = indic->start_value;
 3406              		.loc 1 208 1 view -0
 3407              		.cfi_startproc
 3408              		@ args = 0, pretend = 0, frame = 0
 3409              		@ frame_needed = 0, uses_anonymous_args = 0
 209:Drivers/lvgl/src/extra/widgets/meter/lv_meter.c ****     int32_t old_end = indic->end_value;
 3410              		.loc 1 209 5 view .LVU1270
 208:Drivers/lvgl/src/extra/widgets/meter/lv_meter.c ****     int32_t old_start = indic->start_value;
 3411              		.loc 1 208 1 is_stmt 0 view .LVU1271
 3412 0000 2DE9F041 		push	{r4, r5, r6, r7, r8, lr}
 3413              		.cfi_def_cfa_offset 24
 3414              		.cfi_offset 4, -24
 3415              		.cfi_offset 5, -20
 3416              		.cfi_offset 6, -16
 3417              		.cfi_offset 7, -12
 3418              		.cfi_offset 8, -8
 3419              		.cfi_offset 14, -4
 214:Drivers/lvgl/src/extra/widgets/meter/lv_meter.c ****         inv_arc(obj, indic, old_start, value);
 3420              		.loc 1 214 13 view .LVU1272
 3421 0004 0B79     		ldrb	r3, [r1, #4]	@ zero_extendqisi2
 210:Drivers/lvgl/src/extra/widgets/meter/lv_meter.c ****     indic->start_value = value;
 3422              		.loc 1 210 13 view .LVU1273
 3423 0006 CF68     		ldr	r7, [r1, #12]
 208:Drivers/lvgl/src/extra/widgets/meter/lv_meter.c ****     int32_t old_start = indic->start_value;
 3424              		.loc 1 208 1 view .LVU1274
 3425 0008 1546     		mov	r5, r2
 214:Drivers/lvgl/src/extra/widgets/meter/lv_meter.c ****         inv_arc(obj, indic, old_start, value);
 3426              		.loc 1 214 7 view .LVU1275
 3427 000a 032B     		cmp	r3, #3
 209:Drivers/lvgl/src/extra/widgets/meter/lv_meter.c ****     int32_t old_end = indic->end_value;
 3428              		.loc 1 209 13 view .LVU1276
 3429 000c 8A68     		ldr	r2, [r1, #8]
 3430              	.LVL309:
 210:Drivers/lvgl/src/extra/widgets/meter/lv_meter.c ****     indic->start_value = value;
 3431              		.loc 1 210 5 is_stmt 1 view .LVU1277
ARM GAS  /var/folders/lp/x54gwt890xv47sdkqj1k04q40000gn/T//ccVgM3G4.s 			page 112


 211:Drivers/lvgl/src/extra/widgets/meter/lv_meter.c ****     indic->end_value = value;
 3432              		.loc 1 211 5 view .LVU1278
 212:Drivers/lvgl/src/extra/widgets/meter/lv_meter.c **** 
 3433              		.loc 1 212 5 view .LVU1279
 211:Drivers/lvgl/src/extra/widgets/meter/lv_meter.c ****     indic->end_value = value;
 3434              		.loc 1 211 24 is_stmt 0 view .LVU1280
 3435 000e CD60     		str	r5, [r1, #12]
 214:Drivers/lvgl/src/extra/widgets/meter/lv_meter.c ****         inv_arc(obj, indic, old_start, value);
 3436              		.loc 1 214 5 is_stmt 1 view .LVU1281
 208:Drivers/lvgl/src/extra/widgets/meter/lv_meter.c ****     int32_t old_start = indic->start_value;
 3437              		.loc 1 208 1 is_stmt 0 view .LVU1282
 3438 0010 0C46     		mov	r4, r1
 3439 0012 0646     		mov	r6, r0
 211:Drivers/lvgl/src/extra/widgets/meter/lv_meter.c ****     indic->end_value = value;
 3440              		.loc 1 211 24 view .LVU1283
 3441 0014 8D60     		str	r5, [r1, #8]
 214:Drivers/lvgl/src/extra/widgets/meter/lv_meter.c ****         inv_arc(obj, indic, old_start, value);
 3442              		.loc 1 214 7 view .LVU1284
 3443 0016 13D0     		beq	.L109
 218:Drivers/lvgl/src/extra/widgets/meter/lv_meter.c ****         inv_line(obj, indic, old_start);
 3444              		.loc 1 218 10 is_stmt 1 view .LVU1285
 218:Drivers/lvgl/src/extra/widgets/meter/lv_meter.c ****         inv_line(obj, indic, old_start);
 3445              		.loc 1 218 12 is_stmt 0 view .LVU1286
 3446 0018 012B     		cmp	r3, #1
 3447 001a 03D9     		bls	.L110
 224:Drivers/lvgl/src/extra/widgets/meter/lv_meter.c ****     }
 3448              		.loc 1 224 9 is_stmt 1 view .LVU1287
 226:Drivers/lvgl/src/extra/widgets/meter/lv_meter.c **** 
 3449              		.loc 1 226 1 is_stmt 0 view .LVU1288
 3450 001c BDE8F041 		pop	{r4, r5, r6, r7, r8, lr}
 3451              		.cfi_remember_state
 3452              		.cfi_restore 14
 3453              		.cfi_restore 8
 3454              		.cfi_restore 7
 3455              		.cfi_restore 6
 3456              		.cfi_restore 5
 3457              		.cfi_restore 4
 3458              		.cfi_def_cfa_offset 0
 3459              	.LVL310:
 224:Drivers/lvgl/src/extra/widgets/meter/lv_meter.c ****     }
 3460              		.loc 1 224 9 view .LVU1289
 3461 0020 FFF7FEBF 		b	lv_obj_invalidate
 3462              	.LVL311:
 3463              	.L110:
 3464              		.cfi_restore_state
 219:Drivers/lvgl/src/extra/widgets/meter/lv_meter.c ****         inv_line(obj, indic, old_end);
 3465              		.loc 1 219 9 is_stmt 1 view .LVU1290
 3466 0024 FFF7FEFF 		bl	inv_line
 3467              	.LVL312:
 220:Drivers/lvgl/src/extra/widgets/meter/lv_meter.c ****         inv_line(obj, indic, value);
 3468              		.loc 1 220 9 view .LVU1291
 3469 0028 3A46     		mov	r2, r7
 3470 002a 2146     		mov	r1, r4
 3471 002c 3046     		mov	r0, r6
 3472 002e FFF7FEFF 		bl	inv_line
 3473              	.LVL313:
 221:Drivers/lvgl/src/extra/widgets/meter/lv_meter.c ****     }
ARM GAS  /var/folders/lp/x54gwt890xv47sdkqj1k04q40000gn/T//ccVgM3G4.s 			page 113


 3474              		.loc 1 221 9 view .LVU1292
 3475 0032 2A46     		mov	r2, r5
 3476 0034 2146     		mov	r1, r4
 3477 0036 3046     		mov	r0, r6
 226:Drivers/lvgl/src/extra/widgets/meter/lv_meter.c **** 
 3478              		.loc 1 226 1 is_stmt 0 view .LVU1293
 3479 0038 BDE8F041 		pop	{r4, r5, r6, r7, r8, lr}
 3480              		.cfi_remember_state
 3481              		.cfi_restore 14
 3482              		.cfi_restore 8
 3483              		.cfi_restore 7
 3484              		.cfi_restore 6
 3485              		.cfi_restore 5
 3486              		.cfi_restore 4
 3487              		.cfi_def_cfa_offset 0
 3488              	.LVL314:
 221:Drivers/lvgl/src/extra/widgets/meter/lv_meter.c ****     }
 3489              		.loc 1 221 9 view .LVU1294
 3490 003c FFF7FEBF 		b	inv_line
 3491              	.LVL315:
 3492              	.L109:
 3493              		.cfi_restore_state
 215:Drivers/lvgl/src/extra/widgets/meter/lv_meter.c ****         inv_arc(obj, indic, old_end, value);
 3494              		.loc 1 215 9 is_stmt 1 view .LVU1295
 3495 0040 2B46     		mov	r3, r5
 3496 0042 FFF7FEFF 		bl	inv_arc
 3497              	.LVL316:
 216:Drivers/lvgl/src/extra/widgets/meter/lv_meter.c ****     }
 3498              		.loc 1 216 9 view .LVU1296
 3499 0046 2B46     		mov	r3, r5
 3500 0048 3A46     		mov	r2, r7
 3501 004a 2146     		mov	r1, r4
 3502 004c 3046     		mov	r0, r6
 226:Drivers/lvgl/src/extra/widgets/meter/lv_meter.c **** 
 3503              		.loc 1 226 1 is_stmt 0 view .LVU1297
 3504 004e BDE8F041 		pop	{r4, r5, r6, r7, r8, lr}
 3505              		.cfi_restore 14
 3506              		.cfi_restore 8
 3507              		.cfi_restore 7
 3508              		.cfi_restore 6
 3509              		.cfi_restore 5
 3510              		.cfi_restore 4
 3511              		.cfi_def_cfa_offset 0
 3512              	.LVL317:
 216:Drivers/lvgl/src/extra/widgets/meter/lv_meter.c ****     }
 3513              		.loc 1 216 9 view .LVU1298
 3514 0052 FFF7FEBF 		b	inv_arc
 3515              	.LVL318:
 216:Drivers/lvgl/src/extra/widgets/meter/lv_meter.c ****     }
 3516              		.loc 1 216 9 view .LVU1299
 3517              		.cfi_endproc
 3518              	.LFE213:
 3520 0056 00BF     		.section	.text.lv_meter_set_indicator_start_value,"ax",%progbits
 3521              		.align	1
 3522              		.p2align 2,,3
 3523              		.global	lv_meter_set_indicator_start_value
 3524              		.syntax unified
ARM GAS  /var/folders/lp/x54gwt890xv47sdkqj1k04q40000gn/T//ccVgM3G4.s 			page 114


 3525              		.thumb
 3526              		.thumb_func
 3528              	lv_meter_set_indicator_start_value:
 3529              	.LVL319:
 3530              	.LFB214:
 229:Drivers/lvgl/src/extra/widgets/meter/lv_meter.c ****     int32_t old_value = indic->start_value;
 3531              		.loc 1 229 1 is_stmt 1 view -0
 3532              		.cfi_startproc
 3533              		@ args = 0, pretend = 0, frame = 0
 3534              		@ frame_needed = 0, uses_anonymous_args = 0
 230:Drivers/lvgl/src/extra/widgets/meter/lv_meter.c ****     indic->start_value = value;
 3535              		.loc 1 230 5 view .LVU1301
 229:Drivers/lvgl/src/extra/widgets/meter/lv_meter.c ****     int32_t old_value = indic->start_value;
 3536              		.loc 1 229 1 is_stmt 0 view .LVU1302
 3537 0000 70B5     		push	{r4, r5, r6, lr}
 3538              		.cfi_def_cfa_offset 16
 3539              		.cfi_offset 4, -16
 3540              		.cfi_offset 5, -12
 3541              		.cfi_offset 6, -8
 3542              		.cfi_offset 14, -4
 233:Drivers/lvgl/src/extra/widgets/meter/lv_meter.c ****         inv_arc(obj, indic, old_value, value);
 3543              		.loc 1 233 13 view .LVU1303
 3544 0002 0B79     		ldrb	r3, [r1, #4]	@ zero_extendqisi2
 229:Drivers/lvgl/src/extra/widgets/meter/lv_meter.c ****     int32_t old_value = indic->start_value;
 3545              		.loc 1 229 1 view .LVU1304
 3546 0004 1546     		mov	r5, r2
 233:Drivers/lvgl/src/extra/widgets/meter/lv_meter.c ****         inv_arc(obj, indic, old_value, value);
 3547              		.loc 1 233 7 view .LVU1305
 3548 0006 032B     		cmp	r3, #3
 230:Drivers/lvgl/src/extra/widgets/meter/lv_meter.c ****     indic->start_value = value;
 3549              		.loc 1 230 13 view .LVU1306
 3550 0008 8A68     		ldr	r2, [r1, #8]
 3551              	.LVL320:
 231:Drivers/lvgl/src/extra/widgets/meter/lv_meter.c **** 
 3552              		.loc 1 231 5 is_stmt 1 view .LVU1307
 231:Drivers/lvgl/src/extra/widgets/meter/lv_meter.c **** 
 3553              		.loc 1 231 24 is_stmt 0 view .LVU1308
 3554 000a 8D60     		str	r5, [r1, #8]
 233:Drivers/lvgl/src/extra/widgets/meter/lv_meter.c ****         inv_arc(obj, indic, old_value, value);
 3555              		.loc 1 233 5 is_stmt 1 view .LVU1309
 233:Drivers/lvgl/src/extra/widgets/meter/lv_meter.c ****         inv_arc(obj, indic, old_value, value);
 3556              		.loc 1 233 7 is_stmt 0 view .LVU1310
 3557 000c 10D0     		beq	.L115
 236:Drivers/lvgl/src/extra/widgets/meter/lv_meter.c ****         inv_line(obj, indic, old_value);
 3558              		.loc 1 236 10 is_stmt 1 view .LVU1311
 236:Drivers/lvgl/src/extra/widgets/meter/lv_meter.c ****         inv_line(obj, indic, old_value);
 3559              		.loc 1 236 12 is_stmt 0 view .LVU1312
 3560 000e 012B     		cmp	r3, #1
 3561 0010 03D9     		bls	.L116
 241:Drivers/lvgl/src/extra/widgets/meter/lv_meter.c ****     }
 3562              		.loc 1 241 9 is_stmt 1 view .LVU1313
 243:Drivers/lvgl/src/extra/widgets/meter/lv_meter.c **** 
 3563              		.loc 1 243 1 is_stmt 0 view .LVU1314
 3564 0012 BDE87040 		pop	{r4, r5, r6, lr}
 3565              		.cfi_remember_state
 3566              		.cfi_restore 14
 3567              		.cfi_restore 6
ARM GAS  /var/folders/lp/x54gwt890xv47sdkqj1k04q40000gn/T//ccVgM3G4.s 			page 115


 3568              		.cfi_restore 5
 3569              		.cfi_restore 4
 3570              		.cfi_def_cfa_offset 0
 3571              	.LVL321:
 241:Drivers/lvgl/src/extra/widgets/meter/lv_meter.c ****     }
 3572              		.loc 1 241 9 view .LVU1315
 3573 0016 FFF7FEBF 		b	lv_obj_invalidate
 3574              	.LVL322:
 3575              	.L116:
 3576              		.cfi_restore_state
 241:Drivers/lvgl/src/extra/widgets/meter/lv_meter.c ****     }
 3577              		.loc 1 241 9 view .LVU1316
 3578 001a 0C46     		mov	r4, r1
 3579 001c 0646     		mov	r6, r0
 237:Drivers/lvgl/src/extra/widgets/meter/lv_meter.c ****         inv_line(obj, indic, value);
 3580              		.loc 1 237 9 is_stmt 1 view .LVU1317
 3581 001e FFF7FEFF 		bl	inv_line
 3582              	.LVL323:
 238:Drivers/lvgl/src/extra/widgets/meter/lv_meter.c ****     }
 3583              		.loc 1 238 9 view .LVU1318
 3584 0022 2A46     		mov	r2, r5
 3585 0024 2146     		mov	r1, r4
 3586 0026 3046     		mov	r0, r6
 243:Drivers/lvgl/src/extra/widgets/meter/lv_meter.c **** 
 3587              		.loc 1 243 1 is_stmt 0 view .LVU1319
 3588 0028 BDE87040 		pop	{r4, r5, r6, lr}
 3589              		.cfi_remember_state
 3590              		.cfi_restore 14
 3591              		.cfi_restore 6
 3592              		.cfi_restore 5
 3593              		.cfi_restore 4
 3594              		.cfi_def_cfa_offset 0
 3595              	.LVL324:
 238:Drivers/lvgl/src/extra/widgets/meter/lv_meter.c ****     }
 3596              		.loc 1 238 9 view .LVU1320
 3597 002c FFF7FEBF 		b	inv_line
 3598              	.LVL325:
 3599              	.L115:
 3600              		.cfi_restore_state
 234:Drivers/lvgl/src/extra/widgets/meter/lv_meter.c ****     }
 3601              		.loc 1 234 9 is_stmt 1 view .LVU1321
 3602 0030 2B46     		mov	r3, r5
 243:Drivers/lvgl/src/extra/widgets/meter/lv_meter.c **** 
 3603              		.loc 1 243 1 is_stmt 0 view .LVU1322
 3604 0032 BDE87040 		pop	{r4, r5, r6, lr}
 3605              		.cfi_restore 14
 3606              		.cfi_restore 6
 3607              		.cfi_restore 5
 3608              		.cfi_restore 4
 3609              		.cfi_def_cfa_offset 0
 3610              	.LVL326:
 234:Drivers/lvgl/src/extra/widgets/meter/lv_meter.c ****     }
 3611              		.loc 1 234 9 view .LVU1323
 3612 0036 FFF7FEBF 		b	inv_arc
 3613              	.LVL327:
 234:Drivers/lvgl/src/extra/widgets/meter/lv_meter.c ****     }
 3614              		.loc 1 234 9 view .LVU1324
ARM GAS  /var/folders/lp/x54gwt890xv47sdkqj1k04q40000gn/T//ccVgM3G4.s 			page 116


 3615              		.cfi_endproc
 3616              	.LFE214:
 3618 003a 00BF     		.section	.text.lv_meter_set_indicator_end_value,"ax",%progbits
 3619              		.align	1
 3620              		.p2align 2,,3
 3621              		.global	lv_meter_set_indicator_end_value
 3622              		.syntax unified
 3623              		.thumb
 3624              		.thumb_func
 3626              	lv_meter_set_indicator_end_value:
 3627              	.LVL328:
 3628              	.LFB215:
 246:Drivers/lvgl/src/extra/widgets/meter/lv_meter.c ****     int32_t old_value = indic->end_value;
 3629              		.loc 1 246 1 is_stmt 1 view -0
 3630              		.cfi_startproc
 3631              		@ args = 0, pretend = 0, frame = 0
 3632              		@ frame_needed = 0, uses_anonymous_args = 0
 247:Drivers/lvgl/src/extra/widgets/meter/lv_meter.c ****     indic->end_value = value;
 3633              		.loc 1 247 5 view .LVU1326
 246:Drivers/lvgl/src/extra/widgets/meter/lv_meter.c ****     int32_t old_value = indic->end_value;
 3634              		.loc 1 246 1 is_stmt 0 view .LVU1327
 3635 0000 70B5     		push	{r4, r5, r6, lr}
 3636              		.cfi_def_cfa_offset 16
 3637              		.cfi_offset 4, -16
 3638              		.cfi_offset 5, -12
 3639              		.cfi_offset 6, -8
 3640              		.cfi_offset 14, -4
 250:Drivers/lvgl/src/extra/widgets/meter/lv_meter.c ****         inv_arc(obj, indic, old_value, value);
 3641              		.loc 1 250 13 view .LVU1328
 3642 0002 0B79     		ldrb	r3, [r1, #4]	@ zero_extendqisi2
 246:Drivers/lvgl/src/extra/widgets/meter/lv_meter.c ****     int32_t old_value = indic->end_value;
 3643              		.loc 1 246 1 view .LVU1329
 3644 0004 1546     		mov	r5, r2
 250:Drivers/lvgl/src/extra/widgets/meter/lv_meter.c ****         inv_arc(obj, indic, old_value, value);
 3645              		.loc 1 250 7 view .LVU1330
 3646 0006 032B     		cmp	r3, #3
 247:Drivers/lvgl/src/extra/widgets/meter/lv_meter.c ****     indic->end_value = value;
 3647              		.loc 1 247 13 view .LVU1331
 3648 0008 CA68     		ldr	r2, [r1, #12]
 3649              	.LVL329:
 248:Drivers/lvgl/src/extra/widgets/meter/lv_meter.c **** 
 3650              		.loc 1 248 5 is_stmt 1 view .LVU1332
 248:Drivers/lvgl/src/extra/widgets/meter/lv_meter.c **** 
 3651              		.loc 1 248 22 is_stmt 0 view .LVU1333
 3652 000a CD60     		str	r5, [r1, #12]
 250:Drivers/lvgl/src/extra/widgets/meter/lv_meter.c ****         inv_arc(obj, indic, old_value, value);
 3653              		.loc 1 250 5 is_stmt 1 view .LVU1334
 250:Drivers/lvgl/src/extra/widgets/meter/lv_meter.c ****         inv_arc(obj, indic, old_value, value);
 3654              		.loc 1 250 7 is_stmt 0 view .LVU1335
 3655 000c 10D0     		beq	.L121
 253:Drivers/lvgl/src/extra/widgets/meter/lv_meter.c ****         inv_line(obj, indic, old_value);
 3656              		.loc 1 253 10 is_stmt 1 view .LVU1336
 253:Drivers/lvgl/src/extra/widgets/meter/lv_meter.c ****         inv_line(obj, indic, old_value);
 3657              		.loc 1 253 12 is_stmt 0 view .LVU1337
 3658 000e 012B     		cmp	r3, #1
 3659 0010 03D9     		bls	.L122
 258:Drivers/lvgl/src/extra/widgets/meter/lv_meter.c ****     }
ARM GAS  /var/folders/lp/x54gwt890xv47sdkqj1k04q40000gn/T//ccVgM3G4.s 			page 117


 3660              		.loc 1 258 9 is_stmt 1 view .LVU1338
 260:Drivers/lvgl/src/extra/widgets/meter/lv_meter.c **** 
 3661              		.loc 1 260 1 is_stmt 0 view .LVU1339
 3662 0012 BDE87040 		pop	{r4, r5, r6, lr}
 3663              		.cfi_remember_state
 3664              		.cfi_restore 14
 3665              		.cfi_restore 6
 3666              		.cfi_restore 5
 3667              		.cfi_restore 4
 3668              		.cfi_def_cfa_offset 0
 3669              	.LVL330:
 258:Drivers/lvgl/src/extra/widgets/meter/lv_meter.c ****     }
 3670              		.loc 1 258 9 view .LVU1340
 3671 0016 FFF7FEBF 		b	lv_obj_invalidate
 3672              	.LVL331:
 3673              	.L122:
 3674              		.cfi_restore_state
 258:Drivers/lvgl/src/extra/widgets/meter/lv_meter.c ****     }
 3675              		.loc 1 258 9 view .LVU1341
 3676 001a 0C46     		mov	r4, r1
 3677 001c 0646     		mov	r6, r0
 254:Drivers/lvgl/src/extra/widgets/meter/lv_meter.c ****         inv_line(obj, indic, value);
 3678              		.loc 1 254 9 is_stmt 1 view .LVU1342
 3679 001e FFF7FEFF 		bl	inv_line
 3680              	.LVL332:
 255:Drivers/lvgl/src/extra/widgets/meter/lv_meter.c ****     }
 3681              		.loc 1 255 9 view .LVU1343
 3682 0022 2A46     		mov	r2, r5
 3683 0024 2146     		mov	r1, r4
 3684 0026 3046     		mov	r0, r6
 260:Drivers/lvgl/src/extra/widgets/meter/lv_meter.c **** 
 3685              		.loc 1 260 1 is_stmt 0 view .LVU1344
 3686 0028 BDE87040 		pop	{r4, r5, r6, lr}
 3687              		.cfi_remember_state
 3688              		.cfi_restore 14
 3689              		.cfi_restore 6
 3690              		.cfi_restore 5
 3691              		.cfi_restore 4
 3692              		.cfi_def_cfa_offset 0
 3693              	.LVL333:
 255:Drivers/lvgl/src/extra/widgets/meter/lv_meter.c ****     }
 3694              		.loc 1 255 9 view .LVU1345
 3695 002c FFF7FEBF 		b	inv_line
 3696              	.LVL334:
 3697              	.L121:
 3698              		.cfi_restore_state
 251:Drivers/lvgl/src/extra/widgets/meter/lv_meter.c ****     }
 3699              		.loc 1 251 9 is_stmt 1 view .LVU1346
 3700 0030 2B46     		mov	r3, r5
 260:Drivers/lvgl/src/extra/widgets/meter/lv_meter.c **** 
 3701              		.loc 1 260 1 is_stmt 0 view .LVU1347
 3702 0032 BDE87040 		pop	{r4, r5, r6, lr}
 3703              		.cfi_restore 14
 3704              		.cfi_restore 6
 3705              		.cfi_restore 5
 3706              		.cfi_restore 4
 3707              		.cfi_def_cfa_offset 0
ARM GAS  /var/folders/lp/x54gwt890xv47sdkqj1k04q40000gn/T//ccVgM3G4.s 			page 118


 3708              	.LVL335:
 251:Drivers/lvgl/src/extra/widgets/meter/lv_meter.c ****     }
 3709              		.loc 1 251 9 view .LVU1348
 3710 0036 FFF7FEBF 		b	inv_arc
 3711              	.LVL336:
 251:Drivers/lvgl/src/extra/widgets/meter/lv_meter.c ****     }
 3712              		.loc 1 251 9 view .LVU1349
 3713              		.cfi_endproc
 3714              	.LFE215:
 3716              		.global	lv_meter_class
 3717 003a 00BF     		.section	.rodata.lv_meter_class,"a"
 3718              		.align	2
 3721              	lv_meter_class:
 3722 0000 00000000 		.word	lv_obj_class
 3723 0004 00000000 		.word	lv_meter_constructor
 3724 0008 00000000 		.word	lv_meter_destructor
 3725 000c 00000000 		.space	4
 3726 0010 00000000 		.word	lv_meter_event
 3727 0014 00000000 		.space	4
 3728 0018 C0       		.byte	192
 3729 0019 03       		.byte	3
 3730 001a 00       		.byte	0
 3731 001b 00       		.space	1
 3732              		.text
 3733              	.Letext0:
 3734              		.file 6 "/Users/jr/Library/Application Support/Code/User/globalStorage/bmd.stm32-for-vscode/@xpack
 3735              		.file 7 "/Users/jr/Library/Application Support/Code/User/globalStorage/bmd.stm32-for-vscode/@xpack
 3736              		.file 8 "Drivers/lvgl/src/extra/widgets/meter/../../../../src/misc/lv_types.h"
 3737              		.file 9 "/Users/jr/Library/Application Support/Code/User/globalStorage/bmd.stm32-for-vscode/@xpack
 3738              		.file 10 "Drivers/lvgl/src/extra/widgets/meter/../../../../src/hal/../draw/../misc/../font/lv_font
 3739              		.file 11 "Drivers/lvgl/src/extra/widgets/meter/../../../../src/hal/../draw/../misc/lv_txt.h"
 3740              		.file 12 "Drivers/lvgl/src/extra/widgets/meter/../../../../src/hal/../draw/../misc/lv_bidi.h"
 3741              		.file 13 "Drivers/lvgl/src/extra/widgets/meter/../../../../src/hal/../draw/../misc/lv_style.h"
 3742              		.file 14 "Drivers/lvgl/src/extra/widgets/meter/../../../../src/hal/../draw/lv_img_buf.h"
 3743              		.file 15 "Drivers/lvgl/src/extra/widgets/meter/../../../../src/core/lv_obj.h"
 3744              		.file 16 "Drivers/lvgl/src/extra/widgets/meter/../../../../src/hal/../draw/lv_draw_rect.h"
 3745              		.file 17 "Drivers/lvgl/src/extra/widgets/meter/../../../../src/hal/../draw/lv_draw_label.h"
 3746              		.file 18 "Drivers/lvgl/src/extra/widgets/meter/../../../../src/hal/../draw/lv_draw_img.h"
 3747              		.file 19 "Drivers/lvgl/src/extra/widgets/meter/../../../../src/hal/../draw/lv_draw_line.h"
 3748              		.file 20 "Drivers/lvgl/src/extra/widgets/meter/../../../../src/hal/../draw/lv_draw_arc.h"
 3749              		.file 21 "Drivers/lvgl/src/extra/widgets/meter/../../../../src/hal/../draw/lv_draw_mask.h"
 3750              		.file 22 "Drivers/lvgl/src/extra/widgets/meter/../../../../src/hal/../draw/lv_draw_layer.h"
 3751              		.file 23 "Drivers/lvgl/src/extra/widgets/meter/../../../../src/hal/../draw/lv_draw.h"
 3752              		.file 24 "Drivers/lvgl/src/extra/widgets/meter/../../../../src/hal/../misc/lv_ll.h"
 3753              		.file 25 "Drivers/lvgl/src/extra/widgets/meter/../../../../src/core/lv_group.h"
 3754              		.file 26 "Drivers/lvgl/src/extra/widgets/meter/../../../../src/core/lv_obj_scroll.h"
 3755              		.file 27 "Drivers/lvgl/src/extra/widgets/meter/../../../../src/core/lv_obj_style.h"
 3756              		.file 28 "Drivers/lvgl/src/extra/widgets/meter/../../../../src/core/lv_obj_draw.h"
 3757              		.file 29 "Drivers/lvgl/src/extra/widgets/meter/../../../../src/core/lv_obj_class.h"
 3758              		.file 30 "Drivers/lvgl/src/extra/widgets/meter/../../../../src/core/lv_event.h"
 3759              		.file 31 "Drivers/lvgl/src/extra/widgets/meter/../../../../src/widgets/lv_bar.h"
 3760              		.file 32 "Drivers/lvgl/src/extra/widgets/meter/../../../../src/extra/widgets/imgbtn/lv_imgbtn.h"
 3761              		.file 33 "Drivers/lvgl/src/extra/widgets/meter/lv_meter.h"
 3762              		.file 34 "Drivers/lvgl/src/extra/widgets/meter/../../../../src/hal/../draw/sw/../../core/lv_obj_po
 3763              		.file 35 "Drivers/lvgl/src/extra/widgets/meter/../../../../src/misc/lv_mem.h"
 3764              		.file 36 "Drivers/lvgl/src/extra/widgets/meter/../../../../src/hal/../draw/lv_img_decoder.h"
 3765              		.file 37 "Drivers/lvgl/src/extra/widgets/meter/../../../../src/misc/lv_printf.h"
ARM GAS  /var/folders/lp/x54gwt890xv47sdkqj1k04q40000gn/T//ccVgM3G4.s 			page 119


ARM GAS  /var/folders/lp/x54gwt890xv47sdkqj1k04q40000gn/T//ccVgM3G4.s 			page 120


DEFINED SYMBOLS
                            *ABS*:00000000 lv_meter.c
/var/folders/lp/x54gwt890xv47sdkqj1k04q40000gn/T//ccVgM3G4.s:21     .text.lv_meter_destructor:00000000 $t
/var/folders/lp/x54gwt890xv47sdkqj1k04q40000gn/T//ccVgM3G4.s:27     .text.lv_meter_destructor:00000000 lv_meter_destructor
/var/folders/lp/x54gwt890xv47sdkqj1k04q40000gn/T//ccVgM3G4.s:69     .text.lv_meter_constructor:00000000 $t
/var/folders/lp/x54gwt890xv47sdkqj1k04q40000gn/T//ccVgM3G4.s:75     .text.lv_meter_constructor:00000000 lv_meter_constructor
/var/folders/lp/x54gwt890xv47sdkqj1k04q40000gn/T//ccVgM3G4.s:119    .text.inv_arc:00000000 $t
/var/folders/lp/x54gwt890xv47sdkqj1k04q40000gn/T//ccVgM3G4.s:125    .text.inv_arc:00000000 inv_arc
/var/folders/lp/x54gwt890xv47sdkqj1k04q40000gn/T//ccVgM3G4.s:347    .text.inv_line:00000000 $t
/var/folders/lp/x54gwt890xv47sdkqj1k04q40000gn/T//ccVgM3G4.s:353    .text.inv_line:00000000 inv_line
/var/folders/lp/x54gwt890xv47sdkqj1k04q40000gn/T//ccVgM3G4.s:764    .text.inv_line:000001c0 $d
/var/folders/lp/x54gwt890xv47sdkqj1k04q40000gn/T//ccVgM3G4.s:769    .rodata.lv_meter_event.str1.4:00000000 $d
/var/folders/lp/x54gwt890xv47sdkqj1k04q40000gn/T//ccVgM3G4.s:773    .text.lv_meter_event:00000000 $t
/var/folders/lp/x54gwt890xv47sdkqj1k04q40000gn/T//ccVgM3G4.s:779    .text.lv_meter_event:00000000 lv_meter_event
/var/folders/lp/x54gwt890xv47sdkqj1k04q40000gn/T//ccVgM3G4.s:826    .text.lv_meter_event:00000018 $d
/var/folders/lp/x54gwt890xv47sdkqj1k04q40000gn/T//ccVgM3G4.s:3721   .rodata.lv_meter_class:00000000 lv_meter_class
/var/folders/lp/x54gwt890xv47sdkqj1k04q40000gn/T//ccVgM3G4.s:836    .text.lv_meter_event:0000001c $t
/var/folders/lp/x54gwt890xv47sdkqj1k04q40000gn/T//ccVgM3G4.s:1546   .text.lv_meter_event:0000033c $d
/var/folders/lp/x54gwt890xv47sdkqj1k04q40000gn/T//ccVgM3G4.s:1553   .text.lv_meter_event:00000340 $t
/var/folders/lp/x54gwt890xv47sdkqj1k04q40000gn/T//ccVgM3G4.s:2205   .text.lv_meter_event:00000654 $d
/var/folders/lp/x54gwt890xv47sdkqj1k04q40000gn/T//ccVgM3G4.s:2214   .text.lv_meter_event:00000660 $t
/var/folders/lp/x54gwt890xv47sdkqj1k04q40000gn/T//ccVgM3G4.s:2720   .text.lv_meter_create:00000000 $t
/var/folders/lp/x54gwt890xv47sdkqj1k04q40000gn/T//ccVgM3G4.s:2727   .text.lv_meter_create:00000000 lv_meter_create
/var/folders/lp/x54gwt890xv47sdkqj1k04q40000gn/T//ccVgM3G4.s:2766   .text.lv_meter_create:00000014 $d
/var/folders/lp/x54gwt890xv47sdkqj1k04q40000gn/T//ccVgM3G4.s:2771   .text.lv_meter_add_scale:00000000 $t
/var/folders/lp/x54gwt890xv47sdkqj1k04q40000gn/T//ccVgM3G4.s:2778   .text.lv_meter_add_scale:00000000 lv_meter_add_scale
/var/folders/lp/x54gwt890xv47sdkqj1k04q40000gn/T//ccVgM3G4.s:2860   .text.lv_meter_add_scale:00000038 $d
/var/folders/lp/x54gwt890xv47sdkqj1k04q40000gn/T//ccVgM3G4.s:2865   .text.lv_meter_set_scale_ticks:00000000 $t
/var/folders/lp/x54gwt890xv47sdkqj1k04q40000gn/T//ccVgM3G4.s:2872   .text.lv_meter_set_scale_ticks:00000000 lv_meter_set_scale_ticks
/var/folders/lp/x54gwt890xv47sdkqj1k04q40000gn/T//ccVgM3G4.s:2905   .text.lv_meter_set_scale_major_ticks:00000000 $t
/var/folders/lp/x54gwt890xv47sdkqj1k04q40000gn/T//ccVgM3G4.s:2912   .text.lv_meter_set_scale_major_ticks:00000000 lv_meter_set_scale_major_ticks
/var/folders/lp/x54gwt890xv47sdkqj1k04q40000gn/T//ccVgM3G4.s:2951   .text.lv_meter_set_scale_range:00000000 $t
/var/folders/lp/x54gwt890xv47sdkqj1k04q40000gn/T//ccVgM3G4.s:2958   .text.lv_meter_set_scale_range:00000000 lv_meter_set_scale_range
/var/folders/lp/x54gwt890xv47sdkqj1k04q40000gn/T//ccVgM3G4.s:2988   .text.lv_meter_add_needle_line:00000000 $t
/var/folders/lp/x54gwt890xv47sdkqj1k04q40000gn/T//ccVgM3G4.s:2995   .text.lv_meter_add_needle_line:00000000 lv_meter_add_needle_line
/var/folders/lp/x54gwt890xv47sdkqj1k04q40000gn/T//ccVgM3G4.s:3088   .text.lv_meter_add_needle_img:00000000 $t
/var/folders/lp/x54gwt890xv47sdkqj1k04q40000gn/T//ccVgM3G4.s:3095   .text.lv_meter_add_needle_img:00000000 lv_meter_add_needle_img
/var/folders/lp/x54gwt890xv47sdkqj1k04q40000gn/T//ccVgM3G4.s:3186   .text.lv_meter_add_arc:00000000 $t
/var/folders/lp/x54gwt890xv47sdkqj1k04q40000gn/T//ccVgM3G4.s:3193   .text.lv_meter_add_arc:00000000 lv_meter_add_arc
/var/folders/lp/x54gwt890xv47sdkqj1k04q40000gn/T//ccVgM3G4.s:3286   .text.lv_meter_add_scale_lines:00000000 $t
/var/folders/lp/x54gwt890xv47sdkqj1k04q40000gn/T//ccVgM3G4.s:3293   .text.lv_meter_add_scale_lines:00000000 lv_meter_add_scale_lines
/var/folders/lp/x54gwt890xv47sdkqj1k04q40000gn/T//ccVgM3G4.s:3396   .text.lv_meter_set_indicator_value:00000000 $t
/var/folders/lp/x54gwt890xv47sdkqj1k04q40000gn/T//ccVgM3G4.s:3403   .text.lv_meter_set_indicator_value:00000000 lv_meter_set_indicator_value
/var/folders/lp/x54gwt890xv47sdkqj1k04q40000gn/T//ccVgM3G4.s:3521   .text.lv_meter_set_indicator_start_value:00000000 $t
/var/folders/lp/x54gwt890xv47sdkqj1k04q40000gn/T//ccVgM3G4.s:3528   .text.lv_meter_set_indicator_start_value:00000000 lv_meter_set_indicator_start_value
/var/folders/lp/x54gwt890xv47sdkqj1k04q40000gn/T//ccVgM3G4.s:3619   .text.lv_meter_set_indicator_end_value:00000000 $t
/var/folders/lp/x54gwt890xv47sdkqj1k04q40000gn/T//ccVgM3G4.s:3626   .text.lv_meter_set_indicator_end_value:00000000 lv_meter_set_indicator_end_value
/var/folders/lp/x54gwt890xv47sdkqj1k04q40000gn/T//ccVgM3G4.s:3718   .rodata.lv_meter_class:00000000 $d

UNDEFINED SYMBOLS
_lv_ll_clear
_lv_ll_init
lv_obj_get_style_prop
lv_obj_get_content_coords
lv_map
lv_draw_arc_get_area
lv_obj_invalidate_area
ARM GAS  /var/folders/lp/x54gwt890xv47sdkqj1k04q40000gn/T//ccVgM3G4.s 			page 121


lv_img_decoder_get_info
_lv_img_buf_get_transformed_area
lv_trigo_sin
lv_obj_event_base
lv_event_get_code
lv_event_get_target
lv_event_get_draw_ctx
lv_draw_arc_dsc_init
lv_obj_get_style_opa_recursive
lv_obj_draw_dsc_init
_lv_ll_get_tail
lv_event_send
lv_draw_arc
_lv_ll_get_prev
lv_draw_line_dsc_init
lv_obj_init_draw_line_dsc
lv_draw_label_dsc_init
lv_obj_init_draw_label_dsc
lv_draw_mask_radius_init
lv_draw_mask_add
lv_point_transform
lv_draw_mask_remove_id
lv_memcpy
lv_snprintf
lv_txt_get_size
lv_draw_label
lv_draw_line
lv_draw_mask_free_param
lv_draw_img_dsc_init
lv_obj_init_draw_img_dsc
lv_draw_img
lv_draw_rect_dsc_init
lv_obj_init_draw_rect_dsc
lv_draw_rect
lv_obj_class_create_obj
lv_obj_class_init_obj
_lv_ll_ins_head
lv_memset_00
lv_obj_invalidate
lv_obj_class
