ARM GAS  /var/folders/0z/tsy30v1j4xl4_7kw94k978ww0000gn/T//ccjxQgZI.s 			page 1


   1              		.cpu cortex-m4
   2              		.arch armv7e-m
   3              		.fpu fpv4-sp-d16
   4              		.eabi_attribute 27, 1
   5              		.eabi_attribute 28, 1
   6              		.eabi_attribute 20, 1
   7              		.eabi_attribute 21, 1
   8              		.eabi_attribute 23, 3
   9              		.eabi_attribute 24, 1
  10              		.eabi_attribute 25, 1
  11              		.eabi_attribute 26, 1
  12              		.eabi_attribute 30, 2
  13              		.eabi_attribute 34, 1
  14              		.eabi_attribute 18, 4
  15              		.file	"lv_meter.c"
  16              		.text
  17              	.Ltext0:
  18              		.cfi_sections	.debug_frame
  19              		.section	.text.lv_meter_destructor,"ax",%progbits
  20              		.align	1
  21              		.p2align 2,,3
  22              		.syntax unified
  23              		.thumb
  24              		.thumb_func
  26              	lv_meter_destructor:
  27              	.LVL0:
  28              	.LFB217:
  29              		.file 1 "Drivers/lvgl/src/extra/widgets/meter/lv_meter.c"
   1:Drivers/lvgl/src/extra/widgets/meter/lv_meter.c **** /**
   2:Drivers/lvgl/src/extra/widgets/meter/lv_meter.c ****  * @file lv_meter.c
   3:Drivers/lvgl/src/extra/widgets/meter/lv_meter.c ****  *
   4:Drivers/lvgl/src/extra/widgets/meter/lv_meter.c ****  */
   5:Drivers/lvgl/src/extra/widgets/meter/lv_meter.c **** 
   6:Drivers/lvgl/src/extra/widgets/meter/lv_meter.c **** /*********************
   7:Drivers/lvgl/src/extra/widgets/meter/lv_meter.c ****  *      INCLUDES
   8:Drivers/lvgl/src/extra/widgets/meter/lv_meter.c ****  *********************/
   9:Drivers/lvgl/src/extra/widgets/meter/lv_meter.c **** #include "lv_meter.h"
  10:Drivers/lvgl/src/extra/widgets/meter/lv_meter.c **** #if LV_USE_METER != 0
  11:Drivers/lvgl/src/extra/widgets/meter/lv_meter.c **** 
  12:Drivers/lvgl/src/extra/widgets/meter/lv_meter.c **** #include "../../../misc/lv_assert.h"
  13:Drivers/lvgl/src/extra/widgets/meter/lv_meter.c **** 
  14:Drivers/lvgl/src/extra/widgets/meter/lv_meter.c **** /*********************
  15:Drivers/lvgl/src/extra/widgets/meter/lv_meter.c ****  *      DEFINES
  16:Drivers/lvgl/src/extra/widgets/meter/lv_meter.c ****  *********************/
  17:Drivers/lvgl/src/extra/widgets/meter/lv_meter.c **** #define MY_CLASS &lv_meter_class
  18:Drivers/lvgl/src/extra/widgets/meter/lv_meter.c **** 
  19:Drivers/lvgl/src/extra/widgets/meter/lv_meter.c **** /**********************
  20:Drivers/lvgl/src/extra/widgets/meter/lv_meter.c ****  *      TYPEDEFS
  21:Drivers/lvgl/src/extra/widgets/meter/lv_meter.c ****  **********************/
  22:Drivers/lvgl/src/extra/widgets/meter/lv_meter.c **** 
  23:Drivers/lvgl/src/extra/widgets/meter/lv_meter.c **** /**********************
  24:Drivers/lvgl/src/extra/widgets/meter/lv_meter.c ****  *  STATIC PROTOTYPES
  25:Drivers/lvgl/src/extra/widgets/meter/lv_meter.c ****  **********************/
  26:Drivers/lvgl/src/extra/widgets/meter/lv_meter.c **** static void lv_meter_constructor(const lv_obj_class_t * class_p, lv_obj_t * obj);
  27:Drivers/lvgl/src/extra/widgets/meter/lv_meter.c **** static void lv_meter_destructor(const lv_obj_class_t * class_p, lv_obj_t * obj);
  28:Drivers/lvgl/src/extra/widgets/meter/lv_meter.c **** static void lv_meter_event(const lv_obj_class_t * class_p, lv_event_t * e);
  29:Drivers/lvgl/src/extra/widgets/meter/lv_meter.c **** static void draw_arcs(lv_obj_t * obj, lv_draw_ctx_t * draw_ctx, const lv_area_t * scale_area);
ARM GAS  /var/folders/0z/tsy30v1j4xl4_7kw94k978ww0000gn/T//ccjxQgZI.s 			page 2


  30:Drivers/lvgl/src/extra/widgets/meter/lv_meter.c **** static void draw_ticks_and_labels(lv_obj_t * obj, lv_draw_ctx_t * draw_ctx, const lv_area_t * scale
  31:Drivers/lvgl/src/extra/widgets/meter/lv_meter.c **** static void draw_needles(lv_obj_t * obj, lv_draw_ctx_t * draw_ctx, const lv_area_t * scale_area);
  32:Drivers/lvgl/src/extra/widgets/meter/lv_meter.c **** static void inv_arc(lv_obj_t * obj, lv_meter_indicator_t * indic, int32_t old_value, int32_t new_va
  33:Drivers/lvgl/src/extra/widgets/meter/lv_meter.c **** static void inv_line(lv_obj_t * obj, lv_meter_indicator_t * indic, int32_t value);
  34:Drivers/lvgl/src/extra/widgets/meter/lv_meter.c **** 
  35:Drivers/lvgl/src/extra/widgets/meter/lv_meter.c **** /**********************
  36:Drivers/lvgl/src/extra/widgets/meter/lv_meter.c ****  *  STATIC VARIABLES
  37:Drivers/lvgl/src/extra/widgets/meter/lv_meter.c ****  **********************/
  38:Drivers/lvgl/src/extra/widgets/meter/lv_meter.c **** const lv_obj_class_t lv_meter_class = {
  39:Drivers/lvgl/src/extra/widgets/meter/lv_meter.c ****     .constructor_cb = lv_meter_constructor,
  40:Drivers/lvgl/src/extra/widgets/meter/lv_meter.c ****     .destructor_cb = lv_meter_destructor,
  41:Drivers/lvgl/src/extra/widgets/meter/lv_meter.c ****     .event_cb = lv_meter_event,
  42:Drivers/lvgl/src/extra/widgets/meter/lv_meter.c ****     .instance_size = sizeof(lv_meter_t),
  43:Drivers/lvgl/src/extra/widgets/meter/lv_meter.c ****     .base_class = &lv_obj_class
  44:Drivers/lvgl/src/extra/widgets/meter/lv_meter.c **** };
  45:Drivers/lvgl/src/extra/widgets/meter/lv_meter.c **** 
  46:Drivers/lvgl/src/extra/widgets/meter/lv_meter.c **** /**********************
  47:Drivers/lvgl/src/extra/widgets/meter/lv_meter.c ****  *      MACROS
  48:Drivers/lvgl/src/extra/widgets/meter/lv_meter.c ****  **********************/
  49:Drivers/lvgl/src/extra/widgets/meter/lv_meter.c **** 
  50:Drivers/lvgl/src/extra/widgets/meter/lv_meter.c **** /**********************
  51:Drivers/lvgl/src/extra/widgets/meter/lv_meter.c ****  *   GLOBAL FUNCTIONS
  52:Drivers/lvgl/src/extra/widgets/meter/lv_meter.c ****  **********************/
  53:Drivers/lvgl/src/extra/widgets/meter/lv_meter.c **** 
  54:Drivers/lvgl/src/extra/widgets/meter/lv_meter.c **** lv_obj_t * lv_meter_create(lv_obj_t * parent)
  55:Drivers/lvgl/src/extra/widgets/meter/lv_meter.c **** {
  56:Drivers/lvgl/src/extra/widgets/meter/lv_meter.c ****     LV_LOG_INFO("begin");
  57:Drivers/lvgl/src/extra/widgets/meter/lv_meter.c ****     lv_obj_t * obj = lv_obj_class_create_obj(MY_CLASS, parent);
  58:Drivers/lvgl/src/extra/widgets/meter/lv_meter.c ****     lv_obj_class_init_obj(obj);
  59:Drivers/lvgl/src/extra/widgets/meter/lv_meter.c ****     return obj;
  60:Drivers/lvgl/src/extra/widgets/meter/lv_meter.c **** }
  61:Drivers/lvgl/src/extra/widgets/meter/lv_meter.c **** 
  62:Drivers/lvgl/src/extra/widgets/meter/lv_meter.c **** /*=====================
  63:Drivers/lvgl/src/extra/widgets/meter/lv_meter.c ****  * Add scale
  64:Drivers/lvgl/src/extra/widgets/meter/lv_meter.c ****  *====================*/
  65:Drivers/lvgl/src/extra/widgets/meter/lv_meter.c **** 
  66:Drivers/lvgl/src/extra/widgets/meter/lv_meter.c **** lv_meter_scale_t * lv_meter_add_scale(lv_obj_t * obj)
  67:Drivers/lvgl/src/extra/widgets/meter/lv_meter.c **** {
  68:Drivers/lvgl/src/extra/widgets/meter/lv_meter.c ****     LV_ASSERT_OBJ(obj, MY_CLASS);
  69:Drivers/lvgl/src/extra/widgets/meter/lv_meter.c ****     lv_meter_t * meter = (lv_meter_t *)obj;
  70:Drivers/lvgl/src/extra/widgets/meter/lv_meter.c **** 
  71:Drivers/lvgl/src/extra/widgets/meter/lv_meter.c ****     lv_meter_scale_t * scale = _lv_ll_ins_head(&meter->scale_ll);
  72:Drivers/lvgl/src/extra/widgets/meter/lv_meter.c ****     LV_ASSERT_MALLOC(scale);
  73:Drivers/lvgl/src/extra/widgets/meter/lv_meter.c ****     lv_memset_00(scale, sizeof(lv_meter_scale_t));
  74:Drivers/lvgl/src/extra/widgets/meter/lv_meter.c **** 
  75:Drivers/lvgl/src/extra/widgets/meter/lv_meter.c ****     scale->angle_range = 270;
  76:Drivers/lvgl/src/extra/widgets/meter/lv_meter.c ****     scale->rotation = 90 + (360 - scale->angle_range) / 2;
  77:Drivers/lvgl/src/extra/widgets/meter/lv_meter.c ****     scale->min = 0;
  78:Drivers/lvgl/src/extra/widgets/meter/lv_meter.c ****     scale->max = 100;
  79:Drivers/lvgl/src/extra/widgets/meter/lv_meter.c ****     scale->tick_cnt = 6;
  80:Drivers/lvgl/src/extra/widgets/meter/lv_meter.c ****     scale->tick_length = 8;
  81:Drivers/lvgl/src/extra/widgets/meter/lv_meter.c ****     scale->tick_width = 2;
  82:Drivers/lvgl/src/extra/widgets/meter/lv_meter.c ****     scale->label_gap = 2;
  83:Drivers/lvgl/src/extra/widgets/meter/lv_meter.c **** 
  84:Drivers/lvgl/src/extra/widgets/meter/lv_meter.c ****     return scale;
  85:Drivers/lvgl/src/extra/widgets/meter/lv_meter.c **** }
  86:Drivers/lvgl/src/extra/widgets/meter/lv_meter.c **** 
ARM GAS  /var/folders/0z/tsy30v1j4xl4_7kw94k978ww0000gn/T//ccjxQgZI.s 			page 3


  87:Drivers/lvgl/src/extra/widgets/meter/lv_meter.c **** void lv_meter_set_scale_ticks(lv_obj_t * obj, lv_meter_scale_t * scale, uint16_t cnt, uint16_t widt
  88:Drivers/lvgl/src/extra/widgets/meter/lv_meter.c ****                               lv_color_t color)
  89:Drivers/lvgl/src/extra/widgets/meter/lv_meter.c **** {
  90:Drivers/lvgl/src/extra/widgets/meter/lv_meter.c ****     scale->tick_cnt = cnt;
  91:Drivers/lvgl/src/extra/widgets/meter/lv_meter.c ****     scale->tick_width = width;
  92:Drivers/lvgl/src/extra/widgets/meter/lv_meter.c ****     scale->tick_length = len;
  93:Drivers/lvgl/src/extra/widgets/meter/lv_meter.c ****     scale->tick_color = color;
  94:Drivers/lvgl/src/extra/widgets/meter/lv_meter.c ****     lv_obj_invalidate(obj);
  95:Drivers/lvgl/src/extra/widgets/meter/lv_meter.c **** }
  96:Drivers/lvgl/src/extra/widgets/meter/lv_meter.c **** 
  97:Drivers/lvgl/src/extra/widgets/meter/lv_meter.c **** void lv_meter_set_scale_major_ticks(lv_obj_t * obj, lv_meter_scale_t * scale, uint16_t nth, uint16_
  98:Drivers/lvgl/src/extra/widgets/meter/lv_meter.c ****                                     uint16_t len, lv_color_t color, int16_t label_gap)
  99:Drivers/lvgl/src/extra/widgets/meter/lv_meter.c **** {
 100:Drivers/lvgl/src/extra/widgets/meter/lv_meter.c ****     scale->tick_major_nth = nth;
 101:Drivers/lvgl/src/extra/widgets/meter/lv_meter.c ****     scale->tick_major_width = width;
 102:Drivers/lvgl/src/extra/widgets/meter/lv_meter.c ****     scale->tick_major_length = len;
 103:Drivers/lvgl/src/extra/widgets/meter/lv_meter.c ****     scale->tick_major_color = color;
 104:Drivers/lvgl/src/extra/widgets/meter/lv_meter.c ****     scale->label_gap = label_gap;
 105:Drivers/lvgl/src/extra/widgets/meter/lv_meter.c ****     lv_obj_invalidate(obj);
 106:Drivers/lvgl/src/extra/widgets/meter/lv_meter.c **** }
 107:Drivers/lvgl/src/extra/widgets/meter/lv_meter.c **** 
 108:Drivers/lvgl/src/extra/widgets/meter/lv_meter.c **** void lv_meter_set_scale_range(lv_obj_t * obj, lv_meter_scale_t * scale, int32_t min, int32_t max, u
 109:Drivers/lvgl/src/extra/widgets/meter/lv_meter.c ****                               uint32_t rotation)
 110:Drivers/lvgl/src/extra/widgets/meter/lv_meter.c **** {
 111:Drivers/lvgl/src/extra/widgets/meter/lv_meter.c ****     scale->min = min;
 112:Drivers/lvgl/src/extra/widgets/meter/lv_meter.c ****     scale->max = max;
 113:Drivers/lvgl/src/extra/widgets/meter/lv_meter.c ****     scale->angle_range = angle_range;
 114:Drivers/lvgl/src/extra/widgets/meter/lv_meter.c ****     scale->rotation = rotation;
 115:Drivers/lvgl/src/extra/widgets/meter/lv_meter.c ****     lv_obj_invalidate(obj);
 116:Drivers/lvgl/src/extra/widgets/meter/lv_meter.c **** }
 117:Drivers/lvgl/src/extra/widgets/meter/lv_meter.c **** 
 118:Drivers/lvgl/src/extra/widgets/meter/lv_meter.c **** /*=====================
 119:Drivers/lvgl/src/extra/widgets/meter/lv_meter.c ****  * Add indicator
 120:Drivers/lvgl/src/extra/widgets/meter/lv_meter.c ****  *====================*/
 121:Drivers/lvgl/src/extra/widgets/meter/lv_meter.c **** 
 122:Drivers/lvgl/src/extra/widgets/meter/lv_meter.c **** lv_meter_indicator_t * lv_meter_add_needle_line(lv_obj_t * obj, lv_meter_scale_t * scale, uint16_t 
 123:Drivers/lvgl/src/extra/widgets/meter/lv_meter.c ****                                                 lv_color_t color, int16_t r_mod)
 124:Drivers/lvgl/src/extra/widgets/meter/lv_meter.c **** {
 125:Drivers/lvgl/src/extra/widgets/meter/lv_meter.c ****     LV_ASSERT_OBJ(obj, MY_CLASS);
 126:Drivers/lvgl/src/extra/widgets/meter/lv_meter.c ****     lv_meter_t * meter = (lv_meter_t *)obj;
 127:Drivers/lvgl/src/extra/widgets/meter/lv_meter.c ****     lv_meter_indicator_t * indic = _lv_ll_ins_head(&meter->indicator_ll);
 128:Drivers/lvgl/src/extra/widgets/meter/lv_meter.c ****     LV_ASSERT_MALLOC(indic);
 129:Drivers/lvgl/src/extra/widgets/meter/lv_meter.c ****     lv_memset_00(indic, sizeof(lv_meter_indicator_t));
 130:Drivers/lvgl/src/extra/widgets/meter/lv_meter.c ****     indic->scale = scale;
 131:Drivers/lvgl/src/extra/widgets/meter/lv_meter.c ****     indic->opa = LV_OPA_COVER;
 132:Drivers/lvgl/src/extra/widgets/meter/lv_meter.c **** 
 133:Drivers/lvgl/src/extra/widgets/meter/lv_meter.c ****     indic->type = LV_METER_INDICATOR_TYPE_NEEDLE_LINE;
 134:Drivers/lvgl/src/extra/widgets/meter/lv_meter.c ****     indic->type_data.needle_line.width = width;
 135:Drivers/lvgl/src/extra/widgets/meter/lv_meter.c ****     indic->type_data.needle_line.color = color;
 136:Drivers/lvgl/src/extra/widgets/meter/lv_meter.c ****     indic->type_data.needle_line.r_mod = r_mod;
 137:Drivers/lvgl/src/extra/widgets/meter/lv_meter.c ****     lv_obj_invalidate(obj);
 138:Drivers/lvgl/src/extra/widgets/meter/lv_meter.c **** 
 139:Drivers/lvgl/src/extra/widgets/meter/lv_meter.c ****     return indic;
 140:Drivers/lvgl/src/extra/widgets/meter/lv_meter.c **** }
 141:Drivers/lvgl/src/extra/widgets/meter/lv_meter.c **** 
 142:Drivers/lvgl/src/extra/widgets/meter/lv_meter.c **** lv_meter_indicator_t * lv_meter_add_needle_img(lv_obj_t * obj, lv_meter_scale_t * scale, const void
 143:Drivers/lvgl/src/extra/widgets/meter/lv_meter.c ****                                                lv_coord_t pivot_x, lv_coord_t pivot_y)
ARM GAS  /var/folders/0z/tsy30v1j4xl4_7kw94k978ww0000gn/T//ccjxQgZI.s 			page 4


 144:Drivers/lvgl/src/extra/widgets/meter/lv_meter.c **** {
 145:Drivers/lvgl/src/extra/widgets/meter/lv_meter.c ****     LV_ASSERT_OBJ(obj, MY_CLASS);
 146:Drivers/lvgl/src/extra/widgets/meter/lv_meter.c ****     lv_meter_t * meter = (lv_meter_t *)obj;
 147:Drivers/lvgl/src/extra/widgets/meter/lv_meter.c ****     lv_meter_indicator_t * indic = _lv_ll_ins_head(&meter->indicator_ll);
 148:Drivers/lvgl/src/extra/widgets/meter/lv_meter.c ****     LV_ASSERT_MALLOC(indic);
 149:Drivers/lvgl/src/extra/widgets/meter/lv_meter.c ****     lv_memset_00(indic, sizeof(lv_meter_indicator_t));
 150:Drivers/lvgl/src/extra/widgets/meter/lv_meter.c ****     indic->scale = scale;
 151:Drivers/lvgl/src/extra/widgets/meter/lv_meter.c ****     indic->opa = LV_OPA_COVER;
 152:Drivers/lvgl/src/extra/widgets/meter/lv_meter.c **** 
 153:Drivers/lvgl/src/extra/widgets/meter/lv_meter.c ****     indic->type = LV_METER_INDICATOR_TYPE_NEEDLE_IMG;
 154:Drivers/lvgl/src/extra/widgets/meter/lv_meter.c ****     indic->type_data.needle_img.src = src;
 155:Drivers/lvgl/src/extra/widgets/meter/lv_meter.c ****     indic->type_data.needle_img.pivot.x = pivot_x;
 156:Drivers/lvgl/src/extra/widgets/meter/lv_meter.c ****     indic->type_data.needle_img.pivot.y = pivot_y;
 157:Drivers/lvgl/src/extra/widgets/meter/lv_meter.c ****     lv_obj_invalidate(obj);
 158:Drivers/lvgl/src/extra/widgets/meter/lv_meter.c **** 
 159:Drivers/lvgl/src/extra/widgets/meter/lv_meter.c ****     return indic;
 160:Drivers/lvgl/src/extra/widgets/meter/lv_meter.c **** }
 161:Drivers/lvgl/src/extra/widgets/meter/lv_meter.c **** 
 162:Drivers/lvgl/src/extra/widgets/meter/lv_meter.c **** lv_meter_indicator_t * lv_meter_add_arc(lv_obj_t * obj, lv_meter_scale_t * scale, uint16_t width, l
 163:Drivers/lvgl/src/extra/widgets/meter/lv_meter.c ****                                         int16_t r_mod)
 164:Drivers/lvgl/src/extra/widgets/meter/lv_meter.c **** {
 165:Drivers/lvgl/src/extra/widgets/meter/lv_meter.c ****     LV_ASSERT_OBJ(obj, MY_CLASS);
 166:Drivers/lvgl/src/extra/widgets/meter/lv_meter.c ****     lv_meter_t * meter = (lv_meter_t *)obj;
 167:Drivers/lvgl/src/extra/widgets/meter/lv_meter.c ****     lv_meter_indicator_t * indic = _lv_ll_ins_head(&meter->indicator_ll);
 168:Drivers/lvgl/src/extra/widgets/meter/lv_meter.c ****     LV_ASSERT_MALLOC(indic);
 169:Drivers/lvgl/src/extra/widgets/meter/lv_meter.c ****     lv_memset_00(indic, sizeof(lv_meter_indicator_t));
 170:Drivers/lvgl/src/extra/widgets/meter/lv_meter.c ****     indic->scale = scale;
 171:Drivers/lvgl/src/extra/widgets/meter/lv_meter.c ****     indic->opa = LV_OPA_COVER;
 172:Drivers/lvgl/src/extra/widgets/meter/lv_meter.c **** 
 173:Drivers/lvgl/src/extra/widgets/meter/lv_meter.c ****     indic->type = LV_METER_INDICATOR_TYPE_ARC;
 174:Drivers/lvgl/src/extra/widgets/meter/lv_meter.c ****     indic->type_data.arc.width = width;
 175:Drivers/lvgl/src/extra/widgets/meter/lv_meter.c ****     indic->type_data.arc.color = color;
 176:Drivers/lvgl/src/extra/widgets/meter/lv_meter.c ****     indic->type_data.arc.r_mod = r_mod;
 177:Drivers/lvgl/src/extra/widgets/meter/lv_meter.c **** 
 178:Drivers/lvgl/src/extra/widgets/meter/lv_meter.c ****     lv_obj_invalidate(obj);
 179:Drivers/lvgl/src/extra/widgets/meter/lv_meter.c ****     return indic;
 180:Drivers/lvgl/src/extra/widgets/meter/lv_meter.c **** }
 181:Drivers/lvgl/src/extra/widgets/meter/lv_meter.c **** 
 182:Drivers/lvgl/src/extra/widgets/meter/lv_meter.c **** lv_meter_indicator_t * lv_meter_add_scale_lines(lv_obj_t * obj, lv_meter_scale_t * scale, lv_color_
 183:Drivers/lvgl/src/extra/widgets/meter/lv_meter.c ****                                                 lv_color_t color_end, bool local, int16_t width_mod
 184:Drivers/lvgl/src/extra/widgets/meter/lv_meter.c **** {
 185:Drivers/lvgl/src/extra/widgets/meter/lv_meter.c ****     LV_ASSERT_OBJ(obj, MY_CLASS);
 186:Drivers/lvgl/src/extra/widgets/meter/lv_meter.c ****     lv_meter_t * meter = (lv_meter_t *)obj;
 187:Drivers/lvgl/src/extra/widgets/meter/lv_meter.c ****     lv_meter_indicator_t * indic = _lv_ll_ins_head(&meter->indicator_ll);
 188:Drivers/lvgl/src/extra/widgets/meter/lv_meter.c ****     LV_ASSERT_MALLOC(indic);
 189:Drivers/lvgl/src/extra/widgets/meter/lv_meter.c ****     lv_memset_00(indic, sizeof(lv_meter_indicator_t));
 190:Drivers/lvgl/src/extra/widgets/meter/lv_meter.c ****     indic->scale = scale;
 191:Drivers/lvgl/src/extra/widgets/meter/lv_meter.c ****     indic->opa = LV_OPA_COVER;
 192:Drivers/lvgl/src/extra/widgets/meter/lv_meter.c **** 
 193:Drivers/lvgl/src/extra/widgets/meter/lv_meter.c ****     indic->type = LV_METER_INDICATOR_TYPE_SCALE_LINES;
 194:Drivers/lvgl/src/extra/widgets/meter/lv_meter.c ****     indic->type_data.scale_lines.color_start = color_start;
 195:Drivers/lvgl/src/extra/widgets/meter/lv_meter.c ****     indic->type_data.scale_lines.color_end = color_end;
 196:Drivers/lvgl/src/extra/widgets/meter/lv_meter.c ****     indic->type_data.scale_lines.local_grad = local;
 197:Drivers/lvgl/src/extra/widgets/meter/lv_meter.c ****     indic->type_data.scale_lines.width_mod = width_mod;
 198:Drivers/lvgl/src/extra/widgets/meter/lv_meter.c **** 
 199:Drivers/lvgl/src/extra/widgets/meter/lv_meter.c ****     lv_obj_invalidate(obj);
 200:Drivers/lvgl/src/extra/widgets/meter/lv_meter.c ****     return indic;
ARM GAS  /var/folders/0z/tsy30v1j4xl4_7kw94k978ww0000gn/T//ccjxQgZI.s 			page 5


 201:Drivers/lvgl/src/extra/widgets/meter/lv_meter.c **** }
 202:Drivers/lvgl/src/extra/widgets/meter/lv_meter.c **** 
 203:Drivers/lvgl/src/extra/widgets/meter/lv_meter.c **** /*=====================
 204:Drivers/lvgl/src/extra/widgets/meter/lv_meter.c ****  * Set indicator value
 205:Drivers/lvgl/src/extra/widgets/meter/lv_meter.c ****  *====================*/
 206:Drivers/lvgl/src/extra/widgets/meter/lv_meter.c **** 
 207:Drivers/lvgl/src/extra/widgets/meter/lv_meter.c **** void lv_meter_set_indicator_value(lv_obj_t * obj, lv_meter_indicator_t * indic, int32_t value)
 208:Drivers/lvgl/src/extra/widgets/meter/lv_meter.c **** {
 209:Drivers/lvgl/src/extra/widgets/meter/lv_meter.c ****     int32_t old_start = indic->start_value;
 210:Drivers/lvgl/src/extra/widgets/meter/lv_meter.c ****     int32_t old_end = indic->end_value;
 211:Drivers/lvgl/src/extra/widgets/meter/lv_meter.c ****     indic->start_value = value;
 212:Drivers/lvgl/src/extra/widgets/meter/lv_meter.c ****     indic->end_value = value;
 213:Drivers/lvgl/src/extra/widgets/meter/lv_meter.c **** 
 214:Drivers/lvgl/src/extra/widgets/meter/lv_meter.c ****     if(indic->type == LV_METER_INDICATOR_TYPE_ARC) {
 215:Drivers/lvgl/src/extra/widgets/meter/lv_meter.c ****         inv_arc(obj, indic, old_start, value);
 216:Drivers/lvgl/src/extra/widgets/meter/lv_meter.c ****         inv_arc(obj, indic, old_end, value);
 217:Drivers/lvgl/src/extra/widgets/meter/lv_meter.c ****     }
 218:Drivers/lvgl/src/extra/widgets/meter/lv_meter.c ****     else if(indic->type == LV_METER_INDICATOR_TYPE_NEEDLE_IMG || indic->type == LV_METER_INDICATOR_
 219:Drivers/lvgl/src/extra/widgets/meter/lv_meter.c ****         inv_line(obj, indic, old_start);
 220:Drivers/lvgl/src/extra/widgets/meter/lv_meter.c ****         inv_line(obj, indic, old_end);
 221:Drivers/lvgl/src/extra/widgets/meter/lv_meter.c ****         inv_line(obj, indic, value);
 222:Drivers/lvgl/src/extra/widgets/meter/lv_meter.c ****     }
 223:Drivers/lvgl/src/extra/widgets/meter/lv_meter.c ****     else {
 224:Drivers/lvgl/src/extra/widgets/meter/lv_meter.c ****         lv_obj_invalidate(obj);
 225:Drivers/lvgl/src/extra/widgets/meter/lv_meter.c ****     }
 226:Drivers/lvgl/src/extra/widgets/meter/lv_meter.c **** }
 227:Drivers/lvgl/src/extra/widgets/meter/lv_meter.c **** 
 228:Drivers/lvgl/src/extra/widgets/meter/lv_meter.c **** void lv_meter_set_indicator_start_value(lv_obj_t * obj, lv_meter_indicator_t * indic, int32_t value
 229:Drivers/lvgl/src/extra/widgets/meter/lv_meter.c **** {
 230:Drivers/lvgl/src/extra/widgets/meter/lv_meter.c ****     int32_t old_value = indic->start_value;
 231:Drivers/lvgl/src/extra/widgets/meter/lv_meter.c ****     indic->start_value = value;
 232:Drivers/lvgl/src/extra/widgets/meter/lv_meter.c **** 
 233:Drivers/lvgl/src/extra/widgets/meter/lv_meter.c ****     if(indic->type == LV_METER_INDICATOR_TYPE_ARC) {
 234:Drivers/lvgl/src/extra/widgets/meter/lv_meter.c ****         inv_arc(obj, indic, old_value, value);
 235:Drivers/lvgl/src/extra/widgets/meter/lv_meter.c ****     }
 236:Drivers/lvgl/src/extra/widgets/meter/lv_meter.c ****     else if(indic->type == LV_METER_INDICATOR_TYPE_NEEDLE_IMG || indic->type == LV_METER_INDICATOR_
 237:Drivers/lvgl/src/extra/widgets/meter/lv_meter.c ****         inv_line(obj, indic, old_value);
 238:Drivers/lvgl/src/extra/widgets/meter/lv_meter.c ****         inv_line(obj, indic, value);
 239:Drivers/lvgl/src/extra/widgets/meter/lv_meter.c ****     }
 240:Drivers/lvgl/src/extra/widgets/meter/lv_meter.c ****     else {
 241:Drivers/lvgl/src/extra/widgets/meter/lv_meter.c ****         lv_obj_invalidate(obj);
 242:Drivers/lvgl/src/extra/widgets/meter/lv_meter.c ****     }
 243:Drivers/lvgl/src/extra/widgets/meter/lv_meter.c **** }
 244:Drivers/lvgl/src/extra/widgets/meter/lv_meter.c **** 
 245:Drivers/lvgl/src/extra/widgets/meter/lv_meter.c **** void lv_meter_set_indicator_end_value(lv_obj_t * obj, lv_meter_indicator_t * indic, int32_t value)
 246:Drivers/lvgl/src/extra/widgets/meter/lv_meter.c **** {
 247:Drivers/lvgl/src/extra/widgets/meter/lv_meter.c ****     int32_t old_value = indic->end_value;
 248:Drivers/lvgl/src/extra/widgets/meter/lv_meter.c ****     indic->end_value = value;
 249:Drivers/lvgl/src/extra/widgets/meter/lv_meter.c **** 
 250:Drivers/lvgl/src/extra/widgets/meter/lv_meter.c ****     if(indic->type == LV_METER_INDICATOR_TYPE_ARC) {
 251:Drivers/lvgl/src/extra/widgets/meter/lv_meter.c ****         inv_arc(obj, indic, old_value, value);
 252:Drivers/lvgl/src/extra/widgets/meter/lv_meter.c ****     }
 253:Drivers/lvgl/src/extra/widgets/meter/lv_meter.c ****     else if(indic->type == LV_METER_INDICATOR_TYPE_NEEDLE_IMG || indic->type == LV_METER_INDICATOR_
 254:Drivers/lvgl/src/extra/widgets/meter/lv_meter.c ****         inv_line(obj, indic, old_value);
 255:Drivers/lvgl/src/extra/widgets/meter/lv_meter.c ****         inv_line(obj, indic, value);
 256:Drivers/lvgl/src/extra/widgets/meter/lv_meter.c ****     }
 257:Drivers/lvgl/src/extra/widgets/meter/lv_meter.c ****     else {
ARM GAS  /var/folders/0z/tsy30v1j4xl4_7kw94k978ww0000gn/T//ccjxQgZI.s 			page 6


 258:Drivers/lvgl/src/extra/widgets/meter/lv_meter.c ****         lv_obj_invalidate(obj);
 259:Drivers/lvgl/src/extra/widgets/meter/lv_meter.c ****     }
 260:Drivers/lvgl/src/extra/widgets/meter/lv_meter.c **** }
 261:Drivers/lvgl/src/extra/widgets/meter/lv_meter.c **** 
 262:Drivers/lvgl/src/extra/widgets/meter/lv_meter.c **** /**********************
 263:Drivers/lvgl/src/extra/widgets/meter/lv_meter.c ****  *   STATIC FUNCTIONS
 264:Drivers/lvgl/src/extra/widgets/meter/lv_meter.c ****  **********************/
 265:Drivers/lvgl/src/extra/widgets/meter/lv_meter.c **** 
 266:Drivers/lvgl/src/extra/widgets/meter/lv_meter.c **** static void lv_meter_constructor(const lv_obj_class_t * class_p, lv_obj_t * obj)
 267:Drivers/lvgl/src/extra/widgets/meter/lv_meter.c **** {
 268:Drivers/lvgl/src/extra/widgets/meter/lv_meter.c ****     LV_UNUSED(class_p);
 269:Drivers/lvgl/src/extra/widgets/meter/lv_meter.c ****     LV_TRACE_OBJ_CREATE("begin");
 270:Drivers/lvgl/src/extra/widgets/meter/lv_meter.c **** 
 271:Drivers/lvgl/src/extra/widgets/meter/lv_meter.c ****     lv_meter_t * meter = (lv_meter_t *)obj;
 272:Drivers/lvgl/src/extra/widgets/meter/lv_meter.c **** 
 273:Drivers/lvgl/src/extra/widgets/meter/lv_meter.c ****     _lv_ll_init(&meter->scale_ll, sizeof(lv_meter_scale_t));
 274:Drivers/lvgl/src/extra/widgets/meter/lv_meter.c ****     _lv_ll_init(&meter->indicator_ll, sizeof(lv_meter_indicator_t));
 275:Drivers/lvgl/src/extra/widgets/meter/lv_meter.c **** 
 276:Drivers/lvgl/src/extra/widgets/meter/lv_meter.c ****     LV_TRACE_OBJ_CREATE("finished");
 277:Drivers/lvgl/src/extra/widgets/meter/lv_meter.c **** }
 278:Drivers/lvgl/src/extra/widgets/meter/lv_meter.c **** 
 279:Drivers/lvgl/src/extra/widgets/meter/lv_meter.c **** static void lv_meter_destructor(const lv_obj_class_t * class_p, lv_obj_t * obj)
 280:Drivers/lvgl/src/extra/widgets/meter/lv_meter.c **** {
  30              		.loc 1 280 1 view -0
  31              		.cfi_startproc
  32              		@ args = 0, pretend = 0, frame = 0
  33              		@ frame_needed = 0, uses_anonymous_args = 0
 281:Drivers/lvgl/src/extra/widgets/meter/lv_meter.c ****     LV_UNUSED(class_p);
  34              		.loc 1 281 5 view .LVU1
 282:Drivers/lvgl/src/extra/widgets/meter/lv_meter.c ****     LV_ASSERT_OBJ(obj, MY_CLASS);
  35              		.loc 1 282 5 view .LVU2
  36              		.loc 1 282 5 view .LVU3
  37              		.loc 1 282 5 view .LVU4
 283:Drivers/lvgl/src/extra/widgets/meter/lv_meter.c ****     lv_meter_t * meter = (lv_meter_t *)obj;
  38              		.loc 1 283 5 view .LVU5
 280:Drivers/lvgl/src/extra/widgets/meter/lv_meter.c ****     LV_UNUSED(class_p);
  39              		.loc 1 280 1 is_stmt 0 view .LVU6
  40 0000 10B5     		push	{r4, lr}
  41              		.cfi_def_cfa_offset 8
  42              		.cfi_offset 4, -8
  43              		.cfi_offset 14, -4
 284:Drivers/lvgl/src/extra/widgets/meter/lv_meter.c ****     _lv_ll_clear(&meter->indicator_ll);
  44              		.loc 1 284 5 view .LVU7
  45 0002 01F13000 		add	r0, r1, #48
  46              	.LVL1:
 280:Drivers/lvgl/src/extra/widgets/meter/lv_meter.c ****     LV_UNUSED(class_p);
  47              		.loc 1 280 1 view .LVU8
  48 0006 0C46     		mov	r4, r1
  49              	.LVL2:
  50              		.loc 1 284 5 is_stmt 1 view .LVU9
  51 0008 FFF7FEFF 		bl	_lv_ll_clear
  52              	.LVL3:
 285:Drivers/lvgl/src/extra/widgets/meter/lv_meter.c ****     _lv_ll_clear(&meter->scale_ll);
  53              		.loc 1 285 5 view .LVU10
  54 000c 04F12400 		add	r0, r4, #36
 286:Drivers/lvgl/src/extra/widgets/meter/lv_meter.c **** 
 287:Drivers/lvgl/src/extra/widgets/meter/lv_meter.c **** }
ARM GAS  /var/folders/0z/tsy30v1j4xl4_7kw94k978ww0000gn/T//ccjxQgZI.s 			page 7


  55              		.loc 1 287 1 is_stmt 0 view .LVU11
  56 0010 BDE81040 		pop	{r4, lr}
  57              		.cfi_restore 14
  58              		.cfi_restore 4
  59              		.cfi_def_cfa_offset 0
  60              	.LVL4:
 285:Drivers/lvgl/src/extra/widgets/meter/lv_meter.c ****     _lv_ll_clear(&meter->scale_ll);
  61              		.loc 1 285 5 view .LVU12
  62 0014 FFF7FEBF 		b	_lv_ll_clear
  63              	.LVL5:
 285:Drivers/lvgl/src/extra/widgets/meter/lv_meter.c ****     _lv_ll_clear(&meter->scale_ll);
  64              		.loc 1 285 5 view .LVU13
  65              		.cfi_endproc
  66              	.LFE217:
  68              		.section	.text.lv_meter_constructor,"ax",%progbits
  69              		.align	1
  70              		.p2align 2,,3
  71              		.syntax unified
  72              		.thumb
  73              		.thumb_func
  75              	lv_meter_constructor:
  76              	.LVL6:
  77              	.LFB216:
 267:Drivers/lvgl/src/extra/widgets/meter/lv_meter.c ****     LV_UNUSED(class_p);
  78              		.loc 1 267 1 is_stmt 1 view -0
  79              		.cfi_startproc
  80              		@ args = 0, pretend = 0, frame = 0
  81              		@ frame_needed = 0, uses_anonymous_args = 0
 268:Drivers/lvgl/src/extra/widgets/meter/lv_meter.c ****     LV_TRACE_OBJ_CREATE("begin");
  82              		.loc 1 268 5 view .LVU15
 269:Drivers/lvgl/src/extra/widgets/meter/lv_meter.c **** 
  83              		.loc 1 269 33 view .LVU16
 271:Drivers/lvgl/src/extra/widgets/meter/lv_meter.c **** 
  84              		.loc 1 271 5 view .LVU17
 267:Drivers/lvgl/src/extra/widgets/meter/lv_meter.c ****     LV_UNUSED(class_p);
  85              		.loc 1 267 1 is_stmt 0 view .LVU18
  86 0000 10B5     		push	{r4, lr}
  87              		.cfi_def_cfa_offset 8
  88              		.cfi_offset 4, -8
  89              		.cfi_offset 14, -4
 267:Drivers/lvgl/src/extra/widgets/meter/lv_meter.c ****     LV_UNUSED(class_p);
  90              		.loc 1 267 1 view .LVU19
  91 0002 0C46     		mov	r4, r1
  92              	.LVL7:
 273:Drivers/lvgl/src/extra/widgets/meter/lv_meter.c ****     _lv_ll_init(&meter->indicator_ll, sizeof(lv_meter_indicator_t));
  93              		.loc 1 273 5 is_stmt 1 view .LVU20
  94 0004 2421     		movs	r1, #36
  95              	.LVL8:
 273:Drivers/lvgl/src/extra/widgets/meter/lv_meter.c ****     _lv_ll_init(&meter->indicator_ll, sizeof(lv_meter_indicator_t));
  96              		.loc 1 273 5 is_stmt 0 view .LVU21
  97 0006 6018     		adds	r0, r4, r1
  98              	.LVL9:
 273:Drivers/lvgl/src/extra/widgets/meter/lv_meter.c ****     _lv_ll_init(&meter->indicator_ll, sizeof(lv_meter_indicator_t));
  99              		.loc 1 273 5 view .LVU22
 100 0008 FFF7FEFF 		bl	_lv_ll_init
 101              	.LVL10:
 274:Drivers/lvgl/src/extra/widgets/meter/lv_meter.c **** 
ARM GAS  /var/folders/0z/tsy30v1j4xl4_7kw94k978ww0000gn/T//ccjxQgZI.s 			page 8


 102              		.loc 1 274 5 is_stmt 1 view .LVU23
 103 000c 04F13000 		add	r0, r4, #48
 104 0010 1C21     		movs	r1, #28
 277:Drivers/lvgl/src/extra/widgets/meter/lv_meter.c **** 
 105              		.loc 1 277 1 is_stmt 0 view .LVU24
 106 0012 BDE81040 		pop	{r4, lr}
 107              		.cfi_restore 14
 108              		.cfi_restore 4
 109              		.cfi_def_cfa_offset 0
 110              	.LVL11:
 274:Drivers/lvgl/src/extra/widgets/meter/lv_meter.c **** 
 111              		.loc 1 274 5 view .LVU25
 112 0016 FFF7FEBF 		b	_lv_ll_init
 113              	.LVL12:
 274:Drivers/lvgl/src/extra/widgets/meter/lv_meter.c **** 
 114              		.loc 1 274 5 view .LVU26
 115              		.cfi_endproc
 116              	.LFE216:
 118 001a 00BF     		.section	.text.inv_arc,"ax",%progbits
 119              		.align	1
 120              		.p2align 2,,3
 121              		.syntax unified
 122              		.thumb
 123              		.thumb_func
 125              	inv_arc:
 126              	.LVL13:
 127              	.LFB222:
 288:Drivers/lvgl/src/extra/widgets/meter/lv_meter.c **** 
 289:Drivers/lvgl/src/extra/widgets/meter/lv_meter.c **** static void lv_meter_event(const lv_obj_class_t * class_p, lv_event_t * e)
 290:Drivers/lvgl/src/extra/widgets/meter/lv_meter.c **** {
 291:Drivers/lvgl/src/extra/widgets/meter/lv_meter.c ****     LV_UNUSED(class_p);
 292:Drivers/lvgl/src/extra/widgets/meter/lv_meter.c **** 
 293:Drivers/lvgl/src/extra/widgets/meter/lv_meter.c ****     lv_res_t res = lv_obj_event_base(MY_CLASS, e);
 294:Drivers/lvgl/src/extra/widgets/meter/lv_meter.c ****     if(res != LV_RES_OK) return;
 295:Drivers/lvgl/src/extra/widgets/meter/lv_meter.c **** 
 296:Drivers/lvgl/src/extra/widgets/meter/lv_meter.c ****     lv_event_code_t code = lv_event_get_code(e);
 297:Drivers/lvgl/src/extra/widgets/meter/lv_meter.c ****     lv_obj_t * obj = lv_event_get_target(e);
 298:Drivers/lvgl/src/extra/widgets/meter/lv_meter.c ****     if(code == LV_EVENT_DRAW_MAIN) {
 299:Drivers/lvgl/src/extra/widgets/meter/lv_meter.c ****         lv_draw_ctx_t * draw_ctx = lv_event_get_draw_ctx(e);
 300:Drivers/lvgl/src/extra/widgets/meter/lv_meter.c ****         lv_area_t scale_area;
 301:Drivers/lvgl/src/extra/widgets/meter/lv_meter.c ****         lv_obj_get_content_coords(obj, &scale_area);
 302:Drivers/lvgl/src/extra/widgets/meter/lv_meter.c **** 
 303:Drivers/lvgl/src/extra/widgets/meter/lv_meter.c ****         draw_arcs(obj, draw_ctx, &scale_area);
 304:Drivers/lvgl/src/extra/widgets/meter/lv_meter.c ****         draw_ticks_and_labels(obj, draw_ctx, &scale_area);
 305:Drivers/lvgl/src/extra/widgets/meter/lv_meter.c ****         draw_needles(obj, draw_ctx, &scale_area);
 306:Drivers/lvgl/src/extra/widgets/meter/lv_meter.c **** 
 307:Drivers/lvgl/src/extra/widgets/meter/lv_meter.c ****         lv_coord_t r_edge = lv_area_get_width(&scale_area) / 2;
 308:Drivers/lvgl/src/extra/widgets/meter/lv_meter.c ****         lv_point_t scale_center;
 309:Drivers/lvgl/src/extra/widgets/meter/lv_meter.c ****         scale_center.x = scale_area.x1 + r_edge;
 310:Drivers/lvgl/src/extra/widgets/meter/lv_meter.c ****         scale_center.y = scale_area.y1 + r_edge;
 311:Drivers/lvgl/src/extra/widgets/meter/lv_meter.c **** 
 312:Drivers/lvgl/src/extra/widgets/meter/lv_meter.c ****         lv_draw_rect_dsc_t mid_dsc;
 313:Drivers/lvgl/src/extra/widgets/meter/lv_meter.c ****         lv_draw_rect_dsc_init(&mid_dsc);
 314:Drivers/lvgl/src/extra/widgets/meter/lv_meter.c ****         lv_obj_init_draw_rect_dsc(obj, LV_PART_INDICATOR, &mid_dsc);
 315:Drivers/lvgl/src/extra/widgets/meter/lv_meter.c ****         lv_coord_t w = lv_obj_get_style_width(obj, LV_PART_INDICATOR) / 2;
 316:Drivers/lvgl/src/extra/widgets/meter/lv_meter.c ****         lv_coord_t h = lv_obj_get_style_height(obj, LV_PART_INDICATOR) / 2;
 317:Drivers/lvgl/src/extra/widgets/meter/lv_meter.c ****         lv_area_t nm_cord;
ARM GAS  /var/folders/0z/tsy30v1j4xl4_7kw94k978ww0000gn/T//ccjxQgZI.s 			page 9


 318:Drivers/lvgl/src/extra/widgets/meter/lv_meter.c ****         nm_cord.x1 = scale_center.x - w;
 319:Drivers/lvgl/src/extra/widgets/meter/lv_meter.c ****         nm_cord.y1 = scale_center.y - h;
 320:Drivers/lvgl/src/extra/widgets/meter/lv_meter.c ****         nm_cord.x2 = scale_center.x + w;
 321:Drivers/lvgl/src/extra/widgets/meter/lv_meter.c ****         nm_cord.y2 = scale_center.y + h;
 322:Drivers/lvgl/src/extra/widgets/meter/lv_meter.c ****         lv_draw_rect(draw_ctx, &mid_dsc, &nm_cord);
 323:Drivers/lvgl/src/extra/widgets/meter/lv_meter.c ****     }
 324:Drivers/lvgl/src/extra/widgets/meter/lv_meter.c **** }
 325:Drivers/lvgl/src/extra/widgets/meter/lv_meter.c **** 
 326:Drivers/lvgl/src/extra/widgets/meter/lv_meter.c **** static void draw_arcs(lv_obj_t * obj, lv_draw_ctx_t * draw_ctx, const lv_area_t * scale_area)
 327:Drivers/lvgl/src/extra/widgets/meter/lv_meter.c **** {
 328:Drivers/lvgl/src/extra/widgets/meter/lv_meter.c ****     lv_meter_t * meter = (lv_meter_t *)obj;
 329:Drivers/lvgl/src/extra/widgets/meter/lv_meter.c **** 
 330:Drivers/lvgl/src/extra/widgets/meter/lv_meter.c ****     lv_draw_arc_dsc_t arc_dsc;
 331:Drivers/lvgl/src/extra/widgets/meter/lv_meter.c ****     lv_draw_arc_dsc_init(&arc_dsc);
 332:Drivers/lvgl/src/extra/widgets/meter/lv_meter.c ****     arc_dsc.rounded = lv_obj_get_style_arc_rounded(obj, LV_PART_ITEMS);
 333:Drivers/lvgl/src/extra/widgets/meter/lv_meter.c **** 
 334:Drivers/lvgl/src/extra/widgets/meter/lv_meter.c ****     lv_coord_t r_out = lv_area_get_width(scale_area) / 2 ;
 335:Drivers/lvgl/src/extra/widgets/meter/lv_meter.c ****     lv_point_t scale_center;
 336:Drivers/lvgl/src/extra/widgets/meter/lv_meter.c ****     scale_center.x = scale_area->x1 + r_out;
 337:Drivers/lvgl/src/extra/widgets/meter/lv_meter.c ****     scale_center.y = scale_area->y1 + r_out;
 338:Drivers/lvgl/src/extra/widgets/meter/lv_meter.c **** 
 339:Drivers/lvgl/src/extra/widgets/meter/lv_meter.c ****     lv_opa_t opa_main = lv_obj_get_style_opa_recursive(obj, LV_PART_MAIN);
 340:Drivers/lvgl/src/extra/widgets/meter/lv_meter.c ****     lv_meter_indicator_t * indic;
 341:Drivers/lvgl/src/extra/widgets/meter/lv_meter.c **** 
 342:Drivers/lvgl/src/extra/widgets/meter/lv_meter.c ****     lv_obj_draw_part_dsc_t part_draw_dsc;
 343:Drivers/lvgl/src/extra/widgets/meter/lv_meter.c ****     lv_obj_draw_dsc_init(&part_draw_dsc, draw_ctx);
 344:Drivers/lvgl/src/extra/widgets/meter/lv_meter.c ****     part_draw_dsc.arc_dsc = &arc_dsc;
 345:Drivers/lvgl/src/extra/widgets/meter/lv_meter.c ****     part_draw_dsc.part = LV_PART_INDICATOR;
 346:Drivers/lvgl/src/extra/widgets/meter/lv_meter.c ****     part_draw_dsc.class_p = MY_CLASS;
 347:Drivers/lvgl/src/extra/widgets/meter/lv_meter.c ****     part_draw_dsc.type = LV_METER_DRAW_PART_ARC;
 348:Drivers/lvgl/src/extra/widgets/meter/lv_meter.c **** 
 349:Drivers/lvgl/src/extra/widgets/meter/lv_meter.c ****     _LV_LL_READ_BACK(&meter->indicator_ll, indic) {
 350:Drivers/lvgl/src/extra/widgets/meter/lv_meter.c ****         if(indic->type != LV_METER_INDICATOR_TYPE_ARC) continue;
 351:Drivers/lvgl/src/extra/widgets/meter/lv_meter.c **** 
 352:Drivers/lvgl/src/extra/widgets/meter/lv_meter.c ****         arc_dsc.color = indic->type_data.arc.color;
 353:Drivers/lvgl/src/extra/widgets/meter/lv_meter.c ****         arc_dsc.width = indic->type_data.arc.width;
 354:Drivers/lvgl/src/extra/widgets/meter/lv_meter.c ****         arc_dsc.opa = indic->opa > LV_OPA_MAX ? opa_main : (opa_main * indic->opa) >> 8;
 355:Drivers/lvgl/src/extra/widgets/meter/lv_meter.c **** 
 356:Drivers/lvgl/src/extra/widgets/meter/lv_meter.c ****         lv_meter_scale_t * scale = indic->scale;
 357:Drivers/lvgl/src/extra/widgets/meter/lv_meter.c **** 
 358:Drivers/lvgl/src/extra/widgets/meter/lv_meter.c ****         int32_t start_angle = lv_map(indic->start_value, scale->min, scale->max, scale->rotation,
 359:Drivers/lvgl/src/extra/widgets/meter/lv_meter.c ****                                      scale->rotation + scale->angle_range);
 360:Drivers/lvgl/src/extra/widgets/meter/lv_meter.c ****         int32_t end_angle = lv_map(indic->end_value, scale->min, scale->max, scale->rotation,
 361:Drivers/lvgl/src/extra/widgets/meter/lv_meter.c ****                                    scale->rotation + scale->angle_range);
 362:Drivers/lvgl/src/extra/widgets/meter/lv_meter.c **** 
 363:Drivers/lvgl/src/extra/widgets/meter/lv_meter.c ****         arc_dsc.start_angle = start_angle;
 364:Drivers/lvgl/src/extra/widgets/meter/lv_meter.c ****         arc_dsc.end_angle = end_angle;
 365:Drivers/lvgl/src/extra/widgets/meter/lv_meter.c ****         part_draw_dsc.radius = r_out + indic->type_data.arc.r_mod;
 366:Drivers/lvgl/src/extra/widgets/meter/lv_meter.c ****         part_draw_dsc.sub_part_ptr = indic;
 367:Drivers/lvgl/src/extra/widgets/meter/lv_meter.c ****         part_draw_dsc.p1 = &scale_center;
 368:Drivers/lvgl/src/extra/widgets/meter/lv_meter.c **** 
 369:Drivers/lvgl/src/extra/widgets/meter/lv_meter.c ****         lv_event_send(obj, LV_EVENT_DRAW_PART_BEGIN, &part_draw_dsc);
 370:Drivers/lvgl/src/extra/widgets/meter/lv_meter.c ****         lv_draw_arc(draw_ctx, &arc_dsc, &scale_center, part_draw_dsc.radius, start_angle, end_angle
 371:Drivers/lvgl/src/extra/widgets/meter/lv_meter.c ****         lv_event_send(obj, LV_EVENT_DRAW_PART_END, &part_draw_dsc);
 372:Drivers/lvgl/src/extra/widgets/meter/lv_meter.c ****     }
 373:Drivers/lvgl/src/extra/widgets/meter/lv_meter.c **** }
 374:Drivers/lvgl/src/extra/widgets/meter/lv_meter.c **** 
ARM GAS  /var/folders/0z/tsy30v1j4xl4_7kw94k978ww0000gn/T//ccjxQgZI.s 			page 10


 375:Drivers/lvgl/src/extra/widgets/meter/lv_meter.c **** static void draw_ticks_and_labels(lv_obj_t * obj, lv_draw_ctx_t * draw_ctx, const lv_area_t * scale
 376:Drivers/lvgl/src/extra/widgets/meter/lv_meter.c **** {
 377:Drivers/lvgl/src/extra/widgets/meter/lv_meter.c ****     lv_meter_t * meter    = (lv_meter_t *)obj;
 378:Drivers/lvgl/src/extra/widgets/meter/lv_meter.c **** 
 379:Drivers/lvgl/src/extra/widgets/meter/lv_meter.c ****     lv_point_t p_center;
 380:Drivers/lvgl/src/extra/widgets/meter/lv_meter.c ****     lv_coord_t r_edge = LV_MIN(lv_area_get_width(scale_area) / 2, lv_area_get_height(scale_area) / 
 381:Drivers/lvgl/src/extra/widgets/meter/lv_meter.c ****     p_center.x = scale_area->x1 + r_edge;
 382:Drivers/lvgl/src/extra/widgets/meter/lv_meter.c ****     p_center.y = scale_area->y1 + r_edge;
 383:Drivers/lvgl/src/extra/widgets/meter/lv_meter.c **** 
 384:Drivers/lvgl/src/extra/widgets/meter/lv_meter.c ****     lv_draw_line_dsc_t line_dsc;
 385:Drivers/lvgl/src/extra/widgets/meter/lv_meter.c ****     lv_draw_line_dsc_init(&line_dsc);
 386:Drivers/lvgl/src/extra/widgets/meter/lv_meter.c ****     lv_obj_init_draw_line_dsc(obj, LV_PART_TICKS, &line_dsc);
 387:Drivers/lvgl/src/extra/widgets/meter/lv_meter.c ****     line_dsc.raw_end = 1;
 388:Drivers/lvgl/src/extra/widgets/meter/lv_meter.c **** 
 389:Drivers/lvgl/src/extra/widgets/meter/lv_meter.c ****     lv_draw_label_dsc_t label_dsc;
 390:Drivers/lvgl/src/extra/widgets/meter/lv_meter.c ****     lv_draw_label_dsc_init(&label_dsc);
 391:Drivers/lvgl/src/extra/widgets/meter/lv_meter.c ****     lv_obj_init_draw_label_dsc(obj, LV_PART_TICKS, &label_dsc);
 392:Drivers/lvgl/src/extra/widgets/meter/lv_meter.c **** 
 393:Drivers/lvgl/src/extra/widgets/meter/lv_meter.c ****     lv_meter_scale_t * scale;
 394:Drivers/lvgl/src/extra/widgets/meter/lv_meter.c **** 
 395:Drivers/lvgl/src/extra/widgets/meter/lv_meter.c ****     lv_draw_mask_radius_param_t inner_minor_mask;
 396:Drivers/lvgl/src/extra/widgets/meter/lv_meter.c ****     lv_draw_mask_radius_param_t inner_major_mask;
 397:Drivers/lvgl/src/extra/widgets/meter/lv_meter.c ****     lv_draw_mask_radius_param_t outer_mask;
 398:Drivers/lvgl/src/extra/widgets/meter/lv_meter.c **** 
 399:Drivers/lvgl/src/extra/widgets/meter/lv_meter.c ****     lv_obj_draw_part_dsc_t part_draw_dsc;
 400:Drivers/lvgl/src/extra/widgets/meter/lv_meter.c ****     lv_obj_draw_dsc_init(&part_draw_dsc, draw_ctx);
 401:Drivers/lvgl/src/extra/widgets/meter/lv_meter.c ****     part_draw_dsc.class_p = MY_CLASS;
 402:Drivers/lvgl/src/extra/widgets/meter/lv_meter.c ****     part_draw_dsc.part = LV_PART_TICKS;
 403:Drivers/lvgl/src/extra/widgets/meter/lv_meter.c ****     part_draw_dsc.type = LV_METER_DRAW_PART_TICK;
 404:Drivers/lvgl/src/extra/widgets/meter/lv_meter.c ****     part_draw_dsc.line_dsc = &line_dsc;
 405:Drivers/lvgl/src/extra/widgets/meter/lv_meter.c **** 
 406:Drivers/lvgl/src/extra/widgets/meter/lv_meter.c ****     _LV_LL_READ_BACK(&meter->scale_ll, scale) {
 407:Drivers/lvgl/src/extra/widgets/meter/lv_meter.c ****         part_draw_dsc.sub_part_ptr = scale;
 408:Drivers/lvgl/src/extra/widgets/meter/lv_meter.c **** 
 409:Drivers/lvgl/src/extra/widgets/meter/lv_meter.c ****         lv_coord_t r_out = r_edge;
 410:Drivers/lvgl/src/extra/widgets/meter/lv_meter.c ****         lv_coord_t r_in_minor = r_out - scale->tick_length;
 411:Drivers/lvgl/src/extra/widgets/meter/lv_meter.c ****         lv_coord_t r_in_major = r_out - scale->tick_major_length;
 412:Drivers/lvgl/src/extra/widgets/meter/lv_meter.c **** 
 413:Drivers/lvgl/src/extra/widgets/meter/lv_meter.c ****         lv_area_t area_inner_minor;
 414:Drivers/lvgl/src/extra/widgets/meter/lv_meter.c ****         area_inner_minor.x1 = p_center.x - r_in_minor;
 415:Drivers/lvgl/src/extra/widgets/meter/lv_meter.c ****         area_inner_minor.y1 = p_center.y - r_in_minor;
 416:Drivers/lvgl/src/extra/widgets/meter/lv_meter.c ****         area_inner_minor.x2 = p_center.x + r_in_minor;
 417:Drivers/lvgl/src/extra/widgets/meter/lv_meter.c ****         area_inner_minor.y2 = p_center.y + r_in_minor;
 418:Drivers/lvgl/src/extra/widgets/meter/lv_meter.c ****         lv_draw_mask_radius_init(&inner_minor_mask, &area_inner_minor, LV_RADIUS_CIRCLE, true);
 419:Drivers/lvgl/src/extra/widgets/meter/lv_meter.c **** 
 420:Drivers/lvgl/src/extra/widgets/meter/lv_meter.c ****         lv_area_t area_inner_major;
 421:Drivers/lvgl/src/extra/widgets/meter/lv_meter.c ****         area_inner_major.x1 = p_center.x - r_in_major;
 422:Drivers/lvgl/src/extra/widgets/meter/lv_meter.c ****         area_inner_major.y1 = p_center.y - r_in_major;
 423:Drivers/lvgl/src/extra/widgets/meter/lv_meter.c ****         area_inner_major.x2 = p_center.x + r_in_major - 1;
 424:Drivers/lvgl/src/extra/widgets/meter/lv_meter.c ****         area_inner_major.y2 = p_center.y + r_in_major - 1;
 425:Drivers/lvgl/src/extra/widgets/meter/lv_meter.c ****         lv_draw_mask_radius_init(&inner_major_mask, &area_inner_major, LV_RADIUS_CIRCLE, true);
 426:Drivers/lvgl/src/extra/widgets/meter/lv_meter.c **** 
 427:Drivers/lvgl/src/extra/widgets/meter/lv_meter.c ****         lv_area_t area_outer;
 428:Drivers/lvgl/src/extra/widgets/meter/lv_meter.c ****         area_outer.x1 = p_center.x - r_out;
 429:Drivers/lvgl/src/extra/widgets/meter/lv_meter.c ****         area_outer.y1 = p_center.y - r_out;
 430:Drivers/lvgl/src/extra/widgets/meter/lv_meter.c ****         area_outer.x2 = p_center.x + r_out - 1;
 431:Drivers/lvgl/src/extra/widgets/meter/lv_meter.c ****         area_outer.y2 = p_center.y + r_out - 1;
ARM GAS  /var/folders/0z/tsy30v1j4xl4_7kw94k978ww0000gn/T//ccjxQgZI.s 			page 11


 432:Drivers/lvgl/src/extra/widgets/meter/lv_meter.c ****         lv_draw_mask_radius_init(&outer_mask, &area_outer, LV_RADIUS_CIRCLE, false);
 433:Drivers/lvgl/src/extra/widgets/meter/lv_meter.c ****         int16_t outer_mask_id = lv_draw_mask_add(&outer_mask, NULL);
 434:Drivers/lvgl/src/extra/widgets/meter/lv_meter.c **** 
 435:Drivers/lvgl/src/extra/widgets/meter/lv_meter.c ****         int16_t inner_act_mask_id = LV_MASK_ID_INV; /*Will be added later*/
 436:Drivers/lvgl/src/extra/widgets/meter/lv_meter.c **** 
 437:Drivers/lvgl/src/extra/widgets/meter/lv_meter.c ****         uint32_t minor_cnt = scale->tick_major_nth ? scale->tick_major_nth - 1 : 0xFFFF;
 438:Drivers/lvgl/src/extra/widgets/meter/lv_meter.c ****         uint16_t i;
 439:Drivers/lvgl/src/extra/widgets/meter/lv_meter.c ****         for(i = 0; i < scale->tick_cnt; i++) {
 440:Drivers/lvgl/src/extra/widgets/meter/lv_meter.c ****             minor_cnt++;
 441:Drivers/lvgl/src/extra/widgets/meter/lv_meter.c ****             bool major = false;
 442:Drivers/lvgl/src/extra/widgets/meter/lv_meter.c ****             if(minor_cnt == scale->tick_major_nth) {
 443:Drivers/lvgl/src/extra/widgets/meter/lv_meter.c ****                 minor_cnt = 0;
 444:Drivers/lvgl/src/extra/widgets/meter/lv_meter.c ****                 major = true;
 445:Drivers/lvgl/src/extra/widgets/meter/lv_meter.c ****             }
 446:Drivers/lvgl/src/extra/widgets/meter/lv_meter.c **** 
 447:Drivers/lvgl/src/extra/widgets/meter/lv_meter.c ****             int32_t value_of_line = lv_map(i, 0, scale->tick_cnt - 1, scale->min, scale->max);
 448:Drivers/lvgl/src/extra/widgets/meter/lv_meter.c ****             part_draw_dsc.value = value_of_line;
 449:Drivers/lvgl/src/extra/widgets/meter/lv_meter.c **** 
 450:Drivers/lvgl/src/extra/widgets/meter/lv_meter.c ****             lv_color_t line_color = major ? scale->tick_major_color : scale->tick_color;
 451:Drivers/lvgl/src/extra/widgets/meter/lv_meter.c ****             lv_color_t line_color_ori = line_color;
 452:Drivers/lvgl/src/extra/widgets/meter/lv_meter.c **** 
 453:Drivers/lvgl/src/extra/widgets/meter/lv_meter.c ****             lv_coord_t line_width_ori = major ? scale->tick_major_width : scale->tick_width;
 454:Drivers/lvgl/src/extra/widgets/meter/lv_meter.c ****             lv_coord_t line_width = line_width_ori;
 455:Drivers/lvgl/src/extra/widgets/meter/lv_meter.c **** 
 456:Drivers/lvgl/src/extra/widgets/meter/lv_meter.c ****             lv_meter_indicator_t * indic;
 457:Drivers/lvgl/src/extra/widgets/meter/lv_meter.c ****             _LV_LL_READ_BACK(&meter->indicator_ll, indic) {
 458:Drivers/lvgl/src/extra/widgets/meter/lv_meter.c ****                 if(indic->type != LV_METER_INDICATOR_TYPE_SCALE_LINES) continue;
 459:Drivers/lvgl/src/extra/widgets/meter/lv_meter.c ****                 if(value_of_line >= indic->start_value && value_of_line <= indic->end_value) {
 460:Drivers/lvgl/src/extra/widgets/meter/lv_meter.c ****                     line_width += indic->type_data.scale_lines.width_mod;
 461:Drivers/lvgl/src/extra/widgets/meter/lv_meter.c **** 
 462:Drivers/lvgl/src/extra/widgets/meter/lv_meter.c ****                     if(indic->type_data.scale_lines.color_start.full == indic->type_data.scale_line
 463:Drivers/lvgl/src/extra/widgets/meter/lv_meter.c ****                         line_color = indic->type_data.scale_lines.color_start;
 464:Drivers/lvgl/src/extra/widgets/meter/lv_meter.c ****                     }
 465:Drivers/lvgl/src/extra/widgets/meter/lv_meter.c ****                     else {
 466:Drivers/lvgl/src/extra/widgets/meter/lv_meter.c ****                         lv_opa_t ratio;
 467:Drivers/lvgl/src/extra/widgets/meter/lv_meter.c ****                         if(indic->type_data.scale_lines.local_grad) {
 468:Drivers/lvgl/src/extra/widgets/meter/lv_meter.c ****                             ratio = lv_map(value_of_line, indic->start_value, indic->end_value, LV_
 469:Drivers/lvgl/src/extra/widgets/meter/lv_meter.c ****                         }
 470:Drivers/lvgl/src/extra/widgets/meter/lv_meter.c ****                         else {
 471:Drivers/lvgl/src/extra/widgets/meter/lv_meter.c ****                             ratio = lv_map(value_of_line, scale->min, scale->max, LV_OPA_TRANSP, LV
 472:Drivers/lvgl/src/extra/widgets/meter/lv_meter.c ****                         }
 473:Drivers/lvgl/src/extra/widgets/meter/lv_meter.c ****                         line_color = lv_color_mix(indic->type_data.scale_lines.color_end, indic->ty
 474:Drivers/lvgl/src/extra/widgets/meter/lv_meter.c ****                     }
 475:Drivers/lvgl/src/extra/widgets/meter/lv_meter.c ****                 }
 476:Drivers/lvgl/src/extra/widgets/meter/lv_meter.c ****             }
 477:Drivers/lvgl/src/extra/widgets/meter/lv_meter.c **** 
 478:Drivers/lvgl/src/extra/widgets/meter/lv_meter.c ****             int32_t angle_upscale = ((i * scale->angle_range) * 10) / (scale->tick_cnt - 1) +  + sc
 479:Drivers/lvgl/src/extra/widgets/meter/lv_meter.c **** 
 480:Drivers/lvgl/src/extra/widgets/meter/lv_meter.c ****             line_dsc.color = line_color;
 481:Drivers/lvgl/src/extra/widgets/meter/lv_meter.c ****             line_dsc.width = line_width;
 482:Drivers/lvgl/src/extra/widgets/meter/lv_meter.c **** 
 483:Drivers/lvgl/src/extra/widgets/meter/lv_meter.c ****             /*Draw a little bit longer lines to be sure the mask will clip them correctly
 484:Drivers/lvgl/src/extra/widgets/meter/lv_meter.c ****              *and to get a better precision*/
 485:Drivers/lvgl/src/extra/widgets/meter/lv_meter.c ****             lv_point_t p_outer;
 486:Drivers/lvgl/src/extra/widgets/meter/lv_meter.c ****             p_outer.x = p_center.x + r_out + LV_MAX(LV_DPI_DEF, r_out);
 487:Drivers/lvgl/src/extra/widgets/meter/lv_meter.c ****             p_outer.y = p_center.y;
 488:Drivers/lvgl/src/extra/widgets/meter/lv_meter.c ****             lv_point_transform(&p_outer, angle_upscale, 256, &p_center);
ARM GAS  /var/folders/0z/tsy30v1j4xl4_7kw94k978ww0000gn/T//ccjxQgZI.s 			page 12


 489:Drivers/lvgl/src/extra/widgets/meter/lv_meter.c **** 
 490:Drivers/lvgl/src/extra/widgets/meter/lv_meter.c ****             part_draw_dsc.p1 = &p_center;
 491:Drivers/lvgl/src/extra/widgets/meter/lv_meter.c ****             part_draw_dsc.p2 = &p_outer;
 492:Drivers/lvgl/src/extra/widgets/meter/lv_meter.c ****             part_draw_dsc.id = i;
 493:Drivers/lvgl/src/extra/widgets/meter/lv_meter.c ****             part_draw_dsc.label_dsc = &label_dsc;
 494:Drivers/lvgl/src/extra/widgets/meter/lv_meter.c **** 
 495:Drivers/lvgl/src/extra/widgets/meter/lv_meter.c ****             /*Draw the text*/
 496:Drivers/lvgl/src/extra/widgets/meter/lv_meter.c ****             if(major) {
 497:Drivers/lvgl/src/extra/widgets/meter/lv_meter.c ****                 lv_draw_mask_remove_id(outer_mask_id);
 498:Drivers/lvgl/src/extra/widgets/meter/lv_meter.c ****                 uint32_t r_text = r_in_major - scale->label_gap;
 499:Drivers/lvgl/src/extra/widgets/meter/lv_meter.c ****                 lv_point_t p;
 500:Drivers/lvgl/src/extra/widgets/meter/lv_meter.c ****                 p.x = p_center.x + r_text;
 501:Drivers/lvgl/src/extra/widgets/meter/lv_meter.c ****                 p.y = p_center.y;
 502:Drivers/lvgl/src/extra/widgets/meter/lv_meter.c ****                 lv_point_transform(&p, angle_upscale, 256, &p_center);
 503:Drivers/lvgl/src/extra/widgets/meter/lv_meter.c **** 
 504:Drivers/lvgl/src/extra/widgets/meter/lv_meter.c ****                 lv_draw_label_dsc_t label_dsc_tmp;
 505:Drivers/lvgl/src/extra/widgets/meter/lv_meter.c ****                 lv_memcpy(&label_dsc_tmp, &label_dsc, sizeof(label_dsc_tmp));
 506:Drivers/lvgl/src/extra/widgets/meter/lv_meter.c **** 
 507:Drivers/lvgl/src/extra/widgets/meter/lv_meter.c ****                 part_draw_dsc.label_dsc = &label_dsc_tmp;
 508:Drivers/lvgl/src/extra/widgets/meter/lv_meter.c ****                 char buf[16];
 509:Drivers/lvgl/src/extra/widgets/meter/lv_meter.c **** 
 510:Drivers/lvgl/src/extra/widgets/meter/lv_meter.c ****                 lv_snprintf(buf, sizeof(buf), "%" LV_PRId32, value_of_line);
 511:Drivers/lvgl/src/extra/widgets/meter/lv_meter.c ****                 part_draw_dsc.text = buf;
 512:Drivers/lvgl/src/extra/widgets/meter/lv_meter.c **** 
 513:Drivers/lvgl/src/extra/widgets/meter/lv_meter.c ****                 lv_event_send(obj, LV_EVENT_DRAW_PART_BEGIN, &part_draw_dsc);
 514:Drivers/lvgl/src/extra/widgets/meter/lv_meter.c **** 
 515:Drivers/lvgl/src/extra/widgets/meter/lv_meter.c ****                 lv_point_t label_size;
 516:Drivers/lvgl/src/extra/widgets/meter/lv_meter.c ****                 lv_txt_get_size(&label_size, part_draw_dsc.text, label_dsc_tmp.font, label_dsc_tmp.
 517:Drivers/lvgl/src/extra/widgets/meter/lv_meter.c ****                                 label_dsc_tmp.line_space,
 518:Drivers/lvgl/src/extra/widgets/meter/lv_meter.c ****                                 LV_COORD_MAX, LV_TEXT_FLAG_NONE);
 519:Drivers/lvgl/src/extra/widgets/meter/lv_meter.c **** 
 520:Drivers/lvgl/src/extra/widgets/meter/lv_meter.c ****                 lv_area_t label_cord;
 521:Drivers/lvgl/src/extra/widgets/meter/lv_meter.c ****                 label_cord.x1 = p.x - label_size.x / 2;
 522:Drivers/lvgl/src/extra/widgets/meter/lv_meter.c ****                 label_cord.y1 = p.y - label_size.y / 2;
 523:Drivers/lvgl/src/extra/widgets/meter/lv_meter.c ****                 label_cord.x2 = label_cord.x1 + label_size.x;
 524:Drivers/lvgl/src/extra/widgets/meter/lv_meter.c ****                 label_cord.y2 = label_cord.y1 + label_size.y;
 525:Drivers/lvgl/src/extra/widgets/meter/lv_meter.c **** 
 526:Drivers/lvgl/src/extra/widgets/meter/lv_meter.c ****                 lv_draw_label(draw_ctx, part_draw_dsc.label_dsc, &label_cord, part_draw_dsc.text, N
 527:Drivers/lvgl/src/extra/widgets/meter/lv_meter.c **** 
 528:Drivers/lvgl/src/extra/widgets/meter/lv_meter.c ****                 outer_mask_id = lv_draw_mask_add(&outer_mask, NULL);
 529:Drivers/lvgl/src/extra/widgets/meter/lv_meter.c ****             }
 530:Drivers/lvgl/src/extra/widgets/meter/lv_meter.c ****             else {
 531:Drivers/lvgl/src/extra/widgets/meter/lv_meter.c ****                 part_draw_dsc.label_dsc = NULL;
 532:Drivers/lvgl/src/extra/widgets/meter/lv_meter.c ****                 part_draw_dsc.text = NULL;
 533:Drivers/lvgl/src/extra/widgets/meter/lv_meter.c ****                 lv_event_send(obj, LV_EVENT_DRAW_PART_BEGIN, &part_draw_dsc);
 534:Drivers/lvgl/src/extra/widgets/meter/lv_meter.c ****             }
 535:Drivers/lvgl/src/extra/widgets/meter/lv_meter.c **** 
 536:Drivers/lvgl/src/extra/widgets/meter/lv_meter.c ****             inner_act_mask_id = lv_draw_mask_add(major ? &inner_major_mask : &inner_minor_mask, NUL
 537:Drivers/lvgl/src/extra/widgets/meter/lv_meter.c ****             lv_draw_line(draw_ctx, &line_dsc, &p_outer, &p_center);
 538:Drivers/lvgl/src/extra/widgets/meter/lv_meter.c ****             lv_draw_mask_remove_id(inner_act_mask_id);
 539:Drivers/lvgl/src/extra/widgets/meter/lv_meter.c ****             lv_event_send(obj, LV_EVENT_DRAW_MAIN_END, &part_draw_dsc);
 540:Drivers/lvgl/src/extra/widgets/meter/lv_meter.c **** 
 541:Drivers/lvgl/src/extra/widgets/meter/lv_meter.c ****             line_dsc.color = line_color_ori;
 542:Drivers/lvgl/src/extra/widgets/meter/lv_meter.c ****             line_dsc.width = line_width_ori;
 543:Drivers/lvgl/src/extra/widgets/meter/lv_meter.c **** 
 544:Drivers/lvgl/src/extra/widgets/meter/lv_meter.c ****         }
 545:Drivers/lvgl/src/extra/widgets/meter/lv_meter.c ****         lv_draw_mask_free_param(&inner_minor_mask);
ARM GAS  /var/folders/0z/tsy30v1j4xl4_7kw94k978ww0000gn/T//ccjxQgZI.s 			page 13


 546:Drivers/lvgl/src/extra/widgets/meter/lv_meter.c ****         lv_draw_mask_free_param(&inner_major_mask);
 547:Drivers/lvgl/src/extra/widgets/meter/lv_meter.c ****         lv_draw_mask_free_param(&outer_mask);
 548:Drivers/lvgl/src/extra/widgets/meter/lv_meter.c ****         lv_draw_mask_remove_id(outer_mask_id);
 549:Drivers/lvgl/src/extra/widgets/meter/lv_meter.c ****     }
 550:Drivers/lvgl/src/extra/widgets/meter/lv_meter.c **** }
 551:Drivers/lvgl/src/extra/widgets/meter/lv_meter.c **** 
 552:Drivers/lvgl/src/extra/widgets/meter/lv_meter.c **** 
 553:Drivers/lvgl/src/extra/widgets/meter/lv_meter.c **** static void draw_needles(lv_obj_t * obj, lv_draw_ctx_t * draw_ctx, const lv_area_t * scale_area)
 554:Drivers/lvgl/src/extra/widgets/meter/lv_meter.c **** {
 555:Drivers/lvgl/src/extra/widgets/meter/lv_meter.c ****     lv_meter_t * meter = (lv_meter_t *)obj;
 556:Drivers/lvgl/src/extra/widgets/meter/lv_meter.c **** 
 557:Drivers/lvgl/src/extra/widgets/meter/lv_meter.c ****     lv_coord_t r_edge = lv_area_get_width(scale_area) / 2;
 558:Drivers/lvgl/src/extra/widgets/meter/lv_meter.c ****     lv_point_t scale_center;
 559:Drivers/lvgl/src/extra/widgets/meter/lv_meter.c ****     scale_center.x = scale_area->x1 + r_edge;
 560:Drivers/lvgl/src/extra/widgets/meter/lv_meter.c ****     scale_center.y = scale_area->y1 + r_edge;
 561:Drivers/lvgl/src/extra/widgets/meter/lv_meter.c **** 
 562:Drivers/lvgl/src/extra/widgets/meter/lv_meter.c ****     lv_draw_line_dsc_t line_dsc;
 563:Drivers/lvgl/src/extra/widgets/meter/lv_meter.c ****     lv_draw_line_dsc_init(&line_dsc);
 564:Drivers/lvgl/src/extra/widgets/meter/lv_meter.c ****     lv_obj_init_draw_line_dsc(obj, LV_PART_ITEMS, &line_dsc);
 565:Drivers/lvgl/src/extra/widgets/meter/lv_meter.c **** 
 566:Drivers/lvgl/src/extra/widgets/meter/lv_meter.c ****     lv_draw_img_dsc_t img_dsc;
 567:Drivers/lvgl/src/extra/widgets/meter/lv_meter.c ****     lv_draw_img_dsc_init(&img_dsc);
 568:Drivers/lvgl/src/extra/widgets/meter/lv_meter.c ****     lv_obj_init_draw_img_dsc(obj, LV_PART_ITEMS, &img_dsc);
 569:Drivers/lvgl/src/extra/widgets/meter/lv_meter.c ****     lv_opa_t opa_main = lv_obj_get_style_opa_recursive(obj, LV_PART_MAIN);
 570:Drivers/lvgl/src/extra/widgets/meter/lv_meter.c **** 
 571:Drivers/lvgl/src/extra/widgets/meter/lv_meter.c ****     lv_obj_draw_part_dsc_t part_draw_dsc;
 572:Drivers/lvgl/src/extra/widgets/meter/lv_meter.c ****     lv_obj_draw_dsc_init(&part_draw_dsc, draw_ctx);
 573:Drivers/lvgl/src/extra/widgets/meter/lv_meter.c ****     part_draw_dsc.class_p = MY_CLASS;
 574:Drivers/lvgl/src/extra/widgets/meter/lv_meter.c ****     part_draw_dsc.p1 = &scale_center;
 575:Drivers/lvgl/src/extra/widgets/meter/lv_meter.c ****     part_draw_dsc.part = LV_PART_INDICATOR;
 576:Drivers/lvgl/src/extra/widgets/meter/lv_meter.c **** 
 577:Drivers/lvgl/src/extra/widgets/meter/lv_meter.c ****     lv_meter_indicator_t * indic;
 578:Drivers/lvgl/src/extra/widgets/meter/lv_meter.c ****     _LV_LL_READ_BACK(&meter->indicator_ll, indic) {
 579:Drivers/lvgl/src/extra/widgets/meter/lv_meter.c ****         lv_meter_scale_t * scale = indic->scale;
 580:Drivers/lvgl/src/extra/widgets/meter/lv_meter.c ****         part_draw_dsc.sub_part_ptr = indic;
 581:Drivers/lvgl/src/extra/widgets/meter/lv_meter.c **** 
 582:Drivers/lvgl/src/extra/widgets/meter/lv_meter.c ****         if(indic->type == LV_METER_INDICATOR_TYPE_NEEDLE_LINE) {
 583:Drivers/lvgl/src/extra/widgets/meter/lv_meter.c ****             int32_t angle = lv_map(indic->end_value, scale->min, scale->max, scale->rotation, scale
 584:Drivers/lvgl/src/extra/widgets/meter/lv_meter.c ****             lv_coord_t r_out = r_edge + scale->r_mod + indic->type_data.needle_line.r_mod;
 585:Drivers/lvgl/src/extra/widgets/meter/lv_meter.c ****             lv_point_t p_end;
 586:Drivers/lvgl/src/extra/widgets/meter/lv_meter.c ****             p_end.y = (lv_trigo_sin(angle) * (r_out)) / LV_TRIGO_SIN_MAX + scale_center.y;
 587:Drivers/lvgl/src/extra/widgets/meter/lv_meter.c ****             p_end.x = (lv_trigo_cos(angle) * (r_out)) / LV_TRIGO_SIN_MAX + scale_center.x;
 588:Drivers/lvgl/src/extra/widgets/meter/lv_meter.c ****             line_dsc.color = indic->type_data.needle_line.color;
 589:Drivers/lvgl/src/extra/widgets/meter/lv_meter.c ****             line_dsc.width = indic->type_data.needle_line.width;
 590:Drivers/lvgl/src/extra/widgets/meter/lv_meter.c ****             line_dsc.opa = indic->opa > LV_OPA_MAX ? opa_main : (opa_main * indic->opa) >> 8;
 591:Drivers/lvgl/src/extra/widgets/meter/lv_meter.c **** 
 592:Drivers/lvgl/src/extra/widgets/meter/lv_meter.c ****             part_draw_dsc.type = LV_METER_DRAW_PART_NEEDLE_LINE;
 593:Drivers/lvgl/src/extra/widgets/meter/lv_meter.c ****             part_draw_dsc.line_dsc = &line_dsc;
 594:Drivers/lvgl/src/extra/widgets/meter/lv_meter.c ****             part_draw_dsc.p2 = &p_end;
 595:Drivers/lvgl/src/extra/widgets/meter/lv_meter.c ****             part_draw_dsc.p1 = &scale_center;
 596:Drivers/lvgl/src/extra/widgets/meter/lv_meter.c ****             lv_event_send(obj, LV_EVENT_DRAW_PART_BEGIN, &part_draw_dsc);
 597:Drivers/lvgl/src/extra/widgets/meter/lv_meter.c ****             lv_draw_line(draw_ctx, &line_dsc, part_draw_dsc.p1, &p_end);
 598:Drivers/lvgl/src/extra/widgets/meter/lv_meter.c ****             lv_event_send(obj, LV_EVENT_DRAW_PART_END, &part_draw_dsc);
 599:Drivers/lvgl/src/extra/widgets/meter/lv_meter.c ****         }
 600:Drivers/lvgl/src/extra/widgets/meter/lv_meter.c ****         else if(indic->type == LV_METER_INDICATOR_TYPE_NEEDLE_IMG) {
 601:Drivers/lvgl/src/extra/widgets/meter/lv_meter.c ****             if(indic->type_data.needle_img.src == NULL) continue;
 602:Drivers/lvgl/src/extra/widgets/meter/lv_meter.c **** 
ARM GAS  /var/folders/0z/tsy30v1j4xl4_7kw94k978ww0000gn/T//ccjxQgZI.s 			page 14


 603:Drivers/lvgl/src/extra/widgets/meter/lv_meter.c ****             int32_t angle = lv_map(indic->end_value, scale->min, scale->max, scale->rotation, scale
 604:Drivers/lvgl/src/extra/widgets/meter/lv_meter.c ****             lv_img_header_t info;
 605:Drivers/lvgl/src/extra/widgets/meter/lv_meter.c ****             lv_img_decoder_get_info(indic->type_data.needle_img.src, &info);
 606:Drivers/lvgl/src/extra/widgets/meter/lv_meter.c ****             lv_area_t a;
 607:Drivers/lvgl/src/extra/widgets/meter/lv_meter.c ****             a.x1 = scale_center.x - indic->type_data.needle_img.pivot.x;
 608:Drivers/lvgl/src/extra/widgets/meter/lv_meter.c ****             a.y1 = scale_center.y - indic->type_data.needle_img.pivot.y;
 609:Drivers/lvgl/src/extra/widgets/meter/lv_meter.c ****             a.x2 = a.x1 + info.w - 1;
 610:Drivers/lvgl/src/extra/widgets/meter/lv_meter.c ****             a.y2 = a.y1 + info.h - 1;
 611:Drivers/lvgl/src/extra/widgets/meter/lv_meter.c **** 
 612:Drivers/lvgl/src/extra/widgets/meter/lv_meter.c ****             img_dsc.opa = indic->opa > LV_OPA_MAX ? opa_main : (opa_main * indic->opa) >> 8;
 613:Drivers/lvgl/src/extra/widgets/meter/lv_meter.c ****             img_dsc.pivot.x = indic->type_data.needle_img.pivot.x;
 614:Drivers/lvgl/src/extra/widgets/meter/lv_meter.c ****             img_dsc.pivot.y = indic->type_data.needle_img.pivot.y;
 615:Drivers/lvgl/src/extra/widgets/meter/lv_meter.c ****             angle = angle * 10;
 616:Drivers/lvgl/src/extra/widgets/meter/lv_meter.c ****             if(angle > 3600) angle -= 3600;
 617:Drivers/lvgl/src/extra/widgets/meter/lv_meter.c ****             img_dsc.angle = angle;
 618:Drivers/lvgl/src/extra/widgets/meter/lv_meter.c **** 
 619:Drivers/lvgl/src/extra/widgets/meter/lv_meter.c ****             part_draw_dsc.type = LV_METER_DRAW_PART_NEEDLE_IMG;
 620:Drivers/lvgl/src/extra/widgets/meter/lv_meter.c ****             part_draw_dsc.img_dsc = &img_dsc;
 621:Drivers/lvgl/src/extra/widgets/meter/lv_meter.c **** 
 622:Drivers/lvgl/src/extra/widgets/meter/lv_meter.c ****             lv_event_send(obj, LV_EVENT_DRAW_PART_BEGIN, &part_draw_dsc);
 623:Drivers/lvgl/src/extra/widgets/meter/lv_meter.c ****             lv_draw_img(draw_ctx, &img_dsc, &a, indic->type_data.needle_img.src);
 624:Drivers/lvgl/src/extra/widgets/meter/lv_meter.c ****             lv_event_send(obj, LV_EVENT_DRAW_PART_END, &part_draw_dsc);
 625:Drivers/lvgl/src/extra/widgets/meter/lv_meter.c ****         }
 626:Drivers/lvgl/src/extra/widgets/meter/lv_meter.c ****     }
 627:Drivers/lvgl/src/extra/widgets/meter/lv_meter.c **** }
 628:Drivers/lvgl/src/extra/widgets/meter/lv_meter.c **** 
 629:Drivers/lvgl/src/extra/widgets/meter/lv_meter.c **** static void inv_arc(lv_obj_t * obj, lv_meter_indicator_t * indic, int32_t old_value, int32_t new_va
 630:Drivers/lvgl/src/extra/widgets/meter/lv_meter.c **** {
 128              		.loc 1 630 1 is_stmt 1 view -0
 129              		.cfi_startproc
 130              		@ args = 0, pretend = 0, frame = 24
 131              		@ frame_needed = 0, uses_anonymous_args = 0
 631:Drivers/lvgl/src/extra/widgets/meter/lv_meter.c ****     bool rounded = lv_obj_get_style_arc_rounded(obj, LV_PART_ITEMS);
 132              		.loc 1 631 5 view .LVU28
 630:Drivers/lvgl/src/extra/widgets/meter/lv_meter.c ****     bool rounded = lv_obj_get_style_arc_rounded(obj, LV_PART_ITEMS);
 133              		.loc 1 630 1 is_stmt 0 view .LVU29
 134 0000 2DE9F04F 		push	{r4, r5, r6, r7, r8, r9, r10, fp, lr}
 135              		.cfi_def_cfa_offset 36
 136              		.cfi_offset 4, -36
 137              		.cfi_offset 5, -32
 138              		.cfi_offset 6, -28
 139              		.cfi_offset 7, -24
 140              		.cfi_offset 8, -20
 141              		.cfi_offset 9, -16
 142              		.cfi_offset 10, -12
 143              		.cfi_offset 11, -8
 144              		.cfi_offset 14, -4
 145 0004 8946     		mov	r9, r1
 146 0006 8BB0     		sub	sp, sp, #44
 147              		.cfi_def_cfa_offset 80
 630:Drivers/lvgl/src/extra/widgets/meter/lv_meter.c ****     bool rounded = lv_obj_get_style_arc_rounded(obj, LV_PART_ITEMS);
 148              		.loc 1 630 1 view .LVU30
 149 0008 1446     		mov	r4, r2
 150              	.LBB50:
 151              	.LBB51:
 152              		.file 2 "Drivers/lvgl/src/extra/widgets/meter/../../../../src/core/lv_obj_style_gen.h"
   1:Drivers/lvgl/src/extra/widgets/meter/../../../../src/core/lv_obj_style_gen.h **** static inline lv_coord_t lv_obj_get_style_width(const struct _lv_obj_t * obj, uint32_t part)
ARM GAS  /var/folders/0z/tsy30v1j4xl4_7kw94k978ww0000gn/T//ccjxQgZI.s 			page 15


   2:Drivers/lvgl/src/extra/widgets/meter/../../../../src/core/lv_obj_style_gen.h **** {
   3:Drivers/lvgl/src/extra/widgets/meter/../../../../src/core/lv_obj_style_gen.h ****     lv_style_value_t v = lv_obj_get_style_prop(obj, part, LV_STYLE_WIDTH);
   4:Drivers/lvgl/src/extra/widgets/meter/../../../../src/core/lv_obj_style_gen.h ****     return (lv_coord_t)v.num;
   5:Drivers/lvgl/src/extra/widgets/meter/../../../../src/core/lv_obj_style_gen.h **** }
   6:Drivers/lvgl/src/extra/widgets/meter/../../../../src/core/lv_obj_style_gen.h **** 
   7:Drivers/lvgl/src/extra/widgets/meter/../../../../src/core/lv_obj_style_gen.h **** static inline lv_coord_t lv_obj_get_style_min_width(const struct _lv_obj_t * obj, uint32_t part)
   8:Drivers/lvgl/src/extra/widgets/meter/../../../../src/core/lv_obj_style_gen.h **** {
   9:Drivers/lvgl/src/extra/widgets/meter/../../../../src/core/lv_obj_style_gen.h ****     lv_style_value_t v = lv_obj_get_style_prop(obj, part, LV_STYLE_MIN_WIDTH);
  10:Drivers/lvgl/src/extra/widgets/meter/../../../../src/core/lv_obj_style_gen.h ****     return (lv_coord_t)v.num;
  11:Drivers/lvgl/src/extra/widgets/meter/../../../../src/core/lv_obj_style_gen.h **** }
  12:Drivers/lvgl/src/extra/widgets/meter/../../../../src/core/lv_obj_style_gen.h **** 
  13:Drivers/lvgl/src/extra/widgets/meter/../../../../src/core/lv_obj_style_gen.h **** static inline lv_coord_t lv_obj_get_style_max_width(const struct _lv_obj_t * obj, uint32_t part)
  14:Drivers/lvgl/src/extra/widgets/meter/../../../../src/core/lv_obj_style_gen.h **** {
  15:Drivers/lvgl/src/extra/widgets/meter/../../../../src/core/lv_obj_style_gen.h ****     lv_style_value_t v = lv_obj_get_style_prop(obj, part, LV_STYLE_MAX_WIDTH);
  16:Drivers/lvgl/src/extra/widgets/meter/../../../../src/core/lv_obj_style_gen.h ****     return (lv_coord_t)v.num;
  17:Drivers/lvgl/src/extra/widgets/meter/../../../../src/core/lv_obj_style_gen.h **** }
  18:Drivers/lvgl/src/extra/widgets/meter/../../../../src/core/lv_obj_style_gen.h **** 
  19:Drivers/lvgl/src/extra/widgets/meter/../../../../src/core/lv_obj_style_gen.h **** static inline lv_coord_t lv_obj_get_style_height(const struct _lv_obj_t * obj, uint32_t part)
  20:Drivers/lvgl/src/extra/widgets/meter/../../../../src/core/lv_obj_style_gen.h **** {
  21:Drivers/lvgl/src/extra/widgets/meter/../../../../src/core/lv_obj_style_gen.h ****     lv_style_value_t v = lv_obj_get_style_prop(obj, part, LV_STYLE_HEIGHT);
  22:Drivers/lvgl/src/extra/widgets/meter/../../../../src/core/lv_obj_style_gen.h ****     return (lv_coord_t)v.num;
  23:Drivers/lvgl/src/extra/widgets/meter/../../../../src/core/lv_obj_style_gen.h **** }
  24:Drivers/lvgl/src/extra/widgets/meter/../../../../src/core/lv_obj_style_gen.h **** 
  25:Drivers/lvgl/src/extra/widgets/meter/../../../../src/core/lv_obj_style_gen.h **** static inline lv_coord_t lv_obj_get_style_min_height(const struct _lv_obj_t * obj, uint32_t part)
  26:Drivers/lvgl/src/extra/widgets/meter/../../../../src/core/lv_obj_style_gen.h **** {
  27:Drivers/lvgl/src/extra/widgets/meter/../../../../src/core/lv_obj_style_gen.h ****     lv_style_value_t v = lv_obj_get_style_prop(obj, part, LV_STYLE_MIN_HEIGHT);
  28:Drivers/lvgl/src/extra/widgets/meter/../../../../src/core/lv_obj_style_gen.h ****     return (lv_coord_t)v.num;
  29:Drivers/lvgl/src/extra/widgets/meter/../../../../src/core/lv_obj_style_gen.h **** }
  30:Drivers/lvgl/src/extra/widgets/meter/../../../../src/core/lv_obj_style_gen.h **** 
  31:Drivers/lvgl/src/extra/widgets/meter/../../../../src/core/lv_obj_style_gen.h **** static inline lv_coord_t lv_obj_get_style_max_height(const struct _lv_obj_t * obj, uint32_t part)
  32:Drivers/lvgl/src/extra/widgets/meter/../../../../src/core/lv_obj_style_gen.h **** {
  33:Drivers/lvgl/src/extra/widgets/meter/../../../../src/core/lv_obj_style_gen.h ****     lv_style_value_t v = lv_obj_get_style_prop(obj, part, LV_STYLE_MAX_HEIGHT);
  34:Drivers/lvgl/src/extra/widgets/meter/../../../../src/core/lv_obj_style_gen.h ****     return (lv_coord_t)v.num;
  35:Drivers/lvgl/src/extra/widgets/meter/../../../../src/core/lv_obj_style_gen.h **** }
  36:Drivers/lvgl/src/extra/widgets/meter/../../../../src/core/lv_obj_style_gen.h **** 
  37:Drivers/lvgl/src/extra/widgets/meter/../../../../src/core/lv_obj_style_gen.h **** static inline lv_coord_t lv_obj_get_style_x(const struct _lv_obj_t * obj, uint32_t part)
  38:Drivers/lvgl/src/extra/widgets/meter/../../../../src/core/lv_obj_style_gen.h **** {
  39:Drivers/lvgl/src/extra/widgets/meter/../../../../src/core/lv_obj_style_gen.h ****     lv_style_value_t v = lv_obj_get_style_prop(obj, part, LV_STYLE_X);
  40:Drivers/lvgl/src/extra/widgets/meter/../../../../src/core/lv_obj_style_gen.h ****     return (lv_coord_t)v.num;
  41:Drivers/lvgl/src/extra/widgets/meter/../../../../src/core/lv_obj_style_gen.h **** }
  42:Drivers/lvgl/src/extra/widgets/meter/../../../../src/core/lv_obj_style_gen.h **** 
  43:Drivers/lvgl/src/extra/widgets/meter/../../../../src/core/lv_obj_style_gen.h **** static inline lv_coord_t lv_obj_get_style_y(const struct _lv_obj_t * obj, uint32_t part)
  44:Drivers/lvgl/src/extra/widgets/meter/../../../../src/core/lv_obj_style_gen.h **** {
  45:Drivers/lvgl/src/extra/widgets/meter/../../../../src/core/lv_obj_style_gen.h ****     lv_style_value_t v = lv_obj_get_style_prop(obj, part, LV_STYLE_Y);
  46:Drivers/lvgl/src/extra/widgets/meter/../../../../src/core/lv_obj_style_gen.h ****     return (lv_coord_t)v.num;
  47:Drivers/lvgl/src/extra/widgets/meter/../../../../src/core/lv_obj_style_gen.h **** }
  48:Drivers/lvgl/src/extra/widgets/meter/../../../../src/core/lv_obj_style_gen.h **** 
  49:Drivers/lvgl/src/extra/widgets/meter/../../../../src/core/lv_obj_style_gen.h **** static inline lv_align_t lv_obj_get_style_align(const struct _lv_obj_t * obj, uint32_t part)
  50:Drivers/lvgl/src/extra/widgets/meter/../../../../src/core/lv_obj_style_gen.h **** {
  51:Drivers/lvgl/src/extra/widgets/meter/../../../../src/core/lv_obj_style_gen.h ****     lv_style_value_t v = lv_obj_get_style_prop(obj, part, LV_STYLE_ALIGN);
  52:Drivers/lvgl/src/extra/widgets/meter/../../../../src/core/lv_obj_style_gen.h ****     return (lv_align_t)v.num;
  53:Drivers/lvgl/src/extra/widgets/meter/../../../../src/core/lv_obj_style_gen.h **** }
  54:Drivers/lvgl/src/extra/widgets/meter/../../../../src/core/lv_obj_style_gen.h **** 
  55:Drivers/lvgl/src/extra/widgets/meter/../../../../src/core/lv_obj_style_gen.h **** static inline lv_coord_t lv_obj_get_style_transform_width(const struct _lv_obj_t * obj, uint32_t pa
  56:Drivers/lvgl/src/extra/widgets/meter/../../../../src/core/lv_obj_style_gen.h **** {
  57:Drivers/lvgl/src/extra/widgets/meter/../../../../src/core/lv_obj_style_gen.h ****     lv_style_value_t v = lv_obj_get_style_prop(obj, part, LV_STYLE_TRANSFORM_WIDTH);
  58:Drivers/lvgl/src/extra/widgets/meter/../../../../src/core/lv_obj_style_gen.h ****     return (lv_coord_t)v.num;
ARM GAS  /var/folders/0z/tsy30v1j4xl4_7kw94k978ww0000gn/T//ccjxQgZI.s 			page 16


  59:Drivers/lvgl/src/extra/widgets/meter/../../../../src/core/lv_obj_style_gen.h **** }
  60:Drivers/lvgl/src/extra/widgets/meter/../../../../src/core/lv_obj_style_gen.h **** 
  61:Drivers/lvgl/src/extra/widgets/meter/../../../../src/core/lv_obj_style_gen.h **** static inline lv_coord_t lv_obj_get_style_transform_height(const struct _lv_obj_t * obj, uint32_t p
  62:Drivers/lvgl/src/extra/widgets/meter/../../../../src/core/lv_obj_style_gen.h **** {
  63:Drivers/lvgl/src/extra/widgets/meter/../../../../src/core/lv_obj_style_gen.h ****     lv_style_value_t v = lv_obj_get_style_prop(obj, part, LV_STYLE_TRANSFORM_HEIGHT);
  64:Drivers/lvgl/src/extra/widgets/meter/../../../../src/core/lv_obj_style_gen.h ****     return (lv_coord_t)v.num;
  65:Drivers/lvgl/src/extra/widgets/meter/../../../../src/core/lv_obj_style_gen.h **** }
  66:Drivers/lvgl/src/extra/widgets/meter/../../../../src/core/lv_obj_style_gen.h **** 
  67:Drivers/lvgl/src/extra/widgets/meter/../../../../src/core/lv_obj_style_gen.h **** static inline lv_coord_t lv_obj_get_style_translate_x(const struct _lv_obj_t * obj, uint32_t part)
  68:Drivers/lvgl/src/extra/widgets/meter/../../../../src/core/lv_obj_style_gen.h **** {
  69:Drivers/lvgl/src/extra/widgets/meter/../../../../src/core/lv_obj_style_gen.h ****     lv_style_value_t v = lv_obj_get_style_prop(obj, part, LV_STYLE_TRANSLATE_X);
  70:Drivers/lvgl/src/extra/widgets/meter/../../../../src/core/lv_obj_style_gen.h ****     return (lv_coord_t)v.num;
  71:Drivers/lvgl/src/extra/widgets/meter/../../../../src/core/lv_obj_style_gen.h **** }
  72:Drivers/lvgl/src/extra/widgets/meter/../../../../src/core/lv_obj_style_gen.h **** 
  73:Drivers/lvgl/src/extra/widgets/meter/../../../../src/core/lv_obj_style_gen.h **** static inline lv_coord_t lv_obj_get_style_translate_y(const struct _lv_obj_t * obj, uint32_t part)
  74:Drivers/lvgl/src/extra/widgets/meter/../../../../src/core/lv_obj_style_gen.h **** {
  75:Drivers/lvgl/src/extra/widgets/meter/../../../../src/core/lv_obj_style_gen.h ****     lv_style_value_t v = lv_obj_get_style_prop(obj, part, LV_STYLE_TRANSLATE_Y);
  76:Drivers/lvgl/src/extra/widgets/meter/../../../../src/core/lv_obj_style_gen.h ****     return (lv_coord_t)v.num;
  77:Drivers/lvgl/src/extra/widgets/meter/../../../../src/core/lv_obj_style_gen.h **** }
  78:Drivers/lvgl/src/extra/widgets/meter/../../../../src/core/lv_obj_style_gen.h **** 
  79:Drivers/lvgl/src/extra/widgets/meter/../../../../src/core/lv_obj_style_gen.h **** static inline lv_coord_t lv_obj_get_style_transform_zoom(const struct _lv_obj_t * obj, uint32_t par
  80:Drivers/lvgl/src/extra/widgets/meter/../../../../src/core/lv_obj_style_gen.h **** {
  81:Drivers/lvgl/src/extra/widgets/meter/../../../../src/core/lv_obj_style_gen.h ****     lv_style_value_t v = lv_obj_get_style_prop(obj, part, LV_STYLE_TRANSFORM_ZOOM);
  82:Drivers/lvgl/src/extra/widgets/meter/../../../../src/core/lv_obj_style_gen.h ****     return (lv_coord_t)v.num;
  83:Drivers/lvgl/src/extra/widgets/meter/../../../../src/core/lv_obj_style_gen.h **** }
  84:Drivers/lvgl/src/extra/widgets/meter/../../../../src/core/lv_obj_style_gen.h **** 
  85:Drivers/lvgl/src/extra/widgets/meter/../../../../src/core/lv_obj_style_gen.h **** static inline lv_coord_t lv_obj_get_style_transform_angle(const struct _lv_obj_t * obj, uint32_t pa
  86:Drivers/lvgl/src/extra/widgets/meter/../../../../src/core/lv_obj_style_gen.h **** {
  87:Drivers/lvgl/src/extra/widgets/meter/../../../../src/core/lv_obj_style_gen.h ****     lv_style_value_t v = lv_obj_get_style_prop(obj, part, LV_STYLE_TRANSFORM_ANGLE);
  88:Drivers/lvgl/src/extra/widgets/meter/../../../../src/core/lv_obj_style_gen.h ****     return (lv_coord_t)v.num;
  89:Drivers/lvgl/src/extra/widgets/meter/../../../../src/core/lv_obj_style_gen.h **** }
  90:Drivers/lvgl/src/extra/widgets/meter/../../../../src/core/lv_obj_style_gen.h **** 
  91:Drivers/lvgl/src/extra/widgets/meter/../../../../src/core/lv_obj_style_gen.h **** static inline lv_coord_t lv_obj_get_style_transform_pivot_x(const struct _lv_obj_t * obj, uint32_t 
  92:Drivers/lvgl/src/extra/widgets/meter/../../../../src/core/lv_obj_style_gen.h **** {
  93:Drivers/lvgl/src/extra/widgets/meter/../../../../src/core/lv_obj_style_gen.h ****     lv_style_value_t v = lv_obj_get_style_prop(obj, part, LV_STYLE_TRANSFORM_PIVOT_X);
  94:Drivers/lvgl/src/extra/widgets/meter/../../../../src/core/lv_obj_style_gen.h ****     return (lv_coord_t)v.num;
  95:Drivers/lvgl/src/extra/widgets/meter/../../../../src/core/lv_obj_style_gen.h **** }
  96:Drivers/lvgl/src/extra/widgets/meter/../../../../src/core/lv_obj_style_gen.h **** 
  97:Drivers/lvgl/src/extra/widgets/meter/../../../../src/core/lv_obj_style_gen.h **** static inline lv_coord_t lv_obj_get_style_transform_pivot_y(const struct _lv_obj_t * obj, uint32_t 
  98:Drivers/lvgl/src/extra/widgets/meter/../../../../src/core/lv_obj_style_gen.h **** {
  99:Drivers/lvgl/src/extra/widgets/meter/../../../../src/core/lv_obj_style_gen.h ****     lv_style_value_t v = lv_obj_get_style_prop(obj, part, LV_STYLE_TRANSFORM_PIVOT_Y);
 100:Drivers/lvgl/src/extra/widgets/meter/../../../../src/core/lv_obj_style_gen.h ****     return (lv_coord_t)v.num;
 101:Drivers/lvgl/src/extra/widgets/meter/../../../../src/core/lv_obj_style_gen.h **** }
 102:Drivers/lvgl/src/extra/widgets/meter/../../../../src/core/lv_obj_style_gen.h **** 
 103:Drivers/lvgl/src/extra/widgets/meter/../../../../src/core/lv_obj_style_gen.h **** static inline lv_coord_t lv_obj_get_style_pad_top(const struct _lv_obj_t * obj, uint32_t part)
 104:Drivers/lvgl/src/extra/widgets/meter/../../../../src/core/lv_obj_style_gen.h **** {
 105:Drivers/lvgl/src/extra/widgets/meter/../../../../src/core/lv_obj_style_gen.h ****     lv_style_value_t v = lv_obj_get_style_prop(obj, part, LV_STYLE_PAD_TOP);
 106:Drivers/lvgl/src/extra/widgets/meter/../../../../src/core/lv_obj_style_gen.h ****     return (lv_coord_t)v.num;
 107:Drivers/lvgl/src/extra/widgets/meter/../../../../src/core/lv_obj_style_gen.h **** }
 108:Drivers/lvgl/src/extra/widgets/meter/../../../../src/core/lv_obj_style_gen.h **** 
 109:Drivers/lvgl/src/extra/widgets/meter/../../../../src/core/lv_obj_style_gen.h **** static inline lv_coord_t lv_obj_get_style_pad_bottom(const struct _lv_obj_t * obj, uint32_t part)
 110:Drivers/lvgl/src/extra/widgets/meter/../../../../src/core/lv_obj_style_gen.h **** {
 111:Drivers/lvgl/src/extra/widgets/meter/../../../../src/core/lv_obj_style_gen.h ****     lv_style_value_t v = lv_obj_get_style_prop(obj, part, LV_STYLE_PAD_BOTTOM);
 112:Drivers/lvgl/src/extra/widgets/meter/../../../../src/core/lv_obj_style_gen.h ****     return (lv_coord_t)v.num;
 113:Drivers/lvgl/src/extra/widgets/meter/../../../../src/core/lv_obj_style_gen.h **** }
 114:Drivers/lvgl/src/extra/widgets/meter/../../../../src/core/lv_obj_style_gen.h **** 
 115:Drivers/lvgl/src/extra/widgets/meter/../../../../src/core/lv_obj_style_gen.h **** static inline lv_coord_t lv_obj_get_style_pad_left(const struct _lv_obj_t * obj, uint32_t part)
ARM GAS  /var/folders/0z/tsy30v1j4xl4_7kw94k978ww0000gn/T//ccjxQgZI.s 			page 17


 116:Drivers/lvgl/src/extra/widgets/meter/../../../../src/core/lv_obj_style_gen.h **** {
 117:Drivers/lvgl/src/extra/widgets/meter/../../../../src/core/lv_obj_style_gen.h ****     lv_style_value_t v = lv_obj_get_style_prop(obj, part, LV_STYLE_PAD_LEFT);
 118:Drivers/lvgl/src/extra/widgets/meter/../../../../src/core/lv_obj_style_gen.h ****     return (lv_coord_t)v.num;
 119:Drivers/lvgl/src/extra/widgets/meter/../../../../src/core/lv_obj_style_gen.h **** }
 120:Drivers/lvgl/src/extra/widgets/meter/../../../../src/core/lv_obj_style_gen.h **** 
 121:Drivers/lvgl/src/extra/widgets/meter/../../../../src/core/lv_obj_style_gen.h **** static inline lv_coord_t lv_obj_get_style_pad_right(const struct _lv_obj_t * obj, uint32_t part)
 122:Drivers/lvgl/src/extra/widgets/meter/../../../../src/core/lv_obj_style_gen.h **** {
 123:Drivers/lvgl/src/extra/widgets/meter/../../../../src/core/lv_obj_style_gen.h ****     lv_style_value_t v = lv_obj_get_style_prop(obj, part, LV_STYLE_PAD_RIGHT);
 124:Drivers/lvgl/src/extra/widgets/meter/../../../../src/core/lv_obj_style_gen.h ****     return (lv_coord_t)v.num;
 125:Drivers/lvgl/src/extra/widgets/meter/../../../../src/core/lv_obj_style_gen.h **** }
 126:Drivers/lvgl/src/extra/widgets/meter/../../../../src/core/lv_obj_style_gen.h **** 
 127:Drivers/lvgl/src/extra/widgets/meter/../../../../src/core/lv_obj_style_gen.h **** static inline lv_coord_t lv_obj_get_style_pad_row(const struct _lv_obj_t * obj, uint32_t part)
 128:Drivers/lvgl/src/extra/widgets/meter/../../../../src/core/lv_obj_style_gen.h **** {
 129:Drivers/lvgl/src/extra/widgets/meter/../../../../src/core/lv_obj_style_gen.h ****     lv_style_value_t v = lv_obj_get_style_prop(obj, part, LV_STYLE_PAD_ROW);
 130:Drivers/lvgl/src/extra/widgets/meter/../../../../src/core/lv_obj_style_gen.h ****     return (lv_coord_t)v.num;
 131:Drivers/lvgl/src/extra/widgets/meter/../../../../src/core/lv_obj_style_gen.h **** }
 132:Drivers/lvgl/src/extra/widgets/meter/../../../../src/core/lv_obj_style_gen.h **** 
 133:Drivers/lvgl/src/extra/widgets/meter/../../../../src/core/lv_obj_style_gen.h **** static inline lv_coord_t lv_obj_get_style_pad_column(const struct _lv_obj_t * obj, uint32_t part)
 134:Drivers/lvgl/src/extra/widgets/meter/../../../../src/core/lv_obj_style_gen.h **** {
 135:Drivers/lvgl/src/extra/widgets/meter/../../../../src/core/lv_obj_style_gen.h ****     lv_style_value_t v = lv_obj_get_style_prop(obj, part, LV_STYLE_PAD_COLUMN);
 136:Drivers/lvgl/src/extra/widgets/meter/../../../../src/core/lv_obj_style_gen.h ****     return (lv_coord_t)v.num;
 137:Drivers/lvgl/src/extra/widgets/meter/../../../../src/core/lv_obj_style_gen.h **** }
 138:Drivers/lvgl/src/extra/widgets/meter/../../../../src/core/lv_obj_style_gen.h **** 
 139:Drivers/lvgl/src/extra/widgets/meter/../../../../src/core/lv_obj_style_gen.h **** static inline lv_color_t lv_obj_get_style_bg_color(const struct _lv_obj_t * obj, uint32_t part)
 140:Drivers/lvgl/src/extra/widgets/meter/../../../../src/core/lv_obj_style_gen.h **** {
 141:Drivers/lvgl/src/extra/widgets/meter/../../../../src/core/lv_obj_style_gen.h ****     lv_style_value_t v = lv_obj_get_style_prop(obj, part, LV_STYLE_BG_COLOR);
 142:Drivers/lvgl/src/extra/widgets/meter/../../../../src/core/lv_obj_style_gen.h ****     return v.color;
 143:Drivers/lvgl/src/extra/widgets/meter/../../../../src/core/lv_obj_style_gen.h **** }
 144:Drivers/lvgl/src/extra/widgets/meter/../../../../src/core/lv_obj_style_gen.h **** 
 145:Drivers/lvgl/src/extra/widgets/meter/../../../../src/core/lv_obj_style_gen.h **** static inline lv_color_t lv_obj_get_style_bg_color_filtered(const struct _lv_obj_t * obj, uint32_t 
 146:Drivers/lvgl/src/extra/widgets/meter/../../../../src/core/lv_obj_style_gen.h **** {
 147:Drivers/lvgl/src/extra/widgets/meter/../../../../src/core/lv_obj_style_gen.h ****     lv_style_value_t v = _lv_obj_style_apply_color_filter(obj, part, lv_obj_get_style_prop(obj, par
 148:Drivers/lvgl/src/extra/widgets/meter/../../../../src/core/lv_obj_style_gen.h ****     return v.color;
 149:Drivers/lvgl/src/extra/widgets/meter/../../../../src/core/lv_obj_style_gen.h **** }
 150:Drivers/lvgl/src/extra/widgets/meter/../../../../src/core/lv_obj_style_gen.h **** 
 151:Drivers/lvgl/src/extra/widgets/meter/../../../../src/core/lv_obj_style_gen.h **** static inline lv_opa_t lv_obj_get_style_bg_opa(const struct _lv_obj_t * obj, uint32_t part)
 152:Drivers/lvgl/src/extra/widgets/meter/../../../../src/core/lv_obj_style_gen.h **** {
 153:Drivers/lvgl/src/extra/widgets/meter/../../../../src/core/lv_obj_style_gen.h ****     lv_style_value_t v = lv_obj_get_style_prop(obj, part, LV_STYLE_BG_OPA);
 154:Drivers/lvgl/src/extra/widgets/meter/../../../../src/core/lv_obj_style_gen.h ****     return (lv_opa_t)v.num;
 155:Drivers/lvgl/src/extra/widgets/meter/../../../../src/core/lv_obj_style_gen.h **** }
 156:Drivers/lvgl/src/extra/widgets/meter/../../../../src/core/lv_obj_style_gen.h **** 
 157:Drivers/lvgl/src/extra/widgets/meter/../../../../src/core/lv_obj_style_gen.h **** static inline lv_color_t lv_obj_get_style_bg_grad_color(const struct _lv_obj_t * obj, uint32_t part
 158:Drivers/lvgl/src/extra/widgets/meter/../../../../src/core/lv_obj_style_gen.h **** {
 159:Drivers/lvgl/src/extra/widgets/meter/../../../../src/core/lv_obj_style_gen.h ****     lv_style_value_t v = lv_obj_get_style_prop(obj, part, LV_STYLE_BG_GRAD_COLOR);
 160:Drivers/lvgl/src/extra/widgets/meter/../../../../src/core/lv_obj_style_gen.h ****     return v.color;
 161:Drivers/lvgl/src/extra/widgets/meter/../../../../src/core/lv_obj_style_gen.h **** }
 162:Drivers/lvgl/src/extra/widgets/meter/../../../../src/core/lv_obj_style_gen.h **** 
 163:Drivers/lvgl/src/extra/widgets/meter/../../../../src/core/lv_obj_style_gen.h **** static inline lv_color_t lv_obj_get_style_bg_grad_color_filtered(const struct _lv_obj_t * obj, uint
 164:Drivers/lvgl/src/extra/widgets/meter/../../../../src/core/lv_obj_style_gen.h **** {
 165:Drivers/lvgl/src/extra/widgets/meter/../../../../src/core/lv_obj_style_gen.h ****     lv_style_value_t v = _lv_obj_style_apply_color_filter(obj, part, lv_obj_get_style_prop(obj, par
 166:Drivers/lvgl/src/extra/widgets/meter/../../../../src/core/lv_obj_style_gen.h ****     return v.color;
 167:Drivers/lvgl/src/extra/widgets/meter/../../../../src/core/lv_obj_style_gen.h **** }
 168:Drivers/lvgl/src/extra/widgets/meter/../../../../src/core/lv_obj_style_gen.h **** 
 169:Drivers/lvgl/src/extra/widgets/meter/../../../../src/core/lv_obj_style_gen.h **** static inline lv_grad_dir_t lv_obj_get_style_bg_grad_dir(const struct _lv_obj_t * obj, uint32_t par
 170:Drivers/lvgl/src/extra/widgets/meter/../../../../src/core/lv_obj_style_gen.h **** {
 171:Drivers/lvgl/src/extra/widgets/meter/../../../../src/core/lv_obj_style_gen.h ****     lv_style_value_t v = lv_obj_get_style_prop(obj, part, LV_STYLE_BG_GRAD_DIR);
 172:Drivers/lvgl/src/extra/widgets/meter/../../../../src/core/lv_obj_style_gen.h ****     return (lv_grad_dir_t)v.num;
ARM GAS  /var/folders/0z/tsy30v1j4xl4_7kw94k978ww0000gn/T//ccjxQgZI.s 			page 18


 173:Drivers/lvgl/src/extra/widgets/meter/../../../../src/core/lv_obj_style_gen.h **** }
 174:Drivers/lvgl/src/extra/widgets/meter/../../../../src/core/lv_obj_style_gen.h **** 
 175:Drivers/lvgl/src/extra/widgets/meter/../../../../src/core/lv_obj_style_gen.h **** static inline lv_coord_t lv_obj_get_style_bg_main_stop(const struct _lv_obj_t * obj, uint32_t part)
 176:Drivers/lvgl/src/extra/widgets/meter/../../../../src/core/lv_obj_style_gen.h **** {
 177:Drivers/lvgl/src/extra/widgets/meter/../../../../src/core/lv_obj_style_gen.h ****     lv_style_value_t v = lv_obj_get_style_prop(obj, part, LV_STYLE_BG_MAIN_STOP);
 178:Drivers/lvgl/src/extra/widgets/meter/../../../../src/core/lv_obj_style_gen.h ****     return (lv_coord_t)v.num;
 179:Drivers/lvgl/src/extra/widgets/meter/../../../../src/core/lv_obj_style_gen.h **** }
 180:Drivers/lvgl/src/extra/widgets/meter/../../../../src/core/lv_obj_style_gen.h **** 
 181:Drivers/lvgl/src/extra/widgets/meter/../../../../src/core/lv_obj_style_gen.h **** static inline lv_coord_t lv_obj_get_style_bg_grad_stop(const struct _lv_obj_t * obj, uint32_t part)
 182:Drivers/lvgl/src/extra/widgets/meter/../../../../src/core/lv_obj_style_gen.h **** {
 183:Drivers/lvgl/src/extra/widgets/meter/../../../../src/core/lv_obj_style_gen.h ****     lv_style_value_t v = lv_obj_get_style_prop(obj, part, LV_STYLE_BG_GRAD_STOP);
 184:Drivers/lvgl/src/extra/widgets/meter/../../../../src/core/lv_obj_style_gen.h ****     return (lv_coord_t)v.num;
 185:Drivers/lvgl/src/extra/widgets/meter/../../../../src/core/lv_obj_style_gen.h **** }
 186:Drivers/lvgl/src/extra/widgets/meter/../../../../src/core/lv_obj_style_gen.h **** 
 187:Drivers/lvgl/src/extra/widgets/meter/../../../../src/core/lv_obj_style_gen.h **** static inline const lv_grad_dsc_t * lv_obj_get_style_bg_grad(const struct _lv_obj_t * obj, uint32_t
 188:Drivers/lvgl/src/extra/widgets/meter/../../../../src/core/lv_obj_style_gen.h **** {
 189:Drivers/lvgl/src/extra/widgets/meter/../../../../src/core/lv_obj_style_gen.h ****     lv_style_value_t v = lv_obj_get_style_prop(obj, part, LV_STYLE_BG_GRAD);
 190:Drivers/lvgl/src/extra/widgets/meter/../../../../src/core/lv_obj_style_gen.h ****     return (const lv_grad_dsc_t *)v.ptr;
 191:Drivers/lvgl/src/extra/widgets/meter/../../../../src/core/lv_obj_style_gen.h **** }
 192:Drivers/lvgl/src/extra/widgets/meter/../../../../src/core/lv_obj_style_gen.h **** 
 193:Drivers/lvgl/src/extra/widgets/meter/../../../../src/core/lv_obj_style_gen.h **** static inline lv_dither_mode_t lv_obj_get_style_bg_dither_mode(const struct _lv_obj_t * obj, uint32
 194:Drivers/lvgl/src/extra/widgets/meter/../../../../src/core/lv_obj_style_gen.h **** {
 195:Drivers/lvgl/src/extra/widgets/meter/../../../../src/core/lv_obj_style_gen.h ****     lv_style_value_t v = lv_obj_get_style_prop(obj, part, LV_STYLE_BG_DITHER_MODE);
 196:Drivers/lvgl/src/extra/widgets/meter/../../../../src/core/lv_obj_style_gen.h ****     return (lv_dither_mode_t)v.num;
 197:Drivers/lvgl/src/extra/widgets/meter/../../../../src/core/lv_obj_style_gen.h **** }
 198:Drivers/lvgl/src/extra/widgets/meter/../../../../src/core/lv_obj_style_gen.h **** 
 199:Drivers/lvgl/src/extra/widgets/meter/../../../../src/core/lv_obj_style_gen.h **** static inline const void * lv_obj_get_style_bg_img_src(const struct _lv_obj_t * obj, uint32_t part)
 200:Drivers/lvgl/src/extra/widgets/meter/../../../../src/core/lv_obj_style_gen.h **** {
 201:Drivers/lvgl/src/extra/widgets/meter/../../../../src/core/lv_obj_style_gen.h ****     lv_style_value_t v = lv_obj_get_style_prop(obj, part, LV_STYLE_BG_IMG_SRC);
 202:Drivers/lvgl/src/extra/widgets/meter/../../../../src/core/lv_obj_style_gen.h ****     return (const void *)v.ptr;
 203:Drivers/lvgl/src/extra/widgets/meter/../../../../src/core/lv_obj_style_gen.h **** }
 204:Drivers/lvgl/src/extra/widgets/meter/../../../../src/core/lv_obj_style_gen.h **** 
 205:Drivers/lvgl/src/extra/widgets/meter/../../../../src/core/lv_obj_style_gen.h **** static inline lv_opa_t lv_obj_get_style_bg_img_opa(const struct _lv_obj_t * obj, uint32_t part)
 206:Drivers/lvgl/src/extra/widgets/meter/../../../../src/core/lv_obj_style_gen.h **** {
 207:Drivers/lvgl/src/extra/widgets/meter/../../../../src/core/lv_obj_style_gen.h ****     lv_style_value_t v = lv_obj_get_style_prop(obj, part, LV_STYLE_BG_IMG_OPA);
 208:Drivers/lvgl/src/extra/widgets/meter/../../../../src/core/lv_obj_style_gen.h ****     return (lv_opa_t)v.num;
 209:Drivers/lvgl/src/extra/widgets/meter/../../../../src/core/lv_obj_style_gen.h **** }
 210:Drivers/lvgl/src/extra/widgets/meter/../../../../src/core/lv_obj_style_gen.h **** 
 211:Drivers/lvgl/src/extra/widgets/meter/../../../../src/core/lv_obj_style_gen.h **** static inline lv_color_t lv_obj_get_style_bg_img_recolor(const struct _lv_obj_t * obj, uint32_t par
 212:Drivers/lvgl/src/extra/widgets/meter/../../../../src/core/lv_obj_style_gen.h **** {
 213:Drivers/lvgl/src/extra/widgets/meter/../../../../src/core/lv_obj_style_gen.h ****     lv_style_value_t v = lv_obj_get_style_prop(obj, part, LV_STYLE_BG_IMG_RECOLOR);
 214:Drivers/lvgl/src/extra/widgets/meter/../../../../src/core/lv_obj_style_gen.h ****     return v.color;
 215:Drivers/lvgl/src/extra/widgets/meter/../../../../src/core/lv_obj_style_gen.h **** }
 216:Drivers/lvgl/src/extra/widgets/meter/../../../../src/core/lv_obj_style_gen.h **** 
 217:Drivers/lvgl/src/extra/widgets/meter/../../../../src/core/lv_obj_style_gen.h **** static inline lv_color_t lv_obj_get_style_bg_img_recolor_filtered(const struct _lv_obj_t * obj, uin
 218:Drivers/lvgl/src/extra/widgets/meter/../../../../src/core/lv_obj_style_gen.h **** {
 219:Drivers/lvgl/src/extra/widgets/meter/../../../../src/core/lv_obj_style_gen.h ****     lv_style_value_t v = _lv_obj_style_apply_color_filter(obj, part, lv_obj_get_style_prop(obj, par
 220:Drivers/lvgl/src/extra/widgets/meter/../../../../src/core/lv_obj_style_gen.h ****     return v.color;
 221:Drivers/lvgl/src/extra/widgets/meter/../../../../src/core/lv_obj_style_gen.h **** }
 222:Drivers/lvgl/src/extra/widgets/meter/../../../../src/core/lv_obj_style_gen.h **** 
 223:Drivers/lvgl/src/extra/widgets/meter/../../../../src/core/lv_obj_style_gen.h **** static inline lv_opa_t lv_obj_get_style_bg_img_recolor_opa(const struct _lv_obj_t * obj, uint32_t p
 224:Drivers/lvgl/src/extra/widgets/meter/../../../../src/core/lv_obj_style_gen.h **** {
 225:Drivers/lvgl/src/extra/widgets/meter/../../../../src/core/lv_obj_style_gen.h ****     lv_style_value_t v = lv_obj_get_style_prop(obj, part, LV_STYLE_BG_IMG_RECOLOR_OPA);
 226:Drivers/lvgl/src/extra/widgets/meter/../../../../src/core/lv_obj_style_gen.h ****     return (lv_opa_t)v.num;
 227:Drivers/lvgl/src/extra/widgets/meter/../../../../src/core/lv_obj_style_gen.h **** }
 228:Drivers/lvgl/src/extra/widgets/meter/../../../../src/core/lv_obj_style_gen.h **** 
 229:Drivers/lvgl/src/extra/widgets/meter/../../../../src/core/lv_obj_style_gen.h **** static inline bool lv_obj_get_style_bg_img_tiled(const struct _lv_obj_t * obj, uint32_t part)
ARM GAS  /var/folders/0z/tsy30v1j4xl4_7kw94k978ww0000gn/T//ccjxQgZI.s 			page 19


 230:Drivers/lvgl/src/extra/widgets/meter/../../../../src/core/lv_obj_style_gen.h **** {
 231:Drivers/lvgl/src/extra/widgets/meter/../../../../src/core/lv_obj_style_gen.h ****     lv_style_value_t v = lv_obj_get_style_prop(obj, part, LV_STYLE_BG_IMG_TILED);
 232:Drivers/lvgl/src/extra/widgets/meter/../../../../src/core/lv_obj_style_gen.h ****     return (bool)v.num;
 233:Drivers/lvgl/src/extra/widgets/meter/../../../../src/core/lv_obj_style_gen.h **** }
 234:Drivers/lvgl/src/extra/widgets/meter/../../../../src/core/lv_obj_style_gen.h **** 
 235:Drivers/lvgl/src/extra/widgets/meter/../../../../src/core/lv_obj_style_gen.h **** static inline lv_color_t lv_obj_get_style_border_color(const struct _lv_obj_t * obj, uint32_t part)
 236:Drivers/lvgl/src/extra/widgets/meter/../../../../src/core/lv_obj_style_gen.h **** {
 237:Drivers/lvgl/src/extra/widgets/meter/../../../../src/core/lv_obj_style_gen.h ****     lv_style_value_t v = lv_obj_get_style_prop(obj, part, LV_STYLE_BORDER_COLOR);
 238:Drivers/lvgl/src/extra/widgets/meter/../../../../src/core/lv_obj_style_gen.h ****     return v.color;
 239:Drivers/lvgl/src/extra/widgets/meter/../../../../src/core/lv_obj_style_gen.h **** }
 240:Drivers/lvgl/src/extra/widgets/meter/../../../../src/core/lv_obj_style_gen.h **** 
 241:Drivers/lvgl/src/extra/widgets/meter/../../../../src/core/lv_obj_style_gen.h **** static inline lv_color_t lv_obj_get_style_border_color_filtered(const struct _lv_obj_t * obj, uint3
 242:Drivers/lvgl/src/extra/widgets/meter/../../../../src/core/lv_obj_style_gen.h **** {
 243:Drivers/lvgl/src/extra/widgets/meter/../../../../src/core/lv_obj_style_gen.h ****     lv_style_value_t v = _lv_obj_style_apply_color_filter(obj, part, lv_obj_get_style_prop(obj, par
 244:Drivers/lvgl/src/extra/widgets/meter/../../../../src/core/lv_obj_style_gen.h ****     return v.color;
 245:Drivers/lvgl/src/extra/widgets/meter/../../../../src/core/lv_obj_style_gen.h **** }
 246:Drivers/lvgl/src/extra/widgets/meter/../../../../src/core/lv_obj_style_gen.h **** 
 247:Drivers/lvgl/src/extra/widgets/meter/../../../../src/core/lv_obj_style_gen.h **** static inline lv_opa_t lv_obj_get_style_border_opa(const struct _lv_obj_t * obj, uint32_t part)
 248:Drivers/lvgl/src/extra/widgets/meter/../../../../src/core/lv_obj_style_gen.h **** {
 249:Drivers/lvgl/src/extra/widgets/meter/../../../../src/core/lv_obj_style_gen.h ****     lv_style_value_t v = lv_obj_get_style_prop(obj, part, LV_STYLE_BORDER_OPA);
 250:Drivers/lvgl/src/extra/widgets/meter/../../../../src/core/lv_obj_style_gen.h ****     return (lv_opa_t)v.num;
 251:Drivers/lvgl/src/extra/widgets/meter/../../../../src/core/lv_obj_style_gen.h **** }
 252:Drivers/lvgl/src/extra/widgets/meter/../../../../src/core/lv_obj_style_gen.h **** 
 253:Drivers/lvgl/src/extra/widgets/meter/../../../../src/core/lv_obj_style_gen.h **** static inline lv_coord_t lv_obj_get_style_border_width(const struct _lv_obj_t * obj, uint32_t part)
 254:Drivers/lvgl/src/extra/widgets/meter/../../../../src/core/lv_obj_style_gen.h **** {
 255:Drivers/lvgl/src/extra/widgets/meter/../../../../src/core/lv_obj_style_gen.h ****     lv_style_value_t v = lv_obj_get_style_prop(obj, part, LV_STYLE_BORDER_WIDTH);
 256:Drivers/lvgl/src/extra/widgets/meter/../../../../src/core/lv_obj_style_gen.h ****     return (lv_coord_t)v.num;
 257:Drivers/lvgl/src/extra/widgets/meter/../../../../src/core/lv_obj_style_gen.h **** }
 258:Drivers/lvgl/src/extra/widgets/meter/../../../../src/core/lv_obj_style_gen.h **** 
 259:Drivers/lvgl/src/extra/widgets/meter/../../../../src/core/lv_obj_style_gen.h **** static inline lv_border_side_t lv_obj_get_style_border_side(const struct _lv_obj_t * obj, uint32_t 
 260:Drivers/lvgl/src/extra/widgets/meter/../../../../src/core/lv_obj_style_gen.h **** {
 261:Drivers/lvgl/src/extra/widgets/meter/../../../../src/core/lv_obj_style_gen.h ****     lv_style_value_t v = lv_obj_get_style_prop(obj, part, LV_STYLE_BORDER_SIDE);
 262:Drivers/lvgl/src/extra/widgets/meter/../../../../src/core/lv_obj_style_gen.h ****     return (lv_border_side_t)v.num;
 263:Drivers/lvgl/src/extra/widgets/meter/../../../../src/core/lv_obj_style_gen.h **** }
 264:Drivers/lvgl/src/extra/widgets/meter/../../../../src/core/lv_obj_style_gen.h **** 
 265:Drivers/lvgl/src/extra/widgets/meter/../../../../src/core/lv_obj_style_gen.h **** static inline bool lv_obj_get_style_border_post(const struct _lv_obj_t * obj, uint32_t part)
 266:Drivers/lvgl/src/extra/widgets/meter/../../../../src/core/lv_obj_style_gen.h **** {
 267:Drivers/lvgl/src/extra/widgets/meter/../../../../src/core/lv_obj_style_gen.h ****     lv_style_value_t v = lv_obj_get_style_prop(obj, part, LV_STYLE_BORDER_POST);
 268:Drivers/lvgl/src/extra/widgets/meter/../../../../src/core/lv_obj_style_gen.h ****     return (bool)v.num;
 269:Drivers/lvgl/src/extra/widgets/meter/../../../../src/core/lv_obj_style_gen.h **** }
 270:Drivers/lvgl/src/extra/widgets/meter/../../../../src/core/lv_obj_style_gen.h **** 
 271:Drivers/lvgl/src/extra/widgets/meter/../../../../src/core/lv_obj_style_gen.h **** static inline lv_coord_t lv_obj_get_style_outline_width(const struct _lv_obj_t * obj, uint32_t part
 272:Drivers/lvgl/src/extra/widgets/meter/../../../../src/core/lv_obj_style_gen.h **** {
 273:Drivers/lvgl/src/extra/widgets/meter/../../../../src/core/lv_obj_style_gen.h ****     lv_style_value_t v = lv_obj_get_style_prop(obj, part, LV_STYLE_OUTLINE_WIDTH);
 274:Drivers/lvgl/src/extra/widgets/meter/../../../../src/core/lv_obj_style_gen.h ****     return (lv_coord_t)v.num;
 275:Drivers/lvgl/src/extra/widgets/meter/../../../../src/core/lv_obj_style_gen.h **** }
 276:Drivers/lvgl/src/extra/widgets/meter/../../../../src/core/lv_obj_style_gen.h **** 
 277:Drivers/lvgl/src/extra/widgets/meter/../../../../src/core/lv_obj_style_gen.h **** static inline lv_color_t lv_obj_get_style_outline_color(const struct _lv_obj_t * obj, uint32_t part
 278:Drivers/lvgl/src/extra/widgets/meter/../../../../src/core/lv_obj_style_gen.h **** {
 279:Drivers/lvgl/src/extra/widgets/meter/../../../../src/core/lv_obj_style_gen.h ****     lv_style_value_t v = lv_obj_get_style_prop(obj, part, LV_STYLE_OUTLINE_COLOR);
 280:Drivers/lvgl/src/extra/widgets/meter/../../../../src/core/lv_obj_style_gen.h ****     return v.color;
 281:Drivers/lvgl/src/extra/widgets/meter/../../../../src/core/lv_obj_style_gen.h **** }
 282:Drivers/lvgl/src/extra/widgets/meter/../../../../src/core/lv_obj_style_gen.h **** 
 283:Drivers/lvgl/src/extra/widgets/meter/../../../../src/core/lv_obj_style_gen.h **** static inline lv_color_t lv_obj_get_style_outline_color_filtered(const struct _lv_obj_t * obj, uint
 284:Drivers/lvgl/src/extra/widgets/meter/../../../../src/core/lv_obj_style_gen.h **** {
 285:Drivers/lvgl/src/extra/widgets/meter/../../../../src/core/lv_obj_style_gen.h ****     lv_style_value_t v = _lv_obj_style_apply_color_filter(obj, part, lv_obj_get_style_prop(obj, par
 286:Drivers/lvgl/src/extra/widgets/meter/../../../../src/core/lv_obj_style_gen.h ****     return v.color;
ARM GAS  /var/folders/0z/tsy30v1j4xl4_7kw94k978ww0000gn/T//ccjxQgZI.s 			page 20


 287:Drivers/lvgl/src/extra/widgets/meter/../../../../src/core/lv_obj_style_gen.h **** }
 288:Drivers/lvgl/src/extra/widgets/meter/../../../../src/core/lv_obj_style_gen.h **** 
 289:Drivers/lvgl/src/extra/widgets/meter/../../../../src/core/lv_obj_style_gen.h **** static inline lv_opa_t lv_obj_get_style_outline_opa(const struct _lv_obj_t * obj, uint32_t part)
 290:Drivers/lvgl/src/extra/widgets/meter/../../../../src/core/lv_obj_style_gen.h **** {
 291:Drivers/lvgl/src/extra/widgets/meter/../../../../src/core/lv_obj_style_gen.h ****     lv_style_value_t v = lv_obj_get_style_prop(obj, part, LV_STYLE_OUTLINE_OPA);
 292:Drivers/lvgl/src/extra/widgets/meter/../../../../src/core/lv_obj_style_gen.h ****     return (lv_opa_t)v.num;
 293:Drivers/lvgl/src/extra/widgets/meter/../../../../src/core/lv_obj_style_gen.h **** }
 294:Drivers/lvgl/src/extra/widgets/meter/../../../../src/core/lv_obj_style_gen.h **** 
 295:Drivers/lvgl/src/extra/widgets/meter/../../../../src/core/lv_obj_style_gen.h **** static inline lv_coord_t lv_obj_get_style_outline_pad(const struct _lv_obj_t * obj, uint32_t part)
 296:Drivers/lvgl/src/extra/widgets/meter/../../../../src/core/lv_obj_style_gen.h **** {
 297:Drivers/lvgl/src/extra/widgets/meter/../../../../src/core/lv_obj_style_gen.h ****     lv_style_value_t v = lv_obj_get_style_prop(obj, part, LV_STYLE_OUTLINE_PAD);
 298:Drivers/lvgl/src/extra/widgets/meter/../../../../src/core/lv_obj_style_gen.h ****     return (lv_coord_t)v.num;
 299:Drivers/lvgl/src/extra/widgets/meter/../../../../src/core/lv_obj_style_gen.h **** }
 300:Drivers/lvgl/src/extra/widgets/meter/../../../../src/core/lv_obj_style_gen.h **** 
 301:Drivers/lvgl/src/extra/widgets/meter/../../../../src/core/lv_obj_style_gen.h **** static inline lv_coord_t lv_obj_get_style_shadow_width(const struct _lv_obj_t * obj, uint32_t part)
 302:Drivers/lvgl/src/extra/widgets/meter/../../../../src/core/lv_obj_style_gen.h **** {
 303:Drivers/lvgl/src/extra/widgets/meter/../../../../src/core/lv_obj_style_gen.h ****     lv_style_value_t v = lv_obj_get_style_prop(obj, part, LV_STYLE_SHADOW_WIDTH);
 304:Drivers/lvgl/src/extra/widgets/meter/../../../../src/core/lv_obj_style_gen.h ****     return (lv_coord_t)v.num;
 305:Drivers/lvgl/src/extra/widgets/meter/../../../../src/core/lv_obj_style_gen.h **** }
 306:Drivers/lvgl/src/extra/widgets/meter/../../../../src/core/lv_obj_style_gen.h **** 
 307:Drivers/lvgl/src/extra/widgets/meter/../../../../src/core/lv_obj_style_gen.h **** static inline lv_coord_t lv_obj_get_style_shadow_ofs_x(const struct _lv_obj_t * obj, uint32_t part)
 308:Drivers/lvgl/src/extra/widgets/meter/../../../../src/core/lv_obj_style_gen.h **** {
 309:Drivers/lvgl/src/extra/widgets/meter/../../../../src/core/lv_obj_style_gen.h ****     lv_style_value_t v = lv_obj_get_style_prop(obj, part, LV_STYLE_SHADOW_OFS_X);
 310:Drivers/lvgl/src/extra/widgets/meter/../../../../src/core/lv_obj_style_gen.h ****     return (lv_coord_t)v.num;
 311:Drivers/lvgl/src/extra/widgets/meter/../../../../src/core/lv_obj_style_gen.h **** }
 312:Drivers/lvgl/src/extra/widgets/meter/../../../../src/core/lv_obj_style_gen.h **** 
 313:Drivers/lvgl/src/extra/widgets/meter/../../../../src/core/lv_obj_style_gen.h **** static inline lv_coord_t lv_obj_get_style_shadow_ofs_y(const struct _lv_obj_t * obj, uint32_t part)
 314:Drivers/lvgl/src/extra/widgets/meter/../../../../src/core/lv_obj_style_gen.h **** {
 315:Drivers/lvgl/src/extra/widgets/meter/../../../../src/core/lv_obj_style_gen.h ****     lv_style_value_t v = lv_obj_get_style_prop(obj, part, LV_STYLE_SHADOW_OFS_Y);
 316:Drivers/lvgl/src/extra/widgets/meter/../../../../src/core/lv_obj_style_gen.h ****     return (lv_coord_t)v.num;
 317:Drivers/lvgl/src/extra/widgets/meter/../../../../src/core/lv_obj_style_gen.h **** }
 318:Drivers/lvgl/src/extra/widgets/meter/../../../../src/core/lv_obj_style_gen.h **** 
 319:Drivers/lvgl/src/extra/widgets/meter/../../../../src/core/lv_obj_style_gen.h **** static inline lv_coord_t lv_obj_get_style_shadow_spread(const struct _lv_obj_t * obj, uint32_t part
 320:Drivers/lvgl/src/extra/widgets/meter/../../../../src/core/lv_obj_style_gen.h **** {
 321:Drivers/lvgl/src/extra/widgets/meter/../../../../src/core/lv_obj_style_gen.h ****     lv_style_value_t v = lv_obj_get_style_prop(obj, part, LV_STYLE_SHADOW_SPREAD);
 322:Drivers/lvgl/src/extra/widgets/meter/../../../../src/core/lv_obj_style_gen.h ****     return (lv_coord_t)v.num;
 323:Drivers/lvgl/src/extra/widgets/meter/../../../../src/core/lv_obj_style_gen.h **** }
 324:Drivers/lvgl/src/extra/widgets/meter/../../../../src/core/lv_obj_style_gen.h **** 
 325:Drivers/lvgl/src/extra/widgets/meter/../../../../src/core/lv_obj_style_gen.h **** static inline lv_color_t lv_obj_get_style_shadow_color(const struct _lv_obj_t * obj, uint32_t part)
 326:Drivers/lvgl/src/extra/widgets/meter/../../../../src/core/lv_obj_style_gen.h **** {
 327:Drivers/lvgl/src/extra/widgets/meter/../../../../src/core/lv_obj_style_gen.h ****     lv_style_value_t v = lv_obj_get_style_prop(obj, part, LV_STYLE_SHADOW_COLOR);
 328:Drivers/lvgl/src/extra/widgets/meter/../../../../src/core/lv_obj_style_gen.h ****     return v.color;
 329:Drivers/lvgl/src/extra/widgets/meter/../../../../src/core/lv_obj_style_gen.h **** }
 330:Drivers/lvgl/src/extra/widgets/meter/../../../../src/core/lv_obj_style_gen.h **** 
 331:Drivers/lvgl/src/extra/widgets/meter/../../../../src/core/lv_obj_style_gen.h **** static inline lv_color_t lv_obj_get_style_shadow_color_filtered(const struct _lv_obj_t * obj, uint3
 332:Drivers/lvgl/src/extra/widgets/meter/../../../../src/core/lv_obj_style_gen.h **** {
 333:Drivers/lvgl/src/extra/widgets/meter/../../../../src/core/lv_obj_style_gen.h ****     lv_style_value_t v = _lv_obj_style_apply_color_filter(obj, part, lv_obj_get_style_prop(obj, par
 334:Drivers/lvgl/src/extra/widgets/meter/../../../../src/core/lv_obj_style_gen.h ****     return v.color;
 335:Drivers/lvgl/src/extra/widgets/meter/../../../../src/core/lv_obj_style_gen.h **** }
 336:Drivers/lvgl/src/extra/widgets/meter/../../../../src/core/lv_obj_style_gen.h **** 
 337:Drivers/lvgl/src/extra/widgets/meter/../../../../src/core/lv_obj_style_gen.h **** static inline lv_opa_t lv_obj_get_style_shadow_opa(const struct _lv_obj_t * obj, uint32_t part)
 338:Drivers/lvgl/src/extra/widgets/meter/../../../../src/core/lv_obj_style_gen.h **** {
 339:Drivers/lvgl/src/extra/widgets/meter/../../../../src/core/lv_obj_style_gen.h ****     lv_style_value_t v = lv_obj_get_style_prop(obj, part, LV_STYLE_SHADOW_OPA);
 340:Drivers/lvgl/src/extra/widgets/meter/../../../../src/core/lv_obj_style_gen.h ****     return (lv_opa_t)v.num;
 341:Drivers/lvgl/src/extra/widgets/meter/../../../../src/core/lv_obj_style_gen.h **** }
 342:Drivers/lvgl/src/extra/widgets/meter/../../../../src/core/lv_obj_style_gen.h **** 
 343:Drivers/lvgl/src/extra/widgets/meter/../../../../src/core/lv_obj_style_gen.h **** static inline lv_opa_t lv_obj_get_style_img_opa(const struct _lv_obj_t * obj, uint32_t part)
ARM GAS  /var/folders/0z/tsy30v1j4xl4_7kw94k978ww0000gn/T//ccjxQgZI.s 			page 21


 344:Drivers/lvgl/src/extra/widgets/meter/../../../../src/core/lv_obj_style_gen.h **** {
 345:Drivers/lvgl/src/extra/widgets/meter/../../../../src/core/lv_obj_style_gen.h ****     lv_style_value_t v = lv_obj_get_style_prop(obj, part, LV_STYLE_IMG_OPA);
 346:Drivers/lvgl/src/extra/widgets/meter/../../../../src/core/lv_obj_style_gen.h ****     return (lv_opa_t)v.num;
 347:Drivers/lvgl/src/extra/widgets/meter/../../../../src/core/lv_obj_style_gen.h **** }
 348:Drivers/lvgl/src/extra/widgets/meter/../../../../src/core/lv_obj_style_gen.h **** 
 349:Drivers/lvgl/src/extra/widgets/meter/../../../../src/core/lv_obj_style_gen.h **** static inline lv_color_t lv_obj_get_style_img_recolor(const struct _lv_obj_t * obj, uint32_t part)
 350:Drivers/lvgl/src/extra/widgets/meter/../../../../src/core/lv_obj_style_gen.h **** {
 351:Drivers/lvgl/src/extra/widgets/meter/../../../../src/core/lv_obj_style_gen.h ****     lv_style_value_t v = lv_obj_get_style_prop(obj, part, LV_STYLE_IMG_RECOLOR);
 352:Drivers/lvgl/src/extra/widgets/meter/../../../../src/core/lv_obj_style_gen.h ****     return v.color;
 353:Drivers/lvgl/src/extra/widgets/meter/../../../../src/core/lv_obj_style_gen.h **** }
 354:Drivers/lvgl/src/extra/widgets/meter/../../../../src/core/lv_obj_style_gen.h **** 
 355:Drivers/lvgl/src/extra/widgets/meter/../../../../src/core/lv_obj_style_gen.h **** static inline lv_color_t lv_obj_get_style_img_recolor_filtered(const struct _lv_obj_t * obj, uint32
 356:Drivers/lvgl/src/extra/widgets/meter/../../../../src/core/lv_obj_style_gen.h **** {
 357:Drivers/lvgl/src/extra/widgets/meter/../../../../src/core/lv_obj_style_gen.h ****     lv_style_value_t v = _lv_obj_style_apply_color_filter(obj, part, lv_obj_get_style_prop(obj, par
 358:Drivers/lvgl/src/extra/widgets/meter/../../../../src/core/lv_obj_style_gen.h ****     return v.color;
 359:Drivers/lvgl/src/extra/widgets/meter/../../../../src/core/lv_obj_style_gen.h **** }
 360:Drivers/lvgl/src/extra/widgets/meter/../../../../src/core/lv_obj_style_gen.h **** 
 361:Drivers/lvgl/src/extra/widgets/meter/../../../../src/core/lv_obj_style_gen.h **** static inline lv_opa_t lv_obj_get_style_img_recolor_opa(const struct _lv_obj_t * obj, uint32_t part
 362:Drivers/lvgl/src/extra/widgets/meter/../../../../src/core/lv_obj_style_gen.h **** {
 363:Drivers/lvgl/src/extra/widgets/meter/../../../../src/core/lv_obj_style_gen.h ****     lv_style_value_t v = lv_obj_get_style_prop(obj, part, LV_STYLE_IMG_RECOLOR_OPA);
 364:Drivers/lvgl/src/extra/widgets/meter/../../../../src/core/lv_obj_style_gen.h ****     return (lv_opa_t)v.num;
 365:Drivers/lvgl/src/extra/widgets/meter/../../../../src/core/lv_obj_style_gen.h **** }
 366:Drivers/lvgl/src/extra/widgets/meter/../../../../src/core/lv_obj_style_gen.h **** 
 367:Drivers/lvgl/src/extra/widgets/meter/../../../../src/core/lv_obj_style_gen.h **** static inline lv_coord_t lv_obj_get_style_line_width(const struct _lv_obj_t * obj, uint32_t part)
 368:Drivers/lvgl/src/extra/widgets/meter/../../../../src/core/lv_obj_style_gen.h **** {
 369:Drivers/lvgl/src/extra/widgets/meter/../../../../src/core/lv_obj_style_gen.h ****     lv_style_value_t v = lv_obj_get_style_prop(obj, part, LV_STYLE_LINE_WIDTH);
 370:Drivers/lvgl/src/extra/widgets/meter/../../../../src/core/lv_obj_style_gen.h ****     return (lv_coord_t)v.num;
 371:Drivers/lvgl/src/extra/widgets/meter/../../../../src/core/lv_obj_style_gen.h **** }
 372:Drivers/lvgl/src/extra/widgets/meter/../../../../src/core/lv_obj_style_gen.h **** 
 373:Drivers/lvgl/src/extra/widgets/meter/../../../../src/core/lv_obj_style_gen.h **** static inline lv_coord_t lv_obj_get_style_line_dash_width(const struct _lv_obj_t * obj, uint32_t pa
 374:Drivers/lvgl/src/extra/widgets/meter/../../../../src/core/lv_obj_style_gen.h **** {
 375:Drivers/lvgl/src/extra/widgets/meter/../../../../src/core/lv_obj_style_gen.h ****     lv_style_value_t v = lv_obj_get_style_prop(obj, part, LV_STYLE_LINE_DASH_WIDTH);
 376:Drivers/lvgl/src/extra/widgets/meter/../../../../src/core/lv_obj_style_gen.h ****     return (lv_coord_t)v.num;
 377:Drivers/lvgl/src/extra/widgets/meter/../../../../src/core/lv_obj_style_gen.h **** }
 378:Drivers/lvgl/src/extra/widgets/meter/../../../../src/core/lv_obj_style_gen.h **** 
 379:Drivers/lvgl/src/extra/widgets/meter/../../../../src/core/lv_obj_style_gen.h **** static inline lv_coord_t lv_obj_get_style_line_dash_gap(const struct _lv_obj_t * obj, uint32_t part
 380:Drivers/lvgl/src/extra/widgets/meter/../../../../src/core/lv_obj_style_gen.h **** {
 381:Drivers/lvgl/src/extra/widgets/meter/../../../../src/core/lv_obj_style_gen.h ****     lv_style_value_t v = lv_obj_get_style_prop(obj, part, LV_STYLE_LINE_DASH_GAP);
 382:Drivers/lvgl/src/extra/widgets/meter/../../../../src/core/lv_obj_style_gen.h ****     return (lv_coord_t)v.num;
 383:Drivers/lvgl/src/extra/widgets/meter/../../../../src/core/lv_obj_style_gen.h **** }
 384:Drivers/lvgl/src/extra/widgets/meter/../../../../src/core/lv_obj_style_gen.h **** 
 385:Drivers/lvgl/src/extra/widgets/meter/../../../../src/core/lv_obj_style_gen.h **** static inline bool lv_obj_get_style_line_rounded(const struct _lv_obj_t * obj, uint32_t part)
 386:Drivers/lvgl/src/extra/widgets/meter/../../../../src/core/lv_obj_style_gen.h **** {
 387:Drivers/lvgl/src/extra/widgets/meter/../../../../src/core/lv_obj_style_gen.h ****     lv_style_value_t v = lv_obj_get_style_prop(obj, part, LV_STYLE_LINE_ROUNDED);
 388:Drivers/lvgl/src/extra/widgets/meter/../../../../src/core/lv_obj_style_gen.h ****     return (bool)v.num;
 389:Drivers/lvgl/src/extra/widgets/meter/../../../../src/core/lv_obj_style_gen.h **** }
 390:Drivers/lvgl/src/extra/widgets/meter/../../../../src/core/lv_obj_style_gen.h **** 
 391:Drivers/lvgl/src/extra/widgets/meter/../../../../src/core/lv_obj_style_gen.h **** static inline lv_color_t lv_obj_get_style_line_color(const struct _lv_obj_t * obj, uint32_t part)
 392:Drivers/lvgl/src/extra/widgets/meter/../../../../src/core/lv_obj_style_gen.h **** {
 393:Drivers/lvgl/src/extra/widgets/meter/../../../../src/core/lv_obj_style_gen.h ****     lv_style_value_t v = lv_obj_get_style_prop(obj, part, LV_STYLE_LINE_COLOR);
 394:Drivers/lvgl/src/extra/widgets/meter/../../../../src/core/lv_obj_style_gen.h ****     return v.color;
 395:Drivers/lvgl/src/extra/widgets/meter/../../../../src/core/lv_obj_style_gen.h **** }
 396:Drivers/lvgl/src/extra/widgets/meter/../../../../src/core/lv_obj_style_gen.h **** 
 397:Drivers/lvgl/src/extra/widgets/meter/../../../../src/core/lv_obj_style_gen.h **** static inline lv_color_t lv_obj_get_style_line_color_filtered(const struct _lv_obj_t * obj, uint32_
 398:Drivers/lvgl/src/extra/widgets/meter/../../../../src/core/lv_obj_style_gen.h **** {
 399:Drivers/lvgl/src/extra/widgets/meter/../../../../src/core/lv_obj_style_gen.h ****     lv_style_value_t v = _lv_obj_style_apply_color_filter(obj, part, lv_obj_get_style_prop(obj, par
 400:Drivers/lvgl/src/extra/widgets/meter/../../../../src/core/lv_obj_style_gen.h ****     return v.color;
ARM GAS  /var/folders/0z/tsy30v1j4xl4_7kw94k978ww0000gn/T//ccjxQgZI.s 			page 22


 401:Drivers/lvgl/src/extra/widgets/meter/../../../../src/core/lv_obj_style_gen.h **** }
 402:Drivers/lvgl/src/extra/widgets/meter/../../../../src/core/lv_obj_style_gen.h **** 
 403:Drivers/lvgl/src/extra/widgets/meter/../../../../src/core/lv_obj_style_gen.h **** static inline lv_opa_t lv_obj_get_style_line_opa(const struct _lv_obj_t * obj, uint32_t part)
 404:Drivers/lvgl/src/extra/widgets/meter/../../../../src/core/lv_obj_style_gen.h **** {
 405:Drivers/lvgl/src/extra/widgets/meter/../../../../src/core/lv_obj_style_gen.h ****     lv_style_value_t v = lv_obj_get_style_prop(obj, part, LV_STYLE_LINE_OPA);
 406:Drivers/lvgl/src/extra/widgets/meter/../../../../src/core/lv_obj_style_gen.h ****     return (lv_opa_t)v.num;
 407:Drivers/lvgl/src/extra/widgets/meter/../../../../src/core/lv_obj_style_gen.h **** }
 408:Drivers/lvgl/src/extra/widgets/meter/../../../../src/core/lv_obj_style_gen.h **** 
 409:Drivers/lvgl/src/extra/widgets/meter/../../../../src/core/lv_obj_style_gen.h **** static inline lv_coord_t lv_obj_get_style_arc_width(const struct _lv_obj_t * obj, uint32_t part)
 410:Drivers/lvgl/src/extra/widgets/meter/../../../../src/core/lv_obj_style_gen.h **** {
 411:Drivers/lvgl/src/extra/widgets/meter/../../../../src/core/lv_obj_style_gen.h ****     lv_style_value_t v = lv_obj_get_style_prop(obj, part, LV_STYLE_ARC_WIDTH);
 412:Drivers/lvgl/src/extra/widgets/meter/../../../../src/core/lv_obj_style_gen.h ****     return (lv_coord_t)v.num;
 413:Drivers/lvgl/src/extra/widgets/meter/../../../../src/core/lv_obj_style_gen.h **** }
 414:Drivers/lvgl/src/extra/widgets/meter/../../../../src/core/lv_obj_style_gen.h **** 
 415:Drivers/lvgl/src/extra/widgets/meter/../../../../src/core/lv_obj_style_gen.h **** static inline bool lv_obj_get_style_arc_rounded(const struct _lv_obj_t * obj, uint32_t part)
 416:Drivers/lvgl/src/extra/widgets/meter/../../../../src/core/lv_obj_style_gen.h **** {
 417:Drivers/lvgl/src/extra/widgets/meter/../../../../src/core/lv_obj_style_gen.h ****     lv_style_value_t v = lv_obj_get_style_prop(obj, part, LV_STYLE_ARC_ROUNDED);
 153              		.loc 2 417 26 view .LVU31
 154 000a 4FF4A021 		mov	r1, #327680
 155              	.LVL14:
 156              		.loc 2 417 26 view .LVU32
 157 000e 5122     		movs	r2, #81
 158              	.LVL15:
 159              		.loc 2 417 26 view .LVU33
 160              	.LBE51:
 161              	.LBE50:
 630:Drivers/lvgl/src/extra/widgets/meter/lv_meter.c ****     bool rounded = lv_obj_get_style_arc_rounded(obj, LV_PART_ITEMS);
 162              		.loc 1 630 1 view .LVU34
 163 0010 8246     		mov	r10, r0
 164              	.LVL16:
 165              	.LBB56:
 166              	.LBI50:
 415:Drivers/lvgl/src/extra/widgets/meter/../../../../src/core/lv_obj_style_gen.h **** {
 167              		.loc 2 415 20 is_stmt 1 view .LVU35
 168              	.LBB52:
 169              		.loc 2 417 5 view .LVU36
 170              	.LBE52:
 171              	.LBE56:
 630:Drivers/lvgl/src/extra/widgets/meter/lv_meter.c ****     bool rounded = lv_obj_get_style_arc_rounded(obj, LV_PART_ITEMS);
 172              		.loc 1 630 1 is_stmt 0 view .LVU37
 173 0012 1E46     		mov	r6, r3
 174              	.LBB57:
 175              	.LBB53:
 176              		.loc 2 417 26 view .LVU38
 177 0014 FFF7FEFF 		bl	lv_obj_get_style_prop
 178              	.LVL17:
 418:Drivers/lvgl/src/extra/widgets/meter/../../../../src/core/lv_obj_style_gen.h ****     return (bool)v.num;
 179              		.loc 2 418 5 is_stmt 1 view .LVU39
 180              		.loc 2 418 5 is_stmt 0 view .LVU40
 181              	.LBE53:
 182              	.LBE57:
 632:Drivers/lvgl/src/extra/widgets/meter/lv_meter.c **** 
 633:Drivers/lvgl/src/extra/widgets/meter/lv_meter.c ****     lv_area_t scale_area;
 183              		.loc 1 633 5 is_stmt 1 view .LVU41
 634:Drivers/lvgl/src/extra/widgets/meter/lv_meter.c ****     lv_obj_get_content_coords(obj, &scale_area);
 184              		.loc 1 634 5 view .LVU42
 185              	.LBB58:
ARM GAS  /var/folders/0z/tsy30v1j4xl4_7kw94k978ww0000gn/T//ccjxQgZI.s 			page 23


 186              	.LBB54:
 187              		.loc 2 418 12 is_stmt 0 view .LVU43
 188 0018 031E     		subs	r3, r0, #0
 189 001a 18BF     		it	ne
 190 001c 0123     		movne	r3, #1
 191              	.LBE54:
 192              	.LBE58:
 193              		.loc 1 634 5 view .LVU44
 194 001e 06A9     		add	r1, sp, #24
 195 0020 5046     		mov	r0, r10
 196              	.LBB59:
 197              	.LBB55:
 198              		.loc 2 418 12 view .LVU45
 199 0022 0593     		str	r3, [sp, #20]
 200              	.LVL18:
 201              		.loc 2 418 12 view .LVU46
 202              	.LBE55:
 203              	.LBE59:
 204              		.loc 1 634 5 view .LVU47
 205 0024 FFF7FEFF 		bl	lv_obj_get_content_coords
 206              	.LVL19:
 635:Drivers/lvgl/src/extra/widgets/meter/lv_meter.c **** 
 636:Drivers/lvgl/src/extra/widgets/meter/lv_meter.c ****     lv_coord_t r_out = lv_area_get_width(&scale_area) / 2;
 207              		.loc 1 636 5 is_stmt 1 view .LVU48
 208              	.LBB60:
 209              	.LBI60:
 210              		.file 3 "Drivers/lvgl/src/extra/widgets/meter/../../../../src/hal/../draw/../misc/../font/../misc/
   1:Drivers/lvgl/src/extra/widgets/meter/../../../../src/hal/../draw/../misc/../font/../misc/lv_area.h **** /**
   2:Drivers/lvgl/src/extra/widgets/meter/../../../../src/hal/../draw/../misc/../font/../misc/lv_area.h ****  * @file lv_area.h
   3:Drivers/lvgl/src/extra/widgets/meter/../../../../src/hal/../draw/../misc/../font/../misc/lv_area.h ****  *
   4:Drivers/lvgl/src/extra/widgets/meter/../../../../src/hal/../draw/../misc/../font/../misc/lv_area.h ****  */
   5:Drivers/lvgl/src/extra/widgets/meter/../../../../src/hal/../draw/../misc/../font/../misc/lv_area.h **** 
   6:Drivers/lvgl/src/extra/widgets/meter/../../../../src/hal/../draw/../misc/../font/../misc/lv_area.h **** #ifndef LV_AREA_H
   7:Drivers/lvgl/src/extra/widgets/meter/../../../../src/hal/../draw/../misc/../font/../misc/lv_area.h **** #define LV_AREA_H
   8:Drivers/lvgl/src/extra/widgets/meter/../../../../src/hal/../draw/../misc/../font/../misc/lv_area.h **** 
   9:Drivers/lvgl/src/extra/widgets/meter/../../../../src/hal/../draw/../misc/../font/../misc/lv_area.h **** #ifdef __cplusplus
  10:Drivers/lvgl/src/extra/widgets/meter/../../../../src/hal/../draw/../misc/../font/../misc/lv_area.h **** extern "C" {
  11:Drivers/lvgl/src/extra/widgets/meter/../../../../src/hal/../draw/../misc/../font/../misc/lv_area.h **** #endif
  12:Drivers/lvgl/src/extra/widgets/meter/../../../../src/hal/../draw/../misc/../font/../misc/lv_area.h **** 
  13:Drivers/lvgl/src/extra/widgets/meter/../../../../src/hal/../draw/../misc/../font/../misc/lv_area.h **** /*********************
  14:Drivers/lvgl/src/extra/widgets/meter/../../../../src/hal/../draw/../misc/../font/../misc/lv_area.h ****  *      INCLUDES
  15:Drivers/lvgl/src/extra/widgets/meter/../../../../src/hal/../draw/../misc/../font/../misc/lv_area.h ****  *********************/
  16:Drivers/lvgl/src/extra/widgets/meter/../../../../src/hal/../draw/../misc/../font/../misc/lv_area.h **** #include "../lv_conf_internal.h"
  17:Drivers/lvgl/src/extra/widgets/meter/../../../../src/hal/../draw/../misc/../font/../misc/lv_area.h **** #include <stdbool.h>
  18:Drivers/lvgl/src/extra/widgets/meter/../../../../src/hal/../draw/../misc/../font/../misc/lv_area.h **** #include <stdint.h>
  19:Drivers/lvgl/src/extra/widgets/meter/../../../../src/hal/../draw/../misc/../font/../misc/lv_area.h **** 
  20:Drivers/lvgl/src/extra/widgets/meter/../../../../src/hal/../draw/../misc/../font/../misc/lv_area.h **** /*********************
  21:Drivers/lvgl/src/extra/widgets/meter/../../../../src/hal/../draw/../misc/../font/../misc/lv_area.h ****  *      DEFINES
  22:Drivers/lvgl/src/extra/widgets/meter/../../../../src/hal/../draw/../misc/../font/../misc/lv_area.h ****  *********************/
  23:Drivers/lvgl/src/extra/widgets/meter/../../../../src/hal/../draw/../misc/../font/../misc/lv_area.h **** 
  24:Drivers/lvgl/src/extra/widgets/meter/../../../../src/hal/../draw/../misc/../font/../misc/lv_area.h **** #if LV_USE_LARGE_COORD
  25:Drivers/lvgl/src/extra/widgets/meter/../../../../src/hal/../draw/../misc/../font/../misc/lv_area.h **** typedef int32_t lv_coord_t;
  26:Drivers/lvgl/src/extra/widgets/meter/../../../../src/hal/../draw/../misc/../font/../misc/lv_area.h **** #else
  27:Drivers/lvgl/src/extra/widgets/meter/../../../../src/hal/../draw/../misc/../font/../misc/lv_area.h **** typedef int16_t lv_coord_t;
  28:Drivers/lvgl/src/extra/widgets/meter/../../../../src/hal/../draw/../misc/../font/../misc/lv_area.h **** #endif
  29:Drivers/lvgl/src/extra/widgets/meter/../../../../src/hal/../draw/../misc/../font/../misc/lv_area.h **** 
  30:Drivers/lvgl/src/extra/widgets/meter/../../../../src/hal/../draw/../misc/../font/../misc/lv_area.h **** /**********************
ARM GAS  /var/folders/0z/tsy30v1j4xl4_7kw94k978ww0000gn/T//ccjxQgZI.s 			page 24


  31:Drivers/lvgl/src/extra/widgets/meter/../../../../src/hal/../draw/../misc/../font/../misc/lv_area.h ****  *      TYPEDEFS
  32:Drivers/lvgl/src/extra/widgets/meter/../../../../src/hal/../draw/../misc/../font/../misc/lv_area.h ****  **********************/
  33:Drivers/lvgl/src/extra/widgets/meter/../../../../src/hal/../draw/../misc/../font/../misc/lv_area.h **** 
  34:Drivers/lvgl/src/extra/widgets/meter/../../../../src/hal/../draw/../misc/../font/../misc/lv_area.h **** /**
  35:Drivers/lvgl/src/extra/widgets/meter/../../../../src/hal/../draw/../misc/../font/../misc/lv_area.h ****  * Represents a point on the screen.
  36:Drivers/lvgl/src/extra/widgets/meter/../../../../src/hal/../draw/../misc/../font/../misc/lv_area.h ****  */
  37:Drivers/lvgl/src/extra/widgets/meter/../../../../src/hal/../draw/../misc/../font/../misc/lv_area.h **** typedef struct {
  38:Drivers/lvgl/src/extra/widgets/meter/../../../../src/hal/../draw/../misc/../font/../misc/lv_area.h ****     lv_coord_t x;
  39:Drivers/lvgl/src/extra/widgets/meter/../../../../src/hal/../draw/../misc/../font/../misc/lv_area.h ****     lv_coord_t y;
  40:Drivers/lvgl/src/extra/widgets/meter/../../../../src/hal/../draw/../misc/../font/../misc/lv_area.h **** } lv_point_t;
  41:Drivers/lvgl/src/extra/widgets/meter/../../../../src/hal/../draw/../misc/../font/../misc/lv_area.h **** 
  42:Drivers/lvgl/src/extra/widgets/meter/../../../../src/hal/../draw/../misc/../font/../misc/lv_area.h **** /** Represents an area of the screen.*/
  43:Drivers/lvgl/src/extra/widgets/meter/../../../../src/hal/../draw/../misc/../font/../misc/lv_area.h **** typedef struct {
  44:Drivers/lvgl/src/extra/widgets/meter/../../../../src/hal/../draw/../misc/../font/../misc/lv_area.h ****     lv_coord_t x1;
  45:Drivers/lvgl/src/extra/widgets/meter/../../../../src/hal/../draw/../misc/../font/../misc/lv_area.h ****     lv_coord_t y1;
  46:Drivers/lvgl/src/extra/widgets/meter/../../../../src/hal/../draw/../misc/../font/../misc/lv_area.h ****     lv_coord_t x2;
  47:Drivers/lvgl/src/extra/widgets/meter/../../../../src/hal/../draw/../misc/../font/../misc/lv_area.h ****     lv_coord_t y2;
  48:Drivers/lvgl/src/extra/widgets/meter/../../../../src/hal/../draw/../misc/../font/../misc/lv_area.h **** } lv_area_t;
  49:Drivers/lvgl/src/extra/widgets/meter/../../../../src/hal/../draw/../misc/../font/../misc/lv_area.h **** 
  50:Drivers/lvgl/src/extra/widgets/meter/../../../../src/hal/../draw/../misc/../font/../misc/lv_area.h **** /** Alignments*/
  51:Drivers/lvgl/src/extra/widgets/meter/../../../../src/hal/../draw/../misc/../font/../misc/lv_area.h **** enum {
  52:Drivers/lvgl/src/extra/widgets/meter/../../../../src/hal/../draw/../misc/../font/../misc/lv_area.h ****     LV_ALIGN_DEFAULT = 0,
  53:Drivers/lvgl/src/extra/widgets/meter/../../../../src/hal/../draw/../misc/../font/../misc/lv_area.h ****     LV_ALIGN_TOP_LEFT,
  54:Drivers/lvgl/src/extra/widgets/meter/../../../../src/hal/../draw/../misc/../font/../misc/lv_area.h ****     LV_ALIGN_TOP_MID,
  55:Drivers/lvgl/src/extra/widgets/meter/../../../../src/hal/../draw/../misc/../font/../misc/lv_area.h ****     LV_ALIGN_TOP_RIGHT,
  56:Drivers/lvgl/src/extra/widgets/meter/../../../../src/hal/../draw/../misc/../font/../misc/lv_area.h ****     LV_ALIGN_BOTTOM_LEFT,
  57:Drivers/lvgl/src/extra/widgets/meter/../../../../src/hal/../draw/../misc/../font/../misc/lv_area.h ****     LV_ALIGN_BOTTOM_MID,
  58:Drivers/lvgl/src/extra/widgets/meter/../../../../src/hal/../draw/../misc/../font/../misc/lv_area.h ****     LV_ALIGN_BOTTOM_RIGHT,
  59:Drivers/lvgl/src/extra/widgets/meter/../../../../src/hal/../draw/../misc/../font/../misc/lv_area.h ****     LV_ALIGN_LEFT_MID,
  60:Drivers/lvgl/src/extra/widgets/meter/../../../../src/hal/../draw/../misc/../font/../misc/lv_area.h ****     LV_ALIGN_RIGHT_MID,
  61:Drivers/lvgl/src/extra/widgets/meter/../../../../src/hal/../draw/../misc/../font/../misc/lv_area.h ****     LV_ALIGN_CENTER,
  62:Drivers/lvgl/src/extra/widgets/meter/../../../../src/hal/../draw/../misc/../font/../misc/lv_area.h **** 
  63:Drivers/lvgl/src/extra/widgets/meter/../../../../src/hal/../draw/../misc/../font/../misc/lv_area.h ****     LV_ALIGN_OUT_TOP_LEFT,
  64:Drivers/lvgl/src/extra/widgets/meter/../../../../src/hal/../draw/../misc/../font/../misc/lv_area.h ****     LV_ALIGN_OUT_TOP_MID,
  65:Drivers/lvgl/src/extra/widgets/meter/../../../../src/hal/../draw/../misc/../font/../misc/lv_area.h ****     LV_ALIGN_OUT_TOP_RIGHT,
  66:Drivers/lvgl/src/extra/widgets/meter/../../../../src/hal/../draw/../misc/../font/../misc/lv_area.h ****     LV_ALIGN_OUT_BOTTOM_LEFT,
  67:Drivers/lvgl/src/extra/widgets/meter/../../../../src/hal/../draw/../misc/../font/../misc/lv_area.h ****     LV_ALIGN_OUT_BOTTOM_MID,
  68:Drivers/lvgl/src/extra/widgets/meter/../../../../src/hal/../draw/../misc/../font/../misc/lv_area.h ****     LV_ALIGN_OUT_BOTTOM_RIGHT,
  69:Drivers/lvgl/src/extra/widgets/meter/../../../../src/hal/../draw/../misc/../font/../misc/lv_area.h ****     LV_ALIGN_OUT_LEFT_TOP,
  70:Drivers/lvgl/src/extra/widgets/meter/../../../../src/hal/../draw/../misc/../font/../misc/lv_area.h ****     LV_ALIGN_OUT_LEFT_MID,
  71:Drivers/lvgl/src/extra/widgets/meter/../../../../src/hal/../draw/../misc/../font/../misc/lv_area.h ****     LV_ALIGN_OUT_LEFT_BOTTOM,
  72:Drivers/lvgl/src/extra/widgets/meter/../../../../src/hal/../draw/../misc/../font/../misc/lv_area.h ****     LV_ALIGN_OUT_RIGHT_TOP,
  73:Drivers/lvgl/src/extra/widgets/meter/../../../../src/hal/../draw/../misc/../font/../misc/lv_area.h ****     LV_ALIGN_OUT_RIGHT_MID,
  74:Drivers/lvgl/src/extra/widgets/meter/../../../../src/hal/../draw/../misc/../font/../misc/lv_area.h ****     LV_ALIGN_OUT_RIGHT_BOTTOM,
  75:Drivers/lvgl/src/extra/widgets/meter/../../../../src/hal/../draw/../misc/../font/../misc/lv_area.h **** };
  76:Drivers/lvgl/src/extra/widgets/meter/../../../../src/hal/../draw/../misc/../font/../misc/lv_area.h **** typedef uint8_t lv_align_t;
  77:Drivers/lvgl/src/extra/widgets/meter/../../../../src/hal/../draw/../misc/../font/../misc/lv_area.h **** 
  78:Drivers/lvgl/src/extra/widgets/meter/../../../../src/hal/../draw/../misc/../font/../misc/lv_area.h **** enum {
  79:Drivers/lvgl/src/extra/widgets/meter/../../../../src/hal/../draw/../misc/../font/../misc/lv_area.h ****     LV_DIR_NONE     = 0x00,
  80:Drivers/lvgl/src/extra/widgets/meter/../../../../src/hal/../draw/../misc/../font/../misc/lv_area.h ****     LV_DIR_LEFT     = (1 << 0),
  81:Drivers/lvgl/src/extra/widgets/meter/../../../../src/hal/../draw/../misc/../font/../misc/lv_area.h ****     LV_DIR_RIGHT    = (1 << 1),
  82:Drivers/lvgl/src/extra/widgets/meter/../../../../src/hal/../draw/../misc/../font/../misc/lv_area.h ****     LV_DIR_TOP      = (1 << 2),
  83:Drivers/lvgl/src/extra/widgets/meter/../../../../src/hal/../draw/../misc/../font/../misc/lv_area.h ****     LV_DIR_BOTTOM   = (1 << 3),
  84:Drivers/lvgl/src/extra/widgets/meter/../../../../src/hal/../draw/../misc/../font/../misc/lv_area.h ****     LV_DIR_HOR      = LV_DIR_LEFT | LV_DIR_RIGHT,
  85:Drivers/lvgl/src/extra/widgets/meter/../../../../src/hal/../draw/../misc/../font/../misc/lv_area.h ****     LV_DIR_VER      = LV_DIR_TOP | LV_DIR_BOTTOM,
  86:Drivers/lvgl/src/extra/widgets/meter/../../../../src/hal/../draw/../misc/../font/../misc/lv_area.h ****     LV_DIR_ALL      = LV_DIR_HOR | LV_DIR_VER,
  87:Drivers/lvgl/src/extra/widgets/meter/../../../../src/hal/../draw/../misc/../font/../misc/lv_area.h **** };
ARM GAS  /var/folders/0z/tsy30v1j4xl4_7kw94k978ww0000gn/T//ccjxQgZI.s 			page 25


  88:Drivers/lvgl/src/extra/widgets/meter/../../../../src/hal/../draw/../misc/../font/../misc/lv_area.h **** 
  89:Drivers/lvgl/src/extra/widgets/meter/../../../../src/hal/../draw/../misc/../font/../misc/lv_area.h **** typedef uint8_t lv_dir_t;
  90:Drivers/lvgl/src/extra/widgets/meter/../../../../src/hal/../draw/../misc/../font/../misc/lv_area.h **** 
  91:Drivers/lvgl/src/extra/widgets/meter/../../../../src/hal/../draw/../misc/../font/../misc/lv_area.h **** /**********************
  92:Drivers/lvgl/src/extra/widgets/meter/../../../../src/hal/../draw/../misc/../font/../misc/lv_area.h ****  * GLOBAL PROTOTYPES
  93:Drivers/lvgl/src/extra/widgets/meter/../../../../src/hal/../draw/../misc/../font/../misc/lv_area.h ****  **********************/
  94:Drivers/lvgl/src/extra/widgets/meter/../../../../src/hal/../draw/../misc/../font/../misc/lv_area.h **** 
  95:Drivers/lvgl/src/extra/widgets/meter/../../../../src/hal/../draw/../misc/../font/../misc/lv_area.h **** /**
  96:Drivers/lvgl/src/extra/widgets/meter/../../../../src/hal/../draw/../misc/../font/../misc/lv_area.h ****  * Initialize an area
  97:Drivers/lvgl/src/extra/widgets/meter/../../../../src/hal/../draw/../misc/../font/../misc/lv_area.h ****  * @param area_p pointer to an area
  98:Drivers/lvgl/src/extra/widgets/meter/../../../../src/hal/../draw/../misc/../font/../misc/lv_area.h ****  * @param x1 left coordinate of the area
  99:Drivers/lvgl/src/extra/widgets/meter/../../../../src/hal/../draw/../misc/../font/../misc/lv_area.h ****  * @param y1 top coordinate of the area
 100:Drivers/lvgl/src/extra/widgets/meter/../../../../src/hal/../draw/../misc/../font/../misc/lv_area.h ****  * @param x2 right coordinate of the area
 101:Drivers/lvgl/src/extra/widgets/meter/../../../../src/hal/../draw/../misc/../font/../misc/lv_area.h ****  * @param y2 bottom coordinate of the area
 102:Drivers/lvgl/src/extra/widgets/meter/../../../../src/hal/../draw/../misc/../font/../misc/lv_area.h ****  */
 103:Drivers/lvgl/src/extra/widgets/meter/../../../../src/hal/../draw/../misc/../font/../misc/lv_area.h **** void lv_area_set(lv_area_t * area_p, lv_coord_t x1, lv_coord_t y1, lv_coord_t x2, lv_coord_t y2);
 104:Drivers/lvgl/src/extra/widgets/meter/../../../../src/hal/../draw/../misc/../font/../misc/lv_area.h **** 
 105:Drivers/lvgl/src/extra/widgets/meter/../../../../src/hal/../draw/../misc/../font/../misc/lv_area.h **** /**
 106:Drivers/lvgl/src/extra/widgets/meter/../../../../src/hal/../draw/../misc/../font/../misc/lv_area.h ****  * Copy an area
 107:Drivers/lvgl/src/extra/widgets/meter/../../../../src/hal/../draw/../misc/../font/../misc/lv_area.h ****  * @param dest pointer to the destination area
 108:Drivers/lvgl/src/extra/widgets/meter/../../../../src/hal/../draw/../misc/../font/../misc/lv_area.h ****  * @param src pointer to the source area
 109:Drivers/lvgl/src/extra/widgets/meter/../../../../src/hal/../draw/../misc/../font/../misc/lv_area.h ****  */
 110:Drivers/lvgl/src/extra/widgets/meter/../../../../src/hal/../draw/../misc/../font/../misc/lv_area.h **** inline static void lv_area_copy(lv_area_t * dest, const lv_area_t * src)
 111:Drivers/lvgl/src/extra/widgets/meter/../../../../src/hal/../draw/../misc/../font/../misc/lv_area.h **** {
 112:Drivers/lvgl/src/extra/widgets/meter/../../../../src/hal/../draw/../misc/../font/../misc/lv_area.h ****     dest->x1 = src->x1;
 113:Drivers/lvgl/src/extra/widgets/meter/../../../../src/hal/../draw/../misc/../font/../misc/lv_area.h ****     dest->y1 = src->y1;
 114:Drivers/lvgl/src/extra/widgets/meter/../../../../src/hal/../draw/../misc/../font/../misc/lv_area.h ****     dest->x2 = src->x2;
 115:Drivers/lvgl/src/extra/widgets/meter/../../../../src/hal/../draw/../misc/../font/../misc/lv_area.h ****     dest->y2 = src->y2;
 116:Drivers/lvgl/src/extra/widgets/meter/../../../../src/hal/../draw/../misc/../font/../misc/lv_area.h **** }
 117:Drivers/lvgl/src/extra/widgets/meter/../../../../src/hal/../draw/../misc/../font/../misc/lv_area.h **** 
 118:Drivers/lvgl/src/extra/widgets/meter/../../../../src/hal/../draw/../misc/../font/../misc/lv_area.h **** /**
 119:Drivers/lvgl/src/extra/widgets/meter/../../../../src/hal/../draw/../misc/../font/../misc/lv_area.h ****  * Get the width of an area
 120:Drivers/lvgl/src/extra/widgets/meter/../../../../src/hal/../draw/../misc/../font/../misc/lv_area.h ****  * @param area_p pointer to an area
 121:Drivers/lvgl/src/extra/widgets/meter/../../../../src/hal/../draw/../misc/../font/../misc/lv_area.h ****  * @return the width of the area (if x1 == x2 -> width = 1)
 122:Drivers/lvgl/src/extra/widgets/meter/../../../../src/hal/../draw/../misc/../font/../misc/lv_area.h ****  */
 123:Drivers/lvgl/src/extra/widgets/meter/../../../../src/hal/../draw/../misc/../font/../misc/lv_area.h **** static inline lv_coord_t lv_area_get_width(const lv_area_t * area_p)
 211              		.loc 3 123 26 view .LVU49
 212              	.LBB61:
 124:Drivers/lvgl/src/extra/widgets/meter/../../../../src/hal/../draw/../misc/../font/../misc/lv_area.h **** {
 125:Drivers/lvgl/src/extra/widgets/meter/../../../../src/hal/../draw/../misc/../font/../misc/lv_area.h ****     return (lv_coord_t)(area_p->x2 - area_p->x1 + 1);
 213              		.loc 3 125 5 view .LVU50
 214              	.LBE61:
 215              	.LBE60:
 637:Drivers/lvgl/src/extra/widgets/meter/lv_meter.c ****     lv_point_t scale_center;
 638:Drivers/lvgl/src/extra/widgets/meter/lv_meter.c ****     scale_center.x = scale_area.x1 + r_out;
 639:Drivers/lvgl/src/extra/widgets/meter/lv_meter.c ****     scale_center.y = scale_area.y1 + r_out;
 640:Drivers/lvgl/src/extra/widgets/meter/lv_meter.c **** 
 641:Drivers/lvgl/src/extra/widgets/meter/lv_meter.c ****     r_out += indic->type_data.arc.r_mod;
 642:Drivers/lvgl/src/extra/widgets/meter/lv_meter.c **** 
 643:Drivers/lvgl/src/extra/widgets/meter/lv_meter.c ****     lv_meter_scale_t * scale = indic->scale;
 644:Drivers/lvgl/src/extra/widgets/meter/lv_meter.c **** 
 645:Drivers/lvgl/src/extra/widgets/meter/lv_meter.c ****     int32_t start_angle = lv_map(old_value, scale->min, scale->max, scale->rotation, scale->angle_r
 216              		.loc 1 645 27 is_stmt 0 view .LVU51
 217 0028 2046     		mov	r0, r4
 218              	.LBB64:
 219              	.LBB62:
 220              		.loc 3 125 49 view .LVU52
ARM GAS  /var/folders/0z/tsy30v1j4xl4_7kw94k978ww0000gn/T//ccjxQgZI.s 			page 26


 221 002a BDF81C40 		ldrh	r4, [sp, #28]
 222              	.LVL20:
 223              		.loc 3 125 44 view .LVU53
 224 002e BDF818B0 		ldrh	fp, [sp, #24]
 225              	.LVL21:
 226              		.loc 3 125 44 view .LVU54
 227              	.LBE62:
 228              	.LBE64:
 637:Drivers/lvgl/src/extra/widgets/meter/lv_meter.c ****     lv_point_t scale_center;
 229              		.loc 1 637 5 is_stmt 1 view .LVU55
 638:Drivers/lvgl/src/extra/widgets/meter/lv_meter.c ****     scale_center.y = scale_area.y1 + r_out;
 230              		.loc 1 638 5 view .LVU56
 643:Drivers/lvgl/src/extra/widgets/meter/lv_meter.c **** 
 231              		.loc 1 643 24 is_stmt 0 view .LVU57
 232 0032 D9F80050 		ldr	r5, [r9]
 233              	.LBB65:
 234              	.LBB63:
 235              		.loc 3 125 49 view .LVU58
 236 0036 0134     		adds	r4, r4, #1
 237 0038 A4EB0B04 		sub	r4, r4, fp
 238              	.LBE63:
 239              	.LBE65:
 636:Drivers/lvgl/src/extra/widgets/meter/lv_meter.c ****     lv_point_t scale_center;
 240              		.loc 1 636 16 view .LVU59
 241 003c C4F3C033 		ubfx	r3, r4, #15, #1
 242              		.loc 1 645 91 view .LVU60
 243 0040 EF8B     		ldrh	r7, [r5, #30]
 636:Drivers/lvgl/src/extra/widgets/meter/lv_meter.c ****     lv_point_t scale_center;
 244              		.loc 1 636 16 view .LVU61
 245 0042 03FA84F4 		sxtah	r4, r3, r4
 246              		.loc 1 645 27 view .LVU62
 247 0046 B5F92030 		ldrsh	r3, [r5, #32]
 248              		.loc 1 645 105 view .LVU63
 249 004a 1F44     		add	r7, r7, r3
 250              		.loc 1 645 27 view .LVU64
 251 004c D5E90512 		ldrd	r1, r2, [r5, #20]
 252 0050 0097     		str	r7, [sp]
 253              	.LVL22:
 641:Drivers/lvgl/src/extra/widgets/meter/lv_meter.c **** 
 254              		.loc 1 641 11 view .LVU65
 255 0052 B9F81A80 		ldrh	r8, [r9, #26]
 639:Drivers/lvgl/src/extra/widgets/meter/lv_meter.c **** 
 256              		.loc 1 639 36 view .LVU66
 257 0056 BDF81A70 		ldrh	r7, [sp, #26]
 258              		.loc 1 645 27 view .LVU67
 259 005a FFF7FEFF 		bl	lv_map
 260              	.LVL23:
 261              		.loc 1 645 27 view .LVU68
 262 005e 0346     		mov	r3, r0
 646:Drivers/lvgl/src/extra/widgets/meter/lv_meter.c ****     int32_t end_angle = lv_map(new_value, scale->min, scale->max, scale->rotation, scale->angle_ran
 263              		.loc 1 646 89 view .LVU69
 264 0060 B5F81EC0 		ldrh	ip, [r5, #30]
 265              		.loc 1 646 25 view .LVU70
 266 0064 3046     		mov	r0, r6
 645:Drivers/lvgl/src/extra/widgets/meter/lv_meter.c ****     int32_t end_angle = lv_map(new_value, scale->min, scale->max, scale->rotation, scale->angle_ran
 267              		.loc 1 645 27 view .LVU71
 268 0066 1E46     		mov	r6, r3
ARM GAS  /var/folders/0z/tsy30v1j4xl4_7kw94k978ww0000gn/T//ccjxQgZI.s 			page 27


 269              	.LVL24:
 270              		.loc 1 646 25 view .LVU72
 271 0068 B5F92030 		ldrsh	r3, [r5, #32]
 272              		.loc 1 646 103 view .LVU73
 273 006c 9C44     		add	ip, ip, r3
 274              		.loc 1 646 25 view .LVU74
 275 006e D5E90512 		ldrd	r1, r2, [r5, #20]
 276 0072 CDF800C0 		str	ip, [sp]
 277 0076 FFF7FEFF 		bl	lv_map
 278              	.LVL25:
 647:Drivers/lvgl/src/extra/widgets/meter/lv_meter.c **** 
 648:Drivers/lvgl/src/extra/widgets/meter/lv_meter.c ****     lv_area_t a;
 649:Drivers/lvgl/src/extra/widgets/meter/lv_meter.c ****     lv_draw_arc_get_area(scale_center.x, scale_center.y, r_out, LV_MIN(start_angle, end_angle), LV_
 279              		.loc 1 649 5 view .LVU75
 280 007a 059B     		ldr	r3, [sp, #20]
 281 007c 0293     		str	r3, [sp, #8]
 638:Drivers/lvgl/src/extra/widgets/meter/lv_meter.c ****     scale_center.y = scale_area.y1 + r_out;
 282              		.loc 1 638 36 view .LVU76
 283 007e C4F34F04 		ubfx	r4, r4, #1, #16
 284              	.LVL26:
 639:Drivers/lvgl/src/extra/widgets/meter/lv_meter.c **** 
 285              		.loc 1 639 5 is_stmt 1 view .LVU77
 646:Drivers/lvgl/src/extra/widgets/meter/lv_meter.c **** 
 286              		.loc 1 646 25 is_stmt 0 view .LVU78
 287 0082 0346     		mov	r3, r0
 288              		.loc 1 649 97 view .LVU79
 289 0084 9E42     		cmp	r6, r3
 639:Drivers/lvgl/src/extra/widgets/meter/lv_meter.c **** 
 290              		.loc 1 639 36 view .LVU80
 291 0086 2744     		add	r7, r7, r4
 641:Drivers/lvgl/src/extra/widgets/meter/lv_meter.c **** 
 292              		.loc 1 641 11 view .LVU81
 293 0088 A044     		add	r8, r8, r4
 638:Drivers/lvgl/src/extra/widgets/meter/lv_meter.c ****     scale_center.y = scale_area.y1 + r_out;
 294              		.loc 1 638 36 view .LVU82
 295 008a 5C44     		add	r4, r4, fp
 296              	.LVL27:
 297              		.loc 1 649 5 view .LVU83
 298 008c 20B2     		sxth	r0, r4
 299              		.loc 1 649 97 view .LVU84
 300 008e 3446     		mov	r4, r6
 301 0090 B8BF     		it	lt
 302 0092 1C46     		movlt	r4, r3
 303              		.loc 1 649 5 view .LVU85
 304 0094 A4B2     		uxth	r4, r4
 305              		.loc 1 649 65 view .LVU86
 306 0096 9E42     		cmp	r6, r3
 307              		.loc 1 649 5 view .LVU87
 308 0098 B9F91020 		ldrsh	r2, [r9, #16]
 309 009c 0094     		str	r4, [sp]
 310              		.loc 1 649 65 view .LVU88
 311 009e A8BF     		it	ge
 312 00a0 1E46     		movge	r6, r3
 313              		.loc 1 649 5 view .LVU89
 314 00a2 08AC     		add	r4, sp, #32
 639:Drivers/lvgl/src/extra/widgets/meter/lv_meter.c **** 
 315              		.loc 1 639 36 view .LVU90
ARM GAS  /var/folders/0z/tsy30v1j4xl4_7kw94k978ww0000gn/T//ccjxQgZI.s 			page 28


 316 00a4 3FB2     		sxth	r7, r7
 317              	.LVL28:
 641:Drivers/lvgl/src/extra/widgets/meter/lv_meter.c **** 
 318              		.loc 1 641 5 is_stmt 1 view .LVU91
 641:Drivers/lvgl/src/extra/widgets/meter/lv_meter.c **** 
 319              		.loc 1 641 11 is_stmt 0 view .LVU92
 320 00a6 1FFA88F8 		uxth	r8, r8
 321              	.LVL29:
 643:Drivers/lvgl/src/extra/widgets/meter/lv_meter.c **** 
 322              		.loc 1 643 5 is_stmt 1 view .LVU93
 645:Drivers/lvgl/src/extra/widgets/meter/lv_meter.c ****     int32_t end_angle = lv_map(new_value, scale->min, scale->max, scale->rotation, scale->angle_ran
 323              		.loc 1 645 5 view .LVU94
 646:Drivers/lvgl/src/extra/widgets/meter/lv_meter.c **** 
 324              		.loc 1 646 5 view .LVU95
 648:Drivers/lvgl/src/extra/widgets/meter/lv_meter.c ****     lv_draw_arc_get_area(scale_center.x, scale_center.y, r_out, LV_MIN(start_angle, end_angle), LV_
 325              		.loc 1 648 5 view .LVU96
 326              		.loc 1 649 5 view .LVU97
 327 00aa 0192     		str	r2, [sp, #4]
 328 00ac 3946     		mov	r1, r7
 329 00ae 4246     		mov	r2, r8
 330 00b0 B3B2     		uxth	r3, r6
 331              	.LVL30:
 332              		.loc 1 649 5 is_stmt 0 view .LVU98
 333 00b2 0394     		str	r4, [sp, #12]
 334 00b4 FFF7FEFF 		bl	lv_draw_arc_get_area
 335              	.LVL31:
 650:Drivers/lvgl/src/extra/widgets/meter/lv_meter.c ****                                                                                                    
 651:Drivers/lvgl/src/extra/widgets/meter/lv_meter.c ****     lv_obj_invalidate_area(obj, &a);
 336              		.loc 1 651 5 is_stmt 1 view .LVU99
 337 00b8 2146     		mov	r1, r4
 338 00ba 5046     		mov	r0, r10
 339 00bc FFF7FEFF 		bl	lv_obj_invalidate_area
 340              	.LVL32:
 652:Drivers/lvgl/src/extra/widgets/meter/lv_meter.c **** }
 341              		.loc 1 652 1 is_stmt 0 view .LVU100
 342 00c0 0BB0     		add	sp, sp, #44
 343              		.cfi_def_cfa_offset 36
 344              		@ sp needed
 345 00c2 BDE8F08F 		pop	{r4, r5, r6, r7, r8, r9, r10, fp, pc}
 346              		.loc 1 652 1 view .LVU101
 347              		.cfi_endproc
 348              	.LFE222:
 350 00c6 00BF     		.section	.text.inv_line,"ax",%progbits
 351              		.align	1
 352              		.p2align 2,,3
 353              		.syntax unified
 354              		.thumb
 355              		.thumb_func
 357              	inv_line:
 358              	.LVL33:
 359              	.LFB223:
 653:Drivers/lvgl/src/extra/widgets/meter/lv_meter.c **** 
 654:Drivers/lvgl/src/extra/widgets/meter/lv_meter.c **** 
 655:Drivers/lvgl/src/extra/widgets/meter/lv_meter.c **** static void inv_line(lv_obj_t * obj, lv_meter_indicator_t * indic, int32_t value)
 656:Drivers/lvgl/src/extra/widgets/meter/lv_meter.c **** {
 360              		.loc 1 656 1 is_stmt 1 view -0
 361              		.cfi_startproc
ARM GAS  /var/folders/0z/tsy30v1j4xl4_7kw94k978ww0000gn/T//ccjxQgZI.s 			page 29


 362              		@ args = 0, pretend = 0, frame = 24
 363              		@ frame_needed = 0, uses_anonymous_args = 0
 657:Drivers/lvgl/src/extra/widgets/meter/lv_meter.c ****     lv_area_t scale_area;
 364              		.loc 1 657 5 view .LVU103
 658:Drivers/lvgl/src/extra/widgets/meter/lv_meter.c ****     lv_obj_get_content_coords(obj, &scale_area);
 365              		.loc 1 658 5 view .LVU104
 656:Drivers/lvgl/src/extra/widgets/meter/lv_meter.c ****     lv_area_t scale_area;
 366              		.loc 1 656 1 is_stmt 0 view .LVU105
 367 0000 2DE9F047 		push	{r4, r5, r6, r7, r8, r9, r10, lr}
 368              		.cfi_def_cfa_offset 32
 369              		.cfi_offset 4, -32
 370              		.cfi_offset 5, -28
 371              		.cfi_offset 6, -24
 372              		.cfi_offset 7, -20
 373              		.cfi_offset 8, -16
 374              		.cfi_offset 9, -12
 375              		.cfi_offset 10, -8
 376              		.cfi_offset 14, -4
 377 0004 88B0     		sub	sp, sp, #32
 378              		.cfi_def_cfa_offset 64
 656:Drivers/lvgl/src/extra/widgets/meter/lv_meter.c ****     lv_area_t scale_area;
 379              		.loc 1 656 1 view .LVU106
 380 0006 0D46     		mov	r5, r1
 381              		.loc 1 658 5 view .LVU107
 382 0008 06A9     		add	r1, sp, #24
 383              	.LVL34:
 656:Drivers/lvgl/src/extra/widgets/meter/lv_meter.c ****     lv_area_t scale_area;
 384              		.loc 1 656 1 view .LVU108
 385 000a 1746     		mov	r7, r2
 386 000c 0646     		mov	r6, r0
 387              		.loc 1 658 5 view .LVU109
 388 000e FFF7FEFF 		bl	lv_obj_get_content_coords
 389              	.LVL35:
 659:Drivers/lvgl/src/extra/widgets/meter/lv_meter.c **** 
 660:Drivers/lvgl/src/extra/widgets/meter/lv_meter.c ****     lv_coord_t r_out = lv_area_get_width(&scale_area) / 2;
 390              		.loc 1 660 5 is_stmt 1 view .LVU110
 391              	.LBB66:
 392              	.LBI66:
 123:Drivers/lvgl/src/extra/widgets/meter/../../../../src/hal/../draw/../misc/../font/../misc/lv_area.h **** {
 393              		.loc 3 123 26 view .LVU111
 394              	.LBB67:
 395              		.loc 3 125 5 view .LVU112
 396              		.loc 3 125 49 is_stmt 0 view .LVU113
 397 0012 BDF81C40 		ldrh	r4, [sp, #28]
 398              		.loc 3 125 44 view .LVU114
 399 0016 BDF81830 		ldrh	r3, [sp, #24]
 400              	.LVL36:
 401              		.loc 3 125 44 view .LVU115
 402              	.LBE67:
 403              	.LBE66:
 661:Drivers/lvgl/src/extra/widgets/meter/lv_meter.c ****     lv_point_t scale_center;
 404              		.loc 1 661 5 is_stmt 1 view .LVU116
 662:Drivers/lvgl/src/extra/widgets/meter/lv_meter.c ****     scale_center.x = scale_area.x1 + r_out;
 405              		.loc 1 662 5 view .LVU117
 663:Drivers/lvgl/src/extra/widgets/meter/lv_meter.c ****     scale_center.y = scale_area.y1 + r_out;
 406              		.loc 1 663 36 is_stmt 0 view .LVU118
 407 001a BDF81A90 		ldrh	r9, [sp, #26]
ARM GAS  /var/folders/0z/tsy30v1j4xl4_7kw94k978ww0000gn/T//ccjxQgZI.s 			page 30


 664:Drivers/lvgl/src/extra/widgets/meter/lv_meter.c **** 
 665:Drivers/lvgl/src/extra/widgets/meter/lv_meter.c ****     lv_meter_scale_t * scale = indic->scale;
 408              		.loc 1 665 24 view .LVU119
 409 001e D5F800A0 		ldr	r10, [r5]
 410              	.LBB69:
 411              	.LBB68:
 412              		.loc 3 125 49 view .LVU120
 413 0022 0134     		adds	r4, r4, #1
 414 0024 E41A     		subs	r4, r4, r3
 415              	.LBE68:
 416              	.LBE69:
 660:Drivers/lvgl/src/extra/widgets/meter/lv_meter.c ****     lv_point_t scale_center;
 417              		.loc 1 660 16 view .LVU121
 418 0026 C4F3C032 		ubfx	r2, r4, #15, #1
 419 002a 02FA84F4 		sxtah	r4, r2, r4
 662:Drivers/lvgl/src/extra/widgets/meter/lv_meter.c ****     scale_center.y = scale_area.y1 + r_out;
 420              		.loc 1 662 36 view .LVU122
 421 002e C4F34F04 		ubfx	r4, r4, #1, #16
 422 0032 2344     		add	r3, r3, r4
 423              	.LVL37:
 662:Drivers/lvgl/src/extra/widgets/meter/lv_meter.c ****     scale_center.y = scale_area.y1 + r_out;
 424              		.loc 1 662 36 view .LVU123
 425 0034 1FFA83F8 		uxth	r8, r3
 426              	.LVL38:
 663:Drivers/lvgl/src/extra/widgets/meter/lv_meter.c **** 
 427              		.loc 1 663 5 is_stmt 1 view .LVU124
 666:Drivers/lvgl/src/extra/widgets/meter/lv_meter.c **** 
 667:Drivers/lvgl/src/extra/widgets/meter/lv_meter.c ****     if(indic->type == LV_METER_INDICATOR_TYPE_NEEDLE_LINE) {
 428              		.loc 1 667 13 is_stmt 0 view .LVU125
 429 0038 2B79     		ldrb	r3, [r5, #4]	@ zero_extendqisi2
 663:Drivers/lvgl/src/extra/widgets/meter/lv_meter.c **** 
 430              		.loc 1 663 36 view .LVU126
 431 003a A144     		add	r9, r9, r4
 432              		.loc 1 667 7 view .LVU127
 433 003c 012B     		cmp	r3, #1
 663:Drivers/lvgl/src/extra/widgets/meter/lv_meter.c **** 
 434              		.loc 1 663 36 view .LVU128
 435 003e 1FFA89F9 		uxth	r9, r9
 436              	.LVL39:
 665:Drivers/lvgl/src/extra/widgets/meter/lv_meter.c **** 
 437              		.loc 1 665 5 is_stmt 1 view .LVU129
 438              		.loc 1 667 5 view .LVU130
 439              		.loc 1 667 7 is_stmt 0 view .LVU131
 440 0042 58D0     		beq	.L13
 668:Drivers/lvgl/src/extra/widgets/meter/lv_meter.c ****         int32_t angle = lv_map(value, scale->min, scale->max, scale->rotation, scale->rotation + sc
 669:Drivers/lvgl/src/extra/widgets/meter/lv_meter.c ****         r_out += scale->r_mod + indic->type_data.needle_line.r_mod;
 670:Drivers/lvgl/src/extra/widgets/meter/lv_meter.c ****         lv_point_t p_end;
 671:Drivers/lvgl/src/extra/widgets/meter/lv_meter.c ****         p_end.y = (lv_trigo_sin(angle) * (r_out)) / LV_TRIGO_SIN_MAX + scale_center.y;
 672:Drivers/lvgl/src/extra/widgets/meter/lv_meter.c ****         p_end.x = (lv_trigo_cos(angle) * (r_out)) / LV_TRIGO_SIN_MAX + scale_center.x;
 673:Drivers/lvgl/src/extra/widgets/meter/lv_meter.c **** 
 674:Drivers/lvgl/src/extra/widgets/meter/lv_meter.c ****         lv_area_t a;
 675:Drivers/lvgl/src/extra/widgets/meter/lv_meter.c ****         a.x1 = LV_MIN(scale_center.x, p_end.x) - indic->type_data.needle_line.width - 2;
 676:Drivers/lvgl/src/extra/widgets/meter/lv_meter.c ****         a.y1 = LV_MIN(scale_center.y, p_end.y) - indic->type_data.needle_line.width - 2;
 677:Drivers/lvgl/src/extra/widgets/meter/lv_meter.c ****         a.x2 = LV_MAX(scale_center.x, p_end.x) + indic->type_data.needle_line.width + 2;
 678:Drivers/lvgl/src/extra/widgets/meter/lv_meter.c ****         a.y2 = LV_MAX(scale_center.y, p_end.y) + indic->type_data.needle_line.width + 2;
 679:Drivers/lvgl/src/extra/widgets/meter/lv_meter.c **** 
 680:Drivers/lvgl/src/extra/widgets/meter/lv_meter.c ****         lv_obj_invalidate_area(obj, &a);
ARM GAS  /var/folders/0z/tsy30v1j4xl4_7kw94k978ww0000gn/T//ccjxQgZI.s 			page 31


 681:Drivers/lvgl/src/extra/widgets/meter/lv_meter.c ****     }
 682:Drivers/lvgl/src/extra/widgets/meter/lv_meter.c ****     else if(indic->type == LV_METER_INDICATOR_TYPE_NEEDLE_IMG) {
 441              		.loc 1 682 10 is_stmt 1 view .LVU132
 442              		.loc 1 682 12 is_stmt 0 view .LVU133
 443 0044 13B1     		cbz	r3, .L14
 683:Drivers/lvgl/src/extra/widgets/meter/lv_meter.c ****         int32_t angle = lv_map(value, scale->min, scale->max, scale->rotation, scale->rotation + sc
 684:Drivers/lvgl/src/extra/widgets/meter/lv_meter.c ****         lv_img_header_t info;
 685:Drivers/lvgl/src/extra/widgets/meter/lv_meter.c ****         lv_img_decoder_get_info(indic->type_data.needle_img.src, &info);
 686:Drivers/lvgl/src/extra/widgets/meter/lv_meter.c **** 
 687:Drivers/lvgl/src/extra/widgets/meter/lv_meter.c ****         angle = angle * 10;
 688:Drivers/lvgl/src/extra/widgets/meter/lv_meter.c ****         if(angle > 3600) angle -= 3600;
 689:Drivers/lvgl/src/extra/widgets/meter/lv_meter.c **** 
 690:Drivers/lvgl/src/extra/widgets/meter/lv_meter.c ****         scale_center.x -= indic->type_data.needle_img.pivot.x;
 691:Drivers/lvgl/src/extra/widgets/meter/lv_meter.c ****         scale_center.y -= indic->type_data.needle_img.pivot.y;
 692:Drivers/lvgl/src/extra/widgets/meter/lv_meter.c ****         lv_area_t a;
 693:Drivers/lvgl/src/extra/widgets/meter/lv_meter.c ****         _lv_img_buf_get_transformed_area(&a, info.w, info.h, angle, LV_IMG_ZOOM_NONE, &indic->type_
 694:Drivers/lvgl/src/extra/widgets/meter/lv_meter.c ****         a.x1 += scale_center.x - 2;
 695:Drivers/lvgl/src/extra/widgets/meter/lv_meter.c ****         a.y1 += scale_center.y - 2;
 696:Drivers/lvgl/src/extra/widgets/meter/lv_meter.c ****         a.x2 += scale_center.x + 2;
 697:Drivers/lvgl/src/extra/widgets/meter/lv_meter.c ****         a.y2 += scale_center.y + 2;
 698:Drivers/lvgl/src/extra/widgets/meter/lv_meter.c **** 
 699:Drivers/lvgl/src/extra/widgets/meter/lv_meter.c ****         lv_obj_invalidate_area(obj, &a);
 700:Drivers/lvgl/src/extra/widgets/meter/lv_meter.c ****     }
 701:Drivers/lvgl/src/extra/widgets/meter/lv_meter.c **** }
 444              		.loc 1 701 1 view .LVU134
 445 0046 08B0     		add	sp, sp, #32
 446              		.cfi_remember_state
 447              		.cfi_def_cfa_offset 32
 448              		@ sp needed
 449 0048 BDE8F087 		pop	{r4, r5, r6, r7, r8, r9, r10, pc}
 450              	.LVL40:
 451              	.L14:
 452              		.cfi_restore_state
 453              	.LBB70:
 683:Drivers/lvgl/src/extra/widgets/meter/lv_meter.c ****         int32_t angle = lv_map(value, scale->min, scale->max, scale->rotation, scale->rotation + sc
 454              		.loc 1 683 9 is_stmt 1 view .LVU135
 683:Drivers/lvgl/src/extra/widgets/meter/lv_meter.c ****         int32_t angle = lv_map(value, scale->min, scale->max, scale->rotation, scale->rotation + sc
 455              		.loc 1 683 25 is_stmt 0 view .LVU136
 456 004c BAF92030 		ldrsh	r3, [r10, #32]
 683:Drivers/lvgl/src/extra/widgets/meter/lv_meter.c ****         int32_t angle = lv_map(value, scale->min, scale->max, scale->rotation, scale->rotation + sc
 457              		.loc 1 683 103 view .LVU137
 458 0050 BAF81E40 		ldrh	r4, [r10, #30]
 683:Drivers/lvgl/src/extra/widgets/meter/lv_meter.c ****         int32_t angle = lv_map(value, scale->min, scale->max, scale->rotation, scale->rotation + sc
 459              		.loc 1 683 96 view .LVU138
 460 0054 1C44     		add	r4, r4, r3
 683:Drivers/lvgl/src/extra/widgets/meter/lv_meter.c ****         int32_t angle = lv_map(value, scale->min, scale->max, scale->rotation, scale->rotation + sc
 461              		.loc 1 683 25 view .LVU139
 462 0056 DAE90512 		ldrd	r1, r2, [r10, #20]
 463 005a 3846     		mov	r0, r7
 464 005c 0094     		str	r4, [sp]
 465              	.LVL41:
 683:Drivers/lvgl/src/extra/widgets/meter/lv_meter.c ****         int32_t angle = lv_map(value, scale->min, scale->max, scale->rotation, scale->rotation + sc
 466              		.loc 1 683 25 view .LVU140
 467 005e FFF7FEFF 		bl	lv_map
 468              	.LVL42:
 685:Drivers/lvgl/src/extra/widgets/meter/lv_meter.c **** 
 469              		.loc 1 685 9 view .LVU141
ARM GAS  /var/folders/0z/tsy30v1j4xl4_7kw94k978ww0000gn/T//ccjxQgZI.s 			page 32


 470 0062 03A9     		add	r1, sp, #12
 683:Drivers/lvgl/src/extra/widgets/meter/lv_meter.c ****         int32_t angle = lv_map(value, scale->min, scale->max, scale->rotation, scale->rotation + sc
 471              		.loc 1 683 25 view .LVU142
 472 0064 0446     		mov	r4, r0
 473              	.LVL43:
 684:Drivers/lvgl/src/extra/widgets/meter/lv_meter.c ****         lv_img_decoder_get_info(indic->type_data.needle_img.src, &info);
 474              		.loc 1 684 9 is_stmt 1 view .LVU143
 685:Drivers/lvgl/src/extra/widgets/meter/lv_meter.c **** 
 475              		.loc 1 685 9 view .LVU144
 476 0066 2869     		ldr	r0, [r5, #16]
 477              	.LVL44:
 685:Drivers/lvgl/src/extra/widgets/meter/lv_meter.c **** 
 478              		.loc 1 685 9 is_stmt 0 view .LVU145
 479 0068 FFF7FEFF 		bl	lv_img_decoder_get_info
 480              	.LVL45:
 687:Drivers/lvgl/src/extra/widgets/meter/lv_meter.c ****         if(angle > 3600) angle -= 3600;
 481              		.loc 1 687 9 is_stmt 1 view .LVU146
 690:Drivers/lvgl/src/extra/widgets/meter/lv_meter.c ****         scale_center.y -= indic->type_data.needle_img.pivot.y;
 482              		.loc 1 690 24 is_stmt 0 view .LVU147
 483 006c AA8A     		ldrh	r2, [r5, #20]
 693:Drivers/lvgl/src/extra/widgets/meter/lv_meter.c ****         a.x1 += scale_center.x - 2;
 484              		.loc 1 693 50 view .LVU148
 485 006e 0399     		ldr	r1, [sp, #12]
 690:Drivers/lvgl/src/extra/widgets/meter/lv_meter.c ****         scale_center.y -= indic->type_data.needle_img.pivot.y;
 486              		.loc 1 690 24 view .LVU149
 487 0070 A8EB0208 		sub	r8, r8, r2
 488              	.LVL46:
 691:Drivers/lvgl/src/extra/widgets/meter/lv_meter.c ****         lv_area_t a;
 489              		.loc 1 691 24 view .LVU150
 490 0074 EA8A     		ldrh	r2, [r5, #22]
 687:Drivers/lvgl/src/extra/widgets/meter/lv_meter.c ****         if(angle > 3600) angle -= 3600;
 491              		.loc 1 687 15 view .LVU151
 492 0076 04EB8404 		add	r4, r4, r4, lsl #2
 493              	.LVL47:
 687:Drivers/lvgl/src/extra/widgets/meter/lv_meter.c ****         if(angle > 3600) angle -= 3600;
 494              		.loc 1 687 15 view .LVU152
 495 007a 6300     		lsls	r3, r4, #1
 496              	.LVL48:
 688:Drivers/lvgl/src/extra/widgets/meter/lv_meter.c **** 
 497              		.loc 1 688 9 is_stmt 1 view .LVU153
 691:Drivers/lvgl/src/extra/widgets/meter/lv_meter.c ****         lv_area_t a;
 498              		.loc 1 691 24 is_stmt 0 view .LVU154
 499 007c A9EB0209 		sub	r9, r9, r2
 500              	.LVL49:
 693:Drivers/lvgl/src/extra/widgets/meter/lv_meter.c ****         a.x1 += scale_center.x - 2;
 501              		.loc 1 693 9 view .LVU155
 502 0080 4FF48072 		mov	r2, #256
 688:Drivers/lvgl/src/extra/widgets/meter/lv_meter.c **** 
 503              		.loc 1 688 11 view .LVU156
 504 0084 B3F5616F 		cmp	r3, #3600
 688:Drivers/lvgl/src/extra/widgets/meter/lv_meter.c **** 
 505              		.loc 1 688 26 is_stmt 1 view .LVU157
 693:Drivers/lvgl/src/extra/widgets/meter/lv_meter.c ****         a.x1 += scale_center.x - 2;
 506              		.loc 1 693 9 is_stmt 0 view .LVU158
 507 0088 0092     		str	r2, [sp]
 693:Drivers/lvgl/src/extra/widgets/meter/lv_meter.c ****         a.x1 += scale_center.x - 2;
 508              		.loc 1 693 58 view .LVU159
ARM GAS  /var/folders/0z/tsy30v1j4xl4_7kw94k978ww0000gn/T//ccjxQgZI.s 			page 33


 509 008a BDF80E20 		ldrh	r2, [sp, #14]
 688:Drivers/lvgl/src/extra/widgets/meter/lv_meter.c **** 
 510              		.loc 1 688 32 view .LVU160
 511 008e C8BF     		it	gt
 512 0090 A3F56163 		subgt	r3, r3, #3600
 513              	.LVL50:
 690:Drivers/lvgl/src/extra/widgets/meter/lv_meter.c ****         scale_center.y -= indic->type_data.needle_img.pivot.y;
 514              		.loc 1 690 9 is_stmt 1 view .LVU161
 693:Drivers/lvgl/src/extra/widgets/meter/lv_meter.c ****         a.x1 += scale_center.x - 2;
 515              		.loc 1 693 87 is_stmt 0 view .LVU162
 516 0094 1435     		adds	r5, r5, #20
 517              	.LVL51:
 693:Drivers/lvgl/src/extra/widgets/meter/lv_meter.c ****         a.x1 += scale_center.x - 2;
 518              		.loc 1 693 9 view .LVU163
 519 0096 0195     		str	r5, [sp, #4]
 520 0098 04A8     		add	r0, sp, #16
 521 009a 1BB2     		sxth	r3, r3
 522              	.LVL52:
 693:Drivers/lvgl/src/extra/widgets/meter/lv_meter.c ****         a.x1 += scale_center.x - 2;
 523              		.loc 1 693 9 view .LVU164
 524 009c C2F34A12 		ubfx	r2, r2, #5, #11
 525 00a0 C1F38A21 		ubfx	r1, r1, #10, #11
 526 00a4 FFF7FEFF 		bl	_lv_img_buf_get_transformed_area
 527              	.LVL53:
 694:Drivers/lvgl/src/extra/widgets/meter/lv_meter.c ****         a.y1 += scale_center.y - 2;
 528              		.loc 1 694 14 view .LVU165
 529 00a8 BDF81040 		ldrh	r4, [sp, #16]
 530              	.LVL54:
 696:Drivers/lvgl/src/extra/widgets/meter/lv_meter.c ****         a.y2 += scale_center.y + 2;
 531              		.loc 1 696 14 view .LVU166
 532 00ac BDF81430 		ldrh	r3, [sp, #20]
 695:Drivers/lvgl/src/extra/widgets/meter/lv_meter.c ****         a.x2 += scale_center.x + 2;
 533              		.loc 1 695 14 view .LVU167
 534 00b0 BDF81220 		ldrh	r2, [sp, #18]
 690:Drivers/lvgl/src/extra/widgets/meter/lv_meter.c ****         scale_center.y -= indic->type_data.needle_img.pivot.y;
 535              		.loc 1 690 24 view .LVU168
 536 00b4 1FFA88F8 		uxth	r8, r8
 537              	.LVL55:
 691:Drivers/lvgl/src/extra/widgets/meter/lv_meter.c ****         lv_area_t a;
 538              		.loc 1 691 9 is_stmt 1 view .LVU169
 696:Drivers/lvgl/src/extra/widgets/meter/lv_meter.c ****         a.y2 += scale_center.y + 2;
 539              		.loc 1 696 14 is_stmt 0 view .LVU170
 540 00b8 0233     		adds	r3, r3, #2
 694:Drivers/lvgl/src/extra/widgets/meter/lv_meter.c ****         a.y1 += scale_center.y - 2;
 541              		.loc 1 694 14 view .LVU171
 542 00ba 023C     		subs	r4, r4, #2
 543 00bc 4444     		add	r4, r4, r8
 696:Drivers/lvgl/src/extra/widgets/meter/lv_meter.c ****         a.y2 += scale_center.y + 2;
 544              		.loc 1 696 14 view .LVU172
 545 00be 9844     		add	r8, r8, r3
 546              	.LVL56:
 697:Drivers/lvgl/src/extra/widgets/meter/lv_meter.c **** 
 547              		.loc 1 697 14 view .LVU173
 548 00c0 BDF81630 		ldrh	r3, [sp, #22]
 691:Drivers/lvgl/src/extra/widgets/meter/lv_meter.c ****         lv_area_t a;
 549              		.loc 1 691 24 view .LVU174
 550 00c4 1FFA89F9 		uxth	r9, r9
ARM GAS  /var/folders/0z/tsy30v1j4xl4_7kw94k978ww0000gn/T//ccjxQgZI.s 			page 34


 551              	.LVL57:
 692:Drivers/lvgl/src/extra/widgets/meter/lv_meter.c ****         _lv_img_buf_get_transformed_area(&a, info.w, info.h, angle, LV_IMG_ZOOM_NONE, &indic->type_
 552              		.loc 1 692 9 is_stmt 1 view .LVU175
 693:Drivers/lvgl/src/extra/widgets/meter/lv_meter.c ****         a.x1 += scale_center.x - 2;
 553              		.loc 1 693 9 view .LVU176
 694:Drivers/lvgl/src/extra/widgets/meter/lv_meter.c ****         a.y1 += scale_center.y - 2;
 554              		.loc 1 694 9 view .LVU177
 695:Drivers/lvgl/src/extra/widgets/meter/lv_meter.c ****         a.x2 += scale_center.x + 2;
 555              		.loc 1 695 9 view .LVU178
 696:Drivers/lvgl/src/extra/widgets/meter/lv_meter.c ****         a.y2 += scale_center.y + 2;
 556              		.loc 1 696 9 view .LVU179
 697:Drivers/lvgl/src/extra/widgets/meter/lv_meter.c **** 
 557              		.loc 1 697 9 view .LVU180
 694:Drivers/lvgl/src/extra/widgets/meter/lv_meter.c ****         a.y1 += scale_center.y - 2;
 558              		.loc 1 694 14 is_stmt 0 view .LVU181
 559 00c8 0025     		movs	r5, #0
 560              	.LVL58:
 697:Drivers/lvgl/src/extra/widgets/meter/lv_meter.c **** 
 561              		.loc 1 697 14 view .LVU182
 562 00ca 0233     		adds	r3, r3, #2
 695:Drivers/lvgl/src/extra/widgets/meter/lv_meter.c ****         a.x2 += scale_center.x + 2;
 563              		.loc 1 695 14 view .LVU183
 564 00cc 023A     		subs	r2, r2, #2
 565 00ce 4A44     		add	r2, r2, r9
 697:Drivers/lvgl/src/extra/widgets/meter/lv_meter.c **** 
 566              		.loc 1 697 14 view .LVU184
 567 00d0 9944     		add	r9, r9, r3
 568              	.LVL59:
 694:Drivers/lvgl/src/extra/widgets/meter/lv_meter.c ****         a.y1 += scale_center.y - 2;
 569              		.loc 1 694 14 view .LVU185
 570 00d2 2B46     		mov	r3, r5
 571 00d4 68F30F03 		bfi	r3, r8, #0, #16
 572 00d8 64F30F05 		bfi	r5, r4, #0, #16
 573 00dc 62F31F45 		bfi	r5, r2, #16, #16
 574 00e0 69F31F43 		bfi	r3, r9, #16, #16
 699:Drivers/lvgl/src/extra/widgets/meter/lv_meter.c ****     }
 575              		.loc 1 699 9 view .LVU186
 576 00e4 04A9     		add	r1, sp, #16
 577 00e6 3046     		mov	r0, r6
 694:Drivers/lvgl/src/extra/widgets/meter/lv_meter.c ****         a.y1 += scale_center.y - 2;
 578              		.loc 1 694 14 view .LVU187
 579 00e8 CDE90453 		strd	r5, r3, [sp, #16]
 699:Drivers/lvgl/src/extra/widgets/meter/lv_meter.c ****     }
 580              		.loc 1 699 9 is_stmt 1 view .LVU188
 581 00ec FFF7FEFF 		bl	lv_obj_invalidate_area
 582              	.LVL60:
 583              	.LBE70:
 584              		.loc 1 701 1 is_stmt 0 view .LVU189
 585 00f0 08B0     		add	sp, sp, #32
 586              		.cfi_remember_state
 587              		.cfi_def_cfa_offset 32
 588              		@ sp needed
 589 00f2 BDE8F087 		pop	{r4, r5, r6, r7, r8, r9, r10, pc}
 590              	.LVL61:
 591              	.L13:
 592              		.cfi_restore_state
 593              	.LBB71:
ARM GAS  /var/folders/0z/tsy30v1j4xl4_7kw94k978ww0000gn/T//ccjxQgZI.s 			page 35


 668:Drivers/lvgl/src/extra/widgets/meter/lv_meter.c ****         r_out += scale->r_mod + indic->type_data.needle_line.r_mod;
 594              		.loc 1 668 25 view .LVU190
 595 00f6 BAF92030 		ldrsh	r3, [r10, #32]
 596 00fa 3846     		mov	r0, r7
 668:Drivers/lvgl/src/extra/widgets/meter/lv_meter.c ****         r_out += scale->r_mod + indic->type_data.needle_line.r_mod;
 597              		.loc 1 668 103 view .LVU191
 598 00fc BAF81E70 		ldrh	r7, [r10, #30]
 599              	.LVL62:
 668:Drivers/lvgl/src/extra/widgets/meter/lv_meter.c ****         r_out += scale->r_mod + indic->type_data.needle_line.r_mod;
 600              		.loc 1 668 96 view .LVU192
 601 0100 1F44     		add	r7, r7, r3
 668:Drivers/lvgl/src/extra/widgets/meter/lv_meter.c ****         r_out += scale->r_mod + indic->type_data.needle_line.r_mod;
 602              		.loc 1 668 25 view .LVU193
 603 0102 DAE90512 		ldrd	r1, r2, [r10, #20]
 604 0106 0097     		str	r7, [sp]
 605              	.LVL63:
 668:Drivers/lvgl/src/extra/widgets/meter/lv_meter.c ****         r_out += scale->r_mod + indic->type_data.needle_line.r_mod;
 606              		.loc 1 668 25 view .LVU194
 607 0108 FFF7FEFF 		bl	lv_map
 608              	.LVL64:
 669:Drivers/lvgl/src/extra/widgets/meter/lv_meter.c ****         lv_point_t p_end;
 609              		.loc 1 669 15 view .LVU195
 610 010c BAF81C30 		ldrh	r3, [r10, #28]
 671:Drivers/lvgl/src/extra/widgets/meter/lv_meter.c ****         p_end.x = (lv_trigo_cos(angle) * (r_out)) / LV_TRIGO_SIN_MAX + scale_center.x;
 611              		.loc 1 671 51 view .LVU196
 612 0110 DFF8A4A0 		ldr	r10, .L15
 613              	.LVL65:
 669:Drivers/lvgl/src/extra/widgets/meter/lv_meter.c ****         lv_point_t p_end;
 614              		.loc 1 669 15 view .LVU197
 615 0114 1C44     		add	r4, r4, r3
 616 0116 6B8A     		ldrh	r3, [r5, #18]
 668:Drivers/lvgl/src/extra/widgets/meter/lv_meter.c ****         r_out += scale->r_mod + indic->type_data.needle_line.r_mod;
 617              		.loc 1 668 25 view .LVU198
 618 0118 0746     		mov	r7, r0
 671:Drivers/lvgl/src/extra/widgets/meter/lv_meter.c ****         p_end.x = (lv_trigo_cos(angle) * (r_out)) / LV_TRIGO_SIN_MAX + scale_center.x;
 619              		.loc 1 671 20 view .LVU199
 620 011a 00B2     		sxth	r0, r0
 669:Drivers/lvgl/src/extra/widgets/meter/lv_meter.c ****         lv_point_t p_end;
 621              		.loc 1 669 15 view .LVU200
 622 011c 1C44     		add	r4, r4, r3
 671:Drivers/lvgl/src/extra/widgets/meter/lv_meter.c ****         p_end.x = (lv_trigo_cos(angle) * (r_out)) / LV_TRIGO_SIN_MAX + scale_center.x;
 623              		.loc 1 671 20 view .LVU201
 624 011e FFF7FEFF 		bl	lv_trigo_sin
 625              	.LVL66:
 669:Drivers/lvgl/src/extra/widgets/meter/lv_meter.c ****         lv_point_t p_end;
 626              		.loc 1 669 15 view .LVU202
 627 0122 24B2     		sxth	r4, r4
 671:Drivers/lvgl/src/extra/widgets/meter/lv_meter.c ****         p_end.x = (lv_trigo_cos(angle) * (r_out)) / LV_TRIGO_SIN_MAX + scale_center.x;
 628              		.loc 1 671 40 view .LVU203
 629 0124 00FB04F3 		mul	r3, r0, r4
 671:Drivers/lvgl/src/extra/widgets/meter/lv_meter.c ****         p_end.x = (lv_trigo_cos(angle) * (r_out)) / LV_TRIGO_SIN_MAX + scale_center.x;
 630              		.loc 1 671 51 view .LVU204
 631 0128 8AFB0312 		smull	r1, r2, r10, r3
 632              	.LBB72:
 633              	.LBB73:
 634              		.file 4 "Drivers/lvgl/src/extra/widgets/meter/../../../../src/misc/lv_math.h"
   1:Drivers/lvgl/src/extra/widgets/meter/../../../../src/misc/lv_math.h **** /**
ARM GAS  /var/folders/0z/tsy30v1j4xl4_7kw94k978ww0000gn/T//ccjxQgZI.s 			page 36


   2:Drivers/lvgl/src/extra/widgets/meter/../../../../src/misc/lv_math.h ****  * @file lv_math.h
   3:Drivers/lvgl/src/extra/widgets/meter/../../../../src/misc/lv_math.h ****  *
   4:Drivers/lvgl/src/extra/widgets/meter/../../../../src/misc/lv_math.h ****  */
   5:Drivers/lvgl/src/extra/widgets/meter/../../../../src/misc/lv_math.h **** 
   6:Drivers/lvgl/src/extra/widgets/meter/../../../../src/misc/lv_math.h **** #ifndef LV_MATH_H
   7:Drivers/lvgl/src/extra/widgets/meter/../../../../src/misc/lv_math.h **** #define LV_MATH_H
   8:Drivers/lvgl/src/extra/widgets/meter/../../../../src/misc/lv_math.h **** 
   9:Drivers/lvgl/src/extra/widgets/meter/../../../../src/misc/lv_math.h **** #ifdef __cplusplus
  10:Drivers/lvgl/src/extra/widgets/meter/../../../../src/misc/lv_math.h **** extern "C" {
  11:Drivers/lvgl/src/extra/widgets/meter/../../../../src/misc/lv_math.h **** #endif
  12:Drivers/lvgl/src/extra/widgets/meter/../../../../src/misc/lv_math.h **** 
  13:Drivers/lvgl/src/extra/widgets/meter/../../../../src/misc/lv_math.h **** /*********************
  14:Drivers/lvgl/src/extra/widgets/meter/../../../../src/misc/lv_math.h ****  *      INCLUDES
  15:Drivers/lvgl/src/extra/widgets/meter/../../../../src/misc/lv_math.h ****  *********************/
  16:Drivers/lvgl/src/extra/widgets/meter/../../../../src/misc/lv_math.h **** #include "../lv_conf_internal.h"
  17:Drivers/lvgl/src/extra/widgets/meter/../../../../src/misc/lv_math.h **** #include <stdint.h>
  18:Drivers/lvgl/src/extra/widgets/meter/../../../../src/misc/lv_math.h **** 
  19:Drivers/lvgl/src/extra/widgets/meter/../../../../src/misc/lv_math.h **** /*********************
  20:Drivers/lvgl/src/extra/widgets/meter/../../../../src/misc/lv_math.h ****  *      DEFINES
  21:Drivers/lvgl/src/extra/widgets/meter/../../../../src/misc/lv_math.h ****  *********************/
  22:Drivers/lvgl/src/extra/widgets/meter/../../../../src/misc/lv_math.h **** #define LV_TRIGO_SIN_MAX 32767
  23:Drivers/lvgl/src/extra/widgets/meter/../../../../src/misc/lv_math.h **** #define LV_TRIGO_SHIFT 15 /**<  >> LV_TRIGO_SHIFT to normalize*/
  24:Drivers/lvgl/src/extra/widgets/meter/../../../../src/misc/lv_math.h **** 
  25:Drivers/lvgl/src/extra/widgets/meter/../../../../src/misc/lv_math.h **** #define LV_BEZIER_VAL_MAX 1024 /**< Max time in Bezier functions (not [0..1] to use integers)*/
  26:Drivers/lvgl/src/extra/widgets/meter/../../../../src/misc/lv_math.h **** #define LV_BEZIER_VAL_SHIFT 10 /**< log2(LV_BEZIER_VAL_MAX): used to normalize up scaled values*/
  27:Drivers/lvgl/src/extra/widgets/meter/../../../../src/misc/lv_math.h **** 
  28:Drivers/lvgl/src/extra/widgets/meter/../../../../src/misc/lv_math.h **** /**********************
  29:Drivers/lvgl/src/extra/widgets/meter/../../../../src/misc/lv_math.h ****  *      TYPEDEFS
  30:Drivers/lvgl/src/extra/widgets/meter/../../../../src/misc/lv_math.h ****  **********************/
  31:Drivers/lvgl/src/extra/widgets/meter/../../../../src/misc/lv_math.h **** 
  32:Drivers/lvgl/src/extra/widgets/meter/../../../../src/misc/lv_math.h **** typedef struct {
  33:Drivers/lvgl/src/extra/widgets/meter/../../../../src/misc/lv_math.h ****     uint16_t i;
  34:Drivers/lvgl/src/extra/widgets/meter/../../../../src/misc/lv_math.h ****     uint16_t f;
  35:Drivers/lvgl/src/extra/widgets/meter/../../../../src/misc/lv_math.h **** } lv_sqrt_res_t;
  36:Drivers/lvgl/src/extra/widgets/meter/../../../../src/misc/lv_math.h **** 
  37:Drivers/lvgl/src/extra/widgets/meter/../../../../src/misc/lv_math.h **** /**********************
  38:Drivers/lvgl/src/extra/widgets/meter/../../../../src/misc/lv_math.h ****  * GLOBAL PROTOTYPES
  39:Drivers/lvgl/src/extra/widgets/meter/../../../../src/misc/lv_math.h ****  **********************/
  40:Drivers/lvgl/src/extra/widgets/meter/../../../../src/misc/lv_math.h **** 
  41:Drivers/lvgl/src/extra/widgets/meter/../../../../src/misc/lv_math.h **** //! @cond Doxygen_Suppress
  42:Drivers/lvgl/src/extra/widgets/meter/../../../../src/misc/lv_math.h **** /**
  43:Drivers/lvgl/src/extra/widgets/meter/../../../../src/misc/lv_math.h ****  * Return with sinus of an angle
  44:Drivers/lvgl/src/extra/widgets/meter/../../../../src/misc/lv_math.h ****  * @param angle
  45:Drivers/lvgl/src/extra/widgets/meter/../../../../src/misc/lv_math.h ****  * @return sinus of 'angle'. sin(-90) = -32767, sin(90) = 32767
  46:Drivers/lvgl/src/extra/widgets/meter/../../../../src/misc/lv_math.h ****  */
  47:Drivers/lvgl/src/extra/widgets/meter/../../../../src/misc/lv_math.h **** int16_t /* LV_ATTRIBUTE_FAST_MEM */ lv_trigo_sin(int16_t angle);
  48:Drivers/lvgl/src/extra/widgets/meter/../../../../src/misc/lv_math.h **** 
  49:Drivers/lvgl/src/extra/widgets/meter/../../../../src/misc/lv_math.h **** static inline int16_t LV_ATTRIBUTE_FAST_MEM lv_trigo_cos(int16_t angle)
  50:Drivers/lvgl/src/extra/widgets/meter/../../../../src/misc/lv_math.h **** {
  51:Drivers/lvgl/src/extra/widgets/meter/../../../../src/misc/lv_math.h ****     return lv_trigo_sin(angle + 90);
 635              		.loc 4 51 31 view .LVU205
 636 012c 5A37     		adds	r7, r7, #90
 637              		.loc 4 51 12 view .LVU206
 638 012e 38B2     		sxth	r0, r7
 639              	.LBE73:
 640              	.LBE72:
 671:Drivers/lvgl/src/extra/widgets/meter/lv_meter.c ****         p_end.x = (lv_trigo_cos(angle) * (r_out)) / LV_TRIGO_SIN_MAX + scale_center.x;
ARM GAS  /var/folders/0z/tsy30v1j4xl4_7kw94k978ww0000gn/T//ccjxQgZI.s 			page 37


 641              		.loc 1 671 51 view .LVU207
 642 0130 DF17     		asrs	r7, r3, #31
 643 0132 1344     		add	r3, r3, r2
 644 0134 C7EBA337 		rsb	r7, r7, r3, asr #14
 645              	.LBB76:
 646              	.LBB74:
 647              		.loc 4 51 12 view .LVU208
 648 0138 FFF7FEFF 		bl	lv_trigo_sin
 649              	.LVL67:
 650              	.LBE74:
 651              	.LBE76:
 672:Drivers/lvgl/src/extra/widgets/meter/lv_meter.c **** 
 652              		.loc 1 672 40 view .LVU209
 653 013c 04FB00F0 		mul	r0, r4, r0
 675:Drivers/lvgl/src/extra/widgets/meter/lv_meter.c ****         a.y1 = LV_MIN(scale_center.y, p_end.y) - indic->type_data.needle_line.width - 2;
 654              		.loc 1 675 78 view .LVU210
 655 0140 298A     		ldrh	r1, [r5, #16]
 672:Drivers/lvgl/src/extra/widgets/meter/lv_meter.c **** 
 656              		.loc 1 672 51 view .LVU211
 657 0142 8AFB003A 		smull	r3, r10, r10, r0
 658 0146 8244     		add	r10, r10, r0
 659 0148 C217     		asrs	r2, r0, #31
 660 014a C2EBAA32 		rsb	r2, r2, r10, asr #14
 661 014e C1F57F44 		rsb	r4, r1, #65280
 672:Drivers/lvgl/src/extra/widgets/meter/lv_meter.c **** 
 662              		.loc 1 672 70 view .LVU212
 663 0152 4244     		add	r2, r2, r8
 664 0154 FE34     		adds	r4, r4, #254
 665 0156 0231     		adds	r1, r1, #2
 666              	.LBE71:
 662:Drivers/lvgl/src/extra/widgets/meter/lv_meter.c ****     scale_center.y = scale_area.y1 + r_out;
 667              		.loc 1 662 36 view .LVU213
 668 0158 0FFA88F3 		sxth	r3, r8
 669              	.LBB78:
 672:Drivers/lvgl/src/extra/widgets/meter/lv_meter.c **** 
 670              		.loc 1 672 70 view .LVU214
 671 015c 12B2     		sxth	r2, r2
 671:Drivers/lvgl/src/extra/widgets/meter/lv_meter.c ****         p_end.x = (lv_trigo_cos(angle) * (r_out)) / LV_TRIGO_SIN_MAX + scale_center.x;
 672              		.loc 1 671 70 view .LVU215
 673 015e 4F44     		add	r7, r7, r9
 674 0160 A4B2     		uxth	r4, r4
 675 0162 89B2     		uxth	r1, r1
 675:Drivers/lvgl/src/extra/widgets/meter/lv_meter.c ****         a.y1 = LV_MIN(scale_center.y, p_end.y) - indic->type_data.needle_line.width - 2;
 676              		.loc 1 675 85 view .LVU216
 677 0164 0025     		movs	r5, #0
 678              	.LVL68:
 675:Drivers/lvgl/src/extra/widgets/meter/lv_meter.c ****         a.y1 = LV_MIN(scale_center.y, p_end.y) - indic->type_data.needle_line.width - 2;
 679              		.loc 1 675 85 view .LVU217
 680 0166 9342     		cmp	r3, r2
 681 0168 D4BF     		ite	le
 682 016a 04EB030E 		addle	lr, r4, r3
 683 016e 04EB020E 		addgt	lr, r4, r2
 677:Drivers/lvgl/src/extra/widgets/meter/lv_meter.c ****         a.y2 = LV_MAX(scale_center.y, p_end.y) + indic->type_data.needle_line.width + 2;
 684              		.loc 1 677 85 view .LVU218
 685 0172 9342     		cmp	r3, r2
 686 0174 ACBF     		ite	ge
 687 0176 01EB030C 		addge	ip, r1, r3
ARM GAS  /var/folders/0z/tsy30v1j4xl4_7kw94k978ww0000gn/T//ccjxQgZI.s 			page 38


 688 017a 01EB020C 		addlt	ip, r1, r2
 671:Drivers/lvgl/src/extra/widgets/meter/lv_meter.c ****         p_end.x = (lv_trigo_cos(angle) * (r_out)) / LV_TRIGO_SIN_MAX + scale_center.x;
 689              		.loc 1 671 70 view .LVU219
 690 017e 3FB2     		sxth	r7, r7
 691              	.LBE78:
 663:Drivers/lvgl/src/extra/widgets/meter/lv_meter.c **** 
 692              		.loc 1 663 36 view .LVU220
 693 0180 0FFA89F9 		sxth	r9, r9
 694              	.LBB79:
 668:Drivers/lvgl/src/extra/widgets/meter/lv_meter.c ****         r_out += scale->r_mod + indic->type_data.needle_line.r_mod;
 695              		.loc 1 668 9 is_stmt 1 view .LVU221
 696              	.LVL69:
 669:Drivers/lvgl/src/extra/widgets/meter/lv_meter.c ****         lv_point_t p_end;
 697              		.loc 1 669 9 view .LVU222
 670:Drivers/lvgl/src/extra/widgets/meter/lv_meter.c ****         p_end.y = (lv_trigo_sin(angle) * (r_out)) / LV_TRIGO_SIN_MAX + scale_center.y;
 698              		.loc 1 670 9 view .LVU223
 671:Drivers/lvgl/src/extra/widgets/meter/lv_meter.c ****         p_end.x = (lv_trigo_cos(angle) * (r_out)) / LV_TRIGO_SIN_MAX + scale_center.x;
 699              		.loc 1 671 9 view .LVU224
 672:Drivers/lvgl/src/extra/widgets/meter/lv_meter.c **** 
 700              		.loc 1 672 9 view .LVU225
 701              	.LBB77:
 702              	.LBI72:
  49:Drivers/lvgl/src/extra/widgets/meter/../../../../src/misc/lv_math.h **** {
 703              		.loc 4 49 45 view .LVU226
 704              	.LBB75:
 705              		.loc 4 51 5 view .LVU227
 706              		.loc 4 51 5 is_stmt 0 view .LVU228
 707              	.LBE75:
 708              	.LBE77:
 674:Drivers/lvgl/src/extra/widgets/meter/lv_meter.c ****         a.x1 = LV_MIN(scale_center.x, p_end.x) - indic->type_data.needle_line.width - 2;
 709              		.loc 1 674 9 is_stmt 1 view .LVU229
 675:Drivers/lvgl/src/extra/widgets/meter/lv_meter.c ****         a.y1 = LV_MIN(scale_center.y, p_end.y) - indic->type_data.needle_line.width - 2;
 710              		.loc 1 675 9 view .LVU230
 676:Drivers/lvgl/src/extra/widgets/meter/lv_meter.c ****         a.x2 = LV_MAX(scale_center.x, p_end.x) + indic->type_data.needle_line.width + 2;
 711              		.loc 1 676 9 view .LVU231
 677:Drivers/lvgl/src/extra/widgets/meter/lv_meter.c ****         a.y2 = LV_MAX(scale_center.y, p_end.y) + indic->type_data.needle_line.width + 2;
 712              		.loc 1 677 9 view .LVU232
 678:Drivers/lvgl/src/extra/widgets/meter/lv_meter.c **** 
 713              		.loc 1 678 9 view .LVU233
 680:Drivers/lvgl/src/extra/widgets/meter/lv_meter.c ****     }
 714              		.loc 1 680 9 is_stmt 0 view .LVU234
 715 0184 3046     		mov	r0, r6
 675:Drivers/lvgl/src/extra/widgets/meter/lv_meter.c ****         a.y1 = LV_MIN(scale_center.y, p_end.y) - indic->type_data.needle_line.width - 2;
 716              		.loc 1 675 85 view .LVU235
 717 0186 2E46     		mov	r6, r5
 718              	.LVL70:
 675:Drivers/lvgl/src/extra/widgets/meter/lv_meter.c ****         a.y1 = LV_MIN(scale_center.y, p_end.y) - indic->type_data.needle_line.width - 2;
 719              		.loc 1 675 85 view .LVU236
 720 0188 6CF30F06 		bfi	r6, ip, #0, #16
 721 018c 6EF30F05 		bfi	r5, lr, #0, #16
 678:Drivers/lvgl/src/extra/widgets/meter/lv_meter.c **** 
 722              		.loc 1 678 85 view .LVU237
 723 0190 B945     		cmp	r9, r7
 724 0192 ACBF     		ite	ge
 725 0194 4944     		addge	r1, r1, r9
 726 0196 C919     		addlt	r1, r1, r7
 676:Drivers/lvgl/src/extra/widgets/meter/lv_meter.c ****         a.x2 = LV_MAX(scale_center.x, p_end.x) + indic->type_data.needle_line.width + 2;
ARM GAS  /var/folders/0z/tsy30v1j4xl4_7kw94k978ww0000gn/T//ccjxQgZI.s 			page 39


 727              		.loc 1 676 85 view .LVU238
 728 0198 B945     		cmp	r9, r7
 729 019a D4BF     		ite	le
 730 019c 4C44     		addle	r4, r4, r9
 731 019e E419     		addgt	r4, r4, r7
 675:Drivers/lvgl/src/extra/widgets/meter/lv_meter.c ****         a.y1 = LV_MIN(scale_center.y, p_end.y) - indic->type_data.needle_line.width - 2;
 732              		.loc 1 675 85 view .LVU239
 733 01a0 61F31F46 		bfi	r6, r1, #16, #16
 734 01a4 64F31F45 		bfi	r5, r4, #16, #16
 680:Drivers/lvgl/src/extra/widgets/meter/lv_meter.c ****     }
 735              		.loc 1 680 9 view .LVU240
 736 01a8 04A9     		add	r1, sp, #16
 675:Drivers/lvgl/src/extra/widgets/meter/lv_meter.c ****         a.y1 = LV_MIN(scale_center.y, p_end.y) - indic->type_data.needle_line.width - 2;
 737              		.loc 1 675 14 view .LVU241
 738 01aa CDE90456 		strd	r5, r6, [sp, #16]
 680:Drivers/lvgl/src/extra/widgets/meter/lv_meter.c ****     }
 739              		.loc 1 680 9 is_stmt 1 view .LVU242
 740 01ae FFF7FEFF 		bl	lv_obj_invalidate_area
 741              	.LVL71:
 680:Drivers/lvgl/src/extra/widgets/meter/lv_meter.c ****     }
 742              		.loc 1 680 9 is_stmt 0 view .LVU243
 743              	.LBE79:
 744              		.loc 1 701 1 view .LVU244
 745 01b2 08B0     		add	sp, sp, #32
 746              		.cfi_def_cfa_offset 32
 747              		@ sp needed
 748 01b4 BDE8F087 		pop	{r4, r5, r6, r7, r8, r9, r10, pc}
 749              	.LVL72:
 750              	.L16:
 751              		.loc 1 701 1 view .LVU245
 752              		.align	2
 753              	.L15:
 754 01b8 03000180 		.word	-2147418109
 755              		.cfi_endproc
 756              	.LFE223:
 758              		.section	.rodata.lv_meter_event.str1.4,"aMS",%progbits,1
 759              		.align	2
 760              	.LC0:
 761 0000 256C6400 		.ascii	"%ld\000"
 762              		.section	.text.lv_meter_event,"ax",%progbits
 763              		.align	1
 764              		.p2align 2,,3
 765              		.syntax unified
 766              		.thumb
 767              		.thumb_func
 769              	lv_meter_event:
 770              	.LVL73:
 771              	.LFB218:
 290:Drivers/lvgl/src/extra/widgets/meter/lv_meter.c ****     LV_UNUSED(class_p);
 772              		.loc 1 290 1 is_stmt 1 view -0
 773              		.cfi_startproc
 774              		@ args = 0, pretend = 0, frame = 336
 775              		@ frame_needed = 0, uses_anonymous_args = 0
 291:Drivers/lvgl/src/extra/widgets/meter/lv_meter.c **** 
 776              		.loc 1 291 5 view .LVU247
 293:Drivers/lvgl/src/extra/widgets/meter/lv_meter.c ****     if(res != LV_RES_OK) return;
 777              		.loc 1 293 5 view .LVU248
ARM GAS  /var/folders/0z/tsy30v1j4xl4_7kw94k978ww0000gn/T//ccjxQgZI.s 			page 40


 290:Drivers/lvgl/src/extra/widgets/meter/lv_meter.c ****     LV_UNUSED(class_p);
 778              		.loc 1 290 1 is_stmt 0 view .LVU249
 779 0000 2DE9F04F 		push	{r4, r5, r6, r7, r8, r9, r10, fp, lr}
 780              		.cfi_def_cfa_offset 36
 781              		.cfi_offset 4, -36
 782              		.cfi_offset 5, -32
 783              		.cfi_offset 6, -28
 784              		.cfi_offset 7, -24
 785              		.cfi_offset 8, -20
 786              		.cfi_offset 9, -16
 787              		.cfi_offset 10, -12
 788              		.cfi_offset 11, -8
 789              		.cfi_offset 14, -4
 790 0004 2DED068B 		vpush.64	{d8, d9, d10}
 791              		.cfi_def_cfa_offset 60
 792              		.cfi_offset 80, -60
 793              		.cfi_offset 81, -56
 794              		.cfi_offset 82, -52
 795              		.cfi_offset 83, -48
 796              		.cfi_offset 84, -44
 797              		.cfi_offset 85, -40
 293:Drivers/lvgl/src/extra/widgets/meter/lv_meter.c ****     if(res != LV_RES_OK) return;
 798              		.loc 1 293 20 view .LVU250
 799 0008 0548     		ldr	r0, .L71
 800              	.LVL74:
 290:Drivers/lvgl/src/extra/widgets/meter/lv_meter.c ****     LV_UNUSED(class_p);
 801              		.loc 1 290 1 view .LVU251
 802 000a D9B0     		sub	sp, sp, #356
 803              		.cfi_def_cfa_offset 416
 290:Drivers/lvgl/src/extra/widgets/meter/lv_meter.c ****     LV_UNUSED(class_p);
 804              		.loc 1 290 1 view .LVU252
 805 000c 0C46     		mov	r4, r1
 293:Drivers/lvgl/src/extra/widgets/meter/lv_meter.c ****     if(res != LV_RES_OK) return;
 806              		.loc 1 293 20 view .LVU253
 807 000e FFF7FEFF 		bl	lv_obj_event_base
 808              	.LVL75:
 294:Drivers/lvgl/src/extra/widgets/meter/lv_meter.c **** 
 809              		.loc 1 294 5 is_stmt 1 view .LVU254
 294:Drivers/lvgl/src/extra/widgets/meter/lv_meter.c **** 
 810              		.loc 1 294 7 is_stmt 0 view .LVU255
 811 0012 0128     		cmp	r0, #1
 812 0014 06D0     		beq	.L68
 813              	.LVL76:
 814              	.L17:
 324:Drivers/lvgl/src/extra/widgets/meter/lv_meter.c **** 
 815              		.loc 1 324 1 view .LVU256
 816 0016 59B0     		add	sp, sp, #356
 817              		.cfi_remember_state
 818              		.cfi_def_cfa_offset 60
 819              		@ sp needed
 820 0018 BDEC068B 		vldm	sp!, {d8-d10}
 821              		.cfi_restore 84
 822              		.cfi_restore 85
 823              		.cfi_restore 82
 824              		.cfi_restore 83
 825              		.cfi_restore 80
 826              		.cfi_restore 81
ARM GAS  /var/folders/0z/tsy30v1j4xl4_7kw94k978ww0000gn/T//ccjxQgZI.s 			page 41


 827              		.cfi_def_cfa_offset 36
 828 001c BDE8F08F 		pop	{r4, r5, r6, r7, r8, r9, r10, fp, pc}
 829              	.L72:
 830              		.align	2
 831              	.L71:
 832 0020 00000000 		.word	.LANCHOR0
 833              	.LVL77:
 834              	.L68:
 835              		.cfi_restore_state
 836              	.LBB132:
 837              	.LBI132:
 289:Drivers/lvgl/src/extra/widgets/meter/lv_meter.c **** {
 838              		.loc 1 289 13 is_stmt 1 view .LVU257
 839              	.LBB133:
 296:Drivers/lvgl/src/extra/widgets/meter/lv_meter.c ****     lv_obj_t * obj = lv_event_get_target(e);
 840              		.loc 1 296 5 view .LVU258
 296:Drivers/lvgl/src/extra/widgets/meter/lv_meter.c ****     lv_obj_t * obj = lv_event_get_target(e);
 841              		.loc 1 296 28 is_stmt 0 view .LVU259
 842 0024 2046     		mov	r0, r4
 843              	.LVL78:
 296:Drivers/lvgl/src/extra/widgets/meter/lv_meter.c ****     lv_obj_t * obj = lv_event_get_target(e);
 844              		.loc 1 296 28 view .LVU260
 845 0026 FFF7FEFF 		bl	lv_event_get_code
 846              	.LVL79:
 847 002a 0546     		mov	r5, r0
 297:Drivers/lvgl/src/extra/widgets/meter/lv_meter.c ****     if(code == LV_EVENT_DRAW_MAIN) {
 848              		.loc 1 297 22 view .LVU261
 849 002c 2046     		mov	r0, r4
 850              	.LVL80:
 297:Drivers/lvgl/src/extra/widgets/meter/lv_meter.c ****     if(code == LV_EVENT_DRAW_MAIN) {
 851              		.loc 1 297 5 is_stmt 1 view .LVU262
 297:Drivers/lvgl/src/extra/widgets/meter/lv_meter.c ****     if(code == LV_EVENT_DRAW_MAIN) {
 852              		.loc 1 297 22 is_stmt 0 view .LVU263
 853 002e FFF7FEFF 		bl	lv_event_get_target
 854              	.LVL81:
 298:Drivers/lvgl/src/extra/widgets/meter/lv_meter.c ****         lv_draw_ctx_t * draw_ctx = lv_event_get_draw_ctx(e);
 855              		.loc 1 298 7 view .LVU264
 856 0032 152D     		cmp	r5, #21
 297:Drivers/lvgl/src/extra/widgets/meter/lv_meter.c ****     if(code == LV_EVENT_DRAW_MAIN) {
 857              		.loc 1 297 22 view .LVU265
 858 0034 8346     		mov	fp, r0
 859              	.LVL82:
 298:Drivers/lvgl/src/extra/widgets/meter/lv_meter.c ****         lv_draw_ctx_t * draw_ctx = lv_event_get_draw_ctx(e);
 860              		.loc 1 298 5 is_stmt 1 view .LVU266
 298:Drivers/lvgl/src/extra/widgets/meter/lv_meter.c ****         lv_draw_ctx_t * draw_ctx = lv_event_get_draw_ctx(e);
 861              		.loc 1 298 7 is_stmt 0 view .LVU267
 862 0036 EED1     		bne	.L17
 863              	.LBB134:
 299:Drivers/lvgl/src/extra/widgets/meter/lv_meter.c ****         lv_area_t scale_area;
 864              		.loc 1 299 9 is_stmt 1 view .LVU268
 299:Drivers/lvgl/src/extra/widgets/meter/lv_meter.c ****         lv_area_t scale_area;
 865              		.loc 1 299 36 is_stmt 0 view .LVU269
 866 0038 2046     		mov	r0, r4
 867              	.LVL83:
 299:Drivers/lvgl/src/extra/widgets/meter/lv_meter.c ****         lv_area_t scale_area;
 868              		.loc 1 299 36 view .LVU270
 869 003a FFF7FEFF 		bl	lv_event_get_draw_ctx
ARM GAS  /var/folders/0z/tsy30v1j4xl4_7kw94k978ww0000gn/T//ccjxQgZI.s 			page 42


 870              	.LVL84:
 301:Drivers/lvgl/src/extra/widgets/meter/lv_meter.c **** 
 871              		.loc 1 301 9 view .LVU271
 872 003e 13A9     		add	r1, sp, #76
 299:Drivers/lvgl/src/extra/widgets/meter/lv_meter.c ****         lv_area_t scale_area;
 873              		.loc 1 299 36 view .LVU272
 874 0040 0446     		mov	r4, r0
 875              	.LVL85:
 299:Drivers/lvgl/src/extra/widgets/meter/lv_meter.c ****         lv_area_t scale_area;
 876              		.loc 1 299 36 view .LVU273
 877 0042 08EE900A 		vmov	s17, r0	@ int
 878              	.LVL86:
 300:Drivers/lvgl/src/extra/widgets/meter/lv_meter.c ****         lv_obj_get_content_coords(obj, &scale_area);
 879              		.loc 1 300 9 is_stmt 1 view .LVU274
 301:Drivers/lvgl/src/extra/widgets/meter/lv_meter.c **** 
 880              		.loc 1 301 9 view .LVU275
 881 0046 5846     		mov	r0, fp
 882              	.LVL87:
 301:Drivers/lvgl/src/extra/widgets/meter/lv_meter.c **** 
 883              		.loc 1 301 9 is_stmt 0 view .LVU276
 884 0048 FFF7FEFF 		bl	lv_obj_get_content_coords
 885              	.LVL88:
 303:Drivers/lvgl/src/extra/widgets/meter/lv_meter.c ****         draw_ticks_and_labels(obj, draw_ctx, &scale_area);
 886              		.loc 1 303 9 is_stmt 1 view .LVU277
 887              	.LBB135:
 888              	.LBI135:
 326:Drivers/lvgl/src/extra/widgets/meter/lv_meter.c **** {
 889              		.loc 1 326 13 view .LVU278
 890              	.LBB136:
 328:Drivers/lvgl/src/extra/widgets/meter/lv_meter.c **** 
 891              		.loc 1 328 5 view .LVU279
 330:Drivers/lvgl/src/extra/widgets/meter/lv_meter.c ****     lv_draw_arc_dsc_init(&arc_dsc);
 892              		.loc 1 330 5 view .LVU280
 331:Drivers/lvgl/src/extra/widgets/meter/lv_meter.c ****     arc_dsc.rounded = lv_obj_get_style_arc_rounded(obj, LV_PART_ITEMS);
 893              		.loc 1 331 5 view .LVU281
 894 004c 3EAB     		add	r3, sp, #248
 895 004e 1846     		mov	r0, r3
 896 0050 FFF7FEFF 		bl	lv_draw_arc_dsc_init
 897              	.LVL89:
 332:Drivers/lvgl/src/extra/widgets/meter/lv_meter.c **** 
 898              		.loc 1 332 5 view .LVU282
 899              	.LBB137:
 900              	.LBI137:
 415:Drivers/lvgl/src/extra/widgets/meter/../../../../src/core/lv_obj_style_gen.h **** {
 901              		.loc 2 415 20 view .LVU283
 902              	.LBB138:
 417:Drivers/lvgl/src/extra/widgets/meter/../../../../src/core/lv_obj_style_gen.h ****     return (bool)v.num;
 903              		.loc 2 417 5 view .LVU284
 417:Drivers/lvgl/src/extra/widgets/meter/../../../../src/core/lv_obj_style_gen.h ****     return (bool)v.num;
 904              		.loc 2 417 26 is_stmt 0 view .LVU285
 905 0054 5122     		movs	r2, #81
 906 0056 4FF4A021 		mov	r1, #327680
 907 005a 5846     		mov	r0, fp
 908 005c FFF7FEFF 		bl	lv_obj_get_style_prop
 909              	.LVL90:
 910              		.loc 2 418 5 is_stmt 1 view .LVU286
 911              	.LBE138:
ARM GAS  /var/folders/0z/tsy30v1j4xl4_7kw94k978ww0000gn/T//ccjxQgZI.s 			page 43


 912              	.LBE137:
 913              	.LBB141:
 914              	.LBB142:
 915              		.loc 3 125 49 is_stmt 0 view .LVU287
 916 0060 BDF85030 		ldrh	r3, [sp, #80]
 917              		.loc 3 125 44 view .LVU288
 918 0064 BDF84C20 		ldrh	r2, [sp, #76]
 919              		.loc 3 125 49 view .LVU289
 920 0068 0133     		adds	r3, r3, #1
 921 006a 9B1A     		subs	r3, r3, r2
 922              	.LBE142:
 923              	.LBE141:
 334:Drivers/lvgl/src/extra/widgets/meter/lv_meter.c ****     lv_point_t scale_center;
 924              		.loc 1 334 16 view .LVU290
 925 006c C3F3C031 		ubfx	r1, r3, #15, #1
 926 0070 01FA83F3 		sxtah	r3, r1, r3
 927              	.LBB144:
 928              	.LBB139:
 929              		.loc 2 418 12 view .LVU291
 930 0074 0038     		subs	r0, r0, #0
 931              	.LBE139:
 932              	.LBE144:
 336:Drivers/lvgl/src/extra/widgets/meter/lv_meter.c ****     scale_center.y = scale_area->y1 + r_out;
 933              		.loc 1 336 37 view .LVU292
 934 0076 C3F34F07 		ubfx	r7, r3, #1, #16
 332:Drivers/lvgl/src/extra/widgets/meter/lv_meter.c **** 
 935              		.loc 1 332 21 view .LVU293
 936 007a 9DF80531 		ldrb	r3, [sp, #261]	@ zero_extendqisi2
 937              	.LBB145:
 938              	.LBB140:
 939              		.loc 2 418 12 view .LVU294
 940 007e 18BF     		it	ne
 941 0080 0120     		movne	r0, #1
 942              	.LVL91:
 943              		.loc 2 418 12 view .LVU295
 944              	.LBE140:
 945              	.LBE145:
 332:Drivers/lvgl/src/extra/widgets/meter/lv_meter.c **** 
 946              		.loc 1 332 21 view .LVU296
 947 0082 60F38203 		bfi	r3, r0, #2, #1
 948 0086 8DF80531 		strb	r3, [sp, #261]
 334:Drivers/lvgl/src/extra/widgets/meter/lv_meter.c ****     lv_point_t scale_center;
 949              		.loc 1 334 5 is_stmt 1 view .LVU297
 950              	.LVL92:
 951              	.LBB146:
 952              	.LBI141:
 123:Drivers/lvgl/src/extra/widgets/meter/../../../../src/hal/../draw/../misc/../font/../misc/lv_area.h **** {
 953              		.loc 3 123 26 view .LVU298
 954              	.LBB143:
 955              		.loc 3 125 5 view .LVU299
 956              		.loc 3 125 5 is_stmt 0 view .LVU300
 957              	.LBE143:
 958              	.LBE146:
 335:Drivers/lvgl/src/extra/widgets/meter/lv_meter.c ****     scale_center.x = scale_area->x1 + r_out;
 959              		.loc 1 335 5 is_stmt 1 view .LVU301
 336:Drivers/lvgl/src/extra/widgets/meter/lv_meter.c ****     scale_center.y = scale_area->y1 + r_out;
 960              		.loc 1 336 5 view .LVU302
ARM GAS  /var/folders/0z/tsy30v1j4xl4_7kw94k978ww0000gn/T//ccjxQgZI.s 			page 44


 337:Drivers/lvgl/src/extra/widgets/meter/lv_meter.c **** 
 961              		.loc 1 337 5 view .LVU303
 337:Drivers/lvgl/src/extra/widgets/meter/lv_meter.c **** 
 962              		.loc 1 337 37 is_stmt 0 view .LVU304
 963 008a BDF84E30 		ldrh	r3, [sp, #78]
 336:Drivers/lvgl/src/extra/widgets/meter/lv_meter.c ****     scale_center.y = scale_area->y1 + r_out;
 964              		.loc 1 336 37 view .LVU305
 965 008e 3A44     		add	r2, r2, r7
 966              	.LVL93:
 337:Drivers/lvgl/src/extra/widgets/meter/lv_meter.c **** 
 967              		.loc 1 337 37 view .LVU306
 968 0090 3B44     		add	r3, r3, r7
 339:Drivers/lvgl/src/extra/widgets/meter/lv_meter.c ****     lv_meter_indicator_t * indic;
 969              		.loc 1 339 25 view .LVU307
 970 0092 0021     		movs	r1, #0
 971 0094 5846     		mov	r0, fp
 336:Drivers/lvgl/src/extra/widgets/meter/lv_meter.c ****     scale_center.y = scale_area->y1 + r_out;
 972              		.loc 1 336 20 view .LVU308
 973 0096 ADF8D820 		strh	r2, [sp, #216]	@ movhi
 337:Drivers/lvgl/src/extra/widgets/meter/lv_meter.c **** 
 974              		.loc 1 337 20 view .LVU309
 975 009a ADF8DA30 		strh	r3, [sp, #218]	@ movhi
 339:Drivers/lvgl/src/extra/widgets/meter/lv_meter.c ****     lv_meter_indicator_t * indic;
 976              		.loc 1 339 5 is_stmt 1 view .LVU310
 339:Drivers/lvgl/src/extra/widgets/meter/lv_meter.c ****     lv_meter_indicator_t * indic;
 977              		.loc 1 339 25 is_stmt 0 view .LVU311
 978 009e FFF7FEFF 		bl	lv_obj_get_style_opa_recursive
 979              	.LVL94:
 343:Drivers/lvgl/src/extra/widgets/meter/lv_meter.c ****     part_draw_dsc.arc_dsc = &arc_dsc;
 980              		.loc 1 343 5 view .LVU312
 981 00a2 2146     		mov	r1, r4
 339:Drivers/lvgl/src/extra/widgets/meter/lv_meter.c ****     lv_meter_indicator_t * indic;
 982              		.loc 1 339 25 view .LVU313
 983 00a4 8046     		mov	r8, r0
 984              	.LVL95:
 340:Drivers/lvgl/src/extra/widgets/meter/lv_meter.c **** 
 985              		.loc 1 340 5 is_stmt 1 view .LVU314
 342:Drivers/lvgl/src/extra/widgets/meter/lv_meter.c ****     lv_obj_draw_dsc_init(&part_draw_dsc, draw_ctx);
 986              		.loc 1 342 5 view .LVU315
 343:Drivers/lvgl/src/extra/widgets/meter/lv_meter.c ****     part_draw_dsc.arc_dsc = &arc_dsc;
 987              		.loc 1 343 5 view .LVU316
 988 00a6 46A8     		add	r0, sp, #280
 989 00a8 FFF7FEFF 		bl	lv_obj_draw_dsc_init
 990              	.LVL96:
 344:Drivers/lvgl/src/extra/widgets/meter/lv_meter.c ****     part_draw_dsc.part = LV_PART_INDICATOR;
 991              		.loc 1 344 5 view .LVU317
 344:Drivers/lvgl/src/extra/widgets/meter/lv_meter.c ****     part_draw_dsc.part = LV_PART_INDICATOR;
 992              		.loc 1 344 27 is_stmt 0 view .LVU318
 993 00ac 3EAB     		add	r3, sp, #248
 994 00ae 4E93     		str	r3, [sp, #312]
 345:Drivers/lvgl/src/extra/widgets/meter/lv_meter.c ****     part_draw_dsc.class_p = MY_CLASS;
 995              		.loc 1 345 5 is_stmt 1 view .LVU319
 346:Drivers/lvgl/src/extra/widgets/meter/lv_meter.c ****     part_draw_dsc.type = LV_METER_DRAW_PART_ARC;
 996              		.loc 1 346 27 is_stmt 0 view .LVU320
 997 00b0 AA4B     		ldr	r3, .L73
 998 00b2 4793     		str	r3, [sp, #284]
 349:Drivers/lvgl/src/extra/widgets/meter/lv_meter.c ****         if(indic->type != LV_METER_INDICATOR_TYPE_ARC) continue;
ARM GAS  /var/folders/0z/tsy30v1j4xl4_7kw94k978ww0000gn/T//ccjxQgZI.s 			page 45


 999              		.loc 1 349 5 view .LVU321
 1000 00b4 0BF1300A 		add	r10, fp, #48
 345:Drivers/lvgl/src/extra/widgets/meter/lv_meter.c ****     part_draw_dsc.class_p = MY_CLASS;
 1001              		.loc 1 345 24 view .LVU322
 1002 00b8 4FF40033 		mov	r3, #131072
 1003 00bc 5393     		str	r3, [sp, #332]
 346:Drivers/lvgl/src/extra/widgets/meter/lv_meter.c ****     part_draw_dsc.type = LV_METER_DRAW_PART_ARC;
 1004              		.loc 1 346 5 is_stmt 1 view .LVU323
 347:Drivers/lvgl/src/extra/widgets/meter/lv_meter.c **** 
 1005              		.loc 1 347 5 view .LVU324
 349:Drivers/lvgl/src/extra/widgets/meter/lv_meter.c ****         if(indic->type != LV_METER_INDICATOR_TYPE_ARC) continue;
 1006              		.loc 1 349 5 is_stmt 0 view .LVU325
 1007 00be 5046     		mov	r0, r10
 347:Drivers/lvgl/src/extra/widgets/meter/lv_meter.c **** 
 1008              		.loc 1 347 24 view .LVU326
 1009 00c0 0023     		movs	r3, #0
 1010 00c2 4893     		str	r3, [sp, #288]
 349:Drivers/lvgl/src/extra/widgets/meter/lv_meter.c ****         if(indic->type != LV_METER_INDICATOR_TYPE_ARC) continue;
 1011              		.loc 1 349 5 is_stmt 1 view .LVU327
 1012 00c4 FFF7FEFF 		bl	_lv_ll_get_tail
 1013              	.LVL97:
 349:Drivers/lvgl/src/extra/widgets/meter/lv_meter.c ****         if(indic->type != LV_METER_INDICATOR_TYPE_ARC) continue;
 1014              		.loc 1 349 5 view .LVU328
 1015 00c8 36AB     		add	r3, sp, #216
 1016 00ca 0446     		mov	r4, r0
 1017              	.LVL98:
 349:Drivers/lvgl/src/extra/widgets/meter/lv_meter.c ****         if(indic->type != LV_METER_INDICATOR_TYPE_ARC) continue;
 1018              		.loc 1 349 5 is_stmt 0 view .LVU329
 1019 00cc 0B93     		str	r3, [sp, #44]
 1020 00ce 0028     		cmp	r0, #0
 1021 00d0 54D0     		beq	.L26
 1022 00d2 18EE909A 		vmov	r9, s17	@ int
 1023 00d6 0597     		str	r7, [sp, #20]
 1024 00d8 1F46     		mov	r7, r3
 1025              	.LVL99:
 1026              	.L21:
 1027              	.LBB147:
 350:Drivers/lvgl/src/extra/widgets/meter/lv_meter.c **** 
 1028              		.loc 1 350 9 is_stmt 1 view .LVU330
 352:Drivers/lvgl/src/extra/widgets/meter/lv_meter.c ****         arc_dsc.width = indic->type_data.arc.width;
 1029              		.loc 1 352 9 view .LVU331
 350:Drivers/lvgl/src/extra/widgets/meter/lv_meter.c **** 
 1030              		.loc 1 350 11 is_stmt 0 view .LVU332
 1031 00da 2379     		ldrb	r3, [r4, #4]	@ zero_extendqisi2
 1032 00dc 032B     		cmp	r3, #3
 1033 00de 46D1     		bne	.L24
 352:Drivers/lvgl/src/extra/widgets/meter/lv_meter.c ****         arc_dsc.width = indic->type_data.arc.width;
 1034              		.loc 1 352 23 view .LVU333
 1035 00e0 238B     		ldrh	r3, [r4, #24]
 1036 00e2 ADF8F830 		strh	r3, [sp, #248]	@ movhi
 353:Drivers/lvgl/src/extra/widgets/meter/lv_meter.c ****         arc_dsc.opa = indic->opa > LV_OPA_MAX ? opa_main : (opa_main * indic->opa) >> 8;
 1037              		.loc 1 353 9 is_stmt 1 view .LVU334
 353:Drivers/lvgl/src/extra/widgets/meter/lv_meter.c ****         arc_dsc.opa = indic->opa > LV_OPA_MAX ? opa_main : (opa_main * indic->opa) >> 8;
 1038              		.loc 1 353 23 is_stmt 0 view .LVU335
 1039 00e6 238A     		ldrh	r3, [r4, #16]
 1040 00e8 ADF8FA30 		strh	r3, [sp, #250]	@ movhi
 354:Drivers/lvgl/src/extra/widgets/meter/lv_meter.c **** 
ARM GAS  /var/folders/0z/tsy30v1j4xl4_7kw94k978ww0000gn/T//ccjxQgZI.s 			page 46


 1041              		.loc 1 354 9 is_stmt 1 view .LVU336
 354:Drivers/lvgl/src/extra/widgets/meter/lv_meter.c **** 
 1042              		.loc 1 354 28 is_stmt 0 view .LVU337
 1043 00ec 6379     		ldrb	r3, [r4, #5]	@ zero_extendqisi2
 354:Drivers/lvgl/src/extra/widgets/meter/lv_meter.c **** 
 1044              		.loc 1 354 21 view .LVU338
 1045 00ee FD2B     		cmp	r3, #253
 354:Drivers/lvgl/src/extra/widgets/meter/lv_meter.c **** 
 1046              		.loc 1 354 70 view .LVU339
 1047 00f0 18FB03F3 		smulbb	r3, r8, r3
 354:Drivers/lvgl/src/extra/widgets/meter/lv_meter.c **** 
 1048              		.loc 1 354 21 view .LVU340
 1049 00f4 4246     		mov	r2, r8
 1050 00f6 98BF     		it	ls
 1051 00f8 C3F30722 		ubfxls	r2, r3, #8, #8
 1052 00fc 8DF80421 		strb	r2, [sp, #260]
 356:Drivers/lvgl/src/extra/widgets/meter/lv_meter.c **** 
 1053              		.loc 1 356 9 is_stmt 1 view .LVU341
 356:Drivers/lvgl/src/extra/widgets/meter/lv_meter.c **** 
 1054              		.loc 1 356 28 is_stmt 0 view .LVU342
 1055 0100 2568     		ldr	r5, [r4]
 1056              	.LVL100:
 358:Drivers/lvgl/src/extra/widgets/meter/lv_meter.c ****                                      scale->rotation + scale->angle_range);
 1057              		.loc 1 358 9 is_stmt 1 view .LVU343
 358:Drivers/lvgl/src/extra/widgets/meter/lv_meter.c ****                                      scale->rotation + scale->angle_range);
 1058              		.loc 1 358 31 is_stmt 0 view .LVU344
 1059 0102 A068     		ldr	r0, [r4, #8]
 1060              	.LVL101:
 358:Drivers/lvgl/src/extra/widgets/meter/lv_meter.c ****                                      scale->rotation + scale->angle_range);
 1061              		.loc 1 358 31 view .LVU345
 1062 0104 B5F92030 		ldrsh	r3, [r5, #32]
 359:Drivers/lvgl/src/extra/widgets/meter/lv_meter.c ****         int32_t end_angle = lv_map(indic->end_value, scale->min, scale->max, scale->rotation,
 1063              		.loc 1 359 61 view .LVU346
 1064 0108 EE8B     		ldrh	r6, [r5, #30]
 359:Drivers/lvgl/src/extra/widgets/meter/lv_meter.c ****         int32_t end_angle = lv_map(indic->end_value, scale->min, scale->max, scale->rotation,
 1065              		.loc 1 359 54 view .LVU347
 1066 010a 1E44     		add	r6, r6, r3
 358:Drivers/lvgl/src/extra/widgets/meter/lv_meter.c ****                                      scale->rotation + scale->angle_range);
 1067              		.loc 1 358 31 view .LVU348
 1068 010c D5E90512 		ldrd	r1, r2, [r5, #20]
 1069 0110 0096     		str	r6, [sp]
 1070 0112 FFF7FEFF 		bl	lv_map
 1071              	.LVL102:
 360:Drivers/lvgl/src/extra/widgets/meter/lv_meter.c ****                                    scale->rotation + scale->angle_range);
 1072              		.loc 1 360 9 is_stmt 1 view .LVU349
 360:Drivers/lvgl/src/extra/widgets/meter/lv_meter.c ****                                    scale->rotation + scale->angle_range);
 1073              		.loc 1 360 29 is_stmt 0 view .LVU350
 1074 0116 B5F92030 		ldrsh	r3, [r5, #32]
 361:Drivers/lvgl/src/extra/widgets/meter/lv_meter.c **** 
 1075              		.loc 1 361 59 view .LVU351
 1076 011a B5F81EC0 		ldrh	ip, [r5, #30]
 361:Drivers/lvgl/src/extra/widgets/meter/lv_meter.c **** 
 1077              		.loc 1 361 52 view .LVU352
 1078 011e 9C44     		add	ip, ip, r3
 360:Drivers/lvgl/src/extra/widgets/meter/lv_meter.c ****                                    scale->rotation + scale->angle_range);
 1079              		.loc 1 360 29 view .LVU353
 1080 0120 D5E90512 		ldrd	r1, r2, [r5, #20]
ARM GAS  /var/folders/0z/tsy30v1j4xl4_7kw94k978ww0000gn/T//ccjxQgZI.s 			page 47


 363:Drivers/lvgl/src/extra/widgets/meter/lv_meter.c ****         arc_dsc.end_angle = end_angle;
 1081              		.loc 1 363 29 view .LVU354
 1082 0124 86B2     		uxth	r6, r0
 360:Drivers/lvgl/src/extra/widgets/meter/lv_meter.c ****                                    scale->rotation + scale->angle_range);
 1083              		.loc 1 360 29 view .LVU355
 1084 0126 E068     		ldr	r0, [r4, #12]
 1085              	.LVL103:
 360:Drivers/lvgl/src/extra/widgets/meter/lv_meter.c ****                                    scale->rotation + scale->angle_range);
 1086              		.loc 1 360 29 view .LVU356
 1087 0128 CDF800C0 		str	ip, [sp]
 1088 012c FFF7FEFF 		bl	lv_map
 1089              	.LVL104:
 363:Drivers/lvgl/src/extra/widgets/meter/lv_meter.c ****         arc_dsc.end_angle = end_angle;
 1090              		.loc 1 363 9 is_stmt 1 view .LVU357
 365:Drivers/lvgl/src/extra/widgets/meter/lv_meter.c ****         part_draw_dsc.sub_part_ptr = indic;
 1091              		.loc 1 365 38 is_stmt 0 view .LVU358
 1092 0130 638B     		ldrh	r3, [r4, #26]
 1093 0132 059A     		ldr	r2, [sp, #20]
 363:Drivers/lvgl/src/extra/widgets/meter/lv_meter.c ****         arc_dsc.end_angle = end_angle;
 1094              		.loc 1 363 29 view .LVU359
 1095 0134 ADF8FC60 		strh	r6, [sp, #252]	@ movhi
 364:Drivers/lvgl/src/extra/widgets/meter/lv_meter.c ****         part_draw_dsc.radius = r_out + indic->type_data.arc.r_mod;
 1096              		.loc 1 364 9 is_stmt 1 view .LVU360
 365:Drivers/lvgl/src/extra/widgets/meter/lv_meter.c ****         part_draw_dsc.sub_part_ptr = indic;
 1097              		.loc 1 365 38 is_stmt 0 view .LVU361
 1098 0138 1344     		add	r3, r3, r2
 364:Drivers/lvgl/src/extra/widgets/meter/lv_meter.c ****         part_draw_dsc.radius = r_out + indic->type_data.arc.r_mod;
 1099              		.loc 1 364 27 view .LVU362
 1100 013a 85B2     		uxth	r5, r0
 1101              	.LVL105:
 369:Drivers/lvgl/src/extra/widgets/meter/lv_meter.c ****         lv_draw_arc(draw_ctx, &arc_dsc, &scale_center, part_draw_dsc.radius, start_angle, end_angle
 1102              		.loc 1 369 9 view .LVU363
 1103 013c 46AA     		add	r2, sp, #280
 1104 013e 1A21     		movs	r1, #26
 1105 0140 5846     		mov	r0, fp
 1106              	.LVL106:
 365:Drivers/lvgl/src/extra/widgets/meter/lv_meter.c ****         part_draw_dsc.sub_part_ptr = indic;
 1107              		.loc 1 365 30 view .LVU364
 1108 0142 ADF85431 		strh	r3, [sp, #340]	@ movhi
 364:Drivers/lvgl/src/extra/widgets/meter/lv_meter.c ****         part_draw_dsc.radius = r_out + indic->type_data.arc.r_mod;
 1109              		.loc 1 364 27 view .LVU365
 1110 0146 ADF8FE50 		strh	r5, [sp, #254]	@ movhi
 365:Drivers/lvgl/src/extra/widgets/meter/lv_meter.c ****         part_draw_dsc.sub_part_ptr = indic;
 1111              		.loc 1 365 9 is_stmt 1 view .LVU366
 366:Drivers/lvgl/src/extra/widgets/meter/lv_meter.c ****         part_draw_dsc.p1 = &scale_center;
 1112              		.loc 1 366 9 view .LVU367
 367:Drivers/lvgl/src/extra/widgets/meter/lv_meter.c **** 
 1113              		.loc 1 367 9 view .LVU368
 366:Drivers/lvgl/src/extra/widgets/meter/lv_meter.c ****         part_draw_dsc.p1 = &scale_center;
 1114              		.loc 1 366 36 is_stmt 0 view .LVU369
 1115 014a 5794     		str	r4, [sp, #348]
 367:Drivers/lvgl/src/extra/widgets/meter/lv_meter.c **** 
 1116              		.loc 1 367 26 view .LVU370
 1117 014c 4F97     		str	r7, [sp, #316]
 369:Drivers/lvgl/src/extra/widgets/meter/lv_meter.c ****         lv_draw_arc(draw_ctx, &arc_dsc, &scale_center, part_draw_dsc.radius, start_angle, end_angle
 1118              		.loc 1 369 9 is_stmt 1 view .LVU371
 1119 014e FFF7FEFF 		bl	lv_event_send
ARM GAS  /var/folders/0z/tsy30v1j4xl4_7kw94k978ww0000gn/T//ccjxQgZI.s 			page 48


 1120              	.LVL107:
 370:Drivers/lvgl/src/extra/widgets/meter/lv_meter.c ****         lv_event_send(obj, LV_EVENT_DRAW_PART_END, &part_draw_dsc);
 1121              		.loc 1 370 9 view .LVU372
 1122 0152 3EA9     		add	r1, sp, #248
 1123 0154 4846     		mov	r0, r9
 1124 0156 3A46     		mov	r2, r7
 1125 0158 CDE90065 		strd	r6, r5, [sp]
 1126 015c BDF85431 		ldrh	r3, [sp, #340]
 1127 0160 FFF7FEFF 		bl	lv_draw_arc
 1128              	.LVL108:
 371:Drivers/lvgl/src/extra/widgets/meter/lv_meter.c ****     }
 1129              		.loc 1 371 9 view .LVU373
 1130 0164 46AA     		add	r2, sp, #280
 1131 0166 1B21     		movs	r1, #27
 1132 0168 5846     		mov	r0, fp
 1133 016a FFF7FEFF 		bl	lv_event_send
 1134              	.LVL109:
 1135              	.L24:
 371:Drivers/lvgl/src/extra/widgets/meter/lv_meter.c ****     }
 1136              		.loc 1 371 9 is_stmt 0 view .LVU374
 1137              	.LBE147:
 349:Drivers/lvgl/src/extra/widgets/meter/lv_meter.c ****         if(indic->type != LV_METER_INDICATOR_TYPE_ARC) continue;
 1138              		.loc 1 349 5 is_stmt 1 view .LVU375
 1139 016e 2146     		mov	r1, r4
 1140 0170 5046     		mov	r0, r10
 1141 0172 FFF7FEFF 		bl	_lv_ll_get_prev
 1142              	.LVL110:
 349:Drivers/lvgl/src/extra/widgets/meter/lv_meter.c ****         if(indic->type != LV_METER_INDICATOR_TYPE_ARC) continue;
 1143              		.loc 1 349 5 view .LVU376
 1144 0176 0446     		mov	r4, r0
 1145 0178 0028     		cmp	r0, #0
 1146 017a AED1     		bne	.L21
 1147              	.LVL111:
 1148              	.L26:
 349:Drivers/lvgl/src/extra/widgets/meter/lv_meter.c ****         if(indic->type != LV_METER_INDICATOR_TYPE_ARC) continue;
 1149              		.loc 1 349 5 is_stmt 0 view .LVU377
 1150              	.LBE136:
 1151              	.LBE135:
 304:Drivers/lvgl/src/extra/widgets/meter/lv_meter.c ****         draw_needles(obj, draw_ctx, &scale_area);
 1152              		.loc 1 304 9 is_stmt 1 view .LVU378
 1153              	.LBB148:
 1154              	.LBI148:
 375:Drivers/lvgl/src/extra/widgets/meter/lv_meter.c **** {
 1155              		.loc 1 375 13 view .LVU379
 1156              	.LBB149:
 377:Drivers/lvgl/src/extra/widgets/meter/lv_meter.c **** 
 1157              		.loc 1 377 5 view .LVU380
 379:Drivers/lvgl/src/extra/widgets/meter/lv_meter.c ****     lv_coord_t r_edge = LV_MIN(lv_area_get_width(scale_area) / 2, lv_area_get_height(scale_area) / 
 1158              		.loc 1 379 5 view .LVU381
 380:Drivers/lvgl/src/extra/widgets/meter/lv_meter.c ****     p_center.x = scale_area->x1 + r_edge;
 1159              		.loc 1 380 5 view .LVU382
 1160              	.LBB150:
 1161              	.LBI150:
 123:Drivers/lvgl/src/extra/widgets/meter/../../../../src/hal/../draw/../misc/../font/../misc/lv_area.h **** {
 1162              		.loc 3 123 26 view .LVU383
 1163              	.LBB151:
 1164              		.loc 3 125 5 view .LVU384
ARM GAS  /var/folders/0z/tsy30v1j4xl4_7kw94k978ww0000gn/T//ccjxQgZI.s 			page 49


 1165              		.loc 3 125 49 is_stmt 0 view .LVU385
 1166 017c BDF85000 		ldrh	r0, [sp, #80]
 1167              		.loc 3 125 44 view .LVU386
 1168 0180 BDF84C10 		ldrh	r1, [sp, #76]
 1169              	.LVL112:
 1170              		.loc 3 125 44 view .LVU387
 1171              	.LBE151:
 1172              	.LBE150:
 1173              	.LBB153:
 1174              	.LBI153:
 126:Drivers/lvgl/src/extra/widgets/meter/../../../../src/hal/../draw/../misc/../font/../misc/lv_area.h **** }
 127:Drivers/lvgl/src/extra/widgets/meter/../../../../src/hal/../draw/../misc/../font/../misc/lv_area.h **** 
 128:Drivers/lvgl/src/extra/widgets/meter/../../../../src/hal/../draw/../misc/../font/../misc/lv_area.h **** /**
 129:Drivers/lvgl/src/extra/widgets/meter/../../../../src/hal/../draw/../misc/../font/../misc/lv_area.h ****  * Get the height of an area
 130:Drivers/lvgl/src/extra/widgets/meter/../../../../src/hal/../draw/../misc/../font/../misc/lv_area.h ****  * @param area_p pointer to an area
 131:Drivers/lvgl/src/extra/widgets/meter/../../../../src/hal/../draw/../misc/../font/../misc/lv_area.h ****  * @return the height of the area (if y1 == y2 -> height = 1)
 132:Drivers/lvgl/src/extra/widgets/meter/../../../../src/hal/../draw/../misc/../font/../misc/lv_area.h ****  */
 133:Drivers/lvgl/src/extra/widgets/meter/../../../../src/hal/../draw/../misc/../font/../misc/lv_area.h **** static inline lv_coord_t lv_area_get_height(const lv_area_t * area_p)
 1175              		.loc 3 133 26 is_stmt 1 view .LVU388
 1176              	.LBB154:
 134:Drivers/lvgl/src/extra/widgets/meter/../../../../src/hal/../draw/../misc/../font/../misc/lv_area.h **** {
 135:Drivers/lvgl/src/extra/widgets/meter/../../../../src/hal/../draw/../misc/../font/../misc/lv_area.h ****     return (lv_coord_t)(area_p->y2 - area_p->y1 + 1);
 1177              		.loc 3 135 5 view .LVU389
 1178              		.loc 3 135 49 is_stmt 0 view .LVU390
 1179 0184 BDF85230 		ldrh	r3, [sp, #82]
 1180              		.loc 3 135 44 view .LVU391
 1181 0188 BDF84E20 		ldrh	r2, [sp, #78]
 1182              		.loc 3 135 44 view .LVU392
 1183              	.LBE154:
 1184              	.LBE153:
 1185              	.LBB156:
 1186              	.LBB152:
 125:Drivers/lvgl/src/extra/widgets/meter/../../../../src/hal/../draw/../misc/../font/../misc/lv_area.h **** }
 1187              		.loc 3 125 49 view .LVU393
 1188 018c 0130     		adds	r0, r0, #1
 1189 018e 401A     		subs	r0, r0, r1
 1190              	.LBE152:
 1191              	.LBE156:
 1192              	.LBB157:
 1193              	.LBB155:
 1194              		.loc 3 135 49 view .LVU394
 1195 0190 0133     		adds	r3, r3, #1
 1196 0192 9B1A     		subs	r3, r3, r2
 1197              	.LBE155:
 1198              	.LBE157:
 380:Drivers/lvgl/src/extra/widgets/meter/lv_meter.c ****     p_center.x = scale_area->x1 + r_edge;
 1199              		.loc 1 380 25 view .LVU395
 1200 0194 C0F3C034 		ubfx	r4, r0, #15, #1
 1201 0198 04FA80F4 		sxtah	r4, r4, r0
 1202 019c C3F3C030 		ubfx	r0, r3, #15, #1
 1203 01a0 00FA83F3 		sxtah	r3, r0, r3
 1204 01a4 6410     		asrs	r4, r4, #1
 1205 01a6 5B10     		asrs	r3, r3, #1
 1206 01a8 9C42     		cmp	r4, r3
 1207 01aa A8BF     		it	ge
 1208 01ac 1C46     		movge	r4, r3
 1209              	.LVL113:
ARM GAS  /var/folders/0z/tsy30v1j4xl4_7kw94k978ww0000gn/T//ccjxQgZI.s 			page 50


 381:Drivers/lvgl/src/extra/widgets/meter/lv_meter.c ****     p_center.y = scale_area->y1 + r_edge;
 1210              		.loc 1 381 5 is_stmt 1 view .LVU396
 381:Drivers/lvgl/src/extra/widgets/meter/lv_meter.c ****     p_center.y = scale_area->y1 + r_edge;
 1211              		.loc 1 381 33 is_stmt 0 view .LVU397
 1212 01ae A3B2     		uxth	r3, r4
 1213 01b0 1944     		add	r1, r1, r3
 382:Drivers/lvgl/src/extra/widgets/meter/lv_meter.c **** 
 1214              		.loc 1 382 33 view .LVU398
 1215 01b2 1A44     		add	r2, r2, r3
 385:Drivers/lvgl/src/extra/widgets/meter/lv_meter.c ****     lv_obj_init_draw_line_dsc(obj, LV_PART_TICKS, &line_dsc);
 1216              		.loc 1 385 5 view .LVU399
 1217 01b4 1DA8     		add	r0, sp, #116
 381:Drivers/lvgl/src/extra/widgets/meter/lv_meter.c ****     p_center.y = scale_area->y1 + r_edge;
 1218              		.loc 1 381 33 view .LVU400
 1219 01b6 0A93     		str	r3, [sp, #40]
 381:Drivers/lvgl/src/extra/widgets/meter/lv_meter.c ****     p_center.y = scale_area->y1 + r_edge;
 1220              		.loc 1 381 16 view .LVU401
 1221 01b8 ADF83C10 		strh	r1, [sp, #60]	@ movhi
 382:Drivers/lvgl/src/extra/widgets/meter/lv_meter.c **** 
 1222              		.loc 1 382 5 is_stmt 1 view .LVU402
 382:Drivers/lvgl/src/extra/widgets/meter/lv_meter.c **** 
 1223              		.loc 1 382 16 is_stmt 0 view .LVU403
 1224 01bc ADF83E20 		strh	r2, [sp, #62]	@ movhi
 384:Drivers/lvgl/src/extra/widgets/meter/lv_meter.c ****     lv_draw_line_dsc_init(&line_dsc);
 1225              		.loc 1 384 5 is_stmt 1 view .LVU404
 385:Drivers/lvgl/src/extra/widgets/meter/lv_meter.c ****     lv_obj_init_draw_line_dsc(obj, LV_PART_TICKS, &line_dsc);
 1226              		.loc 1 385 5 view .LVU405
 1227 01c0 FFF7FEFF 		bl	lv_draw_line_dsc_init
 1228              	.LVL114:
 386:Drivers/lvgl/src/extra/widgets/meter/lv_meter.c ****     line_dsc.raw_end = 1;
 1229              		.loc 1 386 5 view .LVU406
 1230 01c4 1DAA     		add	r2, sp, #116
 1231 01c6 4FF4C021 		mov	r1, #393216
 1232 01ca 5846     		mov	r0, fp
 1233 01cc FFF7FEFF 		bl	lv_obj_init_draw_line_dsc
 1234              	.LVL115:
 387:Drivers/lvgl/src/extra/widgets/meter/lv_meter.c **** 
 1235              		.loc 1 387 5 view .LVU407
 387:Drivers/lvgl/src/extra/widgets/meter/lv_meter.c **** 
 1236              		.loc 1 387 22 is_stmt 0 view .LVU408
 1237 01d0 9DF87D30 		ldrb	r3, [sp, #125]	@ zero_extendqisi2
 390:Drivers/lvgl/src/extra/widgets/meter/lv_meter.c ****     lv_obj_init_draw_label_dsc(obj, LV_PART_TICKS, &label_dsc);
 1238              		.loc 1 390 5 view .LVU409
 1239 01d4 0B9D     		ldr	r5, [sp, #44]
 387:Drivers/lvgl/src/extra/widgets/meter/lv_meter.c **** 
 1240              		.loc 1 387 22 view .LVU410
 1241 01d6 43F01003 		orr	r3, r3, #16
 390:Drivers/lvgl/src/extra/widgets/meter/lv_meter.c ****     lv_obj_init_draw_label_dsc(obj, LV_PART_TICKS, &label_dsc);
 1242              		.loc 1 390 5 view .LVU411
 1243 01da 2846     		mov	r0, r5
 387:Drivers/lvgl/src/extra/widgets/meter/lv_meter.c **** 
 1244              		.loc 1 387 22 view .LVU412
 1245 01dc 8DF87D30 		strb	r3, [sp, #125]
 389:Drivers/lvgl/src/extra/widgets/meter/lv_meter.c ****     lv_draw_label_dsc_init(&label_dsc);
 1246              		.loc 1 389 5 is_stmt 1 view .LVU413
 390:Drivers/lvgl/src/extra/widgets/meter/lv_meter.c ****     lv_obj_init_draw_label_dsc(obj, LV_PART_TICKS, &label_dsc);
 1247              		.loc 1 390 5 view .LVU414
ARM GAS  /var/folders/0z/tsy30v1j4xl4_7kw94k978ww0000gn/T//ccjxQgZI.s 			page 51


 1248 01e0 FFF7FEFF 		bl	lv_draw_label_dsc_init
 1249              	.LVL116:
 391:Drivers/lvgl/src/extra/widgets/meter/lv_meter.c **** 
 1250              		.loc 1 391 5 view .LVU415
 1251 01e4 2A46     		mov	r2, r5
 1252 01e6 4FF4C021 		mov	r1, #393216
 1253 01ea 5846     		mov	r0, fp
 1254 01ec FFF7FEFF 		bl	lv_obj_init_draw_label_dsc
 1255              	.LVL117:
 393:Drivers/lvgl/src/extra/widgets/meter/lv_meter.c **** 
 1256              		.loc 1 393 5 view .LVU416
 395:Drivers/lvgl/src/extra/widgets/meter/lv_meter.c ****     lv_draw_mask_radius_param_t inner_major_mask;
 1257              		.loc 1 395 5 view .LVU417
 396:Drivers/lvgl/src/extra/widgets/meter/lv_meter.c ****     lv_draw_mask_radius_param_t outer_mask;
 1258              		.loc 1 396 5 view .LVU418
 397:Drivers/lvgl/src/extra/widgets/meter/lv_meter.c **** 
 1259              		.loc 1 397 5 view .LVU419
 399:Drivers/lvgl/src/extra/widgets/meter/lv_meter.c ****     lv_obj_draw_dsc_init(&part_draw_dsc, draw_ctx);
 1260              		.loc 1 399 5 view .LVU420
 400:Drivers/lvgl/src/extra/widgets/meter/lv_meter.c ****     part_draw_dsc.class_p = MY_CLASS;
 1261              		.loc 1 400 5 view .LVU421
 1262 01f0 46A8     		add	r0, sp, #280
 1263 01f2 18EE901A 		vmov	r1, s17	@ int
 1264 01f6 FFF7FEFF 		bl	lv_obj_draw_dsc_init
 1265              	.LVL118:
 401:Drivers/lvgl/src/extra/widgets/meter/lv_meter.c ****     part_draw_dsc.part = LV_PART_TICKS;
 1266              		.loc 1 401 5 view .LVU422
 401:Drivers/lvgl/src/extra/widgets/meter/lv_meter.c ****     part_draw_dsc.part = LV_PART_TICKS;
 1267              		.loc 1 401 27 is_stmt 0 view .LVU423
 1268 01fa 584B     		ldr	r3, .L73
 1269 01fc 4793     		str	r3, [sp, #284]
 402:Drivers/lvgl/src/extra/widgets/meter/lv_meter.c ****     part_draw_dsc.type = LV_METER_DRAW_PART_TICK;
 1270              		.loc 1 402 5 is_stmt 1 view .LVU424
 404:Drivers/lvgl/src/extra/widgets/meter/lv_meter.c **** 
 1271              		.loc 1 404 28 is_stmt 0 view .LVU425
 1272 01fe 1DAB     		add	r3, sp, #116
 1273 0200 4C93     		str	r3, [sp, #304]
 402:Drivers/lvgl/src/extra/widgets/meter/lv_meter.c ****     part_draw_dsc.type = LV_METER_DRAW_PART_TICK;
 1274              		.loc 1 402 24 view .LVU426
 1275 0202 4FF4C023 		mov	r3, #393216
 406:Drivers/lvgl/src/extra/widgets/meter/lv_meter.c ****         part_draw_dsc.sub_part_ptr = scale;
 1276              		.loc 1 406 5 view .LVU427
 1277 0206 0BF12400 		add	r0, fp, #36
 402:Drivers/lvgl/src/extra/widgets/meter/lv_meter.c ****     part_draw_dsc.type = LV_METER_DRAW_PART_TICK;
 1278              		.loc 1 402 24 view .LVU428
 1279 020a 5393     		str	r3, [sp, #332]
 403:Drivers/lvgl/src/extra/widgets/meter/lv_meter.c ****     part_draw_dsc.line_dsc = &line_dsc;
 1280              		.loc 1 403 5 is_stmt 1 view .LVU429
 403:Drivers/lvgl/src/extra/widgets/meter/lv_meter.c ****     part_draw_dsc.line_dsc = &line_dsc;
 1281              		.loc 1 403 24 is_stmt 0 view .LVU430
 1282 020c 0323     		movs	r3, #3
 406:Drivers/lvgl/src/extra/widgets/meter/lv_meter.c ****         part_draw_dsc.sub_part_ptr = scale;
 1283              		.loc 1 406 5 view .LVU431
 1284 020e 0AEE100A 		vmov	s20, r0	@ int
 403:Drivers/lvgl/src/extra/widgets/meter/lv_meter.c ****     part_draw_dsc.line_dsc = &line_dsc;
 1285              		.loc 1 403 24 view .LVU432
 1286 0212 4893     		str	r3, [sp, #288]
ARM GAS  /var/folders/0z/tsy30v1j4xl4_7kw94k978ww0000gn/T//ccjxQgZI.s 			page 52


 404:Drivers/lvgl/src/extra/widgets/meter/lv_meter.c **** 
 1287              		.loc 1 404 5 is_stmt 1 view .LVU433
 406:Drivers/lvgl/src/extra/widgets/meter/lv_meter.c ****         part_draw_dsc.sub_part_ptr = scale;
 1288              		.loc 1 406 5 view .LVU434
 1289 0214 FFF7FEFF 		bl	_lv_ll_get_tail
 1290              	.LVL119:
 406:Drivers/lvgl/src/extra/widgets/meter/lv_meter.c ****         part_draw_dsc.sub_part_ptr = scale;
 1291              		.loc 1 406 5 view .LVU435
 1292 0218 0028     		cmp	r0, #0
 1293 021a 00F06C83 		beq	.L69
 1294              	.LBB158:
 1295              	.LBB159:
 486:Drivers/lvgl/src/extra/widgets/meter/lv_meter.c ****             p_outer.y = p_center.y;
 1296              		.loc 1 486 46 is_stmt 0 view .LVU436
 1297 021e 822C     		cmp	r4, #130
 1298 0220 B8BF     		it	lt
 1299 0222 8224     		movlt	r4, #130
 1300              	.LVL120:
 486:Drivers/lvgl/src/extra/widgets/meter/lv_meter.c ****             p_outer.y = p_center.y;
 1301              		.loc 1 486 46 view .LVU437
 1302 0224 A3B2     		uxth	r3, r4
 1303 0226 0C93     		str	r3, [sp, #48]
 1304 0228 24AB     		add	r3, sp, #144
 1305 022a 09EE903A 		vmov	s19, r3	@ int
 1306 022e 09EE10BA 		vmov	s18, fp	@ int
 1307 0232 D146     		mov	r9, r10
 1308 0234 8246     		mov	r10, r0
 1309              	.LVL121:
 1310              	.L22:
 486:Drivers/lvgl/src/extra/widgets/meter/lv_meter.c ****             p_outer.y = p_center.y;
 1311              		.loc 1 486 46 view .LVU438
 1312              	.LBE159:
 407:Drivers/lvgl/src/extra/widgets/meter/lv_meter.c **** 
 1313              		.loc 1 407 9 is_stmt 1 view .LVU439
 410:Drivers/lvgl/src/extra/widgets/meter/lv_meter.c ****         lv_coord_t r_in_major = r_out - scale->tick_major_length;
 1314              		.loc 1 410 39 is_stmt 0 view .LVU440
 1315 0236 0A9F     		ldr	r7, [sp, #40]
 410:Drivers/lvgl/src/extra/widgets/meter/lv_meter.c ****         lv_coord_t r_in_major = r_out - scale->tick_major_length;
 1316              		.loc 1 410 46 view .LVU441
 1317 0238 BAF80430 		ldrh	r3, [r10, #4]
 415:Drivers/lvgl/src/extra/widgets/meter/lv_meter.c ****         area_inner_minor.x2 = p_center.x + r_in_minor;
 1318              		.loc 1 415 39 view .LVU442
 1319 023c BDF83E10 		ldrh	r1, [sp, #62]
 411:Drivers/lvgl/src/extra/widgets/meter/lv_meter.c **** 
 1320              		.loc 1 411 46 view .LVU443
 1321 0240 BAF80C40 		ldrh	r4, [r10, #12]
 414:Drivers/lvgl/src/extra/widgets/meter/lv_meter.c ****         area_inner_minor.y1 = p_center.y - r_in_minor;
 1322              		.loc 1 414 39 view .LVU444
 1323 0244 BDF83C20 		ldrh	r2, [sp, #60]
 407:Drivers/lvgl/src/extra/widgets/meter/lv_meter.c **** 
 1324              		.loc 1 407 36 view .LVU445
 1325 0248 CDF85CA1 		str	r10, [sp, #348]
 409:Drivers/lvgl/src/extra/widgets/meter/lv_meter.c ****         lv_coord_t r_in_minor = r_out - scale->tick_length;
 1326              		.loc 1 409 9 is_stmt 1 view .LVU446
 410:Drivers/lvgl/src/extra/widgets/meter/lv_meter.c ****         lv_coord_t r_in_major = r_out - scale->tick_major_length;
 1327              		.loc 1 410 9 view .LVU447
 410:Drivers/lvgl/src/extra/widgets/meter/lv_meter.c ****         lv_coord_t r_in_major = r_out - scale->tick_major_length;
ARM GAS  /var/folders/0z/tsy30v1j4xl4_7kw94k978ww0000gn/T//ccjxQgZI.s 			page 53


 1328              		.loc 1 410 39 is_stmt 0 view .LVU448
 1329 024c F81A     		subs	r0, r7, r3
 1330              	.LVL122:
 410:Drivers/lvgl/src/extra/widgets/meter/lv_meter.c ****         lv_coord_t r_in_major = r_out - scale->tick_major_length;
 1331              		.loc 1 410 39 view .LVU449
 1332 024e DB1B     		subs	r3, r3, r7
 1333 0250 80B2     		uxth	r0, r0
 1334              	.LVL123:
 411:Drivers/lvgl/src/extra/widgets/meter/lv_meter.c **** 
 1335              		.loc 1 411 9 is_stmt 1 view .LVU450
 1336 0252 9BB2     		uxth	r3, r3
 414:Drivers/lvgl/src/extra/widgets/meter/lv_meter.c ****         area_inner_minor.y1 = p_center.y - r_in_minor;
 1337              		.loc 1 414 42 is_stmt 0 view .LVU451
 1338 0254 D518     		adds	r5, r2, r3
 411:Drivers/lvgl/src/extra/widgets/meter/lv_meter.c **** 
 1339              		.loc 1 411 39 view .LVU452
 1340 0256 3E1B     		subs	r6, r7, r4
 415:Drivers/lvgl/src/extra/widgets/meter/lv_meter.c ****         area_inner_minor.x2 = p_center.x + r_in_minor;
 1341              		.loc 1 415 42 view .LVU453
 1342 0258 0B44     		add	r3, r3, r1
 416:Drivers/lvgl/src/extra/widgets/meter/lv_meter.c ****         area_inner_minor.y2 = p_center.y + r_in_minor;
 1343              		.loc 1 416 42 view .LVU454
 1344 025a 0244     		add	r2, r2, r0
 417:Drivers/lvgl/src/extra/widgets/meter/lv_meter.c ****         lv_draw_mask_radius_init(&inner_minor_mask, &area_inner_minor, LV_RADIUS_CIRCLE, true);
 1345              		.loc 1 417 42 view .LVU455
 1346 025c 0844     		add	r0, r0, r1
 1347              	.LVL124:
 414:Drivers/lvgl/src/extra/widgets/meter/lv_meter.c ****         area_inner_minor.y1 = p_center.y - r_in_minor;
 1348              		.loc 1 414 29 view .LVU456
 1349 025e ADF85450 		strh	r5, [sp, #84]	@ movhi
 415:Drivers/lvgl/src/extra/widgets/meter/lv_meter.c ****         area_inner_minor.x2 = p_center.x + r_in_minor;
 1350              		.loc 1 415 29 view .LVU457
 1351 0262 ADF85630 		strh	r3, [sp, #86]	@ movhi
 411:Drivers/lvgl/src/extra/widgets/meter/lv_meter.c **** 
 1352              		.loc 1 411 39 view .LVU458
 1353 0266 B5B2     		uxth	r5, r6
 416:Drivers/lvgl/src/extra/widgets/meter/lv_meter.c ****         area_inner_minor.y2 = p_center.y + r_in_minor;
 1354              		.loc 1 416 29 view .LVU459
 1355 0268 ADF85820 		strh	r2, [sp, #88]	@ movhi
 417:Drivers/lvgl/src/extra/widgets/meter/lv_meter.c ****         lv_draw_mask_radius_init(&inner_minor_mask, &area_inner_minor, LV_RADIUS_CIRCLE, true);
 1356              		.loc 1 417 29 view .LVU460
 1357 026c ADF85A00 		strh	r0, [sp, #90]	@ movhi
 418:Drivers/lvgl/src/extra/widgets/meter/lv_meter.c **** 
 1358              		.loc 1 418 9 view .LVU461
 1359 0270 0123     		movs	r3, #1
 1360 0272 19EE900A 		vmov	r0, s19	@ int
 1361 0276 47F6FF72 		movw	r2, #32767
 1362 027a 15A9     		add	r1, sp, #84
 411:Drivers/lvgl/src/extra/widgets/meter/lv_meter.c **** 
 1363              		.loc 1 411 20 view .LVU462
 1364 027c 36B2     		sxth	r6, r6
 1365 027e 0D96     		str	r6, [sp, #52]
 1366              	.LVL125:
 413:Drivers/lvgl/src/extra/widgets/meter/lv_meter.c ****         area_inner_minor.x1 = p_center.x - r_in_minor;
 1367              		.loc 1 413 9 is_stmt 1 view .LVU463
 414:Drivers/lvgl/src/extra/widgets/meter/lv_meter.c ****         area_inner_minor.y1 = p_center.y - r_in_minor;
 1368              		.loc 1 414 9 view .LVU464
ARM GAS  /var/folders/0z/tsy30v1j4xl4_7kw94k978ww0000gn/T//ccjxQgZI.s 			page 54


 415:Drivers/lvgl/src/extra/widgets/meter/lv_meter.c ****         area_inner_minor.x2 = p_center.x + r_in_minor;
 1369              		.loc 1 415 9 view .LVU465
 416:Drivers/lvgl/src/extra/widgets/meter/lv_meter.c ****         area_inner_minor.y2 = p_center.y + r_in_minor;
 1370              		.loc 1 416 9 view .LVU466
 417:Drivers/lvgl/src/extra/widgets/meter/lv_meter.c ****         lv_draw_mask_radius_init(&inner_minor_mask, &area_inner_minor, LV_RADIUS_CIRCLE, true);
 1371              		.loc 1 417 9 view .LVU467
 418:Drivers/lvgl/src/extra/widgets/meter/lv_meter.c **** 
 1372              		.loc 1 418 9 view .LVU468
 1373 0280 FFF7FEFF 		bl	lv_draw_mask_radius_init
 1374              	.LVL126:
 420:Drivers/lvgl/src/extra/widgets/meter/lv_meter.c ****         area_inner_major.x1 = p_center.x - r_in_major;
 1375              		.loc 1 420 9 view .LVU469
 421:Drivers/lvgl/src/extra/widgets/meter/lv_meter.c ****         area_inner_major.y1 = p_center.y - r_in_major;
 1376              		.loc 1 421 9 view .LVU470
 421:Drivers/lvgl/src/extra/widgets/meter/lv_meter.c ****         area_inner_major.y1 = p_center.y - r_in_major;
 1377              		.loc 1 421 39 is_stmt 0 view .LVU471
 1378 0284 BDF83C10 		ldrh	r1, [sp, #60]
 422:Drivers/lvgl/src/extra/widgets/meter/lv_meter.c ****         area_inner_major.x2 = p_center.x + r_in_major - 1;
 1379              		.loc 1 422 39 view .LVU472
 1380 0288 BDF83E20 		ldrh	r2, [sp, #62]
 1381 028c E31B     		subs	r3, r4, r7
 1382 028e 9BB2     		uxth	r3, r3
 423:Drivers/lvgl/src/extra/widgets/meter/lv_meter.c ****         area_inner_major.y2 = p_center.y + r_in_major - 1;
 1383              		.loc 1 423 55 view .LVU473
 1384 0290 481E     		subs	r0, r1, #1
 1385 0292 2844     		add	r0, r0, r5
 421:Drivers/lvgl/src/extra/widgets/meter/lv_meter.c ****         area_inner_major.y1 = p_center.y - r_in_major;
 1386              		.loc 1 421 42 view .LVU474
 1387 0294 1944     		add	r1, r1, r3
 422:Drivers/lvgl/src/extra/widgets/meter/lv_meter.c ****         area_inner_major.x2 = p_center.x + r_in_major - 1;
 1388              		.loc 1 422 42 view .LVU475
 1389 0296 1344     		add	r3, r3, r2
 424:Drivers/lvgl/src/extra/widgets/meter/lv_meter.c ****         lv_draw_mask_radius_init(&inner_major_mask, &area_inner_major, LV_RADIUS_CIRCLE, true);
 1390              		.loc 1 424 55 view .LVU476
 1391 0298 013A     		subs	r2, r2, #1
 421:Drivers/lvgl/src/extra/widgets/meter/lv_meter.c ****         area_inner_major.y1 = p_center.y - r_in_major;
 1392              		.loc 1 421 29 view .LVU477
 1393 029a ADF85C10 		strh	r1, [sp, #92]	@ movhi
 422:Drivers/lvgl/src/extra/widgets/meter/lv_meter.c ****         area_inner_major.x2 = p_center.x + r_in_major - 1;
 1394              		.loc 1 422 9 is_stmt 1 view .LVU478
 422:Drivers/lvgl/src/extra/widgets/meter/lv_meter.c ****         area_inner_major.x2 = p_center.x + r_in_major - 1;
 1395              		.loc 1 422 29 is_stmt 0 view .LVU479
 1396 029e ADF85E30 		strh	r3, [sp, #94]	@ movhi
 423:Drivers/lvgl/src/extra/widgets/meter/lv_meter.c ****         area_inner_major.y2 = p_center.y + r_in_major - 1;
 1397              		.loc 1 423 9 is_stmt 1 view .LVU480
 424:Drivers/lvgl/src/extra/widgets/meter/lv_meter.c ****         lv_draw_mask_radius_init(&inner_major_mask, &area_inner_major, LV_RADIUS_CIRCLE, true);
 1398              		.loc 1 424 55 is_stmt 0 view .LVU481
 1399 02a2 1544     		add	r5, r5, r2
 423:Drivers/lvgl/src/extra/widgets/meter/lv_meter.c ****         area_inner_major.y2 = p_center.y + r_in_major - 1;
 1400              		.loc 1 423 29 view .LVU482
 1401 02a4 ADF86000 		strh	r0, [sp, #96]	@ movhi
 424:Drivers/lvgl/src/extra/widgets/meter/lv_meter.c ****         lv_draw_mask_radius_init(&inner_major_mask, &area_inner_major, LV_RADIUS_CIRCLE, true);
 1402              		.loc 1 424 9 is_stmt 1 view .LVU483
 425:Drivers/lvgl/src/extra/widgets/meter/lv_meter.c **** 
 1403              		.loc 1 425 9 is_stmt 0 view .LVU484
 1404 02a8 0123     		movs	r3, #1
 1405 02aa 47F6FF72 		movw	r2, #32767
ARM GAS  /var/folders/0z/tsy30v1j4xl4_7kw94k978ww0000gn/T//ccjxQgZI.s 			page 55


 1406 02ae 17A9     		add	r1, sp, #92
 1407 02b0 2AA8     		add	r0, sp, #168
 424:Drivers/lvgl/src/extra/widgets/meter/lv_meter.c ****         lv_draw_mask_radius_init(&inner_major_mask, &area_inner_major, LV_RADIUS_CIRCLE, true);
 1408              		.loc 1 424 29 view .LVU485
 1409 02b2 ADF86250 		strh	r5, [sp, #98]	@ movhi
 425:Drivers/lvgl/src/extra/widgets/meter/lv_meter.c **** 
 1410              		.loc 1 425 9 is_stmt 1 view .LVU486
 1411 02b6 FFF7FEFF 		bl	lv_draw_mask_radius_init
 1412              	.LVL127:
 427:Drivers/lvgl/src/extra/widgets/meter/lv_meter.c ****         area_outer.x1 = p_center.x - r_out;
 1413              		.loc 1 427 9 view .LVU487
 428:Drivers/lvgl/src/extra/widgets/meter/lv_meter.c ****         area_outer.y1 = p_center.y - r_out;
 1414              		.loc 1 428 9 view .LVU488
 428:Drivers/lvgl/src/extra/widgets/meter/lv_meter.c ****         area_outer.y1 = p_center.y - r_out;
 1415              		.loc 1 428 33 is_stmt 0 view .LVU489
 1416 02ba BDF83C20 		ldrh	r2, [sp, #60]
 429:Drivers/lvgl/src/extra/widgets/meter/lv_meter.c ****         area_outer.x2 = p_center.x + r_out - 1;
 1417              		.loc 1 429 33 view .LVU490
 1418 02be BDF83E30 		ldrh	r3, [sp, #62]
 430:Drivers/lvgl/src/extra/widgets/meter/lv_meter.c ****         area_outer.y2 = p_center.y + r_out - 1;
 1419              		.loc 1 430 44 view .LVU491
 1420 02c2 511E     		subs	r1, r2, #1
 428:Drivers/lvgl/src/extra/widgets/meter/lv_meter.c ****         area_outer.y1 = p_center.y - r_out;
 1421              		.loc 1 428 36 view .LVU492
 1422 02c4 D21B     		subs	r2, r2, r7
 428:Drivers/lvgl/src/extra/widgets/meter/lv_meter.c ****         area_outer.y1 = p_center.y - r_out;
 1423              		.loc 1 428 23 view .LVU493
 1424 02c6 ADF86420 		strh	r2, [sp, #100]	@ movhi
 429:Drivers/lvgl/src/extra/widgets/meter/lv_meter.c ****         area_outer.x2 = p_center.x + r_out - 1;
 1425              		.loc 1 429 9 is_stmt 1 view .LVU494
 430:Drivers/lvgl/src/extra/widgets/meter/lv_meter.c ****         area_outer.y2 = p_center.y + r_out - 1;
 1426              		.loc 1 430 44 is_stmt 0 view .LVU495
 1427 02ca 7A18     		adds	r2, r7, r1
 430:Drivers/lvgl/src/extra/widgets/meter/lv_meter.c ****         area_outer.y2 = p_center.y + r_out - 1;
 1428              		.loc 1 430 23 view .LVU496
 1429 02cc ADF86820 		strh	r2, [sp, #104]	@ movhi
 431:Drivers/lvgl/src/extra/widgets/meter/lv_meter.c ****         lv_draw_mask_radius_init(&outer_mask, &area_outer, LV_RADIUS_CIRCLE, false);
 1430              		.loc 1 431 44 view .LVU497
 1431 02d0 5A1E     		subs	r2, r3, #1
 429:Drivers/lvgl/src/extra/widgets/meter/lv_meter.c ****         area_outer.x2 = p_center.x + r_out - 1;
 1432              		.loc 1 429 36 view .LVU498
 1433 02d2 DB1B     		subs	r3, r3, r7
 429:Drivers/lvgl/src/extra/widgets/meter/lv_meter.c ****         area_outer.x2 = p_center.x + r_out - 1;
 1434              		.loc 1 429 23 view .LVU499
 1435 02d4 ADF86630 		strh	r3, [sp, #102]	@ movhi
 430:Drivers/lvgl/src/extra/widgets/meter/lv_meter.c ****         area_outer.y2 = p_center.y + r_out - 1;
 1436              		.loc 1 430 9 is_stmt 1 view .LVU500
 431:Drivers/lvgl/src/extra/widgets/meter/lv_meter.c ****         lv_draw_mask_radius_init(&outer_mask, &area_outer, LV_RADIUS_CIRCLE, false);
 1437              		.loc 1 431 9 view .LVU501
 431:Drivers/lvgl/src/extra/widgets/meter/lv_meter.c ****         lv_draw_mask_radius_init(&outer_mask, &area_outer, LV_RADIUS_CIRCLE, false);
 1438              		.loc 1 431 44 is_stmt 0 view .LVU502
 1439 02d8 BB18     		adds	r3, r7, r2
 431:Drivers/lvgl/src/extra/widgets/meter/lv_meter.c ****         lv_draw_mask_radius_init(&outer_mask, &area_outer, LV_RADIUS_CIRCLE, false);
 1440              		.loc 1 431 23 view .LVU503
 1441 02da ADF86A30 		strh	r3, [sp, #106]	@ movhi
 432:Drivers/lvgl/src/extra/widgets/meter/lv_meter.c ****         int16_t outer_mask_id = lv_draw_mask_add(&outer_mask, NULL);
 1442              		.loc 1 432 9 is_stmt 1 view .LVU504
ARM GAS  /var/folders/0z/tsy30v1j4xl4_7kw94k978ww0000gn/T//ccjxQgZI.s 			page 56


 1443 02de 47F6FF72 		movw	r2, #32767
 1444 02e2 0023     		movs	r3, #0
 1445 02e4 19A9     		add	r1, sp, #100
 1446 02e6 30A8     		add	r0, sp, #192
 1447 02e8 FFF7FEFF 		bl	lv_draw_mask_radius_init
 1448              	.LVL128:
 433:Drivers/lvgl/src/extra/widgets/meter/lv_meter.c **** 
 1449              		.loc 1 433 9 view .LVU505
 433:Drivers/lvgl/src/extra/widgets/meter/lv_meter.c **** 
 1450              		.loc 1 433 33 is_stmt 0 view .LVU506
 1451 02ec 0021     		movs	r1, #0
 1452 02ee 30A8     		add	r0, sp, #192
 1453 02f0 FFF7FEFF 		bl	lv_draw_mask_add
 1454              	.LVL129:
 437:Drivers/lvgl/src/extra/widgets/meter/lv_meter.c ****         uint16_t i;
 1455              		.loc 1 437 35 view .LVU507
 1456 02f4 BAF80A30 		ldrh	r3, [r10, #10]
 433:Drivers/lvgl/src/extra/widgets/meter/lv_meter.c **** 
 1457              		.loc 1 433 33 view .LVU508
 1458 02f8 08EE100A 		vmov	s16, r0	@ int
 1459              	.LVL130:
 435:Drivers/lvgl/src/extra/widgets/meter/lv_meter.c **** 
 1460              		.loc 1 435 9 is_stmt 1 view .LVU509
 437:Drivers/lvgl/src/extra/widgets/meter/lv_meter.c ****         uint16_t i;
 1461              		.loc 1 437 9 view .LVU510
 437:Drivers/lvgl/src/extra/widgets/meter/lv_meter.c ****         uint16_t i;
 1462              		.loc 1 437 80 is_stmt 0 view .LVU511
 1463 02fc 002B     		cmp	r3, #0
 1464 02fe 00F0AE82 		beq	.L49
 437:Drivers/lvgl/src/extra/widgets/meter/lv_meter.c ****         uint16_t i;
 1465              		.loc 1 437 76 view .LVU512
 1466 0302 5A1E     		subs	r2, r3, #1
 1467 0304 0692     		str	r2, [sp, #24]
 1468              	.L29:
 1469              	.LVL131:
 439:Drivers/lvgl/src/extra/widgets/meter/lv_meter.c ****             minor_cnt++;
 1470              		.loc 1 439 22 is_stmt 1 view .LVU513
 439:Drivers/lvgl/src/extra/widgets/meter/lv_meter.c ****             minor_cnt++;
 1471              		.loc 1 439 29 is_stmt 0 view .LVU514
 1472 0306 BAF80220 		ldrh	r2, [r10, #2]
 439:Drivers/lvgl/src/extra/widgets/meter/lv_meter.c ****             minor_cnt++;
 1473              		.loc 1 439 22 view .LVU515
 1474 030a 002A     		cmp	r2, #0
 1475 030c 00F07A81 		beq	.L30
 1476              	.LBB168:
 440:Drivers/lvgl/src/extra/widgets/meter/lv_meter.c ****             bool major = false;
 1477              		.loc 1 440 22 view .LVU516
 1478 0310 0699     		ldr	r1, [sp, #24]
 1479 0312 0131     		adds	r1, r1, #1
 442:Drivers/lvgl/src/extra/widgets/meter/lv_meter.c ****                 minor_cnt = 0;
 1480              		.loc 1 442 15 view .LVU517
 1481 0314 9942     		cmp	r1, r3
 486:Drivers/lvgl/src/extra/widgets/meter/lv_meter.c ****             p_outer.y = p_center.y;
 1482              		.loc 1 486 46 view .LVU518
 1483 0316 4FF0000B 		mov	fp, #0
 1484              	.LVL132:
 440:Drivers/lvgl/src/extra/widgets/meter/lv_meter.c ****             bool major = false;
ARM GAS  /var/folders/0z/tsy30v1j4xl4_7kw94k978ww0000gn/T//ccjxQgZI.s 			page 57


 1485              		.loc 1 440 13 is_stmt 1 view .LVU519
 440:Drivers/lvgl/src/extra/widgets/meter/lv_meter.c ****             bool major = false;
 1486              		.loc 1 440 22 is_stmt 0 view .LVU520
 1487 031a 0691     		str	r1, [sp, #24]
 1488              	.LVL133:
 441:Drivers/lvgl/src/extra/widgets/meter/lv_meter.c ****             if(minor_cnt == scale->tick_major_nth) {
 1489              		.loc 1 441 13 is_stmt 1 view .LVU521
 442:Drivers/lvgl/src/extra/widgets/meter/lv_meter.c ****                 minor_cnt = 0;
 1490              		.loc 1 442 13 view .LVU522
 442:Drivers/lvgl/src/extra/widgets/meter/lv_meter.c ****                 minor_cnt = 0;
 1491              		.loc 1 442 15 is_stmt 0 view .LVU523
 1492 031c 00F03A81 		beq	.L70
 1493              	.LVL134:
 1494              	.L63:
 447:Drivers/lvgl/src/extra/widgets/meter/lv_meter.c ****             part_draw_dsc.value = value_of_line;
 1495              		.loc 1 447 13 is_stmt 1 view .LVU524
 447:Drivers/lvgl/src/extra/widgets/meter/lv_meter.c ****             part_draw_dsc.value = value_of_line;
 1496              		.loc 1 447 37 is_stmt 0 view .LVU525
 1497 0320 DAE90531 		ldrd	r3, r1, [r10, #20]
 1498 0324 1FFA8BF8 		uxth	r8, fp
 1499 0328 0091     		str	r1, [sp]
 1500 032a 013A     		subs	r2, r2, #1
 1501 032c 0021     		movs	r1, #0
 1502 032e 4046     		mov	r0, r8
 1503 0330 FFF7FEFF 		bl	lv_map
 1504              	.LVL135:
 453:Drivers/lvgl/src/extra/widgets/meter/lv_meter.c ****             lv_coord_t line_width = line_width_ori;
 1505              		.loc 1 453 24 view .LVU526
 1506 0334 BAF90630 		ldrsh	r3, [r10, #6]
 450:Drivers/lvgl/src/extra/widgets/meter/lv_meter.c ****             lv_color_t line_color_ori = line_color;
 1507              		.loc 1 450 24 view .LVU527
 1508 0338 BAF80050 		ldrh	r5, [r10]
 453:Drivers/lvgl/src/extra/widgets/meter/lv_meter.c ****             lv_coord_t line_width = line_width_ori;
 1509              		.loc 1 453 24 view .LVU528
 1510 033c 0593     		str	r3, [sp, #20]
 441:Drivers/lvgl/src/extra/widgets/meter/lv_meter.c ****             if(minor_cnt == scale->tick_major_nth) {
 1511              		.loc 1 441 18 view .LVU529
 1512 033e 0023     		movs	r3, #0
 447:Drivers/lvgl/src/extra/widgets/meter/lv_meter.c ****             part_draw_dsc.value = value_of_line;
 1513              		.loc 1 447 37 view .LVU530
 1514 0340 0646     		mov	r6, r0
 1515              	.LVL136:
 448:Drivers/lvgl/src/extra/widgets/meter/lv_meter.c **** 
 1516              		.loc 1 448 13 is_stmt 1 view .LVU531
 448:Drivers/lvgl/src/extra/widgets/meter/lv_meter.c **** 
 1517              		.loc 1 448 33 is_stmt 0 view .LVU532
 1518 0342 5690     		str	r0, [sp, #344]
 450:Drivers/lvgl/src/extra/widgets/meter/lv_meter.c ****             lv_color_t line_color_ori = line_color;
 1519              		.loc 1 450 13 is_stmt 1 view .LVU533
 1520              	.LVL137:
 451:Drivers/lvgl/src/extra/widgets/meter/lv_meter.c **** 
 1521              		.loc 1 451 13 view .LVU534
 451:Drivers/lvgl/src/extra/widgets/meter/lv_meter.c **** 
 1522              		.loc 1 451 24 is_stmt 0 view .LVU535
 1523 0344 ADF82250 		strh	r5, [sp, #34]	@ movhi
 453:Drivers/lvgl/src/extra/widgets/meter/lv_meter.c ****             lv_coord_t line_width = line_width_ori;
 1524              		.loc 1 453 13 is_stmt 1 view .LVU536
ARM GAS  /var/folders/0z/tsy30v1j4xl4_7kw94k978ww0000gn/T//ccjxQgZI.s 			page 58


 441:Drivers/lvgl/src/extra/widgets/meter/lv_meter.c ****             if(minor_cnt == scale->tick_major_nth) {
 1525              		.loc 1 441 18 is_stmt 0 view .LVU537
 1526 0348 0793     		str	r3, [sp, #28]
 1527              	.LVL138:
 1528              	.L47:
 454:Drivers/lvgl/src/extra/widgets/meter/lv_meter.c **** 
 1529              		.loc 1 454 13 is_stmt 1 view .LVU538
 456:Drivers/lvgl/src/extra/widgets/meter/lv_meter.c ****             _LV_LL_READ_BACK(&meter->indicator_ll, indic) {
 1530              		.loc 1 456 13 view .LVU539
 457:Drivers/lvgl/src/extra/widgets/meter/lv_meter.c ****                 if(indic->type != LV_METER_INDICATOR_TYPE_SCALE_LINES) continue;
 1531              		.loc 1 457 13 view .LVU540
 1532 034a 4846     		mov	r0, r9
 1533              	.LVL139:
 457:Drivers/lvgl/src/extra/widgets/meter/lv_meter.c ****                 if(indic->type != LV_METER_INDICATOR_TYPE_SCALE_LINES) continue;
 1534              		.loc 1 457 13 is_stmt 0 view .LVU541
 1535 034c FFF7FEFF 		bl	_lv_ll_get_tail
 1536              	.LVL140:
 457:Drivers/lvgl/src/extra/widgets/meter/lv_meter.c ****                 if(indic->type != LV_METER_INDICATOR_TYPE_SCALE_LINES) continue;
 1537              		.loc 1 457 13 is_stmt 1 view .LVU542
 454:Drivers/lvgl/src/extra/widgets/meter/lv_meter.c **** 
 1538              		.loc 1 454 24 is_stmt 0 view .LVU543
 1539 0350 059F     		ldr	r7, [sp, #20]
 457:Drivers/lvgl/src/extra/widgets/meter/lv_meter.c ****                 if(indic->type != LV_METER_INDICATOR_TYPE_SCALE_LINES) continue;
 1540              		.loc 1 457 13 view .LVU544
 1541 0352 0446     		mov	r4, r0
 1542 0354 0028     		cmp	r0, #0
 1543 0356 54D0     		beq	.L33
 1544 0358 02E0     		b	.L74
 1545              	.L75:
 1546 035a 00BF     		.align	2
 1547              	.L73:
 1548 035c 00000000 		.word	.LANCHOR0
 1549              	.L74:
 1550              	.LVL141:
 1551              	.L37:
 458:Drivers/lvgl/src/extra/widgets/meter/lv_meter.c ****                 if(value_of_line >= indic->start_value && value_of_line <= indic->end_value) {
 1552              		.loc 1 458 17 is_stmt 1 view .LVU545
 459:Drivers/lvgl/src/extra/widgets/meter/lv_meter.c ****                     line_width += indic->type_data.scale_lines.width_mod;
 1553              		.loc 1 459 17 view .LVU546
 458:Drivers/lvgl/src/extra/widgets/meter/lv_meter.c ****                 if(value_of_line >= indic->start_value && value_of_line <= indic->end_value) {
 1554              		.loc 1 458 19 is_stmt 0 view .LVU547
 1555 0360 2379     		ldrb	r3, [r4, #4]	@ zero_extendqisi2
 1556 0362 022B     		cmp	r3, #2
 1557 0364 46D1     		bne	.L34
 459:Drivers/lvgl/src/extra/widgets/meter/lv_meter.c ****                     line_width += indic->type_data.scale_lines.width_mod;
 1558              		.loc 1 459 42 view .LVU548
 1559 0366 A168     		ldr	r1, [r4, #8]
 459:Drivers/lvgl/src/extra/widgets/meter/lv_meter.c ****                     line_width += indic->type_data.scale_lines.width_mod;
 1560              		.loc 1 459 19 view .LVU549
 1561 0368 B142     		cmp	r1, r6
 1562 036a 43DC     		bgt	.L34
 460:Drivers/lvgl/src/extra/widgets/meter/lv_meter.c **** 
 1563              		.loc 1 460 21 is_stmt 1 view .LVU550
 459:Drivers/lvgl/src/extra/widgets/meter/lv_meter.c ****                     line_width += indic->type_data.scale_lines.width_mod;
 1564              		.loc 1 459 81 is_stmt 0 view .LVU551
 1565 036c E268     		ldr	r2, [r4, #12]
 459:Drivers/lvgl/src/extra/widgets/meter/lv_meter.c ****                     line_width += indic->type_data.scale_lines.width_mod;
ARM GAS  /var/folders/0z/tsy30v1j4xl4_7kw94k978ww0000gn/T//ccjxQgZI.s 			page 59


 1566              		.loc 1 459 56 view .LVU552
 1567 036e B242     		cmp	r2, r6
 1568 0370 40DB     		blt	.L34
 1569              	.LBB160:
 466:Drivers/lvgl/src/extra/widgets/meter/lv_meter.c ****                         if(indic->type_data.scale_lines.local_grad) {
 1570              		.loc 1 466 25 is_stmt 1 view .LVU553
 467:Drivers/lvgl/src/extra/widgets/meter/lv_meter.c ****                             ratio = lv_map(value_of_line, indic->start_value, indic->end_value, LV_
 1571              		.loc 1 467 25 view .LVU554
 1572              	.LBE160:
 460:Drivers/lvgl/src/extra/widgets/meter/lv_meter.c **** 
 1573              		.loc 1 460 32 is_stmt 0 view .LVU555
 1574 0372 238A     		ldrh	r3, [r4, #16]
 462:Drivers/lvgl/src/extra/widgets/meter/lv_meter.c ****                         line_color = indic->type_data.scale_lines.color_start;
 1575              		.loc 1 462 111 view .LVU556
 1576 0374 A58A     		ldrh	r5, [r4, #20]
 462:Drivers/lvgl/src/extra/widgets/meter/lv_meter.c ****                         line_color = indic->type_data.scale_lines.color_start;
 1577              		.loc 1 462 23 view .LVU557
 1578 0376 608A     		ldrh	r0, [r4, #18]
 1579              	.LVL142:
 460:Drivers/lvgl/src/extra/widgets/meter/lv_meter.c **** 
 1580              		.loc 1 460 32 view .LVU558
 1581 0378 3B44     		add	r3, r3, r7
 462:Drivers/lvgl/src/extra/widgets/meter/lv_meter.c ****                         line_color = indic->type_data.scale_lines.color_start;
 1582              		.loc 1 462 23 view .LVU559
 1583 037a A842     		cmp	r0, r5
 460:Drivers/lvgl/src/extra/widgets/meter/lv_meter.c **** 
 1584              		.loc 1 460 32 view .LVU560
 1585 037c 1FB2     		sxth	r7, r3
 1586              	.LVL143:
 462:Drivers/lvgl/src/extra/widgets/meter/lv_meter.c ****                         line_color = indic->type_data.scale_lines.color_start;
 1587              		.loc 1 462 21 is_stmt 1 view .LVU561
 462:Drivers/lvgl/src/extra/widgets/meter/lv_meter.c ****                         line_color = indic->type_data.scale_lines.color_start;
 1588              		.loc 1 462 23 is_stmt 0 view .LVU562
 1589 037e 39D0     		beq	.L34
 1590              	.LBB165:
 468:Drivers/lvgl/src/extra/widgets/meter/lv_meter.c ****                         }
 1591              		.loc 1 468 29 is_stmt 1 view .LVU563
 471:Drivers/lvgl/src/extra/widgets/meter/lv_meter.c ****                         }
 1592              		.loc 1 471 29 view .LVU564
 467:Drivers/lvgl/src/extra/widgets/meter/lv_meter.c ****                             ratio = lv_map(value_of_line, indic->start_value, indic->end_value, LV_
 1593              		.loc 1 467 28 is_stmt 0 view .LVU565
 1594 0380 A07D     		ldrb	r0, [r4, #22]	@ zero_extendqisi2
 467:Drivers/lvgl/src/extra/widgets/meter/lv_meter.c ****                             ratio = lv_map(value_of_line, indic->start_value, indic->end_value, LV_
 1595              		.loc 1 467 27 view .LVU566
 1596 0382 10F00100 		ands	r0, r0, #1
 468:Drivers/lvgl/src/extra/widgets/meter/lv_meter.c ****                         }
 1597              		.loc 1 468 37 view .LVU567
 1598 0386 4FF00003 		mov	r3, #0
 471:Drivers/lvgl/src/extra/widgets/meter/lv_meter.c ****                         }
 1599              		.loc 1 471 37 view .LVU568
 1600 038a 08BF     		it	eq
 1601 038c 0346     		moveq	r3, r0
 1602 038e 4FF0FF00 		mov	r0, #255
 1603 0392 04BF     		itt	eq
 1604 0394 DAF81820 		ldreq	r2, [r10, #24]
 1605 0398 DAF81410 		ldreq	r1, [r10, #20]
 1606 039c 0090     		str	r0, [sp]
ARM GAS  /var/folders/0z/tsy30v1j4xl4_7kw94k978ww0000gn/T//ccjxQgZI.s 			page 60


 1607 039e 3046     		mov	r0, r6
 1608 03a0 FFF7FEFF 		bl	lv_map
 1609              	.LVL144:
 1610              	.LBB161:
 1611              	.LBB162:
 1612              		.file 5 "Drivers/lvgl/src/extra/widgets/meter/../../../../src/hal/../draw/../misc/lv_color.h"
   1:Drivers/lvgl/src/extra/widgets/meter/../../../../src/hal/../draw/../misc/lv_color.h **** /**
   2:Drivers/lvgl/src/extra/widgets/meter/../../../../src/hal/../draw/../misc/lv_color.h ****  * @file lv_color.h
   3:Drivers/lvgl/src/extra/widgets/meter/../../../../src/hal/../draw/../misc/lv_color.h ****  *
   4:Drivers/lvgl/src/extra/widgets/meter/../../../../src/hal/../draw/../misc/lv_color.h ****  */
   5:Drivers/lvgl/src/extra/widgets/meter/../../../../src/hal/../draw/../misc/lv_color.h **** 
   6:Drivers/lvgl/src/extra/widgets/meter/../../../../src/hal/../draw/../misc/lv_color.h **** #ifndef LV_COLOR_H
   7:Drivers/lvgl/src/extra/widgets/meter/../../../../src/hal/../draw/../misc/lv_color.h **** #define LV_COLOR_H
   8:Drivers/lvgl/src/extra/widgets/meter/../../../../src/hal/../draw/../misc/lv_color.h **** 
   9:Drivers/lvgl/src/extra/widgets/meter/../../../../src/hal/../draw/../misc/lv_color.h **** #ifdef __cplusplus
  10:Drivers/lvgl/src/extra/widgets/meter/../../../../src/hal/../draw/../misc/lv_color.h **** extern "C" {
  11:Drivers/lvgl/src/extra/widgets/meter/../../../../src/hal/../draw/../misc/lv_color.h **** #endif
  12:Drivers/lvgl/src/extra/widgets/meter/../../../../src/hal/../draw/../misc/lv_color.h **** 
  13:Drivers/lvgl/src/extra/widgets/meter/../../../../src/hal/../draw/../misc/lv_color.h **** /*********************
  14:Drivers/lvgl/src/extra/widgets/meter/../../../../src/hal/../draw/../misc/lv_color.h ****  *      INCLUDES
  15:Drivers/lvgl/src/extra/widgets/meter/../../../../src/hal/../draw/../misc/lv_color.h ****  *********************/
  16:Drivers/lvgl/src/extra/widgets/meter/../../../../src/hal/../draw/../misc/lv_color.h **** #include "../lv_conf_internal.h"
  17:Drivers/lvgl/src/extra/widgets/meter/../../../../src/hal/../draw/../misc/lv_color.h **** #include "lv_assert.h"
  18:Drivers/lvgl/src/extra/widgets/meter/../../../../src/hal/../draw/../misc/lv_color.h **** #include "lv_math.h"
  19:Drivers/lvgl/src/extra/widgets/meter/../../../../src/hal/../draw/../misc/lv_color.h **** #include "lv_types.h"
  20:Drivers/lvgl/src/extra/widgets/meter/../../../../src/hal/../draw/../misc/lv_color.h **** 
  21:Drivers/lvgl/src/extra/widgets/meter/../../../../src/hal/../draw/../misc/lv_color.h **** /*Error checking*/
  22:Drivers/lvgl/src/extra/widgets/meter/../../../../src/hal/../draw/../misc/lv_color.h **** #if LV_COLOR_DEPTH == 24
  23:Drivers/lvgl/src/extra/widgets/meter/../../../../src/hal/../draw/../misc/lv_color.h **** #error "LV_COLOR_DEPTH 24 is deprecated. Use LV_COLOR_DEPTH 32 instead (lv_conf.h)"
  24:Drivers/lvgl/src/extra/widgets/meter/../../../../src/hal/../draw/../misc/lv_color.h **** #endif
  25:Drivers/lvgl/src/extra/widgets/meter/../../../../src/hal/../draw/../misc/lv_color.h **** 
  26:Drivers/lvgl/src/extra/widgets/meter/../../../../src/hal/../draw/../misc/lv_color.h **** #if LV_COLOR_DEPTH != 16 && LV_COLOR_16_SWAP != 0
  27:Drivers/lvgl/src/extra/widgets/meter/../../../../src/hal/../draw/../misc/lv_color.h **** #error "LV_COLOR_16_SWAP requires LV_COLOR_DEPTH == 16. Set it in lv_conf.h"
  28:Drivers/lvgl/src/extra/widgets/meter/../../../../src/hal/../draw/../misc/lv_color.h **** #endif
  29:Drivers/lvgl/src/extra/widgets/meter/../../../../src/hal/../draw/../misc/lv_color.h **** 
  30:Drivers/lvgl/src/extra/widgets/meter/../../../../src/hal/../draw/../misc/lv_color.h **** #include <stdint.h>
  31:Drivers/lvgl/src/extra/widgets/meter/../../../../src/hal/../draw/../misc/lv_color.h **** 
  32:Drivers/lvgl/src/extra/widgets/meter/../../../../src/hal/../draw/../misc/lv_color.h **** /*********************
  33:Drivers/lvgl/src/extra/widgets/meter/../../../../src/hal/../draw/../misc/lv_color.h ****  *      DEFINES
  34:Drivers/lvgl/src/extra/widgets/meter/../../../../src/hal/../draw/../misc/lv_color.h ****  *********************/
  35:Drivers/lvgl/src/extra/widgets/meter/../../../../src/hal/../draw/../misc/lv_color.h **** LV_EXPORT_CONST_INT(LV_COLOR_DEPTH);
  36:Drivers/lvgl/src/extra/widgets/meter/../../../../src/hal/../draw/../misc/lv_color.h **** LV_EXPORT_CONST_INT(LV_COLOR_16_SWAP);
  37:Drivers/lvgl/src/extra/widgets/meter/../../../../src/hal/../draw/../misc/lv_color.h **** 
  38:Drivers/lvgl/src/extra/widgets/meter/../../../../src/hal/../draw/../misc/lv_color.h **** /**
  39:Drivers/lvgl/src/extra/widgets/meter/../../../../src/hal/../draw/../misc/lv_color.h ****  * Opacity percentages.
  40:Drivers/lvgl/src/extra/widgets/meter/../../../../src/hal/../draw/../misc/lv_color.h ****  */
  41:Drivers/lvgl/src/extra/widgets/meter/../../../../src/hal/../draw/../misc/lv_color.h **** enum {
  42:Drivers/lvgl/src/extra/widgets/meter/../../../../src/hal/../draw/../misc/lv_color.h ****     LV_OPA_TRANSP = 0,
  43:Drivers/lvgl/src/extra/widgets/meter/../../../../src/hal/../draw/../misc/lv_color.h ****     LV_OPA_0      = 0,
  44:Drivers/lvgl/src/extra/widgets/meter/../../../../src/hal/../draw/../misc/lv_color.h ****     LV_OPA_10     = 25,
  45:Drivers/lvgl/src/extra/widgets/meter/../../../../src/hal/../draw/../misc/lv_color.h ****     LV_OPA_20     = 51,
  46:Drivers/lvgl/src/extra/widgets/meter/../../../../src/hal/../draw/../misc/lv_color.h ****     LV_OPA_30     = 76,
  47:Drivers/lvgl/src/extra/widgets/meter/../../../../src/hal/../draw/../misc/lv_color.h ****     LV_OPA_40     = 102,
  48:Drivers/lvgl/src/extra/widgets/meter/../../../../src/hal/../draw/../misc/lv_color.h ****     LV_OPA_50     = 127,
  49:Drivers/lvgl/src/extra/widgets/meter/../../../../src/hal/../draw/../misc/lv_color.h ****     LV_OPA_60     = 153,
  50:Drivers/lvgl/src/extra/widgets/meter/../../../../src/hal/../draw/../misc/lv_color.h ****     LV_OPA_70     = 178,
  51:Drivers/lvgl/src/extra/widgets/meter/../../../../src/hal/../draw/../misc/lv_color.h ****     LV_OPA_80     = 204,
ARM GAS  /var/folders/0z/tsy30v1j4xl4_7kw94k978ww0000gn/T//ccjxQgZI.s 			page 61


  52:Drivers/lvgl/src/extra/widgets/meter/../../../../src/hal/../draw/../misc/lv_color.h ****     LV_OPA_90     = 229,
  53:Drivers/lvgl/src/extra/widgets/meter/../../../../src/hal/../draw/../misc/lv_color.h ****     LV_OPA_100    = 255,
  54:Drivers/lvgl/src/extra/widgets/meter/../../../../src/hal/../draw/../misc/lv_color.h ****     LV_OPA_COVER  = 255,
  55:Drivers/lvgl/src/extra/widgets/meter/../../../../src/hal/../draw/../misc/lv_color.h **** };
  56:Drivers/lvgl/src/extra/widgets/meter/../../../../src/hal/../draw/../misc/lv_color.h **** 
  57:Drivers/lvgl/src/extra/widgets/meter/../../../../src/hal/../draw/../misc/lv_color.h **** #define LV_OPA_MIN 2    /*Opacities below this will be transparent*/
  58:Drivers/lvgl/src/extra/widgets/meter/../../../../src/hal/../draw/../misc/lv_color.h **** #define LV_OPA_MAX 253  /*Opacities above this will fully cover*/
  59:Drivers/lvgl/src/extra/widgets/meter/../../../../src/hal/../draw/../misc/lv_color.h **** 
  60:Drivers/lvgl/src/extra/widgets/meter/../../../../src/hal/../draw/../misc/lv_color.h **** #if LV_COLOR_DEPTH == 1
  61:Drivers/lvgl/src/extra/widgets/meter/../../../../src/hal/../draw/../misc/lv_color.h **** #define LV_COLOR_SIZE 8
  62:Drivers/lvgl/src/extra/widgets/meter/../../../../src/hal/../draw/../misc/lv_color.h **** #elif LV_COLOR_DEPTH == 8
  63:Drivers/lvgl/src/extra/widgets/meter/../../../../src/hal/../draw/../misc/lv_color.h **** #define LV_COLOR_SIZE 8
  64:Drivers/lvgl/src/extra/widgets/meter/../../../../src/hal/../draw/../misc/lv_color.h **** #elif LV_COLOR_DEPTH == 16
  65:Drivers/lvgl/src/extra/widgets/meter/../../../../src/hal/../draw/../misc/lv_color.h **** #define LV_COLOR_SIZE 16
  66:Drivers/lvgl/src/extra/widgets/meter/../../../../src/hal/../draw/../misc/lv_color.h **** #elif LV_COLOR_DEPTH == 32
  67:Drivers/lvgl/src/extra/widgets/meter/../../../../src/hal/../draw/../misc/lv_color.h **** #define LV_COLOR_SIZE 32
  68:Drivers/lvgl/src/extra/widgets/meter/../../../../src/hal/../draw/../misc/lv_color.h **** #else
  69:Drivers/lvgl/src/extra/widgets/meter/../../../../src/hal/../draw/../misc/lv_color.h **** #error "Invalid LV_COLOR_DEPTH in lv_conf.h! Set it to 1, 8, 16 or 32!"
  70:Drivers/lvgl/src/extra/widgets/meter/../../../../src/hal/../draw/../misc/lv_color.h **** #endif
  71:Drivers/lvgl/src/extra/widgets/meter/../../../../src/hal/../draw/../misc/lv_color.h **** 
  72:Drivers/lvgl/src/extra/widgets/meter/../../../../src/hal/../draw/../misc/lv_color.h **** #if defined(__cplusplus) && !defined(_LV_COLOR_HAS_MODERN_CPP)
  73:Drivers/lvgl/src/extra/widgets/meter/../../../../src/hal/../draw/../misc/lv_color.h **** /**
  74:Drivers/lvgl/src/extra/widgets/meter/../../../../src/hal/../draw/../misc/lv_color.h **** * MSVC compiler's definition of the __cplusplus indicating 199711L regardless to C++ standard versi
  75:Drivers/lvgl/src/extra/widgets/meter/../../../../src/hal/../draw/../misc/lv_color.h **** * see https://devblogs.microsoft.com/cppblog/msvc-now-correctly-reports-cplusplus
  76:Drivers/lvgl/src/extra/widgets/meter/../../../../src/hal/../draw/../misc/lv_color.h **** * so we use _MSC_VER macro instead of __cplusplus
  77:Drivers/lvgl/src/extra/widgets/meter/../../../../src/hal/../draw/../misc/lv_color.h **** */
  78:Drivers/lvgl/src/extra/widgets/meter/../../../../src/hal/../draw/../misc/lv_color.h **** #ifdef _MSC_VER
  79:Drivers/lvgl/src/extra/widgets/meter/../../../../src/hal/../draw/../misc/lv_color.h **** #if _MSC_VER >= 1900 /*Visual Studio 2015*/
  80:Drivers/lvgl/src/extra/widgets/meter/../../../../src/hal/../draw/../misc/lv_color.h **** #define _LV_COLOR_HAS_MODERN_CPP 1
  81:Drivers/lvgl/src/extra/widgets/meter/../../../../src/hal/../draw/../misc/lv_color.h **** #endif
  82:Drivers/lvgl/src/extra/widgets/meter/../../../../src/hal/../draw/../misc/lv_color.h **** #else
  83:Drivers/lvgl/src/extra/widgets/meter/../../../../src/hal/../draw/../misc/lv_color.h **** #if __cplusplus >= 201103L
  84:Drivers/lvgl/src/extra/widgets/meter/../../../../src/hal/../draw/../misc/lv_color.h **** #define _LV_COLOR_HAS_MODERN_CPP 1
  85:Drivers/lvgl/src/extra/widgets/meter/../../../../src/hal/../draw/../misc/lv_color.h **** #endif
  86:Drivers/lvgl/src/extra/widgets/meter/../../../../src/hal/../draw/../misc/lv_color.h **** #endif
  87:Drivers/lvgl/src/extra/widgets/meter/../../../../src/hal/../draw/../misc/lv_color.h **** #endif /*__cplusplus*/
  88:Drivers/lvgl/src/extra/widgets/meter/../../../../src/hal/../draw/../misc/lv_color.h **** 
  89:Drivers/lvgl/src/extra/widgets/meter/../../../../src/hal/../draw/../misc/lv_color.h **** #ifndef _LV_COLOR_HAS_MODERN_CPP
  90:Drivers/lvgl/src/extra/widgets/meter/../../../../src/hal/../draw/../misc/lv_color.h **** #define _LV_COLOR_HAS_MODERN_CPP 0
  91:Drivers/lvgl/src/extra/widgets/meter/../../../../src/hal/../draw/../misc/lv_color.h **** #endif
  92:Drivers/lvgl/src/extra/widgets/meter/../../../../src/hal/../draw/../misc/lv_color.h **** 
  93:Drivers/lvgl/src/extra/widgets/meter/../../../../src/hal/../draw/../misc/lv_color.h **** #if _LV_COLOR_HAS_MODERN_CPP
  94:Drivers/lvgl/src/extra/widgets/meter/../../../../src/hal/../draw/../misc/lv_color.h **** /*Fix msvc compiler error C4576 inside C++ code*/
  95:Drivers/lvgl/src/extra/widgets/meter/../../../../src/hal/../draw/../misc/lv_color.h **** #define _LV_COLOR_MAKE_TYPE_HELPER lv_color_t
  96:Drivers/lvgl/src/extra/widgets/meter/../../../../src/hal/../draw/../misc/lv_color.h **** #else
  97:Drivers/lvgl/src/extra/widgets/meter/../../../../src/hal/../draw/../misc/lv_color.h **** #define _LV_COLOR_MAKE_TYPE_HELPER (lv_color_t)
  98:Drivers/lvgl/src/extra/widgets/meter/../../../../src/hal/../draw/../misc/lv_color.h **** #endif
  99:Drivers/lvgl/src/extra/widgets/meter/../../../../src/hal/../draw/../misc/lv_color.h **** 
 100:Drivers/lvgl/src/extra/widgets/meter/../../../../src/hal/../draw/../misc/lv_color.h **** /*---------------------------------------
 101:Drivers/lvgl/src/extra/widgets/meter/../../../../src/hal/../draw/../misc/lv_color.h ****  * Macros for all existing color depths
 102:Drivers/lvgl/src/extra/widgets/meter/../../../../src/hal/../draw/../misc/lv_color.h ****  * to set/get values of the color channels
 103:Drivers/lvgl/src/extra/widgets/meter/../../../../src/hal/../draw/../misc/lv_color.h ****  *------------------------------------------*/
 104:Drivers/lvgl/src/extra/widgets/meter/../../../../src/hal/../draw/../misc/lv_color.h **** # define LV_COLOR_SET_R1(c, v) (c).ch.red = (uint8_t)((v) & 0x1)
 105:Drivers/lvgl/src/extra/widgets/meter/../../../../src/hal/../draw/../misc/lv_color.h **** # define LV_COLOR_SET_G1(c, v) (c).ch.green = (uint8_t)((v) & 0x1)
 106:Drivers/lvgl/src/extra/widgets/meter/../../../../src/hal/../draw/../misc/lv_color.h **** # define LV_COLOR_SET_B1(c, v) (c).ch.blue = (uint8_t)((v) & 0x1)
 107:Drivers/lvgl/src/extra/widgets/meter/../../../../src/hal/../draw/../misc/lv_color.h **** # define LV_COLOR_SET_A1(c, v) do {} while(0)
 108:Drivers/lvgl/src/extra/widgets/meter/../../../../src/hal/../draw/../misc/lv_color.h **** 
ARM GAS  /var/folders/0z/tsy30v1j4xl4_7kw94k978ww0000gn/T//ccjxQgZI.s 			page 62


 109:Drivers/lvgl/src/extra/widgets/meter/../../../../src/hal/../draw/../misc/lv_color.h **** # define LV_COLOR_GET_R1(c) (c).ch.red
 110:Drivers/lvgl/src/extra/widgets/meter/../../../../src/hal/../draw/../misc/lv_color.h **** # define LV_COLOR_GET_G1(c) (c).ch.green
 111:Drivers/lvgl/src/extra/widgets/meter/../../../../src/hal/../draw/../misc/lv_color.h **** # define LV_COLOR_GET_B1(c) (c).ch.blue
 112:Drivers/lvgl/src/extra/widgets/meter/../../../../src/hal/../draw/../misc/lv_color.h **** # define LV_COLOR_GET_A1(c) 0xFF
 113:Drivers/lvgl/src/extra/widgets/meter/../../../../src/hal/../draw/../misc/lv_color.h **** 
 114:Drivers/lvgl/src/extra/widgets/meter/../../../../src/hal/../draw/../misc/lv_color.h **** # define _LV_COLOR_ZERO_INITIALIZER1 {0x00}
 115:Drivers/lvgl/src/extra/widgets/meter/../../../../src/hal/../draw/../misc/lv_color.h **** # define LV_COLOR_MAKE1(r8, g8, b8)  {(uint8_t)((b8 >> 7) | (g8 >> 7) | (r8 >> 7))}
 116:Drivers/lvgl/src/extra/widgets/meter/../../../../src/hal/../draw/../misc/lv_color.h **** 
 117:Drivers/lvgl/src/extra/widgets/meter/../../../../src/hal/../draw/../misc/lv_color.h **** # define LV_COLOR_SET_R8(c, v) (c).ch.red = (uint8_t)((v) & 0x7U)
 118:Drivers/lvgl/src/extra/widgets/meter/../../../../src/hal/../draw/../misc/lv_color.h **** # define LV_COLOR_SET_G8(c, v) (c).ch.green = (uint8_t)((v) & 0x7U)
 119:Drivers/lvgl/src/extra/widgets/meter/../../../../src/hal/../draw/../misc/lv_color.h **** # define LV_COLOR_SET_B8(c, v) (c).ch.blue = (uint8_t)((v) & 0x3U)
 120:Drivers/lvgl/src/extra/widgets/meter/../../../../src/hal/../draw/../misc/lv_color.h **** # define LV_COLOR_SET_A8(c, v) do {} while(0)
 121:Drivers/lvgl/src/extra/widgets/meter/../../../../src/hal/../draw/../misc/lv_color.h **** 
 122:Drivers/lvgl/src/extra/widgets/meter/../../../../src/hal/../draw/../misc/lv_color.h **** # define LV_COLOR_GET_R8(c) (c).ch.red
 123:Drivers/lvgl/src/extra/widgets/meter/../../../../src/hal/../draw/../misc/lv_color.h **** # define LV_COLOR_GET_G8(c) (c).ch.green
 124:Drivers/lvgl/src/extra/widgets/meter/../../../../src/hal/../draw/../misc/lv_color.h **** # define LV_COLOR_GET_B8(c) (c).ch.blue
 125:Drivers/lvgl/src/extra/widgets/meter/../../../../src/hal/../draw/../misc/lv_color.h **** # define LV_COLOR_GET_A8(c) 0xFF
 126:Drivers/lvgl/src/extra/widgets/meter/../../../../src/hal/../draw/../misc/lv_color.h **** 
 127:Drivers/lvgl/src/extra/widgets/meter/../../../../src/hal/../draw/../misc/lv_color.h **** # define _LV_COLOR_ZERO_INITIALIZER8 {{0x00, 0x00, 0x00}}
 128:Drivers/lvgl/src/extra/widgets/meter/../../../../src/hal/../draw/../misc/lv_color.h **** # define LV_COLOR_MAKE8(r8, g8, b8) {{(uint8_t)((b8 >> 6) & 0x3U), (uint8_t)((g8 >> 5) & 0x7U), (ui
 129:Drivers/lvgl/src/extra/widgets/meter/../../../../src/hal/../draw/../misc/lv_color.h **** 
 130:Drivers/lvgl/src/extra/widgets/meter/../../../../src/hal/../draw/../misc/lv_color.h **** # define LV_COLOR_SET_R16(c, v) (c).ch.red = (uint8_t)((v) & 0x1FU)
 131:Drivers/lvgl/src/extra/widgets/meter/../../../../src/hal/../draw/../misc/lv_color.h **** #if LV_COLOR_16_SWAP == 0
 132:Drivers/lvgl/src/extra/widgets/meter/../../../../src/hal/../draw/../misc/lv_color.h **** # define LV_COLOR_SET_G16(c, v) (c).ch.green = (uint8_t)((v) & 0x3FU)
 133:Drivers/lvgl/src/extra/widgets/meter/../../../../src/hal/../draw/../misc/lv_color.h **** #else
 134:Drivers/lvgl/src/extra/widgets/meter/../../../../src/hal/../draw/../misc/lv_color.h **** # define LV_COLOR_SET_G16(c, v) {(c).ch.green_h = (uint8_t)(((v) >> 3) & 0x7); (c).ch.green_l = (ui
 135:Drivers/lvgl/src/extra/widgets/meter/../../../../src/hal/../draw/../misc/lv_color.h **** #endif
 136:Drivers/lvgl/src/extra/widgets/meter/../../../../src/hal/../draw/../misc/lv_color.h **** # define LV_COLOR_SET_B16(c, v) (c).ch.blue = (uint8_t)((v) & 0x1FU)
 137:Drivers/lvgl/src/extra/widgets/meter/../../../../src/hal/../draw/../misc/lv_color.h **** # define LV_COLOR_SET_A16(c, v) do {} while(0)
 138:Drivers/lvgl/src/extra/widgets/meter/../../../../src/hal/../draw/../misc/lv_color.h **** 
 139:Drivers/lvgl/src/extra/widgets/meter/../../../../src/hal/../draw/../misc/lv_color.h **** # define LV_COLOR_GET_R16(c) (c).ch.red
 140:Drivers/lvgl/src/extra/widgets/meter/../../../../src/hal/../draw/../misc/lv_color.h **** #if LV_COLOR_16_SWAP == 0
 141:Drivers/lvgl/src/extra/widgets/meter/../../../../src/hal/../draw/../misc/lv_color.h **** # define LV_COLOR_GET_G16(c) (c).ch.green
 142:Drivers/lvgl/src/extra/widgets/meter/../../../../src/hal/../draw/../misc/lv_color.h **** #else
 143:Drivers/lvgl/src/extra/widgets/meter/../../../../src/hal/../draw/../misc/lv_color.h **** # define LV_COLOR_GET_G16(c) (((c).ch.green_h << 3) + (c).ch.green_l)
 144:Drivers/lvgl/src/extra/widgets/meter/../../../../src/hal/../draw/../misc/lv_color.h **** #endif
 145:Drivers/lvgl/src/extra/widgets/meter/../../../../src/hal/../draw/../misc/lv_color.h **** # define LV_COLOR_GET_B16(c) (c).ch.blue
 146:Drivers/lvgl/src/extra/widgets/meter/../../../../src/hal/../draw/../misc/lv_color.h **** # define LV_COLOR_GET_A16(c) 0xFF
 147:Drivers/lvgl/src/extra/widgets/meter/../../../../src/hal/../draw/../misc/lv_color.h **** 
 148:Drivers/lvgl/src/extra/widgets/meter/../../../../src/hal/../draw/../misc/lv_color.h **** #if LV_COLOR_16_SWAP == 0
 149:Drivers/lvgl/src/extra/widgets/meter/../../../../src/hal/../draw/../misc/lv_color.h **** # define _LV_COLOR_ZERO_INITIALIZER16  {{0x00, 0x00, 0x00}}
 150:Drivers/lvgl/src/extra/widgets/meter/../../../../src/hal/../draw/../misc/lv_color.h **** # define LV_COLOR_MAKE16(r8, g8, b8) {{(uint8_t)((b8 >> 3) & 0x1FU), (uint8_t)((g8 >> 2) & 0x3FU), 
 151:Drivers/lvgl/src/extra/widgets/meter/../../../../src/hal/../draw/../misc/lv_color.h **** #else
 152:Drivers/lvgl/src/extra/widgets/meter/../../../../src/hal/../draw/../misc/lv_color.h **** # define _LV_COLOR_ZERO_INITIALIZER16 {{0x00, 0x00, 0x00, 0x00}}
 153:Drivers/lvgl/src/extra/widgets/meter/../../../../src/hal/../draw/../misc/lv_color.h **** # define LV_COLOR_MAKE16(r8, g8, b8) {{(uint8_t)((g8 >> 5) & 0x7U), (uint8_t)((r8 >> 3) & 0x1FU), (
 154:Drivers/lvgl/src/extra/widgets/meter/../../../../src/hal/../draw/../misc/lv_color.h **** #endif
 155:Drivers/lvgl/src/extra/widgets/meter/../../../../src/hal/../draw/../misc/lv_color.h **** 
 156:Drivers/lvgl/src/extra/widgets/meter/../../../../src/hal/../draw/../misc/lv_color.h **** # define LV_COLOR_SET_R32(c, v) (c).ch.red = (uint8_t)((v) & 0xFF)
 157:Drivers/lvgl/src/extra/widgets/meter/../../../../src/hal/../draw/../misc/lv_color.h **** # define LV_COLOR_SET_G32(c, v) (c).ch.green = (uint8_t)((v) & 0xFF)
 158:Drivers/lvgl/src/extra/widgets/meter/../../../../src/hal/../draw/../misc/lv_color.h **** # define LV_COLOR_SET_B32(c, v) (c).ch.blue = (uint8_t)((v) & 0xFF)
 159:Drivers/lvgl/src/extra/widgets/meter/../../../../src/hal/../draw/../misc/lv_color.h **** # define LV_COLOR_SET_A32(c, v) (c).ch.alpha = (uint8_t)((v) & 0xFF)
 160:Drivers/lvgl/src/extra/widgets/meter/../../../../src/hal/../draw/../misc/lv_color.h **** 
 161:Drivers/lvgl/src/extra/widgets/meter/../../../../src/hal/../draw/../misc/lv_color.h **** # define LV_COLOR_GET_R32(c) (c).ch.red
 162:Drivers/lvgl/src/extra/widgets/meter/../../../../src/hal/../draw/../misc/lv_color.h **** # define LV_COLOR_GET_G32(c) (c).ch.green
 163:Drivers/lvgl/src/extra/widgets/meter/../../../../src/hal/../draw/../misc/lv_color.h **** # define LV_COLOR_GET_B32(c) (c).ch.blue
 164:Drivers/lvgl/src/extra/widgets/meter/../../../../src/hal/../draw/../misc/lv_color.h **** # define LV_COLOR_GET_A32(c) (c).ch.alpha
 165:Drivers/lvgl/src/extra/widgets/meter/../../../../src/hal/../draw/../misc/lv_color.h **** 
ARM GAS  /var/folders/0z/tsy30v1j4xl4_7kw94k978ww0000gn/T//ccjxQgZI.s 			page 63


 166:Drivers/lvgl/src/extra/widgets/meter/../../../../src/hal/../draw/../misc/lv_color.h **** # define _LV_COLOR_ZERO_INITIALIZER32  {{0x00, 0x00, 0x00, 0x00}}
 167:Drivers/lvgl/src/extra/widgets/meter/../../../../src/hal/../draw/../misc/lv_color.h **** # define LV_COLOR_MAKE32(r8, g8, b8) {{b8, g8, r8, 0xff}} /*Fix 0xff alpha*/
 168:Drivers/lvgl/src/extra/widgets/meter/../../../../src/hal/../draw/../misc/lv_color.h **** 
 169:Drivers/lvgl/src/extra/widgets/meter/../../../../src/hal/../draw/../misc/lv_color.h **** /*---------------------------------------
 170:Drivers/lvgl/src/extra/widgets/meter/../../../../src/hal/../draw/../misc/lv_color.h ****  * Macros for the current color depth
 171:Drivers/lvgl/src/extra/widgets/meter/../../../../src/hal/../draw/../misc/lv_color.h ****  * to set/get values of the color channels
 172:Drivers/lvgl/src/extra/widgets/meter/../../../../src/hal/../draw/../misc/lv_color.h ****  *------------------------------------------*/
 173:Drivers/lvgl/src/extra/widgets/meter/../../../../src/hal/../draw/../misc/lv_color.h **** #define LV_COLOR_SET_R(c, v) LV_CONCAT(LV_COLOR_SET_R, LV_COLOR_DEPTH)(c, v)
 174:Drivers/lvgl/src/extra/widgets/meter/../../../../src/hal/../draw/../misc/lv_color.h **** #define LV_COLOR_SET_G(c, v) LV_CONCAT(LV_COLOR_SET_G, LV_COLOR_DEPTH)(c, v)
 175:Drivers/lvgl/src/extra/widgets/meter/../../../../src/hal/../draw/../misc/lv_color.h **** #define LV_COLOR_SET_B(c, v) LV_CONCAT(LV_COLOR_SET_B, LV_COLOR_DEPTH)(c, v)
 176:Drivers/lvgl/src/extra/widgets/meter/../../../../src/hal/../draw/../misc/lv_color.h **** #define LV_COLOR_SET_A(c, v) LV_CONCAT(LV_COLOR_SET_A, LV_COLOR_DEPTH)(c, v)
 177:Drivers/lvgl/src/extra/widgets/meter/../../../../src/hal/../draw/../misc/lv_color.h **** 
 178:Drivers/lvgl/src/extra/widgets/meter/../../../../src/hal/../draw/../misc/lv_color.h **** #define LV_COLOR_GET_R(c) LV_CONCAT(LV_COLOR_GET_R, LV_COLOR_DEPTH)(c)
 179:Drivers/lvgl/src/extra/widgets/meter/../../../../src/hal/../draw/../misc/lv_color.h **** #define LV_COLOR_GET_G(c) LV_CONCAT(LV_COLOR_GET_G, LV_COLOR_DEPTH)(c)
 180:Drivers/lvgl/src/extra/widgets/meter/../../../../src/hal/../draw/../misc/lv_color.h **** #define LV_COLOR_GET_B(c) LV_CONCAT(LV_COLOR_GET_B, LV_COLOR_DEPTH)(c)
 181:Drivers/lvgl/src/extra/widgets/meter/../../../../src/hal/../draw/../misc/lv_color.h **** #define LV_COLOR_GET_A(c) LV_CONCAT(LV_COLOR_GET_A, LV_COLOR_DEPTH)(c)
 182:Drivers/lvgl/src/extra/widgets/meter/../../../../src/hal/../draw/../misc/lv_color.h **** 
 183:Drivers/lvgl/src/extra/widgets/meter/../../../../src/hal/../draw/../misc/lv_color.h **** #define _LV_COLOR_ZERO_INITIALIZER LV_CONCAT(_LV_COLOR_ZERO_INITIALIZER, LV_COLOR_DEPTH)
 184:Drivers/lvgl/src/extra/widgets/meter/../../../../src/hal/../draw/../misc/lv_color.h **** #define LV_COLOR_MAKE(r8, g8, b8) LV_CONCAT(LV_COLOR_MAKE, LV_COLOR_DEPTH)(r8, g8, b8)
 185:Drivers/lvgl/src/extra/widgets/meter/../../../../src/hal/../draw/../misc/lv_color.h **** 
 186:Drivers/lvgl/src/extra/widgets/meter/../../../../src/hal/../draw/../misc/lv_color.h **** /**********************
 187:Drivers/lvgl/src/extra/widgets/meter/../../../../src/hal/../draw/../misc/lv_color.h ****  *      TYPEDEFS
 188:Drivers/lvgl/src/extra/widgets/meter/../../../../src/hal/../draw/../misc/lv_color.h ****  **********************/
 189:Drivers/lvgl/src/extra/widgets/meter/../../../../src/hal/../draw/../misc/lv_color.h **** 
 190:Drivers/lvgl/src/extra/widgets/meter/../../../../src/hal/../draw/../misc/lv_color.h **** typedef union {
 191:Drivers/lvgl/src/extra/widgets/meter/../../../../src/hal/../draw/../misc/lv_color.h ****     uint8_t full; /*must be declared first to set all bits of byte via initializer list*/
 192:Drivers/lvgl/src/extra/widgets/meter/../../../../src/hal/../draw/../misc/lv_color.h ****     union {
 193:Drivers/lvgl/src/extra/widgets/meter/../../../../src/hal/../draw/../misc/lv_color.h ****         uint8_t blue : 1;
 194:Drivers/lvgl/src/extra/widgets/meter/../../../../src/hal/../draw/../misc/lv_color.h ****         uint8_t green : 1;
 195:Drivers/lvgl/src/extra/widgets/meter/../../../../src/hal/../draw/../misc/lv_color.h ****         uint8_t red : 1;
 196:Drivers/lvgl/src/extra/widgets/meter/../../../../src/hal/../draw/../misc/lv_color.h ****     } ch;
 197:Drivers/lvgl/src/extra/widgets/meter/../../../../src/hal/../draw/../misc/lv_color.h **** } lv_color1_t;
 198:Drivers/lvgl/src/extra/widgets/meter/../../../../src/hal/../draw/../misc/lv_color.h **** 
 199:Drivers/lvgl/src/extra/widgets/meter/../../../../src/hal/../draw/../misc/lv_color.h **** typedef union {
 200:Drivers/lvgl/src/extra/widgets/meter/../../../../src/hal/../draw/../misc/lv_color.h ****     struct {
 201:Drivers/lvgl/src/extra/widgets/meter/../../../../src/hal/../draw/../misc/lv_color.h ****         uint8_t blue : 2;
 202:Drivers/lvgl/src/extra/widgets/meter/../../../../src/hal/../draw/../misc/lv_color.h ****         uint8_t green : 3;
 203:Drivers/lvgl/src/extra/widgets/meter/../../../../src/hal/../draw/../misc/lv_color.h ****         uint8_t red : 3;
 204:Drivers/lvgl/src/extra/widgets/meter/../../../../src/hal/../draw/../misc/lv_color.h ****     } ch;
 205:Drivers/lvgl/src/extra/widgets/meter/../../../../src/hal/../draw/../misc/lv_color.h ****     uint8_t full;
 206:Drivers/lvgl/src/extra/widgets/meter/../../../../src/hal/../draw/../misc/lv_color.h **** } lv_color8_t;
 207:Drivers/lvgl/src/extra/widgets/meter/../../../../src/hal/../draw/../misc/lv_color.h **** 
 208:Drivers/lvgl/src/extra/widgets/meter/../../../../src/hal/../draw/../misc/lv_color.h **** typedef union {
 209:Drivers/lvgl/src/extra/widgets/meter/../../../../src/hal/../draw/../misc/lv_color.h ****     struct {
 210:Drivers/lvgl/src/extra/widgets/meter/../../../../src/hal/../draw/../misc/lv_color.h **** #if LV_COLOR_16_SWAP == 0
 211:Drivers/lvgl/src/extra/widgets/meter/../../../../src/hal/../draw/../misc/lv_color.h ****         uint16_t blue : 5;
 212:Drivers/lvgl/src/extra/widgets/meter/../../../../src/hal/../draw/../misc/lv_color.h ****         uint16_t green : 6;
 213:Drivers/lvgl/src/extra/widgets/meter/../../../../src/hal/../draw/../misc/lv_color.h ****         uint16_t red : 5;
 214:Drivers/lvgl/src/extra/widgets/meter/../../../../src/hal/../draw/../misc/lv_color.h **** #else
 215:Drivers/lvgl/src/extra/widgets/meter/../../../../src/hal/../draw/../misc/lv_color.h ****         uint16_t green_h : 3;
 216:Drivers/lvgl/src/extra/widgets/meter/../../../../src/hal/../draw/../misc/lv_color.h ****         uint16_t red : 5;
 217:Drivers/lvgl/src/extra/widgets/meter/../../../../src/hal/../draw/../misc/lv_color.h ****         uint16_t blue : 5;
 218:Drivers/lvgl/src/extra/widgets/meter/../../../../src/hal/../draw/../misc/lv_color.h ****         uint16_t green_l : 3;
 219:Drivers/lvgl/src/extra/widgets/meter/../../../../src/hal/../draw/../misc/lv_color.h **** #endif
 220:Drivers/lvgl/src/extra/widgets/meter/../../../../src/hal/../draw/../misc/lv_color.h ****     } ch;
 221:Drivers/lvgl/src/extra/widgets/meter/../../../../src/hal/../draw/../misc/lv_color.h ****     uint16_t full;
 222:Drivers/lvgl/src/extra/widgets/meter/../../../../src/hal/../draw/../misc/lv_color.h **** } lv_color16_t;
ARM GAS  /var/folders/0z/tsy30v1j4xl4_7kw94k978ww0000gn/T//ccjxQgZI.s 			page 64


 223:Drivers/lvgl/src/extra/widgets/meter/../../../../src/hal/../draw/../misc/lv_color.h **** 
 224:Drivers/lvgl/src/extra/widgets/meter/../../../../src/hal/../draw/../misc/lv_color.h **** typedef union {
 225:Drivers/lvgl/src/extra/widgets/meter/../../../../src/hal/../draw/../misc/lv_color.h ****     struct {
 226:Drivers/lvgl/src/extra/widgets/meter/../../../../src/hal/../draw/../misc/lv_color.h ****         uint8_t blue;
 227:Drivers/lvgl/src/extra/widgets/meter/../../../../src/hal/../draw/../misc/lv_color.h ****         uint8_t green;
 228:Drivers/lvgl/src/extra/widgets/meter/../../../../src/hal/../draw/../misc/lv_color.h ****         uint8_t red;
 229:Drivers/lvgl/src/extra/widgets/meter/../../../../src/hal/../draw/../misc/lv_color.h ****         uint8_t alpha;
 230:Drivers/lvgl/src/extra/widgets/meter/../../../../src/hal/../draw/../misc/lv_color.h ****     } ch;
 231:Drivers/lvgl/src/extra/widgets/meter/../../../../src/hal/../draw/../misc/lv_color.h ****     uint32_t full;
 232:Drivers/lvgl/src/extra/widgets/meter/../../../../src/hal/../draw/../misc/lv_color.h **** } lv_color32_t;
 233:Drivers/lvgl/src/extra/widgets/meter/../../../../src/hal/../draw/../misc/lv_color.h **** 
 234:Drivers/lvgl/src/extra/widgets/meter/../../../../src/hal/../draw/../misc/lv_color.h **** typedef LV_CONCAT3(uint, LV_COLOR_SIZE, _t) lv_color_int_t;
 235:Drivers/lvgl/src/extra/widgets/meter/../../../../src/hal/../draw/../misc/lv_color.h **** typedef LV_CONCAT3(lv_color, LV_COLOR_DEPTH, _t) lv_color_t;
 236:Drivers/lvgl/src/extra/widgets/meter/../../../../src/hal/../draw/../misc/lv_color.h **** 
 237:Drivers/lvgl/src/extra/widgets/meter/../../../../src/hal/../draw/../misc/lv_color.h **** typedef struct {
 238:Drivers/lvgl/src/extra/widgets/meter/../../../../src/hal/../draw/../misc/lv_color.h ****     uint16_t h;
 239:Drivers/lvgl/src/extra/widgets/meter/../../../../src/hal/../draw/../misc/lv_color.h ****     uint8_t s;
 240:Drivers/lvgl/src/extra/widgets/meter/../../../../src/hal/../draw/../misc/lv_color.h ****     uint8_t v;
 241:Drivers/lvgl/src/extra/widgets/meter/../../../../src/hal/../draw/../misc/lv_color.h **** } lv_color_hsv_t;
 242:Drivers/lvgl/src/extra/widgets/meter/../../../../src/hal/../draw/../misc/lv_color.h **** 
 243:Drivers/lvgl/src/extra/widgets/meter/../../../../src/hal/../draw/../misc/lv_color.h **** //! @cond Doxygen_Suppress
 244:Drivers/lvgl/src/extra/widgets/meter/../../../../src/hal/../draw/../misc/lv_color.h **** /*No idea where the guard is required but else throws warnings in the docs*/
 245:Drivers/lvgl/src/extra/widgets/meter/../../../../src/hal/../draw/../misc/lv_color.h **** typedef uint8_t lv_opa_t;
 246:Drivers/lvgl/src/extra/widgets/meter/../../../../src/hal/../draw/../misc/lv_color.h **** //! @endcond
 247:Drivers/lvgl/src/extra/widgets/meter/../../../../src/hal/../draw/../misc/lv_color.h **** 
 248:Drivers/lvgl/src/extra/widgets/meter/../../../../src/hal/../draw/../misc/lv_color.h **** struct _lv_color_filter_dsc_t;
 249:Drivers/lvgl/src/extra/widgets/meter/../../../../src/hal/../draw/../misc/lv_color.h **** 
 250:Drivers/lvgl/src/extra/widgets/meter/../../../../src/hal/../draw/../misc/lv_color.h **** typedef lv_color_t (*lv_color_filter_cb_t)(const struct _lv_color_filter_dsc_t *, lv_color_t, lv_op
 251:Drivers/lvgl/src/extra/widgets/meter/../../../../src/hal/../draw/../misc/lv_color.h **** 
 252:Drivers/lvgl/src/extra/widgets/meter/../../../../src/hal/../draw/../misc/lv_color.h **** typedef struct _lv_color_filter_dsc_t {
 253:Drivers/lvgl/src/extra/widgets/meter/../../../../src/hal/../draw/../misc/lv_color.h ****     lv_color_filter_cb_t filter_cb;
 254:Drivers/lvgl/src/extra/widgets/meter/../../../../src/hal/../draw/../misc/lv_color.h ****     void * user_data;
 255:Drivers/lvgl/src/extra/widgets/meter/../../../../src/hal/../draw/../misc/lv_color.h **** } lv_color_filter_dsc_t;
 256:Drivers/lvgl/src/extra/widgets/meter/../../../../src/hal/../draw/../misc/lv_color.h **** 
 257:Drivers/lvgl/src/extra/widgets/meter/../../../../src/hal/../draw/../misc/lv_color.h **** 
 258:Drivers/lvgl/src/extra/widgets/meter/../../../../src/hal/../draw/../misc/lv_color.h **** typedef enum {
 259:Drivers/lvgl/src/extra/widgets/meter/../../../../src/hal/../draw/../misc/lv_color.h ****     LV_PALETTE_RED,
 260:Drivers/lvgl/src/extra/widgets/meter/../../../../src/hal/../draw/../misc/lv_color.h ****     LV_PALETTE_PINK,
 261:Drivers/lvgl/src/extra/widgets/meter/../../../../src/hal/../draw/../misc/lv_color.h ****     LV_PALETTE_PURPLE,
 262:Drivers/lvgl/src/extra/widgets/meter/../../../../src/hal/../draw/../misc/lv_color.h ****     LV_PALETTE_DEEP_PURPLE,
 263:Drivers/lvgl/src/extra/widgets/meter/../../../../src/hal/../draw/../misc/lv_color.h ****     LV_PALETTE_INDIGO,
 264:Drivers/lvgl/src/extra/widgets/meter/../../../../src/hal/../draw/../misc/lv_color.h ****     LV_PALETTE_BLUE,
 265:Drivers/lvgl/src/extra/widgets/meter/../../../../src/hal/../draw/../misc/lv_color.h ****     LV_PALETTE_LIGHT_BLUE,
 266:Drivers/lvgl/src/extra/widgets/meter/../../../../src/hal/../draw/../misc/lv_color.h ****     LV_PALETTE_CYAN,
 267:Drivers/lvgl/src/extra/widgets/meter/../../../../src/hal/../draw/../misc/lv_color.h ****     LV_PALETTE_TEAL,
 268:Drivers/lvgl/src/extra/widgets/meter/../../../../src/hal/../draw/../misc/lv_color.h ****     LV_PALETTE_GREEN,
 269:Drivers/lvgl/src/extra/widgets/meter/../../../../src/hal/../draw/../misc/lv_color.h ****     LV_PALETTE_LIGHT_GREEN,
 270:Drivers/lvgl/src/extra/widgets/meter/../../../../src/hal/../draw/../misc/lv_color.h ****     LV_PALETTE_LIME,
 271:Drivers/lvgl/src/extra/widgets/meter/../../../../src/hal/../draw/../misc/lv_color.h ****     LV_PALETTE_YELLOW,
 272:Drivers/lvgl/src/extra/widgets/meter/../../../../src/hal/../draw/../misc/lv_color.h ****     LV_PALETTE_AMBER,
 273:Drivers/lvgl/src/extra/widgets/meter/../../../../src/hal/../draw/../misc/lv_color.h ****     LV_PALETTE_ORANGE,
 274:Drivers/lvgl/src/extra/widgets/meter/../../../../src/hal/../draw/../misc/lv_color.h ****     LV_PALETTE_DEEP_ORANGE,
 275:Drivers/lvgl/src/extra/widgets/meter/../../../../src/hal/../draw/../misc/lv_color.h ****     LV_PALETTE_BROWN,
 276:Drivers/lvgl/src/extra/widgets/meter/../../../../src/hal/../draw/../misc/lv_color.h ****     LV_PALETTE_BLUE_GREY,
 277:Drivers/lvgl/src/extra/widgets/meter/../../../../src/hal/../draw/../misc/lv_color.h ****     LV_PALETTE_GREY,
 278:Drivers/lvgl/src/extra/widgets/meter/../../../../src/hal/../draw/../misc/lv_color.h ****     _LV_PALETTE_LAST,
 279:Drivers/lvgl/src/extra/widgets/meter/../../../../src/hal/../draw/../misc/lv_color.h ****     LV_PALETTE_NONE = 0xff,
ARM GAS  /var/folders/0z/tsy30v1j4xl4_7kw94k978ww0000gn/T//ccjxQgZI.s 			page 65


 280:Drivers/lvgl/src/extra/widgets/meter/../../../../src/hal/../draw/../misc/lv_color.h **** } lv_palette_t;
 281:Drivers/lvgl/src/extra/widgets/meter/../../../../src/hal/../draw/../misc/lv_color.h **** 
 282:Drivers/lvgl/src/extra/widgets/meter/../../../../src/hal/../draw/../misc/lv_color.h **** /**********************
 283:Drivers/lvgl/src/extra/widgets/meter/../../../../src/hal/../draw/../misc/lv_color.h ****  * GLOBAL PROTOTYPES
 284:Drivers/lvgl/src/extra/widgets/meter/../../../../src/hal/../draw/../misc/lv_color.h ****  **********************/
 285:Drivers/lvgl/src/extra/widgets/meter/../../../../src/hal/../draw/../misc/lv_color.h **** 
 286:Drivers/lvgl/src/extra/widgets/meter/../../../../src/hal/../draw/../misc/lv_color.h **** /*In color conversations:
 287:Drivers/lvgl/src/extra/widgets/meter/../../../../src/hal/../draw/../misc/lv_color.h ****  * - When converting to bigger color type the LSB weight of 1 LSB is calculated
 288:Drivers/lvgl/src/extra/widgets/meter/../../../../src/hal/../draw/../misc/lv_color.h ****  *   E.g. 16 bit Red has 5 bits
 289:Drivers/lvgl/src/extra/widgets/meter/../../../../src/hal/../draw/../misc/lv_color.h ****  *         8 bit Red has 3 bits
 290:Drivers/lvgl/src/extra/widgets/meter/../../../../src/hal/../draw/../misc/lv_color.h ****  *        ----------------------
 291:Drivers/lvgl/src/extra/widgets/meter/../../../../src/hal/../draw/../misc/lv_color.h ****  *        8 bit red LSB = (2^5 - 1) / (2^3 - 1) = 31 / 7 = 4
 292:Drivers/lvgl/src/extra/widgets/meter/../../../../src/hal/../draw/../misc/lv_color.h ****  *
 293:Drivers/lvgl/src/extra/widgets/meter/../../../../src/hal/../draw/../misc/lv_color.h ****  * - When calculating to smaller color type simply shift out the LSBs
 294:Drivers/lvgl/src/extra/widgets/meter/../../../../src/hal/../draw/../misc/lv_color.h ****  *   E.g.  8 bit Red has 3 bits
 295:Drivers/lvgl/src/extra/widgets/meter/../../../../src/hal/../draw/../misc/lv_color.h ****  *        16 bit Red has 5 bits
 296:Drivers/lvgl/src/extra/widgets/meter/../../../../src/hal/../draw/../misc/lv_color.h ****  *        ----------------------
 297:Drivers/lvgl/src/extra/widgets/meter/../../../../src/hal/../draw/../misc/lv_color.h ****  *         Shift right with 5 - 3 = 2
 298:Drivers/lvgl/src/extra/widgets/meter/../../../../src/hal/../draw/../misc/lv_color.h ****  */
 299:Drivers/lvgl/src/extra/widgets/meter/../../../../src/hal/../draw/../misc/lv_color.h **** static inline uint8_t lv_color_to1(lv_color_t color)
 300:Drivers/lvgl/src/extra/widgets/meter/../../../../src/hal/../draw/../misc/lv_color.h **** {
 301:Drivers/lvgl/src/extra/widgets/meter/../../../../src/hal/../draw/../misc/lv_color.h **** #if LV_COLOR_DEPTH == 1
 302:Drivers/lvgl/src/extra/widgets/meter/../../../../src/hal/../draw/../misc/lv_color.h ****     return color.full;
 303:Drivers/lvgl/src/extra/widgets/meter/../../../../src/hal/../draw/../misc/lv_color.h **** #elif LV_COLOR_DEPTH == 8
 304:Drivers/lvgl/src/extra/widgets/meter/../../../../src/hal/../draw/../misc/lv_color.h ****     if((LV_COLOR_GET_R(color) & 0x4) || (LV_COLOR_GET_G(color) & 0x4) || (LV_COLOR_GET_B(color) & 0
 305:Drivers/lvgl/src/extra/widgets/meter/../../../../src/hal/../draw/../misc/lv_color.h ****         return 1;
 306:Drivers/lvgl/src/extra/widgets/meter/../../../../src/hal/../draw/../misc/lv_color.h ****     }
 307:Drivers/lvgl/src/extra/widgets/meter/../../../../src/hal/../draw/../misc/lv_color.h ****     else {
 308:Drivers/lvgl/src/extra/widgets/meter/../../../../src/hal/../draw/../misc/lv_color.h ****         return 0;
 309:Drivers/lvgl/src/extra/widgets/meter/../../../../src/hal/../draw/../misc/lv_color.h ****     }
 310:Drivers/lvgl/src/extra/widgets/meter/../../../../src/hal/../draw/../misc/lv_color.h **** #elif LV_COLOR_DEPTH == 16
 311:Drivers/lvgl/src/extra/widgets/meter/../../../../src/hal/../draw/../misc/lv_color.h ****     if((LV_COLOR_GET_R(color) & 0x10) || (LV_COLOR_GET_G(color) & 0x20) || (LV_COLOR_GET_B(color) &
 312:Drivers/lvgl/src/extra/widgets/meter/../../../../src/hal/../draw/../misc/lv_color.h ****         return 1;
 313:Drivers/lvgl/src/extra/widgets/meter/../../../../src/hal/../draw/../misc/lv_color.h ****     }
 314:Drivers/lvgl/src/extra/widgets/meter/../../../../src/hal/../draw/../misc/lv_color.h ****     else {
 315:Drivers/lvgl/src/extra/widgets/meter/../../../../src/hal/../draw/../misc/lv_color.h ****         return 0;
 316:Drivers/lvgl/src/extra/widgets/meter/../../../../src/hal/../draw/../misc/lv_color.h ****     }
 317:Drivers/lvgl/src/extra/widgets/meter/../../../../src/hal/../draw/../misc/lv_color.h **** #elif LV_COLOR_DEPTH == 32
 318:Drivers/lvgl/src/extra/widgets/meter/../../../../src/hal/../draw/../misc/lv_color.h ****     if((LV_COLOR_GET_R(color) & 0x80) || (LV_COLOR_GET_G(color) & 0x80) || (LV_COLOR_GET_B(color) &
 319:Drivers/lvgl/src/extra/widgets/meter/../../../../src/hal/../draw/../misc/lv_color.h ****         return 1;
 320:Drivers/lvgl/src/extra/widgets/meter/../../../../src/hal/../draw/../misc/lv_color.h ****     }
 321:Drivers/lvgl/src/extra/widgets/meter/../../../../src/hal/../draw/../misc/lv_color.h ****     else {
 322:Drivers/lvgl/src/extra/widgets/meter/../../../../src/hal/../draw/../misc/lv_color.h ****         return 0;
 323:Drivers/lvgl/src/extra/widgets/meter/../../../../src/hal/../draw/../misc/lv_color.h ****     }
 324:Drivers/lvgl/src/extra/widgets/meter/../../../../src/hal/../draw/../misc/lv_color.h **** #endif
 325:Drivers/lvgl/src/extra/widgets/meter/../../../../src/hal/../draw/../misc/lv_color.h **** }
 326:Drivers/lvgl/src/extra/widgets/meter/../../../../src/hal/../draw/../misc/lv_color.h **** 
 327:Drivers/lvgl/src/extra/widgets/meter/../../../../src/hal/../draw/../misc/lv_color.h **** static inline uint8_t lv_color_to8(lv_color_t color)
 328:Drivers/lvgl/src/extra/widgets/meter/../../../../src/hal/../draw/../misc/lv_color.h **** {
 329:Drivers/lvgl/src/extra/widgets/meter/../../../../src/hal/../draw/../misc/lv_color.h **** #if LV_COLOR_DEPTH == 1
 330:Drivers/lvgl/src/extra/widgets/meter/../../../../src/hal/../draw/../misc/lv_color.h ****     if(color.full == 0)
 331:Drivers/lvgl/src/extra/widgets/meter/../../../../src/hal/../draw/../misc/lv_color.h ****         return 0;
 332:Drivers/lvgl/src/extra/widgets/meter/../../../../src/hal/../draw/../misc/lv_color.h ****     else
 333:Drivers/lvgl/src/extra/widgets/meter/../../../../src/hal/../draw/../misc/lv_color.h ****         return 0xFF;
 334:Drivers/lvgl/src/extra/widgets/meter/../../../../src/hal/../draw/../misc/lv_color.h **** #elif LV_COLOR_DEPTH == 8
 335:Drivers/lvgl/src/extra/widgets/meter/../../../../src/hal/../draw/../misc/lv_color.h ****     return color.full;
 336:Drivers/lvgl/src/extra/widgets/meter/../../../../src/hal/../draw/../misc/lv_color.h **** #elif LV_COLOR_DEPTH == 16
ARM GAS  /var/folders/0z/tsy30v1j4xl4_7kw94k978ww0000gn/T//ccjxQgZI.s 			page 66


 337:Drivers/lvgl/src/extra/widgets/meter/../../../../src/hal/../draw/../misc/lv_color.h ****     lv_color8_t ret;
 338:Drivers/lvgl/src/extra/widgets/meter/../../../../src/hal/../draw/../misc/lv_color.h ****     LV_COLOR_SET_R8(ret, LV_COLOR_GET_R(color) >> 2); /*5 - 3  = 2*/
 339:Drivers/lvgl/src/extra/widgets/meter/../../../../src/hal/../draw/../misc/lv_color.h ****     LV_COLOR_SET_G8(ret, LV_COLOR_GET_G(color) >> 3); /*6 - 3  = 3*/
 340:Drivers/lvgl/src/extra/widgets/meter/../../../../src/hal/../draw/../misc/lv_color.h ****     LV_COLOR_SET_B8(ret, LV_COLOR_GET_B(color) >> 3); /*5 - 2  = 3*/
 341:Drivers/lvgl/src/extra/widgets/meter/../../../../src/hal/../draw/../misc/lv_color.h ****     return ret.full;
 342:Drivers/lvgl/src/extra/widgets/meter/../../../../src/hal/../draw/../misc/lv_color.h **** #elif LV_COLOR_DEPTH == 32
 343:Drivers/lvgl/src/extra/widgets/meter/../../../../src/hal/../draw/../misc/lv_color.h ****     lv_color8_t ret;
 344:Drivers/lvgl/src/extra/widgets/meter/../../../../src/hal/../draw/../misc/lv_color.h ****     LV_COLOR_SET_R8(ret, LV_COLOR_GET_R(color) >> 5); /*8 - 3  = 5*/
 345:Drivers/lvgl/src/extra/widgets/meter/../../../../src/hal/../draw/../misc/lv_color.h ****     LV_COLOR_SET_G8(ret, LV_COLOR_GET_G(color) >> 5); /*8 - 3  = 5*/
 346:Drivers/lvgl/src/extra/widgets/meter/../../../../src/hal/../draw/../misc/lv_color.h ****     LV_COLOR_SET_B8(ret, LV_COLOR_GET_B(color) >> 6); /*8 - 2  = 6*/
 347:Drivers/lvgl/src/extra/widgets/meter/../../../../src/hal/../draw/../misc/lv_color.h ****     return ret.full;
 348:Drivers/lvgl/src/extra/widgets/meter/../../../../src/hal/../draw/../misc/lv_color.h **** #endif
 349:Drivers/lvgl/src/extra/widgets/meter/../../../../src/hal/../draw/../misc/lv_color.h **** }
 350:Drivers/lvgl/src/extra/widgets/meter/../../../../src/hal/../draw/../misc/lv_color.h **** 
 351:Drivers/lvgl/src/extra/widgets/meter/../../../../src/hal/../draw/../misc/lv_color.h **** static inline uint16_t lv_color_to16(lv_color_t color)
 352:Drivers/lvgl/src/extra/widgets/meter/../../../../src/hal/../draw/../misc/lv_color.h **** {
 353:Drivers/lvgl/src/extra/widgets/meter/../../../../src/hal/../draw/../misc/lv_color.h **** #if LV_COLOR_DEPTH == 1
 354:Drivers/lvgl/src/extra/widgets/meter/../../../../src/hal/../draw/../misc/lv_color.h ****     if(color.full == 0)
 355:Drivers/lvgl/src/extra/widgets/meter/../../../../src/hal/../draw/../misc/lv_color.h ****         return 0;
 356:Drivers/lvgl/src/extra/widgets/meter/../../../../src/hal/../draw/../misc/lv_color.h ****     else
 357:Drivers/lvgl/src/extra/widgets/meter/../../../../src/hal/../draw/../misc/lv_color.h ****         return 0xFFFF;
 358:Drivers/lvgl/src/extra/widgets/meter/../../../../src/hal/../draw/../misc/lv_color.h **** #elif LV_COLOR_DEPTH == 8
 359:Drivers/lvgl/src/extra/widgets/meter/../../../../src/hal/../draw/../misc/lv_color.h ****     lv_color16_t ret;
 360:Drivers/lvgl/src/extra/widgets/meter/../../../../src/hal/../draw/../misc/lv_color.h ****     LV_COLOR_SET_R16(ret, LV_COLOR_GET_R(color) * 4);  /*(2^5 - 1)/(2^3 - 1) = 31/7 = 4*/
 361:Drivers/lvgl/src/extra/widgets/meter/../../../../src/hal/../draw/../misc/lv_color.h ****     LV_COLOR_SET_G16(ret, LV_COLOR_GET_G(color) * 9);  /*(2^6 - 1)/(2^3 - 1) = 63/7 = 9*/
 362:Drivers/lvgl/src/extra/widgets/meter/../../../../src/hal/../draw/../misc/lv_color.h ****     LV_COLOR_SET_B16(ret, LV_COLOR_GET_B(color) * 10); /*(2^5 - 1)/(2^2 - 1) = 31/3 = 10*/
 363:Drivers/lvgl/src/extra/widgets/meter/../../../../src/hal/../draw/../misc/lv_color.h ****     return ret.full;
 364:Drivers/lvgl/src/extra/widgets/meter/../../../../src/hal/../draw/../misc/lv_color.h **** #elif LV_COLOR_DEPTH == 16
 365:Drivers/lvgl/src/extra/widgets/meter/../../../../src/hal/../draw/../misc/lv_color.h ****     return color.full;
 366:Drivers/lvgl/src/extra/widgets/meter/../../../../src/hal/../draw/../misc/lv_color.h **** #elif LV_COLOR_DEPTH == 32
 367:Drivers/lvgl/src/extra/widgets/meter/../../../../src/hal/../draw/../misc/lv_color.h ****     lv_color16_t ret;
 368:Drivers/lvgl/src/extra/widgets/meter/../../../../src/hal/../draw/../misc/lv_color.h ****     LV_COLOR_SET_R16(ret, LV_COLOR_GET_R(color) >> 3); /*8 - 5  = 3*/
 369:Drivers/lvgl/src/extra/widgets/meter/../../../../src/hal/../draw/../misc/lv_color.h ****     LV_COLOR_SET_G16(ret, LV_COLOR_GET_G(color) >> 2); /*8 - 6  = 2*/
 370:Drivers/lvgl/src/extra/widgets/meter/../../../../src/hal/../draw/../misc/lv_color.h ****     LV_COLOR_SET_B16(ret, LV_COLOR_GET_B(color) >> 3); /*8 - 5  = 3*/
 371:Drivers/lvgl/src/extra/widgets/meter/../../../../src/hal/../draw/../misc/lv_color.h ****     return ret.full;
 372:Drivers/lvgl/src/extra/widgets/meter/../../../../src/hal/../draw/../misc/lv_color.h **** #endif
 373:Drivers/lvgl/src/extra/widgets/meter/../../../../src/hal/../draw/../misc/lv_color.h **** }
 374:Drivers/lvgl/src/extra/widgets/meter/../../../../src/hal/../draw/../misc/lv_color.h **** 
 375:Drivers/lvgl/src/extra/widgets/meter/../../../../src/hal/../draw/../misc/lv_color.h **** static inline uint32_t lv_color_to32(lv_color_t color)
 376:Drivers/lvgl/src/extra/widgets/meter/../../../../src/hal/../draw/../misc/lv_color.h **** {
 377:Drivers/lvgl/src/extra/widgets/meter/../../../../src/hal/../draw/../misc/lv_color.h **** #if LV_COLOR_DEPTH == 1
 378:Drivers/lvgl/src/extra/widgets/meter/../../../../src/hal/../draw/../misc/lv_color.h ****     if(color.full == 0)
 379:Drivers/lvgl/src/extra/widgets/meter/../../../../src/hal/../draw/../misc/lv_color.h ****         return 0xFF000000;
 380:Drivers/lvgl/src/extra/widgets/meter/../../../../src/hal/../draw/../misc/lv_color.h ****     else
 381:Drivers/lvgl/src/extra/widgets/meter/../../../../src/hal/../draw/../misc/lv_color.h ****         return 0xFFFFFFFF;
 382:Drivers/lvgl/src/extra/widgets/meter/../../../../src/hal/../draw/../misc/lv_color.h **** #elif LV_COLOR_DEPTH == 8
 383:Drivers/lvgl/src/extra/widgets/meter/../../../../src/hal/../draw/../misc/lv_color.h ****     lv_color32_t ret;
 384:Drivers/lvgl/src/extra/widgets/meter/../../../../src/hal/../draw/../misc/lv_color.h ****     LV_COLOR_SET_R32(ret, LV_COLOR_GET_R(color) * 36); /*(2^8 - 1)/(2^3 - 1) = 255/7 = 36*/
 385:Drivers/lvgl/src/extra/widgets/meter/../../../../src/hal/../draw/../misc/lv_color.h ****     LV_COLOR_SET_G32(ret, LV_COLOR_GET_G(color) * 36); /*(2^8 - 1)/(2^3 - 1) = 255/7 = 36*/
 386:Drivers/lvgl/src/extra/widgets/meter/../../../../src/hal/../draw/../misc/lv_color.h ****     LV_COLOR_SET_B32(ret, LV_COLOR_GET_B(color) * 85); /*(2^8 - 1)/(2^2 - 1) = 255/3 = 85*/
 387:Drivers/lvgl/src/extra/widgets/meter/../../../../src/hal/../draw/../misc/lv_color.h ****     LV_COLOR_SET_A32(ret, 0xFF);
 388:Drivers/lvgl/src/extra/widgets/meter/../../../../src/hal/../draw/../misc/lv_color.h ****     return ret.full;
 389:Drivers/lvgl/src/extra/widgets/meter/../../../../src/hal/../draw/../misc/lv_color.h **** #elif LV_COLOR_DEPTH == 16
 390:Drivers/lvgl/src/extra/widgets/meter/../../../../src/hal/../draw/../misc/lv_color.h ****     /**
 391:Drivers/lvgl/src/extra/widgets/meter/../../../../src/hal/../draw/../misc/lv_color.h ****      * The floating point math for conversion is:
 392:Drivers/lvgl/src/extra/widgets/meter/../../../../src/hal/../draw/../misc/lv_color.h ****      *  valueto = valuefrom * ( (2^bitsto - 1) / (float)(2^bitsfrom - 1) )
 393:Drivers/lvgl/src/extra/widgets/meter/../../../../src/hal/../draw/../misc/lv_color.h ****      * The faster integer math for conversion is:
ARM GAS  /var/folders/0z/tsy30v1j4xl4_7kw94k978ww0000gn/T//ccjxQgZI.s 			page 67


 394:Drivers/lvgl/src/extra/widgets/meter/../../../../src/hal/../draw/../misc/lv_color.h ****      *  valueto = ( valuefrom * multiplier + adder ) >> divisor
 395:Drivers/lvgl/src/extra/widgets/meter/../../../../src/hal/../draw/../misc/lv_color.h ****      *   multiplier = FLOOR( ( (2^bitsto - 1) << divisor ) / (float)(2^bitsfrom - 1) )
 396:Drivers/lvgl/src/extra/widgets/meter/../../../../src/hal/../draw/../misc/lv_color.h ****      *
 397:Drivers/lvgl/src/extra/widgets/meter/../../../../src/hal/../draw/../misc/lv_color.h ****      * Find the first divisor where ( adder >> divisor ) <= 0
 398:Drivers/lvgl/src/extra/widgets/meter/../../../../src/hal/../draw/../misc/lv_color.h ****      *
 399:Drivers/lvgl/src/extra/widgets/meter/../../../../src/hal/../draw/../misc/lv_color.h ****      * 5-bit to 8-bit: ( 31 * multiplier + adder ) >> divisor = 255
 400:Drivers/lvgl/src/extra/widgets/meter/../../../../src/hal/../draw/../misc/lv_color.h ****      * divisor  multiplier  adder  min (0)  max (31)
 401:Drivers/lvgl/src/extra/widgets/meter/../../../../src/hal/../draw/../misc/lv_color.h ****      *       0           8      7        7       255
 402:Drivers/lvgl/src/extra/widgets/meter/../../../../src/hal/../draw/../misc/lv_color.h ****      *       1          16     14        7       255
 403:Drivers/lvgl/src/extra/widgets/meter/../../../../src/hal/../draw/../misc/lv_color.h ****      *       2          32     28        7       255
 404:Drivers/lvgl/src/extra/widgets/meter/../../../../src/hal/../draw/../misc/lv_color.h ****      *       3          65     25        3       255
 405:Drivers/lvgl/src/extra/widgets/meter/../../../../src/hal/../draw/../misc/lv_color.h ****      *       4         131     19        1       255
 406:Drivers/lvgl/src/extra/widgets/meter/../../../../src/hal/../draw/../misc/lv_color.h ****      *       5         263      7        0       255
 407:Drivers/lvgl/src/extra/widgets/meter/../../../../src/hal/../draw/../misc/lv_color.h ****      *
 408:Drivers/lvgl/src/extra/widgets/meter/../../../../src/hal/../draw/../misc/lv_color.h ****      * 6-bit to 8-bit: 255 = ( 63 * multiplier + adder ) >> divisor
 409:Drivers/lvgl/src/extra/widgets/meter/../../../../src/hal/../draw/../misc/lv_color.h ****      * divisor  multiplier  adder  min (0)  max (63)
 410:Drivers/lvgl/src/extra/widgets/meter/../../../../src/hal/../draw/../misc/lv_color.h ****      *       0           4      3        3       255
 411:Drivers/lvgl/src/extra/widgets/meter/../../../../src/hal/../draw/../misc/lv_color.h ****      *       1           8      6        3       255
 412:Drivers/lvgl/src/extra/widgets/meter/../../../../src/hal/../draw/../misc/lv_color.h ****      *       2          16     12        3       255
 413:Drivers/lvgl/src/extra/widgets/meter/../../../../src/hal/../draw/../misc/lv_color.h ****      *       3          32     24        3       255
 414:Drivers/lvgl/src/extra/widgets/meter/../../../../src/hal/../draw/../misc/lv_color.h ****      *       4          64     48        3       255
 415:Drivers/lvgl/src/extra/widgets/meter/../../../../src/hal/../draw/../misc/lv_color.h ****      *       5         129     33        1       255
 416:Drivers/lvgl/src/extra/widgets/meter/../../../../src/hal/../draw/../misc/lv_color.h ****      *       6         259      3        0       255
 417:Drivers/lvgl/src/extra/widgets/meter/../../../../src/hal/../draw/../misc/lv_color.h ****      */
 418:Drivers/lvgl/src/extra/widgets/meter/../../../../src/hal/../draw/../misc/lv_color.h **** 
 419:Drivers/lvgl/src/extra/widgets/meter/../../../../src/hal/../draw/../misc/lv_color.h ****     lv_color32_t ret;
 420:Drivers/lvgl/src/extra/widgets/meter/../../../../src/hal/../draw/../misc/lv_color.h ****     LV_COLOR_SET_R32(ret, (LV_COLOR_GET_R(color) * 263 + 7) >> 5);
 421:Drivers/lvgl/src/extra/widgets/meter/../../../../src/hal/../draw/../misc/lv_color.h ****     LV_COLOR_SET_G32(ret, (LV_COLOR_GET_G(color) * 259 + 3) >> 6);
 422:Drivers/lvgl/src/extra/widgets/meter/../../../../src/hal/../draw/../misc/lv_color.h ****     LV_COLOR_SET_B32(ret, (LV_COLOR_GET_B(color) * 263 + 7) >> 5);
 423:Drivers/lvgl/src/extra/widgets/meter/../../../../src/hal/../draw/../misc/lv_color.h ****     LV_COLOR_SET_A32(ret, 0xFF);
 424:Drivers/lvgl/src/extra/widgets/meter/../../../../src/hal/../draw/../misc/lv_color.h ****     return ret.full;
 425:Drivers/lvgl/src/extra/widgets/meter/../../../../src/hal/../draw/../misc/lv_color.h **** #elif LV_COLOR_DEPTH == 32
 426:Drivers/lvgl/src/extra/widgets/meter/../../../../src/hal/../draw/../misc/lv_color.h ****     return color.full;
 427:Drivers/lvgl/src/extra/widgets/meter/../../../../src/hal/../draw/../misc/lv_color.h **** #endif
 428:Drivers/lvgl/src/extra/widgets/meter/../../../../src/hal/../draw/../misc/lv_color.h **** }
 429:Drivers/lvgl/src/extra/widgets/meter/../../../../src/hal/../draw/../misc/lv_color.h **** 
 430:Drivers/lvgl/src/extra/widgets/meter/../../../../src/hal/../draw/../misc/lv_color.h **** //! @cond Doxygen_Suppress
 431:Drivers/lvgl/src/extra/widgets/meter/../../../../src/hal/../draw/../misc/lv_color.h **** 
 432:Drivers/lvgl/src/extra/widgets/meter/../../../../src/hal/../draw/../misc/lv_color.h **** /**
 433:Drivers/lvgl/src/extra/widgets/meter/../../../../src/hal/../draw/../misc/lv_color.h ****  * Mix two colors with a given ratio.
 434:Drivers/lvgl/src/extra/widgets/meter/../../../../src/hal/../draw/../misc/lv_color.h ****  * @param c1 the first color to mix (usually the foreground)
 435:Drivers/lvgl/src/extra/widgets/meter/../../../../src/hal/../draw/../misc/lv_color.h ****  * @param c2 the second color to mix (usually the background)
 436:Drivers/lvgl/src/extra/widgets/meter/../../../../src/hal/../draw/../misc/lv_color.h ****  * @param mix The ratio of the colors. 0: full `c2`, 255: full `c1`, 127: half `c1` and half`c2`
 437:Drivers/lvgl/src/extra/widgets/meter/../../../../src/hal/../draw/../misc/lv_color.h ****  * @return the mixed color
 438:Drivers/lvgl/src/extra/widgets/meter/../../../../src/hal/../draw/../misc/lv_color.h ****  */
 439:Drivers/lvgl/src/extra/widgets/meter/../../../../src/hal/../draw/../misc/lv_color.h **** static inline lv_color_t LV_ATTRIBUTE_FAST_MEM lv_color_mix(lv_color_t c1, lv_color_t c2, uint8_t m
 440:Drivers/lvgl/src/extra/widgets/meter/../../../../src/hal/../draw/../misc/lv_color.h **** {
 441:Drivers/lvgl/src/extra/widgets/meter/../../../../src/hal/../draw/../misc/lv_color.h ****     lv_color_t ret;
 442:Drivers/lvgl/src/extra/widgets/meter/../../../../src/hal/../draw/../misc/lv_color.h **** 
 443:Drivers/lvgl/src/extra/widgets/meter/../../../../src/hal/../draw/../misc/lv_color.h **** #if LV_COLOR_DEPTH == 16 && LV_COLOR_MIX_ROUND_OFS == 0
 444:Drivers/lvgl/src/extra/widgets/meter/../../../../src/hal/../draw/../misc/lv_color.h **** #if LV_COLOR_16_SWAP == 1
 445:Drivers/lvgl/src/extra/widgets/meter/../../../../src/hal/../draw/../misc/lv_color.h ****     c1.full = c1.full << 8 | c1.full >> 8;
 446:Drivers/lvgl/src/extra/widgets/meter/../../../../src/hal/../draw/../misc/lv_color.h ****     c2.full = c2.full << 8 | c2.full >> 8;
 447:Drivers/lvgl/src/extra/widgets/meter/../../../../src/hal/../draw/../misc/lv_color.h **** #endif
 448:Drivers/lvgl/src/extra/widgets/meter/../../../../src/hal/../draw/../misc/lv_color.h ****     /*Source: https://stackoverflow.com/a/50012418/1999969*/
 449:Drivers/lvgl/src/extra/widgets/meter/../../../../src/hal/../draw/../misc/lv_color.h ****     mix = (uint32_t)((uint32_t)mix + 4) >> 3;
 450:Drivers/lvgl/src/extra/widgets/meter/../../../../src/hal/../draw/../misc/lv_color.h ****     uint32_t bg = (uint32_t)((uint32_t)c2.full | ((uint32_t)c2.full << 16)) &
ARM GAS  /var/folders/0z/tsy30v1j4xl4_7kw94k978ww0000gn/T//ccjxQgZI.s 			page 68


 1613              		.loc 5 450 30 view .LVU569
 1614 03a4 638A     		ldrh	r3, [r4, #18]
 451:Drivers/lvgl/src/extra/widgets/meter/../../../../src/hal/../draw/../misc/lv_color.h ****                   0x7E0F81F; /*0b00000111111000001111100000011111*/
 452:Drivers/lvgl/src/extra/widgets/meter/../../../../src/hal/../draw/../misc/lv_color.h ****     uint32_t fg = (uint32_t)((uint32_t)c1.full | ((uint32_t)c1.full << 16)) & 0x7E0F81F;
 1615              		.loc 5 452 30 view .LVU570
 1616 03a6 A18A     		ldrh	r1, [r4, #20]
 450:Drivers/lvgl/src/extra/widgets/meter/../../../../src/hal/../draw/../misc/lv_color.h ****                   0x7E0F81F; /*0b00000111111000001111100000011111*/
 1617              		.loc 5 450 30 view .LVU571
 1618 03a8 5BBA     		rev16	r3, r3
 1619              		.loc 5 452 30 view .LVU572
 1620 03aa 49BA     		rev16	r1, r1
 450:Drivers/lvgl/src/extra/widgets/meter/../../../../src/hal/../draw/../misc/lv_color.h ****                   0x7E0F81F; /*0b00000111111000001111100000011111*/
 1621              		.loc 5 450 30 view .LVU573
 1622 03ac 9DB2     		uxth	r5, r3
 450:Drivers/lvgl/src/extra/widgets/meter/../../../../src/hal/../draw/../misc/lv_color.h ****                   0x7E0F81F; /*0b00000111111000001111100000011111*/
 1623              		.loc 5 450 19 view .LVU574
 1624 03ae 45EA0345 		orr	r5, r5, r3, lsl #16
 1625              		.loc 5 452 30 view .LVU575
 1626 03b2 8BB2     		uxth	r3, r1
 1627              		.loc 5 452 19 view .LVU576
 1628 03b4 43EA0143 		orr	r3, r3, r1, lsl #16
 450:Drivers/lvgl/src/extra/widgets/meter/../../../../src/hal/../draw/../misc/lv_color.h ****                   0x7E0F81F; /*0b00000111111000001111100000011111*/
 1629              		.loc 5 450 14 view .LVU577
 1630 03b8 25F07845 		bic	r5, r5, #-134217728
 1631              		.loc 5 452 14 view .LVU578
 1632 03bc 23F07843 		bic	r3, r3, #-134217728
 1633              	.LBE162:
 1634              	.LBE161:
 471:Drivers/lvgl/src/extra/widgets/meter/lv_meter.c ****                         }
 1635              		.loc 1 471 35 view .LVU579
 1636 03c0 C2B2     		uxtb	r2, r0
 1637              	.LVL145:
 473:Drivers/lvgl/src/extra/widgets/meter/lv_meter.c ****                     }
 1638              		.loc 1 473 25 is_stmt 1 view .LVU580
 1639              	.LBB164:
 1640              	.LBI161:
 439:Drivers/lvgl/src/extra/widgets/meter/../../../../src/hal/../draw/../misc/lv_color.h **** {
 1641              		.loc 5 439 48 view .LVU581
 1642              	.LBB163:
 441:Drivers/lvgl/src/extra/widgets/meter/../../../../src/hal/../draw/../misc/lv_color.h **** 
 1643              		.loc 5 441 5 view .LVU582
 445:Drivers/lvgl/src/extra/widgets/meter/../../../../src/hal/../draw/../misc/lv_color.h ****     c2.full = c2.full << 8 | c2.full >> 8;
 1644              		.loc 5 445 5 view .LVU583
 446:Drivers/lvgl/src/extra/widgets/meter/../../../../src/hal/../draw/../misc/lv_color.h **** #endif
 1645              		.loc 5 446 5 view .LVU584
 449:Drivers/lvgl/src/extra/widgets/meter/../../../../src/hal/../draw/../misc/lv_color.h ****     uint32_t bg = (uint32_t)((uint32_t)c2.full | ((uint32_t)c2.full << 16)) &
 1646              		.loc 5 449 5 view .LVU585
 450:Drivers/lvgl/src/extra/widgets/meter/../../../../src/hal/../draw/../misc/lv_color.h ****                   0x7E0F81F; /*0b00000111111000001111100000011111*/
 1647              		.loc 5 450 5 view .LVU586
 450:Drivers/lvgl/src/extra/widgets/meter/../../../../src/hal/../draw/../misc/lv_color.h ****                   0x7E0F81F; /*0b00000111111000001111100000011111*/
 1648              		.loc 5 450 14 is_stmt 0 view .LVU587
 1649 03c2 25F4F815 		bic	r5, r5, #2031616
 1650              		.loc 5 452 14 view .LVU588
 1651 03c6 23F4F813 		bic	r3, r3, #2031616
 450:Drivers/lvgl/src/extra/widgets/meter/../../../../src/hal/../draw/../misc/lv_color.h ****                   0x7E0F81F; /*0b00000111111000001111100000011111*/
 1652              		.loc 5 450 14 view .LVU589
 1653 03ca 25F4FC65 		bic	r5, r5, #2016
ARM GAS  /var/folders/0z/tsy30v1j4xl4_7kw94k978ww0000gn/T//ccjxQgZI.s 			page 69


 1654              	.LVL146:
 1655              		.loc 5 452 5 is_stmt 1 view .LVU590
 453:Drivers/lvgl/src/extra/widgets/meter/../../../../src/hal/../draw/../misc/lv_color.h ****     uint32_t result = ((((fg - bg) * mix) >> 5) + bg) & 0x7E0F81F;
 1656              		.loc 5 453 5 view .LVU591
 449:Drivers/lvgl/src/extra/widgets/meter/../../../../src/hal/../draw/../misc/lv_color.h ****     uint32_t bg = (uint32_t)((uint32_t)c2.full | ((uint32_t)c2.full << 16)) &
 1657              		.loc 5 449 11 is_stmt 0 view .LVU592
 1658 03ce 0432     		adds	r2, r2, #4
 1659              	.LVL147:
 452:Drivers/lvgl/src/extra/widgets/meter/../../../../src/hal/../draw/../misc/lv_color.h ****     uint32_t result = ((((fg - bg) * mix) >> 5) + bg) & 0x7E0F81F;
 1660              		.loc 5 452 14 view .LVU593
 1661 03d0 23F4FC63 		bic	r3, r3, #2016
 1662              		.loc 5 453 30 view .LVU594
 1663 03d4 5B1B     		subs	r3, r3, r5
 449:Drivers/lvgl/src/extra/widgets/meter/../../../../src/hal/../draw/../misc/lv_color.h ****     uint32_t bg = (uint32_t)((uint32_t)c2.full | ((uint32_t)c2.full << 16)) &
 1664              		.loc 5 449 41 view .LVU595
 1665 03d6 D208     		lsrs	r2, r2, #3
 1666              	.LVL148:
 1667              		.loc 5 453 36 view .LVU596
 1668 03d8 02FB03F3 		mul	r3, r2, r3
 1669              		.loc 5 453 49 view .LVU597
 1670 03dc 05EB5315 		add	r5, r5, r3, lsr #5
 1671              	.LVL149:
 1672              		.loc 5 453 14 view .LVU598
 1673 03e0 25F07845 		bic	r5, r5, #-134217728
 1674 03e4 25F4F815 		bic	r5, r5, #2031616
 1675 03e8 25F4FC65 		bic	r5, r5, #2016
 1676              	.LVL150:
 454:Drivers/lvgl/src/extra/widgets/meter/../../../../src/hal/../draw/../misc/lv_color.h ****     ret.full = (uint16_t)((result >> 16) | result);
 1677              		.loc 5 454 5 is_stmt 1 view .LVU599
 455:Drivers/lvgl/src/extra/widgets/meter/../../../../src/hal/../draw/../misc/lv_color.h **** #if LV_COLOR_16_SWAP == 1
 456:Drivers/lvgl/src/extra/widgets/meter/../../../../src/hal/../draw/../misc/lv_color.h ****     ret.full = ret.full << 8 | ret.full >> 8;
 1678              		.loc 5 456 5 view .LVU600
 454:Drivers/lvgl/src/extra/widgets/meter/../../../../src/hal/../draw/../misc/lv_color.h ****     ret.full = (uint16_t)((result >> 16) | result);
 1679              		.loc 5 454 16 is_stmt 0 view .LVU601
 1680 03ec 45EA1545 		orr	r5, r5, r5, lsr #16
 1681              	.LVL151:
 454:Drivers/lvgl/src/extra/widgets/meter/../../../../src/hal/../draw/../misc/lv_color.h ****     ret.full = (uint16_t)((result >> 16) | result);
 1682              		.loc 5 454 16 view .LVU602
 1683 03f0 6DBA     		rev16	r5, r5
 1684 03f2 ADB2     		uxth	r5, r5
 457:Drivers/lvgl/src/extra/widgets/meter/../../../../src/hal/../draw/../misc/lv_color.h **** #endif
 458:Drivers/lvgl/src/extra/widgets/meter/../../../../src/hal/../draw/../misc/lv_color.h **** #elif LV_COLOR_DEPTH != 1
 459:Drivers/lvgl/src/extra/widgets/meter/../../../../src/hal/../draw/../misc/lv_color.h ****     /*LV_COLOR_DEPTH == 8, 16 or 32*/
 460:Drivers/lvgl/src/extra/widgets/meter/../../../../src/hal/../draw/../misc/lv_color.h ****     LV_COLOR_SET_R(ret, LV_UDIV255((uint16_t)LV_COLOR_GET_R(c1) * mix + LV_COLOR_GET_R(c2) *
 461:Drivers/lvgl/src/extra/widgets/meter/../../../../src/hal/../draw/../misc/lv_color.h ****                                    (255 - mix) + LV_COLOR_MIX_ROUND_OFS));
 462:Drivers/lvgl/src/extra/widgets/meter/../../../../src/hal/../draw/../misc/lv_color.h ****     LV_COLOR_SET_G(ret, LV_UDIV255((uint16_t)LV_COLOR_GET_G(c1) * mix + LV_COLOR_GET_G(c2) *
 463:Drivers/lvgl/src/extra/widgets/meter/../../../../src/hal/../draw/../misc/lv_color.h ****                                    (255 - mix) + LV_COLOR_MIX_ROUND_OFS));
 464:Drivers/lvgl/src/extra/widgets/meter/../../../../src/hal/../draw/../misc/lv_color.h ****     LV_COLOR_SET_B(ret, LV_UDIV255((uint16_t)LV_COLOR_GET_B(c1) * mix + LV_COLOR_GET_B(c2) *
 465:Drivers/lvgl/src/extra/widgets/meter/../../../../src/hal/../draw/../misc/lv_color.h ****                                    (255 - mix) + LV_COLOR_MIX_ROUND_OFS));
 466:Drivers/lvgl/src/extra/widgets/meter/../../../../src/hal/../draw/../misc/lv_color.h ****     LV_COLOR_SET_A(ret, 0xFF);
 467:Drivers/lvgl/src/extra/widgets/meter/../../../../src/hal/../draw/../misc/lv_color.h **** #else
 468:Drivers/lvgl/src/extra/widgets/meter/../../../../src/hal/../draw/../misc/lv_color.h ****     /*LV_COLOR_DEPTH == 1*/
 469:Drivers/lvgl/src/extra/widgets/meter/../../../../src/hal/../draw/../misc/lv_color.h ****     ret.full = mix > LV_OPA_50 ? c1.full : c2.full;
 470:Drivers/lvgl/src/extra/widgets/meter/../../../../src/hal/../draw/../misc/lv_color.h **** #endif
 471:Drivers/lvgl/src/extra/widgets/meter/../../../../src/hal/../draw/../misc/lv_color.h **** 
 472:Drivers/lvgl/src/extra/widgets/meter/../../../../src/hal/../draw/../misc/lv_color.h ****     return ret;
 1685              		.loc 5 472 5 is_stmt 1 view .LVU603
ARM GAS  /var/folders/0z/tsy30v1j4xl4_7kw94k978ww0000gn/T//ccjxQgZI.s 			page 70


 1686              	.LVL152:
 1687              	.L34:
 1688              		.loc 5 472 5 is_stmt 0 view .LVU604
 1689              	.LBE163:
 1690              	.LBE164:
 1691              	.LBE165:
 457:Drivers/lvgl/src/extra/widgets/meter/lv_meter.c ****                 if(indic->type != LV_METER_INDICATOR_TYPE_SCALE_LINES) continue;
 1692              		.loc 1 457 13 is_stmt 1 view .LVU605
 1693 03f4 2146     		mov	r1, r4
 1694 03f6 4846     		mov	r0, r9
 1695 03f8 FFF7FEFF 		bl	_lv_ll_get_prev
 1696              	.LVL153:
 457:Drivers/lvgl/src/extra/widgets/meter/lv_meter.c ****                 if(indic->type != LV_METER_INDICATOR_TYPE_SCALE_LINES) continue;
 1697              		.loc 1 457 13 view .LVU606
 1698 03fc 0446     		mov	r4, r0
 1699 03fe 0028     		cmp	r0, #0
 1700 0400 AED1     		bne	.L37
 1701              	.LVL154:
 1702              	.L33:
 478:Drivers/lvgl/src/extra/widgets/meter/lv_meter.c **** 
 1703              		.loc 1 478 13 view .LVU607
 478:Drivers/lvgl/src/extra/widgets/meter/lv_meter.c **** 
 1704              		.loc 1 478 48 is_stmt 0 view .LVU608
 1705 0402 BAF81E30 		ldrh	r3, [r10, #30]
 478:Drivers/lvgl/src/extra/widgets/meter/lv_meter.c **** 
 1706              		.loc 1 478 77 view .LVU609
 1707 0406 BAF80220 		ldrh	r2, [r10, #2]
 486:Drivers/lvgl/src/extra/widgets/meter/lv_meter.c ****             p_outer.y = p_center.y;
 1708              		.loc 1 486 36 view .LVU610
 1709 040a 0A98     		ldr	r0, [sp, #40]
 1710              	.LVL155:
 478:Drivers/lvgl/src/extra/widgets/meter/lv_meter.c **** 
 1711              		.loc 1 478 21 view .LVU611
 1712 040c BAF82010 		ldrh	r1, [r10, #32]
 480:Drivers/lvgl/src/extra/widgets/meter/lv_meter.c ****             line_dsc.width = line_width;
 1713              		.loc 1 480 28 view .LVU612
 1714 0410 ADF87450 		strh	r5, [sp, #116]	@ movhi
 478:Drivers/lvgl/src/extra/widgets/meter/lv_meter.c **** 
 1715              		.loc 1 478 41 view .LVU613
 1716 0414 08FB03F3 		mul	r3, r8, r3
 478:Drivers/lvgl/src/extra/widgets/meter/lv_meter.c **** 
 1717              		.loc 1 478 63 view .LVU614
 1718 0418 03EB8303 		add	r3, r3, r3, lsl #2
 478:Drivers/lvgl/src/extra/widgets/meter/lv_meter.c **** 
 1719              		.loc 1 478 88 view .LVU615
 1720 041c 013A     		subs	r2, r2, #1
 478:Drivers/lvgl/src/extra/widgets/meter/lv_meter.c **** 
 1721              		.loc 1 478 63 view .LVU616
 1722 041e 5B00     		lsls	r3, r3, #1
 478:Drivers/lvgl/src/extra/widgets/meter/lv_meter.c **** 
 1723              		.loc 1 478 69 view .LVU617
 1724 0420 93FBF2F3 		sdiv	r3, r3, r2
 486:Drivers/lvgl/src/extra/widgets/meter/lv_meter.c ****             p_outer.y = p_center.y;
 1725              		.loc 1 486 36 view .LVU618
 1726 0424 BDF83C20 		ldrh	r2, [sp, #60]
 481:Drivers/lvgl/src/extra/widgets/meter/lv_meter.c **** 
 1727              		.loc 1 481 28 view .LVU619
ARM GAS  /var/folders/0z/tsy30v1j4xl4_7kw94k978ww0000gn/T//ccjxQgZI.s 			page 71


 1728 0428 ADF87670 		strh	r7, [sp, #118]	@ movhi
 486:Drivers/lvgl/src/extra/widgets/meter/lv_meter.c ****             p_outer.y = p_center.y;
 1729              		.loc 1 486 36 view .LVU620
 1730 042c 0244     		add	r2, r2, r0
 486:Drivers/lvgl/src/extra/widgets/meter/lv_meter.c ****             p_outer.y = p_center.y;
 1731              		.loc 1 486 44 view .LVU621
 1732 042e 0C98     		ldr	r0, [sp, #48]
 1733 0430 0244     		add	r2, r2, r0
 486:Drivers/lvgl/src/extra/widgets/meter/lv_meter.c ****             p_outer.y = p_center.y;
 1734              		.loc 1 486 23 view .LVU622
 1735 0432 ADF84020 		strh	r2, [sp, #64]	@ movhi
 478:Drivers/lvgl/src/extra/widgets/meter/lv_meter.c **** 
 1736              		.loc 1 478 21 view .LVU623
 1737 0436 0A22     		movs	r2, #10
 1738 0438 11FB0231 		smlabb	r1, r1, r2, r3
 1739              	.LVL156:
 480:Drivers/lvgl/src/extra/widgets/meter/lv_meter.c ****             line_dsc.width = line_width;
 1740              		.loc 1 480 13 is_stmt 1 view .LVU624
 481:Drivers/lvgl/src/extra/widgets/meter/lv_meter.c **** 
 1741              		.loc 1 481 13 view .LVU625
 485:Drivers/lvgl/src/extra/widgets/meter/lv_meter.c ****             p_outer.x = p_center.x + r_out + LV_MAX(LV_DPI_DEF, r_out);
 1742              		.loc 1 485 13 view .LVU626
 486:Drivers/lvgl/src/extra/widgets/meter/lv_meter.c ****             p_outer.y = p_center.y;
 1743              		.loc 1 486 13 view .LVU627
 487:Drivers/lvgl/src/extra/widgets/meter/lv_meter.c ****             lv_point_transform(&p_outer, angle_upscale, 256, &p_center);
 1744              		.loc 1 487 13 view .LVU628
 487:Drivers/lvgl/src/extra/widgets/meter/lv_meter.c ****             lv_point_transform(&p_outer, angle_upscale, 256, &p_center);
 1745              		.loc 1 487 23 is_stmt 0 view .LVU629
 1746 043c BDF83E30 		ldrh	r3, [sp, #62]
 1747 0440 ADF84230 		strh	r3, [sp, #66]	@ movhi
 488:Drivers/lvgl/src/extra/widgets/meter/lv_meter.c **** 
 1748              		.loc 1 488 13 is_stmt 1 view .LVU630
 1749 0444 4FF48072 		mov	r2, #256
 1750 0448 0FAB     		add	r3, sp, #60
 1751 044a 10A8     		add	r0, sp, #64
 1752 044c 0991     		str	r1, [sp, #36]
 1753 044e FFF7FEFF 		bl	lv_point_transform
 1754              	.LVL157:
 490:Drivers/lvgl/src/extra/widgets/meter/lv_meter.c ****             part_draw_dsc.p2 = &p_outer;
 1755              		.loc 1 490 13 view .LVU631
 490:Drivers/lvgl/src/extra/widgets/meter/lv_meter.c ****             part_draw_dsc.p2 = &p_outer;
 1756              		.loc 1 490 30 is_stmt 0 view .LVU632
 1757 0452 0FAB     		add	r3, sp, #60
 1758 0454 4F93     		str	r3, [sp, #316]
 491:Drivers/lvgl/src/extra/widgets/meter/lv_meter.c ****             part_draw_dsc.id = i;
 1759              		.loc 1 491 13 is_stmt 1 view .LVU633
 491:Drivers/lvgl/src/extra/widgets/meter/lv_meter.c ****             part_draw_dsc.id = i;
 1760              		.loc 1 491 30 is_stmt 0 view .LVU634
 1761 0456 10AB     		add	r3, sp, #64
 1762 0458 5093     		str	r3, [sp, #320]
 492:Drivers/lvgl/src/extra/widgets/meter/lv_meter.c ****             part_draw_dsc.label_dsc = &label_dsc;
 1763              		.loc 1 492 13 is_stmt 1 view .LVU635
 493:Drivers/lvgl/src/extra/widgets/meter/lv_meter.c **** 
 1764              		.loc 1 493 13 view .LVU636
 496:Drivers/lvgl/src/extra/widgets/meter/lv_meter.c ****                 lv_draw_mask_remove_id(outer_mask_id);
 1765              		.loc 1 496 15 is_stmt 0 view .LVU637
 1766 045a 079B     		ldr	r3, [sp, #28]
ARM GAS  /var/folders/0z/tsy30v1j4xl4_7kw94k978ww0000gn/T//ccjxQgZI.s 			page 72


 493:Drivers/lvgl/src/extra/widgets/meter/lv_meter.c **** 
 1767              		.loc 1 493 37 view .LVU638
 1768 045c 0B9D     		ldr	r5, [sp, #44]
 1769              	.LVL158:
 492:Drivers/lvgl/src/extra/widgets/meter/lv_meter.c ****             part_draw_dsc.label_dsc = &label_dsc;
 1770              		.loc 1 492 30 view .LVU639
 1771 045e CDF85081 		str	r8, [sp, #336]
 493:Drivers/lvgl/src/extra/widgets/meter/lv_meter.c **** 
 1772              		.loc 1 493 37 view .LVU640
 1773 0462 4B95     		str	r5, [sp, #300]
 496:Drivers/lvgl/src/extra/widgets/meter/lv_meter.c ****                 lv_draw_mask_remove_id(outer_mask_id);
 1774              		.loc 1 496 13 is_stmt 1 view .LVU641
 496:Drivers/lvgl/src/extra/widgets/meter/lv_meter.c ****                 lv_draw_mask_remove_id(outer_mask_id);
 1775              		.loc 1 496 15 is_stmt 0 view .LVU642
 1776 0464 002B     		cmp	r3, #0
 1777 0466 00F0AD80 		beq	.L38
 1778              	.LBB166:
 497:Drivers/lvgl/src/extra/widgets/meter/lv_meter.c ****                 uint32_t r_text = r_in_major - scale->label_gap;
 1779              		.loc 1 497 17 is_stmt 1 view .LVU643
 1780 046a 18EE100A 		vmov	r0, s16	@ int
 1781 046e FFF7FEFF 		bl	lv_draw_mask_remove_id
 1782              	.LVL159:
 498:Drivers/lvgl/src/extra/widgets/meter/lv_meter.c ****                 lv_point_t p;
 1783              		.loc 1 498 17 view .LVU644
 499:Drivers/lvgl/src/extra/widgets/meter/lv_meter.c ****                 p.x = p_center.x + r_text;
 1784              		.loc 1 499 17 view .LVU645
 500:Drivers/lvgl/src/extra/widgets/meter/lv_meter.c ****                 p.y = p_center.y;
 1785              		.loc 1 500 17 view .LVU646
 498:Drivers/lvgl/src/extra/widgets/meter/lv_meter.c ****                 lv_point_t p;
 1786              		.loc 1 498 46 is_stmt 0 view .LVU647
 1787 0472 0D9A     		ldr	r2, [sp, #52]
 498:Drivers/lvgl/src/extra/widgets/meter/lv_meter.c ****                 lv_point_t p;
 1788              		.loc 1 498 53 view .LVU648
 1789 0474 BAF91030 		ldrsh	r3, [r10, #16]
 502:Drivers/lvgl/src/extra/widgets/meter/lv_meter.c **** 
 1790              		.loc 1 502 17 view .LVU649
 1791 0478 0999     		ldr	r1, [sp, #36]
 498:Drivers/lvgl/src/extra/widgets/meter/lv_meter.c ****                 lv_point_t p;
 1792              		.loc 1 498 46 view .LVU650
 1793 047a D31A     		subs	r3, r2, r3
 500:Drivers/lvgl/src/extra/widgets/meter/lv_meter.c ****                 p.y = p_center.y;
 1794              		.loc 1 500 34 view .LVU651
 1795 047c BDF83C20 		ldrh	r2, [sp, #60]
 1796 0480 1344     		add	r3, r3, r2
 501:Drivers/lvgl/src/extra/widgets/meter/lv_meter.c ****                 lv_point_transform(&p, angle_upscale, 256, &p_center);
 1797              		.loc 1 501 21 view .LVU652
 1798 0482 BDF83E20 		ldrh	r2, [sp, #62]
 500:Drivers/lvgl/src/extra/widgets/meter/lv_meter.c ****                 p.y = p_center.y;
 1799              		.loc 1 500 21 view .LVU653
 1800 0486 ADF84430 		strh	r3, [sp, #68]	@ movhi
 501:Drivers/lvgl/src/extra/widgets/meter/lv_meter.c ****                 lv_point_transform(&p, angle_upscale, 256, &p_center);
 1801              		.loc 1 501 17 is_stmt 1 view .LVU654
 501:Drivers/lvgl/src/extra/widgets/meter/lv_meter.c ****                 lv_point_transform(&p, angle_upscale, 256, &p_center);
 1802              		.loc 1 501 21 is_stmt 0 view .LVU655
 1803 048a ADF84620 		strh	r2, [sp, #70]	@ movhi
 502:Drivers/lvgl/src/extra/widgets/meter/lv_meter.c **** 
 1804              		.loc 1 502 17 is_stmt 1 view .LVU656
ARM GAS  /var/folders/0z/tsy30v1j4xl4_7kw94k978ww0000gn/T//ccjxQgZI.s 			page 73


 1805 048e 0FAB     		add	r3, sp, #60
 1806 0490 4FF48072 		mov	r2, #256
 1807 0494 11A8     		add	r0, sp, #68
 1808 0496 FFF7FEFF 		bl	lv_point_transform
 1809              	.LVL160:
 504:Drivers/lvgl/src/extra/widgets/meter/lv_meter.c ****                 lv_memcpy(&label_dsc_tmp, &label_dsc, sizeof(label_dsc_tmp));
 1810              		.loc 1 504 17 view .LVU657
 505:Drivers/lvgl/src/extra/widgets/meter/lv_meter.c **** 
 1811              		.loc 1 505 17 view .LVU658
 1812 049a 2946     		mov	r1, r5
 1813 049c 2022     		movs	r2, #32
 1814 049e 3EA8     		add	r0, sp, #248
 1815 04a0 FFF7FEFF 		bl	lv_memcpy
 1816              	.LVL161:
 507:Drivers/lvgl/src/extra/widgets/meter/lv_meter.c ****                 char buf[16];
 1817              		.loc 1 507 17 view .LVU659
 510:Drivers/lvgl/src/extra/widgets/meter/lv_meter.c ****                 part_draw_dsc.text = buf;
 1818              		.loc 1 510 17 is_stmt 0 view .LVU660
 1819 04a4 20AC     		add	r4, sp, #128
 1820              	.LVL162:
 507:Drivers/lvgl/src/extra/widgets/meter/lv_meter.c ****                 char buf[16];
 1821              		.loc 1 507 41 view .LVU661
 1822 04a6 3EAA     		add	r2, sp, #248
 510:Drivers/lvgl/src/extra/widgets/meter/lv_meter.c ****                 part_draw_dsc.text = buf;
 1823              		.loc 1 510 17 view .LVU662
 1824 04a8 3346     		mov	r3, r6
 507:Drivers/lvgl/src/extra/widgets/meter/lv_meter.c ****                 char buf[16];
 1825              		.loc 1 507 41 view .LVU663
 1826 04aa 4B92     		str	r2, [sp, #300]
 508:Drivers/lvgl/src/extra/widgets/meter/lv_meter.c **** 
 1827              		.loc 1 508 17 is_stmt 1 view .LVU664
 510:Drivers/lvgl/src/extra/widgets/meter/lv_meter.c ****                 part_draw_dsc.text = buf;
 1828              		.loc 1 510 17 view .LVU665
 1829 04ac 1021     		movs	r1, #16
 1830 04ae 844A     		ldr	r2, .L76
 1831 04b0 2046     		mov	r0, r4
 1832 04b2 FFF7FEFF 		bl	lv_snprintf
 1833              	.LVL163:
 511:Drivers/lvgl/src/extra/widgets/meter/lv_meter.c **** 
 1834              		.loc 1 511 17 view .LVU666
 513:Drivers/lvgl/src/extra/widgets/meter/lv_meter.c **** 
 1835              		.loc 1 513 17 is_stmt 0 view .LVU667
 1836 04b6 46AA     		add	r2, sp, #280
 1837 04b8 1A21     		movs	r1, #26
 1838 04ba 19EE100A 		vmov	r0, s18	@ int
 511:Drivers/lvgl/src/extra/widgets/meter/lv_meter.c **** 
 1839              		.loc 1 511 36 view .LVU668
 1840 04be 5194     		str	r4, [sp, #324]
 513:Drivers/lvgl/src/extra/widgets/meter/lv_meter.c **** 
 1841              		.loc 1 513 17 is_stmt 1 view .LVU669
 1842 04c0 FFF7FEFF 		bl	lv_event_send
 1843              	.LVL164:
 515:Drivers/lvgl/src/extra/widgets/meter/lv_meter.c ****                 lv_txt_get_size(&label_size, part_draw_dsc.text, label_dsc_tmp.font, label_dsc_tmp.
 1844              		.loc 1 515 17 view .LVU670
 516:Drivers/lvgl/src/extra/widgets/meter/lv_meter.c ****                                 label_dsc_tmp.line_space,
 1845              		.loc 1 516 17 view .LVU671
 1846 04c4 BDF90A31 		ldrsh	r3, [sp, #266]
ARM GAS  /var/folders/0z/tsy30v1j4xl4_7kw94k978ww0000gn/T//ccjxQgZI.s 			page 74


 1847 04c8 0093     		str	r3, [sp]
 1848 04ca 0024     		movs	r4, #0
 1849 04cc 41F6FF73 		movw	r3, #8191
 1850 04d0 12AD     		add	r5, sp, #72
 1851 04d2 2846     		mov	r0, r5
 1852 04d4 3E9A     		ldr	r2, [sp, #248]
 1853 04d6 5199     		ldr	r1, [sp, #324]
 1854 04d8 0294     		str	r4, [sp, #8]
 1855 04da 0193     		str	r3, [sp, #4]
 1856 04dc BDF90C31 		ldrsh	r3, [sp, #268]
 1857 04e0 FFF7FEFF 		bl	lv_txt_get_size
 1858              	.LVL165:
 520:Drivers/lvgl/src/extra/widgets/meter/lv_meter.c ****                 label_cord.x1 = p.x - label_size.x / 2;
 1859              		.loc 1 520 17 view .LVU672
 521:Drivers/lvgl/src/extra/widgets/meter/lv_meter.c ****                 label_cord.y1 = p.y - label_size.y / 2;
 1860              		.loc 1 521 17 view .LVU673
 521:Drivers/lvgl/src/extra/widgets/meter/lv_meter.c ****                 label_cord.y1 = p.y - label_size.y / 2;
 1861              		.loc 1 521 49 is_stmt 0 view .LVU674
 1862 04e4 BDF94800 		ldrsh	r0, [sp, #72]
 521:Drivers/lvgl/src/extra/widgets/meter/lv_meter.c ****                 label_cord.y1 = p.y - label_size.y / 2;
 1863              		.loc 1 521 37 view .LVU675
 1864 04e8 BDF84420 		ldrh	r2, [sp, #68]
 522:Drivers/lvgl/src/extra/widgets/meter/lv_meter.c ****                 label_cord.x2 = label_cord.x1 + label_size.x;
 1865              		.loc 1 522 49 view .LVU676
 1866 04ec BDF94A10 		ldrsh	r1, [sp, #74]
 522:Drivers/lvgl/src/extra/widgets/meter/lv_meter.c ****                 label_cord.x2 = label_cord.x1 + label_size.x;
 1867              		.loc 1 522 37 view .LVU677
 1868 04f0 BDF84630 		ldrh	r3, [sp, #70]
 526:Drivers/lvgl/src/extra/widgets/meter/lv_meter.c **** 
 1869              		.loc 1 526 17 view .LVU678
 1870 04f4 0094     		str	r4, [sp]
 521:Drivers/lvgl/src/extra/widgets/meter/lv_meter.c ****                 label_cord.y1 = p.y - label_size.y / 2;
 1871              		.loc 1 521 37 view .LVU679
 1872 04f6 00EBD075 		add	r5, r0, r0, lsr #31
 1873 04fa A2EB6502 		sub	r2, r2, r5, asr #1
 1874 04fe 92B2     		uxth	r2, r2
 523:Drivers/lvgl/src/extra/widgets/meter/lv_meter.c ****                 label_cord.y2 = label_cord.y1 + label_size.y;
 1875              		.loc 1 523 47 view .LVU680
 1876 0500 1044     		add	r0, r0, r2
 521:Drivers/lvgl/src/extra/widgets/meter/lv_meter.c ****                 label_cord.y1 = p.y - label_size.y / 2;
 1877              		.loc 1 521 31 view .LVU681
 1878 0502 ADF86C20 		strh	r2, [sp, #108]	@ movhi
 522:Drivers/lvgl/src/extra/widgets/meter/lv_meter.c ****                 label_cord.x2 = label_cord.x1 + label_size.x;
 1879              		.loc 1 522 17 is_stmt 1 view .LVU682
 522:Drivers/lvgl/src/extra/widgets/meter/lv_meter.c ****                 label_cord.x2 = label_cord.x1 + label_size.x;
 1880              		.loc 1 522 37 is_stmt 0 view .LVU683
 1881 0506 01EBD172 		add	r2, r1, r1, lsr #31
 1882 050a A3EB6203 		sub	r3, r3, r2, asr #1
 1883 050e 9BB2     		uxth	r3, r3
 524:Drivers/lvgl/src/extra/widgets/meter/lv_meter.c **** 
 1884              		.loc 1 524 47 view .LVU684
 1885 0510 1944     		add	r1, r1, r3
 526:Drivers/lvgl/src/extra/widgets/meter/lv_meter.c **** 
 1886              		.loc 1 526 17 view .LVU685
 1887 0512 1BAA     		add	r2, sp, #108
 523:Drivers/lvgl/src/extra/widgets/meter/lv_meter.c ****                 label_cord.y2 = label_cord.y1 + label_size.y;
 1888              		.loc 1 523 31 view .LVU686
ARM GAS  /var/folders/0z/tsy30v1j4xl4_7kw94k978ww0000gn/T//ccjxQgZI.s 			page 75


 1889 0514 ADF87000 		strh	r0, [sp, #112]	@ movhi
 522:Drivers/lvgl/src/extra/widgets/meter/lv_meter.c ****                 label_cord.x2 = label_cord.x1 + label_size.x;
 1890              		.loc 1 522 31 view .LVU687
 1891 0518 ADF86E30 		strh	r3, [sp, #110]	@ movhi
 523:Drivers/lvgl/src/extra/widgets/meter/lv_meter.c ****                 label_cord.y2 = label_cord.y1 + label_size.y;
 1892              		.loc 1 523 17 is_stmt 1 view .LVU688
 524:Drivers/lvgl/src/extra/widgets/meter/lv_meter.c **** 
 1893              		.loc 1 524 17 view .LVU689
 526:Drivers/lvgl/src/extra/widgets/meter/lv_meter.c **** 
 1894              		.loc 1 526 17 is_stmt 0 view .LVU690
 1895 051c 18EE900A 		vmov	r0, s17	@ int
 1896 0520 519B     		ldr	r3, [sp, #324]
 524:Drivers/lvgl/src/extra/widgets/meter/lv_meter.c **** 
 1897              		.loc 1 524 31 view .LVU691
 1898 0522 ADF87210 		strh	r1, [sp, #114]	@ movhi
 526:Drivers/lvgl/src/extra/widgets/meter/lv_meter.c **** 
 1899              		.loc 1 526 17 is_stmt 1 view .LVU692
 1900 0526 4B99     		ldr	r1, [sp, #300]
 1901 0528 FFF7FEFF 		bl	lv_draw_label
 1902              	.LVL166:
 528:Drivers/lvgl/src/extra/widgets/meter/lv_meter.c ****             }
 1903              		.loc 1 528 17 view .LVU693
 528:Drivers/lvgl/src/extra/widgets/meter/lv_meter.c ****             }
 1904              		.loc 1 528 33 is_stmt 0 view .LVU694
 1905 052c 30AB     		add	r3, sp, #192
 1906 052e 2146     		mov	r1, r4
 1907 0530 1846     		mov	r0, r3
 1908 0532 FFF7FEFF 		bl	lv_draw_mask_add
 1909              	.LVL167:
 1910              	.LBE166:
 536:Drivers/lvgl/src/extra/widgets/meter/lv_meter.c ****             lv_draw_line(draw_ctx, &line_dsc, &p_outer, &p_center);
 1911              		.loc 1 536 33 view .LVU695
 1912 0536 2AAB     		add	r3, sp, #168
 1913 0538 2146     		mov	r1, r4
 1914              	.LBB167:
 528:Drivers/lvgl/src/extra/widgets/meter/lv_meter.c ****             }
 1915              		.loc 1 528 33 view .LVU696
 1916 053a 08EE100A 		vmov	s16, r0	@ int
 1917              	.LVL168:
 528:Drivers/lvgl/src/extra/widgets/meter/lv_meter.c ****             }
 1918              		.loc 1 528 33 view .LVU697
 1919              	.LBE167:
 536:Drivers/lvgl/src/extra/widgets/meter/lv_meter.c ****             lv_draw_line(draw_ctx, &line_dsc, &p_outer, &p_center);
 1920              		.loc 1 536 13 is_stmt 1 view .LVU698
 536:Drivers/lvgl/src/extra/widgets/meter/lv_meter.c ****             lv_draw_line(draw_ctx, &line_dsc, &p_outer, &p_center);
 1921              		.loc 1 536 33 is_stmt 0 view .LVU699
 1922 053e 1846     		mov	r0, r3
 1923 0540 FFF7FEFF 		bl	lv_draw_mask_add
 1924              	.LVL169:
 537:Drivers/lvgl/src/extra/widgets/meter/lv_meter.c ****             lv_draw_mask_remove_id(inner_act_mask_id);
 1925              		.loc 1 537 13 view .LVU700
 1926 0544 1DA9     		add	r1, sp, #116
 1927 0546 10AA     		add	r2, sp, #64
 536:Drivers/lvgl/src/extra/widgets/meter/lv_meter.c ****             lv_draw_line(draw_ctx, &line_dsc, &p_outer, &p_center);
 1928              		.loc 1 536 33 view .LVU701
 1929 0548 0446     		mov	r4, r0
 1930              	.LVL170:
ARM GAS  /var/folders/0z/tsy30v1j4xl4_7kw94k978ww0000gn/T//ccjxQgZI.s 			page 76


 537:Drivers/lvgl/src/extra/widgets/meter/lv_meter.c ****             lv_draw_mask_remove_id(inner_act_mask_id);
 1931              		.loc 1 537 13 is_stmt 1 view .LVU702
 1932 054a 0FAB     		add	r3, sp, #60
 1933 054c 18EE900A 		vmov	r0, s17	@ int
 1934 0550 FFF7FEFF 		bl	lv_draw_line
 1935              	.LVL171:
 538:Drivers/lvgl/src/extra/widgets/meter/lv_meter.c ****             lv_event_send(obj, LV_EVENT_DRAW_MAIN_END, &part_draw_dsc);
 1936              		.loc 1 538 13 view .LVU703
 1937 0554 2046     		mov	r0, r4
 1938 0556 FFF7FEFF 		bl	lv_draw_mask_remove_id
 1939              	.LVL172:
 539:Drivers/lvgl/src/extra/widgets/meter/lv_meter.c **** 
 1940              		.loc 1 539 13 view .LVU704
 1941 055a 19EE100A 		vmov	r0, s18	@ int
 1942              	.LBE168:
 439:Drivers/lvgl/src/extra/widgets/meter/lv_meter.c ****             minor_cnt++;
 1943              		.loc 1 439 22 is_stmt 0 view .LVU705
 1944 055e 0BF1010B 		add	fp, fp, #1
 1945              	.LVL173:
 1946              	.LBB169:
 539:Drivers/lvgl/src/extra/widgets/meter/lv_meter.c **** 
 1947              		.loc 1 539 13 view .LVU706
 1948 0562 46AA     		add	r2, sp, #280
 1949 0564 1621     		movs	r1, #22
 1950              	.LVL174:
 1951              	.L67:
 539:Drivers/lvgl/src/extra/widgets/meter/lv_meter.c **** 
 1952              		.loc 1 539 13 view .LVU707
 1953 0566 FFF7FEFF 		bl	lv_event_send
 1954              	.LVL175:
 541:Drivers/lvgl/src/extra/widgets/meter/lv_meter.c ****             line_dsc.width = line_width_ori;
 1955              		.loc 1 541 13 is_stmt 1 view .LVU708
 541:Drivers/lvgl/src/extra/widgets/meter/lv_meter.c ****             line_dsc.width = line_width_ori;
 1956              		.loc 1 541 28 is_stmt 0 view .LVU709
 1957 056a BDF82230 		ldrh	r3, [sp, #34]
 1958              	.LBE169:
 439:Drivers/lvgl/src/extra/widgets/meter/lv_meter.c ****             minor_cnt++;
 1959              		.loc 1 439 29 view .LVU710
 1960 056e BAF80220 		ldrh	r2, [r10, #2]
 1961              	.LVL176:
 1962              	.LBB170:
 541:Drivers/lvgl/src/extra/widgets/meter/lv_meter.c ****             line_dsc.width = line_width_ori;
 1963              		.loc 1 541 28 view .LVU711
 1964 0572 ADF87430 		strh	r3, [sp, #116]	@ movhi
 542:Drivers/lvgl/src/extra/widgets/meter/lv_meter.c **** 
 1965              		.loc 1 542 13 is_stmt 1 view .LVU712
 542:Drivers/lvgl/src/extra/widgets/meter/lv_meter.c **** 
 1966              		.loc 1 542 28 is_stmt 0 view .LVU713
 1967 0576 059B     		ldr	r3, [sp, #20]
 1968              	.LVL177:
 542:Drivers/lvgl/src/extra/widgets/meter/lv_meter.c **** 
 1969              		.loc 1 542 28 view .LVU714
 1970 0578 ADF87630 		strh	r3, [sp, #118]	@ movhi
 542:Drivers/lvgl/src/extra/widgets/meter/lv_meter.c **** 
 1971              		.loc 1 542 28 view .LVU715
 1972              	.LBE170:
 439:Drivers/lvgl/src/extra/widgets/meter/lv_meter.c ****             minor_cnt++;
ARM GAS  /var/folders/0z/tsy30v1j4xl4_7kw94k978ww0000gn/T//ccjxQgZI.s 			page 77


 1973              		.loc 1 439 42 is_stmt 1 view .LVU716
 1974              	.LVL178:
 439:Drivers/lvgl/src/extra/widgets/meter/lv_meter.c ****             minor_cnt++;
 1975              		.loc 1 439 22 view .LVU717
 1976 057c 1FFA8BF3 		uxth	r3, fp
 1977 0580 9A42     		cmp	r2, r3
 1978 0582 3FD9     		bls	.L30
 1979              	.LBB171:
 440:Drivers/lvgl/src/extra/widgets/meter/lv_meter.c ****             bool major = false;
 1980              		.loc 1 440 22 is_stmt 0 view .LVU718
 1981 0584 0699     		ldr	r1, [sp, #24]
 442:Drivers/lvgl/src/extra/widgets/meter/lv_meter.c ****                 minor_cnt = 0;
 1982              		.loc 1 442 34 view .LVU719
 1983 0586 BAF80A30 		ldrh	r3, [r10, #10]
 1984              	.LVL179:
 440:Drivers/lvgl/src/extra/widgets/meter/lv_meter.c ****             bool major = false;
 1985              		.loc 1 440 13 is_stmt 1 view .LVU720
 440:Drivers/lvgl/src/extra/widgets/meter/lv_meter.c ****             bool major = false;
 1986              		.loc 1 440 22 is_stmt 0 view .LVU721
 1987 058a 0131     		adds	r1, r1, #1
 442:Drivers/lvgl/src/extra/widgets/meter/lv_meter.c ****                 minor_cnt = 0;
 1988              		.loc 1 442 15 view .LVU722
 1989 058c 9942     		cmp	r1, r3
 440:Drivers/lvgl/src/extra/widgets/meter/lv_meter.c ****             bool major = false;
 1990              		.loc 1 440 22 view .LVU723
 1991 058e 0691     		str	r1, [sp, #24]
 1992              	.LVL180:
 441:Drivers/lvgl/src/extra/widgets/meter/lv_meter.c ****             if(minor_cnt == scale->tick_major_nth) {
 1993              		.loc 1 441 13 is_stmt 1 view .LVU724
 442:Drivers/lvgl/src/extra/widgets/meter/lv_meter.c ****                 minor_cnt = 0;
 1994              		.loc 1 442 13 view .LVU725
 442:Drivers/lvgl/src/extra/widgets/meter/lv_meter.c ****                 minor_cnt = 0;
 1995              		.loc 1 442 15 is_stmt 0 view .LVU726
 1996 0590 7FF4C6AE 		bne	.L63
 1997              	.LVL181:
 1998              	.L70:
 443:Drivers/lvgl/src/extra/widgets/meter/lv_meter.c ****                 major = true;
 1999              		.loc 1 443 17 is_stmt 1 view .LVU727
 444:Drivers/lvgl/src/extra/widgets/meter/lv_meter.c ****             }
 2000              		.loc 1 444 17 view .LVU728
 447:Drivers/lvgl/src/extra/widgets/meter/lv_meter.c ****             part_draw_dsc.value = value_of_line;
 2001              		.loc 1 447 13 view .LVU729
 447:Drivers/lvgl/src/extra/widgets/meter/lv_meter.c ****             part_draw_dsc.value = value_of_line;
 2002              		.loc 1 447 37 is_stmt 0 view .LVU730
 2003 0594 DAE90531 		ldrd	r3, r1, [r10, #20]
 2004 0598 1FFA8BF8 		uxth	r8, fp
 2005 059c 013A     		subs	r2, r2, #1
 2006 059e 0091     		str	r1, [sp]
 2007 05a0 4046     		mov	r0, r8
 2008 05a2 0021     		movs	r1, #0
 2009 05a4 FFF7FEFF 		bl	lv_map
 2010              	.LVL182:
 453:Drivers/lvgl/src/extra/widgets/meter/lv_meter.c ****             lv_coord_t line_width = line_width_ori;
 2011              		.loc 1 453 24 view .LVU731
 2012 05a8 BAF90E30 		ldrsh	r3, [r10, #14]
 450:Drivers/lvgl/src/extra/widgets/meter/lv_meter.c ****             lv_color_t line_color_ori = line_color;
 2013              		.loc 1 450 24 view .LVU732
ARM GAS  /var/folders/0z/tsy30v1j4xl4_7kw94k978ww0000gn/T//ccjxQgZI.s 			page 78


 2014 05ac BAF80850 		ldrh	r5, [r10, #8]
 453:Drivers/lvgl/src/extra/widgets/meter/lv_meter.c ****             lv_coord_t line_width = line_width_ori;
 2015              		.loc 1 453 24 view .LVU733
 2016 05b0 0593     		str	r3, [sp, #20]
 444:Drivers/lvgl/src/extra/widgets/meter/lv_meter.c ****             }
 2017              		.loc 1 444 23 view .LVU734
 2018 05b2 0022     		movs	r2, #0
 2019 05b4 0123     		movs	r3, #1
 2020 05b6 CDE90623 		strd	r2, r3, [sp, #24]
 447:Drivers/lvgl/src/extra/widgets/meter/lv_meter.c ****             part_draw_dsc.value = value_of_line;
 2021              		.loc 1 447 37 view .LVU735
 2022 05ba 0646     		mov	r6, r0
 2023              	.LVL183:
 448:Drivers/lvgl/src/extra/widgets/meter/lv_meter.c **** 
 2024              		.loc 1 448 13 is_stmt 1 view .LVU736
 448:Drivers/lvgl/src/extra/widgets/meter/lv_meter.c **** 
 2025              		.loc 1 448 33 is_stmt 0 view .LVU737
 2026 05bc 5690     		str	r0, [sp, #344]
 450:Drivers/lvgl/src/extra/widgets/meter/lv_meter.c ****             lv_color_t line_color_ori = line_color;
 2027              		.loc 1 450 13 is_stmt 1 view .LVU738
 2028              	.LVL184:
 451:Drivers/lvgl/src/extra/widgets/meter/lv_meter.c **** 
 2029              		.loc 1 451 13 view .LVU739
 451:Drivers/lvgl/src/extra/widgets/meter/lv_meter.c **** 
 2030              		.loc 1 451 24 is_stmt 0 view .LVU740
 2031 05be ADF82250 		strh	r5, [sp, #34]	@ movhi
 453:Drivers/lvgl/src/extra/widgets/meter/lv_meter.c ****             lv_coord_t line_width = line_width_ori;
 2032              		.loc 1 453 13 is_stmt 1 view .LVU741
 2033 05c2 C2E6     		b	.L47
 2034              	.LVL185:
 2035              	.L38:
 453:Drivers/lvgl/src/extra/widgets/meter/lv_meter.c ****             lv_coord_t line_width = line_width_ori;
 2036              		.loc 1 453 13 is_stmt 0 view .LVU742
 2037 05c4 1C46     		mov	r4, r3
 2038              	.LVL186:
 531:Drivers/lvgl/src/extra/widgets/meter/lv_meter.c ****                 part_draw_dsc.text = NULL;
 2039              		.loc 1 531 17 is_stmt 1 view .LVU743
 533:Drivers/lvgl/src/extra/widgets/meter/lv_meter.c ****             }
 2040              		.loc 1 533 17 is_stmt 0 view .LVU744
 2041 05c6 46AA     		add	r2, sp, #280
 2042 05c8 1A21     		movs	r1, #26
 2043 05ca 19EE100A 		vmov	r0, s18	@ int
 531:Drivers/lvgl/src/extra/widgets/meter/lv_meter.c ****                 part_draw_dsc.text = NULL;
 2044              		.loc 1 531 41 view .LVU745
 2045 05ce 4B93     		str	r3, [sp, #300]
 532:Drivers/lvgl/src/extra/widgets/meter/lv_meter.c ****                 lv_event_send(obj, LV_EVENT_DRAW_PART_BEGIN, &part_draw_dsc);
 2046              		.loc 1 532 17 is_stmt 1 view .LVU746
 532:Drivers/lvgl/src/extra/widgets/meter/lv_meter.c ****                 lv_event_send(obj, LV_EVENT_DRAW_PART_BEGIN, &part_draw_dsc);
 2047              		.loc 1 532 36 is_stmt 0 view .LVU747
 2048 05d0 5193     		str	r3, [sp, #324]
 533:Drivers/lvgl/src/extra/widgets/meter/lv_meter.c ****             }
 2049              		.loc 1 533 17 is_stmt 1 view .LVU748
 2050 05d2 FFF7FEFF 		bl	lv_event_send
 2051              	.LVL187:
 536:Drivers/lvgl/src/extra/widgets/meter/lv_meter.c ****             lv_draw_line(draw_ctx, &line_dsc, &p_outer, &p_center);
 2052              		.loc 1 536 13 view .LVU749
 536:Drivers/lvgl/src/extra/widgets/meter/lv_meter.c ****             lv_draw_line(draw_ctx, &line_dsc, &p_outer, &p_center);
ARM GAS  /var/folders/0z/tsy30v1j4xl4_7kw94k978ww0000gn/T//ccjxQgZI.s 			page 79


 2053              		.loc 1 536 33 is_stmt 0 view .LVU750
 2054 05d6 2146     		mov	r1, r4
 2055 05d8 19EE900A 		vmov	r0, s19	@ int
 2056 05dc FFF7FEFF 		bl	lv_draw_mask_add
 2057              	.LVL188:
 537:Drivers/lvgl/src/extra/widgets/meter/lv_meter.c ****             lv_draw_mask_remove_id(inner_act_mask_id);
 2058              		.loc 1 537 13 view .LVU751
 2059 05e0 1DA9     		add	r1, sp, #116
 2060 05e2 10AA     		add	r2, sp, #64
 536:Drivers/lvgl/src/extra/widgets/meter/lv_meter.c ****             lv_draw_line(draw_ctx, &line_dsc, &p_outer, &p_center);
 2061              		.loc 1 536 33 view .LVU752
 2062 05e4 0446     		mov	r4, r0
 2063              	.LVL189:
 537:Drivers/lvgl/src/extra/widgets/meter/lv_meter.c ****             lv_draw_mask_remove_id(inner_act_mask_id);
 2064              		.loc 1 537 13 is_stmt 1 view .LVU753
 2065 05e6 0FAB     		add	r3, sp, #60
 2066 05e8 18EE900A 		vmov	r0, s17	@ int
 2067 05ec FFF7FEFF 		bl	lv_draw_line
 2068              	.LVL190:
 538:Drivers/lvgl/src/extra/widgets/meter/lv_meter.c ****             lv_event_send(obj, LV_EVENT_DRAW_MAIN_END, &part_draw_dsc);
 2069              		.loc 1 538 13 view .LVU754
 2070 05f0 2046     		mov	r0, r4
 2071 05f2 FFF7FEFF 		bl	lv_draw_mask_remove_id
 2072              	.LVL191:
 539:Drivers/lvgl/src/extra/widgets/meter/lv_meter.c **** 
 2073              		.loc 1 539 13 view .LVU755
 2074              	.LBE171:
 439:Drivers/lvgl/src/extra/widgets/meter/lv_meter.c ****             minor_cnt++;
 2075              		.loc 1 439 22 is_stmt 0 view .LVU756
 2076 05f6 0BF1010B 		add	fp, fp, #1
 2077              	.LVL192:
 2078              	.LBB172:
 539:Drivers/lvgl/src/extra/widgets/meter/lv_meter.c **** 
 2079              		.loc 1 539 13 view .LVU757
 2080 05fa 19EE100A 		vmov	r0, s18	@ int
 2081 05fe 46AA     		add	r2, sp, #280
 2082 0600 1621     		movs	r1, #22
 2083 0602 B0E7     		b	.L67
 2084              	.LVL193:
 2085              	.L30:
 539:Drivers/lvgl/src/extra/widgets/meter/lv_meter.c **** 
 2086              		.loc 1 539 13 view .LVU758
 2087              	.LBE172:
 545:Drivers/lvgl/src/extra/widgets/meter/lv_meter.c ****         lv_draw_mask_free_param(&inner_major_mask);
 2088              		.loc 1 545 9 is_stmt 1 view .LVU759
 2089 0604 19EE900A 		vmov	r0, s19	@ int
 2090 0608 FFF7FEFF 		bl	lv_draw_mask_free_param
 2091              	.LVL194:
 546:Drivers/lvgl/src/extra/widgets/meter/lv_meter.c ****         lv_draw_mask_free_param(&outer_mask);
 2092              		.loc 1 546 9 view .LVU760
 2093 060c 2AA8     		add	r0, sp, #168
 2094 060e FFF7FEFF 		bl	lv_draw_mask_free_param
 2095              	.LVL195:
 547:Drivers/lvgl/src/extra/widgets/meter/lv_meter.c ****         lv_draw_mask_remove_id(outer_mask_id);
 2096              		.loc 1 547 9 view .LVU761
 2097 0612 30A8     		add	r0, sp, #192
 2098 0614 FFF7FEFF 		bl	lv_draw_mask_free_param
ARM GAS  /var/folders/0z/tsy30v1j4xl4_7kw94k978ww0000gn/T//ccjxQgZI.s 			page 80


 2099              	.LVL196:
 548:Drivers/lvgl/src/extra/widgets/meter/lv_meter.c ****     }
 2100              		.loc 1 548 9 view .LVU762
 2101 0618 18EE100A 		vmov	r0, s16	@ int
 2102 061c FFF7FEFF 		bl	lv_draw_mask_remove_id
 2103              	.LVL197:
 2104              	.LBE158:
 406:Drivers/lvgl/src/extra/widgets/meter/lv_meter.c ****         part_draw_dsc.sub_part_ptr = scale;
 2105              		.loc 1 406 5 view .LVU763
 2106 0620 5146     		mov	r1, r10
 2107 0622 1AEE100A 		vmov	r0, s20	@ int
 2108 0626 FFF7FEFF 		bl	_lv_ll_get_prev
 2109              	.LVL198:
 406:Drivers/lvgl/src/extra/widgets/meter/lv_meter.c ****         part_draw_dsc.sub_part_ptr = scale;
 2110              		.loc 1 406 5 view .LVU764
 2111 062a 8246     		mov	r10, r0
 2112 062c 0028     		cmp	r0, #0
 2113 062e 7FF402AE 		bne	.L22
 2114 0632 19EE10BA 		vmov	fp, s18	@ int
 2115 0636 CA46     		mov	r10, r9
 2116              	.LVL199:
 2117              	.L23:
 406:Drivers/lvgl/src/extra/widgets/meter/lv_meter.c ****         part_draw_dsc.sub_part_ptr = scale;
 2118              		.loc 1 406 5 is_stmt 0 view .LVU765
 2119              	.LBE149:
 2120              	.LBE148:
 305:Drivers/lvgl/src/extra/widgets/meter/lv_meter.c **** 
 2121              		.loc 1 305 9 is_stmt 1 view .LVU766
 2122              	.LBB175:
 2123              	.LBB176:
 2124              	.LBB177:
 2125              	.LBB178:
 125:Drivers/lvgl/src/extra/widgets/meter/../../../../src/hal/../draw/../misc/../font/../misc/lv_area.h **** }
 2126              		.loc 3 125 49 is_stmt 0 view .LVU767
 2127 0638 BDF85030 		ldrh	r3, [sp, #80]
 125:Drivers/lvgl/src/extra/widgets/meter/../../../../src/hal/../draw/../misc/../font/../misc/lv_area.h **** }
 2128              		.loc 3 125 44 view .LVU768
 2129 063c BDF84C20 		ldrh	r2, [sp, #76]
 2130              	.LBE178:
 2131              	.LBE177:
 563:Drivers/lvgl/src/extra/widgets/meter/lv_meter.c ****     lv_obj_init_draw_line_dsc(obj, LV_PART_ITEMS, &line_dsc);
 2132              		.loc 1 563 5 view .LVU769
 2133 0640 0B9C     		ldr	r4, [sp, #44]
 2134              	.LBB181:
 2135              	.LBB179:
 125:Drivers/lvgl/src/extra/widgets/meter/../../../../src/hal/../draw/../misc/../font/../misc/lv_area.h **** }
 2136              		.loc 3 125 49 view .LVU770
 2137 0642 0133     		adds	r3, r3, #1
 2138 0644 9B1A     		subs	r3, r3, r2
 2139              	.LBE179:
 2140              	.LBE181:
 557:Drivers/lvgl/src/extra/widgets/meter/lv_meter.c ****     lv_point_t scale_center;
 2141              		.loc 1 557 16 view .LVU771
 2142 0646 C3F3C031 		ubfx	r1, r3, #15, #1
 2143 064a 01FA83F3 		sxtah	r3, r1, r3
 559:Drivers/lvgl/src/extra/widgets/meter/lv_meter.c ****     scale_center.y = scale_area->y1 + r_edge;
 2144              		.loc 1 559 37 view .LVU772
ARM GAS  /var/folders/0z/tsy30v1j4xl4_7kw94k978ww0000gn/T//ccjxQgZI.s 			page 81


 2145 064e C3F34F07 		ubfx	r7, r3, #1, #16
 2146 0652 BDF94E30 		ldrsh	r3, [sp, #78]
 2147              	.LVL200:
 559:Drivers/lvgl/src/extra/widgets/meter/lv_meter.c ****     scale_center.y = scale_area->y1 + r_edge;
 2148              		.loc 1 559 37 view .LVU773
 2149              	.LBE176:
 2150              	.LBI175:
 553:Drivers/lvgl/src/extra/widgets/meter/lv_meter.c **** {
 2151              		.loc 1 553 13 is_stmt 1 view .LVU774
 2152              	.LBB194:
 555:Drivers/lvgl/src/extra/widgets/meter/lv_meter.c **** 
 2153              		.loc 1 555 5 view .LVU775
 557:Drivers/lvgl/src/extra/widgets/meter/lv_meter.c ****     lv_point_t scale_center;
 2154              		.loc 1 557 5 view .LVU776
 2155              	.LBB182:
 2156              	.LBI177:
 123:Drivers/lvgl/src/extra/widgets/meter/../../../../src/hal/../draw/../misc/../font/../misc/lv_area.h **** {
 2157              		.loc 3 123 26 view .LVU777
 2158              	.LBB180:
 125:Drivers/lvgl/src/extra/widgets/meter/../../../../src/hal/../draw/../misc/../font/../misc/lv_area.h **** }
 2159              		.loc 3 125 5 view .LVU778
 125:Drivers/lvgl/src/extra/widgets/meter/../../../../src/hal/../draw/../misc/../font/../misc/lv_area.h **** }
 2160              		.loc 3 125 5 is_stmt 0 view .LVU779
 2161              	.LBE180:
 2162              	.LBE182:
 558:Drivers/lvgl/src/extra/widgets/meter/lv_meter.c ****     scale_center.x = scale_area->x1 + r_edge;
 2163              		.loc 1 558 5 is_stmt 1 view .LVU780
 559:Drivers/lvgl/src/extra/widgets/meter/lv_meter.c ****     scale_center.y = scale_area->y1 + r_edge;
 2164              		.loc 1 559 5 view .LVU781
 560:Drivers/lvgl/src/extra/widgets/meter/lv_meter.c **** 
 2165              		.loc 1 560 5 view .LVU782
 559:Drivers/lvgl/src/extra/widgets/meter/lv_meter.c ****     scale_center.y = scale_area->y1 + r_edge;
 2166              		.loc 1 559 37 is_stmt 0 view .LVU783
 2167 0656 3A44     		add	r2, r2, r7
 2168              	.LVL201:
 560:Drivers/lvgl/src/extra/widgets/meter/lv_meter.c **** 
 2169              		.loc 1 560 37 view .LVU784
 2170 0658 3B44     		add	r3, r3, r7
 563:Drivers/lvgl/src/extra/widgets/meter/lv_meter.c ****     lv_obj_init_draw_line_dsc(obj, LV_PART_ITEMS, &line_dsc);
 2171              		.loc 1 563 5 view .LVU785
 2172 065a 2046     		mov	r0, r4
 560:Drivers/lvgl/src/extra/widgets/meter/lv_meter.c **** 
 2173              		.loc 1 560 20 view .LVU786
 2174 065c ADF89230 		strh	r3, [sp, #146]	@ movhi
 562:Drivers/lvgl/src/extra/widgets/meter/lv_meter.c ****     lv_draw_line_dsc_init(&line_dsc);
 2175              		.loc 1 562 5 is_stmt 1 view .LVU787
 563:Drivers/lvgl/src/extra/widgets/meter/lv_meter.c ****     lv_obj_init_draw_line_dsc(obj, LV_PART_ITEMS, &line_dsc);
 2176              		.loc 1 563 5 view .LVU788
 559:Drivers/lvgl/src/extra/widgets/meter/lv_meter.c ****     scale_center.y = scale_area->y1 + r_edge;
 2177              		.loc 1 559 20 is_stmt 0 view .LVU789
 2178 0660 ADF89020 		strh	r2, [sp, #144]	@ movhi
 563:Drivers/lvgl/src/extra/widgets/meter/lv_meter.c ****     lv_obj_init_draw_line_dsc(obj, LV_PART_ITEMS, &line_dsc);
 2179              		.loc 1 563 5 view .LVU790
 2180 0664 FFF7FEFF 		bl	lv_draw_line_dsc_init
 2181              	.LVL202:
 564:Drivers/lvgl/src/extra/widgets/meter/lv_meter.c **** 
 2182              		.loc 1 564 5 is_stmt 1 view .LVU791
ARM GAS  /var/folders/0z/tsy30v1j4xl4_7kw94k978ww0000gn/T//ccjxQgZI.s 			page 82


 2183 0668 2246     		mov	r2, r4
 2184 066a 4FF4A021 		mov	r1, #327680
 2185 066e 5846     		mov	r0, fp
 2186 0670 FFF7FEFF 		bl	lv_obj_init_draw_line_dsc
 2187              	.LVL203:
 566:Drivers/lvgl/src/extra/widgets/meter/lv_meter.c ****     lv_draw_img_dsc_init(&img_dsc);
 2188              		.loc 1 566 5 view .LVU792
 567:Drivers/lvgl/src/extra/widgets/meter/lv_meter.c ****     lv_obj_init_draw_img_dsc(obj, LV_PART_ITEMS, &img_dsc);
 2189              		.loc 1 567 5 view .LVU793
 2190 0674 3EA8     		add	r0, sp, #248
 2191 0676 FFF7FEFF 		bl	lv_draw_img_dsc_init
 2192              	.LVL204:
 568:Drivers/lvgl/src/extra/widgets/meter/lv_meter.c ****     lv_opa_t opa_main = lv_obj_get_style_opa_recursive(obj, LV_PART_MAIN);
 2193              		.loc 1 568 5 view .LVU794
 2194 067a 3EAA     		add	r2, sp, #248
 2195 067c 4FF4A021 		mov	r1, #327680
 2196 0680 5846     		mov	r0, fp
 2197 0682 FFF7FEFF 		bl	lv_obj_init_draw_img_dsc
 2198              	.LVL205:
 569:Drivers/lvgl/src/extra/widgets/meter/lv_meter.c **** 
 2199              		.loc 1 569 5 view .LVU795
 569:Drivers/lvgl/src/extra/widgets/meter/lv_meter.c **** 
 2200              		.loc 1 569 25 is_stmt 0 view .LVU796
 2201 0686 0021     		movs	r1, #0
 2202 0688 5846     		mov	r0, fp
 2203 068a FFF7FEFF 		bl	lv_obj_get_style_opa_recursive
 2204              	.LVL206:
 572:Drivers/lvgl/src/extra/widgets/meter/lv_meter.c ****     part_draw_dsc.class_p = MY_CLASS;
 2205              		.loc 1 572 5 view .LVU797
 2206 068e 18EE901A 		vmov	r1, s17	@ int
 569:Drivers/lvgl/src/extra/widgets/meter/lv_meter.c **** 
 2207              		.loc 1 569 25 view .LVU798
 2208 0692 0646     		mov	r6, r0
 2209              	.LVL207:
 571:Drivers/lvgl/src/extra/widgets/meter/lv_meter.c ****     lv_obj_draw_dsc_init(&part_draw_dsc, draw_ctx);
 2210              		.loc 1 571 5 is_stmt 1 view .LVU799
 572:Drivers/lvgl/src/extra/widgets/meter/lv_meter.c ****     part_draw_dsc.class_p = MY_CLASS;
 2211              		.loc 1 572 5 view .LVU800
 2212 0694 46A8     		add	r0, sp, #280
 2213 0696 FFF7FEFF 		bl	lv_obj_draw_dsc_init
 2214              	.LVL208:
 573:Drivers/lvgl/src/extra/widgets/meter/lv_meter.c ****     part_draw_dsc.p1 = &scale_center;
 2215              		.loc 1 573 5 view .LVU801
 573:Drivers/lvgl/src/extra/widgets/meter/lv_meter.c ****     part_draw_dsc.p1 = &scale_center;
 2216              		.loc 1 573 27 is_stmt 0 view .LVU802
 2217 069a 0A4B     		ldr	r3, .L76+4
 2218 069c 4793     		str	r3, [sp, #284]
 574:Drivers/lvgl/src/extra/widgets/meter/lv_meter.c ****     part_draw_dsc.part = LV_PART_INDICATOR;
 2219              		.loc 1 574 5 is_stmt 1 view .LVU803
 578:Drivers/lvgl/src/extra/widgets/meter/lv_meter.c ****         lv_meter_scale_t * scale = indic->scale;
 2220              		.loc 1 578 5 is_stmt 0 view .LVU804
 2221 069e 5046     		mov	r0, r10
 575:Drivers/lvgl/src/extra/widgets/meter/lv_meter.c **** 
 2222              		.loc 1 575 24 view .LVU805
 2223 06a0 4FF40033 		mov	r3, #131072
 574:Drivers/lvgl/src/extra/widgets/meter/lv_meter.c ****     part_draw_dsc.part = LV_PART_INDICATOR;
 2224              		.loc 1 574 22 view .LVU806
ARM GAS  /var/folders/0z/tsy30v1j4xl4_7kw94k978ww0000gn/T//ccjxQgZI.s 			page 83


 2225 06a4 CDED4F9A 		vstr.32	s19, [sp, #316]	@ int
 575:Drivers/lvgl/src/extra/widgets/meter/lv_meter.c **** 
 2226              		.loc 1 575 5 is_stmt 1 view .LVU807
 575:Drivers/lvgl/src/extra/widgets/meter/lv_meter.c **** 
 2227              		.loc 1 575 24 is_stmt 0 view .LVU808
 2228 06a8 5393     		str	r3, [sp, #332]
 577:Drivers/lvgl/src/extra/widgets/meter/lv_meter.c ****     _LV_LL_READ_BACK(&meter->indicator_ll, indic) {
 2229              		.loc 1 577 5 is_stmt 1 view .LVU809
 578:Drivers/lvgl/src/extra/widgets/meter/lv_meter.c ****         lv_meter_scale_t * scale = indic->scale;
 2230              		.loc 1 578 5 view .LVU810
 2231 06aa FFF7FEFF 		bl	_lv_ll_get_tail
 2232              	.LVL209:
 578:Drivers/lvgl/src/extra/widgets/meter/lv_meter.c ****         lv_meter_scale_t * scale = indic->scale;
 2233              		.loc 1 578 5 view .LVU811
 572:Drivers/lvgl/src/extra/widgets/meter/lv_meter.c ****     part_draw_dsc.class_p = MY_CLASS;
 2234              		.loc 1 572 5 is_stmt 0 view .LVU812
 2235 06ae 18EE909A 		vmov	r9, s17	@ int
 578:Drivers/lvgl/src/extra/widgets/meter/lv_meter.c ****         lv_meter_scale_t * scale = indic->scale;
 2236              		.loc 1 578 5 view .LVU813
 2237 06b2 0446     		mov	r4, r0
 2238 06b4 0028     		cmp	r0, #0
 2239 06b6 00F0D680 		beq	.L28
 2240              	.LVL210:
 2241              	.LBB183:
 2242              	.LBB184:
 586:Drivers/lvgl/src/extra/widgets/meter/lv_meter.c ****             p_end.x = (lv_trigo_cos(angle) * (r_out)) / LV_TRIGO_SIN_MAX + scale_center.x;
 2243              		.loc 1 586 55 view .LVU814
 2244 06ba DFF80C80 		ldr	r8, .L76+8
 2245 06be 6BE0     		b	.L27
 2246              	.L77:
 2247              		.align	2
 2248              	.L76:
 2249 06c0 00000000 		.word	.LC0
 2250 06c4 00000000 		.word	.LANCHOR0
 2251 06c8 03000180 		.word	-2147418109
 2252              	.LVL211:
 2253              	.L41:
 586:Drivers/lvgl/src/extra/widgets/meter/lv_meter.c ****             p_end.x = (lv_trigo_cos(angle) * (r_out)) / LV_TRIGO_SIN_MAX + scale_center.x;
 2254              		.loc 1 586 55 view .LVU815
 2255              	.LBE184:
 600:Drivers/lvgl/src/extra/widgets/meter/lv_meter.c ****             if(indic->type_data.needle_img.src == NULL) continue;
 2256              		.loc 1 600 14 is_stmt 1 view .LVU816
 600:Drivers/lvgl/src/extra/widgets/meter/lv_meter.c ****             if(indic->type_data.needle_img.src == NULL) continue;
 2257              		.loc 1 600 16 is_stmt 0 view .LVU817
 2258 06cc 002B     		cmp	r3, #0
 2259 06ce 5CD1     		bne	.L43
 2260              	.LBB191:
 601:Drivers/lvgl/src/extra/widgets/meter/lv_meter.c **** 
 2261              		.loc 1 601 13 is_stmt 1 view .LVU818
 601:Drivers/lvgl/src/extra/widgets/meter/lv_meter.c **** 
 2262              		.loc 1 601 15 is_stmt 0 view .LVU819
 2263 06d0 2369     		ldr	r3, [r4, #16]
 2264 06d2 002B     		cmp	r3, #0
 2265 06d4 59D0     		beq	.L43
 603:Drivers/lvgl/src/extra/widgets/meter/lv_meter.c ****             lv_img_header_t info;
 2266              		.loc 1 603 13 is_stmt 1 view .LVU820
 603:Drivers/lvgl/src/extra/widgets/meter/lv_meter.c ****             lv_img_header_t info;
ARM GAS  /var/folders/0z/tsy30v1j4xl4_7kw94k978ww0000gn/T//ccjxQgZI.s 			page 84


 2267              		.loc 1 603 29 is_stmt 0 view .LVU821
 2268 06d6 B5F92030 		ldrsh	r3, [r5, #32]
 603:Drivers/lvgl/src/extra/widgets/meter/lv_meter.c ****             lv_img_header_t info;
 2269              		.loc 1 603 118 view .LVU822
 2270 06da B5F81EC0 		ldrh	ip, [r5, #30]
 603:Drivers/lvgl/src/extra/widgets/meter/lv_meter.c ****             lv_img_header_t info;
 2271              		.loc 1 603 29 view .LVU823
 2272 06de E068     		ldr	r0, [r4, #12]
 2273              	.LVL212:
 603:Drivers/lvgl/src/extra/widgets/meter/lv_meter.c ****             lv_img_header_t info;
 2274              		.loc 1 603 111 view .LVU824
 2275 06e0 9C44     		add	ip, ip, r3
 603:Drivers/lvgl/src/extra/widgets/meter/lv_meter.c ****             lv_img_header_t info;
 2276              		.loc 1 603 29 view .LVU825
 2277 06e2 D5E90512 		ldrd	r1, r2, [r5, #20]
 2278 06e6 CDF800C0 		str	ip, [sp]
 2279 06ea FFF7FEFF 		bl	lv_map
 2280              	.LVL213:
 605:Drivers/lvgl/src/extra/widgets/meter/lv_meter.c ****             lv_area_t a;
 2281              		.loc 1 605 13 view .LVU826
 2282 06ee 2AA9     		add	r1, sp, #168
 603:Drivers/lvgl/src/extra/widgets/meter/lv_meter.c ****             lv_img_header_t info;
 2283              		.loc 1 603 29 view .LVU827
 2284 06f0 0546     		mov	r5, r0
 2285              	.LVL214:
 604:Drivers/lvgl/src/extra/widgets/meter/lv_meter.c ****             lv_img_decoder_get_info(indic->type_data.needle_img.src, &info);
 2286              		.loc 1 604 13 is_stmt 1 view .LVU828
 605:Drivers/lvgl/src/extra/widgets/meter/lv_meter.c ****             lv_area_t a;
 2287              		.loc 1 605 13 view .LVU829
 2288 06f2 2069     		ldr	r0, [r4, #16]
 2289              	.LVL215:
 605:Drivers/lvgl/src/extra/widgets/meter/lv_meter.c ****             lv_area_t a;
 2290              		.loc 1 605 13 is_stmt 0 view .LVU830
 2291 06f4 FFF7FEFF 		bl	lv_img_decoder_get_info
 2292              	.LVL216:
 606:Drivers/lvgl/src/extra/widgets/meter/lv_meter.c ****             a.x1 = scale_center.x - indic->type_data.needle_img.pivot.x;
 2293              		.loc 1 606 13 is_stmt 1 view .LVU831
 607:Drivers/lvgl/src/extra/widgets/meter/lv_meter.c ****             a.y1 = scale_center.y - indic->type_data.needle_img.pivot.y;
 2294              		.loc 1 607 13 view .LVU832
 608:Drivers/lvgl/src/extra/widgets/meter/lv_meter.c ****             a.x2 = a.x1 + info.w - 1;
 2295              		.loc 1 608 35 is_stmt 0 view .LVU833
 2296 06f8 E38A     		ldrh	r3, [r4, #22]
 2297 06fa BDF89210 		ldrh	r1, [sp, #146]
 607:Drivers/lvgl/src/extra/widgets/meter/lv_meter.c ****             a.y1 = scale_center.y - indic->type_data.needle_img.pivot.y;
 2298              		.loc 1 607 35 view .LVU834
 2299 06fe A28A     		ldrh	r2, [r4, #20]
 2300 0700 BDF89000 		ldrh	r0, [sp, #144]
 607:Drivers/lvgl/src/extra/widgets/meter/lv_meter.c ****             a.y1 = scale_center.y - indic->type_data.needle_img.pivot.y;
 2301              		.loc 1 607 70 view .LVU835
 2302 0704 D4F814C0 		ldr	ip, [r4, #20]
 608:Drivers/lvgl/src/extra/widgets/meter/lv_meter.c ****             a.x2 = a.x1 + info.w - 1;
 2303              		.loc 1 608 35 view .LVU836
 2304 0708 C91A     		subs	r1, r1, r3
 609:Drivers/lvgl/src/extra/widgets/meter/lv_meter.c ****             a.y2 = a.y1 + info.h - 1;
 2305              		.loc 1 609 31 view .LVU837
 2306 070a 2A9B     		ldr	r3, [sp, #168]
 607:Drivers/lvgl/src/extra/widgets/meter/lv_meter.c ****             a.y1 = scale_center.y - indic->type_data.needle_img.pivot.y;
ARM GAS  /var/folders/0z/tsy30v1j4xl4_7kw94k978ww0000gn/T//ccjxQgZI.s 			page 85


 2307              		.loc 1 607 35 view .LVU838
 2308 070c 801A     		subs	r0, r0, r2
 609:Drivers/lvgl/src/extra/widgets/meter/lv_meter.c ****             a.y2 = a.y1 + info.h - 1;
 2309              		.loc 1 609 31 view .LVU839
 2310 070e C3F38A22 		ubfx	r2, r3, #10, #11
 610:Drivers/lvgl/src/extra/widgets/meter/lv_meter.c **** 
 2311              		.loc 1 610 31 view .LVU840
 2312 0712 BDF8AA30 		ldrh	r3, [sp, #170]
 2313 0716 C3F34A13 		ubfx	r3, r3, #5, #11
 607:Drivers/lvgl/src/extra/widgets/meter/lv_meter.c ****             a.y1 = scale_center.y - indic->type_data.needle_img.pivot.y;
 2314              		.loc 1 607 35 view .LVU841
 2315 071a 80B2     		uxth	r0, r0
 608:Drivers/lvgl/src/extra/widgets/meter/lv_meter.c ****             a.x2 = a.x1 + info.w - 1;
 2316              		.loc 1 608 35 view .LVU842
 2317 071c 89B2     		uxth	r1, r1
 609:Drivers/lvgl/src/extra/widgets/meter/lv_meter.c ****             a.y2 = a.y1 + info.h - 1;
 2318              		.loc 1 609 34 view .LVU843
 2319 071e 013A     		subs	r2, r2, #1
 610:Drivers/lvgl/src/extra/widgets/meter/lv_meter.c **** 
 2320              		.loc 1 610 34 view .LVU844
 2321 0720 013B     		subs	r3, r3, #1
 609:Drivers/lvgl/src/extra/widgets/meter/lv_meter.c ****             a.y2 = a.y1 + info.h - 1;
 2322              		.loc 1 609 34 view .LVU845
 2323 0722 0244     		add	r2, r2, r0
 610:Drivers/lvgl/src/extra/widgets/meter/lv_meter.c **** 
 2324              		.loc 1 610 34 view .LVU846
 2325 0724 0B44     		add	r3, r3, r1
 607:Drivers/lvgl/src/extra/widgets/meter/lv_meter.c ****             a.y1 = scale_center.y - indic->type_data.needle_img.pivot.y;
 2326              		.loc 1 607 18 view .LVU847
 2327 0726 ADF8C000 		strh	r0, [sp, #192]	@ movhi
 608:Drivers/lvgl/src/extra/widgets/meter/lv_meter.c ****             a.x2 = a.x1 + info.w - 1;
 2328              		.loc 1 608 13 is_stmt 1 view .LVU848
 608:Drivers/lvgl/src/extra/widgets/meter/lv_meter.c ****             a.x2 = a.x1 + info.w - 1;
 2329              		.loc 1 608 18 is_stmt 0 view .LVU849
 2330 072a ADF8C210 		strh	r1, [sp, #194]	@ movhi
 609:Drivers/lvgl/src/extra/widgets/meter/lv_meter.c ****             a.y2 = a.y1 + info.h - 1;
 2331              		.loc 1 609 13 is_stmt 1 view .LVU850
 609:Drivers/lvgl/src/extra/widgets/meter/lv_meter.c ****             a.y2 = a.y1 + info.h - 1;
 2332              		.loc 1 609 18 is_stmt 0 view .LVU851
 2333 072e ADF8C420 		strh	r2, [sp, #196]	@ movhi
 610:Drivers/lvgl/src/extra/widgets/meter/lv_meter.c **** 
 2334              		.loc 1 610 13 is_stmt 1 view .LVU852
 610:Drivers/lvgl/src/extra/widgets/meter/lv_meter.c **** 
 2335              		.loc 1 610 18 is_stmt 0 view .LVU853
 2336 0732 ADF8C630 		strh	r3, [sp, #198]	@ movhi
 612:Drivers/lvgl/src/extra/widgets/meter/lv_meter.c ****             img_dsc.pivot.x = indic->type_data.needle_img.pivot.x;
 2337              		.loc 1 612 13 is_stmt 1 view .LVU854
 612:Drivers/lvgl/src/extra/widgets/meter/lv_meter.c ****             img_dsc.pivot.x = indic->type_data.needle_img.pivot.x;
 2338              		.loc 1 612 32 is_stmt 0 view .LVU855
 2339 0736 6379     		ldrb	r3, [r4, #5]	@ zero_extendqisi2
 613:Drivers/lvgl/src/extra/widgets/meter/lv_meter.c ****             img_dsc.pivot.y = indic->type_data.needle_img.pivot.y;
 2340              		.loc 1 613 29 view .LVU856
 2341 0738 CDF8FCC0 		str	ip, [sp, #252]
 612:Drivers/lvgl/src/extra/widgets/meter/lv_meter.c ****             img_dsc.pivot.x = indic->type_data.needle_img.pivot.x;
 2342              		.loc 1 612 25 view .LVU857
 2343 073c FD2B     		cmp	r3, #253
 612:Drivers/lvgl/src/extra/widgets/meter/lv_meter.c ****             img_dsc.pivot.x = indic->type_data.needle_img.pivot.x;
ARM GAS  /var/folders/0z/tsy30v1j4xl4_7kw94k978ww0000gn/T//ccjxQgZI.s 			page 86


 2344              		.loc 1 612 74 view .LVU858
 2345 073e 9ABF     		itte	ls
 2346 0740 16FB03F3 		smulbbls	r3, r6, r3
 612:Drivers/lvgl/src/extra/widgets/meter/lv_meter.c ****             img_dsc.pivot.x = indic->type_data.needle_img.pivot.x;
 2347              		.loc 1 612 25 view .LVU859
 2348 0744 C3F30723 		ubfxls	r3, r3, #8, #8
 2349 0748 3346     		movhi	r3, r6
 615:Drivers/lvgl/src/extra/widgets/meter/lv_meter.c ****             if(angle > 3600) angle -= 3600;
 2350              		.loc 1 615 19 view .LVU860
 2351 074a 05EB8505 		add	r5, r5, r5, lsl #2
 2352              	.LVL217:
 612:Drivers/lvgl/src/extra/widgets/meter/lv_meter.c ****             img_dsc.pivot.x = indic->type_data.needle_img.pivot.x;
 2353              		.loc 1 612 25 view .LVU861
 2354 074e 8DF80331 		strb	r3, [sp, #259]
 613:Drivers/lvgl/src/extra/widgets/meter/lv_meter.c ****             img_dsc.pivot.y = indic->type_data.needle_img.pivot.y;
 2355              		.loc 1 613 13 is_stmt 1 view .LVU862
 614:Drivers/lvgl/src/extra/widgets/meter/lv_meter.c ****             angle = angle * 10;
 2356              		.loc 1 614 13 view .LVU863
 615:Drivers/lvgl/src/extra/widgets/meter/lv_meter.c ****             if(angle > 3600) angle -= 3600;
 2357              		.loc 1 615 13 view .LVU864
 615:Drivers/lvgl/src/extra/widgets/meter/lv_meter.c ****             if(angle > 3600) angle -= 3600;
 2358              		.loc 1 615 19 is_stmt 0 view .LVU865
 2359 0752 6B00     		lsls	r3, r5, #1
 2360              	.LVL218:
 616:Drivers/lvgl/src/extra/widgets/meter/lv_meter.c ****             img_dsc.angle = angle;
 2361              		.loc 1 616 13 is_stmt 1 view .LVU866
 616:Drivers/lvgl/src/extra/widgets/meter/lv_meter.c ****             img_dsc.angle = angle;
 2362              		.loc 1 616 15 is_stmt 0 view .LVU867
 2363 0754 B3F5616F 		cmp	r3, #3600
 616:Drivers/lvgl/src/extra/widgets/meter/lv_meter.c ****             img_dsc.angle = angle;
 2364              		.loc 1 616 30 is_stmt 1 view .LVU868
 616:Drivers/lvgl/src/extra/widgets/meter/lv_meter.c ****             img_dsc.angle = angle;
 2365              		.loc 1 616 36 is_stmt 0 view .LVU869
 2366 0758 C8BF     		it	gt
 2367 075a A3F56163 		subgt	r3, r3, #3600
 2368              	.LVL219:
 617:Drivers/lvgl/src/extra/widgets/meter/lv_meter.c **** 
 2369              		.loc 1 617 13 is_stmt 1 view .LVU870
 617:Drivers/lvgl/src/extra/widgets/meter/lv_meter.c **** 
 2370              		.loc 1 617 27 is_stmt 0 view .LVU871
 2371 075e ADF8F830 		strh	r3, [sp, #248]	@ movhi
 619:Drivers/lvgl/src/extra/widgets/meter/lv_meter.c ****             part_draw_dsc.img_dsc = &img_dsc;
 2372              		.loc 1 619 13 is_stmt 1 view .LVU872
 619:Drivers/lvgl/src/extra/widgets/meter/lv_meter.c ****             part_draw_dsc.img_dsc = &img_dsc;
 2373              		.loc 1 619 32 is_stmt 0 view .LVU873
 2374 0762 0223     		movs	r3, #2
 2375              	.LVL220:
 619:Drivers/lvgl/src/extra/widgets/meter/lv_meter.c ****             part_draw_dsc.img_dsc = &img_dsc;
 2376              		.loc 1 619 32 view .LVU874
 2377 0764 4893     		str	r3, [sp, #288]
 620:Drivers/lvgl/src/extra/widgets/meter/lv_meter.c **** 
 2378              		.loc 1 620 13 is_stmt 1 view .LVU875
 622:Drivers/lvgl/src/extra/widgets/meter/lv_meter.c ****             lv_draw_img(draw_ctx, &img_dsc, &a, indic->type_data.needle_img.src);
 2379              		.loc 1 622 13 is_stmt 0 view .LVU876
 2380 0766 46AA     		add	r2, sp, #280
 620:Drivers/lvgl/src/extra/widgets/meter/lv_meter.c **** 
 2381              		.loc 1 620 35 view .LVU877
ARM GAS  /var/folders/0z/tsy30v1j4xl4_7kw94k978ww0000gn/T//ccjxQgZI.s 			page 87


 2382 0768 3EAB     		add	r3, sp, #248
 622:Drivers/lvgl/src/extra/widgets/meter/lv_meter.c ****             lv_draw_img(draw_ctx, &img_dsc, &a, indic->type_data.needle_img.src);
 2383              		.loc 1 622 13 view .LVU878
 2384 076a 1A21     		movs	r1, #26
 2385 076c 5846     		mov	r0, fp
 620:Drivers/lvgl/src/extra/widgets/meter/lv_meter.c **** 
 2386              		.loc 1 620 35 view .LVU879
 2387 076e 4D93     		str	r3, [sp, #308]
 622:Drivers/lvgl/src/extra/widgets/meter/lv_meter.c ****             lv_draw_img(draw_ctx, &img_dsc, &a, indic->type_data.needle_img.src);
 2388              		.loc 1 622 13 is_stmt 1 view .LVU880
 2389 0770 FFF7FEFF 		bl	lv_event_send
 2390              	.LVL221:
 623:Drivers/lvgl/src/extra/widgets/meter/lv_meter.c ****             lv_event_send(obj, LV_EVENT_DRAW_PART_END, &part_draw_dsc);
 2391              		.loc 1 623 13 view .LVU881
 2392 0774 3EA9     		add	r1, sp, #248
 2393 0776 4846     		mov	r0, r9
 2394 0778 30AA     		add	r2, sp, #192
 2395 077a 2369     		ldr	r3, [r4, #16]
 2396 077c FFF7FEFF 		bl	lv_draw_img
 2397              	.LVL222:
 624:Drivers/lvgl/src/extra/widgets/meter/lv_meter.c ****         }
 2398              		.loc 1 624 13 view .LVU882
 2399 0780 46AA     		add	r2, sp, #280
 2400 0782 1B21     		movs	r1, #27
 2401 0784 5846     		mov	r0, fp
 2402 0786 FFF7FEFF 		bl	lv_event_send
 2403              	.LVL223:
 2404              	.L43:
 624:Drivers/lvgl/src/extra/widgets/meter/lv_meter.c ****         }
 2405              		.loc 1 624 13 is_stmt 0 view .LVU883
 2406              	.LBE191:
 2407              	.LBE183:
 578:Drivers/lvgl/src/extra/widgets/meter/lv_meter.c ****         lv_meter_scale_t * scale = indic->scale;
 2408              		.loc 1 578 5 is_stmt 1 view .LVU884
 2409 078a 2146     		mov	r1, r4
 2410 078c 5046     		mov	r0, r10
 2411 078e FFF7FEFF 		bl	_lv_ll_get_prev
 2412              	.LVL224:
 578:Drivers/lvgl/src/extra/widgets/meter/lv_meter.c ****         lv_meter_scale_t * scale = indic->scale;
 2413              		.loc 1 578 5 view .LVU885
 2414 0792 0446     		mov	r4, r0
 2415 0794 0028     		cmp	r0, #0
 2416 0796 66D0     		beq	.L28
 2417              	.L27:
 2418              	.LBB193:
 579:Drivers/lvgl/src/extra/widgets/meter/lv_meter.c ****         part_draw_dsc.sub_part_ptr = indic;
 2419              		.loc 1 579 9 view .LVU886
 579:Drivers/lvgl/src/extra/widgets/meter/lv_meter.c ****         part_draw_dsc.sub_part_ptr = indic;
 2420              		.loc 1 579 28 is_stmt 0 view .LVU887
 2421 0798 2568     		ldr	r5, [r4]
 2422              	.LVL225:
 580:Drivers/lvgl/src/extra/widgets/meter/lv_meter.c **** 
 2423              		.loc 1 580 9 is_stmt 1 view .LVU888
 580:Drivers/lvgl/src/extra/widgets/meter/lv_meter.c **** 
 2424              		.loc 1 580 36 is_stmt 0 view .LVU889
 2425 079a 5794     		str	r4, [sp, #348]
 582:Drivers/lvgl/src/extra/widgets/meter/lv_meter.c ****             int32_t angle = lv_map(indic->end_value, scale->min, scale->max, scale->rotation, scale
ARM GAS  /var/folders/0z/tsy30v1j4xl4_7kw94k978ww0000gn/T//ccjxQgZI.s 			page 88


 2426              		.loc 1 582 9 is_stmt 1 view .LVU890
 582:Drivers/lvgl/src/extra/widgets/meter/lv_meter.c ****             int32_t angle = lv_map(indic->end_value, scale->min, scale->max, scale->rotation, scale
 2427              		.loc 1 582 17 is_stmt 0 view .LVU891
 2428 079c 2379     		ldrb	r3, [r4, #4]	@ zero_extendqisi2
 582:Drivers/lvgl/src/extra/widgets/meter/lv_meter.c ****             int32_t angle = lv_map(indic->end_value, scale->min, scale->max, scale->rotation, scale
 2429              		.loc 1 582 11 view .LVU892
 2430 079e 012B     		cmp	r3, #1
 2431 07a0 94D1     		bne	.L41
 2432              	.LBB192:
 583:Drivers/lvgl/src/extra/widgets/meter/lv_meter.c ****             lv_coord_t r_out = r_edge + scale->r_mod + indic->type_data.needle_line.r_mod;
 2433              		.loc 1 583 13 is_stmt 1 view .LVU893
 583:Drivers/lvgl/src/extra/widgets/meter/lv_meter.c ****             lv_coord_t r_out = r_edge + scale->r_mod + indic->type_data.needle_line.r_mod;
 2434              		.loc 1 583 29 is_stmt 0 view .LVU894
 2435 07a2 B5F92030 		ldrsh	r3, [r5, #32]
 583:Drivers/lvgl/src/extra/widgets/meter/lv_meter.c ****             lv_coord_t r_out = r_edge + scale->r_mod + indic->type_data.needle_line.r_mod;
 2436              		.loc 1 583 118 view .LVU895
 2437 07a6 B5F81EC0 		ldrh	ip, [r5, #30]
 583:Drivers/lvgl/src/extra/widgets/meter/lv_meter.c ****             lv_coord_t r_out = r_edge + scale->r_mod + indic->type_data.needle_line.r_mod;
 2438              		.loc 1 583 29 view .LVU896
 2439 07aa E068     		ldr	r0, [r4, #12]
 2440              	.LVL226:
 583:Drivers/lvgl/src/extra/widgets/meter/lv_meter.c ****             lv_coord_t r_out = r_edge + scale->r_mod + indic->type_data.needle_line.r_mod;
 2441              		.loc 1 583 111 view .LVU897
 2442 07ac 9C44     		add	ip, ip, r3
 583:Drivers/lvgl/src/extra/widgets/meter/lv_meter.c ****             lv_coord_t r_out = r_edge + scale->r_mod + indic->type_data.needle_line.r_mod;
 2443              		.loc 1 583 29 view .LVU898
 2444 07ae D5E90512 		ldrd	r1, r2, [r5, #20]
 2445 07b2 CDF800C0 		str	ip, [sp]
 2446 07b6 FFF7FEFF 		bl	lv_map
 2447              	.LVL227:
 584:Drivers/lvgl/src/extra/widgets/meter/lv_meter.c ****             lv_point_t p_end;
 2448              		.loc 1 584 54 view .LVU899
 2449 07ba AB8B     		ldrh	r3, [r5, #28]
 2450 07bc 658A     		ldrh	r5, [r4, #18]
 2451              	.LVL228:
 583:Drivers/lvgl/src/extra/widgets/meter/lv_meter.c ****             lv_coord_t r_out = r_edge + scale->r_mod + indic->type_data.needle_line.r_mod;
 2452              		.loc 1 583 29 view .LVU900
 2453 07be 0246     		mov	r2, r0
 2454              	.LVL229:
 584:Drivers/lvgl/src/extra/widgets/meter/lv_meter.c ****             lv_point_t p_end;
 2455              		.loc 1 584 13 is_stmt 1 view .LVU901
 584:Drivers/lvgl/src/extra/widgets/meter/lv_meter.c ****             lv_point_t p_end;
 2456              		.loc 1 584 54 is_stmt 0 view .LVU902
 2457 07c0 3D44     		add	r5, r5, r7
 586:Drivers/lvgl/src/extra/widgets/meter/lv_meter.c ****             p_end.x = (lv_trigo_cos(angle) * (r_out)) / LV_TRIGO_SIN_MAX + scale_center.x;
 2458              		.loc 1 586 24 view .LVU903
 2459 07c2 00B2     		sxth	r0, r0
 2460              	.LVL230:
 584:Drivers/lvgl/src/extra/widgets/meter/lv_meter.c ****             lv_point_t p_end;
 2461              		.loc 1 584 54 view .LVU904
 2462 07c4 1D44     		add	r5, r5, r3
 586:Drivers/lvgl/src/extra/widgets/meter/lv_meter.c ****             p_end.x = (lv_trigo_cos(angle) * (r_out)) / LV_TRIGO_SIN_MAX + scale_center.x;
 2463              		.loc 1 586 24 view .LVU905
 2464 07c6 0592     		str	r2, [sp, #20]
 2465 07c8 FFF7FEFF 		bl	lv_trigo_sin
 2466              	.LVL231:
 2467              	.LBB185:
ARM GAS  /var/folders/0z/tsy30v1j4xl4_7kw94k978ww0000gn/T//ccjxQgZI.s 			page 89


 2468              	.LBB186:
 2469              		.loc 4 51 31 view .LVU906
 2470 07cc 059A     		ldr	r2, [sp, #20]
 2471              	.LBE186:
 2472              	.LBE185:
 584:Drivers/lvgl/src/extra/widgets/meter/lv_meter.c ****             lv_point_t p_end;
 2473              		.loc 1 584 24 view .LVU907
 2474 07ce 2DB2     		sxth	r5, r5
 2475              	.LVL232:
 585:Drivers/lvgl/src/extra/widgets/meter/lv_meter.c ****             p_end.y = (lv_trigo_sin(angle) * (r_out)) / LV_TRIGO_SIN_MAX + scale_center.y;
 2476              		.loc 1 585 13 is_stmt 1 view .LVU908
 586:Drivers/lvgl/src/extra/widgets/meter/lv_meter.c ****             p_end.x = (lv_trigo_cos(angle) * (r_out)) / LV_TRIGO_SIN_MAX + scale_center.x;
 2477              		.loc 1 586 13 view .LVU909
 586:Drivers/lvgl/src/extra/widgets/meter/lv_meter.c ****             p_end.x = (lv_trigo_cos(angle) * (r_out)) / LV_TRIGO_SIN_MAX + scale_center.x;
 2478              		.loc 1 586 44 is_stmt 0 view .LVU910
 2479 07d0 00FB05F3 		mul	r3, r0, r5
 2480              	.LBB189:
 2481              	.LBB187:
 2482              		.loc 4 51 31 view .LVU911
 2483 07d4 5A32     		adds	r2, r2, #90
 2484              		.loc 4 51 12 view .LVU912
 2485 07d6 10B2     		sxth	r0, r2
 2486              	.LBE187:
 2487              	.LBE189:
 586:Drivers/lvgl/src/extra/widgets/meter/lv_meter.c ****             p_end.x = (lv_trigo_cos(angle) * (r_out)) / LV_TRIGO_SIN_MAX + scale_center.x;
 2488              		.loc 1 586 55 view .LVU913
 2489 07d8 88FB0312 		smull	r1, r2, r8, r3
 2490 07dc 1A44     		add	r2, r2, r3
 2491 07de DB17     		asrs	r3, r3, #31
 2492 07e0 C3EBA233 		rsb	r3, r3, r2, asr #14
 586:Drivers/lvgl/src/extra/widgets/meter/lv_meter.c ****             p_end.x = (lv_trigo_cos(angle) * (r_out)) / LV_TRIGO_SIN_MAX + scale_center.x;
 2493              		.loc 1 586 74 view .LVU914
 2494 07e4 BDF89220 		ldrh	r2, [sp, #146]
 2495 07e8 1344     		add	r3, r3, r2
 586:Drivers/lvgl/src/extra/widgets/meter/lv_meter.c ****             p_end.x = (lv_trigo_cos(angle) * (r_out)) / LV_TRIGO_SIN_MAX + scale_center.x;
 2496              		.loc 1 586 21 view .LVU915
 2497 07ea ADF8C230 		strh	r3, [sp, #194]	@ movhi
 587:Drivers/lvgl/src/extra/widgets/meter/lv_meter.c ****             line_dsc.color = indic->type_data.needle_line.color;
 2498              		.loc 1 587 13 is_stmt 1 view .LVU916
 2499              	.LVL233:
 2500              	.LBB190:
 2501              	.LBI185:
  49:Drivers/lvgl/src/extra/widgets/meter/../../../../src/misc/lv_math.h **** {
 2502              		.loc 4 49 45 view .LVU917
 2503              	.LBB188:
 2504              		.loc 4 51 5 view .LVU918
 2505              		.loc 4 51 12 is_stmt 0 view .LVU919
 2506 07ee FFF7FEFF 		bl	lv_trigo_sin
 2507              	.LVL234:
 2508              		.loc 4 51 12 view .LVU920
 2509              	.LBE188:
 2510              	.LBE190:
 587:Drivers/lvgl/src/extra/widgets/meter/lv_meter.c ****             line_dsc.color = indic->type_data.needle_line.color;
 2511              		.loc 1 587 44 view .LVU921
 2512 07f2 05FB00F0 		mul	r0, r5, r0
 587:Drivers/lvgl/src/extra/widgets/meter/lv_meter.c ****             line_dsc.color = indic->type_data.needle_line.color;
 2513              		.loc 1 587 55 view .LVU922
ARM GAS  /var/folders/0z/tsy30v1j4xl4_7kw94k978ww0000gn/T//ccjxQgZI.s 			page 90


 2514 07f6 88FB0032 		smull	r3, r2, r8, r0
 2515 07fa 0244     		add	r2, r2, r0
 2516 07fc C317     		asrs	r3, r0, #31
 2517 07fe C3EBA233 		rsb	r3, r3, r2, asr #14
 587:Drivers/lvgl/src/extra/widgets/meter/lv_meter.c ****             line_dsc.color = indic->type_data.needle_line.color;
 2518              		.loc 1 587 74 view .LVU923
 2519 0802 BDF89020 		ldrh	r2, [sp, #144]
 2520 0806 1344     		add	r3, r3, r2
 587:Drivers/lvgl/src/extra/widgets/meter/lv_meter.c ****             line_dsc.color = indic->type_data.needle_line.color;
 2521              		.loc 1 587 21 view .LVU924
 2522 0808 ADF8C030 		strh	r3, [sp, #192]	@ movhi
 588:Drivers/lvgl/src/extra/widgets/meter/lv_meter.c ****             line_dsc.width = indic->type_data.needle_line.width;
 2523              		.loc 1 588 13 is_stmt 1 view .LVU925
 588:Drivers/lvgl/src/extra/widgets/meter/lv_meter.c ****             line_dsc.width = indic->type_data.needle_line.width;
 2524              		.loc 1 588 28 is_stmt 0 view .LVU926
 2525 080c A38A     		ldrh	r3, [r4, #20]
 2526 080e ADF8D830 		strh	r3, [sp, #216]	@ movhi
 589:Drivers/lvgl/src/extra/widgets/meter/lv_meter.c ****             line_dsc.opa = indic->opa > LV_OPA_MAX ? opa_main : (opa_main * indic->opa) >> 8;
 2527              		.loc 1 589 13 is_stmt 1 view .LVU927
 589:Drivers/lvgl/src/extra/widgets/meter/lv_meter.c ****             line_dsc.opa = indic->opa > LV_OPA_MAX ? opa_main : (opa_main * indic->opa) >> 8;
 2528              		.loc 1 589 28 is_stmt 0 view .LVU928
 2529 0812 238A     		ldrh	r3, [r4, #16]
 2530 0814 ADF8DA30 		strh	r3, [sp, #218]	@ movhi
 590:Drivers/lvgl/src/extra/widgets/meter/lv_meter.c **** 
 2531              		.loc 1 590 13 is_stmt 1 view .LVU929
 590:Drivers/lvgl/src/extra/widgets/meter/lv_meter.c **** 
 2532              		.loc 1 590 33 is_stmt 0 view .LVU930
 2533 0818 6379     		ldrb	r3, [r4, #5]	@ zero_extendqisi2
 595:Drivers/lvgl/src/extra/widgets/meter/lv_meter.c ****             lv_event_send(obj, LV_EVENT_DRAW_PART_BEGIN, &part_draw_dsc);
 2534              		.loc 1 595 30 view .LVU931
 2535 081a CDED4F9A 		vstr.32	s19, [sp, #316]	@ int
 590:Drivers/lvgl/src/extra/widgets/meter/lv_meter.c **** 
 2536              		.loc 1 590 26 view .LVU932
 2537 081e FD2B     		cmp	r3, #253
 590:Drivers/lvgl/src/extra/widgets/meter/lv_meter.c **** 
 2538              		.loc 1 590 75 view .LVU933
 2539 0820 9ABF     		itte	ls
 2540 0822 16FB03F3 		smulbbls	r3, r6, r3
 590:Drivers/lvgl/src/extra/widgets/meter/lv_meter.c **** 
 2541              		.loc 1 590 26 view .LVU934
 2542 0826 C3F30723 		ubfxls	r3, r3, #8, #8
 2543 082a 3346     		movhi	r3, r6
 2544 082c 8DF8E030 		strb	r3, [sp, #224]
 592:Drivers/lvgl/src/extra/widgets/meter/lv_meter.c ****             part_draw_dsc.line_dsc = &line_dsc;
 2545              		.loc 1 592 13 is_stmt 1 view .LVU935
 593:Drivers/lvgl/src/extra/widgets/meter/lv_meter.c ****             part_draw_dsc.p2 = &p_end;
 2546              		.loc 1 593 36 is_stmt 0 view .LVU936
 2547 0830 0B9B     		ldr	r3, [sp, #44]
 2548 0832 4C93     		str	r3, [sp, #304]
 594:Drivers/lvgl/src/extra/widgets/meter/lv_meter.c ****             part_draw_dsc.p1 = &scale_center;
 2549              		.loc 1 594 30 view .LVU937
 2550 0834 30AD     		add	r5, sp, #192
 2551              	.LVL235:
 596:Drivers/lvgl/src/extra/widgets/meter/lv_meter.c ****             lv_draw_line(draw_ctx, &line_dsc, part_draw_dsc.p1, &p_end);
 2552              		.loc 1 596 13 view .LVU938
 2553 0836 46AA     		add	r2, sp, #280
 592:Drivers/lvgl/src/extra/widgets/meter/lv_meter.c ****             part_draw_dsc.line_dsc = &line_dsc;
ARM GAS  /var/folders/0z/tsy30v1j4xl4_7kw94k978ww0000gn/T//ccjxQgZI.s 			page 91


 2554              		.loc 1 592 32 view .LVU939
 2555 0838 0123     		movs	r3, #1
 596:Drivers/lvgl/src/extra/widgets/meter/lv_meter.c ****             lv_draw_line(draw_ctx, &line_dsc, part_draw_dsc.p1, &p_end);
 2556              		.loc 1 596 13 view .LVU940
 2557 083a 1A21     		movs	r1, #26
 2558 083c 5846     		mov	r0, fp
 592:Drivers/lvgl/src/extra/widgets/meter/lv_meter.c ****             part_draw_dsc.line_dsc = &line_dsc;
 2559              		.loc 1 592 32 view .LVU941
 2560 083e 4893     		str	r3, [sp, #288]
 593:Drivers/lvgl/src/extra/widgets/meter/lv_meter.c ****             part_draw_dsc.p2 = &p_end;
 2561              		.loc 1 593 13 is_stmt 1 view .LVU942
 594:Drivers/lvgl/src/extra/widgets/meter/lv_meter.c ****             part_draw_dsc.p1 = &scale_center;
 2562              		.loc 1 594 13 view .LVU943
 595:Drivers/lvgl/src/extra/widgets/meter/lv_meter.c ****             lv_event_send(obj, LV_EVENT_DRAW_PART_BEGIN, &part_draw_dsc);
 2563              		.loc 1 595 13 view .LVU944
 596:Drivers/lvgl/src/extra/widgets/meter/lv_meter.c ****             lv_draw_line(draw_ctx, &line_dsc, part_draw_dsc.p1, &p_end);
 2564              		.loc 1 596 13 view .LVU945
 594:Drivers/lvgl/src/extra/widgets/meter/lv_meter.c ****             part_draw_dsc.p1 = &scale_center;
 2565              		.loc 1 594 30 is_stmt 0 view .LVU946
 2566 0840 5095     		str	r5, [sp, #320]
 596:Drivers/lvgl/src/extra/widgets/meter/lv_meter.c ****             lv_draw_line(draw_ctx, &line_dsc, part_draw_dsc.p1, &p_end);
 2567              		.loc 1 596 13 view .LVU947
 2568 0842 FFF7FEFF 		bl	lv_event_send
 2569              	.LVL236:
 597:Drivers/lvgl/src/extra/widgets/meter/lv_meter.c ****             lv_event_send(obj, LV_EVENT_DRAW_PART_END, &part_draw_dsc);
 2570              		.loc 1 597 13 is_stmt 1 view .LVU948
 2571 0846 0B99     		ldr	r1, [sp, #44]
 2572 0848 4F9A     		ldr	r2, [sp, #316]
 2573 084a 4846     		mov	r0, r9
 2574 084c 2B46     		mov	r3, r5
 2575 084e FFF7FEFF 		bl	lv_draw_line
 2576              	.LVL237:
 598:Drivers/lvgl/src/extra/widgets/meter/lv_meter.c ****         }
 2577              		.loc 1 598 13 view .LVU949
 2578 0852 46AA     		add	r2, sp, #280
 2579 0854 1B21     		movs	r1, #27
 2580 0856 5846     		mov	r0, fp
 2581 0858 FFF7FEFF 		bl	lv_event_send
 2582              	.LVL238:
 2583              	.LBE192:
 2584 085c 95E7     		b	.L43
 2585              	.LVL239:
 2586              	.L49:
 598:Drivers/lvgl/src/extra/widgets/meter/lv_meter.c ****         }
 2587              		.loc 1 598 13 is_stmt 0 view .LVU950
 2588              	.LBE193:
 2589              	.LBE194:
 2590              	.LBE175:
 2591              	.LBB195:
 2592              	.LBB174:
 2593              	.LBB173:
 437:Drivers/lvgl/src/extra/widgets/meter/lv_meter.c ****         uint16_t i;
 2594              		.loc 1 437 80 view .LVU951
 2595 085e 4FF6FF72 		movw	r2, #65535
 2596 0862 0692     		str	r2, [sp, #24]
 2597 0864 4FE5     		b	.L29
 2598              	.LVL240:
ARM GAS  /var/folders/0z/tsy30v1j4xl4_7kw94k978ww0000gn/T//ccjxQgZI.s 			page 92


 2599              	.L28:
 437:Drivers/lvgl/src/extra/widgets/meter/lv_meter.c ****         uint16_t i;
 2600              		.loc 1 437 80 view .LVU952
 2601              	.LBE173:
 2602              	.LBE174:
 2603              	.LBE195:
 307:Drivers/lvgl/src/extra/widgets/meter/lv_meter.c ****         lv_point_t scale_center;
 2604              		.loc 1 307 9 is_stmt 1 view .LVU953
 2605              	.LBB196:
 2606              	.LBI196:
 123:Drivers/lvgl/src/extra/widgets/meter/../../../../src/hal/../draw/../misc/../font/../misc/lv_area.h **** {
 2607              		.loc 3 123 26 view .LVU954
 2608              	.LBB197:
 125:Drivers/lvgl/src/extra/widgets/meter/../../../../src/hal/../draw/../misc/../font/../misc/lv_area.h **** }
 2609              		.loc 3 125 5 view .LVU955
 125:Drivers/lvgl/src/extra/widgets/meter/../../../../src/hal/../draw/../misc/../font/../misc/lv_area.h **** }
 2610              		.loc 3 125 49 is_stmt 0 view .LVU956
 2611 0866 BDF85030 		ldrh	r3, [sp, #80]
 125:Drivers/lvgl/src/extra/widgets/meter/../../../../src/hal/../draw/../misc/../font/../misc/lv_area.h **** }
 2612              		.loc 3 125 44 view .LVU957
 2613 086a BDF84C20 		ldrh	r2, [sp, #76]
 2614              	.LVL241:
 125:Drivers/lvgl/src/extra/widgets/meter/../../../../src/hal/../draw/../misc/../font/../misc/lv_area.h **** }
 2615              		.loc 3 125 44 view .LVU958
 2616              	.LBE197:
 2617              	.LBE196:
 308:Drivers/lvgl/src/extra/widgets/meter/lv_meter.c ****         scale_center.x = scale_area.x1 + r_edge;
 2618              		.loc 1 308 9 is_stmt 1 view .LVU959
 309:Drivers/lvgl/src/extra/widgets/meter/lv_meter.c ****         scale_center.y = scale_area.y1 + r_edge;
 2619              		.loc 1 309 9 view .LVU960
 310:Drivers/lvgl/src/extra/widgets/meter/lv_meter.c **** 
 2620              		.loc 1 310 40 is_stmt 0 view .LVU961
 2621 086e BDF84E10 		ldrh	r1, [sp, #78]
 2622              	.LBB199:
 2623              	.LBB198:
 125:Drivers/lvgl/src/extra/widgets/meter/../../../../src/hal/../draw/../misc/../font/../misc/lv_area.h **** }
 2624              		.loc 3 125 49 view .LVU962
 2625 0872 0133     		adds	r3, r3, #1
 2626 0874 9B1A     		subs	r3, r3, r2
 2627              	.LBE198:
 2628              	.LBE199:
 307:Drivers/lvgl/src/extra/widgets/meter/lv_meter.c ****         lv_point_t scale_center;
 2629              		.loc 1 307 20 view .LVU963
 2630 0876 C3F3C030 		ubfx	r0, r3, #15, #1
 2631 087a 00FA83F3 		sxtah	r3, r0, r3
 309:Drivers/lvgl/src/extra/widgets/meter/lv_meter.c ****         scale_center.y = scale_area.y1 + r_edge;
 2632              		.loc 1 309 40 view .LVU964
 2633 087e C3F34F03 		ubfx	r3, r3, #1, #16
 2634 0882 1A44     		add	r2, r2, r3
 2635              	.LVL242:
 313:Drivers/lvgl/src/extra/widgets/meter/lv_meter.c ****         lv_obj_init_draw_rect_dsc(obj, LV_PART_INDICATOR, &mid_dsc);
 2636              		.loc 1 313 9 view .LVU965
 2637 0884 46A8     		add	r0, sp, #280
 310:Drivers/lvgl/src/extra/widgets/meter/lv_meter.c **** 
 2638              		.loc 1 310 40 view .LVU966
 2639 0886 0B44     		add	r3, r3, r1
 2640 0888 9CB2     		uxth	r4, r3
ARM GAS  /var/folders/0z/tsy30v1j4xl4_7kw94k978ww0000gn/T//ccjxQgZI.s 			page 93


 309:Drivers/lvgl/src/extra/widgets/meter/lv_meter.c ****         scale_center.y = scale_area.y1 + r_edge;
 2641              		.loc 1 309 40 view .LVU967
 2642 088a 95B2     		uxth	r5, r2
 2643              	.LVL243:
 310:Drivers/lvgl/src/extra/widgets/meter/lv_meter.c **** 
 2644              		.loc 1 310 9 is_stmt 1 view .LVU968
 312:Drivers/lvgl/src/extra/widgets/meter/lv_meter.c ****         lv_draw_rect_dsc_init(&mid_dsc);
 2645              		.loc 1 312 9 view .LVU969
 313:Drivers/lvgl/src/extra/widgets/meter/lv_meter.c ****         lv_obj_init_draw_rect_dsc(obj, LV_PART_INDICATOR, &mid_dsc);
 2646              		.loc 1 313 9 view .LVU970
 2647 088c FFF7FEFF 		bl	lv_draw_rect_dsc_init
 2648              	.LVL244:
 314:Drivers/lvgl/src/extra/widgets/meter/lv_meter.c ****         lv_coord_t w = lv_obj_get_style_width(obj, LV_PART_INDICATOR) / 2;
 2649              		.loc 1 314 9 view .LVU971
 2650 0890 46AA     		add	r2, sp, #280
 2651 0892 5846     		mov	r0, fp
 2652 0894 4FF40031 		mov	r1, #131072
 2653 0898 FFF7FEFF 		bl	lv_obj_init_draw_rect_dsc
 2654              	.LVL245:
 315:Drivers/lvgl/src/extra/widgets/meter/lv_meter.c ****         lv_coord_t h = lv_obj_get_style_height(obj, LV_PART_INDICATOR) / 2;
 2655              		.loc 1 315 9 view .LVU972
 2656              	.LBB200:
 2657              	.LBI200:
   1:Drivers/lvgl/src/extra/widgets/meter/../../../../src/core/lv_obj_style_gen.h **** {
 2658              		.loc 2 1 26 view .LVU973
 2659              	.LBB201:
   3:Drivers/lvgl/src/extra/widgets/meter/../../../../src/core/lv_obj_style_gen.h ****     return (lv_coord_t)v.num;
 2660              		.loc 2 3 5 view .LVU974
   3:Drivers/lvgl/src/extra/widgets/meter/../../../../src/core/lv_obj_style_gen.h ****     return (lv_coord_t)v.num;
 2661              		.loc 2 3 26 is_stmt 0 view .LVU975
 2662 089c 0122     		movs	r2, #1
 2663 089e 4FF40031 		mov	r1, #131072
 2664 08a2 5846     		mov	r0, fp
 2665 08a4 FFF7FEFF 		bl	lv_obj_get_style_prop
 2666              	.LVL246:
   4:Drivers/lvgl/src/extra/widgets/meter/../../../../src/core/lv_obj_style_gen.h **** }
 2667              		.loc 2 4 5 is_stmt 1 view .LVU976
 2668              	.LBE201:
 2669              	.LBE200:
 2670              	.LBB204:
 2671              	.LBB205:
  21:Drivers/lvgl/src/extra/widgets/meter/../../../../src/core/lv_obj_style_gen.h ****     return (lv_coord_t)v.num;
 2672              		.loc 2 21 26 is_stmt 0 view .LVU977
 2673 08a8 0422     		movs	r2, #4
 2674              	.LBE205:
 2675              	.LBE204:
 2676              	.LBB208:
 2677              	.LBB202:
   3:Drivers/lvgl/src/extra/widgets/meter/../../../../src/core/lv_obj_style_gen.h ****     return (lv_coord_t)v.num;
 2678              		.loc 2 3 26 view .LVU978
 2679 08aa 0646     		mov	r6, r0
 2680              	.LBE202:
 2681              	.LBE208:
 2682              	.LBB209:
 2683              	.LBB206:
  21:Drivers/lvgl/src/extra/widgets/meter/../../../../src/core/lv_obj_style_gen.h ****     return (lv_coord_t)v.num;
 2684              		.loc 2 21 26 view .LVU979
ARM GAS  /var/folders/0z/tsy30v1j4xl4_7kw94k978ww0000gn/T//ccjxQgZI.s 			page 94


 2685 08ac 4FF40031 		mov	r1, #131072
 2686 08b0 5846     		mov	r0, fp
 2687 08b2 FFF7FEFF 		bl	lv_obj_get_style_prop
 2688              	.LVL247:
 2689              	.LBE206:
 2690              	.LBE209:
 2691              	.LBB210:
 2692              	.LBB203:
   4:Drivers/lvgl/src/extra/widgets/meter/../../../../src/core/lv_obj_style_gen.h **** }
 2693              		.loc 2 4 12 view .LVU980
 2694 08b6 36B2     		sxth	r6, r6
 2695              	.LVL248:
   4:Drivers/lvgl/src/extra/widgets/meter/../../../../src/core/lv_obj_style_gen.h **** }
 2696              		.loc 2 4 12 view .LVU981
 2697              	.LBE203:
 2698              	.LBE210:
 316:Drivers/lvgl/src/extra/widgets/meter/lv_meter.c ****         lv_area_t nm_cord;
 2699              		.loc 1 316 9 is_stmt 1 view .LVU982
 2700              	.LBB211:
 2701              	.LBI204:
  19:Drivers/lvgl/src/extra/widgets/meter/../../../../src/core/lv_obj_style_gen.h **** {
 2702              		.loc 2 19 26 view .LVU983
 2703              	.LBB207:
  21:Drivers/lvgl/src/extra/widgets/meter/../../../../src/core/lv_obj_style_gen.h ****     return (lv_coord_t)v.num;
 2704              		.loc 2 21 5 view .LVU984
  22:Drivers/lvgl/src/extra/widgets/meter/../../../../src/core/lv_obj_style_gen.h **** }
 2705              		.loc 2 22 5 view .LVU985
  21:Drivers/lvgl/src/extra/widgets/meter/../../../../src/core/lv_obj_style_gen.h ****     return (lv_coord_t)v.num;
 2706              		.loc 2 21 26 is_stmt 0 view .LVU986
 2707 08b8 0746     		mov	r7, r0
 2708              	.LVL249:
  21:Drivers/lvgl/src/extra/widgets/meter/../../../../src/core/lv_obj_style_gen.h ****     return (lv_coord_t)v.num;
 2709              		.loc 2 21 26 view .LVU987
 2710              	.LBE207:
 2711              	.LBE211:
 317:Drivers/lvgl/src/extra/widgets/meter/lv_meter.c ****         nm_cord.x1 = scale_center.x - w;
 2712              		.loc 1 317 9 is_stmt 1 view .LVU988
 318:Drivers/lvgl/src/extra/widgets/meter/lv_meter.c ****         nm_cord.y1 = scale_center.y - h;
 2713              		.loc 1 318 9 view .LVU989
 315:Drivers/lvgl/src/extra/widgets/meter/lv_meter.c ****         lv_coord_t h = lv_obj_get_style_height(obj, LV_PART_INDICATOR) / 2;
 2714              		.loc 1 315 20 is_stmt 0 view .LVU990
 2715 08ba 06EBD676 		add	r6, r6, r6, lsr #31
 2716              	.LVL250:
 318:Drivers/lvgl/src/extra/widgets/meter/lv_meter.c ****         nm_cord.y1 = scale_center.y - h;
 2717              		.loc 1 318 37 view .LVU991
 2718 08be C6F34F03 		ubfx	r3, r6, #1, #16
 316:Drivers/lvgl/src/extra/widgets/meter/lv_meter.c ****         lv_area_t nm_cord;
 2719              		.loc 1 316 20 view .LVU992
 2720 08c2 C7F3C036 		ubfx	r6, r7, #15, #1
 2721 08c6 06FA87F6 		sxtah	r6, r6, r7
 319:Drivers/lvgl/src/extra/widgets/meter/lv_meter.c ****         nm_cord.x2 = scale_center.x + w;
 2722              		.loc 1 319 37 view .LVU993
 2723 08ca C6F34F06 		ubfx	r6, r6, #1, #16
 318:Drivers/lvgl/src/extra/widgets/meter/lv_meter.c ****         nm_cord.y1 = scale_center.y - h;
 2724              		.loc 1 318 37 view .LVU994
 2725 08ce EF1A     		subs	r7, r5, r3
 2726              	.LVL251:
ARM GAS  /var/folders/0z/tsy30v1j4xl4_7kw94k978ww0000gn/T//ccjxQgZI.s 			page 95


 322:Drivers/lvgl/src/extra/widgets/meter/lv_meter.c ****     }
 2727              		.loc 1 322 9 view .LVU995
 2728 08d0 18EE900A 		vmov	r0, s17	@ int
 320:Drivers/lvgl/src/extra/widgets/meter/lv_meter.c ****         nm_cord.y2 = scale_center.y + h;
 2729              		.loc 1 320 37 view .LVU996
 2730 08d4 1D44     		add	r5, r5, r3
 2731              	.LVL252:
 322:Drivers/lvgl/src/extra/widgets/meter/lv_meter.c ****     }
 2732              		.loc 1 322 9 view .LVU997
 2733 08d6 3EAA     		add	r2, sp, #248
 319:Drivers/lvgl/src/extra/widgets/meter/lv_meter.c ****         nm_cord.x2 = scale_center.x + w;
 2734              		.loc 1 319 37 view .LVU998
 2735 08d8 A31B     		subs	r3, r4, r6
 322:Drivers/lvgl/src/extra/widgets/meter/lv_meter.c ****     }
 2736              		.loc 1 322 9 view .LVU999
 2737 08da 46A9     		add	r1, sp, #280
 321:Drivers/lvgl/src/extra/widgets/meter/lv_meter.c ****         lv_draw_rect(draw_ctx, &mid_dsc, &nm_cord);
 2738              		.loc 1 321 37 view .LVU1000
 2739 08dc 3444     		add	r4, r4, r6
 2740              	.LVL253:
 318:Drivers/lvgl/src/extra/widgets/meter/lv_meter.c ****         nm_cord.y1 = scale_center.y - h;
 2741              		.loc 1 318 20 view .LVU1001
 2742 08de ADF8F870 		strh	r7, [sp, #248]	@ movhi
 319:Drivers/lvgl/src/extra/widgets/meter/lv_meter.c ****         nm_cord.x2 = scale_center.x + w;
 2743              		.loc 1 319 9 is_stmt 1 view .LVU1002
 320:Drivers/lvgl/src/extra/widgets/meter/lv_meter.c ****         nm_cord.y2 = scale_center.y + h;
 2744              		.loc 1 320 20 is_stmt 0 view .LVU1003
 2745 08e2 ADF8FC50 		strh	r5, [sp, #252]	@ movhi
 319:Drivers/lvgl/src/extra/widgets/meter/lv_meter.c ****         nm_cord.x2 = scale_center.x + w;
 2746              		.loc 1 319 20 view .LVU1004
 2747 08e6 ADF8FA30 		strh	r3, [sp, #250]	@ movhi
 320:Drivers/lvgl/src/extra/widgets/meter/lv_meter.c ****         nm_cord.y2 = scale_center.y + h;
 2748              		.loc 1 320 9 is_stmt 1 view .LVU1005
 321:Drivers/lvgl/src/extra/widgets/meter/lv_meter.c ****         lv_draw_rect(draw_ctx, &mid_dsc, &nm_cord);
 2749              		.loc 1 321 9 view .LVU1006
 321:Drivers/lvgl/src/extra/widgets/meter/lv_meter.c ****         lv_draw_rect(draw_ctx, &mid_dsc, &nm_cord);
 2750              		.loc 1 321 20 is_stmt 0 view .LVU1007
 2751 08ea ADF8FE40 		strh	r4, [sp, #254]	@ movhi
 322:Drivers/lvgl/src/extra/widgets/meter/lv_meter.c ****     }
 2752              		.loc 1 322 9 is_stmt 1 view .LVU1008
 2753 08ee FFF7FEFF 		bl	lv_draw_rect
 2754              	.LVL254:
 2755 08f2 FFF790BB 		b	.L17
 2756              	.LVL255:
 2757              	.L69:
 322:Drivers/lvgl/src/extra/widgets/meter/lv_meter.c ****     }
 2758              		.loc 1 322 9 is_stmt 0 view .LVU1009
 2759 08f6 24AB     		add	r3, sp, #144
 2760 08f8 09EE903A 		vmov	s19, r3	@ int
 2761 08fc 9CE6     		b	.L23
 2762              	.LBE134:
 2763              	.LBE133:
 2764              	.LBE132:
 2765              		.cfi_endproc
 2766              	.LFE218:
 2768 08fe 00BF     		.section	.text.lv_meter_create,"ax",%progbits
 2769              		.align	1
ARM GAS  /var/folders/0z/tsy30v1j4xl4_7kw94k978ww0000gn/T//ccjxQgZI.s 			page 96


 2770              		.p2align 2,,3
 2771              		.global	lv_meter_create
 2772              		.syntax unified
 2773              		.thumb
 2774              		.thumb_func
 2776              	lv_meter_create:
 2777              	.LVL256:
 2778              	.LFB204:
  55:Drivers/lvgl/src/extra/widgets/meter/lv_meter.c ****     LV_LOG_INFO("begin");
 2779              		.loc 1 55 1 is_stmt 1 view -0
 2780              		.cfi_startproc
 2781              		@ args = 0, pretend = 0, frame = 0
 2782              		@ frame_needed = 0, uses_anonymous_args = 0
  56:Drivers/lvgl/src/extra/widgets/meter/lv_meter.c ****     lv_obj_t * obj = lv_obj_class_create_obj(MY_CLASS, parent);
 2783              		.loc 1 56 5 view .LVU1011
  56:Drivers/lvgl/src/extra/widgets/meter/lv_meter.c ****     lv_obj_t * obj = lv_obj_class_create_obj(MY_CLASS, parent);
 2784              		.loc 1 56 5 view .LVU1012
  56:Drivers/lvgl/src/extra/widgets/meter/lv_meter.c ****     lv_obj_t * obj = lv_obj_class_create_obj(MY_CLASS, parent);
 2785              		.loc 1 56 5 view .LVU1013
  57:Drivers/lvgl/src/extra/widgets/meter/lv_meter.c ****     lv_obj_class_init_obj(obj);
 2786              		.loc 1 57 5 view .LVU1014
  55:Drivers/lvgl/src/extra/widgets/meter/lv_meter.c ****     LV_LOG_INFO("begin");
 2787              		.loc 1 55 1 is_stmt 0 view .LVU1015
 2788 0000 10B5     		push	{r4, lr}
 2789              		.cfi_def_cfa_offset 8
 2790              		.cfi_offset 4, -8
 2791              		.cfi_offset 14, -4
  55:Drivers/lvgl/src/extra/widgets/meter/lv_meter.c ****     LV_LOG_INFO("begin");
 2792              		.loc 1 55 1 view .LVU1016
 2793 0002 0146     		mov	r1, r0
  57:Drivers/lvgl/src/extra/widgets/meter/lv_meter.c ****     lv_obj_class_init_obj(obj);
 2794              		.loc 1 57 22 view .LVU1017
 2795 0004 0348     		ldr	r0, .L80
 2796              	.LVL257:
  57:Drivers/lvgl/src/extra/widgets/meter/lv_meter.c ****     lv_obj_class_init_obj(obj);
 2797              		.loc 1 57 22 view .LVU1018
 2798 0006 FFF7FEFF 		bl	lv_obj_class_create_obj
 2799              	.LVL258:
  57:Drivers/lvgl/src/extra/widgets/meter/lv_meter.c ****     lv_obj_class_init_obj(obj);
 2800              		.loc 1 57 22 view .LVU1019
 2801 000a 0446     		mov	r4, r0
 2802              	.LVL259:
  58:Drivers/lvgl/src/extra/widgets/meter/lv_meter.c ****     return obj;
 2803              		.loc 1 58 5 is_stmt 1 view .LVU1020
 2804 000c FFF7FEFF 		bl	lv_obj_class_init_obj
 2805              	.LVL260:
  59:Drivers/lvgl/src/extra/widgets/meter/lv_meter.c **** }
 2806              		.loc 1 59 5 view .LVU1021
  60:Drivers/lvgl/src/extra/widgets/meter/lv_meter.c **** 
 2807              		.loc 1 60 1 is_stmt 0 view .LVU1022
 2808 0010 2046     		mov	r0, r4
 2809 0012 10BD     		pop	{r4, pc}
 2810              	.LVL261:
 2811              	.L81:
  60:Drivers/lvgl/src/extra/widgets/meter/lv_meter.c **** 
 2812              		.loc 1 60 1 view .LVU1023
 2813              		.align	2
ARM GAS  /var/folders/0z/tsy30v1j4xl4_7kw94k978ww0000gn/T//ccjxQgZI.s 			page 97


 2814              	.L80:
 2815 0014 00000000 		.word	.LANCHOR0
 2816              		.cfi_endproc
 2817              	.LFE204:
 2819              		.section	.text.lv_meter_add_scale,"ax",%progbits
 2820              		.align	1
 2821              		.p2align 2,,3
 2822              		.global	lv_meter_add_scale
 2823              		.syntax unified
 2824              		.thumb
 2825              		.thumb_func
 2827              	lv_meter_add_scale:
 2828              	.LVL262:
 2829              	.LFB205:
  67:Drivers/lvgl/src/extra/widgets/meter/lv_meter.c ****     LV_ASSERT_OBJ(obj, MY_CLASS);
 2830              		.loc 1 67 1 is_stmt 1 view -0
 2831              		.cfi_startproc
 2832              		@ args = 0, pretend = 0, frame = 0
 2833              		@ frame_needed = 0, uses_anonymous_args = 0
  68:Drivers/lvgl/src/extra/widgets/meter/lv_meter.c ****     lv_meter_t * meter = (lv_meter_t *)obj;
 2834              		.loc 1 68 5 view .LVU1025
  68:Drivers/lvgl/src/extra/widgets/meter/lv_meter.c ****     lv_meter_t * meter = (lv_meter_t *)obj;
 2835              		.loc 1 68 5 view .LVU1026
  68:Drivers/lvgl/src/extra/widgets/meter/lv_meter.c ****     lv_meter_t * meter = (lv_meter_t *)obj;
 2836              		.loc 1 68 5 view .LVU1027
  69:Drivers/lvgl/src/extra/widgets/meter/lv_meter.c **** 
 2837              		.loc 1 69 5 view .LVU1028
  71:Drivers/lvgl/src/extra/widgets/meter/lv_meter.c ****     LV_ASSERT_MALLOC(scale);
 2838              		.loc 1 71 5 view .LVU1029
  67:Drivers/lvgl/src/extra/widgets/meter/lv_meter.c ****     LV_ASSERT_OBJ(obj, MY_CLASS);
 2839              		.loc 1 67 1 is_stmt 0 view .LVU1030
 2840 0000 10B5     		push	{r4, lr}
 2841              		.cfi_def_cfa_offset 8
 2842              		.cfi_offset 4, -8
 2843              		.cfi_offset 14, -4
  71:Drivers/lvgl/src/extra/widgets/meter/lv_meter.c ****     LV_ASSERT_MALLOC(scale);
 2844              		.loc 1 71 32 view .LVU1031
 2845 0002 2430     		adds	r0, r0, #36
 2846              	.LVL263:
  71:Drivers/lvgl/src/extra/widgets/meter/lv_meter.c ****     LV_ASSERT_MALLOC(scale);
 2847              		.loc 1 71 32 view .LVU1032
 2848 0004 FFF7FEFF 		bl	_lv_ll_ins_head
 2849              	.LVL264:
  72:Drivers/lvgl/src/extra/widgets/meter/lv_meter.c ****     lv_memset_00(scale, sizeof(lv_meter_scale_t));
 2850              		.loc 1 72 5 is_stmt 1 view .LVU1033
  72:Drivers/lvgl/src/extra/widgets/meter/lv_meter.c ****     lv_memset_00(scale, sizeof(lv_meter_scale_t));
 2851              		.loc 1 72 5 view .LVU1034
 2852 0008 A0B1     		cbz	r0, .L84
 2853 000a 0446     		mov	r4, r0
  72:Drivers/lvgl/src/extra/widgets/meter/lv_meter.c ****     lv_memset_00(scale, sizeof(lv_meter_scale_t));
 2854              		.loc 1 72 5 discriminator 2 view .LVU1035
  72:Drivers/lvgl/src/extra/widgets/meter/lv_meter.c ****     lv_memset_00(scale, sizeof(lv_meter_scale_t));
 2855              		.loc 1 72 28 discriminator 2 view .LVU1036
  73:Drivers/lvgl/src/extra/widgets/meter/lv_meter.c **** 
 2856              		.loc 1 73 5 discriminator 2 view .LVU1037
 2857 000c 2421     		movs	r1, #36
 2858 000e FFF7FEFF 		bl	lv_memset_00
ARM GAS  /var/folders/0z/tsy30v1j4xl4_7kw94k978ww0000gn/T//ccjxQgZI.s 			page 98


 2859              	.LVL265:
  75:Drivers/lvgl/src/extra/widgets/meter/lv_meter.c ****     scale->rotation = 90 + (360 - scale->angle_range) / 2;
 2860              		.loc 1 75 5 discriminator 2 view .LVU1038
  75:Drivers/lvgl/src/extra/widgets/meter/lv_meter.c ****     scale->rotation = 90 + (360 - scale->angle_range) / 2;
 2861              		.loc 1 75 24 is_stmt 0 discriminator 2 view .LVU1039
 2862 0012 4FF48770 		mov	r0, #270
  76:Drivers/lvgl/src/extra/widgets/meter/lv_meter.c ****     scale->min = 0;
 2863              		.loc 1 76 21 discriminator 2 view .LVU1040
 2864 0016 8721     		movs	r1, #135
  81:Drivers/lvgl/src/extra/widgets/meter/lv_meter.c ****     scale->label_gap = 2;
 2865              		.loc 1 81 23 discriminator 2 view .LVU1041
 2866 0018 0223     		movs	r3, #2
  79:Drivers/lvgl/src/extra/widgets/meter/lv_meter.c ****     scale->tick_length = 8;
 2867              		.loc 1 79 21 discriminator 2 view .LVU1042
 2868 001a 074A     		ldr	r2, .L86
  75:Drivers/lvgl/src/extra/widgets/meter/lv_meter.c ****     scale->rotation = 90 + (360 - scale->angle_range) / 2;
 2869              		.loc 1 75 24 discriminator 2 view .LVU1043
 2870 001c E083     		strh	r0, [r4, #30]	@ movhi
  76:Drivers/lvgl/src/extra/widgets/meter/lv_meter.c ****     scale->min = 0;
 2871              		.loc 1 76 5 is_stmt 1 discriminator 2 view .LVU1044
  76:Drivers/lvgl/src/extra/widgets/meter/lv_meter.c ****     scale->min = 0;
 2872              		.loc 1 76 21 is_stmt 0 discriminator 2 view .LVU1045
 2873 001e 2184     		strh	r1, [r4, #32]	@ movhi
  77:Drivers/lvgl/src/extra/widgets/meter/lv_meter.c ****     scale->max = 100;
 2874              		.loc 1 77 5 is_stmt 1 discriminator 2 view .LVU1046
  78:Drivers/lvgl/src/extra/widgets/meter/lv_meter.c ****     scale->tick_cnt = 6;
 2875              		.loc 1 78 16 is_stmt 0 discriminator 2 view .LVU1047
 2876 0020 0020     		movs	r0, #0
 2877 0022 6421     		movs	r1, #100
 2878 0024 C4E90501 		strd	r0, r1, [r4, #20]
  79:Drivers/lvgl/src/extra/widgets/meter/lv_meter.c ****     scale->tick_length = 8;
 2879              		.loc 1 79 5 is_stmt 1 discriminator 2 view .LVU1048
  80:Drivers/lvgl/src/extra/widgets/meter/lv_meter.c ****     scale->tick_width = 2;
 2880              		.loc 1 80 5 discriminator 2 view .LVU1049
  79:Drivers/lvgl/src/extra/widgets/meter/lv_meter.c ****     scale->tick_length = 8;
 2881              		.loc 1 79 21 is_stmt 0 discriminator 2 view .LVU1050
 2882 0028 C4F80220 		str	r2, [r4, #2]	@ unaligned
  81:Drivers/lvgl/src/extra/widgets/meter/lv_meter.c ****     scale->label_gap = 2;
 2883              		.loc 1 81 5 is_stmt 1 discriminator 2 view .LVU1051
  81:Drivers/lvgl/src/extra/widgets/meter/lv_meter.c ****     scale->label_gap = 2;
 2884              		.loc 1 81 23 is_stmt 0 discriminator 2 view .LVU1052
 2885 002c E380     		strh	r3, [r4, #6]	@ movhi
  82:Drivers/lvgl/src/extra/widgets/meter/lv_meter.c **** 
 2886              		.loc 1 82 5 is_stmt 1 discriminator 2 view .LVU1053
  82:Drivers/lvgl/src/extra/widgets/meter/lv_meter.c **** 
 2887              		.loc 1 82 22 is_stmt 0 discriminator 2 view .LVU1054
 2888 002e 2382     		strh	r3, [r4, #16]	@ movhi
  84:Drivers/lvgl/src/extra/widgets/meter/lv_meter.c **** }
 2889              		.loc 1 84 5 is_stmt 1 discriminator 2 view .LVU1055
  85:Drivers/lvgl/src/extra/widgets/meter/lv_meter.c **** 
 2890              		.loc 1 85 1 is_stmt 0 discriminator 2 view .LVU1056
 2891 0030 2046     		mov	r0, r4
 2892 0032 10BD     		pop	{r4, pc}
 2893              	.LVL266:
 2894              	.L84:
  72:Drivers/lvgl/src/extra/widgets/meter/lv_meter.c ****     lv_memset_00(scale, sizeof(lv_meter_scale_t));
 2895              		.loc 1 72 5 is_stmt 1 discriminator 1 view .LVU1057
ARM GAS  /var/folders/0z/tsy30v1j4xl4_7kw94k978ww0000gn/T//ccjxQgZI.s 			page 99


  72:Drivers/lvgl/src/extra/widgets/meter/lv_meter.c ****     lv_memset_00(scale, sizeof(lv_meter_scale_t));
 2896              		.loc 1 72 5 discriminator 1 view .LVU1058
  72:Drivers/lvgl/src/extra/widgets/meter/lv_meter.c ****     lv_memset_00(scale, sizeof(lv_meter_scale_t));
 2897              		.loc 1 72 5 discriminator 1 view .LVU1059
  72:Drivers/lvgl/src/extra/widgets/meter/lv_meter.c ****     lv_memset_00(scale, sizeof(lv_meter_scale_t));
 2898              		.loc 1 72 5 discriminator 1 view .LVU1060
  72:Drivers/lvgl/src/extra/widgets/meter/lv_meter.c ****     lv_memset_00(scale, sizeof(lv_meter_scale_t));
 2899              		.loc 1 72 5 discriminator 1 view .LVU1061
  72:Drivers/lvgl/src/extra/widgets/meter/lv_meter.c ****     lv_memset_00(scale, sizeof(lv_meter_scale_t));
 2900              		.loc 1 72 5 discriminator 1 view .LVU1062
  72:Drivers/lvgl/src/extra/widgets/meter/lv_meter.c ****     lv_memset_00(scale, sizeof(lv_meter_scale_t));
 2901              		.loc 1 72 5 discriminator 1 view .LVU1063
  72:Drivers/lvgl/src/extra/widgets/meter/lv_meter.c ****     lv_memset_00(scale, sizeof(lv_meter_scale_t));
 2902              		.loc 1 72 5 discriminator 1 view .LVU1064
  72:Drivers/lvgl/src/extra/widgets/meter/lv_meter.c ****     lv_memset_00(scale, sizeof(lv_meter_scale_t));
 2903              		.loc 1 72 5 discriminator 1 view .LVU1065
  72:Drivers/lvgl/src/extra/widgets/meter/lv_meter.c ****     lv_memset_00(scale, sizeof(lv_meter_scale_t));
 2904              		.loc 1 72 5 discriminator 1 view .LVU1066
 2905 0034 FEE7     		b	.L84
 2906              	.L87:
 2907 0036 00BF     		.align	2
 2908              	.L86:
 2909 0038 06000800 		.word	524294
 2910              		.cfi_endproc
 2911              	.LFE205:
 2913              		.section	.text.lv_meter_set_scale_ticks,"ax",%progbits
 2914              		.align	1
 2915              		.p2align 2,,3
 2916              		.global	lv_meter_set_scale_ticks
 2917              		.syntax unified
 2918              		.thumb
 2919              		.thumb_func
 2921              	lv_meter_set_scale_ticks:
 2922              	.LVL267:
 2923              	.LFB206:
  89:Drivers/lvgl/src/extra/widgets/meter/lv_meter.c ****     scale->tick_cnt = cnt;
 2924              		.loc 1 89 1 view -0
 2925              		.cfi_startproc
 2926              		@ args = 8, pretend = 0, frame = 0
 2927              		@ frame_needed = 0, uses_anonymous_args = 0
 2928              		@ link register save eliminated.
  90:Drivers/lvgl/src/extra/widgets/meter/lv_meter.c ****     scale->tick_width = width;
 2929              		.loc 1 90 5 view .LVU1068
  89:Drivers/lvgl/src/extra/widgets/meter/lv_meter.c ****     scale->tick_cnt = cnt;
 2930              		.loc 1 89 1 is_stmt 0 view .LVU1069
 2931 0000 BDF800C0 		ldrh	ip, [sp]
  91:Drivers/lvgl/src/extra/widgets/meter/lv_meter.c ****     scale->tick_length = len;
 2932              		.loc 1 91 23 view .LVU1070
 2933 0004 CB80     		strh	r3, [r1, #6]	@ movhi
  89:Drivers/lvgl/src/extra/widgets/meter/lv_meter.c ****     scale->tick_cnt = cnt;
 2934              		.loc 1 89 1 view .LVU1071
 2935 0006 BDF80430 		ldrh	r3, [sp, #4]
 2936              	.LVL268:
  92:Drivers/lvgl/src/extra/widgets/meter/lv_meter.c ****     scale->tick_color = color;
 2937              		.loc 1 92 24 view .LVU1072
 2938 000a A1F804C0 		strh	ip, [r1, #4]	@ movhi
  90:Drivers/lvgl/src/extra/widgets/meter/lv_meter.c ****     scale->tick_width = width;
ARM GAS  /var/folders/0z/tsy30v1j4xl4_7kw94k978ww0000gn/T//ccjxQgZI.s 			page 100


 2939              		.loc 1 90 21 view .LVU1073
 2940 000e 4A80     		strh	r2, [r1, #2]	@ movhi
  91:Drivers/lvgl/src/extra/widgets/meter/lv_meter.c ****     scale->tick_length = len;
 2941              		.loc 1 91 5 is_stmt 1 view .LVU1074
  92:Drivers/lvgl/src/extra/widgets/meter/lv_meter.c ****     scale->tick_color = color;
 2942              		.loc 1 92 5 view .LVU1075
  93:Drivers/lvgl/src/extra/widgets/meter/lv_meter.c ****     lv_obj_invalidate(obj);
 2943              		.loc 1 93 5 view .LVU1076
  93:Drivers/lvgl/src/extra/widgets/meter/lv_meter.c ****     lv_obj_invalidate(obj);
 2944              		.loc 1 93 23 is_stmt 0 view .LVU1077
 2945 0010 0B80     		strh	r3, [r1]	@ movhi
  94:Drivers/lvgl/src/extra/widgets/meter/lv_meter.c **** }
 2946              		.loc 1 94 5 is_stmt 1 view .LVU1078
 2947 0012 FFF7FEBF 		b	lv_obj_invalidate
 2948              	.LVL269:
  94:Drivers/lvgl/src/extra/widgets/meter/lv_meter.c **** }
 2949              		.loc 1 94 5 is_stmt 0 view .LVU1079
 2950              		.cfi_endproc
 2951              	.LFE206:
 2953 0016 00BF     		.section	.text.lv_meter_set_scale_major_ticks,"ax",%progbits
 2954              		.align	1
 2955              		.p2align 2,,3
 2956              		.global	lv_meter_set_scale_major_ticks
 2957              		.syntax unified
 2958              		.thumb
 2959              		.thumb_func
 2961              	lv_meter_set_scale_major_ticks:
 2962              	.LVL270:
 2963              	.LFB207:
  99:Drivers/lvgl/src/extra/widgets/meter/lv_meter.c ****     scale->tick_major_nth = nth;
 2964              		.loc 1 99 1 is_stmt 1 view -0
 2965              		.cfi_startproc
 2966              		@ args = 12, pretend = 0, frame = 0
 2967              		@ frame_needed = 0, uses_anonymous_args = 0
 2968              		@ link register save eliminated.
 100:Drivers/lvgl/src/extra/widgets/meter/lv_meter.c ****     scale->tick_major_width = width;
 2969              		.loc 1 100 5 view .LVU1081
  99:Drivers/lvgl/src/extra/widgets/meter/lv_meter.c ****     scale->tick_major_nth = nth;
 2970              		.loc 1 99 1 is_stmt 0 view .LVU1082
 2971 0000 BDF800C0 		ldrh	ip, [sp]
 100:Drivers/lvgl/src/extra/widgets/meter/lv_meter.c ****     scale->tick_major_width = width;
 2972              		.loc 1 100 27 view .LVU1083
 2973 0004 4A81     		strh	r2, [r1, #10]	@ movhi
 101:Drivers/lvgl/src/extra/widgets/meter/lv_meter.c ****     scale->tick_major_length = len;
 2974              		.loc 1 101 5 is_stmt 1 view .LVU1084
 101:Drivers/lvgl/src/extra/widgets/meter/lv_meter.c ****     scale->tick_major_length = len;
 2975              		.loc 1 101 29 is_stmt 0 view .LVU1085
 2976 0006 CB81     		strh	r3, [r1, #14]	@ movhi
 102:Drivers/lvgl/src/extra/widgets/meter/lv_meter.c ****     scale->tick_major_color = color;
 2977              		.loc 1 102 5 is_stmt 1 view .LVU1086
 103:Drivers/lvgl/src/extra/widgets/meter/lv_meter.c ****     scale->label_gap = label_gap;
 2978              		.loc 1 103 5 view .LVU1087
  99:Drivers/lvgl/src/extra/widgets/meter/lv_meter.c ****     scale->tick_major_nth = nth;
 2979              		.loc 1 99 1 is_stmt 0 view .LVU1088
 2980 0008 BDF80420 		ldrh	r2, [sp, #4]
 2981              	.LVL271:
  99:Drivers/lvgl/src/extra/widgets/meter/lv_meter.c ****     scale->tick_major_nth = nth;
ARM GAS  /var/folders/0z/tsy30v1j4xl4_7kw94k978ww0000gn/T//ccjxQgZI.s 			page 101


 2982              		.loc 1 99 1 view .LVU1089
 2983 000c BDF90830 		ldrsh	r3, [sp, #8]
 2984              	.LVL272:
 102:Drivers/lvgl/src/extra/widgets/meter/lv_meter.c ****     scale->tick_major_color = color;
 2985              		.loc 1 102 30 view .LVU1090
 2986 0010 A1F80CC0 		strh	ip, [r1, #12]	@ movhi
 103:Drivers/lvgl/src/extra/widgets/meter/lv_meter.c ****     scale->label_gap = label_gap;
 2987              		.loc 1 103 29 view .LVU1091
 2988 0014 0A81     		strh	r2, [r1, #8]	@ movhi
 104:Drivers/lvgl/src/extra/widgets/meter/lv_meter.c ****     lv_obj_invalidate(obj);
 2989              		.loc 1 104 5 is_stmt 1 view .LVU1092
 104:Drivers/lvgl/src/extra/widgets/meter/lv_meter.c ****     lv_obj_invalidate(obj);
 2990              		.loc 1 104 22 is_stmt 0 view .LVU1093
 2991 0016 0B82     		strh	r3, [r1, #16]	@ movhi
 105:Drivers/lvgl/src/extra/widgets/meter/lv_meter.c **** }
 2992              		.loc 1 105 5 is_stmt 1 view .LVU1094
 2993 0018 FFF7FEBF 		b	lv_obj_invalidate
 2994              	.LVL273:
 105:Drivers/lvgl/src/extra/widgets/meter/lv_meter.c **** }
 2995              		.loc 1 105 5 is_stmt 0 view .LVU1095
 2996              		.cfi_endproc
 2997              	.LFE207:
 2999              		.section	.text.lv_meter_set_scale_range,"ax",%progbits
 3000              		.align	1
 3001              		.p2align 2,,3
 3002              		.global	lv_meter_set_scale_range
 3003              		.syntax unified
 3004              		.thumb
 3005              		.thumb_func
 3007              	lv_meter_set_scale_range:
 3008              	.LVL274:
 3009              	.LFB208:
 110:Drivers/lvgl/src/extra/widgets/meter/lv_meter.c ****     scale->min = min;
 3010              		.loc 1 110 1 is_stmt 1 view -0
 3011              		.cfi_startproc
 3012              		@ args = 8, pretend = 0, frame = 0
 3013              		@ frame_needed = 0, uses_anonymous_args = 0
 3014              		@ link register save eliminated.
 111:Drivers/lvgl/src/extra/widgets/meter/lv_meter.c ****     scale->max = max;
 3015              		.loc 1 111 5 view .LVU1097
 112:Drivers/lvgl/src/extra/widgets/meter/lv_meter.c ****     scale->angle_range = angle_range;
 3016              		.loc 1 112 16 is_stmt 0 view .LVU1098
 3017 0000 C1E90523 		strd	r2, r3, [r1, #20]
 113:Drivers/lvgl/src/extra/widgets/meter/lv_meter.c ****     scale->rotation = rotation;
 3018              		.loc 1 113 5 is_stmt 1 view .LVU1099
 114:Drivers/lvgl/src/extra/widgets/meter/lv_meter.c ****     lv_obj_invalidate(obj);
 3019              		.loc 1 114 5 view .LVU1100
 113:Drivers/lvgl/src/extra/widgets/meter/lv_meter.c ****     scale->rotation = rotation;
 3020              		.loc 1 113 24 is_stmt 0 view .LVU1101
 3021 0004 DDF800C0 		ldr	ip, [sp]
 110:Drivers/lvgl/src/extra/widgets/meter/lv_meter.c ****     scale->min = min;
 3022              		.loc 1 110 1 view .LVU1102
 3023 0008 019B     		ldr	r3, [sp, #4]
 3024              	.LVL275:
 113:Drivers/lvgl/src/extra/widgets/meter/lv_meter.c ****     scale->rotation = rotation;
 3025              		.loc 1 113 24 view .LVU1103
 3026 000a A1F81EC0 		strh	ip, [r1, #30]	@ movhi
ARM GAS  /var/folders/0z/tsy30v1j4xl4_7kw94k978ww0000gn/T//ccjxQgZI.s 			page 102


 114:Drivers/lvgl/src/extra/widgets/meter/lv_meter.c ****     lv_obj_invalidate(obj);
 3027              		.loc 1 114 21 view .LVU1104
 3028 000e 0B84     		strh	r3, [r1, #32]	@ movhi
 115:Drivers/lvgl/src/extra/widgets/meter/lv_meter.c **** }
 3029              		.loc 1 115 5 is_stmt 1 view .LVU1105
 3030 0010 FFF7FEBF 		b	lv_obj_invalidate
 3031              	.LVL276:
 115:Drivers/lvgl/src/extra/widgets/meter/lv_meter.c **** }
 3032              		.loc 1 115 5 is_stmt 0 view .LVU1106
 3033              		.cfi_endproc
 3034              	.LFE208:
 3036              		.section	.text.lv_meter_add_needle_line,"ax",%progbits
 3037              		.align	1
 3038              		.p2align 2,,3
 3039              		.global	lv_meter_add_needle_line
 3040              		.syntax unified
 3041              		.thumb
 3042              		.thumb_func
 3044              	lv_meter_add_needle_line:
 3045              	.LVL277:
 3046              	.LFB209:
 124:Drivers/lvgl/src/extra/widgets/meter/lv_meter.c ****     LV_ASSERT_OBJ(obj, MY_CLASS);
 3047              		.loc 1 124 1 is_stmt 1 view -0
 3048              		.cfi_startproc
 3049              		@ args = 4, pretend = 0, frame = 0
 3050              		@ frame_needed = 0, uses_anonymous_args = 0
 125:Drivers/lvgl/src/extra/widgets/meter/lv_meter.c ****     lv_meter_t * meter = (lv_meter_t *)obj;
 3051              		.loc 1 125 5 view .LVU1108
 125:Drivers/lvgl/src/extra/widgets/meter/lv_meter.c ****     lv_meter_t * meter = (lv_meter_t *)obj;
 3052              		.loc 1 125 5 view .LVU1109
 125:Drivers/lvgl/src/extra/widgets/meter/lv_meter.c ****     lv_meter_t * meter = (lv_meter_t *)obj;
 3053              		.loc 1 125 5 view .LVU1110
 126:Drivers/lvgl/src/extra/widgets/meter/lv_meter.c ****     lv_meter_indicator_t * indic = _lv_ll_ins_head(&meter->indicator_ll);
 3054              		.loc 1 126 5 view .LVU1111
 124:Drivers/lvgl/src/extra/widgets/meter/lv_meter.c ****     LV_ASSERT_OBJ(obj, MY_CLASS);
 3055              		.loc 1 124 1 is_stmt 0 view .LVU1112
 3056 0000 2DE9F843 		push	{r3, r4, r5, r6, r7, r8, r9, lr}
 3057              		.cfi_def_cfa_offset 32
 3058              		.cfi_offset 3, -32
 3059              		.cfi_offset 4, -28
 3060              		.cfi_offset 5, -24
 3061              		.cfi_offset 6, -20
 3062              		.cfi_offset 7, -16
 3063              		.cfi_offset 8, -12
 3064              		.cfi_offset 9, -8
 3065              		.cfi_offset 14, -4
 124:Drivers/lvgl/src/extra/widgets/meter/lv_meter.c ****     LV_ASSERT_OBJ(obj, MY_CLASS);
 3066              		.loc 1 124 1 view .LVU1113
 3067 0004 0546     		mov	r5, r0
 3068              	.LVL278:
 127:Drivers/lvgl/src/extra/widgets/meter/lv_meter.c ****     LV_ASSERT_MALLOC(indic);
 3069              		.loc 1 127 5 is_stmt 1 view .LVU1114
 127:Drivers/lvgl/src/extra/widgets/meter/lv_meter.c ****     LV_ASSERT_MALLOC(indic);
 3070              		.loc 1 127 36 is_stmt 0 view .LVU1115
 3071 0006 3030     		adds	r0, r0, #48
 3072              	.LVL279:
 124:Drivers/lvgl/src/extra/widgets/meter/lv_meter.c ****     LV_ASSERT_OBJ(obj, MY_CLASS);
ARM GAS  /var/folders/0z/tsy30v1j4xl4_7kw94k978ww0000gn/T//ccjxQgZI.s 			page 103


 3073              		.loc 1 124 1 view .LVU1116
 3074 0008 BDF92080 		ldrsh	r8, [sp, #32]
 3075 000c 0F46     		mov	r7, r1
 3076 000e 9146     		mov	r9, r2
 3077 0010 1E46     		mov	r6, r3	@ movhi
 3078              	.LVL280:
 127:Drivers/lvgl/src/extra/widgets/meter/lv_meter.c ****     LV_ASSERT_MALLOC(indic);
 3079              		.loc 1 127 36 view .LVU1117
 3080 0012 FFF7FEFF 		bl	_lv_ll_ins_head
 3081              	.LVL281:
 128:Drivers/lvgl/src/extra/widgets/meter/lv_meter.c ****     lv_memset_00(indic, sizeof(lv_meter_indicator_t));
 3082              		.loc 1 128 5 is_stmt 1 view .LVU1118
 128:Drivers/lvgl/src/extra/widgets/meter/lv_meter.c ****     lv_memset_00(indic, sizeof(lv_meter_indicator_t));
 3083              		.loc 1 128 5 view .LVU1119
 3084 0016 90B1     		cbz	r0, .L93
 3085 0018 0446     		mov	r4, r0
 128:Drivers/lvgl/src/extra/widgets/meter/lv_meter.c ****     lv_memset_00(indic, sizeof(lv_meter_indicator_t));
 3086              		.loc 1 128 5 discriminator 2 view .LVU1120
 128:Drivers/lvgl/src/extra/widgets/meter/lv_meter.c ****     lv_memset_00(indic, sizeof(lv_meter_indicator_t));
 3087              		.loc 1 128 28 discriminator 2 view .LVU1121
 129:Drivers/lvgl/src/extra/widgets/meter/lv_meter.c ****     indic->scale = scale;
 3088              		.loc 1 129 5 discriminator 2 view .LVU1122
 3089 001a 1C21     		movs	r1, #28
 3090 001c FFF7FEFF 		bl	lv_memset_00
 3091              	.LVL282:
 130:Drivers/lvgl/src/extra/widgets/meter/lv_meter.c ****     indic->opa = LV_OPA_COVER;
 3092              		.loc 1 130 5 discriminator 2 view .LVU1123
 133:Drivers/lvgl/src/extra/widgets/meter/lv_meter.c ****     indic->type_data.needle_line.width = width;
 3093              		.loc 1 133 17 is_stmt 0 discriminator 2 view .LVU1124
 3094 0020 4FF60173 		movw	r3, #65281
 137:Drivers/lvgl/src/extra/widgets/meter/lv_meter.c **** 
 3095              		.loc 1 137 5 discriminator 2 view .LVU1125
 3096 0024 2846     		mov	r0, r5
 130:Drivers/lvgl/src/extra/widgets/meter/lv_meter.c ****     indic->opa = LV_OPA_COVER;
 3097              		.loc 1 130 18 discriminator 2 view .LVU1126
 3098 0026 2760     		str	r7, [r4]
 131:Drivers/lvgl/src/extra/widgets/meter/lv_meter.c **** 
 3099              		.loc 1 131 5 is_stmt 1 discriminator 2 view .LVU1127
 133:Drivers/lvgl/src/extra/widgets/meter/lv_meter.c ****     indic->type_data.needle_line.width = width;
 3100              		.loc 1 133 5 discriminator 2 view .LVU1128
 134:Drivers/lvgl/src/extra/widgets/meter/lv_meter.c ****     indic->type_data.needle_line.color = color;
 3101              		.loc 1 134 40 is_stmt 0 discriminator 2 view .LVU1129
 3102 0028 A4F81090 		strh	r9, [r4, #16]	@ movhi
 3103              	.LVL283:
 135:Drivers/lvgl/src/extra/widgets/meter/lv_meter.c ****     indic->type_data.needle_line.r_mod = r_mod;
 3104              		.loc 1 135 40 discriminator 2 view .LVU1130
 3105 002c A682     		strh	r6, [r4, #20]	@ movhi
 136:Drivers/lvgl/src/extra/widgets/meter/lv_meter.c ****     lv_obj_invalidate(obj);
 3106              		.loc 1 136 40 discriminator 2 view .LVU1131
 3107 002e A4F81280 		strh	r8, [r4, #18]	@ movhi
 133:Drivers/lvgl/src/extra/widgets/meter/lv_meter.c ****     indic->type_data.needle_line.width = width;
 3108              		.loc 1 133 17 discriminator 2 view .LVU1132
 3109 0032 A380     		strh	r3, [r4, #4]	@ movhi
 134:Drivers/lvgl/src/extra/widgets/meter/lv_meter.c ****     indic->type_data.needle_line.color = color;
 3110              		.loc 1 134 5 is_stmt 1 discriminator 2 view .LVU1133
 135:Drivers/lvgl/src/extra/widgets/meter/lv_meter.c ****     indic->type_data.needle_line.r_mod = r_mod;
 3111              		.loc 1 135 5 discriminator 2 view .LVU1134
ARM GAS  /var/folders/0z/tsy30v1j4xl4_7kw94k978ww0000gn/T//ccjxQgZI.s 			page 104


 136:Drivers/lvgl/src/extra/widgets/meter/lv_meter.c ****     lv_obj_invalidate(obj);
 3112              		.loc 1 136 5 discriminator 2 view .LVU1135
 137:Drivers/lvgl/src/extra/widgets/meter/lv_meter.c **** 
 3113              		.loc 1 137 5 discriminator 2 view .LVU1136
 3114 0034 FFF7FEFF 		bl	lv_obj_invalidate
 3115              	.LVL284:
 139:Drivers/lvgl/src/extra/widgets/meter/lv_meter.c **** }
 3116              		.loc 1 139 5 discriminator 2 view .LVU1137
 140:Drivers/lvgl/src/extra/widgets/meter/lv_meter.c **** 
 3117              		.loc 1 140 1 is_stmt 0 discriminator 2 view .LVU1138
 3118 0038 2046     		mov	r0, r4
 3119 003a BDE8F883 		pop	{r3, r4, r5, r6, r7, r8, r9, pc}
 3120              	.LVL285:
 3121              	.L93:
 128:Drivers/lvgl/src/extra/widgets/meter/lv_meter.c ****     lv_memset_00(indic, sizeof(lv_meter_indicator_t));
 3122              		.loc 1 128 5 is_stmt 1 discriminator 1 view .LVU1139
 128:Drivers/lvgl/src/extra/widgets/meter/lv_meter.c ****     lv_memset_00(indic, sizeof(lv_meter_indicator_t));
 3123              		.loc 1 128 5 discriminator 1 view .LVU1140
 128:Drivers/lvgl/src/extra/widgets/meter/lv_meter.c ****     lv_memset_00(indic, sizeof(lv_meter_indicator_t));
 3124              		.loc 1 128 5 discriminator 1 view .LVU1141
 128:Drivers/lvgl/src/extra/widgets/meter/lv_meter.c ****     lv_memset_00(indic, sizeof(lv_meter_indicator_t));
 3125              		.loc 1 128 5 discriminator 1 view .LVU1142
 128:Drivers/lvgl/src/extra/widgets/meter/lv_meter.c ****     lv_memset_00(indic, sizeof(lv_meter_indicator_t));
 3126              		.loc 1 128 5 discriminator 1 view .LVU1143
 128:Drivers/lvgl/src/extra/widgets/meter/lv_meter.c ****     lv_memset_00(indic, sizeof(lv_meter_indicator_t));
 3127              		.loc 1 128 5 discriminator 1 view .LVU1144
 128:Drivers/lvgl/src/extra/widgets/meter/lv_meter.c ****     lv_memset_00(indic, sizeof(lv_meter_indicator_t));
 3128              		.loc 1 128 5 discriminator 1 view .LVU1145
 128:Drivers/lvgl/src/extra/widgets/meter/lv_meter.c ****     lv_memset_00(indic, sizeof(lv_meter_indicator_t));
 3129              		.loc 1 128 5 discriminator 1 view .LVU1146
 128:Drivers/lvgl/src/extra/widgets/meter/lv_meter.c ****     lv_memset_00(indic, sizeof(lv_meter_indicator_t));
 3130              		.loc 1 128 5 discriminator 1 view .LVU1147
 128:Drivers/lvgl/src/extra/widgets/meter/lv_meter.c ****     lv_memset_00(indic, sizeof(lv_meter_indicator_t));
 3131              		.loc 1 128 5 discriminator 1 view .LVU1148
 3132 003e FEE7     		b	.L93
 3133              		.cfi_endproc
 3134              	.LFE209:
 3136              		.section	.text.lv_meter_add_needle_img,"ax",%progbits
 3137              		.align	1
 3138              		.p2align 2,,3
 3139              		.global	lv_meter_add_needle_img
 3140              		.syntax unified
 3141              		.thumb
 3142              		.thumb_func
 3144              	lv_meter_add_needle_img:
 3145              	.LVL286:
 3146              	.LFB210:
 144:Drivers/lvgl/src/extra/widgets/meter/lv_meter.c ****     LV_ASSERT_OBJ(obj, MY_CLASS);
 3147              		.loc 1 144 1 view -0
 3148              		.cfi_startproc
 3149              		@ args = 4, pretend = 0, frame = 0
 3150              		@ frame_needed = 0, uses_anonymous_args = 0
 145:Drivers/lvgl/src/extra/widgets/meter/lv_meter.c ****     lv_meter_t * meter = (lv_meter_t *)obj;
 3151              		.loc 1 145 5 view .LVU1150
 145:Drivers/lvgl/src/extra/widgets/meter/lv_meter.c ****     lv_meter_t * meter = (lv_meter_t *)obj;
 3152              		.loc 1 145 5 view .LVU1151
 145:Drivers/lvgl/src/extra/widgets/meter/lv_meter.c ****     lv_meter_t * meter = (lv_meter_t *)obj;
ARM GAS  /var/folders/0z/tsy30v1j4xl4_7kw94k978ww0000gn/T//ccjxQgZI.s 			page 105


 3153              		.loc 1 145 5 view .LVU1152
 146:Drivers/lvgl/src/extra/widgets/meter/lv_meter.c ****     lv_meter_indicator_t * indic = _lv_ll_ins_head(&meter->indicator_ll);
 3154              		.loc 1 146 5 view .LVU1153
 144:Drivers/lvgl/src/extra/widgets/meter/lv_meter.c ****     LV_ASSERT_OBJ(obj, MY_CLASS);
 3155              		.loc 1 144 1 is_stmt 0 view .LVU1154
 3156 0000 2DE9F843 		push	{r3, r4, r5, r6, r7, r8, r9, lr}
 3157              		.cfi_def_cfa_offset 32
 3158              		.cfi_offset 3, -32
 3159              		.cfi_offset 4, -28
 3160              		.cfi_offset 5, -24
 3161              		.cfi_offset 6, -20
 3162              		.cfi_offset 7, -16
 3163              		.cfi_offset 8, -12
 3164              		.cfi_offset 9, -8
 3165              		.cfi_offset 14, -4
 144:Drivers/lvgl/src/extra/widgets/meter/lv_meter.c ****     LV_ASSERT_OBJ(obj, MY_CLASS);
 3166              		.loc 1 144 1 view .LVU1155
 3167 0004 0546     		mov	r5, r0
 3168              	.LVL287:
 147:Drivers/lvgl/src/extra/widgets/meter/lv_meter.c ****     LV_ASSERT_MALLOC(indic);
 3169              		.loc 1 147 5 is_stmt 1 view .LVU1156
 147:Drivers/lvgl/src/extra/widgets/meter/lv_meter.c ****     LV_ASSERT_MALLOC(indic);
 3170              		.loc 1 147 36 is_stmt 0 view .LVU1157
 3171 0006 3030     		adds	r0, r0, #48
 3172              	.LVL288:
 144:Drivers/lvgl/src/extra/widgets/meter/lv_meter.c ****     LV_ASSERT_OBJ(obj, MY_CLASS);
 3173              		.loc 1 144 1 view .LVU1158
 3174 0008 BDF92080 		ldrsh	r8, [sp, #32]
 3175 000c 0F46     		mov	r7, r1
 3176 000e 9146     		mov	r9, r2
 3177 0010 1E46     		mov	r6, r3
 147:Drivers/lvgl/src/extra/widgets/meter/lv_meter.c ****     LV_ASSERT_MALLOC(indic);
 3178              		.loc 1 147 36 view .LVU1159
 3179 0012 FFF7FEFF 		bl	_lv_ll_ins_head
 3180              	.LVL289:
 148:Drivers/lvgl/src/extra/widgets/meter/lv_meter.c ****     lv_memset_00(indic, sizeof(lv_meter_indicator_t));
 3181              		.loc 1 148 5 is_stmt 1 view .LVU1160
 148:Drivers/lvgl/src/extra/widgets/meter/lv_meter.c ****     lv_memset_00(indic, sizeof(lv_meter_indicator_t));
 3182              		.loc 1 148 5 view .LVU1161
 3183 0016 90B1     		cbz	r0, .L97
 3184 0018 0446     		mov	r4, r0
 148:Drivers/lvgl/src/extra/widgets/meter/lv_meter.c ****     lv_memset_00(indic, sizeof(lv_meter_indicator_t));
 3185              		.loc 1 148 5 discriminator 2 view .LVU1162
 148:Drivers/lvgl/src/extra/widgets/meter/lv_meter.c ****     lv_memset_00(indic, sizeof(lv_meter_indicator_t));
 3186              		.loc 1 148 28 discriminator 2 view .LVU1163
 149:Drivers/lvgl/src/extra/widgets/meter/lv_meter.c ****     indic->scale = scale;
 3187              		.loc 1 149 5 discriminator 2 view .LVU1164
 3188 001a 1C21     		movs	r1, #28
 3189 001c FFF7FEFF 		bl	lv_memset_00
 3190              	.LVL290:
 150:Drivers/lvgl/src/extra/widgets/meter/lv_meter.c ****     indic->opa = LV_OPA_COVER;
 3191              		.loc 1 150 5 discriminator 2 view .LVU1165
 153:Drivers/lvgl/src/extra/widgets/meter/lv_meter.c ****     indic->type_data.needle_img.src = src;
 3192              		.loc 1 153 17 is_stmt 0 discriminator 2 view .LVU1166
 3193 0020 4FF47F43 		mov	r3, #65280
 157:Drivers/lvgl/src/extra/widgets/meter/lv_meter.c **** 
 3194              		.loc 1 157 5 discriminator 2 view .LVU1167
ARM GAS  /var/folders/0z/tsy30v1j4xl4_7kw94k978ww0000gn/T//ccjxQgZI.s 			page 106


 3195 0024 2846     		mov	r0, r5
 150:Drivers/lvgl/src/extra/widgets/meter/lv_meter.c ****     indic->opa = LV_OPA_COVER;
 3196              		.loc 1 150 18 discriminator 2 view .LVU1168
 3197 0026 2760     		str	r7, [r4]
 151:Drivers/lvgl/src/extra/widgets/meter/lv_meter.c **** 
 3198              		.loc 1 151 5 is_stmt 1 discriminator 2 view .LVU1169
 153:Drivers/lvgl/src/extra/widgets/meter/lv_meter.c ****     indic->type_data.needle_img.src = src;
 3199              		.loc 1 153 5 discriminator 2 view .LVU1170
 154:Drivers/lvgl/src/extra/widgets/meter/lv_meter.c ****     indic->type_data.needle_img.pivot.x = pivot_x;
 3200              		.loc 1 154 37 is_stmt 0 discriminator 2 view .LVU1171
 3201 0028 C4F81090 		str	r9, [r4, #16]
 155:Drivers/lvgl/src/extra/widgets/meter/lv_meter.c ****     indic->type_data.needle_img.pivot.y = pivot_y;
 3202              		.loc 1 155 41 discriminator 2 view .LVU1172
 3203 002c A682     		strh	r6, [r4, #20]	@ movhi
 156:Drivers/lvgl/src/extra/widgets/meter/lv_meter.c ****     lv_obj_invalidate(obj);
 3204              		.loc 1 156 41 discriminator 2 view .LVU1173
 3205 002e A4F81680 		strh	r8, [r4, #22]	@ movhi
 153:Drivers/lvgl/src/extra/widgets/meter/lv_meter.c ****     indic->type_data.needle_img.src = src;
 3206              		.loc 1 153 17 discriminator 2 view .LVU1174
 3207 0032 A380     		strh	r3, [r4, #4]	@ movhi
 154:Drivers/lvgl/src/extra/widgets/meter/lv_meter.c ****     indic->type_data.needle_img.pivot.x = pivot_x;
 3208              		.loc 1 154 5 is_stmt 1 discriminator 2 view .LVU1175
 155:Drivers/lvgl/src/extra/widgets/meter/lv_meter.c ****     indic->type_data.needle_img.pivot.y = pivot_y;
 3209              		.loc 1 155 5 discriminator 2 view .LVU1176
 156:Drivers/lvgl/src/extra/widgets/meter/lv_meter.c ****     lv_obj_invalidate(obj);
 3210              		.loc 1 156 5 discriminator 2 view .LVU1177
 157:Drivers/lvgl/src/extra/widgets/meter/lv_meter.c **** 
 3211              		.loc 1 157 5 discriminator 2 view .LVU1178
 3212 0034 FFF7FEFF 		bl	lv_obj_invalidate
 3213              	.LVL291:
 159:Drivers/lvgl/src/extra/widgets/meter/lv_meter.c **** }
 3214              		.loc 1 159 5 discriminator 2 view .LVU1179
 160:Drivers/lvgl/src/extra/widgets/meter/lv_meter.c **** 
 3215              		.loc 1 160 1 is_stmt 0 discriminator 2 view .LVU1180
 3216 0038 2046     		mov	r0, r4
 3217 003a BDE8F883 		pop	{r3, r4, r5, r6, r7, r8, r9, pc}
 3218              	.LVL292:
 3219              	.L97:
 148:Drivers/lvgl/src/extra/widgets/meter/lv_meter.c ****     lv_memset_00(indic, sizeof(lv_meter_indicator_t));
 3220              		.loc 1 148 5 is_stmt 1 discriminator 1 view .LVU1181
 148:Drivers/lvgl/src/extra/widgets/meter/lv_meter.c ****     lv_memset_00(indic, sizeof(lv_meter_indicator_t));
 3221              		.loc 1 148 5 discriminator 1 view .LVU1182
 148:Drivers/lvgl/src/extra/widgets/meter/lv_meter.c ****     lv_memset_00(indic, sizeof(lv_meter_indicator_t));
 3222              		.loc 1 148 5 discriminator 1 view .LVU1183
 148:Drivers/lvgl/src/extra/widgets/meter/lv_meter.c ****     lv_memset_00(indic, sizeof(lv_meter_indicator_t));
 3223              		.loc 1 148 5 discriminator 1 view .LVU1184
 148:Drivers/lvgl/src/extra/widgets/meter/lv_meter.c ****     lv_memset_00(indic, sizeof(lv_meter_indicator_t));
 3224              		.loc 1 148 5 discriminator 1 view .LVU1185
 148:Drivers/lvgl/src/extra/widgets/meter/lv_meter.c ****     lv_memset_00(indic, sizeof(lv_meter_indicator_t));
 3225              		.loc 1 148 5 discriminator 1 view .LVU1186
 148:Drivers/lvgl/src/extra/widgets/meter/lv_meter.c ****     lv_memset_00(indic, sizeof(lv_meter_indicator_t));
 3226              		.loc 1 148 5 discriminator 1 view .LVU1187
 148:Drivers/lvgl/src/extra/widgets/meter/lv_meter.c ****     lv_memset_00(indic, sizeof(lv_meter_indicator_t));
 3227              		.loc 1 148 5 discriminator 1 view .LVU1188
 148:Drivers/lvgl/src/extra/widgets/meter/lv_meter.c ****     lv_memset_00(indic, sizeof(lv_meter_indicator_t));
 3228              		.loc 1 148 5 discriminator 1 view .LVU1189
 148:Drivers/lvgl/src/extra/widgets/meter/lv_meter.c ****     lv_memset_00(indic, sizeof(lv_meter_indicator_t));
ARM GAS  /var/folders/0z/tsy30v1j4xl4_7kw94k978ww0000gn/T//ccjxQgZI.s 			page 107


 3229              		.loc 1 148 5 discriminator 1 view .LVU1190
 3230 003e FEE7     		b	.L97
 3231              		.cfi_endproc
 3232              	.LFE210:
 3234              		.section	.text.lv_meter_add_arc,"ax",%progbits
 3235              		.align	1
 3236              		.p2align 2,,3
 3237              		.global	lv_meter_add_arc
 3238              		.syntax unified
 3239              		.thumb
 3240              		.thumb_func
 3242              	lv_meter_add_arc:
 3243              	.LVL293:
 3244              	.LFB211:
 164:Drivers/lvgl/src/extra/widgets/meter/lv_meter.c ****     LV_ASSERT_OBJ(obj, MY_CLASS);
 3245              		.loc 1 164 1 view -0
 3246              		.cfi_startproc
 3247              		@ args = 4, pretend = 0, frame = 0
 3248              		@ frame_needed = 0, uses_anonymous_args = 0
 165:Drivers/lvgl/src/extra/widgets/meter/lv_meter.c ****     lv_meter_t * meter = (lv_meter_t *)obj;
 3249              		.loc 1 165 5 view .LVU1192
 165:Drivers/lvgl/src/extra/widgets/meter/lv_meter.c ****     lv_meter_t * meter = (lv_meter_t *)obj;
 3250              		.loc 1 165 5 view .LVU1193
 165:Drivers/lvgl/src/extra/widgets/meter/lv_meter.c ****     lv_meter_t * meter = (lv_meter_t *)obj;
 3251              		.loc 1 165 5 view .LVU1194
 166:Drivers/lvgl/src/extra/widgets/meter/lv_meter.c ****     lv_meter_indicator_t * indic = _lv_ll_ins_head(&meter->indicator_ll);
 3252              		.loc 1 166 5 view .LVU1195
 164:Drivers/lvgl/src/extra/widgets/meter/lv_meter.c ****     LV_ASSERT_OBJ(obj, MY_CLASS);
 3253              		.loc 1 164 1 is_stmt 0 view .LVU1196
 3254 0000 2DE9F843 		push	{r3, r4, r5, r6, r7, r8, r9, lr}
 3255              		.cfi_def_cfa_offset 32
 3256              		.cfi_offset 3, -32
 3257              		.cfi_offset 4, -28
 3258              		.cfi_offset 5, -24
 3259              		.cfi_offset 6, -20
 3260              		.cfi_offset 7, -16
 3261              		.cfi_offset 8, -12
 3262              		.cfi_offset 9, -8
 3263              		.cfi_offset 14, -4
 164:Drivers/lvgl/src/extra/widgets/meter/lv_meter.c ****     LV_ASSERT_OBJ(obj, MY_CLASS);
 3264              		.loc 1 164 1 view .LVU1197
 3265 0004 0546     		mov	r5, r0
 3266              	.LVL294:
 167:Drivers/lvgl/src/extra/widgets/meter/lv_meter.c ****     LV_ASSERT_MALLOC(indic);
 3267              		.loc 1 167 5 is_stmt 1 view .LVU1198
 167:Drivers/lvgl/src/extra/widgets/meter/lv_meter.c ****     LV_ASSERT_MALLOC(indic);
 3268              		.loc 1 167 36 is_stmt 0 view .LVU1199
 3269 0006 3030     		adds	r0, r0, #48
 3270              	.LVL295:
 164:Drivers/lvgl/src/extra/widgets/meter/lv_meter.c ****     LV_ASSERT_OBJ(obj, MY_CLASS);
 3271              		.loc 1 164 1 view .LVU1200
 3272 0008 BDF92080 		ldrsh	r8, [sp, #32]
 3273 000c 0F46     		mov	r7, r1
 3274 000e 9146     		mov	r9, r2
 3275 0010 1E46     		mov	r6, r3	@ movhi
 3276              	.LVL296:
 167:Drivers/lvgl/src/extra/widgets/meter/lv_meter.c ****     LV_ASSERT_MALLOC(indic);
ARM GAS  /var/folders/0z/tsy30v1j4xl4_7kw94k978ww0000gn/T//ccjxQgZI.s 			page 108


 3277              		.loc 1 167 36 view .LVU1201
 3278 0012 FFF7FEFF 		bl	_lv_ll_ins_head
 3279              	.LVL297:
 168:Drivers/lvgl/src/extra/widgets/meter/lv_meter.c ****     lv_memset_00(indic, sizeof(lv_meter_indicator_t));
 3280              		.loc 1 168 5 is_stmt 1 view .LVU1202
 168:Drivers/lvgl/src/extra/widgets/meter/lv_meter.c ****     lv_memset_00(indic, sizeof(lv_meter_indicator_t));
 3281              		.loc 1 168 5 view .LVU1203
 3282 0016 90B1     		cbz	r0, .L101
 3283 0018 0446     		mov	r4, r0
 168:Drivers/lvgl/src/extra/widgets/meter/lv_meter.c ****     lv_memset_00(indic, sizeof(lv_meter_indicator_t));
 3284              		.loc 1 168 5 discriminator 2 view .LVU1204
 168:Drivers/lvgl/src/extra/widgets/meter/lv_meter.c ****     lv_memset_00(indic, sizeof(lv_meter_indicator_t));
 3285              		.loc 1 168 28 discriminator 2 view .LVU1205
 169:Drivers/lvgl/src/extra/widgets/meter/lv_meter.c ****     indic->scale = scale;
 3286              		.loc 1 169 5 discriminator 2 view .LVU1206
 3287 001a 1C21     		movs	r1, #28
 3288 001c FFF7FEFF 		bl	lv_memset_00
 3289              	.LVL298:
 170:Drivers/lvgl/src/extra/widgets/meter/lv_meter.c ****     indic->opa = LV_OPA_COVER;
 3290              		.loc 1 170 5 discriminator 2 view .LVU1207
 173:Drivers/lvgl/src/extra/widgets/meter/lv_meter.c ****     indic->type_data.arc.width = width;
 3291              		.loc 1 173 17 is_stmt 0 discriminator 2 view .LVU1208
 3292 0020 4FF60373 		movw	r3, #65283
 178:Drivers/lvgl/src/extra/widgets/meter/lv_meter.c ****     return indic;
 3293              		.loc 1 178 5 discriminator 2 view .LVU1209
 3294 0024 2846     		mov	r0, r5
 170:Drivers/lvgl/src/extra/widgets/meter/lv_meter.c ****     indic->opa = LV_OPA_COVER;
 3295              		.loc 1 170 18 discriminator 2 view .LVU1210
 3296 0026 2760     		str	r7, [r4]
 171:Drivers/lvgl/src/extra/widgets/meter/lv_meter.c **** 
 3297              		.loc 1 171 5 is_stmt 1 discriminator 2 view .LVU1211
 173:Drivers/lvgl/src/extra/widgets/meter/lv_meter.c ****     indic->type_data.arc.width = width;
 3298              		.loc 1 173 5 discriminator 2 view .LVU1212
 174:Drivers/lvgl/src/extra/widgets/meter/lv_meter.c ****     indic->type_data.arc.color = color;
 3299              		.loc 1 174 32 is_stmt 0 discriminator 2 view .LVU1213
 3300 0028 A4F81090 		strh	r9, [r4, #16]	@ movhi
 3301              	.LVL299:
 175:Drivers/lvgl/src/extra/widgets/meter/lv_meter.c ****     indic->type_data.arc.r_mod = r_mod;
 3302              		.loc 1 175 32 discriminator 2 view .LVU1214
 3303 002c 2683     		strh	r6, [r4, #24]	@ movhi
 176:Drivers/lvgl/src/extra/widgets/meter/lv_meter.c **** 
 3304              		.loc 1 176 32 discriminator 2 view .LVU1215
 3305 002e A4F81A80 		strh	r8, [r4, #26]	@ movhi
 173:Drivers/lvgl/src/extra/widgets/meter/lv_meter.c ****     indic->type_data.arc.width = width;
 3306              		.loc 1 173 17 discriminator 2 view .LVU1216
 3307 0032 A380     		strh	r3, [r4, #4]	@ movhi
 174:Drivers/lvgl/src/extra/widgets/meter/lv_meter.c ****     indic->type_data.arc.color = color;
 3308              		.loc 1 174 5 is_stmt 1 discriminator 2 view .LVU1217
 175:Drivers/lvgl/src/extra/widgets/meter/lv_meter.c ****     indic->type_data.arc.r_mod = r_mod;
 3309              		.loc 1 175 5 discriminator 2 view .LVU1218
 176:Drivers/lvgl/src/extra/widgets/meter/lv_meter.c **** 
 3310              		.loc 1 176 5 discriminator 2 view .LVU1219
 178:Drivers/lvgl/src/extra/widgets/meter/lv_meter.c ****     return indic;
 3311              		.loc 1 178 5 discriminator 2 view .LVU1220
 3312 0034 FFF7FEFF 		bl	lv_obj_invalidate
 3313              	.LVL300:
 179:Drivers/lvgl/src/extra/widgets/meter/lv_meter.c **** }
ARM GAS  /var/folders/0z/tsy30v1j4xl4_7kw94k978ww0000gn/T//ccjxQgZI.s 			page 109


 3314              		.loc 1 179 5 discriminator 2 view .LVU1221
 180:Drivers/lvgl/src/extra/widgets/meter/lv_meter.c **** 
 3315              		.loc 1 180 1 is_stmt 0 discriminator 2 view .LVU1222
 3316 0038 2046     		mov	r0, r4
 3317 003a BDE8F883 		pop	{r3, r4, r5, r6, r7, r8, r9, pc}
 3318              	.LVL301:
 3319              	.L101:
 168:Drivers/lvgl/src/extra/widgets/meter/lv_meter.c ****     lv_memset_00(indic, sizeof(lv_meter_indicator_t));
 3320              		.loc 1 168 5 is_stmt 1 discriminator 1 view .LVU1223
 168:Drivers/lvgl/src/extra/widgets/meter/lv_meter.c ****     lv_memset_00(indic, sizeof(lv_meter_indicator_t));
 3321              		.loc 1 168 5 discriminator 1 view .LVU1224
 168:Drivers/lvgl/src/extra/widgets/meter/lv_meter.c ****     lv_memset_00(indic, sizeof(lv_meter_indicator_t));
 3322              		.loc 1 168 5 discriminator 1 view .LVU1225
 168:Drivers/lvgl/src/extra/widgets/meter/lv_meter.c ****     lv_memset_00(indic, sizeof(lv_meter_indicator_t));
 3323              		.loc 1 168 5 discriminator 1 view .LVU1226
 168:Drivers/lvgl/src/extra/widgets/meter/lv_meter.c ****     lv_memset_00(indic, sizeof(lv_meter_indicator_t));
 3324              		.loc 1 168 5 discriminator 1 view .LVU1227
 168:Drivers/lvgl/src/extra/widgets/meter/lv_meter.c ****     lv_memset_00(indic, sizeof(lv_meter_indicator_t));
 3325              		.loc 1 168 5 discriminator 1 view .LVU1228
 168:Drivers/lvgl/src/extra/widgets/meter/lv_meter.c ****     lv_memset_00(indic, sizeof(lv_meter_indicator_t));
 3326              		.loc 1 168 5 discriminator 1 view .LVU1229
 168:Drivers/lvgl/src/extra/widgets/meter/lv_meter.c ****     lv_memset_00(indic, sizeof(lv_meter_indicator_t));
 3327              		.loc 1 168 5 discriminator 1 view .LVU1230
 168:Drivers/lvgl/src/extra/widgets/meter/lv_meter.c ****     lv_memset_00(indic, sizeof(lv_meter_indicator_t));
 3328              		.loc 1 168 5 discriminator 1 view .LVU1231
 168:Drivers/lvgl/src/extra/widgets/meter/lv_meter.c ****     lv_memset_00(indic, sizeof(lv_meter_indicator_t));
 3329              		.loc 1 168 5 discriminator 1 view .LVU1232
 3330 003e FEE7     		b	.L101
 3331              		.cfi_endproc
 3332              	.LFE211:
 3334              		.section	.text.lv_meter_add_scale_lines,"ax",%progbits
 3335              		.align	1
 3336              		.p2align 2,,3
 3337              		.global	lv_meter_add_scale_lines
 3338              		.syntax unified
 3339              		.thumb
 3340              		.thumb_func
 3342              	lv_meter_add_scale_lines:
 3343              	.LVL302:
 3344              	.LFB212:
 184:Drivers/lvgl/src/extra/widgets/meter/lv_meter.c ****     LV_ASSERT_OBJ(obj, MY_CLASS);
 3345              		.loc 1 184 1 view -0
 3346              		.cfi_startproc
 3347              		@ args = 8, pretend = 0, frame = 0
 3348              		@ frame_needed = 0, uses_anonymous_args = 0
 185:Drivers/lvgl/src/extra/widgets/meter/lv_meter.c ****     lv_meter_t * meter = (lv_meter_t *)obj;
 3349              		.loc 1 185 5 view .LVU1234
 185:Drivers/lvgl/src/extra/widgets/meter/lv_meter.c ****     lv_meter_t * meter = (lv_meter_t *)obj;
 3350              		.loc 1 185 5 view .LVU1235
 185:Drivers/lvgl/src/extra/widgets/meter/lv_meter.c ****     lv_meter_t * meter = (lv_meter_t *)obj;
 3351              		.loc 1 185 5 view .LVU1236
 186:Drivers/lvgl/src/extra/widgets/meter/lv_meter.c ****     lv_meter_indicator_t * indic = _lv_ll_ins_head(&meter->indicator_ll);
 3352              		.loc 1 186 5 view .LVU1237
 184:Drivers/lvgl/src/extra/widgets/meter/lv_meter.c ****     LV_ASSERT_OBJ(obj, MY_CLASS);
 3353              		.loc 1 184 1 is_stmt 0 view .LVU1238
 3354 0000 2DE9F047 		push	{r4, r5, r6, r7, r8, r9, r10, lr}
 3355              		.cfi_def_cfa_offset 32
ARM GAS  /var/folders/0z/tsy30v1j4xl4_7kw94k978ww0000gn/T//ccjxQgZI.s 			page 110


 3356              		.cfi_offset 4, -32
 3357              		.cfi_offset 5, -28
 3358              		.cfi_offset 6, -24
 3359              		.cfi_offset 7, -20
 3360              		.cfi_offset 8, -16
 3361              		.cfi_offset 9, -12
 3362              		.cfi_offset 10, -8
 3363              		.cfi_offset 14, -4
 184:Drivers/lvgl/src/extra/widgets/meter/lv_meter.c ****     LV_ASSERT_OBJ(obj, MY_CLASS);
 3364              		.loc 1 184 1 view .LVU1239
 3365 0004 0546     		mov	r5, r0
 3366              	.LVL303:
 187:Drivers/lvgl/src/extra/widgets/meter/lv_meter.c ****     LV_ASSERT_MALLOC(indic);
 3367              		.loc 1 187 5 is_stmt 1 view .LVU1240
 187:Drivers/lvgl/src/extra/widgets/meter/lv_meter.c ****     LV_ASSERT_MALLOC(indic);
 3368              		.loc 1 187 36 is_stmt 0 view .LVU1241
 3369 0006 3030     		adds	r0, r0, #48
 3370              	.LVL304:
 184:Drivers/lvgl/src/extra/widgets/meter/lv_meter.c ****     LV_ASSERT_OBJ(obj, MY_CLASS);
 3371              		.loc 1 184 1 view .LVU1242
 3372 0008 9DF82080 		ldrb	r8, [sp, #32]	@ zero_extendqisi2
 3373 000c BDF924A0 		ldrsh	r10, [sp, #36]
 3374 0010 0F46     		mov	r7, r1
 3375 0012 9146     		mov	r9, r2	@ movhi
 3376              	.LVL305:
 184:Drivers/lvgl/src/extra/widgets/meter/lv_meter.c ****     LV_ASSERT_OBJ(obj, MY_CLASS);
 3377              		.loc 1 184 1 view .LVU1243
 3378 0014 1E46     		mov	r6, r3	@ movhi
 3379              	.LVL306:
 187:Drivers/lvgl/src/extra/widgets/meter/lv_meter.c ****     LV_ASSERT_MALLOC(indic);
 3380              		.loc 1 187 36 view .LVU1244
 3381 0016 FFF7FEFF 		bl	_lv_ll_ins_head
 3382              	.LVL307:
 188:Drivers/lvgl/src/extra/widgets/meter/lv_meter.c ****     lv_memset_00(indic, sizeof(lv_meter_indicator_t));
 3383              		.loc 1 188 5 is_stmt 1 view .LVU1245
 188:Drivers/lvgl/src/extra/widgets/meter/lv_meter.c ****     lv_memset_00(indic, sizeof(lv_meter_indicator_t));
 3384              		.loc 1 188 5 view .LVU1246
 3385 001a B0B1     		cbz	r0, .L105
 188:Drivers/lvgl/src/extra/widgets/meter/lv_meter.c ****     lv_memset_00(indic, sizeof(lv_meter_indicator_t));
 3386              		.loc 1 188 5 discriminator 2 view .LVU1247
 188:Drivers/lvgl/src/extra/widgets/meter/lv_meter.c ****     lv_memset_00(indic, sizeof(lv_meter_indicator_t));
 3387              		.loc 1 188 28 discriminator 2 view .LVU1248
 189:Drivers/lvgl/src/extra/widgets/meter/lv_meter.c ****     indic->scale = scale;
 3388              		.loc 1 189 5 discriminator 2 view .LVU1249
 3389 001c 0446     		mov	r4, r0
 3390 001e 1C21     		movs	r1, #28
 3391 0020 FFF7FEFF 		bl	lv_memset_00
 3392              	.LVL308:
 190:Drivers/lvgl/src/extra/widgets/meter/lv_meter.c ****     indic->opa = LV_OPA_COVER;
 3393              		.loc 1 190 5 discriminator 2 view .LVU1250
 196:Drivers/lvgl/src/extra/widgets/meter/lv_meter.c ****     indic->type_data.scale_lines.width_mod = width_mod;
 3394              		.loc 1 196 45 is_stmt 0 discriminator 2 view .LVU1251
 3395 0024 A37D     		ldrb	r3, [r4, #22]	@ zero_extendqisi2
 190:Drivers/lvgl/src/extra/widgets/meter/lv_meter.c ****     indic->opa = LV_OPA_COVER;
 3396              		.loc 1 190 18 discriminator 2 view .LVU1252
 3397 0026 2760     		str	r7, [r4]
 191:Drivers/lvgl/src/extra/widgets/meter/lv_meter.c **** 
ARM GAS  /var/folders/0z/tsy30v1j4xl4_7kw94k978ww0000gn/T//ccjxQgZI.s 			page 111


 3398              		.loc 1 191 5 is_stmt 1 discriminator 2 view .LVU1253
 193:Drivers/lvgl/src/extra/widgets/meter/lv_meter.c ****     indic->type_data.scale_lines.color_start = color_start;
 3399              		.loc 1 193 5 discriminator 2 view .LVU1254
 196:Drivers/lvgl/src/extra/widgets/meter/lv_meter.c ****     indic->type_data.scale_lines.width_mod = width_mod;
 3400              		.loc 1 196 45 is_stmt 0 discriminator 2 view .LVU1255
 3401 0028 68F30003 		bfi	r3, r8, #0, #1
 3402 002c A375     		strb	r3, [r4, #22]
 193:Drivers/lvgl/src/extra/widgets/meter/lv_meter.c ****     indic->type_data.scale_lines.color_start = color_start;
 3403              		.loc 1 193 17 discriminator 2 view .LVU1256
 3404 002e 4FF60273 		movw	r3, #65282
 199:Drivers/lvgl/src/extra/widgets/meter/lv_meter.c ****     return indic;
 3405              		.loc 1 199 5 discriminator 2 view .LVU1257
 3406 0032 2846     		mov	r0, r5
 3407              	.LVL309:
 194:Drivers/lvgl/src/extra/widgets/meter/lv_meter.c ****     indic->type_data.scale_lines.color_end = color_end;
 3408              		.loc 1 194 46 discriminator 2 view .LVU1258
 3409 0034 A4F81290 		strh	r9, [r4, #18]	@ movhi
 3410              	.LVL310:
 195:Drivers/lvgl/src/extra/widgets/meter/lv_meter.c ****     indic->type_data.scale_lines.local_grad = local;
 3411              		.loc 1 195 44 discriminator 2 view .LVU1259
 3412 0038 A682     		strh	r6, [r4, #20]	@ movhi
 197:Drivers/lvgl/src/extra/widgets/meter/lv_meter.c **** 
 3413              		.loc 1 197 44 discriminator 2 view .LVU1260
 3414 003a A4F810A0 		strh	r10, [r4, #16]	@ movhi
 193:Drivers/lvgl/src/extra/widgets/meter/lv_meter.c ****     indic->type_data.scale_lines.color_start = color_start;
 3415              		.loc 1 193 17 discriminator 2 view .LVU1261
 3416 003e A380     		strh	r3, [r4, #4]	@ movhi
 194:Drivers/lvgl/src/extra/widgets/meter/lv_meter.c ****     indic->type_data.scale_lines.color_end = color_end;
 3417              		.loc 1 194 5 is_stmt 1 discriminator 2 view .LVU1262
 195:Drivers/lvgl/src/extra/widgets/meter/lv_meter.c ****     indic->type_data.scale_lines.local_grad = local;
 3418              		.loc 1 195 5 discriminator 2 view .LVU1263
 196:Drivers/lvgl/src/extra/widgets/meter/lv_meter.c ****     indic->type_data.scale_lines.width_mod = width_mod;
 3419              		.loc 1 196 5 discriminator 2 view .LVU1264
 197:Drivers/lvgl/src/extra/widgets/meter/lv_meter.c **** 
 3420              		.loc 1 197 5 discriminator 2 view .LVU1265
 199:Drivers/lvgl/src/extra/widgets/meter/lv_meter.c ****     return indic;
 3421              		.loc 1 199 5 discriminator 2 view .LVU1266
 3422 0040 FFF7FEFF 		bl	lv_obj_invalidate
 3423              	.LVL311:
 200:Drivers/lvgl/src/extra/widgets/meter/lv_meter.c **** }
 3424              		.loc 1 200 5 discriminator 2 view .LVU1267
 201:Drivers/lvgl/src/extra/widgets/meter/lv_meter.c **** 
 3425              		.loc 1 201 1 is_stmt 0 discriminator 2 view .LVU1268
 3426 0044 2046     		mov	r0, r4
 3427 0046 BDE8F087 		pop	{r4, r5, r6, r7, r8, r9, r10, pc}
 3428              	.LVL312:
 3429              	.L105:
 188:Drivers/lvgl/src/extra/widgets/meter/lv_meter.c ****     lv_memset_00(indic, sizeof(lv_meter_indicator_t));
 3430              		.loc 1 188 5 is_stmt 1 discriminator 1 view .LVU1269
 188:Drivers/lvgl/src/extra/widgets/meter/lv_meter.c ****     lv_memset_00(indic, sizeof(lv_meter_indicator_t));
 3431              		.loc 1 188 5 discriminator 1 view .LVU1270
 188:Drivers/lvgl/src/extra/widgets/meter/lv_meter.c ****     lv_memset_00(indic, sizeof(lv_meter_indicator_t));
 3432              		.loc 1 188 5 discriminator 1 view .LVU1271
 188:Drivers/lvgl/src/extra/widgets/meter/lv_meter.c ****     lv_memset_00(indic, sizeof(lv_meter_indicator_t));
 3433              		.loc 1 188 5 discriminator 1 view .LVU1272
 188:Drivers/lvgl/src/extra/widgets/meter/lv_meter.c ****     lv_memset_00(indic, sizeof(lv_meter_indicator_t));
 3434              		.loc 1 188 5 discriminator 1 view .LVU1273
ARM GAS  /var/folders/0z/tsy30v1j4xl4_7kw94k978ww0000gn/T//ccjxQgZI.s 			page 112


 188:Drivers/lvgl/src/extra/widgets/meter/lv_meter.c ****     lv_memset_00(indic, sizeof(lv_meter_indicator_t));
 3435              		.loc 1 188 5 discriminator 1 view .LVU1274
 188:Drivers/lvgl/src/extra/widgets/meter/lv_meter.c ****     lv_memset_00(indic, sizeof(lv_meter_indicator_t));
 3436              		.loc 1 188 5 discriminator 1 view .LVU1275
 188:Drivers/lvgl/src/extra/widgets/meter/lv_meter.c ****     lv_memset_00(indic, sizeof(lv_meter_indicator_t));
 3437              		.loc 1 188 5 discriminator 1 view .LVU1276
 188:Drivers/lvgl/src/extra/widgets/meter/lv_meter.c ****     lv_memset_00(indic, sizeof(lv_meter_indicator_t));
 3438              		.loc 1 188 5 discriminator 1 view .LVU1277
 188:Drivers/lvgl/src/extra/widgets/meter/lv_meter.c ****     lv_memset_00(indic, sizeof(lv_meter_indicator_t));
 3439              		.loc 1 188 5 discriminator 1 view .LVU1278
 3440 004a FEE7     		b	.L105
 3441              		.cfi_endproc
 3442              	.LFE212:
 3444              		.section	.text.lv_meter_set_indicator_value,"ax",%progbits
 3445              		.align	1
 3446              		.p2align 2,,3
 3447              		.global	lv_meter_set_indicator_value
 3448              		.syntax unified
 3449              		.thumb
 3450              		.thumb_func
 3452              	lv_meter_set_indicator_value:
 3453              	.LVL313:
 3454              	.LFB213:
 208:Drivers/lvgl/src/extra/widgets/meter/lv_meter.c ****     int32_t old_start = indic->start_value;
 3455              		.loc 1 208 1 view -0
 3456              		.cfi_startproc
 3457              		@ args = 0, pretend = 0, frame = 0
 3458              		@ frame_needed = 0, uses_anonymous_args = 0
 209:Drivers/lvgl/src/extra/widgets/meter/lv_meter.c ****     int32_t old_end = indic->end_value;
 3459              		.loc 1 209 5 view .LVU1280
 208:Drivers/lvgl/src/extra/widgets/meter/lv_meter.c ****     int32_t old_start = indic->start_value;
 3460              		.loc 1 208 1 is_stmt 0 view .LVU1281
 3461 0000 2DE9F041 		push	{r4, r5, r6, r7, r8, lr}
 3462              		.cfi_def_cfa_offset 24
 3463              		.cfi_offset 4, -24
 3464              		.cfi_offset 5, -20
 3465              		.cfi_offset 6, -16
 3466              		.cfi_offset 7, -12
 3467              		.cfi_offset 8, -8
 3468              		.cfi_offset 14, -4
 214:Drivers/lvgl/src/extra/widgets/meter/lv_meter.c ****         inv_arc(obj, indic, old_start, value);
 3469              		.loc 1 214 13 view .LVU1282
 3470 0004 0B79     		ldrb	r3, [r1, #4]	@ zero_extendqisi2
 210:Drivers/lvgl/src/extra/widgets/meter/lv_meter.c ****     indic->start_value = value;
 3471              		.loc 1 210 13 view .LVU1283
 3472 0006 CF68     		ldr	r7, [r1, #12]
 208:Drivers/lvgl/src/extra/widgets/meter/lv_meter.c ****     int32_t old_start = indic->start_value;
 3473              		.loc 1 208 1 view .LVU1284
 3474 0008 1546     		mov	r5, r2
 214:Drivers/lvgl/src/extra/widgets/meter/lv_meter.c ****         inv_arc(obj, indic, old_start, value);
 3475              		.loc 1 214 7 view .LVU1285
 3476 000a 032B     		cmp	r3, #3
 209:Drivers/lvgl/src/extra/widgets/meter/lv_meter.c ****     int32_t old_end = indic->end_value;
 3477              		.loc 1 209 13 view .LVU1286
 3478 000c 8A68     		ldr	r2, [r1, #8]
 3479              	.LVL314:
 210:Drivers/lvgl/src/extra/widgets/meter/lv_meter.c ****     indic->start_value = value;
ARM GAS  /var/folders/0z/tsy30v1j4xl4_7kw94k978ww0000gn/T//ccjxQgZI.s 			page 113


 3480              		.loc 1 210 5 is_stmt 1 view .LVU1287
 211:Drivers/lvgl/src/extra/widgets/meter/lv_meter.c ****     indic->end_value = value;
 3481              		.loc 1 211 5 view .LVU1288
 212:Drivers/lvgl/src/extra/widgets/meter/lv_meter.c **** 
 3482              		.loc 1 212 5 view .LVU1289
 212:Drivers/lvgl/src/extra/widgets/meter/lv_meter.c **** 
 3483              		.loc 1 212 22 is_stmt 0 view .LVU1290
 3484 000e CD60     		str	r5, [r1, #12]
 214:Drivers/lvgl/src/extra/widgets/meter/lv_meter.c ****         inv_arc(obj, indic, old_start, value);
 3485              		.loc 1 214 5 is_stmt 1 view .LVU1291
 208:Drivers/lvgl/src/extra/widgets/meter/lv_meter.c ****     int32_t old_start = indic->start_value;
 3486              		.loc 1 208 1 is_stmt 0 view .LVU1292
 3487 0010 0C46     		mov	r4, r1
 3488 0012 0646     		mov	r6, r0
 211:Drivers/lvgl/src/extra/widgets/meter/lv_meter.c ****     indic->end_value = value;
 3489              		.loc 1 211 24 view .LVU1293
 3490 0014 8D60     		str	r5, [r1, #8]
 214:Drivers/lvgl/src/extra/widgets/meter/lv_meter.c ****         inv_arc(obj, indic, old_start, value);
 3491              		.loc 1 214 7 view .LVU1294
 3492 0016 13D0     		beq	.L111
 218:Drivers/lvgl/src/extra/widgets/meter/lv_meter.c ****         inv_line(obj, indic, old_start);
 3493              		.loc 1 218 10 is_stmt 1 view .LVU1295
 218:Drivers/lvgl/src/extra/widgets/meter/lv_meter.c ****         inv_line(obj, indic, old_start);
 3494              		.loc 1 218 12 is_stmt 0 view .LVU1296
 3495 0018 012B     		cmp	r3, #1
 3496 001a 03D9     		bls	.L112
 224:Drivers/lvgl/src/extra/widgets/meter/lv_meter.c ****     }
 3497              		.loc 1 224 9 is_stmt 1 view .LVU1297
 226:Drivers/lvgl/src/extra/widgets/meter/lv_meter.c **** 
 3498              		.loc 1 226 1 is_stmt 0 view .LVU1298
 3499 001c BDE8F041 		pop	{r4, r5, r6, r7, r8, lr}
 3500              		.cfi_remember_state
 3501              		.cfi_restore 14
 3502              		.cfi_restore 8
 3503              		.cfi_restore 7
 3504              		.cfi_restore 6
 3505              		.cfi_restore 5
 3506              		.cfi_restore 4
 3507              		.cfi_def_cfa_offset 0
 3508              	.LVL315:
 224:Drivers/lvgl/src/extra/widgets/meter/lv_meter.c ****     }
 3509              		.loc 1 224 9 view .LVU1299
 3510 0020 FFF7FEBF 		b	lv_obj_invalidate
 3511              	.LVL316:
 3512              	.L112:
 3513              		.cfi_restore_state
 219:Drivers/lvgl/src/extra/widgets/meter/lv_meter.c ****         inv_line(obj, indic, old_end);
 3514              		.loc 1 219 9 is_stmt 1 view .LVU1300
 3515 0024 FFF7FEFF 		bl	inv_line
 3516              	.LVL317:
 220:Drivers/lvgl/src/extra/widgets/meter/lv_meter.c ****         inv_line(obj, indic, value);
 3517              		.loc 1 220 9 view .LVU1301
 3518 0028 3A46     		mov	r2, r7
 3519 002a 2146     		mov	r1, r4
 3520 002c 3046     		mov	r0, r6
 3521 002e FFF7FEFF 		bl	inv_line
 3522              	.LVL318:
ARM GAS  /var/folders/0z/tsy30v1j4xl4_7kw94k978ww0000gn/T//ccjxQgZI.s 			page 114


 221:Drivers/lvgl/src/extra/widgets/meter/lv_meter.c ****     }
 3523              		.loc 1 221 9 view .LVU1302
 3524 0032 2A46     		mov	r2, r5
 3525 0034 2146     		mov	r1, r4
 3526 0036 3046     		mov	r0, r6
 226:Drivers/lvgl/src/extra/widgets/meter/lv_meter.c **** 
 3527              		.loc 1 226 1 is_stmt 0 view .LVU1303
 3528 0038 BDE8F041 		pop	{r4, r5, r6, r7, r8, lr}
 3529              		.cfi_remember_state
 3530              		.cfi_restore 14
 3531              		.cfi_restore 8
 3532              		.cfi_restore 7
 3533              		.cfi_restore 6
 3534              		.cfi_restore 5
 3535              		.cfi_restore 4
 3536              		.cfi_def_cfa_offset 0
 3537              	.LVL319:
 221:Drivers/lvgl/src/extra/widgets/meter/lv_meter.c ****     }
 3538              		.loc 1 221 9 view .LVU1304
 3539 003c FFF7FEBF 		b	inv_line
 3540              	.LVL320:
 3541              	.L111:
 3542              		.cfi_restore_state
 215:Drivers/lvgl/src/extra/widgets/meter/lv_meter.c ****         inv_arc(obj, indic, old_end, value);
 3543              		.loc 1 215 9 is_stmt 1 view .LVU1305
 3544 0040 2B46     		mov	r3, r5
 3545 0042 FFF7FEFF 		bl	inv_arc
 3546              	.LVL321:
 216:Drivers/lvgl/src/extra/widgets/meter/lv_meter.c ****     }
 3547              		.loc 1 216 9 view .LVU1306
 3548 0046 2B46     		mov	r3, r5
 3549 0048 3A46     		mov	r2, r7
 3550 004a 2146     		mov	r1, r4
 3551 004c 3046     		mov	r0, r6
 226:Drivers/lvgl/src/extra/widgets/meter/lv_meter.c **** 
 3552              		.loc 1 226 1 is_stmt 0 view .LVU1307
 3553 004e BDE8F041 		pop	{r4, r5, r6, r7, r8, lr}
 3554              		.cfi_restore 14
 3555              		.cfi_restore 8
 3556              		.cfi_restore 7
 3557              		.cfi_restore 6
 3558              		.cfi_restore 5
 3559              		.cfi_restore 4
 3560              		.cfi_def_cfa_offset 0
 3561              	.LVL322:
 216:Drivers/lvgl/src/extra/widgets/meter/lv_meter.c ****     }
 3562              		.loc 1 216 9 view .LVU1308
 3563 0052 FFF7FEBF 		b	inv_arc
 3564              	.LVL323:
 216:Drivers/lvgl/src/extra/widgets/meter/lv_meter.c ****     }
 3565              		.loc 1 216 9 view .LVU1309
 3566              		.cfi_endproc
 3567              	.LFE213:
 3569 0056 00BF     		.section	.text.lv_meter_set_indicator_start_value,"ax",%progbits
 3570              		.align	1
 3571              		.p2align 2,,3
 3572              		.global	lv_meter_set_indicator_start_value
ARM GAS  /var/folders/0z/tsy30v1j4xl4_7kw94k978ww0000gn/T//ccjxQgZI.s 			page 115


 3573              		.syntax unified
 3574              		.thumb
 3575              		.thumb_func
 3577              	lv_meter_set_indicator_start_value:
 3578              	.LVL324:
 3579              	.LFB214:
 229:Drivers/lvgl/src/extra/widgets/meter/lv_meter.c ****     int32_t old_value = indic->start_value;
 3580              		.loc 1 229 1 is_stmt 1 view -0
 3581              		.cfi_startproc
 3582              		@ args = 0, pretend = 0, frame = 0
 3583              		@ frame_needed = 0, uses_anonymous_args = 0
 230:Drivers/lvgl/src/extra/widgets/meter/lv_meter.c ****     indic->start_value = value;
 3584              		.loc 1 230 5 view .LVU1311
 229:Drivers/lvgl/src/extra/widgets/meter/lv_meter.c ****     int32_t old_value = indic->start_value;
 3585              		.loc 1 229 1 is_stmt 0 view .LVU1312
 3586 0000 70B5     		push	{r4, r5, r6, lr}
 3587              		.cfi_def_cfa_offset 16
 3588              		.cfi_offset 4, -16
 3589              		.cfi_offset 5, -12
 3590              		.cfi_offset 6, -8
 3591              		.cfi_offset 14, -4
 233:Drivers/lvgl/src/extra/widgets/meter/lv_meter.c ****         inv_arc(obj, indic, old_value, value);
 3592              		.loc 1 233 13 view .LVU1313
 3593 0002 0B79     		ldrb	r3, [r1, #4]	@ zero_extendqisi2
 229:Drivers/lvgl/src/extra/widgets/meter/lv_meter.c ****     int32_t old_value = indic->start_value;
 3594              		.loc 1 229 1 view .LVU1314
 3595 0004 1546     		mov	r5, r2
 233:Drivers/lvgl/src/extra/widgets/meter/lv_meter.c ****         inv_arc(obj, indic, old_value, value);
 3596              		.loc 1 233 7 view .LVU1315
 3597 0006 032B     		cmp	r3, #3
 230:Drivers/lvgl/src/extra/widgets/meter/lv_meter.c ****     indic->start_value = value;
 3598              		.loc 1 230 13 view .LVU1316
 3599 0008 8A68     		ldr	r2, [r1, #8]
 3600              	.LVL325:
 231:Drivers/lvgl/src/extra/widgets/meter/lv_meter.c **** 
 3601              		.loc 1 231 5 is_stmt 1 view .LVU1317
 231:Drivers/lvgl/src/extra/widgets/meter/lv_meter.c **** 
 3602              		.loc 1 231 24 is_stmt 0 view .LVU1318
 3603 000a 8D60     		str	r5, [r1, #8]
 233:Drivers/lvgl/src/extra/widgets/meter/lv_meter.c ****         inv_arc(obj, indic, old_value, value);
 3604              		.loc 1 233 5 is_stmt 1 view .LVU1319
 233:Drivers/lvgl/src/extra/widgets/meter/lv_meter.c ****         inv_arc(obj, indic, old_value, value);
 3605              		.loc 1 233 7 is_stmt 0 view .LVU1320
 3606 000c 10D0     		beq	.L117
 236:Drivers/lvgl/src/extra/widgets/meter/lv_meter.c ****         inv_line(obj, indic, old_value);
 3607              		.loc 1 236 10 is_stmt 1 view .LVU1321
 236:Drivers/lvgl/src/extra/widgets/meter/lv_meter.c ****         inv_line(obj, indic, old_value);
 3608              		.loc 1 236 12 is_stmt 0 view .LVU1322
 3609 000e 012B     		cmp	r3, #1
 3610 0010 03D9     		bls	.L118
 241:Drivers/lvgl/src/extra/widgets/meter/lv_meter.c ****     }
 3611              		.loc 1 241 9 is_stmt 1 view .LVU1323
 243:Drivers/lvgl/src/extra/widgets/meter/lv_meter.c **** 
 3612              		.loc 1 243 1 is_stmt 0 view .LVU1324
 3613 0012 BDE87040 		pop	{r4, r5, r6, lr}
 3614              		.cfi_remember_state
 3615              		.cfi_restore 14
ARM GAS  /var/folders/0z/tsy30v1j4xl4_7kw94k978ww0000gn/T//ccjxQgZI.s 			page 116


 3616              		.cfi_restore 6
 3617              		.cfi_restore 5
 3618              		.cfi_restore 4
 3619              		.cfi_def_cfa_offset 0
 3620              	.LVL326:
 241:Drivers/lvgl/src/extra/widgets/meter/lv_meter.c ****     }
 3621              		.loc 1 241 9 view .LVU1325
 3622 0016 FFF7FEBF 		b	lv_obj_invalidate
 3623              	.LVL327:
 3624              	.L118:
 3625              		.cfi_restore_state
 241:Drivers/lvgl/src/extra/widgets/meter/lv_meter.c ****     }
 3626              		.loc 1 241 9 view .LVU1326
 3627 001a 0C46     		mov	r4, r1
 3628 001c 0646     		mov	r6, r0
 237:Drivers/lvgl/src/extra/widgets/meter/lv_meter.c ****         inv_line(obj, indic, value);
 3629              		.loc 1 237 9 is_stmt 1 view .LVU1327
 3630 001e FFF7FEFF 		bl	inv_line
 3631              	.LVL328:
 238:Drivers/lvgl/src/extra/widgets/meter/lv_meter.c ****     }
 3632              		.loc 1 238 9 view .LVU1328
 3633 0022 2A46     		mov	r2, r5
 3634 0024 2146     		mov	r1, r4
 3635 0026 3046     		mov	r0, r6
 243:Drivers/lvgl/src/extra/widgets/meter/lv_meter.c **** 
 3636              		.loc 1 243 1 is_stmt 0 view .LVU1329
 3637 0028 BDE87040 		pop	{r4, r5, r6, lr}
 3638              		.cfi_remember_state
 3639              		.cfi_restore 14
 3640              		.cfi_restore 6
 3641              		.cfi_restore 5
 3642              		.cfi_restore 4
 3643              		.cfi_def_cfa_offset 0
 3644              	.LVL329:
 238:Drivers/lvgl/src/extra/widgets/meter/lv_meter.c ****     }
 3645              		.loc 1 238 9 view .LVU1330
 3646 002c FFF7FEBF 		b	inv_line
 3647              	.LVL330:
 3648              	.L117:
 3649              		.cfi_restore_state
 234:Drivers/lvgl/src/extra/widgets/meter/lv_meter.c ****     }
 3650              		.loc 1 234 9 is_stmt 1 view .LVU1331
 3651 0030 2B46     		mov	r3, r5
 243:Drivers/lvgl/src/extra/widgets/meter/lv_meter.c **** 
 3652              		.loc 1 243 1 is_stmt 0 view .LVU1332
 3653 0032 BDE87040 		pop	{r4, r5, r6, lr}
 3654              		.cfi_restore 14
 3655              		.cfi_restore 6
 3656              		.cfi_restore 5
 3657              		.cfi_restore 4
 3658              		.cfi_def_cfa_offset 0
 3659              	.LVL331:
 234:Drivers/lvgl/src/extra/widgets/meter/lv_meter.c ****     }
 3660              		.loc 1 234 9 view .LVU1333
 3661 0036 FFF7FEBF 		b	inv_arc
 3662              	.LVL332:
 234:Drivers/lvgl/src/extra/widgets/meter/lv_meter.c ****     }
ARM GAS  /var/folders/0z/tsy30v1j4xl4_7kw94k978ww0000gn/T//ccjxQgZI.s 			page 117


 3663              		.loc 1 234 9 view .LVU1334
 3664              		.cfi_endproc
 3665              	.LFE214:
 3667 003a 00BF     		.section	.text.lv_meter_set_indicator_end_value,"ax",%progbits
 3668              		.align	1
 3669              		.p2align 2,,3
 3670              		.global	lv_meter_set_indicator_end_value
 3671              		.syntax unified
 3672              		.thumb
 3673              		.thumb_func
 3675              	lv_meter_set_indicator_end_value:
 3676              	.LVL333:
 3677              	.LFB215:
 246:Drivers/lvgl/src/extra/widgets/meter/lv_meter.c ****     int32_t old_value = indic->end_value;
 3678              		.loc 1 246 1 is_stmt 1 view -0
 3679              		.cfi_startproc
 3680              		@ args = 0, pretend = 0, frame = 0
 3681              		@ frame_needed = 0, uses_anonymous_args = 0
 247:Drivers/lvgl/src/extra/widgets/meter/lv_meter.c ****     indic->end_value = value;
 3682              		.loc 1 247 5 view .LVU1336
 246:Drivers/lvgl/src/extra/widgets/meter/lv_meter.c ****     int32_t old_value = indic->end_value;
 3683              		.loc 1 246 1 is_stmt 0 view .LVU1337
 3684 0000 70B5     		push	{r4, r5, r6, lr}
 3685              		.cfi_def_cfa_offset 16
 3686              		.cfi_offset 4, -16
 3687              		.cfi_offset 5, -12
 3688              		.cfi_offset 6, -8
 3689              		.cfi_offset 14, -4
 250:Drivers/lvgl/src/extra/widgets/meter/lv_meter.c ****         inv_arc(obj, indic, old_value, value);
 3690              		.loc 1 250 13 view .LVU1338
 3691 0002 0B79     		ldrb	r3, [r1, #4]	@ zero_extendqisi2
 246:Drivers/lvgl/src/extra/widgets/meter/lv_meter.c ****     int32_t old_value = indic->end_value;
 3692              		.loc 1 246 1 view .LVU1339
 3693 0004 1546     		mov	r5, r2
 250:Drivers/lvgl/src/extra/widgets/meter/lv_meter.c ****         inv_arc(obj, indic, old_value, value);
 3694              		.loc 1 250 7 view .LVU1340
 3695 0006 032B     		cmp	r3, #3
 247:Drivers/lvgl/src/extra/widgets/meter/lv_meter.c ****     indic->end_value = value;
 3696              		.loc 1 247 13 view .LVU1341
 3697 0008 CA68     		ldr	r2, [r1, #12]
 3698              	.LVL334:
 248:Drivers/lvgl/src/extra/widgets/meter/lv_meter.c **** 
 3699              		.loc 1 248 5 is_stmt 1 view .LVU1342
 248:Drivers/lvgl/src/extra/widgets/meter/lv_meter.c **** 
 3700              		.loc 1 248 22 is_stmt 0 view .LVU1343
 3701 000a CD60     		str	r5, [r1, #12]
 250:Drivers/lvgl/src/extra/widgets/meter/lv_meter.c ****         inv_arc(obj, indic, old_value, value);
 3702              		.loc 1 250 5 is_stmt 1 view .LVU1344
 250:Drivers/lvgl/src/extra/widgets/meter/lv_meter.c ****         inv_arc(obj, indic, old_value, value);
 3703              		.loc 1 250 7 is_stmt 0 view .LVU1345
 3704 000c 10D0     		beq	.L123
 253:Drivers/lvgl/src/extra/widgets/meter/lv_meter.c ****         inv_line(obj, indic, old_value);
 3705              		.loc 1 253 10 is_stmt 1 view .LVU1346
 253:Drivers/lvgl/src/extra/widgets/meter/lv_meter.c ****         inv_line(obj, indic, old_value);
 3706              		.loc 1 253 12 is_stmt 0 view .LVU1347
 3707 000e 012B     		cmp	r3, #1
 3708 0010 03D9     		bls	.L124
ARM GAS  /var/folders/0z/tsy30v1j4xl4_7kw94k978ww0000gn/T//ccjxQgZI.s 			page 118


 258:Drivers/lvgl/src/extra/widgets/meter/lv_meter.c ****     }
 3709              		.loc 1 258 9 is_stmt 1 view .LVU1348
 260:Drivers/lvgl/src/extra/widgets/meter/lv_meter.c **** 
 3710              		.loc 1 260 1 is_stmt 0 view .LVU1349
 3711 0012 BDE87040 		pop	{r4, r5, r6, lr}
 3712              		.cfi_remember_state
 3713              		.cfi_restore 14
 3714              		.cfi_restore 6
 3715              		.cfi_restore 5
 3716              		.cfi_restore 4
 3717              		.cfi_def_cfa_offset 0
 3718              	.LVL335:
 258:Drivers/lvgl/src/extra/widgets/meter/lv_meter.c ****     }
 3719              		.loc 1 258 9 view .LVU1350
 3720 0016 FFF7FEBF 		b	lv_obj_invalidate
 3721              	.LVL336:
 3722              	.L124:
 3723              		.cfi_restore_state
 258:Drivers/lvgl/src/extra/widgets/meter/lv_meter.c ****     }
 3724              		.loc 1 258 9 view .LVU1351
 3725 001a 0C46     		mov	r4, r1
 3726 001c 0646     		mov	r6, r0
 254:Drivers/lvgl/src/extra/widgets/meter/lv_meter.c ****         inv_line(obj, indic, value);
 3727              		.loc 1 254 9 is_stmt 1 view .LVU1352
 3728 001e FFF7FEFF 		bl	inv_line
 3729              	.LVL337:
 255:Drivers/lvgl/src/extra/widgets/meter/lv_meter.c ****     }
 3730              		.loc 1 255 9 view .LVU1353
 3731 0022 2A46     		mov	r2, r5
 3732 0024 2146     		mov	r1, r4
 3733 0026 3046     		mov	r0, r6
 260:Drivers/lvgl/src/extra/widgets/meter/lv_meter.c **** 
 3734              		.loc 1 260 1 is_stmt 0 view .LVU1354
 3735 0028 BDE87040 		pop	{r4, r5, r6, lr}
 3736              		.cfi_remember_state
 3737              		.cfi_restore 14
 3738              		.cfi_restore 6
 3739              		.cfi_restore 5
 3740              		.cfi_restore 4
 3741              		.cfi_def_cfa_offset 0
 3742              	.LVL338:
 255:Drivers/lvgl/src/extra/widgets/meter/lv_meter.c ****     }
 3743              		.loc 1 255 9 view .LVU1355
 3744 002c FFF7FEBF 		b	inv_line
 3745              	.LVL339:
 3746              	.L123:
 3747              		.cfi_restore_state
 251:Drivers/lvgl/src/extra/widgets/meter/lv_meter.c ****     }
 3748              		.loc 1 251 9 is_stmt 1 view .LVU1356
 3749 0030 2B46     		mov	r3, r5
 260:Drivers/lvgl/src/extra/widgets/meter/lv_meter.c **** 
 3750              		.loc 1 260 1 is_stmt 0 view .LVU1357
 3751 0032 BDE87040 		pop	{r4, r5, r6, lr}
 3752              		.cfi_restore 14
 3753              		.cfi_restore 6
 3754              		.cfi_restore 5
 3755              		.cfi_restore 4
ARM GAS  /var/folders/0z/tsy30v1j4xl4_7kw94k978ww0000gn/T//ccjxQgZI.s 			page 119


 3756              		.cfi_def_cfa_offset 0
 3757              	.LVL340:
 251:Drivers/lvgl/src/extra/widgets/meter/lv_meter.c ****     }
 3758              		.loc 1 251 9 view .LVU1358
 3759 0036 FFF7FEBF 		b	inv_arc
 3760              	.LVL341:
 251:Drivers/lvgl/src/extra/widgets/meter/lv_meter.c ****     }
 3761              		.loc 1 251 9 view .LVU1359
 3762              		.cfi_endproc
 3763              	.LFE215:
 3765              		.global	lv_meter_class
 3766 003a 00BF     		.section	.rodata.lv_meter_class,"a"
 3767              		.align	2
 3768              		.set	.LANCHOR0,. + 0
 3771              	lv_meter_class:
 3772 0000 00000000 		.word	lv_obj_class
 3773 0004 00000000 		.word	lv_meter_constructor
 3774 0008 00000000 		.word	lv_meter_destructor
 3775 000c 00000000 		.space	4
 3776 0010 00000000 		.word	lv_meter_event
 3777 0014 00000000 		.space	4
 3778 0018 C0       		.byte	192
 3779 0019 03       		.byte	3
 3780 001a 00       		.byte	0
 3781 001b 00       		.space	1
 3782              		.text
 3783              	.Letext0:
 3784              		.file 6 "/Users/johannes/Library/Application Support/Code/User/globalStorage/bmd.stm32-for-vscode/
 3785              		.file 7 "/Users/johannes/Library/Application Support/Code/User/globalStorage/bmd.stm32-for-vscode/
 3786              		.file 8 "Drivers/lvgl/src/extra/widgets/meter/../../../../src/misc/lv_types.h"
 3787              		.file 9 "/Users/johannes/Library/Application Support/Code/User/globalStorage/bmd.stm32-for-vscode/
 3788              		.file 10 "Drivers/lvgl/src/extra/widgets/meter/../../../../src/hal/../draw/../misc/../font/lv_font
 3789              		.file 11 "Drivers/lvgl/src/extra/widgets/meter/../../../../src/hal/../draw/../misc/lv_txt.h"
 3790              		.file 12 "Drivers/lvgl/src/extra/widgets/meter/../../../../src/hal/../draw/../misc/lv_bidi.h"
 3791              		.file 13 "Drivers/lvgl/src/extra/widgets/meter/../../../../src/hal/../draw/../misc/lv_style.h"
 3792              		.file 14 "Drivers/lvgl/src/extra/widgets/meter/../../../../src/hal/../draw/lv_img_buf.h"
 3793              		.file 15 "Drivers/lvgl/src/extra/widgets/meter/../../../../src/core/lv_obj.h"
 3794              		.file 16 "Drivers/lvgl/src/extra/widgets/meter/../../../../src/hal/../draw/lv_draw_rect.h"
 3795              		.file 17 "Drivers/lvgl/src/extra/widgets/meter/../../../../src/hal/../draw/lv_draw_label.h"
 3796              		.file 18 "Drivers/lvgl/src/extra/widgets/meter/../../../../src/hal/../draw/lv_draw_img.h"
 3797              		.file 19 "Drivers/lvgl/src/extra/widgets/meter/../../../../src/hal/../draw/lv_draw_line.h"
 3798              		.file 20 "Drivers/lvgl/src/extra/widgets/meter/../../../../src/hal/../draw/lv_draw_arc.h"
 3799              		.file 21 "Drivers/lvgl/src/extra/widgets/meter/../../../../src/hal/../draw/lv_draw_mask.h"
 3800              		.file 22 "Drivers/lvgl/src/extra/widgets/meter/../../../../src/hal/../draw/lv_draw_layer.h"
 3801              		.file 23 "Drivers/lvgl/src/extra/widgets/meter/../../../../src/hal/../draw/lv_draw.h"
 3802              		.file 24 "Drivers/lvgl/src/extra/widgets/meter/../../../../src/hal/../misc/lv_ll.h"
 3803              		.file 25 "Drivers/lvgl/src/extra/widgets/meter/../../../../src/core/lv_group.h"
 3804              		.file 26 "Drivers/lvgl/src/extra/widgets/meter/../../../../src/core/lv_obj_scroll.h"
 3805              		.file 27 "Drivers/lvgl/src/extra/widgets/meter/../../../../src/core/lv_obj_style.h"
 3806              		.file 28 "Drivers/lvgl/src/extra/widgets/meter/../../../../src/core/lv_obj_draw.h"
 3807              		.file 29 "Drivers/lvgl/src/extra/widgets/meter/../../../../src/core/lv_obj_class.h"
 3808              		.file 30 "Drivers/lvgl/src/extra/widgets/meter/../../../../src/core/lv_event.h"
 3809              		.file 31 "Drivers/lvgl/src/extra/widgets/meter/../../../../src/widgets/lv_bar.h"
 3810              		.file 32 "Drivers/lvgl/src/extra/widgets/meter/../../../../src/extra/widgets/imgbtn/lv_imgbtn.h"
 3811              		.file 33 "Drivers/lvgl/src/extra/widgets/meter/lv_meter.h"
 3812              		.file 34 "Drivers/lvgl/src/extra/widgets/meter/../../../../src/hal/../draw/sw/../../core/lv_obj_po
 3813              		.file 35 "Drivers/lvgl/src/extra/widgets/meter/../../../../src/misc/lv_mem.h"
ARM GAS  /var/folders/0z/tsy30v1j4xl4_7kw94k978ww0000gn/T//ccjxQgZI.s 			page 120


 3814              		.file 36 "Drivers/lvgl/src/extra/widgets/meter/../../../../src/hal/../draw/lv_img_decoder.h"
 3815              		.file 37 "Drivers/lvgl/src/extra/widgets/meter/../../../../src/misc/lv_printf.h"
ARM GAS  /var/folders/0z/tsy30v1j4xl4_7kw94k978ww0000gn/T//ccjxQgZI.s 			page 121


DEFINED SYMBOLS
                            *ABS*:0000000000000000 lv_meter.c
/var/folders/0z/tsy30v1j4xl4_7kw94k978ww0000gn/T//ccjxQgZI.s:20     .text.lv_meter_destructor:0000000000000000 $t
/var/folders/0z/tsy30v1j4xl4_7kw94k978ww0000gn/T//ccjxQgZI.s:26     .text.lv_meter_destructor:0000000000000000 lv_meter_destructor
/var/folders/0z/tsy30v1j4xl4_7kw94k978ww0000gn/T//ccjxQgZI.s:69     .text.lv_meter_constructor:0000000000000000 $t
/var/folders/0z/tsy30v1j4xl4_7kw94k978ww0000gn/T//ccjxQgZI.s:75     .text.lv_meter_constructor:0000000000000000 lv_meter_constructor
/var/folders/0z/tsy30v1j4xl4_7kw94k978ww0000gn/T//ccjxQgZI.s:119    .text.inv_arc:0000000000000000 $t
/var/folders/0z/tsy30v1j4xl4_7kw94k978ww0000gn/T//ccjxQgZI.s:125    .text.inv_arc:0000000000000000 inv_arc
/var/folders/0z/tsy30v1j4xl4_7kw94k978ww0000gn/T//ccjxQgZI.s:351    .text.inv_line:0000000000000000 $t
/var/folders/0z/tsy30v1j4xl4_7kw94k978ww0000gn/T//ccjxQgZI.s:357    .text.inv_line:0000000000000000 inv_line
/var/folders/0z/tsy30v1j4xl4_7kw94k978ww0000gn/T//ccjxQgZI.s:754    .text.inv_line:00000000000001b8 $d
/var/folders/0z/tsy30v1j4xl4_7kw94k978ww0000gn/T//ccjxQgZI.s:759    .rodata.lv_meter_event.str1.4:0000000000000000 $d
/var/folders/0z/tsy30v1j4xl4_7kw94k978ww0000gn/T//ccjxQgZI.s:763    .text.lv_meter_event:0000000000000000 $t
/var/folders/0z/tsy30v1j4xl4_7kw94k978ww0000gn/T//ccjxQgZI.s:769    .text.lv_meter_event:0000000000000000 lv_meter_event
/var/folders/0z/tsy30v1j4xl4_7kw94k978ww0000gn/T//ccjxQgZI.s:832    .text.lv_meter_event:0000000000000020 $d
/var/folders/0z/tsy30v1j4xl4_7kw94k978ww0000gn/T//ccjxQgZI.s:842    .text.lv_meter_event:0000000000000024 $t
/var/folders/0z/tsy30v1j4xl4_7kw94k978ww0000gn/T//ccjxQgZI.s:1548   .text.lv_meter_event:000000000000035c $d
/var/folders/0z/tsy30v1j4xl4_7kw94k978ww0000gn/T//ccjxQgZI.s:1555   .text.lv_meter_event:0000000000000360 $t
/var/folders/0z/tsy30v1j4xl4_7kw94k978ww0000gn/T//ccjxQgZI.s:2249   .text.lv_meter_event:00000000000006c0 $d
/var/folders/0z/tsy30v1j4xl4_7kw94k978ww0000gn/T//ccjxQgZI.s:2258   .text.lv_meter_event:00000000000006cc $t
/var/folders/0z/tsy30v1j4xl4_7kw94k978ww0000gn/T//ccjxQgZI.s:2769   .text.lv_meter_create:0000000000000000 $t
/var/folders/0z/tsy30v1j4xl4_7kw94k978ww0000gn/T//ccjxQgZI.s:2776   .text.lv_meter_create:0000000000000000 lv_meter_create
/var/folders/0z/tsy30v1j4xl4_7kw94k978ww0000gn/T//ccjxQgZI.s:2815   .text.lv_meter_create:0000000000000014 $d
/var/folders/0z/tsy30v1j4xl4_7kw94k978ww0000gn/T//ccjxQgZI.s:2820   .text.lv_meter_add_scale:0000000000000000 $t
/var/folders/0z/tsy30v1j4xl4_7kw94k978ww0000gn/T//ccjxQgZI.s:2827   .text.lv_meter_add_scale:0000000000000000 lv_meter_add_scale
/var/folders/0z/tsy30v1j4xl4_7kw94k978ww0000gn/T//ccjxQgZI.s:2909   .text.lv_meter_add_scale:0000000000000038 $d
/var/folders/0z/tsy30v1j4xl4_7kw94k978ww0000gn/T//ccjxQgZI.s:2914   .text.lv_meter_set_scale_ticks:0000000000000000 $t
/var/folders/0z/tsy30v1j4xl4_7kw94k978ww0000gn/T//ccjxQgZI.s:2921   .text.lv_meter_set_scale_ticks:0000000000000000 lv_meter_set_scale_ticks
/var/folders/0z/tsy30v1j4xl4_7kw94k978ww0000gn/T//ccjxQgZI.s:2954   .text.lv_meter_set_scale_major_ticks:0000000000000000 $t
/var/folders/0z/tsy30v1j4xl4_7kw94k978ww0000gn/T//ccjxQgZI.s:2961   .text.lv_meter_set_scale_major_ticks:0000000000000000 lv_meter_set_scale_major_ticks
/var/folders/0z/tsy30v1j4xl4_7kw94k978ww0000gn/T//ccjxQgZI.s:3000   .text.lv_meter_set_scale_range:0000000000000000 $t
/var/folders/0z/tsy30v1j4xl4_7kw94k978ww0000gn/T//ccjxQgZI.s:3007   .text.lv_meter_set_scale_range:0000000000000000 lv_meter_set_scale_range
/var/folders/0z/tsy30v1j4xl4_7kw94k978ww0000gn/T//ccjxQgZI.s:3037   .text.lv_meter_add_needle_line:0000000000000000 $t
/var/folders/0z/tsy30v1j4xl4_7kw94k978ww0000gn/T//ccjxQgZI.s:3044   .text.lv_meter_add_needle_line:0000000000000000 lv_meter_add_needle_line
/var/folders/0z/tsy30v1j4xl4_7kw94k978ww0000gn/T//ccjxQgZI.s:3137   .text.lv_meter_add_needle_img:0000000000000000 $t
/var/folders/0z/tsy30v1j4xl4_7kw94k978ww0000gn/T//ccjxQgZI.s:3144   .text.lv_meter_add_needle_img:0000000000000000 lv_meter_add_needle_img
/var/folders/0z/tsy30v1j4xl4_7kw94k978ww0000gn/T//ccjxQgZI.s:3235   .text.lv_meter_add_arc:0000000000000000 $t
/var/folders/0z/tsy30v1j4xl4_7kw94k978ww0000gn/T//ccjxQgZI.s:3242   .text.lv_meter_add_arc:0000000000000000 lv_meter_add_arc
/var/folders/0z/tsy30v1j4xl4_7kw94k978ww0000gn/T//ccjxQgZI.s:3335   .text.lv_meter_add_scale_lines:0000000000000000 $t
/var/folders/0z/tsy30v1j4xl4_7kw94k978ww0000gn/T//ccjxQgZI.s:3342   .text.lv_meter_add_scale_lines:0000000000000000 lv_meter_add_scale_lines
/var/folders/0z/tsy30v1j4xl4_7kw94k978ww0000gn/T//ccjxQgZI.s:3445   .text.lv_meter_set_indicator_value:0000000000000000 $t
/var/folders/0z/tsy30v1j4xl4_7kw94k978ww0000gn/T//ccjxQgZI.s:3452   .text.lv_meter_set_indicator_value:0000000000000000 lv_meter_set_indicator_value
/var/folders/0z/tsy30v1j4xl4_7kw94k978ww0000gn/T//ccjxQgZI.s:3570   .text.lv_meter_set_indicator_start_value:0000000000000000 $t
/var/folders/0z/tsy30v1j4xl4_7kw94k978ww0000gn/T//ccjxQgZI.s:3577   .text.lv_meter_set_indicator_start_value:0000000000000000 lv_meter_set_indicator_start_value
/var/folders/0z/tsy30v1j4xl4_7kw94k978ww0000gn/T//ccjxQgZI.s:3668   .text.lv_meter_set_indicator_end_value:0000000000000000 $t
/var/folders/0z/tsy30v1j4xl4_7kw94k978ww0000gn/T//ccjxQgZI.s:3675   .text.lv_meter_set_indicator_end_value:0000000000000000 lv_meter_set_indicator_end_value
/var/folders/0z/tsy30v1j4xl4_7kw94k978ww0000gn/T//ccjxQgZI.s:3771   .rodata.lv_meter_class:0000000000000000 lv_meter_class
/var/folders/0z/tsy30v1j4xl4_7kw94k978ww0000gn/T//ccjxQgZI.s:3767   .rodata.lv_meter_class:0000000000000000 $d

UNDEFINED SYMBOLS
_lv_ll_clear
_lv_ll_init
lv_obj_get_style_prop
lv_obj_get_content_coords
lv_map
lv_draw_arc_get_area
lv_obj_invalidate_area
ARM GAS  /var/folders/0z/tsy30v1j4xl4_7kw94k978ww0000gn/T//ccjxQgZI.s 			page 122


lv_img_decoder_get_info
_lv_img_buf_get_transformed_area
lv_trigo_sin
lv_obj_event_base
lv_event_get_code
lv_event_get_target
lv_event_get_draw_ctx
lv_draw_arc_dsc_init
lv_obj_get_style_opa_recursive
lv_obj_draw_dsc_init
_lv_ll_get_tail
lv_event_send
lv_draw_arc
_lv_ll_get_prev
lv_draw_line_dsc_init
lv_obj_init_draw_line_dsc
lv_draw_label_dsc_init
lv_obj_init_draw_label_dsc
lv_draw_mask_radius_init
lv_draw_mask_add
lv_point_transform
lv_draw_mask_remove_id
lv_memcpy
lv_snprintf
lv_txt_get_size
lv_draw_label
lv_draw_line
lv_draw_mask_free_param
lv_draw_img_dsc_init
lv_obj_init_draw_img_dsc
lv_draw_img
lv_draw_rect_dsc_init
lv_obj_init_draw_rect_dsc
lv_draw_rect
lv_obj_class_create_obj
lv_obj_class_init_obj
_lv_ll_ins_head
lv_memset_00
lv_obj_invalidate
lv_obj_class
