ARM GAS  /var/folders/0z/tsy30v1j4xl4_7kw94k978ww0000gn/T//cceRZMx6.s 			page 1


   1              		.cpu cortex-m4
   2              		.arch armv7e-m
   3              		.fpu fpv4-sp-d16
   4              		.eabi_attribute 27, 1
   5              		.eabi_attribute 28, 1
   6              		.eabi_attribute 20, 1
   7              		.eabi_attribute 21, 1
   8              		.eabi_attribute 23, 3
   9              		.eabi_attribute 24, 1
  10              		.eabi_attribute 25, 1
  11              		.eabi_attribute 26, 1
  12              		.eabi_attribute 30, 2
  13              		.eabi_attribute 34, 1
  14              		.eabi_attribute 18, 4
  15              		.file	"lv_msgbox.c"
  16              		.text
  17              	.Ltext0:
  18              		.cfi_sections	.debug_frame
  19              		.section	.text.msgbox_close_click_event_cb,"ax",%progbits
  20              		.align	1
  21              		.p2align 2,,3
  22              		.syntax unified
  23              		.thumb
  24              		.thumb_func
  26              	msgbox_close_click_event_cb:
  27              	.LVL0:
  28              	.LFB214:
  29              		.file 1 "Drivers/lvgl/src/extra/widgets/msgbox/lv_msgbox.c"
   1:Drivers/lvgl/src/extra/widgets/msgbox/lv_msgbox.c **** /**
   2:Drivers/lvgl/src/extra/widgets/msgbox/lv_msgbox.c ****  * @file lv_msgbox.c
   3:Drivers/lvgl/src/extra/widgets/msgbox/lv_msgbox.c ****  *
   4:Drivers/lvgl/src/extra/widgets/msgbox/lv_msgbox.c ****  */
   5:Drivers/lvgl/src/extra/widgets/msgbox/lv_msgbox.c **** 
   6:Drivers/lvgl/src/extra/widgets/msgbox/lv_msgbox.c **** /*********************
   7:Drivers/lvgl/src/extra/widgets/msgbox/lv_msgbox.c ****  *      INCLUDES
   8:Drivers/lvgl/src/extra/widgets/msgbox/lv_msgbox.c ****  *********************/
   9:Drivers/lvgl/src/extra/widgets/msgbox/lv_msgbox.c **** #include "lv_msgbox.h"
  10:Drivers/lvgl/src/extra/widgets/msgbox/lv_msgbox.c **** #if LV_USE_MSGBOX
  11:Drivers/lvgl/src/extra/widgets/msgbox/lv_msgbox.c **** 
  12:Drivers/lvgl/src/extra/widgets/msgbox/lv_msgbox.c **** #include "../../../misc/lv_assert.h"
  13:Drivers/lvgl/src/extra/widgets/msgbox/lv_msgbox.c **** 
  14:Drivers/lvgl/src/extra/widgets/msgbox/lv_msgbox.c **** /*********************
  15:Drivers/lvgl/src/extra/widgets/msgbox/lv_msgbox.c ****  *      DEFINES
  16:Drivers/lvgl/src/extra/widgets/msgbox/lv_msgbox.c ****  *********************/
  17:Drivers/lvgl/src/extra/widgets/msgbox/lv_msgbox.c **** #define LV_MSGBOX_FLAG_AUTO_PARENT  LV_OBJ_FLAG_WIDGET_1        /*Mark that the parent was automati
  18:Drivers/lvgl/src/extra/widgets/msgbox/lv_msgbox.c **** #define MY_CLASS    &lv_msgbox_class
  19:Drivers/lvgl/src/extra/widgets/msgbox/lv_msgbox.c **** 
  20:Drivers/lvgl/src/extra/widgets/msgbox/lv_msgbox.c **** /**********************
  21:Drivers/lvgl/src/extra/widgets/msgbox/lv_msgbox.c ****  *      TYPEDEFS
  22:Drivers/lvgl/src/extra/widgets/msgbox/lv_msgbox.c ****  **********************/
  23:Drivers/lvgl/src/extra/widgets/msgbox/lv_msgbox.c **** 
  24:Drivers/lvgl/src/extra/widgets/msgbox/lv_msgbox.c **** /**********************
  25:Drivers/lvgl/src/extra/widgets/msgbox/lv_msgbox.c ****  *  STATIC PROTOTYPES
  26:Drivers/lvgl/src/extra/widgets/msgbox/lv_msgbox.c ****  **********************/
  27:Drivers/lvgl/src/extra/widgets/msgbox/lv_msgbox.c **** static void msgbox_close_click_event_cb(lv_event_t * e);
  28:Drivers/lvgl/src/extra/widgets/msgbox/lv_msgbox.c **** 
  29:Drivers/lvgl/src/extra/widgets/msgbox/lv_msgbox.c **** /**********************
ARM GAS  /var/folders/0z/tsy30v1j4xl4_7kw94k978ww0000gn/T//cceRZMx6.s 			page 2


  30:Drivers/lvgl/src/extra/widgets/msgbox/lv_msgbox.c ****  *  STATIC VARIABLES
  31:Drivers/lvgl/src/extra/widgets/msgbox/lv_msgbox.c ****  **********************/
  32:Drivers/lvgl/src/extra/widgets/msgbox/lv_msgbox.c **** const lv_obj_class_t lv_msgbox_class = {
  33:Drivers/lvgl/src/extra/widgets/msgbox/lv_msgbox.c ****     .base_class = &lv_obj_class,
  34:Drivers/lvgl/src/extra/widgets/msgbox/lv_msgbox.c ****     .width_def = LV_DPI_DEF * 2,
  35:Drivers/lvgl/src/extra/widgets/msgbox/lv_msgbox.c ****     .height_def = LV_SIZE_CONTENT,
  36:Drivers/lvgl/src/extra/widgets/msgbox/lv_msgbox.c ****     .instance_size = sizeof(lv_msgbox_t)
  37:Drivers/lvgl/src/extra/widgets/msgbox/lv_msgbox.c **** };
  38:Drivers/lvgl/src/extra/widgets/msgbox/lv_msgbox.c **** 
  39:Drivers/lvgl/src/extra/widgets/msgbox/lv_msgbox.c **** const lv_obj_class_t lv_msgbox_content_class = {
  40:Drivers/lvgl/src/extra/widgets/msgbox/lv_msgbox.c ****     .base_class = &lv_obj_class,
  41:Drivers/lvgl/src/extra/widgets/msgbox/lv_msgbox.c ****     .width_def = LV_PCT(100),
  42:Drivers/lvgl/src/extra/widgets/msgbox/lv_msgbox.c ****     .height_def = LV_SIZE_CONTENT,
  43:Drivers/lvgl/src/extra/widgets/msgbox/lv_msgbox.c ****     .instance_size = sizeof(lv_obj_t)
  44:Drivers/lvgl/src/extra/widgets/msgbox/lv_msgbox.c **** };
  45:Drivers/lvgl/src/extra/widgets/msgbox/lv_msgbox.c **** 
  46:Drivers/lvgl/src/extra/widgets/msgbox/lv_msgbox.c **** const lv_obj_class_t lv_msgbox_backdrop_class = {
  47:Drivers/lvgl/src/extra/widgets/msgbox/lv_msgbox.c ****     .base_class = &lv_obj_class,
  48:Drivers/lvgl/src/extra/widgets/msgbox/lv_msgbox.c ****     .width_def = LV_PCT(100),
  49:Drivers/lvgl/src/extra/widgets/msgbox/lv_msgbox.c ****     .height_def = LV_PCT(100),
  50:Drivers/lvgl/src/extra/widgets/msgbox/lv_msgbox.c ****     .instance_size = sizeof(lv_obj_t)
  51:Drivers/lvgl/src/extra/widgets/msgbox/lv_msgbox.c **** };
  52:Drivers/lvgl/src/extra/widgets/msgbox/lv_msgbox.c **** 
  53:Drivers/lvgl/src/extra/widgets/msgbox/lv_msgbox.c **** /**********************
  54:Drivers/lvgl/src/extra/widgets/msgbox/lv_msgbox.c ****  *      MACROS
  55:Drivers/lvgl/src/extra/widgets/msgbox/lv_msgbox.c ****  **********************/
  56:Drivers/lvgl/src/extra/widgets/msgbox/lv_msgbox.c **** 
  57:Drivers/lvgl/src/extra/widgets/msgbox/lv_msgbox.c **** /**********************
  58:Drivers/lvgl/src/extra/widgets/msgbox/lv_msgbox.c ****  *   GLOBAL FUNCTIONS
  59:Drivers/lvgl/src/extra/widgets/msgbox/lv_msgbox.c ****  **********************/
  60:Drivers/lvgl/src/extra/widgets/msgbox/lv_msgbox.c **** 
  61:Drivers/lvgl/src/extra/widgets/msgbox/lv_msgbox.c **** lv_obj_t * lv_msgbox_create(lv_obj_t * parent, const char * title, const char * txt, const char * b
  62:Drivers/lvgl/src/extra/widgets/msgbox/lv_msgbox.c ****                             bool add_close_btn)
  63:Drivers/lvgl/src/extra/widgets/msgbox/lv_msgbox.c **** {
  64:Drivers/lvgl/src/extra/widgets/msgbox/lv_msgbox.c ****     LV_LOG_INFO("begin");
  65:Drivers/lvgl/src/extra/widgets/msgbox/lv_msgbox.c ****     bool auto_parent = false;
  66:Drivers/lvgl/src/extra/widgets/msgbox/lv_msgbox.c ****     if(parent == NULL) {
  67:Drivers/lvgl/src/extra/widgets/msgbox/lv_msgbox.c ****         auto_parent = true;
  68:Drivers/lvgl/src/extra/widgets/msgbox/lv_msgbox.c ****         parent = lv_obj_class_create_obj(&lv_msgbox_backdrop_class, lv_layer_top());
  69:Drivers/lvgl/src/extra/widgets/msgbox/lv_msgbox.c ****         LV_ASSERT_MALLOC(parent);
  70:Drivers/lvgl/src/extra/widgets/msgbox/lv_msgbox.c ****         lv_obj_class_init_obj(parent);
  71:Drivers/lvgl/src/extra/widgets/msgbox/lv_msgbox.c ****         lv_obj_clear_flag(parent, LV_OBJ_FLAG_IGNORE_LAYOUT);
  72:Drivers/lvgl/src/extra/widgets/msgbox/lv_msgbox.c ****         lv_obj_set_size(parent, LV_PCT(100), LV_PCT(100));
  73:Drivers/lvgl/src/extra/widgets/msgbox/lv_msgbox.c ****     }
  74:Drivers/lvgl/src/extra/widgets/msgbox/lv_msgbox.c **** 
  75:Drivers/lvgl/src/extra/widgets/msgbox/lv_msgbox.c ****     lv_obj_t * obj = lv_obj_class_create_obj(&lv_msgbox_class, parent);
  76:Drivers/lvgl/src/extra/widgets/msgbox/lv_msgbox.c ****     LV_ASSERT_MALLOC(obj);
  77:Drivers/lvgl/src/extra/widgets/msgbox/lv_msgbox.c ****     if(obj == NULL) return NULL;
  78:Drivers/lvgl/src/extra/widgets/msgbox/lv_msgbox.c ****     lv_obj_class_init_obj(obj);
  79:Drivers/lvgl/src/extra/widgets/msgbox/lv_msgbox.c ****     lv_msgbox_t * mbox = (lv_msgbox_t *)obj;
  80:Drivers/lvgl/src/extra/widgets/msgbox/lv_msgbox.c **** 
  81:Drivers/lvgl/src/extra/widgets/msgbox/lv_msgbox.c ****     if(auto_parent) lv_obj_add_flag(obj, LV_MSGBOX_FLAG_AUTO_PARENT);
  82:Drivers/lvgl/src/extra/widgets/msgbox/lv_msgbox.c **** 
  83:Drivers/lvgl/src/extra/widgets/msgbox/lv_msgbox.c ****     lv_obj_set_flex_flow(obj, LV_FLEX_FLOW_ROW_WRAP);
  84:Drivers/lvgl/src/extra/widgets/msgbox/lv_msgbox.c **** 
  85:Drivers/lvgl/src/extra/widgets/msgbox/lv_msgbox.c ****     bool has_title = title && strlen(title) > 0;
  86:Drivers/lvgl/src/extra/widgets/msgbox/lv_msgbox.c **** 
ARM GAS  /var/folders/0z/tsy30v1j4xl4_7kw94k978ww0000gn/T//cceRZMx6.s 			page 3


  87:Drivers/lvgl/src/extra/widgets/msgbox/lv_msgbox.c ****     /*When a close button is required, we need the empty label as spacer to push the button to the 
  88:Drivers/lvgl/src/extra/widgets/msgbox/lv_msgbox.c ****     if(add_close_btn || has_title) {
  89:Drivers/lvgl/src/extra/widgets/msgbox/lv_msgbox.c ****         mbox->title = lv_label_create(obj);
  90:Drivers/lvgl/src/extra/widgets/msgbox/lv_msgbox.c ****         lv_label_set_text(mbox->title, has_title ? title : "");
  91:Drivers/lvgl/src/extra/widgets/msgbox/lv_msgbox.c ****         lv_label_set_long_mode(mbox->title, LV_LABEL_LONG_SCROLL_CIRCULAR);
  92:Drivers/lvgl/src/extra/widgets/msgbox/lv_msgbox.c ****         if(add_close_btn) lv_obj_set_flex_grow(mbox->title, 1);
  93:Drivers/lvgl/src/extra/widgets/msgbox/lv_msgbox.c ****         else lv_obj_set_width(mbox->title, LV_PCT(100));
  94:Drivers/lvgl/src/extra/widgets/msgbox/lv_msgbox.c ****     }
  95:Drivers/lvgl/src/extra/widgets/msgbox/lv_msgbox.c **** 
  96:Drivers/lvgl/src/extra/widgets/msgbox/lv_msgbox.c ****     if(add_close_btn) {
  97:Drivers/lvgl/src/extra/widgets/msgbox/lv_msgbox.c ****         mbox->close_btn = lv_btn_create(obj);
  98:Drivers/lvgl/src/extra/widgets/msgbox/lv_msgbox.c ****         lv_obj_set_ext_click_area(mbox->close_btn, LV_DPX(10));
  99:Drivers/lvgl/src/extra/widgets/msgbox/lv_msgbox.c ****         lv_obj_add_event_cb(mbox->close_btn, msgbox_close_click_event_cb, LV_EVENT_CLICKED, NULL);
 100:Drivers/lvgl/src/extra/widgets/msgbox/lv_msgbox.c ****         lv_obj_t * label = lv_label_create(mbox->close_btn);
 101:Drivers/lvgl/src/extra/widgets/msgbox/lv_msgbox.c ****         lv_label_set_text(label, LV_SYMBOL_CLOSE);
 102:Drivers/lvgl/src/extra/widgets/msgbox/lv_msgbox.c ****         const lv_font_t * font = lv_obj_get_style_text_font(mbox->close_btn, LV_PART_MAIN);
 103:Drivers/lvgl/src/extra/widgets/msgbox/lv_msgbox.c ****         lv_coord_t close_btn_size = lv_font_get_line_height(font) + LV_DPX(10);
 104:Drivers/lvgl/src/extra/widgets/msgbox/lv_msgbox.c ****         lv_obj_set_size(mbox->close_btn, close_btn_size, close_btn_size);
 105:Drivers/lvgl/src/extra/widgets/msgbox/lv_msgbox.c ****         lv_obj_align(label, LV_ALIGN_CENTER, 0, 0);
 106:Drivers/lvgl/src/extra/widgets/msgbox/lv_msgbox.c ****     }
 107:Drivers/lvgl/src/extra/widgets/msgbox/lv_msgbox.c **** 
 108:Drivers/lvgl/src/extra/widgets/msgbox/lv_msgbox.c ****     mbox->content = lv_obj_class_create_obj(&lv_msgbox_content_class, obj);
 109:Drivers/lvgl/src/extra/widgets/msgbox/lv_msgbox.c ****     LV_ASSERT_MALLOC(mbox->content);
 110:Drivers/lvgl/src/extra/widgets/msgbox/lv_msgbox.c ****     if(mbox->content == NULL) return NULL;
 111:Drivers/lvgl/src/extra/widgets/msgbox/lv_msgbox.c ****     lv_obj_class_init_obj(mbox->content);
 112:Drivers/lvgl/src/extra/widgets/msgbox/lv_msgbox.c **** 
 113:Drivers/lvgl/src/extra/widgets/msgbox/lv_msgbox.c ****     bool has_txt = txt && strlen(txt) > 0;
 114:Drivers/lvgl/src/extra/widgets/msgbox/lv_msgbox.c ****     if(has_txt) {
 115:Drivers/lvgl/src/extra/widgets/msgbox/lv_msgbox.c ****         mbox->text = lv_label_create(mbox->content);
 116:Drivers/lvgl/src/extra/widgets/msgbox/lv_msgbox.c ****         lv_label_set_text(mbox->text, txt);
 117:Drivers/lvgl/src/extra/widgets/msgbox/lv_msgbox.c ****         lv_label_set_long_mode(mbox->text, LV_LABEL_LONG_WRAP);
 118:Drivers/lvgl/src/extra/widgets/msgbox/lv_msgbox.c ****         lv_obj_set_width(mbox->text, lv_pct(100));
 119:Drivers/lvgl/src/extra/widgets/msgbox/lv_msgbox.c ****     }
 120:Drivers/lvgl/src/extra/widgets/msgbox/lv_msgbox.c **** 
 121:Drivers/lvgl/src/extra/widgets/msgbox/lv_msgbox.c ****     if(btn_txts) {
 122:Drivers/lvgl/src/extra/widgets/msgbox/lv_msgbox.c ****         mbox->btns = lv_btnmatrix_create(obj);
 123:Drivers/lvgl/src/extra/widgets/msgbox/lv_msgbox.c ****         lv_btnmatrix_set_map(mbox->btns, btn_txts);
 124:Drivers/lvgl/src/extra/widgets/msgbox/lv_msgbox.c ****         lv_btnmatrix_set_btn_ctrl_all(mbox->btns, LV_BTNMATRIX_CTRL_CLICK_TRIG | LV_BTNMATRIX_CTRL_
 125:Drivers/lvgl/src/extra/widgets/msgbox/lv_msgbox.c **** 
 126:Drivers/lvgl/src/extra/widgets/msgbox/lv_msgbox.c ****         uint32_t btn_cnt = 0;
 127:Drivers/lvgl/src/extra/widgets/msgbox/lv_msgbox.c ****         while(btn_txts[btn_cnt] && btn_txts[btn_cnt][0] != '\0') {
 128:Drivers/lvgl/src/extra/widgets/msgbox/lv_msgbox.c ****             btn_cnt++;
 129:Drivers/lvgl/src/extra/widgets/msgbox/lv_msgbox.c ****         }
 130:Drivers/lvgl/src/extra/widgets/msgbox/lv_msgbox.c **** 
 131:Drivers/lvgl/src/extra/widgets/msgbox/lv_msgbox.c ****         const lv_font_t * font = lv_obj_get_style_text_font(mbox->btns, LV_PART_ITEMS);
 132:Drivers/lvgl/src/extra/widgets/msgbox/lv_msgbox.c ****         lv_coord_t btn_h = lv_font_get_line_height(font) + LV_DPI_DEF / 10;
 133:Drivers/lvgl/src/extra/widgets/msgbox/lv_msgbox.c ****         lv_obj_set_size(mbox->btns, btn_cnt * (2 * LV_DPI_DEF / 3), btn_h);
 134:Drivers/lvgl/src/extra/widgets/msgbox/lv_msgbox.c ****         lv_obj_set_style_max_width(mbox->btns, lv_pct(100), 0);
 135:Drivers/lvgl/src/extra/widgets/msgbox/lv_msgbox.c ****         lv_obj_add_flag(mbox->btns, LV_OBJ_FLAG_EVENT_BUBBLE);    /*To see the event directly on th
 136:Drivers/lvgl/src/extra/widgets/msgbox/lv_msgbox.c ****     }
 137:Drivers/lvgl/src/extra/widgets/msgbox/lv_msgbox.c **** 
 138:Drivers/lvgl/src/extra/widgets/msgbox/lv_msgbox.c ****     return obj;
 139:Drivers/lvgl/src/extra/widgets/msgbox/lv_msgbox.c **** }
 140:Drivers/lvgl/src/extra/widgets/msgbox/lv_msgbox.c **** 
 141:Drivers/lvgl/src/extra/widgets/msgbox/lv_msgbox.c **** 
 142:Drivers/lvgl/src/extra/widgets/msgbox/lv_msgbox.c **** lv_obj_t * lv_msgbox_get_title(lv_obj_t * obj)
 143:Drivers/lvgl/src/extra/widgets/msgbox/lv_msgbox.c **** {
ARM GAS  /var/folders/0z/tsy30v1j4xl4_7kw94k978ww0000gn/T//cceRZMx6.s 			page 4


 144:Drivers/lvgl/src/extra/widgets/msgbox/lv_msgbox.c ****     LV_ASSERT_OBJ(obj, MY_CLASS);
 145:Drivers/lvgl/src/extra/widgets/msgbox/lv_msgbox.c ****     lv_msgbox_t * mbox = (lv_msgbox_t *)obj;
 146:Drivers/lvgl/src/extra/widgets/msgbox/lv_msgbox.c ****     return mbox->title;
 147:Drivers/lvgl/src/extra/widgets/msgbox/lv_msgbox.c **** }
 148:Drivers/lvgl/src/extra/widgets/msgbox/lv_msgbox.c **** 
 149:Drivers/lvgl/src/extra/widgets/msgbox/lv_msgbox.c **** lv_obj_t * lv_msgbox_get_close_btn(lv_obj_t * obj)
 150:Drivers/lvgl/src/extra/widgets/msgbox/lv_msgbox.c **** {
 151:Drivers/lvgl/src/extra/widgets/msgbox/lv_msgbox.c ****     LV_ASSERT_OBJ(obj, MY_CLASS);
 152:Drivers/lvgl/src/extra/widgets/msgbox/lv_msgbox.c ****     lv_msgbox_t * mbox = (lv_msgbox_t *)obj;
 153:Drivers/lvgl/src/extra/widgets/msgbox/lv_msgbox.c ****     return mbox->close_btn;
 154:Drivers/lvgl/src/extra/widgets/msgbox/lv_msgbox.c **** }
 155:Drivers/lvgl/src/extra/widgets/msgbox/lv_msgbox.c **** 
 156:Drivers/lvgl/src/extra/widgets/msgbox/lv_msgbox.c **** lv_obj_t * lv_msgbox_get_text(lv_obj_t * obj)
 157:Drivers/lvgl/src/extra/widgets/msgbox/lv_msgbox.c **** {
 158:Drivers/lvgl/src/extra/widgets/msgbox/lv_msgbox.c ****     LV_ASSERT_OBJ(obj, MY_CLASS);
 159:Drivers/lvgl/src/extra/widgets/msgbox/lv_msgbox.c ****     lv_msgbox_t * mbox = (lv_msgbox_t *)obj;
 160:Drivers/lvgl/src/extra/widgets/msgbox/lv_msgbox.c ****     return mbox->text;
 161:Drivers/lvgl/src/extra/widgets/msgbox/lv_msgbox.c **** }
 162:Drivers/lvgl/src/extra/widgets/msgbox/lv_msgbox.c **** 
 163:Drivers/lvgl/src/extra/widgets/msgbox/lv_msgbox.c **** lv_obj_t * lv_msgbox_get_content(lv_obj_t * obj)
 164:Drivers/lvgl/src/extra/widgets/msgbox/lv_msgbox.c **** {
 165:Drivers/lvgl/src/extra/widgets/msgbox/lv_msgbox.c ****     LV_ASSERT_OBJ(obj, MY_CLASS);
 166:Drivers/lvgl/src/extra/widgets/msgbox/lv_msgbox.c ****     lv_msgbox_t * mbox = (lv_msgbox_t *)obj;
 167:Drivers/lvgl/src/extra/widgets/msgbox/lv_msgbox.c ****     return mbox->content;
 168:Drivers/lvgl/src/extra/widgets/msgbox/lv_msgbox.c **** }
 169:Drivers/lvgl/src/extra/widgets/msgbox/lv_msgbox.c **** 
 170:Drivers/lvgl/src/extra/widgets/msgbox/lv_msgbox.c **** lv_obj_t * lv_msgbox_get_btns(lv_obj_t * obj)
 171:Drivers/lvgl/src/extra/widgets/msgbox/lv_msgbox.c **** {
 172:Drivers/lvgl/src/extra/widgets/msgbox/lv_msgbox.c ****     LV_ASSERT_OBJ(obj, MY_CLASS);
 173:Drivers/lvgl/src/extra/widgets/msgbox/lv_msgbox.c ****     lv_msgbox_t * mbox = (lv_msgbox_t *)obj;
 174:Drivers/lvgl/src/extra/widgets/msgbox/lv_msgbox.c ****     return mbox->btns;
 175:Drivers/lvgl/src/extra/widgets/msgbox/lv_msgbox.c **** }
 176:Drivers/lvgl/src/extra/widgets/msgbox/lv_msgbox.c **** 
 177:Drivers/lvgl/src/extra/widgets/msgbox/lv_msgbox.c **** uint16_t lv_msgbox_get_active_btn(lv_obj_t * mbox)
 178:Drivers/lvgl/src/extra/widgets/msgbox/lv_msgbox.c **** {
 179:Drivers/lvgl/src/extra/widgets/msgbox/lv_msgbox.c ****     lv_obj_t * btnm = lv_msgbox_get_btns(mbox);
 180:Drivers/lvgl/src/extra/widgets/msgbox/lv_msgbox.c ****     return lv_btnmatrix_get_selected_btn(btnm);
 181:Drivers/lvgl/src/extra/widgets/msgbox/lv_msgbox.c **** }
 182:Drivers/lvgl/src/extra/widgets/msgbox/lv_msgbox.c **** 
 183:Drivers/lvgl/src/extra/widgets/msgbox/lv_msgbox.c **** const char * lv_msgbox_get_active_btn_text(lv_obj_t * mbox)
 184:Drivers/lvgl/src/extra/widgets/msgbox/lv_msgbox.c **** {
 185:Drivers/lvgl/src/extra/widgets/msgbox/lv_msgbox.c ****     lv_obj_t * btnm = lv_msgbox_get_btns(mbox);
 186:Drivers/lvgl/src/extra/widgets/msgbox/lv_msgbox.c ****     return lv_btnmatrix_get_btn_text(btnm, lv_btnmatrix_get_selected_btn(btnm));
 187:Drivers/lvgl/src/extra/widgets/msgbox/lv_msgbox.c **** }
 188:Drivers/lvgl/src/extra/widgets/msgbox/lv_msgbox.c **** 
 189:Drivers/lvgl/src/extra/widgets/msgbox/lv_msgbox.c **** void lv_msgbox_close(lv_obj_t * mbox)
 190:Drivers/lvgl/src/extra/widgets/msgbox/lv_msgbox.c **** {
 191:Drivers/lvgl/src/extra/widgets/msgbox/lv_msgbox.c ****     if(lv_obj_has_flag(mbox, LV_MSGBOX_FLAG_AUTO_PARENT)) lv_obj_del(lv_obj_get_parent(mbox));
 192:Drivers/lvgl/src/extra/widgets/msgbox/lv_msgbox.c ****     else lv_obj_del(mbox);
 193:Drivers/lvgl/src/extra/widgets/msgbox/lv_msgbox.c **** }
 194:Drivers/lvgl/src/extra/widgets/msgbox/lv_msgbox.c **** 
 195:Drivers/lvgl/src/extra/widgets/msgbox/lv_msgbox.c **** void lv_msgbox_close_async(lv_obj_t * dialog)
 196:Drivers/lvgl/src/extra/widgets/msgbox/lv_msgbox.c **** {
 197:Drivers/lvgl/src/extra/widgets/msgbox/lv_msgbox.c ****     if(lv_obj_has_flag(dialog, LV_MSGBOX_FLAG_AUTO_PARENT)) lv_obj_del_async(lv_obj_get_parent(dial
 198:Drivers/lvgl/src/extra/widgets/msgbox/lv_msgbox.c ****     else lv_obj_del_async(dialog);
 199:Drivers/lvgl/src/extra/widgets/msgbox/lv_msgbox.c **** }
 200:Drivers/lvgl/src/extra/widgets/msgbox/lv_msgbox.c **** 
ARM GAS  /var/folders/0z/tsy30v1j4xl4_7kw94k978ww0000gn/T//cceRZMx6.s 			page 5


 201:Drivers/lvgl/src/extra/widgets/msgbox/lv_msgbox.c **** /**********************
 202:Drivers/lvgl/src/extra/widgets/msgbox/lv_msgbox.c ****  *   STATIC FUNCTIONS
 203:Drivers/lvgl/src/extra/widgets/msgbox/lv_msgbox.c ****  **********************/
 204:Drivers/lvgl/src/extra/widgets/msgbox/lv_msgbox.c **** 
 205:Drivers/lvgl/src/extra/widgets/msgbox/lv_msgbox.c **** static void msgbox_close_click_event_cb(lv_event_t * e)
 206:Drivers/lvgl/src/extra/widgets/msgbox/lv_msgbox.c **** {
  30              		.loc 1 206 1 view -0
  31              		.cfi_startproc
  32              		@ args = 0, pretend = 0, frame = 0
  33              		@ frame_needed = 0, uses_anonymous_args = 0
 207:Drivers/lvgl/src/extra/widgets/msgbox/lv_msgbox.c ****     lv_obj_t * btn = lv_event_get_target(e);
  34              		.loc 1 207 5 view .LVU1
 206:Drivers/lvgl/src/extra/widgets/msgbox/lv_msgbox.c ****     lv_obj_t * btn = lv_event_get_target(e);
  35              		.loc 1 206 1 is_stmt 0 view .LVU2
  36 0000 10B5     		push	{r4, lr}
  37              		.cfi_def_cfa_offset 8
  38              		.cfi_offset 4, -8
  39              		.cfi_offset 14, -4
  40              		.loc 1 207 22 view .LVU3
  41 0002 FFF7FEFF 		bl	lv_event_get_target
  42              	.LVL1:
 208:Drivers/lvgl/src/extra/widgets/msgbox/lv_msgbox.c ****     lv_obj_t * mbox = lv_obj_get_parent(btn);
  43              		.loc 1 208 5 is_stmt 1 view .LVU4
  44              		.loc 1 208 23 is_stmt 0 view .LVU5
  45 0006 FFF7FEFF 		bl	lv_obj_get_parent
  46              	.LVL2:
  47              	.LBB24:
  48              	.LBB25:
 191:Drivers/lvgl/src/extra/widgets/msgbox/lv_msgbox.c ****     else lv_obj_del(mbox);
  49              		.loc 1 191 8 view .LVU6
  50 000a 4FF00071 		mov	r1, #33554432
  51              	.LBE25:
  52              	.LBE24:
  53              		.loc 1 208 23 view .LVU7
  54 000e 0446     		mov	r4, r0
  55              	.LVL3:
 209:Drivers/lvgl/src/extra/widgets/msgbox/lv_msgbox.c ****     lv_msgbox_close(mbox);
  56              		.loc 1 209 5 is_stmt 1 view .LVU8
  57              	.LBB33:
  58              	.LBI24:
 189:Drivers/lvgl/src/extra/widgets/msgbox/lv_msgbox.c **** {
  59              		.loc 1 189 6 view .LVU9
  60              	.LBB30:
 191:Drivers/lvgl/src/extra/widgets/msgbox/lv_msgbox.c ****     else lv_obj_del(mbox);
  61              		.loc 1 191 5 view .LVU10
 191:Drivers/lvgl/src/extra/widgets/msgbox/lv_msgbox.c ****     else lv_obj_del(mbox);
  62              		.loc 1 191 8 is_stmt 0 view .LVU11
  63 0010 FFF7FEFF 		bl	lv_obj_has_flag
  64              	.LVL4:
 191:Drivers/lvgl/src/extra/widgets/msgbox/lv_msgbox.c ****     else lv_obj_del(mbox);
  65              		.loc 1 191 7 view .LVU12
  66 0014 30B1     		cbz	r0, .L2
  67              	.LVL5:
  68              	.LBB26:
  69              	.LBI26:
 189:Drivers/lvgl/src/extra/widgets/msgbox/lv_msgbox.c **** {
  70              		.loc 1 189 6 is_stmt 1 view .LVU13
ARM GAS  /var/folders/0z/tsy30v1j4xl4_7kw94k978ww0000gn/T//cceRZMx6.s 			page 6


  71              	.LBB27:
 191:Drivers/lvgl/src/extra/widgets/msgbox/lv_msgbox.c ****     else lv_obj_del(mbox);
  72              		.loc 1 191 59 view .LVU14
  73 0016 2046     		mov	r0, r4
  74 0018 FFF7FEFF 		bl	lv_obj_get_parent
  75              	.LVL6:
  76              	.LBE27:
  77              	.LBE26:
  78              	.LBE30:
  79              	.LBE33:
 210:Drivers/lvgl/src/extra/widgets/msgbox/lv_msgbox.c **** }
  80              		.loc 1 210 1 is_stmt 0 view .LVU15
  81 001c BDE81040 		pop	{r4, lr}
  82              		.cfi_remember_state
  83              		.cfi_restore 14
  84              		.cfi_restore 4
  85              		.cfi_def_cfa_offset 0
  86              	.LVL7:
  87              	.LBB34:
  88              	.LBB31:
  89              	.LBB29:
  90              	.LBB28:
 191:Drivers/lvgl/src/extra/widgets/msgbox/lv_msgbox.c ****     else lv_obj_del(mbox);
  91              		.loc 1 191 59 view .LVU16
  92 0020 FFF7FEBF 		b	lv_obj_del
  93              	.LVL8:
  94              	.L2:
  95              		.cfi_restore_state
 191:Drivers/lvgl/src/extra/widgets/msgbox/lv_msgbox.c ****     else lv_obj_del(mbox);
  96              		.loc 1 191 59 view .LVU17
  97              	.LBE28:
  98              	.LBE29:
 192:Drivers/lvgl/src/extra/widgets/msgbox/lv_msgbox.c **** }
  99              		.loc 1 192 10 is_stmt 1 view .LVU18
 100 0024 2046     		mov	r0, r4
 101              	.LBE31:
 102              	.LBE34:
 103              		.loc 1 210 1 is_stmt 0 view .LVU19
 104 0026 BDE81040 		pop	{r4, lr}
 105              		.cfi_restore 14
 106              		.cfi_restore 4
 107              		.cfi_def_cfa_offset 0
 108              	.LVL9:
 109              	.LBB35:
 110              	.LBB32:
 192:Drivers/lvgl/src/extra/widgets/msgbox/lv_msgbox.c **** }
 111              		.loc 1 192 10 view .LVU20
 112 002a FFF7FEBF 		b	lv_obj_del
 113              	.LVL10:
 192:Drivers/lvgl/src/extra/widgets/msgbox/lv_msgbox.c **** }
 114              		.loc 1 192 10 view .LVU21
 115              	.LBE32:
 116              	.LBE35:
 117              		.cfi_endproc
 118              	.LFE214:
 120 002e 00BF     		.section	.rodata.lv_msgbox_create.str1.4,"aMS",%progbits,1
 121              		.align	2
ARM GAS  /var/folders/0z/tsy30v1j4xl4_7kw94k978ww0000gn/T//cceRZMx6.s 			page 7


 122              	.LC0:
 123 0000 00       		.ascii	"\000"
 124 0001 000000   		.align	2
 125              	.LC1:
 126 0004 EF808D00 		.ascii	"\357\200\215\000"
 127              		.section	.text.lv_msgbox_create,"ax",%progbits
 128              		.align	1
 129              		.p2align 2,,3
 130              		.global	lv_msgbox_create
 131              		.syntax unified
 132              		.thumb
 133              		.thumb_func
 135              	lv_msgbox_create:
 136              	.LVL11:
 137              	.LFB204:
  63:Drivers/lvgl/src/extra/widgets/msgbox/lv_msgbox.c ****     LV_LOG_INFO("begin");
 138              		.loc 1 63 1 is_stmt 1 view -0
 139              		.cfi_startproc
 140              		@ args = 4, pretend = 0, frame = 0
 141              		@ frame_needed = 0, uses_anonymous_args = 0
  64:Drivers/lvgl/src/extra/widgets/msgbox/lv_msgbox.c ****     bool auto_parent = false;
 142              		.loc 1 64 5 view .LVU23
  64:Drivers/lvgl/src/extra/widgets/msgbox/lv_msgbox.c ****     bool auto_parent = false;
 143              		.loc 1 64 5 view .LVU24
  64:Drivers/lvgl/src/extra/widgets/msgbox/lv_msgbox.c ****     bool auto_parent = false;
 144              		.loc 1 64 5 view .LVU25
  65:Drivers/lvgl/src/extra/widgets/msgbox/lv_msgbox.c ****     if(parent == NULL) {
 145              		.loc 1 65 5 view .LVU26
  66:Drivers/lvgl/src/extra/widgets/msgbox/lv_msgbox.c ****         auto_parent = true;
 146              		.loc 1 66 5 view .LVU27
  63:Drivers/lvgl/src/extra/widgets/msgbox/lv_msgbox.c ****     LV_LOG_INFO("begin");
 147              		.loc 1 63 1 is_stmt 0 view .LVU28
 148 0000 2DE9F041 		push	{r4, r5, r6, r7, r8, lr}
 149              		.cfi_def_cfa_offset 24
 150              		.cfi_offset 4, -24
 151              		.cfi_offset 5, -20
 152              		.cfi_offset 6, -16
 153              		.cfi_offset 7, -12
 154              		.cfi_offset 8, -8
 155              		.cfi_offset 14, -4
  63:Drivers/lvgl/src/extra/widgets/msgbox/lv_msgbox.c ****     LV_LOG_INFO("begin");
 156              		.loc 1 63 1 view .LVU29
 157 0004 0D46     		mov	r5, r1
 158 0006 9DF81880 		ldrb	r8, [sp, #24]	@ zero_extendqisi2
 159 000a 1646     		mov	r6, r2
 160 000c 1F46     		mov	r7, r3
  66:Drivers/lvgl/src/extra/widgets/msgbox/lv_msgbox.c ****         auto_parent = true;
 161              		.loc 1 66 7 view .LVU30
 162 000e 0028     		cmp	r0, #0
 163 0010 6DD0     		beq	.L51
  66:Drivers/lvgl/src/extra/widgets/msgbox/lv_msgbox.c ****         auto_parent = true;
 164              		.loc 1 66 7 view .LVU31
 165 0012 0146     		mov	r1, r0
 166              	.LVL12:
  75:Drivers/lvgl/src/extra/widgets/msgbox/lv_msgbox.c ****     LV_ASSERT_MALLOC(obj);
 167              		.loc 1 75 5 is_stmt 1 view .LVU32
  75:Drivers/lvgl/src/extra/widgets/msgbox/lv_msgbox.c ****     LV_ASSERT_MALLOC(obj);
ARM GAS  /var/folders/0z/tsy30v1j4xl4_7kw94k978ww0000gn/T//cceRZMx6.s 			page 8


 168              		.loc 1 75 22 is_stmt 0 view .LVU33
 169 0014 8D48     		ldr	r0, .L56
 170              	.LVL13:
  75:Drivers/lvgl/src/extra/widgets/msgbox/lv_msgbox.c ****     LV_ASSERT_MALLOC(obj);
 171              		.loc 1 75 22 view .LVU34
 172 0016 FFF7FEFF 		bl	lv_obj_class_create_obj
 173              	.LVL14:
  76:Drivers/lvgl/src/extra/widgets/msgbox/lv_msgbox.c ****     if(obj == NULL) return NULL;
 174              		.loc 1 76 5 is_stmt 1 view .LVU35
  76:Drivers/lvgl/src/extra/widgets/msgbox/lv_msgbox.c ****     if(obj == NULL) return NULL;
 175              		.loc 1 76 5 view .LVU36
 176 001a 0446     		mov	r4, r0
 177 001c 00B9     		cbnz	r0, .L48
 178              	.LVL15:
 179              	.L10:
 180              	.L46:
  76:Drivers/lvgl/src/extra/widgets/msgbox/lv_msgbox.c ****     if(obj == NULL) return NULL;
 181              		.loc 1 76 5 discriminator 2 view .LVU37
  76:Drivers/lvgl/src/extra/widgets/msgbox/lv_msgbox.c ****     if(obj == NULL) return NULL;
 182              		.loc 1 76 5 discriminator 2 view .LVU38
  76:Drivers/lvgl/src/extra/widgets/msgbox/lv_msgbox.c ****     if(obj == NULL) return NULL;
 183              		.loc 1 76 5 discriminator 2 view .LVU39
  76:Drivers/lvgl/src/extra/widgets/msgbox/lv_msgbox.c ****     if(obj == NULL) return NULL;
 184              		.loc 1 76 5 discriminator 2 view .LVU40
  76:Drivers/lvgl/src/extra/widgets/msgbox/lv_msgbox.c ****     if(obj == NULL) return NULL;
 185              		.loc 1 76 5 discriminator 2 view .LVU41
  76:Drivers/lvgl/src/extra/widgets/msgbox/lv_msgbox.c ****     if(obj == NULL) return NULL;
 186              		.loc 1 76 5 discriminator 2 view .LVU42
  76:Drivers/lvgl/src/extra/widgets/msgbox/lv_msgbox.c ****     if(obj == NULL) return NULL;
 187              		.loc 1 76 5 discriminator 2 view .LVU43
  76:Drivers/lvgl/src/extra/widgets/msgbox/lv_msgbox.c ****     if(obj == NULL) return NULL;
 188              		.loc 1 76 5 discriminator 2 view .LVU44
  76:Drivers/lvgl/src/extra/widgets/msgbox/lv_msgbox.c ****     if(obj == NULL) return NULL;
 189              		.loc 1 76 5 discriminator 2 view .LVU45
  76:Drivers/lvgl/src/extra/widgets/msgbox/lv_msgbox.c ****     if(obj == NULL) return NULL;
 190              		.loc 1 76 5 discriminator 2 view .LVU46
 191 001e FEE7     		b	.L46
 192              	.LVL16:
 193              	.L48:
  76:Drivers/lvgl/src/extra/widgets/msgbox/lv_msgbox.c ****     if(obj == NULL) return NULL;
 194              		.loc 1 76 5 view .LVU47
  76:Drivers/lvgl/src/extra/widgets/msgbox/lv_msgbox.c ****     if(obj == NULL) return NULL;
 195              		.loc 1 76 26 view .LVU48
  77:Drivers/lvgl/src/extra/widgets/msgbox/lv_msgbox.c ****     lv_obj_class_init_obj(obj);
 196              		.loc 1 77 5 view .LVU49
  78:Drivers/lvgl/src/extra/widgets/msgbox/lv_msgbox.c ****     lv_msgbox_t * mbox = (lv_msgbox_t *)obj;
 197              		.loc 1 78 5 view .LVU50
 198 0020 FFF7FEFF 		bl	lv_obj_class_init_obj
 199              	.LVL17:
  79:Drivers/lvgl/src/extra/widgets/msgbox/lv_msgbox.c **** 
 200              		.loc 1 79 5 view .LVU51
  81:Drivers/lvgl/src/extra/widgets/msgbox/lv_msgbox.c **** 
 201              		.loc 1 81 5 view .LVU52
 202              	.L28:
  83:Drivers/lvgl/src/extra/widgets/msgbox/lv_msgbox.c **** 
 203              		.loc 1 83 5 view .LVU53
 204 0024 0421     		movs	r1, #4
ARM GAS  /var/folders/0z/tsy30v1j4xl4_7kw94k978ww0000gn/T//cceRZMx6.s 			page 9


 205 0026 2046     		mov	r0, r4
 206 0028 FFF7FEFF 		bl	lv_obj_set_flex_flow
 207              	.LVL18:
  85:Drivers/lvgl/src/extra/widgets/msgbox/lv_msgbox.c **** 
 208              		.loc 1 85 5 view .LVU54
  85:Drivers/lvgl/src/extra/widgets/msgbox/lv_msgbox.c **** 
 209              		.loc 1 85 28 is_stmt 0 view .LVU55
 210 002c 1DB1     		cbz	r5, .L11
  85:Drivers/lvgl/src/extra/widgets/msgbox/lv_msgbox.c **** 
 211              		.loc 1 85 28 discriminator 1 view .LVU56
 212 002e 2B78     		ldrb	r3, [r5]	@ zero_extendqisi2
 213 0030 002B     		cmp	r3, #0
 214 0032 40F08480 		bne	.L12
 215              	.L11:
 216              	.LVL19:
  88:Drivers/lvgl/src/extra/widgets/msgbox/lv_msgbox.c ****         mbox->title = lv_label_create(obj);
 217              		.loc 1 88 5 is_stmt 1 discriminator 6 view .LVU57
  88:Drivers/lvgl/src/extra/widgets/msgbox/lv_msgbox.c ****         mbox->title = lv_label_create(obj);
 218              		.loc 1 88 7 is_stmt 0 discriminator 6 view .LVU58
 219 0036 B8F1000F 		cmp	r8, #0
 220 003a 40F09480 		bne	.L52
 221              	.LVL20:
 222              	.L13:
 108:Drivers/lvgl/src/extra/widgets/msgbox/lv_msgbox.c ****     LV_ASSERT_MALLOC(mbox->content);
 223              		.loc 1 108 5 is_stmt 1 view .LVU59
 108:Drivers/lvgl/src/extra/widgets/msgbox/lv_msgbox.c ****     LV_ASSERT_MALLOC(mbox->content);
 224              		.loc 1 108 21 is_stmt 0 view .LVU60
 225 003e 8448     		ldr	r0, .L56+4
 226 0040 2146     		mov	r1, r4
 227 0042 FFF7FEFF 		bl	lv_obj_class_create_obj
 228              	.LVL21:
 108:Drivers/lvgl/src/extra/widgets/msgbox/lv_msgbox.c ****     LV_ASSERT_MALLOC(mbox->content);
 229              		.loc 1 108 19 view .LVU61
 230 0046 E062     		str	r0, [r4, #44]
 109:Drivers/lvgl/src/extra/widgets/msgbox/lv_msgbox.c ****     if(mbox->content == NULL) return NULL;
 231              		.loc 1 109 5 is_stmt 1 view .LVU62
 109:Drivers/lvgl/src/extra/widgets/msgbox/lv_msgbox.c ****     if(mbox->content == NULL) return NULL;
 232              		.loc 1 109 5 view .LVU63
 233 0048 0028     		cmp	r0, #0
 234 004a 4FD0     		beq	.L18
 109:Drivers/lvgl/src/extra/widgets/msgbox/lv_msgbox.c ****     if(mbox->content == NULL) return NULL;
 235              		.loc 1 109 5 view .LVU64
 109:Drivers/lvgl/src/extra/widgets/msgbox/lv_msgbox.c ****     if(mbox->content == NULL) return NULL;
 236              		.loc 1 109 36 view .LVU65
 110:Drivers/lvgl/src/extra/widgets/msgbox/lv_msgbox.c ****     lv_obj_class_init_obj(mbox->content);
 237              		.loc 1 110 5 view .LVU66
 111:Drivers/lvgl/src/extra/widgets/msgbox/lv_msgbox.c **** 
 238              		.loc 1 111 5 view .LVU67
 239 004c FFF7FEFF 		bl	lv_obj_class_init_obj
 240              	.LVL22:
 113:Drivers/lvgl/src/extra/widgets/msgbox/lv_msgbox.c ****     if(has_txt) {
 241              		.loc 1 113 5 view .LVU68
 113:Drivers/lvgl/src/extra/widgets/msgbox/lv_msgbox.c ****     if(has_txt) {
 242              		.loc 1 113 24 is_stmt 0 view .LVU69
 243 0050 8EB1     		cbz	r6, .L19
 113:Drivers/lvgl/src/extra/widgets/msgbox/lv_msgbox.c ****     if(has_txt) {
 244              		.loc 1 113 24 discriminator 1 view .LVU70
ARM GAS  /var/folders/0z/tsy30v1j4xl4_7kw94k978ww0000gn/T//cceRZMx6.s 			page 10


 245 0052 3378     		ldrb	r3, [r6]	@ zero_extendqisi2
 246 0054 7BB1     		cbz	r3, .L19
 247              	.LVL23:
 114:Drivers/lvgl/src/extra/widgets/msgbox/lv_msgbox.c ****         mbox->text = lv_label_create(mbox->content);
 248              		.loc 1 114 5 is_stmt 1 view .LVU71
 115:Drivers/lvgl/src/extra/widgets/msgbox/lv_msgbox.c ****         lv_label_set_text(mbox->text, txt);
 249              		.loc 1 115 9 view .LVU72
 115:Drivers/lvgl/src/extra/widgets/msgbox/lv_msgbox.c ****         lv_label_set_text(mbox->text, txt);
 250              		.loc 1 115 22 is_stmt 0 view .LVU73
 251 0056 E06A     		ldr	r0, [r4, #44]
 252 0058 FFF7FEFF 		bl	lv_label_create
 253              	.LVL24:
 116:Drivers/lvgl/src/extra/widgets/msgbox/lv_msgbox.c ****         lv_label_set_long_mode(mbox->text, LV_LABEL_LONG_WRAP);
 254              		.loc 1 116 9 view .LVU74
 255 005c 3146     		mov	r1, r6
 115:Drivers/lvgl/src/extra/widgets/msgbox/lv_msgbox.c ****         lv_label_set_text(mbox->text, txt);
 256              		.loc 1 115 20 view .LVU75
 257 005e 2063     		str	r0, [r4, #48]
 116:Drivers/lvgl/src/extra/widgets/msgbox/lv_msgbox.c ****         lv_label_set_long_mode(mbox->text, LV_LABEL_LONG_WRAP);
 258              		.loc 1 116 9 is_stmt 1 view .LVU76
 259 0060 FFF7FEFF 		bl	lv_label_set_text
 260              	.LVL25:
 117:Drivers/lvgl/src/extra/widgets/msgbox/lv_msgbox.c ****         lv_obj_set_width(mbox->text, lv_pct(100));
 261              		.loc 1 117 9 view .LVU77
 262 0064 206B     		ldr	r0, [r4, #48]
 263 0066 0021     		movs	r1, #0
 264 0068 FFF7FEFF 		bl	lv_label_set_long_mode
 265              	.LVL26:
 118:Drivers/lvgl/src/extra/widgets/msgbox/lv_msgbox.c ****     }
 266              		.loc 1 118 9 view .LVU78
 267 006c 206B     		ldr	r0, [r4, #48]
 268 006e 42F26401 		movw	r1, #8292
 269 0072 FFF7FEFF 		bl	lv_obj_set_width
 270              	.LVL27:
 271              	.L19:
 121:Drivers/lvgl/src/extra/widgets/msgbox/lv_msgbox.c ****         mbox->btns = lv_btnmatrix_create(obj);
 272              		.loc 1 121 5 view .LVU79
 121:Drivers/lvgl/src/extra/widgets/msgbox/lv_msgbox.c ****         mbox->btns = lv_btnmatrix_create(obj);
 273              		.loc 1 121 7 is_stmt 0 view .LVU80
 274 0076 002F     		cmp	r7, #0
 275 0078 35D0     		beq	.L5
 276              	.LBB48:
 122:Drivers/lvgl/src/extra/widgets/msgbox/lv_msgbox.c ****         lv_btnmatrix_set_map(mbox->btns, btn_txts);
 277              		.loc 1 122 9 is_stmt 1 view .LVU81
 122:Drivers/lvgl/src/extra/widgets/msgbox/lv_msgbox.c ****         lv_btnmatrix_set_map(mbox->btns, btn_txts);
 278              		.loc 1 122 22 is_stmt 0 view .LVU82
 279 007a 2046     		mov	r0, r4
 280 007c FFF7FEFF 		bl	lv_btnmatrix_create
 281              	.LVL28:
 123:Drivers/lvgl/src/extra/widgets/msgbox/lv_msgbox.c ****         lv_btnmatrix_set_btn_ctrl_all(mbox->btns, LV_BTNMATRIX_CTRL_CLICK_TRIG | LV_BTNMATRIX_CTRL_
 282              		.loc 1 123 9 view .LVU83
 283 0080 3946     		mov	r1, r7
 122:Drivers/lvgl/src/extra/widgets/msgbox/lv_msgbox.c ****         lv_btnmatrix_set_map(mbox->btns, btn_txts);
 284              		.loc 1 122 20 view .LVU84
 285 0082 6063     		str	r0, [r4, #52]
 123:Drivers/lvgl/src/extra/widgets/msgbox/lv_msgbox.c ****         lv_btnmatrix_set_btn_ctrl_all(mbox->btns, LV_BTNMATRIX_CTRL_CLICK_TRIG | LV_BTNMATRIX_CTRL_
 286              		.loc 1 123 9 is_stmt 1 view .LVU85
ARM GAS  /var/folders/0z/tsy30v1j4xl4_7kw94k978ww0000gn/T//cceRZMx6.s 			page 11


 287 0084 FFF7FEFF 		bl	lv_btnmatrix_set_map
 288              	.LVL29:
 124:Drivers/lvgl/src/extra/widgets/msgbox/lv_msgbox.c **** 
 289              		.loc 1 124 9 view .LVU86
 290 0088 606B     		ldr	r0, [r4, #52]
 291 008a 4FF40871 		mov	r1, #544
 292 008e FFF7FEFF 		bl	lv_btnmatrix_set_btn_ctrl_all
 293              	.LVL30:
 126:Drivers/lvgl/src/extra/widgets/msgbox/lv_msgbox.c ****         while(btn_txts[btn_cnt] && btn_txts[btn_cnt][0] != '\0') {
 294              		.loc 1 126 9 view .LVU87
 127:Drivers/lvgl/src/extra/widgets/msgbox/lv_msgbox.c ****             btn_cnt++;
 295              		.loc 1 127 9 view .LVU88
 127:Drivers/lvgl/src/extra/widgets/msgbox/lv_msgbox.c ****             btn_cnt++;
 296              		.loc 1 127 33 view .LVU89
 127:Drivers/lvgl/src/extra/widgets/msgbox/lv_msgbox.c ****             btn_cnt++;
 297              		.loc 1 127 23 is_stmt 0 view .LVU90
 298 0092 3D68     		ldr	r5, [r7]
 127:Drivers/lvgl/src/extra/widgets/msgbox/lv_msgbox.c ****             btn_cnt++;
 299              		.loc 1 127 33 view .LVU91
 300 0094 7DB1     		cbz	r5, .L23
 301 0096 3A46     		mov	r2, r7
 126:Drivers/lvgl/src/extra/widgets/msgbox/lv_msgbox.c ****         while(btn_txts[btn_cnt] && btn_txts[btn_cnt][0] != '\0') {
 302              		.loc 1 126 18 view .LVU92
 303 0098 0023     		movs	r3, #0
 304 009a 03E0     		b	.L24
 305              	.LVL31:
 306              	.L25:
 127:Drivers/lvgl/src/extra/widgets/msgbox/lv_msgbox.c ****             btn_cnt++;
 307              		.loc 1 127 23 view .LVU93
 308 009c 52F8045F 		ldr	r5, [r2, #4]!
 128:Drivers/lvgl/src/extra/widgets/msgbox/lv_msgbox.c ****         }
 309              		.loc 1 128 20 view .LVU94
 310 00a0 0133     		adds	r3, r3, #1
 311              	.LVL32:
 127:Drivers/lvgl/src/extra/widgets/msgbox/lv_msgbox.c ****             btn_cnt++;
 312              		.loc 1 127 33 is_stmt 1 view .LVU95
 313 00a2 15B1     		cbz	r5, .L50
 314              	.LVL33:
 315              	.L24:
 128:Drivers/lvgl/src/extra/widgets/msgbox/lv_msgbox.c ****         }
 316              		.loc 1 128 13 discriminator 1 view .LVU96
 127:Drivers/lvgl/src/extra/widgets/msgbox/lv_msgbox.c ****             btn_cnt++;
 317              		.loc 1 127 33 is_stmt 0 discriminator 1 view .LVU97
 318 00a4 2978     		ldrb	r1, [r5]	@ zero_extendqisi2
 319 00a6 0029     		cmp	r1, #0
 320 00a8 F8D1     		bne	.L25
 321              	.L50:
 133:Drivers/lvgl/src/extra/widgets/msgbox/lv_msgbox.c ****         lv_obj_set_style_max_width(mbox->btns, lv_pct(100), 0);
 322              		.loc 1 133 9 view .LVU98
 323 00aa 03EB8302 		add	r2, r3, r3, lsl #2
 324 00ae 02EB0212 		add	r2, r2, r2, lsl #4
 325 00b2 1344     		add	r3, r3, r2
 326              	.LVL34:
 133:Drivers/lvgl/src/extra/widgets/msgbox/lv_msgbox.c ****         lv_obj_set_style_max_width(mbox->btns, lv_pct(100), 0);
 327              		.loc 1 133 9 view .LVU99
 328 00b4 1DB2     		sxth	r5, r3
 329              	.L23:
ARM GAS  /var/folders/0z/tsy30v1j4xl4_7kw94k978ww0000gn/T//cceRZMx6.s 			page 12


 131:Drivers/lvgl/src/extra/widgets/msgbox/lv_msgbox.c ****         lv_coord_t btn_h = lv_font_get_line_height(font) + LV_DPI_DEF / 10;
 330              		.loc 1 131 9 is_stmt 1 view .LVU100
 331              	.LVL35:
 332              	.LBB49:
 333              	.LBI49:
 334              		.file 2 "Drivers/lvgl/src/extra/widgets/msgbox/../../../../src/core/lv_obj_style_gen.h"
   1:Drivers/lvgl/src/extra/widgets/msgbox/../../../../src/core/lv_obj_style_gen.h **** static inline lv_coord_t lv_obj_get_style_width(const struct _lv_obj_t * obj, uint32_t part)
   2:Drivers/lvgl/src/extra/widgets/msgbox/../../../../src/core/lv_obj_style_gen.h **** {
   3:Drivers/lvgl/src/extra/widgets/msgbox/../../../../src/core/lv_obj_style_gen.h ****     lv_style_value_t v = lv_obj_get_style_prop(obj, part, LV_STYLE_WIDTH);
   4:Drivers/lvgl/src/extra/widgets/msgbox/../../../../src/core/lv_obj_style_gen.h ****     return (lv_coord_t)v.num;
   5:Drivers/lvgl/src/extra/widgets/msgbox/../../../../src/core/lv_obj_style_gen.h **** }
   6:Drivers/lvgl/src/extra/widgets/msgbox/../../../../src/core/lv_obj_style_gen.h **** 
   7:Drivers/lvgl/src/extra/widgets/msgbox/../../../../src/core/lv_obj_style_gen.h **** static inline lv_coord_t lv_obj_get_style_min_width(const struct _lv_obj_t * obj, uint32_t part)
   8:Drivers/lvgl/src/extra/widgets/msgbox/../../../../src/core/lv_obj_style_gen.h **** {
   9:Drivers/lvgl/src/extra/widgets/msgbox/../../../../src/core/lv_obj_style_gen.h ****     lv_style_value_t v = lv_obj_get_style_prop(obj, part, LV_STYLE_MIN_WIDTH);
  10:Drivers/lvgl/src/extra/widgets/msgbox/../../../../src/core/lv_obj_style_gen.h ****     return (lv_coord_t)v.num;
  11:Drivers/lvgl/src/extra/widgets/msgbox/../../../../src/core/lv_obj_style_gen.h **** }
  12:Drivers/lvgl/src/extra/widgets/msgbox/../../../../src/core/lv_obj_style_gen.h **** 
  13:Drivers/lvgl/src/extra/widgets/msgbox/../../../../src/core/lv_obj_style_gen.h **** static inline lv_coord_t lv_obj_get_style_max_width(const struct _lv_obj_t * obj, uint32_t part)
  14:Drivers/lvgl/src/extra/widgets/msgbox/../../../../src/core/lv_obj_style_gen.h **** {
  15:Drivers/lvgl/src/extra/widgets/msgbox/../../../../src/core/lv_obj_style_gen.h ****     lv_style_value_t v = lv_obj_get_style_prop(obj, part, LV_STYLE_MAX_WIDTH);
  16:Drivers/lvgl/src/extra/widgets/msgbox/../../../../src/core/lv_obj_style_gen.h ****     return (lv_coord_t)v.num;
  17:Drivers/lvgl/src/extra/widgets/msgbox/../../../../src/core/lv_obj_style_gen.h **** }
  18:Drivers/lvgl/src/extra/widgets/msgbox/../../../../src/core/lv_obj_style_gen.h **** 
  19:Drivers/lvgl/src/extra/widgets/msgbox/../../../../src/core/lv_obj_style_gen.h **** static inline lv_coord_t lv_obj_get_style_height(const struct _lv_obj_t * obj, uint32_t part)
  20:Drivers/lvgl/src/extra/widgets/msgbox/../../../../src/core/lv_obj_style_gen.h **** {
  21:Drivers/lvgl/src/extra/widgets/msgbox/../../../../src/core/lv_obj_style_gen.h ****     lv_style_value_t v = lv_obj_get_style_prop(obj, part, LV_STYLE_HEIGHT);
  22:Drivers/lvgl/src/extra/widgets/msgbox/../../../../src/core/lv_obj_style_gen.h ****     return (lv_coord_t)v.num;
  23:Drivers/lvgl/src/extra/widgets/msgbox/../../../../src/core/lv_obj_style_gen.h **** }
  24:Drivers/lvgl/src/extra/widgets/msgbox/../../../../src/core/lv_obj_style_gen.h **** 
  25:Drivers/lvgl/src/extra/widgets/msgbox/../../../../src/core/lv_obj_style_gen.h **** static inline lv_coord_t lv_obj_get_style_min_height(const struct _lv_obj_t * obj, uint32_t part)
  26:Drivers/lvgl/src/extra/widgets/msgbox/../../../../src/core/lv_obj_style_gen.h **** {
  27:Drivers/lvgl/src/extra/widgets/msgbox/../../../../src/core/lv_obj_style_gen.h ****     lv_style_value_t v = lv_obj_get_style_prop(obj, part, LV_STYLE_MIN_HEIGHT);
  28:Drivers/lvgl/src/extra/widgets/msgbox/../../../../src/core/lv_obj_style_gen.h ****     return (lv_coord_t)v.num;
  29:Drivers/lvgl/src/extra/widgets/msgbox/../../../../src/core/lv_obj_style_gen.h **** }
  30:Drivers/lvgl/src/extra/widgets/msgbox/../../../../src/core/lv_obj_style_gen.h **** 
  31:Drivers/lvgl/src/extra/widgets/msgbox/../../../../src/core/lv_obj_style_gen.h **** static inline lv_coord_t lv_obj_get_style_max_height(const struct _lv_obj_t * obj, uint32_t part)
  32:Drivers/lvgl/src/extra/widgets/msgbox/../../../../src/core/lv_obj_style_gen.h **** {
  33:Drivers/lvgl/src/extra/widgets/msgbox/../../../../src/core/lv_obj_style_gen.h ****     lv_style_value_t v = lv_obj_get_style_prop(obj, part, LV_STYLE_MAX_HEIGHT);
  34:Drivers/lvgl/src/extra/widgets/msgbox/../../../../src/core/lv_obj_style_gen.h ****     return (lv_coord_t)v.num;
  35:Drivers/lvgl/src/extra/widgets/msgbox/../../../../src/core/lv_obj_style_gen.h **** }
  36:Drivers/lvgl/src/extra/widgets/msgbox/../../../../src/core/lv_obj_style_gen.h **** 
  37:Drivers/lvgl/src/extra/widgets/msgbox/../../../../src/core/lv_obj_style_gen.h **** static inline lv_coord_t lv_obj_get_style_x(const struct _lv_obj_t * obj, uint32_t part)
  38:Drivers/lvgl/src/extra/widgets/msgbox/../../../../src/core/lv_obj_style_gen.h **** {
  39:Drivers/lvgl/src/extra/widgets/msgbox/../../../../src/core/lv_obj_style_gen.h ****     lv_style_value_t v = lv_obj_get_style_prop(obj, part, LV_STYLE_X);
  40:Drivers/lvgl/src/extra/widgets/msgbox/../../../../src/core/lv_obj_style_gen.h ****     return (lv_coord_t)v.num;
  41:Drivers/lvgl/src/extra/widgets/msgbox/../../../../src/core/lv_obj_style_gen.h **** }
  42:Drivers/lvgl/src/extra/widgets/msgbox/../../../../src/core/lv_obj_style_gen.h **** 
  43:Drivers/lvgl/src/extra/widgets/msgbox/../../../../src/core/lv_obj_style_gen.h **** static inline lv_coord_t lv_obj_get_style_y(const struct _lv_obj_t * obj, uint32_t part)
  44:Drivers/lvgl/src/extra/widgets/msgbox/../../../../src/core/lv_obj_style_gen.h **** {
  45:Drivers/lvgl/src/extra/widgets/msgbox/../../../../src/core/lv_obj_style_gen.h ****     lv_style_value_t v = lv_obj_get_style_prop(obj, part, LV_STYLE_Y);
  46:Drivers/lvgl/src/extra/widgets/msgbox/../../../../src/core/lv_obj_style_gen.h ****     return (lv_coord_t)v.num;
  47:Drivers/lvgl/src/extra/widgets/msgbox/../../../../src/core/lv_obj_style_gen.h **** }
  48:Drivers/lvgl/src/extra/widgets/msgbox/../../../../src/core/lv_obj_style_gen.h **** 
  49:Drivers/lvgl/src/extra/widgets/msgbox/../../../../src/core/lv_obj_style_gen.h **** static inline lv_align_t lv_obj_get_style_align(const struct _lv_obj_t * obj, uint32_t part)
  50:Drivers/lvgl/src/extra/widgets/msgbox/../../../../src/core/lv_obj_style_gen.h **** {
  51:Drivers/lvgl/src/extra/widgets/msgbox/../../../../src/core/lv_obj_style_gen.h ****     lv_style_value_t v = lv_obj_get_style_prop(obj, part, LV_STYLE_ALIGN);
ARM GAS  /var/folders/0z/tsy30v1j4xl4_7kw94k978ww0000gn/T//cceRZMx6.s 			page 13


  52:Drivers/lvgl/src/extra/widgets/msgbox/../../../../src/core/lv_obj_style_gen.h ****     return (lv_align_t)v.num;
  53:Drivers/lvgl/src/extra/widgets/msgbox/../../../../src/core/lv_obj_style_gen.h **** }
  54:Drivers/lvgl/src/extra/widgets/msgbox/../../../../src/core/lv_obj_style_gen.h **** 
  55:Drivers/lvgl/src/extra/widgets/msgbox/../../../../src/core/lv_obj_style_gen.h **** static inline lv_coord_t lv_obj_get_style_transform_width(const struct _lv_obj_t * obj, uint32_t pa
  56:Drivers/lvgl/src/extra/widgets/msgbox/../../../../src/core/lv_obj_style_gen.h **** {
  57:Drivers/lvgl/src/extra/widgets/msgbox/../../../../src/core/lv_obj_style_gen.h ****     lv_style_value_t v = lv_obj_get_style_prop(obj, part, LV_STYLE_TRANSFORM_WIDTH);
  58:Drivers/lvgl/src/extra/widgets/msgbox/../../../../src/core/lv_obj_style_gen.h ****     return (lv_coord_t)v.num;
  59:Drivers/lvgl/src/extra/widgets/msgbox/../../../../src/core/lv_obj_style_gen.h **** }
  60:Drivers/lvgl/src/extra/widgets/msgbox/../../../../src/core/lv_obj_style_gen.h **** 
  61:Drivers/lvgl/src/extra/widgets/msgbox/../../../../src/core/lv_obj_style_gen.h **** static inline lv_coord_t lv_obj_get_style_transform_height(const struct _lv_obj_t * obj, uint32_t p
  62:Drivers/lvgl/src/extra/widgets/msgbox/../../../../src/core/lv_obj_style_gen.h **** {
  63:Drivers/lvgl/src/extra/widgets/msgbox/../../../../src/core/lv_obj_style_gen.h ****     lv_style_value_t v = lv_obj_get_style_prop(obj, part, LV_STYLE_TRANSFORM_HEIGHT);
  64:Drivers/lvgl/src/extra/widgets/msgbox/../../../../src/core/lv_obj_style_gen.h ****     return (lv_coord_t)v.num;
  65:Drivers/lvgl/src/extra/widgets/msgbox/../../../../src/core/lv_obj_style_gen.h **** }
  66:Drivers/lvgl/src/extra/widgets/msgbox/../../../../src/core/lv_obj_style_gen.h **** 
  67:Drivers/lvgl/src/extra/widgets/msgbox/../../../../src/core/lv_obj_style_gen.h **** static inline lv_coord_t lv_obj_get_style_translate_x(const struct _lv_obj_t * obj, uint32_t part)
  68:Drivers/lvgl/src/extra/widgets/msgbox/../../../../src/core/lv_obj_style_gen.h **** {
  69:Drivers/lvgl/src/extra/widgets/msgbox/../../../../src/core/lv_obj_style_gen.h ****     lv_style_value_t v = lv_obj_get_style_prop(obj, part, LV_STYLE_TRANSLATE_X);
  70:Drivers/lvgl/src/extra/widgets/msgbox/../../../../src/core/lv_obj_style_gen.h ****     return (lv_coord_t)v.num;
  71:Drivers/lvgl/src/extra/widgets/msgbox/../../../../src/core/lv_obj_style_gen.h **** }
  72:Drivers/lvgl/src/extra/widgets/msgbox/../../../../src/core/lv_obj_style_gen.h **** 
  73:Drivers/lvgl/src/extra/widgets/msgbox/../../../../src/core/lv_obj_style_gen.h **** static inline lv_coord_t lv_obj_get_style_translate_y(const struct _lv_obj_t * obj, uint32_t part)
  74:Drivers/lvgl/src/extra/widgets/msgbox/../../../../src/core/lv_obj_style_gen.h **** {
  75:Drivers/lvgl/src/extra/widgets/msgbox/../../../../src/core/lv_obj_style_gen.h ****     lv_style_value_t v = lv_obj_get_style_prop(obj, part, LV_STYLE_TRANSLATE_Y);
  76:Drivers/lvgl/src/extra/widgets/msgbox/../../../../src/core/lv_obj_style_gen.h ****     return (lv_coord_t)v.num;
  77:Drivers/lvgl/src/extra/widgets/msgbox/../../../../src/core/lv_obj_style_gen.h **** }
  78:Drivers/lvgl/src/extra/widgets/msgbox/../../../../src/core/lv_obj_style_gen.h **** 
  79:Drivers/lvgl/src/extra/widgets/msgbox/../../../../src/core/lv_obj_style_gen.h **** static inline lv_coord_t lv_obj_get_style_transform_zoom(const struct _lv_obj_t * obj, uint32_t par
  80:Drivers/lvgl/src/extra/widgets/msgbox/../../../../src/core/lv_obj_style_gen.h **** {
  81:Drivers/lvgl/src/extra/widgets/msgbox/../../../../src/core/lv_obj_style_gen.h ****     lv_style_value_t v = lv_obj_get_style_prop(obj, part, LV_STYLE_TRANSFORM_ZOOM);
  82:Drivers/lvgl/src/extra/widgets/msgbox/../../../../src/core/lv_obj_style_gen.h ****     return (lv_coord_t)v.num;
  83:Drivers/lvgl/src/extra/widgets/msgbox/../../../../src/core/lv_obj_style_gen.h **** }
  84:Drivers/lvgl/src/extra/widgets/msgbox/../../../../src/core/lv_obj_style_gen.h **** 
  85:Drivers/lvgl/src/extra/widgets/msgbox/../../../../src/core/lv_obj_style_gen.h **** static inline lv_coord_t lv_obj_get_style_transform_angle(const struct _lv_obj_t * obj, uint32_t pa
  86:Drivers/lvgl/src/extra/widgets/msgbox/../../../../src/core/lv_obj_style_gen.h **** {
  87:Drivers/lvgl/src/extra/widgets/msgbox/../../../../src/core/lv_obj_style_gen.h ****     lv_style_value_t v = lv_obj_get_style_prop(obj, part, LV_STYLE_TRANSFORM_ANGLE);
  88:Drivers/lvgl/src/extra/widgets/msgbox/../../../../src/core/lv_obj_style_gen.h ****     return (lv_coord_t)v.num;
  89:Drivers/lvgl/src/extra/widgets/msgbox/../../../../src/core/lv_obj_style_gen.h **** }
  90:Drivers/lvgl/src/extra/widgets/msgbox/../../../../src/core/lv_obj_style_gen.h **** 
  91:Drivers/lvgl/src/extra/widgets/msgbox/../../../../src/core/lv_obj_style_gen.h **** static inline lv_coord_t lv_obj_get_style_transform_pivot_x(const struct _lv_obj_t * obj, uint32_t 
  92:Drivers/lvgl/src/extra/widgets/msgbox/../../../../src/core/lv_obj_style_gen.h **** {
  93:Drivers/lvgl/src/extra/widgets/msgbox/../../../../src/core/lv_obj_style_gen.h ****     lv_style_value_t v = lv_obj_get_style_prop(obj, part, LV_STYLE_TRANSFORM_PIVOT_X);
  94:Drivers/lvgl/src/extra/widgets/msgbox/../../../../src/core/lv_obj_style_gen.h ****     return (lv_coord_t)v.num;
  95:Drivers/lvgl/src/extra/widgets/msgbox/../../../../src/core/lv_obj_style_gen.h **** }
  96:Drivers/lvgl/src/extra/widgets/msgbox/../../../../src/core/lv_obj_style_gen.h **** 
  97:Drivers/lvgl/src/extra/widgets/msgbox/../../../../src/core/lv_obj_style_gen.h **** static inline lv_coord_t lv_obj_get_style_transform_pivot_y(const struct _lv_obj_t * obj, uint32_t 
  98:Drivers/lvgl/src/extra/widgets/msgbox/../../../../src/core/lv_obj_style_gen.h **** {
  99:Drivers/lvgl/src/extra/widgets/msgbox/../../../../src/core/lv_obj_style_gen.h ****     lv_style_value_t v = lv_obj_get_style_prop(obj, part, LV_STYLE_TRANSFORM_PIVOT_Y);
 100:Drivers/lvgl/src/extra/widgets/msgbox/../../../../src/core/lv_obj_style_gen.h ****     return (lv_coord_t)v.num;
 101:Drivers/lvgl/src/extra/widgets/msgbox/../../../../src/core/lv_obj_style_gen.h **** }
 102:Drivers/lvgl/src/extra/widgets/msgbox/../../../../src/core/lv_obj_style_gen.h **** 
 103:Drivers/lvgl/src/extra/widgets/msgbox/../../../../src/core/lv_obj_style_gen.h **** static inline lv_coord_t lv_obj_get_style_pad_top(const struct _lv_obj_t * obj, uint32_t part)
 104:Drivers/lvgl/src/extra/widgets/msgbox/../../../../src/core/lv_obj_style_gen.h **** {
 105:Drivers/lvgl/src/extra/widgets/msgbox/../../../../src/core/lv_obj_style_gen.h ****     lv_style_value_t v = lv_obj_get_style_prop(obj, part, LV_STYLE_PAD_TOP);
 106:Drivers/lvgl/src/extra/widgets/msgbox/../../../../src/core/lv_obj_style_gen.h ****     return (lv_coord_t)v.num;
 107:Drivers/lvgl/src/extra/widgets/msgbox/../../../../src/core/lv_obj_style_gen.h **** }
 108:Drivers/lvgl/src/extra/widgets/msgbox/../../../../src/core/lv_obj_style_gen.h **** 
ARM GAS  /var/folders/0z/tsy30v1j4xl4_7kw94k978ww0000gn/T//cceRZMx6.s 			page 14


 109:Drivers/lvgl/src/extra/widgets/msgbox/../../../../src/core/lv_obj_style_gen.h **** static inline lv_coord_t lv_obj_get_style_pad_bottom(const struct _lv_obj_t * obj, uint32_t part)
 110:Drivers/lvgl/src/extra/widgets/msgbox/../../../../src/core/lv_obj_style_gen.h **** {
 111:Drivers/lvgl/src/extra/widgets/msgbox/../../../../src/core/lv_obj_style_gen.h ****     lv_style_value_t v = lv_obj_get_style_prop(obj, part, LV_STYLE_PAD_BOTTOM);
 112:Drivers/lvgl/src/extra/widgets/msgbox/../../../../src/core/lv_obj_style_gen.h ****     return (lv_coord_t)v.num;
 113:Drivers/lvgl/src/extra/widgets/msgbox/../../../../src/core/lv_obj_style_gen.h **** }
 114:Drivers/lvgl/src/extra/widgets/msgbox/../../../../src/core/lv_obj_style_gen.h **** 
 115:Drivers/lvgl/src/extra/widgets/msgbox/../../../../src/core/lv_obj_style_gen.h **** static inline lv_coord_t lv_obj_get_style_pad_left(const struct _lv_obj_t * obj, uint32_t part)
 116:Drivers/lvgl/src/extra/widgets/msgbox/../../../../src/core/lv_obj_style_gen.h **** {
 117:Drivers/lvgl/src/extra/widgets/msgbox/../../../../src/core/lv_obj_style_gen.h ****     lv_style_value_t v = lv_obj_get_style_prop(obj, part, LV_STYLE_PAD_LEFT);
 118:Drivers/lvgl/src/extra/widgets/msgbox/../../../../src/core/lv_obj_style_gen.h ****     return (lv_coord_t)v.num;
 119:Drivers/lvgl/src/extra/widgets/msgbox/../../../../src/core/lv_obj_style_gen.h **** }
 120:Drivers/lvgl/src/extra/widgets/msgbox/../../../../src/core/lv_obj_style_gen.h **** 
 121:Drivers/lvgl/src/extra/widgets/msgbox/../../../../src/core/lv_obj_style_gen.h **** static inline lv_coord_t lv_obj_get_style_pad_right(const struct _lv_obj_t * obj, uint32_t part)
 122:Drivers/lvgl/src/extra/widgets/msgbox/../../../../src/core/lv_obj_style_gen.h **** {
 123:Drivers/lvgl/src/extra/widgets/msgbox/../../../../src/core/lv_obj_style_gen.h ****     lv_style_value_t v = lv_obj_get_style_prop(obj, part, LV_STYLE_PAD_RIGHT);
 124:Drivers/lvgl/src/extra/widgets/msgbox/../../../../src/core/lv_obj_style_gen.h ****     return (lv_coord_t)v.num;
 125:Drivers/lvgl/src/extra/widgets/msgbox/../../../../src/core/lv_obj_style_gen.h **** }
 126:Drivers/lvgl/src/extra/widgets/msgbox/../../../../src/core/lv_obj_style_gen.h **** 
 127:Drivers/lvgl/src/extra/widgets/msgbox/../../../../src/core/lv_obj_style_gen.h **** static inline lv_coord_t lv_obj_get_style_pad_row(const struct _lv_obj_t * obj, uint32_t part)
 128:Drivers/lvgl/src/extra/widgets/msgbox/../../../../src/core/lv_obj_style_gen.h **** {
 129:Drivers/lvgl/src/extra/widgets/msgbox/../../../../src/core/lv_obj_style_gen.h ****     lv_style_value_t v = lv_obj_get_style_prop(obj, part, LV_STYLE_PAD_ROW);
 130:Drivers/lvgl/src/extra/widgets/msgbox/../../../../src/core/lv_obj_style_gen.h ****     return (lv_coord_t)v.num;
 131:Drivers/lvgl/src/extra/widgets/msgbox/../../../../src/core/lv_obj_style_gen.h **** }
 132:Drivers/lvgl/src/extra/widgets/msgbox/../../../../src/core/lv_obj_style_gen.h **** 
 133:Drivers/lvgl/src/extra/widgets/msgbox/../../../../src/core/lv_obj_style_gen.h **** static inline lv_coord_t lv_obj_get_style_pad_column(const struct _lv_obj_t * obj, uint32_t part)
 134:Drivers/lvgl/src/extra/widgets/msgbox/../../../../src/core/lv_obj_style_gen.h **** {
 135:Drivers/lvgl/src/extra/widgets/msgbox/../../../../src/core/lv_obj_style_gen.h ****     lv_style_value_t v = lv_obj_get_style_prop(obj, part, LV_STYLE_PAD_COLUMN);
 136:Drivers/lvgl/src/extra/widgets/msgbox/../../../../src/core/lv_obj_style_gen.h ****     return (lv_coord_t)v.num;
 137:Drivers/lvgl/src/extra/widgets/msgbox/../../../../src/core/lv_obj_style_gen.h **** }
 138:Drivers/lvgl/src/extra/widgets/msgbox/../../../../src/core/lv_obj_style_gen.h **** 
 139:Drivers/lvgl/src/extra/widgets/msgbox/../../../../src/core/lv_obj_style_gen.h **** static inline lv_color_t lv_obj_get_style_bg_color(const struct _lv_obj_t * obj, uint32_t part)
 140:Drivers/lvgl/src/extra/widgets/msgbox/../../../../src/core/lv_obj_style_gen.h **** {
 141:Drivers/lvgl/src/extra/widgets/msgbox/../../../../src/core/lv_obj_style_gen.h ****     lv_style_value_t v = lv_obj_get_style_prop(obj, part, LV_STYLE_BG_COLOR);
 142:Drivers/lvgl/src/extra/widgets/msgbox/../../../../src/core/lv_obj_style_gen.h ****     return v.color;
 143:Drivers/lvgl/src/extra/widgets/msgbox/../../../../src/core/lv_obj_style_gen.h **** }
 144:Drivers/lvgl/src/extra/widgets/msgbox/../../../../src/core/lv_obj_style_gen.h **** 
 145:Drivers/lvgl/src/extra/widgets/msgbox/../../../../src/core/lv_obj_style_gen.h **** static inline lv_color_t lv_obj_get_style_bg_color_filtered(const struct _lv_obj_t * obj, uint32_t 
 146:Drivers/lvgl/src/extra/widgets/msgbox/../../../../src/core/lv_obj_style_gen.h **** {
 147:Drivers/lvgl/src/extra/widgets/msgbox/../../../../src/core/lv_obj_style_gen.h ****     lv_style_value_t v = _lv_obj_style_apply_color_filter(obj, part, lv_obj_get_style_prop(obj, par
 148:Drivers/lvgl/src/extra/widgets/msgbox/../../../../src/core/lv_obj_style_gen.h ****     return v.color;
 149:Drivers/lvgl/src/extra/widgets/msgbox/../../../../src/core/lv_obj_style_gen.h **** }
 150:Drivers/lvgl/src/extra/widgets/msgbox/../../../../src/core/lv_obj_style_gen.h **** 
 151:Drivers/lvgl/src/extra/widgets/msgbox/../../../../src/core/lv_obj_style_gen.h **** static inline lv_opa_t lv_obj_get_style_bg_opa(const struct _lv_obj_t * obj, uint32_t part)
 152:Drivers/lvgl/src/extra/widgets/msgbox/../../../../src/core/lv_obj_style_gen.h **** {
 153:Drivers/lvgl/src/extra/widgets/msgbox/../../../../src/core/lv_obj_style_gen.h ****     lv_style_value_t v = lv_obj_get_style_prop(obj, part, LV_STYLE_BG_OPA);
 154:Drivers/lvgl/src/extra/widgets/msgbox/../../../../src/core/lv_obj_style_gen.h ****     return (lv_opa_t)v.num;
 155:Drivers/lvgl/src/extra/widgets/msgbox/../../../../src/core/lv_obj_style_gen.h **** }
 156:Drivers/lvgl/src/extra/widgets/msgbox/../../../../src/core/lv_obj_style_gen.h **** 
 157:Drivers/lvgl/src/extra/widgets/msgbox/../../../../src/core/lv_obj_style_gen.h **** static inline lv_color_t lv_obj_get_style_bg_grad_color(const struct _lv_obj_t * obj, uint32_t part
 158:Drivers/lvgl/src/extra/widgets/msgbox/../../../../src/core/lv_obj_style_gen.h **** {
 159:Drivers/lvgl/src/extra/widgets/msgbox/../../../../src/core/lv_obj_style_gen.h ****     lv_style_value_t v = lv_obj_get_style_prop(obj, part, LV_STYLE_BG_GRAD_COLOR);
 160:Drivers/lvgl/src/extra/widgets/msgbox/../../../../src/core/lv_obj_style_gen.h ****     return v.color;
 161:Drivers/lvgl/src/extra/widgets/msgbox/../../../../src/core/lv_obj_style_gen.h **** }
 162:Drivers/lvgl/src/extra/widgets/msgbox/../../../../src/core/lv_obj_style_gen.h **** 
 163:Drivers/lvgl/src/extra/widgets/msgbox/../../../../src/core/lv_obj_style_gen.h **** static inline lv_color_t lv_obj_get_style_bg_grad_color_filtered(const struct _lv_obj_t * obj, uint
 164:Drivers/lvgl/src/extra/widgets/msgbox/../../../../src/core/lv_obj_style_gen.h **** {
 165:Drivers/lvgl/src/extra/widgets/msgbox/../../../../src/core/lv_obj_style_gen.h ****     lv_style_value_t v = _lv_obj_style_apply_color_filter(obj, part, lv_obj_get_style_prop(obj, par
ARM GAS  /var/folders/0z/tsy30v1j4xl4_7kw94k978ww0000gn/T//cceRZMx6.s 			page 15


 166:Drivers/lvgl/src/extra/widgets/msgbox/../../../../src/core/lv_obj_style_gen.h ****     return v.color;
 167:Drivers/lvgl/src/extra/widgets/msgbox/../../../../src/core/lv_obj_style_gen.h **** }
 168:Drivers/lvgl/src/extra/widgets/msgbox/../../../../src/core/lv_obj_style_gen.h **** 
 169:Drivers/lvgl/src/extra/widgets/msgbox/../../../../src/core/lv_obj_style_gen.h **** static inline lv_grad_dir_t lv_obj_get_style_bg_grad_dir(const struct _lv_obj_t * obj, uint32_t par
 170:Drivers/lvgl/src/extra/widgets/msgbox/../../../../src/core/lv_obj_style_gen.h **** {
 171:Drivers/lvgl/src/extra/widgets/msgbox/../../../../src/core/lv_obj_style_gen.h ****     lv_style_value_t v = lv_obj_get_style_prop(obj, part, LV_STYLE_BG_GRAD_DIR);
 172:Drivers/lvgl/src/extra/widgets/msgbox/../../../../src/core/lv_obj_style_gen.h ****     return (lv_grad_dir_t)v.num;
 173:Drivers/lvgl/src/extra/widgets/msgbox/../../../../src/core/lv_obj_style_gen.h **** }
 174:Drivers/lvgl/src/extra/widgets/msgbox/../../../../src/core/lv_obj_style_gen.h **** 
 175:Drivers/lvgl/src/extra/widgets/msgbox/../../../../src/core/lv_obj_style_gen.h **** static inline lv_coord_t lv_obj_get_style_bg_main_stop(const struct _lv_obj_t * obj, uint32_t part)
 176:Drivers/lvgl/src/extra/widgets/msgbox/../../../../src/core/lv_obj_style_gen.h **** {
 177:Drivers/lvgl/src/extra/widgets/msgbox/../../../../src/core/lv_obj_style_gen.h ****     lv_style_value_t v = lv_obj_get_style_prop(obj, part, LV_STYLE_BG_MAIN_STOP);
 178:Drivers/lvgl/src/extra/widgets/msgbox/../../../../src/core/lv_obj_style_gen.h ****     return (lv_coord_t)v.num;
 179:Drivers/lvgl/src/extra/widgets/msgbox/../../../../src/core/lv_obj_style_gen.h **** }
 180:Drivers/lvgl/src/extra/widgets/msgbox/../../../../src/core/lv_obj_style_gen.h **** 
 181:Drivers/lvgl/src/extra/widgets/msgbox/../../../../src/core/lv_obj_style_gen.h **** static inline lv_coord_t lv_obj_get_style_bg_grad_stop(const struct _lv_obj_t * obj, uint32_t part)
 182:Drivers/lvgl/src/extra/widgets/msgbox/../../../../src/core/lv_obj_style_gen.h **** {
 183:Drivers/lvgl/src/extra/widgets/msgbox/../../../../src/core/lv_obj_style_gen.h ****     lv_style_value_t v = lv_obj_get_style_prop(obj, part, LV_STYLE_BG_GRAD_STOP);
 184:Drivers/lvgl/src/extra/widgets/msgbox/../../../../src/core/lv_obj_style_gen.h ****     return (lv_coord_t)v.num;
 185:Drivers/lvgl/src/extra/widgets/msgbox/../../../../src/core/lv_obj_style_gen.h **** }
 186:Drivers/lvgl/src/extra/widgets/msgbox/../../../../src/core/lv_obj_style_gen.h **** 
 187:Drivers/lvgl/src/extra/widgets/msgbox/../../../../src/core/lv_obj_style_gen.h **** static inline const lv_grad_dsc_t * lv_obj_get_style_bg_grad(const struct _lv_obj_t * obj, uint32_t
 188:Drivers/lvgl/src/extra/widgets/msgbox/../../../../src/core/lv_obj_style_gen.h **** {
 189:Drivers/lvgl/src/extra/widgets/msgbox/../../../../src/core/lv_obj_style_gen.h ****     lv_style_value_t v = lv_obj_get_style_prop(obj, part, LV_STYLE_BG_GRAD);
 190:Drivers/lvgl/src/extra/widgets/msgbox/../../../../src/core/lv_obj_style_gen.h ****     return (const lv_grad_dsc_t *)v.ptr;
 191:Drivers/lvgl/src/extra/widgets/msgbox/../../../../src/core/lv_obj_style_gen.h **** }
 192:Drivers/lvgl/src/extra/widgets/msgbox/../../../../src/core/lv_obj_style_gen.h **** 
 193:Drivers/lvgl/src/extra/widgets/msgbox/../../../../src/core/lv_obj_style_gen.h **** static inline lv_dither_mode_t lv_obj_get_style_bg_dither_mode(const struct _lv_obj_t * obj, uint32
 194:Drivers/lvgl/src/extra/widgets/msgbox/../../../../src/core/lv_obj_style_gen.h **** {
 195:Drivers/lvgl/src/extra/widgets/msgbox/../../../../src/core/lv_obj_style_gen.h ****     lv_style_value_t v = lv_obj_get_style_prop(obj, part, LV_STYLE_BG_DITHER_MODE);
 196:Drivers/lvgl/src/extra/widgets/msgbox/../../../../src/core/lv_obj_style_gen.h ****     return (lv_dither_mode_t)v.num;
 197:Drivers/lvgl/src/extra/widgets/msgbox/../../../../src/core/lv_obj_style_gen.h **** }
 198:Drivers/lvgl/src/extra/widgets/msgbox/../../../../src/core/lv_obj_style_gen.h **** 
 199:Drivers/lvgl/src/extra/widgets/msgbox/../../../../src/core/lv_obj_style_gen.h **** static inline const void * lv_obj_get_style_bg_img_src(const struct _lv_obj_t * obj, uint32_t part)
 200:Drivers/lvgl/src/extra/widgets/msgbox/../../../../src/core/lv_obj_style_gen.h **** {
 201:Drivers/lvgl/src/extra/widgets/msgbox/../../../../src/core/lv_obj_style_gen.h ****     lv_style_value_t v = lv_obj_get_style_prop(obj, part, LV_STYLE_BG_IMG_SRC);
 202:Drivers/lvgl/src/extra/widgets/msgbox/../../../../src/core/lv_obj_style_gen.h ****     return (const void *)v.ptr;
 203:Drivers/lvgl/src/extra/widgets/msgbox/../../../../src/core/lv_obj_style_gen.h **** }
 204:Drivers/lvgl/src/extra/widgets/msgbox/../../../../src/core/lv_obj_style_gen.h **** 
 205:Drivers/lvgl/src/extra/widgets/msgbox/../../../../src/core/lv_obj_style_gen.h **** static inline lv_opa_t lv_obj_get_style_bg_img_opa(const struct _lv_obj_t * obj, uint32_t part)
 206:Drivers/lvgl/src/extra/widgets/msgbox/../../../../src/core/lv_obj_style_gen.h **** {
 207:Drivers/lvgl/src/extra/widgets/msgbox/../../../../src/core/lv_obj_style_gen.h ****     lv_style_value_t v = lv_obj_get_style_prop(obj, part, LV_STYLE_BG_IMG_OPA);
 208:Drivers/lvgl/src/extra/widgets/msgbox/../../../../src/core/lv_obj_style_gen.h ****     return (lv_opa_t)v.num;
 209:Drivers/lvgl/src/extra/widgets/msgbox/../../../../src/core/lv_obj_style_gen.h **** }
 210:Drivers/lvgl/src/extra/widgets/msgbox/../../../../src/core/lv_obj_style_gen.h **** 
 211:Drivers/lvgl/src/extra/widgets/msgbox/../../../../src/core/lv_obj_style_gen.h **** static inline lv_color_t lv_obj_get_style_bg_img_recolor(const struct _lv_obj_t * obj, uint32_t par
 212:Drivers/lvgl/src/extra/widgets/msgbox/../../../../src/core/lv_obj_style_gen.h **** {
 213:Drivers/lvgl/src/extra/widgets/msgbox/../../../../src/core/lv_obj_style_gen.h ****     lv_style_value_t v = lv_obj_get_style_prop(obj, part, LV_STYLE_BG_IMG_RECOLOR);
 214:Drivers/lvgl/src/extra/widgets/msgbox/../../../../src/core/lv_obj_style_gen.h ****     return v.color;
 215:Drivers/lvgl/src/extra/widgets/msgbox/../../../../src/core/lv_obj_style_gen.h **** }
 216:Drivers/lvgl/src/extra/widgets/msgbox/../../../../src/core/lv_obj_style_gen.h **** 
 217:Drivers/lvgl/src/extra/widgets/msgbox/../../../../src/core/lv_obj_style_gen.h **** static inline lv_color_t lv_obj_get_style_bg_img_recolor_filtered(const struct _lv_obj_t * obj, uin
 218:Drivers/lvgl/src/extra/widgets/msgbox/../../../../src/core/lv_obj_style_gen.h **** {
 219:Drivers/lvgl/src/extra/widgets/msgbox/../../../../src/core/lv_obj_style_gen.h ****     lv_style_value_t v = _lv_obj_style_apply_color_filter(obj, part, lv_obj_get_style_prop(obj, par
 220:Drivers/lvgl/src/extra/widgets/msgbox/../../../../src/core/lv_obj_style_gen.h ****     return v.color;
 221:Drivers/lvgl/src/extra/widgets/msgbox/../../../../src/core/lv_obj_style_gen.h **** }
 222:Drivers/lvgl/src/extra/widgets/msgbox/../../../../src/core/lv_obj_style_gen.h **** 
ARM GAS  /var/folders/0z/tsy30v1j4xl4_7kw94k978ww0000gn/T//cceRZMx6.s 			page 16


 223:Drivers/lvgl/src/extra/widgets/msgbox/../../../../src/core/lv_obj_style_gen.h **** static inline lv_opa_t lv_obj_get_style_bg_img_recolor_opa(const struct _lv_obj_t * obj, uint32_t p
 224:Drivers/lvgl/src/extra/widgets/msgbox/../../../../src/core/lv_obj_style_gen.h **** {
 225:Drivers/lvgl/src/extra/widgets/msgbox/../../../../src/core/lv_obj_style_gen.h ****     lv_style_value_t v = lv_obj_get_style_prop(obj, part, LV_STYLE_BG_IMG_RECOLOR_OPA);
 226:Drivers/lvgl/src/extra/widgets/msgbox/../../../../src/core/lv_obj_style_gen.h ****     return (lv_opa_t)v.num;
 227:Drivers/lvgl/src/extra/widgets/msgbox/../../../../src/core/lv_obj_style_gen.h **** }
 228:Drivers/lvgl/src/extra/widgets/msgbox/../../../../src/core/lv_obj_style_gen.h **** 
 229:Drivers/lvgl/src/extra/widgets/msgbox/../../../../src/core/lv_obj_style_gen.h **** static inline bool lv_obj_get_style_bg_img_tiled(const struct _lv_obj_t * obj, uint32_t part)
 230:Drivers/lvgl/src/extra/widgets/msgbox/../../../../src/core/lv_obj_style_gen.h **** {
 231:Drivers/lvgl/src/extra/widgets/msgbox/../../../../src/core/lv_obj_style_gen.h ****     lv_style_value_t v = lv_obj_get_style_prop(obj, part, LV_STYLE_BG_IMG_TILED);
 232:Drivers/lvgl/src/extra/widgets/msgbox/../../../../src/core/lv_obj_style_gen.h ****     return (bool)v.num;
 233:Drivers/lvgl/src/extra/widgets/msgbox/../../../../src/core/lv_obj_style_gen.h **** }
 234:Drivers/lvgl/src/extra/widgets/msgbox/../../../../src/core/lv_obj_style_gen.h **** 
 235:Drivers/lvgl/src/extra/widgets/msgbox/../../../../src/core/lv_obj_style_gen.h **** static inline lv_color_t lv_obj_get_style_border_color(const struct _lv_obj_t * obj, uint32_t part)
 236:Drivers/lvgl/src/extra/widgets/msgbox/../../../../src/core/lv_obj_style_gen.h **** {
 237:Drivers/lvgl/src/extra/widgets/msgbox/../../../../src/core/lv_obj_style_gen.h ****     lv_style_value_t v = lv_obj_get_style_prop(obj, part, LV_STYLE_BORDER_COLOR);
 238:Drivers/lvgl/src/extra/widgets/msgbox/../../../../src/core/lv_obj_style_gen.h ****     return v.color;
 239:Drivers/lvgl/src/extra/widgets/msgbox/../../../../src/core/lv_obj_style_gen.h **** }
 240:Drivers/lvgl/src/extra/widgets/msgbox/../../../../src/core/lv_obj_style_gen.h **** 
 241:Drivers/lvgl/src/extra/widgets/msgbox/../../../../src/core/lv_obj_style_gen.h **** static inline lv_color_t lv_obj_get_style_border_color_filtered(const struct _lv_obj_t * obj, uint3
 242:Drivers/lvgl/src/extra/widgets/msgbox/../../../../src/core/lv_obj_style_gen.h **** {
 243:Drivers/lvgl/src/extra/widgets/msgbox/../../../../src/core/lv_obj_style_gen.h ****     lv_style_value_t v = _lv_obj_style_apply_color_filter(obj, part, lv_obj_get_style_prop(obj, par
 244:Drivers/lvgl/src/extra/widgets/msgbox/../../../../src/core/lv_obj_style_gen.h ****     return v.color;
 245:Drivers/lvgl/src/extra/widgets/msgbox/../../../../src/core/lv_obj_style_gen.h **** }
 246:Drivers/lvgl/src/extra/widgets/msgbox/../../../../src/core/lv_obj_style_gen.h **** 
 247:Drivers/lvgl/src/extra/widgets/msgbox/../../../../src/core/lv_obj_style_gen.h **** static inline lv_opa_t lv_obj_get_style_border_opa(const struct _lv_obj_t * obj, uint32_t part)
 248:Drivers/lvgl/src/extra/widgets/msgbox/../../../../src/core/lv_obj_style_gen.h **** {
 249:Drivers/lvgl/src/extra/widgets/msgbox/../../../../src/core/lv_obj_style_gen.h ****     lv_style_value_t v = lv_obj_get_style_prop(obj, part, LV_STYLE_BORDER_OPA);
 250:Drivers/lvgl/src/extra/widgets/msgbox/../../../../src/core/lv_obj_style_gen.h ****     return (lv_opa_t)v.num;
 251:Drivers/lvgl/src/extra/widgets/msgbox/../../../../src/core/lv_obj_style_gen.h **** }
 252:Drivers/lvgl/src/extra/widgets/msgbox/../../../../src/core/lv_obj_style_gen.h **** 
 253:Drivers/lvgl/src/extra/widgets/msgbox/../../../../src/core/lv_obj_style_gen.h **** static inline lv_coord_t lv_obj_get_style_border_width(const struct _lv_obj_t * obj, uint32_t part)
 254:Drivers/lvgl/src/extra/widgets/msgbox/../../../../src/core/lv_obj_style_gen.h **** {
 255:Drivers/lvgl/src/extra/widgets/msgbox/../../../../src/core/lv_obj_style_gen.h ****     lv_style_value_t v = lv_obj_get_style_prop(obj, part, LV_STYLE_BORDER_WIDTH);
 256:Drivers/lvgl/src/extra/widgets/msgbox/../../../../src/core/lv_obj_style_gen.h ****     return (lv_coord_t)v.num;
 257:Drivers/lvgl/src/extra/widgets/msgbox/../../../../src/core/lv_obj_style_gen.h **** }
 258:Drivers/lvgl/src/extra/widgets/msgbox/../../../../src/core/lv_obj_style_gen.h **** 
 259:Drivers/lvgl/src/extra/widgets/msgbox/../../../../src/core/lv_obj_style_gen.h **** static inline lv_border_side_t lv_obj_get_style_border_side(const struct _lv_obj_t * obj, uint32_t 
 260:Drivers/lvgl/src/extra/widgets/msgbox/../../../../src/core/lv_obj_style_gen.h **** {
 261:Drivers/lvgl/src/extra/widgets/msgbox/../../../../src/core/lv_obj_style_gen.h ****     lv_style_value_t v = lv_obj_get_style_prop(obj, part, LV_STYLE_BORDER_SIDE);
 262:Drivers/lvgl/src/extra/widgets/msgbox/../../../../src/core/lv_obj_style_gen.h ****     return (lv_border_side_t)v.num;
 263:Drivers/lvgl/src/extra/widgets/msgbox/../../../../src/core/lv_obj_style_gen.h **** }
 264:Drivers/lvgl/src/extra/widgets/msgbox/../../../../src/core/lv_obj_style_gen.h **** 
 265:Drivers/lvgl/src/extra/widgets/msgbox/../../../../src/core/lv_obj_style_gen.h **** static inline bool lv_obj_get_style_border_post(const struct _lv_obj_t * obj, uint32_t part)
 266:Drivers/lvgl/src/extra/widgets/msgbox/../../../../src/core/lv_obj_style_gen.h **** {
 267:Drivers/lvgl/src/extra/widgets/msgbox/../../../../src/core/lv_obj_style_gen.h ****     lv_style_value_t v = lv_obj_get_style_prop(obj, part, LV_STYLE_BORDER_POST);
 268:Drivers/lvgl/src/extra/widgets/msgbox/../../../../src/core/lv_obj_style_gen.h ****     return (bool)v.num;
 269:Drivers/lvgl/src/extra/widgets/msgbox/../../../../src/core/lv_obj_style_gen.h **** }
 270:Drivers/lvgl/src/extra/widgets/msgbox/../../../../src/core/lv_obj_style_gen.h **** 
 271:Drivers/lvgl/src/extra/widgets/msgbox/../../../../src/core/lv_obj_style_gen.h **** static inline lv_coord_t lv_obj_get_style_outline_width(const struct _lv_obj_t * obj, uint32_t part
 272:Drivers/lvgl/src/extra/widgets/msgbox/../../../../src/core/lv_obj_style_gen.h **** {
 273:Drivers/lvgl/src/extra/widgets/msgbox/../../../../src/core/lv_obj_style_gen.h ****     lv_style_value_t v = lv_obj_get_style_prop(obj, part, LV_STYLE_OUTLINE_WIDTH);
 274:Drivers/lvgl/src/extra/widgets/msgbox/../../../../src/core/lv_obj_style_gen.h ****     return (lv_coord_t)v.num;
 275:Drivers/lvgl/src/extra/widgets/msgbox/../../../../src/core/lv_obj_style_gen.h **** }
 276:Drivers/lvgl/src/extra/widgets/msgbox/../../../../src/core/lv_obj_style_gen.h **** 
 277:Drivers/lvgl/src/extra/widgets/msgbox/../../../../src/core/lv_obj_style_gen.h **** static inline lv_color_t lv_obj_get_style_outline_color(const struct _lv_obj_t * obj, uint32_t part
 278:Drivers/lvgl/src/extra/widgets/msgbox/../../../../src/core/lv_obj_style_gen.h **** {
 279:Drivers/lvgl/src/extra/widgets/msgbox/../../../../src/core/lv_obj_style_gen.h ****     lv_style_value_t v = lv_obj_get_style_prop(obj, part, LV_STYLE_OUTLINE_COLOR);
ARM GAS  /var/folders/0z/tsy30v1j4xl4_7kw94k978ww0000gn/T//cceRZMx6.s 			page 17


 280:Drivers/lvgl/src/extra/widgets/msgbox/../../../../src/core/lv_obj_style_gen.h ****     return v.color;
 281:Drivers/lvgl/src/extra/widgets/msgbox/../../../../src/core/lv_obj_style_gen.h **** }
 282:Drivers/lvgl/src/extra/widgets/msgbox/../../../../src/core/lv_obj_style_gen.h **** 
 283:Drivers/lvgl/src/extra/widgets/msgbox/../../../../src/core/lv_obj_style_gen.h **** static inline lv_color_t lv_obj_get_style_outline_color_filtered(const struct _lv_obj_t * obj, uint
 284:Drivers/lvgl/src/extra/widgets/msgbox/../../../../src/core/lv_obj_style_gen.h **** {
 285:Drivers/lvgl/src/extra/widgets/msgbox/../../../../src/core/lv_obj_style_gen.h ****     lv_style_value_t v = _lv_obj_style_apply_color_filter(obj, part, lv_obj_get_style_prop(obj, par
 286:Drivers/lvgl/src/extra/widgets/msgbox/../../../../src/core/lv_obj_style_gen.h ****     return v.color;
 287:Drivers/lvgl/src/extra/widgets/msgbox/../../../../src/core/lv_obj_style_gen.h **** }
 288:Drivers/lvgl/src/extra/widgets/msgbox/../../../../src/core/lv_obj_style_gen.h **** 
 289:Drivers/lvgl/src/extra/widgets/msgbox/../../../../src/core/lv_obj_style_gen.h **** static inline lv_opa_t lv_obj_get_style_outline_opa(const struct _lv_obj_t * obj, uint32_t part)
 290:Drivers/lvgl/src/extra/widgets/msgbox/../../../../src/core/lv_obj_style_gen.h **** {
 291:Drivers/lvgl/src/extra/widgets/msgbox/../../../../src/core/lv_obj_style_gen.h ****     lv_style_value_t v = lv_obj_get_style_prop(obj, part, LV_STYLE_OUTLINE_OPA);
 292:Drivers/lvgl/src/extra/widgets/msgbox/../../../../src/core/lv_obj_style_gen.h ****     return (lv_opa_t)v.num;
 293:Drivers/lvgl/src/extra/widgets/msgbox/../../../../src/core/lv_obj_style_gen.h **** }
 294:Drivers/lvgl/src/extra/widgets/msgbox/../../../../src/core/lv_obj_style_gen.h **** 
 295:Drivers/lvgl/src/extra/widgets/msgbox/../../../../src/core/lv_obj_style_gen.h **** static inline lv_coord_t lv_obj_get_style_outline_pad(const struct _lv_obj_t * obj, uint32_t part)
 296:Drivers/lvgl/src/extra/widgets/msgbox/../../../../src/core/lv_obj_style_gen.h **** {
 297:Drivers/lvgl/src/extra/widgets/msgbox/../../../../src/core/lv_obj_style_gen.h ****     lv_style_value_t v = lv_obj_get_style_prop(obj, part, LV_STYLE_OUTLINE_PAD);
 298:Drivers/lvgl/src/extra/widgets/msgbox/../../../../src/core/lv_obj_style_gen.h ****     return (lv_coord_t)v.num;
 299:Drivers/lvgl/src/extra/widgets/msgbox/../../../../src/core/lv_obj_style_gen.h **** }
 300:Drivers/lvgl/src/extra/widgets/msgbox/../../../../src/core/lv_obj_style_gen.h **** 
 301:Drivers/lvgl/src/extra/widgets/msgbox/../../../../src/core/lv_obj_style_gen.h **** static inline lv_coord_t lv_obj_get_style_shadow_width(const struct _lv_obj_t * obj, uint32_t part)
 302:Drivers/lvgl/src/extra/widgets/msgbox/../../../../src/core/lv_obj_style_gen.h **** {
 303:Drivers/lvgl/src/extra/widgets/msgbox/../../../../src/core/lv_obj_style_gen.h ****     lv_style_value_t v = lv_obj_get_style_prop(obj, part, LV_STYLE_SHADOW_WIDTH);
 304:Drivers/lvgl/src/extra/widgets/msgbox/../../../../src/core/lv_obj_style_gen.h ****     return (lv_coord_t)v.num;
 305:Drivers/lvgl/src/extra/widgets/msgbox/../../../../src/core/lv_obj_style_gen.h **** }
 306:Drivers/lvgl/src/extra/widgets/msgbox/../../../../src/core/lv_obj_style_gen.h **** 
 307:Drivers/lvgl/src/extra/widgets/msgbox/../../../../src/core/lv_obj_style_gen.h **** static inline lv_coord_t lv_obj_get_style_shadow_ofs_x(const struct _lv_obj_t * obj, uint32_t part)
 308:Drivers/lvgl/src/extra/widgets/msgbox/../../../../src/core/lv_obj_style_gen.h **** {
 309:Drivers/lvgl/src/extra/widgets/msgbox/../../../../src/core/lv_obj_style_gen.h ****     lv_style_value_t v = lv_obj_get_style_prop(obj, part, LV_STYLE_SHADOW_OFS_X);
 310:Drivers/lvgl/src/extra/widgets/msgbox/../../../../src/core/lv_obj_style_gen.h ****     return (lv_coord_t)v.num;
 311:Drivers/lvgl/src/extra/widgets/msgbox/../../../../src/core/lv_obj_style_gen.h **** }
 312:Drivers/lvgl/src/extra/widgets/msgbox/../../../../src/core/lv_obj_style_gen.h **** 
 313:Drivers/lvgl/src/extra/widgets/msgbox/../../../../src/core/lv_obj_style_gen.h **** static inline lv_coord_t lv_obj_get_style_shadow_ofs_y(const struct _lv_obj_t * obj, uint32_t part)
 314:Drivers/lvgl/src/extra/widgets/msgbox/../../../../src/core/lv_obj_style_gen.h **** {
 315:Drivers/lvgl/src/extra/widgets/msgbox/../../../../src/core/lv_obj_style_gen.h ****     lv_style_value_t v = lv_obj_get_style_prop(obj, part, LV_STYLE_SHADOW_OFS_Y);
 316:Drivers/lvgl/src/extra/widgets/msgbox/../../../../src/core/lv_obj_style_gen.h ****     return (lv_coord_t)v.num;
 317:Drivers/lvgl/src/extra/widgets/msgbox/../../../../src/core/lv_obj_style_gen.h **** }
 318:Drivers/lvgl/src/extra/widgets/msgbox/../../../../src/core/lv_obj_style_gen.h **** 
 319:Drivers/lvgl/src/extra/widgets/msgbox/../../../../src/core/lv_obj_style_gen.h **** static inline lv_coord_t lv_obj_get_style_shadow_spread(const struct _lv_obj_t * obj, uint32_t part
 320:Drivers/lvgl/src/extra/widgets/msgbox/../../../../src/core/lv_obj_style_gen.h **** {
 321:Drivers/lvgl/src/extra/widgets/msgbox/../../../../src/core/lv_obj_style_gen.h ****     lv_style_value_t v = lv_obj_get_style_prop(obj, part, LV_STYLE_SHADOW_SPREAD);
 322:Drivers/lvgl/src/extra/widgets/msgbox/../../../../src/core/lv_obj_style_gen.h ****     return (lv_coord_t)v.num;
 323:Drivers/lvgl/src/extra/widgets/msgbox/../../../../src/core/lv_obj_style_gen.h **** }
 324:Drivers/lvgl/src/extra/widgets/msgbox/../../../../src/core/lv_obj_style_gen.h **** 
 325:Drivers/lvgl/src/extra/widgets/msgbox/../../../../src/core/lv_obj_style_gen.h **** static inline lv_color_t lv_obj_get_style_shadow_color(const struct _lv_obj_t * obj, uint32_t part)
 326:Drivers/lvgl/src/extra/widgets/msgbox/../../../../src/core/lv_obj_style_gen.h **** {
 327:Drivers/lvgl/src/extra/widgets/msgbox/../../../../src/core/lv_obj_style_gen.h ****     lv_style_value_t v = lv_obj_get_style_prop(obj, part, LV_STYLE_SHADOW_COLOR);
 328:Drivers/lvgl/src/extra/widgets/msgbox/../../../../src/core/lv_obj_style_gen.h ****     return v.color;
 329:Drivers/lvgl/src/extra/widgets/msgbox/../../../../src/core/lv_obj_style_gen.h **** }
 330:Drivers/lvgl/src/extra/widgets/msgbox/../../../../src/core/lv_obj_style_gen.h **** 
 331:Drivers/lvgl/src/extra/widgets/msgbox/../../../../src/core/lv_obj_style_gen.h **** static inline lv_color_t lv_obj_get_style_shadow_color_filtered(const struct _lv_obj_t * obj, uint3
 332:Drivers/lvgl/src/extra/widgets/msgbox/../../../../src/core/lv_obj_style_gen.h **** {
 333:Drivers/lvgl/src/extra/widgets/msgbox/../../../../src/core/lv_obj_style_gen.h ****     lv_style_value_t v = _lv_obj_style_apply_color_filter(obj, part, lv_obj_get_style_prop(obj, par
 334:Drivers/lvgl/src/extra/widgets/msgbox/../../../../src/core/lv_obj_style_gen.h ****     return v.color;
 335:Drivers/lvgl/src/extra/widgets/msgbox/../../../../src/core/lv_obj_style_gen.h **** }
 336:Drivers/lvgl/src/extra/widgets/msgbox/../../../../src/core/lv_obj_style_gen.h **** 
ARM GAS  /var/folders/0z/tsy30v1j4xl4_7kw94k978ww0000gn/T//cceRZMx6.s 			page 18


 337:Drivers/lvgl/src/extra/widgets/msgbox/../../../../src/core/lv_obj_style_gen.h **** static inline lv_opa_t lv_obj_get_style_shadow_opa(const struct _lv_obj_t * obj, uint32_t part)
 338:Drivers/lvgl/src/extra/widgets/msgbox/../../../../src/core/lv_obj_style_gen.h **** {
 339:Drivers/lvgl/src/extra/widgets/msgbox/../../../../src/core/lv_obj_style_gen.h ****     lv_style_value_t v = lv_obj_get_style_prop(obj, part, LV_STYLE_SHADOW_OPA);
 340:Drivers/lvgl/src/extra/widgets/msgbox/../../../../src/core/lv_obj_style_gen.h ****     return (lv_opa_t)v.num;
 341:Drivers/lvgl/src/extra/widgets/msgbox/../../../../src/core/lv_obj_style_gen.h **** }
 342:Drivers/lvgl/src/extra/widgets/msgbox/../../../../src/core/lv_obj_style_gen.h **** 
 343:Drivers/lvgl/src/extra/widgets/msgbox/../../../../src/core/lv_obj_style_gen.h **** static inline lv_opa_t lv_obj_get_style_img_opa(const struct _lv_obj_t * obj, uint32_t part)
 344:Drivers/lvgl/src/extra/widgets/msgbox/../../../../src/core/lv_obj_style_gen.h **** {
 345:Drivers/lvgl/src/extra/widgets/msgbox/../../../../src/core/lv_obj_style_gen.h ****     lv_style_value_t v = lv_obj_get_style_prop(obj, part, LV_STYLE_IMG_OPA);
 346:Drivers/lvgl/src/extra/widgets/msgbox/../../../../src/core/lv_obj_style_gen.h ****     return (lv_opa_t)v.num;
 347:Drivers/lvgl/src/extra/widgets/msgbox/../../../../src/core/lv_obj_style_gen.h **** }
 348:Drivers/lvgl/src/extra/widgets/msgbox/../../../../src/core/lv_obj_style_gen.h **** 
 349:Drivers/lvgl/src/extra/widgets/msgbox/../../../../src/core/lv_obj_style_gen.h **** static inline lv_color_t lv_obj_get_style_img_recolor(const struct _lv_obj_t * obj, uint32_t part)
 350:Drivers/lvgl/src/extra/widgets/msgbox/../../../../src/core/lv_obj_style_gen.h **** {
 351:Drivers/lvgl/src/extra/widgets/msgbox/../../../../src/core/lv_obj_style_gen.h ****     lv_style_value_t v = lv_obj_get_style_prop(obj, part, LV_STYLE_IMG_RECOLOR);
 352:Drivers/lvgl/src/extra/widgets/msgbox/../../../../src/core/lv_obj_style_gen.h ****     return v.color;
 353:Drivers/lvgl/src/extra/widgets/msgbox/../../../../src/core/lv_obj_style_gen.h **** }
 354:Drivers/lvgl/src/extra/widgets/msgbox/../../../../src/core/lv_obj_style_gen.h **** 
 355:Drivers/lvgl/src/extra/widgets/msgbox/../../../../src/core/lv_obj_style_gen.h **** static inline lv_color_t lv_obj_get_style_img_recolor_filtered(const struct _lv_obj_t * obj, uint32
 356:Drivers/lvgl/src/extra/widgets/msgbox/../../../../src/core/lv_obj_style_gen.h **** {
 357:Drivers/lvgl/src/extra/widgets/msgbox/../../../../src/core/lv_obj_style_gen.h ****     lv_style_value_t v = _lv_obj_style_apply_color_filter(obj, part, lv_obj_get_style_prop(obj, par
 358:Drivers/lvgl/src/extra/widgets/msgbox/../../../../src/core/lv_obj_style_gen.h ****     return v.color;
 359:Drivers/lvgl/src/extra/widgets/msgbox/../../../../src/core/lv_obj_style_gen.h **** }
 360:Drivers/lvgl/src/extra/widgets/msgbox/../../../../src/core/lv_obj_style_gen.h **** 
 361:Drivers/lvgl/src/extra/widgets/msgbox/../../../../src/core/lv_obj_style_gen.h **** static inline lv_opa_t lv_obj_get_style_img_recolor_opa(const struct _lv_obj_t * obj, uint32_t part
 362:Drivers/lvgl/src/extra/widgets/msgbox/../../../../src/core/lv_obj_style_gen.h **** {
 363:Drivers/lvgl/src/extra/widgets/msgbox/../../../../src/core/lv_obj_style_gen.h ****     lv_style_value_t v = lv_obj_get_style_prop(obj, part, LV_STYLE_IMG_RECOLOR_OPA);
 364:Drivers/lvgl/src/extra/widgets/msgbox/../../../../src/core/lv_obj_style_gen.h ****     return (lv_opa_t)v.num;
 365:Drivers/lvgl/src/extra/widgets/msgbox/../../../../src/core/lv_obj_style_gen.h **** }
 366:Drivers/lvgl/src/extra/widgets/msgbox/../../../../src/core/lv_obj_style_gen.h **** 
 367:Drivers/lvgl/src/extra/widgets/msgbox/../../../../src/core/lv_obj_style_gen.h **** static inline lv_coord_t lv_obj_get_style_line_width(const struct _lv_obj_t * obj, uint32_t part)
 368:Drivers/lvgl/src/extra/widgets/msgbox/../../../../src/core/lv_obj_style_gen.h **** {
 369:Drivers/lvgl/src/extra/widgets/msgbox/../../../../src/core/lv_obj_style_gen.h ****     lv_style_value_t v = lv_obj_get_style_prop(obj, part, LV_STYLE_LINE_WIDTH);
 370:Drivers/lvgl/src/extra/widgets/msgbox/../../../../src/core/lv_obj_style_gen.h ****     return (lv_coord_t)v.num;
 371:Drivers/lvgl/src/extra/widgets/msgbox/../../../../src/core/lv_obj_style_gen.h **** }
 372:Drivers/lvgl/src/extra/widgets/msgbox/../../../../src/core/lv_obj_style_gen.h **** 
 373:Drivers/lvgl/src/extra/widgets/msgbox/../../../../src/core/lv_obj_style_gen.h **** static inline lv_coord_t lv_obj_get_style_line_dash_width(const struct _lv_obj_t * obj, uint32_t pa
 374:Drivers/lvgl/src/extra/widgets/msgbox/../../../../src/core/lv_obj_style_gen.h **** {
 375:Drivers/lvgl/src/extra/widgets/msgbox/../../../../src/core/lv_obj_style_gen.h ****     lv_style_value_t v = lv_obj_get_style_prop(obj, part, LV_STYLE_LINE_DASH_WIDTH);
 376:Drivers/lvgl/src/extra/widgets/msgbox/../../../../src/core/lv_obj_style_gen.h ****     return (lv_coord_t)v.num;
 377:Drivers/lvgl/src/extra/widgets/msgbox/../../../../src/core/lv_obj_style_gen.h **** }
 378:Drivers/lvgl/src/extra/widgets/msgbox/../../../../src/core/lv_obj_style_gen.h **** 
 379:Drivers/lvgl/src/extra/widgets/msgbox/../../../../src/core/lv_obj_style_gen.h **** static inline lv_coord_t lv_obj_get_style_line_dash_gap(const struct _lv_obj_t * obj, uint32_t part
 380:Drivers/lvgl/src/extra/widgets/msgbox/../../../../src/core/lv_obj_style_gen.h **** {
 381:Drivers/lvgl/src/extra/widgets/msgbox/../../../../src/core/lv_obj_style_gen.h ****     lv_style_value_t v = lv_obj_get_style_prop(obj, part, LV_STYLE_LINE_DASH_GAP);
 382:Drivers/lvgl/src/extra/widgets/msgbox/../../../../src/core/lv_obj_style_gen.h ****     return (lv_coord_t)v.num;
 383:Drivers/lvgl/src/extra/widgets/msgbox/../../../../src/core/lv_obj_style_gen.h **** }
 384:Drivers/lvgl/src/extra/widgets/msgbox/../../../../src/core/lv_obj_style_gen.h **** 
 385:Drivers/lvgl/src/extra/widgets/msgbox/../../../../src/core/lv_obj_style_gen.h **** static inline bool lv_obj_get_style_line_rounded(const struct _lv_obj_t * obj, uint32_t part)
 386:Drivers/lvgl/src/extra/widgets/msgbox/../../../../src/core/lv_obj_style_gen.h **** {
 387:Drivers/lvgl/src/extra/widgets/msgbox/../../../../src/core/lv_obj_style_gen.h ****     lv_style_value_t v = lv_obj_get_style_prop(obj, part, LV_STYLE_LINE_ROUNDED);
 388:Drivers/lvgl/src/extra/widgets/msgbox/../../../../src/core/lv_obj_style_gen.h ****     return (bool)v.num;
 389:Drivers/lvgl/src/extra/widgets/msgbox/../../../../src/core/lv_obj_style_gen.h **** }
 390:Drivers/lvgl/src/extra/widgets/msgbox/../../../../src/core/lv_obj_style_gen.h **** 
 391:Drivers/lvgl/src/extra/widgets/msgbox/../../../../src/core/lv_obj_style_gen.h **** static inline lv_color_t lv_obj_get_style_line_color(const struct _lv_obj_t * obj, uint32_t part)
 392:Drivers/lvgl/src/extra/widgets/msgbox/../../../../src/core/lv_obj_style_gen.h **** {
 393:Drivers/lvgl/src/extra/widgets/msgbox/../../../../src/core/lv_obj_style_gen.h ****     lv_style_value_t v = lv_obj_get_style_prop(obj, part, LV_STYLE_LINE_COLOR);
ARM GAS  /var/folders/0z/tsy30v1j4xl4_7kw94k978ww0000gn/T//cceRZMx6.s 			page 19


 394:Drivers/lvgl/src/extra/widgets/msgbox/../../../../src/core/lv_obj_style_gen.h ****     return v.color;
 395:Drivers/lvgl/src/extra/widgets/msgbox/../../../../src/core/lv_obj_style_gen.h **** }
 396:Drivers/lvgl/src/extra/widgets/msgbox/../../../../src/core/lv_obj_style_gen.h **** 
 397:Drivers/lvgl/src/extra/widgets/msgbox/../../../../src/core/lv_obj_style_gen.h **** static inline lv_color_t lv_obj_get_style_line_color_filtered(const struct _lv_obj_t * obj, uint32_
 398:Drivers/lvgl/src/extra/widgets/msgbox/../../../../src/core/lv_obj_style_gen.h **** {
 399:Drivers/lvgl/src/extra/widgets/msgbox/../../../../src/core/lv_obj_style_gen.h ****     lv_style_value_t v = _lv_obj_style_apply_color_filter(obj, part, lv_obj_get_style_prop(obj, par
 400:Drivers/lvgl/src/extra/widgets/msgbox/../../../../src/core/lv_obj_style_gen.h ****     return v.color;
 401:Drivers/lvgl/src/extra/widgets/msgbox/../../../../src/core/lv_obj_style_gen.h **** }
 402:Drivers/lvgl/src/extra/widgets/msgbox/../../../../src/core/lv_obj_style_gen.h **** 
 403:Drivers/lvgl/src/extra/widgets/msgbox/../../../../src/core/lv_obj_style_gen.h **** static inline lv_opa_t lv_obj_get_style_line_opa(const struct _lv_obj_t * obj, uint32_t part)
 404:Drivers/lvgl/src/extra/widgets/msgbox/../../../../src/core/lv_obj_style_gen.h **** {
 405:Drivers/lvgl/src/extra/widgets/msgbox/../../../../src/core/lv_obj_style_gen.h ****     lv_style_value_t v = lv_obj_get_style_prop(obj, part, LV_STYLE_LINE_OPA);
 406:Drivers/lvgl/src/extra/widgets/msgbox/../../../../src/core/lv_obj_style_gen.h ****     return (lv_opa_t)v.num;
 407:Drivers/lvgl/src/extra/widgets/msgbox/../../../../src/core/lv_obj_style_gen.h **** }
 408:Drivers/lvgl/src/extra/widgets/msgbox/../../../../src/core/lv_obj_style_gen.h **** 
 409:Drivers/lvgl/src/extra/widgets/msgbox/../../../../src/core/lv_obj_style_gen.h **** static inline lv_coord_t lv_obj_get_style_arc_width(const struct _lv_obj_t * obj, uint32_t part)
 410:Drivers/lvgl/src/extra/widgets/msgbox/../../../../src/core/lv_obj_style_gen.h **** {
 411:Drivers/lvgl/src/extra/widgets/msgbox/../../../../src/core/lv_obj_style_gen.h ****     lv_style_value_t v = lv_obj_get_style_prop(obj, part, LV_STYLE_ARC_WIDTH);
 412:Drivers/lvgl/src/extra/widgets/msgbox/../../../../src/core/lv_obj_style_gen.h ****     return (lv_coord_t)v.num;
 413:Drivers/lvgl/src/extra/widgets/msgbox/../../../../src/core/lv_obj_style_gen.h **** }
 414:Drivers/lvgl/src/extra/widgets/msgbox/../../../../src/core/lv_obj_style_gen.h **** 
 415:Drivers/lvgl/src/extra/widgets/msgbox/../../../../src/core/lv_obj_style_gen.h **** static inline bool lv_obj_get_style_arc_rounded(const struct _lv_obj_t * obj, uint32_t part)
 416:Drivers/lvgl/src/extra/widgets/msgbox/../../../../src/core/lv_obj_style_gen.h **** {
 417:Drivers/lvgl/src/extra/widgets/msgbox/../../../../src/core/lv_obj_style_gen.h ****     lv_style_value_t v = lv_obj_get_style_prop(obj, part, LV_STYLE_ARC_ROUNDED);
 418:Drivers/lvgl/src/extra/widgets/msgbox/../../../../src/core/lv_obj_style_gen.h ****     return (bool)v.num;
 419:Drivers/lvgl/src/extra/widgets/msgbox/../../../../src/core/lv_obj_style_gen.h **** }
 420:Drivers/lvgl/src/extra/widgets/msgbox/../../../../src/core/lv_obj_style_gen.h **** 
 421:Drivers/lvgl/src/extra/widgets/msgbox/../../../../src/core/lv_obj_style_gen.h **** static inline lv_color_t lv_obj_get_style_arc_color(const struct _lv_obj_t * obj, uint32_t part)
 422:Drivers/lvgl/src/extra/widgets/msgbox/../../../../src/core/lv_obj_style_gen.h **** {
 423:Drivers/lvgl/src/extra/widgets/msgbox/../../../../src/core/lv_obj_style_gen.h ****     lv_style_value_t v = lv_obj_get_style_prop(obj, part, LV_STYLE_ARC_COLOR);
 424:Drivers/lvgl/src/extra/widgets/msgbox/../../../../src/core/lv_obj_style_gen.h ****     return v.color;
 425:Drivers/lvgl/src/extra/widgets/msgbox/../../../../src/core/lv_obj_style_gen.h **** }
 426:Drivers/lvgl/src/extra/widgets/msgbox/../../../../src/core/lv_obj_style_gen.h **** 
 427:Drivers/lvgl/src/extra/widgets/msgbox/../../../../src/core/lv_obj_style_gen.h **** static inline lv_color_t lv_obj_get_style_arc_color_filtered(const struct _lv_obj_t * obj, uint32_t
 428:Drivers/lvgl/src/extra/widgets/msgbox/../../../../src/core/lv_obj_style_gen.h **** {
 429:Drivers/lvgl/src/extra/widgets/msgbox/../../../../src/core/lv_obj_style_gen.h ****     lv_style_value_t v = _lv_obj_style_apply_color_filter(obj, part, lv_obj_get_style_prop(obj, par
 430:Drivers/lvgl/src/extra/widgets/msgbox/../../../../src/core/lv_obj_style_gen.h ****     return v.color;
 431:Drivers/lvgl/src/extra/widgets/msgbox/../../../../src/core/lv_obj_style_gen.h **** }
 432:Drivers/lvgl/src/extra/widgets/msgbox/../../../../src/core/lv_obj_style_gen.h **** 
 433:Drivers/lvgl/src/extra/widgets/msgbox/../../../../src/core/lv_obj_style_gen.h **** static inline lv_opa_t lv_obj_get_style_arc_opa(const struct _lv_obj_t * obj, uint32_t part)
 434:Drivers/lvgl/src/extra/widgets/msgbox/../../../../src/core/lv_obj_style_gen.h **** {
 435:Drivers/lvgl/src/extra/widgets/msgbox/../../../../src/core/lv_obj_style_gen.h ****     lv_style_value_t v = lv_obj_get_style_prop(obj, part, LV_STYLE_ARC_OPA);
 436:Drivers/lvgl/src/extra/widgets/msgbox/../../../../src/core/lv_obj_style_gen.h ****     return (lv_opa_t)v.num;
 437:Drivers/lvgl/src/extra/widgets/msgbox/../../../../src/core/lv_obj_style_gen.h **** }
 438:Drivers/lvgl/src/extra/widgets/msgbox/../../../../src/core/lv_obj_style_gen.h **** 
 439:Drivers/lvgl/src/extra/widgets/msgbox/../../../../src/core/lv_obj_style_gen.h **** static inline const void * lv_obj_get_style_arc_img_src(const struct _lv_obj_t * obj, uint32_t part
 440:Drivers/lvgl/src/extra/widgets/msgbox/../../../../src/core/lv_obj_style_gen.h **** {
 441:Drivers/lvgl/src/extra/widgets/msgbox/../../../../src/core/lv_obj_style_gen.h ****     lv_style_value_t v = lv_obj_get_style_prop(obj, part, LV_STYLE_ARC_IMG_SRC);
 442:Drivers/lvgl/src/extra/widgets/msgbox/../../../../src/core/lv_obj_style_gen.h ****     return (const void *)v.ptr;
 443:Drivers/lvgl/src/extra/widgets/msgbox/../../../../src/core/lv_obj_style_gen.h **** }
 444:Drivers/lvgl/src/extra/widgets/msgbox/../../../../src/core/lv_obj_style_gen.h **** 
 445:Drivers/lvgl/src/extra/widgets/msgbox/../../../../src/core/lv_obj_style_gen.h **** static inline lv_color_t lv_obj_get_style_text_color(const struct _lv_obj_t * obj, uint32_t part)
 446:Drivers/lvgl/src/extra/widgets/msgbox/../../../../src/core/lv_obj_style_gen.h **** {
 447:Drivers/lvgl/src/extra/widgets/msgbox/../../../../src/core/lv_obj_style_gen.h ****     lv_style_value_t v = lv_obj_get_style_prop(obj, part, LV_STYLE_TEXT_COLOR);
 448:Drivers/lvgl/src/extra/widgets/msgbox/../../../../src/core/lv_obj_style_gen.h ****     return v.color;
 449:Drivers/lvgl/src/extra/widgets/msgbox/../../../../src/core/lv_obj_style_gen.h **** }
 450:Drivers/lvgl/src/extra/widgets/msgbox/../../../../src/core/lv_obj_style_gen.h **** 
ARM GAS  /var/folders/0z/tsy30v1j4xl4_7kw94k978ww0000gn/T//cceRZMx6.s 			page 20


 451:Drivers/lvgl/src/extra/widgets/msgbox/../../../../src/core/lv_obj_style_gen.h **** static inline lv_color_t lv_obj_get_style_text_color_filtered(const struct _lv_obj_t * obj, uint32_
 452:Drivers/lvgl/src/extra/widgets/msgbox/../../../../src/core/lv_obj_style_gen.h **** {
 453:Drivers/lvgl/src/extra/widgets/msgbox/../../../../src/core/lv_obj_style_gen.h ****     lv_style_value_t v = _lv_obj_style_apply_color_filter(obj, part, lv_obj_get_style_prop(obj, par
 454:Drivers/lvgl/src/extra/widgets/msgbox/../../../../src/core/lv_obj_style_gen.h ****     return v.color;
 455:Drivers/lvgl/src/extra/widgets/msgbox/../../../../src/core/lv_obj_style_gen.h **** }
 456:Drivers/lvgl/src/extra/widgets/msgbox/../../../../src/core/lv_obj_style_gen.h **** 
 457:Drivers/lvgl/src/extra/widgets/msgbox/../../../../src/core/lv_obj_style_gen.h **** static inline lv_opa_t lv_obj_get_style_text_opa(const struct _lv_obj_t * obj, uint32_t part)
 458:Drivers/lvgl/src/extra/widgets/msgbox/../../../../src/core/lv_obj_style_gen.h **** {
 459:Drivers/lvgl/src/extra/widgets/msgbox/../../../../src/core/lv_obj_style_gen.h ****     lv_style_value_t v = lv_obj_get_style_prop(obj, part, LV_STYLE_TEXT_OPA);
 460:Drivers/lvgl/src/extra/widgets/msgbox/../../../../src/core/lv_obj_style_gen.h ****     return (lv_opa_t)v.num;
 461:Drivers/lvgl/src/extra/widgets/msgbox/../../../../src/core/lv_obj_style_gen.h **** }
 462:Drivers/lvgl/src/extra/widgets/msgbox/../../../../src/core/lv_obj_style_gen.h **** 
 463:Drivers/lvgl/src/extra/widgets/msgbox/../../../../src/core/lv_obj_style_gen.h **** static inline const lv_font_t * lv_obj_get_style_text_font(const struct _lv_obj_t * obj, uint32_t p
 335              		.loc 2 463 33 view .LVU101
 336              	.LBB50:
 464:Drivers/lvgl/src/extra/widgets/msgbox/../../../../src/core/lv_obj_style_gen.h **** {
 465:Drivers/lvgl/src/extra/widgets/msgbox/../../../../src/core/lv_obj_style_gen.h ****     lv_style_value_t v = lv_obj_get_style_prop(obj, part, LV_STYLE_TEXT_FONT);
 337              		.loc 2 465 5 view .LVU102
 338              		.loc 2 465 26 is_stmt 0 view .LVU103
 339 00b6 5722     		movs	r2, #87
 340 00b8 4FF4A021 		mov	r1, #327680
 341 00bc 606B     		ldr	r0, [r4, #52]
 342 00be FFF7FEFF 		bl	lv_obj_get_style_prop
 343              	.LVL36:
 466:Drivers/lvgl/src/extra/widgets/msgbox/../../../../src/core/lv_obj_style_gen.h ****     return (const lv_font_t *)v.ptr;
 344              		.loc 2 466 5 is_stmt 1 view .LVU104
 345              		.loc 2 466 5 is_stmt 0 view .LVU105
 346              	.LBE50:
 347              	.LBE49:
 132:Drivers/lvgl/src/extra/widgets/msgbox/lv_msgbox.c ****         lv_obj_set_size(mbox->btns, btn_cnt * (2 * LV_DPI_DEF / 3), btn_h);
 348              		.loc 1 132 9 is_stmt 1 view .LVU106
 349              	.LBB51:
 350              	.LBI51:
 351              		.file 3 "Drivers/lvgl/src/extra/widgets/msgbox/../../../../src/hal/../draw/../misc/../font/lv_font
   1:Drivers/lvgl/src/extra/widgets/msgbox/../../../../src/hal/../draw/../misc/../font/lv_font.h **** /**
   2:Drivers/lvgl/src/extra/widgets/msgbox/../../../../src/hal/../draw/../misc/../font/lv_font.h ****  * @file lv_font.h
   3:Drivers/lvgl/src/extra/widgets/msgbox/../../../../src/hal/../draw/../misc/../font/lv_font.h ****  *
   4:Drivers/lvgl/src/extra/widgets/msgbox/../../../../src/hal/../draw/../misc/../font/lv_font.h ****  */
   5:Drivers/lvgl/src/extra/widgets/msgbox/../../../../src/hal/../draw/../misc/../font/lv_font.h **** 
   6:Drivers/lvgl/src/extra/widgets/msgbox/../../../../src/hal/../draw/../misc/../font/lv_font.h **** #ifndef LV_FONT_H
   7:Drivers/lvgl/src/extra/widgets/msgbox/../../../../src/hal/../draw/../misc/../font/lv_font.h **** #define LV_FONT_H
   8:Drivers/lvgl/src/extra/widgets/msgbox/../../../../src/hal/../draw/../misc/../font/lv_font.h **** 
   9:Drivers/lvgl/src/extra/widgets/msgbox/../../../../src/hal/../draw/../misc/../font/lv_font.h **** #ifdef __cplusplus
  10:Drivers/lvgl/src/extra/widgets/msgbox/../../../../src/hal/../draw/../misc/../font/lv_font.h **** extern "C" {
  11:Drivers/lvgl/src/extra/widgets/msgbox/../../../../src/hal/../draw/../misc/../font/lv_font.h **** #endif
  12:Drivers/lvgl/src/extra/widgets/msgbox/../../../../src/hal/../draw/../misc/../font/lv_font.h **** 
  13:Drivers/lvgl/src/extra/widgets/msgbox/../../../../src/hal/../draw/../misc/../font/lv_font.h **** /*********************
  14:Drivers/lvgl/src/extra/widgets/msgbox/../../../../src/hal/../draw/../misc/../font/lv_font.h ****  *      INCLUDES
  15:Drivers/lvgl/src/extra/widgets/msgbox/../../../../src/hal/../draw/../misc/../font/lv_font.h ****  *********************/
  16:Drivers/lvgl/src/extra/widgets/msgbox/../../../../src/hal/../draw/../misc/../font/lv_font.h **** #include "../lv_conf_internal.h"
  17:Drivers/lvgl/src/extra/widgets/msgbox/../../../../src/hal/../draw/../misc/../font/lv_font.h **** #include <stdint.h>
  18:Drivers/lvgl/src/extra/widgets/msgbox/../../../../src/hal/../draw/../misc/../font/lv_font.h **** #include <stddef.h>
  19:Drivers/lvgl/src/extra/widgets/msgbox/../../../../src/hal/../draw/../misc/../font/lv_font.h **** #include <stdbool.h>
  20:Drivers/lvgl/src/extra/widgets/msgbox/../../../../src/hal/../draw/../misc/../font/lv_font.h **** 
  21:Drivers/lvgl/src/extra/widgets/msgbox/../../../../src/hal/../draw/../misc/../font/lv_font.h **** #include "lv_symbol_def.h"
  22:Drivers/lvgl/src/extra/widgets/msgbox/../../../../src/hal/../draw/../misc/../font/lv_font.h **** #include "../misc/lv_area.h"
  23:Drivers/lvgl/src/extra/widgets/msgbox/../../../../src/hal/../draw/../misc/../font/lv_font.h **** 
ARM GAS  /var/folders/0z/tsy30v1j4xl4_7kw94k978ww0000gn/T//cceRZMx6.s 			page 21


  24:Drivers/lvgl/src/extra/widgets/msgbox/../../../../src/hal/../draw/../misc/../font/lv_font.h **** /*********************
  25:Drivers/lvgl/src/extra/widgets/msgbox/../../../../src/hal/../draw/../misc/../font/lv_font.h ****  *      DEFINES
  26:Drivers/lvgl/src/extra/widgets/msgbox/../../../../src/hal/../draw/../misc/../font/lv_font.h ****  *********************/
  27:Drivers/lvgl/src/extra/widgets/msgbox/../../../../src/hal/../draw/../misc/../font/lv_font.h **** 
  28:Drivers/lvgl/src/extra/widgets/msgbox/../../../../src/hal/../draw/../misc/../font/lv_font.h **** /* imgfont identifier */
  29:Drivers/lvgl/src/extra/widgets/msgbox/../../../../src/hal/../draw/../misc/../font/lv_font.h **** #define LV_IMGFONT_BPP 9
  30:Drivers/lvgl/src/extra/widgets/msgbox/../../../../src/hal/../draw/../misc/../font/lv_font.h **** 
  31:Drivers/lvgl/src/extra/widgets/msgbox/../../../../src/hal/../draw/../misc/../font/lv_font.h **** /**********************
  32:Drivers/lvgl/src/extra/widgets/msgbox/../../../../src/hal/../draw/../misc/../font/lv_font.h ****  *      TYPEDEFS
  33:Drivers/lvgl/src/extra/widgets/msgbox/../../../../src/hal/../draw/../misc/../font/lv_font.h ****  **********************/
  34:Drivers/lvgl/src/extra/widgets/msgbox/../../../../src/hal/../draw/../misc/../font/lv_font.h **** 
  35:Drivers/lvgl/src/extra/widgets/msgbox/../../../../src/hal/../draw/../misc/../font/lv_font.h **** /*------------------
  36:Drivers/lvgl/src/extra/widgets/msgbox/../../../../src/hal/../draw/../misc/../font/lv_font.h ****  * General types
  37:Drivers/lvgl/src/extra/widgets/msgbox/../../../../src/hal/../draw/../misc/../font/lv_font.h ****  *-----------------*/
  38:Drivers/lvgl/src/extra/widgets/msgbox/../../../../src/hal/../draw/../misc/../font/lv_font.h **** 
  39:Drivers/lvgl/src/extra/widgets/msgbox/../../../../src/hal/../draw/../misc/../font/lv_font.h **** struct _lv_font_t;
  40:Drivers/lvgl/src/extra/widgets/msgbox/../../../../src/hal/../draw/../misc/../font/lv_font.h **** /** Describes the properties of a glyph.*/
  41:Drivers/lvgl/src/extra/widgets/msgbox/../../../../src/hal/../draw/../misc/../font/lv_font.h **** typedef struct {
  42:Drivers/lvgl/src/extra/widgets/msgbox/../../../../src/hal/../draw/../misc/../font/lv_font.h ****     const struct _lv_font_t *
  43:Drivers/lvgl/src/extra/widgets/msgbox/../../../../src/hal/../draw/../misc/../font/lv_font.h ****         resolved_font; /**< Pointer to a font where the glyph was actually found after handling fal
  44:Drivers/lvgl/src/extra/widgets/msgbox/../../../../src/hal/../draw/../misc/../font/lv_font.h ****     uint16_t adv_w; /**< The glyph needs this space. Draw the next glyph after this width.*/
  45:Drivers/lvgl/src/extra/widgets/msgbox/../../../../src/hal/../draw/../misc/../font/lv_font.h ****     uint16_t box_w; /**< Width of the glyph's bounding box*/
  46:Drivers/lvgl/src/extra/widgets/msgbox/../../../../src/hal/../draw/../misc/../font/lv_font.h ****     uint16_t box_h; /**< Height of the glyph's bounding box*/
  47:Drivers/lvgl/src/extra/widgets/msgbox/../../../../src/hal/../draw/../misc/../font/lv_font.h ****     int16_t ofs_x;  /**< x offset of the bounding box*/
  48:Drivers/lvgl/src/extra/widgets/msgbox/../../../../src/hal/../draw/../misc/../font/lv_font.h ****     int16_t ofs_y;  /**< y offset of the bounding box*/
  49:Drivers/lvgl/src/extra/widgets/msgbox/../../../../src/hal/../draw/../misc/../font/lv_font.h ****     uint8_t bpp: 4;  /**< Bit-per-pixel: 1, 2, 4, 8*/
  50:Drivers/lvgl/src/extra/widgets/msgbox/../../../../src/hal/../draw/../misc/../font/lv_font.h ****     uint8_t is_placeholder: 1; /** Glyph is missing. But placeholder will still be displayed */
  51:Drivers/lvgl/src/extra/widgets/msgbox/../../../../src/hal/../draw/../misc/../font/lv_font.h **** } lv_font_glyph_dsc_t;
  52:Drivers/lvgl/src/extra/widgets/msgbox/../../../../src/hal/../draw/../misc/../font/lv_font.h **** 
  53:Drivers/lvgl/src/extra/widgets/msgbox/../../../../src/hal/../draw/../misc/../font/lv_font.h **** /** The bitmaps might be upscaled by 3 to achieve subpixel rendering.*/
  54:Drivers/lvgl/src/extra/widgets/msgbox/../../../../src/hal/../draw/../misc/../font/lv_font.h **** enum {
  55:Drivers/lvgl/src/extra/widgets/msgbox/../../../../src/hal/../draw/../misc/../font/lv_font.h ****     LV_FONT_SUBPX_NONE,
  56:Drivers/lvgl/src/extra/widgets/msgbox/../../../../src/hal/../draw/../misc/../font/lv_font.h ****     LV_FONT_SUBPX_HOR,
  57:Drivers/lvgl/src/extra/widgets/msgbox/../../../../src/hal/../draw/../misc/../font/lv_font.h ****     LV_FONT_SUBPX_VER,
  58:Drivers/lvgl/src/extra/widgets/msgbox/../../../../src/hal/../draw/../misc/../font/lv_font.h ****     LV_FONT_SUBPX_BOTH,
  59:Drivers/lvgl/src/extra/widgets/msgbox/../../../../src/hal/../draw/../misc/../font/lv_font.h **** };
  60:Drivers/lvgl/src/extra/widgets/msgbox/../../../../src/hal/../draw/../misc/../font/lv_font.h **** 
  61:Drivers/lvgl/src/extra/widgets/msgbox/../../../../src/hal/../draw/../misc/../font/lv_font.h **** typedef uint8_t lv_font_subpx_t;
  62:Drivers/lvgl/src/extra/widgets/msgbox/../../../../src/hal/../draw/../misc/../font/lv_font.h **** 
  63:Drivers/lvgl/src/extra/widgets/msgbox/../../../../src/hal/../draw/../misc/../font/lv_font.h **** /** Describe the properties of a font*/
  64:Drivers/lvgl/src/extra/widgets/msgbox/../../../../src/hal/../draw/../misc/../font/lv_font.h **** typedef struct _lv_font_t {
  65:Drivers/lvgl/src/extra/widgets/msgbox/../../../../src/hal/../draw/../misc/../font/lv_font.h ****     /** Get a glyph's descriptor from a font*/
  66:Drivers/lvgl/src/extra/widgets/msgbox/../../../../src/hal/../draw/../misc/../font/lv_font.h ****     bool (*get_glyph_dsc)(const struct _lv_font_t *, lv_font_glyph_dsc_t *, uint32_t letter, uint32
  67:Drivers/lvgl/src/extra/widgets/msgbox/../../../../src/hal/../draw/../misc/../font/lv_font.h **** 
  68:Drivers/lvgl/src/extra/widgets/msgbox/../../../../src/hal/../draw/../misc/../font/lv_font.h ****     /** Get a glyph's bitmap from a font*/
  69:Drivers/lvgl/src/extra/widgets/msgbox/../../../../src/hal/../draw/../misc/../font/lv_font.h ****     const uint8_t * (*get_glyph_bitmap)(const struct _lv_font_t *, uint32_t);
  70:Drivers/lvgl/src/extra/widgets/msgbox/../../../../src/hal/../draw/../misc/../font/lv_font.h **** 
  71:Drivers/lvgl/src/extra/widgets/msgbox/../../../../src/hal/../draw/../misc/../font/lv_font.h ****     /*Pointer to the font in a font pack (must have the same line height)*/
  72:Drivers/lvgl/src/extra/widgets/msgbox/../../../../src/hal/../draw/../misc/../font/lv_font.h ****     lv_coord_t line_height;         /**< The real line height where any text fits*/
  73:Drivers/lvgl/src/extra/widgets/msgbox/../../../../src/hal/../draw/../misc/../font/lv_font.h ****     lv_coord_t base_line;           /**< Base line measured from the top of the line_height*/
  74:Drivers/lvgl/src/extra/widgets/msgbox/../../../../src/hal/../draw/../misc/../font/lv_font.h ****     uint8_t subpx  : 2;             /**< An element of `lv_font_subpx_t`*/
  75:Drivers/lvgl/src/extra/widgets/msgbox/../../../../src/hal/../draw/../misc/../font/lv_font.h **** 
  76:Drivers/lvgl/src/extra/widgets/msgbox/../../../../src/hal/../draw/../misc/../font/lv_font.h ****     int8_t underline_position;      /**< Distance between the top of the underline and base line (<
  77:Drivers/lvgl/src/extra/widgets/msgbox/../../../../src/hal/../draw/../misc/../font/lv_font.h ****     int8_t underline_thickness;     /**< Thickness of the underline*/
  78:Drivers/lvgl/src/extra/widgets/msgbox/../../../../src/hal/../draw/../misc/../font/lv_font.h **** 
  79:Drivers/lvgl/src/extra/widgets/msgbox/../../../../src/hal/../draw/../misc/../font/lv_font.h ****     const void * dsc;               /**< Store implementation specific or run_time data or caching 
  80:Drivers/lvgl/src/extra/widgets/msgbox/../../../../src/hal/../draw/../misc/../font/lv_font.h ****     const struct _lv_font_t * fallback;   /**< Fallback font for missing glyph. Resolved recursivel
ARM GAS  /var/folders/0z/tsy30v1j4xl4_7kw94k978ww0000gn/T//cceRZMx6.s 			page 22


  81:Drivers/lvgl/src/extra/widgets/msgbox/../../../../src/hal/../draw/../misc/../font/lv_font.h **** #if LV_USE_USER_DATA
  82:Drivers/lvgl/src/extra/widgets/msgbox/../../../../src/hal/../draw/../misc/../font/lv_font.h ****     void * user_data;               /**< Custom user data for font.*/
  83:Drivers/lvgl/src/extra/widgets/msgbox/../../../../src/hal/../draw/../misc/../font/lv_font.h **** #endif
  84:Drivers/lvgl/src/extra/widgets/msgbox/../../../../src/hal/../draw/../misc/../font/lv_font.h **** } lv_font_t;
  85:Drivers/lvgl/src/extra/widgets/msgbox/../../../../src/hal/../draw/../misc/../font/lv_font.h **** 
  86:Drivers/lvgl/src/extra/widgets/msgbox/../../../../src/hal/../draw/../misc/../font/lv_font.h **** /**********************
  87:Drivers/lvgl/src/extra/widgets/msgbox/../../../../src/hal/../draw/../misc/../font/lv_font.h ****  * GLOBAL PROTOTYPES
  88:Drivers/lvgl/src/extra/widgets/msgbox/../../../../src/hal/../draw/../misc/../font/lv_font.h ****  **********************/
  89:Drivers/lvgl/src/extra/widgets/msgbox/../../../../src/hal/../draw/../misc/../font/lv_font.h **** 
  90:Drivers/lvgl/src/extra/widgets/msgbox/../../../../src/hal/../draw/../misc/../font/lv_font.h **** /**
  91:Drivers/lvgl/src/extra/widgets/msgbox/../../../../src/hal/../draw/../misc/../font/lv_font.h ****  * Return with the bitmap of a font.
  92:Drivers/lvgl/src/extra/widgets/msgbox/../../../../src/hal/../draw/../misc/../font/lv_font.h ****  * @param font_p pointer to a font
  93:Drivers/lvgl/src/extra/widgets/msgbox/../../../../src/hal/../draw/../misc/../font/lv_font.h ****  * @param letter a UNICODE character code
  94:Drivers/lvgl/src/extra/widgets/msgbox/../../../../src/hal/../draw/../misc/../font/lv_font.h ****  * @return pointer to the bitmap of the letter
  95:Drivers/lvgl/src/extra/widgets/msgbox/../../../../src/hal/../draw/../misc/../font/lv_font.h ****  */
  96:Drivers/lvgl/src/extra/widgets/msgbox/../../../../src/hal/../draw/../misc/../font/lv_font.h **** const uint8_t * lv_font_get_glyph_bitmap(const lv_font_t * font_p, uint32_t letter);
  97:Drivers/lvgl/src/extra/widgets/msgbox/../../../../src/hal/../draw/../misc/../font/lv_font.h **** 
  98:Drivers/lvgl/src/extra/widgets/msgbox/../../../../src/hal/../draw/../misc/../font/lv_font.h **** /**
  99:Drivers/lvgl/src/extra/widgets/msgbox/../../../../src/hal/../draw/../misc/../font/lv_font.h ****  * Get the descriptor of a glyph
 100:Drivers/lvgl/src/extra/widgets/msgbox/../../../../src/hal/../draw/../misc/../font/lv_font.h ****  * @param font_p pointer to font
 101:Drivers/lvgl/src/extra/widgets/msgbox/../../../../src/hal/../draw/../misc/../font/lv_font.h ****  * @param dsc_out store the result descriptor here
 102:Drivers/lvgl/src/extra/widgets/msgbox/../../../../src/hal/../draw/../misc/../font/lv_font.h ****  * @param letter a UNICODE letter code
 103:Drivers/lvgl/src/extra/widgets/msgbox/../../../../src/hal/../draw/../misc/../font/lv_font.h ****  * @param letter_next the next letter after `letter`. Used for kerning
 104:Drivers/lvgl/src/extra/widgets/msgbox/../../../../src/hal/../draw/../misc/../font/lv_font.h ****  * @return true: descriptor is successfully loaded into `dsc_out`.
 105:Drivers/lvgl/src/extra/widgets/msgbox/../../../../src/hal/../draw/../misc/../font/lv_font.h ****  *         false: the letter was not found, no data is loaded to `dsc_out`
 106:Drivers/lvgl/src/extra/widgets/msgbox/../../../../src/hal/../draw/../misc/../font/lv_font.h ****  */
 107:Drivers/lvgl/src/extra/widgets/msgbox/../../../../src/hal/../draw/../misc/../font/lv_font.h **** bool lv_font_get_glyph_dsc(const lv_font_t * font_p, lv_font_glyph_dsc_t * dsc_out, uint32_t letter
 108:Drivers/lvgl/src/extra/widgets/msgbox/../../../../src/hal/../draw/../misc/../font/lv_font.h ****                            uint32_t letter_next);
 109:Drivers/lvgl/src/extra/widgets/msgbox/../../../../src/hal/../draw/../misc/../font/lv_font.h **** 
 110:Drivers/lvgl/src/extra/widgets/msgbox/../../../../src/hal/../draw/../misc/../font/lv_font.h **** /**
 111:Drivers/lvgl/src/extra/widgets/msgbox/../../../../src/hal/../draw/../misc/../font/lv_font.h ****  * Get the width of a glyph with kerning
 112:Drivers/lvgl/src/extra/widgets/msgbox/../../../../src/hal/../draw/../misc/../font/lv_font.h ****  * @param font pointer to a font
 113:Drivers/lvgl/src/extra/widgets/msgbox/../../../../src/hal/../draw/../misc/../font/lv_font.h ****  * @param letter a UNICODE letter
 114:Drivers/lvgl/src/extra/widgets/msgbox/../../../../src/hal/../draw/../misc/../font/lv_font.h ****  * @param letter_next the next letter after `letter`. Used for kerning
 115:Drivers/lvgl/src/extra/widgets/msgbox/../../../../src/hal/../draw/../misc/../font/lv_font.h ****  * @return the width of the glyph
 116:Drivers/lvgl/src/extra/widgets/msgbox/../../../../src/hal/../draw/../misc/../font/lv_font.h ****  */
 117:Drivers/lvgl/src/extra/widgets/msgbox/../../../../src/hal/../draw/../misc/../font/lv_font.h **** uint16_t lv_font_get_glyph_width(const lv_font_t * font, uint32_t letter, uint32_t letter_next);
 118:Drivers/lvgl/src/extra/widgets/msgbox/../../../../src/hal/../draw/../misc/../font/lv_font.h **** 
 119:Drivers/lvgl/src/extra/widgets/msgbox/../../../../src/hal/../draw/../misc/../font/lv_font.h **** /**
 120:Drivers/lvgl/src/extra/widgets/msgbox/../../../../src/hal/../draw/../misc/../font/lv_font.h ****  * Get the line height of a font. All characters fit into this height
 121:Drivers/lvgl/src/extra/widgets/msgbox/../../../../src/hal/../draw/../misc/../font/lv_font.h ****  * @param font_p pointer to a font
 122:Drivers/lvgl/src/extra/widgets/msgbox/../../../../src/hal/../draw/../misc/../font/lv_font.h ****  * @return the height of a font
 123:Drivers/lvgl/src/extra/widgets/msgbox/../../../../src/hal/../draw/../misc/../font/lv_font.h ****  */
 124:Drivers/lvgl/src/extra/widgets/msgbox/../../../../src/hal/../draw/../misc/../font/lv_font.h **** static inline lv_coord_t lv_font_get_line_height(const lv_font_t * font_p)
 352              		.loc 3 124 26 view .LVU107
 353              	.LBB52:
 125:Drivers/lvgl/src/extra/widgets/msgbox/../../../../src/hal/../draw/../misc/../font/lv_font.h **** {
 126:Drivers/lvgl/src/extra/widgets/msgbox/../../../../src/hal/../draw/../misc/../font/lv_font.h ****     return font_p->line_height;
 354              		.loc 3 126 5 view .LVU108
 355              		.loc 3 126 5 is_stmt 0 view .LVU109
 356              	.LBE52:
 357              	.LBE51:
 133:Drivers/lvgl/src/extra/widgets/msgbox/lv_msgbox.c ****         lv_obj_set_style_max_width(mbox->btns, lv_pct(100), 0);
 358              		.loc 1 133 9 is_stmt 1 view .LVU110
 132:Drivers/lvgl/src/extra/widgets/msgbox/lv_msgbox.c ****         lv_obj_set_size(mbox->btns, btn_cnt * (2 * LV_DPI_DEF / 3), btn_h);
 359              		.loc 1 132 58 is_stmt 0 view .LVU111
 360 00c2 0289     		ldrh	r2, [r0, #8]
ARM GAS  /var/folders/0z/tsy30v1j4xl4_7kw94k978ww0000gn/T//cceRZMx6.s 			page 23


 133:Drivers/lvgl/src/extra/widgets/msgbox/lv_msgbox.c ****         lv_obj_set_style_max_width(mbox->btns, lv_pct(100), 0);
 361              		.loc 1 133 9 view .LVU112
 362 00c4 606B     		ldr	r0, [r4, #52]
 363              	.LVL37:
 132:Drivers/lvgl/src/extra/widgets/msgbox/lv_msgbox.c ****         lv_obj_set_size(mbox->btns, btn_cnt * (2 * LV_DPI_DEF / 3), btn_h);
 364              		.loc 1 132 58 view .LVU113
 365 00c6 0D32     		adds	r2, r2, #13
 366              	.LVL38:
 133:Drivers/lvgl/src/extra/widgets/msgbox/lv_msgbox.c ****         lv_obj_set_style_max_width(mbox->btns, lv_pct(100), 0);
 367              		.loc 1 133 9 view .LVU114
 368 00c8 2946     		mov	r1, r5
 369 00ca 12B2     		sxth	r2, r2
 370              	.LVL39:
 133:Drivers/lvgl/src/extra/widgets/msgbox/lv_msgbox.c ****         lv_obj_set_style_max_width(mbox->btns, lv_pct(100), 0);
 371              		.loc 1 133 9 view .LVU115
 372 00cc FFF7FEFF 		bl	lv_obj_set_size
 373              	.LVL40:
 134:Drivers/lvgl/src/extra/widgets/msgbox/lv_msgbox.c ****         lv_obj_add_flag(mbox->btns, LV_OBJ_FLAG_EVENT_BUBBLE);    /*To see the event directly on th
 374              		.loc 1 134 9 is_stmt 1 view .LVU116
 375 00d0 606B     		ldr	r0, [r4, #52]
 376 00d2 42F26401 		movw	r1, #8292
 377 00d6 0022     		movs	r2, #0
 378 00d8 FFF7FEFF 		bl	lv_obj_set_style_max_width
 379              	.LVL41:
 135:Drivers/lvgl/src/extra/widgets/msgbox/lv_msgbox.c ****     }
 380              		.loc 1 135 9 view .LVU117
 381 00dc 606B     		ldr	r0, [r4, #52]
 382 00de 4FF48041 		mov	r1, #16384
 383 00e2 FFF7FEFF 		bl	lv_obj_add_flag
 384              	.LVL42:
 385              	.LBE48:
 138:Drivers/lvgl/src/extra/widgets/msgbox/lv_msgbox.c **** }
 386              		.loc 1 138 5 view .LVU118
 387              	.L5:
 139:Drivers/lvgl/src/extra/widgets/msgbox/lv_msgbox.c **** 
 388              		.loc 1 139 1 is_stmt 0 view .LVU119
 389 00e6 2046     		mov	r0, r4
 390 00e8 BDE8F081 		pop	{r4, r5, r6, r7, r8, pc}
 391              	.LVL43:
 392              	.L18:
 109:Drivers/lvgl/src/extra/widgets/msgbox/lv_msgbox.c ****     if(mbox->content == NULL) return NULL;
 393              		.loc 1 109 5 is_stmt 1 discriminator 3 view .LVU120
 109:Drivers/lvgl/src/extra/widgets/msgbox/lv_msgbox.c ****     if(mbox->content == NULL) return NULL;
 394              		.loc 1 109 5 discriminator 3 view .LVU121
 109:Drivers/lvgl/src/extra/widgets/msgbox/lv_msgbox.c ****     if(mbox->content == NULL) return NULL;
 395              		.loc 1 109 5 discriminator 3 view .LVU122
 109:Drivers/lvgl/src/extra/widgets/msgbox/lv_msgbox.c ****     if(mbox->content == NULL) return NULL;
 396              		.loc 1 109 5 discriminator 3 view .LVU123
 109:Drivers/lvgl/src/extra/widgets/msgbox/lv_msgbox.c ****     if(mbox->content == NULL) return NULL;
 397              		.loc 1 109 5 discriminator 3 view .LVU124
 109:Drivers/lvgl/src/extra/widgets/msgbox/lv_msgbox.c ****     if(mbox->content == NULL) return NULL;
 398              		.loc 1 109 5 discriminator 3 view .LVU125
 109:Drivers/lvgl/src/extra/widgets/msgbox/lv_msgbox.c ****     if(mbox->content == NULL) return NULL;
 399              		.loc 1 109 5 discriminator 3 view .LVU126
 109:Drivers/lvgl/src/extra/widgets/msgbox/lv_msgbox.c ****     if(mbox->content == NULL) return NULL;
 400              		.loc 1 109 5 discriminator 3 view .LVU127
 109:Drivers/lvgl/src/extra/widgets/msgbox/lv_msgbox.c ****     if(mbox->content == NULL) return NULL;
ARM GAS  /var/folders/0z/tsy30v1j4xl4_7kw94k978ww0000gn/T//cceRZMx6.s 			page 24


 401              		.loc 1 109 5 discriminator 3 view .LVU128
 109:Drivers/lvgl/src/extra/widgets/msgbox/lv_msgbox.c ****     if(mbox->content == NULL) return NULL;
 402              		.loc 1 109 5 discriminator 3 view .LVU129
 403 00ec FEE7     		b	.L18
 404              	.LVL44:
 405              	.L51:
  67:Drivers/lvgl/src/extra/widgets/msgbox/lv_msgbox.c ****         parent = lv_obj_class_create_obj(&lv_msgbox_backdrop_class, lv_layer_top());
 406              		.loc 1 67 9 view .LVU130
  68:Drivers/lvgl/src/extra/widgets/msgbox/lv_msgbox.c ****         LV_ASSERT_MALLOC(parent);
 407              		.loc 1 68 9 view .LVU131
 408              	.LBB53:
 409              	.LBI53:
 410              		.file 4 "Drivers/lvgl/src/extra/widgets/msgbox/../../../../src/core/lv_disp.h"
   1:Drivers/lvgl/src/extra/widgets/msgbox/../../../../src/core/lv_disp.h **** /**
   2:Drivers/lvgl/src/extra/widgets/msgbox/../../../../src/core/lv_disp.h ****  * @file lv_disp.h
   3:Drivers/lvgl/src/extra/widgets/msgbox/../../../../src/core/lv_disp.h ****  *
   4:Drivers/lvgl/src/extra/widgets/msgbox/../../../../src/core/lv_disp.h ****  */
   5:Drivers/lvgl/src/extra/widgets/msgbox/../../../../src/core/lv_disp.h **** 
   6:Drivers/lvgl/src/extra/widgets/msgbox/../../../../src/core/lv_disp.h **** #ifndef LV_DISP_H
   7:Drivers/lvgl/src/extra/widgets/msgbox/../../../../src/core/lv_disp.h **** #define LV_DISP_H
   8:Drivers/lvgl/src/extra/widgets/msgbox/../../../../src/core/lv_disp.h **** 
   9:Drivers/lvgl/src/extra/widgets/msgbox/../../../../src/core/lv_disp.h **** #ifdef __cplusplus
  10:Drivers/lvgl/src/extra/widgets/msgbox/../../../../src/core/lv_disp.h **** extern "C" {
  11:Drivers/lvgl/src/extra/widgets/msgbox/../../../../src/core/lv_disp.h **** #endif
  12:Drivers/lvgl/src/extra/widgets/msgbox/../../../../src/core/lv_disp.h **** 
  13:Drivers/lvgl/src/extra/widgets/msgbox/../../../../src/core/lv_disp.h **** /*********************
  14:Drivers/lvgl/src/extra/widgets/msgbox/../../../../src/core/lv_disp.h ****  *      INCLUDES
  15:Drivers/lvgl/src/extra/widgets/msgbox/../../../../src/core/lv_disp.h ****  *********************/
  16:Drivers/lvgl/src/extra/widgets/msgbox/../../../../src/core/lv_disp.h **** #include "../hal/lv_hal.h"
  17:Drivers/lvgl/src/extra/widgets/msgbox/../../../../src/core/lv_disp.h **** #include "lv_obj.h"
  18:Drivers/lvgl/src/extra/widgets/msgbox/../../../../src/core/lv_disp.h **** #include "lv_theme.h"
  19:Drivers/lvgl/src/extra/widgets/msgbox/../../../../src/core/lv_disp.h **** 
  20:Drivers/lvgl/src/extra/widgets/msgbox/../../../../src/core/lv_disp.h **** /*********************
  21:Drivers/lvgl/src/extra/widgets/msgbox/../../../../src/core/lv_disp.h ****  *      DEFINES
  22:Drivers/lvgl/src/extra/widgets/msgbox/../../../../src/core/lv_disp.h ****  *********************/
  23:Drivers/lvgl/src/extra/widgets/msgbox/../../../../src/core/lv_disp.h **** 
  24:Drivers/lvgl/src/extra/widgets/msgbox/../../../../src/core/lv_disp.h **** /**********************
  25:Drivers/lvgl/src/extra/widgets/msgbox/../../../../src/core/lv_disp.h ****  *      TYPEDEFS
  26:Drivers/lvgl/src/extra/widgets/msgbox/../../../../src/core/lv_disp.h ****  **********************/
  27:Drivers/lvgl/src/extra/widgets/msgbox/../../../../src/core/lv_disp.h **** 
  28:Drivers/lvgl/src/extra/widgets/msgbox/../../../../src/core/lv_disp.h **** typedef enum {
  29:Drivers/lvgl/src/extra/widgets/msgbox/../../../../src/core/lv_disp.h ****     LV_SCR_LOAD_ANIM_NONE,
  30:Drivers/lvgl/src/extra/widgets/msgbox/../../../../src/core/lv_disp.h ****     LV_SCR_LOAD_ANIM_OVER_LEFT,
  31:Drivers/lvgl/src/extra/widgets/msgbox/../../../../src/core/lv_disp.h ****     LV_SCR_LOAD_ANIM_OVER_RIGHT,
  32:Drivers/lvgl/src/extra/widgets/msgbox/../../../../src/core/lv_disp.h ****     LV_SCR_LOAD_ANIM_OVER_TOP,
  33:Drivers/lvgl/src/extra/widgets/msgbox/../../../../src/core/lv_disp.h ****     LV_SCR_LOAD_ANIM_OVER_BOTTOM,
  34:Drivers/lvgl/src/extra/widgets/msgbox/../../../../src/core/lv_disp.h ****     LV_SCR_LOAD_ANIM_MOVE_LEFT,
  35:Drivers/lvgl/src/extra/widgets/msgbox/../../../../src/core/lv_disp.h ****     LV_SCR_LOAD_ANIM_MOVE_RIGHT,
  36:Drivers/lvgl/src/extra/widgets/msgbox/../../../../src/core/lv_disp.h ****     LV_SCR_LOAD_ANIM_MOVE_TOP,
  37:Drivers/lvgl/src/extra/widgets/msgbox/../../../../src/core/lv_disp.h ****     LV_SCR_LOAD_ANIM_MOVE_BOTTOM,
  38:Drivers/lvgl/src/extra/widgets/msgbox/../../../../src/core/lv_disp.h ****     LV_SCR_LOAD_ANIM_FADE_IN,
  39:Drivers/lvgl/src/extra/widgets/msgbox/../../../../src/core/lv_disp.h ****     LV_SCR_LOAD_ANIM_FADE_ON = LV_SCR_LOAD_ANIM_FADE_IN, /*For backward compatibility*/
  40:Drivers/lvgl/src/extra/widgets/msgbox/../../../../src/core/lv_disp.h ****     LV_SCR_LOAD_ANIM_FADE_OUT,
  41:Drivers/lvgl/src/extra/widgets/msgbox/../../../../src/core/lv_disp.h ****     LV_SCR_LOAD_ANIM_OUT_LEFT,
  42:Drivers/lvgl/src/extra/widgets/msgbox/../../../../src/core/lv_disp.h ****     LV_SCR_LOAD_ANIM_OUT_RIGHT,
  43:Drivers/lvgl/src/extra/widgets/msgbox/../../../../src/core/lv_disp.h ****     LV_SCR_LOAD_ANIM_OUT_TOP,
  44:Drivers/lvgl/src/extra/widgets/msgbox/../../../../src/core/lv_disp.h ****     LV_SCR_LOAD_ANIM_OUT_BOTTOM,
ARM GAS  /var/folders/0z/tsy30v1j4xl4_7kw94k978ww0000gn/T//cceRZMx6.s 			page 25


  45:Drivers/lvgl/src/extra/widgets/msgbox/../../../../src/core/lv_disp.h **** } lv_scr_load_anim_t;
  46:Drivers/lvgl/src/extra/widgets/msgbox/../../../../src/core/lv_disp.h **** 
  47:Drivers/lvgl/src/extra/widgets/msgbox/../../../../src/core/lv_disp.h **** /**********************
  48:Drivers/lvgl/src/extra/widgets/msgbox/../../../../src/core/lv_disp.h ****  * GLOBAL PROTOTYPES
  49:Drivers/lvgl/src/extra/widgets/msgbox/../../../../src/core/lv_disp.h ****  **********************/
  50:Drivers/lvgl/src/extra/widgets/msgbox/../../../../src/core/lv_disp.h **** 
  51:Drivers/lvgl/src/extra/widgets/msgbox/../../../../src/core/lv_disp.h **** /**
  52:Drivers/lvgl/src/extra/widgets/msgbox/../../../../src/core/lv_disp.h ****  * Return with a pointer to the active screen
  53:Drivers/lvgl/src/extra/widgets/msgbox/../../../../src/core/lv_disp.h ****  * @param disp pointer to display which active screen should be get. (NULL to use the default
  54:Drivers/lvgl/src/extra/widgets/msgbox/../../../../src/core/lv_disp.h ****  * screen)
  55:Drivers/lvgl/src/extra/widgets/msgbox/../../../../src/core/lv_disp.h ****  * @return pointer to the active screen object (loaded by 'lv_scr_load()')
  56:Drivers/lvgl/src/extra/widgets/msgbox/../../../../src/core/lv_disp.h ****  */
  57:Drivers/lvgl/src/extra/widgets/msgbox/../../../../src/core/lv_disp.h **** lv_obj_t * lv_disp_get_scr_act(lv_disp_t * disp);
  58:Drivers/lvgl/src/extra/widgets/msgbox/../../../../src/core/lv_disp.h **** 
  59:Drivers/lvgl/src/extra/widgets/msgbox/../../../../src/core/lv_disp.h **** /**
  60:Drivers/lvgl/src/extra/widgets/msgbox/../../../../src/core/lv_disp.h ****  * Return with a pointer to the previous screen. Only used during screen transitions.
  61:Drivers/lvgl/src/extra/widgets/msgbox/../../../../src/core/lv_disp.h ****  * @param disp pointer to display which previous screen should be get. (NULL to use the default
  62:Drivers/lvgl/src/extra/widgets/msgbox/../../../../src/core/lv_disp.h ****  * screen)
  63:Drivers/lvgl/src/extra/widgets/msgbox/../../../../src/core/lv_disp.h ****  * @return pointer to the previous screen object or NULL if not used now
  64:Drivers/lvgl/src/extra/widgets/msgbox/../../../../src/core/lv_disp.h ****  */
  65:Drivers/lvgl/src/extra/widgets/msgbox/../../../../src/core/lv_disp.h **** lv_obj_t * lv_disp_get_scr_prev(lv_disp_t * disp);
  66:Drivers/lvgl/src/extra/widgets/msgbox/../../../../src/core/lv_disp.h **** 
  67:Drivers/lvgl/src/extra/widgets/msgbox/../../../../src/core/lv_disp.h **** /**
  68:Drivers/lvgl/src/extra/widgets/msgbox/../../../../src/core/lv_disp.h ****  * Make a screen active
  69:Drivers/lvgl/src/extra/widgets/msgbox/../../../../src/core/lv_disp.h ****  * @param scr pointer to a screen
  70:Drivers/lvgl/src/extra/widgets/msgbox/../../../../src/core/lv_disp.h ****  */
  71:Drivers/lvgl/src/extra/widgets/msgbox/../../../../src/core/lv_disp.h **** void lv_disp_load_scr(lv_obj_t * scr);
  72:Drivers/lvgl/src/extra/widgets/msgbox/../../../../src/core/lv_disp.h **** 
  73:Drivers/lvgl/src/extra/widgets/msgbox/../../../../src/core/lv_disp.h **** /**
  74:Drivers/lvgl/src/extra/widgets/msgbox/../../../../src/core/lv_disp.h ****  * Return with the top layer. (Same on every screen and it is above the normal screen layer)
  75:Drivers/lvgl/src/extra/widgets/msgbox/../../../../src/core/lv_disp.h ****  * @param disp pointer to display which top layer should be get. (NULL to use the default screen)
  76:Drivers/lvgl/src/extra/widgets/msgbox/../../../../src/core/lv_disp.h ****  * @return pointer to the top layer object (transparent screen sized lv_obj)
  77:Drivers/lvgl/src/extra/widgets/msgbox/../../../../src/core/lv_disp.h ****  */
  78:Drivers/lvgl/src/extra/widgets/msgbox/../../../../src/core/lv_disp.h **** lv_obj_t * lv_disp_get_layer_top(lv_disp_t * disp);
  79:Drivers/lvgl/src/extra/widgets/msgbox/../../../../src/core/lv_disp.h **** 
  80:Drivers/lvgl/src/extra/widgets/msgbox/../../../../src/core/lv_disp.h **** /**
  81:Drivers/lvgl/src/extra/widgets/msgbox/../../../../src/core/lv_disp.h ****  * Return with the sys. layer. (Same on every screen and it is above the normal screen and the top
  82:Drivers/lvgl/src/extra/widgets/msgbox/../../../../src/core/lv_disp.h ****  * layer)
  83:Drivers/lvgl/src/extra/widgets/msgbox/../../../../src/core/lv_disp.h ****  * @param disp pointer to display which sys. layer should be retrieved. (NULL to use the default sc
  84:Drivers/lvgl/src/extra/widgets/msgbox/../../../../src/core/lv_disp.h ****  * @return pointer to the sys layer object (transparent screen sized lv_obj)
  85:Drivers/lvgl/src/extra/widgets/msgbox/../../../../src/core/lv_disp.h ****  */
  86:Drivers/lvgl/src/extra/widgets/msgbox/../../../../src/core/lv_disp.h **** lv_obj_t * lv_disp_get_layer_sys(lv_disp_t * disp);
  87:Drivers/lvgl/src/extra/widgets/msgbox/../../../../src/core/lv_disp.h **** 
  88:Drivers/lvgl/src/extra/widgets/msgbox/../../../../src/core/lv_disp.h **** /**
  89:Drivers/lvgl/src/extra/widgets/msgbox/../../../../src/core/lv_disp.h ****  * Set the theme of a display
  90:Drivers/lvgl/src/extra/widgets/msgbox/../../../../src/core/lv_disp.h ****  * @param disp pointer to a display
  91:Drivers/lvgl/src/extra/widgets/msgbox/../../../../src/core/lv_disp.h ****  */
  92:Drivers/lvgl/src/extra/widgets/msgbox/../../../../src/core/lv_disp.h **** void lv_disp_set_theme(lv_disp_t * disp, lv_theme_t * th);
  93:Drivers/lvgl/src/extra/widgets/msgbox/../../../../src/core/lv_disp.h **** 
  94:Drivers/lvgl/src/extra/widgets/msgbox/../../../../src/core/lv_disp.h **** /**
  95:Drivers/lvgl/src/extra/widgets/msgbox/../../../../src/core/lv_disp.h ****  * Get the theme of a display
  96:Drivers/lvgl/src/extra/widgets/msgbox/../../../../src/core/lv_disp.h ****  * @param disp pointer to a display
  97:Drivers/lvgl/src/extra/widgets/msgbox/../../../../src/core/lv_disp.h ****  * @return the display's theme (can be NULL)
  98:Drivers/lvgl/src/extra/widgets/msgbox/../../../../src/core/lv_disp.h ****  */
  99:Drivers/lvgl/src/extra/widgets/msgbox/../../../../src/core/lv_disp.h **** lv_theme_t * lv_disp_get_theme(lv_disp_t * disp);
 100:Drivers/lvgl/src/extra/widgets/msgbox/../../../../src/core/lv_disp.h **** 
 101:Drivers/lvgl/src/extra/widgets/msgbox/../../../../src/core/lv_disp.h **** /**
ARM GAS  /var/folders/0z/tsy30v1j4xl4_7kw94k978ww0000gn/T//cceRZMx6.s 			page 26


 102:Drivers/lvgl/src/extra/widgets/msgbox/../../../../src/core/lv_disp.h ****  * Set the background color of a display
 103:Drivers/lvgl/src/extra/widgets/msgbox/../../../../src/core/lv_disp.h ****  * @param disp pointer to a display
 104:Drivers/lvgl/src/extra/widgets/msgbox/../../../../src/core/lv_disp.h ****  * @param color color of the background
 105:Drivers/lvgl/src/extra/widgets/msgbox/../../../../src/core/lv_disp.h ****  */
 106:Drivers/lvgl/src/extra/widgets/msgbox/../../../../src/core/lv_disp.h **** void lv_disp_set_bg_color(lv_disp_t * disp, lv_color_t color);
 107:Drivers/lvgl/src/extra/widgets/msgbox/../../../../src/core/lv_disp.h **** 
 108:Drivers/lvgl/src/extra/widgets/msgbox/../../../../src/core/lv_disp.h **** /**
 109:Drivers/lvgl/src/extra/widgets/msgbox/../../../../src/core/lv_disp.h ****  * Set the background image of a display
 110:Drivers/lvgl/src/extra/widgets/msgbox/../../../../src/core/lv_disp.h ****  * @param disp pointer to a display
 111:Drivers/lvgl/src/extra/widgets/msgbox/../../../../src/core/lv_disp.h ****  * @param img_src path to file or pointer to an `lv_img_dsc_t` variable
 112:Drivers/lvgl/src/extra/widgets/msgbox/../../../../src/core/lv_disp.h ****  */
 113:Drivers/lvgl/src/extra/widgets/msgbox/../../../../src/core/lv_disp.h **** void lv_disp_set_bg_image(lv_disp_t * disp, const void  * img_src);
 114:Drivers/lvgl/src/extra/widgets/msgbox/../../../../src/core/lv_disp.h **** 
 115:Drivers/lvgl/src/extra/widgets/msgbox/../../../../src/core/lv_disp.h **** /**
 116:Drivers/lvgl/src/extra/widgets/msgbox/../../../../src/core/lv_disp.h ****  * Set opacity of the background
 117:Drivers/lvgl/src/extra/widgets/msgbox/../../../../src/core/lv_disp.h ****  * @param disp pointer to a display
 118:Drivers/lvgl/src/extra/widgets/msgbox/../../../../src/core/lv_disp.h ****  * @param opa opacity (0..255)
 119:Drivers/lvgl/src/extra/widgets/msgbox/../../../../src/core/lv_disp.h ****  */
 120:Drivers/lvgl/src/extra/widgets/msgbox/../../../../src/core/lv_disp.h **** void lv_disp_set_bg_opa(lv_disp_t * disp, lv_opa_t opa);
 121:Drivers/lvgl/src/extra/widgets/msgbox/../../../../src/core/lv_disp.h **** 
 122:Drivers/lvgl/src/extra/widgets/msgbox/../../../../src/core/lv_disp.h **** /**
 123:Drivers/lvgl/src/extra/widgets/msgbox/../../../../src/core/lv_disp.h ****  * Switch screen with animation
 124:Drivers/lvgl/src/extra/widgets/msgbox/../../../../src/core/lv_disp.h ****  * @param scr pointer to the new screen to load
 125:Drivers/lvgl/src/extra/widgets/msgbox/../../../../src/core/lv_disp.h ****  * @param anim_type type of the animation from `lv_scr_load_anim_t`, e.g. `LV_SCR_LOAD_ANIM_MOVE_LE
 126:Drivers/lvgl/src/extra/widgets/msgbox/../../../../src/core/lv_disp.h ****  * @param time time of the animation
 127:Drivers/lvgl/src/extra/widgets/msgbox/../../../../src/core/lv_disp.h ****  * @param delay delay before the transition
 128:Drivers/lvgl/src/extra/widgets/msgbox/../../../../src/core/lv_disp.h ****  * @param auto_del true: automatically delete the old screen
 129:Drivers/lvgl/src/extra/widgets/msgbox/../../../../src/core/lv_disp.h ****  */
 130:Drivers/lvgl/src/extra/widgets/msgbox/../../../../src/core/lv_disp.h **** void lv_scr_load_anim(lv_obj_t * scr, lv_scr_load_anim_t anim_type, uint32_t time, uint32_t delay, 
 131:Drivers/lvgl/src/extra/widgets/msgbox/../../../../src/core/lv_disp.h **** 
 132:Drivers/lvgl/src/extra/widgets/msgbox/../../../../src/core/lv_disp.h **** /**
 133:Drivers/lvgl/src/extra/widgets/msgbox/../../../../src/core/lv_disp.h ****  * Get elapsed time since last user activity on a display (e.g. click)
 134:Drivers/lvgl/src/extra/widgets/msgbox/../../../../src/core/lv_disp.h ****  * @param disp pointer to a display (NULL to get the overall smallest inactivity)
 135:Drivers/lvgl/src/extra/widgets/msgbox/../../../../src/core/lv_disp.h ****  * @return elapsed ticks (milliseconds) since the last activity
 136:Drivers/lvgl/src/extra/widgets/msgbox/../../../../src/core/lv_disp.h ****  */
 137:Drivers/lvgl/src/extra/widgets/msgbox/../../../../src/core/lv_disp.h **** uint32_t lv_disp_get_inactive_time(const lv_disp_t * disp);
 138:Drivers/lvgl/src/extra/widgets/msgbox/../../../../src/core/lv_disp.h **** 
 139:Drivers/lvgl/src/extra/widgets/msgbox/../../../../src/core/lv_disp.h **** /**
 140:Drivers/lvgl/src/extra/widgets/msgbox/../../../../src/core/lv_disp.h ****  * Manually trigger an activity on a display
 141:Drivers/lvgl/src/extra/widgets/msgbox/../../../../src/core/lv_disp.h ****  * @param disp pointer to a display (NULL to use the default display)
 142:Drivers/lvgl/src/extra/widgets/msgbox/../../../../src/core/lv_disp.h ****  */
 143:Drivers/lvgl/src/extra/widgets/msgbox/../../../../src/core/lv_disp.h **** void lv_disp_trig_activity(lv_disp_t * disp);
 144:Drivers/lvgl/src/extra/widgets/msgbox/../../../../src/core/lv_disp.h **** 
 145:Drivers/lvgl/src/extra/widgets/msgbox/../../../../src/core/lv_disp.h **** /**
 146:Drivers/lvgl/src/extra/widgets/msgbox/../../../../src/core/lv_disp.h ****  * Clean any CPU cache that is related to the display.
 147:Drivers/lvgl/src/extra/widgets/msgbox/../../../../src/core/lv_disp.h ****  * @param disp pointer to a display (NULL to use the default display)
 148:Drivers/lvgl/src/extra/widgets/msgbox/../../../../src/core/lv_disp.h ****  */
 149:Drivers/lvgl/src/extra/widgets/msgbox/../../../../src/core/lv_disp.h **** void lv_disp_clean_dcache(lv_disp_t * disp);
 150:Drivers/lvgl/src/extra/widgets/msgbox/../../../../src/core/lv_disp.h **** 
 151:Drivers/lvgl/src/extra/widgets/msgbox/../../../../src/core/lv_disp.h **** /**
 152:Drivers/lvgl/src/extra/widgets/msgbox/../../../../src/core/lv_disp.h ****  * Temporarily enable and disable the invalidation of the display.
 153:Drivers/lvgl/src/extra/widgets/msgbox/../../../../src/core/lv_disp.h ****  * @param disp pointer to a display (NULL to use the default display)
 154:Drivers/lvgl/src/extra/widgets/msgbox/../../../../src/core/lv_disp.h ****  * @param en true: enable invalidation; false: invalidation
 155:Drivers/lvgl/src/extra/widgets/msgbox/../../../../src/core/lv_disp.h ****  */
 156:Drivers/lvgl/src/extra/widgets/msgbox/../../../../src/core/lv_disp.h **** void lv_disp_enable_invalidation(lv_disp_t * disp, bool en);
 157:Drivers/lvgl/src/extra/widgets/msgbox/../../../../src/core/lv_disp.h **** 
 158:Drivers/lvgl/src/extra/widgets/msgbox/../../../../src/core/lv_disp.h **** /**
ARM GAS  /var/folders/0z/tsy30v1j4xl4_7kw94k978ww0000gn/T//cceRZMx6.s 			page 27


 159:Drivers/lvgl/src/extra/widgets/msgbox/../../../../src/core/lv_disp.h ****  * Get display invalidation is enabled.
 160:Drivers/lvgl/src/extra/widgets/msgbox/../../../../src/core/lv_disp.h ****  * @param disp pointer to a display (NULL to use the default display)
 161:Drivers/lvgl/src/extra/widgets/msgbox/../../../../src/core/lv_disp.h ****  * @return return true if invalidation is enabled
 162:Drivers/lvgl/src/extra/widgets/msgbox/../../../../src/core/lv_disp.h ****  */
 163:Drivers/lvgl/src/extra/widgets/msgbox/../../../../src/core/lv_disp.h **** bool lv_disp_is_invalidation_enabled(lv_disp_t * disp);
 164:Drivers/lvgl/src/extra/widgets/msgbox/../../../../src/core/lv_disp.h **** 
 165:Drivers/lvgl/src/extra/widgets/msgbox/../../../../src/core/lv_disp.h **** /**
 166:Drivers/lvgl/src/extra/widgets/msgbox/../../../../src/core/lv_disp.h ****  * Get a pointer to the screen refresher timer to
 167:Drivers/lvgl/src/extra/widgets/msgbox/../../../../src/core/lv_disp.h ****  * modify its parameters with `lv_timer_...` functions.
 168:Drivers/lvgl/src/extra/widgets/msgbox/../../../../src/core/lv_disp.h ****  * @param disp pointer to a display
 169:Drivers/lvgl/src/extra/widgets/msgbox/../../../../src/core/lv_disp.h ****  * @return pointer to the display refresher timer. (NULL on error)
 170:Drivers/lvgl/src/extra/widgets/msgbox/../../../../src/core/lv_disp.h ****  */
 171:Drivers/lvgl/src/extra/widgets/msgbox/../../../../src/core/lv_disp.h **** lv_timer_t * _lv_disp_get_refr_timer(lv_disp_t * disp);
 172:Drivers/lvgl/src/extra/widgets/msgbox/../../../../src/core/lv_disp.h **** 
 173:Drivers/lvgl/src/extra/widgets/msgbox/../../../../src/core/lv_disp.h **** /*------------------------------------------------
 174:Drivers/lvgl/src/extra/widgets/msgbox/../../../../src/core/lv_disp.h ****  * To improve backward compatibility
 175:Drivers/lvgl/src/extra/widgets/msgbox/../../../../src/core/lv_disp.h ****  * Recommended only if you have one display
 176:Drivers/lvgl/src/extra/widgets/msgbox/../../../../src/core/lv_disp.h ****  *------------------------------------------------*/
 177:Drivers/lvgl/src/extra/widgets/msgbox/../../../../src/core/lv_disp.h **** 
 178:Drivers/lvgl/src/extra/widgets/msgbox/../../../../src/core/lv_disp.h **** /**
 179:Drivers/lvgl/src/extra/widgets/msgbox/../../../../src/core/lv_disp.h ****  * Get the active screen of the default display
 180:Drivers/lvgl/src/extra/widgets/msgbox/../../../../src/core/lv_disp.h ****  * @return pointer to the active screen
 181:Drivers/lvgl/src/extra/widgets/msgbox/../../../../src/core/lv_disp.h ****  */
 182:Drivers/lvgl/src/extra/widgets/msgbox/../../../../src/core/lv_disp.h **** static inline lv_obj_t * lv_scr_act(void)
 183:Drivers/lvgl/src/extra/widgets/msgbox/../../../../src/core/lv_disp.h **** {
 184:Drivers/lvgl/src/extra/widgets/msgbox/../../../../src/core/lv_disp.h ****     return lv_disp_get_scr_act(lv_disp_get_default());
 185:Drivers/lvgl/src/extra/widgets/msgbox/../../../../src/core/lv_disp.h **** }
 186:Drivers/lvgl/src/extra/widgets/msgbox/../../../../src/core/lv_disp.h **** 
 187:Drivers/lvgl/src/extra/widgets/msgbox/../../../../src/core/lv_disp.h **** /**
 188:Drivers/lvgl/src/extra/widgets/msgbox/../../../../src/core/lv_disp.h ****  * Get the top layer  of the default display
 189:Drivers/lvgl/src/extra/widgets/msgbox/../../../../src/core/lv_disp.h ****  * @return pointer to the top layer
 190:Drivers/lvgl/src/extra/widgets/msgbox/../../../../src/core/lv_disp.h ****  */
 191:Drivers/lvgl/src/extra/widgets/msgbox/../../../../src/core/lv_disp.h **** static inline lv_obj_t * lv_layer_top(void)
 411              		.loc 4 191 26 view .LVU132
 412              	.LBB54:
 192:Drivers/lvgl/src/extra/widgets/msgbox/../../../../src/core/lv_disp.h **** {
 193:Drivers/lvgl/src/extra/widgets/msgbox/../../../../src/core/lv_disp.h ****     return lv_disp_get_layer_top(lv_disp_get_default());
 413              		.loc 4 193 5 view .LVU133
 414              		.loc 4 193 12 is_stmt 0 view .LVU134
 415 00ee FFF7FEFF 		bl	lv_disp_get_default
 416              	.LVL45:
 417              		.loc 4 193 12 view .LVU135
 418 00f2 FFF7FEFF 		bl	lv_disp_get_layer_top
 419              	.LVL46:
 420 00f6 0146     		mov	r1, r0
 421              	.LBE54:
 422              	.LBE53:
  68:Drivers/lvgl/src/extra/widgets/msgbox/lv_msgbox.c ****         LV_ASSERT_MALLOC(parent);
 423              		.loc 1 68 18 view .LVU136
 424 00f8 5648     		ldr	r0, .L56+8
 425 00fa FFF7FEFF 		bl	lv_obj_class_create_obj
 426              	.LVL47:
  69:Drivers/lvgl/src/extra/widgets/msgbox/lv_msgbox.c ****         lv_obj_class_init_obj(parent);
 427              		.loc 1 69 9 is_stmt 1 view .LVU137
  69:Drivers/lvgl/src/extra/widgets/msgbox/lv_msgbox.c ****         lv_obj_class_init_obj(parent);
 428              		.loc 1 69 9 view .LVU138
 429 00fe 0446     		mov	r4, r0
ARM GAS  /var/folders/0z/tsy30v1j4xl4_7kw94k978ww0000gn/T//cceRZMx6.s 			page 28


 430 0100 E0B1     		cbz	r0, .L8
  69:Drivers/lvgl/src/extra/widgets/msgbox/lv_msgbox.c ****         lv_obj_class_init_obj(parent);
 431              		.loc 1 69 9 discriminator 2 view .LVU139
  69:Drivers/lvgl/src/extra/widgets/msgbox/lv_msgbox.c ****         lv_obj_class_init_obj(parent);
 432              		.loc 1 69 33 discriminator 2 view .LVU140
  70:Drivers/lvgl/src/extra/widgets/msgbox/lv_msgbox.c ****         lv_obj_clear_flag(parent, LV_OBJ_FLAG_IGNORE_LAYOUT);
 433              		.loc 1 70 9 discriminator 2 view .LVU141
 434 0102 FFF7FEFF 		bl	lv_obj_class_init_obj
 435              	.LVL48:
  71:Drivers/lvgl/src/extra/widgets/msgbox/lv_msgbox.c ****         lv_obj_set_size(parent, LV_PCT(100), LV_PCT(100));
 436              		.loc 1 71 9 discriminator 2 view .LVU142
 437 0106 2046     		mov	r0, r4
 438 0108 4FF40031 		mov	r1, #131072
 439 010c FFF7FEFF 		bl	lv_obj_clear_flag
 440              	.LVL49:
  72:Drivers/lvgl/src/extra/widgets/msgbox/lv_msgbox.c ****     }
 441              		.loc 1 72 9 discriminator 2 view .LVU143
 442 0110 42F26402 		movw	r2, #8292
 443 0114 1146     		mov	r1, r2
 444 0116 2046     		mov	r0, r4
 445 0118 FFF7FEFF 		bl	lv_obj_set_size
 446              	.LVL50:
  75:Drivers/lvgl/src/extra/widgets/msgbox/lv_msgbox.c ****     LV_ASSERT_MALLOC(obj);
 447              		.loc 1 75 5 discriminator 2 view .LVU144
  75:Drivers/lvgl/src/extra/widgets/msgbox/lv_msgbox.c ****     LV_ASSERT_MALLOC(obj);
 448              		.loc 1 75 22 is_stmt 0 discriminator 2 view .LVU145
 449 011c 2146     		mov	r1, r4
 450 011e 4B48     		ldr	r0, .L56
 451 0120 FFF7FEFF 		bl	lv_obj_class_create_obj
 452              	.LVL51:
  76:Drivers/lvgl/src/extra/widgets/msgbox/lv_msgbox.c ****     if(obj == NULL) return NULL;
 453              		.loc 1 76 5 is_stmt 1 discriminator 2 view .LVU146
  76:Drivers/lvgl/src/extra/widgets/msgbox/lv_msgbox.c ****     if(obj == NULL) return NULL;
 454              		.loc 1 76 5 discriminator 2 view .LVU147
 455 0124 0446     		mov	r4, r0
 456              	.LVL52:
  76:Drivers/lvgl/src/extra/widgets/msgbox/lv_msgbox.c ****     if(obj == NULL) return NULL;
 457              		.loc 1 76 5 is_stmt 0 discriminator 2 view .LVU148
 458 0126 0028     		cmp	r0, #0
 459 0128 3FF479AF 		beq	.L10
  76:Drivers/lvgl/src/extra/widgets/msgbox/lv_msgbox.c ****     if(obj == NULL) return NULL;
 460              		.loc 1 76 5 is_stmt 1 view .LVU149
  76:Drivers/lvgl/src/extra/widgets/msgbox/lv_msgbox.c ****     if(obj == NULL) return NULL;
 461              		.loc 1 76 26 view .LVU150
  77:Drivers/lvgl/src/extra/widgets/msgbox/lv_msgbox.c ****     lv_obj_class_init_obj(obj);
 462              		.loc 1 77 5 view .LVU151
  78:Drivers/lvgl/src/extra/widgets/msgbox/lv_msgbox.c ****     lv_msgbox_t * mbox = (lv_msgbox_t *)obj;
 463              		.loc 1 78 5 view .LVU152
 464 012c FFF7FEFF 		bl	lv_obj_class_init_obj
 465              	.LVL53:
  79:Drivers/lvgl/src/extra/widgets/msgbox/lv_msgbox.c **** 
 466              		.loc 1 79 5 view .LVU153
  81:Drivers/lvgl/src/extra/widgets/msgbox/lv_msgbox.c **** 
 467              		.loc 1 81 5 view .LVU154
  81:Drivers/lvgl/src/extra/widgets/msgbox/lv_msgbox.c **** 
 468              		.loc 1 81 21 view .LVU155
 469 0130 4FF00071 		mov	r1, #33554432
ARM GAS  /var/folders/0z/tsy30v1j4xl4_7kw94k978ww0000gn/T//cceRZMx6.s 			page 29


 470 0134 2046     		mov	r0, r4
 471 0136 FFF7FEFF 		bl	lv_obj_add_flag
 472              	.LVL54:
 473 013a 73E7     		b	.L28
 474              	.LVL55:
 475              	.L8:
  69:Drivers/lvgl/src/extra/widgets/msgbox/lv_msgbox.c ****         lv_obj_class_init_obj(parent);
 476              		.loc 1 69 9 discriminator 1 view .LVU156
  69:Drivers/lvgl/src/extra/widgets/msgbox/lv_msgbox.c ****         lv_obj_class_init_obj(parent);
 477              		.loc 1 69 9 discriminator 1 view .LVU157
  69:Drivers/lvgl/src/extra/widgets/msgbox/lv_msgbox.c ****         lv_obj_class_init_obj(parent);
 478              		.loc 1 69 9 discriminator 1 view .LVU158
  69:Drivers/lvgl/src/extra/widgets/msgbox/lv_msgbox.c ****         lv_obj_class_init_obj(parent);
 479              		.loc 1 69 9 discriminator 1 view .LVU159
  69:Drivers/lvgl/src/extra/widgets/msgbox/lv_msgbox.c ****         lv_obj_class_init_obj(parent);
 480              		.loc 1 69 9 discriminator 1 view .LVU160
  69:Drivers/lvgl/src/extra/widgets/msgbox/lv_msgbox.c ****         lv_obj_class_init_obj(parent);
 481              		.loc 1 69 9 discriminator 1 view .LVU161
  69:Drivers/lvgl/src/extra/widgets/msgbox/lv_msgbox.c ****         lv_obj_class_init_obj(parent);
 482              		.loc 1 69 9 discriminator 1 view .LVU162
  69:Drivers/lvgl/src/extra/widgets/msgbox/lv_msgbox.c ****         lv_obj_class_init_obj(parent);
 483              		.loc 1 69 9 discriminator 1 view .LVU163
  69:Drivers/lvgl/src/extra/widgets/msgbox/lv_msgbox.c ****         lv_obj_class_init_obj(parent);
 484              		.loc 1 69 9 discriminator 1 view .LVU164
  69:Drivers/lvgl/src/extra/widgets/msgbox/lv_msgbox.c ****         lv_obj_class_init_obj(parent);
 485              		.loc 1 69 9 discriminator 1 view .LVU165
 486 013c FEE7     		b	.L8
 487              	.LVL56:
 488              	.L12:
  88:Drivers/lvgl/src/extra/widgets/msgbox/lv_msgbox.c ****         mbox->title = lv_label_create(obj);
 489              		.loc 1 88 5 view .LVU166
  88:Drivers/lvgl/src/extra/widgets/msgbox/lv_msgbox.c ****         mbox->title = lv_label_create(obj);
 490              		.loc 1 88 7 is_stmt 0 view .LVU167
 491 013e B8F1000F 		cmp	r8, #0
 492 0142 59D1     		bne	.L53
  89:Drivers/lvgl/src/extra/widgets/msgbox/lv_msgbox.c ****         lv_label_set_text(mbox->title, has_title ? title : "");
 493              		.loc 1 89 9 is_stmt 1 view .LVU168
  89:Drivers/lvgl/src/extra/widgets/msgbox/lv_msgbox.c ****         lv_label_set_text(mbox->title, has_title ? title : "");
 494              		.loc 1 89 23 is_stmt 0 view .LVU169
 495 0144 2046     		mov	r0, r4
 496 0146 FFF7FEFF 		bl	lv_label_create
 497              	.LVL57:
  90:Drivers/lvgl/src/extra/widgets/msgbox/lv_msgbox.c ****         lv_label_set_long_mode(mbox->title, LV_LABEL_LONG_SCROLL_CIRCULAR);
 498              		.loc 1 90 9 view .LVU170
 499 014a 2946     		mov	r1, r5
  89:Drivers/lvgl/src/extra/widgets/msgbox/lv_msgbox.c ****         lv_label_set_text(mbox->title, has_title ? title : "");
 500              		.loc 1 89 21 view .LVU171
 501 014c 6062     		str	r0, [r4, #36]
  90:Drivers/lvgl/src/extra/widgets/msgbox/lv_msgbox.c ****         lv_label_set_long_mode(mbox->title, LV_LABEL_LONG_SCROLL_CIRCULAR);
 502              		.loc 1 90 9 is_stmt 1 view .LVU172
 503 014e FFF7FEFF 		bl	lv_label_set_text
 504              	.LVL58:
  91:Drivers/lvgl/src/extra/widgets/msgbox/lv_msgbox.c ****         if(add_close_btn) lv_obj_set_flex_grow(mbox->title, 1);
 505              		.loc 1 91 9 view .LVU173
 506 0152 606A     		ldr	r0, [r4, #36]
 507 0154 0321     		movs	r1, #3
 508 0156 FFF7FEFF 		bl	lv_label_set_long_mode
ARM GAS  /var/folders/0z/tsy30v1j4xl4_7kw94k978ww0000gn/T//cceRZMx6.s 			page 30


 509              	.LVL59:
  92:Drivers/lvgl/src/extra/widgets/msgbox/lv_msgbox.c ****         else lv_obj_set_width(mbox->title, LV_PCT(100));
 510              		.loc 1 92 9 view .LVU174
  93:Drivers/lvgl/src/extra/widgets/msgbox/lv_msgbox.c ****     }
 511              		.loc 1 93 14 view .LVU175
 512 015a 606A     		ldr	r0, [r4, #36]
 513 015c 42F26401 		movw	r1, #8292
 514 0160 FFF7FEFF 		bl	lv_obj_set_width
 515              	.LVL60:
 516 0164 6BE7     		b	.L13
 517              	.LVL61:
 518              	.L52:
  89:Drivers/lvgl/src/extra/widgets/msgbox/lv_msgbox.c ****         lv_label_set_text(mbox->title, has_title ? title : "");
 519              		.loc 1 89 9 view .LVU176
  89:Drivers/lvgl/src/extra/widgets/msgbox/lv_msgbox.c ****         lv_label_set_text(mbox->title, has_title ? title : "");
 520              		.loc 1 89 23 is_stmt 0 view .LVU177
 521 0166 2046     		mov	r0, r4
 522 0168 FFF7FEFF 		bl	lv_label_create
 523              	.LVL62:
  90:Drivers/lvgl/src/extra/widgets/msgbox/lv_msgbox.c ****         lv_label_set_long_mode(mbox->title, LV_LABEL_LONG_SCROLL_CIRCULAR);
 524              		.loc 1 90 9 view .LVU178
 525 016c 3A49     		ldr	r1, .L56+12
  89:Drivers/lvgl/src/extra/widgets/msgbox/lv_msgbox.c ****         lv_label_set_text(mbox->title, has_title ? title : "");
 526              		.loc 1 89 21 view .LVU179
 527 016e 6062     		str	r0, [r4, #36]
  90:Drivers/lvgl/src/extra/widgets/msgbox/lv_msgbox.c ****         lv_label_set_long_mode(mbox->title, LV_LABEL_LONG_SCROLL_CIRCULAR);
 528              		.loc 1 90 9 is_stmt 1 view .LVU180
 529 0170 FFF7FEFF 		bl	lv_label_set_text
 530              	.LVL63:
  91:Drivers/lvgl/src/extra/widgets/msgbox/lv_msgbox.c ****         if(add_close_btn) lv_obj_set_flex_grow(mbox->title, 1);
 531              		.loc 1 91 9 view .LVU181
 532 0174 606A     		ldr	r0, [r4, #36]
 533 0176 0321     		movs	r1, #3
 534 0178 FFF7FEFF 		bl	lv_label_set_long_mode
 535              	.LVL64:
  92:Drivers/lvgl/src/extra/widgets/msgbox/lv_msgbox.c ****         else lv_obj_set_width(mbox->title, LV_PCT(100));
 536              		.loc 1 92 9 view .LVU182
 537              	.L14:
  92:Drivers/lvgl/src/extra/widgets/msgbox/lv_msgbox.c ****         else lv_obj_set_width(mbox->title, LV_PCT(100));
 538              		.loc 1 92 27 discriminator 1 view .LVU183
 539 017c 0121     		movs	r1, #1
 540 017e 606A     		ldr	r0, [r4, #36]
 541 0180 FFF7FEFF 		bl	lv_obj_set_flex_grow
 542              	.LVL65:
  96:Drivers/lvgl/src/extra/widgets/msgbox/lv_msgbox.c ****         mbox->close_btn = lv_btn_create(obj);
 543              		.loc 1 96 5 discriminator 1 view .LVU184
 544              	.LBB55:
  97:Drivers/lvgl/src/extra/widgets/msgbox/lv_msgbox.c ****         lv_obj_set_ext_click_area(mbox->close_btn, LV_DPX(10));
 545              		.loc 1 97 9 discriminator 1 view .LVU185
  97:Drivers/lvgl/src/extra/widgets/msgbox/lv_msgbox.c ****         lv_obj_set_ext_click_area(mbox->close_btn, LV_DPX(10));
 546              		.loc 1 97 27 is_stmt 0 discriminator 1 view .LVU186
 547 0184 2046     		mov	r0, r4
 548 0186 FFF7FEFF 		bl	lv_btn_create
 549              	.LVL66:
  97:Drivers/lvgl/src/extra/widgets/msgbox/lv_msgbox.c ****         lv_obj_set_ext_click_area(mbox->close_btn, LV_DPX(10));
 550              		.loc 1 97 25 discriminator 1 view .LVU187
 551 018a A062     		str	r0, [r4, #40]
ARM GAS  /var/folders/0z/tsy30v1j4xl4_7kw94k978ww0000gn/T//cceRZMx6.s 			page 31


  98:Drivers/lvgl/src/extra/widgets/msgbox/lv_msgbox.c ****         lv_obj_add_event_cb(mbox->close_btn, msgbox_close_click_event_cb, LV_EVENT_CLICKED, NULL);
 552              		.loc 1 98 9 is_stmt 1 discriminator 1 view .LVU188
  97:Drivers/lvgl/src/extra/widgets/msgbox/lv_msgbox.c ****         lv_obj_set_ext_click_area(mbox->close_btn, LV_DPX(10));
 553              		.loc 1 97 27 is_stmt 0 discriminator 1 view .LVU189
 554 018c 0546     		mov	r5, r0
 555              	.LVL67:
  98:Drivers/lvgl/src/extra/widgets/msgbox/lv_msgbox.c ****         lv_obj_add_event_cb(mbox->close_btn, msgbox_close_click_event_cb, LV_EVENT_CLICKED, NULL);
 556              		.loc 1 98 52 discriminator 1 view .LVU190
 557 018e 0020     		movs	r0, #0
 558 0190 FFF7FEFF 		bl	lv_disp_get_dpi
 559              	.LVL68:
 560 0194 00EB8003 		add	r3, r0, r0, lsl #2
 561 0198 5B00     		lsls	r3, r3, #1
  98:Drivers/lvgl/src/extra/widgets/msgbox/lv_msgbox.c ****         lv_obj_add_event_cb(mbox->close_btn, msgbox_close_click_event_cb, LV_EVENT_CLICKED, NULL);
 562              		.loc 1 98 9 discriminator 1 view .LVU191
 563 019a EF2B     		cmp	r3, #239
 564 019c 47DC     		bgt	.L54
  98:Drivers/lvgl/src/extra/widgets/msgbox/lv_msgbox.c ****         lv_obj_add_event_cb(mbox->close_btn, msgbox_close_click_event_cb, LV_EVENT_CLICKED, NULL);
 565              		.loc 1 98 9 view .LVU192
 566 019e 0121     		movs	r1, #1
 567              	.L15:
  98:Drivers/lvgl/src/extra/widgets/msgbox/lv_msgbox.c ****         lv_obj_add_event_cb(mbox->close_btn, msgbox_close_click_event_cb, LV_EVENT_CLICKED, NULL);
 568              		.loc 1 98 9 discriminator 4 view .LVU193
 569 01a0 2846     		mov	r0, r5
 570 01a2 FFF7FEFF 		bl	lv_obj_set_ext_click_area
 571              	.LVL69:
  99:Drivers/lvgl/src/extra/widgets/msgbox/lv_msgbox.c ****         lv_obj_t * label = lv_label_create(mbox->close_btn);
 572              		.loc 1 99 9 is_stmt 1 discriminator 4 view .LVU194
 573 01a6 0023     		movs	r3, #0
 574 01a8 0722     		movs	r2, #7
 575 01aa 2C49     		ldr	r1, .L56+16
 576 01ac A06A     		ldr	r0, [r4, #40]
 577 01ae FFF7FEFF 		bl	lv_obj_add_event_cb
 578              	.LVL70:
 100:Drivers/lvgl/src/extra/widgets/msgbox/lv_msgbox.c ****         lv_label_set_text(label, LV_SYMBOL_CLOSE);
 579              		.loc 1 100 9 discriminator 4 view .LVU195
 100:Drivers/lvgl/src/extra/widgets/msgbox/lv_msgbox.c ****         lv_label_set_text(label, LV_SYMBOL_CLOSE);
 580              		.loc 1 100 28 is_stmt 0 discriminator 4 view .LVU196
 581 01b2 A06A     		ldr	r0, [r4, #40]
 582 01b4 FFF7FEFF 		bl	lv_label_create
 583              	.LVL71:
 101:Drivers/lvgl/src/extra/widgets/msgbox/lv_msgbox.c ****         const lv_font_t * font = lv_obj_get_style_text_font(mbox->close_btn, LV_PART_MAIN);
 584              		.loc 1 101 9 discriminator 4 view .LVU197
 585 01b8 2949     		ldr	r1, .L56+20
 100:Drivers/lvgl/src/extra/widgets/msgbox/lv_msgbox.c ****         lv_label_set_text(label, LV_SYMBOL_CLOSE);
 586              		.loc 1 100 28 discriminator 4 view .LVU198
 587 01ba 8046     		mov	r8, r0
 588              	.LVL72:
 101:Drivers/lvgl/src/extra/widgets/msgbox/lv_msgbox.c ****         const lv_font_t * font = lv_obj_get_style_text_font(mbox->close_btn, LV_PART_MAIN);
 589              		.loc 1 101 9 is_stmt 1 discriminator 4 view .LVU199
 590 01bc FFF7FEFF 		bl	lv_label_set_text
 591              	.LVL73:
 102:Drivers/lvgl/src/extra/widgets/msgbox/lv_msgbox.c ****         lv_coord_t close_btn_size = lv_font_get_line_height(font) + LV_DPX(10);
 592              		.loc 1 102 9 discriminator 4 view .LVU200
 593              	.LBB56:
 594              	.LBI56:
 463:Drivers/lvgl/src/extra/widgets/msgbox/../../../../src/core/lv_obj_style_gen.h **** {
ARM GAS  /var/folders/0z/tsy30v1j4xl4_7kw94k978ww0000gn/T//cceRZMx6.s 			page 32


 595              		.loc 2 463 33 discriminator 4 view .LVU201
 596              	.LBB57:
 465:Drivers/lvgl/src/extra/widgets/msgbox/../../../../src/core/lv_obj_style_gen.h ****     return (const lv_font_t *)v.ptr;
 597              		.loc 2 465 5 discriminator 4 view .LVU202
 465:Drivers/lvgl/src/extra/widgets/msgbox/../../../../src/core/lv_obj_style_gen.h ****     return (const lv_font_t *)v.ptr;
 598              		.loc 2 465 26 is_stmt 0 discriminator 4 view .LVU203
 599 01c0 5722     		movs	r2, #87
 600 01c2 0021     		movs	r1, #0
 601 01c4 A06A     		ldr	r0, [r4, #40]
 602 01c6 FFF7FEFF 		bl	lv_obj_get_style_prop
 603              	.LVL74:
 604              		.loc 2 466 5 is_stmt 1 discriminator 4 view .LVU204
 605              		.loc 2 466 5 is_stmt 0 discriminator 4 view .LVU205
 606              	.LBE57:
 607              	.LBE56:
 103:Drivers/lvgl/src/extra/widgets/msgbox/lv_msgbox.c ****         lv_obj_set_size(mbox->close_btn, close_btn_size, close_btn_size);
 608              		.loc 1 103 9 is_stmt 1 discriminator 4 view .LVU206
 609              	.LBB58:
 610              	.LBI58:
 124:Drivers/lvgl/src/extra/widgets/msgbox/../../../../src/hal/../draw/../misc/../font/lv_font.h **** {
 611              		.loc 3 124 26 discriminator 4 view .LVU207
 612              	.LBB59:
 613              		.loc 3 126 5 discriminator 4 view .LVU208
 614              		.loc 3 126 5 is_stmt 0 discriminator 4 view .LVU209
 615              	.LBE59:
 616              	.LBE58:
 103:Drivers/lvgl/src/extra/widgets/msgbox/lv_msgbox.c ****         lv_obj_set_size(mbox->close_btn, close_btn_size, close_btn_size);
 617              		.loc 1 103 37 discriminator 4 view .LVU210
 618 01ca 0589     		ldrh	r5, [r0, #8]
 103:Drivers/lvgl/src/extra/widgets/msgbox/lv_msgbox.c ****         lv_obj_set_size(mbox->close_btn, close_btn_size, close_btn_size);
 619              		.loc 1 103 69 discriminator 4 view .LVU211
 620 01cc 0020     		movs	r0, #0
 621              	.LVL75:
 103:Drivers/lvgl/src/extra/widgets/msgbox/lv_msgbox.c ****         lv_obj_set_size(mbox->close_btn, close_btn_size, close_btn_size);
 622              		.loc 1 103 69 discriminator 4 view .LVU212
 623 01ce FFF7FEFF 		bl	lv_disp_get_dpi
 624              	.LVL76:
 625 01d2 00EB8003 		add	r3, r0, r0, lsl #2
 626 01d6 5B00     		lsls	r3, r3, #1
 103:Drivers/lvgl/src/extra/widgets/msgbox/lv_msgbox.c ****         lv_obj_set_size(mbox->close_btn, close_btn_size, close_btn_size);
 627              		.loc 1 103 67 discriminator 4 view .LVU213
 628 01d8 EF2B     		cmp	r3, #239
 629 01da 19DC     		bgt	.L55
 103:Drivers/lvgl/src/extra/widgets/msgbox/lv_msgbox.c ****         lv_obj_set_size(mbox->close_btn, close_btn_size, close_btn_size);
 630              		.loc 1 103 67 view .LVU214
 631 01dc 0123     		movs	r3, #1
 632              	.L16:
 103:Drivers/lvgl/src/extra/widgets/msgbox/lv_msgbox.c ****         lv_obj_set_size(mbox->close_btn, close_btn_size, close_btn_size);
 633              		.loc 1 103 67 discriminator 4 view .LVU215
 634 01de EA18     		adds	r2, r5, r3
 103:Drivers/lvgl/src/extra/widgets/msgbox/lv_msgbox.c ****         lv_obj_set_size(mbox->close_btn, close_btn_size, close_btn_size);
 635              		.loc 1 103 20 discriminator 4 view .LVU216
 636 01e0 12B2     		sxth	r2, r2
 637              	.LVL77:
 104:Drivers/lvgl/src/extra/widgets/msgbox/lv_msgbox.c ****         lv_obj_align(label, LV_ALIGN_CENTER, 0, 0);
 638              		.loc 1 104 9 is_stmt 1 discriminator 4 view .LVU217
 639 01e2 A06A     		ldr	r0, [r4, #40]
ARM GAS  /var/folders/0z/tsy30v1j4xl4_7kw94k978ww0000gn/T//cceRZMx6.s 			page 33


 640 01e4 1146     		mov	r1, r2
 641 01e6 FFF7FEFF 		bl	lv_obj_set_size
 642              	.LVL78:
 105:Drivers/lvgl/src/extra/widgets/msgbox/lv_msgbox.c ****     }
 643              		.loc 1 105 9 discriminator 4 view .LVU218
 644 01ea 0023     		movs	r3, #0
 645 01ec 4046     		mov	r0, r8
 646 01ee 1A46     		mov	r2, r3
 647 01f0 0921     		movs	r1, #9
 648 01f2 FFF7FEFF 		bl	lv_obj_align
 649              	.LVL79:
 650 01f6 22E7     		b	.L13
 651              	.LVL80:
 652              	.L53:
 105:Drivers/lvgl/src/extra/widgets/msgbox/lv_msgbox.c ****     }
 653              		.loc 1 105 9 is_stmt 0 discriminator 4 view .LVU219
 654              	.LBE55:
  89:Drivers/lvgl/src/extra/widgets/msgbox/lv_msgbox.c ****         lv_label_set_text(mbox->title, has_title ? title : "");
 655              		.loc 1 89 9 is_stmt 1 view .LVU220
  89:Drivers/lvgl/src/extra/widgets/msgbox/lv_msgbox.c ****         lv_label_set_text(mbox->title, has_title ? title : "");
 656              		.loc 1 89 23 is_stmt 0 view .LVU221
 657 01f8 2046     		mov	r0, r4
 658 01fa FFF7FEFF 		bl	lv_label_create
 659              	.LVL81:
  90:Drivers/lvgl/src/extra/widgets/msgbox/lv_msgbox.c ****         lv_label_set_long_mode(mbox->title, LV_LABEL_LONG_SCROLL_CIRCULAR);
 660              		.loc 1 90 9 view .LVU222
 661 01fe 2946     		mov	r1, r5
  89:Drivers/lvgl/src/extra/widgets/msgbox/lv_msgbox.c ****         lv_label_set_text(mbox->title, has_title ? title : "");
 662              		.loc 1 89 21 view .LVU223
 663 0200 6062     		str	r0, [r4, #36]
  90:Drivers/lvgl/src/extra/widgets/msgbox/lv_msgbox.c ****         lv_label_set_long_mode(mbox->title, LV_LABEL_LONG_SCROLL_CIRCULAR);
 664              		.loc 1 90 9 is_stmt 1 view .LVU224
 665 0202 FFF7FEFF 		bl	lv_label_set_text
 666              	.LVL82:
  91:Drivers/lvgl/src/extra/widgets/msgbox/lv_msgbox.c ****         if(add_close_btn) lv_obj_set_flex_grow(mbox->title, 1);
 667              		.loc 1 91 9 view .LVU225
 668 0206 606A     		ldr	r0, [r4, #36]
 669 0208 0321     		movs	r1, #3
 670 020a FFF7FEFF 		bl	lv_label_set_long_mode
 671              	.LVL83:
  92:Drivers/lvgl/src/extra/widgets/msgbox/lv_msgbox.c ****         else lv_obj_set_width(mbox->title, LV_PCT(100));
 672              		.loc 1 92 9 view .LVU226
 673 020e B5E7     		b	.L14
 674              	.LVL84:
 675              	.L55:
 676              	.LBB60:
 103:Drivers/lvgl/src/extra/widgets/msgbox/lv_msgbox.c ****         lv_obj_set_size(mbox->close_btn, close_btn_size, close_btn_size);
 677              		.loc 1 103 69 is_stmt 0 discriminator 1 view .LVU227
 678 0210 0020     		movs	r0, #0
 679 0212 FFF7FEFF 		bl	lv_disp_get_dpi
 680              	.LVL85:
 681 0216 5023     		movs	r3, #80
 682 0218 124A     		ldr	r2, .L56+24
 683 021a 0A21     		movs	r1, #10
 684 021c 00FB0130 		mla	r0, r0, r1, r3
 685 0220 82FB0032 		smull	r3, r2, r2, r0
 686 0224 C317     		asrs	r3, r0, #31
ARM GAS  /var/folders/0z/tsy30v1j4xl4_7kw94k978ww0000gn/T//cceRZMx6.s 			page 34


 687 0226 C3EBA213 		rsb	r3, r3, r2, asr #6
 103:Drivers/lvgl/src/extra/widgets/msgbox/lv_msgbox.c ****         lv_obj_set_size(mbox->close_btn, close_btn_size, close_btn_size);
 688              		.loc 1 103 67 discriminator 1 view .LVU228
 689 022a 9BB2     		uxth	r3, r3
 690 022c D7E7     		b	.L16
 691              	.LVL86:
 692              	.L54:
  98:Drivers/lvgl/src/extra/widgets/msgbox/lv_msgbox.c ****         lv_obj_add_event_cb(mbox->close_btn, msgbox_close_click_event_cb, LV_EVENT_CLICKED, NULL);
 693              		.loc 1 98 52 discriminator 1 view .LVU229
 694 022e 0020     		movs	r0, #0
 695 0230 FFF7FEFF 		bl	lv_disp_get_dpi
 696              	.LVL87:
 697 0234 0A21     		movs	r1, #10
 698 0236 5023     		movs	r3, #80
 699 0238 0A4A     		ldr	r2, .L56+24
 700 023a 00FB0130 		mla	r0, r0, r1, r3
 701 023e 82FB0032 		smull	r3, r2, r2, r0
 702 0242 C117     		asrs	r1, r0, #31
 703 0244 C1EBA211 		rsb	r1, r1, r2, asr #6
  98:Drivers/lvgl/src/extra/widgets/msgbox/lv_msgbox.c ****         lv_obj_add_event_cb(mbox->close_btn, msgbox_close_click_event_cb, LV_EVENT_CLICKED, NULL);
 704              		.loc 1 98 9 discriminator 1 view .LVU230
 705 0248 09B2     		sxth	r1, r1
 706 024a A9E7     		b	.L15
 707              	.L57:
 708              		.align	2
 709              	.L56:
 710 024c 00000000 		.word	.LANCHOR1
 711 0250 00000000 		.word	.LANCHOR2
 712 0254 00000000 		.word	.LANCHOR0
 713 0258 00000000 		.word	.LC0
 714 025c 00000000 		.word	msgbox_close_click_event_cb
 715 0260 04000000 		.word	.LC1
 716 0264 67666666 		.word	1717986919
 717              	.LBE60:
 718              		.cfi_endproc
 719              	.LFE204:
 721              		.section	.text.lv_msgbox_get_title,"ax",%progbits
 722              		.align	1
 723              		.p2align 2,,3
 724              		.global	lv_msgbox_get_title
 725              		.syntax unified
 726              		.thumb
 727              		.thumb_func
 729              	lv_msgbox_get_title:
 730              	.LVL88:
 731              	.LFB205:
 143:Drivers/lvgl/src/extra/widgets/msgbox/lv_msgbox.c ****     LV_ASSERT_OBJ(obj, MY_CLASS);
 732              		.loc 1 143 1 is_stmt 1 view -0
 733              		.cfi_startproc
 734              		@ args = 0, pretend = 0, frame = 0
 735              		@ frame_needed = 0, uses_anonymous_args = 0
 736              		@ link register save eliminated.
 144:Drivers/lvgl/src/extra/widgets/msgbox/lv_msgbox.c ****     lv_msgbox_t * mbox = (lv_msgbox_t *)obj;
 737              		.loc 1 144 5 view .LVU232
 144:Drivers/lvgl/src/extra/widgets/msgbox/lv_msgbox.c ****     lv_msgbox_t * mbox = (lv_msgbox_t *)obj;
 738              		.loc 1 144 5 view .LVU233
 144:Drivers/lvgl/src/extra/widgets/msgbox/lv_msgbox.c ****     lv_msgbox_t * mbox = (lv_msgbox_t *)obj;
ARM GAS  /var/folders/0z/tsy30v1j4xl4_7kw94k978ww0000gn/T//cceRZMx6.s 			page 35


 739              		.loc 1 144 5 view .LVU234
 145:Drivers/lvgl/src/extra/widgets/msgbox/lv_msgbox.c ****     return mbox->title;
 740              		.loc 1 145 5 view .LVU235
 146:Drivers/lvgl/src/extra/widgets/msgbox/lv_msgbox.c **** }
 741              		.loc 1 146 5 view .LVU236
 147:Drivers/lvgl/src/extra/widgets/msgbox/lv_msgbox.c **** 
 742              		.loc 1 147 1 is_stmt 0 view .LVU237
 743 0000 406A     		ldr	r0, [r0, #36]
 744              	.LVL89:
 147:Drivers/lvgl/src/extra/widgets/msgbox/lv_msgbox.c **** 
 745              		.loc 1 147 1 view .LVU238
 746 0002 7047     		bx	lr
 747              		.cfi_endproc
 748              	.LFE205:
 750              		.section	.text.lv_msgbox_get_close_btn,"ax",%progbits
 751              		.align	1
 752              		.p2align 2,,3
 753              		.global	lv_msgbox_get_close_btn
 754              		.syntax unified
 755              		.thumb
 756              		.thumb_func
 758              	lv_msgbox_get_close_btn:
 759              	.LVL90:
 760              	.LFB206:
 150:Drivers/lvgl/src/extra/widgets/msgbox/lv_msgbox.c ****     LV_ASSERT_OBJ(obj, MY_CLASS);
 761              		.loc 1 150 1 is_stmt 1 view -0
 762              		.cfi_startproc
 763              		@ args = 0, pretend = 0, frame = 0
 764              		@ frame_needed = 0, uses_anonymous_args = 0
 765              		@ link register save eliminated.
 151:Drivers/lvgl/src/extra/widgets/msgbox/lv_msgbox.c ****     lv_msgbox_t * mbox = (lv_msgbox_t *)obj;
 766              		.loc 1 151 5 view .LVU240
 151:Drivers/lvgl/src/extra/widgets/msgbox/lv_msgbox.c ****     lv_msgbox_t * mbox = (lv_msgbox_t *)obj;
 767              		.loc 1 151 5 view .LVU241
 151:Drivers/lvgl/src/extra/widgets/msgbox/lv_msgbox.c ****     lv_msgbox_t * mbox = (lv_msgbox_t *)obj;
 768              		.loc 1 151 5 view .LVU242
 152:Drivers/lvgl/src/extra/widgets/msgbox/lv_msgbox.c ****     return mbox->close_btn;
 769              		.loc 1 152 5 view .LVU243
 153:Drivers/lvgl/src/extra/widgets/msgbox/lv_msgbox.c **** }
 770              		.loc 1 153 5 view .LVU244
 154:Drivers/lvgl/src/extra/widgets/msgbox/lv_msgbox.c **** 
 771              		.loc 1 154 1 is_stmt 0 view .LVU245
 772 0000 806A     		ldr	r0, [r0, #40]
 773              	.LVL91:
 154:Drivers/lvgl/src/extra/widgets/msgbox/lv_msgbox.c **** 
 774              		.loc 1 154 1 view .LVU246
 775 0002 7047     		bx	lr
 776              		.cfi_endproc
 777              	.LFE206:
 779              		.section	.text.lv_msgbox_get_text,"ax",%progbits
 780              		.align	1
 781              		.p2align 2,,3
 782              		.global	lv_msgbox_get_text
 783              		.syntax unified
 784              		.thumb
 785              		.thumb_func
 787              	lv_msgbox_get_text:
ARM GAS  /var/folders/0z/tsy30v1j4xl4_7kw94k978ww0000gn/T//cceRZMx6.s 			page 36


 788              	.LVL92:
 789              	.LFB207:
 157:Drivers/lvgl/src/extra/widgets/msgbox/lv_msgbox.c ****     LV_ASSERT_OBJ(obj, MY_CLASS);
 790              		.loc 1 157 1 is_stmt 1 view -0
 791              		.cfi_startproc
 792              		@ args = 0, pretend = 0, frame = 0
 793              		@ frame_needed = 0, uses_anonymous_args = 0
 794              		@ link register save eliminated.
 158:Drivers/lvgl/src/extra/widgets/msgbox/lv_msgbox.c ****     lv_msgbox_t * mbox = (lv_msgbox_t *)obj;
 795              		.loc 1 158 5 view .LVU248
 158:Drivers/lvgl/src/extra/widgets/msgbox/lv_msgbox.c ****     lv_msgbox_t * mbox = (lv_msgbox_t *)obj;
 796              		.loc 1 158 5 view .LVU249
 158:Drivers/lvgl/src/extra/widgets/msgbox/lv_msgbox.c ****     lv_msgbox_t * mbox = (lv_msgbox_t *)obj;
 797              		.loc 1 158 5 view .LVU250
 159:Drivers/lvgl/src/extra/widgets/msgbox/lv_msgbox.c ****     return mbox->text;
 798              		.loc 1 159 5 view .LVU251
 160:Drivers/lvgl/src/extra/widgets/msgbox/lv_msgbox.c **** }
 799              		.loc 1 160 5 view .LVU252
 161:Drivers/lvgl/src/extra/widgets/msgbox/lv_msgbox.c **** 
 800              		.loc 1 161 1 is_stmt 0 view .LVU253
 801 0000 006B     		ldr	r0, [r0, #48]
 802              	.LVL93:
 161:Drivers/lvgl/src/extra/widgets/msgbox/lv_msgbox.c **** 
 803              		.loc 1 161 1 view .LVU254
 804 0002 7047     		bx	lr
 805              		.cfi_endproc
 806              	.LFE207:
 808              		.section	.text.lv_msgbox_get_content,"ax",%progbits
 809              		.align	1
 810              		.p2align 2,,3
 811              		.global	lv_msgbox_get_content
 812              		.syntax unified
 813              		.thumb
 814              		.thumb_func
 816              	lv_msgbox_get_content:
 817              	.LVL94:
 818              	.LFB208:
 164:Drivers/lvgl/src/extra/widgets/msgbox/lv_msgbox.c ****     LV_ASSERT_OBJ(obj, MY_CLASS);
 819              		.loc 1 164 1 is_stmt 1 view -0
 820              		.cfi_startproc
 821              		@ args = 0, pretend = 0, frame = 0
 822              		@ frame_needed = 0, uses_anonymous_args = 0
 823              		@ link register save eliminated.
 165:Drivers/lvgl/src/extra/widgets/msgbox/lv_msgbox.c ****     lv_msgbox_t * mbox = (lv_msgbox_t *)obj;
 824              		.loc 1 165 5 view .LVU256
 165:Drivers/lvgl/src/extra/widgets/msgbox/lv_msgbox.c ****     lv_msgbox_t * mbox = (lv_msgbox_t *)obj;
 825              		.loc 1 165 5 view .LVU257
 165:Drivers/lvgl/src/extra/widgets/msgbox/lv_msgbox.c ****     lv_msgbox_t * mbox = (lv_msgbox_t *)obj;
 826              		.loc 1 165 5 view .LVU258
 166:Drivers/lvgl/src/extra/widgets/msgbox/lv_msgbox.c ****     return mbox->content;
 827              		.loc 1 166 5 view .LVU259
 167:Drivers/lvgl/src/extra/widgets/msgbox/lv_msgbox.c **** }
 828              		.loc 1 167 5 view .LVU260
 168:Drivers/lvgl/src/extra/widgets/msgbox/lv_msgbox.c **** 
 829              		.loc 1 168 1 is_stmt 0 view .LVU261
 830 0000 C06A     		ldr	r0, [r0, #44]
 831              	.LVL95:
ARM GAS  /var/folders/0z/tsy30v1j4xl4_7kw94k978ww0000gn/T//cceRZMx6.s 			page 37


 168:Drivers/lvgl/src/extra/widgets/msgbox/lv_msgbox.c **** 
 832              		.loc 1 168 1 view .LVU262
 833 0002 7047     		bx	lr
 834              		.cfi_endproc
 835              	.LFE208:
 837              		.section	.text.lv_msgbox_get_btns,"ax",%progbits
 838              		.align	1
 839              		.p2align 2,,3
 840              		.global	lv_msgbox_get_btns
 841              		.syntax unified
 842              		.thumb
 843              		.thumb_func
 845              	lv_msgbox_get_btns:
 846              	.LVL96:
 847              	.LFB209:
 171:Drivers/lvgl/src/extra/widgets/msgbox/lv_msgbox.c ****     LV_ASSERT_OBJ(obj, MY_CLASS);
 848              		.loc 1 171 1 is_stmt 1 view -0
 849              		.cfi_startproc
 850              		@ args = 0, pretend = 0, frame = 0
 851              		@ frame_needed = 0, uses_anonymous_args = 0
 852              		@ link register save eliminated.
 172:Drivers/lvgl/src/extra/widgets/msgbox/lv_msgbox.c ****     lv_msgbox_t * mbox = (lv_msgbox_t *)obj;
 853              		.loc 1 172 5 view .LVU264
 172:Drivers/lvgl/src/extra/widgets/msgbox/lv_msgbox.c ****     lv_msgbox_t * mbox = (lv_msgbox_t *)obj;
 854              		.loc 1 172 5 view .LVU265
 172:Drivers/lvgl/src/extra/widgets/msgbox/lv_msgbox.c ****     lv_msgbox_t * mbox = (lv_msgbox_t *)obj;
 855              		.loc 1 172 5 view .LVU266
 173:Drivers/lvgl/src/extra/widgets/msgbox/lv_msgbox.c ****     return mbox->btns;
 856              		.loc 1 173 5 view .LVU267
 174:Drivers/lvgl/src/extra/widgets/msgbox/lv_msgbox.c **** }
 857              		.loc 1 174 5 view .LVU268
 175:Drivers/lvgl/src/extra/widgets/msgbox/lv_msgbox.c **** 
 858              		.loc 1 175 1 is_stmt 0 view .LVU269
 859 0000 406B     		ldr	r0, [r0, #52]
 860              	.LVL97:
 175:Drivers/lvgl/src/extra/widgets/msgbox/lv_msgbox.c **** 
 861              		.loc 1 175 1 view .LVU270
 862 0002 7047     		bx	lr
 863              		.cfi_endproc
 864              	.LFE209:
 866              		.section	.text.lv_msgbox_get_active_btn,"ax",%progbits
 867              		.align	1
 868              		.p2align 2,,3
 869              		.global	lv_msgbox_get_active_btn
 870              		.syntax unified
 871              		.thumb
 872              		.thumb_func
 874              	lv_msgbox_get_active_btn:
 875              	.LVL98:
 876              	.LFB210:
 178:Drivers/lvgl/src/extra/widgets/msgbox/lv_msgbox.c ****     lv_obj_t * btnm = lv_msgbox_get_btns(mbox);
 877              		.loc 1 178 1 is_stmt 1 view -0
 878              		.cfi_startproc
 879              		@ args = 0, pretend = 0, frame = 0
 880              		@ frame_needed = 0, uses_anonymous_args = 0
 881              		@ link register save eliminated.
 179:Drivers/lvgl/src/extra/widgets/msgbox/lv_msgbox.c ****     return lv_btnmatrix_get_selected_btn(btnm);
ARM GAS  /var/folders/0z/tsy30v1j4xl4_7kw94k978ww0000gn/T//cceRZMx6.s 			page 38


 882              		.loc 1 179 5 view .LVU272
 883              	.LBB61:
 884              	.LBI61:
 170:Drivers/lvgl/src/extra/widgets/msgbox/lv_msgbox.c **** {
 885              		.loc 1 170 12 view .LVU273
 886              	.LBB62:
 172:Drivers/lvgl/src/extra/widgets/msgbox/lv_msgbox.c ****     lv_msgbox_t * mbox = (lv_msgbox_t *)obj;
 887              		.loc 1 172 5 view .LVU274
 172:Drivers/lvgl/src/extra/widgets/msgbox/lv_msgbox.c ****     lv_msgbox_t * mbox = (lv_msgbox_t *)obj;
 888              		.loc 1 172 5 view .LVU275
 172:Drivers/lvgl/src/extra/widgets/msgbox/lv_msgbox.c ****     lv_msgbox_t * mbox = (lv_msgbox_t *)obj;
 889              		.loc 1 172 5 view .LVU276
 173:Drivers/lvgl/src/extra/widgets/msgbox/lv_msgbox.c ****     return mbox->btns;
 890              		.loc 1 173 5 view .LVU277
 174:Drivers/lvgl/src/extra/widgets/msgbox/lv_msgbox.c **** }
 891              		.loc 1 174 5 view .LVU278
 174:Drivers/lvgl/src/extra/widgets/msgbox/lv_msgbox.c **** }
 892              		.loc 1 174 5 is_stmt 0 view .LVU279
 893              	.LBE62:
 894              	.LBE61:
 180:Drivers/lvgl/src/extra/widgets/msgbox/lv_msgbox.c **** }
 895              		.loc 1 180 5 is_stmt 1 view .LVU280
 180:Drivers/lvgl/src/extra/widgets/msgbox/lv_msgbox.c **** }
 896              		.loc 1 180 12 is_stmt 0 view .LVU281
 897 0000 406B     		ldr	r0, [r0, #52]
 898              	.LVL99:
 180:Drivers/lvgl/src/extra/widgets/msgbox/lv_msgbox.c **** }
 899              		.loc 1 180 12 view .LVU282
 900 0002 FFF7FEBF 		b	lv_btnmatrix_get_selected_btn
 901              	.LVL100:
 180:Drivers/lvgl/src/extra/widgets/msgbox/lv_msgbox.c **** }
 902              		.loc 1 180 12 view .LVU283
 903              		.cfi_endproc
 904              	.LFE210:
 906 0006 00BF     		.section	.text.lv_msgbox_get_active_btn_text,"ax",%progbits
 907              		.align	1
 908              		.p2align 2,,3
 909              		.global	lv_msgbox_get_active_btn_text
 910              		.syntax unified
 911              		.thumb
 912              		.thumb_func
 914              	lv_msgbox_get_active_btn_text:
 915              	.LVL101:
 916              	.LFB211:
 184:Drivers/lvgl/src/extra/widgets/msgbox/lv_msgbox.c ****     lv_obj_t * btnm = lv_msgbox_get_btns(mbox);
 917              		.loc 1 184 1 is_stmt 1 view -0
 918              		.cfi_startproc
 919              		@ args = 0, pretend = 0, frame = 0
 920              		@ frame_needed = 0, uses_anonymous_args = 0
 185:Drivers/lvgl/src/extra/widgets/msgbox/lv_msgbox.c ****     return lv_btnmatrix_get_btn_text(btnm, lv_btnmatrix_get_selected_btn(btnm));
 921              		.loc 1 185 5 view .LVU285
 922              	.LBB63:
 923              	.LBI63:
 170:Drivers/lvgl/src/extra/widgets/msgbox/lv_msgbox.c **** {
 924              		.loc 1 170 12 view .LVU286
 925              	.LBB64:
 172:Drivers/lvgl/src/extra/widgets/msgbox/lv_msgbox.c ****     lv_msgbox_t * mbox = (lv_msgbox_t *)obj;
ARM GAS  /var/folders/0z/tsy30v1j4xl4_7kw94k978ww0000gn/T//cceRZMx6.s 			page 39


 926              		.loc 1 172 5 view .LVU287
 172:Drivers/lvgl/src/extra/widgets/msgbox/lv_msgbox.c ****     lv_msgbox_t * mbox = (lv_msgbox_t *)obj;
 927              		.loc 1 172 5 view .LVU288
 172:Drivers/lvgl/src/extra/widgets/msgbox/lv_msgbox.c ****     lv_msgbox_t * mbox = (lv_msgbox_t *)obj;
 928              		.loc 1 172 5 view .LVU289
 173:Drivers/lvgl/src/extra/widgets/msgbox/lv_msgbox.c ****     return mbox->btns;
 929              		.loc 1 173 5 view .LVU290
 174:Drivers/lvgl/src/extra/widgets/msgbox/lv_msgbox.c **** }
 930              		.loc 1 174 5 view .LVU291
 931              	.LBE64:
 932              	.LBE63:
 184:Drivers/lvgl/src/extra/widgets/msgbox/lv_msgbox.c ****     lv_obj_t * btnm = lv_msgbox_get_btns(mbox);
 933              		.loc 1 184 1 is_stmt 0 view .LVU292
 934 0000 10B5     		push	{r4, lr}
 935              		.cfi_def_cfa_offset 8
 936              		.cfi_offset 4, -8
 937              		.cfi_offset 14, -4
 938              	.LBB66:
 939              	.LBB65:
 174:Drivers/lvgl/src/extra/widgets/msgbox/lv_msgbox.c **** }
 940              		.loc 1 174 16 view .LVU293
 941 0002 446B     		ldr	r4, [r0, #52]
 942              	.LVL102:
 174:Drivers/lvgl/src/extra/widgets/msgbox/lv_msgbox.c **** }
 943              		.loc 1 174 16 view .LVU294
 944              	.LBE65:
 945              	.LBE66:
 186:Drivers/lvgl/src/extra/widgets/msgbox/lv_msgbox.c **** }
 946              		.loc 1 186 5 is_stmt 1 view .LVU295
 186:Drivers/lvgl/src/extra/widgets/msgbox/lv_msgbox.c **** }
 947              		.loc 1 186 12 is_stmt 0 view .LVU296
 948 0004 2046     		mov	r0, r4
 949              	.LVL103:
 186:Drivers/lvgl/src/extra/widgets/msgbox/lv_msgbox.c **** }
 950              		.loc 1 186 12 view .LVU297
 951 0006 FFF7FEFF 		bl	lv_btnmatrix_get_selected_btn
 952              	.LVL104:
 953 000a 0146     		mov	r1, r0
 954 000c 2046     		mov	r0, r4
 187:Drivers/lvgl/src/extra/widgets/msgbox/lv_msgbox.c **** 
 955              		.loc 1 187 1 view .LVU298
 956 000e BDE81040 		pop	{r4, lr}
 957              		.cfi_restore 14
 958              		.cfi_restore 4
 959              		.cfi_def_cfa_offset 0
 960              	.LVL105:
 186:Drivers/lvgl/src/extra/widgets/msgbox/lv_msgbox.c **** }
 961              		.loc 1 186 12 view .LVU299
 962 0012 FFF7FEBF 		b	lv_btnmatrix_get_btn_text
 963              	.LVL106:
 186:Drivers/lvgl/src/extra/widgets/msgbox/lv_msgbox.c **** }
 964              		.loc 1 186 12 view .LVU300
 965              		.cfi_endproc
 966              	.LFE211:
 968 0016 00BF     		.section	.text.lv_msgbox_close,"ax",%progbits
 969              		.align	1
 970              		.p2align 2,,3
ARM GAS  /var/folders/0z/tsy30v1j4xl4_7kw94k978ww0000gn/T//cceRZMx6.s 			page 40


 971              		.global	lv_msgbox_close
 972              		.syntax unified
 973              		.thumb
 974              		.thumb_func
 976              	lv_msgbox_close:
 977              	.LVL107:
 978              	.LFB212:
 190:Drivers/lvgl/src/extra/widgets/msgbox/lv_msgbox.c ****     if(lv_obj_has_flag(mbox, LV_MSGBOX_FLAG_AUTO_PARENT)) lv_obj_del(lv_obj_get_parent(mbox));
 979              		.loc 1 190 1 is_stmt 1 view -0
 980              		.cfi_startproc
 981              		@ args = 0, pretend = 0, frame = 0
 982              		@ frame_needed = 0, uses_anonymous_args = 0
 191:Drivers/lvgl/src/extra/widgets/msgbox/lv_msgbox.c ****     else lv_obj_del(mbox);
 983              		.loc 1 191 5 view .LVU302
 190:Drivers/lvgl/src/extra/widgets/msgbox/lv_msgbox.c ****     if(lv_obj_has_flag(mbox, LV_MSGBOX_FLAG_AUTO_PARENT)) lv_obj_del(lv_obj_get_parent(mbox));
 984              		.loc 1 190 1 is_stmt 0 view .LVU303
 985 0000 10B5     		push	{r4, lr}
 986              		.cfi_def_cfa_offset 8
 987              		.cfi_offset 4, -8
 988              		.cfi_offset 14, -4
 191:Drivers/lvgl/src/extra/widgets/msgbox/lv_msgbox.c ****     else lv_obj_del(mbox);
 989              		.loc 1 191 8 view .LVU304
 990 0002 4FF00071 		mov	r1, #33554432
 190:Drivers/lvgl/src/extra/widgets/msgbox/lv_msgbox.c ****     if(lv_obj_has_flag(mbox, LV_MSGBOX_FLAG_AUTO_PARENT)) lv_obj_del(lv_obj_get_parent(mbox));
 991              		.loc 1 190 1 view .LVU305
 992 0006 0446     		mov	r4, r0
 191:Drivers/lvgl/src/extra/widgets/msgbox/lv_msgbox.c ****     else lv_obj_del(mbox);
 993              		.loc 1 191 8 view .LVU306
 994 0008 FFF7FEFF 		bl	lv_obj_has_flag
 995              	.LVL108:
 191:Drivers/lvgl/src/extra/widgets/msgbox/lv_msgbox.c ****     else lv_obj_del(mbox);
 996              		.loc 1 191 7 view .LVU307
 997 000c 30B1     		cbz	r0, .L67
 998              	.LVL109:
 999              	.LBB69:
 1000              	.LBI69:
 189:Drivers/lvgl/src/extra/widgets/msgbox/lv_msgbox.c **** {
 1001              		.loc 1 189 6 is_stmt 1 view .LVU308
 1002              	.LBB70:
 191:Drivers/lvgl/src/extra/widgets/msgbox/lv_msgbox.c ****     else lv_obj_del(mbox);
 1003              		.loc 1 191 59 view .LVU309
 1004 000e 2046     		mov	r0, r4
 1005 0010 FFF7FEFF 		bl	lv_obj_get_parent
 1006              	.LVL110:
 1007              	.LBE70:
 1008              	.LBE69:
 193:Drivers/lvgl/src/extra/widgets/msgbox/lv_msgbox.c **** 
 1009              		.loc 1 193 1 is_stmt 0 view .LVU310
 1010 0014 BDE81040 		pop	{r4, lr}
 1011              		.cfi_remember_state
 1012              		.cfi_restore 14
 1013              		.cfi_restore 4
 1014              		.cfi_def_cfa_offset 0
 1015              	.LVL111:
 1016              	.LBB72:
 1017              	.LBB71:
 191:Drivers/lvgl/src/extra/widgets/msgbox/lv_msgbox.c ****     else lv_obj_del(mbox);
ARM GAS  /var/folders/0z/tsy30v1j4xl4_7kw94k978ww0000gn/T//cceRZMx6.s 			page 41


 1018              		.loc 1 191 59 view .LVU311
 1019 0018 FFF7FEBF 		b	lv_obj_del
 1020              	.LVL112:
 1021              	.L67:
 1022              		.cfi_restore_state
 191:Drivers/lvgl/src/extra/widgets/msgbox/lv_msgbox.c ****     else lv_obj_del(mbox);
 1023              		.loc 1 191 59 view .LVU312
 1024              	.LBE71:
 1025              	.LBE72:
 192:Drivers/lvgl/src/extra/widgets/msgbox/lv_msgbox.c **** }
 1026              		.loc 1 192 10 is_stmt 1 view .LVU313
 1027 001c 2046     		mov	r0, r4
 193:Drivers/lvgl/src/extra/widgets/msgbox/lv_msgbox.c **** 
 1028              		.loc 1 193 1 is_stmt 0 view .LVU314
 1029 001e BDE81040 		pop	{r4, lr}
 1030              		.cfi_restore 14
 1031              		.cfi_restore 4
 1032              		.cfi_def_cfa_offset 0
 1033              	.LVL113:
 192:Drivers/lvgl/src/extra/widgets/msgbox/lv_msgbox.c **** }
 1034              		.loc 1 192 10 view .LVU315
 1035 0022 FFF7FEBF 		b	lv_obj_del
 1036              	.LVL114:
 192:Drivers/lvgl/src/extra/widgets/msgbox/lv_msgbox.c **** }
 1037              		.loc 1 192 10 view .LVU316
 1038              		.cfi_endproc
 1039              	.LFE212:
 1041 0026 00BF     		.section	.text.lv_msgbox_close_async,"ax",%progbits
 1042              		.align	1
 1043              		.p2align 2,,3
 1044              		.global	lv_msgbox_close_async
 1045              		.syntax unified
 1046              		.thumb
 1047              		.thumb_func
 1049              	lv_msgbox_close_async:
 1050              	.LVL115:
 1051              	.LFB213:
 196:Drivers/lvgl/src/extra/widgets/msgbox/lv_msgbox.c ****     if(lv_obj_has_flag(dialog, LV_MSGBOX_FLAG_AUTO_PARENT)) lv_obj_del_async(lv_obj_get_parent(dial
 1052              		.loc 1 196 1 is_stmt 1 view -0
 1053              		.cfi_startproc
 1054              		@ args = 0, pretend = 0, frame = 0
 1055              		@ frame_needed = 0, uses_anonymous_args = 0
 197:Drivers/lvgl/src/extra/widgets/msgbox/lv_msgbox.c ****     else lv_obj_del_async(dialog);
 1056              		.loc 1 197 5 view .LVU318
 196:Drivers/lvgl/src/extra/widgets/msgbox/lv_msgbox.c ****     if(lv_obj_has_flag(dialog, LV_MSGBOX_FLAG_AUTO_PARENT)) lv_obj_del_async(lv_obj_get_parent(dial
 1057              		.loc 1 196 1 is_stmt 0 view .LVU319
 1058 0000 10B5     		push	{r4, lr}
 1059              		.cfi_def_cfa_offset 8
 1060              		.cfi_offset 4, -8
 1061              		.cfi_offset 14, -4
 197:Drivers/lvgl/src/extra/widgets/msgbox/lv_msgbox.c ****     else lv_obj_del_async(dialog);
 1062              		.loc 1 197 8 view .LVU320
 1063 0002 4FF00071 		mov	r1, #33554432
 196:Drivers/lvgl/src/extra/widgets/msgbox/lv_msgbox.c ****     if(lv_obj_has_flag(dialog, LV_MSGBOX_FLAG_AUTO_PARENT)) lv_obj_del_async(lv_obj_get_parent(dial
 1064              		.loc 1 196 1 view .LVU321
 1065 0006 0446     		mov	r4, r0
 197:Drivers/lvgl/src/extra/widgets/msgbox/lv_msgbox.c ****     else lv_obj_del_async(dialog);
ARM GAS  /var/folders/0z/tsy30v1j4xl4_7kw94k978ww0000gn/T//cceRZMx6.s 			page 42


 1066              		.loc 1 197 8 view .LVU322
 1067 0008 FFF7FEFF 		bl	lv_obj_has_flag
 1068              	.LVL116:
 197:Drivers/lvgl/src/extra/widgets/msgbox/lv_msgbox.c ****     else lv_obj_del_async(dialog);
 1069              		.loc 1 197 7 view .LVU323
 1070 000c 30B1     		cbz	r0, .L70
 197:Drivers/lvgl/src/extra/widgets/msgbox/lv_msgbox.c ****     else lv_obj_del_async(dialog);
 1071              		.loc 1 197 61 is_stmt 1 discriminator 1 view .LVU324
 1072 000e 2046     		mov	r0, r4
 1073 0010 FFF7FEFF 		bl	lv_obj_get_parent
 1074              	.LVL117:
 199:Drivers/lvgl/src/extra/widgets/msgbox/lv_msgbox.c **** 
 1075              		.loc 1 199 1 is_stmt 0 discriminator 1 view .LVU325
 1076 0014 BDE81040 		pop	{r4, lr}
 1077              		.cfi_remember_state
 1078              		.cfi_restore 14
 1079              		.cfi_restore 4
 1080              		.cfi_def_cfa_offset 0
 1081              	.LVL118:
 197:Drivers/lvgl/src/extra/widgets/msgbox/lv_msgbox.c ****     else lv_obj_del_async(dialog);
 1082              		.loc 1 197 61 discriminator 1 view .LVU326
 1083 0018 FFF7FEBF 		b	lv_obj_del_async
 1084              	.LVL119:
 1085              	.L70:
 1086              		.cfi_restore_state
 198:Drivers/lvgl/src/extra/widgets/msgbox/lv_msgbox.c **** }
 1087              		.loc 1 198 10 is_stmt 1 view .LVU327
 1088 001c 2046     		mov	r0, r4
 199:Drivers/lvgl/src/extra/widgets/msgbox/lv_msgbox.c **** 
 1089              		.loc 1 199 1 is_stmt 0 view .LVU328
 1090 001e BDE81040 		pop	{r4, lr}
 1091              		.cfi_restore 14
 1092              		.cfi_restore 4
 1093              		.cfi_def_cfa_offset 0
 1094              	.LVL120:
 198:Drivers/lvgl/src/extra/widgets/msgbox/lv_msgbox.c **** }
 1095              		.loc 1 198 10 view .LVU329
 1096 0022 FFF7FEBF 		b	lv_obj_del_async
 1097              	.LVL121:
 198:Drivers/lvgl/src/extra/widgets/msgbox/lv_msgbox.c **** }
 1098              		.loc 1 198 10 view .LVU330
 1099              		.cfi_endproc
 1100              	.LFE213:
 1102              		.global	lv_msgbox_backdrop_class
 1103              		.global	lv_msgbox_content_class
 1104              		.global	lv_msgbox_class
 1105 0026 00BF     		.section	.rodata.lv_msgbox_backdrop_class,"a"
 1106              		.align	2
 1107              		.set	.LANCHOR0,. + 0
 1110              	lv_msgbox_backdrop_class:
 1111 0000 00000000 		.word	lv_obj_class
 1112 0004 00000000 		.space	16
 1112      00000000 
 1112      00000000 
 1112      00000000 
 1113 0014 6420     		.short	8292
 1114 0016 6420     		.short	8292
ARM GAS  /var/folders/0z/tsy30v1j4xl4_7kw94k978ww0000gn/T//cceRZMx6.s 			page 43


 1115 0018 40       		.byte	64
 1116 0019 02       		.byte	2
 1117 001a 00       		.byte	0
 1118 001b 00       		.space	1
 1119              		.section	.rodata.lv_msgbox_class,"a"
 1120              		.align	2
 1121              		.set	.LANCHOR1,. + 0
 1124              	lv_msgbox_class:
 1125 0000 00000000 		.word	lv_obj_class
 1126 0004 00000000 		.space	16
 1126      00000000 
 1126      00000000 
 1126      00000000 
 1127 0014 0401     		.short	260
 1128 0016 D127     		.short	10193
 1129 0018 80       		.byte	128
 1130 0019 03       		.byte	3
 1131 001a 00       		.byte	0
 1132 001b 00       		.space	1
 1133              		.section	.rodata.lv_msgbox_content_class,"a"
 1134              		.align	2
 1135              		.set	.LANCHOR2,. + 0
 1138              	lv_msgbox_content_class:
 1139 0000 00000000 		.word	lv_obj_class
 1140 0004 00000000 		.space	16
 1140      00000000 
 1140      00000000 
 1140      00000000 
 1141 0014 6420     		.short	8292
 1142 0016 D127     		.short	10193
 1143 0018 40       		.byte	64
 1144 0019 02       		.byte	2
 1145 001a 00       		.byte	0
 1146 001b 00       		.space	1
 1147              		.text
 1148              	.Letext0:
 1149              		.file 5 "/Users/johannes/Library/Application Support/Code/User/globalStorage/bmd.stm32-for-vscode/
 1150              		.file 6 "/Users/johannes/Library/Application Support/Code/User/globalStorage/bmd.stm32-for-vscode/
 1151              		.file 7 "Drivers/lvgl/src/extra/widgets/msgbox/../../../../src/misc/lv_types.h"
 1152              		.file 8 "Drivers/lvgl/src/extra/widgets/msgbox/../../../../src/misc/lv_timer.h"
 1153              		.file 9 "/Users/johannes/Library/Application Support/Code/User/globalStorage/bmd.stm32-for-vscode/
 1154              		.file 10 "Drivers/lvgl/src/extra/widgets/msgbox/../../../../src/hal/../draw/../misc/../font/../mis
 1155              		.file 11 "Drivers/lvgl/src/extra/widgets/msgbox/../../../../src/hal/../draw/../misc/lv_color.h"
 1156              		.file 12 "Drivers/lvgl/src/extra/widgets/msgbox/../../../../src/hal/../draw/../misc/lv_txt.h"
 1157              		.file 13 "Drivers/lvgl/src/extra/widgets/msgbox/../../../../src/hal/../draw/../misc/lv_bidi.h"
 1158              		.file 14 "Drivers/lvgl/src/extra/widgets/msgbox/../../../../src/hal/../draw/../misc/lv_style.h"
 1159              		.file 15 "Drivers/lvgl/src/extra/widgets/msgbox/../../../../src/hal/../draw/lv_img_buf.h"
 1160              		.file 16 "Drivers/lvgl/src/extra/widgets/msgbox/../../../../src/core/lv_obj.h"
 1161              		.file 17 "Drivers/lvgl/src/extra/widgets/msgbox/../../../../src/hal/../draw/lv_draw_rect.h"
 1162              		.file 18 "Drivers/lvgl/src/extra/widgets/msgbox/../../../../src/hal/../draw/lv_draw_label.h"
 1163              		.file 19 "Drivers/lvgl/src/extra/widgets/msgbox/../../../../src/hal/../draw/lv_draw_img.h"
 1164              		.file 20 "Drivers/lvgl/src/extra/widgets/msgbox/../../../../src/hal/../draw/lv_draw_line.h"
 1165              		.file 21 "Drivers/lvgl/src/extra/widgets/msgbox/../../../../src/hal/../draw/lv_draw_arc.h"
 1166              		.file 22 "Drivers/lvgl/src/extra/widgets/msgbox/../../../../src/hal/../draw/lv_draw_layer.h"
 1167              		.file 23 "Drivers/lvgl/src/extra/widgets/msgbox/../../../../src/hal/../draw/lv_draw.h"
 1168              		.file 24 "Drivers/lvgl/src/extra/widgets/msgbox/../../../../src/hal/../misc/lv_ll.h"
 1169              		.file 25 "Drivers/lvgl/src/extra/widgets/msgbox/../../../../src/hal/lv_hal_disp.h"
ARM GAS  /var/folders/0z/tsy30v1j4xl4_7kw94k978ww0000gn/T//cceRZMx6.s 			page 44


 1170              		.file 26 "Drivers/lvgl/src/extra/widgets/msgbox/../../../../src/core/lv_theme.h"
 1171              		.file 27 "Drivers/lvgl/src/extra/widgets/msgbox/../../../../src/core/lv_group.h"
 1172              		.file 28 "Drivers/lvgl/src/extra/widgets/msgbox/../../../../src/core/lv_obj_scroll.h"
 1173              		.file 29 "Drivers/lvgl/src/extra/widgets/msgbox/../../../../src/core/lv_obj_style.h"
 1174              		.file 30 "Drivers/lvgl/src/extra/widgets/msgbox/../../../../src/core/lv_obj_class.h"
 1175              		.file 31 "Drivers/lvgl/src/extra/widgets/msgbox/../../../../src/core/lv_event.h"
 1176              		.file 32 "Drivers/lvgl/src/extra/widgets/msgbox/../../../../src/widgets/lv_label.h"
 1177              		.file 33 "Drivers/lvgl/src/extra/widgets/msgbox/../../../../src/widgets/lv_bar.h"
 1178              		.file 34 "Drivers/lvgl/src/extra/widgets/msgbox/../../../../src/widgets/lv_btnmatrix.h"
 1179              		.file 35 "Drivers/lvgl/src/extra/widgets/msgbox/../../../../src/extra/layouts/flex/lv_flex.h"
 1180              		.file 36 "Drivers/lvgl/src/extra/widgets/msgbox/../../../../src/extra/widgets/imgbtn/lv_imgbtn.h"
 1181              		.file 37 "Drivers/lvgl/src/extra/widgets/msgbox/lv_msgbox.h"
 1182              		.file 38 "Drivers/lvgl/src/extra/widgets/msgbox/../../../../src/core/lv_obj_tree.h"
 1183              		.file 39 "Drivers/lvgl/src/extra/widgets/msgbox/../../../../src/hal/../draw/sw/../../core/lv_obj_p
 1184              		.file 40 "Drivers/lvgl/src/extra/widgets/msgbox/../../../../src/widgets/lv_btn.h"
ARM GAS  /var/folders/0z/tsy30v1j4xl4_7kw94k978ww0000gn/T//cceRZMx6.s 			page 45

