ARM GAS  /var/folders/lp/x54gwt890xv47sdkqj1k04q40000gn/T//ccVgM3G4.s 			page 1


   1              		.cpu cortex-m4
   2              		.arch armv7e-m
   3              		.fpu fpv4-sp-d16
   4              		.eabi_attribute 27, 1
   5              		.eabi_attribute 28, 1
   6              		.eabi_attribute 20, 1
   7              		.eabi_attribute 21, 1
   8              		.eabi_attribute 23, 3
   9              		.eabi_attribute 24, 1
  10              		.eabi_attribute 25, 1
  11              		.eabi_attribute 26, 1
  12              		.eabi_attribute 30, 2
  13              		.eabi_attribute 34, 1
  14              		.eabi_attribute 18, 4
  15              		.file	"lv_meter.c"
  16              		.text
  17              	.Ltext0:
  18              		.cfi_sections	.debug_frame
  19              		.file 1 "Drivers/lvgl/src/extra/widgets/meter/lv_meter.c"
  20              		.section	.text.lv_meter_destructor,"ax",%progbits
  21              		.align	1
  22              		.p2align 2,,3
  23              		.syntax unified
  24              		.thumb
  25              		.thumb_func
  27              	lv_meter_destructor:
  28              	.LVL0:
  29              	.LFB217:
   1:Drivers/lvgl/src/extra/widgets/meter/lv_meter.c **** /**
   2:Drivers/lvgl/src/extra/widgets/meter/lv_meter.c ****  * @file lv_meter.c
   3:Drivers/lvgl/src/extra/widgets/meter/lv_meter.c ****  *
   4:Drivers/lvgl/src/extra/widgets/meter/lv_meter.c ****  */
   5:Drivers/lvgl/src/extra/widgets/meter/lv_meter.c **** 
   6:Drivers/lvgl/src/extra/widgets/meter/lv_meter.c **** /*********************
   7:Drivers/lvgl/src/extra/widgets/meter/lv_meter.c ****  *      INCLUDES
   8:Drivers/lvgl/src/extra/widgets/meter/lv_meter.c ****  *********************/
   9:Drivers/lvgl/src/extra/widgets/meter/lv_meter.c **** #include "lv_meter.h"
  10:Drivers/lvgl/src/extra/widgets/meter/lv_meter.c **** #if LV_USE_METER != 0
  11:Drivers/lvgl/src/extra/widgets/meter/lv_meter.c **** 
  12:Drivers/lvgl/src/extra/widgets/meter/lv_meter.c **** #include "../../../misc/lv_assert.h"
  13:Drivers/lvgl/src/extra/widgets/meter/lv_meter.c **** 
  14:Drivers/lvgl/src/extra/widgets/meter/lv_meter.c **** /*********************
  15:Drivers/lvgl/src/extra/widgets/meter/lv_meter.c ****  *      DEFINES
  16:Drivers/lvgl/src/extra/widgets/meter/lv_meter.c ****  *********************/
  17:Drivers/lvgl/src/extra/widgets/meter/lv_meter.c **** #define MY_CLASS &lv_meter_class
  18:Drivers/lvgl/src/extra/widgets/meter/lv_meter.c **** 
  19:Drivers/lvgl/src/extra/widgets/meter/lv_meter.c **** /**********************
  20:Drivers/lvgl/src/extra/widgets/meter/lv_meter.c ****  *      TYPEDEFS
  21:Drivers/lvgl/src/extra/widgets/meter/lv_meter.c ****  **********************/
  22:Drivers/lvgl/src/extra/widgets/meter/lv_meter.c **** 
  23:Drivers/lvgl/src/extra/widgets/meter/lv_meter.c **** /**********************
  24:Drivers/lvgl/src/extra/widgets/meter/lv_meter.c ****  *  STATIC PROTOTYPES
  25:Drivers/lvgl/src/extra/widgets/meter/lv_meter.c ****  **********************/
  26:Drivers/lvgl/src/extra/widgets/meter/lv_meter.c **** static void lv_meter_constructor(const lv_obj_class_t * class_p, lv_obj_t * obj);
  27:Drivers/lvgl/src/extra/widgets/meter/lv_meter.c **** static void lv_meter_destructor(const lv_obj_class_t * class_p, lv_obj_t * obj);
  28:Drivers/lvgl/src/extra/widgets/meter/lv_meter.c **** static void lv_meter_event(const lv_obj_class_t * class_p, lv_event_t * e);
  29:Drivers/lvgl/src/extra/widgets/meter/lv_meter.c **** static void draw_arcs(lv_obj_t * obj, lv_draw_ctx_t * draw_ctx, const lv_area_t * scale_area);
ARM GAS  /var/folders/lp/x54gwt890xv47sdkqj1k04q40000gn/T//ccVgM3G4.s 			page 2


  30:Drivers/lvgl/src/extra/widgets/meter/lv_meter.c **** static void draw_ticks_and_labels(lv_obj_t * obj, lv_draw_ctx_t * draw_ctx, const lv_area_t * scale
  31:Drivers/lvgl/src/extra/widgets/meter/lv_meter.c **** static void draw_needles(lv_obj_t * obj, lv_draw_ctx_t * draw_ctx, const lv_area_t * scale_area);
  32:Drivers/lvgl/src/extra/widgets/meter/lv_meter.c **** static void inv_arc(lv_obj_t * obj, lv_meter_indicator_t * indic, int32_t old_value, int32_t new_va
  33:Drivers/lvgl/src/extra/widgets/meter/lv_meter.c **** static void inv_line(lv_obj_t * obj, lv_meter_indicator_t * indic, int32_t value);
  34:Drivers/lvgl/src/extra/widgets/meter/lv_meter.c **** 
  35:Drivers/lvgl/src/extra/widgets/meter/lv_meter.c **** /**********************
  36:Drivers/lvgl/src/extra/widgets/meter/lv_meter.c ****  *  STATIC VARIABLES
  37:Drivers/lvgl/src/extra/widgets/meter/lv_meter.c ****  **********************/
  38:Drivers/lvgl/src/extra/widgets/meter/lv_meter.c **** const lv_obj_class_t lv_meter_class = {
  39:Drivers/lvgl/src/extra/widgets/meter/lv_meter.c ****     .constructor_cb = lv_meter_constructor,
  40:Drivers/lvgl/src/extra/widgets/meter/lv_meter.c ****     .destructor_cb = lv_meter_destructor,
  41:Drivers/lvgl/src/extra/widgets/meter/lv_meter.c ****     .event_cb = lv_meter_event,
  42:Drivers/lvgl/src/extra/widgets/meter/lv_meter.c ****     .instance_size = sizeof(lv_meter_t),
  43:Drivers/lvgl/src/extra/widgets/meter/lv_meter.c ****     .base_class = &lv_obj_class
  44:Drivers/lvgl/src/extra/widgets/meter/lv_meter.c **** };
  45:Drivers/lvgl/src/extra/widgets/meter/lv_meter.c **** 
  46:Drivers/lvgl/src/extra/widgets/meter/lv_meter.c **** /**********************
  47:Drivers/lvgl/src/extra/widgets/meter/lv_meter.c ****  *      MACROS
  48:Drivers/lvgl/src/extra/widgets/meter/lv_meter.c ****  **********************/
  49:Drivers/lvgl/src/extra/widgets/meter/lv_meter.c **** 
  50:Drivers/lvgl/src/extra/widgets/meter/lv_meter.c **** /**********************
  51:Drivers/lvgl/src/extra/widgets/meter/lv_meter.c ****  *   GLOBAL FUNCTIONS
  52:Drivers/lvgl/src/extra/widgets/meter/lv_meter.c ****  **********************/
  53:Drivers/lvgl/src/extra/widgets/meter/lv_meter.c **** 
  54:Drivers/lvgl/src/extra/widgets/meter/lv_meter.c **** lv_obj_t * lv_meter_create(lv_obj_t * parent)
  55:Drivers/lvgl/src/extra/widgets/meter/lv_meter.c **** {
  56:Drivers/lvgl/src/extra/widgets/meter/lv_meter.c ****     LV_LOG_INFO("begin");
  57:Drivers/lvgl/src/extra/widgets/meter/lv_meter.c ****     lv_obj_t * obj = lv_obj_class_create_obj(MY_CLASS, parent);
  58:Drivers/lvgl/src/extra/widgets/meter/lv_meter.c ****     lv_obj_class_init_obj(obj);
  59:Drivers/lvgl/src/extra/widgets/meter/lv_meter.c ****     return obj;
  60:Drivers/lvgl/src/extra/widgets/meter/lv_meter.c **** }
  61:Drivers/lvgl/src/extra/widgets/meter/lv_meter.c **** 
  62:Drivers/lvgl/src/extra/widgets/meter/lv_meter.c **** /*=====================
  63:Drivers/lvgl/src/extra/widgets/meter/lv_meter.c ****  * Add scale
  64:Drivers/lvgl/src/extra/widgets/meter/lv_meter.c ****  *====================*/
  65:Drivers/lvgl/src/extra/widgets/meter/lv_meter.c **** 
  66:Drivers/lvgl/src/extra/widgets/meter/lv_meter.c **** lv_meter_scale_t * lv_meter_add_scale(lv_obj_t * obj)
  67:Drivers/lvgl/src/extra/widgets/meter/lv_meter.c **** {
  68:Drivers/lvgl/src/extra/widgets/meter/lv_meter.c ****     LV_ASSERT_OBJ(obj, MY_CLASS);
  69:Drivers/lvgl/src/extra/widgets/meter/lv_meter.c ****     lv_meter_t * meter = (lv_meter_t *)obj;
  70:Drivers/lvgl/src/extra/widgets/meter/lv_meter.c **** 
  71:Drivers/lvgl/src/extra/widgets/meter/lv_meter.c ****     lv_meter_scale_t * scale = _lv_ll_ins_head(&meter->scale_ll);
  72:Drivers/lvgl/src/extra/widgets/meter/lv_meter.c ****     LV_ASSERT_MALLOC(scale);
  73:Drivers/lvgl/src/extra/widgets/meter/lv_meter.c ****     lv_memset_00(scale, sizeof(lv_meter_scale_t));
  74:Drivers/lvgl/src/extra/widgets/meter/lv_meter.c **** 
  75:Drivers/lvgl/src/extra/widgets/meter/lv_meter.c ****     scale->angle_range = 270;
  76:Drivers/lvgl/src/extra/widgets/meter/lv_meter.c ****     scale->rotation = 90 + (360 - scale->angle_range) / 2;
  77:Drivers/lvgl/src/extra/widgets/meter/lv_meter.c ****     scale->min = 0;
  78:Drivers/lvgl/src/extra/widgets/meter/lv_meter.c ****     scale->max = 100;
  79:Drivers/lvgl/src/extra/widgets/meter/lv_meter.c ****     scale->tick_cnt = 6;
  80:Drivers/lvgl/src/extra/widgets/meter/lv_meter.c ****     scale->tick_length = 8;
  81:Drivers/lvgl/src/extra/widgets/meter/lv_meter.c ****     scale->tick_width = 2;
  82:Drivers/lvgl/src/extra/widgets/meter/lv_meter.c ****     scale->label_gap = 2;
  83:Drivers/lvgl/src/extra/widgets/meter/lv_meter.c **** 
  84:Drivers/lvgl/src/extra/widgets/meter/lv_meter.c ****     return scale;
  85:Drivers/lvgl/src/extra/widgets/meter/lv_meter.c **** }
  86:Drivers/lvgl/src/extra/widgets/meter/lv_meter.c **** 
ARM GAS  /var/folders/lp/x54gwt890xv47sdkqj1k04q40000gn/T//ccVgM3G4.s 			page 3


  87:Drivers/lvgl/src/extra/widgets/meter/lv_meter.c **** void lv_meter_set_scale_ticks(lv_obj_t * obj, lv_meter_scale_t * scale, uint16_t cnt, uint16_t widt
  88:Drivers/lvgl/src/extra/widgets/meter/lv_meter.c ****                               lv_color_t color)
  89:Drivers/lvgl/src/extra/widgets/meter/lv_meter.c **** {
  90:Drivers/lvgl/src/extra/widgets/meter/lv_meter.c ****     scale->tick_cnt = cnt;
  91:Drivers/lvgl/src/extra/widgets/meter/lv_meter.c ****     scale->tick_width = width;
  92:Drivers/lvgl/src/extra/widgets/meter/lv_meter.c ****     scale->tick_length = len;
  93:Drivers/lvgl/src/extra/widgets/meter/lv_meter.c ****     scale->tick_color = color;
  94:Drivers/lvgl/src/extra/widgets/meter/lv_meter.c ****     lv_obj_invalidate(obj);
  95:Drivers/lvgl/src/extra/widgets/meter/lv_meter.c **** }
  96:Drivers/lvgl/src/extra/widgets/meter/lv_meter.c **** 
  97:Drivers/lvgl/src/extra/widgets/meter/lv_meter.c **** void lv_meter_set_scale_major_ticks(lv_obj_t * obj, lv_meter_scale_t * scale, uint16_t nth, uint16_
  98:Drivers/lvgl/src/extra/widgets/meter/lv_meter.c ****                                     uint16_t len, lv_color_t color, int16_t label_gap)
  99:Drivers/lvgl/src/extra/widgets/meter/lv_meter.c **** {
 100:Drivers/lvgl/src/extra/widgets/meter/lv_meter.c ****     scale->tick_major_nth = nth;
 101:Drivers/lvgl/src/extra/widgets/meter/lv_meter.c ****     scale->tick_major_width = width;
 102:Drivers/lvgl/src/extra/widgets/meter/lv_meter.c ****     scale->tick_major_length = len;
 103:Drivers/lvgl/src/extra/widgets/meter/lv_meter.c ****     scale->tick_major_color = color;
 104:Drivers/lvgl/src/extra/widgets/meter/lv_meter.c ****     scale->label_gap = label_gap;
 105:Drivers/lvgl/src/extra/widgets/meter/lv_meter.c ****     lv_obj_invalidate(obj);
 106:Drivers/lvgl/src/extra/widgets/meter/lv_meter.c **** }
 107:Drivers/lvgl/src/extra/widgets/meter/lv_meter.c **** 
 108:Drivers/lvgl/src/extra/widgets/meter/lv_meter.c **** void lv_meter_set_scale_range(lv_obj_t * obj, lv_meter_scale_t * scale, int32_t min, int32_t max, u
 109:Drivers/lvgl/src/extra/widgets/meter/lv_meter.c ****                               uint32_t rotation)
 110:Drivers/lvgl/src/extra/widgets/meter/lv_meter.c **** {
 111:Drivers/lvgl/src/extra/widgets/meter/lv_meter.c ****     scale->min = min;
 112:Drivers/lvgl/src/extra/widgets/meter/lv_meter.c ****     scale->max = max;
 113:Drivers/lvgl/src/extra/widgets/meter/lv_meter.c ****     scale->angle_range = angle_range;
 114:Drivers/lvgl/src/extra/widgets/meter/lv_meter.c ****     scale->rotation = rotation;
 115:Drivers/lvgl/src/extra/widgets/meter/lv_meter.c ****     lv_obj_invalidate(obj);
 116:Drivers/lvgl/src/extra/widgets/meter/lv_meter.c **** }
 117:Drivers/lvgl/src/extra/widgets/meter/lv_meter.c **** 
 118:Drivers/lvgl/src/extra/widgets/meter/lv_meter.c **** /*=====================
 119:Drivers/lvgl/src/extra/widgets/meter/lv_meter.c ****  * Add indicator
 120:Drivers/lvgl/src/extra/widgets/meter/lv_meter.c ****  *====================*/
 121:Drivers/lvgl/src/extra/widgets/meter/lv_meter.c **** 
 122:Drivers/lvgl/src/extra/widgets/meter/lv_meter.c **** lv_meter_indicator_t * lv_meter_add_needle_line(lv_obj_t * obj, lv_meter_scale_t * scale, uint16_t 
 123:Drivers/lvgl/src/extra/widgets/meter/lv_meter.c ****                                                 lv_color_t color, int16_t r_mod)
 124:Drivers/lvgl/src/extra/widgets/meter/lv_meter.c **** {
 125:Drivers/lvgl/src/extra/widgets/meter/lv_meter.c ****     LV_ASSERT_OBJ(obj, MY_CLASS);
 126:Drivers/lvgl/src/extra/widgets/meter/lv_meter.c ****     lv_meter_t * meter = (lv_meter_t *)obj;
 127:Drivers/lvgl/src/extra/widgets/meter/lv_meter.c ****     lv_meter_indicator_t * indic = _lv_ll_ins_head(&meter->indicator_ll);
 128:Drivers/lvgl/src/extra/widgets/meter/lv_meter.c ****     LV_ASSERT_MALLOC(indic);
 129:Drivers/lvgl/src/extra/widgets/meter/lv_meter.c ****     lv_memset_00(indic, sizeof(lv_meter_indicator_t));
 130:Drivers/lvgl/src/extra/widgets/meter/lv_meter.c ****     indic->scale = scale;
 131:Drivers/lvgl/src/extra/widgets/meter/lv_meter.c ****     indic->opa = LV_OPA_COVER;
 132:Drivers/lvgl/src/extra/widgets/meter/lv_meter.c **** 
 133:Drivers/lvgl/src/extra/widgets/meter/lv_meter.c ****     indic->type = LV_METER_INDICATOR_TYPE_NEEDLE_LINE;
 134:Drivers/lvgl/src/extra/widgets/meter/lv_meter.c ****     indic->type_data.needle_line.width = width;
 135:Drivers/lvgl/src/extra/widgets/meter/lv_meter.c ****     indic->type_data.needle_line.color = color;
 136:Drivers/lvgl/src/extra/widgets/meter/lv_meter.c ****     indic->type_data.needle_line.r_mod = r_mod;
 137:Drivers/lvgl/src/extra/widgets/meter/lv_meter.c ****     lv_obj_invalidate(obj);
 138:Drivers/lvgl/src/extra/widgets/meter/lv_meter.c **** 
 139:Drivers/lvgl/src/extra/widgets/meter/lv_meter.c ****     return indic;
 140:Drivers/lvgl/src/extra/widgets/meter/lv_meter.c **** }
 141:Drivers/lvgl/src/extra/widgets/meter/lv_meter.c **** 
 142:Drivers/lvgl/src/extra/widgets/meter/lv_meter.c **** lv_meter_indicator_t * lv_meter_add_needle_img(lv_obj_t * obj, lv_meter_scale_t * scale, const void
 143:Drivers/lvgl/src/extra/widgets/meter/lv_meter.c ****                                                lv_coord_t pivot_x, lv_coord_t pivot_y)
ARM GAS  /var/folders/lp/x54gwt890xv47sdkqj1k04q40000gn/T//ccVgM3G4.s 			page 4


 144:Drivers/lvgl/src/extra/widgets/meter/lv_meter.c **** {
 145:Drivers/lvgl/src/extra/widgets/meter/lv_meter.c ****     LV_ASSERT_OBJ(obj, MY_CLASS);
 146:Drivers/lvgl/src/extra/widgets/meter/lv_meter.c ****     lv_meter_t * meter = (lv_meter_t *)obj;
 147:Drivers/lvgl/src/extra/widgets/meter/lv_meter.c ****     lv_meter_indicator_t * indic = _lv_ll_ins_head(&meter->indicator_ll);
 148:Drivers/lvgl/src/extra/widgets/meter/lv_meter.c ****     LV_ASSERT_MALLOC(indic);
 149:Drivers/lvgl/src/extra/widgets/meter/lv_meter.c ****     lv_memset_00(indic, sizeof(lv_meter_indicator_t));
 150:Drivers/lvgl/src/extra/widgets/meter/lv_meter.c ****     indic->scale = scale;
 151:Drivers/lvgl/src/extra/widgets/meter/lv_meter.c ****     indic->opa = LV_OPA_COVER;
 152:Drivers/lvgl/src/extra/widgets/meter/lv_meter.c **** 
 153:Drivers/lvgl/src/extra/widgets/meter/lv_meter.c ****     indic->type = LV_METER_INDICATOR_TYPE_NEEDLE_IMG;
 154:Drivers/lvgl/src/extra/widgets/meter/lv_meter.c ****     indic->type_data.needle_img.src = src;
 155:Drivers/lvgl/src/extra/widgets/meter/lv_meter.c ****     indic->type_data.needle_img.pivot.x = pivot_x;
 156:Drivers/lvgl/src/extra/widgets/meter/lv_meter.c ****     indic->type_data.needle_img.pivot.y = pivot_y;
 157:Drivers/lvgl/src/extra/widgets/meter/lv_meter.c ****     lv_obj_invalidate(obj);
 158:Drivers/lvgl/src/extra/widgets/meter/lv_meter.c **** 
 159:Drivers/lvgl/src/extra/widgets/meter/lv_meter.c ****     return indic;
 160:Drivers/lvgl/src/extra/widgets/meter/lv_meter.c **** }
 161:Drivers/lvgl/src/extra/widgets/meter/lv_meter.c **** 
 162:Drivers/lvgl/src/extra/widgets/meter/lv_meter.c **** lv_meter_indicator_t * lv_meter_add_arc(lv_obj_t * obj, lv_meter_scale_t * scale, uint16_t width, l
 163:Drivers/lvgl/src/extra/widgets/meter/lv_meter.c ****                                         int16_t r_mod)
 164:Drivers/lvgl/src/extra/widgets/meter/lv_meter.c **** {
 165:Drivers/lvgl/src/extra/widgets/meter/lv_meter.c ****     LV_ASSERT_OBJ(obj, MY_CLASS);
 166:Drivers/lvgl/src/extra/widgets/meter/lv_meter.c ****     lv_meter_t * meter = (lv_meter_t *)obj;
 167:Drivers/lvgl/src/extra/widgets/meter/lv_meter.c ****     lv_meter_indicator_t * indic = _lv_ll_ins_head(&meter->indicator_ll);
 168:Drivers/lvgl/src/extra/widgets/meter/lv_meter.c ****     LV_ASSERT_MALLOC(indic);
 169:Drivers/lvgl/src/extra/widgets/meter/lv_meter.c ****     lv_memset_00(indic, sizeof(lv_meter_indicator_t));
 170:Drivers/lvgl/src/extra/widgets/meter/lv_meter.c ****     indic->scale = scale;
 171:Drivers/lvgl/src/extra/widgets/meter/lv_meter.c ****     indic->opa = LV_OPA_COVER;
 172:Drivers/lvgl/src/extra/widgets/meter/lv_meter.c **** 
 173:Drivers/lvgl/src/extra/widgets/meter/lv_meter.c ****     indic->type = LV_METER_INDICATOR_TYPE_ARC;
 174:Drivers/lvgl/src/extra/widgets/meter/lv_meter.c ****     indic->type_data.arc.width = width;
 175:Drivers/lvgl/src/extra/widgets/meter/lv_meter.c ****     indic->type_data.arc.color = color;
 176:Drivers/lvgl/src/extra/widgets/meter/lv_meter.c ****     indic->type_data.arc.r_mod = r_mod;
 177:Drivers/lvgl/src/extra/widgets/meter/lv_meter.c **** 
 178:Drivers/lvgl/src/extra/widgets/meter/lv_meter.c ****     lv_obj_invalidate(obj);
 179:Drivers/lvgl/src/extra/widgets/meter/lv_meter.c ****     return indic;
 180:Drivers/lvgl/src/extra/widgets/meter/lv_meter.c **** }
 181:Drivers/lvgl/src/extra/widgets/meter/lv_meter.c **** 
 182:Drivers/lvgl/src/extra/widgets/meter/lv_meter.c **** lv_meter_indicator_t * lv_meter_add_scale_lines(lv_obj_t * obj, lv_meter_scale_t * scale, lv_color_
 183:Drivers/lvgl/src/extra/widgets/meter/lv_meter.c ****                                                 lv_color_t color_end, bool local, int16_t width_mod
 184:Drivers/lvgl/src/extra/widgets/meter/lv_meter.c **** {
 185:Drivers/lvgl/src/extra/widgets/meter/lv_meter.c ****     LV_ASSERT_OBJ(obj, MY_CLASS);
 186:Drivers/lvgl/src/extra/widgets/meter/lv_meter.c ****     lv_meter_t * meter = (lv_meter_t *)obj;
 187:Drivers/lvgl/src/extra/widgets/meter/lv_meter.c ****     lv_meter_indicator_t * indic = _lv_ll_ins_head(&meter->indicator_ll);
 188:Drivers/lvgl/src/extra/widgets/meter/lv_meter.c ****     LV_ASSERT_MALLOC(indic);
 189:Drivers/lvgl/src/extra/widgets/meter/lv_meter.c ****     lv_memset_00(indic, sizeof(lv_meter_indicator_t));
 190:Drivers/lvgl/src/extra/widgets/meter/lv_meter.c ****     indic->scale = scale;
 191:Drivers/lvgl/src/extra/widgets/meter/lv_meter.c ****     indic->opa = LV_OPA_COVER;
 192:Drivers/lvgl/src/extra/widgets/meter/lv_meter.c **** 
 193:Drivers/lvgl/src/extra/widgets/meter/lv_meter.c ****     indic->type = LV_METER_INDICATOR_TYPE_SCALE_LINES;
 194:Drivers/lvgl/src/extra/widgets/meter/lv_meter.c ****     indic->type_data.scale_lines.color_start = color_start;
 195:Drivers/lvgl/src/extra/widgets/meter/lv_meter.c ****     indic->type_data.scale_lines.color_end = color_end;
 196:Drivers/lvgl/src/extra/widgets/meter/lv_meter.c ****     indic->type_data.scale_lines.local_grad = local;
 197:Drivers/lvgl/src/extra/widgets/meter/lv_meter.c ****     indic->type_data.scale_lines.width_mod = width_mod;
 198:Drivers/lvgl/src/extra/widgets/meter/lv_meter.c **** 
 199:Drivers/lvgl/src/extra/widgets/meter/lv_meter.c ****     lv_obj_invalidate(obj);
 200:Drivers/lvgl/src/extra/widgets/meter/lv_meter.c ****     return indic;
ARM GAS  /var/folders/lp/x54gwt890xv47sdkqj1k04q40000gn/T//ccVgM3G4.s 			page 5


 201:Drivers/lvgl/src/extra/widgets/meter/lv_meter.c **** }
 202:Drivers/lvgl/src/extra/widgets/meter/lv_meter.c **** 
 203:Drivers/lvgl/src/extra/widgets/meter/lv_meter.c **** /*=====================
 204:Drivers/lvgl/src/extra/widgets/meter/lv_meter.c ****  * Set indicator value
 205:Drivers/lvgl/src/extra/widgets/meter/lv_meter.c ****  *====================*/
 206:Drivers/lvgl/src/extra/widgets/meter/lv_meter.c **** 
 207:Drivers/lvgl/src/extra/widgets/meter/lv_meter.c **** void lv_meter_set_indicator_value(lv_obj_t * obj, lv_meter_indicator_t * indic, int32_t value)
 208:Drivers/lvgl/src/extra/widgets/meter/lv_meter.c **** {
 209:Drivers/lvgl/src/extra/widgets/meter/lv_meter.c ****     int32_t old_start = indic->start_value;
 210:Drivers/lvgl/src/extra/widgets/meter/lv_meter.c ****     int32_t old_end = indic->end_value;
 211:Drivers/lvgl/src/extra/widgets/meter/lv_meter.c ****     indic->start_value = value;
 212:Drivers/lvgl/src/extra/widgets/meter/lv_meter.c ****     indic->end_value = value;
 213:Drivers/lvgl/src/extra/widgets/meter/lv_meter.c **** 
 214:Drivers/lvgl/src/extra/widgets/meter/lv_meter.c ****     if(indic->type == LV_METER_INDICATOR_TYPE_ARC) {
 215:Drivers/lvgl/src/extra/widgets/meter/lv_meter.c ****         inv_arc(obj, indic, old_start, value);
 216:Drivers/lvgl/src/extra/widgets/meter/lv_meter.c ****         inv_arc(obj, indic, old_end, value);
 217:Drivers/lvgl/src/extra/widgets/meter/lv_meter.c ****     }
 218:Drivers/lvgl/src/extra/widgets/meter/lv_meter.c ****     else if(indic->type == LV_METER_INDICATOR_TYPE_NEEDLE_IMG || indic->type == LV_METER_INDICATOR_
 219:Drivers/lvgl/src/extra/widgets/meter/lv_meter.c ****         inv_line(obj, indic, old_start);
 220:Drivers/lvgl/src/extra/widgets/meter/lv_meter.c ****         inv_line(obj, indic, old_end);
 221:Drivers/lvgl/src/extra/widgets/meter/lv_meter.c ****         inv_line(obj, indic, value);
 222:Drivers/lvgl/src/extra/widgets/meter/lv_meter.c ****     }
 223:Drivers/lvgl/src/extra/widgets/meter/lv_meter.c ****     else {
 224:Drivers/lvgl/src/extra/widgets/meter/lv_meter.c ****         lv_obj_invalidate(obj);
 225:Drivers/lvgl/src/extra/widgets/meter/lv_meter.c ****     }
 226:Drivers/lvgl/src/extra/widgets/meter/lv_meter.c **** }
 227:Drivers/lvgl/src/extra/widgets/meter/lv_meter.c **** 
 228:Drivers/lvgl/src/extra/widgets/meter/lv_meter.c **** void lv_meter_set_indicator_start_value(lv_obj_t * obj, lv_meter_indicator_t * indic, int32_t value
 229:Drivers/lvgl/src/extra/widgets/meter/lv_meter.c **** {
 230:Drivers/lvgl/src/extra/widgets/meter/lv_meter.c ****     int32_t old_value = indic->start_value;
 231:Drivers/lvgl/src/extra/widgets/meter/lv_meter.c ****     indic->start_value = value;
 232:Drivers/lvgl/src/extra/widgets/meter/lv_meter.c **** 
 233:Drivers/lvgl/src/extra/widgets/meter/lv_meter.c ****     if(indic->type == LV_METER_INDICATOR_TYPE_ARC) {
 234:Drivers/lvgl/src/extra/widgets/meter/lv_meter.c ****         inv_arc(obj, indic, old_value, value);
 235:Drivers/lvgl/src/extra/widgets/meter/lv_meter.c ****     }
 236:Drivers/lvgl/src/extra/widgets/meter/lv_meter.c ****     else if(indic->type == LV_METER_INDICATOR_TYPE_NEEDLE_IMG || indic->type == LV_METER_INDICATOR_
 237:Drivers/lvgl/src/extra/widgets/meter/lv_meter.c ****         inv_line(obj, indic, old_value);
 238:Drivers/lvgl/src/extra/widgets/meter/lv_meter.c ****         inv_line(obj, indic, value);
 239:Drivers/lvgl/src/extra/widgets/meter/lv_meter.c ****     }
 240:Drivers/lvgl/src/extra/widgets/meter/lv_meter.c ****     else {
 241:Drivers/lvgl/src/extra/widgets/meter/lv_meter.c ****         lv_obj_invalidate(obj);
 242:Drivers/lvgl/src/extra/widgets/meter/lv_meter.c ****     }
 243:Drivers/lvgl/src/extra/widgets/meter/lv_meter.c **** }
 244:Drivers/lvgl/src/extra/widgets/meter/lv_meter.c **** 
 245:Drivers/lvgl/src/extra/widgets/meter/lv_meter.c **** void lv_meter_set_indicator_end_value(lv_obj_t * obj, lv_meter_indicator_t * indic, int32_t value)
 246:Drivers/lvgl/src/extra/widgets/meter/lv_meter.c **** {
 247:Drivers/lvgl/src/extra/widgets/meter/lv_meter.c ****     int32_t old_value = indic->end_value;
 248:Drivers/lvgl/src/extra/widgets/meter/lv_meter.c ****     indic->end_value = value;
 249:Drivers/lvgl/src/extra/widgets/meter/lv_meter.c **** 
 250:Drivers/lvgl/src/extra/widgets/meter/lv_meter.c ****     if(indic->type == LV_METER_INDICATOR_TYPE_ARC) {
 251:Drivers/lvgl/src/extra/widgets/meter/lv_meter.c ****         inv_arc(obj, indic, old_value, value);
 252:Drivers/lvgl/src/extra/widgets/meter/lv_meter.c ****     }
 253:Drivers/lvgl/src/extra/widgets/meter/lv_meter.c ****     else if(indic->type == LV_METER_INDICATOR_TYPE_NEEDLE_IMG || indic->type == LV_METER_INDICATOR_
 254:Drivers/lvgl/src/extra/widgets/meter/lv_meter.c ****         inv_line(obj, indic, old_value);
 255:Drivers/lvgl/src/extra/widgets/meter/lv_meter.c ****         inv_line(obj, indic, value);
 256:Drivers/lvgl/src/extra/widgets/meter/lv_meter.c ****     }
 257:Drivers/lvgl/src/extra/widgets/meter/lv_meter.c ****     else {
ARM GAS  /var/folders/lp/x54gwt890xv47sdkqj1k04q40000gn/T//ccVgM3G4.s 			page 6


 258:Drivers/lvgl/src/extra/widgets/meter/lv_meter.c ****         lv_obj_invalidate(obj);
 259:Drivers/lvgl/src/extra/widgets/meter/lv_meter.c ****     }
 260:Drivers/lvgl/src/extra/widgets/meter/lv_meter.c **** }
 261:Drivers/lvgl/src/extra/widgets/meter/lv_meter.c **** 
 262:Drivers/lvgl/src/extra/widgets/meter/lv_meter.c **** /**********************
 263:Drivers/lvgl/src/extra/widgets/meter/lv_meter.c ****  *   STATIC FUNCTIONS
 264:Drivers/lvgl/src/extra/widgets/meter/lv_meter.c ****  **********************/
 265:Drivers/lvgl/src/extra/widgets/meter/lv_meter.c **** 
 266:Drivers/lvgl/src/extra/widgets/meter/lv_meter.c **** static void lv_meter_constructor(const lv_obj_class_t * class_p, lv_obj_t * obj)
 267:Drivers/lvgl/src/extra/widgets/meter/lv_meter.c **** {
 268:Drivers/lvgl/src/extra/widgets/meter/lv_meter.c ****     LV_UNUSED(class_p);
 269:Drivers/lvgl/src/extra/widgets/meter/lv_meter.c ****     LV_TRACE_OBJ_CREATE("begin");
 270:Drivers/lvgl/src/extra/widgets/meter/lv_meter.c **** 
 271:Drivers/lvgl/src/extra/widgets/meter/lv_meter.c ****     lv_meter_t * meter = (lv_meter_t *)obj;
 272:Drivers/lvgl/src/extra/widgets/meter/lv_meter.c **** 
 273:Drivers/lvgl/src/extra/widgets/meter/lv_meter.c ****     _lv_ll_init(&meter->scale_ll, sizeof(lv_meter_scale_t));
 274:Drivers/lvgl/src/extra/widgets/meter/lv_meter.c ****     _lv_ll_init(&meter->indicator_ll, sizeof(lv_meter_indicator_t));
 275:Drivers/lvgl/src/extra/widgets/meter/lv_meter.c **** 
 276:Drivers/lvgl/src/extra/widgets/meter/lv_meter.c ****     LV_TRACE_OBJ_CREATE("finished");
 277:Drivers/lvgl/src/extra/widgets/meter/lv_meter.c **** }
 278:Drivers/lvgl/src/extra/widgets/meter/lv_meter.c **** 
 279:Drivers/lvgl/src/extra/widgets/meter/lv_meter.c **** static void lv_meter_destructor(const lv_obj_class_t * class_p, lv_obj_t * obj)
 280:Drivers/lvgl/src/extra/widgets/meter/lv_meter.c **** {
  30              		.loc 1 280 1 view -0
  31              		.cfi_startproc
  32              		@ args = 0, pretend = 0, frame = 0
  33              		@ frame_needed = 0, uses_anonymous_args = 0
 281:Drivers/lvgl/src/extra/widgets/meter/lv_meter.c ****     LV_UNUSED(class_p);
  34              		.loc 1 281 5 view .LVU1
 282:Drivers/lvgl/src/extra/widgets/meter/lv_meter.c ****     LV_ASSERT_OBJ(obj, MY_CLASS);
  35              		.loc 1 282 5 view .LVU2
  36              		.loc 1 282 5 view .LVU3
  37              		.loc 1 282 5 view .LVU4
 283:Drivers/lvgl/src/extra/widgets/meter/lv_meter.c ****     lv_meter_t * meter = (lv_meter_t *)obj;
  38              		.loc 1 283 5 view .LVU5
 280:Drivers/lvgl/src/extra/widgets/meter/lv_meter.c ****     LV_UNUSED(class_p);
  39              		.loc 1 280 1 is_stmt 0 view .LVU6
  40 0000 10B5     		push	{r4, lr}
  41              		.cfi_def_cfa_offset 8
  42              		.cfi_offset 4, -8
  43              		.cfi_offset 14, -4
 284:Drivers/lvgl/src/extra/widgets/meter/lv_meter.c ****     _lv_ll_clear(&meter->indicator_ll);
  44              		.loc 1 284 5 view .LVU7
  45 0002 01F13000 		add	r0, r1, #48
  46              	.LVL1:
 280:Drivers/lvgl/src/extra/widgets/meter/lv_meter.c ****     LV_UNUSED(class_p);
  47              		.loc 1 280 1 view .LVU8
  48 0006 0C46     		mov	r4, r1
  49              	.LVL2:
  50              		.loc 1 284 5 is_stmt 1 view .LVU9
  51 0008 FFF7FEFF 		bl	_lv_ll_clear
  52              	.LVL3:
 285:Drivers/lvgl/src/extra/widgets/meter/lv_meter.c ****     _lv_ll_clear(&meter->scale_ll);
  53              		.loc 1 285 5 view .LVU10
  54 000c 04F12400 		add	r0, r4, #36
 286:Drivers/lvgl/src/extra/widgets/meter/lv_meter.c **** 
 287:Drivers/lvgl/src/extra/widgets/meter/lv_meter.c **** }
ARM GAS  /var/folders/lp/x54gwt890xv47sdkqj1k04q40000gn/T//ccVgM3G4.s 			page 7


  55              		.loc 1 287 1 is_stmt 0 view .LVU11
  56 0010 BDE81040 		pop	{r4, lr}
  57              		.cfi_restore 14
  58              		.cfi_restore 4
  59              		.cfi_def_cfa_offset 0
  60              	.LVL4:
 285:Drivers/lvgl/src/extra/widgets/meter/lv_meter.c ****     _lv_ll_clear(&meter->scale_ll);
  61              		.loc 1 285 5 view .LVU12
  62 0014 FFF7FEBF 		b	_lv_ll_clear
  63              	.LVL5:
 285:Drivers/lvgl/src/extra/widgets/meter/lv_meter.c ****     _lv_ll_clear(&meter->scale_ll);
  64              		.loc 1 285 5 view .LVU13
  65              		.cfi_endproc
  66              	.LFE217:
  68              		.section	.text.lv_meter_constructor,"ax",%progbits
  69              		.align	1
  70              		.p2align 2,,3
  71              		.syntax unified
  72              		.thumb
  73              		.thumb_func
  75              	lv_meter_constructor:
  76              	.LVL6:
  77              	.LFB216:
 267:Drivers/lvgl/src/extra/widgets/meter/lv_meter.c ****     LV_UNUSED(class_p);
  78              		.loc 1 267 1 is_stmt 1 view -0
  79              		.cfi_startproc
  80              		@ args = 0, pretend = 0, frame = 0
  81              		@ frame_needed = 0, uses_anonymous_args = 0
 268:Drivers/lvgl/src/extra/widgets/meter/lv_meter.c ****     LV_TRACE_OBJ_CREATE("begin");
  82              		.loc 1 268 5 view .LVU15
 269:Drivers/lvgl/src/extra/widgets/meter/lv_meter.c **** 
  83              		.loc 1 269 33 view .LVU16
 271:Drivers/lvgl/src/extra/widgets/meter/lv_meter.c **** 
  84              		.loc 1 271 5 view .LVU17
 267:Drivers/lvgl/src/extra/widgets/meter/lv_meter.c ****     LV_UNUSED(class_p);
  85              		.loc 1 267 1 is_stmt 0 view .LVU18
  86 0000 10B5     		push	{r4, lr}
  87              		.cfi_def_cfa_offset 8
  88              		.cfi_offset 4, -8
  89              		.cfi_offset 14, -4
 267:Drivers/lvgl/src/extra/widgets/meter/lv_meter.c ****     LV_UNUSED(class_p);
  90              		.loc 1 267 1 view .LVU19
  91 0002 0C46     		mov	r4, r1
  92              	.LVL7:
 273:Drivers/lvgl/src/extra/widgets/meter/lv_meter.c ****     _lv_ll_init(&meter->indicator_ll, sizeof(lv_meter_indicator_t));
  93              		.loc 1 273 5 is_stmt 1 view .LVU20
  94 0004 2421     		movs	r1, #36
  95              	.LVL8:
 273:Drivers/lvgl/src/extra/widgets/meter/lv_meter.c ****     _lv_ll_init(&meter->indicator_ll, sizeof(lv_meter_indicator_t));
  96              		.loc 1 273 5 is_stmt 0 view .LVU21
  97 0006 6018     		adds	r0, r4, r1
  98              	.LVL9:
 273:Drivers/lvgl/src/extra/widgets/meter/lv_meter.c ****     _lv_ll_init(&meter->indicator_ll, sizeof(lv_meter_indicator_t));
  99              		.loc 1 273 5 view .LVU22
 100 0008 FFF7FEFF 		bl	_lv_ll_init
 101              	.LVL10:
 274:Drivers/lvgl/src/extra/widgets/meter/lv_meter.c **** 
ARM GAS  /var/folders/lp/x54gwt890xv47sdkqj1k04q40000gn/T//ccVgM3G4.s 			page 8


 102              		.loc 1 274 5 is_stmt 1 view .LVU23
 103 000c 04F13000 		add	r0, r4, #48
 104 0010 1C21     		movs	r1, #28
 277:Drivers/lvgl/src/extra/widgets/meter/lv_meter.c **** 
 105              		.loc 1 277 1 is_stmt 0 view .LVU24
 106 0012 BDE81040 		pop	{r4, lr}
 107              		.cfi_restore 14
 108              		.cfi_restore 4
 109              		.cfi_def_cfa_offset 0
 110              	.LVL11:
 274:Drivers/lvgl/src/extra/widgets/meter/lv_meter.c **** 
 111              		.loc 1 274 5 view .LVU25
 112 0016 FFF7FEBF 		b	_lv_ll_init
 113              	.LVL12:
 274:Drivers/lvgl/src/extra/widgets/meter/lv_meter.c **** 
 114              		.loc 1 274 5 view .LVU26
 115              		.cfi_endproc
 116              	.LFE216:
 118 001a 00BF     		.section	.text.inv_arc,"ax",%progbits
 119              		.align	1
 120              		.p2align 2,,3
 121              		.syntax unified
 122              		.thumb
 123              		.thumb_func
 125              	inv_arc:
 126              	.LVL13:
 127              	.LFB222:
 288:Drivers/lvgl/src/extra/widgets/meter/lv_meter.c **** 
 289:Drivers/lvgl/src/extra/widgets/meter/lv_meter.c **** static void lv_meter_event(const lv_obj_class_t * class_p, lv_event_t * e)
 290:Drivers/lvgl/src/extra/widgets/meter/lv_meter.c **** {
 291:Drivers/lvgl/src/extra/widgets/meter/lv_meter.c ****     LV_UNUSED(class_p);
 292:Drivers/lvgl/src/extra/widgets/meter/lv_meter.c **** 
 293:Drivers/lvgl/src/extra/widgets/meter/lv_meter.c ****     lv_res_t res = lv_obj_event_base(MY_CLASS, e);
 294:Drivers/lvgl/src/extra/widgets/meter/lv_meter.c ****     if(res != LV_RES_OK) return;
 295:Drivers/lvgl/src/extra/widgets/meter/lv_meter.c **** 
 296:Drivers/lvgl/src/extra/widgets/meter/lv_meter.c ****     lv_event_code_t code = lv_event_get_code(e);
 297:Drivers/lvgl/src/extra/widgets/meter/lv_meter.c ****     lv_obj_t * obj = lv_event_get_target(e);
 298:Drivers/lvgl/src/extra/widgets/meter/lv_meter.c ****     if(code == LV_EVENT_DRAW_MAIN) {
 299:Drivers/lvgl/src/extra/widgets/meter/lv_meter.c ****         lv_draw_ctx_t * draw_ctx = lv_event_get_draw_ctx(e);
 300:Drivers/lvgl/src/extra/widgets/meter/lv_meter.c ****         lv_area_t scale_area;
 301:Drivers/lvgl/src/extra/widgets/meter/lv_meter.c ****         lv_obj_get_content_coords(obj, &scale_area);
 302:Drivers/lvgl/src/extra/widgets/meter/lv_meter.c **** 
 303:Drivers/lvgl/src/extra/widgets/meter/lv_meter.c ****         draw_arcs(obj, draw_ctx, &scale_area);
 304:Drivers/lvgl/src/extra/widgets/meter/lv_meter.c ****         draw_ticks_and_labels(obj, draw_ctx, &scale_area);
 305:Drivers/lvgl/src/extra/widgets/meter/lv_meter.c ****         draw_needles(obj, draw_ctx, &scale_area);
 306:Drivers/lvgl/src/extra/widgets/meter/lv_meter.c **** 
 307:Drivers/lvgl/src/extra/widgets/meter/lv_meter.c ****         lv_coord_t r_edge = lv_area_get_width(&scale_area) / 2;
 308:Drivers/lvgl/src/extra/widgets/meter/lv_meter.c ****         lv_point_t scale_center;
 309:Drivers/lvgl/src/extra/widgets/meter/lv_meter.c ****         scale_center.x = scale_area.x1 + r_edge;
 310:Drivers/lvgl/src/extra/widgets/meter/lv_meter.c ****         scale_center.y = scale_area.y1 + r_edge;
 311:Drivers/lvgl/src/extra/widgets/meter/lv_meter.c **** 
 312:Drivers/lvgl/src/extra/widgets/meter/lv_meter.c ****         lv_draw_rect_dsc_t mid_dsc;
 313:Drivers/lvgl/src/extra/widgets/meter/lv_meter.c ****         lv_draw_rect_dsc_init(&mid_dsc);
 314:Drivers/lvgl/src/extra/widgets/meter/lv_meter.c ****         lv_obj_init_draw_rect_dsc(obj, LV_PART_INDICATOR, &mid_dsc);
 315:Drivers/lvgl/src/extra/widgets/meter/lv_meter.c ****         lv_coord_t w = lv_obj_get_style_width(obj, LV_PART_INDICATOR) / 2;
 316:Drivers/lvgl/src/extra/widgets/meter/lv_meter.c ****         lv_coord_t h = lv_obj_get_style_height(obj, LV_PART_INDICATOR) / 2;
 317:Drivers/lvgl/src/extra/widgets/meter/lv_meter.c ****         lv_area_t nm_cord;
ARM GAS  /var/folders/lp/x54gwt890xv47sdkqj1k04q40000gn/T//ccVgM3G4.s 			page 9


 318:Drivers/lvgl/src/extra/widgets/meter/lv_meter.c ****         nm_cord.x1 = scale_center.x - w;
 319:Drivers/lvgl/src/extra/widgets/meter/lv_meter.c ****         nm_cord.y1 = scale_center.y - h;
 320:Drivers/lvgl/src/extra/widgets/meter/lv_meter.c ****         nm_cord.x2 = scale_center.x + w;
 321:Drivers/lvgl/src/extra/widgets/meter/lv_meter.c ****         nm_cord.y2 = scale_center.y + h;
 322:Drivers/lvgl/src/extra/widgets/meter/lv_meter.c ****         lv_draw_rect(draw_ctx, &mid_dsc, &nm_cord);
 323:Drivers/lvgl/src/extra/widgets/meter/lv_meter.c ****     }
 324:Drivers/lvgl/src/extra/widgets/meter/lv_meter.c **** }
 325:Drivers/lvgl/src/extra/widgets/meter/lv_meter.c **** 
 326:Drivers/lvgl/src/extra/widgets/meter/lv_meter.c **** static void draw_arcs(lv_obj_t * obj, lv_draw_ctx_t * draw_ctx, const lv_area_t * scale_area)
 327:Drivers/lvgl/src/extra/widgets/meter/lv_meter.c **** {
 328:Drivers/lvgl/src/extra/widgets/meter/lv_meter.c ****     lv_meter_t * meter = (lv_meter_t *)obj;
 329:Drivers/lvgl/src/extra/widgets/meter/lv_meter.c **** 
 330:Drivers/lvgl/src/extra/widgets/meter/lv_meter.c ****     lv_draw_arc_dsc_t arc_dsc;
 331:Drivers/lvgl/src/extra/widgets/meter/lv_meter.c ****     lv_draw_arc_dsc_init(&arc_dsc);
 332:Drivers/lvgl/src/extra/widgets/meter/lv_meter.c ****     arc_dsc.rounded = lv_obj_get_style_arc_rounded(obj, LV_PART_ITEMS);
 333:Drivers/lvgl/src/extra/widgets/meter/lv_meter.c **** 
 334:Drivers/lvgl/src/extra/widgets/meter/lv_meter.c ****     lv_coord_t r_out = lv_area_get_width(scale_area) / 2 ;
 335:Drivers/lvgl/src/extra/widgets/meter/lv_meter.c ****     lv_point_t scale_center;
 336:Drivers/lvgl/src/extra/widgets/meter/lv_meter.c ****     scale_center.x = scale_area->x1 + r_out;
 337:Drivers/lvgl/src/extra/widgets/meter/lv_meter.c ****     scale_center.y = scale_area->y1 + r_out;
 338:Drivers/lvgl/src/extra/widgets/meter/lv_meter.c **** 
 339:Drivers/lvgl/src/extra/widgets/meter/lv_meter.c ****     lv_opa_t opa_main = lv_obj_get_style_opa_recursive(obj, LV_PART_MAIN);
 340:Drivers/lvgl/src/extra/widgets/meter/lv_meter.c ****     lv_meter_indicator_t * indic;
 341:Drivers/lvgl/src/extra/widgets/meter/lv_meter.c **** 
 342:Drivers/lvgl/src/extra/widgets/meter/lv_meter.c ****     lv_obj_draw_part_dsc_t part_draw_dsc;
 343:Drivers/lvgl/src/extra/widgets/meter/lv_meter.c ****     lv_obj_draw_dsc_init(&part_draw_dsc, draw_ctx);
 344:Drivers/lvgl/src/extra/widgets/meter/lv_meter.c ****     part_draw_dsc.arc_dsc = &arc_dsc;
 345:Drivers/lvgl/src/extra/widgets/meter/lv_meter.c ****     part_draw_dsc.part = LV_PART_INDICATOR;
 346:Drivers/lvgl/src/extra/widgets/meter/lv_meter.c ****     part_draw_dsc.class_p = MY_CLASS;
 347:Drivers/lvgl/src/extra/widgets/meter/lv_meter.c ****     part_draw_dsc.type = LV_METER_DRAW_PART_ARC;
 348:Drivers/lvgl/src/extra/widgets/meter/lv_meter.c **** 
 349:Drivers/lvgl/src/extra/widgets/meter/lv_meter.c ****     _LV_LL_READ_BACK(&meter->indicator_ll, indic) {
 350:Drivers/lvgl/src/extra/widgets/meter/lv_meter.c ****         if(indic->type != LV_METER_INDICATOR_TYPE_ARC) continue;
 351:Drivers/lvgl/src/extra/widgets/meter/lv_meter.c **** 
 352:Drivers/lvgl/src/extra/widgets/meter/lv_meter.c ****         arc_dsc.color = indic->type_data.arc.color;
 353:Drivers/lvgl/src/extra/widgets/meter/lv_meter.c ****         arc_dsc.width = indic->type_data.arc.width;
 354:Drivers/lvgl/src/extra/widgets/meter/lv_meter.c ****         arc_dsc.opa = indic->opa > LV_OPA_MAX ? opa_main : (opa_main * indic->opa) >> 8;
 355:Drivers/lvgl/src/extra/widgets/meter/lv_meter.c **** 
 356:Drivers/lvgl/src/extra/widgets/meter/lv_meter.c ****         lv_meter_scale_t * scale = indic->scale;
 357:Drivers/lvgl/src/extra/widgets/meter/lv_meter.c **** 
 358:Drivers/lvgl/src/extra/widgets/meter/lv_meter.c ****         int32_t start_angle = lv_map(indic->start_value, scale->min, scale->max, scale->rotation,
 359:Drivers/lvgl/src/extra/widgets/meter/lv_meter.c ****                                      scale->rotation + scale->angle_range);
 360:Drivers/lvgl/src/extra/widgets/meter/lv_meter.c ****         int32_t end_angle = lv_map(indic->end_value, scale->min, scale->max, scale->rotation,
 361:Drivers/lvgl/src/extra/widgets/meter/lv_meter.c ****                                    scale->rotation + scale->angle_range);
 362:Drivers/lvgl/src/extra/widgets/meter/lv_meter.c **** 
 363:Drivers/lvgl/src/extra/widgets/meter/lv_meter.c ****         arc_dsc.start_angle = start_angle;
 364:Drivers/lvgl/src/extra/widgets/meter/lv_meter.c ****         arc_dsc.end_angle = end_angle;
 365:Drivers/lvgl/src/extra/widgets/meter/lv_meter.c ****         part_draw_dsc.radius = r_out + indic->type_data.arc.r_mod;
 366:Drivers/lvgl/src/extra/widgets/meter/lv_meter.c ****         part_draw_dsc.sub_part_ptr = indic;
 367:Drivers/lvgl/src/extra/widgets/meter/lv_meter.c ****         part_draw_dsc.p1 = &scale_center;
 368:Drivers/lvgl/src/extra/widgets/meter/lv_meter.c **** 
 369:Drivers/lvgl/src/extra/widgets/meter/lv_meter.c ****         lv_event_send(obj, LV_EVENT_DRAW_PART_BEGIN, &part_draw_dsc);
 370:Drivers/lvgl/src/extra/widgets/meter/lv_meter.c ****         lv_draw_arc(draw_ctx, &arc_dsc, &scale_center, part_draw_dsc.radius, start_angle, end_angle
 371:Drivers/lvgl/src/extra/widgets/meter/lv_meter.c ****         lv_event_send(obj, LV_EVENT_DRAW_PART_END, &part_draw_dsc);
 372:Drivers/lvgl/src/extra/widgets/meter/lv_meter.c ****     }
 373:Drivers/lvgl/src/extra/widgets/meter/lv_meter.c **** }
 374:Drivers/lvgl/src/extra/widgets/meter/lv_meter.c **** 
ARM GAS  /var/folders/lp/x54gwt890xv47sdkqj1k04q40000gn/T//ccVgM3G4.s 			page 10


 375:Drivers/lvgl/src/extra/widgets/meter/lv_meter.c **** static void draw_ticks_and_labels(lv_obj_t * obj, lv_draw_ctx_t * draw_ctx, const lv_area_t * scale
 376:Drivers/lvgl/src/extra/widgets/meter/lv_meter.c **** {
 377:Drivers/lvgl/src/extra/widgets/meter/lv_meter.c ****     lv_meter_t * meter    = (lv_meter_t *)obj;
 378:Drivers/lvgl/src/extra/widgets/meter/lv_meter.c **** 
 379:Drivers/lvgl/src/extra/widgets/meter/lv_meter.c ****     lv_point_t p_center;
 380:Drivers/lvgl/src/extra/widgets/meter/lv_meter.c ****     lv_coord_t r_edge = LV_MIN(lv_area_get_width(scale_area) / 2, lv_area_get_height(scale_area) / 
 381:Drivers/lvgl/src/extra/widgets/meter/lv_meter.c ****     p_center.x = scale_area->x1 + r_edge;
 382:Drivers/lvgl/src/extra/widgets/meter/lv_meter.c ****     p_center.y = scale_area->y1 + r_edge;
 383:Drivers/lvgl/src/extra/widgets/meter/lv_meter.c **** 
 384:Drivers/lvgl/src/extra/widgets/meter/lv_meter.c ****     lv_draw_line_dsc_t line_dsc;
 385:Drivers/lvgl/src/extra/widgets/meter/lv_meter.c ****     lv_draw_line_dsc_init(&line_dsc);
 386:Drivers/lvgl/src/extra/widgets/meter/lv_meter.c ****     lv_obj_init_draw_line_dsc(obj, LV_PART_TICKS, &line_dsc);
 387:Drivers/lvgl/src/extra/widgets/meter/lv_meter.c ****     line_dsc.raw_end = 1;
 388:Drivers/lvgl/src/extra/widgets/meter/lv_meter.c **** 
 389:Drivers/lvgl/src/extra/widgets/meter/lv_meter.c ****     lv_draw_label_dsc_t label_dsc;
 390:Drivers/lvgl/src/extra/widgets/meter/lv_meter.c ****     lv_draw_label_dsc_init(&label_dsc);
 391:Drivers/lvgl/src/extra/widgets/meter/lv_meter.c ****     lv_obj_init_draw_label_dsc(obj, LV_PART_TICKS, &label_dsc);
 392:Drivers/lvgl/src/extra/widgets/meter/lv_meter.c **** 
 393:Drivers/lvgl/src/extra/widgets/meter/lv_meter.c ****     lv_meter_scale_t * scale;
 394:Drivers/lvgl/src/extra/widgets/meter/lv_meter.c **** 
 395:Drivers/lvgl/src/extra/widgets/meter/lv_meter.c ****     lv_draw_mask_radius_param_t inner_minor_mask;
 396:Drivers/lvgl/src/extra/widgets/meter/lv_meter.c ****     lv_draw_mask_radius_param_t inner_major_mask;
 397:Drivers/lvgl/src/extra/widgets/meter/lv_meter.c ****     lv_draw_mask_radius_param_t outer_mask;
 398:Drivers/lvgl/src/extra/widgets/meter/lv_meter.c **** 
 399:Drivers/lvgl/src/extra/widgets/meter/lv_meter.c ****     lv_obj_draw_part_dsc_t part_draw_dsc;
 400:Drivers/lvgl/src/extra/widgets/meter/lv_meter.c ****     lv_obj_draw_dsc_init(&part_draw_dsc, draw_ctx);
 401:Drivers/lvgl/src/extra/widgets/meter/lv_meter.c ****     part_draw_dsc.class_p = MY_CLASS;
 402:Drivers/lvgl/src/extra/widgets/meter/lv_meter.c ****     part_draw_dsc.part = LV_PART_TICKS;
 403:Drivers/lvgl/src/extra/widgets/meter/lv_meter.c ****     part_draw_dsc.type = LV_METER_DRAW_PART_TICK;
 404:Drivers/lvgl/src/extra/widgets/meter/lv_meter.c ****     part_draw_dsc.line_dsc = &line_dsc;
 405:Drivers/lvgl/src/extra/widgets/meter/lv_meter.c **** 
 406:Drivers/lvgl/src/extra/widgets/meter/lv_meter.c ****     _LV_LL_READ_BACK(&meter->scale_ll, scale) {
 407:Drivers/lvgl/src/extra/widgets/meter/lv_meter.c ****         part_draw_dsc.sub_part_ptr = scale;
 408:Drivers/lvgl/src/extra/widgets/meter/lv_meter.c **** 
 409:Drivers/lvgl/src/extra/widgets/meter/lv_meter.c ****         lv_coord_t r_out = r_edge;
 410:Drivers/lvgl/src/extra/widgets/meter/lv_meter.c ****         lv_coord_t r_in_minor = r_out - scale->tick_length;
 411:Drivers/lvgl/src/extra/widgets/meter/lv_meter.c ****         lv_coord_t r_in_major = r_out - scale->tick_major_length;
 412:Drivers/lvgl/src/extra/widgets/meter/lv_meter.c **** 
 413:Drivers/lvgl/src/extra/widgets/meter/lv_meter.c ****         lv_area_t area_inner_minor;
 414:Drivers/lvgl/src/extra/widgets/meter/lv_meter.c ****         area_inner_minor.x1 = p_center.x - r_in_minor;
 415:Drivers/lvgl/src/extra/widgets/meter/lv_meter.c ****         area_inner_minor.y1 = p_center.y - r_in_minor;
 416:Drivers/lvgl/src/extra/widgets/meter/lv_meter.c ****         area_inner_minor.x2 = p_center.x + r_in_minor;
 417:Drivers/lvgl/src/extra/widgets/meter/lv_meter.c ****         area_inner_minor.y2 = p_center.y + r_in_minor;
 418:Drivers/lvgl/src/extra/widgets/meter/lv_meter.c ****         lv_draw_mask_radius_init(&inner_minor_mask, &area_inner_minor, LV_RADIUS_CIRCLE, true);
 419:Drivers/lvgl/src/extra/widgets/meter/lv_meter.c **** 
 420:Drivers/lvgl/src/extra/widgets/meter/lv_meter.c ****         lv_area_t area_inner_major;
 421:Drivers/lvgl/src/extra/widgets/meter/lv_meter.c ****         area_inner_major.x1 = p_center.x - r_in_major;
 422:Drivers/lvgl/src/extra/widgets/meter/lv_meter.c ****         area_inner_major.y1 = p_center.y - r_in_major;
 423:Drivers/lvgl/src/extra/widgets/meter/lv_meter.c ****         area_inner_major.x2 = p_center.x + r_in_major - 1;
 424:Drivers/lvgl/src/extra/widgets/meter/lv_meter.c ****         area_inner_major.y2 = p_center.y + r_in_major - 1;
 425:Drivers/lvgl/src/extra/widgets/meter/lv_meter.c ****         lv_draw_mask_radius_init(&inner_major_mask, &area_inner_major, LV_RADIUS_CIRCLE, true);
 426:Drivers/lvgl/src/extra/widgets/meter/lv_meter.c **** 
 427:Drivers/lvgl/src/extra/widgets/meter/lv_meter.c ****         lv_area_t area_outer;
 428:Drivers/lvgl/src/extra/widgets/meter/lv_meter.c ****         area_outer.x1 = p_center.x - r_out;
 429:Drivers/lvgl/src/extra/widgets/meter/lv_meter.c ****         area_outer.y1 = p_center.y - r_out;
 430:Drivers/lvgl/src/extra/widgets/meter/lv_meter.c ****         area_outer.x2 = p_center.x + r_out - 1;
 431:Drivers/lvgl/src/extra/widgets/meter/lv_meter.c ****         area_outer.y2 = p_center.y + r_out - 1;
ARM GAS  /var/folders/lp/x54gwt890xv47sdkqj1k04q40000gn/T//ccVgM3G4.s 			page 11


 432:Drivers/lvgl/src/extra/widgets/meter/lv_meter.c ****         lv_draw_mask_radius_init(&outer_mask, &area_outer, LV_RADIUS_CIRCLE, false);
 433:Drivers/lvgl/src/extra/widgets/meter/lv_meter.c ****         int16_t outer_mask_id = lv_draw_mask_add(&outer_mask, NULL);
 434:Drivers/lvgl/src/extra/widgets/meter/lv_meter.c **** 
 435:Drivers/lvgl/src/extra/widgets/meter/lv_meter.c ****         int16_t inner_act_mask_id = LV_MASK_ID_INV; /*Will be added later*/
 436:Drivers/lvgl/src/extra/widgets/meter/lv_meter.c **** 
 437:Drivers/lvgl/src/extra/widgets/meter/lv_meter.c ****         uint32_t minor_cnt = scale->tick_major_nth ? scale->tick_major_nth - 1 : 0xFFFF;
 438:Drivers/lvgl/src/extra/widgets/meter/lv_meter.c ****         uint16_t i;
 439:Drivers/lvgl/src/extra/widgets/meter/lv_meter.c ****         for(i = 0; i < scale->tick_cnt; i++) {
 440:Drivers/lvgl/src/extra/widgets/meter/lv_meter.c ****             minor_cnt++;
 441:Drivers/lvgl/src/extra/widgets/meter/lv_meter.c ****             bool major = false;
 442:Drivers/lvgl/src/extra/widgets/meter/lv_meter.c ****             if(minor_cnt == scale->tick_major_nth) {
 443:Drivers/lvgl/src/extra/widgets/meter/lv_meter.c ****                 minor_cnt = 0;
 444:Drivers/lvgl/src/extra/widgets/meter/lv_meter.c ****                 major = true;
 445:Drivers/lvgl/src/extra/widgets/meter/lv_meter.c ****             }
 446:Drivers/lvgl/src/extra/widgets/meter/lv_meter.c **** 
 447:Drivers/lvgl/src/extra/widgets/meter/lv_meter.c ****             int32_t value_of_line = lv_map(i, 0, scale->tick_cnt - 1, scale->min, scale->max);
 448:Drivers/lvgl/src/extra/widgets/meter/lv_meter.c ****             part_draw_dsc.value = value_of_line;
 449:Drivers/lvgl/src/extra/widgets/meter/lv_meter.c **** 
 450:Drivers/lvgl/src/extra/widgets/meter/lv_meter.c ****             lv_color_t line_color = major ? scale->tick_major_color : scale->tick_color;
 451:Drivers/lvgl/src/extra/widgets/meter/lv_meter.c ****             lv_color_t line_color_ori = line_color;
 452:Drivers/lvgl/src/extra/widgets/meter/lv_meter.c **** 
 453:Drivers/lvgl/src/extra/widgets/meter/lv_meter.c ****             lv_coord_t line_width_ori = major ? scale->tick_major_width : scale->tick_width;
 454:Drivers/lvgl/src/extra/widgets/meter/lv_meter.c ****             lv_coord_t line_width = line_width_ori;
 455:Drivers/lvgl/src/extra/widgets/meter/lv_meter.c **** 
 456:Drivers/lvgl/src/extra/widgets/meter/lv_meter.c ****             lv_meter_indicator_t * indic;
 457:Drivers/lvgl/src/extra/widgets/meter/lv_meter.c ****             _LV_LL_READ_BACK(&meter->indicator_ll, indic) {
 458:Drivers/lvgl/src/extra/widgets/meter/lv_meter.c ****                 if(indic->type != LV_METER_INDICATOR_TYPE_SCALE_LINES) continue;
 459:Drivers/lvgl/src/extra/widgets/meter/lv_meter.c ****                 if(value_of_line >= indic->start_value && value_of_line <= indic->end_value) {
 460:Drivers/lvgl/src/extra/widgets/meter/lv_meter.c ****                     line_width += indic->type_data.scale_lines.width_mod;
 461:Drivers/lvgl/src/extra/widgets/meter/lv_meter.c **** 
 462:Drivers/lvgl/src/extra/widgets/meter/lv_meter.c ****                     if(indic->type_data.scale_lines.color_start.full == indic->type_data.scale_line
 463:Drivers/lvgl/src/extra/widgets/meter/lv_meter.c ****                         line_color = indic->type_data.scale_lines.color_start;
 464:Drivers/lvgl/src/extra/widgets/meter/lv_meter.c ****                     }
 465:Drivers/lvgl/src/extra/widgets/meter/lv_meter.c ****                     else {
 466:Drivers/lvgl/src/extra/widgets/meter/lv_meter.c ****                         lv_opa_t ratio;
 467:Drivers/lvgl/src/extra/widgets/meter/lv_meter.c ****                         if(indic->type_data.scale_lines.local_grad) {
 468:Drivers/lvgl/src/extra/widgets/meter/lv_meter.c ****                             ratio = lv_map(value_of_line, indic->start_value, indic->end_value, LV_
 469:Drivers/lvgl/src/extra/widgets/meter/lv_meter.c ****                         }
 470:Drivers/lvgl/src/extra/widgets/meter/lv_meter.c ****                         else {
 471:Drivers/lvgl/src/extra/widgets/meter/lv_meter.c ****                             ratio = lv_map(value_of_line, scale->min, scale->max, LV_OPA_TRANSP, LV
 472:Drivers/lvgl/src/extra/widgets/meter/lv_meter.c ****                         }
 473:Drivers/lvgl/src/extra/widgets/meter/lv_meter.c ****                         line_color = lv_color_mix(indic->type_data.scale_lines.color_end, indic->ty
 474:Drivers/lvgl/src/extra/widgets/meter/lv_meter.c ****                     }
 475:Drivers/lvgl/src/extra/widgets/meter/lv_meter.c ****                 }
 476:Drivers/lvgl/src/extra/widgets/meter/lv_meter.c ****             }
 477:Drivers/lvgl/src/extra/widgets/meter/lv_meter.c **** 
 478:Drivers/lvgl/src/extra/widgets/meter/lv_meter.c ****             int32_t angle_upscale = ((i * scale->angle_range) * 10) / (scale->tick_cnt - 1) +  + sc
 479:Drivers/lvgl/src/extra/widgets/meter/lv_meter.c **** 
 480:Drivers/lvgl/src/extra/widgets/meter/lv_meter.c ****             line_dsc.color = line_color;
 481:Drivers/lvgl/src/extra/widgets/meter/lv_meter.c ****             line_dsc.width = line_width;
 482:Drivers/lvgl/src/extra/widgets/meter/lv_meter.c **** 
 483:Drivers/lvgl/src/extra/widgets/meter/lv_meter.c ****             /*Draw a little bit longer lines to be sure the mask will clip them correctly
 484:Drivers/lvgl/src/extra/widgets/meter/lv_meter.c ****              *and to get a better precision*/
 485:Drivers/lvgl/src/extra/widgets/meter/lv_meter.c ****             lv_point_t p_outer;
 486:Drivers/lvgl/src/extra/widgets/meter/lv_meter.c ****             p_outer.x = p_center.x + r_out + LV_MAX(LV_DPI_DEF, r_out);
 487:Drivers/lvgl/src/extra/widgets/meter/lv_meter.c ****             p_outer.y = p_center.y;
 488:Drivers/lvgl/src/extra/widgets/meter/lv_meter.c ****             lv_point_transform(&p_outer, angle_upscale, 256, &p_center);
ARM GAS  /var/folders/lp/x54gwt890xv47sdkqj1k04q40000gn/T//ccVgM3G4.s 			page 12


 489:Drivers/lvgl/src/extra/widgets/meter/lv_meter.c **** 
 490:Drivers/lvgl/src/extra/widgets/meter/lv_meter.c ****             part_draw_dsc.p1 = &p_center;
 491:Drivers/lvgl/src/extra/widgets/meter/lv_meter.c ****             part_draw_dsc.p2 = &p_outer;
 492:Drivers/lvgl/src/extra/widgets/meter/lv_meter.c ****             part_draw_dsc.id = i;
 493:Drivers/lvgl/src/extra/widgets/meter/lv_meter.c ****             part_draw_dsc.label_dsc = &label_dsc;
 494:Drivers/lvgl/src/extra/widgets/meter/lv_meter.c **** 
 495:Drivers/lvgl/src/extra/widgets/meter/lv_meter.c ****             /*Draw the text*/
 496:Drivers/lvgl/src/extra/widgets/meter/lv_meter.c ****             if(major) {
 497:Drivers/lvgl/src/extra/widgets/meter/lv_meter.c ****                 lv_draw_mask_remove_id(outer_mask_id);
 498:Drivers/lvgl/src/extra/widgets/meter/lv_meter.c ****                 uint32_t r_text = r_in_major - scale->label_gap;
 499:Drivers/lvgl/src/extra/widgets/meter/lv_meter.c ****                 lv_point_t p;
 500:Drivers/lvgl/src/extra/widgets/meter/lv_meter.c ****                 p.x = p_center.x + r_text;
 501:Drivers/lvgl/src/extra/widgets/meter/lv_meter.c ****                 p.y = p_center.y;
 502:Drivers/lvgl/src/extra/widgets/meter/lv_meter.c ****                 lv_point_transform(&p, angle_upscale, 256, &p_center);
 503:Drivers/lvgl/src/extra/widgets/meter/lv_meter.c **** 
 504:Drivers/lvgl/src/extra/widgets/meter/lv_meter.c ****                 lv_draw_label_dsc_t label_dsc_tmp;
 505:Drivers/lvgl/src/extra/widgets/meter/lv_meter.c ****                 lv_memcpy(&label_dsc_tmp, &label_dsc, sizeof(label_dsc_tmp));
 506:Drivers/lvgl/src/extra/widgets/meter/lv_meter.c **** 
 507:Drivers/lvgl/src/extra/widgets/meter/lv_meter.c ****                 part_draw_dsc.label_dsc = &label_dsc_tmp;
 508:Drivers/lvgl/src/extra/widgets/meter/lv_meter.c ****                 char buf[16];
 509:Drivers/lvgl/src/extra/widgets/meter/lv_meter.c **** 
 510:Drivers/lvgl/src/extra/widgets/meter/lv_meter.c ****                 lv_snprintf(buf, sizeof(buf), "%" LV_PRId32, value_of_line);
 511:Drivers/lvgl/src/extra/widgets/meter/lv_meter.c ****                 part_draw_dsc.text = buf;
 512:Drivers/lvgl/src/extra/widgets/meter/lv_meter.c **** 
 513:Drivers/lvgl/src/extra/widgets/meter/lv_meter.c ****                 lv_event_send(obj, LV_EVENT_DRAW_PART_BEGIN, &part_draw_dsc);
 514:Drivers/lvgl/src/extra/widgets/meter/lv_meter.c **** 
 515:Drivers/lvgl/src/extra/widgets/meter/lv_meter.c ****                 lv_point_t label_size;
 516:Drivers/lvgl/src/extra/widgets/meter/lv_meter.c ****                 lv_txt_get_size(&label_size, part_draw_dsc.text, label_dsc_tmp.font, label_dsc_tmp.
 517:Drivers/lvgl/src/extra/widgets/meter/lv_meter.c ****                                 label_dsc_tmp.line_space,
 518:Drivers/lvgl/src/extra/widgets/meter/lv_meter.c ****                                 LV_COORD_MAX, LV_TEXT_FLAG_NONE);
 519:Drivers/lvgl/src/extra/widgets/meter/lv_meter.c **** 
 520:Drivers/lvgl/src/extra/widgets/meter/lv_meter.c ****                 lv_area_t label_cord;
 521:Drivers/lvgl/src/extra/widgets/meter/lv_meter.c ****                 label_cord.x1 = p.x - label_size.x / 2;
 522:Drivers/lvgl/src/extra/widgets/meter/lv_meter.c ****                 label_cord.y1 = p.y - label_size.y / 2;
 523:Drivers/lvgl/src/extra/widgets/meter/lv_meter.c ****                 label_cord.x2 = label_cord.x1 + label_size.x;
 524:Drivers/lvgl/src/extra/widgets/meter/lv_meter.c ****                 label_cord.y2 = label_cord.y1 + label_size.y;
 525:Drivers/lvgl/src/extra/widgets/meter/lv_meter.c **** 
 526:Drivers/lvgl/src/extra/widgets/meter/lv_meter.c ****                 lv_draw_label(draw_ctx, part_draw_dsc.label_dsc, &label_cord, part_draw_dsc.text, N
 527:Drivers/lvgl/src/extra/widgets/meter/lv_meter.c **** 
 528:Drivers/lvgl/src/extra/widgets/meter/lv_meter.c ****                 outer_mask_id = lv_draw_mask_add(&outer_mask, NULL);
 529:Drivers/lvgl/src/extra/widgets/meter/lv_meter.c ****             }
 530:Drivers/lvgl/src/extra/widgets/meter/lv_meter.c ****             else {
 531:Drivers/lvgl/src/extra/widgets/meter/lv_meter.c ****                 part_draw_dsc.label_dsc = NULL;
 532:Drivers/lvgl/src/extra/widgets/meter/lv_meter.c ****                 part_draw_dsc.text = NULL;
 533:Drivers/lvgl/src/extra/widgets/meter/lv_meter.c ****                 lv_event_send(obj, LV_EVENT_DRAW_PART_BEGIN, &part_draw_dsc);
 534:Drivers/lvgl/src/extra/widgets/meter/lv_meter.c ****             }
 535:Drivers/lvgl/src/extra/widgets/meter/lv_meter.c **** 
 536:Drivers/lvgl/src/extra/widgets/meter/lv_meter.c ****             inner_act_mask_id = lv_draw_mask_add(major ? &inner_major_mask : &inner_minor_mask, NUL
 537:Drivers/lvgl/src/extra/widgets/meter/lv_meter.c ****             lv_draw_line(draw_ctx, &line_dsc, &p_outer, &p_center);
 538:Drivers/lvgl/src/extra/widgets/meter/lv_meter.c ****             lv_draw_mask_remove_id(inner_act_mask_id);
 539:Drivers/lvgl/src/extra/widgets/meter/lv_meter.c ****             lv_event_send(obj, LV_EVENT_DRAW_MAIN_END, &part_draw_dsc);
 540:Drivers/lvgl/src/extra/widgets/meter/lv_meter.c **** 
 541:Drivers/lvgl/src/extra/widgets/meter/lv_meter.c ****             line_dsc.color = line_color_ori;
 542:Drivers/lvgl/src/extra/widgets/meter/lv_meter.c ****             line_dsc.width = line_width_ori;
 543:Drivers/lvgl/src/extra/widgets/meter/lv_meter.c **** 
 544:Drivers/lvgl/src/extra/widgets/meter/lv_meter.c ****         }
 545:Drivers/lvgl/src/extra/widgets/meter/lv_meter.c ****         lv_draw_mask_free_param(&inner_minor_mask);
ARM GAS  /var/folders/lp/x54gwt890xv47sdkqj1k04q40000gn/T//ccVgM3G4.s 			page 13


 546:Drivers/lvgl/src/extra/widgets/meter/lv_meter.c ****         lv_draw_mask_free_param(&inner_major_mask);
 547:Drivers/lvgl/src/extra/widgets/meter/lv_meter.c ****         lv_draw_mask_free_param(&outer_mask);
 548:Drivers/lvgl/src/extra/widgets/meter/lv_meter.c ****         lv_draw_mask_remove_id(outer_mask_id);
 549:Drivers/lvgl/src/extra/widgets/meter/lv_meter.c ****     }
 550:Drivers/lvgl/src/extra/widgets/meter/lv_meter.c **** }
 551:Drivers/lvgl/src/extra/widgets/meter/lv_meter.c **** 
 552:Drivers/lvgl/src/extra/widgets/meter/lv_meter.c **** 
 553:Drivers/lvgl/src/extra/widgets/meter/lv_meter.c **** static void draw_needles(lv_obj_t * obj, lv_draw_ctx_t * draw_ctx, const lv_area_t * scale_area)
 554:Drivers/lvgl/src/extra/widgets/meter/lv_meter.c **** {
 555:Drivers/lvgl/src/extra/widgets/meter/lv_meter.c ****     lv_meter_t * meter = (lv_meter_t *)obj;
 556:Drivers/lvgl/src/extra/widgets/meter/lv_meter.c **** 
 557:Drivers/lvgl/src/extra/widgets/meter/lv_meter.c ****     lv_coord_t r_edge = lv_area_get_width(scale_area) / 2;
 558:Drivers/lvgl/src/extra/widgets/meter/lv_meter.c ****     lv_point_t scale_center;
 559:Drivers/lvgl/src/extra/widgets/meter/lv_meter.c ****     scale_center.x = scale_area->x1 + r_edge;
 560:Drivers/lvgl/src/extra/widgets/meter/lv_meter.c ****     scale_center.y = scale_area->y1 + r_edge;
 561:Drivers/lvgl/src/extra/widgets/meter/lv_meter.c **** 
 562:Drivers/lvgl/src/extra/widgets/meter/lv_meter.c ****     lv_draw_line_dsc_t line_dsc;
 563:Drivers/lvgl/src/extra/widgets/meter/lv_meter.c ****     lv_draw_line_dsc_init(&line_dsc);
 564:Drivers/lvgl/src/extra/widgets/meter/lv_meter.c ****     lv_obj_init_draw_line_dsc(obj, LV_PART_ITEMS, &line_dsc);
 565:Drivers/lvgl/src/extra/widgets/meter/lv_meter.c **** 
 566:Drivers/lvgl/src/extra/widgets/meter/lv_meter.c ****     lv_draw_img_dsc_t img_dsc;
 567:Drivers/lvgl/src/extra/widgets/meter/lv_meter.c ****     lv_draw_img_dsc_init(&img_dsc);
 568:Drivers/lvgl/src/extra/widgets/meter/lv_meter.c ****     lv_obj_init_draw_img_dsc(obj, LV_PART_ITEMS, &img_dsc);
 569:Drivers/lvgl/src/extra/widgets/meter/lv_meter.c ****     lv_opa_t opa_main = lv_obj_get_style_opa_recursive(obj, LV_PART_MAIN);
 570:Drivers/lvgl/src/extra/widgets/meter/lv_meter.c **** 
 571:Drivers/lvgl/src/extra/widgets/meter/lv_meter.c ****     lv_obj_draw_part_dsc_t part_draw_dsc;
 572:Drivers/lvgl/src/extra/widgets/meter/lv_meter.c ****     lv_obj_draw_dsc_init(&part_draw_dsc, draw_ctx);
 573:Drivers/lvgl/src/extra/widgets/meter/lv_meter.c ****     part_draw_dsc.class_p = MY_CLASS;
 574:Drivers/lvgl/src/extra/widgets/meter/lv_meter.c ****     part_draw_dsc.p1 = &scale_center;
 575:Drivers/lvgl/src/extra/widgets/meter/lv_meter.c ****     part_draw_dsc.part = LV_PART_INDICATOR;
 576:Drivers/lvgl/src/extra/widgets/meter/lv_meter.c **** 
 577:Drivers/lvgl/src/extra/widgets/meter/lv_meter.c ****     lv_meter_indicator_t * indic;
 578:Drivers/lvgl/src/extra/widgets/meter/lv_meter.c ****     _LV_LL_READ_BACK(&meter->indicator_ll, indic) {
 579:Drivers/lvgl/src/extra/widgets/meter/lv_meter.c ****         lv_meter_scale_t * scale = indic->scale;
 580:Drivers/lvgl/src/extra/widgets/meter/lv_meter.c ****         part_draw_dsc.sub_part_ptr = indic;
 581:Drivers/lvgl/src/extra/widgets/meter/lv_meter.c **** 
 582:Drivers/lvgl/src/extra/widgets/meter/lv_meter.c ****         if(indic->type == LV_METER_INDICATOR_TYPE_NEEDLE_LINE) {
 583:Drivers/lvgl/src/extra/widgets/meter/lv_meter.c ****             int32_t angle = lv_map(indic->end_value, scale->min, scale->max, scale->rotation, scale
 584:Drivers/lvgl/src/extra/widgets/meter/lv_meter.c ****             lv_coord_t r_out = r_edge + scale->r_mod + indic->type_data.needle_line.r_mod;
 585:Drivers/lvgl/src/extra/widgets/meter/lv_meter.c ****             lv_point_t p_end;
 586:Drivers/lvgl/src/extra/widgets/meter/lv_meter.c ****             p_end.y = (lv_trigo_sin(angle) * (r_out)) / LV_TRIGO_SIN_MAX + scale_center.y;
 587:Drivers/lvgl/src/extra/widgets/meter/lv_meter.c ****             p_end.x = (lv_trigo_cos(angle) * (r_out)) / LV_TRIGO_SIN_MAX + scale_center.x;
 588:Drivers/lvgl/src/extra/widgets/meter/lv_meter.c ****             line_dsc.color = indic->type_data.needle_line.color;
 589:Drivers/lvgl/src/extra/widgets/meter/lv_meter.c ****             line_dsc.width = indic->type_data.needle_line.width;
 590:Drivers/lvgl/src/extra/widgets/meter/lv_meter.c ****             line_dsc.opa = indic->opa > LV_OPA_MAX ? opa_main : (opa_main * indic->opa) >> 8;
 591:Drivers/lvgl/src/extra/widgets/meter/lv_meter.c **** 
 592:Drivers/lvgl/src/extra/widgets/meter/lv_meter.c ****             part_draw_dsc.type = LV_METER_DRAW_PART_NEEDLE_LINE;
 593:Drivers/lvgl/src/extra/widgets/meter/lv_meter.c ****             part_draw_dsc.line_dsc = &line_dsc;
 594:Drivers/lvgl/src/extra/widgets/meter/lv_meter.c ****             part_draw_dsc.p2 = &p_end;
 595:Drivers/lvgl/src/extra/widgets/meter/lv_meter.c ****             part_draw_dsc.p1 = &scale_center;
 596:Drivers/lvgl/src/extra/widgets/meter/lv_meter.c ****             lv_event_send(obj, LV_EVENT_DRAW_PART_BEGIN, &part_draw_dsc);
 597:Drivers/lvgl/src/extra/widgets/meter/lv_meter.c ****             lv_draw_line(draw_ctx, &line_dsc, part_draw_dsc.p1, &p_end);
 598:Drivers/lvgl/src/extra/widgets/meter/lv_meter.c ****             lv_event_send(obj, LV_EVENT_DRAW_PART_END, &part_draw_dsc);
 599:Drivers/lvgl/src/extra/widgets/meter/lv_meter.c ****         }
 600:Drivers/lvgl/src/extra/widgets/meter/lv_meter.c ****         else if(indic->type == LV_METER_INDICATOR_TYPE_NEEDLE_IMG) {
 601:Drivers/lvgl/src/extra/widgets/meter/lv_meter.c ****             if(indic->type_data.needle_img.src == NULL) continue;
 602:Drivers/lvgl/src/extra/widgets/meter/lv_meter.c **** 
ARM GAS  /var/folders/lp/x54gwt890xv47sdkqj1k04q40000gn/T//ccVgM3G4.s 			page 14


 603:Drivers/lvgl/src/extra/widgets/meter/lv_meter.c ****             int32_t angle = lv_map(indic->end_value, scale->min, scale->max, scale->rotation, scale
 604:Drivers/lvgl/src/extra/widgets/meter/lv_meter.c ****             lv_img_header_t info;
 605:Drivers/lvgl/src/extra/widgets/meter/lv_meter.c ****             lv_img_decoder_get_info(indic->type_data.needle_img.src, &info);
 606:Drivers/lvgl/src/extra/widgets/meter/lv_meter.c ****             lv_area_t a;
 607:Drivers/lvgl/src/extra/widgets/meter/lv_meter.c ****             a.x1 = scale_center.x - indic->type_data.needle_img.pivot.x;
 608:Drivers/lvgl/src/extra/widgets/meter/lv_meter.c ****             a.y1 = scale_center.y - indic->type_data.needle_img.pivot.y;
 609:Drivers/lvgl/src/extra/widgets/meter/lv_meter.c ****             a.x2 = a.x1 + info.w - 1;
 610:Drivers/lvgl/src/extra/widgets/meter/lv_meter.c ****             a.y2 = a.y1 + info.h - 1;
 611:Drivers/lvgl/src/extra/widgets/meter/lv_meter.c **** 
 612:Drivers/lvgl/src/extra/widgets/meter/lv_meter.c ****             img_dsc.opa = indic->opa > LV_OPA_MAX ? opa_main : (opa_main * indic->opa) >> 8;
 613:Drivers/lvgl/src/extra/widgets/meter/lv_meter.c ****             img_dsc.pivot.x = indic->type_data.needle_img.pivot.x;
 614:Drivers/lvgl/src/extra/widgets/meter/lv_meter.c ****             img_dsc.pivot.y = indic->type_data.needle_img.pivot.y;
 615:Drivers/lvgl/src/extra/widgets/meter/lv_meter.c ****             angle = angle * 10;
 616:Drivers/lvgl/src/extra/widgets/meter/lv_meter.c ****             if(angle > 3600) angle -= 3600;
 617:Drivers/lvgl/src/extra/widgets/meter/lv_meter.c ****             img_dsc.angle = angle;
 618:Drivers/lvgl/src/extra/widgets/meter/lv_meter.c **** 
 619:Drivers/lvgl/src/extra/widgets/meter/lv_meter.c ****             part_draw_dsc.type = LV_METER_DRAW_PART_NEEDLE_IMG;
 620:Drivers/lvgl/src/extra/widgets/meter/lv_meter.c ****             part_draw_dsc.img_dsc = &img_dsc;
 621:Drivers/lvgl/src/extra/widgets/meter/lv_meter.c **** 
 622:Drivers/lvgl/src/extra/widgets/meter/lv_meter.c ****             lv_event_send(obj, LV_EVENT_DRAW_PART_BEGIN, &part_draw_dsc);
 623:Drivers/lvgl/src/extra/widgets/meter/lv_meter.c ****             lv_draw_img(draw_ctx, &img_dsc, &a, indic->type_data.needle_img.src);
 624:Drivers/lvgl/src/extra/widgets/meter/lv_meter.c ****             lv_event_send(obj, LV_EVENT_DRAW_PART_END, &part_draw_dsc);
 625:Drivers/lvgl/src/extra/widgets/meter/lv_meter.c ****         }
 626:Drivers/lvgl/src/extra/widgets/meter/lv_meter.c ****     }
 627:Drivers/lvgl/src/extra/widgets/meter/lv_meter.c **** }
 628:Drivers/lvgl/src/extra/widgets/meter/lv_meter.c **** 
 629:Drivers/lvgl/src/extra/widgets/meter/lv_meter.c **** static void inv_arc(lv_obj_t * obj, lv_meter_indicator_t * indic, int32_t old_value, int32_t new_va
 630:Drivers/lvgl/src/extra/widgets/meter/lv_meter.c **** {
 128              		.loc 1 630 1 is_stmt 1 view -0
 129              		.cfi_startproc
 130              		@ args = 0, pretend = 0, frame = 24
 131              		@ frame_needed = 0, uses_anonymous_args = 0
 631:Drivers/lvgl/src/extra/widgets/meter/lv_meter.c ****     bool rounded = lv_obj_get_style_arc_rounded(obj, LV_PART_ITEMS);
 132              		.loc 1 631 5 view .LVU28
 630:Drivers/lvgl/src/extra/widgets/meter/lv_meter.c ****     bool rounded = lv_obj_get_style_arc_rounded(obj, LV_PART_ITEMS);
 133              		.loc 1 630 1 is_stmt 0 view .LVU29
 134 0000 2DE9F04F 		push	{r4, r5, r6, r7, r8, r9, r10, fp, lr}
 135              		.cfi_def_cfa_offset 36
 136              		.cfi_offset 4, -36
 137              		.cfi_offset 5, -32
 138              		.cfi_offset 6, -28
 139              		.cfi_offset 7, -24
 140              		.cfi_offset 8, -20
 141              		.cfi_offset 9, -16
 142              		.cfi_offset 10, -12
 143              		.cfi_offset 11, -8
 144              		.cfi_offset 14, -4
 145 0004 8846     		mov	r8, r1
 146 0006 8BB0     		sub	sp, sp, #44
 147              		.cfi_def_cfa_offset 80
 630:Drivers/lvgl/src/extra/widgets/meter/lv_meter.c ****     bool rounded = lv_obj_get_style_arc_rounded(obj, LV_PART_ITEMS);
 148              		.loc 1 630 1 view .LVU30
 149 0008 1446     		mov	r4, r2
 150              	.LBB50:
 151              	.LBB51:
 152              		.file 2 "Drivers/lvgl/src/extra/widgets/meter/../../../../src/core/lv_obj_style_gen.h"
   1:Drivers/lvgl/src/extra/widgets/meter/../../../../src/core/lv_obj_style_gen.h **** static inline lv_coord_t lv_obj_get_style_width(const struct _lv_obj_t * obj, uint32_t part)
ARM GAS  /var/folders/lp/x54gwt890xv47sdkqj1k04q40000gn/T//ccVgM3G4.s 			page 15


   2:Drivers/lvgl/src/extra/widgets/meter/../../../../src/core/lv_obj_style_gen.h **** {
   3:Drivers/lvgl/src/extra/widgets/meter/../../../../src/core/lv_obj_style_gen.h ****     lv_style_value_t v = lv_obj_get_style_prop(obj, part, LV_STYLE_WIDTH);
   4:Drivers/lvgl/src/extra/widgets/meter/../../../../src/core/lv_obj_style_gen.h ****     return (lv_coord_t)v.num;
   5:Drivers/lvgl/src/extra/widgets/meter/../../../../src/core/lv_obj_style_gen.h **** }
   6:Drivers/lvgl/src/extra/widgets/meter/../../../../src/core/lv_obj_style_gen.h **** 
   7:Drivers/lvgl/src/extra/widgets/meter/../../../../src/core/lv_obj_style_gen.h **** static inline lv_coord_t lv_obj_get_style_min_width(const struct _lv_obj_t * obj, uint32_t part)
   8:Drivers/lvgl/src/extra/widgets/meter/../../../../src/core/lv_obj_style_gen.h **** {
   9:Drivers/lvgl/src/extra/widgets/meter/../../../../src/core/lv_obj_style_gen.h ****     lv_style_value_t v = lv_obj_get_style_prop(obj, part, LV_STYLE_MIN_WIDTH);
  10:Drivers/lvgl/src/extra/widgets/meter/../../../../src/core/lv_obj_style_gen.h ****     return (lv_coord_t)v.num;
  11:Drivers/lvgl/src/extra/widgets/meter/../../../../src/core/lv_obj_style_gen.h **** }
  12:Drivers/lvgl/src/extra/widgets/meter/../../../../src/core/lv_obj_style_gen.h **** 
  13:Drivers/lvgl/src/extra/widgets/meter/../../../../src/core/lv_obj_style_gen.h **** static inline lv_coord_t lv_obj_get_style_max_width(const struct _lv_obj_t * obj, uint32_t part)
  14:Drivers/lvgl/src/extra/widgets/meter/../../../../src/core/lv_obj_style_gen.h **** {
  15:Drivers/lvgl/src/extra/widgets/meter/../../../../src/core/lv_obj_style_gen.h ****     lv_style_value_t v = lv_obj_get_style_prop(obj, part, LV_STYLE_MAX_WIDTH);
  16:Drivers/lvgl/src/extra/widgets/meter/../../../../src/core/lv_obj_style_gen.h ****     return (lv_coord_t)v.num;
  17:Drivers/lvgl/src/extra/widgets/meter/../../../../src/core/lv_obj_style_gen.h **** }
  18:Drivers/lvgl/src/extra/widgets/meter/../../../../src/core/lv_obj_style_gen.h **** 
  19:Drivers/lvgl/src/extra/widgets/meter/../../../../src/core/lv_obj_style_gen.h **** static inline lv_coord_t lv_obj_get_style_height(const struct _lv_obj_t * obj, uint32_t part)
  20:Drivers/lvgl/src/extra/widgets/meter/../../../../src/core/lv_obj_style_gen.h **** {
  21:Drivers/lvgl/src/extra/widgets/meter/../../../../src/core/lv_obj_style_gen.h ****     lv_style_value_t v = lv_obj_get_style_prop(obj, part, LV_STYLE_HEIGHT);
  22:Drivers/lvgl/src/extra/widgets/meter/../../../../src/core/lv_obj_style_gen.h ****     return (lv_coord_t)v.num;
  23:Drivers/lvgl/src/extra/widgets/meter/../../../../src/core/lv_obj_style_gen.h **** }
  24:Drivers/lvgl/src/extra/widgets/meter/../../../../src/core/lv_obj_style_gen.h **** 
  25:Drivers/lvgl/src/extra/widgets/meter/../../../../src/core/lv_obj_style_gen.h **** static inline lv_coord_t lv_obj_get_style_min_height(const struct _lv_obj_t * obj, uint32_t part)
  26:Drivers/lvgl/src/extra/widgets/meter/../../../../src/core/lv_obj_style_gen.h **** {
  27:Drivers/lvgl/src/extra/widgets/meter/../../../../src/core/lv_obj_style_gen.h ****     lv_style_value_t v = lv_obj_get_style_prop(obj, part, LV_STYLE_MIN_HEIGHT);
  28:Drivers/lvgl/src/extra/widgets/meter/../../../../src/core/lv_obj_style_gen.h ****     return (lv_coord_t)v.num;
  29:Drivers/lvgl/src/extra/widgets/meter/../../../../src/core/lv_obj_style_gen.h **** }
  30:Drivers/lvgl/src/extra/widgets/meter/../../../../src/core/lv_obj_style_gen.h **** 
  31:Drivers/lvgl/src/extra/widgets/meter/../../../../src/core/lv_obj_style_gen.h **** static inline lv_coord_t lv_obj_get_style_max_height(const struct _lv_obj_t * obj, uint32_t part)
  32:Drivers/lvgl/src/extra/widgets/meter/../../../../src/core/lv_obj_style_gen.h **** {
  33:Drivers/lvgl/src/extra/widgets/meter/../../../../src/core/lv_obj_style_gen.h ****     lv_style_value_t v = lv_obj_get_style_prop(obj, part, LV_STYLE_MAX_HEIGHT);
  34:Drivers/lvgl/src/extra/widgets/meter/../../../../src/core/lv_obj_style_gen.h ****     return (lv_coord_t)v.num;
  35:Drivers/lvgl/src/extra/widgets/meter/../../../../src/core/lv_obj_style_gen.h **** }
  36:Drivers/lvgl/src/extra/widgets/meter/../../../../src/core/lv_obj_style_gen.h **** 
  37:Drivers/lvgl/src/extra/widgets/meter/../../../../src/core/lv_obj_style_gen.h **** static inline lv_coord_t lv_obj_get_style_x(const struct _lv_obj_t * obj, uint32_t part)
  38:Drivers/lvgl/src/extra/widgets/meter/../../../../src/core/lv_obj_style_gen.h **** {
  39:Drivers/lvgl/src/extra/widgets/meter/../../../../src/core/lv_obj_style_gen.h ****     lv_style_value_t v = lv_obj_get_style_prop(obj, part, LV_STYLE_X);
  40:Drivers/lvgl/src/extra/widgets/meter/../../../../src/core/lv_obj_style_gen.h ****     return (lv_coord_t)v.num;
  41:Drivers/lvgl/src/extra/widgets/meter/../../../../src/core/lv_obj_style_gen.h **** }
  42:Drivers/lvgl/src/extra/widgets/meter/../../../../src/core/lv_obj_style_gen.h **** 
  43:Drivers/lvgl/src/extra/widgets/meter/../../../../src/core/lv_obj_style_gen.h **** static inline lv_coord_t lv_obj_get_style_y(const struct _lv_obj_t * obj, uint32_t part)
  44:Drivers/lvgl/src/extra/widgets/meter/../../../../src/core/lv_obj_style_gen.h **** {
  45:Drivers/lvgl/src/extra/widgets/meter/../../../../src/core/lv_obj_style_gen.h ****     lv_style_value_t v = lv_obj_get_style_prop(obj, part, LV_STYLE_Y);
  46:Drivers/lvgl/src/extra/widgets/meter/../../../../src/core/lv_obj_style_gen.h ****     return (lv_coord_t)v.num;
  47:Drivers/lvgl/src/extra/widgets/meter/../../../../src/core/lv_obj_style_gen.h **** }
  48:Drivers/lvgl/src/extra/widgets/meter/../../../../src/core/lv_obj_style_gen.h **** 
  49:Drivers/lvgl/src/extra/widgets/meter/../../../../src/core/lv_obj_style_gen.h **** static inline lv_align_t lv_obj_get_style_align(const struct _lv_obj_t * obj, uint32_t part)
  50:Drivers/lvgl/src/extra/widgets/meter/../../../../src/core/lv_obj_style_gen.h **** {
  51:Drivers/lvgl/src/extra/widgets/meter/../../../../src/core/lv_obj_style_gen.h ****     lv_style_value_t v = lv_obj_get_style_prop(obj, part, LV_STYLE_ALIGN);
  52:Drivers/lvgl/src/extra/widgets/meter/../../../../src/core/lv_obj_style_gen.h ****     return (lv_align_t)v.num;
  53:Drivers/lvgl/src/extra/widgets/meter/../../../../src/core/lv_obj_style_gen.h **** }
  54:Drivers/lvgl/src/extra/widgets/meter/../../../../src/core/lv_obj_style_gen.h **** 
  55:Drivers/lvgl/src/extra/widgets/meter/../../../../src/core/lv_obj_style_gen.h **** static inline lv_coord_t lv_obj_get_style_transform_width(const struct _lv_obj_t * obj, uint32_t pa
  56:Drivers/lvgl/src/extra/widgets/meter/../../../../src/core/lv_obj_style_gen.h **** {
  57:Drivers/lvgl/src/extra/widgets/meter/../../../../src/core/lv_obj_style_gen.h ****     lv_style_value_t v = lv_obj_get_style_prop(obj, part, LV_STYLE_TRANSFORM_WIDTH);
  58:Drivers/lvgl/src/extra/widgets/meter/../../../../src/core/lv_obj_style_gen.h ****     return (lv_coord_t)v.num;
ARM GAS  /var/folders/lp/x54gwt890xv47sdkqj1k04q40000gn/T//ccVgM3G4.s 			page 16


  59:Drivers/lvgl/src/extra/widgets/meter/../../../../src/core/lv_obj_style_gen.h **** }
  60:Drivers/lvgl/src/extra/widgets/meter/../../../../src/core/lv_obj_style_gen.h **** 
  61:Drivers/lvgl/src/extra/widgets/meter/../../../../src/core/lv_obj_style_gen.h **** static inline lv_coord_t lv_obj_get_style_transform_height(const struct _lv_obj_t * obj, uint32_t p
  62:Drivers/lvgl/src/extra/widgets/meter/../../../../src/core/lv_obj_style_gen.h **** {
  63:Drivers/lvgl/src/extra/widgets/meter/../../../../src/core/lv_obj_style_gen.h ****     lv_style_value_t v = lv_obj_get_style_prop(obj, part, LV_STYLE_TRANSFORM_HEIGHT);
  64:Drivers/lvgl/src/extra/widgets/meter/../../../../src/core/lv_obj_style_gen.h ****     return (lv_coord_t)v.num;
  65:Drivers/lvgl/src/extra/widgets/meter/../../../../src/core/lv_obj_style_gen.h **** }
  66:Drivers/lvgl/src/extra/widgets/meter/../../../../src/core/lv_obj_style_gen.h **** 
  67:Drivers/lvgl/src/extra/widgets/meter/../../../../src/core/lv_obj_style_gen.h **** static inline lv_coord_t lv_obj_get_style_translate_x(const struct _lv_obj_t * obj, uint32_t part)
  68:Drivers/lvgl/src/extra/widgets/meter/../../../../src/core/lv_obj_style_gen.h **** {
  69:Drivers/lvgl/src/extra/widgets/meter/../../../../src/core/lv_obj_style_gen.h ****     lv_style_value_t v = lv_obj_get_style_prop(obj, part, LV_STYLE_TRANSLATE_X);
  70:Drivers/lvgl/src/extra/widgets/meter/../../../../src/core/lv_obj_style_gen.h ****     return (lv_coord_t)v.num;
  71:Drivers/lvgl/src/extra/widgets/meter/../../../../src/core/lv_obj_style_gen.h **** }
  72:Drivers/lvgl/src/extra/widgets/meter/../../../../src/core/lv_obj_style_gen.h **** 
  73:Drivers/lvgl/src/extra/widgets/meter/../../../../src/core/lv_obj_style_gen.h **** static inline lv_coord_t lv_obj_get_style_translate_y(const struct _lv_obj_t * obj, uint32_t part)
  74:Drivers/lvgl/src/extra/widgets/meter/../../../../src/core/lv_obj_style_gen.h **** {
  75:Drivers/lvgl/src/extra/widgets/meter/../../../../src/core/lv_obj_style_gen.h ****     lv_style_value_t v = lv_obj_get_style_prop(obj, part, LV_STYLE_TRANSLATE_Y);
  76:Drivers/lvgl/src/extra/widgets/meter/../../../../src/core/lv_obj_style_gen.h ****     return (lv_coord_t)v.num;
  77:Drivers/lvgl/src/extra/widgets/meter/../../../../src/core/lv_obj_style_gen.h **** }
  78:Drivers/lvgl/src/extra/widgets/meter/../../../../src/core/lv_obj_style_gen.h **** 
  79:Drivers/lvgl/src/extra/widgets/meter/../../../../src/core/lv_obj_style_gen.h **** static inline lv_coord_t lv_obj_get_style_transform_zoom(const struct _lv_obj_t * obj, uint32_t par
  80:Drivers/lvgl/src/extra/widgets/meter/../../../../src/core/lv_obj_style_gen.h **** {
  81:Drivers/lvgl/src/extra/widgets/meter/../../../../src/core/lv_obj_style_gen.h ****     lv_style_value_t v = lv_obj_get_style_prop(obj, part, LV_STYLE_TRANSFORM_ZOOM);
  82:Drivers/lvgl/src/extra/widgets/meter/../../../../src/core/lv_obj_style_gen.h ****     return (lv_coord_t)v.num;
  83:Drivers/lvgl/src/extra/widgets/meter/../../../../src/core/lv_obj_style_gen.h **** }
  84:Drivers/lvgl/src/extra/widgets/meter/../../../../src/core/lv_obj_style_gen.h **** 
  85:Drivers/lvgl/src/extra/widgets/meter/../../../../src/core/lv_obj_style_gen.h **** static inline lv_coord_t lv_obj_get_style_transform_angle(const struct _lv_obj_t * obj, uint32_t pa
  86:Drivers/lvgl/src/extra/widgets/meter/../../../../src/core/lv_obj_style_gen.h **** {
  87:Drivers/lvgl/src/extra/widgets/meter/../../../../src/core/lv_obj_style_gen.h ****     lv_style_value_t v = lv_obj_get_style_prop(obj, part, LV_STYLE_TRANSFORM_ANGLE);
  88:Drivers/lvgl/src/extra/widgets/meter/../../../../src/core/lv_obj_style_gen.h ****     return (lv_coord_t)v.num;
  89:Drivers/lvgl/src/extra/widgets/meter/../../../../src/core/lv_obj_style_gen.h **** }
  90:Drivers/lvgl/src/extra/widgets/meter/../../../../src/core/lv_obj_style_gen.h **** 
  91:Drivers/lvgl/src/extra/widgets/meter/../../../../src/core/lv_obj_style_gen.h **** static inline lv_coord_t lv_obj_get_style_transform_pivot_x(const struct _lv_obj_t * obj, uint32_t 
  92:Drivers/lvgl/src/extra/widgets/meter/../../../../src/core/lv_obj_style_gen.h **** {
  93:Drivers/lvgl/src/extra/widgets/meter/../../../../src/core/lv_obj_style_gen.h ****     lv_style_value_t v = lv_obj_get_style_prop(obj, part, LV_STYLE_TRANSFORM_PIVOT_X);
  94:Drivers/lvgl/src/extra/widgets/meter/../../../../src/core/lv_obj_style_gen.h ****     return (lv_coord_t)v.num;
  95:Drivers/lvgl/src/extra/widgets/meter/../../../../src/core/lv_obj_style_gen.h **** }
  96:Drivers/lvgl/src/extra/widgets/meter/../../../../src/core/lv_obj_style_gen.h **** 
  97:Drivers/lvgl/src/extra/widgets/meter/../../../../src/core/lv_obj_style_gen.h **** static inline lv_coord_t lv_obj_get_style_transform_pivot_y(const struct _lv_obj_t * obj, uint32_t 
  98:Drivers/lvgl/src/extra/widgets/meter/../../../../src/core/lv_obj_style_gen.h **** {
  99:Drivers/lvgl/src/extra/widgets/meter/../../../../src/core/lv_obj_style_gen.h ****     lv_style_value_t v = lv_obj_get_style_prop(obj, part, LV_STYLE_TRANSFORM_PIVOT_Y);
 100:Drivers/lvgl/src/extra/widgets/meter/../../../../src/core/lv_obj_style_gen.h ****     return (lv_coord_t)v.num;
 101:Drivers/lvgl/src/extra/widgets/meter/../../../../src/core/lv_obj_style_gen.h **** }
 102:Drivers/lvgl/src/extra/widgets/meter/../../../../src/core/lv_obj_style_gen.h **** 
 103:Drivers/lvgl/src/extra/widgets/meter/../../../../src/core/lv_obj_style_gen.h **** static inline lv_coord_t lv_obj_get_style_pad_top(const struct _lv_obj_t * obj, uint32_t part)
 104:Drivers/lvgl/src/extra/widgets/meter/../../../../src/core/lv_obj_style_gen.h **** {
 105:Drivers/lvgl/src/extra/widgets/meter/../../../../src/core/lv_obj_style_gen.h ****     lv_style_value_t v = lv_obj_get_style_prop(obj, part, LV_STYLE_PAD_TOP);
 106:Drivers/lvgl/src/extra/widgets/meter/../../../../src/core/lv_obj_style_gen.h ****     return (lv_coord_t)v.num;
 107:Drivers/lvgl/src/extra/widgets/meter/../../../../src/core/lv_obj_style_gen.h **** }
 108:Drivers/lvgl/src/extra/widgets/meter/../../../../src/core/lv_obj_style_gen.h **** 
 109:Drivers/lvgl/src/extra/widgets/meter/../../../../src/core/lv_obj_style_gen.h **** static inline lv_coord_t lv_obj_get_style_pad_bottom(const struct _lv_obj_t * obj, uint32_t part)
 110:Drivers/lvgl/src/extra/widgets/meter/../../../../src/core/lv_obj_style_gen.h **** {
 111:Drivers/lvgl/src/extra/widgets/meter/../../../../src/core/lv_obj_style_gen.h ****     lv_style_value_t v = lv_obj_get_style_prop(obj, part, LV_STYLE_PAD_BOTTOM);
 112:Drivers/lvgl/src/extra/widgets/meter/../../../../src/core/lv_obj_style_gen.h ****     return (lv_coord_t)v.num;
 113:Drivers/lvgl/src/extra/widgets/meter/../../../../src/core/lv_obj_style_gen.h **** }
 114:Drivers/lvgl/src/extra/widgets/meter/../../../../src/core/lv_obj_style_gen.h **** 
 115:Drivers/lvgl/src/extra/widgets/meter/../../../../src/core/lv_obj_style_gen.h **** static inline lv_coord_t lv_obj_get_style_pad_left(const struct _lv_obj_t * obj, uint32_t part)
ARM GAS  /var/folders/lp/x54gwt890xv47sdkqj1k04q40000gn/T//ccVgM3G4.s 			page 17


 116:Drivers/lvgl/src/extra/widgets/meter/../../../../src/core/lv_obj_style_gen.h **** {
 117:Drivers/lvgl/src/extra/widgets/meter/../../../../src/core/lv_obj_style_gen.h ****     lv_style_value_t v = lv_obj_get_style_prop(obj, part, LV_STYLE_PAD_LEFT);
 118:Drivers/lvgl/src/extra/widgets/meter/../../../../src/core/lv_obj_style_gen.h ****     return (lv_coord_t)v.num;
 119:Drivers/lvgl/src/extra/widgets/meter/../../../../src/core/lv_obj_style_gen.h **** }
 120:Drivers/lvgl/src/extra/widgets/meter/../../../../src/core/lv_obj_style_gen.h **** 
 121:Drivers/lvgl/src/extra/widgets/meter/../../../../src/core/lv_obj_style_gen.h **** static inline lv_coord_t lv_obj_get_style_pad_right(const struct _lv_obj_t * obj, uint32_t part)
 122:Drivers/lvgl/src/extra/widgets/meter/../../../../src/core/lv_obj_style_gen.h **** {
 123:Drivers/lvgl/src/extra/widgets/meter/../../../../src/core/lv_obj_style_gen.h ****     lv_style_value_t v = lv_obj_get_style_prop(obj, part, LV_STYLE_PAD_RIGHT);
 124:Drivers/lvgl/src/extra/widgets/meter/../../../../src/core/lv_obj_style_gen.h ****     return (lv_coord_t)v.num;
 125:Drivers/lvgl/src/extra/widgets/meter/../../../../src/core/lv_obj_style_gen.h **** }
 126:Drivers/lvgl/src/extra/widgets/meter/../../../../src/core/lv_obj_style_gen.h **** 
 127:Drivers/lvgl/src/extra/widgets/meter/../../../../src/core/lv_obj_style_gen.h **** static inline lv_coord_t lv_obj_get_style_pad_row(const struct _lv_obj_t * obj, uint32_t part)
 128:Drivers/lvgl/src/extra/widgets/meter/../../../../src/core/lv_obj_style_gen.h **** {
 129:Drivers/lvgl/src/extra/widgets/meter/../../../../src/core/lv_obj_style_gen.h ****     lv_style_value_t v = lv_obj_get_style_prop(obj, part, LV_STYLE_PAD_ROW);
 130:Drivers/lvgl/src/extra/widgets/meter/../../../../src/core/lv_obj_style_gen.h ****     return (lv_coord_t)v.num;
 131:Drivers/lvgl/src/extra/widgets/meter/../../../../src/core/lv_obj_style_gen.h **** }
 132:Drivers/lvgl/src/extra/widgets/meter/../../../../src/core/lv_obj_style_gen.h **** 
 133:Drivers/lvgl/src/extra/widgets/meter/../../../../src/core/lv_obj_style_gen.h **** static inline lv_coord_t lv_obj_get_style_pad_column(const struct _lv_obj_t * obj, uint32_t part)
 134:Drivers/lvgl/src/extra/widgets/meter/../../../../src/core/lv_obj_style_gen.h **** {
 135:Drivers/lvgl/src/extra/widgets/meter/../../../../src/core/lv_obj_style_gen.h ****     lv_style_value_t v = lv_obj_get_style_prop(obj, part, LV_STYLE_PAD_COLUMN);
 136:Drivers/lvgl/src/extra/widgets/meter/../../../../src/core/lv_obj_style_gen.h ****     return (lv_coord_t)v.num;
 137:Drivers/lvgl/src/extra/widgets/meter/../../../../src/core/lv_obj_style_gen.h **** }
 138:Drivers/lvgl/src/extra/widgets/meter/../../../../src/core/lv_obj_style_gen.h **** 
 139:Drivers/lvgl/src/extra/widgets/meter/../../../../src/core/lv_obj_style_gen.h **** static inline lv_color_t lv_obj_get_style_bg_color(const struct _lv_obj_t * obj, uint32_t part)
 140:Drivers/lvgl/src/extra/widgets/meter/../../../../src/core/lv_obj_style_gen.h **** {
 141:Drivers/lvgl/src/extra/widgets/meter/../../../../src/core/lv_obj_style_gen.h ****     lv_style_value_t v = lv_obj_get_style_prop(obj, part, LV_STYLE_BG_COLOR);
 142:Drivers/lvgl/src/extra/widgets/meter/../../../../src/core/lv_obj_style_gen.h ****     return v.color;
 143:Drivers/lvgl/src/extra/widgets/meter/../../../../src/core/lv_obj_style_gen.h **** }
 144:Drivers/lvgl/src/extra/widgets/meter/../../../../src/core/lv_obj_style_gen.h **** 
 145:Drivers/lvgl/src/extra/widgets/meter/../../../../src/core/lv_obj_style_gen.h **** static inline lv_color_t lv_obj_get_style_bg_color_filtered(const struct _lv_obj_t * obj, uint32_t 
 146:Drivers/lvgl/src/extra/widgets/meter/../../../../src/core/lv_obj_style_gen.h **** {
 147:Drivers/lvgl/src/extra/widgets/meter/../../../../src/core/lv_obj_style_gen.h ****     lv_style_value_t v = _lv_obj_style_apply_color_filter(obj, part, lv_obj_get_style_prop(obj, par
 148:Drivers/lvgl/src/extra/widgets/meter/../../../../src/core/lv_obj_style_gen.h ****     return v.color;
 149:Drivers/lvgl/src/extra/widgets/meter/../../../../src/core/lv_obj_style_gen.h **** }
 150:Drivers/lvgl/src/extra/widgets/meter/../../../../src/core/lv_obj_style_gen.h **** 
 151:Drivers/lvgl/src/extra/widgets/meter/../../../../src/core/lv_obj_style_gen.h **** static inline lv_opa_t lv_obj_get_style_bg_opa(const struct _lv_obj_t * obj, uint32_t part)
 152:Drivers/lvgl/src/extra/widgets/meter/../../../../src/core/lv_obj_style_gen.h **** {
 153:Drivers/lvgl/src/extra/widgets/meter/../../../../src/core/lv_obj_style_gen.h ****     lv_style_value_t v = lv_obj_get_style_prop(obj, part, LV_STYLE_BG_OPA);
 154:Drivers/lvgl/src/extra/widgets/meter/../../../../src/core/lv_obj_style_gen.h ****     return (lv_opa_t)v.num;
 155:Drivers/lvgl/src/extra/widgets/meter/../../../../src/core/lv_obj_style_gen.h **** }
 156:Drivers/lvgl/src/extra/widgets/meter/../../../../src/core/lv_obj_style_gen.h **** 
 157:Drivers/lvgl/src/extra/widgets/meter/../../../../src/core/lv_obj_style_gen.h **** static inline lv_color_t lv_obj_get_style_bg_grad_color(const struct _lv_obj_t * obj, uint32_t part
 158:Drivers/lvgl/src/extra/widgets/meter/../../../../src/core/lv_obj_style_gen.h **** {
 159:Drivers/lvgl/src/extra/widgets/meter/../../../../src/core/lv_obj_style_gen.h ****     lv_style_value_t v = lv_obj_get_style_prop(obj, part, LV_STYLE_BG_GRAD_COLOR);
 160:Drivers/lvgl/src/extra/widgets/meter/../../../../src/core/lv_obj_style_gen.h ****     return v.color;
 161:Drivers/lvgl/src/extra/widgets/meter/../../../../src/core/lv_obj_style_gen.h **** }
 162:Drivers/lvgl/src/extra/widgets/meter/../../../../src/core/lv_obj_style_gen.h **** 
 163:Drivers/lvgl/src/extra/widgets/meter/../../../../src/core/lv_obj_style_gen.h **** static inline lv_color_t lv_obj_get_style_bg_grad_color_filtered(const struct _lv_obj_t * obj, uint
 164:Drivers/lvgl/src/extra/widgets/meter/../../../../src/core/lv_obj_style_gen.h **** {
 165:Drivers/lvgl/src/extra/widgets/meter/../../../../src/core/lv_obj_style_gen.h ****     lv_style_value_t v = _lv_obj_style_apply_color_filter(obj, part, lv_obj_get_style_prop(obj, par
 166:Drivers/lvgl/src/extra/widgets/meter/../../../../src/core/lv_obj_style_gen.h ****     return v.color;
 167:Drivers/lvgl/src/extra/widgets/meter/../../../../src/core/lv_obj_style_gen.h **** }
 168:Drivers/lvgl/src/extra/widgets/meter/../../../../src/core/lv_obj_style_gen.h **** 
 169:Drivers/lvgl/src/extra/widgets/meter/../../../../src/core/lv_obj_style_gen.h **** static inline lv_grad_dir_t lv_obj_get_style_bg_grad_dir(const struct _lv_obj_t * obj, uint32_t par
 170:Drivers/lvgl/src/extra/widgets/meter/../../../../src/core/lv_obj_style_gen.h **** {
 171:Drivers/lvgl/src/extra/widgets/meter/../../../../src/core/lv_obj_style_gen.h ****     lv_style_value_t v = lv_obj_get_style_prop(obj, part, LV_STYLE_BG_GRAD_DIR);
 172:Drivers/lvgl/src/extra/widgets/meter/../../../../src/core/lv_obj_style_gen.h ****     return (lv_grad_dir_t)v.num;
ARM GAS  /var/folders/lp/x54gwt890xv47sdkqj1k04q40000gn/T//ccVgM3G4.s 			page 18


 173:Drivers/lvgl/src/extra/widgets/meter/../../../../src/core/lv_obj_style_gen.h **** }
 174:Drivers/lvgl/src/extra/widgets/meter/../../../../src/core/lv_obj_style_gen.h **** 
 175:Drivers/lvgl/src/extra/widgets/meter/../../../../src/core/lv_obj_style_gen.h **** static inline lv_coord_t lv_obj_get_style_bg_main_stop(const struct _lv_obj_t * obj, uint32_t part)
 176:Drivers/lvgl/src/extra/widgets/meter/../../../../src/core/lv_obj_style_gen.h **** {
 177:Drivers/lvgl/src/extra/widgets/meter/../../../../src/core/lv_obj_style_gen.h ****     lv_style_value_t v = lv_obj_get_style_prop(obj, part, LV_STYLE_BG_MAIN_STOP);
 178:Drivers/lvgl/src/extra/widgets/meter/../../../../src/core/lv_obj_style_gen.h ****     return (lv_coord_t)v.num;
 179:Drivers/lvgl/src/extra/widgets/meter/../../../../src/core/lv_obj_style_gen.h **** }
 180:Drivers/lvgl/src/extra/widgets/meter/../../../../src/core/lv_obj_style_gen.h **** 
 181:Drivers/lvgl/src/extra/widgets/meter/../../../../src/core/lv_obj_style_gen.h **** static inline lv_coord_t lv_obj_get_style_bg_grad_stop(const struct _lv_obj_t * obj, uint32_t part)
 182:Drivers/lvgl/src/extra/widgets/meter/../../../../src/core/lv_obj_style_gen.h **** {
 183:Drivers/lvgl/src/extra/widgets/meter/../../../../src/core/lv_obj_style_gen.h ****     lv_style_value_t v = lv_obj_get_style_prop(obj, part, LV_STYLE_BG_GRAD_STOP);
 184:Drivers/lvgl/src/extra/widgets/meter/../../../../src/core/lv_obj_style_gen.h ****     return (lv_coord_t)v.num;
 185:Drivers/lvgl/src/extra/widgets/meter/../../../../src/core/lv_obj_style_gen.h **** }
 186:Drivers/lvgl/src/extra/widgets/meter/../../../../src/core/lv_obj_style_gen.h **** 
 187:Drivers/lvgl/src/extra/widgets/meter/../../../../src/core/lv_obj_style_gen.h **** static inline const lv_grad_dsc_t * lv_obj_get_style_bg_grad(const struct _lv_obj_t * obj, uint32_t
 188:Drivers/lvgl/src/extra/widgets/meter/../../../../src/core/lv_obj_style_gen.h **** {
 189:Drivers/lvgl/src/extra/widgets/meter/../../../../src/core/lv_obj_style_gen.h ****     lv_style_value_t v = lv_obj_get_style_prop(obj, part, LV_STYLE_BG_GRAD);
 190:Drivers/lvgl/src/extra/widgets/meter/../../../../src/core/lv_obj_style_gen.h ****     return (const lv_grad_dsc_t *)v.ptr;
 191:Drivers/lvgl/src/extra/widgets/meter/../../../../src/core/lv_obj_style_gen.h **** }
 192:Drivers/lvgl/src/extra/widgets/meter/../../../../src/core/lv_obj_style_gen.h **** 
 193:Drivers/lvgl/src/extra/widgets/meter/../../../../src/core/lv_obj_style_gen.h **** static inline lv_dither_mode_t lv_obj_get_style_bg_dither_mode(const struct _lv_obj_t * obj, uint32
 194:Drivers/lvgl/src/extra/widgets/meter/../../../../src/core/lv_obj_style_gen.h **** {
 195:Drivers/lvgl/src/extra/widgets/meter/../../../../src/core/lv_obj_style_gen.h ****     lv_style_value_t v = lv_obj_get_style_prop(obj, part, LV_STYLE_BG_DITHER_MODE);
 196:Drivers/lvgl/src/extra/widgets/meter/../../../../src/core/lv_obj_style_gen.h ****     return (lv_dither_mode_t)v.num;
 197:Drivers/lvgl/src/extra/widgets/meter/../../../../src/core/lv_obj_style_gen.h **** }
 198:Drivers/lvgl/src/extra/widgets/meter/../../../../src/core/lv_obj_style_gen.h **** 
 199:Drivers/lvgl/src/extra/widgets/meter/../../../../src/core/lv_obj_style_gen.h **** static inline const void * lv_obj_get_style_bg_img_src(const struct _lv_obj_t * obj, uint32_t part)
 200:Drivers/lvgl/src/extra/widgets/meter/../../../../src/core/lv_obj_style_gen.h **** {
 201:Drivers/lvgl/src/extra/widgets/meter/../../../../src/core/lv_obj_style_gen.h ****     lv_style_value_t v = lv_obj_get_style_prop(obj, part, LV_STYLE_BG_IMG_SRC);
 202:Drivers/lvgl/src/extra/widgets/meter/../../../../src/core/lv_obj_style_gen.h ****     return (const void *)v.ptr;
 203:Drivers/lvgl/src/extra/widgets/meter/../../../../src/core/lv_obj_style_gen.h **** }
 204:Drivers/lvgl/src/extra/widgets/meter/../../../../src/core/lv_obj_style_gen.h **** 
 205:Drivers/lvgl/src/extra/widgets/meter/../../../../src/core/lv_obj_style_gen.h **** static inline lv_opa_t lv_obj_get_style_bg_img_opa(const struct _lv_obj_t * obj, uint32_t part)
 206:Drivers/lvgl/src/extra/widgets/meter/../../../../src/core/lv_obj_style_gen.h **** {
 207:Drivers/lvgl/src/extra/widgets/meter/../../../../src/core/lv_obj_style_gen.h ****     lv_style_value_t v = lv_obj_get_style_prop(obj, part, LV_STYLE_BG_IMG_OPA);
 208:Drivers/lvgl/src/extra/widgets/meter/../../../../src/core/lv_obj_style_gen.h ****     return (lv_opa_t)v.num;
 209:Drivers/lvgl/src/extra/widgets/meter/../../../../src/core/lv_obj_style_gen.h **** }
 210:Drivers/lvgl/src/extra/widgets/meter/../../../../src/core/lv_obj_style_gen.h **** 
 211:Drivers/lvgl/src/extra/widgets/meter/../../../../src/core/lv_obj_style_gen.h **** static inline lv_color_t lv_obj_get_style_bg_img_recolor(const struct _lv_obj_t * obj, uint32_t par
 212:Drivers/lvgl/src/extra/widgets/meter/../../../../src/core/lv_obj_style_gen.h **** {
 213:Drivers/lvgl/src/extra/widgets/meter/../../../../src/core/lv_obj_style_gen.h ****     lv_style_value_t v = lv_obj_get_style_prop(obj, part, LV_STYLE_BG_IMG_RECOLOR);
 214:Drivers/lvgl/src/extra/widgets/meter/../../../../src/core/lv_obj_style_gen.h ****     return v.color;
 215:Drivers/lvgl/src/extra/widgets/meter/../../../../src/core/lv_obj_style_gen.h **** }
 216:Drivers/lvgl/src/extra/widgets/meter/../../../../src/core/lv_obj_style_gen.h **** 
 217:Drivers/lvgl/src/extra/widgets/meter/../../../../src/core/lv_obj_style_gen.h **** static inline lv_color_t lv_obj_get_style_bg_img_recolor_filtered(const struct _lv_obj_t * obj, uin
 218:Drivers/lvgl/src/extra/widgets/meter/../../../../src/core/lv_obj_style_gen.h **** {
 219:Drivers/lvgl/src/extra/widgets/meter/../../../../src/core/lv_obj_style_gen.h ****     lv_style_value_t v = _lv_obj_style_apply_color_filter(obj, part, lv_obj_get_style_prop(obj, par
 220:Drivers/lvgl/src/extra/widgets/meter/../../../../src/core/lv_obj_style_gen.h ****     return v.color;
 221:Drivers/lvgl/src/extra/widgets/meter/../../../../src/core/lv_obj_style_gen.h **** }
 222:Drivers/lvgl/src/extra/widgets/meter/../../../../src/core/lv_obj_style_gen.h **** 
 223:Drivers/lvgl/src/extra/widgets/meter/../../../../src/core/lv_obj_style_gen.h **** static inline lv_opa_t lv_obj_get_style_bg_img_recolor_opa(const struct _lv_obj_t * obj, uint32_t p
 224:Drivers/lvgl/src/extra/widgets/meter/../../../../src/core/lv_obj_style_gen.h **** {
 225:Drivers/lvgl/src/extra/widgets/meter/../../../../src/core/lv_obj_style_gen.h ****     lv_style_value_t v = lv_obj_get_style_prop(obj, part, LV_STYLE_BG_IMG_RECOLOR_OPA);
 226:Drivers/lvgl/src/extra/widgets/meter/../../../../src/core/lv_obj_style_gen.h ****     return (lv_opa_t)v.num;
 227:Drivers/lvgl/src/extra/widgets/meter/../../../../src/core/lv_obj_style_gen.h **** }
 228:Drivers/lvgl/src/extra/widgets/meter/../../../../src/core/lv_obj_style_gen.h **** 
 229:Drivers/lvgl/src/extra/widgets/meter/../../../../src/core/lv_obj_style_gen.h **** static inline bool lv_obj_get_style_bg_img_tiled(const struct _lv_obj_t * obj, uint32_t part)
ARM GAS  /var/folders/lp/x54gwt890xv47sdkqj1k04q40000gn/T//ccVgM3G4.s 			page 19


 230:Drivers/lvgl/src/extra/widgets/meter/../../../../src/core/lv_obj_style_gen.h **** {
 231:Drivers/lvgl/src/extra/widgets/meter/../../../../src/core/lv_obj_style_gen.h ****     lv_style_value_t v = lv_obj_get_style_prop(obj, part, LV_STYLE_BG_IMG_TILED);
 232:Drivers/lvgl/src/extra/widgets/meter/../../../../src/core/lv_obj_style_gen.h ****     return (bool)v.num;
 233:Drivers/lvgl/src/extra/widgets/meter/../../../../src/core/lv_obj_style_gen.h **** }
 234:Drivers/lvgl/src/extra/widgets/meter/../../../../src/core/lv_obj_style_gen.h **** 
 235:Drivers/lvgl/src/extra/widgets/meter/../../../../src/core/lv_obj_style_gen.h **** static inline lv_color_t lv_obj_get_style_border_color(const struct _lv_obj_t * obj, uint32_t part)
 236:Drivers/lvgl/src/extra/widgets/meter/../../../../src/core/lv_obj_style_gen.h **** {
 237:Drivers/lvgl/src/extra/widgets/meter/../../../../src/core/lv_obj_style_gen.h ****     lv_style_value_t v = lv_obj_get_style_prop(obj, part, LV_STYLE_BORDER_COLOR);
 238:Drivers/lvgl/src/extra/widgets/meter/../../../../src/core/lv_obj_style_gen.h ****     return v.color;
 239:Drivers/lvgl/src/extra/widgets/meter/../../../../src/core/lv_obj_style_gen.h **** }
 240:Drivers/lvgl/src/extra/widgets/meter/../../../../src/core/lv_obj_style_gen.h **** 
 241:Drivers/lvgl/src/extra/widgets/meter/../../../../src/core/lv_obj_style_gen.h **** static inline lv_color_t lv_obj_get_style_border_color_filtered(const struct _lv_obj_t * obj, uint3
 242:Drivers/lvgl/src/extra/widgets/meter/../../../../src/core/lv_obj_style_gen.h **** {
 243:Drivers/lvgl/src/extra/widgets/meter/../../../../src/core/lv_obj_style_gen.h ****     lv_style_value_t v = _lv_obj_style_apply_color_filter(obj, part, lv_obj_get_style_prop(obj, par
 244:Drivers/lvgl/src/extra/widgets/meter/../../../../src/core/lv_obj_style_gen.h ****     return v.color;
 245:Drivers/lvgl/src/extra/widgets/meter/../../../../src/core/lv_obj_style_gen.h **** }
 246:Drivers/lvgl/src/extra/widgets/meter/../../../../src/core/lv_obj_style_gen.h **** 
 247:Drivers/lvgl/src/extra/widgets/meter/../../../../src/core/lv_obj_style_gen.h **** static inline lv_opa_t lv_obj_get_style_border_opa(const struct _lv_obj_t * obj, uint32_t part)
 248:Drivers/lvgl/src/extra/widgets/meter/../../../../src/core/lv_obj_style_gen.h **** {
 249:Drivers/lvgl/src/extra/widgets/meter/../../../../src/core/lv_obj_style_gen.h ****     lv_style_value_t v = lv_obj_get_style_prop(obj, part, LV_STYLE_BORDER_OPA);
 250:Drivers/lvgl/src/extra/widgets/meter/../../../../src/core/lv_obj_style_gen.h ****     return (lv_opa_t)v.num;
 251:Drivers/lvgl/src/extra/widgets/meter/../../../../src/core/lv_obj_style_gen.h **** }
 252:Drivers/lvgl/src/extra/widgets/meter/../../../../src/core/lv_obj_style_gen.h **** 
 253:Drivers/lvgl/src/extra/widgets/meter/../../../../src/core/lv_obj_style_gen.h **** static inline lv_coord_t lv_obj_get_style_border_width(const struct _lv_obj_t * obj, uint32_t part)
 254:Drivers/lvgl/src/extra/widgets/meter/../../../../src/core/lv_obj_style_gen.h **** {
 255:Drivers/lvgl/src/extra/widgets/meter/../../../../src/core/lv_obj_style_gen.h ****     lv_style_value_t v = lv_obj_get_style_prop(obj, part, LV_STYLE_BORDER_WIDTH);
 256:Drivers/lvgl/src/extra/widgets/meter/../../../../src/core/lv_obj_style_gen.h ****     return (lv_coord_t)v.num;
 257:Drivers/lvgl/src/extra/widgets/meter/../../../../src/core/lv_obj_style_gen.h **** }
 258:Drivers/lvgl/src/extra/widgets/meter/../../../../src/core/lv_obj_style_gen.h **** 
 259:Drivers/lvgl/src/extra/widgets/meter/../../../../src/core/lv_obj_style_gen.h **** static inline lv_border_side_t lv_obj_get_style_border_side(const struct _lv_obj_t * obj, uint32_t 
 260:Drivers/lvgl/src/extra/widgets/meter/../../../../src/core/lv_obj_style_gen.h **** {
 261:Drivers/lvgl/src/extra/widgets/meter/../../../../src/core/lv_obj_style_gen.h ****     lv_style_value_t v = lv_obj_get_style_prop(obj, part, LV_STYLE_BORDER_SIDE);
 262:Drivers/lvgl/src/extra/widgets/meter/../../../../src/core/lv_obj_style_gen.h ****     return (lv_border_side_t)v.num;
 263:Drivers/lvgl/src/extra/widgets/meter/../../../../src/core/lv_obj_style_gen.h **** }
 264:Drivers/lvgl/src/extra/widgets/meter/../../../../src/core/lv_obj_style_gen.h **** 
 265:Drivers/lvgl/src/extra/widgets/meter/../../../../src/core/lv_obj_style_gen.h **** static inline bool lv_obj_get_style_border_post(const struct _lv_obj_t * obj, uint32_t part)
 266:Drivers/lvgl/src/extra/widgets/meter/../../../../src/core/lv_obj_style_gen.h **** {
 267:Drivers/lvgl/src/extra/widgets/meter/../../../../src/core/lv_obj_style_gen.h ****     lv_style_value_t v = lv_obj_get_style_prop(obj, part, LV_STYLE_BORDER_POST);
 268:Drivers/lvgl/src/extra/widgets/meter/../../../../src/core/lv_obj_style_gen.h ****     return (bool)v.num;
 269:Drivers/lvgl/src/extra/widgets/meter/../../../../src/core/lv_obj_style_gen.h **** }
 270:Drivers/lvgl/src/extra/widgets/meter/../../../../src/core/lv_obj_style_gen.h **** 
 271:Drivers/lvgl/src/extra/widgets/meter/../../../../src/core/lv_obj_style_gen.h **** static inline lv_coord_t lv_obj_get_style_outline_width(const struct _lv_obj_t * obj, uint32_t part
 272:Drivers/lvgl/src/extra/widgets/meter/../../../../src/core/lv_obj_style_gen.h **** {
 273:Drivers/lvgl/src/extra/widgets/meter/../../../../src/core/lv_obj_style_gen.h ****     lv_style_value_t v = lv_obj_get_style_prop(obj, part, LV_STYLE_OUTLINE_WIDTH);
 274:Drivers/lvgl/src/extra/widgets/meter/../../../../src/core/lv_obj_style_gen.h ****     return (lv_coord_t)v.num;
 275:Drivers/lvgl/src/extra/widgets/meter/../../../../src/core/lv_obj_style_gen.h **** }
 276:Drivers/lvgl/src/extra/widgets/meter/../../../../src/core/lv_obj_style_gen.h **** 
 277:Drivers/lvgl/src/extra/widgets/meter/../../../../src/core/lv_obj_style_gen.h **** static inline lv_color_t lv_obj_get_style_outline_color(const struct _lv_obj_t * obj, uint32_t part
 278:Drivers/lvgl/src/extra/widgets/meter/../../../../src/core/lv_obj_style_gen.h **** {
 279:Drivers/lvgl/src/extra/widgets/meter/../../../../src/core/lv_obj_style_gen.h ****     lv_style_value_t v = lv_obj_get_style_prop(obj, part, LV_STYLE_OUTLINE_COLOR);
 280:Drivers/lvgl/src/extra/widgets/meter/../../../../src/core/lv_obj_style_gen.h ****     return v.color;
 281:Drivers/lvgl/src/extra/widgets/meter/../../../../src/core/lv_obj_style_gen.h **** }
 282:Drivers/lvgl/src/extra/widgets/meter/../../../../src/core/lv_obj_style_gen.h **** 
 283:Drivers/lvgl/src/extra/widgets/meter/../../../../src/core/lv_obj_style_gen.h **** static inline lv_color_t lv_obj_get_style_outline_color_filtered(const struct _lv_obj_t * obj, uint
 284:Drivers/lvgl/src/extra/widgets/meter/../../../../src/core/lv_obj_style_gen.h **** {
 285:Drivers/lvgl/src/extra/widgets/meter/../../../../src/core/lv_obj_style_gen.h ****     lv_style_value_t v = _lv_obj_style_apply_color_filter(obj, part, lv_obj_get_style_prop(obj, par
 286:Drivers/lvgl/src/extra/widgets/meter/../../../../src/core/lv_obj_style_gen.h ****     return v.color;
ARM GAS  /var/folders/lp/x54gwt890xv47sdkqj1k04q40000gn/T//ccVgM3G4.s 			page 20


 287:Drivers/lvgl/src/extra/widgets/meter/../../../../src/core/lv_obj_style_gen.h **** }
 288:Drivers/lvgl/src/extra/widgets/meter/../../../../src/core/lv_obj_style_gen.h **** 
 289:Drivers/lvgl/src/extra/widgets/meter/../../../../src/core/lv_obj_style_gen.h **** static inline lv_opa_t lv_obj_get_style_outline_opa(const struct _lv_obj_t * obj, uint32_t part)
 290:Drivers/lvgl/src/extra/widgets/meter/../../../../src/core/lv_obj_style_gen.h **** {
 291:Drivers/lvgl/src/extra/widgets/meter/../../../../src/core/lv_obj_style_gen.h ****     lv_style_value_t v = lv_obj_get_style_prop(obj, part, LV_STYLE_OUTLINE_OPA);
 292:Drivers/lvgl/src/extra/widgets/meter/../../../../src/core/lv_obj_style_gen.h ****     return (lv_opa_t)v.num;
 293:Drivers/lvgl/src/extra/widgets/meter/../../../../src/core/lv_obj_style_gen.h **** }
 294:Drivers/lvgl/src/extra/widgets/meter/../../../../src/core/lv_obj_style_gen.h **** 
 295:Drivers/lvgl/src/extra/widgets/meter/../../../../src/core/lv_obj_style_gen.h **** static inline lv_coord_t lv_obj_get_style_outline_pad(const struct _lv_obj_t * obj, uint32_t part)
 296:Drivers/lvgl/src/extra/widgets/meter/../../../../src/core/lv_obj_style_gen.h **** {
 297:Drivers/lvgl/src/extra/widgets/meter/../../../../src/core/lv_obj_style_gen.h ****     lv_style_value_t v = lv_obj_get_style_prop(obj, part, LV_STYLE_OUTLINE_PAD);
 298:Drivers/lvgl/src/extra/widgets/meter/../../../../src/core/lv_obj_style_gen.h ****     return (lv_coord_t)v.num;
 299:Drivers/lvgl/src/extra/widgets/meter/../../../../src/core/lv_obj_style_gen.h **** }
 300:Drivers/lvgl/src/extra/widgets/meter/../../../../src/core/lv_obj_style_gen.h **** 
 301:Drivers/lvgl/src/extra/widgets/meter/../../../../src/core/lv_obj_style_gen.h **** static inline lv_coord_t lv_obj_get_style_shadow_width(const struct _lv_obj_t * obj, uint32_t part)
 302:Drivers/lvgl/src/extra/widgets/meter/../../../../src/core/lv_obj_style_gen.h **** {
 303:Drivers/lvgl/src/extra/widgets/meter/../../../../src/core/lv_obj_style_gen.h ****     lv_style_value_t v = lv_obj_get_style_prop(obj, part, LV_STYLE_SHADOW_WIDTH);
 304:Drivers/lvgl/src/extra/widgets/meter/../../../../src/core/lv_obj_style_gen.h ****     return (lv_coord_t)v.num;
 305:Drivers/lvgl/src/extra/widgets/meter/../../../../src/core/lv_obj_style_gen.h **** }
 306:Drivers/lvgl/src/extra/widgets/meter/../../../../src/core/lv_obj_style_gen.h **** 
 307:Drivers/lvgl/src/extra/widgets/meter/../../../../src/core/lv_obj_style_gen.h **** static inline lv_coord_t lv_obj_get_style_shadow_ofs_x(const struct _lv_obj_t * obj, uint32_t part)
 308:Drivers/lvgl/src/extra/widgets/meter/../../../../src/core/lv_obj_style_gen.h **** {
 309:Drivers/lvgl/src/extra/widgets/meter/../../../../src/core/lv_obj_style_gen.h ****     lv_style_value_t v = lv_obj_get_style_prop(obj, part, LV_STYLE_SHADOW_OFS_X);
 310:Drivers/lvgl/src/extra/widgets/meter/../../../../src/core/lv_obj_style_gen.h ****     return (lv_coord_t)v.num;
 311:Drivers/lvgl/src/extra/widgets/meter/../../../../src/core/lv_obj_style_gen.h **** }
 312:Drivers/lvgl/src/extra/widgets/meter/../../../../src/core/lv_obj_style_gen.h **** 
 313:Drivers/lvgl/src/extra/widgets/meter/../../../../src/core/lv_obj_style_gen.h **** static inline lv_coord_t lv_obj_get_style_shadow_ofs_y(const struct _lv_obj_t * obj, uint32_t part)
 314:Drivers/lvgl/src/extra/widgets/meter/../../../../src/core/lv_obj_style_gen.h **** {
 315:Drivers/lvgl/src/extra/widgets/meter/../../../../src/core/lv_obj_style_gen.h ****     lv_style_value_t v = lv_obj_get_style_prop(obj, part, LV_STYLE_SHADOW_OFS_Y);
 316:Drivers/lvgl/src/extra/widgets/meter/../../../../src/core/lv_obj_style_gen.h ****     return (lv_coord_t)v.num;
 317:Drivers/lvgl/src/extra/widgets/meter/../../../../src/core/lv_obj_style_gen.h **** }
 318:Drivers/lvgl/src/extra/widgets/meter/../../../../src/core/lv_obj_style_gen.h **** 
 319:Drivers/lvgl/src/extra/widgets/meter/../../../../src/core/lv_obj_style_gen.h **** static inline lv_coord_t lv_obj_get_style_shadow_spread(const struct _lv_obj_t * obj, uint32_t part
 320:Drivers/lvgl/src/extra/widgets/meter/../../../../src/core/lv_obj_style_gen.h **** {
 321:Drivers/lvgl/src/extra/widgets/meter/../../../../src/core/lv_obj_style_gen.h ****     lv_style_value_t v = lv_obj_get_style_prop(obj, part, LV_STYLE_SHADOW_SPREAD);
 322:Drivers/lvgl/src/extra/widgets/meter/../../../../src/core/lv_obj_style_gen.h ****     return (lv_coord_t)v.num;
 323:Drivers/lvgl/src/extra/widgets/meter/../../../../src/core/lv_obj_style_gen.h **** }
 324:Drivers/lvgl/src/extra/widgets/meter/../../../../src/core/lv_obj_style_gen.h **** 
 325:Drivers/lvgl/src/extra/widgets/meter/../../../../src/core/lv_obj_style_gen.h **** static inline lv_color_t lv_obj_get_style_shadow_color(const struct _lv_obj_t * obj, uint32_t part)
 326:Drivers/lvgl/src/extra/widgets/meter/../../../../src/core/lv_obj_style_gen.h **** {
 327:Drivers/lvgl/src/extra/widgets/meter/../../../../src/core/lv_obj_style_gen.h ****     lv_style_value_t v = lv_obj_get_style_prop(obj, part, LV_STYLE_SHADOW_COLOR);
 328:Drivers/lvgl/src/extra/widgets/meter/../../../../src/core/lv_obj_style_gen.h ****     return v.color;
 329:Drivers/lvgl/src/extra/widgets/meter/../../../../src/core/lv_obj_style_gen.h **** }
 330:Drivers/lvgl/src/extra/widgets/meter/../../../../src/core/lv_obj_style_gen.h **** 
 331:Drivers/lvgl/src/extra/widgets/meter/../../../../src/core/lv_obj_style_gen.h **** static inline lv_color_t lv_obj_get_style_shadow_color_filtered(const struct _lv_obj_t * obj, uint3
 332:Drivers/lvgl/src/extra/widgets/meter/../../../../src/core/lv_obj_style_gen.h **** {
 333:Drivers/lvgl/src/extra/widgets/meter/../../../../src/core/lv_obj_style_gen.h ****     lv_style_value_t v = _lv_obj_style_apply_color_filter(obj, part, lv_obj_get_style_prop(obj, par
 334:Drivers/lvgl/src/extra/widgets/meter/../../../../src/core/lv_obj_style_gen.h ****     return v.color;
 335:Drivers/lvgl/src/extra/widgets/meter/../../../../src/core/lv_obj_style_gen.h **** }
 336:Drivers/lvgl/src/extra/widgets/meter/../../../../src/core/lv_obj_style_gen.h **** 
 337:Drivers/lvgl/src/extra/widgets/meter/../../../../src/core/lv_obj_style_gen.h **** static inline lv_opa_t lv_obj_get_style_shadow_opa(const struct _lv_obj_t * obj, uint32_t part)
 338:Drivers/lvgl/src/extra/widgets/meter/../../../../src/core/lv_obj_style_gen.h **** {
 339:Drivers/lvgl/src/extra/widgets/meter/../../../../src/core/lv_obj_style_gen.h ****     lv_style_value_t v = lv_obj_get_style_prop(obj, part, LV_STYLE_SHADOW_OPA);
 340:Drivers/lvgl/src/extra/widgets/meter/../../../../src/core/lv_obj_style_gen.h ****     return (lv_opa_t)v.num;
 341:Drivers/lvgl/src/extra/widgets/meter/../../../../src/core/lv_obj_style_gen.h **** }
 342:Drivers/lvgl/src/extra/widgets/meter/../../../../src/core/lv_obj_style_gen.h **** 
 343:Drivers/lvgl/src/extra/widgets/meter/../../../../src/core/lv_obj_style_gen.h **** static inline lv_opa_t lv_obj_get_style_img_opa(const struct _lv_obj_t * obj, uint32_t part)
ARM GAS  /var/folders/lp/x54gwt890xv47sdkqj1k04q40000gn/T//ccVgM3G4.s 			page 21


 344:Drivers/lvgl/src/extra/widgets/meter/../../../../src/core/lv_obj_style_gen.h **** {
 345:Drivers/lvgl/src/extra/widgets/meter/../../../../src/core/lv_obj_style_gen.h ****     lv_style_value_t v = lv_obj_get_style_prop(obj, part, LV_STYLE_IMG_OPA);
 346:Drivers/lvgl/src/extra/widgets/meter/../../../../src/core/lv_obj_style_gen.h ****     return (lv_opa_t)v.num;
 347:Drivers/lvgl/src/extra/widgets/meter/../../../../src/core/lv_obj_style_gen.h **** }
 348:Drivers/lvgl/src/extra/widgets/meter/../../../../src/core/lv_obj_style_gen.h **** 
 349:Drivers/lvgl/src/extra/widgets/meter/../../../../src/core/lv_obj_style_gen.h **** static inline lv_color_t lv_obj_get_style_img_recolor(const struct _lv_obj_t * obj, uint32_t part)
 350:Drivers/lvgl/src/extra/widgets/meter/../../../../src/core/lv_obj_style_gen.h **** {
 351:Drivers/lvgl/src/extra/widgets/meter/../../../../src/core/lv_obj_style_gen.h ****     lv_style_value_t v = lv_obj_get_style_prop(obj, part, LV_STYLE_IMG_RECOLOR);
 352:Drivers/lvgl/src/extra/widgets/meter/../../../../src/core/lv_obj_style_gen.h ****     return v.color;
 353:Drivers/lvgl/src/extra/widgets/meter/../../../../src/core/lv_obj_style_gen.h **** }
 354:Drivers/lvgl/src/extra/widgets/meter/../../../../src/core/lv_obj_style_gen.h **** 
 355:Drivers/lvgl/src/extra/widgets/meter/../../../../src/core/lv_obj_style_gen.h **** static inline lv_color_t lv_obj_get_style_img_recolor_filtered(const struct _lv_obj_t * obj, uint32
 356:Drivers/lvgl/src/extra/widgets/meter/../../../../src/core/lv_obj_style_gen.h **** {
 357:Drivers/lvgl/src/extra/widgets/meter/../../../../src/core/lv_obj_style_gen.h ****     lv_style_value_t v = _lv_obj_style_apply_color_filter(obj, part, lv_obj_get_style_prop(obj, par
 358:Drivers/lvgl/src/extra/widgets/meter/../../../../src/core/lv_obj_style_gen.h ****     return v.color;
 359:Drivers/lvgl/src/extra/widgets/meter/../../../../src/core/lv_obj_style_gen.h **** }
 360:Drivers/lvgl/src/extra/widgets/meter/../../../../src/core/lv_obj_style_gen.h **** 
 361:Drivers/lvgl/src/extra/widgets/meter/../../../../src/core/lv_obj_style_gen.h **** static inline lv_opa_t lv_obj_get_style_img_recolor_opa(const struct _lv_obj_t * obj, uint32_t part
 362:Drivers/lvgl/src/extra/widgets/meter/../../../../src/core/lv_obj_style_gen.h **** {
 363:Drivers/lvgl/src/extra/widgets/meter/../../../../src/core/lv_obj_style_gen.h ****     lv_style_value_t v = lv_obj_get_style_prop(obj, part, LV_STYLE_IMG_RECOLOR_OPA);
 364:Drivers/lvgl/src/extra/widgets/meter/../../../../src/core/lv_obj_style_gen.h ****     return (lv_opa_t)v.num;
 365:Drivers/lvgl/src/extra/widgets/meter/../../../../src/core/lv_obj_style_gen.h **** }
 366:Drivers/lvgl/src/extra/widgets/meter/../../../../src/core/lv_obj_style_gen.h **** 
 367:Drivers/lvgl/src/extra/widgets/meter/../../../../src/core/lv_obj_style_gen.h **** static inline lv_coord_t lv_obj_get_style_line_width(const struct _lv_obj_t * obj, uint32_t part)
 368:Drivers/lvgl/src/extra/widgets/meter/../../../../src/core/lv_obj_style_gen.h **** {
 369:Drivers/lvgl/src/extra/widgets/meter/../../../../src/core/lv_obj_style_gen.h ****     lv_style_value_t v = lv_obj_get_style_prop(obj, part, LV_STYLE_LINE_WIDTH);
 370:Drivers/lvgl/src/extra/widgets/meter/../../../../src/core/lv_obj_style_gen.h ****     return (lv_coord_t)v.num;
 371:Drivers/lvgl/src/extra/widgets/meter/../../../../src/core/lv_obj_style_gen.h **** }
 372:Drivers/lvgl/src/extra/widgets/meter/../../../../src/core/lv_obj_style_gen.h **** 
 373:Drivers/lvgl/src/extra/widgets/meter/../../../../src/core/lv_obj_style_gen.h **** static inline lv_coord_t lv_obj_get_style_line_dash_width(const struct _lv_obj_t * obj, uint32_t pa
 374:Drivers/lvgl/src/extra/widgets/meter/../../../../src/core/lv_obj_style_gen.h **** {
 375:Drivers/lvgl/src/extra/widgets/meter/../../../../src/core/lv_obj_style_gen.h ****     lv_style_value_t v = lv_obj_get_style_prop(obj, part, LV_STYLE_LINE_DASH_WIDTH);
 376:Drivers/lvgl/src/extra/widgets/meter/../../../../src/core/lv_obj_style_gen.h ****     return (lv_coord_t)v.num;
 377:Drivers/lvgl/src/extra/widgets/meter/../../../../src/core/lv_obj_style_gen.h **** }
 378:Drivers/lvgl/src/extra/widgets/meter/../../../../src/core/lv_obj_style_gen.h **** 
 379:Drivers/lvgl/src/extra/widgets/meter/../../../../src/core/lv_obj_style_gen.h **** static inline lv_coord_t lv_obj_get_style_line_dash_gap(const struct _lv_obj_t * obj, uint32_t part
 380:Drivers/lvgl/src/extra/widgets/meter/../../../../src/core/lv_obj_style_gen.h **** {
 381:Drivers/lvgl/src/extra/widgets/meter/../../../../src/core/lv_obj_style_gen.h ****     lv_style_value_t v = lv_obj_get_style_prop(obj, part, LV_STYLE_LINE_DASH_GAP);
 382:Drivers/lvgl/src/extra/widgets/meter/../../../../src/core/lv_obj_style_gen.h ****     return (lv_coord_t)v.num;
 383:Drivers/lvgl/src/extra/widgets/meter/../../../../src/core/lv_obj_style_gen.h **** }
 384:Drivers/lvgl/src/extra/widgets/meter/../../../../src/core/lv_obj_style_gen.h **** 
 385:Drivers/lvgl/src/extra/widgets/meter/../../../../src/core/lv_obj_style_gen.h **** static inline bool lv_obj_get_style_line_rounded(const struct _lv_obj_t * obj, uint32_t part)
 386:Drivers/lvgl/src/extra/widgets/meter/../../../../src/core/lv_obj_style_gen.h **** {
 387:Drivers/lvgl/src/extra/widgets/meter/../../../../src/core/lv_obj_style_gen.h ****     lv_style_value_t v = lv_obj_get_style_prop(obj, part, LV_STYLE_LINE_ROUNDED);
 388:Drivers/lvgl/src/extra/widgets/meter/../../../../src/core/lv_obj_style_gen.h ****     return (bool)v.num;
 389:Drivers/lvgl/src/extra/widgets/meter/../../../../src/core/lv_obj_style_gen.h **** }
 390:Drivers/lvgl/src/extra/widgets/meter/../../../../src/core/lv_obj_style_gen.h **** 
 391:Drivers/lvgl/src/extra/widgets/meter/../../../../src/core/lv_obj_style_gen.h **** static inline lv_color_t lv_obj_get_style_line_color(const struct _lv_obj_t * obj, uint32_t part)
 392:Drivers/lvgl/src/extra/widgets/meter/../../../../src/core/lv_obj_style_gen.h **** {
 393:Drivers/lvgl/src/extra/widgets/meter/../../../../src/core/lv_obj_style_gen.h ****     lv_style_value_t v = lv_obj_get_style_prop(obj, part, LV_STYLE_LINE_COLOR);
 394:Drivers/lvgl/src/extra/widgets/meter/../../../../src/core/lv_obj_style_gen.h ****     return v.color;
 395:Drivers/lvgl/src/extra/widgets/meter/../../../../src/core/lv_obj_style_gen.h **** }
 396:Drivers/lvgl/src/extra/widgets/meter/../../../../src/core/lv_obj_style_gen.h **** 
 397:Drivers/lvgl/src/extra/widgets/meter/../../../../src/core/lv_obj_style_gen.h **** static inline lv_color_t lv_obj_get_style_line_color_filtered(const struct _lv_obj_t * obj, uint32_
 398:Drivers/lvgl/src/extra/widgets/meter/../../../../src/core/lv_obj_style_gen.h **** {
 399:Drivers/lvgl/src/extra/widgets/meter/../../../../src/core/lv_obj_style_gen.h ****     lv_style_value_t v = _lv_obj_style_apply_color_filter(obj, part, lv_obj_get_style_prop(obj, par
 400:Drivers/lvgl/src/extra/widgets/meter/../../../../src/core/lv_obj_style_gen.h ****     return v.color;
ARM GAS  /var/folders/lp/x54gwt890xv47sdkqj1k04q40000gn/T//ccVgM3G4.s 			page 22


 401:Drivers/lvgl/src/extra/widgets/meter/../../../../src/core/lv_obj_style_gen.h **** }
 402:Drivers/lvgl/src/extra/widgets/meter/../../../../src/core/lv_obj_style_gen.h **** 
 403:Drivers/lvgl/src/extra/widgets/meter/../../../../src/core/lv_obj_style_gen.h **** static inline lv_opa_t lv_obj_get_style_line_opa(const struct _lv_obj_t * obj, uint32_t part)
 404:Drivers/lvgl/src/extra/widgets/meter/../../../../src/core/lv_obj_style_gen.h **** {
 405:Drivers/lvgl/src/extra/widgets/meter/../../../../src/core/lv_obj_style_gen.h ****     lv_style_value_t v = lv_obj_get_style_prop(obj, part, LV_STYLE_LINE_OPA);
 406:Drivers/lvgl/src/extra/widgets/meter/../../../../src/core/lv_obj_style_gen.h ****     return (lv_opa_t)v.num;
 407:Drivers/lvgl/src/extra/widgets/meter/../../../../src/core/lv_obj_style_gen.h **** }
 408:Drivers/lvgl/src/extra/widgets/meter/../../../../src/core/lv_obj_style_gen.h **** 
 409:Drivers/lvgl/src/extra/widgets/meter/../../../../src/core/lv_obj_style_gen.h **** static inline lv_coord_t lv_obj_get_style_arc_width(const struct _lv_obj_t * obj, uint32_t part)
 410:Drivers/lvgl/src/extra/widgets/meter/../../../../src/core/lv_obj_style_gen.h **** {
 411:Drivers/lvgl/src/extra/widgets/meter/../../../../src/core/lv_obj_style_gen.h ****     lv_style_value_t v = lv_obj_get_style_prop(obj, part, LV_STYLE_ARC_WIDTH);
 412:Drivers/lvgl/src/extra/widgets/meter/../../../../src/core/lv_obj_style_gen.h ****     return (lv_coord_t)v.num;
 413:Drivers/lvgl/src/extra/widgets/meter/../../../../src/core/lv_obj_style_gen.h **** }
 414:Drivers/lvgl/src/extra/widgets/meter/../../../../src/core/lv_obj_style_gen.h **** 
 415:Drivers/lvgl/src/extra/widgets/meter/../../../../src/core/lv_obj_style_gen.h **** static inline bool lv_obj_get_style_arc_rounded(const struct _lv_obj_t * obj, uint32_t part)
 416:Drivers/lvgl/src/extra/widgets/meter/../../../../src/core/lv_obj_style_gen.h **** {
 417:Drivers/lvgl/src/extra/widgets/meter/../../../../src/core/lv_obj_style_gen.h ****     lv_style_value_t v = lv_obj_get_style_prop(obj, part, LV_STYLE_ARC_ROUNDED);
 153              		.loc 2 417 26 view .LVU31
 154 000a 4FF4A021 		mov	r1, #327680
 155              	.LVL14:
 156              		.loc 2 417 26 view .LVU32
 157 000e 5122     		movs	r2, #81
 158              	.LVL15:
 159              		.loc 2 417 26 view .LVU33
 160              	.LBE51:
 161              	.LBE50:
 630:Drivers/lvgl/src/extra/widgets/meter/lv_meter.c ****     bool rounded = lv_obj_get_style_arc_rounded(obj, LV_PART_ITEMS);
 162              		.loc 1 630 1 view .LVU34
 163 0010 8146     		mov	r9, r0
 164              	.LVL16:
 165              	.LBB56:
 166              	.LBI50:
 415:Drivers/lvgl/src/extra/widgets/meter/../../../../src/core/lv_obj_style_gen.h **** {
 167              		.loc 2 415 20 is_stmt 1 view .LVU35
 168              	.LBB52:
 169              		.loc 2 417 5 view .LVU36
 170              	.LBE52:
 171              	.LBE56:
 630:Drivers/lvgl/src/extra/widgets/meter/lv_meter.c ****     bool rounded = lv_obj_get_style_arc_rounded(obj, LV_PART_ITEMS);
 172              		.loc 1 630 1 is_stmt 0 view .LVU37
 173 0012 9A46     		mov	r10, r3
 174              	.LBB57:
 175              	.LBB53:
 176              		.loc 2 417 26 view .LVU38
 177 0014 FFF7FEFF 		bl	lv_obj_get_style_prop
 178              	.LVL17:
 418:Drivers/lvgl/src/extra/widgets/meter/../../../../src/core/lv_obj_style_gen.h ****     return (bool)v.num;
 179              		.loc 2 418 5 is_stmt 1 view .LVU39
 180              		.loc 2 418 5 is_stmt 0 view .LVU40
 181              	.LBE53:
 182              	.LBE57:
 632:Drivers/lvgl/src/extra/widgets/meter/lv_meter.c **** 
 633:Drivers/lvgl/src/extra/widgets/meter/lv_meter.c ****     lv_area_t scale_area;
 183              		.loc 1 633 5 is_stmt 1 view .LVU41
 634:Drivers/lvgl/src/extra/widgets/meter/lv_meter.c ****     lv_obj_get_content_coords(obj, &scale_area);
 184              		.loc 1 634 5 view .LVU42
 185              	.LBB58:
ARM GAS  /var/folders/lp/x54gwt890xv47sdkqj1k04q40000gn/T//ccVgM3G4.s 			page 23


 186              	.LBB54:
 187              		.loc 2 418 12 is_stmt 0 view .LVU43
 188 0018 031E     		subs	r3, r0, #0
 189 001a 18BF     		it	ne
 190 001c 0123     		movne	r3, #1
 191              	.LBE54:
 192              	.LBE58:
 193              		.loc 1 634 5 view .LVU44
 194 001e 06A9     		add	r1, sp, #24
 195 0020 4846     		mov	r0, r9
 196              	.LBB59:
 197              	.LBB55:
 198              		.loc 2 418 12 view .LVU45
 199 0022 0593     		str	r3, [sp, #20]
 200              	.LVL18:
 201              		.loc 2 418 12 view .LVU46
 202              	.LBE55:
 203              	.LBE59:
 204              		.loc 1 634 5 view .LVU47
 205 0024 FFF7FEFF 		bl	lv_obj_get_content_coords
 206              	.LVL19:
 635:Drivers/lvgl/src/extra/widgets/meter/lv_meter.c **** 
 636:Drivers/lvgl/src/extra/widgets/meter/lv_meter.c ****     lv_coord_t r_out = lv_area_get_width(&scale_area) / 2;
 207              		.loc 1 636 5 is_stmt 1 view .LVU48
 208              	.LBB60:
 209              	.LBI60:
 210              		.file 3 "Drivers/lvgl/src/extra/widgets/meter/../../../../src/hal/../draw/../misc/../font/../misc/
   1:Drivers/lvgl/src/extra/widgets/meter/../../../../src/hal/../draw/../misc/../font/../misc/lv_area.h **** /**
   2:Drivers/lvgl/src/extra/widgets/meter/../../../../src/hal/../draw/../misc/../font/../misc/lv_area.h ****  * @file lv_area.h
   3:Drivers/lvgl/src/extra/widgets/meter/../../../../src/hal/../draw/../misc/../font/../misc/lv_area.h ****  *
   4:Drivers/lvgl/src/extra/widgets/meter/../../../../src/hal/../draw/../misc/../font/../misc/lv_area.h ****  */
   5:Drivers/lvgl/src/extra/widgets/meter/../../../../src/hal/../draw/../misc/../font/../misc/lv_area.h **** 
   6:Drivers/lvgl/src/extra/widgets/meter/../../../../src/hal/../draw/../misc/../font/../misc/lv_area.h **** #ifndef LV_AREA_H
   7:Drivers/lvgl/src/extra/widgets/meter/../../../../src/hal/../draw/../misc/../font/../misc/lv_area.h **** #define LV_AREA_H
   8:Drivers/lvgl/src/extra/widgets/meter/../../../../src/hal/../draw/../misc/../font/../misc/lv_area.h **** 
   9:Drivers/lvgl/src/extra/widgets/meter/../../../../src/hal/../draw/../misc/../font/../misc/lv_area.h **** #ifdef __cplusplus
  10:Drivers/lvgl/src/extra/widgets/meter/../../../../src/hal/../draw/../misc/../font/../misc/lv_area.h **** extern "C" {
  11:Drivers/lvgl/src/extra/widgets/meter/../../../../src/hal/../draw/../misc/../font/../misc/lv_area.h **** #endif
  12:Drivers/lvgl/src/extra/widgets/meter/../../../../src/hal/../draw/../misc/../font/../misc/lv_area.h **** 
  13:Drivers/lvgl/src/extra/widgets/meter/../../../../src/hal/../draw/../misc/../font/../misc/lv_area.h **** /*********************
  14:Drivers/lvgl/src/extra/widgets/meter/../../../../src/hal/../draw/../misc/../font/../misc/lv_area.h ****  *      INCLUDES
  15:Drivers/lvgl/src/extra/widgets/meter/../../../../src/hal/../draw/../misc/../font/../misc/lv_area.h ****  *********************/
  16:Drivers/lvgl/src/extra/widgets/meter/../../../../src/hal/../draw/../misc/../font/../misc/lv_area.h **** #include "../lv_conf_internal.h"
  17:Drivers/lvgl/src/extra/widgets/meter/../../../../src/hal/../draw/../misc/../font/../misc/lv_area.h **** #include <stdbool.h>
  18:Drivers/lvgl/src/extra/widgets/meter/../../../../src/hal/../draw/../misc/../font/../misc/lv_area.h **** #include <stdint.h>
  19:Drivers/lvgl/src/extra/widgets/meter/../../../../src/hal/../draw/../misc/../font/../misc/lv_area.h **** 
  20:Drivers/lvgl/src/extra/widgets/meter/../../../../src/hal/../draw/../misc/../font/../misc/lv_area.h **** /*********************
  21:Drivers/lvgl/src/extra/widgets/meter/../../../../src/hal/../draw/../misc/../font/../misc/lv_area.h ****  *      DEFINES
  22:Drivers/lvgl/src/extra/widgets/meter/../../../../src/hal/../draw/../misc/../font/../misc/lv_area.h ****  *********************/
  23:Drivers/lvgl/src/extra/widgets/meter/../../../../src/hal/../draw/../misc/../font/../misc/lv_area.h **** 
  24:Drivers/lvgl/src/extra/widgets/meter/../../../../src/hal/../draw/../misc/../font/../misc/lv_area.h **** #if LV_USE_LARGE_COORD
  25:Drivers/lvgl/src/extra/widgets/meter/../../../../src/hal/../draw/../misc/../font/../misc/lv_area.h **** typedef int32_t lv_coord_t;
  26:Drivers/lvgl/src/extra/widgets/meter/../../../../src/hal/../draw/../misc/../font/../misc/lv_area.h **** #else
  27:Drivers/lvgl/src/extra/widgets/meter/../../../../src/hal/../draw/../misc/../font/../misc/lv_area.h **** typedef int16_t lv_coord_t;
  28:Drivers/lvgl/src/extra/widgets/meter/../../../../src/hal/../draw/../misc/../font/../misc/lv_area.h **** #endif
  29:Drivers/lvgl/src/extra/widgets/meter/../../../../src/hal/../draw/../misc/../font/../misc/lv_area.h **** 
  30:Drivers/lvgl/src/extra/widgets/meter/../../../../src/hal/../draw/../misc/../font/../misc/lv_area.h **** /**********************
ARM GAS  /var/folders/lp/x54gwt890xv47sdkqj1k04q40000gn/T//ccVgM3G4.s 			page 24


  31:Drivers/lvgl/src/extra/widgets/meter/../../../../src/hal/../draw/../misc/../font/../misc/lv_area.h ****  *      TYPEDEFS
  32:Drivers/lvgl/src/extra/widgets/meter/../../../../src/hal/../draw/../misc/../font/../misc/lv_area.h ****  **********************/
  33:Drivers/lvgl/src/extra/widgets/meter/../../../../src/hal/../draw/../misc/../font/../misc/lv_area.h **** 
  34:Drivers/lvgl/src/extra/widgets/meter/../../../../src/hal/../draw/../misc/../font/../misc/lv_area.h **** /**
  35:Drivers/lvgl/src/extra/widgets/meter/../../../../src/hal/../draw/../misc/../font/../misc/lv_area.h ****  * Represents a point on the screen.
  36:Drivers/lvgl/src/extra/widgets/meter/../../../../src/hal/../draw/../misc/../font/../misc/lv_area.h ****  */
  37:Drivers/lvgl/src/extra/widgets/meter/../../../../src/hal/../draw/../misc/../font/../misc/lv_area.h **** typedef struct {
  38:Drivers/lvgl/src/extra/widgets/meter/../../../../src/hal/../draw/../misc/../font/../misc/lv_area.h ****     lv_coord_t x;
  39:Drivers/lvgl/src/extra/widgets/meter/../../../../src/hal/../draw/../misc/../font/../misc/lv_area.h ****     lv_coord_t y;
  40:Drivers/lvgl/src/extra/widgets/meter/../../../../src/hal/../draw/../misc/../font/../misc/lv_area.h **** } lv_point_t;
  41:Drivers/lvgl/src/extra/widgets/meter/../../../../src/hal/../draw/../misc/../font/../misc/lv_area.h **** 
  42:Drivers/lvgl/src/extra/widgets/meter/../../../../src/hal/../draw/../misc/../font/../misc/lv_area.h **** /** Represents an area of the screen.*/
  43:Drivers/lvgl/src/extra/widgets/meter/../../../../src/hal/../draw/../misc/../font/../misc/lv_area.h **** typedef struct {
  44:Drivers/lvgl/src/extra/widgets/meter/../../../../src/hal/../draw/../misc/../font/../misc/lv_area.h ****     lv_coord_t x1;
  45:Drivers/lvgl/src/extra/widgets/meter/../../../../src/hal/../draw/../misc/../font/../misc/lv_area.h ****     lv_coord_t y1;
  46:Drivers/lvgl/src/extra/widgets/meter/../../../../src/hal/../draw/../misc/../font/../misc/lv_area.h ****     lv_coord_t x2;
  47:Drivers/lvgl/src/extra/widgets/meter/../../../../src/hal/../draw/../misc/../font/../misc/lv_area.h ****     lv_coord_t y2;
  48:Drivers/lvgl/src/extra/widgets/meter/../../../../src/hal/../draw/../misc/../font/../misc/lv_area.h **** } lv_area_t;
  49:Drivers/lvgl/src/extra/widgets/meter/../../../../src/hal/../draw/../misc/../font/../misc/lv_area.h **** 
  50:Drivers/lvgl/src/extra/widgets/meter/../../../../src/hal/../draw/../misc/../font/../misc/lv_area.h **** /** Alignments*/
  51:Drivers/lvgl/src/extra/widgets/meter/../../../../src/hal/../draw/../misc/../font/../misc/lv_area.h **** enum {
  52:Drivers/lvgl/src/extra/widgets/meter/../../../../src/hal/../draw/../misc/../font/../misc/lv_area.h ****     LV_ALIGN_DEFAULT = 0,
  53:Drivers/lvgl/src/extra/widgets/meter/../../../../src/hal/../draw/../misc/../font/../misc/lv_area.h ****     LV_ALIGN_TOP_LEFT,
  54:Drivers/lvgl/src/extra/widgets/meter/../../../../src/hal/../draw/../misc/../font/../misc/lv_area.h ****     LV_ALIGN_TOP_MID,
  55:Drivers/lvgl/src/extra/widgets/meter/../../../../src/hal/../draw/../misc/../font/../misc/lv_area.h ****     LV_ALIGN_TOP_RIGHT,
  56:Drivers/lvgl/src/extra/widgets/meter/../../../../src/hal/../draw/../misc/../font/../misc/lv_area.h ****     LV_ALIGN_BOTTOM_LEFT,
  57:Drivers/lvgl/src/extra/widgets/meter/../../../../src/hal/../draw/../misc/../font/../misc/lv_area.h ****     LV_ALIGN_BOTTOM_MID,
  58:Drivers/lvgl/src/extra/widgets/meter/../../../../src/hal/../draw/../misc/../font/../misc/lv_area.h ****     LV_ALIGN_BOTTOM_RIGHT,
  59:Drivers/lvgl/src/extra/widgets/meter/../../../../src/hal/../draw/../misc/../font/../misc/lv_area.h ****     LV_ALIGN_LEFT_MID,
  60:Drivers/lvgl/src/extra/widgets/meter/../../../../src/hal/../draw/../misc/../font/../misc/lv_area.h ****     LV_ALIGN_RIGHT_MID,
  61:Drivers/lvgl/src/extra/widgets/meter/../../../../src/hal/../draw/../misc/../font/../misc/lv_area.h ****     LV_ALIGN_CENTER,
  62:Drivers/lvgl/src/extra/widgets/meter/../../../../src/hal/../draw/../misc/../font/../misc/lv_area.h **** 
  63:Drivers/lvgl/src/extra/widgets/meter/../../../../src/hal/../draw/../misc/../font/../misc/lv_area.h ****     LV_ALIGN_OUT_TOP_LEFT,
  64:Drivers/lvgl/src/extra/widgets/meter/../../../../src/hal/../draw/../misc/../font/../misc/lv_area.h ****     LV_ALIGN_OUT_TOP_MID,
  65:Drivers/lvgl/src/extra/widgets/meter/../../../../src/hal/../draw/../misc/../font/../misc/lv_area.h ****     LV_ALIGN_OUT_TOP_RIGHT,
  66:Drivers/lvgl/src/extra/widgets/meter/../../../../src/hal/../draw/../misc/../font/../misc/lv_area.h ****     LV_ALIGN_OUT_BOTTOM_LEFT,
  67:Drivers/lvgl/src/extra/widgets/meter/../../../../src/hal/../draw/../misc/../font/../misc/lv_area.h ****     LV_ALIGN_OUT_BOTTOM_MID,
  68:Drivers/lvgl/src/extra/widgets/meter/../../../../src/hal/../draw/../misc/../font/../misc/lv_area.h ****     LV_ALIGN_OUT_BOTTOM_RIGHT,
  69:Drivers/lvgl/src/extra/widgets/meter/../../../../src/hal/../draw/../misc/../font/../misc/lv_area.h ****     LV_ALIGN_OUT_LEFT_TOP,
  70:Drivers/lvgl/src/extra/widgets/meter/../../../../src/hal/../draw/../misc/../font/../misc/lv_area.h ****     LV_ALIGN_OUT_LEFT_MID,
  71:Drivers/lvgl/src/extra/widgets/meter/../../../../src/hal/../draw/../misc/../font/../misc/lv_area.h ****     LV_ALIGN_OUT_LEFT_BOTTOM,
  72:Drivers/lvgl/src/extra/widgets/meter/../../../../src/hal/../draw/../misc/../font/../misc/lv_area.h ****     LV_ALIGN_OUT_RIGHT_TOP,
  73:Drivers/lvgl/src/extra/widgets/meter/../../../../src/hal/../draw/../misc/../font/../misc/lv_area.h ****     LV_ALIGN_OUT_RIGHT_MID,
  74:Drivers/lvgl/src/extra/widgets/meter/../../../../src/hal/../draw/../misc/../font/../misc/lv_area.h ****     LV_ALIGN_OUT_RIGHT_BOTTOM,
  75:Drivers/lvgl/src/extra/widgets/meter/../../../../src/hal/../draw/../misc/../font/../misc/lv_area.h **** };
  76:Drivers/lvgl/src/extra/widgets/meter/../../../../src/hal/../draw/../misc/../font/../misc/lv_area.h **** typedef uint8_t lv_align_t;
  77:Drivers/lvgl/src/extra/widgets/meter/../../../../src/hal/../draw/../misc/../font/../misc/lv_area.h **** 
  78:Drivers/lvgl/src/extra/widgets/meter/../../../../src/hal/../draw/../misc/../font/../misc/lv_area.h **** enum {
  79:Drivers/lvgl/src/extra/widgets/meter/../../../../src/hal/../draw/../misc/../font/../misc/lv_area.h ****     LV_DIR_NONE     = 0x00,
  80:Drivers/lvgl/src/extra/widgets/meter/../../../../src/hal/../draw/../misc/../font/../misc/lv_area.h ****     LV_DIR_LEFT     = (1 << 0),
  81:Drivers/lvgl/src/extra/widgets/meter/../../../../src/hal/../draw/../misc/../font/../misc/lv_area.h ****     LV_DIR_RIGHT    = (1 << 1),
  82:Drivers/lvgl/src/extra/widgets/meter/../../../../src/hal/../draw/../misc/../font/../misc/lv_area.h ****     LV_DIR_TOP      = (1 << 2),
  83:Drivers/lvgl/src/extra/widgets/meter/../../../../src/hal/../draw/../misc/../font/../misc/lv_area.h ****     LV_DIR_BOTTOM   = (1 << 3),
  84:Drivers/lvgl/src/extra/widgets/meter/../../../../src/hal/../draw/../misc/../font/../misc/lv_area.h ****     LV_DIR_HOR      = LV_DIR_LEFT | LV_DIR_RIGHT,
  85:Drivers/lvgl/src/extra/widgets/meter/../../../../src/hal/../draw/../misc/../font/../misc/lv_area.h ****     LV_DIR_VER      = LV_DIR_TOP | LV_DIR_BOTTOM,
  86:Drivers/lvgl/src/extra/widgets/meter/../../../../src/hal/../draw/../misc/../font/../misc/lv_area.h ****     LV_DIR_ALL      = LV_DIR_HOR | LV_DIR_VER,
  87:Drivers/lvgl/src/extra/widgets/meter/../../../../src/hal/../draw/../misc/../font/../misc/lv_area.h **** };
ARM GAS  /var/folders/lp/x54gwt890xv47sdkqj1k04q40000gn/T//ccVgM3G4.s 			page 25


  88:Drivers/lvgl/src/extra/widgets/meter/../../../../src/hal/../draw/../misc/../font/../misc/lv_area.h **** 
  89:Drivers/lvgl/src/extra/widgets/meter/../../../../src/hal/../draw/../misc/../font/../misc/lv_area.h **** typedef uint8_t lv_dir_t;
  90:Drivers/lvgl/src/extra/widgets/meter/../../../../src/hal/../draw/../misc/../font/../misc/lv_area.h **** 
  91:Drivers/lvgl/src/extra/widgets/meter/../../../../src/hal/../draw/../misc/../font/../misc/lv_area.h **** /**********************
  92:Drivers/lvgl/src/extra/widgets/meter/../../../../src/hal/../draw/../misc/../font/../misc/lv_area.h ****  * GLOBAL PROTOTYPES
  93:Drivers/lvgl/src/extra/widgets/meter/../../../../src/hal/../draw/../misc/../font/../misc/lv_area.h ****  **********************/
  94:Drivers/lvgl/src/extra/widgets/meter/../../../../src/hal/../draw/../misc/../font/../misc/lv_area.h **** 
  95:Drivers/lvgl/src/extra/widgets/meter/../../../../src/hal/../draw/../misc/../font/../misc/lv_area.h **** /**
  96:Drivers/lvgl/src/extra/widgets/meter/../../../../src/hal/../draw/../misc/../font/../misc/lv_area.h ****  * Initialize an area
  97:Drivers/lvgl/src/extra/widgets/meter/../../../../src/hal/../draw/../misc/../font/../misc/lv_area.h ****  * @param area_p pointer to an area
  98:Drivers/lvgl/src/extra/widgets/meter/../../../../src/hal/../draw/../misc/../font/../misc/lv_area.h ****  * @param x1 left coordinate of the area
  99:Drivers/lvgl/src/extra/widgets/meter/../../../../src/hal/../draw/../misc/../font/../misc/lv_area.h ****  * @param y1 top coordinate of the area
 100:Drivers/lvgl/src/extra/widgets/meter/../../../../src/hal/../draw/../misc/../font/../misc/lv_area.h ****  * @param x2 right coordinate of the area
 101:Drivers/lvgl/src/extra/widgets/meter/../../../../src/hal/../draw/../misc/../font/../misc/lv_area.h ****  * @param y2 bottom coordinate of the area
 102:Drivers/lvgl/src/extra/widgets/meter/../../../../src/hal/../draw/../misc/../font/../misc/lv_area.h ****  */
 103:Drivers/lvgl/src/extra/widgets/meter/../../../../src/hal/../draw/../misc/../font/../misc/lv_area.h **** void lv_area_set(lv_area_t * area_p, lv_coord_t x1, lv_coord_t y1, lv_coord_t x2, lv_coord_t y2);
 104:Drivers/lvgl/src/extra/widgets/meter/../../../../src/hal/../draw/../misc/../font/../misc/lv_area.h **** 
 105:Drivers/lvgl/src/extra/widgets/meter/../../../../src/hal/../draw/../misc/../font/../misc/lv_area.h **** /**
 106:Drivers/lvgl/src/extra/widgets/meter/../../../../src/hal/../draw/../misc/../font/../misc/lv_area.h ****  * Copy an area
 107:Drivers/lvgl/src/extra/widgets/meter/../../../../src/hal/../draw/../misc/../font/../misc/lv_area.h ****  * @param dest pointer to the destination area
 108:Drivers/lvgl/src/extra/widgets/meter/../../../../src/hal/../draw/../misc/../font/../misc/lv_area.h ****  * @param src pointer to the source area
 109:Drivers/lvgl/src/extra/widgets/meter/../../../../src/hal/../draw/../misc/../font/../misc/lv_area.h ****  */
 110:Drivers/lvgl/src/extra/widgets/meter/../../../../src/hal/../draw/../misc/../font/../misc/lv_area.h **** inline static void lv_area_copy(lv_area_t * dest, const lv_area_t * src)
 111:Drivers/lvgl/src/extra/widgets/meter/../../../../src/hal/../draw/../misc/../font/../misc/lv_area.h **** {
 112:Drivers/lvgl/src/extra/widgets/meter/../../../../src/hal/../draw/../misc/../font/../misc/lv_area.h ****     dest->x1 = src->x1;
 113:Drivers/lvgl/src/extra/widgets/meter/../../../../src/hal/../draw/../misc/../font/../misc/lv_area.h ****     dest->y1 = src->y1;
 114:Drivers/lvgl/src/extra/widgets/meter/../../../../src/hal/../draw/../misc/../font/../misc/lv_area.h ****     dest->x2 = src->x2;
 115:Drivers/lvgl/src/extra/widgets/meter/../../../../src/hal/../draw/../misc/../font/../misc/lv_area.h ****     dest->y2 = src->y2;
 116:Drivers/lvgl/src/extra/widgets/meter/../../../../src/hal/../draw/../misc/../font/../misc/lv_area.h **** }
 117:Drivers/lvgl/src/extra/widgets/meter/../../../../src/hal/../draw/../misc/../font/../misc/lv_area.h **** 
 118:Drivers/lvgl/src/extra/widgets/meter/../../../../src/hal/../draw/../misc/../font/../misc/lv_area.h **** /**
 119:Drivers/lvgl/src/extra/widgets/meter/../../../../src/hal/../draw/../misc/../font/../misc/lv_area.h ****  * Get the width of an area
 120:Drivers/lvgl/src/extra/widgets/meter/../../../../src/hal/../draw/../misc/../font/../misc/lv_area.h ****  * @param area_p pointer to an area
 121:Drivers/lvgl/src/extra/widgets/meter/../../../../src/hal/../draw/../misc/../font/../misc/lv_area.h ****  * @return the width of the area (if x1 == x2 -> width = 1)
 122:Drivers/lvgl/src/extra/widgets/meter/../../../../src/hal/../draw/../misc/../font/../misc/lv_area.h ****  */
 123:Drivers/lvgl/src/extra/widgets/meter/../../../../src/hal/../draw/../misc/../font/../misc/lv_area.h **** static inline lv_coord_t lv_area_get_width(const lv_area_t * area_p)
 211              		.loc 3 123 26 view .LVU49
 212              	.LBB61:
 124:Drivers/lvgl/src/extra/widgets/meter/../../../../src/hal/../draw/../misc/../font/../misc/lv_area.h **** {
 125:Drivers/lvgl/src/extra/widgets/meter/../../../../src/hal/../draw/../misc/../font/../misc/lv_area.h ****     return (lv_coord_t)(area_p->x2 - area_p->x1 + 1);
 213              		.loc 3 125 5 view .LVU50
 214              	.LBE61:
 215              	.LBE60:
 637:Drivers/lvgl/src/extra/widgets/meter/lv_meter.c ****     lv_point_t scale_center;
 638:Drivers/lvgl/src/extra/widgets/meter/lv_meter.c ****     scale_center.x = scale_area.x1 + r_out;
 639:Drivers/lvgl/src/extra/widgets/meter/lv_meter.c ****     scale_center.y = scale_area.y1 + r_out;
 640:Drivers/lvgl/src/extra/widgets/meter/lv_meter.c **** 
 641:Drivers/lvgl/src/extra/widgets/meter/lv_meter.c ****     r_out += indic->type_data.arc.r_mod;
 642:Drivers/lvgl/src/extra/widgets/meter/lv_meter.c **** 
 643:Drivers/lvgl/src/extra/widgets/meter/lv_meter.c ****     lv_meter_scale_t * scale = indic->scale;
 644:Drivers/lvgl/src/extra/widgets/meter/lv_meter.c **** 
 645:Drivers/lvgl/src/extra/widgets/meter/lv_meter.c ****     int32_t start_angle = lv_map(old_value, scale->min, scale->max, scale->rotation, scale->angle_r
 216              		.loc 1 645 27 is_stmt 0 view .LVU51
 217 0028 2046     		mov	r0, r4
 218              	.LBB64:
 219              	.LBB62:
 220              		.loc 3 125 49 view .LVU52
ARM GAS  /var/folders/lp/x54gwt890xv47sdkqj1k04q40000gn/T//ccVgM3G4.s 			page 26


 221 002a BDF81C40 		ldrh	r4, [sp, #28]
 222              	.LVL20:
 223              		.loc 3 125 44 view .LVU53
 224 002e BDF818B0 		ldrh	fp, [sp, #24]
 225              	.LVL21:
 226              		.loc 3 125 44 view .LVU54
 227              	.LBE62:
 228              	.LBE64:
 637:Drivers/lvgl/src/extra/widgets/meter/lv_meter.c ****     lv_point_t scale_center;
 229              		.loc 1 637 5 is_stmt 1 view .LVU55
 638:Drivers/lvgl/src/extra/widgets/meter/lv_meter.c ****     scale_center.y = scale_area.y1 + r_out;
 230              		.loc 1 638 5 view .LVU56
 643:Drivers/lvgl/src/extra/widgets/meter/lv_meter.c **** 
 231              		.loc 1 643 24 is_stmt 0 view .LVU57
 232 0032 D8F80050 		ldr	r5, [r8]
 233              	.LBB65:
 234              	.LBB63:
 235              		.loc 3 125 49 view .LVU58
 236 0036 0134     		adds	r4, r4, #1
 237 0038 A4EB0B04 		sub	r4, r4, fp
 238              	.LBE63:
 239              	.LBE65:
 636:Drivers/lvgl/src/extra/widgets/meter/lv_meter.c ****     lv_point_t scale_center;
 240              		.loc 1 636 16 discriminator 1 view .LVU59
 241 003c C4F3C033 		ubfx	r3, r4, #15, #1
 242              		.loc 1 645 91 view .LVU60
 243 0040 EE8B     		ldrh	r6, [r5, #30]
 636:Drivers/lvgl/src/extra/widgets/meter/lv_meter.c ****     lv_point_t scale_center;
 244              		.loc 1 636 16 discriminator 1 view .LVU61
 245 0042 03FA84F4 		sxtah	r4, r3, r4
 246              		.loc 1 645 27 view .LVU62
 247 0046 B5F92030 		ldrsh	r3, [r5, #32]
 248              		.loc 1 645 105 view .LVU63
 249 004a 1E44     		add	r6, r6, r3
 250              		.loc 1 645 27 view .LVU64
 251 004c D5E90512 		ldrd	r1, r2, [r5, #20]
 252 0050 0096     		str	r6, [sp]
 253              	.LVL22:
 639:Drivers/lvgl/src/extra/widgets/meter/lv_meter.c **** 
 254              		.loc 1 639 36 view .LVU65
 255 0052 BDF81A60 		ldrh	r6, [sp, #26]
 641:Drivers/lvgl/src/extra/widgets/meter/lv_meter.c **** 
 256              		.loc 1 641 11 view .LVU66
 257 0056 B8F81A70 		ldrh	r7, [r8, #26]
 638:Drivers/lvgl/src/extra/widgets/meter/lv_meter.c ****     scale_center.y = scale_area.y1 + r_out;
 258              		.loc 1 638 36 view .LVU67
 259 005a C4F34F04 		ubfx	r4, r4, #1, #16
 260              	.LVL23:
 639:Drivers/lvgl/src/extra/widgets/meter/lv_meter.c **** 
 261              		.loc 1 639 5 is_stmt 1 view .LVU68
 641:Drivers/lvgl/src/extra/widgets/meter/lv_meter.c **** 
 262              		.loc 1 641 5 view .LVU69
 639:Drivers/lvgl/src/extra/widgets/meter/lv_meter.c **** 
 263              		.loc 1 639 36 is_stmt 0 view .LVU70
 264 005e 2644     		add	r6, r6, r4
 265 0060 36B2     		sxth	r6, r6
 266 0062 0496     		str	r6, [sp, #16]
ARM GAS  /var/folders/lp/x54gwt890xv47sdkqj1k04q40000gn/T//ccVgM3G4.s 			page 27


 267              	.LVL24:
 268              		.loc 1 645 27 view .LVU71
 269 0064 FFF7FEFF 		bl	lv_map
 270              	.LVL25:
 646:Drivers/lvgl/src/extra/widgets/meter/lv_meter.c ****     int32_t end_angle = lv_map(new_value, scale->min, scale->max, scale->rotation, scale->angle_ran
 271              		.loc 1 646 25 view .LVU72
 272 0068 B5F92030 		ldrsh	r3, [r5, #32]
 273              		.loc 1 646 89 view .LVU73
 274 006c B5F81EC0 		ldrh	ip, [r5, #30]
 275              		.loc 1 646 103 view .LVU74
 276 0070 9C44     		add	ip, ip, r3
 645:Drivers/lvgl/src/extra/widgets/meter/lv_meter.c ****     int32_t end_angle = lv_map(new_value, scale->min, scale->max, scale->rotation, scale->angle_ran
 277              		.loc 1 645 27 view .LVU75
 278 0072 0646     		mov	r6, r0
 279              		.loc 1 646 25 view .LVU76
 280 0074 D5E90512 		ldrd	r1, r2, [r5, #20]
 281 0078 5046     		mov	r0, r10
 282 007a CDF800C0 		str	ip, [sp]
 283 007e FFF7FEFF 		bl	lv_map
 284              	.LVL26:
 647:Drivers/lvgl/src/extra/widgets/meter/lv_meter.c **** 
 648:Drivers/lvgl/src/extra/widgets/meter/lv_meter.c ****     lv_area_t a;
 649:Drivers/lvgl/src/extra/widgets/meter/lv_meter.c ****     lv_draw_arc_get_area(scale_center.x, scale_center.y, r_out, LV_MIN(start_angle, end_angle), LV_
 285              		.loc 1 649 5 view .LVU77
 286 0082 059B     		ldr	r3, [sp, #20]
 287 0084 0293     		str	r3, [sp, #8]
 646:Drivers/lvgl/src/extra/widgets/meter/lv_meter.c **** 
 288              		.loc 1 646 25 view .LVU78
 289 0086 0346     		mov	r3, r0
 290              		.loc 1 649 97 view .LVU79
 291 0088 9E42     		cmp	r6, r3
 641:Drivers/lvgl/src/extra/widgets/meter/lv_meter.c **** 
 292              		.loc 1 641 11 view .LVU80
 293 008a 2744     		add	r7, r7, r4
 638:Drivers/lvgl/src/extra/widgets/meter/lv_meter.c ****     scale_center.y = scale_area.y1 + r_out;
 294              		.loc 1 638 36 view .LVU81
 295 008c 5C44     		add	r4, r4, fp
 296              	.LVL27:
 297              		.loc 1 649 5 view .LVU82
 298 008e 20B2     		sxth	r0, r4
 299              		.loc 1 649 97 view .LVU83
 300 0090 3446     		mov	r4, r6
 301 0092 B8BF     		it	lt
 302 0094 1C46     		movlt	r4, r3
 303              		.loc 1 649 5 view .LVU84
 304 0096 A4B2     		uxth	r4, r4
 305              		.loc 1 649 65 view .LVU85
 306 0098 9E42     		cmp	r6, r3
 307              		.loc 1 649 5 view .LVU86
 308 009a B8F91020 		ldrsh	r2, [r8, #16]
 309 009e 0094     		str	r4, [sp]
 310              		.loc 1 649 65 view .LVU87
 311 00a0 A8BF     		it	ge
 312 00a2 1E46     		movge	r6, r3
 313              		.loc 1 649 5 view .LVU88
 314 00a4 08AC     		add	r4, sp, #32
 641:Drivers/lvgl/src/extra/widgets/meter/lv_meter.c **** 
ARM GAS  /var/folders/lp/x54gwt890xv47sdkqj1k04q40000gn/T//ccVgM3G4.s 			page 28


 315              		.loc 1 641 11 view .LVU89
 316 00a6 BFB2     		uxth	r7, r7
 317              	.LVL28:
 643:Drivers/lvgl/src/extra/widgets/meter/lv_meter.c **** 
 318              		.loc 1 643 5 is_stmt 1 view .LVU90
 645:Drivers/lvgl/src/extra/widgets/meter/lv_meter.c ****     int32_t end_angle = lv_map(new_value, scale->min, scale->max, scale->rotation, scale->angle_ran
 319              		.loc 1 645 5 view .LVU91
 646:Drivers/lvgl/src/extra/widgets/meter/lv_meter.c **** 
 320              		.loc 1 646 5 view .LVU92
 648:Drivers/lvgl/src/extra/widgets/meter/lv_meter.c ****     lv_draw_arc_get_area(scale_center.x, scale_center.y, r_out, LV_MIN(start_angle, end_angle), LV_
 321              		.loc 1 648 5 view .LVU93
 322              		.loc 1 649 5 view .LVU94
 323 00a8 0499     		ldr	r1, [sp, #16]
 324 00aa 0192     		str	r2, [sp, #4]
 325 00ac B3B2     		uxth	r3, r6
 326              	.LVL29:
 327              		.loc 1 649 5 is_stmt 0 view .LVU95
 328 00ae 3A46     		mov	r2, r7
 329 00b0 0394     		str	r4, [sp, #12]
 330 00b2 FFF7FEFF 		bl	lv_draw_arc_get_area
 331              	.LVL30:
 650:Drivers/lvgl/src/extra/widgets/meter/lv_meter.c ****                                                                                                    
 651:Drivers/lvgl/src/extra/widgets/meter/lv_meter.c ****     lv_obj_invalidate_area(obj, &a);
 332              		.loc 1 651 5 is_stmt 1 view .LVU96
 333 00b6 2146     		mov	r1, r4
 334 00b8 4846     		mov	r0, r9
 335 00ba FFF7FEFF 		bl	lv_obj_invalidate_area
 336              	.LVL31:
 652:Drivers/lvgl/src/extra/widgets/meter/lv_meter.c **** }
 337              		.loc 1 652 1 is_stmt 0 view .LVU97
 338 00be 0BB0     		add	sp, sp, #44
 339              		.cfi_def_cfa_offset 36
 340              		@ sp needed
 341 00c0 BDE8F08F 		pop	{r4, r5, r6, r7, r8, r9, r10, fp, pc}
 342              		.loc 1 652 1 view .LVU98
 343              		.cfi_endproc
 344              	.LFE222:
 346              		.section	.text.inv_line,"ax",%progbits
 347              		.align	1
 348              		.p2align 2,,3
 349              		.syntax unified
 350              		.thumb
 351              		.thumb_func
 353              	inv_line:
 354              	.LVL32:
 355              	.LFB223:
 653:Drivers/lvgl/src/extra/widgets/meter/lv_meter.c **** 
 654:Drivers/lvgl/src/extra/widgets/meter/lv_meter.c **** 
 655:Drivers/lvgl/src/extra/widgets/meter/lv_meter.c **** static void inv_line(lv_obj_t * obj, lv_meter_indicator_t * indic, int32_t value)
 656:Drivers/lvgl/src/extra/widgets/meter/lv_meter.c **** {
 356              		.loc 1 656 1 is_stmt 1 view -0
 357              		.cfi_startproc
 358              		@ args = 0, pretend = 0, frame = 32
 359              		@ frame_needed = 0, uses_anonymous_args = 0
 657:Drivers/lvgl/src/extra/widgets/meter/lv_meter.c ****     lv_area_t scale_area;
 360              		.loc 1 657 5 view .LVU100
 658:Drivers/lvgl/src/extra/widgets/meter/lv_meter.c ****     lv_obj_get_content_coords(obj, &scale_area);
ARM GAS  /var/folders/lp/x54gwt890xv47sdkqj1k04q40000gn/T//ccVgM3G4.s 			page 29


 361              		.loc 1 658 5 view .LVU101
 656:Drivers/lvgl/src/extra/widgets/meter/lv_meter.c ****     lv_area_t scale_area;
 362              		.loc 1 656 1 is_stmt 0 view .LVU102
 363 0000 2DE9F04F 		push	{r4, r5, r6, r7, r8, r9, r10, fp, lr}
 364              		.cfi_def_cfa_offset 36
 365              		.cfi_offset 4, -36
 366              		.cfi_offset 5, -32
 367              		.cfi_offset 6, -28
 368              		.cfi_offset 7, -24
 369              		.cfi_offset 8, -20
 370              		.cfi_offset 9, -16
 371              		.cfi_offset 10, -12
 372              		.cfi_offset 11, -8
 373              		.cfi_offset 14, -4
 374 0004 8BB0     		sub	sp, sp, #44
 375              		.cfi_def_cfa_offset 80
 656:Drivers/lvgl/src/extra/widgets/meter/lv_meter.c ****     lv_area_t scale_area;
 376              		.loc 1 656 1 view .LVU103
 377 0006 0D46     		mov	r5, r1
 378              		.loc 1 658 5 view .LVU104
 379 0008 08A9     		add	r1, sp, #32
 380              	.LVL33:
 656:Drivers/lvgl/src/extra/widgets/meter/lv_meter.c ****     lv_area_t scale_area;
 381              		.loc 1 656 1 view .LVU105
 382 000a 1746     		mov	r7, r2
 383 000c 0646     		mov	r6, r0
 384              		.loc 1 658 5 view .LVU106
 385 000e FFF7FEFF 		bl	lv_obj_get_content_coords
 386              	.LVL34:
 659:Drivers/lvgl/src/extra/widgets/meter/lv_meter.c **** 
 660:Drivers/lvgl/src/extra/widgets/meter/lv_meter.c ****     lv_coord_t r_out = lv_area_get_width(&scale_area) / 2;
 387              		.loc 1 660 5 is_stmt 1 view .LVU107
 388              	.LBB66:
 389              	.LBI66:
 123:Drivers/lvgl/src/extra/widgets/meter/../../../../src/hal/../draw/../misc/../font/../misc/lv_area.h **** {
 390              		.loc 3 123 26 view .LVU108
 391              	.LBB67:
 392              		.loc 3 125 5 view .LVU109
 393              		.loc 3 125 49 is_stmt 0 view .LVU110
 394 0012 BDF82440 		ldrh	r4, [sp, #36]
 395              		.loc 3 125 44 view .LVU111
 396 0016 BDF82030 		ldrh	r3, [sp, #32]
 397              	.LVL35:
 398              		.loc 3 125 44 view .LVU112
 399              	.LBE67:
 400              	.LBE66:
 661:Drivers/lvgl/src/extra/widgets/meter/lv_meter.c ****     lv_point_t scale_center;
 401              		.loc 1 661 5 is_stmt 1 view .LVU113
 662:Drivers/lvgl/src/extra/widgets/meter/lv_meter.c ****     scale_center.x = scale_area.x1 + r_out;
 402              		.loc 1 662 5 view .LVU114
 663:Drivers/lvgl/src/extra/widgets/meter/lv_meter.c ****     scale_center.y = scale_area.y1 + r_out;
 403              		.loc 1 663 36 is_stmt 0 view .LVU115
 404 001a BDF82280 		ldrh	r8, [sp, #34]
 664:Drivers/lvgl/src/extra/widgets/meter/lv_meter.c **** 
 665:Drivers/lvgl/src/extra/widgets/meter/lv_meter.c ****     lv_meter_scale_t * scale = indic->scale;
 405              		.loc 1 665 24 view .LVU116
 406 001e D5F800A0 		ldr	r10, [r5]
ARM GAS  /var/folders/lp/x54gwt890xv47sdkqj1k04q40000gn/T//ccVgM3G4.s 			page 30


 407              	.LBB69:
 408              	.LBB68:
 409              		.loc 3 125 49 view .LVU117
 410 0022 0134     		adds	r4, r4, #1
 411 0024 E41A     		subs	r4, r4, r3
 412              	.LBE68:
 413              	.LBE69:
 660:Drivers/lvgl/src/extra/widgets/meter/lv_meter.c ****     lv_point_t scale_center;
 414              		.loc 1 660 16 discriminator 1 view .LVU118
 415 0026 C4F3C032 		ubfx	r2, r4, #15, #1
 416 002a 02FA84F4 		sxtah	r4, r2, r4
 662:Drivers/lvgl/src/extra/widgets/meter/lv_meter.c ****     scale_center.y = scale_area.y1 + r_out;
 417              		.loc 1 662 36 view .LVU119
 418 002e C4F34F04 		ubfx	r4, r4, #1, #16
 419 0032 2344     		add	r3, r3, r4
 420              	.LVL36:
 662:Drivers/lvgl/src/extra/widgets/meter/lv_meter.c ****     scale_center.y = scale_area.y1 + r_out;
 421              		.loc 1 662 36 view .LVU120
 422 0034 1FFA83F9 		uxth	r9, r3
 423              	.LVL37:
 663:Drivers/lvgl/src/extra/widgets/meter/lv_meter.c **** 
 424              		.loc 1 663 5 is_stmt 1 view .LVU121
 666:Drivers/lvgl/src/extra/widgets/meter/lv_meter.c **** 
 667:Drivers/lvgl/src/extra/widgets/meter/lv_meter.c ****     if(indic->type == LV_METER_INDICATOR_TYPE_NEEDLE_LINE) {
 425              		.loc 1 667 13 is_stmt 0 view .LVU122
 426 0038 2B79     		ldrb	r3, [r5, #4]	@ zero_extendqisi2
 663:Drivers/lvgl/src/extra/widgets/meter/lv_meter.c **** 
 427              		.loc 1 663 36 view .LVU123
 428 003a A044     		add	r8, r8, r4
 429              		.loc 1 667 7 view .LVU124
 430 003c 012B     		cmp	r3, #1
 663:Drivers/lvgl/src/extra/widgets/meter/lv_meter.c **** 
 431              		.loc 1 663 36 view .LVU125
 432 003e 1FFA88F8 		uxth	r8, r8
 433              	.LVL38:
 665:Drivers/lvgl/src/extra/widgets/meter/lv_meter.c **** 
 434              		.loc 1 665 5 is_stmt 1 view .LVU126
 435              		.loc 1 667 5 view .LVU127
 436              		.loc 1 667 7 is_stmt 0 view .LVU128
 437 0042 58D0     		beq	.L13
 668:Drivers/lvgl/src/extra/widgets/meter/lv_meter.c ****         int32_t angle = lv_map(value, scale->min, scale->max, scale->rotation, scale->rotation + sc
 669:Drivers/lvgl/src/extra/widgets/meter/lv_meter.c ****         r_out += scale->r_mod + indic->type_data.needle_line.r_mod;
 670:Drivers/lvgl/src/extra/widgets/meter/lv_meter.c ****         lv_point_t p_end;
 671:Drivers/lvgl/src/extra/widgets/meter/lv_meter.c ****         p_end.y = (lv_trigo_sin(angle) * (r_out)) / LV_TRIGO_SIN_MAX + scale_center.y;
 672:Drivers/lvgl/src/extra/widgets/meter/lv_meter.c ****         p_end.x = (lv_trigo_cos(angle) * (r_out)) / LV_TRIGO_SIN_MAX + scale_center.x;
 673:Drivers/lvgl/src/extra/widgets/meter/lv_meter.c **** 
 674:Drivers/lvgl/src/extra/widgets/meter/lv_meter.c ****         lv_area_t a;
 675:Drivers/lvgl/src/extra/widgets/meter/lv_meter.c ****         a.x1 = LV_MIN(scale_center.x, p_end.x) - indic->type_data.needle_line.width - 2;
 676:Drivers/lvgl/src/extra/widgets/meter/lv_meter.c ****         a.y1 = LV_MIN(scale_center.y, p_end.y) - indic->type_data.needle_line.width - 2;
 677:Drivers/lvgl/src/extra/widgets/meter/lv_meter.c ****         a.x2 = LV_MAX(scale_center.x, p_end.x) + indic->type_data.needle_line.width + 2;
 678:Drivers/lvgl/src/extra/widgets/meter/lv_meter.c ****         a.y2 = LV_MAX(scale_center.y, p_end.y) + indic->type_data.needle_line.width + 2;
 679:Drivers/lvgl/src/extra/widgets/meter/lv_meter.c **** 
 680:Drivers/lvgl/src/extra/widgets/meter/lv_meter.c ****         lv_obj_invalidate_area(obj, &a);
 681:Drivers/lvgl/src/extra/widgets/meter/lv_meter.c ****     }
 682:Drivers/lvgl/src/extra/widgets/meter/lv_meter.c ****     else if(indic->type == LV_METER_INDICATOR_TYPE_NEEDLE_IMG) {
 438              		.loc 1 682 10 is_stmt 1 view .LVU129
 439              		.loc 1 682 12 is_stmt 0 view .LVU130
ARM GAS  /var/folders/lp/x54gwt890xv47sdkqj1k04q40000gn/T//ccVgM3G4.s 			page 31


 440 0044 13B1     		cbz	r3, .L14
 683:Drivers/lvgl/src/extra/widgets/meter/lv_meter.c ****         int32_t angle = lv_map(value, scale->min, scale->max, scale->rotation, scale->rotation + sc
 684:Drivers/lvgl/src/extra/widgets/meter/lv_meter.c ****         lv_img_header_t info;
 685:Drivers/lvgl/src/extra/widgets/meter/lv_meter.c ****         lv_img_decoder_get_info(indic->type_data.needle_img.src, &info);
 686:Drivers/lvgl/src/extra/widgets/meter/lv_meter.c **** 
 687:Drivers/lvgl/src/extra/widgets/meter/lv_meter.c ****         angle = angle * 10;
 688:Drivers/lvgl/src/extra/widgets/meter/lv_meter.c ****         if(angle > 3600) angle -= 3600;
 689:Drivers/lvgl/src/extra/widgets/meter/lv_meter.c **** 
 690:Drivers/lvgl/src/extra/widgets/meter/lv_meter.c ****         scale_center.x -= indic->type_data.needle_img.pivot.x;
 691:Drivers/lvgl/src/extra/widgets/meter/lv_meter.c ****         scale_center.y -= indic->type_data.needle_img.pivot.y;
 692:Drivers/lvgl/src/extra/widgets/meter/lv_meter.c ****         lv_area_t a;
 693:Drivers/lvgl/src/extra/widgets/meter/lv_meter.c ****         _lv_img_buf_get_transformed_area(&a, info.w, info.h, angle, LV_IMG_ZOOM_NONE, &indic->type_
 694:Drivers/lvgl/src/extra/widgets/meter/lv_meter.c ****         a.x1 += scale_center.x - 2;
 695:Drivers/lvgl/src/extra/widgets/meter/lv_meter.c ****         a.y1 += scale_center.y - 2;
 696:Drivers/lvgl/src/extra/widgets/meter/lv_meter.c ****         a.x2 += scale_center.x + 2;
 697:Drivers/lvgl/src/extra/widgets/meter/lv_meter.c ****         a.y2 += scale_center.y + 2;
 698:Drivers/lvgl/src/extra/widgets/meter/lv_meter.c **** 
 699:Drivers/lvgl/src/extra/widgets/meter/lv_meter.c ****         lv_obj_invalidate_area(obj, &a);
 700:Drivers/lvgl/src/extra/widgets/meter/lv_meter.c ****     }
 701:Drivers/lvgl/src/extra/widgets/meter/lv_meter.c **** }
 441              		.loc 1 701 1 view .LVU131
 442 0046 0BB0     		add	sp, sp, #44
 443              		.cfi_remember_state
 444              		.cfi_def_cfa_offset 36
 445              		@ sp needed
 446 0048 BDE8F08F 		pop	{r4, r5, r6, r7, r8, r9, r10, fp, pc}
 447              	.LVL39:
 448              	.L14:
 449              		.cfi_restore_state
 450              	.LBB70:
 683:Drivers/lvgl/src/extra/widgets/meter/lv_meter.c ****         int32_t angle = lv_map(value, scale->min, scale->max, scale->rotation, scale->rotation + sc
 451              		.loc 1 683 9 is_stmt 1 view .LVU132
 683:Drivers/lvgl/src/extra/widgets/meter/lv_meter.c ****         int32_t angle = lv_map(value, scale->min, scale->max, scale->rotation, scale->rotation + sc
 452              		.loc 1 683 25 is_stmt 0 view .LVU133
 453 004c BAF92030 		ldrsh	r3, [r10, #32]
 683:Drivers/lvgl/src/extra/widgets/meter/lv_meter.c ****         int32_t angle = lv_map(value, scale->min, scale->max, scale->rotation, scale->rotation + sc
 454              		.loc 1 683 103 view .LVU134
 455 0050 BAF81E40 		ldrh	r4, [r10, #30]
 683:Drivers/lvgl/src/extra/widgets/meter/lv_meter.c ****         int32_t angle = lv_map(value, scale->min, scale->max, scale->rotation, scale->rotation + sc
 456              		.loc 1 683 96 view .LVU135
 457 0054 1C44     		add	r4, r4, r3
 683:Drivers/lvgl/src/extra/widgets/meter/lv_meter.c ****         int32_t angle = lv_map(value, scale->min, scale->max, scale->rotation, scale->rotation + sc
 458              		.loc 1 683 25 view .LVU136
 459 0056 DAE90512 		ldrd	r1, r2, [r10, #20]
 460 005a 3846     		mov	r0, r7
 461 005c 0094     		str	r4, [sp]
 462              	.LVL40:
 683:Drivers/lvgl/src/extra/widgets/meter/lv_meter.c ****         int32_t angle = lv_map(value, scale->min, scale->max, scale->rotation, scale->rotation + sc
 463              		.loc 1 683 25 view .LVU137
 464 005e FFF7FEFF 		bl	lv_map
 465              	.LVL41:
 685:Drivers/lvgl/src/extra/widgets/meter/lv_meter.c **** 
 466              		.loc 1 685 9 view .LVU138
 467 0062 05A9     		add	r1, sp, #20
 683:Drivers/lvgl/src/extra/widgets/meter/lv_meter.c ****         int32_t angle = lv_map(value, scale->min, scale->max, scale->rotation, scale->rotation + sc
 468              		.loc 1 683 25 view .LVU139
 469 0064 0446     		mov	r4, r0
ARM GAS  /var/folders/lp/x54gwt890xv47sdkqj1k04q40000gn/T//ccVgM3G4.s 			page 32


 470              	.LVL42:
 684:Drivers/lvgl/src/extra/widgets/meter/lv_meter.c ****         lv_img_decoder_get_info(indic->type_data.needle_img.src, &info);
 471              		.loc 1 684 9 is_stmt 1 view .LVU140
 685:Drivers/lvgl/src/extra/widgets/meter/lv_meter.c **** 
 472              		.loc 1 685 9 view .LVU141
 473 0066 2869     		ldr	r0, [r5, #16]
 474              	.LVL43:
 685:Drivers/lvgl/src/extra/widgets/meter/lv_meter.c **** 
 475              		.loc 1 685 9 is_stmt 0 view .LVU142
 476 0068 FFF7FEFF 		bl	lv_img_decoder_get_info
 477              	.LVL44:
 687:Drivers/lvgl/src/extra/widgets/meter/lv_meter.c ****         if(angle > 3600) angle -= 3600;
 478              		.loc 1 687 9 is_stmt 1 view .LVU143
 690:Drivers/lvgl/src/extra/widgets/meter/lv_meter.c ****         scale_center.y -= indic->type_data.needle_img.pivot.y;
 479              		.loc 1 690 24 is_stmt 0 view .LVU144
 480 006c AA8A     		ldrh	r2, [r5, #20]
 693:Drivers/lvgl/src/extra/widgets/meter/lv_meter.c ****         a.x1 += scale_center.x - 2;
 481              		.loc 1 693 50 view .LVU145
 482 006e 0599     		ldr	r1, [sp, #20]
 690:Drivers/lvgl/src/extra/widgets/meter/lv_meter.c ****         scale_center.y -= indic->type_data.needle_img.pivot.y;
 483              		.loc 1 690 24 view .LVU146
 484 0070 A9EB0209 		sub	r9, r9, r2
 485              	.LVL45:
 691:Drivers/lvgl/src/extra/widgets/meter/lv_meter.c ****         lv_area_t a;
 486              		.loc 1 691 24 view .LVU147
 487 0074 EA8A     		ldrh	r2, [r5, #22]
 687:Drivers/lvgl/src/extra/widgets/meter/lv_meter.c ****         if(angle > 3600) angle -= 3600;
 488              		.loc 1 687 15 view .LVU148
 489 0076 04EB8404 		add	r4, r4, r4, lsl #2
 490              	.LVL46:
 687:Drivers/lvgl/src/extra/widgets/meter/lv_meter.c ****         if(angle > 3600) angle -= 3600;
 491              		.loc 1 687 15 view .LVU149
 492 007a 6300     		lsls	r3, r4, #1
 493              	.LVL47:
 688:Drivers/lvgl/src/extra/widgets/meter/lv_meter.c **** 
 494              		.loc 1 688 9 is_stmt 1 view .LVU150
 691:Drivers/lvgl/src/extra/widgets/meter/lv_meter.c ****         lv_area_t a;
 495              		.loc 1 691 24 is_stmt 0 view .LVU151
 496 007c A8EB0208 		sub	r8, r8, r2
 497              	.LVL48:
 693:Drivers/lvgl/src/extra/widgets/meter/lv_meter.c ****         a.x1 += scale_center.x - 2;
 498              		.loc 1 693 9 view .LVU152
 499 0080 4FF48072 		mov	r2, #256
 688:Drivers/lvgl/src/extra/widgets/meter/lv_meter.c **** 
 500              		.loc 1 688 11 view .LVU153
 501 0084 B3F5616F 		cmp	r3, #3600
 688:Drivers/lvgl/src/extra/widgets/meter/lv_meter.c **** 
 502              		.loc 1 688 26 is_stmt 1 discriminator 1 view .LVU154
 693:Drivers/lvgl/src/extra/widgets/meter/lv_meter.c ****         a.x1 += scale_center.x - 2;
 503              		.loc 1 693 9 is_stmt 0 view .LVU155
 504 0088 0092     		str	r2, [sp]
 693:Drivers/lvgl/src/extra/widgets/meter/lv_meter.c ****         a.x1 += scale_center.x - 2;
 505              		.loc 1 693 58 view .LVU156
 506 008a BDF81620 		ldrh	r2, [sp, #22]
 688:Drivers/lvgl/src/extra/widgets/meter/lv_meter.c **** 
 507              		.loc 1 688 32 discriminator 1 view .LVU157
 508 008e C8BF     		it	gt
ARM GAS  /var/folders/lp/x54gwt890xv47sdkqj1k04q40000gn/T//ccVgM3G4.s 			page 33


 509 0090 A3F56163 		subgt	r3, r3, #3600
 510              	.LVL49:
 690:Drivers/lvgl/src/extra/widgets/meter/lv_meter.c ****         scale_center.y -= indic->type_data.needle_img.pivot.y;
 511              		.loc 1 690 9 is_stmt 1 view .LVU158
 693:Drivers/lvgl/src/extra/widgets/meter/lv_meter.c ****         a.x1 += scale_center.x - 2;
 512              		.loc 1 693 87 is_stmt 0 view .LVU159
 513 0094 1435     		adds	r5, r5, #20
 514              	.LVL50:
 693:Drivers/lvgl/src/extra/widgets/meter/lv_meter.c ****         a.x1 += scale_center.x - 2;
 515              		.loc 1 693 9 view .LVU160
 516 0096 0195     		str	r5, [sp, #4]
 517 0098 06A8     		add	r0, sp, #24
 518 009a 1BB2     		sxth	r3, r3
 519              	.LVL51:
 693:Drivers/lvgl/src/extra/widgets/meter/lv_meter.c ****         a.x1 += scale_center.x - 2;
 520              		.loc 1 693 9 view .LVU161
 521 009c C2F34A12 		ubfx	r2, r2, #5, #11
 522 00a0 C1F38A21 		ubfx	r1, r1, #10, #11
 523 00a4 FFF7FEFF 		bl	_lv_img_buf_get_transformed_area
 524              	.LVL52:
 694:Drivers/lvgl/src/extra/widgets/meter/lv_meter.c ****         a.y1 += scale_center.y - 2;
 525              		.loc 1 694 14 view .LVU162
 526 00a8 BDF81840 		ldrh	r4, [sp, #24]
 527              	.LVL53:
 696:Drivers/lvgl/src/extra/widgets/meter/lv_meter.c ****         a.y2 += scale_center.y + 2;
 528              		.loc 1 696 14 view .LVU163
 529 00ac BDF81C30 		ldrh	r3, [sp, #28]
 695:Drivers/lvgl/src/extra/widgets/meter/lv_meter.c ****         a.x2 += scale_center.x + 2;
 530              		.loc 1 695 14 view .LVU164
 531 00b0 BDF81A20 		ldrh	r2, [sp, #26]
 690:Drivers/lvgl/src/extra/widgets/meter/lv_meter.c ****         scale_center.y -= indic->type_data.needle_img.pivot.y;
 532              		.loc 1 690 24 view .LVU165
 533 00b4 1FFA89F9 		uxth	r9, r9
 534              	.LVL54:
 691:Drivers/lvgl/src/extra/widgets/meter/lv_meter.c ****         lv_area_t a;
 535              		.loc 1 691 9 is_stmt 1 view .LVU166
 696:Drivers/lvgl/src/extra/widgets/meter/lv_meter.c ****         a.y2 += scale_center.y + 2;
 536              		.loc 1 696 14 is_stmt 0 view .LVU167
 537 00b8 0233     		adds	r3, r3, #2
 694:Drivers/lvgl/src/extra/widgets/meter/lv_meter.c ****         a.y1 += scale_center.y - 2;
 538              		.loc 1 694 14 view .LVU168
 539 00ba 023C     		subs	r4, r4, #2
 540 00bc 4C44     		add	r4, r4, r9
 696:Drivers/lvgl/src/extra/widgets/meter/lv_meter.c ****         a.y2 += scale_center.y + 2;
 541              		.loc 1 696 14 view .LVU169
 542 00be 9944     		add	r9, r9, r3
 543              	.LVL55:
 697:Drivers/lvgl/src/extra/widgets/meter/lv_meter.c **** 
 544              		.loc 1 697 14 view .LVU170
 545 00c0 BDF81E30 		ldrh	r3, [sp, #30]
 691:Drivers/lvgl/src/extra/widgets/meter/lv_meter.c ****         lv_area_t a;
 546              		.loc 1 691 24 view .LVU171
 547 00c4 1FFA88F8 		uxth	r8, r8
 548              	.LVL56:
 692:Drivers/lvgl/src/extra/widgets/meter/lv_meter.c ****         _lv_img_buf_get_transformed_area(&a, info.w, info.h, angle, LV_IMG_ZOOM_NONE, &indic->type_
 549              		.loc 1 692 9 is_stmt 1 view .LVU172
 693:Drivers/lvgl/src/extra/widgets/meter/lv_meter.c ****         a.x1 += scale_center.x - 2;
ARM GAS  /var/folders/lp/x54gwt890xv47sdkqj1k04q40000gn/T//ccVgM3G4.s 			page 34


 550              		.loc 1 693 9 view .LVU173
 694:Drivers/lvgl/src/extra/widgets/meter/lv_meter.c ****         a.y1 += scale_center.y - 2;
 551              		.loc 1 694 9 view .LVU174
 695:Drivers/lvgl/src/extra/widgets/meter/lv_meter.c ****         a.x2 += scale_center.x + 2;
 552              		.loc 1 695 9 view .LVU175
 696:Drivers/lvgl/src/extra/widgets/meter/lv_meter.c ****         a.y2 += scale_center.y + 2;
 553              		.loc 1 696 9 view .LVU176
 697:Drivers/lvgl/src/extra/widgets/meter/lv_meter.c **** 
 554              		.loc 1 697 9 view .LVU177
 694:Drivers/lvgl/src/extra/widgets/meter/lv_meter.c ****         a.y1 += scale_center.y - 2;
 555              		.loc 1 694 14 is_stmt 0 view .LVU178
 556 00c8 0025     		movs	r5, #0
 557              	.LVL57:
 697:Drivers/lvgl/src/extra/widgets/meter/lv_meter.c **** 
 558              		.loc 1 697 14 view .LVU179
 559 00ca 0233     		adds	r3, r3, #2
 695:Drivers/lvgl/src/extra/widgets/meter/lv_meter.c ****         a.x2 += scale_center.x + 2;
 560              		.loc 1 695 14 view .LVU180
 561 00cc 023A     		subs	r2, r2, #2
 562 00ce 4244     		add	r2, r2, r8
 697:Drivers/lvgl/src/extra/widgets/meter/lv_meter.c **** 
 563              		.loc 1 697 14 view .LVU181
 564 00d0 9844     		add	r8, r8, r3
 565              	.LVL58:
 694:Drivers/lvgl/src/extra/widgets/meter/lv_meter.c ****         a.y1 += scale_center.y - 2;
 566              		.loc 1 694 14 view .LVU182
 567 00d2 2B46     		mov	r3, r5
 568 00d4 69F30F03 		bfi	r3, r9, #0, #16
 569 00d8 64F30F05 		bfi	r5, r4, #0, #16
 570 00dc 62F31F45 		bfi	r5, r2, #16, #16
 571 00e0 68F31F43 		bfi	r3, r8, #16, #16
 699:Drivers/lvgl/src/extra/widgets/meter/lv_meter.c ****     }
 572              		.loc 1 699 9 view .LVU183
 573 00e4 06A9     		add	r1, sp, #24
 574 00e6 3046     		mov	r0, r6
 694:Drivers/lvgl/src/extra/widgets/meter/lv_meter.c ****         a.y1 += scale_center.y - 2;
 575              		.loc 1 694 14 view .LVU184
 576 00e8 CDE90653 		strd	r5, r3, [sp, #24]
 699:Drivers/lvgl/src/extra/widgets/meter/lv_meter.c ****     }
 577              		.loc 1 699 9 is_stmt 1 view .LVU185
 578 00ec FFF7FEFF 		bl	lv_obj_invalidate_area
 579              	.LVL59:
 580              	.LBE70:
 581              		.loc 1 701 1 is_stmt 0 view .LVU186
 582 00f0 0BB0     		add	sp, sp, #44
 583              		.cfi_remember_state
 584              		.cfi_def_cfa_offset 36
 585              		@ sp needed
 586 00f2 BDE8F08F 		pop	{r4, r5, r6, r7, r8, r9, r10, fp, pc}
 587              	.LVL60:
 588              	.L13:
 589              		.cfi_restore_state
 590              	.LBB71:
 668:Drivers/lvgl/src/extra/widgets/meter/lv_meter.c ****         r_out += scale->r_mod + indic->type_data.needle_line.r_mod;
 591              		.loc 1 668 25 view .LVU187
 592 00f6 BAF92030 		ldrsh	r3, [r10, #32]
 593 00fa 3846     		mov	r0, r7
ARM GAS  /var/folders/lp/x54gwt890xv47sdkqj1k04q40000gn/T//ccVgM3G4.s 			page 35


 668:Drivers/lvgl/src/extra/widgets/meter/lv_meter.c ****         r_out += scale->r_mod + indic->type_data.needle_line.r_mod;
 594              		.loc 1 668 103 view .LVU188
 595 00fc BAF81E70 		ldrh	r7, [r10, #30]
 596              	.LVL61:
 668:Drivers/lvgl/src/extra/widgets/meter/lv_meter.c ****         r_out += scale->r_mod + indic->type_data.needle_line.r_mod;
 597              		.loc 1 668 96 view .LVU189
 598 0100 1F44     		add	r7, r7, r3
 668:Drivers/lvgl/src/extra/widgets/meter/lv_meter.c ****         r_out += scale->r_mod + indic->type_data.needle_line.r_mod;
 599              		.loc 1 668 25 view .LVU190
 600 0102 DAE90512 		ldrd	r1, r2, [r10, #20]
 601 0106 0097     		str	r7, [sp]
 602              	.LVL62:
 668:Drivers/lvgl/src/extra/widgets/meter/lv_meter.c ****         r_out += scale->r_mod + indic->type_data.needle_line.r_mod;
 603              		.loc 1 668 25 view .LVU191
 604 0108 FFF7FEFF 		bl	lv_map
 605              	.LVL63:
 669:Drivers/lvgl/src/extra/widgets/meter/lv_meter.c ****         lv_point_t p_end;
 606              		.loc 1 669 15 view .LVU192
 607 010c BAF81C20 		ldrh	r2, [r10, #28]
 671:Drivers/lvgl/src/extra/widgets/meter/lv_meter.c ****         p_end.x = (lv_trigo_cos(angle) * (r_out)) / LV_TRIGO_SIN_MAX + scale_center.x;
 608              		.loc 1 671 51 discriminator 1 view .LVU193
 609 0110 DFF8ACA0 		ldr	r10, .L15
 610              	.LVL64:
 669:Drivers/lvgl/src/extra/widgets/meter/lv_meter.c ****         lv_point_t p_end;
 611              		.loc 1 669 15 view .LVU194
 612 0114 1444     		add	r4, r4, r2
 613 0116 6A8A     		ldrh	r2, [r5, #18]
 668:Drivers/lvgl/src/extra/widgets/meter/lv_meter.c ****         r_out += scale->r_mod + indic->type_data.needle_line.r_mod;
 614              		.loc 1 668 25 view .LVU195
 615 0118 0346     		mov	r3, r0
 671:Drivers/lvgl/src/extra/widgets/meter/lv_meter.c ****         p_end.x = (lv_trigo_cos(angle) * (r_out)) / LV_TRIGO_SIN_MAX + scale_center.x;
 616              		.loc 1 671 20 view .LVU196
 617 011a 00B2     		sxth	r0, r0
 669:Drivers/lvgl/src/extra/widgets/meter/lv_meter.c ****         lv_point_t p_end;
 618              		.loc 1 669 15 view .LVU197
 619 011c 1444     		add	r4, r4, r2
 671:Drivers/lvgl/src/extra/widgets/meter/lv_meter.c ****         p_end.x = (lv_trigo_cos(angle) * (r_out)) / LV_TRIGO_SIN_MAX + scale_center.x;
 620              		.loc 1 671 20 view .LVU198
 621 011e 0393     		str	r3, [sp, #12]
 622 0120 FFF7FEFF 		bl	lv_trigo_sin
 623              	.LVL65:
 669:Drivers/lvgl/src/extra/widgets/meter/lv_meter.c ****         lv_point_t p_end;
 624              		.loc 1 669 15 view .LVU199
 625 0124 24B2     		sxth	r4, r4
 671:Drivers/lvgl/src/extra/widgets/meter/lv_meter.c ****         p_end.x = (lv_trigo_cos(angle) * (r_out)) / LV_TRIGO_SIN_MAX + scale_center.x;
 626              		.loc 1 671 40 discriminator 1 view .LVU200
 627 0126 00FB04F2 		mul	r2, r0, r4
 628              	.LBB72:
 629              	.LBB73:
 630              		.file 4 "Drivers/lvgl/src/extra/widgets/meter/../../../../src/misc/lv_math.h"
   1:Drivers/lvgl/src/extra/widgets/meter/../../../../src/misc/lv_math.h **** /**
   2:Drivers/lvgl/src/extra/widgets/meter/../../../../src/misc/lv_math.h ****  * @file lv_math.h
   3:Drivers/lvgl/src/extra/widgets/meter/../../../../src/misc/lv_math.h ****  *
   4:Drivers/lvgl/src/extra/widgets/meter/../../../../src/misc/lv_math.h ****  */
   5:Drivers/lvgl/src/extra/widgets/meter/../../../../src/misc/lv_math.h **** 
   6:Drivers/lvgl/src/extra/widgets/meter/../../../../src/misc/lv_math.h **** #ifndef LV_MATH_H
   7:Drivers/lvgl/src/extra/widgets/meter/../../../../src/misc/lv_math.h **** #define LV_MATH_H
ARM GAS  /var/folders/lp/x54gwt890xv47sdkqj1k04q40000gn/T//ccVgM3G4.s 			page 36


   8:Drivers/lvgl/src/extra/widgets/meter/../../../../src/misc/lv_math.h **** 
   9:Drivers/lvgl/src/extra/widgets/meter/../../../../src/misc/lv_math.h **** #ifdef __cplusplus
  10:Drivers/lvgl/src/extra/widgets/meter/../../../../src/misc/lv_math.h **** extern "C" {
  11:Drivers/lvgl/src/extra/widgets/meter/../../../../src/misc/lv_math.h **** #endif
  12:Drivers/lvgl/src/extra/widgets/meter/../../../../src/misc/lv_math.h **** 
  13:Drivers/lvgl/src/extra/widgets/meter/../../../../src/misc/lv_math.h **** /*********************
  14:Drivers/lvgl/src/extra/widgets/meter/../../../../src/misc/lv_math.h ****  *      INCLUDES
  15:Drivers/lvgl/src/extra/widgets/meter/../../../../src/misc/lv_math.h ****  *********************/
  16:Drivers/lvgl/src/extra/widgets/meter/../../../../src/misc/lv_math.h **** #include "../lv_conf_internal.h"
  17:Drivers/lvgl/src/extra/widgets/meter/../../../../src/misc/lv_math.h **** #include <stdint.h>
  18:Drivers/lvgl/src/extra/widgets/meter/../../../../src/misc/lv_math.h **** 
  19:Drivers/lvgl/src/extra/widgets/meter/../../../../src/misc/lv_math.h **** /*********************
  20:Drivers/lvgl/src/extra/widgets/meter/../../../../src/misc/lv_math.h ****  *      DEFINES
  21:Drivers/lvgl/src/extra/widgets/meter/../../../../src/misc/lv_math.h ****  *********************/
  22:Drivers/lvgl/src/extra/widgets/meter/../../../../src/misc/lv_math.h **** #define LV_TRIGO_SIN_MAX 32767
  23:Drivers/lvgl/src/extra/widgets/meter/../../../../src/misc/lv_math.h **** #define LV_TRIGO_SHIFT 15 /**<  >> LV_TRIGO_SHIFT to normalize*/
  24:Drivers/lvgl/src/extra/widgets/meter/../../../../src/misc/lv_math.h **** 
  25:Drivers/lvgl/src/extra/widgets/meter/../../../../src/misc/lv_math.h **** #define LV_BEZIER_VAL_MAX 1024 /**< Max time in Bezier functions (not [0..1] to use integers)*/
  26:Drivers/lvgl/src/extra/widgets/meter/../../../../src/misc/lv_math.h **** #define LV_BEZIER_VAL_SHIFT 10 /**< log2(LV_BEZIER_VAL_MAX): used to normalize up scaled values*/
  27:Drivers/lvgl/src/extra/widgets/meter/../../../../src/misc/lv_math.h **** 
  28:Drivers/lvgl/src/extra/widgets/meter/../../../../src/misc/lv_math.h **** /**********************
  29:Drivers/lvgl/src/extra/widgets/meter/../../../../src/misc/lv_math.h ****  *      TYPEDEFS
  30:Drivers/lvgl/src/extra/widgets/meter/../../../../src/misc/lv_math.h ****  **********************/
  31:Drivers/lvgl/src/extra/widgets/meter/../../../../src/misc/lv_math.h **** 
  32:Drivers/lvgl/src/extra/widgets/meter/../../../../src/misc/lv_math.h **** typedef struct {
  33:Drivers/lvgl/src/extra/widgets/meter/../../../../src/misc/lv_math.h ****     uint16_t i;
  34:Drivers/lvgl/src/extra/widgets/meter/../../../../src/misc/lv_math.h ****     uint16_t f;
  35:Drivers/lvgl/src/extra/widgets/meter/../../../../src/misc/lv_math.h **** } lv_sqrt_res_t;
  36:Drivers/lvgl/src/extra/widgets/meter/../../../../src/misc/lv_math.h **** 
  37:Drivers/lvgl/src/extra/widgets/meter/../../../../src/misc/lv_math.h **** /**********************
  38:Drivers/lvgl/src/extra/widgets/meter/../../../../src/misc/lv_math.h ****  * GLOBAL PROTOTYPES
  39:Drivers/lvgl/src/extra/widgets/meter/../../../../src/misc/lv_math.h ****  **********************/
  40:Drivers/lvgl/src/extra/widgets/meter/../../../../src/misc/lv_math.h **** 
  41:Drivers/lvgl/src/extra/widgets/meter/../../../../src/misc/lv_math.h **** //! @cond Doxygen_Suppress
  42:Drivers/lvgl/src/extra/widgets/meter/../../../../src/misc/lv_math.h **** /**
  43:Drivers/lvgl/src/extra/widgets/meter/../../../../src/misc/lv_math.h ****  * Return with sinus of an angle
  44:Drivers/lvgl/src/extra/widgets/meter/../../../../src/misc/lv_math.h ****  * @param angle
  45:Drivers/lvgl/src/extra/widgets/meter/../../../../src/misc/lv_math.h ****  * @return sinus of 'angle'. sin(-90) = -32767, sin(90) = 32767
  46:Drivers/lvgl/src/extra/widgets/meter/../../../../src/misc/lv_math.h ****  */
  47:Drivers/lvgl/src/extra/widgets/meter/../../../../src/misc/lv_math.h **** int16_t /* LV_ATTRIBUTE_FAST_MEM */ lv_trigo_sin(int16_t angle);
  48:Drivers/lvgl/src/extra/widgets/meter/../../../../src/misc/lv_math.h **** 
  49:Drivers/lvgl/src/extra/widgets/meter/../../../../src/misc/lv_math.h **** static inline int16_t LV_ATTRIBUTE_FAST_MEM lv_trigo_cos(int16_t angle)
  50:Drivers/lvgl/src/extra/widgets/meter/../../../../src/misc/lv_math.h **** {
  51:Drivers/lvgl/src/extra/widgets/meter/../../../../src/misc/lv_math.h ****     return lv_trigo_sin(angle + 90);
 631              		.loc 4 51 31 view .LVU201
 632 012a 039B     		ldr	r3, [sp, #12]
 633              	.LBE73:
 634              	.LBE72:
 671:Drivers/lvgl/src/extra/widgets/meter/lv_meter.c ****         p_end.x = (lv_trigo_cos(angle) * (r_out)) / LV_TRIGO_SIN_MAX + scale_center.x;
 635              		.loc 1 671 51 discriminator 1 view .LVU202
 636 012c 8AFB02C1 		smull	ip, r1, r10, r2
 637              	.LBB78:
 638              	.LBB74:
 639              		.loc 4 51 31 view .LVU203
 640 0130 03F15A00 		add	r0, r3, #90
 641              	.LBE74:
 642              	.LBE78:
ARM GAS  /var/folders/lp/x54gwt890xv47sdkqj1k04q40000gn/T//ccVgM3G4.s 			page 37


 671:Drivers/lvgl/src/extra/widgets/meter/lv_meter.c ****         p_end.x = (lv_trigo_cos(angle) * (r_out)) / LV_TRIGO_SIN_MAX + scale_center.x;
 643              		.loc 1 671 51 discriminator 1 view .LVU204
 644 0134 D317     		asrs	r3, r2, #31
 645 0136 0A44     		add	r2, r2, r1
 646 0138 C3EBA233 		rsb	r3, r3, r2, asr #14
 647              	.LBB79:
 648              	.LBB75:
 649              		.loc 4 51 12 view .LVU205
 650 013c 00B2     		sxth	r0, r0
 651              	.LBE75:
 652              	.LBE79:
 653              	.LBE71:
 663:Drivers/lvgl/src/extra/widgets/meter/lv_meter.c **** 
 654              		.loc 1 663 36 view .LVU206
 655 013e 0FFA88F7 		sxth	r7, r8
 656              	.LBB82:
 668:Drivers/lvgl/src/extra/widgets/meter/lv_meter.c ****         r_out += scale->r_mod + indic->type_data.needle_line.r_mod;
 657              		.loc 1 668 9 is_stmt 1 view .LVU207
 669:Drivers/lvgl/src/extra/widgets/meter/lv_meter.c ****         lv_point_t p_end;
 658              		.loc 1 669 9 view .LVU208
 659              	.LVL66:
 670:Drivers/lvgl/src/extra/widgets/meter/lv_meter.c ****         p_end.y = (lv_trigo_sin(angle) * (r_out)) / LV_TRIGO_SIN_MAX + scale_center.y;
 660              		.loc 1 670 9 view .LVU209
 671:Drivers/lvgl/src/extra/widgets/meter/lv_meter.c ****         p_end.x = (lv_trigo_cos(angle) * (r_out)) / LV_TRIGO_SIN_MAX + scale_center.x;
 661              		.loc 1 671 9 view .LVU210
 671:Drivers/lvgl/src/extra/widgets/meter/lv_meter.c ****         p_end.x = (lv_trigo_cos(angle) * (r_out)) / LV_TRIGO_SIN_MAX + scale_center.x;
 662              		.loc 1 671 70 is_stmt 0 discriminator 1 view .LVU211
 663 0142 9844     		add	r8, r8, r3
 664              	.LVL67:
 665              	.LBB80:
 666              	.LBB76:
 667              		.loc 4 51 12 view .LVU212
 668 0144 FFF7FEFF 		bl	lv_trigo_sin
 669              	.LVL68:
 670              	.LBE76:
 671              	.LBE80:
 672:Drivers/lvgl/src/extra/widgets/meter/lv_meter.c **** 
 672              		.loc 1 672 40 discriminator 1 view .LVU213
 673 0148 04FB00F0 		mul	r0, r4, r0
 675:Drivers/lvgl/src/extra/widgets/meter/lv_meter.c ****         a.y1 = LV_MIN(scale_center.y, p_end.y) - indic->type_data.needle_line.width - 2;
 674              		.loc 1 675 78 view .LVU214
 675 014c 2A8A     		ldrh	r2, [r5, #16]
 672:Drivers/lvgl/src/extra/widgets/meter/lv_meter.c **** 
 676              		.loc 1 672 51 discriminator 1 view .LVU215
 677 014e 8AFB003A 		smull	r3, r10, r10, r0
 678 0152 8244     		add	r10, r10, r0
 679 0154 C317     		asrs	r3, r0, #31
 680 0156 C3EBAA33 		rsb	r3, r3, r10, asr #14
 681 015a C2F57F41 		rsb	r1, r2, #65280
 672:Drivers/lvgl/src/extra/widgets/meter/lv_meter.c **** 
 682              		.loc 1 672 70 discriminator 1 view .LVU216
 683 015e 4B44     		add	r3, r3, r9
 684 0160 FE31     		adds	r1, r1, #254
 685 0162 0232     		adds	r2, r2, #2
 686 0164 1BB2     		sxth	r3, r3
 687              	.LBE82:
 662:Drivers/lvgl/src/extra/widgets/meter/lv_meter.c ****     scale_center.y = scale_area.y1 + r_out;
ARM GAS  /var/folders/lp/x54gwt890xv47sdkqj1k04q40000gn/T//ccVgM3G4.s 			page 38


 688              		.loc 1 662 36 view .LVU217
 689 0166 0FFA89FB 		sxth	fp, r9
 690 016a 89B2     		uxth	r1, r1
 691 016c 92B2     		uxth	r2, r2
 692              	.LBB83:
 675:Drivers/lvgl/src/extra/widgets/meter/lv_meter.c ****         a.y1 = LV_MIN(scale_center.y, p_end.y) - indic->type_data.needle_line.width - 2;
 693              		.loc 1 675 85 view .LVU218
 694 016e 0024     		movs	r4, #0
 695              	.LVL69:
 675:Drivers/lvgl/src/extra/widgets/meter/lv_meter.c ****         a.y1 = LV_MIN(scale_center.y, p_end.y) - indic->type_data.needle_line.width - 2;
 696              		.loc 1 675 85 view .LVU219
 697 0170 9B45     		cmp	fp, r3
 698 0172 D4BF     		ite	le
 699 0174 01EB0B0C 		addle	ip, r1, fp
 700 0178 01EB030C 		addgt	ip, r1, r3
 671:Drivers/lvgl/src/extra/widgets/meter/lv_meter.c ****         p_end.x = (lv_trigo_cos(angle) * (r_out)) / LV_TRIGO_SIN_MAX + scale_center.x;
 701              		.loc 1 671 70 discriminator 1 view .LVU220
 702 017c 0FFA88F8 		sxth	r8, r8
 703              	.LVL70:
 672:Drivers/lvgl/src/extra/widgets/meter/lv_meter.c **** 
 704              		.loc 1 672 9 is_stmt 1 view .LVU221
 705              	.LBB81:
 706              	.LBI72:
  49:Drivers/lvgl/src/extra/widgets/meter/../../../../src/misc/lv_math.h **** {
 707              		.loc 4 49 45 view .LVU222
 708              	.LBB77:
 709              		.loc 4 51 5 view .LVU223
 710              		.loc 4 51 5 is_stmt 0 view .LVU224
 711              	.LBE77:
 712              	.LBE81:
 674:Drivers/lvgl/src/extra/widgets/meter/lv_meter.c ****         a.x1 = LV_MIN(scale_center.x, p_end.x) - indic->type_data.needle_line.width - 2;
 713              		.loc 1 674 9 is_stmt 1 view .LVU225
 675:Drivers/lvgl/src/extra/widgets/meter/lv_meter.c ****         a.y1 = LV_MIN(scale_center.y, p_end.y) - indic->type_data.needle_line.width - 2;
 714              		.loc 1 675 9 view .LVU226
 676:Drivers/lvgl/src/extra/widgets/meter/lv_meter.c ****         a.x2 = LV_MAX(scale_center.x, p_end.x) + indic->type_data.needle_line.width + 2;
 715              		.loc 1 676 9 view .LVU227
 677:Drivers/lvgl/src/extra/widgets/meter/lv_meter.c ****         a.y2 = LV_MAX(scale_center.y, p_end.y) + indic->type_data.needle_line.width + 2;
 716              		.loc 1 677 9 view .LVU228
 678:Drivers/lvgl/src/extra/widgets/meter/lv_meter.c **** 
 717              		.loc 1 678 9 view .LVU229
 680:Drivers/lvgl/src/extra/widgets/meter/lv_meter.c ****     }
 718              		.loc 1 680 9 is_stmt 0 view .LVU230
 719 0180 3046     		mov	r0, r6
 675:Drivers/lvgl/src/extra/widgets/meter/lv_meter.c ****         a.y1 = LV_MIN(scale_center.y, p_end.y) - indic->type_data.needle_line.width - 2;
 720              		.loc 1 675 85 view .LVU231
 721 0182 2546     		mov	r5, r4
 722              	.LVL71:
 677:Drivers/lvgl/src/extra/widgets/meter/lv_meter.c ****         a.y2 = LV_MAX(scale_center.y, p_end.y) + indic->type_data.needle_line.width + 2;
 723              		.loc 1 677 85 view .LVU232
 724 0184 9B45     		cmp	fp, r3
 725 0186 ACBF     		ite	ge
 726 0188 02EB0B06 		addge	r6, r2, fp
 727 018c D618     		addlt	r6, r2, r3
 728              	.LVL72:
 675:Drivers/lvgl/src/extra/widgets/meter/lv_meter.c ****         a.y1 = LV_MIN(scale_center.y, p_end.y) - indic->type_data.needle_line.width - 2;
 729              		.loc 1 675 85 view .LVU233
 730 018e 6CF30F04 		bfi	r4, ip, #0, #16
ARM GAS  /var/folders/lp/x54gwt890xv47sdkqj1k04q40000gn/T//ccVgM3G4.s 			page 39


 676:Drivers/lvgl/src/extra/widgets/meter/lv_meter.c ****         a.x2 = LV_MAX(scale_center.x, p_end.x) + indic->type_data.needle_line.width + 2;
 731              		.loc 1 676 85 view .LVU234
 732 0192 4745     		cmp	r7, r8
 733 0194 D4BF     		ite	le
 734 0196 C919     		addle	r1, r1, r7
 735 0198 4144     		addgt	r1, r1, r8
 678:Drivers/lvgl/src/extra/widgets/meter/lv_meter.c **** 
 736              		.loc 1 678 85 view .LVU235
 737 019a 4745     		cmp	r7, r8
 738 019c ACBF     		ite	ge
 739 019e D219     		addge	r2, r2, r7
 740 01a0 4244     		addlt	r2, r2, r8
 675:Drivers/lvgl/src/extra/widgets/meter/lv_meter.c ****         a.y1 = LV_MIN(scale_center.y, p_end.y) - indic->type_data.needle_line.width - 2;
 741              		.loc 1 675 85 view .LVU236
 742 01a2 66F30F05 		bfi	r5, r6, #0, #16
 743 01a6 61F31F44 		bfi	r4, r1, #16, #16
 744 01aa 62F31F45 		bfi	r5, r2, #16, #16
 680:Drivers/lvgl/src/extra/widgets/meter/lv_meter.c ****     }
 745              		.loc 1 680 9 view .LVU237
 746 01ae 06A9     		add	r1, sp, #24
 675:Drivers/lvgl/src/extra/widgets/meter/lv_meter.c ****         a.y1 = LV_MIN(scale_center.y, p_end.y) - indic->type_data.needle_line.width - 2;
 747              		.loc 1 675 14 view .LVU238
 748 01b0 CDE90645 		strd	r4, r5, [sp, #24]
 680:Drivers/lvgl/src/extra/widgets/meter/lv_meter.c ****     }
 749              		.loc 1 680 9 is_stmt 1 view .LVU239
 750 01b4 FFF7FEFF 		bl	lv_obj_invalidate_area
 751              	.LVL73:
 680:Drivers/lvgl/src/extra/widgets/meter/lv_meter.c ****     }
 752              		.loc 1 680 9 is_stmt 0 view .LVU240
 753              	.LBE83:
 754              		.loc 1 701 1 view .LVU241
 755 01b8 0BB0     		add	sp, sp, #44
 756              		.cfi_def_cfa_offset 36
 757              		@ sp needed
 758 01ba BDE8F08F 		pop	{r4, r5, r6, r7, r8, r9, r10, fp, pc}
 759              	.LVL74:
 760              	.L16:
 761              		.loc 1 701 1 view .LVU242
 762 01be 00BF     		.align	2
 763              	.L15:
 764 01c0 03000180 		.word	-2147418109
 765              		.cfi_endproc
 766              	.LFE223:
 768              		.section	.rodata.lv_meter_event.str1.4,"aMS",%progbits,1
 769              		.align	2
 770              	.LC0:
 771 0000 256C6400 		.ascii	"%ld\000"
 772              		.section	.text.lv_meter_event,"ax",%progbits
 773              		.align	1
 774              		.p2align 2,,3
 775              		.syntax unified
 776              		.thumb
 777              		.thumb_func
 779              	lv_meter_event:
 780              	.LVL75:
 781              	.LFB218:
 290:Drivers/lvgl/src/extra/widgets/meter/lv_meter.c ****     LV_UNUSED(class_p);
ARM GAS  /var/folders/lp/x54gwt890xv47sdkqj1k04q40000gn/T//ccVgM3G4.s 			page 40


 782              		.loc 1 290 1 is_stmt 1 view -0
 783              		.cfi_startproc
 784              		@ args = 0, pretend = 0, frame = 344
 785              		@ frame_needed = 0, uses_anonymous_args = 0
 291:Drivers/lvgl/src/extra/widgets/meter/lv_meter.c **** 
 786              		.loc 1 291 5 view .LVU244
 293:Drivers/lvgl/src/extra/widgets/meter/lv_meter.c ****     if(res != LV_RES_OK) return;
 787              		.loc 1 293 5 view .LVU245
 290:Drivers/lvgl/src/extra/widgets/meter/lv_meter.c ****     LV_UNUSED(class_p);
 788              		.loc 1 290 1 is_stmt 0 view .LVU246
 789 0000 2DE9F04F 		push	{r4, r5, r6, r7, r8, r9, r10, fp, lr}
 790              		.cfi_def_cfa_offset 36
 791              		.cfi_offset 4, -36
 792              		.cfi_offset 5, -32
 793              		.cfi_offset 6, -28
 794              		.cfi_offset 7, -24
 795              		.cfi_offset 8, -20
 796              		.cfi_offset 9, -16
 797              		.cfi_offset 10, -12
 798              		.cfi_offset 11, -8
 799              		.cfi_offset 14, -4
 293:Drivers/lvgl/src/extra/widgets/meter/lv_meter.c ****     if(res != LV_RES_OK) return;
 800              		.loc 1 293 20 view .LVU247
 801 0004 0448     		ldr	r0, .L69
 802              	.LVL76:
 290:Drivers/lvgl/src/extra/widgets/meter/lv_meter.c ****     LV_UNUSED(class_p);
 803              		.loc 1 290 1 view .LVU248
 804 0006 DBB0     		sub	sp, sp, #364
 805              		.cfi_def_cfa_offset 400
 290:Drivers/lvgl/src/extra/widgets/meter/lv_meter.c ****     LV_UNUSED(class_p);
 806              		.loc 1 290 1 view .LVU249
 807 0008 0C46     		mov	r4, r1
 293:Drivers/lvgl/src/extra/widgets/meter/lv_meter.c ****     if(res != LV_RES_OK) return;
 808              		.loc 1 293 20 view .LVU250
 809 000a FFF7FEFF 		bl	lv_obj_event_base
 810              	.LVL77:
 294:Drivers/lvgl/src/extra/widgets/meter/lv_meter.c **** 
 811              		.loc 1 294 5 is_stmt 1 view .LVU251
 294:Drivers/lvgl/src/extra/widgets/meter/lv_meter.c **** 
 812              		.loc 1 294 7 is_stmt 0 view .LVU252
 813 000e 0128     		cmp	r0, #1
 814 0010 04D0     		beq	.L66
 815              	.LVL78:
 816              	.L17:
 324:Drivers/lvgl/src/extra/widgets/meter/lv_meter.c **** 
 817              		.loc 1 324 1 view .LVU253
 818 0012 5BB0     		add	sp, sp, #364
 819              		.cfi_remember_state
 820              		.cfi_def_cfa_offset 36
 821              		@ sp needed
 822 0014 BDE8F08F 		pop	{r4, r5, r6, r7, r8, r9, r10, fp, pc}
 823              	.L70:
 824              		.align	2
 825              	.L69:
 826 0018 00000000 		.word	lv_meter_class
 827              	.LVL79:
 828              	.L66:
ARM GAS  /var/folders/lp/x54gwt890xv47sdkqj1k04q40000gn/T//ccVgM3G4.s 			page 41


 829              		.cfi_restore_state
 830              	.LBB136:
 831              	.LBI136:
 289:Drivers/lvgl/src/extra/widgets/meter/lv_meter.c **** {
 832              		.loc 1 289 13 is_stmt 1 view .LVU254
 833              	.LBB137:
 296:Drivers/lvgl/src/extra/widgets/meter/lv_meter.c ****     lv_obj_t * obj = lv_event_get_target(e);
 834              		.loc 1 296 5 view .LVU255
 296:Drivers/lvgl/src/extra/widgets/meter/lv_meter.c ****     lv_obj_t * obj = lv_event_get_target(e);
 835              		.loc 1 296 28 is_stmt 0 view .LVU256
 836 001c 2046     		mov	r0, r4
 837              	.LVL80:
 296:Drivers/lvgl/src/extra/widgets/meter/lv_meter.c ****     lv_obj_t * obj = lv_event_get_target(e);
 838              		.loc 1 296 28 view .LVU257
 839 001e FFF7FEFF 		bl	lv_event_get_code
 840              	.LVL81:
 841 0022 0546     		mov	r5, r0
 842              	.LVL82:
 297:Drivers/lvgl/src/extra/widgets/meter/lv_meter.c ****     if(code == LV_EVENT_DRAW_MAIN) {
 843              		.loc 1 297 5 is_stmt 1 view .LVU258
 297:Drivers/lvgl/src/extra/widgets/meter/lv_meter.c ****     if(code == LV_EVENT_DRAW_MAIN) {
 844              		.loc 1 297 22 is_stmt 0 view .LVU259
 845 0024 2046     		mov	r0, r4
 846 0026 FFF7FEFF 		bl	lv_event_get_target
 847              	.LVL83:
 298:Drivers/lvgl/src/extra/widgets/meter/lv_meter.c ****         lv_draw_ctx_t * draw_ctx = lv_event_get_draw_ctx(e);
 848              		.loc 1 298 7 view .LVU260
 849 002a 152D     		cmp	r5, #21
 297:Drivers/lvgl/src/extra/widgets/meter/lv_meter.c ****     if(code == LV_EVENT_DRAW_MAIN) {
 850              		.loc 1 297 22 view .LVU261
 851 002c 0790     		str	r0, [sp, #28]
 852              	.LVL84:
 298:Drivers/lvgl/src/extra/widgets/meter/lv_meter.c ****         lv_draw_ctx_t * draw_ctx = lv_event_get_draw_ctx(e);
 853              		.loc 1 298 5 is_stmt 1 view .LVU262
 298:Drivers/lvgl/src/extra/widgets/meter/lv_meter.c ****         lv_draw_ctx_t * draw_ctx = lv_event_get_draw_ctx(e);
 854              		.loc 1 298 7 is_stmt 0 view .LVU263
 855 002e F0D1     		bne	.L17
 856              	.LBB138:
 299:Drivers/lvgl/src/extra/widgets/meter/lv_meter.c ****         lv_area_t scale_area;
 857              		.loc 1 299 9 is_stmt 1 view .LVU264
 299:Drivers/lvgl/src/extra/widgets/meter/lv_meter.c ****         lv_area_t scale_area;
 858              		.loc 1 299 36 is_stmt 0 view .LVU265
 859 0030 2046     		mov	r0, r4
 860              	.LVL85:
 299:Drivers/lvgl/src/extra/widgets/meter/lv_meter.c ****         lv_area_t scale_area;
 861              		.loc 1 299 36 view .LVU266
 862 0032 FFF7FEFF 		bl	lv_event_get_draw_ctx
 863              	.LVL86:
 301:Drivers/lvgl/src/extra/widgets/meter/lv_meter.c **** 
 864              		.loc 1 301 9 view .LVU267
 865 0036 079C     		ldr	r4, [sp, #28]
 866              	.LVL87:
 299:Drivers/lvgl/src/extra/widgets/meter/lv_meter.c ****         lv_area_t scale_area;
 867              		.loc 1 299 36 view .LVU268
 868 0038 0890     		str	r0, [sp, #32]
 301:Drivers/lvgl/src/extra/widgets/meter/lv_meter.c **** 
 869              		.loc 1 301 9 view .LVU269
ARM GAS  /var/folders/lp/x54gwt890xv47sdkqj1k04q40000gn/T//ccVgM3G4.s 			page 42


 870 003a 15A9     		add	r1, sp, #84
 299:Drivers/lvgl/src/extra/widgets/meter/lv_meter.c ****         lv_area_t scale_area;
 871              		.loc 1 299 36 view .LVU270
 872 003c 0546     		mov	r5, r0
 873              	.LVL88:
 300:Drivers/lvgl/src/extra/widgets/meter/lv_meter.c ****         lv_obj_get_content_coords(obj, &scale_area);
 874              		.loc 1 300 9 is_stmt 1 view .LVU271
 301:Drivers/lvgl/src/extra/widgets/meter/lv_meter.c **** 
 875              		.loc 1 301 9 view .LVU272
 876 003e 2046     		mov	r0, r4
 877              	.LVL89:
 301:Drivers/lvgl/src/extra/widgets/meter/lv_meter.c **** 
 878              		.loc 1 301 9 is_stmt 0 view .LVU273
 879 0040 FFF7FEFF 		bl	lv_obj_get_content_coords
 880              	.LVL90:
 303:Drivers/lvgl/src/extra/widgets/meter/lv_meter.c ****         draw_ticks_and_labels(obj, draw_ctx, &scale_area);
 881              		.loc 1 303 9 is_stmt 1 view .LVU274
 882              	.LBB139:
 883              	.LBI139:
 326:Drivers/lvgl/src/extra/widgets/meter/lv_meter.c **** {
 884              		.loc 1 326 13 view .LVU275
 885              	.LBB140:
 328:Drivers/lvgl/src/extra/widgets/meter/lv_meter.c **** 
 886              		.loc 1 328 5 view .LVU276
 330:Drivers/lvgl/src/extra/widgets/meter/lv_meter.c ****     lv_draw_arc_dsc_init(&arc_dsc);
 887              		.loc 1 330 5 view .LVU277
 331:Drivers/lvgl/src/extra/widgets/meter/lv_meter.c ****     arc_dsc.rounded = lv_obj_get_style_arc_rounded(obj, LV_PART_ITEMS);
 888              		.loc 1 331 5 view .LVU278
 889 0044 40A8     		add	r0, sp, #256
 890 0046 FFF7FEFF 		bl	lv_draw_arc_dsc_init
 891              	.LVL91:
 332:Drivers/lvgl/src/extra/widgets/meter/lv_meter.c **** 
 892              		.loc 1 332 5 view .LVU279
 893              	.LBB141:
 894              	.LBI141:
 415:Drivers/lvgl/src/extra/widgets/meter/../../../../src/core/lv_obj_style_gen.h **** {
 895              		.loc 2 415 20 view .LVU280
 896              	.LBB142:
 417:Drivers/lvgl/src/extra/widgets/meter/../../../../src/core/lv_obj_style_gen.h ****     return (bool)v.num;
 897              		.loc 2 417 5 view .LVU281
 417:Drivers/lvgl/src/extra/widgets/meter/../../../../src/core/lv_obj_style_gen.h ****     return (bool)v.num;
 898              		.loc 2 417 26 is_stmt 0 view .LVU282
 899 004a 5122     		movs	r2, #81
 900 004c 4FF4A021 		mov	r1, #327680
 901 0050 2046     		mov	r0, r4
 902 0052 FFF7FEFF 		bl	lv_obj_get_style_prop
 903              	.LVL92:
 904              		.loc 2 418 5 is_stmt 1 view .LVU283
 905              	.LBE142:
 906              	.LBE141:
 907              	.LBB145:
 908              	.LBB146:
 909              		.loc 3 125 49 is_stmt 0 view .LVU284
 910 0056 BDF85830 		ldrh	r3, [sp, #88]
 911              		.loc 3 125 44 view .LVU285
 912 005a BDF85420 		ldrh	r2, [sp, #84]
 913              		.loc 3 125 49 view .LVU286
ARM GAS  /var/folders/lp/x54gwt890xv47sdkqj1k04q40000gn/T//ccVgM3G4.s 			page 43


 914 005e 0133     		adds	r3, r3, #1
 915 0060 9B1A     		subs	r3, r3, r2
 916              	.LBE146:
 917              	.LBE145:
 918              	.LBB148:
 919              	.LBB143:
 920              		.loc 2 418 12 view .LVU287
 921 0062 011E     		subs	r1, r0, #0
 922              	.LBE143:
 923              	.LBE148:
 334:Drivers/lvgl/src/extra/widgets/meter/lv_meter.c ****     lv_point_t scale_center;
 924              		.loc 1 334 16 discriminator 1 view .LVU288
 925 0064 C3F3C030 		ubfx	r0, r3, #15, #1
 926 0068 00FA83F3 		sxtah	r3, r0, r3
 336:Drivers/lvgl/src/extra/widgets/meter/lv_meter.c ****     scale_center.y = scale_area->y1 + r_out;
 927              		.loc 1 336 37 view .LVU289
 928 006c C3F34F07 		ubfx	r7, r3, #1, #16
 332:Drivers/lvgl/src/extra/widgets/meter/lv_meter.c **** 
 929              		.loc 1 332 21 discriminator 1 view .LVU290
 930 0070 9DF80D31 		ldrb	r3, [sp, #269]	@ zero_extendqisi2
 931              	.LBB149:
 932              	.LBB144:
 933              		.loc 2 418 12 view .LVU291
 934 0074 18BF     		it	ne
 935 0076 0121     		movne	r1, #1
 936              	.LVL93:
 937              		.loc 2 418 12 view .LVU292
 938              	.LBE144:
 939              	.LBE149:
 332:Drivers/lvgl/src/extra/widgets/meter/lv_meter.c **** 
 940              		.loc 1 332 21 discriminator 1 view .LVU293
 941 0078 61F38203 		bfi	r3, r1, #2, #1
 942 007c 8DF80D31 		strb	r3, [sp, #269]
 334:Drivers/lvgl/src/extra/widgets/meter/lv_meter.c ****     lv_point_t scale_center;
 943              		.loc 1 334 5 is_stmt 1 view .LVU294
 944              	.LVL94:
 945              	.LBB150:
 946              	.LBI145:
 123:Drivers/lvgl/src/extra/widgets/meter/../../../../src/hal/../draw/../misc/../font/../misc/lv_area.h **** {
 947              		.loc 3 123 26 view .LVU295
 948              	.LBB147:
 949              		.loc 3 125 5 view .LVU296
 950              		.loc 3 125 5 is_stmt 0 view .LVU297
 951              	.LBE147:
 952              	.LBE150:
 335:Drivers/lvgl/src/extra/widgets/meter/lv_meter.c ****     scale_center.x = scale_area->x1 + r_out;
 953              		.loc 1 335 5 is_stmt 1 view .LVU298
 336:Drivers/lvgl/src/extra/widgets/meter/lv_meter.c ****     scale_center.y = scale_area->y1 + r_out;
 954              		.loc 1 336 5 view .LVU299
 337:Drivers/lvgl/src/extra/widgets/meter/lv_meter.c **** 
 955              		.loc 1 337 5 view .LVU300
 337:Drivers/lvgl/src/extra/widgets/meter/lv_meter.c **** 
 956              		.loc 1 337 37 is_stmt 0 view .LVU301
 957 0080 BDF85630 		ldrh	r3, [sp, #86]
 336:Drivers/lvgl/src/extra/widgets/meter/lv_meter.c ****     scale_center.y = scale_area->y1 + r_out;
 958              		.loc 1 336 37 view .LVU302
 959 0084 3A44     		add	r2, r2, r7
ARM GAS  /var/folders/lp/x54gwt890xv47sdkqj1k04q40000gn/T//ccVgM3G4.s 			page 44


 960              	.LVL95:
 337:Drivers/lvgl/src/extra/widgets/meter/lv_meter.c **** 
 961              		.loc 1 337 37 view .LVU303
 962 0086 3B44     		add	r3, r3, r7
 339:Drivers/lvgl/src/extra/widgets/meter/lv_meter.c ****     lv_meter_indicator_t * indic;
 963              		.loc 1 339 25 view .LVU304
 964 0088 0021     		movs	r1, #0
 965 008a 2046     		mov	r0, r4
 336:Drivers/lvgl/src/extra/widgets/meter/lv_meter.c ****     scale_center.y = scale_area->y1 + r_out;
 966              		.loc 1 336 20 view .LVU305
 967 008c ADF8E020 		strh	r2, [sp, #224]	@ movhi
 337:Drivers/lvgl/src/extra/widgets/meter/lv_meter.c **** 
 968              		.loc 1 337 20 view .LVU306
 969 0090 ADF8E230 		strh	r3, [sp, #226]	@ movhi
 339:Drivers/lvgl/src/extra/widgets/meter/lv_meter.c ****     lv_meter_indicator_t * indic;
 970              		.loc 1 339 5 is_stmt 1 view .LVU307
 339:Drivers/lvgl/src/extra/widgets/meter/lv_meter.c ****     lv_meter_indicator_t * indic;
 971              		.loc 1 339 25 is_stmt 0 view .LVU308
 972 0094 FFF7FEFF 		bl	lv_obj_get_style_opa_recursive
 973              	.LVL96:
 343:Drivers/lvgl/src/extra/widgets/meter/lv_meter.c ****     part_draw_dsc.arc_dsc = &arc_dsc;
 974              		.loc 1 343 5 view .LVU309
 975 0098 2946     		mov	r1, r5
 339:Drivers/lvgl/src/extra/widgets/meter/lv_meter.c ****     lv_meter_indicator_t * indic;
 976              		.loc 1 339 25 view .LVU310
 977 009a 8046     		mov	r8, r0
 978              	.LVL97:
 340:Drivers/lvgl/src/extra/widgets/meter/lv_meter.c **** 
 979              		.loc 1 340 5 is_stmt 1 view .LVU311
 342:Drivers/lvgl/src/extra/widgets/meter/lv_meter.c ****     lv_obj_draw_dsc_init(&part_draw_dsc, draw_ctx);
 980              		.loc 1 342 5 view .LVU312
 343:Drivers/lvgl/src/extra/widgets/meter/lv_meter.c ****     part_draw_dsc.arc_dsc = &arc_dsc;
 981              		.loc 1 343 5 view .LVU313
 982 009c 48A8     		add	r0, sp, #288
 983 009e FFF7FEFF 		bl	lv_obj_draw_dsc_init
 984              	.LVL98:
 344:Drivers/lvgl/src/extra/widgets/meter/lv_meter.c ****     part_draw_dsc.part = LV_PART_INDICATOR;
 985              		.loc 1 344 5 view .LVU314
 344:Drivers/lvgl/src/extra/widgets/meter/lv_meter.c ****     part_draw_dsc.part = LV_PART_INDICATOR;
 986              		.loc 1 344 27 is_stmt 0 view .LVU315
 987 00a2 40AB     		add	r3, sp, #256
 988 00a4 5093     		str	r3, [sp, #320]
 345:Drivers/lvgl/src/extra/widgets/meter/lv_meter.c ****     part_draw_dsc.class_p = MY_CLASS;
 989              		.loc 1 345 5 is_stmt 1 view .LVU316
 346:Drivers/lvgl/src/extra/widgets/meter/lv_meter.c ****     part_draw_dsc.type = LV_METER_DRAW_PART_ARC;
 990              		.loc 1 346 27 is_stmt 0 view .LVU317
 991 00a6 A54B     		ldr	r3, .L71
 992 00a8 4993     		str	r3, [sp, #292]
 349:Drivers/lvgl/src/extra/widgets/meter/lv_meter.c ****         if(indic->type != LV_METER_INDICATOR_TYPE_ARC) continue;
 993              		.loc 1 349 5 view .LVU318
 994 00aa 04F1300B 		add	fp, r4, #48
 345:Drivers/lvgl/src/extra/widgets/meter/lv_meter.c ****     part_draw_dsc.class_p = MY_CLASS;
 995              		.loc 1 345 24 view .LVU319
 996 00ae 4FF40033 		mov	r3, #131072
 997 00b2 5593     		str	r3, [sp, #340]
 346:Drivers/lvgl/src/extra/widgets/meter/lv_meter.c ****     part_draw_dsc.type = LV_METER_DRAW_PART_ARC;
 998              		.loc 1 346 5 is_stmt 1 view .LVU320
ARM GAS  /var/folders/lp/x54gwt890xv47sdkqj1k04q40000gn/T//ccVgM3G4.s 			page 45


 347:Drivers/lvgl/src/extra/widgets/meter/lv_meter.c **** 
 999              		.loc 1 347 5 view .LVU321
 349:Drivers/lvgl/src/extra/widgets/meter/lv_meter.c ****         if(indic->type != LV_METER_INDICATOR_TYPE_ARC) continue;
 1000              		.loc 1 349 5 is_stmt 0 view .LVU322
 1001 00b4 5846     		mov	r0, fp
 347:Drivers/lvgl/src/extra/widgets/meter/lv_meter.c **** 
 1002              		.loc 1 347 24 view .LVU323
 1003 00b6 0023     		movs	r3, #0
 1004 00b8 4A93     		str	r3, [sp, #296]
 349:Drivers/lvgl/src/extra/widgets/meter/lv_meter.c ****         if(indic->type != LV_METER_INDICATOR_TYPE_ARC) continue;
 1005              		.loc 1 349 5 is_stmt 1 view .LVU324
 1006 00ba FFF7FEFF 		bl	_lv_ll_get_tail
 1007              	.LVL99:
 349:Drivers/lvgl/src/extra/widgets/meter/lv_meter.c ****         if(indic->type != LV_METER_INDICATOR_TYPE_ARC) continue;
 1008              		.loc 1 349 5 discriminator 1 view .LVU325
 1009 00be 38AB     		add	r3, sp, #224
 1010 00c0 0446     		mov	r4, r0
 1011              	.LVL100:
 349:Drivers/lvgl/src/extra/widgets/meter/lv_meter.c ****         if(indic->type != LV_METER_INDICATOR_TYPE_ARC) continue;
 1012              		.loc 1 349 5 is_stmt 0 discriminator 1 view .LVU326
 1013 00c2 0993     		str	r3, [sp, #36]
 1014 00c4 0028     		cmp	r0, #0
 1015 00c6 54D0     		beq	.L26
 1016 00c8 DDF81C90 		ldr	r9, [sp, #28]
 1017 00cc BA46     		mov	r10, r7
 1018 00ce 1F46     		mov	r7, r3
 1019              	.LVL101:
 1020              	.L21:
 1021              	.LBB151:
 350:Drivers/lvgl/src/extra/widgets/meter/lv_meter.c **** 
 1022              		.loc 1 350 9 is_stmt 1 view .LVU327
 352:Drivers/lvgl/src/extra/widgets/meter/lv_meter.c ****         arc_dsc.width = indic->type_data.arc.width;
 1023              		.loc 1 352 9 view .LVU328
 350:Drivers/lvgl/src/extra/widgets/meter/lv_meter.c **** 
 1024              		.loc 1 350 11 is_stmt 0 view .LVU329
 1025 00d0 2379     		ldrb	r3, [r4, #4]	@ zero_extendqisi2
 1026 00d2 032B     		cmp	r3, #3
 1027 00d4 46D1     		bne	.L24
 352:Drivers/lvgl/src/extra/widgets/meter/lv_meter.c ****         arc_dsc.width = indic->type_data.arc.width;
 1028              		.loc 1 352 23 view .LVU330
 1029 00d6 238B     		ldrh	r3, [r4, #24]
 1030 00d8 ADF80031 		strh	r3, [sp, #256]	@ movhi
 353:Drivers/lvgl/src/extra/widgets/meter/lv_meter.c ****         arc_dsc.opa = indic->opa > LV_OPA_MAX ? opa_main : (opa_main * indic->opa) >> 8;
 1031              		.loc 1 353 9 is_stmt 1 view .LVU331
 353:Drivers/lvgl/src/extra/widgets/meter/lv_meter.c ****         arc_dsc.opa = indic->opa > LV_OPA_MAX ? opa_main : (opa_main * indic->opa) >> 8;
 1032              		.loc 1 353 23 is_stmt 0 view .LVU332
 1033 00dc 238A     		ldrh	r3, [r4, #16]
 1034 00de ADF80231 		strh	r3, [sp, #258]	@ movhi
 354:Drivers/lvgl/src/extra/widgets/meter/lv_meter.c **** 
 1035              		.loc 1 354 9 is_stmt 1 view .LVU333
 354:Drivers/lvgl/src/extra/widgets/meter/lv_meter.c **** 
 1036              		.loc 1 354 28 is_stmt 0 view .LVU334
 1037 00e2 6379     		ldrb	r3, [r4, #5]	@ zero_extendqisi2
 354:Drivers/lvgl/src/extra/widgets/meter/lv_meter.c **** 
 1038              		.loc 1 354 21 view .LVU335
 1039 00e4 FD2B     		cmp	r3, #253
 354:Drivers/lvgl/src/extra/widgets/meter/lv_meter.c **** 
ARM GAS  /var/folders/lp/x54gwt890xv47sdkqj1k04q40000gn/T//ccVgM3G4.s 			page 46


 1040              		.loc 1 354 70 discriminator 1 view .LVU336
 1041 00e6 18FB03F3 		smulbb	r3, r8, r3
 354:Drivers/lvgl/src/extra/widgets/meter/lv_meter.c **** 
 1042              		.loc 1 354 21 discriminator 2 view .LVU337
 1043 00ea 4246     		mov	r2, r8
 354:Drivers/lvgl/src/extra/widgets/meter/lv_meter.c **** 
 1044              		.loc 1 354 21 discriminator 1 view .LVU338
 1045 00ec 98BF     		it	ls
 1046 00ee C3F30722 		ubfxls	r2, r3, #8, #8
 354:Drivers/lvgl/src/extra/widgets/meter/lv_meter.c **** 
 1047              		.loc 1 354 21 discriminator 4 view .LVU339
 1048 00f2 8DF80C21 		strb	r2, [sp, #268]
 356:Drivers/lvgl/src/extra/widgets/meter/lv_meter.c **** 
 1049              		.loc 1 356 9 is_stmt 1 view .LVU340
 356:Drivers/lvgl/src/extra/widgets/meter/lv_meter.c **** 
 1050              		.loc 1 356 28 is_stmt 0 view .LVU341
 1051 00f6 2568     		ldr	r5, [r4]
 1052              	.LVL102:
 358:Drivers/lvgl/src/extra/widgets/meter/lv_meter.c ****                                      scale->rotation + scale->angle_range);
 1053              		.loc 1 358 9 is_stmt 1 view .LVU342
 358:Drivers/lvgl/src/extra/widgets/meter/lv_meter.c ****                                      scale->rotation + scale->angle_range);
 1054              		.loc 1 358 31 is_stmt 0 view .LVU343
 1055 00f8 A068     		ldr	r0, [r4, #8]
 1056              	.LVL103:
 358:Drivers/lvgl/src/extra/widgets/meter/lv_meter.c ****                                      scale->rotation + scale->angle_range);
 1057              		.loc 1 358 31 view .LVU344
 1058 00fa B5F92030 		ldrsh	r3, [r5, #32]
 359:Drivers/lvgl/src/extra/widgets/meter/lv_meter.c ****         int32_t end_angle = lv_map(indic->end_value, scale->min, scale->max, scale->rotation,
 1059              		.loc 1 359 61 view .LVU345
 1060 00fe EE8B     		ldrh	r6, [r5, #30]
 359:Drivers/lvgl/src/extra/widgets/meter/lv_meter.c ****         int32_t end_angle = lv_map(indic->end_value, scale->min, scale->max, scale->rotation,
 1061              		.loc 1 359 54 view .LVU346
 1062 0100 1E44     		add	r6, r6, r3
 358:Drivers/lvgl/src/extra/widgets/meter/lv_meter.c ****                                      scale->rotation + scale->angle_range);
 1063              		.loc 1 358 31 view .LVU347
 1064 0102 D5E90512 		ldrd	r1, r2, [r5, #20]
 1065 0106 0096     		str	r6, [sp]
 1066 0108 FFF7FEFF 		bl	lv_map
 1067              	.LVL104:
 360:Drivers/lvgl/src/extra/widgets/meter/lv_meter.c ****                                    scale->rotation + scale->angle_range);
 1068              		.loc 1 360 29 view .LVU348
 1069 010c B5F92030 		ldrsh	r3, [r5, #32]
 361:Drivers/lvgl/src/extra/widgets/meter/lv_meter.c **** 
 1070              		.loc 1 361 59 view .LVU349
 1071 0110 B5F81EC0 		ldrh	ip, [r5, #30]
 361:Drivers/lvgl/src/extra/widgets/meter/lv_meter.c **** 
 1072              		.loc 1 361 52 view .LVU350
 1073 0114 9C44     		add	ip, ip, r3
 360:Drivers/lvgl/src/extra/widgets/meter/lv_meter.c ****                                    scale->rotation + scale->angle_range);
 1074              		.loc 1 360 29 view .LVU351
 1075 0116 D5E90512 		ldrd	r1, r2, [r5, #20]
 358:Drivers/lvgl/src/extra/widgets/meter/lv_meter.c ****                                      scale->rotation + scale->angle_range);
 1076              		.loc 1 358 31 view .LVU352
 1077 011a 0646     		mov	r6, r0
 1078              	.LVL105:
 360:Drivers/lvgl/src/extra/widgets/meter/lv_meter.c ****                                    scale->rotation + scale->angle_range);
 1079              		.loc 1 360 9 is_stmt 1 view .LVU353
ARM GAS  /var/folders/lp/x54gwt890xv47sdkqj1k04q40000gn/T//ccVgM3G4.s 			page 47


 360:Drivers/lvgl/src/extra/widgets/meter/lv_meter.c ****                                    scale->rotation + scale->angle_range);
 1080              		.loc 1 360 29 is_stmt 0 view .LVU354
 1081 011c E068     		ldr	r0, [r4, #12]
 1082              	.LVL106:
 360:Drivers/lvgl/src/extra/widgets/meter/lv_meter.c ****                                    scale->rotation + scale->angle_range);
 1083              		.loc 1 360 29 view .LVU355
 1084 011e CDF800C0 		str	ip, [sp]
 1085 0122 FFF7FEFF 		bl	lv_map
 1086              	.LVL107:
 363:Drivers/lvgl/src/extra/widgets/meter/lv_meter.c ****         arc_dsc.end_angle = end_angle;
 1087              		.loc 1 363 9 is_stmt 1 view .LVU356
 365:Drivers/lvgl/src/extra/widgets/meter/lv_meter.c ****         part_draw_dsc.sub_part_ptr = indic;
 1088              		.loc 1 365 38 is_stmt 0 view .LVU357
 1089 0126 638B     		ldrh	r3, [r4, #26]
 366:Drivers/lvgl/src/extra/widgets/meter/lv_meter.c ****         part_draw_dsc.p1 = &scale_center;
 1090              		.loc 1 366 36 view .LVU358
 1091 0128 5994     		str	r4, [sp, #356]
 364:Drivers/lvgl/src/extra/widgets/meter/lv_meter.c ****         part_draw_dsc.radius = r_out + indic->type_data.arc.r_mod;
 1092              		.loc 1 364 27 view .LVU359
 1093 012a 85B2     		uxth	r5, r0
 1094              	.LVL108:
 365:Drivers/lvgl/src/extra/widgets/meter/lv_meter.c ****         part_draw_dsc.sub_part_ptr = indic;
 1095              		.loc 1 365 38 view .LVU360
 1096 012c 5344     		add	r3, r3, r10
 363:Drivers/lvgl/src/extra/widgets/meter/lv_meter.c ****         arc_dsc.end_angle = end_angle;
 1097              		.loc 1 363 29 view .LVU361
 1098 012e B6B2     		uxth	r6, r6
 1099              	.LVL109:
 369:Drivers/lvgl/src/extra/widgets/meter/lv_meter.c ****         lv_draw_arc(draw_ctx, &arc_dsc, &scale_center, part_draw_dsc.radius, start_angle, end_angle
 1100              		.loc 1 369 9 view .LVU362
 1101 0130 48AA     		add	r2, sp, #288
 1102 0132 1A21     		movs	r1, #26
 1103 0134 4846     		mov	r0, r9
 1104              	.LVL110:
 365:Drivers/lvgl/src/extra/widgets/meter/lv_meter.c ****         part_draw_dsc.sub_part_ptr = indic;
 1105              		.loc 1 365 30 view .LVU363
 1106 0136 ADF85C31 		strh	r3, [sp, #348]	@ movhi
 363:Drivers/lvgl/src/extra/widgets/meter/lv_meter.c ****         arc_dsc.end_angle = end_angle;
 1107              		.loc 1 363 29 view .LVU364
 1108 013a ADF80461 		strh	r6, [sp, #260]	@ movhi
 364:Drivers/lvgl/src/extra/widgets/meter/lv_meter.c ****         part_draw_dsc.radius = r_out + indic->type_data.arc.r_mod;
 1109              		.loc 1 364 9 is_stmt 1 view .LVU365
 364:Drivers/lvgl/src/extra/widgets/meter/lv_meter.c ****         part_draw_dsc.radius = r_out + indic->type_data.arc.r_mod;
 1110              		.loc 1 364 27 is_stmt 0 view .LVU366
 1111 013e ADF80651 		strh	r5, [sp, #262]	@ movhi
 365:Drivers/lvgl/src/extra/widgets/meter/lv_meter.c ****         part_draw_dsc.sub_part_ptr = indic;
 1112              		.loc 1 365 9 is_stmt 1 view .LVU367
 366:Drivers/lvgl/src/extra/widgets/meter/lv_meter.c ****         part_draw_dsc.p1 = &scale_center;
 1113              		.loc 1 366 9 view .LVU368
 367:Drivers/lvgl/src/extra/widgets/meter/lv_meter.c **** 
 1114              		.loc 1 367 9 view .LVU369
 367:Drivers/lvgl/src/extra/widgets/meter/lv_meter.c **** 
 1115              		.loc 1 367 26 is_stmt 0 view .LVU370
 1116 0142 5197     		str	r7, [sp, #324]
 369:Drivers/lvgl/src/extra/widgets/meter/lv_meter.c ****         lv_draw_arc(draw_ctx, &arc_dsc, &scale_center, part_draw_dsc.radius, start_angle, end_angle
 1117              		.loc 1 369 9 is_stmt 1 view .LVU371
 1118 0144 FFF7FEFF 		bl	lv_event_send
ARM GAS  /var/folders/lp/x54gwt890xv47sdkqj1k04q40000gn/T//ccVgM3G4.s 			page 48


 1119              	.LVL111:
 370:Drivers/lvgl/src/extra/widgets/meter/lv_meter.c ****         lv_event_send(obj, LV_EVENT_DRAW_PART_END, &part_draw_dsc);
 1120              		.loc 1 370 9 view .LVU372
 1121 0148 0898     		ldr	r0, [sp, #32]
 1122 014a BDF85C31 		ldrh	r3, [sp, #348]
 1123 014e 3A46     		mov	r2, r7
 1124 0150 40A9     		add	r1, sp, #256
 1125 0152 CDE90065 		strd	r6, r5, [sp]
 1126 0156 FFF7FEFF 		bl	lv_draw_arc
 1127              	.LVL112:
 371:Drivers/lvgl/src/extra/widgets/meter/lv_meter.c ****     }
 1128              		.loc 1 371 9 view .LVU373
 1129 015a 48AA     		add	r2, sp, #288
 1130 015c 1B21     		movs	r1, #27
 1131 015e 4846     		mov	r0, r9
 1132 0160 FFF7FEFF 		bl	lv_event_send
 1133              	.LVL113:
 1134              	.L24:
 371:Drivers/lvgl/src/extra/widgets/meter/lv_meter.c ****     }
 1135              		.loc 1 371 9 is_stmt 0 view .LVU374
 1136              	.LBE151:
 349:Drivers/lvgl/src/extra/widgets/meter/lv_meter.c ****         if(indic->type != LV_METER_INDICATOR_TYPE_ARC) continue;
 1137              		.loc 1 349 5 is_stmt 1 discriminator 2 view .LVU375
 1138 0164 2146     		mov	r1, r4
 1139 0166 5846     		mov	r0, fp
 1140 0168 FFF7FEFF 		bl	_lv_ll_get_prev
 1141              	.LVL114:
 349:Drivers/lvgl/src/extra/widgets/meter/lv_meter.c ****         if(indic->type != LV_METER_INDICATOR_TYPE_ARC) continue;
 1142              		.loc 1 349 5 discriminator 1 view .LVU376
 1143 016c 0446     		mov	r4, r0
 1144 016e 0028     		cmp	r0, #0
 1145 0170 AED1     		bne	.L21
 1146              	.L26:
 1147              	.LVL115:
 349:Drivers/lvgl/src/extra/widgets/meter/lv_meter.c ****         if(indic->type != LV_METER_INDICATOR_TYPE_ARC) continue;
 1148              		.loc 1 349 5 is_stmt 0 discriminator 1 view .LVU377
 1149              	.LBE140:
 1150              	.LBE139:
 304:Drivers/lvgl/src/extra/widgets/meter/lv_meter.c ****         draw_needles(obj, draw_ctx, &scale_area);
 1151              		.loc 1 304 9 is_stmt 1 view .LVU378
 1152              	.LBB152:
 1153              	.LBI152:
 375:Drivers/lvgl/src/extra/widgets/meter/lv_meter.c **** {
 1154              		.loc 1 375 13 view .LVU379
 1155              	.LBB153:
 377:Drivers/lvgl/src/extra/widgets/meter/lv_meter.c **** 
 1156              		.loc 1 377 5 view .LVU380
 379:Drivers/lvgl/src/extra/widgets/meter/lv_meter.c ****     lv_coord_t r_edge = LV_MIN(lv_area_get_width(scale_area) / 2, lv_area_get_height(scale_area) / 
 1157              		.loc 1 379 5 view .LVU381
 380:Drivers/lvgl/src/extra/widgets/meter/lv_meter.c ****     p_center.x = scale_area->x1 + r_edge;
 1158              		.loc 1 380 5 view .LVU382
 1159              	.LBB154:
 1160              	.LBI154:
 123:Drivers/lvgl/src/extra/widgets/meter/../../../../src/hal/../draw/../misc/../font/../misc/lv_area.h **** {
 1161              		.loc 3 123 26 view .LVU383
 1162              	.LBB155:
 1163              		.loc 3 125 5 view .LVU384
ARM GAS  /var/folders/lp/x54gwt890xv47sdkqj1k04q40000gn/T//ccVgM3G4.s 			page 49


 1164              		.loc 3 125 49 is_stmt 0 view .LVU385
 1165 0172 BDF85800 		ldrh	r0, [sp, #88]
 1166              		.loc 3 125 44 view .LVU386
 1167 0176 BDF85410 		ldrh	r1, [sp, #84]
 1168              	.LVL116:
 1169              		.loc 3 125 44 view .LVU387
 1170              	.LBE155:
 1171              	.LBE154:
 1172              	.LBB157:
 1173              	.LBI157:
 126:Drivers/lvgl/src/extra/widgets/meter/../../../../src/hal/../draw/../misc/../font/../misc/lv_area.h **** }
 127:Drivers/lvgl/src/extra/widgets/meter/../../../../src/hal/../draw/../misc/../font/../misc/lv_area.h **** 
 128:Drivers/lvgl/src/extra/widgets/meter/../../../../src/hal/../draw/../misc/../font/../misc/lv_area.h **** /**
 129:Drivers/lvgl/src/extra/widgets/meter/../../../../src/hal/../draw/../misc/../font/../misc/lv_area.h ****  * Get the height of an area
 130:Drivers/lvgl/src/extra/widgets/meter/../../../../src/hal/../draw/../misc/../font/../misc/lv_area.h ****  * @param area_p pointer to an area
 131:Drivers/lvgl/src/extra/widgets/meter/../../../../src/hal/../draw/../misc/../font/../misc/lv_area.h ****  * @return the height of the area (if y1 == y2 -> height = 1)
 132:Drivers/lvgl/src/extra/widgets/meter/../../../../src/hal/../draw/../misc/../font/../misc/lv_area.h ****  */
 133:Drivers/lvgl/src/extra/widgets/meter/../../../../src/hal/../draw/../misc/../font/../misc/lv_area.h **** static inline lv_coord_t lv_area_get_height(const lv_area_t * area_p)
 1174              		.loc 3 133 26 is_stmt 1 view .LVU388
 1175              	.LBB158:
 134:Drivers/lvgl/src/extra/widgets/meter/../../../../src/hal/../draw/../misc/../font/../misc/lv_area.h **** {
 135:Drivers/lvgl/src/extra/widgets/meter/../../../../src/hal/../draw/../misc/../font/../misc/lv_area.h ****     return (lv_coord_t)(area_p->y2 - area_p->y1 + 1);
 1176              		.loc 3 135 5 view .LVU389
 1177              		.loc 3 135 49 is_stmt 0 view .LVU390
 1178 017a BDF85A30 		ldrh	r3, [sp, #90]
 1179              		.loc 3 135 44 view .LVU391
 1180 017e BDF85620 		ldrh	r2, [sp, #86]
 1181              	.LVL117:
 1182              		.loc 3 135 44 view .LVU392
 1183              	.LBE158:
 1184              	.LBE157:
 1185              	.LBB160:
 1186              	.LBB156:
 125:Drivers/lvgl/src/extra/widgets/meter/../../../../src/hal/../draw/../misc/../font/../misc/lv_area.h **** }
 1187              		.loc 3 125 49 view .LVU393
 1188 0182 0130     		adds	r0, r0, #1
 1189 0184 401A     		subs	r0, r0, r1
 1190              	.LBE156:
 1191              	.LBE160:
 1192              	.LBB161:
 1193              	.LBB159:
 1194              		.loc 3 135 49 view .LVU394
 1195 0186 0133     		adds	r3, r3, #1
 1196 0188 9B1A     		subs	r3, r3, r2
 1197              	.LBE159:
 1198              	.LBE161:
 380:Drivers/lvgl/src/extra/widgets/meter/lv_meter.c ****     p_center.x = scale_area->x1 + r_edge;
 1199              		.loc 1 380 25 discriminator 1 view .LVU395
 1200 018a C0F3C034 		ubfx	r4, r0, #15, #1
 1201 018e 04FA80F4 		sxtah	r4, r4, r0
 380:Drivers/lvgl/src/extra/widgets/meter/lv_meter.c ****     p_center.x = scale_area->x1 + r_edge;
 1202              		.loc 1 380 25 discriminator 2 view .LVU396
 1203 0192 C3F3C030 		ubfx	r0, r3, #15, #1
 1204 0196 00FA83F3 		sxtah	r3, r0, r3
 380:Drivers/lvgl/src/extra/widgets/meter/lv_meter.c ****     p_center.x = scale_area->x1 + r_edge;
 1205              		.loc 1 380 16 discriminator 2 view .LVU397
 1206 019a 6410     		asrs	r4, r4, #1
ARM GAS  /var/folders/lp/x54gwt890xv47sdkqj1k04q40000gn/T//ccVgM3G4.s 			page 50


 1207 019c 5B10     		asrs	r3, r3, #1
 1208 019e 9C42     		cmp	r4, r3
 1209 01a0 A8BF     		it	ge
 1210 01a2 1C46     		movge	r4, r3
 1211              	.LVL118:
 381:Drivers/lvgl/src/extra/widgets/meter/lv_meter.c ****     p_center.y = scale_area->y1 + r_edge;
 1212              		.loc 1 381 5 is_stmt 1 view .LVU398
 381:Drivers/lvgl/src/extra/widgets/meter/lv_meter.c ****     p_center.y = scale_area->y1 + r_edge;
 1213              		.loc 1 381 33 is_stmt 0 view .LVU399
 1214 01a4 A3B2     		uxth	r3, r4
 1215 01a6 1944     		add	r1, r1, r3
 382:Drivers/lvgl/src/extra/widgets/meter/lv_meter.c **** 
 1216              		.loc 1 382 33 view .LVU400
 1217 01a8 1A44     		add	r2, r2, r3
 385:Drivers/lvgl/src/extra/widgets/meter/lv_meter.c ****     lv_obj_init_draw_line_dsc(obj, LV_PART_TICKS, &line_dsc);
 1218              		.loc 1 385 5 view .LVU401
 1219 01aa 1FA8     		add	r0, sp, #124
 381:Drivers/lvgl/src/extra/widgets/meter/lv_meter.c ****     p_center.y = scale_area->y1 + r_edge;
 1220              		.loc 1 381 33 view .LVU402
 1221 01ac 0A93     		str	r3, [sp, #40]
 381:Drivers/lvgl/src/extra/widgets/meter/lv_meter.c ****     p_center.y = scale_area->y1 + r_edge;
 1222              		.loc 1 381 16 view .LVU403
 1223 01ae ADF84410 		strh	r1, [sp, #68]	@ movhi
 382:Drivers/lvgl/src/extra/widgets/meter/lv_meter.c **** 
 1224              		.loc 1 382 5 is_stmt 1 view .LVU404
 382:Drivers/lvgl/src/extra/widgets/meter/lv_meter.c **** 
 1225              		.loc 1 382 16 is_stmt 0 view .LVU405
 1226 01b2 ADF84620 		strh	r2, [sp, #70]	@ movhi
 384:Drivers/lvgl/src/extra/widgets/meter/lv_meter.c ****     lv_draw_line_dsc_init(&line_dsc);
 1227              		.loc 1 384 5 is_stmt 1 view .LVU406
 385:Drivers/lvgl/src/extra/widgets/meter/lv_meter.c ****     lv_obj_init_draw_line_dsc(obj, LV_PART_TICKS, &line_dsc);
 1228              		.loc 1 385 5 view .LVU407
 1229 01b6 FFF7FEFF 		bl	lv_draw_line_dsc_init
 1230              	.LVL119:
 386:Drivers/lvgl/src/extra/widgets/meter/lv_meter.c ****     line_dsc.raw_end = 1;
 1231              		.loc 1 386 5 view .LVU408
 1232 01ba 079D     		ldr	r5, [sp, #28]
 1233 01bc 1FAA     		add	r2, sp, #124
 1234 01be 4FF4C021 		mov	r1, #393216
 1235 01c2 2846     		mov	r0, r5
 1236 01c4 FFF7FEFF 		bl	lv_obj_init_draw_line_dsc
 1237              	.LVL120:
 387:Drivers/lvgl/src/extra/widgets/meter/lv_meter.c **** 
 1238              		.loc 1 387 5 view .LVU409
 387:Drivers/lvgl/src/extra/widgets/meter/lv_meter.c **** 
 1239              		.loc 1 387 22 is_stmt 0 view .LVU410
 1240 01c8 9DF88530 		ldrb	r3, [sp, #133]	@ zero_extendqisi2
 390:Drivers/lvgl/src/extra/widgets/meter/lv_meter.c ****     lv_obj_init_draw_label_dsc(obj, LV_PART_TICKS, &label_dsc);
 1241              		.loc 1 390 5 view .LVU411
 1242 01cc 099E     		ldr	r6, [sp, #36]
 387:Drivers/lvgl/src/extra/widgets/meter/lv_meter.c **** 
 1243              		.loc 1 387 22 view .LVU412
 1244 01ce 43F01003 		orr	r3, r3, #16
 390:Drivers/lvgl/src/extra/widgets/meter/lv_meter.c ****     lv_obj_init_draw_label_dsc(obj, LV_PART_TICKS, &label_dsc);
 1245              		.loc 1 390 5 view .LVU413
 1246 01d2 3046     		mov	r0, r6
 387:Drivers/lvgl/src/extra/widgets/meter/lv_meter.c **** 
ARM GAS  /var/folders/lp/x54gwt890xv47sdkqj1k04q40000gn/T//ccVgM3G4.s 			page 51


 1247              		.loc 1 387 22 view .LVU414
 1248 01d4 8DF88530 		strb	r3, [sp, #133]
 389:Drivers/lvgl/src/extra/widgets/meter/lv_meter.c ****     lv_draw_label_dsc_init(&label_dsc);
 1249              		.loc 1 389 5 is_stmt 1 view .LVU415
 390:Drivers/lvgl/src/extra/widgets/meter/lv_meter.c ****     lv_obj_init_draw_label_dsc(obj, LV_PART_TICKS, &label_dsc);
 1250              		.loc 1 390 5 view .LVU416
 1251 01d8 FFF7FEFF 		bl	lv_draw_label_dsc_init
 1252              	.LVL121:
 391:Drivers/lvgl/src/extra/widgets/meter/lv_meter.c **** 
 1253              		.loc 1 391 5 view .LVU417
 1254 01dc 3246     		mov	r2, r6
 1255 01de 4FF4C021 		mov	r1, #393216
 1256 01e2 2846     		mov	r0, r5
 1257 01e4 FFF7FEFF 		bl	lv_obj_init_draw_label_dsc
 1258              	.LVL122:
 393:Drivers/lvgl/src/extra/widgets/meter/lv_meter.c **** 
 1259              		.loc 1 393 5 view .LVU418
 395:Drivers/lvgl/src/extra/widgets/meter/lv_meter.c ****     lv_draw_mask_radius_param_t inner_major_mask;
 1260              		.loc 1 395 5 view .LVU419
 396:Drivers/lvgl/src/extra/widgets/meter/lv_meter.c ****     lv_draw_mask_radius_param_t outer_mask;
 1261              		.loc 1 396 5 view .LVU420
 397:Drivers/lvgl/src/extra/widgets/meter/lv_meter.c **** 
 1262              		.loc 1 397 5 view .LVU421
 399:Drivers/lvgl/src/extra/widgets/meter/lv_meter.c ****     lv_obj_draw_dsc_init(&part_draw_dsc, draw_ctx);
 1263              		.loc 1 399 5 view .LVU422
 400:Drivers/lvgl/src/extra/widgets/meter/lv_meter.c ****     part_draw_dsc.class_p = MY_CLASS;
 1264              		.loc 1 400 5 view .LVU423
 1265 01e8 48A8     		add	r0, sp, #288
 1266 01ea 0899     		ldr	r1, [sp, #32]
 1267 01ec FFF7FEFF 		bl	lv_obj_draw_dsc_init
 1268              	.LVL123:
 401:Drivers/lvgl/src/extra/widgets/meter/lv_meter.c ****     part_draw_dsc.part = LV_PART_TICKS;
 1269              		.loc 1 401 5 view .LVU424
 401:Drivers/lvgl/src/extra/widgets/meter/lv_meter.c ****     part_draw_dsc.part = LV_PART_TICKS;
 1270              		.loc 1 401 27 is_stmt 0 view .LVU425
 1271 01f0 524B     		ldr	r3, .L71
 1272 01f2 4993     		str	r3, [sp, #292]
 402:Drivers/lvgl/src/extra/widgets/meter/lv_meter.c ****     part_draw_dsc.type = LV_METER_DRAW_PART_TICK;
 1273              		.loc 1 402 5 is_stmt 1 view .LVU426
 404:Drivers/lvgl/src/extra/widgets/meter/lv_meter.c **** 
 1274              		.loc 1 404 28 is_stmt 0 view .LVU427
 1275 01f4 1FAB     		add	r3, sp, #124
 1276 01f6 4E93     		str	r3, [sp, #312]
 406:Drivers/lvgl/src/extra/widgets/meter/lv_meter.c ****         part_draw_dsc.sub_part_ptr = scale;
 1277              		.loc 1 406 5 view .LVU428
 1278 01f8 05F12409 		add	r9, r5, #36
 402:Drivers/lvgl/src/extra/widgets/meter/lv_meter.c ****     part_draw_dsc.type = LV_METER_DRAW_PART_TICK;
 1279              		.loc 1 402 24 view .LVU429
 1280 01fc 4FF4C023 		mov	r3, #393216
 1281 0200 5593     		str	r3, [sp, #340]
 403:Drivers/lvgl/src/extra/widgets/meter/lv_meter.c ****     part_draw_dsc.line_dsc = &line_dsc;
 1282              		.loc 1 403 5 is_stmt 1 view .LVU430
 406:Drivers/lvgl/src/extra/widgets/meter/lv_meter.c ****         part_draw_dsc.sub_part_ptr = scale;
 1283              		.loc 1 406 5 is_stmt 0 view .LVU431
 1284 0202 4846     		mov	r0, r9
 403:Drivers/lvgl/src/extra/widgets/meter/lv_meter.c ****     part_draw_dsc.line_dsc = &line_dsc;
 1285              		.loc 1 403 24 view .LVU432
ARM GAS  /var/folders/lp/x54gwt890xv47sdkqj1k04q40000gn/T//ccVgM3G4.s 			page 52


 1286 0204 0323     		movs	r3, #3
 1287 0206 4A93     		str	r3, [sp, #296]
 404:Drivers/lvgl/src/extra/widgets/meter/lv_meter.c **** 
 1288              		.loc 1 404 5 is_stmt 1 view .LVU433
 406:Drivers/lvgl/src/extra/widgets/meter/lv_meter.c ****         part_draw_dsc.sub_part_ptr = scale;
 1289              		.loc 1 406 5 view .LVU434
 1290 0208 FFF7FEFF 		bl	_lv_ll_get_tail
 1291              	.LVL124:
 406:Drivers/lvgl/src/extra/widgets/meter/lv_meter.c ****         part_draw_dsc.sub_part_ptr = scale;
 1292              		.loc 1 406 5 discriminator 1 view .LVU435
 1293 020c 0028     		cmp	r0, #0
 1294 020e 00F03A83 		beq	.L67
 1295              	.LBB162:
 1296              	.LBB163:
 486:Drivers/lvgl/src/extra/widgets/meter/lv_meter.c ****             p_outer.y = p_center.y;
 1297              		.loc 1 486 46 is_stmt 0 view .LVU436
 1298 0212 822C     		cmp	r4, #130
 1299 0214 B8BF     		it	lt
 1300 0216 8224     		movlt	r4, #130
 1301              	.LVL125:
 486:Drivers/lvgl/src/extra/widgets/meter/lv_meter.c ****             p_outer.y = p_center.y;
 1302              		.loc 1 486 46 view .LVU437
 1303 0218 A3B2     		uxth	r3, r4
 1304 021a 0C93     		str	r3, [sp, #48]
 1305 021c 26AB     		add	r3, sp, #152
 1306 021e 0D93     		str	r3, [sp, #52]
 1307 0220 CDF83C90 		str	r9, [sp, #60]
 1308 0224 0646     		mov	r6, r0
 1309              	.L22:
 486:Drivers/lvgl/src/extra/widgets/meter/lv_meter.c ****             p_outer.y = p_center.y;
 1310              		.loc 1 486 46 view .LVU438
 1311              	.LBE163:
 407:Drivers/lvgl/src/extra/widgets/meter/lv_meter.c **** 
 1312              		.loc 1 407 9 is_stmt 1 view .LVU439
 410:Drivers/lvgl/src/extra/widgets/meter/lv_meter.c ****         lv_coord_t r_in_major = r_out - scale->tick_major_length;
 1313              		.loc 1 410 46 is_stmt 0 view .LVU440
 1314 0226 B388     		ldrh	r3, [r6, #4]
 410:Drivers/lvgl/src/extra/widgets/meter/lv_meter.c ****         lv_coord_t r_in_major = r_out - scale->tick_major_length;
 1315              		.loc 1 410 39 view .LVU441
 1316 0228 0A9F     		ldr	r7, [sp, #40]
 415:Drivers/lvgl/src/extra/widgets/meter/lv_meter.c ****         area_inner_minor.x2 = p_center.x + r_in_minor;
 1317              		.loc 1 415 39 view .LVU442
 1318 022a BDF84610 		ldrh	r1, [sp, #70]
 411:Drivers/lvgl/src/extra/widgets/meter/lv_meter.c **** 
 1319              		.loc 1 411 46 view .LVU443
 1320 022e B489     		ldrh	r4, [r6, #12]
 414:Drivers/lvgl/src/extra/widgets/meter/lv_meter.c ****         area_inner_minor.y1 = p_center.y - r_in_minor;
 1321              		.loc 1 414 39 view .LVU444
 1322 0230 BDF84420 		ldrh	r2, [sp, #68]
 407:Drivers/lvgl/src/extra/widgets/meter/lv_meter.c **** 
 1323              		.loc 1 407 36 view .LVU445
 1324 0234 5996     		str	r6, [sp, #356]
 409:Drivers/lvgl/src/extra/widgets/meter/lv_meter.c ****         lv_coord_t r_in_minor = r_out - scale->tick_length;
 1325              		.loc 1 409 9 is_stmt 1 view .LVU446
 410:Drivers/lvgl/src/extra/widgets/meter/lv_meter.c ****         lv_coord_t r_in_major = r_out - scale->tick_major_length;
 1326              		.loc 1 410 9 view .LVU447
 410:Drivers/lvgl/src/extra/widgets/meter/lv_meter.c ****         lv_coord_t r_in_major = r_out - scale->tick_major_length;
ARM GAS  /var/folders/lp/x54gwt890xv47sdkqj1k04q40000gn/T//ccVgM3G4.s 			page 53


 1327              		.loc 1 410 39 is_stmt 0 view .LVU448
 1328 0236 F81A     		subs	r0, r7, r3
 1329              	.LVL126:
 410:Drivers/lvgl/src/extra/widgets/meter/lv_meter.c ****         lv_coord_t r_in_major = r_out - scale->tick_major_length;
 1330              		.loc 1 410 39 view .LVU449
 1331 0238 DB1B     		subs	r3, r3, r7
 1332 023a 80B2     		uxth	r0, r0
 1333              	.LVL127:
 411:Drivers/lvgl/src/extra/widgets/meter/lv_meter.c **** 
 1334              		.loc 1 411 9 is_stmt 1 view .LVU450
 1335 023c 9BB2     		uxth	r3, r3
 411:Drivers/lvgl/src/extra/widgets/meter/lv_meter.c **** 
 1336              		.loc 1 411 39 is_stmt 0 view .LVU451
 1337 023e 3F1B     		subs	r7, r7, r4
 414:Drivers/lvgl/src/extra/widgets/meter/lv_meter.c ****         area_inner_minor.y1 = p_center.y - r_in_minor;
 1338              		.loc 1 414 42 view .LVU452
 1339 0240 D518     		adds	r5, r2, r3
 415:Drivers/lvgl/src/extra/widgets/meter/lv_meter.c ****         area_inner_minor.x2 = p_center.x + r_in_minor;
 1340              		.loc 1 415 42 view .LVU453
 1341 0242 0B44     		add	r3, r3, r1
 416:Drivers/lvgl/src/extra/widgets/meter/lv_meter.c ****         area_inner_minor.y2 = p_center.y + r_in_minor;
 1342              		.loc 1 416 42 view .LVU454
 1343 0244 0244     		add	r2, r2, r0
 417:Drivers/lvgl/src/extra/widgets/meter/lv_meter.c ****         lv_draw_mask_radius_init(&inner_minor_mask, &area_inner_minor, LV_RADIUS_CIRCLE, true);
 1344              		.loc 1 417 42 view .LVU455
 1345 0246 0844     		add	r0, r0, r1
 1346              	.LVL128:
 411:Drivers/lvgl/src/extra/widgets/meter/lv_meter.c **** 
 1347              		.loc 1 411 20 view .LVU456
 1348 0248 0FFA87FC 		sxth	ip, r7
 415:Drivers/lvgl/src/extra/widgets/meter/lv_meter.c ****         area_inner_minor.x2 = p_center.x + r_in_minor;
 1349              		.loc 1 415 29 view .LVU457
 1350 024c ADF85E30 		strh	r3, [sp, #94]	@ movhi
 416:Drivers/lvgl/src/extra/widgets/meter/lv_meter.c ****         area_inner_minor.y2 = p_center.y + r_in_minor;
 1351              		.loc 1 416 29 view .LVU458
 1352 0250 ADF86020 		strh	r2, [sp, #96]	@ movhi
 417:Drivers/lvgl/src/extra/widgets/meter/lv_meter.c ****         lv_draw_mask_radius_init(&inner_minor_mask, &area_inner_minor, LV_RADIUS_CIRCLE, true);
 1353              		.loc 1 417 29 view .LVU459
 1354 0254 ADF86200 		strh	r0, [sp, #98]	@ movhi
 418:Drivers/lvgl/src/extra/widgets/meter/lv_meter.c **** 
 1355              		.loc 1 418 9 view .LVU460
 1356 0258 0123     		movs	r3, #1
 1357 025a 0D98     		ldr	r0, [sp, #52]
 411:Drivers/lvgl/src/extra/widgets/meter/lv_meter.c **** 
 1358              		.loc 1 411 20 view .LVU461
 1359 025c CDF838C0 		str	ip, [sp, #56]
 1360              	.LVL129:
 413:Drivers/lvgl/src/extra/widgets/meter/lv_meter.c ****         area_inner_minor.x1 = p_center.x - r_in_minor;
 1361              		.loc 1 413 9 is_stmt 1 view .LVU462
 414:Drivers/lvgl/src/extra/widgets/meter/lv_meter.c ****         area_inner_minor.y1 = p_center.y - r_in_minor;
 1362              		.loc 1 414 9 view .LVU463
 415:Drivers/lvgl/src/extra/widgets/meter/lv_meter.c ****         area_inner_minor.x2 = p_center.x + r_in_minor;
 1363              		.loc 1 415 9 view .LVU464
 416:Drivers/lvgl/src/extra/widgets/meter/lv_meter.c ****         area_inner_minor.y2 = p_center.y + r_in_minor;
 1364              		.loc 1 416 9 view .LVU465
 417:Drivers/lvgl/src/extra/widgets/meter/lv_meter.c ****         lv_draw_mask_radius_init(&inner_minor_mask, &area_inner_minor, LV_RADIUS_CIRCLE, true);
 1365              		.loc 1 417 9 view .LVU466
ARM GAS  /var/folders/lp/x54gwt890xv47sdkqj1k04q40000gn/T//ccVgM3G4.s 			page 54


 418:Drivers/lvgl/src/extra/widgets/meter/lv_meter.c **** 
 1366              		.loc 1 418 9 view .LVU467
 1367 0260 47F6FF72 		movw	r2, #32767
 1368 0264 17A9     		add	r1, sp, #92
 414:Drivers/lvgl/src/extra/widgets/meter/lv_meter.c ****         area_inner_minor.y1 = p_center.y - r_in_minor;
 1369              		.loc 1 414 29 is_stmt 0 view .LVU468
 1370 0266 ADF85C50 		strh	r5, [sp, #92]	@ movhi
 418:Drivers/lvgl/src/extra/widgets/meter/lv_meter.c **** 
 1371              		.loc 1 418 9 view .LVU469
 1372 026a FFF7FEFF 		bl	lv_draw_mask_radius_init
 1373              	.LVL130:
 420:Drivers/lvgl/src/extra/widgets/meter/lv_meter.c ****         area_inner_major.x1 = p_center.x - r_in_major;
 1374              		.loc 1 420 9 is_stmt 1 view .LVU470
 421:Drivers/lvgl/src/extra/widgets/meter/lv_meter.c ****         area_inner_major.y1 = p_center.y - r_in_major;
 1375              		.loc 1 421 9 view .LVU471
 411:Drivers/lvgl/src/extra/widgets/meter/lv_meter.c **** 
 1376              		.loc 1 411 39 is_stmt 0 view .LVU472
 1377 026e BDB2     		uxth	r5, r7
 1378 0270 0A9F     		ldr	r7, [sp, #40]
 421:Drivers/lvgl/src/extra/widgets/meter/lv_meter.c ****         area_inner_major.y1 = p_center.y - r_in_major;
 1379              		.loc 1 421 39 view .LVU473
 1380 0272 BDF84410 		ldrh	r1, [sp, #68]
 422:Drivers/lvgl/src/extra/widgets/meter/lv_meter.c ****         area_inner_major.x2 = p_center.x + r_in_major - 1;
 1381              		.loc 1 422 39 view .LVU474
 1382 0276 BDF84620 		ldrh	r2, [sp, #70]
 1383 027a E31B     		subs	r3, r4, r7
 1384 027c 9BB2     		uxth	r3, r3
 423:Drivers/lvgl/src/extra/widgets/meter/lv_meter.c ****         area_inner_major.y2 = p_center.y + r_in_major - 1;
 1385              		.loc 1 423 55 view .LVU475
 1386 027e 481E     		subs	r0, r1, #1
 1387 0280 2844     		add	r0, r0, r5
 421:Drivers/lvgl/src/extra/widgets/meter/lv_meter.c ****         area_inner_major.y1 = p_center.y - r_in_major;
 1388              		.loc 1 421 42 view .LVU476
 1389 0282 1944     		add	r1, r1, r3
 422:Drivers/lvgl/src/extra/widgets/meter/lv_meter.c ****         area_inner_major.x2 = p_center.x + r_in_major - 1;
 1390              		.loc 1 422 42 view .LVU477
 1391 0284 1344     		add	r3, r3, r2
 424:Drivers/lvgl/src/extra/widgets/meter/lv_meter.c ****         lv_draw_mask_radius_init(&inner_major_mask, &area_inner_major, LV_RADIUS_CIRCLE, true);
 1392              		.loc 1 424 55 view .LVU478
 1393 0286 013A     		subs	r2, r2, #1
 421:Drivers/lvgl/src/extra/widgets/meter/lv_meter.c ****         area_inner_major.y1 = p_center.y - r_in_major;
 1394              		.loc 1 421 29 view .LVU479
 1395 0288 ADF86410 		strh	r1, [sp, #100]	@ movhi
 422:Drivers/lvgl/src/extra/widgets/meter/lv_meter.c ****         area_inner_major.x2 = p_center.x + r_in_major - 1;
 1396              		.loc 1 422 9 is_stmt 1 view .LVU480
 422:Drivers/lvgl/src/extra/widgets/meter/lv_meter.c ****         area_inner_major.x2 = p_center.x + r_in_major - 1;
 1397              		.loc 1 422 29 is_stmt 0 view .LVU481
 1398 028c ADF86630 		strh	r3, [sp, #102]	@ movhi
 423:Drivers/lvgl/src/extra/widgets/meter/lv_meter.c ****         area_inner_major.y2 = p_center.y + r_in_major - 1;
 1399              		.loc 1 423 9 is_stmt 1 view .LVU482
 424:Drivers/lvgl/src/extra/widgets/meter/lv_meter.c ****         lv_draw_mask_radius_init(&inner_major_mask, &area_inner_major, LV_RADIUS_CIRCLE, true);
 1400              		.loc 1 424 55 is_stmt 0 view .LVU483
 1401 0290 1544     		add	r5, r5, r2
 423:Drivers/lvgl/src/extra/widgets/meter/lv_meter.c ****         area_inner_major.y2 = p_center.y + r_in_major - 1;
 1402              		.loc 1 423 29 view .LVU484
 1403 0292 ADF86800 		strh	r0, [sp, #104]	@ movhi
 424:Drivers/lvgl/src/extra/widgets/meter/lv_meter.c ****         lv_draw_mask_radius_init(&inner_major_mask, &area_inner_major, LV_RADIUS_CIRCLE, true);
ARM GAS  /var/folders/lp/x54gwt890xv47sdkqj1k04q40000gn/T//ccVgM3G4.s 			page 55


 1404              		.loc 1 424 9 is_stmt 1 view .LVU485
 425:Drivers/lvgl/src/extra/widgets/meter/lv_meter.c **** 
 1405              		.loc 1 425 9 is_stmt 0 view .LVU486
 1406 0296 0123     		movs	r3, #1
 1407 0298 47F6FF72 		movw	r2, #32767
 1408 029c 19A9     		add	r1, sp, #100
 1409 029e 2CA8     		add	r0, sp, #176
 424:Drivers/lvgl/src/extra/widgets/meter/lv_meter.c ****         lv_draw_mask_radius_init(&inner_major_mask, &area_inner_major, LV_RADIUS_CIRCLE, true);
 1410              		.loc 1 424 29 view .LVU487
 1411 02a0 ADF86A50 		strh	r5, [sp, #106]	@ movhi
 425:Drivers/lvgl/src/extra/widgets/meter/lv_meter.c **** 
 1412              		.loc 1 425 9 is_stmt 1 view .LVU488
 1413 02a4 FFF7FEFF 		bl	lv_draw_mask_radius_init
 1414              	.LVL131:
 427:Drivers/lvgl/src/extra/widgets/meter/lv_meter.c ****         area_outer.x1 = p_center.x - r_out;
 1415              		.loc 1 427 9 view .LVU489
 428:Drivers/lvgl/src/extra/widgets/meter/lv_meter.c ****         area_outer.y1 = p_center.y - r_out;
 1416              		.loc 1 428 9 view .LVU490
 428:Drivers/lvgl/src/extra/widgets/meter/lv_meter.c ****         area_outer.y1 = p_center.y - r_out;
 1417              		.loc 1 428 33 is_stmt 0 view .LVU491
 1418 02a8 BDF84400 		ldrh	r0, [sp, #68]
 429:Drivers/lvgl/src/extra/widgets/meter/lv_meter.c ****         area_outer.x2 = p_center.x + r_out - 1;
 1419              		.loc 1 429 33 view .LVU492
 1420 02ac BDF84610 		ldrh	r1, [sp, #70]
 430:Drivers/lvgl/src/extra/widgets/meter/lv_meter.c ****         area_outer.y2 = p_center.y + r_out - 1;
 1421              		.loc 1 430 44 view .LVU493
 1422 02b0 441E     		subs	r4, r0, #1
 428:Drivers/lvgl/src/extra/widgets/meter/lv_meter.c ****         area_outer.y1 = p_center.y - r_out;
 1423              		.loc 1 428 36 view .LVU494
 1424 02b2 C01B     		subs	r0, r0, r7
 428:Drivers/lvgl/src/extra/widgets/meter/lv_meter.c ****         area_outer.y1 = p_center.y - r_out;
 1425              		.loc 1 428 23 view .LVU495
 1426 02b4 ADF86C00 		strh	r0, [sp, #108]	@ movhi
 429:Drivers/lvgl/src/extra/widgets/meter/lv_meter.c ****         area_outer.x2 = p_center.x + r_out - 1;
 1427              		.loc 1 429 9 is_stmt 1 view .LVU496
 430:Drivers/lvgl/src/extra/widgets/meter/lv_meter.c ****         area_outer.y2 = p_center.y + r_out - 1;
 1428              		.loc 1 430 44 is_stmt 0 view .LVU497
 1429 02b8 3819     		adds	r0, r7, r4
 430:Drivers/lvgl/src/extra/widgets/meter/lv_meter.c ****         area_outer.y2 = p_center.y + r_out - 1;
 1430              		.loc 1 430 23 view .LVU498
 1431 02ba ADF87000 		strh	r0, [sp, #112]	@ movhi
 431:Drivers/lvgl/src/extra/widgets/meter/lv_meter.c ****         lv_draw_mask_radius_init(&outer_mask, &area_outer, LV_RADIUS_CIRCLE, false);
 1432              		.loc 1 431 44 view .LVU499
 1433 02be 481E     		subs	r0, r1, #1
 429:Drivers/lvgl/src/extra/widgets/meter/lv_meter.c ****         area_outer.x2 = p_center.x + r_out - 1;
 1434              		.loc 1 429 36 view .LVU500
 1435 02c0 C91B     		subs	r1, r1, r7
 429:Drivers/lvgl/src/extra/widgets/meter/lv_meter.c ****         area_outer.x2 = p_center.x + r_out - 1;
 1436              		.loc 1 429 23 view .LVU501
 1437 02c2 ADF86E10 		strh	r1, [sp, #110]	@ movhi
 430:Drivers/lvgl/src/extra/widgets/meter/lv_meter.c ****         area_outer.y2 = p_center.y + r_out - 1;
 1438              		.loc 1 430 9 is_stmt 1 view .LVU502
 431:Drivers/lvgl/src/extra/widgets/meter/lv_meter.c ****         lv_draw_mask_radius_init(&outer_mask, &area_outer, LV_RADIUS_CIRCLE, false);
 1439              		.loc 1 431 9 view .LVU503
 431:Drivers/lvgl/src/extra/widgets/meter/lv_meter.c ****         lv_draw_mask_radius_init(&outer_mask, &area_outer, LV_RADIUS_CIRCLE, false);
 1440              		.loc 1 431 44 is_stmt 0 view .LVU504
 1441 02c6 3918     		adds	r1, r7, r0
ARM GAS  /var/folders/lp/x54gwt890xv47sdkqj1k04q40000gn/T//ccVgM3G4.s 			page 56


 432:Drivers/lvgl/src/extra/widgets/meter/lv_meter.c ****         int16_t outer_mask_id = lv_draw_mask_add(&outer_mask, NULL);
 1442              		.loc 1 432 9 view .LVU505
 1443 02c8 0023     		movs	r3, #0
 1444 02ca 47F6FF72 		movw	r2, #32767
 431:Drivers/lvgl/src/extra/widgets/meter/lv_meter.c ****         lv_draw_mask_radius_init(&outer_mask, &area_outer, LV_RADIUS_CIRCLE, false);
 1445              		.loc 1 431 23 view .LVU506
 1446 02ce ADF87210 		strh	r1, [sp, #114]	@ movhi
 432:Drivers/lvgl/src/extra/widgets/meter/lv_meter.c ****         int16_t outer_mask_id = lv_draw_mask_add(&outer_mask, NULL);
 1447              		.loc 1 432 9 is_stmt 1 view .LVU507
 1448 02d2 32A8     		add	r0, sp, #200
 1449 02d4 1BA9     		add	r1, sp, #108
 1450 02d6 FFF7FEFF 		bl	lv_draw_mask_radius_init
 1451              	.LVL132:
 433:Drivers/lvgl/src/extra/widgets/meter/lv_meter.c **** 
 1452              		.loc 1 433 9 view .LVU508
 433:Drivers/lvgl/src/extra/widgets/meter/lv_meter.c **** 
 1453              		.loc 1 433 33 is_stmt 0 view .LVU509
 1454 02da 0021     		movs	r1, #0
 1455 02dc 32A8     		add	r0, sp, #200
 1456 02de FFF7FEFF 		bl	lv_draw_mask_add
 1457              	.LVL133:
 437:Drivers/lvgl/src/extra/widgets/meter/lv_meter.c ****         uint16_t i;
 1458              		.loc 1 437 35 view .LVU510
 1459 02e2 7189     		ldrh	r1, [r6, #10]
 433:Drivers/lvgl/src/extra/widgets/meter/lv_meter.c **** 
 1460              		.loc 1 433 33 view .LVU511
 1461 02e4 0B90     		str	r0, [sp, #44]
 1462              	.LVL134:
 435:Drivers/lvgl/src/extra/widgets/meter/lv_meter.c **** 
 1463              		.loc 1 435 9 is_stmt 1 view .LVU512
 437:Drivers/lvgl/src/extra/widgets/meter/lv_meter.c ****         uint16_t i;
 1464              		.loc 1 437 9 view .LVU513
 437:Drivers/lvgl/src/extra/widgets/meter/lv_meter.c ****         uint16_t i;
 1465              		.loc 1 437 80 is_stmt 0 view .LVU514
 1466 02e6 0029     		cmp	r1, #0
 1467 02e8 00F08382 		beq	.L49
 437:Drivers/lvgl/src/extra/widgets/meter/lv_meter.c ****         uint16_t i;
 1468              		.loc 1 437 76 discriminator 1 view .LVU515
 1469 02ec 01F1FF38 		add	r8, r1, #-1
 1470              	.L29:
 1471              	.LVL135:
 439:Drivers/lvgl/src/extra/widgets/meter/lv_meter.c ****             minor_cnt++;
 1472              		.loc 1 439 22 is_stmt 1 discriminator 1 view .LVU516
 439:Drivers/lvgl/src/extra/widgets/meter/lv_meter.c ****             minor_cnt++;
 1473              		.loc 1 439 29 is_stmt 0 discriminator 1 view .LVU517
 1474 02f0 7288     		ldrh	r2, [r6, #2]
 439:Drivers/lvgl/src/extra/widgets/meter/lv_meter.c ****             minor_cnt++;
 1475              		.loc 1 439 22 discriminator 1 view .LVU518
 1476 02f2 002A     		cmp	r2, #0
 1477 02f4 00F05581 		beq	.L30
 1478              	.LBB171:
 440:Drivers/lvgl/src/extra/widgets/meter/lv_meter.c ****             bool major = false;
 1479              		.loc 1 440 22 view .LVU519
 1480 02f8 08F10108 		add	r8, r8, #1
 1481              	.LVL136:
 442:Drivers/lvgl/src/extra/widgets/meter/lv_meter.c ****                 minor_cnt = 0;
 1482              		.loc 1 442 15 view .LVU520
ARM GAS  /var/folders/lp/x54gwt890xv47sdkqj1k04q40000gn/T//ccVgM3G4.s 			page 57


 1483 02fc 8845     		cmp	r8, r1
 447:Drivers/lvgl/src/extra/widgets/meter/lv_meter.c ****             part_draw_dsc.value = value_of_line;
 1484              		.loc 1 447 37 view .LVU521
 1485 02fe D6E90530 		ldrd	r3, r0, [r6, #20]
 486:Drivers/lvgl/src/extra/widgets/meter/lv_meter.c ****             p_outer.y = p_center.y;
 1486              		.loc 1 486 46 view .LVU522
 1487 0302 4FF00007 		mov	r7, #0
 1488              	.LVL137:
 440:Drivers/lvgl/src/extra/widgets/meter/lv_meter.c ****             bool major = false;
 1489              		.loc 1 440 13 is_stmt 1 view .LVU523
 441:Drivers/lvgl/src/extra/widgets/meter/lv_meter.c ****             if(minor_cnt == scale->tick_major_nth) {
 1490              		.loc 1 441 13 view .LVU524
 442:Drivers/lvgl/src/extra/widgets/meter/lv_meter.c ****                 minor_cnt = 0;
 1491              		.loc 1 442 13 view .LVU525
 447:Drivers/lvgl/src/extra/widgets/meter/lv_meter.c ****             part_draw_dsc.value = value_of_line;
 1492              		.loc 1 447 66 is_stmt 0 view .LVU526
 1493 0306 02F1FF32 		add	r2, r2, #-1
 442:Drivers/lvgl/src/extra/widgets/meter/lv_meter.c ****                 minor_cnt = 0;
 1494              		.loc 1 442 15 view .LVU527
 1495 030a 00F02F81 		beq	.L68
 1496              	.LVL138:
 1497              	.L63:
 447:Drivers/lvgl/src/extra/widgets/meter/lv_meter.c ****             part_draw_dsc.value = value_of_line;
 1498              		.loc 1 447 13 is_stmt 1 view .LVU528
 447:Drivers/lvgl/src/extra/widgets/meter/lv_meter.c ****             part_draw_dsc.value = value_of_line;
 1499              		.loc 1 447 37 is_stmt 0 view .LVU529
 1500 030e 0090     		str	r0, [sp]
 1501 0310 0021     		movs	r1, #0
 1502 0312 3846     		mov	r0, r7
 1503 0314 FFF7FEFF 		bl	lv_map
 1504              	.LVL139:
 450:Drivers/lvgl/src/extra/widgets/meter/lv_meter.c ****             lv_color_t line_color_ori = line_color;
 1505              		.loc 1 450 24 discriminator 2 view .LVU530
 1506 0318 3388     		ldrh	r3, [r6]
 1507 031a 0493     		str	r3, [sp, #16]
 453:Drivers/lvgl/src/extra/widgets/meter/lv_meter.c ****             lv_coord_t line_width = line_width_ori;
 1508              		.loc 1 453 24 discriminator 2 view .LVU531
 1509 031c B6F90630 		ldrsh	r3, [r6, #6]
 1510 0320 0593     		str	r3, [sp, #20]
 441:Drivers/lvgl/src/extra/widgets/meter/lv_meter.c ****             if(minor_cnt == scale->tick_major_nth) {
 1511              		.loc 1 441 18 view .LVU532
 1512 0322 0023     		movs	r3, #0
 447:Drivers/lvgl/src/extra/widgets/meter/lv_meter.c ****             part_draw_dsc.value = value_of_line;
 1513              		.loc 1 447 37 view .LVU533
 1514 0324 0546     		mov	r5, r0
 1515              	.LVL140:
 448:Drivers/lvgl/src/extra/widgets/meter/lv_meter.c **** 
 1516              		.loc 1 448 13 is_stmt 1 view .LVU534
 448:Drivers/lvgl/src/extra/widgets/meter/lv_meter.c **** 
 1517              		.loc 1 448 33 is_stmt 0 view .LVU535
 1518 0326 5890     		str	r0, [sp, #352]
 450:Drivers/lvgl/src/extra/widgets/meter/lv_meter.c ****             lv_color_t line_color_ori = line_color;
 1519              		.loc 1 450 13 is_stmt 1 view .LVU536
 1520              	.LVL141:
 451:Drivers/lvgl/src/extra/widgets/meter/lv_meter.c **** 
 1521              		.loc 1 451 13 view .LVU537
 453:Drivers/lvgl/src/extra/widgets/meter/lv_meter.c ****             lv_coord_t line_width = line_width_ori;
ARM GAS  /var/folders/lp/x54gwt890xv47sdkqj1k04q40000gn/T//ccVgM3G4.s 			page 58


 1522              		.loc 1 453 13 view .LVU538
