ARM GAS  /var/folders/0z/tsy30v1j4xl4_7kw94k978ww0000gn/T//ccS6OLnK.s 			page 1


   1              		.cpu cortex-m4
   2              		.arch armv7e-m
   3              		.fpu fpv4-sp-d16
   4              		.eabi_attribute 27, 1
   5              		.eabi_attribute 28, 1
   6              		.eabi_attribute 20, 1
   7              		.eabi_attribute 21, 1
   8              		.eabi_attribute 23, 3
   9              		.eabi_attribute 24, 1
  10              		.eabi_attribute 25, 1
  11              		.eabi_attribute 26, 1
  12              		.eabi_attribute 30, 2
  13              		.eabi_attribute 34, 1
  14              		.eabi_attribute 18, 4
  15              		.file	"lv_menu.c"
  16              		.text
  17              	.Ltext0:
  18              		.cfi_sections	.debug_frame
  19              		.section	.text.lv_menu_destructor,"ax",%progbits
  20              		.align	1
  21              		.p2align 2,,3
  22              		.syntax unified
  23              		.thumb
  24              		.thumb_func
  26              	lv_menu_destructor:
  27              	.LVL0:
  28              	.LFB186:
  29              		.file 1 "Drivers/lvgl/src/extra/widgets/menu/lv_menu.c"
   1:Drivers/lvgl/src/extra/widgets/menu/lv_menu.c **** /**
   2:Drivers/lvgl/src/extra/widgets/menu/lv_menu.c ****  * @file lv_menu.c
   3:Drivers/lvgl/src/extra/widgets/menu/lv_menu.c ****  *
   4:Drivers/lvgl/src/extra/widgets/menu/lv_menu.c ****  */
   5:Drivers/lvgl/src/extra/widgets/menu/lv_menu.c **** 
   6:Drivers/lvgl/src/extra/widgets/menu/lv_menu.c **** /*********************
   7:Drivers/lvgl/src/extra/widgets/menu/lv_menu.c ****  *      INCLUDES
   8:Drivers/lvgl/src/extra/widgets/menu/lv_menu.c ****  *********************/
   9:Drivers/lvgl/src/extra/widgets/menu/lv_menu.c **** #include "lv_menu.h"
  10:Drivers/lvgl/src/extra/widgets/menu/lv_menu.c **** 
  11:Drivers/lvgl/src/extra/widgets/menu/lv_menu.c **** #if LV_USE_MENU
  12:Drivers/lvgl/src/extra/widgets/menu/lv_menu.c **** 
  13:Drivers/lvgl/src/extra/widgets/menu/lv_menu.c **** /*********************
  14:Drivers/lvgl/src/extra/widgets/menu/lv_menu.c ****  *      DEFINES
  15:Drivers/lvgl/src/extra/widgets/menu/lv_menu.c ****  *********************/
  16:Drivers/lvgl/src/extra/widgets/menu/lv_menu.c **** #define MY_CLASS &lv_menu_class
  17:Drivers/lvgl/src/extra/widgets/menu/lv_menu.c **** 
  18:Drivers/lvgl/src/extra/widgets/menu/lv_menu.c **** #include "../../../core/lv_obj.h"
  19:Drivers/lvgl/src/extra/widgets/menu/lv_menu.c **** #include "../../layouts/flex/lv_flex.h"
  20:Drivers/lvgl/src/extra/widgets/menu/lv_menu.c **** #include "../../../widgets/lv_label.h"
  21:Drivers/lvgl/src/extra/widgets/menu/lv_menu.c **** #include "../../../widgets/lv_btn.h"
  22:Drivers/lvgl/src/extra/widgets/menu/lv_menu.c **** #include "../../../widgets/lv_img.h"
  23:Drivers/lvgl/src/extra/widgets/menu/lv_menu.c **** 
  24:Drivers/lvgl/src/extra/widgets/menu/lv_menu.c **** /**********************
  25:Drivers/lvgl/src/extra/widgets/menu/lv_menu.c ****  *      TYPEDEFS
  26:Drivers/lvgl/src/extra/widgets/menu/lv_menu.c ****  **********************/
  27:Drivers/lvgl/src/extra/widgets/menu/lv_menu.c **** 
  28:Drivers/lvgl/src/extra/widgets/menu/lv_menu.c **** /**********************
  29:Drivers/lvgl/src/extra/widgets/menu/lv_menu.c ****  *  STATIC PROTOTYPES
ARM GAS  /var/folders/0z/tsy30v1j4xl4_7kw94k978ww0000gn/T//ccS6OLnK.s 			page 2


  30:Drivers/lvgl/src/extra/widgets/menu/lv_menu.c ****  **********************/
  31:Drivers/lvgl/src/extra/widgets/menu/lv_menu.c **** static void lv_menu_constructor(const lv_obj_class_t * class_p, lv_obj_t * obj);
  32:Drivers/lvgl/src/extra/widgets/menu/lv_menu.c **** static void lv_menu_destructor(const lv_obj_class_t * class_p, lv_obj_t * obj);
  33:Drivers/lvgl/src/extra/widgets/menu/lv_menu.c **** static void lv_menu_page_constructor(const lv_obj_class_t * class_p, lv_obj_t * obj);
  34:Drivers/lvgl/src/extra/widgets/menu/lv_menu.c **** static void lv_menu_page_destructor(const lv_obj_class_t * class_p, lv_obj_t * obj);
  35:Drivers/lvgl/src/extra/widgets/menu/lv_menu.c **** static void lv_menu_cont_constructor(const lv_obj_class_t * class_p, lv_obj_t * obj);
  36:Drivers/lvgl/src/extra/widgets/menu/lv_menu.c **** static void lv_menu_section_constructor(const lv_obj_class_t * class_p, lv_obj_t * obj);
  37:Drivers/lvgl/src/extra/widgets/menu/lv_menu.c **** 
  38:Drivers/lvgl/src/extra/widgets/menu/lv_menu.c **** const lv_obj_class_t lv_menu_class = {
  39:Drivers/lvgl/src/extra/widgets/menu/lv_menu.c ****     .constructor_cb = lv_menu_constructor,
  40:Drivers/lvgl/src/extra/widgets/menu/lv_menu.c ****     .destructor_cb = lv_menu_destructor,
  41:Drivers/lvgl/src/extra/widgets/menu/lv_menu.c ****     .base_class = &lv_obj_class,
  42:Drivers/lvgl/src/extra/widgets/menu/lv_menu.c ****     .width_def = (LV_DPI_DEF * 3) / 2,
  43:Drivers/lvgl/src/extra/widgets/menu/lv_menu.c ****     .height_def = LV_DPI_DEF * 2,
  44:Drivers/lvgl/src/extra/widgets/menu/lv_menu.c ****     .instance_size = sizeof(lv_menu_t)
  45:Drivers/lvgl/src/extra/widgets/menu/lv_menu.c **** };
  46:Drivers/lvgl/src/extra/widgets/menu/lv_menu.c **** const lv_obj_class_t lv_menu_page_class = {
  47:Drivers/lvgl/src/extra/widgets/menu/lv_menu.c ****     .constructor_cb = lv_menu_page_constructor,
  48:Drivers/lvgl/src/extra/widgets/menu/lv_menu.c ****     .destructor_cb = lv_menu_page_destructor,
  49:Drivers/lvgl/src/extra/widgets/menu/lv_menu.c ****     .base_class = &lv_obj_class,
  50:Drivers/lvgl/src/extra/widgets/menu/lv_menu.c ****     .width_def = LV_PCT(100),
  51:Drivers/lvgl/src/extra/widgets/menu/lv_menu.c ****     .height_def = LV_SIZE_CONTENT,
  52:Drivers/lvgl/src/extra/widgets/menu/lv_menu.c ****     .instance_size = sizeof(lv_menu_page_t)
  53:Drivers/lvgl/src/extra/widgets/menu/lv_menu.c **** };
  54:Drivers/lvgl/src/extra/widgets/menu/lv_menu.c **** 
  55:Drivers/lvgl/src/extra/widgets/menu/lv_menu.c **** const lv_obj_class_t lv_menu_cont_class = {
  56:Drivers/lvgl/src/extra/widgets/menu/lv_menu.c ****     .constructor_cb = lv_menu_cont_constructor,
  57:Drivers/lvgl/src/extra/widgets/menu/lv_menu.c ****     .base_class = &lv_obj_class,
  58:Drivers/lvgl/src/extra/widgets/menu/lv_menu.c ****     .width_def = LV_PCT(100),
  59:Drivers/lvgl/src/extra/widgets/menu/lv_menu.c ****     .height_def = LV_SIZE_CONTENT
  60:Drivers/lvgl/src/extra/widgets/menu/lv_menu.c **** };
  61:Drivers/lvgl/src/extra/widgets/menu/lv_menu.c **** 
  62:Drivers/lvgl/src/extra/widgets/menu/lv_menu.c **** const lv_obj_class_t lv_menu_section_class = {
  63:Drivers/lvgl/src/extra/widgets/menu/lv_menu.c ****     .constructor_cb = lv_menu_section_constructor,
  64:Drivers/lvgl/src/extra/widgets/menu/lv_menu.c ****     .base_class = &lv_obj_class,
  65:Drivers/lvgl/src/extra/widgets/menu/lv_menu.c ****     .width_def = LV_PCT(100),
  66:Drivers/lvgl/src/extra/widgets/menu/lv_menu.c ****     .height_def = LV_SIZE_CONTENT
  67:Drivers/lvgl/src/extra/widgets/menu/lv_menu.c **** };
  68:Drivers/lvgl/src/extra/widgets/menu/lv_menu.c **** 
  69:Drivers/lvgl/src/extra/widgets/menu/lv_menu.c **** const lv_obj_class_t lv_menu_separator_class = {
  70:Drivers/lvgl/src/extra/widgets/menu/lv_menu.c ****     .base_class = &lv_obj_class,
  71:Drivers/lvgl/src/extra/widgets/menu/lv_menu.c ****     .width_def = LV_SIZE_CONTENT,
  72:Drivers/lvgl/src/extra/widgets/menu/lv_menu.c ****     .height_def = LV_SIZE_CONTENT
  73:Drivers/lvgl/src/extra/widgets/menu/lv_menu.c **** };
  74:Drivers/lvgl/src/extra/widgets/menu/lv_menu.c **** 
  75:Drivers/lvgl/src/extra/widgets/menu/lv_menu.c **** const lv_obj_class_t lv_menu_sidebar_cont_class = {
  76:Drivers/lvgl/src/extra/widgets/menu/lv_menu.c ****     .base_class = &lv_obj_class
  77:Drivers/lvgl/src/extra/widgets/menu/lv_menu.c **** };
  78:Drivers/lvgl/src/extra/widgets/menu/lv_menu.c **** 
  79:Drivers/lvgl/src/extra/widgets/menu/lv_menu.c **** const lv_obj_class_t lv_menu_main_cont_class = {
  80:Drivers/lvgl/src/extra/widgets/menu/lv_menu.c ****     .base_class = &lv_obj_class
  81:Drivers/lvgl/src/extra/widgets/menu/lv_menu.c **** };
  82:Drivers/lvgl/src/extra/widgets/menu/lv_menu.c **** 
  83:Drivers/lvgl/src/extra/widgets/menu/lv_menu.c **** const lv_obj_class_t lv_menu_main_header_cont_class = {
  84:Drivers/lvgl/src/extra/widgets/menu/lv_menu.c ****     .base_class = &lv_obj_class
  85:Drivers/lvgl/src/extra/widgets/menu/lv_menu.c **** };
  86:Drivers/lvgl/src/extra/widgets/menu/lv_menu.c **** 
ARM GAS  /var/folders/0z/tsy30v1j4xl4_7kw94k978ww0000gn/T//ccS6OLnK.s 			page 3


  87:Drivers/lvgl/src/extra/widgets/menu/lv_menu.c **** const lv_obj_class_t lv_menu_sidebar_header_cont_class = {
  88:Drivers/lvgl/src/extra/widgets/menu/lv_menu.c ****     .base_class = &lv_obj_class
  89:Drivers/lvgl/src/extra/widgets/menu/lv_menu.c **** };
  90:Drivers/lvgl/src/extra/widgets/menu/lv_menu.c **** 
  91:Drivers/lvgl/src/extra/widgets/menu/lv_menu.c **** static void lv_menu_refr(lv_obj_t * obj);
  92:Drivers/lvgl/src/extra/widgets/menu/lv_menu.c **** static void lv_menu_refr_sidebar_header_mode(lv_obj_t * obj);
  93:Drivers/lvgl/src/extra/widgets/menu/lv_menu.c **** static void lv_menu_refr_main_header_mode(lv_obj_t * obj);
  94:Drivers/lvgl/src/extra/widgets/menu/lv_menu.c **** static void lv_menu_load_page_event_cb(lv_event_t * e);
  95:Drivers/lvgl/src/extra/widgets/menu/lv_menu.c **** static void lv_menu_obj_del_event_cb(lv_event_t * e);
  96:Drivers/lvgl/src/extra/widgets/menu/lv_menu.c **** static void lv_menu_back_event_cb(lv_event_t * e);
  97:Drivers/lvgl/src/extra/widgets/menu/lv_menu.c **** static void lv_menu_value_changed_event_cb(lv_event_t * e);
  98:Drivers/lvgl/src/extra/widgets/menu/lv_menu.c **** /**********************
  99:Drivers/lvgl/src/extra/widgets/menu/lv_menu.c ****  *  STATIC VARIABLES
 100:Drivers/lvgl/src/extra/widgets/menu/lv_menu.c ****  **********************/
 101:Drivers/lvgl/src/extra/widgets/menu/lv_menu.c **** 
 102:Drivers/lvgl/src/extra/widgets/menu/lv_menu.c **** /**********************
 103:Drivers/lvgl/src/extra/widgets/menu/lv_menu.c ****  *      MACROS
 104:Drivers/lvgl/src/extra/widgets/menu/lv_menu.c ****  **********************/
 105:Drivers/lvgl/src/extra/widgets/menu/lv_menu.c **** 
 106:Drivers/lvgl/src/extra/widgets/menu/lv_menu.c **** /**********************
 107:Drivers/lvgl/src/extra/widgets/menu/lv_menu.c ****  *   GLOBAL FUNCTIONS
 108:Drivers/lvgl/src/extra/widgets/menu/lv_menu.c ****  **********************/
 109:Drivers/lvgl/src/extra/widgets/menu/lv_menu.c **** bool lv_menu_item_back_btn_is_root(lv_obj_t * menu, lv_obj_t * obj);
 110:Drivers/lvgl/src/extra/widgets/menu/lv_menu.c **** void lv_menu_clear_history(lv_obj_t * obj);
 111:Drivers/lvgl/src/extra/widgets/menu/lv_menu.c **** 
 112:Drivers/lvgl/src/extra/widgets/menu/lv_menu.c **** lv_obj_t * lv_menu_create(lv_obj_t * parent)
 113:Drivers/lvgl/src/extra/widgets/menu/lv_menu.c **** {
 114:Drivers/lvgl/src/extra/widgets/menu/lv_menu.c ****     LV_LOG_INFO("begin");
 115:Drivers/lvgl/src/extra/widgets/menu/lv_menu.c ****     lv_obj_t * obj = lv_obj_class_create_obj(MY_CLASS, parent);
 116:Drivers/lvgl/src/extra/widgets/menu/lv_menu.c ****     lv_obj_class_init_obj(obj);
 117:Drivers/lvgl/src/extra/widgets/menu/lv_menu.c ****     return obj;
 118:Drivers/lvgl/src/extra/widgets/menu/lv_menu.c **** }
 119:Drivers/lvgl/src/extra/widgets/menu/lv_menu.c **** 
 120:Drivers/lvgl/src/extra/widgets/menu/lv_menu.c **** lv_obj_t * lv_menu_page_create(lv_obj_t * parent, char * title)
 121:Drivers/lvgl/src/extra/widgets/menu/lv_menu.c **** {
 122:Drivers/lvgl/src/extra/widgets/menu/lv_menu.c ****     LV_LOG_INFO("begin");
 123:Drivers/lvgl/src/extra/widgets/menu/lv_menu.c ****     lv_obj_t * obj = lv_obj_class_create_obj(&lv_menu_page_class, parent);
 124:Drivers/lvgl/src/extra/widgets/menu/lv_menu.c ****     lv_obj_class_init_obj(obj);
 125:Drivers/lvgl/src/extra/widgets/menu/lv_menu.c **** 
 126:Drivers/lvgl/src/extra/widgets/menu/lv_menu.c ****     lv_menu_page_t * page = (lv_menu_page_t *)obj;
 127:Drivers/lvgl/src/extra/widgets/menu/lv_menu.c ****     if(title) {
 128:Drivers/lvgl/src/extra/widgets/menu/lv_menu.c ****         page->title = lv_mem_alloc(strlen(title) + 1);
 129:Drivers/lvgl/src/extra/widgets/menu/lv_menu.c ****         LV_ASSERT_MALLOC(page->title);
 130:Drivers/lvgl/src/extra/widgets/menu/lv_menu.c ****         if(page->title == NULL) return NULL;
 131:Drivers/lvgl/src/extra/widgets/menu/lv_menu.c ****         strcpy(page->title, title);
 132:Drivers/lvgl/src/extra/widgets/menu/lv_menu.c ****     }
 133:Drivers/lvgl/src/extra/widgets/menu/lv_menu.c ****     else {
 134:Drivers/lvgl/src/extra/widgets/menu/lv_menu.c ****         page->title = NULL;
 135:Drivers/lvgl/src/extra/widgets/menu/lv_menu.c ****     }
 136:Drivers/lvgl/src/extra/widgets/menu/lv_menu.c **** 
 137:Drivers/lvgl/src/extra/widgets/menu/lv_menu.c ****     return obj;
 138:Drivers/lvgl/src/extra/widgets/menu/lv_menu.c **** }
 139:Drivers/lvgl/src/extra/widgets/menu/lv_menu.c **** 
 140:Drivers/lvgl/src/extra/widgets/menu/lv_menu.c **** lv_obj_t * lv_menu_cont_create(lv_obj_t * parent)
 141:Drivers/lvgl/src/extra/widgets/menu/lv_menu.c **** {
 142:Drivers/lvgl/src/extra/widgets/menu/lv_menu.c ****     LV_LOG_INFO("begin");
 143:Drivers/lvgl/src/extra/widgets/menu/lv_menu.c ****     lv_obj_t * obj = lv_obj_class_create_obj(&lv_menu_cont_class, parent);
ARM GAS  /var/folders/0z/tsy30v1j4xl4_7kw94k978ww0000gn/T//ccS6OLnK.s 			page 4


 144:Drivers/lvgl/src/extra/widgets/menu/lv_menu.c ****     lv_obj_class_init_obj(obj);
 145:Drivers/lvgl/src/extra/widgets/menu/lv_menu.c ****     return obj;
 146:Drivers/lvgl/src/extra/widgets/menu/lv_menu.c **** }
 147:Drivers/lvgl/src/extra/widgets/menu/lv_menu.c **** 
 148:Drivers/lvgl/src/extra/widgets/menu/lv_menu.c **** lv_obj_t * lv_menu_section_create(lv_obj_t * parent)
 149:Drivers/lvgl/src/extra/widgets/menu/lv_menu.c **** {
 150:Drivers/lvgl/src/extra/widgets/menu/lv_menu.c ****     LV_LOG_INFO("begin");
 151:Drivers/lvgl/src/extra/widgets/menu/lv_menu.c ****     lv_obj_t * obj = lv_obj_class_create_obj(&lv_menu_section_class, parent);
 152:Drivers/lvgl/src/extra/widgets/menu/lv_menu.c ****     lv_obj_class_init_obj(obj);
 153:Drivers/lvgl/src/extra/widgets/menu/lv_menu.c ****     return obj;
 154:Drivers/lvgl/src/extra/widgets/menu/lv_menu.c **** }
 155:Drivers/lvgl/src/extra/widgets/menu/lv_menu.c **** 
 156:Drivers/lvgl/src/extra/widgets/menu/lv_menu.c **** lv_obj_t * lv_menu_separator_create(lv_obj_t * parent)
 157:Drivers/lvgl/src/extra/widgets/menu/lv_menu.c **** {
 158:Drivers/lvgl/src/extra/widgets/menu/lv_menu.c ****     LV_LOG_INFO("begin");
 159:Drivers/lvgl/src/extra/widgets/menu/lv_menu.c ****     lv_obj_t * obj = lv_obj_class_create_obj(&lv_menu_separator_class, parent);
 160:Drivers/lvgl/src/extra/widgets/menu/lv_menu.c ****     lv_obj_class_init_obj(obj);
 161:Drivers/lvgl/src/extra/widgets/menu/lv_menu.c ****     return obj;
 162:Drivers/lvgl/src/extra/widgets/menu/lv_menu.c **** }
 163:Drivers/lvgl/src/extra/widgets/menu/lv_menu.c **** 
 164:Drivers/lvgl/src/extra/widgets/menu/lv_menu.c **** void lv_menu_refr(lv_obj_t * obj)
 165:Drivers/lvgl/src/extra/widgets/menu/lv_menu.c **** {
 166:Drivers/lvgl/src/extra/widgets/menu/lv_menu.c ****     LV_ASSERT_OBJ(obj, MY_CLASS);
 167:Drivers/lvgl/src/extra/widgets/menu/lv_menu.c **** 
 168:Drivers/lvgl/src/extra/widgets/menu/lv_menu.c ****     lv_menu_t * menu = (lv_menu_t *)obj;
 169:Drivers/lvgl/src/extra/widgets/menu/lv_menu.c ****     lv_ll_t * history_ll = &(menu->history_ll);
 170:Drivers/lvgl/src/extra/widgets/menu/lv_menu.c **** 
 171:Drivers/lvgl/src/extra/widgets/menu/lv_menu.c ****     /* The current menu */
 172:Drivers/lvgl/src/extra/widgets/menu/lv_menu.c ****     lv_menu_history_t * act_hist = _lv_ll_get_head(history_ll);
 173:Drivers/lvgl/src/extra/widgets/menu/lv_menu.c **** 
 174:Drivers/lvgl/src/extra/widgets/menu/lv_menu.c ****     lv_obj_t * page = NULL;
 175:Drivers/lvgl/src/extra/widgets/menu/lv_menu.c **** 
 176:Drivers/lvgl/src/extra/widgets/menu/lv_menu.c ****     if(act_hist != NULL) {
 177:Drivers/lvgl/src/extra/widgets/menu/lv_menu.c ****         page = act_hist->page;
 178:Drivers/lvgl/src/extra/widgets/menu/lv_menu.c ****         /* Delete the current item from the history */
 179:Drivers/lvgl/src/extra/widgets/menu/lv_menu.c ****         _lv_ll_remove(history_ll, act_hist);
 180:Drivers/lvgl/src/extra/widgets/menu/lv_menu.c ****         lv_mem_free(act_hist);
 181:Drivers/lvgl/src/extra/widgets/menu/lv_menu.c ****         menu->cur_depth--;
 182:Drivers/lvgl/src/extra/widgets/menu/lv_menu.c ****     }
 183:Drivers/lvgl/src/extra/widgets/menu/lv_menu.c **** 
 184:Drivers/lvgl/src/extra/widgets/menu/lv_menu.c ****     /* Set it */
 185:Drivers/lvgl/src/extra/widgets/menu/lv_menu.c ****     lv_menu_set_page(obj, page);
 186:Drivers/lvgl/src/extra/widgets/menu/lv_menu.c **** }
 187:Drivers/lvgl/src/extra/widgets/menu/lv_menu.c **** 
 188:Drivers/lvgl/src/extra/widgets/menu/lv_menu.c **** /*=====================
 189:Drivers/lvgl/src/extra/widgets/menu/lv_menu.c ****  * Setter functions
 190:Drivers/lvgl/src/extra/widgets/menu/lv_menu.c ****  *====================*/
 191:Drivers/lvgl/src/extra/widgets/menu/lv_menu.c **** 
 192:Drivers/lvgl/src/extra/widgets/menu/lv_menu.c **** void lv_menu_set_page(lv_obj_t * obj, lv_obj_t * page)
 193:Drivers/lvgl/src/extra/widgets/menu/lv_menu.c **** {
 194:Drivers/lvgl/src/extra/widgets/menu/lv_menu.c ****     LV_ASSERT_OBJ(obj, MY_CLASS);
 195:Drivers/lvgl/src/extra/widgets/menu/lv_menu.c **** 
 196:Drivers/lvgl/src/extra/widgets/menu/lv_menu.c ****     lv_menu_t * menu = (lv_menu_t *)obj;
 197:Drivers/lvgl/src/extra/widgets/menu/lv_menu.c **** 
 198:Drivers/lvgl/src/extra/widgets/menu/lv_menu.c ****     /* Guard against setting the same page again */
 199:Drivers/lvgl/src/extra/widgets/menu/lv_menu.c ****     if(menu->main_page == page) {
 200:Drivers/lvgl/src/extra/widgets/menu/lv_menu.c ****         return;
ARM GAS  /var/folders/0z/tsy30v1j4xl4_7kw94k978ww0000gn/T//ccS6OLnK.s 			page 5


 201:Drivers/lvgl/src/extra/widgets/menu/lv_menu.c ****     }
 202:Drivers/lvgl/src/extra/widgets/menu/lv_menu.c **** 
 203:Drivers/lvgl/src/extra/widgets/menu/lv_menu.c ****     /* Hide previous page */
 204:Drivers/lvgl/src/extra/widgets/menu/lv_menu.c ****     if(menu->main_page != NULL) {
 205:Drivers/lvgl/src/extra/widgets/menu/lv_menu.c ****         lv_obj_set_parent(menu->main_page, menu->storage);
 206:Drivers/lvgl/src/extra/widgets/menu/lv_menu.c ****     }
 207:Drivers/lvgl/src/extra/widgets/menu/lv_menu.c **** 
 208:Drivers/lvgl/src/extra/widgets/menu/lv_menu.c ****     if(page != NULL) {
 209:Drivers/lvgl/src/extra/widgets/menu/lv_menu.c ****         /* Add a new node */
 210:Drivers/lvgl/src/extra/widgets/menu/lv_menu.c ****         lv_ll_t * history_ll = &(menu->history_ll);
 211:Drivers/lvgl/src/extra/widgets/menu/lv_menu.c ****         lv_menu_history_t * new_node = _lv_ll_ins_head(history_ll);
 212:Drivers/lvgl/src/extra/widgets/menu/lv_menu.c ****         LV_ASSERT_MALLOC(new_node);
 213:Drivers/lvgl/src/extra/widgets/menu/lv_menu.c ****         new_node->page = page;
 214:Drivers/lvgl/src/extra/widgets/menu/lv_menu.c ****         menu->cur_depth++;
 215:Drivers/lvgl/src/extra/widgets/menu/lv_menu.c **** 
 216:Drivers/lvgl/src/extra/widgets/menu/lv_menu.c ****         /* Place page in main */
 217:Drivers/lvgl/src/extra/widgets/menu/lv_menu.c ****         lv_obj_set_parent(page, menu->main);
 218:Drivers/lvgl/src/extra/widgets/menu/lv_menu.c ****     }
 219:Drivers/lvgl/src/extra/widgets/menu/lv_menu.c ****     else {
 220:Drivers/lvgl/src/extra/widgets/menu/lv_menu.c ****         /* Empty page, clear history */
 221:Drivers/lvgl/src/extra/widgets/menu/lv_menu.c ****         lv_menu_clear_history(obj);
 222:Drivers/lvgl/src/extra/widgets/menu/lv_menu.c ****     }
 223:Drivers/lvgl/src/extra/widgets/menu/lv_menu.c **** 
 224:Drivers/lvgl/src/extra/widgets/menu/lv_menu.c ****     menu->main_page = page;
 225:Drivers/lvgl/src/extra/widgets/menu/lv_menu.c **** 
 226:Drivers/lvgl/src/extra/widgets/menu/lv_menu.c ****     /* If there is a selected tab, update checked state */
 227:Drivers/lvgl/src/extra/widgets/menu/lv_menu.c ****     if(menu->selected_tab != NULL) {
 228:Drivers/lvgl/src/extra/widgets/menu/lv_menu.c ****         if(menu->sidebar_page != NULL) {
 229:Drivers/lvgl/src/extra/widgets/menu/lv_menu.c ****             lv_obj_add_state(menu->selected_tab, LV_STATE_CHECKED);
 230:Drivers/lvgl/src/extra/widgets/menu/lv_menu.c ****         }
 231:Drivers/lvgl/src/extra/widgets/menu/lv_menu.c ****         else {
 232:Drivers/lvgl/src/extra/widgets/menu/lv_menu.c ****             lv_obj_clear_state(menu->selected_tab, LV_STATE_CHECKED);
 233:Drivers/lvgl/src/extra/widgets/menu/lv_menu.c ****         }
 234:Drivers/lvgl/src/extra/widgets/menu/lv_menu.c ****     }
 235:Drivers/lvgl/src/extra/widgets/menu/lv_menu.c **** 
 236:Drivers/lvgl/src/extra/widgets/menu/lv_menu.c ****     /* Back btn management */
 237:Drivers/lvgl/src/extra/widgets/menu/lv_menu.c ****     if(menu->sidebar_page != NULL) {
 238:Drivers/lvgl/src/extra/widgets/menu/lv_menu.c ****         /* With sidebar enabled */
 239:Drivers/lvgl/src/extra/widgets/menu/lv_menu.c ****         if(menu->sidebar_generated) {
 240:Drivers/lvgl/src/extra/widgets/menu/lv_menu.c ****             if(menu->mode_root_back_btn == LV_MENU_ROOT_BACK_BTN_ENABLED) {
 241:Drivers/lvgl/src/extra/widgets/menu/lv_menu.c ****                 /* Root back btn is always shown if enabled*/
 242:Drivers/lvgl/src/extra/widgets/menu/lv_menu.c ****                 lv_obj_clear_flag(menu->sidebar_header_back_btn, LV_OBJ_FLAG_HIDDEN);
 243:Drivers/lvgl/src/extra/widgets/menu/lv_menu.c ****                 lv_obj_add_flag(menu->sidebar_header_back_btn, LV_OBJ_FLAG_CLICKABLE);
 244:Drivers/lvgl/src/extra/widgets/menu/lv_menu.c ****             }
 245:Drivers/lvgl/src/extra/widgets/menu/lv_menu.c ****             else {
 246:Drivers/lvgl/src/extra/widgets/menu/lv_menu.c ****                 lv_obj_add_flag(menu->sidebar_header_back_btn, LV_OBJ_FLAG_HIDDEN);
 247:Drivers/lvgl/src/extra/widgets/menu/lv_menu.c ****                 lv_obj_clear_flag(menu->sidebar_header_back_btn, LV_OBJ_FLAG_CLICKABLE);
 248:Drivers/lvgl/src/extra/widgets/menu/lv_menu.c ****             }
 249:Drivers/lvgl/src/extra/widgets/menu/lv_menu.c ****         }
 250:Drivers/lvgl/src/extra/widgets/menu/lv_menu.c **** 
 251:Drivers/lvgl/src/extra/widgets/menu/lv_menu.c ****         if(menu->cur_depth >= 2) {
 252:Drivers/lvgl/src/extra/widgets/menu/lv_menu.c ****             lv_obj_clear_flag(menu->main_header_back_btn, LV_OBJ_FLAG_HIDDEN);
 253:Drivers/lvgl/src/extra/widgets/menu/lv_menu.c ****             lv_obj_add_flag(menu->main_header_back_btn, LV_OBJ_FLAG_CLICKABLE);
 254:Drivers/lvgl/src/extra/widgets/menu/lv_menu.c ****         }
 255:Drivers/lvgl/src/extra/widgets/menu/lv_menu.c ****         else {
 256:Drivers/lvgl/src/extra/widgets/menu/lv_menu.c ****             lv_obj_add_flag(menu->main_header_back_btn, LV_OBJ_FLAG_HIDDEN);
 257:Drivers/lvgl/src/extra/widgets/menu/lv_menu.c ****             lv_obj_clear_flag(menu->main_header_back_btn, LV_OBJ_FLAG_CLICKABLE);
ARM GAS  /var/folders/0z/tsy30v1j4xl4_7kw94k978ww0000gn/T//ccS6OLnK.s 			page 6


 258:Drivers/lvgl/src/extra/widgets/menu/lv_menu.c ****         }
 259:Drivers/lvgl/src/extra/widgets/menu/lv_menu.c ****     }
 260:Drivers/lvgl/src/extra/widgets/menu/lv_menu.c ****     else {
 261:Drivers/lvgl/src/extra/widgets/menu/lv_menu.c ****         /* With sidebar disabled */
 262:Drivers/lvgl/src/extra/widgets/menu/lv_menu.c ****         if(menu->cur_depth >= 2 || menu->mode_root_back_btn == LV_MENU_ROOT_BACK_BTN_ENABLED) {
 263:Drivers/lvgl/src/extra/widgets/menu/lv_menu.c ****             lv_obj_clear_flag(menu->main_header_back_btn, LV_OBJ_FLAG_HIDDEN);
 264:Drivers/lvgl/src/extra/widgets/menu/lv_menu.c ****             lv_obj_add_flag(menu->main_header_back_btn, LV_OBJ_FLAG_CLICKABLE);
 265:Drivers/lvgl/src/extra/widgets/menu/lv_menu.c ****         }
 266:Drivers/lvgl/src/extra/widgets/menu/lv_menu.c ****         else {
 267:Drivers/lvgl/src/extra/widgets/menu/lv_menu.c ****             lv_obj_add_flag(menu->main_header_back_btn, LV_OBJ_FLAG_HIDDEN);
 268:Drivers/lvgl/src/extra/widgets/menu/lv_menu.c ****             lv_obj_clear_flag(menu->main_header_back_btn, LV_OBJ_FLAG_CLICKABLE);
 269:Drivers/lvgl/src/extra/widgets/menu/lv_menu.c ****         }
 270:Drivers/lvgl/src/extra/widgets/menu/lv_menu.c ****     }
 271:Drivers/lvgl/src/extra/widgets/menu/lv_menu.c **** 
 272:Drivers/lvgl/src/extra/widgets/menu/lv_menu.c ****     lv_event_send((lv_obj_t *)menu, LV_EVENT_VALUE_CHANGED, NULL);
 273:Drivers/lvgl/src/extra/widgets/menu/lv_menu.c **** 
 274:Drivers/lvgl/src/extra/widgets/menu/lv_menu.c ****     lv_menu_refr_main_header_mode(obj);
 275:Drivers/lvgl/src/extra/widgets/menu/lv_menu.c **** }
 276:Drivers/lvgl/src/extra/widgets/menu/lv_menu.c **** 
 277:Drivers/lvgl/src/extra/widgets/menu/lv_menu.c **** void lv_menu_set_sidebar_page(lv_obj_t * obj, lv_obj_t * page)
 278:Drivers/lvgl/src/extra/widgets/menu/lv_menu.c **** {
 279:Drivers/lvgl/src/extra/widgets/menu/lv_menu.c ****     LV_ASSERT_OBJ(obj, MY_CLASS);
 280:Drivers/lvgl/src/extra/widgets/menu/lv_menu.c **** 
 281:Drivers/lvgl/src/extra/widgets/menu/lv_menu.c ****     lv_menu_t * menu = (lv_menu_t *)obj;
 282:Drivers/lvgl/src/extra/widgets/menu/lv_menu.c **** 
 283:Drivers/lvgl/src/extra/widgets/menu/lv_menu.c ****     /* Sidebar management*/
 284:Drivers/lvgl/src/extra/widgets/menu/lv_menu.c ****     if(page != NULL) {
 285:Drivers/lvgl/src/extra/widgets/menu/lv_menu.c ****         /* Sidebar should be enabled */
 286:Drivers/lvgl/src/extra/widgets/menu/lv_menu.c ****         if(!menu->sidebar_generated) {
 287:Drivers/lvgl/src/extra/widgets/menu/lv_menu.c ****             /* Create sidebar */
 288:Drivers/lvgl/src/extra/widgets/menu/lv_menu.c ****             lv_obj_t * sidebar_cont = lv_obj_class_create_obj(&lv_menu_sidebar_cont_class, obj);
 289:Drivers/lvgl/src/extra/widgets/menu/lv_menu.c ****             lv_obj_class_init_obj(sidebar_cont);
 290:Drivers/lvgl/src/extra/widgets/menu/lv_menu.c ****             lv_obj_move_to_index(sidebar_cont, 1);
 291:Drivers/lvgl/src/extra/widgets/menu/lv_menu.c ****             lv_obj_set_size(sidebar_cont, LV_PCT(30), LV_PCT(100));
 292:Drivers/lvgl/src/extra/widgets/menu/lv_menu.c ****             lv_obj_set_flex_flow(sidebar_cont, LV_FLEX_FLOW_COLUMN);
 293:Drivers/lvgl/src/extra/widgets/menu/lv_menu.c ****             lv_obj_add_flag(sidebar_cont, LV_OBJ_FLAG_EVENT_BUBBLE);
 294:Drivers/lvgl/src/extra/widgets/menu/lv_menu.c ****             lv_obj_clear_flag(sidebar_cont, LV_OBJ_FLAG_CLICKABLE);
 295:Drivers/lvgl/src/extra/widgets/menu/lv_menu.c ****             menu->sidebar = sidebar_cont;
 296:Drivers/lvgl/src/extra/widgets/menu/lv_menu.c **** 
 297:Drivers/lvgl/src/extra/widgets/menu/lv_menu.c ****             lv_obj_t * sidebar_header = lv_obj_class_create_obj(&lv_menu_sidebar_header_cont_class,
 298:Drivers/lvgl/src/extra/widgets/menu/lv_menu.c ****             lv_obj_class_init_obj(sidebar_header);
 299:Drivers/lvgl/src/extra/widgets/menu/lv_menu.c ****             lv_obj_set_size(sidebar_header, LV_PCT(100), LV_SIZE_CONTENT);
 300:Drivers/lvgl/src/extra/widgets/menu/lv_menu.c ****             lv_obj_set_flex_flow(sidebar_header, LV_FLEX_FLOW_ROW);
 301:Drivers/lvgl/src/extra/widgets/menu/lv_menu.c ****             lv_obj_set_flex_align(sidebar_header, LV_FLEX_ALIGN_START, LV_FLEX_ALIGN_CENTER, LV_FLE
 302:Drivers/lvgl/src/extra/widgets/menu/lv_menu.c ****             lv_obj_clear_flag(sidebar_header, LV_OBJ_FLAG_CLICKABLE);
 303:Drivers/lvgl/src/extra/widgets/menu/lv_menu.c ****             lv_obj_add_flag(sidebar_header, LV_OBJ_FLAG_EVENT_BUBBLE);
 304:Drivers/lvgl/src/extra/widgets/menu/lv_menu.c ****             menu->sidebar_header = sidebar_header;
 305:Drivers/lvgl/src/extra/widgets/menu/lv_menu.c **** 
 306:Drivers/lvgl/src/extra/widgets/menu/lv_menu.c ****             lv_obj_t * sidebar_header_back_btn = lv_btn_create(menu->sidebar_header);
 307:Drivers/lvgl/src/extra/widgets/menu/lv_menu.c ****             lv_obj_add_event_cb(sidebar_header_back_btn, lv_menu_back_event_cb, LV_EVENT_CLICKED, m
 308:Drivers/lvgl/src/extra/widgets/menu/lv_menu.c ****             lv_obj_add_flag(sidebar_header_back_btn, LV_OBJ_FLAG_EVENT_BUBBLE);
 309:Drivers/lvgl/src/extra/widgets/menu/lv_menu.c ****             lv_obj_set_flex_flow(sidebar_header_back_btn, LV_FLEX_FLOW_ROW);
 310:Drivers/lvgl/src/extra/widgets/menu/lv_menu.c ****             menu->sidebar_header_back_btn = sidebar_header_back_btn;
 311:Drivers/lvgl/src/extra/widgets/menu/lv_menu.c **** 
 312:Drivers/lvgl/src/extra/widgets/menu/lv_menu.c ****             lv_obj_t * sidebar_header_back_icon = lv_img_create(menu->sidebar_header_back_btn);
 313:Drivers/lvgl/src/extra/widgets/menu/lv_menu.c ****             lv_img_set_src(sidebar_header_back_icon, LV_SYMBOL_LEFT);
 314:Drivers/lvgl/src/extra/widgets/menu/lv_menu.c **** 
ARM GAS  /var/folders/0z/tsy30v1j4xl4_7kw94k978ww0000gn/T//ccS6OLnK.s 			page 7


 315:Drivers/lvgl/src/extra/widgets/menu/lv_menu.c ****             lv_obj_t * sidebar_header_title = lv_label_create(menu->sidebar_header);
 316:Drivers/lvgl/src/extra/widgets/menu/lv_menu.c ****             lv_obj_add_flag(sidebar_header_title, LV_OBJ_FLAG_HIDDEN);
 317:Drivers/lvgl/src/extra/widgets/menu/lv_menu.c ****             menu->sidebar_header_title = sidebar_header_title;
 318:Drivers/lvgl/src/extra/widgets/menu/lv_menu.c **** 
 319:Drivers/lvgl/src/extra/widgets/menu/lv_menu.c ****             menu->sidebar_generated = true;
 320:Drivers/lvgl/src/extra/widgets/menu/lv_menu.c ****         }
 321:Drivers/lvgl/src/extra/widgets/menu/lv_menu.c **** 
 322:Drivers/lvgl/src/extra/widgets/menu/lv_menu.c ****         lv_obj_set_parent(page, menu->sidebar);
 323:Drivers/lvgl/src/extra/widgets/menu/lv_menu.c **** 
 324:Drivers/lvgl/src/extra/widgets/menu/lv_menu.c ****         lv_menu_refr_sidebar_header_mode(obj);
 325:Drivers/lvgl/src/extra/widgets/menu/lv_menu.c ****     }
 326:Drivers/lvgl/src/extra/widgets/menu/lv_menu.c ****     else {
 327:Drivers/lvgl/src/extra/widgets/menu/lv_menu.c ****         /* Sidebar should be disabled */
 328:Drivers/lvgl/src/extra/widgets/menu/lv_menu.c ****         if(menu->sidebar_generated) {
 329:Drivers/lvgl/src/extra/widgets/menu/lv_menu.c ****             lv_obj_set_parent(menu->sidebar_page, menu->storage);
 330:Drivers/lvgl/src/extra/widgets/menu/lv_menu.c ****             lv_obj_del(menu->sidebar);
 331:Drivers/lvgl/src/extra/widgets/menu/lv_menu.c **** 
 332:Drivers/lvgl/src/extra/widgets/menu/lv_menu.c ****             menu->sidebar_generated = false;
 333:Drivers/lvgl/src/extra/widgets/menu/lv_menu.c ****         }
 334:Drivers/lvgl/src/extra/widgets/menu/lv_menu.c ****     }
 335:Drivers/lvgl/src/extra/widgets/menu/lv_menu.c **** 
 336:Drivers/lvgl/src/extra/widgets/menu/lv_menu.c ****     menu->sidebar_page = page;
 337:Drivers/lvgl/src/extra/widgets/menu/lv_menu.c ****     lv_menu_refr(obj);
 338:Drivers/lvgl/src/extra/widgets/menu/lv_menu.c **** }
 339:Drivers/lvgl/src/extra/widgets/menu/lv_menu.c **** 
 340:Drivers/lvgl/src/extra/widgets/menu/lv_menu.c **** void lv_menu_set_mode_header(lv_obj_t * obj, lv_menu_mode_header_t mode_header)
 341:Drivers/lvgl/src/extra/widgets/menu/lv_menu.c **** {
 342:Drivers/lvgl/src/extra/widgets/menu/lv_menu.c ****     LV_ASSERT_OBJ(obj, MY_CLASS);
 343:Drivers/lvgl/src/extra/widgets/menu/lv_menu.c **** 
 344:Drivers/lvgl/src/extra/widgets/menu/lv_menu.c ****     lv_menu_t * menu = (lv_menu_t *)obj;
 345:Drivers/lvgl/src/extra/widgets/menu/lv_menu.c **** 
 346:Drivers/lvgl/src/extra/widgets/menu/lv_menu.c ****     if(menu->mode_header != mode_header) {
 347:Drivers/lvgl/src/extra/widgets/menu/lv_menu.c ****         menu->mode_header = mode_header;
 348:Drivers/lvgl/src/extra/widgets/menu/lv_menu.c ****         lv_menu_refr_main_header_mode(obj);
 349:Drivers/lvgl/src/extra/widgets/menu/lv_menu.c ****         if(menu->sidebar_generated) lv_menu_refr_sidebar_header_mode(obj);
 350:Drivers/lvgl/src/extra/widgets/menu/lv_menu.c ****     }
 351:Drivers/lvgl/src/extra/widgets/menu/lv_menu.c **** }
 352:Drivers/lvgl/src/extra/widgets/menu/lv_menu.c **** 
 353:Drivers/lvgl/src/extra/widgets/menu/lv_menu.c **** void lv_menu_set_mode_root_back_btn(lv_obj_t * obj, lv_menu_mode_root_back_btn_t mode_root_back_btn
 354:Drivers/lvgl/src/extra/widgets/menu/lv_menu.c **** {
 355:Drivers/lvgl/src/extra/widgets/menu/lv_menu.c ****     LV_ASSERT_OBJ(obj, MY_CLASS);
 356:Drivers/lvgl/src/extra/widgets/menu/lv_menu.c **** 
 357:Drivers/lvgl/src/extra/widgets/menu/lv_menu.c ****     lv_menu_t * menu = (lv_menu_t *)obj;
 358:Drivers/lvgl/src/extra/widgets/menu/lv_menu.c **** 
 359:Drivers/lvgl/src/extra/widgets/menu/lv_menu.c ****     if(menu->mode_root_back_btn != mode_root_back_btn) {
 360:Drivers/lvgl/src/extra/widgets/menu/lv_menu.c ****         menu->mode_root_back_btn = mode_root_back_btn;
 361:Drivers/lvgl/src/extra/widgets/menu/lv_menu.c ****         lv_menu_refr(obj);
 362:Drivers/lvgl/src/extra/widgets/menu/lv_menu.c ****     }
 363:Drivers/lvgl/src/extra/widgets/menu/lv_menu.c **** }
 364:Drivers/lvgl/src/extra/widgets/menu/lv_menu.c **** 
 365:Drivers/lvgl/src/extra/widgets/menu/lv_menu.c **** void lv_menu_set_load_page_event(lv_obj_t * menu, lv_obj_t * obj, lv_obj_t * page)
 366:Drivers/lvgl/src/extra/widgets/menu/lv_menu.c **** {
 367:Drivers/lvgl/src/extra/widgets/menu/lv_menu.c ****     LV_ASSERT_OBJ(menu, MY_CLASS);
 368:Drivers/lvgl/src/extra/widgets/menu/lv_menu.c **** 
 369:Drivers/lvgl/src/extra/widgets/menu/lv_menu.c ****     lv_obj_add_flag(obj, LV_OBJ_FLAG_CLICKABLE);
 370:Drivers/lvgl/src/extra/widgets/menu/lv_menu.c ****     lv_obj_clear_flag(obj, LV_OBJ_FLAG_SCROLLABLE);
 371:Drivers/lvgl/src/extra/widgets/menu/lv_menu.c ****     lv_obj_add_flag(obj, LV_OBJ_FLAG_SCROLL_ON_FOCUS);
ARM GAS  /var/folders/0z/tsy30v1j4xl4_7kw94k978ww0000gn/T//ccS6OLnK.s 			page 8


 372:Drivers/lvgl/src/extra/widgets/menu/lv_menu.c **** 
 373:Drivers/lvgl/src/extra/widgets/menu/lv_menu.c ****     /* Remove old event */
 374:Drivers/lvgl/src/extra/widgets/menu/lv_menu.c ****     if(lv_obj_remove_event_cb(obj, lv_menu_load_page_event_cb)) {
 375:Drivers/lvgl/src/extra/widgets/menu/lv_menu.c ****         lv_event_send(obj, LV_EVENT_DELETE, NULL);
 376:Drivers/lvgl/src/extra/widgets/menu/lv_menu.c ****         lv_obj_remove_event_cb(obj, lv_menu_obj_del_event_cb);
 377:Drivers/lvgl/src/extra/widgets/menu/lv_menu.c ****     }
 378:Drivers/lvgl/src/extra/widgets/menu/lv_menu.c **** 
 379:Drivers/lvgl/src/extra/widgets/menu/lv_menu.c ****     lv_menu_load_page_event_data_t * event_data = lv_mem_alloc(sizeof(lv_menu_load_page_event_data_
 380:Drivers/lvgl/src/extra/widgets/menu/lv_menu.c ****     event_data->menu = menu;
 381:Drivers/lvgl/src/extra/widgets/menu/lv_menu.c ****     event_data->page = page;
 382:Drivers/lvgl/src/extra/widgets/menu/lv_menu.c **** 
 383:Drivers/lvgl/src/extra/widgets/menu/lv_menu.c ****     lv_obj_add_event_cb(obj, lv_menu_load_page_event_cb, LV_EVENT_CLICKED, event_data);
 384:Drivers/lvgl/src/extra/widgets/menu/lv_menu.c ****     lv_obj_add_event_cb(obj, lv_menu_obj_del_event_cb, LV_EVENT_DELETE, event_data);
 385:Drivers/lvgl/src/extra/widgets/menu/lv_menu.c **** }
 386:Drivers/lvgl/src/extra/widgets/menu/lv_menu.c **** 
 387:Drivers/lvgl/src/extra/widgets/menu/lv_menu.c **** /*=====================
 388:Drivers/lvgl/src/extra/widgets/menu/lv_menu.c ****  * Getter functions
 389:Drivers/lvgl/src/extra/widgets/menu/lv_menu.c ****  *====================*/
 390:Drivers/lvgl/src/extra/widgets/menu/lv_menu.c **** lv_obj_t * lv_menu_get_cur_main_page(lv_obj_t * obj)
 391:Drivers/lvgl/src/extra/widgets/menu/lv_menu.c **** {
 392:Drivers/lvgl/src/extra/widgets/menu/lv_menu.c ****     LV_ASSERT_OBJ(obj, MY_CLASS);
 393:Drivers/lvgl/src/extra/widgets/menu/lv_menu.c **** 
 394:Drivers/lvgl/src/extra/widgets/menu/lv_menu.c ****     lv_menu_t * menu = (lv_menu_t *)obj;
 395:Drivers/lvgl/src/extra/widgets/menu/lv_menu.c ****     return menu->main_page;
 396:Drivers/lvgl/src/extra/widgets/menu/lv_menu.c **** }
 397:Drivers/lvgl/src/extra/widgets/menu/lv_menu.c **** 
 398:Drivers/lvgl/src/extra/widgets/menu/lv_menu.c **** lv_obj_t * lv_menu_get_cur_sidebar_page(lv_obj_t * obj)
 399:Drivers/lvgl/src/extra/widgets/menu/lv_menu.c **** {
 400:Drivers/lvgl/src/extra/widgets/menu/lv_menu.c ****     LV_ASSERT_OBJ(obj, MY_CLASS);
 401:Drivers/lvgl/src/extra/widgets/menu/lv_menu.c **** 
 402:Drivers/lvgl/src/extra/widgets/menu/lv_menu.c ****     lv_menu_t * menu = (lv_menu_t *)obj;
 403:Drivers/lvgl/src/extra/widgets/menu/lv_menu.c ****     return menu->sidebar_page;
 404:Drivers/lvgl/src/extra/widgets/menu/lv_menu.c **** }
 405:Drivers/lvgl/src/extra/widgets/menu/lv_menu.c **** 
 406:Drivers/lvgl/src/extra/widgets/menu/lv_menu.c **** lv_obj_t * lv_menu_get_main_header(lv_obj_t * obj)
 407:Drivers/lvgl/src/extra/widgets/menu/lv_menu.c **** {
 408:Drivers/lvgl/src/extra/widgets/menu/lv_menu.c ****     LV_ASSERT_OBJ(obj, MY_CLASS);
 409:Drivers/lvgl/src/extra/widgets/menu/lv_menu.c **** 
 410:Drivers/lvgl/src/extra/widgets/menu/lv_menu.c ****     lv_menu_t * menu = (lv_menu_t *)obj;
 411:Drivers/lvgl/src/extra/widgets/menu/lv_menu.c ****     return menu->main_header;
 412:Drivers/lvgl/src/extra/widgets/menu/lv_menu.c **** }
 413:Drivers/lvgl/src/extra/widgets/menu/lv_menu.c **** 
 414:Drivers/lvgl/src/extra/widgets/menu/lv_menu.c **** lv_obj_t * lv_menu_get_main_header_back_btn(lv_obj_t * obj)
 415:Drivers/lvgl/src/extra/widgets/menu/lv_menu.c **** {
 416:Drivers/lvgl/src/extra/widgets/menu/lv_menu.c ****     LV_ASSERT_OBJ(obj, MY_CLASS);
 417:Drivers/lvgl/src/extra/widgets/menu/lv_menu.c **** 
 418:Drivers/lvgl/src/extra/widgets/menu/lv_menu.c ****     lv_menu_t * menu = (lv_menu_t *)obj;
 419:Drivers/lvgl/src/extra/widgets/menu/lv_menu.c ****     return menu->main_header_back_btn;
 420:Drivers/lvgl/src/extra/widgets/menu/lv_menu.c **** }
 421:Drivers/lvgl/src/extra/widgets/menu/lv_menu.c **** 
 422:Drivers/lvgl/src/extra/widgets/menu/lv_menu.c **** lv_obj_t * lv_menu_get_sidebar_header(lv_obj_t * obj)
 423:Drivers/lvgl/src/extra/widgets/menu/lv_menu.c **** {
 424:Drivers/lvgl/src/extra/widgets/menu/lv_menu.c ****     LV_ASSERT_OBJ(obj, MY_CLASS);
 425:Drivers/lvgl/src/extra/widgets/menu/lv_menu.c **** 
 426:Drivers/lvgl/src/extra/widgets/menu/lv_menu.c ****     lv_menu_t * menu = (lv_menu_t *)obj;
 427:Drivers/lvgl/src/extra/widgets/menu/lv_menu.c ****     return menu->sidebar_header;
 428:Drivers/lvgl/src/extra/widgets/menu/lv_menu.c **** }
ARM GAS  /var/folders/0z/tsy30v1j4xl4_7kw94k978ww0000gn/T//ccS6OLnK.s 			page 9


 429:Drivers/lvgl/src/extra/widgets/menu/lv_menu.c **** 
 430:Drivers/lvgl/src/extra/widgets/menu/lv_menu.c **** lv_obj_t * lv_menu_get_sidebar_header_back_btn(lv_obj_t * obj)
 431:Drivers/lvgl/src/extra/widgets/menu/lv_menu.c **** {
 432:Drivers/lvgl/src/extra/widgets/menu/lv_menu.c ****     LV_ASSERT_OBJ(obj, MY_CLASS);
 433:Drivers/lvgl/src/extra/widgets/menu/lv_menu.c **** 
 434:Drivers/lvgl/src/extra/widgets/menu/lv_menu.c ****     lv_menu_t * menu = (lv_menu_t *)obj;
 435:Drivers/lvgl/src/extra/widgets/menu/lv_menu.c ****     return menu->sidebar_header_back_btn;
 436:Drivers/lvgl/src/extra/widgets/menu/lv_menu.c **** }
 437:Drivers/lvgl/src/extra/widgets/menu/lv_menu.c **** 
 438:Drivers/lvgl/src/extra/widgets/menu/lv_menu.c **** bool lv_menu_back_btn_is_root(lv_obj_t * menu, lv_obj_t * obj)
 439:Drivers/lvgl/src/extra/widgets/menu/lv_menu.c **** {
 440:Drivers/lvgl/src/extra/widgets/menu/lv_menu.c ****     LV_ASSERT_OBJ(menu, MY_CLASS);
 441:Drivers/lvgl/src/extra/widgets/menu/lv_menu.c **** 
 442:Drivers/lvgl/src/extra/widgets/menu/lv_menu.c ****     if(obj == ((lv_menu_t *)menu)->sidebar_header_back_btn) {
 443:Drivers/lvgl/src/extra/widgets/menu/lv_menu.c ****         return true;
 444:Drivers/lvgl/src/extra/widgets/menu/lv_menu.c ****     }
 445:Drivers/lvgl/src/extra/widgets/menu/lv_menu.c **** 
 446:Drivers/lvgl/src/extra/widgets/menu/lv_menu.c ****     if(obj == ((lv_menu_t *)menu)->main_header_back_btn && ((lv_menu_t *)menu)->prev_depth <= 1) {
 447:Drivers/lvgl/src/extra/widgets/menu/lv_menu.c ****         return true;
 448:Drivers/lvgl/src/extra/widgets/menu/lv_menu.c ****     }
 449:Drivers/lvgl/src/extra/widgets/menu/lv_menu.c **** 
 450:Drivers/lvgl/src/extra/widgets/menu/lv_menu.c ****     return false;
 451:Drivers/lvgl/src/extra/widgets/menu/lv_menu.c **** }
 452:Drivers/lvgl/src/extra/widgets/menu/lv_menu.c **** 
 453:Drivers/lvgl/src/extra/widgets/menu/lv_menu.c **** void lv_menu_clear_history(lv_obj_t * obj)
 454:Drivers/lvgl/src/extra/widgets/menu/lv_menu.c **** {
 455:Drivers/lvgl/src/extra/widgets/menu/lv_menu.c ****     LV_ASSERT_OBJ(obj, MY_CLASS);
 456:Drivers/lvgl/src/extra/widgets/menu/lv_menu.c **** 
 457:Drivers/lvgl/src/extra/widgets/menu/lv_menu.c ****     lv_menu_t * menu = (lv_menu_t *)obj;
 458:Drivers/lvgl/src/extra/widgets/menu/lv_menu.c ****     lv_ll_t * history_ll = &(menu->history_ll);
 459:Drivers/lvgl/src/extra/widgets/menu/lv_menu.c **** 
 460:Drivers/lvgl/src/extra/widgets/menu/lv_menu.c ****     _lv_ll_clear(history_ll);
 461:Drivers/lvgl/src/extra/widgets/menu/lv_menu.c **** 
 462:Drivers/lvgl/src/extra/widgets/menu/lv_menu.c ****     menu->cur_depth = 0;
 463:Drivers/lvgl/src/extra/widgets/menu/lv_menu.c **** }
 464:Drivers/lvgl/src/extra/widgets/menu/lv_menu.c **** 
 465:Drivers/lvgl/src/extra/widgets/menu/lv_menu.c **** /**********************
 466:Drivers/lvgl/src/extra/widgets/menu/lv_menu.c ****  *   STATIC FUNCTIONS
 467:Drivers/lvgl/src/extra/widgets/menu/lv_menu.c ****  **********************/
 468:Drivers/lvgl/src/extra/widgets/menu/lv_menu.c **** 
 469:Drivers/lvgl/src/extra/widgets/menu/lv_menu.c **** static void lv_menu_constructor(const lv_obj_class_t * class_p, lv_obj_t * obj)
 470:Drivers/lvgl/src/extra/widgets/menu/lv_menu.c **** {
 471:Drivers/lvgl/src/extra/widgets/menu/lv_menu.c ****     LV_UNUSED(class_p);
 472:Drivers/lvgl/src/extra/widgets/menu/lv_menu.c ****     LV_TRACE_OBJ_CREATE("begin");
 473:Drivers/lvgl/src/extra/widgets/menu/lv_menu.c **** 
 474:Drivers/lvgl/src/extra/widgets/menu/lv_menu.c ****     lv_obj_set_layout(obj, LV_LAYOUT_FLEX);
 475:Drivers/lvgl/src/extra/widgets/menu/lv_menu.c ****     lv_obj_set_flex_flow(obj, LV_FLEX_FLOW_ROW);
 476:Drivers/lvgl/src/extra/widgets/menu/lv_menu.c **** 
 477:Drivers/lvgl/src/extra/widgets/menu/lv_menu.c ****     lv_menu_t * menu = (lv_menu_t *)obj;
 478:Drivers/lvgl/src/extra/widgets/menu/lv_menu.c **** 
 479:Drivers/lvgl/src/extra/widgets/menu/lv_menu.c ****     menu->mode_header = LV_MENU_HEADER_TOP_FIXED;
 480:Drivers/lvgl/src/extra/widgets/menu/lv_menu.c ****     menu->mode_root_back_btn = LV_MENU_ROOT_BACK_BTN_DISABLED;
 481:Drivers/lvgl/src/extra/widgets/menu/lv_menu.c ****     menu->cur_depth = 0;
 482:Drivers/lvgl/src/extra/widgets/menu/lv_menu.c ****     menu->prev_depth = 0;
 483:Drivers/lvgl/src/extra/widgets/menu/lv_menu.c ****     menu->sidebar_generated = false;
 484:Drivers/lvgl/src/extra/widgets/menu/lv_menu.c **** 
 485:Drivers/lvgl/src/extra/widgets/menu/lv_menu.c ****     _lv_ll_init(&(menu->history_ll), sizeof(lv_menu_history_t));
ARM GAS  /var/folders/0z/tsy30v1j4xl4_7kw94k978ww0000gn/T//ccS6OLnK.s 			page 10


 486:Drivers/lvgl/src/extra/widgets/menu/lv_menu.c **** 
 487:Drivers/lvgl/src/extra/widgets/menu/lv_menu.c ****     menu->storage = lv_obj_create(obj);
 488:Drivers/lvgl/src/extra/widgets/menu/lv_menu.c ****     lv_obj_add_flag(menu->storage, LV_OBJ_FLAG_HIDDEN);
 489:Drivers/lvgl/src/extra/widgets/menu/lv_menu.c **** 
 490:Drivers/lvgl/src/extra/widgets/menu/lv_menu.c ****     menu->sidebar = NULL;
 491:Drivers/lvgl/src/extra/widgets/menu/lv_menu.c ****     menu->sidebar_header = NULL;
 492:Drivers/lvgl/src/extra/widgets/menu/lv_menu.c ****     menu->sidebar_header_back_btn = NULL;
 493:Drivers/lvgl/src/extra/widgets/menu/lv_menu.c ****     menu->sidebar_header_title = NULL;
 494:Drivers/lvgl/src/extra/widgets/menu/lv_menu.c ****     menu->sidebar_page = NULL;
 495:Drivers/lvgl/src/extra/widgets/menu/lv_menu.c **** 
 496:Drivers/lvgl/src/extra/widgets/menu/lv_menu.c ****     lv_obj_t * main_cont = lv_obj_class_create_obj(&lv_menu_main_cont_class, obj);
 497:Drivers/lvgl/src/extra/widgets/menu/lv_menu.c ****     lv_obj_class_init_obj(main_cont);
 498:Drivers/lvgl/src/extra/widgets/menu/lv_menu.c ****     lv_obj_set_height(main_cont, LV_PCT(100));
 499:Drivers/lvgl/src/extra/widgets/menu/lv_menu.c ****     lv_obj_set_flex_grow(main_cont, 1);
 500:Drivers/lvgl/src/extra/widgets/menu/lv_menu.c ****     lv_obj_set_flex_flow(main_cont, LV_FLEX_FLOW_COLUMN);
 501:Drivers/lvgl/src/extra/widgets/menu/lv_menu.c ****     lv_obj_add_flag(main_cont, LV_OBJ_FLAG_EVENT_BUBBLE);
 502:Drivers/lvgl/src/extra/widgets/menu/lv_menu.c ****     lv_obj_clear_flag(main_cont, LV_OBJ_FLAG_CLICKABLE);
 503:Drivers/lvgl/src/extra/widgets/menu/lv_menu.c ****     menu->main = main_cont;
 504:Drivers/lvgl/src/extra/widgets/menu/lv_menu.c **** 
 505:Drivers/lvgl/src/extra/widgets/menu/lv_menu.c ****     lv_obj_t * main_header = lv_obj_class_create_obj(&lv_menu_main_header_cont_class, main_cont);
 506:Drivers/lvgl/src/extra/widgets/menu/lv_menu.c ****     lv_obj_class_init_obj(main_header);
 507:Drivers/lvgl/src/extra/widgets/menu/lv_menu.c ****     lv_obj_set_size(main_header, LV_PCT(100), LV_SIZE_CONTENT);
 508:Drivers/lvgl/src/extra/widgets/menu/lv_menu.c ****     lv_obj_set_flex_flow(main_header, LV_FLEX_FLOW_ROW);
 509:Drivers/lvgl/src/extra/widgets/menu/lv_menu.c ****     lv_obj_set_flex_align(main_header, LV_FLEX_ALIGN_START, LV_FLEX_ALIGN_CENTER, LV_FLEX_ALIGN_CEN
 510:Drivers/lvgl/src/extra/widgets/menu/lv_menu.c ****     lv_obj_clear_flag(main_header, LV_OBJ_FLAG_CLICKABLE);
 511:Drivers/lvgl/src/extra/widgets/menu/lv_menu.c ****     lv_obj_add_flag(main_header, LV_OBJ_FLAG_EVENT_BUBBLE);
 512:Drivers/lvgl/src/extra/widgets/menu/lv_menu.c ****     menu->main_header = main_header;
 513:Drivers/lvgl/src/extra/widgets/menu/lv_menu.c **** 
 514:Drivers/lvgl/src/extra/widgets/menu/lv_menu.c ****     /* Create the default simple back btn and title */
 515:Drivers/lvgl/src/extra/widgets/menu/lv_menu.c ****     lv_obj_t * main_header_back_btn = lv_btn_create(menu->main_header);
 516:Drivers/lvgl/src/extra/widgets/menu/lv_menu.c ****     lv_obj_add_event_cb(main_header_back_btn, lv_menu_back_event_cb, LV_EVENT_CLICKED, menu);
 517:Drivers/lvgl/src/extra/widgets/menu/lv_menu.c ****     lv_obj_add_flag(main_header_back_btn, LV_OBJ_FLAG_EVENT_BUBBLE);
 518:Drivers/lvgl/src/extra/widgets/menu/lv_menu.c ****     lv_obj_set_flex_flow(main_header_back_btn, LV_FLEX_FLOW_ROW);
 519:Drivers/lvgl/src/extra/widgets/menu/lv_menu.c ****     menu->main_header_back_btn = main_header_back_btn;
 520:Drivers/lvgl/src/extra/widgets/menu/lv_menu.c **** 
 521:Drivers/lvgl/src/extra/widgets/menu/lv_menu.c ****     lv_obj_t * main_header_back_icon = lv_img_create(menu->main_header_back_btn);
 522:Drivers/lvgl/src/extra/widgets/menu/lv_menu.c ****     lv_img_set_src(main_header_back_icon, LV_SYMBOL_LEFT);
 523:Drivers/lvgl/src/extra/widgets/menu/lv_menu.c **** 
 524:Drivers/lvgl/src/extra/widgets/menu/lv_menu.c ****     lv_obj_t * main_header_title = lv_label_create(menu->main_header);
 525:Drivers/lvgl/src/extra/widgets/menu/lv_menu.c ****     lv_obj_add_flag(main_header_title, LV_OBJ_FLAG_HIDDEN);
 526:Drivers/lvgl/src/extra/widgets/menu/lv_menu.c ****     menu->main_header_title = main_header_title;
 527:Drivers/lvgl/src/extra/widgets/menu/lv_menu.c **** 
 528:Drivers/lvgl/src/extra/widgets/menu/lv_menu.c ****     menu->main_page = NULL;
 529:Drivers/lvgl/src/extra/widgets/menu/lv_menu.c ****     menu->selected_tab = NULL;
 530:Drivers/lvgl/src/extra/widgets/menu/lv_menu.c **** 
 531:Drivers/lvgl/src/extra/widgets/menu/lv_menu.c ****     lv_obj_add_event_cb(obj, lv_menu_value_changed_event_cb, LV_EVENT_VALUE_CHANGED, menu);
 532:Drivers/lvgl/src/extra/widgets/menu/lv_menu.c **** 
 533:Drivers/lvgl/src/extra/widgets/menu/lv_menu.c ****     LV_TRACE_OBJ_CREATE("finished");
 534:Drivers/lvgl/src/extra/widgets/menu/lv_menu.c **** }
 535:Drivers/lvgl/src/extra/widgets/menu/lv_menu.c **** 
 536:Drivers/lvgl/src/extra/widgets/menu/lv_menu.c **** static void lv_menu_destructor(const lv_obj_class_t * class_p, lv_obj_t * obj)
 537:Drivers/lvgl/src/extra/widgets/menu/lv_menu.c **** {
  30              		.loc 1 537 1 view -0
  31              		.cfi_startproc
  32              		@ args = 0, pretend = 0, frame = 0
  33              		@ frame_needed = 0, uses_anonymous_args = 0
  34              		@ link register save eliminated.
ARM GAS  /var/folders/0z/tsy30v1j4xl4_7kw94k978ww0000gn/T//ccS6OLnK.s 			page 11


 538:Drivers/lvgl/src/extra/widgets/menu/lv_menu.c ****     LV_UNUSED(class_p);
  35              		.loc 1 538 5 view .LVU1
 539:Drivers/lvgl/src/extra/widgets/menu/lv_menu.c ****     LV_TRACE_OBJ_CREATE("begin");
  36              		.loc 1 539 33 view .LVU2
 540:Drivers/lvgl/src/extra/widgets/menu/lv_menu.c **** 
 541:Drivers/lvgl/src/extra/widgets/menu/lv_menu.c ****     lv_menu_t * menu = (lv_menu_t *)obj;
  37              		.loc 1 541 5 view .LVU3
 542:Drivers/lvgl/src/extra/widgets/menu/lv_menu.c ****     lv_ll_t * history_ll = &(menu->history_ll);
  38              		.loc 1 542 5 view .LVU4
 543:Drivers/lvgl/src/extra/widgets/menu/lv_menu.c **** 
 544:Drivers/lvgl/src/extra/widgets/menu/lv_menu.c ****     _lv_ll_clear(history_ll);
  39              		.loc 1 544 5 view .LVU5
  40 0000 01F15400 		add	r0, r1, #84
  41              	.LVL1:
  42              		.loc 1 544 5 is_stmt 0 view .LVU6
  43 0004 FFF7FEBF 		b	_lv_ll_clear
  44              	.LVL2:
  45              		.loc 1 544 5 view .LVU7
  46              		.cfi_endproc
  47              	.LFE186:
  49              		.section	.text.lv_menu_section_constructor,"ax",%progbits
  50              		.align	1
  51              		.p2align 2,,3
  52              		.syntax unified
  53              		.thumb
  54              		.thumb_func
  56              	lv_menu_section_constructor:
  57              	.LVL3:
  58              	.LFB190:
 545:Drivers/lvgl/src/extra/widgets/menu/lv_menu.c **** 
 546:Drivers/lvgl/src/extra/widgets/menu/lv_menu.c ****     LV_TRACE_OBJ_CREATE("finished");
 547:Drivers/lvgl/src/extra/widgets/menu/lv_menu.c **** }
 548:Drivers/lvgl/src/extra/widgets/menu/lv_menu.c **** 
 549:Drivers/lvgl/src/extra/widgets/menu/lv_menu.c **** static void lv_menu_page_constructor(const lv_obj_class_t * class_p, lv_obj_t * obj)
 550:Drivers/lvgl/src/extra/widgets/menu/lv_menu.c **** {
 551:Drivers/lvgl/src/extra/widgets/menu/lv_menu.c ****     LV_UNUSED(class_p);
 552:Drivers/lvgl/src/extra/widgets/menu/lv_menu.c **** 
 553:Drivers/lvgl/src/extra/widgets/menu/lv_menu.c ****     lv_menu_t * menu = (lv_menu_t *)lv_obj_get_parent(obj);
 554:Drivers/lvgl/src/extra/widgets/menu/lv_menu.c **** 
 555:Drivers/lvgl/src/extra/widgets/menu/lv_menu.c ****     lv_obj_set_parent(obj, ((lv_menu_t *)menu)->storage);
 556:Drivers/lvgl/src/extra/widgets/menu/lv_menu.c ****     lv_obj_set_flex_flow(obj, LV_FLEX_FLOW_COLUMN);
 557:Drivers/lvgl/src/extra/widgets/menu/lv_menu.c ****     lv_obj_set_flex_align(obj, LV_FLEX_ALIGN_START, LV_FLEX_ALIGN_CENTER, LV_FLEX_ALIGN_CENTER);
 558:Drivers/lvgl/src/extra/widgets/menu/lv_menu.c ****     lv_obj_add_flag(obj, LV_OBJ_FLAG_EVENT_BUBBLE);
 559:Drivers/lvgl/src/extra/widgets/menu/lv_menu.c **** }
 560:Drivers/lvgl/src/extra/widgets/menu/lv_menu.c **** 
 561:Drivers/lvgl/src/extra/widgets/menu/lv_menu.c **** static void lv_menu_page_destructor(const lv_obj_class_t * class_p, lv_obj_t * obj)
 562:Drivers/lvgl/src/extra/widgets/menu/lv_menu.c **** {
 563:Drivers/lvgl/src/extra/widgets/menu/lv_menu.c ****     LV_UNUSED(class_p);
 564:Drivers/lvgl/src/extra/widgets/menu/lv_menu.c **** 
 565:Drivers/lvgl/src/extra/widgets/menu/lv_menu.c ****     lv_menu_page_t * page = (lv_menu_page_t *)obj;
 566:Drivers/lvgl/src/extra/widgets/menu/lv_menu.c **** 
 567:Drivers/lvgl/src/extra/widgets/menu/lv_menu.c ****     if(page->title != NULL) {
 568:Drivers/lvgl/src/extra/widgets/menu/lv_menu.c ****         lv_mem_free(page->title);
 569:Drivers/lvgl/src/extra/widgets/menu/lv_menu.c ****         page->title = NULL;
 570:Drivers/lvgl/src/extra/widgets/menu/lv_menu.c ****     }
 571:Drivers/lvgl/src/extra/widgets/menu/lv_menu.c **** }
 572:Drivers/lvgl/src/extra/widgets/menu/lv_menu.c **** 
ARM GAS  /var/folders/0z/tsy30v1j4xl4_7kw94k978ww0000gn/T//ccS6OLnK.s 			page 12


 573:Drivers/lvgl/src/extra/widgets/menu/lv_menu.c **** static void lv_menu_cont_constructor(const lv_obj_class_t * class_p, lv_obj_t * obj)
 574:Drivers/lvgl/src/extra/widgets/menu/lv_menu.c **** {
 575:Drivers/lvgl/src/extra/widgets/menu/lv_menu.c ****     LV_UNUSED(class_p);
 576:Drivers/lvgl/src/extra/widgets/menu/lv_menu.c ****     lv_obj_set_flex_flow(obj, LV_FLEX_FLOW_ROW);
 577:Drivers/lvgl/src/extra/widgets/menu/lv_menu.c ****     lv_obj_set_flex_align(obj, LV_FLEX_ALIGN_START, LV_FLEX_ALIGN_CENTER, LV_FLEX_ALIGN_CENTER);
 578:Drivers/lvgl/src/extra/widgets/menu/lv_menu.c ****     lv_obj_clear_flag(obj, LV_OBJ_FLAG_CLICKABLE);
 579:Drivers/lvgl/src/extra/widgets/menu/lv_menu.c **** }
 580:Drivers/lvgl/src/extra/widgets/menu/lv_menu.c **** 
 581:Drivers/lvgl/src/extra/widgets/menu/lv_menu.c **** static void lv_menu_section_constructor(const lv_obj_class_t * class_p, lv_obj_t * obj)
 582:Drivers/lvgl/src/extra/widgets/menu/lv_menu.c **** {
  59              		.loc 1 582 1 is_stmt 1 view -0
  60              		.cfi_startproc
  61              		@ args = 0, pretend = 0, frame = 8
  62              		@ frame_needed = 0, uses_anonymous_args = 0
 583:Drivers/lvgl/src/extra/widgets/menu/lv_menu.c ****     LV_UNUSED(class_p);
  63              		.loc 1 583 5 view .LVU9
 584:Drivers/lvgl/src/extra/widgets/menu/lv_menu.c ****     lv_obj_set_flex_flow(obj, LV_FLEX_FLOW_COLUMN);
  64              		.loc 1 584 5 view .LVU10
 582:Drivers/lvgl/src/extra/widgets/menu/lv_menu.c ****     LV_UNUSED(class_p);
  65              		.loc 1 582 1 is_stmt 0 view .LVU11
  66 0000 00B5     		push	{lr}
  67              		.cfi_def_cfa_offset 4
  68              		.cfi_offset 14, -4
  69 0002 83B0     		sub	sp, sp, #12
  70              		.cfi_def_cfa_offset 16
 582:Drivers/lvgl/src/extra/widgets/menu/lv_menu.c ****     LV_UNUSED(class_p);
  71              		.loc 1 582 1 view .LVU12
  72 0004 0846     		mov	r0, r1
  73              	.LVL4:
  74              		.loc 1 584 5 view .LVU13
  75 0006 0121     		movs	r1, #1
  76              	.LVL5:
  77              		.loc 1 584 5 view .LVU14
  78 0008 0190     		str	r0, [sp, #4]
  79 000a FFF7FEFF 		bl	lv_obj_set_flex_flow
  80              	.LVL6:
 585:Drivers/lvgl/src/extra/widgets/menu/lv_menu.c ****     lv_obj_clear_flag(obj, LV_OBJ_FLAG_CLICKABLE);
  81              		.loc 1 585 5 is_stmt 1 view .LVU15
  82 000e 0198     		ldr	r0, [sp, #4]
  83 0010 0221     		movs	r1, #2
 586:Drivers/lvgl/src/extra/widgets/menu/lv_menu.c **** }
  84              		.loc 1 586 1 is_stmt 0 view .LVU16
  85 0012 03B0     		add	sp, sp, #12
  86              		.cfi_def_cfa_offset 4
  87              		@ sp needed
  88 0014 5DF804EB 		ldr	lr, [sp], #4
  89              		.cfi_restore 14
  90              		.cfi_def_cfa_offset 0
  91              	.LVL7:
 585:Drivers/lvgl/src/extra/widgets/menu/lv_menu.c ****     lv_obj_clear_flag(obj, LV_OBJ_FLAG_CLICKABLE);
  92              		.loc 1 585 5 view .LVU17
  93 0018 FFF7FEBF 		b	lv_obj_clear_flag
  94              	.LVL8:
  95              		.cfi_endproc
  96              	.LFE190:
  98              		.section	.text.lv_menu_cont_constructor,"ax",%progbits
  99              		.align	1
ARM GAS  /var/folders/0z/tsy30v1j4xl4_7kw94k978ww0000gn/T//ccS6OLnK.s 			page 13


 100              		.p2align 2,,3
 101              		.syntax unified
 102              		.thumb
 103              		.thumb_func
 105              	lv_menu_cont_constructor:
 106              	.LVL9:
 107              	.LFB189:
 574:Drivers/lvgl/src/extra/widgets/menu/lv_menu.c ****     LV_UNUSED(class_p);
 108              		.loc 1 574 1 is_stmt 1 view -0
 109              		.cfi_startproc
 110              		@ args = 0, pretend = 0, frame = 8
 111              		@ frame_needed = 0, uses_anonymous_args = 0
 575:Drivers/lvgl/src/extra/widgets/menu/lv_menu.c ****     lv_obj_set_flex_flow(obj, LV_FLEX_FLOW_ROW);
 112              		.loc 1 575 5 view .LVU19
 576:Drivers/lvgl/src/extra/widgets/menu/lv_menu.c ****     lv_obj_set_flex_align(obj, LV_FLEX_ALIGN_START, LV_FLEX_ALIGN_CENTER, LV_FLEX_ALIGN_CENTER);
 113              		.loc 1 576 5 view .LVU20
 574:Drivers/lvgl/src/extra/widgets/menu/lv_menu.c ****     LV_UNUSED(class_p);
 114              		.loc 1 574 1 is_stmt 0 view .LVU21
 115 0000 00B5     		push	{lr}
 116              		.cfi_def_cfa_offset 4
 117              		.cfi_offset 14, -4
 118 0002 83B0     		sub	sp, sp, #12
 119              		.cfi_def_cfa_offset 16
 574:Drivers/lvgl/src/extra/widgets/menu/lv_menu.c ****     LV_UNUSED(class_p);
 120              		.loc 1 574 1 view .LVU22
 121 0004 0846     		mov	r0, r1
 122              	.LVL10:
 576:Drivers/lvgl/src/extra/widgets/menu/lv_menu.c ****     lv_obj_set_flex_align(obj, LV_FLEX_ALIGN_START, LV_FLEX_ALIGN_CENTER, LV_FLEX_ALIGN_CENTER);
 123              		.loc 1 576 5 view .LVU23
 124 0006 0021     		movs	r1, #0
 125              	.LVL11:
 576:Drivers/lvgl/src/extra/widgets/menu/lv_menu.c ****     lv_obj_set_flex_align(obj, LV_FLEX_ALIGN_START, LV_FLEX_ALIGN_CENTER, LV_FLEX_ALIGN_CENTER);
 126              		.loc 1 576 5 view .LVU24
 127 0008 0190     		str	r0, [sp, #4]
 128 000a FFF7FEFF 		bl	lv_obj_set_flex_flow
 129              	.LVL12:
 577:Drivers/lvgl/src/extra/widgets/menu/lv_menu.c ****     lv_obj_clear_flag(obj, LV_OBJ_FLAG_CLICKABLE);
 130              		.loc 1 577 5 is_stmt 1 view .LVU25
 131 000e 0223     		movs	r3, #2
 132 0010 0198     		ldr	r0, [sp, #4]
 133 0012 0021     		movs	r1, #0
 134 0014 1A46     		mov	r2, r3
 135 0016 FFF7FEFF 		bl	lv_obj_set_flex_align
 136              	.LVL13:
 578:Drivers/lvgl/src/extra/widgets/menu/lv_menu.c **** }
 137              		.loc 1 578 5 view .LVU26
 138 001a 0198     		ldr	r0, [sp, #4]
 139 001c 0221     		movs	r1, #2
 579:Drivers/lvgl/src/extra/widgets/menu/lv_menu.c **** 
 140              		.loc 1 579 1 is_stmt 0 view .LVU27
 141 001e 03B0     		add	sp, sp, #12
 142              		.cfi_def_cfa_offset 4
 143              		@ sp needed
 144 0020 5DF804EB 		ldr	lr, [sp], #4
 145              		.cfi_restore 14
 146              		.cfi_def_cfa_offset 0
 147              	.LVL14:
ARM GAS  /var/folders/0z/tsy30v1j4xl4_7kw94k978ww0000gn/T//ccS6OLnK.s 			page 14


 578:Drivers/lvgl/src/extra/widgets/menu/lv_menu.c **** }
 148              		.loc 1 578 5 view .LVU28
 149 0024 FFF7FEBF 		b	lv_obj_clear_flag
 150              	.LVL15:
 151              		.cfi_endproc
 152              	.LFE189:
 154              		.section	.rodata.lv_menu_constructor.str1.4,"aMS",%progbits,1
 155              		.align	2
 156              	.LC0:
 157 0000 EF819300 		.ascii	"\357\201\223\000"
 158              		.section	.text.lv_menu_constructor,"ax",%progbits
 159              		.align	1
 160              		.p2align 2,,3
 161              		.syntax unified
 162              		.thumb
 163              		.thumb_func
 165              	lv_menu_constructor:
 166              	.LVL16:
 167              	.LFB185:
 470:Drivers/lvgl/src/extra/widgets/menu/lv_menu.c ****     LV_UNUSED(class_p);
 168              		.loc 1 470 1 is_stmt 1 view -0
 169              		.cfi_startproc
 170              		@ args = 0, pretend = 0, frame = 0
 171              		@ frame_needed = 0, uses_anonymous_args = 0
 471:Drivers/lvgl/src/extra/widgets/menu/lv_menu.c ****     LV_TRACE_OBJ_CREATE("begin");
 172              		.loc 1 471 5 view .LVU30
 472:Drivers/lvgl/src/extra/widgets/menu/lv_menu.c **** 
 173              		.loc 1 472 33 view .LVU31
 474:Drivers/lvgl/src/extra/widgets/menu/lv_menu.c ****     lv_obj_set_flex_flow(obj, LV_FLEX_FLOW_ROW);
 174              		.loc 1 474 5 view .LVU32
 175 0000 474B     		ldr	r3, .L9
 470:Drivers/lvgl/src/extra/widgets/menu/lv_menu.c ****     LV_UNUSED(class_p);
 176              		.loc 1 470 1 is_stmt 0 view .LVU33
 177 0002 70B5     		push	{r4, r5, r6, lr}
 178              		.cfi_def_cfa_offset 16
 179              		.cfi_offset 4, -16
 180              		.cfi_offset 5, -12
 181              		.cfi_offset 6, -8
 182              		.cfi_offset 14, -4
 470:Drivers/lvgl/src/extra/widgets/menu/lv_menu.c ****     LV_UNUSED(class_p);
 183              		.loc 1 470 1 view .LVU34
 184 0004 0C46     		mov	r4, r1
 474:Drivers/lvgl/src/extra/widgets/menu/lv_menu.c ****     lv_obj_set_flex_flow(obj, LV_FLEX_FLOW_ROW);
 185              		.loc 1 474 5 view .LVU35
 186 0006 2046     		mov	r0, r4
 187              	.LVL17:
 474:Drivers/lvgl/src/extra/widgets/menu/lv_menu.c ****     lv_obj_set_flex_flow(obj, LV_FLEX_FLOW_ROW);
 188              		.loc 1 474 5 view .LVU36
 189 0008 1988     		ldrh	r1, [r3]
 190              	.LVL18:
 474:Drivers/lvgl/src/extra/widgets/menu/lv_menu.c ****     lv_obj_set_flex_flow(obj, LV_FLEX_FLOW_ROW);
 191              		.loc 1 474 5 view .LVU37
 192 000a FFF7FEFF 		bl	lv_obj_set_layout
 193              	.LVL19:
 475:Drivers/lvgl/src/extra/widgets/menu/lv_menu.c **** 
 194              		.loc 1 475 5 is_stmt 1 view .LVU38
 195 000e 2046     		mov	r0, r4
ARM GAS  /var/folders/0z/tsy30v1j4xl4_7kw94k978ww0000gn/T//ccS6OLnK.s 			page 15


 196 0010 0021     		movs	r1, #0
 197 0012 FFF7FEFF 		bl	lv_obj_set_flex_flow
 198              	.LVL20:
 477:Drivers/lvgl/src/extra/widgets/menu/lv_menu.c **** 
 199              		.loc 1 477 5 view .LVU39
 479:Drivers/lvgl/src/extra/widgets/menu/lv_menu.c ****     menu->mode_root_back_btn = LV_MENU_ROOT_BACK_BTN_DISABLED;
 200              		.loc 1 479 5 view .LVU40
 480:Drivers/lvgl/src/extra/widgets/menu/lv_menu.c ****     menu->cur_depth = 0;
 201              		.loc 1 480 5 view .LVU41
 481:Drivers/lvgl/src/extra/widgets/menu/lv_menu.c ****     menu->prev_depth = 0;
 202              		.loc 1 481 5 view .LVU42
 482:Drivers/lvgl/src/extra/widgets/menu/lv_menu.c ****     menu->sidebar_generated = false;
 203              		.loc 1 482 5 view .LVU43
 483:Drivers/lvgl/src/extra/widgets/menu/lv_menu.c **** 
 204              		.loc 1 483 5 view .LVU44
 483:Drivers/lvgl/src/extra/widgets/menu/lv_menu.c **** 
 205              		.loc 1 483 29 is_stmt 0 view .LVU45
 206 0016 94F86230 		ldrb	r3, [r4, #98]	@ zero_extendqisi2
 481:Drivers/lvgl/src/extra/widgets/menu/lv_menu.c ****     menu->prev_depth = 0;
 207              		.loc 1 481 21 view .LVU46
 208 001a 0025     		movs	r5, #0
 483:Drivers/lvgl/src/extra/widgets/menu/lv_menu.c **** 
 209              		.loc 1 483 29 view .LVU47
 210 001c 23F00F03 		bic	r3, r3, #15
 211 0020 84F86230 		strb	r3, [r4, #98]
 485:Drivers/lvgl/src/extra/widgets/menu/lv_menu.c **** 
 212              		.loc 1 485 5 is_stmt 1 view .LVU48
 213 0024 0421     		movs	r1, #4
 214 0026 04F15400 		add	r0, r4, #84
 481:Drivers/lvgl/src/extra/widgets/menu/lv_menu.c ****     menu->prev_depth = 0;
 215              		.loc 1 481 21 is_stmt 0 view .LVU49
 216 002a A4F86050 		strh	r5, [r4, #96]	@ movhi
 485:Drivers/lvgl/src/extra/widgets/menu/lv_menu.c **** 
 217              		.loc 1 485 5 view .LVU50
 218 002e FFF7FEFF 		bl	_lv_ll_init
 219              	.LVL21:
 487:Drivers/lvgl/src/extra/widgets/menu/lv_menu.c ****     lv_obj_add_flag(menu->storage, LV_OBJ_FLAG_HIDDEN);
 220              		.loc 1 487 5 is_stmt 1 view .LVU51
 487:Drivers/lvgl/src/extra/widgets/menu/lv_menu.c ****     lv_obj_add_flag(menu->storage, LV_OBJ_FLAG_HIDDEN);
 221              		.loc 1 487 21 is_stmt 0 view .LVU52
 222 0032 2046     		mov	r0, r4
 223 0034 FFF7FEFF 		bl	lv_obj_create
 224              	.LVL22:
 488:Drivers/lvgl/src/extra/widgets/menu/lv_menu.c **** 
 225              		.loc 1 488 5 view .LVU53
 226 0038 0121     		movs	r1, #1
 487:Drivers/lvgl/src/extra/widgets/menu/lv_menu.c ****     lv_obj_add_flag(menu->storage, LV_OBJ_FLAG_HIDDEN);
 227              		.loc 1 487 19 view .LVU54
 228 003a 6062     		str	r0, [r4, #36]
 488:Drivers/lvgl/src/extra/widgets/menu/lv_menu.c **** 
 229              		.loc 1 488 5 is_stmt 1 view .LVU55
 230 003c FFF7FEFF 		bl	lv_obj_add_flag
 231              	.LVL23:
 490:Drivers/lvgl/src/extra/widgets/menu/lv_menu.c ****     menu->sidebar_header = NULL;
 232              		.loc 1 490 5 view .LVU56
 496:Drivers/lvgl/src/extra/widgets/menu/lv_menu.c ****     lv_obj_class_init_obj(main_cont);
 233              		.loc 1 496 28 is_stmt 0 view .LVU57
ARM GAS  /var/folders/0z/tsy30v1j4xl4_7kw94k978ww0000gn/T//ccS6OLnK.s 			page 16


 234 0040 2146     		mov	r1, r4
 492:Drivers/lvgl/src/extra/widgets/menu/lv_menu.c ****     menu->sidebar_header_title = NULL;
 235              		.loc 1 492 35 view .LVU58
 236 0042 C4E91155 		strd	r5, r5, [r4, #68]
 490:Drivers/lvgl/src/extra/widgets/menu/lv_menu.c ****     menu->sidebar_header = NULL;
 237              		.loc 1 490 19 view .LVU59
 238 0046 E563     		str	r5, [r4, #60]
 491:Drivers/lvgl/src/extra/widgets/menu/lv_menu.c ****     menu->sidebar_header_back_btn = NULL;
 239              		.loc 1 491 5 is_stmt 1 view .LVU60
 493:Drivers/lvgl/src/extra/widgets/menu/lv_menu.c ****     menu->sidebar_page = NULL;
 240              		.loc 1 493 5 view .LVU61
 493:Drivers/lvgl/src/extra/widgets/menu/lv_menu.c ****     menu->sidebar_page = NULL;
 241              		.loc 1 493 32 is_stmt 0 view .LVU62
 242 0048 E564     		str	r5, [r4, #76]
 494:Drivers/lvgl/src/extra/widgets/menu/lv_menu.c **** 
 243              		.loc 1 494 5 is_stmt 1 view .LVU63
 494:Drivers/lvgl/src/extra/widgets/menu/lv_menu.c **** 
 244              		.loc 1 494 24 is_stmt 0 view .LVU64
 245 004a 2564     		str	r5, [r4, #64]
 496:Drivers/lvgl/src/extra/widgets/menu/lv_menu.c ****     lv_obj_class_init_obj(main_cont);
 246              		.loc 1 496 5 is_stmt 1 view .LVU65
 496:Drivers/lvgl/src/extra/widgets/menu/lv_menu.c ****     lv_obj_class_init_obj(main_cont);
 247              		.loc 1 496 28 is_stmt 0 view .LVU66
 248 004c 3548     		ldr	r0, .L9+4
 249 004e FFF7FEFF 		bl	lv_obj_class_create_obj
 250              	.LVL24:
 251 0052 0646     		mov	r6, r0
 252              	.LVL25:
 497:Drivers/lvgl/src/extra/widgets/menu/lv_menu.c ****     lv_obj_set_height(main_cont, LV_PCT(100));
 253              		.loc 1 497 5 is_stmt 1 view .LVU67
 254 0054 FFF7FEFF 		bl	lv_obj_class_init_obj
 255              	.LVL26:
 498:Drivers/lvgl/src/extra/widgets/menu/lv_menu.c ****     lv_obj_set_flex_grow(main_cont, 1);
 256              		.loc 1 498 5 view .LVU68
 257 0058 3046     		mov	r0, r6
 258 005a 42F26401 		movw	r1, #8292
 259 005e FFF7FEFF 		bl	lv_obj_set_height
 260              	.LVL27:
 499:Drivers/lvgl/src/extra/widgets/menu/lv_menu.c ****     lv_obj_set_flex_flow(main_cont, LV_FLEX_FLOW_COLUMN);
 261              		.loc 1 499 5 view .LVU69
 262 0062 3046     		mov	r0, r6
 263 0064 0121     		movs	r1, #1
 264 0066 FFF7FEFF 		bl	lv_obj_set_flex_grow
 265              	.LVL28:
 500:Drivers/lvgl/src/extra/widgets/menu/lv_menu.c ****     lv_obj_add_flag(main_cont, LV_OBJ_FLAG_EVENT_BUBBLE);
 266              		.loc 1 500 5 view .LVU70
 267 006a 3046     		mov	r0, r6
 268 006c 0121     		movs	r1, #1
 269 006e FFF7FEFF 		bl	lv_obj_set_flex_flow
 270              	.LVL29:
 501:Drivers/lvgl/src/extra/widgets/menu/lv_menu.c ****     lv_obj_clear_flag(main_cont, LV_OBJ_FLAG_CLICKABLE);
 271              		.loc 1 501 5 view .LVU71
 272 0072 3046     		mov	r0, r6
 273 0074 4FF48041 		mov	r1, #16384
 274 0078 FFF7FEFF 		bl	lv_obj_add_flag
 275              	.LVL30:
 502:Drivers/lvgl/src/extra/widgets/menu/lv_menu.c ****     menu->main = main_cont;
ARM GAS  /var/folders/0z/tsy30v1j4xl4_7kw94k978ww0000gn/T//ccS6OLnK.s 			page 17


 276              		.loc 1 502 5 view .LVU72
 277 007c 3046     		mov	r0, r6
 278 007e 0221     		movs	r1, #2
 279 0080 FFF7FEFF 		bl	lv_obj_clear_flag
 280              	.LVL31:
 503:Drivers/lvgl/src/extra/widgets/menu/lv_menu.c **** 
 281              		.loc 1 503 5 view .LVU73
 505:Drivers/lvgl/src/extra/widgets/menu/lv_menu.c ****     lv_obj_class_init_obj(main_header);
 282              		.loc 1 505 30 is_stmt 0 view .LVU74
 283 0084 3146     		mov	r1, r6
 503:Drivers/lvgl/src/extra/widgets/menu/lv_menu.c **** 
 284              		.loc 1 503 16 view .LVU75
 285 0086 A662     		str	r6, [r4, #40]
 505:Drivers/lvgl/src/extra/widgets/menu/lv_menu.c ****     lv_obj_class_init_obj(main_header);
 286              		.loc 1 505 5 is_stmt 1 view .LVU76
 505:Drivers/lvgl/src/extra/widgets/menu/lv_menu.c ****     lv_obj_class_init_obj(main_header);
 287              		.loc 1 505 30 is_stmt 0 view .LVU77
 288 0088 2748     		ldr	r0, .L9+8
 289 008a FFF7FEFF 		bl	lv_obj_class_create_obj
 290              	.LVL32:
 291 008e 0646     		mov	r6, r0
 292              	.LVL33:
 506:Drivers/lvgl/src/extra/widgets/menu/lv_menu.c ****     lv_obj_set_size(main_header, LV_PCT(100), LV_SIZE_CONTENT);
 293              		.loc 1 506 5 is_stmt 1 view .LVU78
 294 0090 FFF7FEFF 		bl	lv_obj_class_init_obj
 295              	.LVL34:
 507:Drivers/lvgl/src/extra/widgets/menu/lv_menu.c ****     lv_obj_set_flex_flow(main_header, LV_FLEX_FLOW_ROW);
 296              		.loc 1 507 5 view .LVU79
 297 0094 42F2D172 		movw	r2, #10193
 298 0098 3046     		mov	r0, r6
 299 009a 42F26401 		movw	r1, #8292
 300 009e FFF7FEFF 		bl	lv_obj_set_size
 301              	.LVL35:
 508:Drivers/lvgl/src/extra/widgets/menu/lv_menu.c ****     lv_obj_set_flex_align(main_header, LV_FLEX_ALIGN_START, LV_FLEX_ALIGN_CENTER, LV_FLEX_ALIGN_CEN
 302              		.loc 1 508 5 view .LVU80
 303 00a2 2946     		mov	r1, r5
 304 00a4 3046     		mov	r0, r6
 305 00a6 FFF7FEFF 		bl	lv_obj_set_flex_flow
 306              	.LVL36:
 509:Drivers/lvgl/src/extra/widgets/menu/lv_menu.c ****     lv_obj_clear_flag(main_header, LV_OBJ_FLAG_CLICKABLE);
 307              		.loc 1 509 5 view .LVU81
 308 00aa 0223     		movs	r3, #2
 309 00ac 1A46     		mov	r2, r3
 310 00ae 2946     		mov	r1, r5
 311 00b0 3046     		mov	r0, r6
 312 00b2 FFF7FEFF 		bl	lv_obj_set_flex_align
 313              	.LVL37:
 510:Drivers/lvgl/src/extra/widgets/menu/lv_menu.c ****     lv_obj_add_flag(main_header, LV_OBJ_FLAG_EVENT_BUBBLE);
 314              		.loc 1 510 5 view .LVU82
 315 00b6 3046     		mov	r0, r6
 316 00b8 0221     		movs	r1, #2
 317 00ba FFF7FEFF 		bl	lv_obj_clear_flag
 318              	.LVL38:
 511:Drivers/lvgl/src/extra/widgets/menu/lv_menu.c ****     menu->main_header = main_header;
 319              		.loc 1 511 5 view .LVU83
 320 00be 4FF48041 		mov	r1, #16384
 321 00c2 3046     		mov	r0, r6
ARM GAS  /var/folders/0z/tsy30v1j4xl4_7kw94k978ww0000gn/T//ccS6OLnK.s 			page 18


 322 00c4 FFF7FEFF 		bl	lv_obj_add_flag
 323              	.LVL39:
 512:Drivers/lvgl/src/extra/widgets/menu/lv_menu.c **** 
 324              		.loc 1 512 5 view .LVU84
 512:Drivers/lvgl/src/extra/widgets/menu/lv_menu.c **** 
 325              		.loc 1 512 23 is_stmt 0 view .LVU85
 326 00c8 2663     		str	r6, [r4, #48]
 515:Drivers/lvgl/src/extra/widgets/menu/lv_menu.c ****     lv_obj_add_event_cb(main_header_back_btn, lv_menu_back_event_cb, LV_EVENT_CLICKED, menu);
 327              		.loc 1 515 5 is_stmt 1 view .LVU86
 515:Drivers/lvgl/src/extra/widgets/menu/lv_menu.c ****     lv_obj_add_event_cb(main_header_back_btn, lv_menu_back_event_cb, LV_EVENT_CLICKED, menu);
 328              		.loc 1 515 39 is_stmt 0 view .LVU87
 329 00ca 3046     		mov	r0, r6
 330 00cc FFF7FEFF 		bl	lv_btn_create
 331              	.LVL40:
 516:Drivers/lvgl/src/extra/widgets/menu/lv_menu.c ****     lv_obj_add_flag(main_header_back_btn, LV_OBJ_FLAG_EVENT_BUBBLE);
 332              		.loc 1 516 5 view .LVU88
 333 00d0 2346     		mov	r3, r4
 334 00d2 0722     		movs	r2, #7
 515:Drivers/lvgl/src/extra/widgets/menu/lv_menu.c ****     lv_obj_add_event_cb(main_header_back_btn, lv_menu_back_event_cb, LV_EVENT_CLICKED, menu);
 335              		.loc 1 515 39 view .LVU89
 336 00d4 0646     		mov	r6, r0
 337              	.LVL41:
 516:Drivers/lvgl/src/extra/widgets/menu/lv_menu.c ****     lv_obj_add_flag(main_header_back_btn, LV_OBJ_FLAG_EVENT_BUBBLE);
 338              		.loc 1 516 5 is_stmt 1 view .LVU90
 339 00d6 1549     		ldr	r1, .L9+12
 340 00d8 FFF7FEFF 		bl	lv_obj_add_event_cb
 341              	.LVL42:
 517:Drivers/lvgl/src/extra/widgets/menu/lv_menu.c ****     lv_obj_set_flex_flow(main_header_back_btn, LV_FLEX_FLOW_ROW);
 342              		.loc 1 517 5 view .LVU91
 343 00dc 3046     		mov	r0, r6
 344 00de 4FF48041 		mov	r1, #16384
 345 00e2 FFF7FEFF 		bl	lv_obj_add_flag
 346              	.LVL43:
 518:Drivers/lvgl/src/extra/widgets/menu/lv_menu.c ****     menu->main_header_back_btn = main_header_back_btn;
 347              		.loc 1 518 5 view .LVU92
 348 00e6 2946     		mov	r1, r5
 349 00e8 3046     		mov	r0, r6
 350 00ea FFF7FEFF 		bl	lv_obj_set_flex_flow
 351              	.LVL44:
 519:Drivers/lvgl/src/extra/widgets/menu/lv_menu.c **** 
 352              		.loc 1 519 5 view .LVU93
 519:Drivers/lvgl/src/extra/widgets/menu/lv_menu.c **** 
 353              		.loc 1 519 32 is_stmt 0 view .LVU94
 354 00ee 6663     		str	r6, [r4, #52]
 521:Drivers/lvgl/src/extra/widgets/menu/lv_menu.c ****     lv_img_set_src(main_header_back_icon, LV_SYMBOL_LEFT);
 355              		.loc 1 521 5 is_stmt 1 view .LVU95
 521:Drivers/lvgl/src/extra/widgets/menu/lv_menu.c ****     lv_img_set_src(main_header_back_icon, LV_SYMBOL_LEFT);
 356              		.loc 1 521 40 is_stmt 0 view .LVU96
 357 00f0 3046     		mov	r0, r6
 358 00f2 FFF7FEFF 		bl	lv_img_create
 359              	.LVL45:
 522:Drivers/lvgl/src/extra/widgets/menu/lv_menu.c **** 
 360              		.loc 1 522 5 is_stmt 1 view .LVU97
 361 00f6 0E49     		ldr	r1, .L9+16
 362 00f8 FFF7FEFF 		bl	lv_img_set_src
 363              	.LVL46:
 524:Drivers/lvgl/src/extra/widgets/menu/lv_menu.c ****     lv_obj_add_flag(main_header_title, LV_OBJ_FLAG_HIDDEN);
ARM GAS  /var/folders/0z/tsy30v1j4xl4_7kw94k978ww0000gn/T//ccS6OLnK.s 			page 19


 364              		.loc 1 524 5 view .LVU98
 524:Drivers/lvgl/src/extra/widgets/menu/lv_menu.c ****     lv_obj_add_flag(main_header_title, LV_OBJ_FLAG_HIDDEN);
 365              		.loc 1 524 36 is_stmt 0 view .LVU99
 366 00fc 206B     		ldr	r0, [r4, #48]
 367 00fe FFF7FEFF 		bl	lv_label_create
 368              	.LVL47:
 525:Drivers/lvgl/src/extra/widgets/menu/lv_menu.c ****     menu->main_header_title = main_header_title;
 369              		.loc 1 525 5 view .LVU100
 370 0102 0121     		movs	r1, #1
 524:Drivers/lvgl/src/extra/widgets/menu/lv_menu.c ****     lv_obj_add_flag(main_header_title, LV_OBJ_FLAG_HIDDEN);
 371              		.loc 1 524 36 view .LVU101
 372 0104 0646     		mov	r6, r0
 373              	.LVL48:
 525:Drivers/lvgl/src/extra/widgets/menu/lv_menu.c ****     menu->main_header_title = main_header_title;
 374              		.loc 1 525 5 is_stmt 1 view .LVU102
 375 0106 FFF7FEFF 		bl	lv_obj_add_flag
 376              	.LVL49:
 526:Drivers/lvgl/src/extra/widgets/menu/lv_menu.c **** 
 377              		.loc 1 526 5 view .LVU103
 526:Drivers/lvgl/src/extra/widgets/menu/lv_menu.c **** 
 378              		.loc 1 526 29 is_stmt 0 view .LVU104
 379 010a A663     		str	r6, [r4, #56]
 528:Drivers/lvgl/src/extra/widgets/menu/lv_menu.c ****     menu->selected_tab = NULL;
 380              		.loc 1 528 5 is_stmt 1 view .LVU105
 528:Drivers/lvgl/src/extra/widgets/menu/lv_menu.c ****     menu->selected_tab = NULL;
 381              		.loc 1 528 21 is_stmt 0 view .LVU106
 382 010c E562     		str	r5, [r4, #44]
 529:Drivers/lvgl/src/extra/widgets/menu/lv_menu.c **** 
 383              		.loc 1 529 5 is_stmt 1 view .LVU107
 529:Drivers/lvgl/src/extra/widgets/menu/lv_menu.c **** 
 384              		.loc 1 529 24 is_stmt 0 view .LVU108
 385 010e 2565     		str	r5, [r4, #80]
 531:Drivers/lvgl/src/extra/widgets/menu/lv_menu.c **** 
 386              		.loc 1 531 5 is_stmt 1 view .LVU109
 387 0110 2346     		mov	r3, r4
 388 0112 2046     		mov	r0, r4
 389 0114 0749     		ldr	r1, .L9+20
 534:Drivers/lvgl/src/extra/widgets/menu/lv_menu.c **** 
 390              		.loc 1 534 1 is_stmt 0 view .LVU110
 391 0116 BDE87040 		pop	{r4, r5, r6, lr}
 392              		.cfi_restore 14
 393              		.cfi_restore 6
 394              		.cfi_restore 5
 395              		.cfi_restore 4
 396              		.cfi_def_cfa_offset 0
 397              	.LVL50:
 531:Drivers/lvgl/src/extra/widgets/menu/lv_menu.c **** 
 398              		.loc 1 531 5 view .LVU111
 399 011a 1C22     		movs	r2, #28
 400 011c FFF7FEBF 		b	lv_obj_add_event_cb
 401              	.LVL51:
 402              	.L10:
 531:Drivers/lvgl/src/extra/widgets/menu/lv_menu.c **** 
 403              		.loc 1 531 5 view .LVU112
 404              		.align	2
 405              	.L9:
 406 0120 00000000 		.word	LV_LAYOUT_FLEX
ARM GAS  /var/folders/0z/tsy30v1j4xl4_7kw94k978ww0000gn/T//ccS6OLnK.s 			page 20


 407 0124 00000000 		.word	.LANCHOR0
 408 0128 00000000 		.word	.LANCHOR1
 409 012c 00000000 		.word	lv_menu_back_event_cb
 410 0130 00000000 		.word	.LC0
 411 0134 00000000 		.word	lv_menu_value_changed_event_cb
 412              		.cfi_endproc
 413              	.LFE185:
 415              		.section	.text.lv_menu_value_changed_event_cb,"ax",%progbits
 416              		.align	1
 417              		.p2align 2,,3
 418              		.syntax unified
 419              		.thumb
 420              		.thumb_func
 422              	lv_menu_value_changed_event_cb:
 423              	.LVL52:
 424              	.LFB196:
 587:Drivers/lvgl/src/extra/widgets/menu/lv_menu.c **** 
 588:Drivers/lvgl/src/extra/widgets/menu/lv_menu.c **** static void lv_menu_refr_sidebar_header_mode(lv_obj_t * obj)
 589:Drivers/lvgl/src/extra/widgets/menu/lv_menu.c **** {
 590:Drivers/lvgl/src/extra/widgets/menu/lv_menu.c ****     LV_ASSERT_OBJ(obj, MY_CLASS);
 591:Drivers/lvgl/src/extra/widgets/menu/lv_menu.c **** 
 592:Drivers/lvgl/src/extra/widgets/menu/lv_menu.c ****     lv_menu_t * menu = (lv_menu_t *)obj;
 593:Drivers/lvgl/src/extra/widgets/menu/lv_menu.c **** 
 594:Drivers/lvgl/src/extra/widgets/menu/lv_menu.c ****     if(menu->sidebar_header == NULL || menu->sidebar_page == NULL) return;
 595:Drivers/lvgl/src/extra/widgets/menu/lv_menu.c **** 
 596:Drivers/lvgl/src/extra/widgets/menu/lv_menu.c ****     switch(menu->mode_header) {
 597:Drivers/lvgl/src/extra/widgets/menu/lv_menu.c ****         case LV_MENU_HEADER_TOP_FIXED:
 598:Drivers/lvgl/src/extra/widgets/menu/lv_menu.c ****             /* Content should fill the remaining space */
 599:Drivers/lvgl/src/extra/widgets/menu/lv_menu.c ****             lv_obj_move_to_index(menu->sidebar_header, 0);
 600:Drivers/lvgl/src/extra/widgets/menu/lv_menu.c ****             lv_obj_set_flex_grow(menu->sidebar_page, 1);
 601:Drivers/lvgl/src/extra/widgets/menu/lv_menu.c ****             break;
 602:Drivers/lvgl/src/extra/widgets/menu/lv_menu.c ****         case LV_MENU_HEADER_TOP_UNFIXED:
 603:Drivers/lvgl/src/extra/widgets/menu/lv_menu.c ****             lv_obj_move_to_index(menu->sidebar_header, 0);
 604:Drivers/lvgl/src/extra/widgets/menu/lv_menu.c ****             lv_obj_set_flex_grow(menu->sidebar_page, 0);
 605:Drivers/lvgl/src/extra/widgets/menu/lv_menu.c ****             break;
 606:Drivers/lvgl/src/extra/widgets/menu/lv_menu.c ****         case LV_MENU_HEADER_BOTTOM_FIXED:
 607:Drivers/lvgl/src/extra/widgets/menu/lv_menu.c ****             lv_obj_move_to_index(menu->sidebar_header, 1);
 608:Drivers/lvgl/src/extra/widgets/menu/lv_menu.c ****             lv_obj_set_flex_grow(menu->sidebar_page, 1);
 609:Drivers/lvgl/src/extra/widgets/menu/lv_menu.c ****             break;
 610:Drivers/lvgl/src/extra/widgets/menu/lv_menu.c ****     }
 611:Drivers/lvgl/src/extra/widgets/menu/lv_menu.c **** 
 612:Drivers/lvgl/src/extra/widgets/menu/lv_menu.c ****     lv_obj_refr_size(menu->sidebar_header);
 613:Drivers/lvgl/src/extra/widgets/menu/lv_menu.c ****     lv_obj_refr_size(menu->sidebar_page);
 614:Drivers/lvgl/src/extra/widgets/menu/lv_menu.c **** 
 615:Drivers/lvgl/src/extra/widgets/menu/lv_menu.c ****     if(lv_obj_get_content_height(menu->sidebar_header) == 0) {
 616:Drivers/lvgl/src/extra/widgets/menu/lv_menu.c ****         lv_obj_add_flag(menu->sidebar_header, LV_OBJ_FLAG_HIDDEN);
 617:Drivers/lvgl/src/extra/widgets/menu/lv_menu.c ****     }
 618:Drivers/lvgl/src/extra/widgets/menu/lv_menu.c ****     else {
 619:Drivers/lvgl/src/extra/widgets/menu/lv_menu.c ****         lv_obj_clear_flag(menu->sidebar_header, LV_OBJ_FLAG_HIDDEN);
 620:Drivers/lvgl/src/extra/widgets/menu/lv_menu.c ****     }
 621:Drivers/lvgl/src/extra/widgets/menu/lv_menu.c **** }
 622:Drivers/lvgl/src/extra/widgets/menu/lv_menu.c **** 
 623:Drivers/lvgl/src/extra/widgets/menu/lv_menu.c **** static void lv_menu_refr_main_header_mode(lv_obj_t * obj)
 624:Drivers/lvgl/src/extra/widgets/menu/lv_menu.c **** {
 625:Drivers/lvgl/src/extra/widgets/menu/lv_menu.c ****     LV_ASSERT_OBJ(obj, MY_CLASS);
 626:Drivers/lvgl/src/extra/widgets/menu/lv_menu.c **** 
 627:Drivers/lvgl/src/extra/widgets/menu/lv_menu.c ****     lv_menu_t * menu = (lv_menu_t *)obj;
ARM GAS  /var/folders/0z/tsy30v1j4xl4_7kw94k978ww0000gn/T//ccS6OLnK.s 			page 21


 628:Drivers/lvgl/src/extra/widgets/menu/lv_menu.c **** 
 629:Drivers/lvgl/src/extra/widgets/menu/lv_menu.c ****     if(menu->main_header == NULL || menu->main_page == NULL) return;
 630:Drivers/lvgl/src/extra/widgets/menu/lv_menu.c **** 
 631:Drivers/lvgl/src/extra/widgets/menu/lv_menu.c ****     switch(menu->mode_header) {
 632:Drivers/lvgl/src/extra/widgets/menu/lv_menu.c ****         case LV_MENU_HEADER_TOP_FIXED:
 633:Drivers/lvgl/src/extra/widgets/menu/lv_menu.c ****             /* Content should fill the remaining space */
 634:Drivers/lvgl/src/extra/widgets/menu/lv_menu.c ****             lv_obj_move_to_index(menu->main_header, 0);
 635:Drivers/lvgl/src/extra/widgets/menu/lv_menu.c ****             lv_obj_set_flex_grow(menu->main_page, 1);
 636:Drivers/lvgl/src/extra/widgets/menu/lv_menu.c ****             break;
 637:Drivers/lvgl/src/extra/widgets/menu/lv_menu.c ****         case LV_MENU_HEADER_TOP_UNFIXED:
 638:Drivers/lvgl/src/extra/widgets/menu/lv_menu.c ****             lv_obj_move_to_index(menu->main_header, 0);
 639:Drivers/lvgl/src/extra/widgets/menu/lv_menu.c ****             lv_obj_set_flex_grow(menu->main_page, 0);
 640:Drivers/lvgl/src/extra/widgets/menu/lv_menu.c ****             break;
 641:Drivers/lvgl/src/extra/widgets/menu/lv_menu.c ****         case LV_MENU_HEADER_BOTTOM_FIXED:
 642:Drivers/lvgl/src/extra/widgets/menu/lv_menu.c ****             lv_obj_move_to_index(menu->main_header, 1);
 643:Drivers/lvgl/src/extra/widgets/menu/lv_menu.c ****             lv_obj_set_flex_grow(menu->main_page, 1);
 644:Drivers/lvgl/src/extra/widgets/menu/lv_menu.c ****             break;
 645:Drivers/lvgl/src/extra/widgets/menu/lv_menu.c ****     }
 646:Drivers/lvgl/src/extra/widgets/menu/lv_menu.c **** 
 647:Drivers/lvgl/src/extra/widgets/menu/lv_menu.c ****     lv_obj_refr_size(menu->main_header);
 648:Drivers/lvgl/src/extra/widgets/menu/lv_menu.c ****     lv_obj_refr_size(menu->main_page);
 649:Drivers/lvgl/src/extra/widgets/menu/lv_menu.c ****     lv_obj_update_layout(menu->main_header);
 650:Drivers/lvgl/src/extra/widgets/menu/lv_menu.c **** 
 651:Drivers/lvgl/src/extra/widgets/menu/lv_menu.c ****     if(lv_obj_get_content_height(menu->main_header) == 0) {
 652:Drivers/lvgl/src/extra/widgets/menu/lv_menu.c ****         lv_obj_add_flag(menu->main_header, LV_OBJ_FLAG_HIDDEN);
 653:Drivers/lvgl/src/extra/widgets/menu/lv_menu.c ****     }
 654:Drivers/lvgl/src/extra/widgets/menu/lv_menu.c ****     else {
 655:Drivers/lvgl/src/extra/widgets/menu/lv_menu.c ****         lv_obj_clear_flag(menu->main_header, LV_OBJ_FLAG_HIDDEN);
 656:Drivers/lvgl/src/extra/widgets/menu/lv_menu.c ****     }
 657:Drivers/lvgl/src/extra/widgets/menu/lv_menu.c **** }
 658:Drivers/lvgl/src/extra/widgets/menu/lv_menu.c **** 
 659:Drivers/lvgl/src/extra/widgets/menu/lv_menu.c **** static void lv_menu_load_page_event_cb(lv_event_t * e)
 660:Drivers/lvgl/src/extra/widgets/menu/lv_menu.c **** {
 661:Drivers/lvgl/src/extra/widgets/menu/lv_menu.c ****     lv_obj_t * obj = lv_event_get_target(e);
 662:Drivers/lvgl/src/extra/widgets/menu/lv_menu.c ****     lv_menu_load_page_event_data_t * event_data = lv_event_get_user_data(e);
 663:Drivers/lvgl/src/extra/widgets/menu/lv_menu.c ****     lv_menu_t * menu = (lv_menu_t *)(event_data->menu);
 664:Drivers/lvgl/src/extra/widgets/menu/lv_menu.c ****     lv_obj_t * page = event_data->page;
 665:Drivers/lvgl/src/extra/widgets/menu/lv_menu.c **** 
 666:Drivers/lvgl/src/extra/widgets/menu/lv_menu.c ****     if(menu->sidebar_page != NULL) {
 667:Drivers/lvgl/src/extra/widgets/menu/lv_menu.c ****         /* Check if clicked obj is in the sidebar */
 668:Drivers/lvgl/src/extra/widgets/menu/lv_menu.c ****         bool sidebar = false;
 669:Drivers/lvgl/src/extra/widgets/menu/lv_menu.c ****         lv_obj_t * parent = obj;
 670:Drivers/lvgl/src/extra/widgets/menu/lv_menu.c **** 
 671:Drivers/lvgl/src/extra/widgets/menu/lv_menu.c ****         while(parent) {
 672:Drivers/lvgl/src/extra/widgets/menu/lv_menu.c ****             if(parent == (lv_obj_t *)menu) break;
 673:Drivers/lvgl/src/extra/widgets/menu/lv_menu.c ****             if(parent == menu->sidebar) {
 674:Drivers/lvgl/src/extra/widgets/menu/lv_menu.c ****                 sidebar = true;
 675:Drivers/lvgl/src/extra/widgets/menu/lv_menu.c ****                 break;
 676:Drivers/lvgl/src/extra/widgets/menu/lv_menu.c ****             }
 677:Drivers/lvgl/src/extra/widgets/menu/lv_menu.c ****             parent = lv_obj_get_parent(parent);
 678:Drivers/lvgl/src/extra/widgets/menu/lv_menu.c ****         }
 679:Drivers/lvgl/src/extra/widgets/menu/lv_menu.c **** 
 680:Drivers/lvgl/src/extra/widgets/menu/lv_menu.c ****         if(sidebar) {
 681:Drivers/lvgl/src/extra/widgets/menu/lv_menu.c ****             /* Clear checked state of previous obj */
 682:Drivers/lvgl/src/extra/widgets/menu/lv_menu.c ****             if(menu->selected_tab != obj && menu->selected_tab != NULL) {
 683:Drivers/lvgl/src/extra/widgets/menu/lv_menu.c ****                 lv_obj_clear_state(menu->selected_tab, LV_STATE_CHECKED);
 684:Drivers/lvgl/src/extra/widgets/menu/lv_menu.c ****             }
ARM GAS  /var/folders/0z/tsy30v1j4xl4_7kw94k978ww0000gn/T//ccS6OLnK.s 			page 22


 685:Drivers/lvgl/src/extra/widgets/menu/lv_menu.c **** 
 686:Drivers/lvgl/src/extra/widgets/menu/lv_menu.c ****             lv_menu_clear_history((lv_obj_t *)menu);
 687:Drivers/lvgl/src/extra/widgets/menu/lv_menu.c **** 
 688:Drivers/lvgl/src/extra/widgets/menu/lv_menu.c ****             menu->selected_tab = obj;
 689:Drivers/lvgl/src/extra/widgets/menu/lv_menu.c ****         }
 690:Drivers/lvgl/src/extra/widgets/menu/lv_menu.c ****     }
 691:Drivers/lvgl/src/extra/widgets/menu/lv_menu.c **** 
 692:Drivers/lvgl/src/extra/widgets/menu/lv_menu.c ****     lv_menu_set_page((lv_obj_t *)menu, page);
 693:Drivers/lvgl/src/extra/widgets/menu/lv_menu.c **** 
 694:Drivers/lvgl/src/extra/widgets/menu/lv_menu.c ****     if(lv_group_get_default() != NULL && menu->sidebar_page == NULL) {
 695:Drivers/lvgl/src/extra/widgets/menu/lv_menu.c ****         /* Sidebar is not supported for now*/
 696:Drivers/lvgl/src/extra/widgets/menu/lv_menu.c ****         lv_group_focus_next(lv_group_get_default());
 697:Drivers/lvgl/src/extra/widgets/menu/lv_menu.c ****     }
 698:Drivers/lvgl/src/extra/widgets/menu/lv_menu.c **** }
 699:Drivers/lvgl/src/extra/widgets/menu/lv_menu.c **** 
 700:Drivers/lvgl/src/extra/widgets/menu/lv_menu.c **** static void lv_menu_obj_del_event_cb(lv_event_t * e)
 701:Drivers/lvgl/src/extra/widgets/menu/lv_menu.c **** {
 702:Drivers/lvgl/src/extra/widgets/menu/lv_menu.c ****     lv_menu_load_page_event_data_t * event_data = lv_event_get_user_data(e);
 703:Drivers/lvgl/src/extra/widgets/menu/lv_menu.c ****     lv_mem_free(event_data);
 704:Drivers/lvgl/src/extra/widgets/menu/lv_menu.c **** }
 705:Drivers/lvgl/src/extra/widgets/menu/lv_menu.c **** 
 706:Drivers/lvgl/src/extra/widgets/menu/lv_menu.c **** static void lv_menu_back_event_cb(lv_event_t * e)
 707:Drivers/lvgl/src/extra/widgets/menu/lv_menu.c **** {
 708:Drivers/lvgl/src/extra/widgets/menu/lv_menu.c ****     lv_event_code_t code = lv_event_get_code(e);
 709:Drivers/lvgl/src/extra/widgets/menu/lv_menu.c ****     /* LV_EVENT_CLICKED */
 710:Drivers/lvgl/src/extra/widgets/menu/lv_menu.c ****     if(code == LV_EVENT_CLICKED) {
 711:Drivers/lvgl/src/extra/widgets/menu/lv_menu.c ****         lv_obj_t * obj = lv_event_get_target(e);
 712:Drivers/lvgl/src/extra/widgets/menu/lv_menu.c ****         lv_menu_t * menu = (lv_menu_t *)lv_event_get_user_data(e);
 713:Drivers/lvgl/src/extra/widgets/menu/lv_menu.c **** 
 714:Drivers/lvgl/src/extra/widgets/menu/lv_menu.c ****         if(!(obj == menu->main_header_back_btn || obj == menu->sidebar_header_back_btn)) return;
 715:Drivers/lvgl/src/extra/widgets/menu/lv_menu.c **** 
 716:Drivers/lvgl/src/extra/widgets/menu/lv_menu.c ****         menu->prev_depth = menu->cur_depth; /* Save the previous value for user event handler */
 717:Drivers/lvgl/src/extra/widgets/menu/lv_menu.c **** 
 718:Drivers/lvgl/src/extra/widgets/menu/lv_menu.c ****         if(lv_menu_back_btn_is_root((lv_obj_t *)menu, obj)) return;
 719:Drivers/lvgl/src/extra/widgets/menu/lv_menu.c **** 
 720:Drivers/lvgl/src/extra/widgets/menu/lv_menu.c ****         lv_ll_t * history_ll = &(menu->history_ll);
 721:Drivers/lvgl/src/extra/widgets/menu/lv_menu.c **** 
 722:Drivers/lvgl/src/extra/widgets/menu/lv_menu.c ****         /* The current menu */
 723:Drivers/lvgl/src/extra/widgets/menu/lv_menu.c ****         lv_menu_history_t * act_hist = _lv_ll_get_head(history_ll);
 724:Drivers/lvgl/src/extra/widgets/menu/lv_menu.c **** 
 725:Drivers/lvgl/src/extra/widgets/menu/lv_menu.c ****         /* The previous menu */
 726:Drivers/lvgl/src/extra/widgets/menu/lv_menu.c ****         lv_menu_history_t * prev_hist = _lv_ll_get_next(history_ll, act_hist);
 727:Drivers/lvgl/src/extra/widgets/menu/lv_menu.c **** 
 728:Drivers/lvgl/src/extra/widgets/menu/lv_menu.c ****         if(prev_hist != NULL) {
 729:Drivers/lvgl/src/extra/widgets/menu/lv_menu.c ****             /* Previous menu exists */
 730:Drivers/lvgl/src/extra/widgets/menu/lv_menu.c ****             /* Delete the current item from the history */
 731:Drivers/lvgl/src/extra/widgets/menu/lv_menu.c ****             _lv_ll_remove(history_ll, act_hist);
 732:Drivers/lvgl/src/extra/widgets/menu/lv_menu.c ****             lv_mem_free(act_hist);
 733:Drivers/lvgl/src/extra/widgets/menu/lv_menu.c ****             menu->cur_depth--;
 734:Drivers/lvgl/src/extra/widgets/menu/lv_menu.c ****             /* Create the previous menu.
 735:Drivers/lvgl/src/extra/widgets/menu/lv_menu.c ****             *  Remove it from the history because `lv_menu_set_page` will add it again */
 736:Drivers/lvgl/src/extra/widgets/menu/lv_menu.c ****             _lv_ll_remove(history_ll, prev_hist);
 737:Drivers/lvgl/src/extra/widgets/menu/lv_menu.c ****             menu->cur_depth--;
 738:Drivers/lvgl/src/extra/widgets/menu/lv_menu.c ****             lv_menu_set_page(&(menu->obj), prev_hist->page);
 739:Drivers/lvgl/src/extra/widgets/menu/lv_menu.c **** 
 740:Drivers/lvgl/src/extra/widgets/menu/lv_menu.c ****             lv_mem_free(prev_hist);
 741:Drivers/lvgl/src/extra/widgets/menu/lv_menu.c ****         }
ARM GAS  /var/folders/0z/tsy30v1j4xl4_7kw94k978ww0000gn/T//ccS6OLnK.s 			page 23


 742:Drivers/lvgl/src/extra/widgets/menu/lv_menu.c ****     }
 743:Drivers/lvgl/src/extra/widgets/menu/lv_menu.c **** }
 744:Drivers/lvgl/src/extra/widgets/menu/lv_menu.c **** 
 745:Drivers/lvgl/src/extra/widgets/menu/lv_menu.c **** static void lv_menu_value_changed_event_cb(lv_event_t * e)
 746:Drivers/lvgl/src/extra/widgets/menu/lv_menu.c **** {
 425              		.loc 1 746 1 is_stmt 1 view -0
 426              		.cfi_startproc
 427              		@ args = 0, pretend = 0, frame = 0
 428              		@ frame_needed = 0, uses_anonymous_args = 0
 747:Drivers/lvgl/src/extra/widgets/menu/lv_menu.c ****     lv_obj_t * obj = lv_event_get_user_data(e);
 429              		.loc 1 747 5 view .LVU114
 746:Drivers/lvgl/src/extra/widgets/menu/lv_menu.c ****     lv_obj_t * obj = lv_event_get_user_data(e);
 430              		.loc 1 746 1 is_stmt 0 view .LVU115
 431 0000 10B5     		push	{r4, lr}
 432              		.cfi_def_cfa_offset 8
 433              		.cfi_offset 4, -8
 434              		.cfi_offset 14, -4
 435              		.loc 1 747 22 view .LVU116
 436 0002 FFF7FEFF 		bl	lv_event_get_user_data
 437              	.LVL53:
 438              	.LBB18:
 439              	.LBB19:
 395:Drivers/lvgl/src/extra/widgets/menu/lv_menu.c **** }
 440              		.loc 1 395 16 view .LVU117
 441 0006 C36A     		ldr	r3, [r0, #44]
 442              	.LBE19:
 443              	.LBE18:
 444              		.loc 1 747 22 view .LVU118
 445 0008 0446     		mov	r4, r0
 446              	.LVL54:
 748:Drivers/lvgl/src/extra/widgets/menu/lv_menu.c ****     lv_menu_t * menu = (lv_menu_t *)obj;
 447              		.loc 1 748 5 is_stmt 1 view .LVU119
 749:Drivers/lvgl/src/extra/widgets/menu/lv_menu.c **** 
 750:Drivers/lvgl/src/extra/widgets/menu/lv_menu.c ****     lv_menu_page_t * main_page = (lv_menu_page_t *)lv_menu_get_cur_main_page(obj);
 448              		.loc 1 750 5 view .LVU120
 449              	.LBB21:
 450              	.LBI18:
 390:Drivers/lvgl/src/extra/widgets/menu/lv_menu.c **** {
 451              		.loc 1 390 12 view .LVU121
 452              	.LBB20:
 392:Drivers/lvgl/src/extra/widgets/menu/lv_menu.c **** 
 453              		.loc 1 392 5 view .LVU122
 392:Drivers/lvgl/src/extra/widgets/menu/lv_menu.c **** 
 454              		.loc 1 392 5 view .LVU123
 392:Drivers/lvgl/src/extra/widgets/menu/lv_menu.c **** 
 455              		.loc 1 392 5 view .LVU124
 394:Drivers/lvgl/src/extra/widgets/menu/lv_menu.c ****     return menu->main_page;
 456              		.loc 1 394 5 view .LVU125
 395:Drivers/lvgl/src/extra/widgets/menu/lv_menu.c **** }
 457              		.loc 1 395 5 view .LVU126
 395:Drivers/lvgl/src/extra/widgets/menu/lv_menu.c **** }
 458              		.loc 1 395 5 is_stmt 0 view .LVU127
 459              	.LBE20:
 460              	.LBE21:
 751:Drivers/lvgl/src/extra/widgets/menu/lv_menu.c ****     if(main_page != NULL && menu->main_header_title != NULL) {
 461              		.loc 1 751 5 is_stmt 1 view .LVU128
 462              		.loc 1 751 7 is_stmt 0 view .LVU129
ARM GAS  /var/folders/0z/tsy30v1j4xl4_7kw94k978ww0000gn/T//ccS6OLnK.s 			page 24


 463 000a 4BB1     		cbz	r3, .L12
 464              		.loc 1 751 33 discriminator 1 view .LVU130
 465 000c 806B     		ldr	r0, [r0, #56]
 466              	.LVL55:
 467              		.loc 1 751 26 discriminator 1 view .LVU131
 468 000e 38B1     		cbz	r0, .L12
 752:Drivers/lvgl/src/extra/widgets/menu/lv_menu.c ****         if(main_page->title != NULL) {
 469              		.loc 1 752 9 is_stmt 1 view .LVU132
 470              		.loc 1 752 21 is_stmt 0 view .LVU133
 471 0010 596A     		ldr	r1, [r3, #36]
 472              		.loc 1 752 11 view .LVU134
 473 0012 C9B1     		cbz	r1, .L13
 753:Drivers/lvgl/src/extra/widgets/menu/lv_menu.c ****             lv_label_set_text(menu->main_header_title, main_page->title);
 474              		.loc 1 753 13 is_stmt 1 view .LVU135
 475 0014 FFF7FEFF 		bl	lv_label_set_text
 476              	.LVL56:
 754:Drivers/lvgl/src/extra/widgets/menu/lv_menu.c ****             lv_obj_clear_flag(menu->main_header_title, LV_OBJ_FLAG_HIDDEN);
 477              		.loc 1 754 13 view .LVU136
 478 0018 A06B     		ldr	r0, [r4, #56]
 479 001a 0121     		movs	r1, #1
 480 001c FFF7FEFF 		bl	lv_obj_clear_flag
 481              	.LVL57:
 482              	.L12:
 755:Drivers/lvgl/src/extra/widgets/menu/lv_menu.c ****         }
 756:Drivers/lvgl/src/extra/widgets/menu/lv_menu.c ****         else {
 757:Drivers/lvgl/src/extra/widgets/menu/lv_menu.c ****             lv_obj_add_flag(menu->main_header_title, LV_OBJ_FLAG_HIDDEN);
 758:Drivers/lvgl/src/extra/widgets/menu/lv_menu.c ****         }
 759:Drivers/lvgl/src/extra/widgets/menu/lv_menu.c ****     }
 760:Drivers/lvgl/src/extra/widgets/menu/lv_menu.c **** 
 761:Drivers/lvgl/src/extra/widgets/menu/lv_menu.c ****     lv_menu_page_t * sidebar_page = (lv_menu_page_t *)lv_menu_get_cur_sidebar_page(obj);
 483              		.loc 1 761 5 view .LVU137
 484              	.LBB22:
 485              	.LBI22:
 398:Drivers/lvgl/src/extra/widgets/menu/lv_menu.c **** {
 486              		.loc 1 398 12 view .LVU138
 487              	.LBB23:
 400:Drivers/lvgl/src/extra/widgets/menu/lv_menu.c **** 
 488              		.loc 1 400 5 view .LVU139
 400:Drivers/lvgl/src/extra/widgets/menu/lv_menu.c **** 
 489              		.loc 1 400 5 view .LVU140
 400:Drivers/lvgl/src/extra/widgets/menu/lv_menu.c **** 
 490              		.loc 1 400 5 view .LVU141
 402:Drivers/lvgl/src/extra/widgets/menu/lv_menu.c ****     return menu->sidebar_page;
 491              		.loc 1 402 5 view .LVU142
 403:Drivers/lvgl/src/extra/widgets/menu/lv_menu.c **** }
 492              		.loc 1 403 5 view .LVU143
 403:Drivers/lvgl/src/extra/widgets/menu/lv_menu.c **** }
 493              		.loc 1 403 16 is_stmt 0 view .LVU144
 494 0020 236C     		ldr	r3, [r4, #64]
 495              	.LVL58:
 403:Drivers/lvgl/src/extra/widgets/menu/lv_menu.c **** }
 496              		.loc 1 403 16 view .LVU145
 497              	.LBE23:
 498              	.LBE22:
 762:Drivers/lvgl/src/extra/widgets/menu/lv_menu.c ****     if(sidebar_page != NULL && menu->sidebar_header_title != NULL) {
 499              		.loc 1 762 5 is_stmt 1 view .LVU146
 500              		.loc 1 762 7 is_stmt 0 view .LVU147
ARM GAS  /var/folders/0z/tsy30v1j4xl4_7kw94k978ww0000gn/T//ccS6OLnK.s 			page 25


 501 0022 5BB1     		cbz	r3, .L11
 502              		.loc 1 762 36 discriminator 1 view .LVU148
 503 0024 E06C     		ldr	r0, [r4, #76]
 504              		.loc 1 762 29 discriminator 1 view .LVU149
 505 0026 48B1     		cbz	r0, .L11
 763:Drivers/lvgl/src/extra/widgets/menu/lv_menu.c ****         if(sidebar_page->title != NULL) {
 506              		.loc 1 763 9 is_stmt 1 view .LVU150
 507              		.loc 1 763 24 is_stmt 0 view .LVU151
 508 0028 596A     		ldr	r1, [r3, #36]
 509              		.loc 1 763 11 view .LVU152
 510 002a 41B1     		cbz	r1, .L15
 764:Drivers/lvgl/src/extra/widgets/menu/lv_menu.c ****             lv_label_set_text(menu->sidebar_header_title, sidebar_page->title);
 511              		.loc 1 764 13 is_stmt 1 view .LVU153
 512 002c FFF7FEFF 		bl	lv_label_set_text
 513              	.LVL59:
 765:Drivers/lvgl/src/extra/widgets/menu/lv_menu.c ****             lv_obj_clear_flag(menu->sidebar_header_title, LV_OBJ_FLAG_HIDDEN);
 514              		.loc 1 765 13 view .LVU154
 515 0030 E06C     		ldr	r0, [r4, #76]
 516 0032 0121     		movs	r1, #1
 766:Drivers/lvgl/src/extra/widgets/menu/lv_menu.c ****         }
 767:Drivers/lvgl/src/extra/widgets/menu/lv_menu.c ****         else {
 768:Drivers/lvgl/src/extra/widgets/menu/lv_menu.c ****             lv_obj_add_flag(menu->sidebar_header_title, LV_OBJ_FLAG_HIDDEN);
 769:Drivers/lvgl/src/extra/widgets/menu/lv_menu.c ****         }
 770:Drivers/lvgl/src/extra/widgets/menu/lv_menu.c ****     }
 771:Drivers/lvgl/src/extra/widgets/menu/lv_menu.c **** }
 517              		.loc 1 771 1 is_stmt 0 view .LVU155
 518 0034 BDE81040 		pop	{r4, lr}
 519              		.cfi_remember_state
 520              		.cfi_restore 14
 521              		.cfi_restore 4
 522              		.cfi_def_cfa_offset 0
 523              	.LVL60:
 765:Drivers/lvgl/src/extra/widgets/menu/lv_menu.c ****             lv_obj_clear_flag(menu->sidebar_header_title, LV_OBJ_FLAG_HIDDEN);
 524              		.loc 1 765 13 view .LVU156
 525 0038 FFF7FEBF 		b	lv_obj_clear_flag
 526              	.LVL61:
 527              	.L11:
 528              		.cfi_restore_state
 529              		.loc 1 771 1 view .LVU157
 530 003c 10BD     		pop	{r4, pc}
 531              	.LVL62:
 532              	.L15:
 768:Drivers/lvgl/src/extra/widgets/menu/lv_menu.c ****         }
 533              		.loc 1 768 13 is_stmt 1 view .LVU158
 534              		.loc 1 771 1 is_stmt 0 view .LVU159
 535 003e BDE81040 		pop	{r4, lr}
 536              		.cfi_remember_state
 537              		.cfi_restore 14
 538              		.cfi_restore 4
 539              		.cfi_def_cfa_offset 0
 540              	.LVL63:
 768:Drivers/lvgl/src/extra/widgets/menu/lv_menu.c ****         }
 541              		.loc 1 768 13 view .LVU160
 542 0042 0121     		movs	r1, #1
 543 0044 FFF7FEBF 		b	lv_obj_add_flag
 544              	.LVL64:
 545              	.L13:
ARM GAS  /var/folders/0z/tsy30v1j4xl4_7kw94k978ww0000gn/T//ccS6OLnK.s 			page 26


 546              		.cfi_restore_state
 757:Drivers/lvgl/src/extra/widgets/menu/lv_menu.c ****         }
 547              		.loc 1 757 13 is_stmt 1 view .LVU161
 548 0048 0121     		movs	r1, #1
 549 004a FFF7FEFF 		bl	lv_obj_add_flag
 550              	.LVL65:
 757:Drivers/lvgl/src/extra/widgets/menu/lv_menu.c ****         }
 551              		.loc 1 757 13 is_stmt 0 view .LVU162
 552 004e E7E7     		b	.L12
 553              		.cfi_endproc
 554              	.LFE196:
 556              		.section	.text.lv_menu_page_destructor,"ax",%progbits
 557              		.align	1
 558              		.p2align 2,,3
 559              		.syntax unified
 560              		.thumb
 561              		.thumb_func
 563              	lv_menu_page_destructor:
 564              	.LVL66:
 565              	.LFB188:
 562:Drivers/lvgl/src/extra/widgets/menu/lv_menu.c ****     LV_UNUSED(class_p);
 566              		.loc 1 562 1 is_stmt 1 view -0
 567              		.cfi_startproc
 568              		@ args = 0, pretend = 0, frame = 0
 569              		@ frame_needed = 0, uses_anonymous_args = 0
 563:Drivers/lvgl/src/extra/widgets/menu/lv_menu.c **** 
 570              		.loc 1 563 5 view .LVU164
 565:Drivers/lvgl/src/extra/widgets/menu/lv_menu.c **** 
 571              		.loc 1 565 5 view .LVU165
 567:Drivers/lvgl/src/extra/widgets/menu/lv_menu.c ****         lv_mem_free(page->title);
 572              		.loc 1 567 5 view .LVU166
 567:Drivers/lvgl/src/extra/widgets/menu/lv_menu.c ****         lv_mem_free(page->title);
 573              		.loc 1 567 12 is_stmt 0 view .LVU167
 574 0000 486A     		ldr	r0, [r1, #36]
 575              	.LVL67:
 567:Drivers/lvgl/src/extra/widgets/menu/lv_menu.c ****         lv_mem_free(page->title);
 576              		.loc 1 567 7 view .LVU168
 577 0002 30B1     		cbz	r0, .L35
 562:Drivers/lvgl/src/extra/widgets/menu/lv_menu.c ****     LV_UNUSED(class_p);
 578              		.loc 1 562 1 view .LVU169
 579 0004 10B5     		push	{r4, lr}
 580              		.cfi_def_cfa_offset 8
 581              		.cfi_offset 4, -8
 582              		.cfi_offset 14, -4
 583 0006 0C46     		mov	r4, r1
 568:Drivers/lvgl/src/extra/widgets/menu/lv_menu.c ****         page->title = NULL;
 584              		.loc 1 568 9 is_stmt 1 view .LVU170
 585 0008 FFF7FEFF 		bl	lv_mem_free
 586              	.LVL68:
 569:Drivers/lvgl/src/extra/widgets/menu/lv_menu.c ****     }
 587              		.loc 1 569 9 view .LVU171
 569:Drivers/lvgl/src/extra/widgets/menu/lv_menu.c ****     }
 588              		.loc 1 569 21 is_stmt 0 view .LVU172
 589 000c 0023     		movs	r3, #0
 590 000e 6362     		str	r3, [r4, #36]
 571:Drivers/lvgl/src/extra/widgets/menu/lv_menu.c **** 
 591              		.loc 1 571 1 view .LVU173
ARM GAS  /var/folders/0z/tsy30v1j4xl4_7kw94k978ww0000gn/T//ccS6OLnK.s 			page 27


 592 0010 10BD     		pop	{r4, pc}
 593              	.LVL69:
 594              	.L35:
 595              		.cfi_def_cfa_offset 0
 596              		.cfi_restore 4
 597              		.cfi_restore 14
 571:Drivers/lvgl/src/extra/widgets/menu/lv_menu.c **** 
 598              		.loc 1 571 1 view .LVU174
 599 0012 7047     		bx	lr
 600              		.cfi_endproc
 601              	.LFE188:
 603              		.section	.text.lv_menu_obj_del_event_cb,"ax",%progbits
 604              		.align	1
 605              		.p2align 2,,3
 606              		.syntax unified
 607              		.thumb
 608              		.thumb_func
 610              	lv_menu_obj_del_event_cb:
 611              	.LVL70:
 612              	.LFB194:
 701:Drivers/lvgl/src/extra/widgets/menu/lv_menu.c ****     lv_menu_load_page_event_data_t * event_data = lv_event_get_user_data(e);
 613              		.loc 1 701 1 is_stmt 1 view -0
 614              		.cfi_startproc
 615              		@ args = 0, pretend = 0, frame = 0
 616              		@ frame_needed = 0, uses_anonymous_args = 0
 702:Drivers/lvgl/src/extra/widgets/menu/lv_menu.c ****     lv_mem_free(event_data);
 617              		.loc 1 702 5 view .LVU176
 701:Drivers/lvgl/src/extra/widgets/menu/lv_menu.c ****     lv_menu_load_page_event_data_t * event_data = lv_event_get_user_data(e);
 618              		.loc 1 701 1 is_stmt 0 view .LVU177
 619 0000 08B5     		push	{r3, lr}
 620              		.cfi_def_cfa_offset 8
 621              		.cfi_offset 3, -8
 622              		.cfi_offset 14, -4
 702:Drivers/lvgl/src/extra/widgets/menu/lv_menu.c ****     lv_mem_free(event_data);
 623              		.loc 1 702 51 view .LVU178
 624 0002 FFF7FEFF 		bl	lv_event_get_user_data
 625              	.LVL71:
 703:Drivers/lvgl/src/extra/widgets/menu/lv_menu.c **** }
 626              		.loc 1 703 5 is_stmt 1 view .LVU179
 704:Drivers/lvgl/src/extra/widgets/menu/lv_menu.c **** 
 627              		.loc 1 704 1 is_stmt 0 view .LVU180
 628 0006 BDE80840 		pop	{r3, lr}
 629              		.cfi_restore 14
 630              		.cfi_restore 3
 631              		.cfi_def_cfa_offset 0
 703:Drivers/lvgl/src/extra/widgets/menu/lv_menu.c **** }
 632              		.loc 1 703 5 view .LVU181
 633 000a FFF7FEBF 		b	lv_mem_free
 634              	.LVL72:
 703:Drivers/lvgl/src/extra/widgets/menu/lv_menu.c **** }
 635              		.loc 1 703 5 view .LVU182
 636              		.cfi_endproc
 637              	.LFE194:
 639 000e 00BF     		.section	.text.lv_menu_page_constructor,"ax",%progbits
 640              		.align	1
 641              		.p2align 2,,3
 642              		.syntax unified
ARM GAS  /var/folders/0z/tsy30v1j4xl4_7kw94k978ww0000gn/T//ccS6OLnK.s 			page 28


 643              		.thumb
 644              		.thumb_func
 646              	lv_menu_page_constructor:
 647              	.LVL73:
 648              	.LFB187:
 550:Drivers/lvgl/src/extra/widgets/menu/lv_menu.c ****     LV_UNUSED(class_p);
 649              		.loc 1 550 1 is_stmt 1 view -0
 650              		.cfi_startproc
 651              		@ args = 0, pretend = 0, frame = 0
 652              		@ frame_needed = 0, uses_anonymous_args = 0
 551:Drivers/lvgl/src/extra/widgets/menu/lv_menu.c **** 
 653              		.loc 1 551 5 view .LVU184
 553:Drivers/lvgl/src/extra/widgets/menu/lv_menu.c **** 
 654              		.loc 1 553 5 view .LVU185
 550:Drivers/lvgl/src/extra/widgets/menu/lv_menu.c ****     LV_UNUSED(class_p);
 655              		.loc 1 550 1 is_stmt 0 view .LVU186
 656 0000 10B5     		push	{r4, lr}
 657              		.cfi_def_cfa_offset 8
 658              		.cfi_offset 4, -8
 659              		.cfi_offset 14, -4
 553:Drivers/lvgl/src/extra/widgets/menu/lv_menu.c **** 
 660              		.loc 1 553 37 view .LVU187
 661 0002 0846     		mov	r0, r1
 662              	.LVL74:
 550:Drivers/lvgl/src/extra/widgets/menu/lv_menu.c ****     LV_UNUSED(class_p);
 663              		.loc 1 550 1 view .LVU188
 664 0004 0C46     		mov	r4, r1
 553:Drivers/lvgl/src/extra/widgets/menu/lv_menu.c **** 
 665              		.loc 1 553 37 view .LVU189
 666 0006 FFF7FEFF 		bl	lv_obj_get_parent
 667              	.LVL75:
 553:Drivers/lvgl/src/extra/widgets/menu/lv_menu.c **** 
 668              		.loc 1 553 37 view .LVU190
 669 000a 0346     		mov	r3, r0
 670              	.LVL76:
 555:Drivers/lvgl/src/extra/widgets/menu/lv_menu.c ****     lv_obj_set_flex_flow(obj, LV_FLEX_FLOW_COLUMN);
 671              		.loc 1 555 5 is_stmt 1 view .LVU191
 672 000c 2046     		mov	r0, r4
 673              	.LVL77:
 555:Drivers/lvgl/src/extra/widgets/menu/lv_menu.c ****     lv_obj_set_flex_flow(obj, LV_FLEX_FLOW_COLUMN);
 674              		.loc 1 555 5 is_stmt 0 view .LVU192
 675 000e 596A     		ldr	r1, [r3, #36]
 676 0010 FFF7FEFF 		bl	lv_obj_set_parent
 677              	.LVL78:
 556:Drivers/lvgl/src/extra/widgets/menu/lv_menu.c ****     lv_obj_set_flex_align(obj, LV_FLEX_ALIGN_START, LV_FLEX_ALIGN_CENTER, LV_FLEX_ALIGN_CENTER);
 678              		.loc 1 556 5 is_stmt 1 view .LVU193
 679 0014 2046     		mov	r0, r4
 680 0016 0121     		movs	r1, #1
 681 0018 FFF7FEFF 		bl	lv_obj_set_flex_flow
 682              	.LVL79:
 557:Drivers/lvgl/src/extra/widgets/menu/lv_menu.c ****     lv_obj_add_flag(obj, LV_OBJ_FLAG_EVENT_BUBBLE);
 683              		.loc 1 557 5 view .LVU194
 684 001c 0223     		movs	r3, #2
 685 001e 2046     		mov	r0, r4
 686 0020 0021     		movs	r1, #0
 687 0022 1A46     		mov	r2, r3
 688 0024 FFF7FEFF 		bl	lv_obj_set_flex_align
ARM GAS  /var/folders/0z/tsy30v1j4xl4_7kw94k978ww0000gn/T//ccS6OLnK.s 			page 29


 689              	.LVL80:
 558:Drivers/lvgl/src/extra/widgets/menu/lv_menu.c **** }
 690              		.loc 1 558 5 view .LVU195
 691 0028 2046     		mov	r0, r4
 692 002a 4FF48041 		mov	r1, #16384
 559:Drivers/lvgl/src/extra/widgets/menu/lv_menu.c **** 
 693              		.loc 1 559 1 is_stmt 0 view .LVU196
 694 002e BDE81040 		pop	{r4, lr}
 695              		.cfi_restore 14
 696              		.cfi_restore 4
 697              		.cfi_def_cfa_offset 0
 698              	.LVL81:
 558:Drivers/lvgl/src/extra/widgets/menu/lv_menu.c **** }
 699              		.loc 1 558 5 view .LVU197
 700 0032 FFF7FEBF 		b	lv_obj_add_flag
 701              	.LVL82:
 558:Drivers/lvgl/src/extra/widgets/menu/lv_menu.c **** }
 702              		.loc 1 558 5 view .LVU198
 703              		.cfi_endproc
 704              	.LFE187:
 706 0036 00BF     		.section	.text.lv_menu_refr_main_header_mode,"ax",%progbits
 707              		.align	1
 708              		.p2align 2,,3
 709              		.syntax unified
 710              		.thumb
 711              		.thumb_func
 713              	lv_menu_refr_main_header_mode:
 714              	.LVL83:
 715              	.LFB192:
 624:Drivers/lvgl/src/extra/widgets/menu/lv_menu.c ****     LV_ASSERT_OBJ(obj, MY_CLASS);
 716              		.loc 1 624 1 is_stmt 1 view -0
 717              		.cfi_startproc
 718              		@ args = 0, pretend = 0, frame = 0
 719              		@ frame_needed = 0, uses_anonymous_args = 0
 625:Drivers/lvgl/src/extra/widgets/menu/lv_menu.c **** 
 720              		.loc 1 625 5 view .LVU200
 625:Drivers/lvgl/src/extra/widgets/menu/lv_menu.c **** 
 721              		.loc 1 625 5 view .LVU201
 625:Drivers/lvgl/src/extra/widgets/menu/lv_menu.c **** 
 722              		.loc 1 625 5 view .LVU202
 627:Drivers/lvgl/src/extra/widgets/menu/lv_menu.c **** 
 723              		.loc 1 627 5 view .LVU203
 624:Drivers/lvgl/src/extra/widgets/menu/lv_menu.c ****     LV_ASSERT_OBJ(obj, MY_CLASS);
 724              		.loc 1 624 1 is_stmt 0 view .LVU204
 725 0000 10B5     		push	{r4, lr}
 726              		.cfi_def_cfa_offset 8
 727              		.cfi_offset 4, -8
 728              		.cfi_offset 14, -4
 624:Drivers/lvgl/src/extra/widgets/menu/lv_menu.c ****     LV_ASSERT_OBJ(obj, MY_CLASS);
 729              		.loc 1 624 1 view .LVU205
 730 0002 0446     		mov	r4, r0
 731              	.LVL84:
 629:Drivers/lvgl/src/extra/widgets/menu/lv_menu.c **** 
 732              		.loc 1 629 5 is_stmt 1 view .LVU206
 629:Drivers/lvgl/src/extra/widgets/menu/lv_menu.c **** 
 733              		.loc 1 629 12 is_stmt 0 view .LVU207
 734 0004 006B     		ldr	r0, [r0, #48]
ARM GAS  /var/folders/0z/tsy30v1j4xl4_7kw94k978ww0000gn/T//ccS6OLnK.s 			page 30


 735              	.LVL85:
 629:Drivers/lvgl/src/extra/widgets/menu/lv_menu.c **** 
 736              		.loc 1 629 7 view .LVU208
 737 0006 58B3     		cbz	r0, .L42
 629:Drivers/lvgl/src/extra/widgets/menu/lv_menu.c **** 
 738              		.loc 1 629 34 discriminator 2 view .LVU209
 739 0008 E36A     		ldr	r3, [r4, #44]
 740 000a 4BB3     		cbz	r3, .L42
 631:Drivers/lvgl/src/extra/widgets/menu/lv_menu.c ****         case LV_MENU_HEADER_TOP_FIXED:
 741              		.loc 1 631 5 is_stmt 1 view .LVU210
 631:Drivers/lvgl/src/extra/widgets/menu/lv_menu.c ****         case LV_MENU_HEADER_TOP_FIXED:
 742              		.loc 1 631 16 is_stmt 0 view .LVU211
 743 000c 94F86210 		ldrb	r1, [r4, #98]	@ zero_extendqisi2
 744 0010 C1F34101 		ubfx	r1, r1, #1, #2
 631:Drivers/lvgl/src/extra/widgets/menu/lv_menu.c ****         case LV_MENU_HEADER_TOP_FIXED:
 745              		.loc 1 631 5 view .LVU212
 746 0014 0129     		cmp	r1, #1
 747 0016 24D0     		beq	.L44
 748 0018 0229     		cmp	r1, #2
 749 001a 18D0     		beq	.L45
 750 001c C1B1     		cbz	r1, .L55
 751              	.L46:
 647:Drivers/lvgl/src/extra/widgets/menu/lv_menu.c ****     lv_obj_refr_size(menu->main_page);
 752              		.loc 1 647 5 is_stmt 1 view .LVU213
 753 001e FFF7FEFF 		bl	lv_obj_refr_size
 754              	.LVL86:
 648:Drivers/lvgl/src/extra/widgets/menu/lv_menu.c ****     lv_obj_update_layout(menu->main_header);
 755              		.loc 1 648 5 view .LVU214
 756 0022 E06A     		ldr	r0, [r4, #44]
 757 0024 FFF7FEFF 		bl	lv_obj_refr_size
 758              	.LVL87:
 649:Drivers/lvgl/src/extra/widgets/menu/lv_menu.c **** 
 759              		.loc 1 649 5 view .LVU215
 760 0028 206B     		ldr	r0, [r4, #48]
 761 002a FFF7FEFF 		bl	lv_obj_update_layout
 762              	.LVL88:
 651:Drivers/lvgl/src/extra/widgets/menu/lv_menu.c ****         lv_obj_add_flag(menu->main_header, LV_OBJ_FLAG_HIDDEN);
 763              		.loc 1 651 5 view .LVU216
 651:Drivers/lvgl/src/extra/widgets/menu/lv_menu.c ****         lv_obj_add_flag(menu->main_header, LV_OBJ_FLAG_HIDDEN);
 764              		.loc 1 651 8 is_stmt 0 view .LVU217
 765 002e 206B     		ldr	r0, [r4, #48]
 766 0030 FFF7FEFF 		bl	lv_obj_get_content_height
 767              	.LVL89:
 651:Drivers/lvgl/src/extra/widgets/menu/lv_menu.c ****         lv_obj_add_flag(menu->main_header, LV_OBJ_FLAG_HIDDEN);
 768              		.loc 1 651 7 view .LVU218
 769 0034 28B9     		cbnz	r0, .L47
 652:Drivers/lvgl/src/extra/widgets/menu/lv_menu.c ****     }
 770              		.loc 1 652 9 is_stmt 1 view .LVU219
 771 0036 206B     		ldr	r0, [r4, #48]
 772 0038 0121     		movs	r1, #1
 657:Drivers/lvgl/src/extra/widgets/menu/lv_menu.c **** 
 773              		.loc 1 657 1 is_stmt 0 view .LVU220
 774 003a BDE81040 		pop	{r4, lr}
 775              		.cfi_remember_state
 776              		.cfi_restore 14
 777              		.cfi_restore 4
 778              		.cfi_def_cfa_offset 0
ARM GAS  /var/folders/0z/tsy30v1j4xl4_7kw94k978ww0000gn/T//ccS6OLnK.s 			page 31


 779              	.LVL90:
 652:Drivers/lvgl/src/extra/widgets/menu/lv_menu.c ****     }
 780              		.loc 1 652 9 view .LVU221
 781 003e FFF7FEBF 		b	lv_obj_add_flag
 782              	.LVL91:
 783              	.L47:
 784              		.cfi_restore_state
 655:Drivers/lvgl/src/extra/widgets/menu/lv_menu.c ****     }
 785              		.loc 1 655 9 is_stmt 1 view .LVU222
 786 0042 206B     		ldr	r0, [r4, #48]
 787 0044 0121     		movs	r1, #1
 657:Drivers/lvgl/src/extra/widgets/menu/lv_menu.c **** 
 788              		.loc 1 657 1 is_stmt 0 view .LVU223
 789 0046 BDE81040 		pop	{r4, lr}
 790              		.cfi_remember_state
 791              		.cfi_restore 14
 792              		.cfi_restore 4
 793              		.cfi_def_cfa_offset 0
 794              	.LVL92:
 655:Drivers/lvgl/src/extra/widgets/menu/lv_menu.c ****     }
 795              		.loc 1 655 9 view .LVU224
 796 004a FFF7FEBF 		b	lv_obj_clear_flag
 797              	.LVL93:
 798              	.L45:
 799              		.cfi_restore_state
 642:Drivers/lvgl/src/extra/widgets/menu/lv_menu.c ****             lv_obj_set_flex_grow(menu->main_page, 1);
 800              		.loc 1 642 13 is_stmt 1 view .LVU225
 801 004e 0121     		movs	r1, #1
 802              	.L55:
 803 0050 FFF7FEFF 		bl	lv_obj_move_to_index
 804              	.LVL94:
 643:Drivers/lvgl/src/extra/widgets/menu/lv_menu.c ****             break;
 805              		.loc 1 643 13 view .LVU226
 806 0054 E06A     		ldr	r0, [r4, #44]
 807 0056 0121     		movs	r1, #1
 808 0058 FFF7FEFF 		bl	lv_obj_set_flex_grow
 809              	.LVL95:
 644:Drivers/lvgl/src/extra/widgets/menu/lv_menu.c ****     }
 810              		.loc 1 644 13 view .LVU227
 647:Drivers/lvgl/src/extra/widgets/menu/lv_menu.c ****     lv_obj_refr_size(menu->main_page);
 811              		.loc 1 647 26 is_stmt 0 view .LVU228
 812 005c 206B     		ldr	r0, [r4, #48]
 644:Drivers/lvgl/src/extra/widgets/menu/lv_menu.c ****     }
 813              		.loc 1 644 13 view .LVU229
 814 005e DEE7     		b	.L46
 815              	.L42:
 657:Drivers/lvgl/src/extra/widgets/menu/lv_menu.c **** 
 816              		.loc 1 657 1 view .LVU230
 817 0060 10BD     		pop	{r4, pc}
 818              	.LVL96:
 819              	.L44:
 638:Drivers/lvgl/src/extra/widgets/menu/lv_menu.c ****             lv_obj_set_flex_grow(menu->main_page, 0);
 820              		.loc 1 638 13 is_stmt 1 view .LVU231
 821 0062 0021     		movs	r1, #0
 822 0064 FFF7FEFF 		bl	lv_obj_move_to_index
 823              	.LVL97:
 639:Drivers/lvgl/src/extra/widgets/menu/lv_menu.c ****             break;
ARM GAS  /var/folders/0z/tsy30v1j4xl4_7kw94k978ww0000gn/T//ccS6OLnK.s 			page 32


 824              		.loc 1 639 13 view .LVU232
 825 0068 E06A     		ldr	r0, [r4, #44]
 826 006a 0021     		movs	r1, #0
 827 006c FFF7FEFF 		bl	lv_obj_set_flex_grow
 828              	.LVL98:
 640:Drivers/lvgl/src/extra/widgets/menu/lv_menu.c ****         case LV_MENU_HEADER_BOTTOM_FIXED:
 829              		.loc 1 640 13 view .LVU233
 647:Drivers/lvgl/src/extra/widgets/menu/lv_menu.c ****     lv_obj_refr_size(menu->main_page);
 830              		.loc 1 647 26 is_stmt 0 view .LVU234
 831 0070 206B     		ldr	r0, [r4, #48]
 640:Drivers/lvgl/src/extra/widgets/menu/lv_menu.c ****         case LV_MENU_HEADER_BOTTOM_FIXED:
 832              		.loc 1 640 13 view .LVU235
 833 0072 D4E7     		b	.L46
 834              		.cfi_endproc
 835              	.LFE192:
 837              		.section	.text.lv_menu_refr_sidebar_header_mode,"ax",%progbits
 838              		.align	1
 839              		.p2align 2,,3
 840              		.syntax unified
 841              		.thumb
 842              		.thumb_func
 844              	lv_menu_refr_sidebar_header_mode:
 845              	.LVL99:
 846              	.LFB191:
 589:Drivers/lvgl/src/extra/widgets/menu/lv_menu.c ****     LV_ASSERT_OBJ(obj, MY_CLASS);
 847              		.loc 1 589 1 is_stmt 1 view -0
 848              		.cfi_startproc
 849              		@ args = 0, pretend = 0, frame = 0
 850              		@ frame_needed = 0, uses_anonymous_args = 0
 590:Drivers/lvgl/src/extra/widgets/menu/lv_menu.c **** 
 851              		.loc 1 590 5 view .LVU237
 590:Drivers/lvgl/src/extra/widgets/menu/lv_menu.c **** 
 852              		.loc 1 590 5 view .LVU238
 590:Drivers/lvgl/src/extra/widgets/menu/lv_menu.c **** 
 853              		.loc 1 590 5 view .LVU239
 592:Drivers/lvgl/src/extra/widgets/menu/lv_menu.c **** 
 854              		.loc 1 592 5 view .LVU240
 589:Drivers/lvgl/src/extra/widgets/menu/lv_menu.c ****     LV_ASSERT_OBJ(obj, MY_CLASS);
 855              		.loc 1 589 1 is_stmt 0 view .LVU241
 856 0000 10B5     		push	{r4, lr}
 857              		.cfi_def_cfa_offset 8
 858              		.cfi_offset 4, -8
 859              		.cfi_offset 14, -4
 589:Drivers/lvgl/src/extra/widgets/menu/lv_menu.c ****     LV_ASSERT_OBJ(obj, MY_CLASS);
 860              		.loc 1 589 1 view .LVU242
 861 0002 0446     		mov	r4, r0
 862              	.LVL100:
 594:Drivers/lvgl/src/extra/widgets/menu/lv_menu.c **** 
 863              		.loc 1 594 5 is_stmt 1 view .LVU243
 594:Drivers/lvgl/src/extra/widgets/menu/lv_menu.c **** 
 864              		.loc 1 594 12 is_stmt 0 view .LVU244
 865 0004 406C     		ldr	r0, [r0, #68]
 866              	.LVL101:
 594:Drivers/lvgl/src/extra/widgets/menu/lv_menu.c **** 
 867              		.loc 1 594 7 view .LVU245
 868 0006 40B3     		cbz	r0, .L56
 594:Drivers/lvgl/src/extra/widgets/menu/lv_menu.c **** 
ARM GAS  /var/folders/0z/tsy30v1j4xl4_7kw94k978ww0000gn/T//ccS6OLnK.s 			page 33


 869              		.loc 1 594 37 discriminator 2 view .LVU246
 870 0008 236C     		ldr	r3, [r4, #64]
 871 000a 33B3     		cbz	r3, .L56
 596:Drivers/lvgl/src/extra/widgets/menu/lv_menu.c ****         case LV_MENU_HEADER_TOP_FIXED:
 872              		.loc 1 596 5 is_stmt 1 view .LVU247
 596:Drivers/lvgl/src/extra/widgets/menu/lv_menu.c ****         case LV_MENU_HEADER_TOP_FIXED:
 873              		.loc 1 596 16 is_stmt 0 view .LVU248
 874 000c 94F86210 		ldrb	r1, [r4, #98]	@ zero_extendqisi2
 875 0010 C1F34101 		ubfx	r1, r1, #1, #2
 596:Drivers/lvgl/src/extra/widgets/menu/lv_menu.c ****         case LV_MENU_HEADER_TOP_FIXED:
 876              		.loc 1 596 5 view .LVU249
 877 0014 0129     		cmp	r1, #1
 878 0016 21D0     		beq	.L58
 879 0018 0229     		cmp	r1, #2
 880 001a 15D0     		beq	.L59
 881 001c A9B1     		cbz	r1, .L69
 882              	.L60:
 612:Drivers/lvgl/src/extra/widgets/menu/lv_menu.c ****     lv_obj_refr_size(menu->sidebar_page);
 883              		.loc 1 612 5 is_stmt 1 view .LVU250
 884 001e FFF7FEFF 		bl	lv_obj_refr_size
 885              	.LVL102:
 613:Drivers/lvgl/src/extra/widgets/menu/lv_menu.c **** 
 886              		.loc 1 613 5 view .LVU251
 887 0022 206C     		ldr	r0, [r4, #64]
 888 0024 FFF7FEFF 		bl	lv_obj_refr_size
 889              	.LVL103:
 615:Drivers/lvgl/src/extra/widgets/menu/lv_menu.c ****         lv_obj_add_flag(menu->sidebar_header, LV_OBJ_FLAG_HIDDEN);
 890              		.loc 1 615 5 view .LVU252
 615:Drivers/lvgl/src/extra/widgets/menu/lv_menu.c ****         lv_obj_add_flag(menu->sidebar_header, LV_OBJ_FLAG_HIDDEN);
 891              		.loc 1 615 8 is_stmt 0 view .LVU253
 892 0028 606C     		ldr	r0, [r4, #68]
 893 002a FFF7FEFF 		bl	lv_obj_get_content_height
 894              	.LVL104:
 615:Drivers/lvgl/src/extra/widgets/menu/lv_menu.c ****         lv_obj_add_flag(menu->sidebar_header, LV_OBJ_FLAG_HIDDEN);
 895              		.loc 1 615 7 view .LVU254
 896 002e 28B9     		cbnz	r0, .L61
 616:Drivers/lvgl/src/extra/widgets/menu/lv_menu.c ****     }
 897              		.loc 1 616 9 is_stmt 1 view .LVU255
 898 0030 606C     		ldr	r0, [r4, #68]
 899 0032 0121     		movs	r1, #1
 621:Drivers/lvgl/src/extra/widgets/menu/lv_menu.c **** 
 900              		.loc 1 621 1 is_stmt 0 view .LVU256
 901 0034 BDE81040 		pop	{r4, lr}
 902              		.cfi_remember_state
 903              		.cfi_restore 14
 904              		.cfi_restore 4
 905              		.cfi_def_cfa_offset 0
 906              	.LVL105:
 616:Drivers/lvgl/src/extra/widgets/menu/lv_menu.c ****     }
 907              		.loc 1 616 9 view .LVU257
 908 0038 FFF7FEBF 		b	lv_obj_add_flag
 909              	.LVL106:
 910              	.L61:
 911              		.cfi_restore_state
 619:Drivers/lvgl/src/extra/widgets/menu/lv_menu.c ****     }
 912              		.loc 1 619 9 is_stmt 1 view .LVU258
 913 003c 606C     		ldr	r0, [r4, #68]
ARM GAS  /var/folders/0z/tsy30v1j4xl4_7kw94k978ww0000gn/T//ccS6OLnK.s 			page 34


 914 003e 0121     		movs	r1, #1
 621:Drivers/lvgl/src/extra/widgets/menu/lv_menu.c **** 
 915              		.loc 1 621 1 is_stmt 0 view .LVU259
 916 0040 BDE81040 		pop	{r4, lr}
 917              		.cfi_remember_state
 918              		.cfi_restore 14
 919              		.cfi_restore 4
 920              		.cfi_def_cfa_offset 0
 921              	.LVL107:
 619:Drivers/lvgl/src/extra/widgets/menu/lv_menu.c ****     }
 922              		.loc 1 619 9 view .LVU260
 923 0044 FFF7FEBF 		b	lv_obj_clear_flag
 924              	.LVL108:
 925              	.L59:
 926              		.cfi_restore_state
 607:Drivers/lvgl/src/extra/widgets/menu/lv_menu.c ****             lv_obj_set_flex_grow(menu->sidebar_page, 1);
 927              		.loc 1 607 13 is_stmt 1 view .LVU261
 928 0048 0121     		movs	r1, #1
 929              	.L69:
 930 004a FFF7FEFF 		bl	lv_obj_move_to_index
 931              	.LVL109:
 608:Drivers/lvgl/src/extra/widgets/menu/lv_menu.c ****             break;
 932              		.loc 1 608 13 view .LVU262
 933 004e 206C     		ldr	r0, [r4, #64]
 934 0050 0121     		movs	r1, #1
 935 0052 FFF7FEFF 		bl	lv_obj_set_flex_grow
 936              	.LVL110:
 609:Drivers/lvgl/src/extra/widgets/menu/lv_menu.c ****     }
 937              		.loc 1 609 13 view .LVU263
 612:Drivers/lvgl/src/extra/widgets/menu/lv_menu.c ****     lv_obj_refr_size(menu->sidebar_page);
 938              		.loc 1 612 26 is_stmt 0 view .LVU264
 939 0056 606C     		ldr	r0, [r4, #68]
 609:Drivers/lvgl/src/extra/widgets/menu/lv_menu.c ****     }
 940              		.loc 1 609 13 view .LVU265
 941 0058 E1E7     		b	.L60
 942              	.L56:
 621:Drivers/lvgl/src/extra/widgets/menu/lv_menu.c **** 
 943              		.loc 1 621 1 view .LVU266
 944 005a 10BD     		pop	{r4, pc}
 945              	.LVL111:
 946              	.L58:
 603:Drivers/lvgl/src/extra/widgets/menu/lv_menu.c ****             lv_obj_set_flex_grow(menu->sidebar_page, 0);
 947              		.loc 1 603 13 is_stmt 1 view .LVU267
 948 005c 0021     		movs	r1, #0
 949 005e FFF7FEFF 		bl	lv_obj_move_to_index
 950              	.LVL112:
 604:Drivers/lvgl/src/extra/widgets/menu/lv_menu.c ****             break;
 951              		.loc 1 604 13 view .LVU268
 952 0062 206C     		ldr	r0, [r4, #64]
 953 0064 0021     		movs	r1, #0
 954 0066 FFF7FEFF 		bl	lv_obj_set_flex_grow
 955              	.LVL113:
 605:Drivers/lvgl/src/extra/widgets/menu/lv_menu.c ****         case LV_MENU_HEADER_BOTTOM_FIXED:
 956              		.loc 1 605 13 view .LVU269
 612:Drivers/lvgl/src/extra/widgets/menu/lv_menu.c ****     lv_obj_refr_size(menu->sidebar_page);
 957              		.loc 1 612 26 is_stmt 0 view .LVU270
 958 006a 606C     		ldr	r0, [r4, #68]
ARM GAS  /var/folders/0z/tsy30v1j4xl4_7kw94k978ww0000gn/T//ccS6OLnK.s 			page 35


 605:Drivers/lvgl/src/extra/widgets/menu/lv_menu.c ****         case LV_MENU_HEADER_BOTTOM_FIXED:
 959              		.loc 1 605 13 view .LVU271
 960 006c D7E7     		b	.L60
 961              		.cfi_endproc
 962              	.LFE191:
 964 006e 00BF     		.section	.text.lv_menu_create,"ax",%progbits
 965              		.align	1
 966              		.p2align 2,,3
 967              		.global	lv_menu_create
 968              		.syntax unified
 969              		.thumb
 970              		.thumb_func
 972              	lv_menu_create:
 973              	.LVL114:
 974              	.LFB166:
 113:Drivers/lvgl/src/extra/widgets/menu/lv_menu.c ****     LV_LOG_INFO("begin");
 975              		.loc 1 113 1 is_stmt 1 view -0
 976              		.cfi_startproc
 977              		@ args = 0, pretend = 0, frame = 0
 978              		@ frame_needed = 0, uses_anonymous_args = 0
 114:Drivers/lvgl/src/extra/widgets/menu/lv_menu.c ****     lv_obj_t * obj = lv_obj_class_create_obj(MY_CLASS, parent);
 979              		.loc 1 114 5 view .LVU273
 114:Drivers/lvgl/src/extra/widgets/menu/lv_menu.c ****     lv_obj_t * obj = lv_obj_class_create_obj(MY_CLASS, parent);
 980              		.loc 1 114 5 view .LVU274
 114:Drivers/lvgl/src/extra/widgets/menu/lv_menu.c ****     lv_obj_t * obj = lv_obj_class_create_obj(MY_CLASS, parent);
 981              		.loc 1 114 5 view .LVU275
 115:Drivers/lvgl/src/extra/widgets/menu/lv_menu.c ****     lv_obj_class_init_obj(obj);
 982              		.loc 1 115 5 view .LVU276
 113:Drivers/lvgl/src/extra/widgets/menu/lv_menu.c ****     LV_LOG_INFO("begin");
 983              		.loc 1 113 1 is_stmt 0 view .LVU277
 984 0000 10B5     		push	{r4, lr}
 985              		.cfi_def_cfa_offset 8
 986              		.cfi_offset 4, -8
 987              		.cfi_offset 14, -4
 113:Drivers/lvgl/src/extra/widgets/menu/lv_menu.c ****     LV_LOG_INFO("begin");
 988              		.loc 1 113 1 view .LVU278
 989 0002 0146     		mov	r1, r0
 115:Drivers/lvgl/src/extra/widgets/menu/lv_menu.c ****     lv_obj_class_init_obj(obj);
 990              		.loc 1 115 22 view .LVU279
 991 0004 0348     		ldr	r0, .L72
 992              	.LVL115:
 115:Drivers/lvgl/src/extra/widgets/menu/lv_menu.c ****     lv_obj_class_init_obj(obj);
 993              		.loc 1 115 22 view .LVU280
 994 0006 FFF7FEFF 		bl	lv_obj_class_create_obj
 995              	.LVL116:
 115:Drivers/lvgl/src/extra/widgets/menu/lv_menu.c ****     lv_obj_class_init_obj(obj);
 996              		.loc 1 115 22 view .LVU281
 997 000a 0446     		mov	r4, r0
 998              	.LVL117:
 116:Drivers/lvgl/src/extra/widgets/menu/lv_menu.c ****     return obj;
 999              		.loc 1 116 5 is_stmt 1 view .LVU282
 1000 000c FFF7FEFF 		bl	lv_obj_class_init_obj
 1001              	.LVL118:
 117:Drivers/lvgl/src/extra/widgets/menu/lv_menu.c **** }
 1002              		.loc 1 117 5 view .LVU283
 118:Drivers/lvgl/src/extra/widgets/menu/lv_menu.c **** 
 1003              		.loc 1 118 1 is_stmt 0 view .LVU284
ARM GAS  /var/folders/0z/tsy30v1j4xl4_7kw94k978ww0000gn/T//ccS6OLnK.s 			page 36


 1004 0010 2046     		mov	r0, r4
 1005 0012 10BD     		pop	{r4, pc}
 1006              	.LVL119:
 1007              	.L73:
 118:Drivers/lvgl/src/extra/widgets/menu/lv_menu.c **** 
 1008              		.loc 1 118 1 view .LVU285
 1009              		.align	2
 1010              	.L72:
 1011 0014 00000000 		.word	.LANCHOR2
 1012              		.cfi_endproc
 1013              	.LFE166:
 1015              		.section	.text.lv_menu_page_create,"ax",%progbits
 1016              		.align	1
 1017              		.p2align 2,,3
 1018              		.global	lv_menu_page_create
 1019              		.syntax unified
 1020              		.thumb
 1021              		.thumb_func
 1023              	lv_menu_page_create:
 1024              	.LVL120:
 1025              	.LFB167:
 121:Drivers/lvgl/src/extra/widgets/menu/lv_menu.c ****     LV_LOG_INFO("begin");
 1026              		.loc 1 121 1 is_stmt 1 view -0
 1027              		.cfi_startproc
 1028              		@ args = 0, pretend = 0, frame = 0
 1029              		@ frame_needed = 0, uses_anonymous_args = 0
 122:Drivers/lvgl/src/extra/widgets/menu/lv_menu.c ****     lv_obj_t * obj = lv_obj_class_create_obj(&lv_menu_page_class, parent);
 1030              		.loc 1 122 5 view .LVU287
 122:Drivers/lvgl/src/extra/widgets/menu/lv_menu.c ****     lv_obj_t * obj = lv_obj_class_create_obj(&lv_menu_page_class, parent);
 1031              		.loc 1 122 5 view .LVU288
 122:Drivers/lvgl/src/extra/widgets/menu/lv_menu.c ****     lv_obj_t * obj = lv_obj_class_create_obj(&lv_menu_page_class, parent);
 1032              		.loc 1 122 5 view .LVU289
 123:Drivers/lvgl/src/extra/widgets/menu/lv_menu.c ****     lv_obj_class_init_obj(obj);
 1033              		.loc 1 123 5 view .LVU290
 121:Drivers/lvgl/src/extra/widgets/menu/lv_menu.c ****     LV_LOG_INFO("begin");
 1034              		.loc 1 121 1 is_stmt 0 view .LVU291
 1035 0000 38B5     		push	{r3, r4, r5, lr}
 1036              		.cfi_def_cfa_offset 16
 1037              		.cfi_offset 3, -16
 1038              		.cfi_offset 4, -12
 1039              		.cfi_offset 5, -8
 1040              		.cfi_offset 14, -4
 121:Drivers/lvgl/src/extra/widgets/menu/lv_menu.c ****     LV_LOG_INFO("begin");
 1041              		.loc 1 121 1 view .LVU292
 1042 0002 0346     		mov	r3, r0
 1043 0004 0C46     		mov	r4, r1
 123:Drivers/lvgl/src/extra/widgets/menu/lv_menu.c ****     lv_obj_class_init_obj(obj);
 1044              		.loc 1 123 22 view .LVU293
 1045 0006 0C48     		ldr	r0, .L80
 1046              	.LVL121:
 123:Drivers/lvgl/src/extra/widgets/menu/lv_menu.c ****     lv_obj_class_init_obj(obj);
 1047              		.loc 1 123 22 view .LVU294
 1048 0008 1946     		mov	r1, r3
 1049              	.LVL122:
 123:Drivers/lvgl/src/extra/widgets/menu/lv_menu.c ****     lv_obj_class_init_obj(obj);
 1050              		.loc 1 123 22 view .LVU295
 1051 000a FFF7FEFF 		bl	lv_obj_class_create_obj
ARM GAS  /var/folders/0z/tsy30v1j4xl4_7kw94k978ww0000gn/T//ccS6OLnK.s 			page 37


 1052              	.LVL123:
 123:Drivers/lvgl/src/extra/widgets/menu/lv_menu.c ****     lv_obj_class_init_obj(obj);
 1053              		.loc 1 123 22 view .LVU296
 1054 000e 0546     		mov	r5, r0
 1055              	.LVL124:
 124:Drivers/lvgl/src/extra/widgets/menu/lv_menu.c **** 
 1056              		.loc 1 124 5 is_stmt 1 view .LVU297
 1057 0010 FFF7FEFF 		bl	lv_obj_class_init_obj
 1058              	.LVL125:
 126:Drivers/lvgl/src/extra/widgets/menu/lv_menu.c ****     if(title) {
 1059              		.loc 1 126 5 view .LVU298
 127:Drivers/lvgl/src/extra/widgets/menu/lv_menu.c ****         page->title = lv_mem_alloc(strlen(title) + 1);
 1060              		.loc 1 127 5 view .LVU299
 127:Drivers/lvgl/src/extra/widgets/menu/lv_menu.c ****         page->title = lv_mem_alloc(strlen(title) + 1);
 1061              		.loc 1 127 7 is_stmt 0 view .LVU300
 1062 0014 6CB1     		cbz	r4, .L75
 128:Drivers/lvgl/src/extra/widgets/menu/lv_menu.c ****         LV_ASSERT_MALLOC(page->title);
 1063              		.loc 1 128 9 is_stmt 1 view .LVU301
 128:Drivers/lvgl/src/extra/widgets/menu/lv_menu.c ****         LV_ASSERT_MALLOC(page->title);
 1064              		.loc 1 128 36 is_stmt 0 view .LVU302
 1065 0016 2046     		mov	r0, r4
 1066 0018 FFF7FEFF 		bl	strlen
 1067              	.LVL126:
 128:Drivers/lvgl/src/extra/widgets/menu/lv_menu.c ****         LV_ASSERT_MALLOC(page->title);
 1068              		.loc 1 128 23 view .LVU303
 1069 001c 0130     		adds	r0, r0, #1
 1070 001e FFF7FEFF 		bl	lv_mem_alloc
 1071              	.LVL127:
 128:Drivers/lvgl/src/extra/widgets/menu/lv_menu.c ****         LV_ASSERT_MALLOC(page->title);
 1072              		.loc 1 128 21 view .LVU304
 1073 0022 6862     		str	r0, [r5, #36]
 129:Drivers/lvgl/src/extra/widgets/menu/lv_menu.c ****         if(page->title == NULL) return NULL;
 1074              		.loc 1 129 9 is_stmt 1 view .LVU305
 129:Drivers/lvgl/src/extra/widgets/menu/lv_menu.c ****         if(page->title == NULL) return NULL;
 1075              		.loc 1 129 9 view .LVU306
 1076 0024 20B1     		cbz	r0, .L77
 129:Drivers/lvgl/src/extra/widgets/menu/lv_menu.c ****         if(page->title == NULL) return NULL;
 1077              		.loc 1 129 9 view .LVU307
 129:Drivers/lvgl/src/extra/widgets/menu/lv_menu.c ****         if(page->title == NULL) return NULL;
 1078              		.loc 1 129 38 view .LVU308
 130:Drivers/lvgl/src/extra/widgets/menu/lv_menu.c ****         strcpy(page->title, title);
 1079              		.loc 1 130 9 view .LVU309
 131:Drivers/lvgl/src/extra/widgets/menu/lv_menu.c ****     }
 1080              		.loc 1 131 9 view .LVU310
 1081 0026 2146     		mov	r1, r4
 1082 0028 FFF7FEFF 		bl	strcpy
 1083              	.LVL128:
 138:Drivers/lvgl/src/extra/widgets/menu/lv_menu.c **** 
 1084              		.loc 1 138 1 is_stmt 0 view .LVU311
 1085 002c 2846     		mov	r0, r5
 1086 002e 38BD     		pop	{r3, r4, r5, pc}
 1087              	.LVL129:
 1088              	.L77:
 129:Drivers/lvgl/src/extra/widgets/menu/lv_menu.c ****         if(page->title == NULL) return NULL;
 1089              		.loc 1 129 9 is_stmt 1 discriminator 1 view .LVU312
 129:Drivers/lvgl/src/extra/widgets/menu/lv_menu.c ****         if(page->title == NULL) return NULL;
 1090              		.loc 1 129 9 discriminator 1 view .LVU313
ARM GAS  /var/folders/0z/tsy30v1j4xl4_7kw94k978ww0000gn/T//ccS6OLnK.s 			page 38


 129:Drivers/lvgl/src/extra/widgets/menu/lv_menu.c ****         if(page->title == NULL) return NULL;
 1091              		.loc 1 129 9 discriminator 1 view .LVU314
 129:Drivers/lvgl/src/extra/widgets/menu/lv_menu.c ****         if(page->title == NULL) return NULL;
 1092              		.loc 1 129 9 discriminator 1 view .LVU315
 129:Drivers/lvgl/src/extra/widgets/menu/lv_menu.c ****         if(page->title == NULL) return NULL;
 1093              		.loc 1 129 9 discriminator 1 view .LVU316
 129:Drivers/lvgl/src/extra/widgets/menu/lv_menu.c ****         if(page->title == NULL) return NULL;
 1094              		.loc 1 129 9 discriminator 1 view .LVU317
 129:Drivers/lvgl/src/extra/widgets/menu/lv_menu.c ****         if(page->title == NULL) return NULL;
 1095              		.loc 1 129 9 discriminator 1 view .LVU318
 129:Drivers/lvgl/src/extra/widgets/menu/lv_menu.c ****         if(page->title == NULL) return NULL;
 1096              		.loc 1 129 9 discriminator 1 view .LVU319
 129:Drivers/lvgl/src/extra/widgets/menu/lv_menu.c ****         if(page->title == NULL) return NULL;
 1097              		.loc 1 129 9 discriminator 1 view .LVU320
 129:Drivers/lvgl/src/extra/widgets/menu/lv_menu.c ****         if(page->title == NULL) return NULL;
 1098              		.loc 1 129 9 discriminator 1 view .LVU321
 1099 0030 FEE7     		b	.L77
 1100              	.L75:
 134:Drivers/lvgl/src/extra/widgets/menu/lv_menu.c ****     }
 1101              		.loc 1 134 9 view .LVU322
 134:Drivers/lvgl/src/extra/widgets/menu/lv_menu.c ****     }
 1102              		.loc 1 134 21 is_stmt 0 view .LVU323
 1103 0032 6C62     		str	r4, [r5, #36]
 137:Drivers/lvgl/src/extra/widgets/menu/lv_menu.c **** }
 1104              		.loc 1 137 5 is_stmt 1 view .LVU324
 138:Drivers/lvgl/src/extra/widgets/menu/lv_menu.c **** 
 1105              		.loc 1 138 1 is_stmt 0 view .LVU325
 1106 0034 2846     		mov	r0, r5
 1107 0036 38BD     		pop	{r3, r4, r5, pc}
 1108              	.LVL130:
 1109              	.L81:
 138:Drivers/lvgl/src/extra/widgets/menu/lv_menu.c **** 
 1110              		.loc 1 138 1 view .LVU326
 1111              		.align	2
 1112              	.L80:
 1113 0038 00000000 		.word	.LANCHOR3
 1114              		.cfi_endproc
 1115              	.LFE167:
 1117              		.section	.text.lv_menu_cont_create,"ax",%progbits
 1118              		.align	1
 1119              		.p2align 2,,3
 1120              		.global	lv_menu_cont_create
 1121              		.syntax unified
 1122              		.thumb
 1123              		.thumb_func
 1125              	lv_menu_cont_create:
 1126              	.LVL131:
 1127              	.LFB168:
 141:Drivers/lvgl/src/extra/widgets/menu/lv_menu.c ****     LV_LOG_INFO("begin");
 1128              		.loc 1 141 1 is_stmt 1 view -0
 1129              		.cfi_startproc
 1130              		@ args = 0, pretend = 0, frame = 0
 1131              		@ frame_needed = 0, uses_anonymous_args = 0
 142:Drivers/lvgl/src/extra/widgets/menu/lv_menu.c ****     lv_obj_t * obj = lv_obj_class_create_obj(&lv_menu_cont_class, parent);
 1132              		.loc 1 142 5 view .LVU328
 142:Drivers/lvgl/src/extra/widgets/menu/lv_menu.c ****     lv_obj_t * obj = lv_obj_class_create_obj(&lv_menu_cont_class, parent);
 1133              		.loc 1 142 5 view .LVU329
ARM GAS  /var/folders/0z/tsy30v1j4xl4_7kw94k978ww0000gn/T//ccS6OLnK.s 			page 39


 142:Drivers/lvgl/src/extra/widgets/menu/lv_menu.c ****     lv_obj_t * obj = lv_obj_class_create_obj(&lv_menu_cont_class, parent);
 1134              		.loc 1 142 5 view .LVU330
 143:Drivers/lvgl/src/extra/widgets/menu/lv_menu.c ****     lv_obj_class_init_obj(obj);
 1135              		.loc 1 143 5 view .LVU331
 141:Drivers/lvgl/src/extra/widgets/menu/lv_menu.c ****     LV_LOG_INFO("begin");
 1136              		.loc 1 141 1 is_stmt 0 view .LVU332
 1137 0000 10B5     		push	{r4, lr}
 1138              		.cfi_def_cfa_offset 8
 1139              		.cfi_offset 4, -8
 1140              		.cfi_offset 14, -4
 141:Drivers/lvgl/src/extra/widgets/menu/lv_menu.c ****     LV_LOG_INFO("begin");
 1141              		.loc 1 141 1 view .LVU333
 1142 0002 0146     		mov	r1, r0
 143:Drivers/lvgl/src/extra/widgets/menu/lv_menu.c ****     lv_obj_class_init_obj(obj);
 1143              		.loc 1 143 22 view .LVU334
 1144 0004 0348     		ldr	r0, .L84
 1145              	.LVL132:
 143:Drivers/lvgl/src/extra/widgets/menu/lv_menu.c ****     lv_obj_class_init_obj(obj);
 1146              		.loc 1 143 22 view .LVU335
 1147 0006 FFF7FEFF 		bl	lv_obj_class_create_obj
 1148              	.LVL133:
 143:Drivers/lvgl/src/extra/widgets/menu/lv_menu.c ****     lv_obj_class_init_obj(obj);
 1149              		.loc 1 143 22 view .LVU336
 1150 000a 0446     		mov	r4, r0
 1151              	.LVL134:
 144:Drivers/lvgl/src/extra/widgets/menu/lv_menu.c ****     return obj;
 1152              		.loc 1 144 5 is_stmt 1 view .LVU337
 1153 000c FFF7FEFF 		bl	lv_obj_class_init_obj
 1154              	.LVL135:
 145:Drivers/lvgl/src/extra/widgets/menu/lv_menu.c **** }
 1155              		.loc 1 145 5 view .LVU338
 146:Drivers/lvgl/src/extra/widgets/menu/lv_menu.c **** 
 1156              		.loc 1 146 1 is_stmt 0 view .LVU339
 1157 0010 2046     		mov	r0, r4
 1158 0012 10BD     		pop	{r4, pc}
 1159              	.LVL136:
 1160              	.L85:
 146:Drivers/lvgl/src/extra/widgets/menu/lv_menu.c **** 
 1161              		.loc 1 146 1 view .LVU340
 1162              		.align	2
 1163              	.L84:
 1164 0014 00000000 		.word	.LANCHOR4
 1165              		.cfi_endproc
 1166              	.LFE168:
 1168              		.section	.text.lv_menu_section_create,"ax",%progbits
 1169              		.align	1
 1170              		.p2align 2,,3
 1171              		.global	lv_menu_section_create
 1172              		.syntax unified
 1173              		.thumb
 1174              		.thumb_func
 1176              	lv_menu_section_create:
 1177              	.LVL137:
 1178              	.LFB169:
 149:Drivers/lvgl/src/extra/widgets/menu/lv_menu.c ****     LV_LOG_INFO("begin");
 1179              		.loc 1 149 1 is_stmt 1 view -0
 1180              		.cfi_startproc
ARM GAS  /var/folders/0z/tsy30v1j4xl4_7kw94k978ww0000gn/T//ccS6OLnK.s 			page 40


 1181              		@ args = 0, pretend = 0, frame = 0
 1182              		@ frame_needed = 0, uses_anonymous_args = 0
 150:Drivers/lvgl/src/extra/widgets/menu/lv_menu.c ****     lv_obj_t * obj = lv_obj_class_create_obj(&lv_menu_section_class, parent);
 1183              		.loc 1 150 5 view .LVU342
 150:Drivers/lvgl/src/extra/widgets/menu/lv_menu.c ****     lv_obj_t * obj = lv_obj_class_create_obj(&lv_menu_section_class, parent);
 1184              		.loc 1 150 5 view .LVU343
 150:Drivers/lvgl/src/extra/widgets/menu/lv_menu.c ****     lv_obj_t * obj = lv_obj_class_create_obj(&lv_menu_section_class, parent);
 1185              		.loc 1 150 5 view .LVU344
 151:Drivers/lvgl/src/extra/widgets/menu/lv_menu.c ****     lv_obj_class_init_obj(obj);
 1186              		.loc 1 151 5 view .LVU345
 149:Drivers/lvgl/src/extra/widgets/menu/lv_menu.c ****     LV_LOG_INFO("begin");
 1187              		.loc 1 149 1 is_stmt 0 view .LVU346
 1188 0000 10B5     		push	{r4, lr}
 1189              		.cfi_def_cfa_offset 8
 1190              		.cfi_offset 4, -8
 1191              		.cfi_offset 14, -4
 149:Drivers/lvgl/src/extra/widgets/menu/lv_menu.c ****     LV_LOG_INFO("begin");
 1192              		.loc 1 149 1 view .LVU347
 1193 0002 0146     		mov	r1, r0
 151:Drivers/lvgl/src/extra/widgets/menu/lv_menu.c ****     lv_obj_class_init_obj(obj);
 1194              		.loc 1 151 22 view .LVU348
 1195 0004 0348     		ldr	r0, .L88
 1196              	.LVL138:
 151:Drivers/lvgl/src/extra/widgets/menu/lv_menu.c ****     lv_obj_class_init_obj(obj);
 1197              		.loc 1 151 22 view .LVU349
 1198 0006 FFF7FEFF 		bl	lv_obj_class_create_obj
 1199              	.LVL139:
 151:Drivers/lvgl/src/extra/widgets/menu/lv_menu.c ****     lv_obj_class_init_obj(obj);
 1200              		.loc 1 151 22 view .LVU350
 1201 000a 0446     		mov	r4, r0
 1202              	.LVL140:
 152:Drivers/lvgl/src/extra/widgets/menu/lv_menu.c ****     return obj;
 1203              		.loc 1 152 5 is_stmt 1 view .LVU351
 1204 000c FFF7FEFF 		bl	lv_obj_class_init_obj
 1205              	.LVL141:
 153:Drivers/lvgl/src/extra/widgets/menu/lv_menu.c **** }
 1206              		.loc 1 153 5 view .LVU352
 154:Drivers/lvgl/src/extra/widgets/menu/lv_menu.c **** 
 1207              		.loc 1 154 1 is_stmt 0 view .LVU353
 1208 0010 2046     		mov	r0, r4
 1209 0012 10BD     		pop	{r4, pc}
 1210              	.LVL142:
 1211              	.L89:
 154:Drivers/lvgl/src/extra/widgets/menu/lv_menu.c **** 
 1212              		.loc 1 154 1 view .LVU354
 1213              		.align	2
 1214              	.L88:
 1215 0014 00000000 		.word	.LANCHOR5
 1216              		.cfi_endproc
 1217              	.LFE169:
 1219              		.section	.text.lv_menu_separator_create,"ax",%progbits
 1220              		.align	1
 1221              		.p2align 2,,3
 1222              		.global	lv_menu_separator_create
 1223              		.syntax unified
 1224              		.thumb
 1225              		.thumb_func
ARM GAS  /var/folders/0z/tsy30v1j4xl4_7kw94k978ww0000gn/T//ccS6OLnK.s 			page 41


 1227              	lv_menu_separator_create:
 1228              	.LVL143:
 1229              	.LFB170:
 157:Drivers/lvgl/src/extra/widgets/menu/lv_menu.c ****     LV_LOG_INFO("begin");
 1230              		.loc 1 157 1 is_stmt 1 view -0
 1231              		.cfi_startproc
 1232              		@ args = 0, pretend = 0, frame = 0
 1233              		@ frame_needed = 0, uses_anonymous_args = 0
 158:Drivers/lvgl/src/extra/widgets/menu/lv_menu.c ****     lv_obj_t * obj = lv_obj_class_create_obj(&lv_menu_separator_class, parent);
 1234              		.loc 1 158 5 view .LVU356
 158:Drivers/lvgl/src/extra/widgets/menu/lv_menu.c ****     lv_obj_t * obj = lv_obj_class_create_obj(&lv_menu_separator_class, parent);
 1235              		.loc 1 158 5 view .LVU357
 158:Drivers/lvgl/src/extra/widgets/menu/lv_menu.c ****     lv_obj_t * obj = lv_obj_class_create_obj(&lv_menu_separator_class, parent);
 1236              		.loc 1 158 5 view .LVU358
 159:Drivers/lvgl/src/extra/widgets/menu/lv_menu.c ****     lv_obj_class_init_obj(obj);
 1237              		.loc 1 159 5 view .LVU359
 157:Drivers/lvgl/src/extra/widgets/menu/lv_menu.c ****     LV_LOG_INFO("begin");
 1238              		.loc 1 157 1 is_stmt 0 view .LVU360
 1239 0000 10B5     		push	{r4, lr}
 1240              		.cfi_def_cfa_offset 8
 1241              		.cfi_offset 4, -8
 1242              		.cfi_offset 14, -4
 157:Drivers/lvgl/src/extra/widgets/menu/lv_menu.c ****     LV_LOG_INFO("begin");
 1243              		.loc 1 157 1 view .LVU361
 1244 0002 0146     		mov	r1, r0
 159:Drivers/lvgl/src/extra/widgets/menu/lv_menu.c ****     lv_obj_class_init_obj(obj);
 1245              		.loc 1 159 22 view .LVU362
 1246 0004 0348     		ldr	r0, .L92
 1247              	.LVL144:
 159:Drivers/lvgl/src/extra/widgets/menu/lv_menu.c ****     lv_obj_class_init_obj(obj);
 1248              		.loc 1 159 22 view .LVU363
 1249 0006 FFF7FEFF 		bl	lv_obj_class_create_obj
 1250              	.LVL145:
 159:Drivers/lvgl/src/extra/widgets/menu/lv_menu.c ****     lv_obj_class_init_obj(obj);
 1251              		.loc 1 159 22 view .LVU364
 1252 000a 0446     		mov	r4, r0
 1253              	.LVL146:
 160:Drivers/lvgl/src/extra/widgets/menu/lv_menu.c ****     return obj;
 1254              		.loc 1 160 5 is_stmt 1 view .LVU365
 1255 000c FFF7FEFF 		bl	lv_obj_class_init_obj
 1256              	.LVL147:
 161:Drivers/lvgl/src/extra/widgets/menu/lv_menu.c **** }
 1257              		.loc 1 161 5 view .LVU366
 162:Drivers/lvgl/src/extra/widgets/menu/lv_menu.c **** 
 1258              		.loc 1 162 1 is_stmt 0 view .LVU367
 1259 0010 2046     		mov	r0, r4
 1260 0012 10BD     		pop	{r4, pc}
 1261              	.LVL148:
 1262              	.L93:
 162:Drivers/lvgl/src/extra/widgets/menu/lv_menu.c **** 
 1263              		.loc 1 162 1 view .LVU368
 1264              		.align	2
 1265              	.L92:
 1266 0014 00000000 		.word	.LANCHOR6
 1267              		.cfi_endproc
 1268              	.LFE170:
 1270              		.section	.text.lv_menu_set_page,"ax",%progbits
ARM GAS  /var/folders/0z/tsy30v1j4xl4_7kw94k978ww0000gn/T//ccS6OLnK.s 			page 42


 1271              		.align	1
 1272              		.p2align 2,,3
 1273              		.global	lv_menu_set_page
 1274              		.syntax unified
 1275              		.thumb
 1276              		.thumb_func
 1278              	lv_menu_set_page:
 1279              	.LVL149:
 1280              	.LFB172:
 193:Drivers/lvgl/src/extra/widgets/menu/lv_menu.c ****     LV_ASSERT_OBJ(obj, MY_CLASS);
 1281              		.loc 1 193 1 is_stmt 1 view -0
 1282              		.cfi_startproc
 1283              		@ args = 0, pretend = 0, frame = 0
 1284              		@ frame_needed = 0, uses_anonymous_args = 0
 194:Drivers/lvgl/src/extra/widgets/menu/lv_menu.c **** 
 1285              		.loc 1 194 5 view .LVU370
 194:Drivers/lvgl/src/extra/widgets/menu/lv_menu.c **** 
 1286              		.loc 1 194 5 view .LVU371
 194:Drivers/lvgl/src/extra/widgets/menu/lv_menu.c **** 
 1287              		.loc 1 194 5 view .LVU372
 196:Drivers/lvgl/src/extra/widgets/menu/lv_menu.c **** 
 1288              		.loc 1 196 5 view .LVU373
 193:Drivers/lvgl/src/extra/widgets/menu/lv_menu.c ****     LV_ASSERT_OBJ(obj, MY_CLASS);
 1289              		.loc 1 193 1 is_stmt 0 view .LVU374
 1290 0000 38B5     		push	{r3, r4, r5, lr}
 1291              		.cfi_def_cfa_offset 16
 1292              		.cfi_offset 3, -16
 1293              		.cfi_offset 4, -12
 1294              		.cfi_offset 5, -8
 1295              		.cfi_offset 14, -4
 193:Drivers/lvgl/src/extra/widgets/menu/lv_menu.c ****     LV_ASSERT_OBJ(obj, MY_CLASS);
 1296              		.loc 1 193 1 view .LVU375
 1297 0002 0446     		mov	r4, r0
 1298              	.LVL150:
 199:Drivers/lvgl/src/extra/widgets/menu/lv_menu.c ****         return;
 1299              		.loc 1 199 5 is_stmt 1 view .LVU376
 199:Drivers/lvgl/src/extra/widgets/menu/lv_menu.c ****         return;
 1300              		.loc 1 199 12 is_stmt 0 view .LVU377
 1301 0004 C06A     		ldr	r0, [r0, #44]
 1302              	.LVL151:
 199:Drivers/lvgl/src/extra/widgets/menu/lv_menu.c ****         return;
 1303              		.loc 1 199 7 view .LVU378
 1304 0006 8842     		cmp	r0, r1
 1305 0008 55D0     		beq	.L94
 204:Drivers/lvgl/src/extra/widgets/menu/lv_menu.c ****         lv_obj_set_parent(menu->main_page, menu->storage);
 1306              		.loc 1 204 5 is_stmt 1 view .LVU379
 1307 000a 0D46     		mov	r5, r1
 204:Drivers/lvgl/src/extra/widgets/menu/lv_menu.c ****         lv_obj_set_parent(menu->main_page, menu->storage);
 1308              		.loc 1 204 7 is_stmt 0 view .LVU380
 1309 000c 10B1     		cbz	r0, .L96
 205:Drivers/lvgl/src/extra/widgets/menu/lv_menu.c ****     }
 1310              		.loc 1 205 9 is_stmt 1 view .LVU381
 1311 000e 616A     		ldr	r1, [r4, #36]
 1312              	.LVL152:
 205:Drivers/lvgl/src/extra/widgets/menu/lv_menu.c ****     }
 1313              		.loc 1 205 9 is_stmt 0 view .LVU382
 1314 0010 FFF7FEFF 		bl	lv_obj_set_parent
ARM GAS  /var/folders/0z/tsy30v1j4xl4_7kw94k978ww0000gn/T//ccS6OLnK.s 			page 43


 1315              	.LVL153:
 1316              	.L96:
 208:Drivers/lvgl/src/extra/widgets/menu/lv_menu.c ****         /* Add a new node */
 1317              		.loc 1 208 5 is_stmt 1 view .LVU383
 1318              	.LBB24:
 211:Drivers/lvgl/src/extra/widgets/menu/lv_menu.c ****         LV_ASSERT_MALLOC(new_node);
 1319              		.loc 1 211 40 is_stmt 0 view .LVU384
 1320 0014 04F15400 		add	r0, r4, #84
 1321              	.LBE24:
 208:Drivers/lvgl/src/extra/widgets/menu/lv_menu.c ****         /* Add a new node */
 1322              		.loc 1 208 7 view .LVU385
 1323 0018 9DB3     		cbz	r5, .L97
 1324              	.LBB25:
 210:Drivers/lvgl/src/extra/widgets/menu/lv_menu.c ****         lv_menu_history_t * new_node = _lv_ll_ins_head(history_ll);
 1325              		.loc 1 210 9 is_stmt 1 view .LVU386
 1326              	.LVL154:
 211:Drivers/lvgl/src/extra/widgets/menu/lv_menu.c ****         LV_ASSERT_MALLOC(new_node);
 1327              		.loc 1 211 9 view .LVU387
 211:Drivers/lvgl/src/extra/widgets/menu/lv_menu.c ****         LV_ASSERT_MALLOC(new_node);
 1328              		.loc 1 211 40 is_stmt 0 view .LVU388
 1329 001a FFF7FEFF 		bl	_lv_ll_ins_head
 1330              	.LVL155:
 212:Drivers/lvgl/src/extra/widgets/menu/lv_menu.c ****         new_node->page = page;
 1331              		.loc 1 212 9 is_stmt 1 view .LVU389
 212:Drivers/lvgl/src/extra/widgets/menu/lv_menu.c ****         new_node->page = page;
 1332              		.loc 1 212 9 view .LVU390
 1333 001e 78B3     		cbz	r0, .L99
 212:Drivers/lvgl/src/extra/widgets/menu/lv_menu.c ****         new_node->page = page;
 1334              		.loc 1 212 9 discriminator 2 view .LVU391
 212:Drivers/lvgl/src/extra/widgets/menu/lv_menu.c ****         new_node->page = page;
 1335              		.loc 1 212 35 discriminator 2 view .LVU392
 213:Drivers/lvgl/src/extra/widgets/menu/lv_menu.c ****         menu->cur_depth++;
 1336              		.loc 1 213 9 discriminator 2 view .LVU393
 213:Drivers/lvgl/src/extra/widgets/menu/lv_menu.c ****         menu->cur_depth++;
 1337              		.loc 1 213 24 is_stmt 0 discriminator 2 view .LVU394
 1338 0020 0560     		str	r5, [r0]
 214:Drivers/lvgl/src/extra/widgets/menu/lv_menu.c **** 
 1339              		.loc 1 214 9 is_stmt 1 discriminator 2 view .LVU395
 214:Drivers/lvgl/src/extra/widgets/menu/lv_menu.c **** 
 1340              		.loc 1 214 24 is_stmt 0 discriminator 2 view .LVU396
 1341 0022 94F86030 		ldrb	r3, [r4, #96]	@ zero_extendqisi2
 217:Drivers/lvgl/src/extra/widgets/menu/lv_menu.c ****     }
 1342              		.loc 1 217 9 discriminator 2 view .LVU397
 1343 0026 A16A     		ldr	r1, [r4, #40]
 214:Drivers/lvgl/src/extra/widgets/menu/lv_menu.c **** 
 1344              		.loc 1 214 24 discriminator 2 view .LVU398
 1345 0028 0133     		adds	r3, r3, #1
 1346 002a 84F86030 		strb	r3, [r4, #96]
 217:Drivers/lvgl/src/extra/widgets/menu/lv_menu.c ****     }
 1347              		.loc 1 217 9 is_stmt 1 discriminator 2 view .LVU399
 1348 002e 2846     		mov	r0, r5
 1349              	.LVL156:
 217:Drivers/lvgl/src/extra/widgets/menu/lv_menu.c ****     }
 1350              		.loc 1 217 9 is_stmt 0 discriminator 2 view .LVU400
 1351 0030 FFF7FEFF 		bl	lv_obj_set_parent
 1352              	.LVL157:
 1353              	.L100:
ARM GAS  /var/folders/0z/tsy30v1j4xl4_7kw94k978ww0000gn/T//ccS6OLnK.s 			page 44


 217:Drivers/lvgl/src/extra/widgets/menu/lv_menu.c ****     }
 1354              		.loc 1 217 9 discriminator 2 view .LVU401
 1355              	.LBE25:
 224:Drivers/lvgl/src/extra/widgets/menu/lv_menu.c **** 
 1356              		.loc 1 224 5 is_stmt 1 view .LVU402
 227:Drivers/lvgl/src/extra/widgets/menu/lv_menu.c ****         if(menu->sidebar_page != NULL) {
 1357              		.loc 1 227 12 is_stmt 0 view .LVU403
 1358 0034 206D     		ldr	r0, [r4, #80]
 224:Drivers/lvgl/src/extra/widgets/menu/lv_menu.c **** 
 1359              		.loc 1 224 21 view .LVU404
 1360 0036 E562     		str	r5, [r4, #44]
 227:Drivers/lvgl/src/extra/widgets/menu/lv_menu.c ****         if(menu->sidebar_page != NULL) {
 1361              		.loc 1 227 5 is_stmt 1 view .LVU405
 227:Drivers/lvgl/src/extra/widgets/menu/lv_menu.c ****         if(menu->sidebar_page != NULL) {
 1362              		.loc 1 227 7 is_stmt 0 view .LVU406
 1363 0038 28B1     		cbz	r0, .L101
 228:Drivers/lvgl/src/extra/widgets/menu/lv_menu.c ****             lv_obj_add_state(menu->selected_tab, LV_STATE_CHECKED);
 1364              		.loc 1 228 9 is_stmt 1 view .LVU407
 228:Drivers/lvgl/src/extra/widgets/menu/lv_menu.c ****             lv_obj_add_state(menu->selected_tab, LV_STATE_CHECKED);
 1365              		.loc 1 228 11 is_stmt 0 view .LVU408
 1366 003a 236C     		ldr	r3, [r4, #64]
 229:Drivers/lvgl/src/extra/widgets/menu/lv_menu.c ****         }
 1367              		.loc 1 229 13 view .LVU409
 1368 003c 0121     		movs	r1, #1
 228:Drivers/lvgl/src/extra/widgets/menu/lv_menu.c ****             lv_obj_add_state(menu->selected_tab, LV_STATE_CHECKED);
 1369              		.loc 1 228 11 view .LVU410
 1370 003e 002B     		cmp	r3, #0
 1371 0040 45D0     		beq	.L102
 229:Drivers/lvgl/src/extra/widgets/menu/lv_menu.c ****         }
 1372              		.loc 1 229 13 is_stmt 1 view .LVU411
 1373 0042 FFF7FEFF 		bl	lv_obj_add_state
 1374              	.LVL158:
 1375              	.L101:
 237:Drivers/lvgl/src/extra/widgets/menu/lv_menu.c ****         /* With sidebar enabled */
 1376              		.loc 1 237 5 view .LVU412
 237:Drivers/lvgl/src/extra/widgets/menu/lv_menu.c ****         /* With sidebar enabled */
 1377              		.loc 1 237 7 is_stmt 0 view .LVU413
 1378 0046 236C     		ldr	r3, [r4, #64]
 1379 0048 B3B3     		cbz	r3, .L103
 239:Drivers/lvgl/src/extra/widgets/menu/lv_menu.c ****             if(menu->mode_root_back_btn == LV_MENU_ROOT_BACK_BTN_ENABLED) {
 1380              		.loc 1 239 9 is_stmt 1 view .LVU414
 239:Drivers/lvgl/src/extra/widgets/menu/lv_menu.c ****             if(menu->mode_root_back_btn == LV_MENU_ROOT_BACK_BTN_ENABLED) {
 1381              		.loc 1 239 12 is_stmt 0 view .LVU415
 1382 004a 94F86230 		ldrb	r3, [r4, #98]	@ zero_extendqisi2
 239:Drivers/lvgl/src/extra/widgets/menu/lv_menu.c ****             if(menu->mode_root_back_btn == LV_MENU_ROOT_BACK_BTN_ENABLED) {
 1383              		.loc 1 239 11 view .LVU416
 1384 004e D907     		lsls	r1, r3, #31
 1385 0050 1CD4     		bmi	.L122
 1386              	.L104:
 251:Drivers/lvgl/src/extra/widgets/menu/lv_menu.c ****             lv_obj_clear_flag(menu->main_header_back_btn, LV_OBJ_FLAG_HIDDEN);
 1387              		.loc 1 251 9 is_stmt 1 view .LVU417
 251:Drivers/lvgl/src/extra/widgets/menu/lv_menu.c ****             lv_obj_clear_flag(menu->main_header_back_btn, LV_OBJ_FLAG_HIDDEN);
 1388              		.loc 1 251 11 is_stmt 0 view .LVU418
 1389 0052 94F86030 		ldrb	r3, [r4, #96]	@ zero_extendqisi2
 252:Drivers/lvgl/src/extra/widgets/menu/lv_menu.c ****             lv_obj_add_flag(menu->main_header_back_btn, LV_OBJ_FLAG_CLICKABLE);
 1390              		.loc 1 252 13 view .LVU419
 1391 0056 606B     		ldr	r0, [r4, #52]
ARM GAS  /var/folders/0z/tsy30v1j4xl4_7kw94k978ww0000gn/T//ccS6OLnK.s 			page 45


 251:Drivers/lvgl/src/extra/widgets/menu/lv_menu.c ****             lv_obj_clear_flag(menu->main_header_back_btn, LV_OBJ_FLAG_HIDDEN);
 1392              		.loc 1 251 11 view .LVU420
 1393 0058 012B     		cmp	r3, #1
 252:Drivers/lvgl/src/extra/widgets/menu/lv_menu.c ****             lv_obj_add_flag(menu->main_header_back_btn, LV_OBJ_FLAG_CLICKABLE);
 1394              		.loc 1 252 13 view .LVU421
 1395 005a 4FF00101 		mov	r1, #1
 251:Drivers/lvgl/src/extra/widgets/menu/lv_menu.c ****             lv_obj_clear_flag(menu->main_header_back_btn, LV_OBJ_FLAG_HIDDEN);
 1396              		.loc 1 251 11 view .LVU422
 1397 005e 23D9     		bls	.L121
 1398              	.L120:
 263:Drivers/lvgl/src/extra/widgets/menu/lv_menu.c ****             lv_obj_add_flag(menu->main_header_back_btn, LV_OBJ_FLAG_CLICKABLE);
 1399              		.loc 1 263 13 view .LVU423
 1400 0060 FFF7FEFF 		bl	lv_obj_clear_flag
 1401              	.LVL159:
 264:Drivers/lvgl/src/extra/widgets/menu/lv_menu.c ****         }
 1402              		.loc 1 264 13 is_stmt 1 view .LVU424
 1403 0064 606B     		ldr	r0, [r4, #52]
 1404 0066 0221     		movs	r1, #2
 1405 0068 FFF7FEFF 		bl	lv_obj_add_flag
 1406              	.LVL160:
 1407              	.L107:
 272:Drivers/lvgl/src/extra/widgets/menu/lv_menu.c **** 
 1408              		.loc 1 272 5 view .LVU425
 1409 006c 2046     		mov	r0, r4
 1410 006e 0022     		movs	r2, #0
 1411 0070 1C21     		movs	r1, #28
 1412 0072 FFF7FEFF 		bl	lv_event_send
 1413              	.LVL161:
 274:Drivers/lvgl/src/extra/widgets/menu/lv_menu.c **** }
 1414              		.loc 1 274 5 view .LVU426
 1415 0076 2046     		mov	r0, r4
 275:Drivers/lvgl/src/extra/widgets/menu/lv_menu.c **** 
 1416              		.loc 1 275 1 is_stmt 0 view .LVU427
 1417 0078 BDE83840 		pop	{r3, r4, r5, lr}
 1418              		.cfi_remember_state
 1419              		.cfi_restore 14
 1420              		.cfi_restore 5
 1421              		.cfi_restore 4
 1422              		.cfi_restore 3
 1423              		.cfi_def_cfa_offset 0
 1424              	.LVL162:
 274:Drivers/lvgl/src/extra/widgets/menu/lv_menu.c **** }
 1425              		.loc 1 274 5 view .LVU428
 1426 007c FFF7FEBF 		b	lv_menu_refr_main_header_mode
 1427              	.LVL163:
 1428              	.L99:
 1429              		.cfi_restore_state
 1430              	.LBB26:
 212:Drivers/lvgl/src/extra/widgets/menu/lv_menu.c ****         new_node->page = page;
 1431              		.loc 1 212 9 is_stmt 1 discriminator 1 view .LVU429
 212:Drivers/lvgl/src/extra/widgets/menu/lv_menu.c ****         new_node->page = page;
 1432              		.loc 1 212 9 discriminator 1 view .LVU430
 212:Drivers/lvgl/src/extra/widgets/menu/lv_menu.c ****         new_node->page = page;
 1433              		.loc 1 212 9 discriminator 1 view .LVU431
 212:Drivers/lvgl/src/extra/widgets/menu/lv_menu.c ****         new_node->page = page;
 1434              		.loc 1 212 9 discriminator 1 view .LVU432
 212:Drivers/lvgl/src/extra/widgets/menu/lv_menu.c ****         new_node->page = page;
ARM GAS  /var/folders/0z/tsy30v1j4xl4_7kw94k978ww0000gn/T//ccS6OLnK.s 			page 46


 1435              		.loc 1 212 9 discriminator 1 view .LVU433
 212:Drivers/lvgl/src/extra/widgets/menu/lv_menu.c ****         new_node->page = page;
 1436              		.loc 1 212 9 discriminator 1 view .LVU434
 212:Drivers/lvgl/src/extra/widgets/menu/lv_menu.c ****         new_node->page = page;
 1437              		.loc 1 212 9 discriminator 1 view .LVU435
 212:Drivers/lvgl/src/extra/widgets/menu/lv_menu.c ****         new_node->page = page;
 1438              		.loc 1 212 9 discriminator 1 view .LVU436
 212:Drivers/lvgl/src/extra/widgets/menu/lv_menu.c ****         new_node->page = page;
 1439              		.loc 1 212 9 discriminator 1 view .LVU437
 212:Drivers/lvgl/src/extra/widgets/menu/lv_menu.c ****         new_node->page = page;
 1440              		.loc 1 212 9 discriminator 1 view .LVU438
 1441 0080 FEE7     		b	.L99
 1442              	.LVL164:
 1443              	.L97:
 212:Drivers/lvgl/src/extra/widgets/menu/lv_menu.c ****         new_node->page = page;
 1444              		.loc 1 212 9 is_stmt 0 discriminator 1 view .LVU439
 1445              	.LBE26:
 221:Drivers/lvgl/src/extra/widgets/menu/lv_menu.c ****     }
 1446              		.loc 1 221 9 is_stmt 1 view .LVU440
 1447              	.LBB27:
 1448              	.LBI27:
 453:Drivers/lvgl/src/extra/widgets/menu/lv_menu.c **** {
 1449              		.loc 1 453 6 view .LVU441
 1450              	.LBB28:
 455:Drivers/lvgl/src/extra/widgets/menu/lv_menu.c **** 
 1451              		.loc 1 455 5 view .LVU442
 455:Drivers/lvgl/src/extra/widgets/menu/lv_menu.c **** 
 1452              		.loc 1 455 5 view .LVU443
 455:Drivers/lvgl/src/extra/widgets/menu/lv_menu.c **** 
 1453              		.loc 1 455 5 view .LVU444
 457:Drivers/lvgl/src/extra/widgets/menu/lv_menu.c ****     lv_ll_t * history_ll = &(menu->history_ll);
 1454              		.loc 1 457 5 view .LVU445
 458:Drivers/lvgl/src/extra/widgets/menu/lv_menu.c **** 
 1455              		.loc 1 458 5 view .LVU446
 460:Drivers/lvgl/src/extra/widgets/menu/lv_menu.c **** 
 1456              		.loc 1 460 5 view .LVU447
 1457 0082 FFF7FEFF 		bl	_lv_ll_clear
 1458              	.LVL165:
 462:Drivers/lvgl/src/extra/widgets/menu/lv_menu.c **** }
 1459              		.loc 1 462 5 view .LVU448
 462:Drivers/lvgl/src/extra/widgets/menu/lv_menu.c **** }
 1460              		.loc 1 462 21 is_stmt 0 view .LVU449
 1461 0086 84F86050 		strb	r5, [r4, #96]
 463:Drivers/lvgl/src/extra/widgets/menu/lv_menu.c **** 
 1462              		.loc 1 463 1 view .LVU450
 1463 008a D3E7     		b	.L100
 1464              	.LVL166:
 1465              	.L122:
 463:Drivers/lvgl/src/extra/widgets/menu/lv_menu.c **** 
 1466              		.loc 1 463 1 view .LVU451
 1467              	.LBE28:
 1468              	.LBE27:
 240:Drivers/lvgl/src/extra/widgets/menu/lv_menu.c ****                 /* Root back btn is always shown if enabled*/
 1469              		.loc 1 240 13 is_stmt 1 view .LVU452
 240:Drivers/lvgl/src/extra/widgets/menu/lv_menu.c ****                 /* Root back btn is always shown if enabled*/
 1470              		.loc 1 240 15 is_stmt 0 view .LVU453
 1471 008c 1A07     		lsls	r2, r3, #28
ARM GAS  /var/folders/0z/tsy30v1j4xl4_7kw94k978ww0000gn/T//ccS6OLnK.s 			page 47


 242:Drivers/lvgl/src/extra/widgets/menu/lv_menu.c ****                 lv_obj_add_flag(menu->sidebar_header_back_btn, LV_OBJ_FLAG_CLICKABLE);
 1472              		.loc 1 242 17 view .LVU454
 1473 008e A06C     		ldr	r0, [r4, #72]
 1474 0090 4FF00101 		mov	r1, #1
 240:Drivers/lvgl/src/extra/widgets/menu/lv_menu.c ****                 /* Root back btn is always shown if enabled*/
 1475              		.loc 1 240 15 view .LVU455
 1476 0094 1ED5     		bpl	.L105
 242:Drivers/lvgl/src/extra/widgets/menu/lv_menu.c ****                 lv_obj_add_flag(menu->sidebar_header_back_btn, LV_OBJ_FLAG_CLICKABLE);
 1477              		.loc 1 242 17 is_stmt 1 view .LVU456
 1478 0096 FFF7FEFF 		bl	lv_obj_clear_flag
 1479              	.LVL167:
 243:Drivers/lvgl/src/extra/widgets/menu/lv_menu.c ****             }
 1480              		.loc 1 243 17 view .LVU457
 1481 009a A06C     		ldr	r0, [r4, #72]
 1482 009c 0221     		movs	r1, #2
 1483 009e FFF7FEFF 		bl	lv_obj_add_flag
 1484              	.LVL168:
 1485 00a2 D6E7     		b	.L104
 1486              	.L109:
 267:Drivers/lvgl/src/extra/widgets/menu/lv_menu.c ****             lv_obj_clear_flag(menu->main_header_back_btn, LV_OBJ_FLAG_CLICKABLE);
 1487              		.loc 1 267 13 view .LVU458
 1488 00a4 606B     		ldr	r0, [r4, #52]
 1489 00a6 0121     		movs	r1, #1
 1490              	.L121:
 267:Drivers/lvgl/src/extra/widgets/menu/lv_menu.c ****             lv_obj_clear_flag(menu->main_header_back_btn, LV_OBJ_FLAG_CLICKABLE);
 1491              		.loc 1 267 13 is_stmt 0 view .LVU459
 1492 00a8 FFF7FEFF 		bl	lv_obj_add_flag
 1493              	.LVL169:
 268:Drivers/lvgl/src/extra/widgets/menu/lv_menu.c ****         }
 1494              		.loc 1 268 13 is_stmt 1 view .LVU460
 1495 00ac 606B     		ldr	r0, [r4, #52]
 1496 00ae 0221     		movs	r1, #2
 1497 00b0 FFF7FEFF 		bl	lv_obj_clear_flag
 1498              	.LVL170:
 1499 00b4 DAE7     		b	.L107
 1500              	.LVL171:
 1501              	.L94:
 275:Drivers/lvgl/src/extra/widgets/menu/lv_menu.c **** 
 1502              		.loc 1 275 1 is_stmt 0 view .LVU461
 1503 00b6 38BD     		pop	{r3, r4, r5, pc}
 1504              	.LVL172:
 1505              	.L103:
 262:Drivers/lvgl/src/extra/widgets/menu/lv_menu.c ****             lv_obj_clear_flag(menu->main_header_back_btn, LV_OBJ_FLAG_HIDDEN);
 1506              		.loc 1 262 9 is_stmt 1 view .LVU462
 262:Drivers/lvgl/src/extra/widgets/menu/lv_menu.c ****             lv_obj_clear_flag(menu->main_header_back_btn, LV_OBJ_FLAG_HIDDEN);
 1507              		.loc 1 262 11 is_stmt 0 view .LVU463
 1508 00b8 94F86030 		ldrb	r3, [r4, #96]	@ zero_extendqisi2
 1509 00bc 012B     		cmp	r3, #1
 1510 00be 03D8     		bhi	.L108
 262:Drivers/lvgl/src/extra/widgets/menu/lv_menu.c ****             lv_obj_clear_flag(menu->main_header_back_btn, LV_OBJ_FLAG_HIDDEN);
 1511              		.loc 1 262 61 discriminator 1 view .LVU464
 1512 00c0 94F86230 		ldrb	r3, [r4, #98]	@ zero_extendqisi2
 262:Drivers/lvgl/src/extra/widgets/menu/lv_menu.c ****             lv_obj_clear_flag(menu->main_header_back_btn, LV_OBJ_FLAG_HIDDEN);
 1513              		.loc 1 262 33 discriminator 1 view .LVU465
 1514 00c4 1B07     		lsls	r3, r3, #28
 1515 00c6 EDD5     		bpl	.L109
 1516              	.L108:
ARM GAS  /var/folders/0z/tsy30v1j4xl4_7kw94k978ww0000gn/T//ccS6OLnK.s 			page 48


 263:Drivers/lvgl/src/extra/widgets/menu/lv_menu.c ****             lv_obj_add_flag(menu->main_header_back_btn, LV_OBJ_FLAG_CLICKABLE);
 1517              		.loc 1 263 13 is_stmt 1 view .LVU466
 1518 00c8 606B     		ldr	r0, [r4, #52]
 1519 00ca 0121     		movs	r1, #1
 1520 00cc C8E7     		b	.L120
 1521              	.L102:
 232:Drivers/lvgl/src/extra/widgets/menu/lv_menu.c ****         }
 1522              		.loc 1 232 13 view .LVU467
 1523 00ce FFF7FEFF 		bl	lv_obj_clear_state
 1524              	.LVL173:
 1525 00d2 B8E7     		b	.L101
 1526              	.L105:
 246:Drivers/lvgl/src/extra/widgets/menu/lv_menu.c ****                 lv_obj_clear_flag(menu->sidebar_header_back_btn, LV_OBJ_FLAG_CLICKABLE);
 1527              		.loc 1 246 17 view .LVU468
 1528 00d4 FFF7FEFF 		bl	lv_obj_add_flag
 1529              	.LVL174:
 247:Drivers/lvgl/src/extra/widgets/menu/lv_menu.c ****             }
 1530              		.loc 1 247 17 view .LVU469
 1531 00d8 A06C     		ldr	r0, [r4, #72]
 1532 00da 0221     		movs	r1, #2
 1533 00dc FFF7FEFF 		bl	lv_obj_clear_flag
 1534              	.LVL175:
 1535 00e0 B7E7     		b	.L104
 1536              		.cfi_endproc
 1537              	.LFE172:
 1539 00e2 00BF     		.section	.text.lv_menu_back_event_cb,"ax",%progbits
 1540              		.align	1
 1541              		.p2align 2,,3
 1542              		.syntax unified
 1543              		.thumb
 1544              		.thumb_func
 1546              	lv_menu_back_event_cb:
 1547              	.LVL176:
 1548              	.LFB195:
 707:Drivers/lvgl/src/extra/widgets/menu/lv_menu.c ****     lv_event_code_t code = lv_event_get_code(e);
 1549              		.loc 1 707 1 view -0
 1550              		.cfi_startproc
 1551              		@ args = 0, pretend = 0, frame = 0
 1552              		@ frame_needed = 0, uses_anonymous_args = 0
 708:Drivers/lvgl/src/extra/widgets/menu/lv_menu.c ****     /* LV_EVENT_CLICKED */
 1553              		.loc 1 708 5 view .LVU471
 707:Drivers/lvgl/src/extra/widgets/menu/lv_menu.c ****     lv_event_code_t code = lv_event_get_code(e);
 1554              		.loc 1 707 1 is_stmt 0 view .LVU472
 1555 0000 F8B5     		push	{r3, r4, r5, r6, r7, lr}
 1556              		.cfi_def_cfa_offset 24
 1557              		.cfi_offset 3, -24
 1558              		.cfi_offset 4, -20
 1559              		.cfi_offset 5, -16
 1560              		.cfi_offset 6, -12
 1561              		.cfi_offset 7, -8
 1562              		.cfi_offset 14, -4
 707:Drivers/lvgl/src/extra/widgets/menu/lv_menu.c ****     lv_event_code_t code = lv_event_get_code(e);
 1563              		.loc 1 707 1 view .LVU473
 1564 0002 0446     		mov	r4, r0
 708:Drivers/lvgl/src/extra/widgets/menu/lv_menu.c ****     /* LV_EVENT_CLICKED */
 1565              		.loc 1 708 28 view .LVU474
 1566 0004 FFF7FEFF 		bl	lv_event_get_code
ARM GAS  /var/folders/0z/tsy30v1j4xl4_7kw94k978ww0000gn/T//ccS6OLnK.s 			page 49


 1567              	.LVL177:
 710:Drivers/lvgl/src/extra/widgets/menu/lv_menu.c ****         lv_obj_t * obj = lv_event_get_target(e);
 1568              		.loc 1 710 5 is_stmt 1 view .LVU475
 710:Drivers/lvgl/src/extra/widgets/menu/lv_menu.c ****         lv_obj_t * obj = lv_event_get_target(e);
 1569              		.loc 1 710 7 is_stmt 0 view .LVU476
 1570 0008 0728     		cmp	r0, #7
 1571 000a 00D0     		beq	.L136
 1572              	.LVL178:
 1573              	.L123:
 743:Drivers/lvgl/src/extra/widgets/menu/lv_menu.c **** 
 1574              		.loc 1 743 1 view .LVU477
 1575 000c F8BD     		pop	{r3, r4, r5, r6, r7, pc}
 1576              	.LVL179:
 1577              	.L136:
 1578              	.LBB35:
 1579              	.LBI35:
 706:Drivers/lvgl/src/extra/widgets/menu/lv_menu.c **** {
 1580              		.loc 1 706 13 is_stmt 1 view .LVU478
 1581              	.LBB36:
 1582              	.LBB37:
 711:Drivers/lvgl/src/extra/widgets/menu/lv_menu.c ****         lv_menu_t * menu = (lv_menu_t *)lv_event_get_user_data(e);
 1583              		.loc 1 711 9 view .LVU479
 711:Drivers/lvgl/src/extra/widgets/menu/lv_menu.c ****         lv_menu_t * menu = (lv_menu_t *)lv_event_get_user_data(e);
 1584              		.loc 1 711 26 is_stmt 0 view .LVU480
 1585 000e 2046     		mov	r0, r4
 1586              	.LVL180:
 711:Drivers/lvgl/src/extra/widgets/menu/lv_menu.c ****         lv_menu_t * menu = (lv_menu_t *)lv_event_get_user_data(e);
 1587              		.loc 1 711 26 view .LVU481
 1588 0010 FFF7FEFF 		bl	lv_event_get_target
 1589              	.LVL181:
 1590 0014 0546     		mov	r5, r0
 712:Drivers/lvgl/src/extra/widgets/menu/lv_menu.c **** 
 1591              		.loc 1 712 41 view .LVU482
 1592 0016 2046     		mov	r0, r4
 1593              	.LVL182:
 712:Drivers/lvgl/src/extra/widgets/menu/lv_menu.c **** 
 1594              		.loc 1 712 9 is_stmt 1 view .LVU483
 712:Drivers/lvgl/src/extra/widgets/menu/lv_menu.c **** 
 1595              		.loc 1 712 41 is_stmt 0 view .LVU484
 1596 0018 FFF7FEFF 		bl	lv_event_get_user_data
 1597              	.LVL183:
 714:Drivers/lvgl/src/extra/widgets/menu/lv_menu.c **** 
 1598              		.loc 1 714 11 view .LVU485
 1599 001c 436B     		ldr	r3, [r0, #52]
 1600 001e 9D42     		cmp	r5, r3
 712:Drivers/lvgl/src/extra/widgets/menu/lv_menu.c **** 
 1601              		.loc 1 712 41 view .LVU486
 1602 0020 0446     		mov	r4, r0
 1603              	.LVL184:
 714:Drivers/lvgl/src/extra/widgets/menu/lv_menu.c **** 
 1604              		.loc 1 714 9 is_stmt 1 view .LVU487
 714:Drivers/lvgl/src/extra/widgets/menu/lv_menu.c **** 
 1605              		.loc 1 714 11 is_stmt 0 view .LVU488
 1606 0022 07D0     		beq	.L126
 714:Drivers/lvgl/src/extra/widgets/menu/lv_menu.c **** 
 1607              		.loc 1 714 12 view .LVU489
 1608 0024 836C     		ldr	r3, [r0, #72]
ARM GAS  /var/folders/0z/tsy30v1j4xl4_7kw94k978ww0000gn/T//ccS6OLnK.s 			page 50


 1609 0026 9D42     		cmp	r5, r3
 1610 0028 F0D1     		bne	.L123
 716:Drivers/lvgl/src/extra/widgets/menu/lv_menu.c **** 
 1611              		.loc 1 716 9 is_stmt 1 view .LVU490
 716:Drivers/lvgl/src/extra/widgets/menu/lv_menu.c **** 
 1612              		.loc 1 716 26 is_stmt 0 view .LVU491
 1613 002a 90F86030 		ldrb	r3, [r0, #96]	@ zero_extendqisi2
 1614 002e 80F86130 		strb	r3, [r0, #97]
 718:Drivers/lvgl/src/extra/widgets/menu/lv_menu.c **** 
 1615              		.loc 1 718 9 is_stmt 1 view .LVU492
 1616              	.LVL185:
 1617              	.LBB38:
 1618              	.LBI38:
 438:Drivers/lvgl/src/extra/widgets/menu/lv_menu.c **** {
 1619              		.loc 1 438 6 view .LVU493
 1620              	.LBB39:
 440:Drivers/lvgl/src/extra/widgets/menu/lv_menu.c **** 
 1621              		.loc 1 440 5 view .LVU494
 440:Drivers/lvgl/src/extra/widgets/menu/lv_menu.c **** 
 1622              		.loc 1 440 5 view .LVU495
 440:Drivers/lvgl/src/extra/widgets/menu/lv_menu.c **** 
 1623              		.loc 1 440 5 view .LVU496
 442:Drivers/lvgl/src/extra/widgets/menu/lv_menu.c ****         return true;
 1624              		.loc 1 442 5 view .LVU497
 1625              	.LBE39:
 1626              	.LBE38:
 1627              	.LBE37:
 1628              	.LBE36:
 1629              	.LBE35:
 743:Drivers/lvgl/src/extra/widgets/menu/lv_menu.c **** 
 1630              		.loc 1 743 1 is_stmt 0 view .LVU498
 1631 0032 F8BD     		pop	{r3, r4, r5, r6, r7, pc}
 1632              	.LVL186:
 1633              	.L126:
 1634              	.LBB48:
 1635              	.LBB46:
 1636              	.LBB44:
 716:Drivers/lvgl/src/extra/widgets/menu/lv_menu.c **** 
 1637              		.loc 1 716 9 is_stmt 1 view .LVU499
 1638              	.LBB42:
 1639              	.LBB40:
 442:Drivers/lvgl/src/extra/widgets/menu/lv_menu.c ****         return true;
 1640              		.loc 1 442 7 is_stmt 0 view .LVU500
 1641 0034 826C     		ldr	r2, [r0, #72]
 1642              	.LBE40:
 1643              	.LBE42:
 716:Drivers/lvgl/src/extra/widgets/menu/lv_menu.c **** 
 1644              		.loc 1 716 32 view .LVU501
 1645 0036 90F86030 		ldrb	r3, [r0, #96]	@ zero_extendqisi2
 716:Drivers/lvgl/src/extra/widgets/menu/lv_menu.c **** 
 1646              		.loc 1 716 26 view .LVU502
 1647 003a 80F86130 		strb	r3, [r0, #97]
 718:Drivers/lvgl/src/extra/widgets/menu/lv_menu.c **** 
 1648              		.loc 1 718 9 is_stmt 1 view .LVU503
 1649              	.LVL187:
 1650              	.LBB43:
 438:Drivers/lvgl/src/extra/widgets/menu/lv_menu.c **** {
ARM GAS  /var/folders/0z/tsy30v1j4xl4_7kw94k978ww0000gn/T//ccS6OLnK.s 			page 51


 1651              		.loc 1 438 6 view .LVU504
 1652              	.LBB41:
 440:Drivers/lvgl/src/extra/widgets/menu/lv_menu.c **** 
 1653              		.loc 1 440 5 view .LVU505
 440:Drivers/lvgl/src/extra/widgets/menu/lv_menu.c **** 
 1654              		.loc 1 440 5 view .LVU506
 440:Drivers/lvgl/src/extra/widgets/menu/lv_menu.c **** 
 1655              		.loc 1 440 5 view .LVU507
 442:Drivers/lvgl/src/extra/widgets/menu/lv_menu.c ****         return true;
 1656              		.loc 1 442 5 view .LVU508
 442:Drivers/lvgl/src/extra/widgets/menu/lv_menu.c ****         return true;
 1657              		.loc 1 442 7 is_stmt 0 view .LVU509
 1658 003e 9542     		cmp	r5, r2
 1659 0040 E4D0     		beq	.L123
 446:Drivers/lvgl/src/extra/widgets/menu/lv_menu.c ****         return true;
 1660              		.loc 1 446 5 is_stmt 1 view .LVU510
 446:Drivers/lvgl/src/extra/widgets/menu/lv_menu.c ****         return true;
 1661              		.loc 1 446 57 is_stmt 0 view .LVU511
 1662 0042 012B     		cmp	r3, #1
 1663 0044 E2D9     		bls	.L123
 1664              	.LVL188:
 446:Drivers/lvgl/src/extra/widgets/menu/lv_menu.c ****         return true;
 1665              		.loc 1 446 57 view .LVU512
 1666              	.LBE41:
 1667              	.LBE43:
 720:Drivers/lvgl/src/extra/widgets/menu/lv_menu.c **** 
 1668              		.loc 1 720 9 is_stmt 1 view .LVU513
 720:Drivers/lvgl/src/extra/widgets/menu/lv_menu.c **** 
 1669              		.loc 1 720 19 is_stmt 0 view .LVU514
 1670 0046 04F15407 		add	r7, r4, #84
 1671              	.LVL189:
 723:Drivers/lvgl/src/extra/widgets/menu/lv_menu.c **** 
 1672              		.loc 1 723 9 is_stmt 1 view .LVU515
 723:Drivers/lvgl/src/extra/widgets/menu/lv_menu.c **** 
 1673              		.loc 1 723 40 is_stmt 0 view .LVU516
 1674 004a 3846     		mov	r0, r7
 1675              	.LVL190:
 723:Drivers/lvgl/src/extra/widgets/menu/lv_menu.c **** 
 1676              		.loc 1 723 40 view .LVU517
 1677 004c FFF7FEFF 		bl	_lv_ll_get_head
 1678              	.LVL191:
 726:Drivers/lvgl/src/extra/widgets/menu/lv_menu.c **** 
 1679              		.loc 1 726 41 view .LVU518
 1680 0050 0146     		mov	r1, r0
 723:Drivers/lvgl/src/extra/widgets/menu/lv_menu.c **** 
 1681              		.loc 1 723 40 view .LVU519
 1682 0052 0646     		mov	r6, r0
 1683              	.LVL192:
 726:Drivers/lvgl/src/extra/widgets/menu/lv_menu.c **** 
 1684              		.loc 1 726 9 is_stmt 1 view .LVU520
 726:Drivers/lvgl/src/extra/widgets/menu/lv_menu.c **** 
 1685              		.loc 1 726 41 is_stmt 0 view .LVU521
 1686 0054 3846     		mov	r0, r7
 1687              	.LVL193:
 726:Drivers/lvgl/src/extra/widgets/menu/lv_menu.c **** 
 1688              		.loc 1 726 41 view .LVU522
 1689 0056 FFF7FEFF 		bl	_lv_ll_get_next
ARM GAS  /var/folders/0z/tsy30v1j4xl4_7kw94k978ww0000gn/T//ccS6OLnK.s 			page 52


 1690              	.LVL194:
 728:Drivers/lvgl/src/extra/widgets/menu/lv_menu.c ****             /* Previous menu exists */
 1691              		.loc 1 728 9 is_stmt 1 view .LVU523
 728:Drivers/lvgl/src/extra/widgets/menu/lv_menu.c ****             /* Previous menu exists */
 1692              		.loc 1 728 11 is_stmt 0 view .LVU524
 1693 005a 0546     		mov	r5, r0
 1694              	.LVL195:
 728:Drivers/lvgl/src/extra/widgets/menu/lv_menu.c ****             /* Previous menu exists */
 1695              		.loc 1 728 11 view .LVU525
 1696 005c 0028     		cmp	r0, #0
 1697 005e D5D0     		beq	.L123
 731:Drivers/lvgl/src/extra/widgets/menu/lv_menu.c ****             lv_mem_free(act_hist);
 1698              		.loc 1 731 13 is_stmt 1 view .LVU526
 1699 0060 3146     		mov	r1, r6
 1700 0062 3846     		mov	r0, r7
 1701              	.LVL196:
 731:Drivers/lvgl/src/extra/widgets/menu/lv_menu.c ****             lv_mem_free(act_hist);
 1702              		.loc 1 731 13 is_stmt 0 view .LVU527
 1703 0064 FFF7FEFF 		bl	_lv_ll_remove
 1704              	.LVL197:
 732:Drivers/lvgl/src/extra/widgets/menu/lv_menu.c ****             menu->cur_depth--;
 1705              		.loc 1 732 13 is_stmt 1 view .LVU528
 1706 0068 3046     		mov	r0, r6
 1707 006a FFF7FEFF 		bl	lv_mem_free
 1708              	.LVL198:
 733:Drivers/lvgl/src/extra/widgets/menu/lv_menu.c ****             /* Create the previous menu.
 1709              		.loc 1 733 13 view .LVU529
 733:Drivers/lvgl/src/extra/widgets/menu/lv_menu.c ****             /* Create the previous menu.
 1710              		.loc 1 733 28 is_stmt 0 view .LVU530
 1711 006e 94F86030 		ldrb	r3, [r4, #96]	@ zero_extendqisi2
 1712 0072 013B     		subs	r3, r3, #1
 736:Drivers/lvgl/src/extra/widgets/menu/lv_menu.c ****             menu->cur_depth--;
 1713              		.loc 1 736 13 view .LVU531
 1714 0074 2946     		mov	r1, r5
 1715 0076 3846     		mov	r0, r7
 733:Drivers/lvgl/src/extra/widgets/menu/lv_menu.c ****             /* Create the previous menu.
 1716              		.loc 1 733 28 view .LVU532
 1717 0078 84F86030 		strb	r3, [r4, #96]
 736:Drivers/lvgl/src/extra/widgets/menu/lv_menu.c ****             menu->cur_depth--;
 1718              		.loc 1 736 13 is_stmt 1 view .LVU533
 1719 007c FFF7FEFF 		bl	_lv_ll_remove
 1720              	.LVL199:
 737:Drivers/lvgl/src/extra/widgets/menu/lv_menu.c ****             lv_menu_set_page(&(menu->obj), prev_hist->page);
 1721              		.loc 1 737 13 view .LVU534
 737:Drivers/lvgl/src/extra/widgets/menu/lv_menu.c ****             lv_menu_set_page(&(menu->obj), prev_hist->page);
 1722              		.loc 1 737 28 is_stmt 0 view .LVU535
 1723 0080 94F86030 		ldrb	r3, [r4, #96]	@ zero_extendqisi2
 1724 0084 013B     		subs	r3, r3, #1
 1725 0086 84F86030 		strb	r3, [r4, #96]
 738:Drivers/lvgl/src/extra/widgets/menu/lv_menu.c **** 
 1726              		.loc 1 738 13 is_stmt 1 view .LVU536
 1727 008a 2046     		mov	r0, r4
 1728 008c 2968     		ldr	r1, [r5]
 1729 008e FFF7FEFF 		bl	lv_menu_set_page
 1730              	.LVL200:
 740:Drivers/lvgl/src/extra/widgets/menu/lv_menu.c ****         }
 1731              		.loc 1 740 13 view .LVU537
ARM GAS  /var/folders/0z/tsy30v1j4xl4_7kw94k978ww0000gn/T//ccS6OLnK.s 			page 53


 1732 0092 2846     		mov	r0, r5
 1733              	.LBE44:
 1734              	.LBE46:
 1735              	.LBE48:
 743:Drivers/lvgl/src/extra/widgets/menu/lv_menu.c **** 
 1736              		.loc 1 743 1 is_stmt 0 view .LVU538
 1737 0094 BDE8F840 		pop	{r3, r4, r5, r6, r7, lr}
 1738              		.cfi_restore 14
 1739              		.cfi_restore 7
 1740              		.cfi_restore 6
 1741              		.cfi_restore 5
 1742              		.cfi_restore 4
 1743              		.cfi_restore 3
 1744              		.cfi_def_cfa_offset 0
 1745              	.LVL201:
 1746              	.LBB49:
 1747              	.LBB47:
 1748              	.LBB45:
 740:Drivers/lvgl/src/extra/widgets/menu/lv_menu.c ****         }
 1749              		.loc 1 740 13 view .LVU539
 1750 0098 FFF7FEBF 		b	lv_mem_free
 1751              	.LVL202:
 740:Drivers/lvgl/src/extra/widgets/menu/lv_menu.c ****         }
 1752              		.loc 1 740 13 view .LVU540
 1753              	.LBE45:
 1754              	.LBE47:
 1755              	.LBE49:
 1756              		.cfi_endproc
 1757              	.LFE195:
 1759              		.section	.text.lv_menu_load_page_event_cb,"ax",%progbits
 1760              		.align	1
 1761              		.p2align 2,,3
 1762              		.syntax unified
 1763              		.thumb
 1764              		.thumb_func
 1766              	lv_menu_load_page_event_cb:
 1767              	.LVL203:
 1768              	.LFB193:
 660:Drivers/lvgl/src/extra/widgets/menu/lv_menu.c ****     lv_obj_t * obj = lv_event_get_target(e);
 1769              		.loc 1 660 1 is_stmt 1 view -0
 1770              		.cfi_startproc
 1771              		@ args = 0, pretend = 0, frame = 0
 1772              		@ frame_needed = 0, uses_anonymous_args = 0
 661:Drivers/lvgl/src/extra/widgets/menu/lv_menu.c ****     lv_menu_load_page_event_data_t * event_data = lv_event_get_user_data(e);
 1773              		.loc 1 661 5 view .LVU542
 660:Drivers/lvgl/src/extra/widgets/menu/lv_menu.c ****     lv_obj_t * obj = lv_event_get_target(e);
 1774              		.loc 1 660 1 is_stmt 0 view .LVU543
 1775 0000 70B5     		push	{r4, r5, r6, lr}
 1776              		.cfi_def_cfa_offset 16
 1777              		.cfi_offset 4, -16
 1778              		.cfi_offset 5, -12
 1779              		.cfi_offset 6, -8
 1780              		.cfi_offset 14, -4
 660:Drivers/lvgl/src/extra/widgets/menu/lv_menu.c ****     lv_obj_t * obj = lv_event_get_target(e);
 1781              		.loc 1 660 1 view .LVU544
 1782 0002 0446     		mov	r4, r0
 661:Drivers/lvgl/src/extra/widgets/menu/lv_menu.c ****     lv_menu_load_page_event_data_t * event_data = lv_event_get_user_data(e);
ARM GAS  /var/folders/0z/tsy30v1j4xl4_7kw94k978ww0000gn/T//ccS6OLnK.s 			page 54


 1783              		.loc 1 661 22 view .LVU545
 1784 0004 FFF7FEFF 		bl	lv_event_get_target
 1785              	.LVL204:
 661:Drivers/lvgl/src/extra/widgets/menu/lv_menu.c ****     lv_menu_load_page_event_data_t * event_data = lv_event_get_user_data(e);
 1786              		.loc 1 661 22 view .LVU546
 1787 0008 0546     		mov	r5, r0
 662:Drivers/lvgl/src/extra/widgets/menu/lv_menu.c ****     lv_menu_t * menu = (lv_menu_t *)(event_data->menu);
 1788              		.loc 1 662 51 view .LVU547
 1789 000a 2046     		mov	r0, r4
 1790              	.LVL205:
 662:Drivers/lvgl/src/extra/widgets/menu/lv_menu.c ****     lv_menu_t * menu = (lv_menu_t *)(event_data->menu);
 1791              		.loc 1 662 5 is_stmt 1 view .LVU548
 662:Drivers/lvgl/src/extra/widgets/menu/lv_menu.c ****     lv_menu_t * menu = (lv_menu_t *)(event_data->menu);
 1792              		.loc 1 662 51 is_stmt 0 view .LVU549
 1793 000c FFF7FEFF 		bl	lv_event_get_user_data
 1794              	.LVL206:
 663:Drivers/lvgl/src/extra/widgets/menu/lv_menu.c ****     lv_obj_t * page = event_data->page;
 1795              		.loc 1 663 5 is_stmt 1 view .LVU550
 664:Drivers/lvgl/src/extra/widgets/menu/lv_menu.c **** 
 1796              		.loc 1 664 16 is_stmt 0 view .LVU551
 1797 0010 D0E90046 		ldrd	r4, r6, [r0]
 1798              	.LVL207:
 666:Drivers/lvgl/src/extra/widgets/menu/lv_menu.c ****         /* Check if clicked obj is in the sidebar */
 1799              		.loc 1 666 5 is_stmt 1 view .LVU552
 666:Drivers/lvgl/src/extra/widgets/menu/lv_menu.c ****         /* Check if clicked obj is in the sidebar */
 1800              		.loc 1 666 7 is_stmt 0 view .LVU553
 1801 0014 236C     		ldr	r3, [r4, #64]
 1802 0016 DBB1     		cbz	r3, .L139
 1803              	.LVL208:
 1804              	.LBB50:
 671:Drivers/lvgl/src/extra/widgets/menu/lv_menu.c ****             if(parent == (lv_obj_t *)menu) break;
 1805              		.loc 1 671 15 is_stmt 1 view .LVU554
 1806 0018 D5B1     		cbz	r5, .L139
 672:Drivers/lvgl/src/extra/widgets/menu/lv_menu.c ****             if(parent == menu->sidebar) {
 1807              		.loc 1 672 13 view .LVU555
 672:Drivers/lvgl/src/extra/widgets/menu/lv_menu.c ****             if(parent == menu->sidebar) {
 1808              		.loc 1 672 15 is_stmt 0 view .LVU556
 1809 001a A542     		cmp	r5, r4
 1810 001c 18D0     		beq	.L139
 1811 001e 2846     		mov	r0, r5
 1812              	.LVL209:
 672:Drivers/lvgl/src/extra/widgets/menu/lv_menu.c ****             if(parent == menu->sidebar) {
 1813              		.loc 1 672 15 view .LVU557
 1814 0020 04E0     		b	.L141
 1815              	.LVL210:
 1816              	.L157:
 677:Drivers/lvgl/src/extra/widgets/menu/lv_menu.c ****         }
 1817              		.loc 1 677 22 view .LVU558
 1818 0022 FFF7FEFF 		bl	lv_obj_get_parent
 1819              	.LVL211:
 672:Drivers/lvgl/src/extra/widgets/menu/lv_menu.c ****             if(parent == menu->sidebar) {
 1820              		.loc 1 672 13 is_stmt 1 view .LVU559
 671:Drivers/lvgl/src/extra/widgets/menu/lv_menu.c ****             if(parent == (lv_obj_t *)menu) break;
 1821              		.loc 1 671 15 view .LVU560
 1822 0026 98B1     		cbz	r0, .L139
 672:Drivers/lvgl/src/extra/widgets/menu/lv_menu.c ****             if(parent == menu->sidebar) {
 1823              		.loc 1 672 15 is_stmt 0 view .LVU561
ARM GAS  /var/folders/0z/tsy30v1j4xl4_7kw94k978ww0000gn/T//ccS6OLnK.s 			page 55


 1824 0028 8442     		cmp	r4, r0
 1825 002a 11D0     		beq	.L139
 1826              	.L141:
 673:Drivers/lvgl/src/extra/widgets/menu/lv_menu.c ****                 sidebar = true;
 1827              		.loc 1 673 13 is_stmt 1 view .LVU562
 677:Drivers/lvgl/src/extra/widgets/menu/lv_menu.c ****         }
 1828              		.loc 1 677 13 view .LVU563
 673:Drivers/lvgl/src/extra/widgets/menu/lv_menu.c ****                 sidebar = true;
 1829              		.loc 1 673 15 is_stmt 0 view .LVU564
 1830 002c E36B     		ldr	r3, [r4, #60]
 1831 002e 8342     		cmp	r3, r0
 1832 0030 F7D1     		bne	.L157
 1833              	.LVL212:
 680:Drivers/lvgl/src/extra/widgets/menu/lv_menu.c ****             /* Clear checked state of previous obj */
 1834              		.loc 1 680 9 is_stmt 1 view .LVU565
 682:Drivers/lvgl/src/extra/widgets/menu/lv_menu.c ****                 lv_obj_clear_state(menu->selected_tab, LV_STATE_CHECKED);
 1835              		.loc 1 682 13 view .LVU566
 682:Drivers/lvgl/src/extra/widgets/menu/lv_menu.c ****                 lv_obj_clear_state(menu->selected_tab, LV_STATE_CHECKED);
 1836              		.loc 1 682 20 is_stmt 0 view .LVU567
 1837 0032 206D     		ldr	r0, [r4, #80]
 1838              	.LVL213:
 682:Drivers/lvgl/src/extra/widgets/menu/lv_menu.c ****                 lv_obj_clear_state(menu->selected_tab, LV_STATE_CHECKED);
 1839              		.loc 1 682 15 view .LVU568
 1840 0034 A842     		cmp	r0, r5
 1841 0036 03D0     		beq	.L144
 682:Drivers/lvgl/src/extra/widgets/menu/lv_menu.c ****                 lv_obj_clear_state(menu->selected_tab, LV_STATE_CHECKED);
 1842              		.loc 1 682 42 discriminator 1 view .LVU569
 1843 0038 10B1     		cbz	r0, .L144
 683:Drivers/lvgl/src/extra/widgets/menu/lv_menu.c ****             }
 1844              		.loc 1 683 17 is_stmt 1 view .LVU570
 1845 003a 0121     		movs	r1, #1
 1846 003c FFF7FEFF 		bl	lv_obj_clear_state
 1847              	.LVL214:
 1848              	.L144:
 686:Drivers/lvgl/src/extra/widgets/menu/lv_menu.c **** 
 1849              		.loc 1 686 13 view .LVU571
 1850              	.LBB51:
 1851              	.LBI51:
 453:Drivers/lvgl/src/extra/widgets/menu/lv_menu.c **** {
 1852              		.loc 1 453 6 view .LVU572
 1853              	.LBB52:
 455:Drivers/lvgl/src/extra/widgets/menu/lv_menu.c **** 
 1854              		.loc 1 455 5 view .LVU573
 455:Drivers/lvgl/src/extra/widgets/menu/lv_menu.c **** 
 1855              		.loc 1 455 5 view .LVU574
 455:Drivers/lvgl/src/extra/widgets/menu/lv_menu.c **** 
 1856              		.loc 1 455 5 view .LVU575
 457:Drivers/lvgl/src/extra/widgets/menu/lv_menu.c ****     lv_ll_t * history_ll = &(menu->history_ll);
 1857              		.loc 1 457 5 view .LVU576
 458:Drivers/lvgl/src/extra/widgets/menu/lv_menu.c **** 
 1858              		.loc 1 458 5 view .LVU577
 460:Drivers/lvgl/src/extra/widgets/menu/lv_menu.c **** 
 1859              		.loc 1 460 5 view .LVU578
 1860 0040 04F15400 		add	r0, r4, #84
 1861              	.LVL215:
 460:Drivers/lvgl/src/extra/widgets/menu/lv_menu.c **** 
 1862              		.loc 1 460 5 is_stmt 0 view .LVU579
ARM GAS  /var/folders/0z/tsy30v1j4xl4_7kw94k978ww0000gn/T//ccS6OLnK.s 			page 56


 1863 0044 FFF7FEFF 		bl	_lv_ll_clear
 1864              	.LVL216:
 462:Drivers/lvgl/src/extra/widgets/menu/lv_menu.c **** }
 1865              		.loc 1 462 5 is_stmt 1 view .LVU580
 462:Drivers/lvgl/src/extra/widgets/menu/lv_menu.c **** }
 1866              		.loc 1 462 21 is_stmt 0 view .LVU581
 1867 0048 0023     		movs	r3, #0
 1868 004a 84F86030 		strb	r3, [r4, #96]
 1869              	.LVL217:
 462:Drivers/lvgl/src/extra/widgets/menu/lv_menu.c **** }
 1870              		.loc 1 462 21 view .LVU582
 1871              	.LBE52:
 1872              	.LBE51:
 688:Drivers/lvgl/src/extra/widgets/menu/lv_menu.c ****         }
 1873              		.loc 1 688 13 is_stmt 1 view .LVU583
 688:Drivers/lvgl/src/extra/widgets/menu/lv_menu.c ****         }
 1874              		.loc 1 688 32 is_stmt 0 view .LVU584
 1875 004e 2565     		str	r5, [r4, #80]
 1876              	.LVL218:
 1877              	.L139:
 688:Drivers/lvgl/src/extra/widgets/menu/lv_menu.c ****         }
 1878              		.loc 1 688 32 view .LVU585
 1879              	.LBE50:
 692:Drivers/lvgl/src/extra/widgets/menu/lv_menu.c **** 
 1880              		.loc 1 692 5 is_stmt 1 view .LVU586
 1881 0050 3146     		mov	r1, r6
 1882 0052 2046     		mov	r0, r4
 1883 0054 FFF7FEFF 		bl	lv_menu_set_page
 1884              	.LVL219:
 694:Drivers/lvgl/src/extra/widgets/menu/lv_menu.c ****         /* Sidebar is not supported for now*/
 1885              		.loc 1 694 5 view .LVU587
 694:Drivers/lvgl/src/extra/widgets/menu/lv_menu.c ****         /* Sidebar is not supported for now*/
 1886              		.loc 1 694 8 is_stmt 0 view .LVU588
 1887 0058 FFF7FEFF 		bl	lv_group_get_default
 1888              	.LVL220:
 694:Drivers/lvgl/src/extra/widgets/menu/lv_menu.c ****         /* Sidebar is not supported for now*/
 1889              		.loc 1 694 7 view .LVU589
 1890 005c 08B1     		cbz	r0, .L137
 694:Drivers/lvgl/src/extra/widgets/menu/lv_menu.c ****         /* Sidebar is not supported for now*/
 1891              		.loc 1 694 39 discriminator 1 view .LVU590
 1892 005e 236C     		ldr	r3, [r4, #64]
 1893 0060 03B1     		cbz	r3, .L158
 1894              	.L137:
 698:Drivers/lvgl/src/extra/widgets/menu/lv_menu.c **** 
 1895              		.loc 1 698 1 view .LVU591
 1896 0062 70BD     		pop	{r4, r5, r6, pc}
 1897              	.LVL221:
 1898              	.L158:
 696:Drivers/lvgl/src/extra/widgets/menu/lv_menu.c ****     }
 1899              		.loc 1 696 9 is_stmt 1 view .LVU592
 1900 0064 FFF7FEFF 		bl	lv_group_get_default
 1901              	.LVL222:
 698:Drivers/lvgl/src/extra/widgets/menu/lv_menu.c **** 
 1902              		.loc 1 698 1 is_stmt 0 view .LVU593
 1903 0068 BDE87040 		pop	{r4, r5, r6, lr}
 1904              		.cfi_restore 14
 1905              		.cfi_restore 6
ARM GAS  /var/folders/0z/tsy30v1j4xl4_7kw94k978ww0000gn/T//ccS6OLnK.s 			page 57


 1906              		.cfi_restore 5
 1907              		.cfi_restore 4
 1908              		.cfi_def_cfa_offset 0
 1909              	.LVL223:
 696:Drivers/lvgl/src/extra/widgets/menu/lv_menu.c ****     }
 1910              		.loc 1 696 9 view .LVU594
 1911 006c FFF7FEBF 		b	lv_group_focus_next
 1912              	.LVL224:
 1913              		.cfi_endproc
 1914              	.LFE193:
 1916              		.section	.text.lv_menu_set_sidebar_page,"ax",%progbits
 1917              		.align	1
 1918              		.p2align 2,,3
 1919              		.global	lv_menu_set_sidebar_page
 1920              		.syntax unified
 1921              		.thumb
 1922              		.thumb_func
 1924              	lv_menu_set_sidebar_page:
 1925              	.LVL225:
 1926              	.LFB173:
 278:Drivers/lvgl/src/extra/widgets/menu/lv_menu.c ****     LV_ASSERT_OBJ(obj, MY_CLASS);
 1927              		.loc 1 278 1 is_stmt 1 view -0
 1928              		.cfi_startproc
 1929              		@ args = 0, pretend = 0, frame = 0
 1930              		@ frame_needed = 0, uses_anonymous_args = 0
 279:Drivers/lvgl/src/extra/widgets/menu/lv_menu.c **** 
 1931              		.loc 1 279 5 view .LVU596
 279:Drivers/lvgl/src/extra/widgets/menu/lv_menu.c **** 
 1932              		.loc 1 279 5 view .LVU597
 279:Drivers/lvgl/src/extra/widgets/menu/lv_menu.c **** 
 1933              		.loc 1 279 5 view .LVU598
 281:Drivers/lvgl/src/extra/widgets/menu/lv_menu.c **** 
 1934              		.loc 1 281 5 view .LVU599
 278:Drivers/lvgl/src/extra/widgets/menu/lv_menu.c ****     LV_ASSERT_OBJ(obj, MY_CLASS);
 1935              		.loc 1 278 1 is_stmt 0 view .LVU600
 1936 0000 F8B5     		push	{r3, r4, r5, r6, r7, lr}
 1937              		.cfi_def_cfa_offset 24
 1938              		.cfi_offset 3, -24
 1939              		.cfi_offset 4, -20
 1940              		.cfi_offset 5, -16
 1941              		.cfi_offset 6, -12
 1942              		.cfi_offset 7, -8
 1943              		.cfi_offset 14, -4
 278:Drivers/lvgl/src/extra/widgets/menu/lv_menu.c ****     LV_ASSERT_OBJ(obj, MY_CLASS);
 1944              		.loc 1 278 1 view .LVU601
 1945 0002 0446     		mov	r4, r0
 1946              	.LVL226:
 284:Drivers/lvgl/src/extra/widgets/menu/lv_menu.c ****         /* Sidebar should be enabled */
 1947              		.loc 1 284 5 is_stmt 1 view .LVU602
 284:Drivers/lvgl/src/extra/widgets/menu/lv_menu.c ****         /* Sidebar should be enabled */
 1948              		.loc 1 284 7 is_stmt 0 view .LVU603
 1949 0004 0D46     		mov	r5, r1
 1950 0006 0029     		cmp	r1, #0
 1951 0008 00F09280 		beq	.L160
 286:Drivers/lvgl/src/extra/widgets/menu/lv_menu.c ****             /* Create sidebar */
 1952              		.loc 1 286 9 is_stmt 1 view .LVU604
 286:Drivers/lvgl/src/extra/widgets/menu/lv_menu.c ****             /* Create sidebar */
ARM GAS  /var/folders/0z/tsy30v1j4xl4_7kw94k978ww0000gn/T//ccS6OLnK.s 			page 58


 1953              		.loc 1 286 12 is_stmt 0 view .LVU605
 1954 000c 90F86210 		ldrb	r1, [r0, #98]	@ zero_extendqisi2
 1955              	.LVL227:
 286:Drivers/lvgl/src/extra/widgets/menu/lv_menu.c ****             /* Create sidebar */
 1956              		.loc 1 286 11 view .LVU606
 1957 0010 11F00107 		ands	r7, r1, #1
 1958 0014 22D0     		beq	.L171
 1959              	.LVL228:
 1960              	.L161:
 322:Drivers/lvgl/src/extra/widgets/menu/lv_menu.c **** 
 1961              		.loc 1 322 9 is_stmt 1 view .LVU607
 1962 0016 2846     		mov	r0, r5
 1963 0018 E16B     		ldr	r1, [r4, #60]
 1964 001a FFF7FEFF 		bl	lv_obj_set_parent
 1965              	.LVL229:
 324:Drivers/lvgl/src/extra/widgets/menu/lv_menu.c ****     }
 1966              		.loc 1 324 9 view .LVU608
 1967 001e 2046     		mov	r0, r4
 1968 0020 FFF7FEFF 		bl	lv_menu_refr_sidebar_header_mode
 1969              	.LVL230:
 1970              	.L162:
 336:Drivers/lvgl/src/extra/widgets/menu/lv_menu.c ****     lv_menu_refr(obj);
 1971              		.loc 1 336 5 view .LVU609
 1972              	.LBB56:
 1973              	.LBB57:
 169:Drivers/lvgl/src/extra/widgets/menu/lv_menu.c **** 
 1974              		.loc 1 169 15 is_stmt 0 view .LVU610
 1975 0024 04F15406 		add	r6, r4, #84
 1976              	.LBE57:
 1977              	.LBE56:
 336:Drivers/lvgl/src/extra/widgets/menu/lv_menu.c ****     lv_menu_refr(obj);
 1978              		.loc 1 336 24 view .LVU611
 1979 0028 2564     		str	r5, [r4, #64]
 337:Drivers/lvgl/src/extra/widgets/menu/lv_menu.c **** }
 1980              		.loc 1 337 5 is_stmt 1 view .LVU612
 1981              	.LVL231:
 1982              	.LBB60:
 1983              	.LBI56:
 164:Drivers/lvgl/src/extra/widgets/menu/lv_menu.c **** {
 1984              		.loc 1 164 6 view .LVU613
 1985              	.LBB58:
 166:Drivers/lvgl/src/extra/widgets/menu/lv_menu.c **** 
 1986              		.loc 1 166 5 view .LVU614
 166:Drivers/lvgl/src/extra/widgets/menu/lv_menu.c **** 
 1987              		.loc 1 166 5 view .LVU615
 166:Drivers/lvgl/src/extra/widgets/menu/lv_menu.c **** 
 1988              		.loc 1 166 5 view .LVU616
 168:Drivers/lvgl/src/extra/widgets/menu/lv_menu.c ****     lv_ll_t * history_ll = &(menu->history_ll);
 1989              		.loc 1 168 5 view .LVU617
 169:Drivers/lvgl/src/extra/widgets/menu/lv_menu.c **** 
 1990              		.loc 1 169 5 view .LVU618
 172:Drivers/lvgl/src/extra/widgets/menu/lv_menu.c **** 
 1991              		.loc 1 172 5 view .LVU619
 172:Drivers/lvgl/src/extra/widgets/menu/lv_menu.c **** 
 1992              		.loc 1 172 36 is_stmt 0 view .LVU620
 1993 002a 3046     		mov	r0, r6
 1994 002c FFF7FEFF 		bl	_lv_ll_get_head
ARM GAS  /var/folders/0z/tsy30v1j4xl4_7kw94k978ww0000gn/T//ccS6OLnK.s 			page 59


 1995              	.LVL232:
 174:Drivers/lvgl/src/extra/widgets/menu/lv_menu.c **** 
 1996              		.loc 1 174 5 is_stmt 1 view .LVU621
 176:Drivers/lvgl/src/extra/widgets/menu/lv_menu.c ****         page = act_hist->page;
 1997              		.loc 1 176 5 view .LVU622
 176:Drivers/lvgl/src/extra/widgets/menu/lv_menu.c ****         page = act_hist->page;
 1998              		.loc 1 176 7 is_stmt 0 view .LVU623
 1999 0030 0546     		mov	r5, r0
 2000              	.LVL233:
 176:Drivers/lvgl/src/extra/widgets/menu/lv_menu.c ****         page = act_hist->page;
 2001              		.loc 1 176 7 view .LVU624
 2002 0032 68B1     		cbz	r0, .L163
 177:Drivers/lvgl/src/extra/widgets/menu/lv_menu.c ****         /* Delete the current item from the history */
 2003              		.loc 1 177 9 is_stmt 1 view .LVU625
 179:Drivers/lvgl/src/extra/widgets/menu/lv_menu.c ****         lv_mem_free(act_hist);
 2004              		.loc 1 179 9 is_stmt 0 view .LVU626
 2005 0034 0146     		mov	r1, r0
 2006 0036 3046     		mov	r0, r6
 2007              	.LVL234:
 177:Drivers/lvgl/src/extra/widgets/menu/lv_menu.c ****         /* Delete the current item from the history */
 2008              		.loc 1 177 14 view .LVU627
 2009 0038 2E68     		ldr	r6, [r5]
 2010              	.LVL235:
 179:Drivers/lvgl/src/extra/widgets/menu/lv_menu.c ****         lv_mem_free(act_hist);
 2011              		.loc 1 179 9 is_stmt 1 view .LVU628
 2012 003a FFF7FEFF 		bl	_lv_ll_remove
 2013              	.LVL236:
 180:Drivers/lvgl/src/extra/widgets/menu/lv_menu.c ****         menu->cur_depth--;
 2014              		.loc 1 180 9 view .LVU629
 2015 003e 2846     		mov	r0, r5
 2016 0040 FFF7FEFF 		bl	lv_mem_free
 2017              	.LVL237:
 181:Drivers/lvgl/src/extra/widgets/menu/lv_menu.c ****     }
 2018              		.loc 1 181 9 view .LVU630
 181:Drivers/lvgl/src/extra/widgets/menu/lv_menu.c ****     }
 2019              		.loc 1 181 24 is_stmt 0 view .LVU631
 2020 0044 94F86030 		ldrb	r3, [r4, #96]	@ zero_extendqisi2
 2021 0048 013B     		subs	r3, r3, #1
 177:Drivers/lvgl/src/extra/widgets/menu/lv_menu.c ****         /* Delete the current item from the history */
 2022              		.loc 1 177 14 view .LVU632
 2023 004a 3546     		mov	r5, r6
 2024              	.LVL238:
 181:Drivers/lvgl/src/extra/widgets/menu/lv_menu.c ****     }
 2025              		.loc 1 181 24 view .LVU633
 2026 004c 84F86030 		strb	r3, [r4, #96]
 2027              	.LVL239:
 2028              	.L163:
 185:Drivers/lvgl/src/extra/widgets/menu/lv_menu.c **** }
 2029              		.loc 1 185 5 is_stmt 1 view .LVU634
 2030 0050 2946     		mov	r1, r5
 2031 0052 2046     		mov	r0, r4
 2032              	.LBE58:
 2033              	.LBE60:
 338:Drivers/lvgl/src/extra/widgets/menu/lv_menu.c **** 
 2034              		.loc 1 338 1 is_stmt 0 view .LVU635
 2035 0054 BDE8F840 		pop	{r3, r4, r5, r6, r7, lr}
 2036              		.cfi_remember_state
ARM GAS  /var/folders/0z/tsy30v1j4xl4_7kw94k978ww0000gn/T//ccS6OLnK.s 			page 60


 2037              		.cfi_restore 14
 2038              		.cfi_restore 7
 2039              		.cfi_restore 6
 2040              		.cfi_restore 5
 2041              		.cfi_restore 4
 2042              		.cfi_restore 3
 2043              		.cfi_def_cfa_offset 0
 2044              	.LVL240:
 2045              	.LBB61:
 2046              	.LBB59:
 185:Drivers/lvgl/src/extra/widgets/menu/lv_menu.c **** }
 2047              		.loc 1 185 5 view .LVU636
 2048 0058 FFF7FEBF 		b	lv_menu_set_page
 2049              	.LVL241:
 2050              	.L171:
 2051              		.cfi_restore_state
 185:Drivers/lvgl/src/extra/widgets/menu/lv_menu.c **** }
 2052              		.loc 1 185 5 view .LVU637
 2053              	.LBE59:
 2054              	.LBE61:
 2055              	.LBB62:
 288:Drivers/lvgl/src/extra/widgets/menu/lv_menu.c ****             lv_obj_class_init_obj(sidebar_cont);
 2056              		.loc 1 288 13 is_stmt 1 view .LVU638
 288:Drivers/lvgl/src/extra/widgets/menu/lv_menu.c ****             lv_obj_class_init_obj(sidebar_cont);
 2057              		.loc 1 288 39 is_stmt 0 view .LVU639
 2058 005c 0146     		mov	r1, r0
 2059 005e 3E48     		ldr	r0, .L172
 2060              	.LVL242:
 288:Drivers/lvgl/src/extra/widgets/menu/lv_menu.c ****             lv_obj_class_init_obj(sidebar_cont);
 2061              		.loc 1 288 39 view .LVU640
 2062 0060 FFF7FEFF 		bl	lv_obj_class_create_obj
 2063              	.LVL243:
 2064 0064 0646     		mov	r6, r0
 2065              	.LVL244:
 289:Drivers/lvgl/src/extra/widgets/menu/lv_menu.c ****             lv_obj_move_to_index(sidebar_cont, 1);
 2066              		.loc 1 289 13 is_stmt 1 view .LVU641
 2067 0066 FFF7FEFF 		bl	lv_obj_class_init_obj
 2068              	.LVL245:
 290:Drivers/lvgl/src/extra/widgets/menu/lv_menu.c ****             lv_obj_set_size(sidebar_cont, LV_PCT(30), LV_PCT(100));
 2069              		.loc 1 290 13 view .LVU642
 2070 006a 3046     		mov	r0, r6
 2071 006c 0121     		movs	r1, #1
 2072 006e FFF7FEFF 		bl	lv_obj_move_to_index
 2073              	.LVL246:
 291:Drivers/lvgl/src/extra/widgets/menu/lv_menu.c ****             lv_obj_set_flex_flow(sidebar_cont, LV_FLEX_FLOW_COLUMN);
 2074              		.loc 1 291 13 view .LVU643
 2075 0072 42F26402 		movw	r2, #8292
 2076 0076 3046     		mov	r0, r6
 2077 0078 42F21E01 		movw	r1, #8222
 2078 007c FFF7FEFF 		bl	lv_obj_set_size
 2079              	.LVL247:
 292:Drivers/lvgl/src/extra/widgets/menu/lv_menu.c ****             lv_obj_add_flag(sidebar_cont, LV_OBJ_FLAG_EVENT_BUBBLE);
 2080              		.loc 1 292 13 view .LVU644
 2081 0080 3046     		mov	r0, r6
 2082 0082 0121     		movs	r1, #1
 2083 0084 FFF7FEFF 		bl	lv_obj_set_flex_flow
 2084              	.LVL248:
ARM GAS  /var/folders/0z/tsy30v1j4xl4_7kw94k978ww0000gn/T//ccS6OLnK.s 			page 61


 293:Drivers/lvgl/src/extra/widgets/menu/lv_menu.c ****             lv_obj_clear_flag(sidebar_cont, LV_OBJ_FLAG_CLICKABLE);
 2085              		.loc 1 293 13 view .LVU645
 2086 0088 3046     		mov	r0, r6
 2087 008a 4FF48041 		mov	r1, #16384
 2088 008e FFF7FEFF 		bl	lv_obj_add_flag
 2089              	.LVL249:
 294:Drivers/lvgl/src/extra/widgets/menu/lv_menu.c ****             menu->sidebar = sidebar_cont;
 2090              		.loc 1 294 13 view .LVU646
 2091 0092 3046     		mov	r0, r6
 2092 0094 0221     		movs	r1, #2
 2093 0096 FFF7FEFF 		bl	lv_obj_clear_flag
 2094              	.LVL250:
 295:Drivers/lvgl/src/extra/widgets/menu/lv_menu.c **** 
 2095              		.loc 1 295 13 view .LVU647
 297:Drivers/lvgl/src/extra/widgets/menu/lv_menu.c ****             lv_obj_class_init_obj(sidebar_header);
 2096              		.loc 1 297 41 is_stmt 0 view .LVU648
 2097 009a 3146     		mov	r1, r6
 295:Drivers/lvgl/src/extra/widgets/menu/lv_menu.c **** 
 2098              		.loc 1 295 27 view .LVU649
 2099 009c E663     		str	r6, [r4, #60]
 297:Drivers/lvgl/src/extra/widgets/menu/lv_menu.c ****             lv_obj_class_init_obj(sidebar_header);
 2100              		.loc 1 297 13 is_stmt 1 view .LVU650
 297:Drivers/lvgl/src/extra/widgets/menu/lv_menu.c ****             lv_obj_class_init_obj(sidebar_header);
 2101              		.loc 1 297 41 is_stmt 0 view .LVU651
 2102 009e 2F48     		ldr	r0, .L172+4
 2103 00a0 FFF7FEFF 		bl	lv_obj_class_create_obj
 2104              	.LVL251:
 2105 00a4 0646     		mov	r6, r0
 2106              	.LVL252:
 298:Drivers/lvgl/src/extra/widgets/menu/lv_menu.c ****             lv_obj_set_size(sidebar_header, LV_PCT(100), LV_SIZE_CONTENT);
 2107              		.loc 1 298 13 is_stmt 1 view .LVU652
 2108 00a6 FFF7FEFF 		bl	lv_obj_class_init_obj
 2109              	.LVL253:
 299:Drivers/lvgl/src/extra/widgets/menu/lv_menu.c ****             lv_obj_set_flex_flow(sidebar_header, LV_FLEX_FLOW_ROW);
 2110              		.loc 1 299 13 view .LVU653
 2111 00aa 42F2D172 		movw	r2, #10193
 2112 00ae 3046     		mov	r0, r6
 2113 00b0 42F26401 		movw	r1, #8292
 2114 00b4 FFF7FEFF 		bl	lv_obj_set_size
 2115              	.LVL254:
 300:Drivers/lvgl/src/extra/widgets/menu/lv_menu.c ****             lv_obj_set_flex_align(sidebar_header, LV_FLEX_ALIGN_START, LV_FLEX_ALIGN_CENTER, LV_FLE
 2116              		.loc 1 300 13 view .LVU654
 2117 00b8 3046     		mov	r0, r6
 2118 00ba 3946     		mov	r1, r7
 2119 00bc FFF7FEFF 		bl	lv_obj_set_flex_flow
 2120              	.LVL255:
 301:Drivers/lvgl/src/extra/widgets/menu/lv_menu.c ****             lv_obj_clear_flag(sidebar_header, LV_OBJ_FLAG_CLICKABLE);
 2121              		.loc 1 301 13 view .LVU655
 2122 00c0 0223     		movs	r3, #2
 2123 00c2 1A46     		mov	r2, r3
 2124 00c4 3046     		mov	r0, r6
 2125 00c6 3946     		mov	r1, r7
 2126 00c8 FFF7FEFF 		bl	lv_obj_set_flex_align
 2127              	.LVL256:
 302:Drivers/lvgl/src/extra/widgets/menu/lv_menu.c ****             lv_obj_add_flag(sidebar_header, LV_OBJ_FLAG_EVENT_BUBBLE);
 2128              		.loc 1 302 13 view .LVU656
 2129 00cc 3046     		mov	r0, r6
ARM GAS  /var/folders/0z/tsy30v1j4xl4_7kw94k978ww0000gn/T//ccS6OLnK.s 			page 62


 2130 00ce 0221     		movs	r1, #2
 2131 00d0 FFF7FEFF 		bl	lv_obj_clear_flag
 2132              	.LVL257:
 303:Drivers/lvgl/src/extra/widgets/menu/lv_menu.c ****             menu->sidebar_header = sidebar_header;
 2133              		.loc 1 303 13 view .LVU657
 2134 00d4 4FF48041 		mov	r1, #16384
 2135 00d8 3046     		mov	r0, r6
 2136 00da FFF7FEFF 		bl	lv_obj_add_flag
 2137              	.LVL258:
 304:Drivers/lvgl/src/extra/widgets/menu/lv_menu.c **** 
 2138              		.loc 1 304 13 view .LVU658
 304:Drivers/lvgl/src/extra/widgets/menu/lv_menu.c **** 
 2139              		.loc 1 304 34 is_stmt 0 view .LVU659
 2140 00de 6664     		str	r6, [r4, #68]
 306:Drivers/lvgl/src/extra/widgets/menu/lv_menu.c ****             lv_obj_add_event_cb(sidebar_header_back_btn, lv_menu_back_event_cb, LV_EVENT_CLICKED, m
 2141              		.loc 1 306 13 is_stmt 1 view .LVU660
 306:Drivers/lvgl/src/extra/widgets/menu/lv_menu.c ****             lv_obj_add_event_cb(sidebar_header_back_btn, lv_menu_back_event_cb, LV_EVENT_CLICKED, m
 2142              		.loc 1 306 50 is_stmt 0 view .LVU661
 2143 00e0 3046     		mov	r0, r6
 2144 00e2 FFF7FEFF 		bl	lv_btn_create
 2145              	.LVL259:
 307:Drivers/lvgl/src/extra/widgets/menu/lv_menu.c ****             lv_obj_add_flag(sidebar_header_back_btn, LV_OBJ_FLAG_EVENT_BUBBLE);
 2146              		.loc 1 307 13 view .LVU662
 2147 00e6 2346     		mov	r3, r4
 2148 00e8 0722     		movs	r2, #7
 306:Drivers/lvgl/src/extra/widgets/menu/lv_menu.c ****             lv_obj_add_event_cb(sidebar_header_back_btn, lv_menu_back_event_cb, LV_EVENT_CLICKED, m
 2149              		.loc 1 306 50 view .LVU663
 2150 00ea 0646     		mov	r6, r0
 2151              	.LVL260:
 307:Drivers/lvgl/src/extra/widgets/menu/lv_menu.c ****             lv_obj_add_flag(sidebar_header_back_btn, LV_OBJ_FLAG_EVENT_BUBBLE);
 2152              		.loc 1 307 13 is_stmt 1 view .LVU664
 2153 00ec 1C49     		ldr	r1, .L172+8
 2154 00ee FFF7FEFF 		bl	lv_obj_add_event_cb
 2155              	.LVL261:
 308:Drivers/lvgl/src/extra/widgets/menu/lv_menu.c ****             lv_obj_set_flex_flow(sidebar_header_back_btn, LV_FLEX_FLOW_ROW);
 2156              		.loc 1 308 13 view .LVU665
 2157 00f2 3046     		mov	r0, r6
 2158 00f4 4FF48041 		mov	r1, #16384
 2159 00f8 FFF7FEFF 		bl	lv_obj_add_flag
 2160              	.LVL262:
 309:Drivers/lvgl/src/extra/widgets/menu/lv_menu.c ****             menu->sidebar_header_back_btn = sidebar_header_back_btn;
 2161              		.loc 1 309 13 view .LVU666
 2162 00fc 3946     		mov	r1, r7
 2163 00fe 3046     		mov	r0, r6
 2164 0100 FFF7FEFF 		bl	lv_obj_set_flex_flow
 2165              	.LVL263:
 310:Drivers/lvgl/src/extra/widgets/menu/lv_menu.c **** 
 2166              		.loc 1 310 13 view .LVU667
 310:Drivers/lvgl/src/extra/widgets/menu/lv_menu.c **** 
 2167              		.loc 1 310 43 is_stmt 0 view .LVU668
 2168 0104 A664     		str	r6, [r4, #72]
 312:Drivers/lvgl/src/extra/widgets/menu/lv_menu.c ****             lv_img_set_src(sidebar_header_back_icon, LV_SYMBOL_LEFT);
 2169              		.loc 1 312 13 is_stmt 1 view .LVU669
 312:Drivers/lvgl/src/extra/widgets/menu/lv_menu.c ****             lv_img_set_src(sidebar_header_back_icon, LV_SYMBOL_LEFT);
 2170              		.loc 1 312 51 is_stmt 0 view .LVU670
 2171 0106 3046     		mov	r0, r6
 2172 0108 FFF7FEFF 		bl	lv_img_create
ARM GAS  /var/folders/0z/tsy30v1j4xl4_7kw94k978ww0000gn/T//ccS6OLnK.s 			page 63


 2173              	.LVL264:
 313:Drivers/lvgl/src/extra/widgets/menu/lv_menu.c **** 
 2174              		.loc 1 313 13 is_stmt 1 view .LVU671
 2175 010c 1549     		ldr	r1, .L172+12
 2176 010e FFF7FEFF 		bl	lv_img_set_src
 2177              	.LVL265:
 315:Drivers/lvgl/src/extra/widgets/menu/lv_menu.c ****             lv_obj_add_flag(sidebar_header_title, LV_OBJ_FLAG_HIDDEN);
 2178              		.loc 1 315 13 view .LVU672
 315:Drivers/lvgl/src/extra/widgets/menu/lv_menu.c ****             lv_obj_add_flag(sidebar_header_title, LV_OBJ_FLAG_HIDDEN);
 2179              		.loc 1 315 47 is_stmt 0 view .LVU673
 2180 0112 606C     		ldr	r0, [r4, #68]
 2181 0114 FFF7FEFF 		bl	lv_label_create
 2182              	.LVL266:
 316:Drivers/lvgl/src/extra/widgets/menu/lv_menu.c ****             menu->sidebar_header_title = sidebar_header_title;
 2183              		.loc 1 316 13 view .LVU674
 2184 0118 0121     		movs	r1, #1
 315:Drivers/lvgl/src/extra/widgets/menu/lv_menu.c ****             lv_obj_add_flag(sidebar_header_title, LV_OBJ_FLAG_HIDDEN);
 2185              		.loc 1 315 47 view .LVU675
 2186 011a 0646     		mov	r6, r0
 2187              	.LVL267:
 316:Drivers/lvgl/src/extra/widgets/menu/lv_menu.c ****             menu->sidebar_header_title = sidebar_header_title;
 2188              		.loc 1 316 13 is_stmt 1 view .LVU676
 2189 011c FFF7FEFF 		bl	lv_obj_add_flag
 2190              	.LVL268:
 317:Drivers/lvgl/src/extra/widgets/menu/lv_menu.c **** 
 2191              		.loc 1 317 13 view .LVU677
 319:Drivers/lvgl/src/extra/widgets/menu/lv_menu.c ****         }
 2192              		.loc 1 319 37 is_stmt 0 view .LVU678
 2193 0120 94F86230 		ldrb	r3, [r4, #98]	@ zero_extendqisi2
 317:Drivers/lvgl/src/extra/widgets/menu/lv_menu.c **** 
 2194              		.loc 1 317 40 view .LVU679
 2195 0124 E664     		str	r6, [r4, #76]
 319:Drivers/lvgl/src/extra/widgets/menu/lv_menu.c ****         }
 2196              		.loc 1 319 13 is_stmt 1 view .LVU680
 319:Drivers/lvgl/src/extra/widgets/menu/lv_menu.c ****         }
 2197              		.loc 1 319 37 is_stmt 0 view .LVU681
 2198 0126 43F00103 		orr	r3, r3, #1
 2199 012a 84F86230 		strb	r3, [r4, #98]
 2200 012e 72E7     		b	.L161
 2201              	.LVL269:
 2202              	.L160:
 319:Drivers/lvgl/src/extra/widgets/menu/lv_menu.c ****         }
 2203              		.loc 1 319 37 view .LVU682
 2204              	.LBE62:
 328:Drivers/lvgl/src/extra/widgets/menu/lv_menu.c ****             lv_obj_set_parent(menu->sidebar_page, menu->storage);
 2205              		.loc 1 328 9 is_stmt 1 view .LVU683
 328:Drivers/lvgl/src/extra/widgets/menu/lv_menu.c ****             lv_obj_set_parent(menu->sidebar_page, menu->storage);
 2206              		.loc 1 328 12 is_stmt 0 view .LVU684
 2207 0130 90F86230 		ldrb	r3, [r0, #98]	@ zero_extendqisi2
 328:Drivers/lvgl/src/extra/widgets/menu/lv_menu.c ****             lv_obj_set_parent(menu->sidebar_page, menu->storage);
 2208              		.loc 1 328 11 view .LVU685
 2209 0134 DB07     		lsls	r3, r3, #31
 2210 0136 7FF575AF 		bpl	.L162
 329:Drivers/lvgl/src/extra/widgets/menu/lv_menu.c ****             lv_obj_del(menu->sidebar);
 2211              		.loc 1 329 13 is_stmt 1 view .LVU686
 2212 013a 416A     		ldr	r1, [r0, #36]
 2213              	.LVL270:
ARM GAS  /var/folders/0z/tsy30v1j4xl4_7kw94k978ww0000gn/T//ccS6OLnK.s 			page 64


 329:Drivers/lvgl/src/extra/widgets/menu/lv_menu.c ****             lv_obj_del(menu->sidebar);
 2214              		.loc 1 329 13 is_stmt 0 view .LVU687
 2215 013c 006C     		ldr	r0, [r0, #64]
 2216              	.LVL271:
 329:Drivers/lvgl/src/extra/widgets/menu/lv_menu.c ****             lv_obj_del(menu->sidebar);
 2217              		.loc 1 329 13 view .LVU688
 2218 013e FFF7FEFF 		bl	lv_obj_set_parent
 2219              	.LVL272:
 330:Drivers/lvgl/src/extra/widgets/menu/lv_menu.c **** 
 2220              		.loc 1 330 13 is_stmt 1 view .LVU689
 2221 0142 E06B     		ldr	r0, [r4, #60]
 2222 0144 FFF7FEFF 		bl	lv_obj_del
 2223              	.LVL273:
 332:Drivers/lvgl/src/extra/widgets/menu/lv_menu.c ****         }
 2224              		.loc 1 332 13 view .LVU690
 332:Drivers/lvgl/src/extra/widgets/menu/lv_menu.c ****         }
 2225              		.loc 1 332 37 is_stmt 0 view .LVU691
 2226 0148 94F86230 		ldrb	r3, [r4, #98]	@ zero_extendqisi2
 2227 014c 65F30003 		bfi	r3, r5, #0, #1
 2228 0150 84F86230 		strb	r3, [r4, #98]
 2229 0154 66E7     		b	.L162
 2230              	.L173:
 2231 0156 00BF     		.align	2
 2232              	.L172:
 2233 0158 00000000 		.word	.LANCHOR7
 2234 015c 00000000 		.word	.LANCHOR8
 2235 0160 00000000 		.word	lv_menu_back_event_cb
 2236 0164 00000000 		.word	.LC0
 2237              		.cfi_endproc
 2238              	.LFE173:
 2240              		.section	.text.lv_menu_set_mode_header,"ax",%progbits
 2241              		.align	1
 2242              		.p2align 2,,3
 2243              		.global	lv_menu_set_mode_header
 2244              		.syntax unified
 2245              		.thumb
 2246              		.thumb_func
 2248              	lv_menu_set_mode_header:
 2249              	.LVL274:
 2250              	.LFB174:
 341:Drivers/lvgl/src/extra/widgets/menu/lv_menu.c ****     LV_ASSERT_OBJ(obj, MY_CLASS);
 2251              		.loc 1 341 1 is_stmt 1 view -0
 2252              		.cfi_startproc
 2253              		@ args = 0, pretend = 0, frame = 0
 2254              		@ frame_needed = 0, uses_anonymous_args = 0
 342:Drivers/lvgl/src/extra/widgets/menu/lv_menu.c **** 
 2255              		.loc 1 342 5 view .LVU693
 342:Drivers/lvgl/src/extra/widgets/menu/lv_menu.c **** 
 2256              		.loc 1 342 5 view .LVU694
 342:Drivers/lvgl/src/extra/widgets/menu/lv_menu.c **** 
 2257              		.loc 1 342 5 view .LVU695
 344:Drivers/lvgl/src/extra/widgets/menu/lv_menu.c **** 
 2258              		.loc 1 344 5 view .LVU696
 346:Drivers/lvgl/src/extra/widgets/menu/lv_menu.c ****         menu->mode_header = mode_header;
 2259              		.loc 1 346 5 view .LVU697
 346:Drivers/lvgl/src/extra/widgets/menu/lv_menu.c ****         menu->mode_header = mode_header;
 2260              		.loc 1 346 12 is_stmt 0 view .LVU698
ARM GAS  /var/folders/0z/tsy30v1j4xl4_7kw94k978ww0000gn/T//ccS6OLnK.s 			page 65


 2261 0000 90F86230 		ldrb	r3, [r0, #98]	@ zero_extendqisi2
 2262 0004 C3F34102 		ubfx	r2, r3, #1, #2
 346:Drivers/lvgl/src/extra/widgets/menu/lv_menu.c ****         menu->mode_header = mode_header;
 2263              		.loc 1 346 7 view .LVU699
 2264 0008 8A42     		cmp	r2, r1
 2265 000a 00D1     		bne	.L185
 2266 000c 7047     		bx	lr
 2267              	.L185:
 347:Drivers/lvgl/src/extra/widgets/menu/lv_menu.c ****         lv_menu_refr_main_header_mode(obj);
 2268              		.loc 1 347 9 is_stmt 1 view .LVU700
 341:Drivers/lvgl/src/extra/widgets/menu/lv_menu.c ****     LV_ASSERT_OBJ(obj, MY_CLASS);
 2269              		.loc 1 341 1 is_stmt 0 view .LVU701
 2270 000e 10B5     		push	{r4, lr}
 2271              		.cfi_def_cfa_offset 8
 2272              		.cfi_offset 4, -8
 2273              		.cfi_offset 14, -4
 347:Drivers/lvgl/src/extra/widgets/menu/lv_menu.c ****         lv_menu_refr_main_header_mode(obj);
 2274              		.loc 1 347 27 view .LVU702
 2275 0010 61F34203 		bfi	r3, r1, #1, #2
 2276 0014 0446     		mov	r4, r0
 2277 0016 80F86230 		strb	r3, [r0, #98]
 348:Drivers/lvgl/src/extra/widgets/menu/lv_menu.c ****         if(menu->sidebar_generated) lv_menu_refr_sidebar_header_mode(obj);
 2278              		.loc 1 348 9 is_stmt 1 view .LVU703
 2279 001a FFF7FEFF 		bl	lv_menu_refr_main_header_mode
 2280              	.LVL275:
 349:Drivers/lvgl/src/extra/widgets/menu/lv_menu.c ****     }
 2281              		.loc 1 349 9 view .LVU704
 349:Drivers/lvgl/src/extra/widgets/menu/lv_menu.c ****     }
 2282              		.loc 1 349 12 is_stmt 0 view .LVU705
 2283 001e 94F86230 		ldrb	r3, [r4, #98]	@ zero_extendqisi2
 349:Drivers/lvgl/src/extra/widgets/menu/lv_menu.c ****     }
 2284              		.loc 1 349 11 view .LVU706
 2285 0022 DB07     		lsls	r3, r3, #31
 2286 0024 00D4     		bmi	.L186
 351:Drivers/lvgl/src/extra/widgets/menu/lv_menu.c **** 
 2287              		.loc 1 351 1 view .LVU707
 2288 0026 10BD     		pop	{r4, pc}
 2289              	.LVL276:
 2290              	.L186:
 349:Drivers/lvgl/src/extra/widgets/menu/lv_menu.c ****     }
 2291              		.loc 1 349 37 is_stmt 1 discriminator 1 view .LVU708
 2292 0028 2046     		mov	r0, r4
 351:Drivers/lvgl/src/extra/widgets/menu/lv_menu.c **** 
 2293              		.loc 1 351 1 is_stmt 0 discriminator 1 view .LVU709
 2294 002a BDE81040 		pop	{r4, lr}
 2295              		.cfi_restore 14
 2296              		.cfi_restore 4
 2297              		.cfi_def_cfa_offset 0
 2298              	.LVL277:
 349:Drivers/lvgl/src/extra/widgets/menu/lv_menu.c ****     }
 2299              		.loc 1 349 37 discriminator 1 view .LVU710
 2300 002e FFF7FEBF 		b	lv_menu_refr_sidebar_header_mode
 2301              	.LVL278:
 349:Drivers/lvgl/src/extra/widgets/menu/lv_menu.c ****     }
 2302              		.loc 1 349 37 discriminator 1 view .LVU711
 2303              		.cfi_endproc
 2304              	.LFE174:
ARM GAS  /var/folders/0z/tsy30v1j4xl4_7kw94k978ww0000gn/T//ccS6OLnK.s 			page 66


 2306 0032 00BF     		.section	.text.lv_menu_set_mode_root_back_btn,"ax",%progbits
 2307              		.align	1
 2308              		.p2align 2,,3
 2309              		.global	lv_menu_set_mode_root_back_btn
 2310              		.syntax unified
 2311              		.thumb
 2312              		.thumb_func
 2314              	lv_menu_set_mode_root_back_btn:
 2315              	.LVL279:
 2316              	.LFB175:
 354:Drivers/lvgl/src/extra/widgets/menu/lv_menu.c ****     LV_ASSERT_OBJ(obj, MY_CLASS);
 2317              		.loc 1 354 1 is_stmt 1 view -0
 2318              		.cfi_startproc
 2319              		@ args = 0, pretend = 0, frame = 0
 2320              		@ frame_needed = 0, uses_anonymous_args = 0
 355:Drivers/lvgl/src/extra/widgets/menu/lv_menu.c **** 
 2321              		.loc 1 355 5 view .LVU713
 355:Drivers/lvgl/src/extra/widgets/menu/lv_menu.c **** 
 2322              		.loc 1 355 5 view .LVU714
 355:Drivers/lvgl/src/extra/widgets/menu/lv_menu.c **** 
 2323              		.loc 1 355 5 view .LVU715
 357:Drivers/lvgl/src/extra/widgets/menu/lv_menu.c **** 
 2324              		.loc 1 357 5 view .LVU716
 359:Drivers/lvgl/src/extra/widgets/menu/lv_menu.c ****         menu->mode_root_back_btn = mode_root_back_btn;
 2325              		.loc 1 359 5 view .LVU717
 359:Drivers/lvgl/src/extra/widgets/menu/lv_menu.c ****         menu->mode_root_back_btn = mode_root_back_btn;
 2326              		.loc 1 359 12 is_stmt 0 view .LVU718
 2327 0000 90F86230 		ldrb	r3, [r0, #98]	@ zero_extendqisi2
 2328 0004 C3F3C002 		ubfx	r2, r3, #3, #1
 359:Drivers/lvgl/src/extra/widgets/menu/lv_menu.c ****         menu->mode_root_back_btn = mode_root_back_btn;
 2329              		.loc 1 359 7 view .LVU719
 2330 0008 8A42     		cmp	r2, r1
 2331 000a 00D1     		bne	.L196
 2332 000c 7047     		bx	lr
 2333              	.L196:
 360:Drivers/lvgl/src/extra/widgets/menu/lv_menu.c ****         lv_menu_refr(obj);
 2334              		.loc 1 360 9 is_stmt 1 view .LVU720
 354:Drivers/lvgl/src/extra/widgets/menu/lv_menu.c ****     LV_ASSERT_OBJ(obj, MY_CLASS);
 2335              		.loc 1 354 1 is_stmt 0 view .LVU721
 2336 000e 70B5     		push	{r4, r5, r6, lr}
 2337              		.cfi_def_cfa_offset 16
 2338              		.cfi_offset 4, -16
 2339              		.cfi_offset 5, -12
 2340              		.cfi_offset 6, -8
 2341              		.cfi_offset 14, -4
 360:Drivers/lvgl/src/extra/widgets/menu/lv_menu.c ****         lv_menu_refr(obj);
 2342              		.loc 1 360 34 view .LVU722
 2343 0010 61F3C303 		bfi	r3, r1, #3, #1
 2344              	.LBB65:
 2345              	.LBB66:
 169:Drivers/lvgl/src/extra/widgets/menu/lv_menu.c **** 
 2346              		.loc 1 169 15 view .LVU723
 2347 0014 00F15406 		add	r6, r0, #84
 2348              	.LBE66:
 2349              	.LBE65:
 360:Drivers/lvgl/src/extra/widgets/menu/lv_menu.c ****         lv_menu_refr(obj);
 2350              		.loc 1 360 34 view .LVU724
ARM GAS  /var/folders/0z/tsy30v1j4xl4_7kw94k978ww0000gn/T//ccS6OLnK.s 			page 67


 2351 0018 80F86230 		strb	r3, [r0, #98]
 361:Drivers/lvgl/src/extra/widgets/menu/lv_menu.c ****     }
 2352              		.loc 1 361 9 is_stmt 1 view .LVU725
 2353 001c 0446     		mov	r4, r0
 2354              	.LVL280:
 2355              	.LBB69:
 2356              	.LBI65:
 164:Drivers/lvgl/src/extra/widgets/menu/lv_menu.c **** {
 2357              		.loc 1 164 6 view .LVU726
 2358              	.LBB67:
 166:Drivers/lvgl/src/extra/widgets/menu/lv_menu.c **** 
 2359              		.loc 1 166 5 view .LVU727
 166:Drivers/lvgl/src/extra/widgets/menu/lv_menu.c **** 
 2360              		.loc 1 166 5 view .LVU728
 166:Drivers/lvgl/src/extra/widgets/menu/lv_menu.c **** 
 2361              		.loc 1 166 5 view .LVU729
 168:Drivers/lvgl/src/extra/widgets/menu/lv_menu.c ****     lv_ll_t * history_ll = &(menu->history_ll);
 2362              		.loc 1 168 5 view .LVU730
 169:Drivers/lvgl/src/extra/widgets/menu/lv_menu.c **** 
 2363              		.loc 1 169 5 view .LVU731
 172:Drivers/lvgl/src/extra/widgets/menu/lv_menu.c **** 
 2364              		.loc 1 172 5 view .LVU732
 172:Drivers/lvgl/src/extra/widgets/menu/lv_menu.c **** 
 2365              		.loc 1 172 36 is_stmt 0 view .LVU733
 2366 001e 3046     		mov	r0, r6
 2367              	.LVL281:
 172:Drivers/lvgl/src/extra/widgets/menu/lv_menu.c **** 
 2368              		.loc 1 172 36 view .LVU734
 2369 0020 FFF7FEFF 		bl	_lv_ll_get_head
 2370              	.LVL282:
 174:Drivers/lvgl/src/extra/widgets/menu/lv_menu.c **** 
 2371              		.loc 1 174 5 is_stmt 1 view .LVU735
 176:Drivers/lvgl/src/extra/widgets/menu/lv_menu.c ****         page = act_hist->page;
 2372              		.loc 1 176 5 view .LVU736
 176:Drivers/lvgl/src/extra/widgets/menu/lv_menu.c ****         page = act_hist->page;
 2373              		.loc 1 176 7 is_stmt 0 view .LVU737
 2374 0024 0546     		mov	r5, r0
 2375 0026 68B1     		cbz	r0, .L189
 177:Drivers/lvgl/src/extra/widgets/menu/lv_menu.c ****         /* Delete the current item from the history */
 2376              		.loc 1 177 9 is_stmt 1 view .LVU738
 179:Drivers/lvgl/src/extra/widgets/menu/lv_menu.c ****         lv_mem_free(act_hist);
 2377              		.loc 1 179 9 is_stmt 0 view .LVU739
 2378 0028 0146     		mov	r1, r0
 2379 002a 3046     		mov	r0, r6
 2380              	.LVL283:
 177:Drivers/lvgl/src/extra/widgets/menu/lv_menu.c ****         /* Delete the current item from the history */
 2381              		.loc 1 177 14 view .LVU740
 2382 002c 2E68     		ldr	r6, [r5]
 2383              	.LVL284:
 179:Drivers/lvgl/src/extra/widgets/menu/lv_menu.c ****         lv_mem_free(act_hist);
 2384              		.loc 1 179 9 is_stmt 1 view .LVU741
 2385 002e FFF7FEFF 		bl	_lv_ll_remove
 2386              	.LVL285:
 180:Drivers/lvgl/src/extra/widgets/menu/lv_menu.c ****         menu->cur_depth--;
 2387              		.loc 1 180 9 view .LVU742
 2388 0032 2846     		mov	r0, r5
 2389 0034 FFF7FEFF 		bl	lv_mem_free
ARM GAS  /var/folders/0z/tsy30v1j4xl4_7kw94k978ww0000gn/T//ccS6OLnK.s 			page 68


 2390              	.LVL286:
 181:Drivers/lvgl/src/extra/widgets/menu/lv_menu.c ****     }
 2391              		.loc 1 181 9 view .LVU743
 181:Drivers/lvgl/src/extra/widgets/menu/lv_menu.c ****     }
 2392              		.loc 1 181 24 is_stmt 0 view .LVU744
 2393 0038 94F86030 		ldrb	r3, [r4, #96]	@ zero_extendqisi2
 2394 003c 013B     		subs	r3, r3, #1
 177:Drivers/lvgl/src/extra/widgets/menu/lv_menu.c ****         /* Delete the current item from the history */
 2395              		.loc 1 177 14 view .LVU745
 2396 003e 3546     		mov	r5, r6
 2397              	.LVL287:
 181:Drivers/lvgl/src/extra/widgets/menu/lv_menu.c ****     }
 2398              		.loc 1 181 24 view .LVU746
 2399 0040 84F86030 		strb	r3, [r4, #96]
 2400              	.LVL288:
 2401              	.L189:
 185:Drivers/lvgl/src/extra/widgets/menu/lv_menu.c **** }
 2402              		.loc 1 185 5 is_stmt 1 view .LVU747
 2403 0044 2946     		mov	r1, r5
 2404 0046 2046     		mov	r0, r4
 2405              	.LBE67:
 2406              	.LBE69:
 363:Drivers/lvgl/src/extra/widgets/menu/lv_menu.c **** 
 2407              		.loc 1 363 1 is_stmt 0 view .LVU748
 2408 0048 BDE87040 		pop	{r4, r5, r6, lr}
 2409              		.cfi_restore 14
 2410              		.cfi_restore 6
 2411              		.cfi_restore 5
 2412              		.cfi_restore 4
 2413              		.cfi_def_cfa_offset 0
 2414              	.LVL289:
 2415              	.LBB70:
 2416              	.LBB68:
 185:Drivers/lvgl/src/extra/widgets/menu/lv_menu.c **** }
 2417              		.loc 1 185 5 view .LVU749
 2418 004c FFF7FEBF 		b	lv_menu_set_page
 2419              	.LVL290:
 185:Drivers/lvgl/src/extra/widgets/menu/lv_menu.c **** }
 2420              		.loc 1 185 5 view .LVU750
 2421              	.LBE68:
 2422              	.LBE70:
 2423              		.cfi_endproc
 2424              	.LFE175:
 2426              		.section	.text.lv_menu_set_load_page_event,"ax",%progbits
 2427              		.align	1
 2428              		.p2align 2,,3
 2429              		.global	lv_menu_set_load_page_event
 2430              		.syntax unified
 2431              		.thumb
 2432              		.thumb_func
 2434              	lv_menu_set_load_page_event:
 2435              	.LVL291:
 2436              	.LFB176:
 366:Drivers/lvgl/src/extra/widgets/menu/lv_menu.c ****     LV_ASSERT_OBJ(menu, MY_CLASS);
 2437              		.loc 1 366 1 is_stmt 1 view -0
 2438              		.cfi_startproc
 2439              		@ args = 0, pretend = 0, frame = 0
ARM GAS  /var/folders/0z/tsy30v1j4xl4_7kw94k978ww0000gn/T//ccS6OLnK.s 			page 69


 2440              		@ frame_needed = 0, uses_anonymous_args = 0
 367:Drivers/lvgl/src/extra/widgets/menu/lv_menu.c **** 
 2441              		.loc 1 367 5 view .LVU752
 367:Drivers/lvgl/src/extra/widgets/menu/lv_menu.c **** 
 2442              		.loc 1 367 5 view .LVU753
 367:Drivers/lvgl/src/extra/widgets/menu/lv_menu.c **** 
 2443              		.loc 1 367 5 view .LVU754
 369:Drivers/lvgl/src/extra/widgets/menu/lv_menu.c ****     lv_obj_clear_flag(obj, LV_OBJ_FLAG_SCROLLABLE);
 2444              		.loc 1 369 5 view .LVU755
 366:Drivers/lvgl/src/extra/widgets/menu/lv_menu.c ****     LV_ASSERT_OBJ(menu, MY_CLASS);
 2445              		.loc 1 366 1 is_stmt 0 view .LVU756
 2446 0000 2DE9F041 		push	{r4, r5, r6, r7, r8, lr}
 2447              		.cfi_def_cfa_offset 24
 2448              		.cfi_offset 4, -24
 2449              		.cfi_offset 5, -20
 2450              		.cfi_offset 6, -16
 2451              		.cfi_offset 7, -12
 2452              		.cfi_offset 8, -8
 2453              		.cfi_offset 14, -4
 366:Drivers/lvgl/src/extra/widgets/menu/lv_menu.c ****     LV_ASSERT_OBJ(menu, MY_CLASS);
 2454              		.loc 1 366 1 view .LVU757
 2455 0004 0C46     		mov	r4, r1
 2456 0006 0746     		mov	r7, r0
 369:Drivers/lvgl/src/extra/widgets/menu/lv_menu.c ****     lv_obj_clear_flag(obj, LV_OBJ_FLAG_SCROLLABLE);
 2457              		.loc 1 369 5 view .LVU758
 2458 0008 0221     		movs	r1, #2
 2459              	.LVL292:
 369:Drivers/lvgl/src/extra/widgets/menu/lv_menu.c ****     lv_obj_clear_flag(obj, LV_OBJ_FLAG_SCROLLABLE);
 2460              		.loc 1 369 5 view .LVU759
 2461 000a 2046     		mov	r0, r4
 2462              	.LVL293:
 366:Drivers/lvgl/src/extra/widgets/menu/lv_menu.c ****     LV_ASSERT_OBJ(menu, MY_CLASS);
 2463              		.loc 1 366 1 view .LVU760
 2464 000c 1646     		mov	r6, r2
 369:Drivers/lvgl/src/extra/widgets/menu/lv_menu.c ****     lv_obj_clear_flag(obj, LV_OBJ_FLAG_SCROLLABLE);
 2465              		.loc 1 369 5 view .LVU761
 2466 000e FFF7FEFF 		bl	lv_obj_add_flag
 2467              	.LVL294:
 370:Drivers/lvgl/src/extra/widgets/menu/lv_menu.c ****     lv_obj_add_flag(obj, LV_OBJ_FLAG_SCROLL_ON_FOCUS);
 2468              		.loc 1 370 5 is_stmt 1 view .LVU762
 2469 0012 1021     		movs	r1, #16
 2470 0014 2046     		mov	r0, r4
 2471 0016 FFF7FEFF 		bl	lv_obj_clear_flag
 2472              	.LVL295:
 371:Drivers/lvgl/src/extra/widgets/menu/lv_menu.c **** 
 2473              		.loc 1 371 5 view .LVU763
 2474 001a 4FF48061 		mov	r1, #1024
 2475 001e 2046     		mov	r0, r4
 2476 0020 FFF7FEFF 		bl	lv_obj_add_flag
 2477              	.LVL296:
 374:Drivers/lvgl/src/extra/widgets/menu/lv_menu.c ****         lv_event_send(obj, LV_EVENT_DELETE, NULL);
 2478              		.loc 1 374 5 view .LVU764
 374:Drivers/lvgl/src/extra/widgets/menu/lv_menu.c ****         lv_event_send(obj, LV_EVENT_DELETE, NULL);
 2479              		.loc 1 374 8 is_stmt 0 view .LVU765
 2480 0024 1149     		ldr	r1, .L204
 2481 0026 2046     		mov	r0, r4
 2482 0028 FFF7FEFF 		bl	lv_obj_remove_event_cb
ARM GAS  /var/folders/0z/tsy30v1j4xl4_7kw94k978ww0000gn/T//ccS6OLnK.s 			page 70


 2483              	.LVL297:
 374:Drivers/lvgl/src/extra/widgets/menu/lv_menu.c ****         lv_event_send(obj, LV_EVENT_DELETE, NULL);
 2484              		.loc 1 374 7 view .LVU766
 2485 002c 98B9     		cbnz	r0, .L203
 2486              	.L198:
 379:Drivers/lvgl/src/extra/widgets/menu/lv_menu.c ****     event_data->menu = menu;
 2487              		.loc 1 379 5 is_stmt 1 view .LVU767
 379:Drivers/lvgl/src/extra/widgets/menu/lv_menu.c ****     event_data->menu = menu;
 2488              		.loc 1 379 51 is_stmt 0 view .LVU768
 2489 002e 0820     		movs	r0, #8
 2490 0030 FFF7FEFF 		bl	lv_mem_alloc
 2491              	.LVL298:
 383:Drivers/lvgl/src/extra/widgets/menu/lv_menu.c ****     lv_obj_add_event_cb(obj, lv_menu_obj_del_event_cb, LV_EVENT_DELETE, event_data);
 2492              		.loc 1 383 5 view .LVU769
 2493 0034 0D49     		ldr	r1, .L204
 381:Drivers/lvgl/src/extra/widgets/menu/lv_menu.c **** 
 2494              		.loc 1 381 22 view .LVU770
 2495 0036 C0E90076 		strd	r7, r6, [r0]
 379:Drivers/lvgl/src/extra/widgets/menu/lv_menu.c ****     event_data->menu = menu;
 2496              		.loc 1 379 51 view .LVU771
 2497 003a 0546     		mov	r5, r0
 2498              	.LVL299:
 380:Drivers/lvgl/src/extra/widgets/menu/lv_menu.c ****     event_data->page = page;
 2499              		.loc 1 380 5 is_stmt 1 view .LVU772
 383:Drivers/lvgl/src/extra/widgets/menu/lv_menu.c ****     lv_obj_add_event_cb(obj, lv_menu_obj_del_event_cb, LV_EVENT_DELETE, event_data);
 2500              		.loc 1 383 5 view .LVU773
 2501 003c 0346     		mov	r3, r0
 2502 003e 0722     		movs	r2, #7
 2503 0040 2046     		mov	r0, r4
 2504              	.LVL300:
 383:Drivers/lvgl/src/extra/widgets/menu/lv_menu.c ****     lv_obj_add_event_cb(obj, lv_menu_obj_del_event_cb, LV_EVENT_DELETE, event_data);
 2505              		.loc 1 383 5 is_stmt 0 view .LVU774
 2506 0042 FFF7FEFF 		bl	lv_obj_add_event_cb
 2507              	.LVL301:
 384:Drivers/lvgl/src/extra/widgets/menu/lv_menu.c **** }
 2508              		.loc 1 384 5 is_stmt 1 view .LVU775
 2509 0046 2B46     		mov	r3, r5
 2510 0048 2046     		mov	r0, r4
 2511 004a 0949     		ldr	r1, .L204+4
 385:Drivers/lvgl/src/extra/widgets/menu/lv_menu.c **** 
 2512              		.loc 1 385 1 is_stmt 0 view .LVU776
 2513 004c BDE8F041 		pop	{r4, r5, r6, r7, r8, lr}
 2514              		.cfi_remember_state
 2515              		.cfi_restore 14
 2516              		.cfi_restore 8
 2517              		.cfi_restore 7
 2518              		.cfi_restore 6
 2519              		.cfi_restore 5
 2520              		.cfi_restore 4
 2521              		.cfi_def_cfa_offset 0
 2522              	.LVL302:
 384:Drivers/lvgl/src/extra/widgets/menu/lv_menu.c **** }
 2523              		.loc 1 384 5 view .LVU777
 2524 0050 2122     		movs	r2, #33
 2525 0052 FFF7FEBF 		b	lv_obj_add_event_cb
 2526              	.LVL303:
 2527              	.L203:
ARM GAS  /var/folders/0z/tsy30v1j4xl4_7kw94k978ww0000gn/T//ccS6OLnK.s 			page 71


 2528              		.cfi_restore_state
 375:Drivers/lvgl/src/extra/widgets/menu/lv_menu.c ****         lv_obj_remove_event_cb(obj, lv_menu_obj_del_event_cb);
 2529              		.loc 1 375 9 is_stmt 1 view .LVU778
 2530 0056 2121     		movs	r1, #33
 2531 0058 0022     		movs	r2, #0
 2532 005a 2046     		mov	r0, r4
 2533 005c FFF7FEFF 		bl	lv_event_send
 2534              	.LVL304:
 376:Drivers/lvgl/src/extra/widgets/menu/lv_menu.c ****     }
 2535              		.loc 1 376 9 view .LVU779
 2536 0060 0349     		ldr	r1, .L204+4
 2537 0062 2046     		mov	r0, r4
 2538 0064 FFF7FEFF 		bl	lv_obj_remove_event_cb
 2539              	.LVL305:
 2540 0068 E1E7     		b	.L198
 2541              	.L205:
 2542 006a 00BF     		.align	2
 2543              	.L204:
 2544 006c 00000000 		.word	lv_menu_load_page_event_cb
 2545 0070 00000000 		.word	lv_menu_obj_del_event_cb
 2546              		.cfi_endproc
 2547              	.LFE176:
 2549              		.section	.text.lv_menu_get_cur_main_page,"ax",%progbits
 2550              		.align	1
 2551              		.p2align 2,,3
 2552              		.global	lv_menu_get_cur_main_page
 2553              		.syntax unified
 2554              		.thumb
 2555              		.thumb_func
 2557              	lv_menu_get_cur_main_page:
 2558              	.LVL306:
 2559              	.LFB177:
 391:Drivers/lvgl/src/extra/widgets/menu/lv_menu.c ****     LV_ASSERT_OBJ(obj, MY_CLASS);
 2560              		.loc 1 391 1 view -0
 2561              		.cfi_startproc
 2562              		@ args = 0, pretend = 0, frame = 0
 2563              		@ frame_needed = 0, uses_anonymous_args = 0
 2564              		@ link register save eliminated.
 392:Drivers/lvgl/src/extra/widgets/menu/lv_menu.c **** 
 2565              		.loc 1 392 5 view .LVU781
 392:Drivers/lvgl/src/extra/widgets/menu/lv_menu.c **** 
 2566              		.loc 1 392 5 view .LVU782
 392:Drivers/lvgl/src/extra/widgets/menu/lv_menu.c **** 
 2567              		.loc 1 392 5 view .LVU783
 394:Drivers/lvgl/src/extra/widgets/menu/lv_menu.c ****     return menu->main_page;
 2568              		.loc 1 394 5 view .LVU784
 395:Drivers/lvgl/src/extra/widgets/menu/lv_menu.c **** }
 2569              		.loc 1 395 5 view .LVU785
 396:Drivers/lvgl/src/extra/widgets/menu/lv_menu.c **** 
 2570              		.loc 1 396 1 is_stmt 0 view .LVU786
 2571 0000 C06A     		ldr	r0, [r0, #44]
 2572              	.LVL307:
 396:Drivers/lvgl/src/extra/widgets/menu/lv_menu.c **** 
 2573              		.loc 1 396 1 view .LVU787
 2574 0002 7047     		bx	lr
 2575              		.cfi_endproc
 2576              	.LFE177:
ARM GAS  /var/folders/0z/tsy30v1j4xl4_7kw94k978ww0000gn/T//ccS6OLnK.s 			page 72


 2578              		.section	.text.lv_menu_get_cur_sidebar_page,"ax",%progbits
 2579              		.align	1
 2580              		.p2align 2,,3
 2581              		.global	lv_menu_get_cur_sidebar_page
 2582              		.syntax unified
 2583              		.thumb
 2584              		.thumb_func
 2586              	lv_menu_get_cur_sidebar_page:
 2587              	.LVL308:
 2588              	.LFB178:
 399:Drivers/lvgl/src/extra/widgets/menu/lv_menu.c ****     LV_ASSERT_OBJ(obj, MY_CLASS);
 2589              		.loc 1 399 1 is_stmt 1 view -0
 2590              		.cfi_startproc
 2591              		@ args = 0, pretend = 0, frame = 0
 2592              		@ frame_needed = 0, uses_anonymous_args = 0
 2593              		@ link register save eliminated.
 400:Drivers/lvgl/src/extra/widgets/menu/lv_menu.c **** 
 2594              		.loc 1 400 5 view .LVU789
 400:Drivers/lvgl/src/extra/widgets/menu/lv_menu.c **** 
 2595              		.loc 1 400 5 view .LVU790
 400:Drivers/lvgl/src/extra/widgets/menu/lv_menu.c **** 
 2596              		.loc 1 400 5 view .LVU791
 402:Drivers/lvgl/src/extra/widgets/menu/lv_menu.c ****     return menu->sidebar_page;
 2597              		.loc 1 402 5 view .LVU792
 403:Drivers/lvgl/src/extra/widgets/menu/lv_menu.c **** }
 2598              		.loc 1 403 5 view .LVU793
 404:Drivers/lvgl/src/extra/widgets/menu/lv_menu.c **** 
 2599              		.loc 1 404 1 is_stmt 0 view .LVU794
 2600 0000 006C     		ldr	r0, [r0, #64]
 2601              	.LVL309:
 404:Drivers/lvgl/src/extra/widgets/menu/lv_menu.c **** 
 2602              		.loc 1 404 1 view .LVU795
 2603 0002 7047     		bx	lr
 2604              		.cfi_endproc
 2605              	.LFE178:
 2607              		.section	.text.lv_menu_get_main_header,"ax",%progbits
 2608              		.align	1
 2609              		.p2align 2,,3
 2610              		.global	lv_menu_get_main_header
 2611              		.syntax unified
 2612              		.thumb
 2613              		.thumb_func
 2615              	lv_menu_get_main_header:
 2616              	.LVL310:
 2617              	.LFB179:
 407:Drivers/lvgl/src/extra/widgets/menu/lv_menu.c ****     LV_ASSERT_OBJ(obj, MY_CLASS);
 2618              		.loc 1 407 1 is_stmt 1 view -0
 2619              		.cfi_startproc
 2620              		@ args = 0, pretend = 0, frame = 0
 2621              		@ frame_needed = 0, uses_anonymous_args = 0
 2622              		@ link register save eliminated.
 408:Drivers/lvgl/src/extra/widgets/menu/lv_menu.c **** 
 2623              		.loc 1 408 5 view .LVU797
 408:Drivers/lvgl/src/extra/widgets/menu/lv_menu.c **** 
 2624              		.loc 1 408 5 view .LVU798
 408:Drivers/lvgl/src/extra/widgets/menu/lv_menu.c **** 
 2625              		.loc 1 408 5 view .LVU799
ARM GAS  /var/folders/0z/tsy30v1j4xl4_7kw94k978ww0000gn/T//ccS6OLnK.s 			page 73


 410:Drivers/lvgl/src/extra/widgets/menu/lv_menu.c ****     return menu->main_header;
 2626              		.loc 1 410 5 view .LVU800
 411:Drivers/lvgl/src/extra/widgets/menu/lv_menu.c **** }
 2627              		.loc 1 411 5 view .LVU801
 412:Drivers/lvgl/src/extra/widgets/menu/lv_menu.c **** 
 2628              		.loc 1 412 1 is_stmt 0 view .LVU802
 2629 0000 006B     		ldr	r0, [r0, #48]
 2630              	.LVL311:
 412:Drivers/lvgl/src/extra/widgets/menu/lv_menu.c **** 
 2631              		.loc 1 412 1 view .LVU803
 2632 0002 7047     		bx	lr
 2633              		.cfi_endproc
 2634              	.LFE179:
 2636              		.section	.text.lv_menu_get_main_header_back_btn,"ax",%progbits
 2637              		.align	1
 2638              		.p2align 2,,3
 2639              		.global	lv_menu_get_main_header_back_btn
 2640              		.syntax unified
 2641              		.thumb
 2642              		.thumb_func
 2644              	lv_menu_get_main_header_back_btn:
 2645              	.LVL312:
 2646              	.LFB180:
 415:Drivers/lvgl/src/extra/widgets/menu/lv_menu.c ****     LV_ASSERT_OBJ(obj, MY_CLASS);
 2647              		.loc 1 415 1 is_stmt 1 view -0
 2648              		.cfi_startproc
 2649              		@ args = 0, pretend = 0, frame = 0
 2650              		@ frame_needed = 0, uses_anonymous_args = 0
 2651              		@ link register save eliminated.
 416:Drivers/lvgl/src/extra/widgets/menu/lv_menu.c **** 
 2652              		.loc 1 416 5 view .LVU805
 416:Drivers/lvgl/src/extra/widgets/menu/lv_menu.c **** 
 2653              		.loc 1 416 5 view .LVU806
 416:Drivers/lvgl/src/extra/widgets/menu/lv_menu.c **** 
 2654              		.loc 1 416 5 view .LVU807
 418:Drivers/lvgl/src/extra/widgets/menu/lv_menu.c ****     return menu->main_header_back_btn;
 2655              		.loc 1 418 5 view .LVU808
 419:Drivers/lvgl/src/extra/widgets/menu/lv_menu.c **** }
 2656              		.loc 1 419 5 view .LVU809
 420:Drivers/lvgl/src/extra/widgets/menu/lv_menu.c **** 
 2657              		.loc 1 420 1 is_stmt 0 view .LVU810
 2658 0000 406B     		ldr	r0, [r0, #52]
 2659              	.LVL313:
 420:Drivers/lvgl/src/extra/widgets/menu/lv_menu.c **** 
 2660              		.loc 1 420 1 view .LVU811
 2661 0002 7047     		bx	lr
 2662              		.cfi_endproc
 2663              	.LFE180:
 2665              		.section	.text.lv_menu_get_sidebar_header,"ax",%progbits
 2666              		.align	1
 2667              		.p2align 2,,3
 2668              		.global	lv_menu_get_sidebar_header
 2669              		.syntax unified
 2670              		.thumb
 2671              		.thumb_func
 2673              	lv_menu_get_sidebar_header:
 2674              	.LVL314:
ARM GAS  /var/folders/0z/tsy30v1j4xl4_7kw94k978ww0000gn/T//ccS6OLnK.s 			page 74


 2675              	.LFB181:
 423:Drivers/lvgl/src/extra/widgets/menu/lv_menu.c ****     LV_ASSERT_OBJ(obj, MY_CLASS);
 2676              		.loc 1 423 1 is_stmt 1 view -0
 2677              		.cfi_startproc
 2678              		@ args = 0, pretend = 0, frame = 0
 2679              		@ frame_needed = 0, uses_anonymous_args = 0
 2680              		@ link register save eliminated.
 424:Drivers/lvgl/src/extra/widgets/menu/lv_menu.c **** 
 2681              		.loc 1 424 5 view .LVU813
 424:Drivers/lvgl/src/extra/widgets/menu/lv_menu.c **** 
 2682              		.loc 1 424 5 view .LVU814
 424:Drivers/lvgl/src/extra/widgets/menu/lv_menu.c **** 
 2683              		.loc 1 424 5 view .LVU815
 426:Drivers/lvgl/src/extra/widgets/menu/lv_menu.c ****     return menu->sidebar_header;
 2684              		.loc 1 426 5 view .LVU816
 427:Drivers/lvgl/src/extra/widgets/menu/lv_menu.c **** }
 2685              		.loc 1 427 5 view .LVU817
 428:Drivers/lvgl/src/extra/widgets/menu/lv_menu.c **** 
 2686              		.loc 1 428 1 is_stmt 0 view .LVU818
 2687 0000 406C     		ldr	r0, [r0, #68]
 2688              	.LVL315:
 428:Drivers/lvgl/src/extra/widgets/menu/lv_menu.c **** 
 2689              		.loc 1 428 1 view .LVU819
 2690 0002 7047     		bx	lr
 2691              		.cfi_endproc
 2692              	.LFE181:
 2694              		.section	.text.lv_menu_get_sidebar_header_back_btn,"ax",%progbits
 2695              		.align	1
 2696              		.p2align 2,,3
 2697              		.global	lv_menu_get_sidebar_header_back_btn
 2698              		.syntax unified
 2699              		.thumb
 2700              		.thumb_func
 2702              	lv_menu_get_sidebar_header_back_btn:
 2703              	.LVL316:
 2704              	.LFB182:
 431:Drivers/lvgl/src/extra/widgets/menu/lv_menu.c ****     LV_ASSERT_OBJ(obj, MY_CLASS);
 2705              		.loc 1 431 1 is_stmt 1 view -0
 2706              		.cfi_startproc
 2707              		@ args = 0, pretend = 0, frame = 0
 2708              		@ frame_needed = 0, uses_anonymous_args = 0
 2709              		@ link register save eliminated.
 432:Drivers/lvgl/src/extra/widgets/menu/lv_menu.c **** 
 2710              		.loc 1 432 5 view .LVU821
 432:Drivers/lvgl/src/extra/widgets/menu/lv_menu.c **** 
 2711              		.loc 1 432 5 view .LVU822
 432:Drivers/lvgl/src/extra/widgets/menu/lv_menu.c **** 
 2712              		.loc 1 432 5 view .LVU823
 434:Drivers/lvgl/src/extra/widgets/menu/lv_menu.c ****     return menu->sidebar_header_back_btn;
 2713              		.loc 1 434 5 view .LVU824
 435:Drivers/lvgl/src/extra/widgets/menu/lv_menu.c **** }
 2714              		.loc 1 435 5 view .LVU825
 436:Drivers/lvgl/src/extra/widgets/menu/lv_menu.c **** 
 2715              		.loc 1 436 1 is_stmt 0 view .LVU826
 2716 0000 806C     		ldr	r0, [r0, #72]
 2717              	.LVL317:
 436:Drivers/lvgl/src/extra/widgets/menu/lv_menu.c **** 
ARM GAS  /var/folders/0z/tsy30v1j4xl4_7kw94k978ww0000gn/T//ccS6OLnK.s 			page 75


 2718              		.loc 1 436 1 view .LVU827
 2719 0002 7047     		bx	lr
 2720              		.cfi_endproc
 2721              	.LFE182:
 2723              		.section	.text.lv_menu_back_btn_is_root,"ax",%progbits
 2724              		.align	1
 2725              		.p2align 2,,3
 2726              		.global	lv_menu_back_btn_is_root
 2727              		.syntax unified
 2728              		.thumb
 2729              		.thumb_func
 2731              	lv_menu_back_btn_is_root:
 2732              	.LVL318:
 2733              	.LFB183:
 439:Drivers/lvgl/src/extra/widgets/menu/lv_menu.c ****     LV_ASSERT_OBJ(menu, MY_CLASS);
 2734              		.loc 1 439 1 is_stmt 1 view -0
 2735              		.cfi_startproc
 2736              		@ args = 0, pretend = 0, frame = 0
 2737              		@ frame_needed = 0, uses_anonymous_args = 0
 2738              		@ link register save eliminated.
 440:Drivers/lvgl/src/extra/widgets/menu/lv_menu.c **** 
 2739              		.loc 1 440 5 view .LVU829
 440:Drivers/lvgl/src/extra/widgets/menu/lv_menu.c **** 
 2740              		.loc 1 440 5 view .LVU830
 440:Drivers/lvgl/src/extra/widgets/menu/lv_menu.c **** 
 2741              		.loc 1 440 5 view .LVU831
 442:Drivers/lvgl/src/extra/widgets/menu/lv_menu.c ****         return true;
 2742              		.loc 1 442 5 view .LVU832
 442:Drivers/lvgl/src/extra/widgets/menu/lv_menu.c ****         return true;
 2743              		.loc 1 442 7 is_stmt 0 view .LVU833
 2744 0000 836C     		ldr	r3, [r0, #72]
 2745 0002 8B42     		cmp	r3, r1
 2746 0004 0BD0     		beq	.L214
