ARM GAS  /var/folders/0z/tsy30v1j4xl4_7kw94k978ww0000gn/T//ccqFXe0n.s 			page 1


   1              		.cpu cortex-m4
   2              		.arch armv7e-m
   3              		.fpu fpv4-sp-d16
   4              		.eabi_attribute 27, 1
   5              		.eabi_attribute 28, 1
   6              		.eabi_attribute 23, 1
   7              		.eabi_attribute 24, 1
   8              		.eabi_attribute 25, 1
   9              		.eabi_attribute 26, 1
  10              		.eabi_attribute 30, 2
  11              		.eabi_attribute 34, 1
  12              		.eabi_attribute 18, 4
  13              		.file	"lv_obj_class.c"
  14              		.text
  15              	.Ltext0:
  16              		.cfi_sections	.debug_frame
  17              		.section	.text.lv_obj_construct,"ax",%progbits
  18              		.align	1
  19              		.p2align 2,,3
  20              		.syntax unified
  21              		.thumb
  22              		.thumb_func
  24              	lv_obj_construct:
  25              	.LVL0:
  26              	.LFB166:
  27              		.file 1 "Drivers/lvgl/src/core/lv_obj_class.c"
   1:Drivers/lvgl/src/core/lv_obj_class.c **** /**
   2:Drivers/lvgl/src/core/lv_obj_class.c ****  * @file lv_obj_class.c
   3:Drivers/lvgl/src/core/lv_obj_class.c ****  *
   4:Drivers/lvgl/src/core/lv_obj_class.c ****  */
   5:Drivers/lvgl/src/core/lv_obj_class.c **** 
   6:Drivers/lvgl/src/core/lv_obj_class.c **** /*********************
   7:Drivers/lvgl/src/core/lv_obj_class.c ****  *      INCLUDES
   8:Drivers/lvgl/src/core/lv_obj_class.c ****  *********************/
   9:Drivers/lvgl/src/core/lv_obj_class.c **** #include "lv_obj.h"
  10:Drivers/lvgl/src/core/lv_obj_class.c **** #include "lv_theme.h"
  11:Drivers/lvgl/src/core/lv_obj_class.c **** 
  12:Drivers/lvgl/src/core/lv_obj_class.c **** /*********************
  13:Drivers/lvgl/src/core/lv_obj_class.c ****  *      DEFINES
  14:Drivers/lvgl/src/core/lv_obj_class.c ****  *********************/
  15:Drivers/lvgl/src/core/lv_obj_class.c **** #define MY_CLASS &lv_obj_class
  16:Drivers/lvgl/src/core/lv_obj_class.c **** 
  17:Drivers/lvgl/src/core/lv_obj_class.c **** /**********************
  18:Drivers/lvgl/src/core/lv_obj_class.c ****  *      TYPEDEFS
  19:Drivers/lvgl/src/core/lv_obj_class.c ****  **********************/
  20:Drivers/lvgl/src/core/lv_obj_class.c **** 
  21:Drivers/lvgl/src/core/lv_obj_class.c **** /**********************
  22:Drivers/lvgl/src/core/lv_obj_class.c ****  *  GLOBAL PROTOTYPES
  23:Drivers/lvgl/src/core/lv_obj_class.c ****  **********************/
  24:Drivers/lvgl/src/core/lv_obj_class.c **** 
  25:Drivers/lvgl/src/core/lv_obj_class.c **** /**********************
  26:Drivers/lvgl/src/core/lv_obj_class.c ****  *  STATIC PROTOTYPES
  27:Drivers/lvgl/src/core/lv_obj_class.c ****  **********************/
  28:Drivers/lvgl/src/core/lv_obj_class.c **** static void lv_obj_construct(lv_obj_t * obj);
  29:Drivers/lvgl/src/core/lv_obj_class.c **** static uint32_t get_instance_size(const lv_obj_class_t * class_p);
  30:Drivers/lvgl/src/core/lv_obj_class.c **** 
  31:Drivers/lvgl/src/core/lv_obj_class.c **** /**********************
ARM GAS  /var/folders/0z/tsy30v1j4xl4_7kw94k978ww0000gn/T//ccqFXe0n.s 			page 2


  32:Drivers/lvgl/src/core/lv_obj_class.c ****  *  STATIC VARIABLES
  33:Drivers/lvgl/src/core/lv_obj_class.c ****  **********************/
  34:Drivers/lvgl/src/core/lv_obj_class.c **** 
  35:Drivers/lvgl/src/core/lv_obj_class.c **** /**********************
  36:Drivers/lvgl/src/core/lv_obj_class.c ****  *      MACROS
  37:Drivers/lvgl/src/core/lv_obj_class.c ****  **********************/
  38:Drivers/lvgl/src/core/lv_obj_class.c **** 
  39:Drivers/lvgl/src/core/lv_obj_class.c **** /**********************
  40:Drivers/lvgl/src/core/lv_obj_class.c ****  *   GLOBAL FUNCTIONS
  41:Drivers/lvgl/src/core/lv_obj_class.c ****  **********************/
  42:Drivers/lvgl/src/core/lv_obj_class.c **** 
  43:Drivers/lvgl/src/core/lv_obj_class.c **** lv_obj_t * lv_obj_class_create_obj(const lv_obj_class_t * class_p, lv_obj_t * parent)
  44:Drivers/lvgl/src/core/lv_obj_class.c **** {
  45:Drivers/lvgl/src/core/lv_obj_class.c ****     LV_TRACE_OBJ_CREATE("Creating object with %p class on %p parent", (void *)class_p, (void *)pare
  46:Drivers/lvgl/src/core/lv_obj_class.c ****     uint32_t s = get_instance_size(class_p);
  47:Drivers/lvgl/src/core/lv_obj_class.c ****     lv_obj_t * obj = lv_mem_alloc(s);
  48:Drivers/lvgl/src/core/lv_obj_class.c ****     if(obj == NULL) return NULL;
  49:Drivers/lvgl/src/core/lv_obj_class.c ****     lv_memset_00(obj, s);
  50:Drivers/lvgl/src/core/lv_obj_class.c ****     obj->class_p = class_p;
  51:Drivers/lvgl/src/core/lv_obj_class.c ****     obj->parent = parent;
  52:Drivers/lvgl/src/core/lv_obj_class.c **** 
  53:Drivers/lvgl/src/core/lv_obj_class.c ****     /*Create a screen*/
  54:Drivers/lvgl/src/core/lv_obj_class.c ****     if(parent == NULL) {
  55:Drivers/lvgl/src/core/lv_obj_class.c ****         LV_TRACE_OBJ_CREATE("creating a screen");
  56:Drivers/lvgl/src/core/lv_obj_class.c ****         lv_disp_t * disp = lv_disp_get_default();
  57:Drivers/lvgl/src/core/lv_obj_class.c ****         if(!disp) {
  58:Drivers/lvgl/src/core/lv_obj_class.c ****             LV_LOG_WARN("No display created yet. No place to assign the new screen");
  59:Drivers/lvgl/src/core/lv_obj_class.c ****             lv_mem_free(obj);
  60:Drivers/lvgl/src/core/lv_obj_class.c ****             return NULL;
  61:Drivers/lvgl/src/core/lv_obj_class.c ****         }
  62:Drivers/lvgl/src/core/lv_obj_class.c **** 
  63:Drivers/lvgl/src/core/lv_obj_class.c ****         if(disp->screens == NULL) {
  64:Drivers/lvgl/src/core/lv_obj_class.c ****             disp->screens = lv_mem_alloc(sizeof(lv_obj_t *));
  65:Drivers/lvgl/src/core/lv_obj_class.c ****             disp->screens[0] = obj;
  66:Drivers/lvgl/src/core/lv_obj_class.c ****             disp->screen_cnt = 1;
  67:Drivers/lvgl/src/core/lv_obj_class.c ****         }
  68:Drivers/lvgl/src/core/lv_obj_class.c ****         else {
  69:Drivers/lvgl/src/core/lv_obj_class.c ****             disp->screen_cnt++;
  70:Drivers/lvgl/src/core/lv_obj_class.c ****             disp->screens = lv_mem_realloc(disp->screens, sizeof(lv_obj_t *) * disp->screen_cnt);
  71:Drivers/lvgl/src/core/lv_obj_class.c ****             disp->screens[disp->screen_cnt - 1] = obj;
  72:Drivers/lvgl/src/core/lv_obj_class.c ****         }
  73:Drivers/lvgl/src/core/lv_obj_class.c **** 
  74:Drivers/lvgl/src/core/lv_obj_class.c ****         /*Set coordinates to full screen size*/
  75:Drivers/lvgl/src/core/lv_obj_class.c ****         obj->coords.x1 = 0;
  76:Drivers/lvgl/src/core/lv_obj_class.c ****         obj->coords.y1 = 0;
  77:Drivers/lvgl/src/core/lv_obj_class.c ****         obj->coords.x2 = lv_disp_get_hor_res(NULL) - 1;
  78:Drivers/lvgl/src/core/lv_obj_class.c ****         obj->coords.y2 = lv_disp_get_ver_res(NULL) - 1;
  79:Drivers/lvgl/src/core/lv_obj_class.c ****     }
  80:Drivers/lvgl/src/core/lv_obj_class.c ****     /*Create a normal object*/
  81:Drivers/lvgl/src/core/lv_obj_class.c ****     else {
  82:Drivers/lvgl/src/core/lv_obj_class.c ****         LV_TRACE_OBJ_CREATE("creating normal object");
  83:Drivers/lvgl/src/core/lv_obj_class.c ****         LV_ASSERT_OBJ(parent, MY_CLASS);
  84:Drivers/lvgl/src/core/lv_obj_class.c ****         if(parent->spec_attr == NULL) {
  85:Drivers/lvgl/src/core/lv_obj_class.c ****             lv_obj_allocate_spec_attr(parent);
  86:Drivers/lvgl/src/core/lv_obj_class.c ****         }
  87:Drivers/lvgl/src/core/lv_obj_class.c **** 
  88:Drivers/lvgl/src/core/lv_obj_class.c ****         if(parent->spec_attr->children == NULL) {
ARM GAS  /var/folders/0z/tsy30v1j4xl4_7kw94k978ww0000gn/T//ccqFXe0n.s 			page 3


  89:Drivers/lvgl/src/core/lv_obj_class.c ****             parent->spec_attr->children = lv_mem_alloc(sizeof(lv_obj_t *));
  90:Drivers/lvgl/src/core/lv_obj_class.c ****             parent->spec_attr->children[0] = obj;
  91:Drivers/lvgl/src/core/lv_obj_class.c ****             parent->spec_attr->child_cnt = 1;
  92:Drivers/lvgl/src/core/lv_obj_class.c ****         }
  93:Drivers/lvgl/src/core/lv_obj_class.c ****         else {
  94:Drivers/lvgl/src/core/lv_obj_class.c ****             parent->spec_attr->child_cnt++;
  95:Drivers/lvgl/src/core/lv_obj_class.c ****             parent->spec_attr->children = lv_mem_realloc(parent->spec_attr->children,
  96:Drivers/lvgl/src/core/lv_obj_class.c ****                                                          sizeof(lv_obj_t *) * parent->spec_attr->ch
  97:Drivers/lvgl/src/core/lv_obj_class.c ****             parent->spec_attr->children[parent->spec_attr->child_cnt - 1] = obj;
  98:Drivers/lvgl/src/core/lv_obj_class.c ****         }
  99:Drivers/lvgl/src/core/lv_obj_class.c ****     }
 100:Drivers/lvgl/src/core/lv_obj_class.c **** 
 101:Drivers/lvgl/src/core/lv_obj_class.c ****     return obj;
 102:Drivers/lvgl/src/core/lv_obj_class.c **** }
 103:Drivers/lvgl/src/core/lv_obj_class.c **** 
 104:Drivers/lvgl/src/core/lv_obj_class.c **** void lv_obj_class_init_obj(lv_obj_t * obj)
 105:Drivers/lvgl/src/core/lv_obj_class.c **** {
 106:Drivers/lvgl/src/core/lv_obj_class.c ****     lv_obj_mark_layout_as_dirty(obj);
 107:Drivers/lvgl/src/core/lv_obj_class.c ****     lv_obj_enable_style_refresh(false);
 108:Drivers/lvgl/src/core/lv_obj_class.c **** 
 109:Drivers/lvgl/src/core/lv_obj_class.c ****     lv_theme_apply(obj);
 110:Drivers/lvgl/src/core/lv_obj_class.c ****     lv_obj_construct(obj);
 111:Drivers/lvgl/src/core/lv_obj_class.c **** 
 112:Drivers/lvgl/src/core/lv_obj_class.c ****     lv_obj_enable_style_refresh(true);
 113:Drivers/lvgl/src/core/lv_obj_class.c ****     lv_obj_refresh_style(obj, LV_PART_ANY, LV_STYLE_PROP_ANY);
 114:Drivers/lvgl/src/core/lv_obj_class.c **** 
 115:Drivers/lvgl/src/core/lv_obj_class.c ****     lv_obj_refresh_self_size(obj);
 116:Drivers/lvgl/src/core/lv_obj_class.c **** 
 117:Drivers/lvgl/src/core/lv_obj_class.c ****     lv_group_t * def_group = lv_group_get_default();
 118:Drivers/lvgl/src/core/lv_obj_class.c ****     if(def_group && lv_obj_is_group_def(obj)) {
 119:Drivers/lvgl/src/core/lv_obj_class.c ****         lv_group_add_obj(def_group, obj);
 120:Drivers/lvgl/src/core/lv_obj_class.c ****     }
 121:Drivers/lvgl/src/core/lv_obj_class.c **** 
 122:Drivers/lvgl/src/core/lv_obj_class.c ****     lv_obj_t * parent = lv_obj_get_parent(obj);
 123:Drivers/lvgl/src/core/lv_obj_class.c ****     if(parent) {
 124:Drivers/lvgl/src/core/lv_obj_class.c ****         /*Call the ancestor's event handler to the parent to notify it about the new child.
 125:Drivers/lvgl/src/core/lv_obj_class.c ****          *Also triggers layout update*/
 126:Drivers/lvgl/src/core/lv_obj_class.c ****         lv_event_send(parent, LV_EVENT_CHILD_CHANGED, obj);
 127:Drivers/lvgl/src/core/lv_obj_class.c ****         lv_event_send(parent, LV_EVENT_CHILD_CREATED, obj);
 128:Drivers/lvgl/src/core/lv_obj_class.c **** 
 129:Drivers/lvgl/src/core/lv_obj_class.c ****         /*Invalidate the area if not screen created*/
 130:Drivers/lvgl/src/core/lv_obj_class.c ****         lv_obj_invalidate(obj);
 131:Drivers/lvgl/src/core/lv_obj_class.c ****     }
 132:Drivers/lvgl/src/core/lv_obj_class.c **** }
 133:Drivers/lvgl/src/core/lv_obj_class.c **** 
 134:Drivers/lvgl/src/core/lv_obj_class.c **** void _lv_obj_destruct(lv_obj_t * obj)
 135:Drivers/lvgl/src/core/lv_obj_class.c **** {
 136:Drivers/lvgl/src/core/lv_obj_class.c ****     if(obj->class_p->destructor_cb) obj->class_p->destructor_cb(obj->class_p, obj);
 137:Drivers/lvgl/src/core/lv_obj_class.c **** 
 138:Drivers/lvgl/src/core/lv_obj_class.c ****     if(obj->class_p->base_class) {
 139:Drivers/lvgl/src/core/lv_obj_class.c ****         /*Don't let the descendant methods run during destructing the ancestor type*/
 140:Drivers/lvgl/src/core/lv_obj_class.c ****         obj->class_p = obj->class_p->base_class;
 141:Drivers/lvgl/src/core/lv_obj_class.c **** 
 142:Drivers/lvgl/src/core/lv_obj_class.c ****         /*Call the base class's destructor too*/
 143:Drivers/lvgl/src/core/lv_obj_class.c ****         _lv_obj_destruct(obj);
 144:Drivers/lvgl/src/core/lv_obj_class.c ****     }
 145:Drivers/lvgl/src/core/lv_obj_class.c **** }
ARM GAS  /var/folders/0z/tsy30v1j4xl4_7kw94k978ww0000gn/T//ccqFXe0n.s 			page 4


 146:Drivers/lvgl/src/core/lv_obj_class.c **** 
 147:Drivers/lvgl/src/core/lv_obj_class.c **** bool lv_obj_is_editable(lv_obj_t * obj)
 148:Drivers/lvgl/src/core/lv_obj_class.c **** {
 149:Drivers/lvgl/src/core/lv_obj_class.c ****     const lv_obj_class_t * class_p = obj->class_p;
 150:Drivers/lvgl/src/core/lv_obj_class.c **** 
 151:Drivers/lvgl/src/core/lv_obj_class.c ****     /*Find a base in which editable is set*/
 152:Drivers/lvgl/src/core/lv_obj_class.c ****     while(class_p && class_p->editable == LV_OBJ_CLASS_EDITABLE_INHERIT) class_p = class_p->base_cl
 153:Drivers/lvgl/src/core/lv_obj_class.c **** 
 154:Drivers/lvgl/src/core/lv_obj_class.c ****     if(class_p == NULL) return false;
 155:Drivers/lvgl/src/core/lv_obj_class.c **** 
 156:Drivers/lvgl/src/core/lv_obj_class.c ****     return class_p->editable == LV_OBJ_CLASS_EDITABLE_TRUE ? true : false;
 157:Drivers/lvgl/src/core/lv_obj_class.c **** }
 158:Drivers/lvgl/src/core/lv_obj_class.c **** 
 159:Drivers/lvgl/src/core/lv_obj_class.c **** bool lv_obj_is_group_def(lv_obj_t * obj)
 160:Drivers/lvgl/src/core/lv_obj_class.c **** {
 161:Drivers/lvgl/src/core/lv_obj_class.c ****     const lv_obj_class_t * class_p = obj->class_p;
 162:Drivers/lvgl/src/core/lv_obj_class.c **** 
 163:Drivers/lvgl/src/core/lv_obj_class.c ****     /*Find a base in which group_def is set*/
 164:Drivers/lvgl/src/core/lv_obj_class.c ****     while(class_p && class_p->group_def == LV_OBJ_CLASS_GROUP_DEF_INHERIT) class_p = class_p->base_
 165:Drivers/lvgl/src/core/lv_obj_class.c **** 
 166:Drivers/lvgl/src/core/lv_obj_class.c ****     if(class_p == NULL) return false;
 167:Drivers/lvgl/src/core/lv_obj_class.c **** 
 168:Drivers/lvgl/src/core/lv_obj_class.c ****     return class_p->group_def == LV_OBJ_CLASS_GROUP_DEF_TRUE ? true : false;
 169:Drivers/lvgl/src/core/lv_obj_class.c **** }
 170:Drivers/lvgl/src/core/lv_obj_class.c **** 
 171:Drivers/lvgl/src/core/lv_obj_class.c **** /**********************
 172:Drivers/lvgl/src/core/lv_obj_class.c ****  *   STATIC FUNCTIONS
 173:Drivers/lvgl/src/core/lv_obj_class.c ****  **********************/
 174:Drivers/lvgl/src/core/lv_obj_class.c **** 
 175:Drivers/lvgl/src/core/lv_obj_class.c **** static void lv_obj_construct(lv_obj_t * obj)
 176:Drivers/lvgl/src/core/lv_obj_class.c **** {
  28              		.loc 1 176 1 view -0
  29              		.cfi_startproc
  30              		@ args = 0, pretend = 0, frame = 8
  31              		@ frame_needed = 0, uses_anonymous_args = 0
 177:Drivers/lvgl/src/core/lv_obj_class.c ****     const lv_obj_class_t * original_class_p = obj->class_p;
  32              		.loc 1 177 5 view .LVU1
 176:Drivers/lvgl/src/core/lv_obj_class.c ****     const lv_obj_class_t * original_class_p = obj->class_p;
  33              		.loc 1 176 1 is_stmt 0 view .LVU2
  34 0000 F0B5     		push	{r4, r5, r6, r7, lr}
  35              		.cfi_def_cfa_offset 20
  36              		.cfi_offset 4, -20
  37              		.cfi_offset 5, -16
  38              		.cfi_offset 6, -12
  39              		.cfi_offset 7, -8
  40              		.cfi_offset 14, -4
  41              		.loc 1 177 28 view .LVU3
  42 0002 0568     		ldr	r5, [r0]
  43              	.LVL1:
 178:Drivers/lvgl/src/core/lv_obj_class.c **** 
 179:Drivers/lvgl/src/core/lv_obj_class.c ****     if(obj->class_p->base_class) {
  44              		.loc 1 179 5 is_stmt 1 view .LVU4
  45              		.loc 1 179 20 is_stmt 0 view .LVU5
  46 0004 2E68     		ldr	r6, [r5]
 176:Drivers/lvgl/src/core/lv_obj_class.c ****     const lv_obj_class_t * original_class_p = obj->class_p;
  47              		.loc 1 176 1 view .LVU6
  48 0006 83B0     		sub	sp, sp, #12
ARM GAS  /var/folders/0z/tsy30v1j4xl4_7kw94k978ww0000gn/T//ccqFXe0n.s 			page 5


  49              		.cfi_def_cfa_offset 32
 176:Drivers/lvgl/src/core/lv_obj_class.c ****     const lv_obj_class_t * original_class_p = obj->class_p;
  50              		.loc 1 176 1 view .LVU7
  51 0008 0446     		mov	r4, r0
  52              		.loc 1 179 7 view .LVU8
  53 000a E6B1     		cbz	r6, .L3
 180:Drivers/lvgl/src/core/lv_obj_class.c ****         /*Don't let the descendant methods run during constructing the ancestor type*/
 181:Drivers/lvgl/src/core/lv_obj_class.c ****         obj->class_p = obj->class_p->base_class;
  54              		.loc 1 181 9 is_stmt 1 view .LVU9
 182:Drivers/lvgl/src/core/lv_obj_class.c **** 
 183:Drivers/lvgl/src/core/lv_obj_class.c ****         /*Construct the base first*/
 184:Drivers/lvgl/src/core/lv_obj_class.c ****         lv_obj_construct(obj);
  55              		.loc 1 184 9 view .LVU10
  56              	.LVL2:
  57              	.LBB13:
  58              	.LBI13:
 175:Drivers/lvgl/src/core/lv_obj_class.c **** {
  59              		.loc 1 175 13 view .LVU11
  60              	.LBB14:
 177:Drivers/lvgl/src/core/lv_obj_class.c **** 
  61              		.loc 1 177 5 view .LVU12
 179:Drivers/lvgl/src/core/lv_obj_class.c ****         /*Don't let the descendant methods run during constructing the ancestor type*/
  62              		.loc 1 179 5 view .LVU13
 179:Drivers/lvgl/src/core/lv_obj_class.c ****         /*Don't let the descendant methods run during constructing the ancestor type*/
  63              		.loc 1 179 20 is_stmt 0 view .LVU14
  64 000c 3768     		ldr	r7, [r6]
 179:Drivers/lvgl/src/core/lv_obj_class.c ****         /*Don't let the descendant methods run during constructing the ancestor type*/
  65              		.loc 1 179 7 view .LVU15
  66 000e A7B1     		cbz	r7, .L5
 181:Drivers/lvgl/src/core/lv_obj_class.c **** 
  67              		.loc 1 181 9 is_stmt 1 view .LVU16
  68              		.loc 1 184 9 view .LVU17
  69              	.LVL3:
  70              	.LBB15:
  71              	.LBI15:
 175:Drivers/lvgl/src/core/lv_obj_class.c **** {
  72              		.loc 1 175 13 view .LVU18
  73              	.LBB16:
 177:Drivers/lvgl/src/core/lv_obj_class.c **** 
  74              		.loc 1 177 5 view .LVU19
 179:Drivers/lvgl/src/core/lv_obj_class.c ****         /*Don't let the descendant methods run during constructing the ancestor type*/
  75              		.loc 1 179 5 view .LVU20
 179:Drivers/lvgl/src/core/lv_obj_class.c ****         /*Don't let the descendant methods run during constructing the ancestor type*/
  76              		.loc 1 179 20 is_stmt 0 view .LVU21
  77 0010 3B68     		ldr	r3, [r7]
 179:Drivers/lvgl/src/core/lv_obj_class.c ****         /*Don't let the descendant methods run during constructing the ancestor type*/
  78              		.loc 1 179 7 view .LVU22
  79 0012 63B1     		cbz	r3, .L7
 181:Drivers/lvgl/src/core/lv_obj_class.c **** 
  80              		.loc 1 181 9 is_stmt 1 view .LVU23
  81              		.loc 1 184 9 view .LVU24
  82              	.LVL4:
  83              	.LBB17:
  84              	.LBI17:
 175:Drivers/lvgl/src/core/lv_obj_class.c **** {
  85              		.loc 1 175 13 view .LVU25
  86              	.LBB18:
ARM GAS  /var/folders/0z/tsy30v1j4xl4_7kw94k978ww0000gn/T//ccqFXe0n.s 			page 6


 177:Drivers/lvgl/src/core/lv_obj_class.c **** 
  87              		.loc 1 177 5 view .LVU26
 179:Drivers/lvgl/src/core/lv_obj_class.c ****         /*Don't let the descendant methods run during constructing the ancestor type*/
  88              		.loc 1 179 5 view .LVU27
 179:Drivers/lvgl/src/core/lv_obj_class.c ****         /*Don't let the descendant methods run during constructing the ancestor type*/
  89              		.loc 1 179 20 is_stmt 0 view .LVU28
  90 0014 1A68     		ldr	r2, [r3]
 179:Drivers/lvgl/src/core/lv_obj_class.c ****         /*Don't let the descendant methods run during constructing the ancestor type*/
  91              		.loc 1 179 7 view .LVU29
  92 0016 22B1     		cbz	r2, .L8
 181:Drivers/lvgl/src/core/lv_obj_class.c **** 
  93              		.loc 1 181 22 view .LVU30
  94 0018 0260     		str	r2, [r0]
  95 001a 0193     		str	r3, [sp, #4]
 181:Drivers/lvgl/src/core/lv_obj_class.c **** 
  96              		.loc 1 181 9 is_stmt 1 view .LVU31
  97              		.loc 1 184 9 view .LVU32
  98 001c FFF7F0FF 		bl	lv_obj_construct
  99              	.LVL5:
 100              		.loc 1 184 9 is_stmt 0 view .LVU33
 101 0020 019B     		ldr	r3, [sp, #4]
 102              	.LVL6:
 103              	.L8:
 185:Drivers/lvgl/src/core/lv_obj_class.c ****     }
 186:Drivers/lvgl/src/core/lv_obj_class.c **** 
 187:Drivers/lvgl/src/core/lv_obj_class.c ****     /*Restore the original class*/
 188:Drivers/lvgl/src/core/lv_obj_class.c ****     obj->class_p = original_class_p;
 104              		.loc 1 188 5 is_stmt 1 view .LVU34
 189:Drivers/lvgl/src/core/lv_obj_class.c **** 
 190:Drivers/lvgl/src/core/lv_obj_class.c ****     if(obj->class_p->constructor_cb) obj->class_p->constructor_cb(obj->class_p, obj);
 105              		.loc 1 190 20 is_stmt 0 view .LVU35
 106 0022 5A68     		ldr	r2, [r3, #4]
 188:Drivers/lvgl/src/core/lv_obj_class.c **** 
 107              		.loc 1 188 18 view .LVU36
 108 0024 2360     		str	r3, [r4]
 109              		.loc 1 190 5 is_stmt 1 view .LVU37
 110              		.loc 1 190 7 is_stmt 0 view .LVU38
 111 0026 12B1     		cbz	r2, .L7
 112              		.loc 1 190 38 is_stmt 1 view .LVU39
 113 0028 1846     		mov	r0, r3
 114 002a 2146     		mov	r1, r4
 115 002c 9047     		blx	r2
 116              	.LVL7:
 117              	.L7:
 118              		.loc 1 190 38 is_stmt 0 view .LVU40
 119              	.LBE18:
 120              	.LBE17:
 188:Drivers/lvgl/src/core/lv_obj_class.c **** 
 121              		.loc 1 188 5 is_stmt 1 view .LVU41
 122              		.loc 1 190 20 is_stmt 0 view .LVU42
 123 002e 7B68     		ldr	r3, [r7, #4]
 188:Drivers/lvgl/src/core/lv_obj_class.c **** 
 124              		.loc 1 188 18 view .LVU43
 125 0030 2760     		str	r7, [r4]
 126              		.loc 1 190 5 is_stmt 1 view .LVU44
 127              		.loc 1 190 7 is_stmt 0 view .LVU45
 128 0032 13B1     		cbz	r3, .L5
ARM GAS  /var/folders/0z/tsy30v1j4xl4_7kw94k978ww0000gn/T//ccqFXe0n.s 			page 7


 129              		.loc 1 190 38 is_stmt 1 view .LVU46
 130 0034 3846     		mov	r0, r7
 131 0036 2146     		mov	r1, r4
 132 0038 9847     		blx	r3
 133              	.LVL8:
 134              	.L5:
 135              		.loc 1 190 38 is_stmt 0 view .LVU47
 136              	.LBE16:
 137              	.LBE15:
 188:Drivers/lvgl/src/core/lv_obj_class.c **** 
 138              		.loc 1 188 5 is_stmt 1 view .LVU48
 139              		.loc 1 190 20 is_stmt 0 view .LVU49
 140 003a 7368     		ldr	r3, [r6, #4]
 188:Drivers/lvgl/src/core/lv_obj_class.c **** 
 141              		.loc 1 188 18 view .LVU50
 142 003c 2660     		str	r6, [r4]
 143              		.loc 1 190 5 is_stmt 1 view .LVU51
 144              		.loc 1 190 7 is_stmt 0 view .LVU52
 145 003e 13B1     		cbz	r3, .L3
 146              		.loc 1 190 38 is_stmt 1 view .LVU53
 147 0040 2146     		mov	r1, r4
 148 0042 3046     		mov	r0, r6
 149 0044 9847     		blx	r3
 150              	.LVL9:
 151              	.L3:
 152              		.loc 1 190 38 is_stmt 0 view .LVU54
 153              	.LBE14:
 154              	.LBE13:
 188:Drivers/lvgl/src/core/lv_obj_class.c **** 
 155              		.loc 1 188 5 is_stmt 1 view .LVU55
 156              		.loc 1 190 20 is_stmt 0 view .LVU56
 157 0046 6B68     		ldr	r3, [r5, #4]
 188:Drivers/lvgl/src/core/lv_obj_class.c **** 
 158              		.loc 1 188 18 view .LVU57
 159 0048 2560     		str	r5, [r4]
 160              		.loc 1 190 5 is_stmt 1 view .LVU58
 161              		.loc 1 190 7 is_stmt 0 view .LVU59
 162 004a 2BB1     		cbz	r3, .L1
 163              		.loc 1 190 38 is_stmt 1 discriminator 1 view .LVU60
 164 004c 2146     		mov	r1, r4
 165 004e 2846     		mov	r0, r5
 191:Drivers/lvgl/src/core/lv_obj_class.c **** }
 166              		.loc 1 191 1 is_stmt 0 discriminator 1 view .LVU61
 167 0050 03B0     		add	sp, sp, #12
 168              		.cfi_remember_state
 169              		.cfi_def_cfa_offset 20
 170              		@ sp needed
 171 0052 BDE8F040 		pop	{r4, r5, r6, r7, lr}
 172              		.cfi_restore 14
 173              		.cfi_restore 7
 174              		.cfi_restore 6
 175              		.cfi_restore 5
 176              		.cfi_restore 4
 177              		.cfi_def_cfa_offset 0
 178              	.LVL10:
 190:Drivers/lvgl/src/core/lv_obj_class.c **** }
 179              		.loc 1 190 38 discriminator 1 view .LVU62
ARM GAS  /var/folders/0z/tsy30v1j4xl4_7kw94k978ww0000gn/T//ccqFXe0n.s 			page 8


 180 0056 1847     		bx	r3	@ indirect register sibling call
 181              	.LVL11:
 182              	.L1:
 183              		.cfi_restore_state
 184              		.loc 1 191 1 view .LVU63
 185 0058 03B0     		add	sp, sp, #12
 186              		.cfi_def_cfa_offset 20
 187              		@ sp needed
 188 005a F0BD     		pop	{r4, r5, r6, r7, pc}
 189              		.loc 1 191 1 view .LVU64
 190              		.cfi_endproc
 191              	.LFE166:
 193              		.section	.text.lv_obj_class_create_obj,"ax",%progbits
 194              		.align	1
 195              		.p2align 2,,3
 196              		.global	lv_obj_class_create_obj
 197              		.syntax unified
 198              		.thumb
 199              		.thumb_func
 201              	lv_obj_class_create_obj:
 202              	.LVL12:
 203              	.LFB161:
  44:Drivers/lvgl/src/core/lv_obj_class.c ****     LV_TRACE_OBJ_CREATE("Creating object with %p class on %p parent", (void *)class_p, (void *)pare
 204              		.loc 1 44 1 is_stmt 1 view -0
 205              		.cfi_startproc
 206              		@ args = 0, pretend = 0, frame = 0
 207              		@ frame_needed = 0, uses_anonymous_args = 0
  45:Drivers/lvgl/src/core/lv_obj_class.c ****     uint32_t s = get_instance_size(class_p);
 208              		.loc 1 45 103 view .LVU66
  46:Drivers/lvgl/src/core/lv_obj_class.c ****     lv_obj_t * obj = lv_mem_alloc(s);
 209              		.loc 1 46 5 view .LVU67
 210              	.LBB19:
 211              	.LBI19:
 192:Drivers/lvgl/src/core/lv_obj_class.c **** 
 193:Drivers/lvgl/src/core/lv_obj_class.c **** static uint32_t get_instance_size(const lv_obj_class_t * class_p)
 212              		.loc 1 193 17 view .LVU68
 213              	.LBB20:
 194:Drivers/lvgl/src/core/lv_obj_class.c **** {
 195:Drivers/lvgl/src/core/lv_obj_class.c ****     /*Find a base in which instance size is set*/
 196:Drivers/lvgl/src/core/lv_obj_class.c ****     const lv_obj_class_t * base = class_p;
 214              		.loc 1 196 5 view .LVU69
 197:Drivers/lvgl/src/core/lv_obj_class.c ****     while(base && base->instance_size == 0) base = base->base_class;
 215              		.loc 1 197 5 view .LVU70
 216              		.loc 1 197 16 view .LVU71
 217              	.LBE20:
 218              	.LBE19:
  44:Drivers/lvgl/src/core/lv_obj_class.c ****     LV_TRACE_OBJ_CREATE("Creating object with %p class on %p parent", (void *)class_p, (void *)pare
 219              		.loc 1 44 1 is_stmt 0 view .LVU72
 220 0000 F8B5     		push	{r3, r4, r5, r6, r7, lr}
 221              		.cfi_def_cfa_offset 24
 222              		.cfi_offset 3, -24
 223              		.cfi_offset 4, -20
 224              		.cfi_offset 5, -16
 225              		.cfi_offset 6, -12
 226              		.cfi_offset 7, -8
 227              		.cfi_offset 14, -4
  44:Drivers/lvgl/src/core/lv_obj_class.c ****     LV_TRACE_OBJ_CREATE("Creating object with %p class on %p parent", (void *)class_p, (void *)pare
ARM GAS  /var/folders/0z/tsy30v1j4xl4_7kw94k978ww0000gn/T//ccqFXe0n.s 			page 9


 228              		.loc 1 44 1 view .LVU73
 229 0002 0E46     		mov	r6, r1
 230              	.LBB22:
 231              	.LBB21:
 232              		.loc 1 197 16 view .LVU74
 233 0004 0746     		mov	r7, r0
 198:Drivers/lvgl/src/core/lv_obj_class.c **** 
 199:Drivers/lvgl/src/core/lv_obj_class.c ****     if(base == NULL) return 0;  /*Never happens: set at least in `lv_obj` class*/
 234              		.loc 1 199 29 view .LVU75
 235 0006 0546     		mov	r5, r0
 197:Drivers/lvgl/src/core/lv_obj_class.c **** 
 236              		.loc 1 197 16 view .LVU76
 237 0008 50B1     		cbz	r0, .L29
 197:Drivers/lvgl/src/core/lv_obj_class.c **** 
 238              		.loc 1 197 39 view .LVU77
 239 000a 354C     		ldr	r4, .L53
 197:Drivers/lvgl/src/core/lv_obj_class.c **** 
 240              		.loc 1 197 16 view .LVU78
 241 000c 0346     		mov	r3, r0
 242 000e 01E0     		b	.L28
 243              	.LVL13:
 244              	.L30:
 197:Drivers/lvgl/src/core/lv_obj_class.c **** 
 245              		.loc 1 197 50 view .LVU79
 246 0010 1B68     		ldr	r3, [r3]
 247              	.LVL14:
 197:Drivers/lvgl/src/core/lv_obj_class.c **** 
 248              		.loc 1 197 16 is_stmt 1 view .LVU80
 249 0012 2BB1     		cbz	r3, .L29
 250              	.L28:
 197:Drivers/lvgl/src/core/lv_obj_class.c **** 
 251              		.loc 1 197 45 view .LVU81
 197:Drivers/lvgl/src/core/lv_obj_class.c **** 
 252              		.loc 1 197 39 is_stmt 0 view .LVU82
 253 0014 9A69     		ldr	r2, [r3, #24]
 197:Drivers/lvgl/src/core/lv_obj_class.c **** 
 254              		.loc 1 197 16 view .LVU83
 255 0016 14EA0205 		ands	r5, r4, r2
 256 001a F9D0     		beq	.L30
 257              		.loc 1 199 5 is_stmt 1 view .LVU84
 200:Drivers/lvgl/src/core/lv_obj_class.c **** 
 201:Drivers/lvgl/src/core/lv_obj_class.c ****     return base->instance_size;
 258              		.loc 1 201 5 view .LVU85
 259              		.loc 1 201 16 is_stmt 0 view .LVU86
 260 001c C2F30F15 		ubfx	r5, r2, #4, #16
 261              	.LVL15:
 262              	.L29:
 263              		.loc 1 201 16 view .LVU87
 264              	.LBE21:
 265              	.LBE22:
  47:Drivers/lvgl/src/core/lv_obj_class.c ****     if(obj == NULL) return NULL;
 266              		.loc 1 47 5 is_stmt 1 view .LVU88
  47:Drivers/lvgl/src/core/lv_obj_class.c ****     if(obj == NULL) return NULL;
 267              		.loc 1 47 22 is_stmt 0 view .LVU89
 268 0020 2846     		mov	r0, r5
 269              	.LVL16:
  47:Drivers/lvgl/src/core/lv_obj_class.c ****     if(obj == NULL) return NULL;
ARM GAS  /var/folders/0z/tsy30v1j4xl4_7kw94k978ww0000gn/T//ccqFXe0n.s 			page 10


 270              		.loc 1 47 22 view .LVU90
 271 0022 FFF7FEFF 		bl	lv_mem_alloc
 272              	.LVL17:
  48:Drivers/lvgl/src/core/lv_obj_class.c ****     lv_memset_00(obj, s);
 273              		.loc 1 48 5 is_stmt 1 view .LVU91
  48:Drivers/lvgl/src/core/lv_obj_class.c ****     lv_memset_00(obj, s);
 274              		.loc 1 48 7 is_stmt 0 view .LVU92
 275 0026 0446     		mov	r4, r0
 276 0028 C8B1     		cbz	r0, .L27
  49:Drivers/lvgl/src/core/lv_obj_class.c ****     obj->class_p = class_p;
 277              		.loc 1 49 5 is_stmt 1 view .LVU93
 278 002a 2946     		mov	r1, r5
 279 002c FFF7FEFF 		bl	lv_memset_00
 280              	.LVL18:
  50:Drivers/lvgl/src/core/lv_obj_class.c ****     obj->parent = parent;
 281              		.loc 1 50 5 view .LVU94
  51:Drivers/lvgl/src/core/lv_obj_class.c **** 
 282              		.loc 1 51 17 is_stmt 0 view .LVU95
 283 0030 C4E90076 		strd	r7, r6, [r4]
  54:Drivers/lvgl/src/core/lv_obj_class.c ****         LV_TRACE_OBJ_CREATE("creating a screen");
 284              		.loc 1 54 5 is_stmt 1 view .LVU96
  54:Drivers/lvgl/src/core/lv_obj_class.c ****         LV_TRACE_OBJ_CREATE("creating a screen");
 285              		.loc 1 54 7 is_stmt 0 view .LVU97
 286 0034 06B3     		cbz	r6, .L48
  82:Drivers/lvgl/src/core/lv_obj_class.c ****         LV_ASSERT_OBJ(parent, MY_CLASS);
 287              		.loc 1 82 54 is_stmt 1 view .LVU98
  83:Drivers/lvgl/src/core/lv_obj_class.c ****         if(parent->spec_attr == NULL) {
 288              		.loc 1 83 9 view .LVU99
  83:Drivers/lvgl/src/core/lv_obj_class.c ****         if(parent->spec_attr == NULL) {
 289              		.loc 1 83 9 view .LVU100
  83:Drivers/lvgl/src/core/lv_obj_class.c ****         if(parent->spec_attr == NULL) {
 290              		.loc 1 83 9 view .LVU101
  84:Drivers/lvgl/src/core/lv_obj_class.c ****             lv_obj_allocate_spec_attr(parent);
 291              		.loc 1 84 9 view .LVU102
  84:Drivers/lvgl/src/core/lv_obj_class.c ****             lv_obj_allocate_spec_attr(parent);
 292              		.loc 1 84 18 is_stmt 0 view .LVU103
 293 0036 B568     		ldr	r5, [r6, #8]
 294              	.LVL19:
  84:Drivers/lvgl/src/core/lv_obj_class.c ****             lv_obj_allocate_spec_attr(parent);
 295              		.loc 1 84 11 view .LVU104
 296 0038 002D     		cmp	r5, #0
 297 003a 3ED0     		beq	.L49
 298              	.L37:
  88:Drivers/lvgl/src/core/lv_obj_class.c ****             parent->spec_attr->children = lv_mem_alloc(sizeof(lv_obj_t *));
 299              		.loc 1 88 9 is_stmt 1 view .LVU105
  88:Drivers/lvgl/src/core/lv_obj_class.c ****             parent->spec_attr->children = lv_mem_alloc(sizeof(lv_obj_t *));
 300              		.loc 1 88 29 is_stmt 0 view .LVU106
 301 003c 2868     		ldr	r0, [r5]
  88:Drivers/lvgl/src/core/lv_obj_class.c ****             parent->spec_attr->children = lv_mem_alloc(sizeof(lv_obj_t *));
 302              		.loc 1 88 11 view .LVU107
 303 003e 80B1     		cbz	r0, .L50
  94:Drivers/lvgl/src/core/lv_obj_class.c ****             parent->spec_attr->children = lv_mem_realloc(parent->spec_attr->children,
 304              		.loc 1 94 13 is_stmt 1 view .LVU108
  94:Drivers/lvgl/src/core/lv_obj_class.c ****             parent->spec_attr->children = lv_mem_realloc(parent->spec_attr->children,
 305              		.loc 1 94 41 is_stmt 0 view .LVU109
 306 0040 6968     		ldr	r1, [r5, #4]
 307 0042 0131     		adds	r1, r1, #1
ARM GAS  /var/folders/0z/tsy30v1j4xl4_7kw94k978ww0000gn/T//ccqFXe0n.s 			page 11


 308 0044 6960     		str	r1, [r5, #4]
  95:Drivers/lvgl/src/core/lv_obj_class.c ****                                                          sizeof(lv_obj_t *) * parent->spec_attr->ch
 309              		.loc 1 95 13 is_stmt 1 view .LVU110
  95:Drivers/lvgl/src/core/lv_obj_class.c ****                                                          sizeof(lv_obj_t *) * parent->spec_attr->ch
 310              		.loc 1 95 43 is_stmt 0 view .LVU111
 311 0046 8900     		lsls	r1, r1, #2
 312 0048 FFF7FEFF 		bl	lv_mem_realloc
 313              	.LVL20:
  97:Drivers/lvgl/src/core/lv_obj_class.c ****         }
 314              		.loc 1 97 19 view .LVU112
 315 004c B268     		ldr	r2, [r6, #8]
  95:Drivers/lvgl/src/core/lv_obj_class.c ****                                                          sizeof(lv_obj_t *) * parent->spec_attr->ch
 316              		.loc 1 95 41 view .LVU113
 317 004e 2860     		str	r0, [r5]
  97:Drivers/lvgl/src/core/lv_obj_class.c ****         }
 318              		.loc 1 97 13 is_stmt 1 view .LVU114
  97:Drivers/lvgl/src/core/lv_obj_class.c ****         }
 319              		.loc 1 97 75 is_stmt 0 view .LVU115
 320 0050 D2E90023 		ldrd	r2, r3, [r2]
  97:Drivers/lvgl/src/core/lv_obj_class.c ****         }
 321              		.loc 1 97 40 view .LVU116
 322 0054 03F18043 		add	r3, r3, #1073741824
 323 0058 013B     		subs	r3, r3, #1
  97:Drivers/lvgl/src/core/lv_obj_class.c ****         }
 324              		.loc 1 97 75 view .LVU117
 325 005a 42F82340 		str	r4, [r2, r3, lsl #2]
 326              	.LVL21:
 327              	.L27:
 102:Drivers/lvgl/src/core/lv_obj_class.c **** 
 328              		.loc 1 102 1 view .LVU118
 329 005e 2046     		mov	r0, r4
 330 0060 F8BD     		pop	{r3, r4, r5, r6, r7, pc}
 331              	.LVL22:
 332              	.L50:
  89:Drivers/lvgl/src/core/lv_obj_class.c ****             parent->spec_attr->children[0] = obj;
 333              		.loc 1 89 13 is_stmt 1 view .LVU119
  89:Drivers/lvgl/src/core/lv_obj_class.c ****             parent->spec_attr->children[0] = obj;
 334              		.loc 1 89 43 is_stmt 0 view .LVU120
 335 0062 0420     		movs	r0, #4
 336 0064 FFF7FEFF 		bl	lv_mem_alloc
 337              	.LVL23:
  90:Drivers/lvgl/src/core/lv_obj_class.c ****             parent->spec_attr->child_cnt = 1;
 338              		.loc 1 90 19 view .LVU121
 339 0068 B368     		ldr	r3, [r6, #8]
  89:Drivers/lvgl/src/core/lv_obj_class.c ****             parent->spec_attr->children[0] = obj;
 340              		.loc 1 89 41 view .LVU122
 341 006a 2860     		str	r0, [r5]
  90:Drivers/lvgl/src/core/lv_obj_class.c ****             parent->spec_attr->child_cnt = 1;
 342              		.loc 1 90 13 is_stmt 1 view .LVU123
  90:Drivers/lvgl/src/core/lv_obj_class.c ****             parent->spec_attr->child_cnt = 1;
 343              		.loc 1 90 44 is_stmt 0 view .LVU124
 344 006c 1968     		ldr	r1, [r3]
  91:Drivers/lvgl/src/core/lv_obj_class.c ****         }
 345              		.loc 1 91 42 view .LVU125
 346 006e 0122     		movs	r2, #1
  90:Drivers/lvgl/src/core/lv_obj_class.c ****             parent->spec_attr->child_cnt = 1;
 347              		.loc 1 90 44 view .LVU126
ARM GAS  /var/folders/0z/tsy30v1j4xl4_7kw94k978ww0000gn/T//ccqFXe0n.s 			page 12


 348 0070 0C60     		str	r4, [r1]
  91:Drivers/lvgl/src/core/lv_obj_class.c ****         }
 349              		.loc 1 91 13 is_stmt 1 view .LVU127
 102:Drivers/lvgl/src/core/lv_obj_class.c **** 
 350              		.loc 1 102 1 is_stmt 0 view .LVU128
 351 0072 2046     		mov	r0, r4
  91:Drivers/lvgl/src/core/lv_obj_class.c ****         }
 352              		.loc 1 91 42 view .LVU129
 353 0074 5A60     		str	r2, [r3, #4]
 102:Drivers/lvgl/src/core/lv_obj_class.c **** 
 354              		.loc 1 102 1 view .LVU130
 355 0076 F8BD     		pop	{r3, r4, r5, r6, r7, pc}
 356              	.LVL24:
 357              	.L48:
 358              	.LBB23:
  55:Drivers/lvgl/src/core/lv_obj_class.c ****         lv_disp_t * disp = lv_disp_get_default();
 359              		.loc 1 55 49 is_stmt 1 view .LVU131
  56:Drivers/lvgl/src/core/lv_obj_class.c ****         if(!disp) {
 360              		.loc 1 56 9 view .LVU132
  56:Drivers/lvgl/src/core/lv_obj_class.c ****         if(!disp) {
 361              		.loc 1 56 28 is_stmt 0 view .LVU133
 362 0078 FFF7FEFF 		bl	lv_disp_get_default
 363              	.LVL25:
  57:Drivers/lvgl/src/core/lv_obj_class.c ****             LV_LOG_WARN("No display created yet. No place to assign the new screen");
 364              		.loc 1 57 9 is_stmt 1 view .LVU134
  57:Drivers/lvgl/src/core/lv_obj_class.c ****             LV_LOG_WARN("No display created yet. No place to assign the new screen");
 365              		.loc 1 57 11 is_stmt 0 view .LVU135
 366 007c 0546     		mov	r5, r0
 367              	.LVL26:
  57:Drivers/lvgl/src/core/lv_obj_class.c ****             LV_LOG_WARN("No display created yet. No place to assign the new screen");
 368              		.loc 1 57 11 view .LVU136
 369 007e 48B3     		cbz	r0, .L51
  63:Drivers/lvgl/src/core/lv_obj_class.c ****             disp->screens = lv_mem_alloc(sizeof(lv_obj_t *));
 370              		.loc 1 63 9 is_stmt 1 view .LVU137
  63:Drivers/lvgl/src/core/lv_obj_class.c ****             disp->screens = lv_mem_alloc(sizeof(lv_obj_t *));
 371              		.loc 1 63 16 is_stmt 0 view .LVU138
 372 0080 C068     		ldr	r0, [r0, #12]
 373              	.LVL27:
  63:Drivers/lvgl/src/core/lv_obj_class.c ****             disp->screens = lv_mem_alloc(sizeof(lv_obj_t *));
 374              		.loc 1 63 11 view .LVU139
 375 0082 F8B1     		cbz	r0, .L52
  69:Drivers/lvgl/src/core/lv_obj_class.c ****             disp->screens = lv_mem_realloc(disp->screens, sizeof(lv_obj_t *) * disp->screen_cnt);
 376              		.loc 1 69 13 is_stmt 1 view .LVU140
  69:Drivers/lvgl/src/core/lv_obj_class.c ****             disp->screens = lv_mem_realloc(disp->screens, sizeof(lv_obj_t *) * disp->screen_cnt);
 377              		.loc 1 69 29 is_stmt 0 view .LVU141
 378 0084 696A     		ldr	r1, [r5, #36]
 379 0086 0131     		adds	r1, r1, #1
 380 0088 6962     		str	r1, [r5, #36]
  70:Drivers/lvgl/src/core/lv_obj_class.c ****             disp->screens[disp->screen_cnt - 1] = obj;
 381              		.loc 1 70 13 is_stmt 1 view .LVU142
  70:Drivers/lvgl/src/core/lv_obj_class.c ****             disp->screens[disp->screen_cnt - 1] = obj;
 382              		.loc 1 70 29 is_stmt 0 view .LVU143
 383 008a 8900     		lsls	r1, r1, #2
 384 008c FFF7FEFF 		bl	lv_mem_realloc
 385              	.LVL28:
  71:Drivers/lvgl/src/core/lv_obj_class.c ****         }
 386              		.loc 1 71 26 view .LVU144
ARM GAS  /var/folders/0z/tsy30v1j4xl4_7kw94k978ww0000gn/T//ccqFXe0n.s 			page 13


 387 0090 6B6A     		ldr	r3, [r5, #36]
  70:Drivers/lvgl/src/core/lv_obj_class.c ****             disp->screens[disp->screen_cnt - 1] = obj;
 388              		.loc 1 70 27 view .LVU145
 389 0092 E860     		str	r0, [r5, #12]
  71:Drivers/lvgl/src/core/lv_obj_class.c ****         }
 390              		.loc 1 71 13 is_stmt 1 view .LVU146
  71:Drivers/lvgl/src/core/lv_obj_class.c ****         }
 391              		.loc 1 71 26 is_stmt 0 view .LVU147
 392 0094 03F18043 		add	r3, r3, #1073741824
 393 0098 013B     		subs	r3, r3, #1
  71:Drivers/lvgl/src/core/lv_obj_class.c ****         }
 394              		.loc 1 71 49 view .LVU148
 395 009a 40F82340 		str	r4, [r0, r3, lsl #2]
 396              	.L36:
  75:Drivers/lvgl/src/core/lv_obj_class.c ****         obj->coords.y1 = 0;
 397              		.loc 1 75 9 is_stmt 1 view .LVU149
  76:Drivers/lvgl/src/core/lv_obj_class.c ****         obj->coords.x2 = lv_disp_get_hor_res(NULL) - 1;
 398              		.loc 1 76 9 view .LVU150
  75:Drivers/lvgl/src/core/lv_obj_class.c ****         obj->coords.y1 = 0;
 399              		.loc 1 75 24 is_stmt 0 view .LVU151
 400 009e 0025     		movs	r5, #0
 401              	.LVL29:
  75:Drivers/lvgl/src/core/lv_obj_class.c ****         obj->coords.y1 = 0;
 402              		.loc 1 75 24 view .LVU152
 403 00a0 6561     		str	r5, [r4, #20]
  77:Drivers/lvgl/src/core/lv_obj_class.c ****         obj->coords.y2 = lv_disp_get_ver_res(NULL) - 1;
 404              		.loc 1 77 9 is_stmt 1 view .LVU153
  77:Drivers/lvgl/src/core/lv_obj_class.c ****         obj->coords.y2 = lv_disp_get_ver_res(NULL) - 1;
 405              		.loc 1 77 26 is_stmt 0 view .LVU154
 406 00a2 2846     		mov	r0, r5
 407 00a4 FFF7FEFF 		bl	lv_disp_get_hor_res
 408              	.LVL30:
  77:Drivers/lvgl/src/core/lv_obj_class.c ****         obj->coords.y2 = lv_disp_get_ver_res(NULL) - 1;
 409              		.loc 1 77 52 view .LVU155
 410 00a8 0138     		subs	r0, r0, #1
  77:Drivers/lvgl/src/core/lv_obj_class.c ****         obj->coords.y2 = lv_disp_get_ver_res(NULL) - 1;
 411              		.loc 1 77 24 view .LVU156
 412 00aa 2083     		strh	r0, [r4, #24]	@ movhi
  78:Drivers/lvgl/src/core/lv_obj_class.c ****     }
 413              		.loc 1 78 9 is_stmt 1 view .LVU157
  78:Drivers/lvgl/src/core/lv_obj_class.c ****     }
 414              		.loc 1 78 26 is_stmt 0 view .LVU158
 415 00ac 2846     		mov	r0, r5
 416 00ae FFF7FEFF 		bl	lv_disp_get_ver_res
 417              	.LVL31:
  78:Drivers/lvgl/src/core/lv_obj_class.c ****     }
 418              		.loc 1 78 52 view .LVU159
 419 00b2 0138     		subs	r0, r0, #1
  78:Drivers/lvgl/src/core/lv_obj_class.c ****     }
 420              		.loc 1 78 24 view .LVU160
 421 00b4 6083     		strh	r0, [r4, #26]	@ movhi
 422              	.LBE23:
 102:Drivers/lvgl/src/core/lv_obj_class.c **** 
 423              		.loc 1 102 1 view .LVU161
 424 00b6 2046     		mov	r0, r4
 425 00b8 F8BD     		pop	{r3, r4, r5, r6, r7, pc}
 426              	.LVL32:
ARM GAS  /var/folders/0z/tsy30v1j4xl4_7kw94k978ww0000gn/T//ccqFXe0n.s 			page 14


 427              	.L49:
  85:Drivers/lvgl/src/core/lv_obj_class.c ****         }
 428              		.loc 1 85 13 is_stmt 1 view .LVU162
 429 00ba 3046     		mov	r0, r6
 430 00bc FFF7FEFF 		bl	lv_obj_allocate_spec_attr
 431              	.LVL33:
  88:Drivers/lvgl/src/core/lv_obj_class.c ****             parent->spec_attr->children = lv_mem_alloc(sizeof(lv_obj_t *));
 432              		.loc 1 88 18 is_stmt 0 view .LVU163
 433 00c0 B568     		ldr	r5, [r6, #8]
 434 00c2 BBE7     		b	.L37
 435              	.LVL34:
 436              	.L52:
 437              	.LBB24:
  64:Drivers/lvgl/src/core/lv_obj_class.c ****             disp->screens[0] = obj;
 438              		.loc 1 64 13 is_stmt 1 view .LVU164
  64:Drivers/lvgl/src/core/lv_obj_class.c ****             disp->screens[0] = obj;
 439              		.loc 1 64 29 is_stmt 0 view .LVU165
 440 00c4 0420     		movs	r0, #4
 441 00c6 FFF7FEFF 		bl	lv_mem_alloc
 442              	.LVL35:
  66:Drivers/lvgl/src/core/lv_obj_class.c ****         }
 443              		.loc 1 66 30 view .LVU166
 444 00ca 0123     		movs	r3, #1
  64:Drivers/lvgl/src/core/lv_obj_class.c ****             disp->screens[0] = obj;
 445              		.loc 1 64 27 view .LVU167
 446 00cc E860     		str	r0, [r5, #12]
  65:Drivers/lvgl/src/core/lv_obj_class.c ****             disp->screen_cnt = 1;
 447              		.loc 1 65 13 is_stmt 1 view .LVU168
  65:Drivers/lvgl/src/core/lv_obj_class.c ****             disp->screen_cnt = 1;
 448              		.loc 1 65 30 is_stmt 0 view .LVU169
 449 00ce 0460     		str	r4, [r0]
  66:Drivers/lvgl/src/core/lv_obj_class.c ****         }
 450              		.loc 1 66 13 is_stmt 1 view .LVU170
  66:Drivers/lvgl/src/core/lv_obj_class.c ****         }
 451              		.loc 1 66 30 is_stmt 0 view .LVU171
 452 00d0 6B62     		str	r3, [r5, #36]
 453 00d2 E4E7     		b	.L36
 454              	.LVL36:
 455              	.L51:
  58:Drivers/lvgl/src/core/lv_obj_class.c ****             lv_mem_free(obj);
 456              		.loc 1 58 13 is_stmt 1 view .LVU172
  58:Drivers/lvgl/src/core/lv_obj_class.c ****             lv_mem_free(obj);
 457              		.loc 1 58 13 view .LVU173
  58:Drivers/lvgl/src/core/lv_obj_class.c ****             lv_mem_free(obj);
 458              		.loc 1 58 13 view .LVU174
  59:Drivers/lvgl/src/core/lv_obj_class.c ****             return NULL;
 459              		.loc 1 59 13 view .LVU175
 460 00d4 2046     		mov	r0, r4
 461              	.LVL37:
  59:Drivers/lvgl/src/core/lv_obj_class.c ****             return NULL;
 462              		.loc 1 59 13 is_stmt 0 view .LVU176
 463 00d6 FFF7FEFF 		bl	lv_mem_free
 464              	.LVL38:
  60:Drivers/lvgl/src/core/lv_obj_class.c ****         }
 465              		.loc 1 60 13 is_stmt 1 view .LVU177
  60:Drivers/lvgl/src/core/lv_obj_class.c ****         }
 466              		.loc 1 60 20 is_stmt 0 view .LVU178
ARM GAS  /var/folders/0z/tsy30v1j4xl4_7kw94k978ww0000gn/T//ccqFXe0n.s 			page 15


 467 00da 3446     		mov	r4, r6
 468              	.LVL39:
  60:Drivers/lvgl/src/core/lv_obj_class.c ****         }
 469              		.loc 1 60 20 view .LVU179
 470 00dc BFE7     		b	.L27
 471              	.L54:
 472 00de 00BF     		.align	2
 473              	.L53:
 474 00e0 F0FF0F00 		.word	1048560
 475              	.LBE24:
 476              		.cfi_endproc
 477              	.LFE161:
 479              		.section	.text.lv_obj_class_init_obj,"ax",%progbits
 480              		.align	1
 481              		.p2align 2,,3
 482              		.global	lv_obj_class_init_obj
 483              		.syntax unified
 484              		.thumb
 485              		.thumb_func
 487              	lv_obj_class_init_obj:
 488              	.LVL40:
 489              	.LFB162:
 105:Drivers/lvgl/src/core/lv_obj_class.c ****     lv_obj_mark_layout_as_dirty(obj);
 490              		.loc 1 105 1 is_stmt 1 view -0
 491              		.cfi_startproc
 492              		@ args = 0, pretend = 0, frame = 8
 493              		@ frame_needed = 0, uses_anonymous_args = 0
 106:Drivers/lvgl/src/core/lv_obj_class.c ****     lv_obj_enable_style_refresh(false);
 494              		.loc 1 106 5 view .LVU181
 105:Drivers/lvgl/src/core/lv_obj_class.c ****     lv_obj_mark_layout_as_dirty(obj);
 495              		.loc 1 105 1 is_stmt 0 view .LVU182
 496 0000 F0B5     		push	{r4, r5, r6, r7, lr}
 497              		.cfi_def_cfa_offset 20
 498              		.cfi_offset 4, -20
 499              		.cfi_offset 5, -16
 500              		.cfi_offset 6, -12
 501              		.cfi_offset 7, -8
 502              		.cfi_offset 14, -4
 503 0002 83B0     		sub	sp, sp, #12
 504              		.cfi_def_cfa_offset 32
 105:Drivers/lvgl/src/core/lv_obj_class.c ****     lv_obj_mark_layout_as_dirty(obj);
 505              		.loc 1 105 1 view .LVU183
 506 0004 0446     		mov	r4, r0
 106:Drivers/lvgl/src/core/lv_obj_class.c ****     lv_obj_enable_style_refresh(false);
 507              		.loc 1 106 5 view .LVU184
 508 0006 FFF7FEFF 		bl	lv_obj_mark_layout_as_dirty
 509              	.LVL41:
 107:Drivers/lvgl/src/core/lv_obj_class.c **** 
 510              		.loc 1 107 5 is_stmt 1 view .LVU185
 511 000a 0020     		movs	r0, #0
 512 000c FFF7FEFF 		bl	lv_obj_enable_style_refresh
 513              	.LVL42:
 109:Drivers/lvgl/src/core/lv_obj_class.c ****     lv_obj_construct(obj);
 514              		.loc 1 109 5 view .LVU186
 515 0010 2046     		mov	r0, r4
 516 0012 FFF7FEFF 		bl	lv_theme_apply
 517              	.LVL43:
ARM GAS  /var/folders/0z/tsy30v1j4xl4_7kw94k978ww0000gn/T//ccqFXe0n.s 			page 16


 110:Drivers/lvgl/src/core/lv_obj_class.c **** 
 518              		.loc 1 110 5 view .LVU187
 519              	.LBB35:
 520              	.LBI35:
 175:Drivers/lvgl/src/core/lv_obj_class.c **** {
 521              		.loc 1 175 13 view .LVU188
 522              	.LBB36:
 177:Drivers/lvgl/src/core/lv_obj_class.c **** 
 523              		.loc 1 177 5 view .LVU189
 177:Drivers/lvgl/src/core/lv_obj_class.c **** 
 524              		.loc 1 177 28 is_stmt 0 view .LVU190
 525 0016 2568     		ldr	r5, [r4]
 526              	.LVL44:
 179:Drivers/lvgl/src/core/lv_obj_class.c ****         /*Don't let the descendant methods run during constructing the ancestor type*/
 527              		.loc 1 179 5 is_stmt 1 view .LVU191
 179:Drivers/lvgl/src/core/lv_obj_class.c ****         /*Don't let the descendant methods run during constructing the ancestor type*/
 528              		.loc 1 179 20 is_stmt 0 view .LVU192
 529 0018 2E68     		ldr	r6, [r5]
 179:Drivers/lvgl/src/core/lv_obj_class.c ****         /*Don't let the descendant methods run during constructing the ancestor type*/
 530              		.loc 1 179 7 view .LVU193
 531 001a EEB1     		cbz	r6, .L57
 181:Drivers/lvgl/src/core/lv_obj_class.c **** 
 532              		.loc 1 181 9 is_stmt 1 view .LVU194
 184:Drivers/lvgl/src/core/lv_obj_class.c ****     }
 533              		.loc 1 184 9 view .LVU195
 534              	.LVL45:
 535              	.LBB37:
 536              	.LBI37:
 175:Drivers/lvgl/src/core/lv_obj_class.c **** {
 537              		.loc 1 175 13 view .LVU196
 538              	.LBB38:
 177:Drivers/lvgl/src/core/lv_obj_class.c **** 
 539              		.loc 1 177 5 view .LVU197
 179:Drivers/lvgl/src/core/lv_obj_class.c ****         /*Don't let the descendant methods run during constructing the ancestor type*/
 540              		.loc 1 179 5 view .LVU198
 179:Drivers/lvgl/src/core/lv_obj_class.c ****         /*Don't let the descendant methods run during constructing the ancestor type*/
 541              		.loc 1 179 20 is_stmt 0 view .LVU199
 542 001c 3768     		ldr	r7, [r6]
 179:Drivers/lvgl/src/core/lv_obj_class.c ****         /*Don't let the descendant methods run during constructing the ancestor type*/
 543              		.loc 1 179 7 view .LVU200
 544 001e AFB1     		cbz	r7, .L59
 181:Drivers/lvgl/src/core/lv_obj_class.c **** 
 545              		.loc 1 181 9 is_stmt 1 view .LVU201
 184:Drivers/lvgl/src/core/lv_obj_class.c ****     }
 546              		.loc 1 184 9 view .LVU202
 547              	.LVL46:
 548              	.LBB39:
 549              	.LBI39:
 175:Drivers/lvgl/src/core/lv_obj_class.c **** {
 550              		.loc 1 175 13 view .LVU203
 551              	.LBB40:
 177:Drivers/lvgl/src/core/lv_obj_class.c **** 
 552              		.loc 1 177 5 view .LVU204
 179:Drivers/lvgl/src/core/lv_obj_class.c ****         /*Don't let the descendant methods run during constructing the ancestor type*/
 553              		.loc 1 179 5 view .LVU205
 179:Drivers/lvgl/src/core/lv_obj_class.c ****         /*Don't let the descendant methods run during constructing the ancestor type*/
 554              		.loc 1 179 20 is_stmt 0 view .LVU206
ARM GAS  /var/folders/0z/tsy30v1j4xl4_7kw94k978ww0000gn/T//ccqFXe0n.s 			page 17


 555 0020 3B68     		ldr	r3, [r7]
 179:Drivers/lvgl/src/core/lv_obj_class.c ****         /*Don't let the descendant methods run during constructing the ancestor type*/
 556              		.loc 1 179 7 view .LVU207
 557 0022 6BB1     		cbz	r3, .L61
 181:Drivers/lvgl/src/core/lv_obj_class.c **** 
 558              		.loc 1 181 9 is_stmt 1 view .LVU208
 184:Drivers/lvgl/src/core/lv_obj_class.c ****     }
 559              		.loc 1 184 9 view .LVU209
 560              	.LVL47:
 561              	.LBB41:
 562              	.LBI41:
 175:Drivers/lvgl/src/core/lv_obj_class.c **** {
 563              		.loc 1 175 13 view .LVU210
 564              	.LBB42:
 177:Drivers/lvgl/src/core/lv_obj_class.c **** 
 565              		.loc 1 177 5 view .LVU211
 179:Drivers/lvgl/src/core/lv_obj_class.c ****         /*Don't let the descendant methods run during constructing the ancestor type*/
 566              		.loc 1 179 5 view .LVU212
 179:Drivers/lvgl/src/core/lv_obj_class.c ****         /*Don't let the descendant methods run during constructing the ancestor type*/
 567              		.loc 1 179 20 is_stmt 0 view .LVU213
 568 0024 1A68     		ldr	r2, [r3]
 179:Drivers/lvgl/src/core/lv_obj_class.c ****         /*Don't let the descendant methods run during constructing the ancestor type*/
 569              		.loc 1 179 7 view .LVU214
 570 0026 2AB1     		cbz	r2, .L62
 181:Drivers/lvgl/src/core/lv_obj_class.c **** 
 571              		.loc 1 181 22 view .LVU215
 572 0028 2260     		str	r2, [r4]
 184:Drivers/lvgl/src/core/lv_obj_class.c ****     }
 573              		.loc 1 184 9 view .LVU216
 574 002a 2046     		mov	r0, r4
 575 002c 0193     		str	r3, [sp, #4]
 181:Drivers/lvgl/src/core/lv_obj_class.c **** 
 576              		.loc 1 181 9 is_stmt 1 view .LVU217
 184:Drivers/lvgl/src/core/lv_obj_class.c ****     }
 577              		.loc 1 184 9 view .LVU218
 578 002e FFF7FEFF 		bl	lv_obj_construct
 579              	.LVL48:
 184:Drivers/lvgl/src/core/lv_obj_class.c ****     }
 580              		.loc 1 184 9 is_stmt 0 view .LVU219
 581 0032 019B     		ldr	r3, [sp, #4]
 582              	.LVL49:
 583              	.L62:
 188:Drivers/lvgl/src/core/lv_obj_class.c **** 
 584              		.loc 1 188 5 is_stmt 1 view .LVU220
 190:Drivers/lvgl/src/core/lv_obj_class.c **** }
 585              		.loc 1 190 20 is_stmt 0 view .LVU221
 586 0034 5A68     		ldr	r2, [r3, #4]
 188:Drivers/lvgl/src/core/lv_obj_class.c **** 
 587              		.loc 1 188 18 view .LVU222
 588 0036 2360     		str	r3, [r4]
 190:Drivers/lvgl/src/core/lv_obj_class.c **** }
 589              		.loc 1 190 5 is_stmt 1 view .LVU223
 190:Drivers/lvgl/src/core/lv_obj_class.c **** }
 590              		.loc 1 190 7 is_stmt 0 view .LVU224
 591 0038 12B1     		cbz	r2, .L61
 190:Drivers/lvgl/src/core/lv_obj_class.c **** }
 592              		.loc 1 190 38 is_stmt 1 view .LVU225
ARM GAS  /var/folders/0z/tsy30v1j4xl4_7kw94k978ww0000gn/T//ccqFXe0n.s 			page 18


 593 003a 1846     		mov	r0, r3
 594 003c 2146     		mov	r1, r4
 595 003e 9047     		blx	r2
 596              	.LVL50:
 597              	.L61:
 190:Drivers/lvgl/src/core/lv_obj_class.c **** }
 598              		.loc 1 190 38 is_stmt 0 view .LVU226
 599              	.LBE42:
 600              	.LBE41:
 188:Drivers/lvgl/src/core/lv_obj_class.c **** 
 601              		.loc 1 188 5 is_stmt 1 view .LVU227
 190:Drivers/lvgl/src/core/lv_obj_class.c **** }
 602              		.loc 1 190 20 is_stmt 0 view .LVU228
 603 0040 7B68     		ldr	r3, [r7, #4]
 188:Drivers/lvgl/src/core/lv_obj_class.c **** 
 604              		.loc 1 188 18 view .LVU229
 605 0042 2760     		str	r7, [r4]
 190:Drivers/lvgl/src/core/lv_obj_class.c **** }
 606              		.loc 1 190 5 is_stmt 1 view .LVU230
 190:Drivers/lvgl/src/core/lv_obj_class.c **** }
 607              		.loc 1 190 7 is_stmt 0 view .LVU231
 608 0044 13B1     		cbz	r3, .L59
 190:Drivers/lvgl/src/core/lv_obj_class.c **** }
 609              		.loc 1 190 38 is_stmt 1 view .LVU232
 610 0046 3846     		mov	r0, r7
 611 0048 2146     		mov	r1, r4
 612 004a 9847     		blx	r3
 613              	.LVL51:
 614              	.L59:
 190:Drivers/lvgl/src/core/lv_obj_class.c **** }
 615              		.loc 1 190 38 is_stmt 0 view .LVU233
 616              	.LBE40:
 617              	.LBE39:
 188:Drivers/lvgl/src/core/lv_obj_class.c **** 
 618              		.loc 1 188 5 is_stmt 1 view .LVU234
 190:Drivers/lvgl/src/core/lv_obj_class.c **** }
 619              		.loc 1 190 20 is_stmt 0 view .LVU235
 620 004c 7368     		ldr	r3, [r6, #4]
 188:Drivers/lvgl/src/core/lv_obj_class.c **** 
 621              		.loc 1 188 18 view .LVU236
 622 004e 2660     		str	r6, [r4]
 190:Drivers/lvgl/src/core/lv_obj_class.c **** }
 623              		.loc 1 190 5 is_stmt 1 view .LVU237
 190:Drivers/lvgl/src/core/lv_obj_class.c **** }
 624              		.loc 1 190 7 is_stmt 0 view .LVU238
 625 0050 13B1     		cbz	r3, .L57
 190:Drivers/lvgl/src/core/lv_obj_class.c **** }
 626              		.loc 1 190 38 is_stmt 1 view .LVU239
 627 0052 2146     		mov	r1, r4
 628 0054 3046     		mov	r0, r6
 629 0056 9847     		blx	r3
 630              	.LVL52:
 631              	.L57:
 190:Drivers/lvgl/src/core/lv_obj_class.c **** }
 632              		.loc 1 190 38 is_stmt 0 view .LVU240
 633              	.LBE38:
 634              	.LBE37:
ARM GAS  /var/folders/0z/tsy30v1j4xl4_7kw94k978ww0000gn/T//ccqFXe0n.s 			page 19


 188:Drivers/lvgl/src/core/lv_obj_class.c **** 
 635              		.loc 1 188 5 is_stmt 1 view .LVU241
 190:Drivers/lvgl/src/core/lv_obj_class.c **** }
 636              		.loc 1 190 20 is_stmt 0 view .LVU242
 637 0058 6B68     		ldr	r3, [r5, #4]
 188:Drivers/lvgl/src/core/lv_obj_class.c **** 
 638              		.loc 1 188 18 view .LVU243
 639 005a 2560     		str	r5, [r4]
 190:Drivers/lvgl/src/core/lv_obj_class.c **** }
 640              		.loc 1 190 5 is_stmt 1 view .LVU244
 190:Drivers/lvgl/src/core/lv_obj_class.c **** }
 641              		.loc 1 190 7 is_stmt 0 view .LVU245
 642 005c 13B1     		cbz	r3, .L66
 190:Drivers/lvgl/src/core/lv_obj_class.c **** }
 643              		.loc 1 190 38 is_stmt 1 view .LVU246
 644 005e 2146     		mov	r1, r4
 645 0060 2846     		mov	r0, r5
 646 0062 9847     		blx	r3
 647              	.LVL53:
 648              	.L66:
 190:Drivers/lvgl/src/core/lv_obj_class.c **** }
 649              		.loc 1 190 38 is_stmt 0 view .LVU247
 650              	.LBE36:
 651              	.LBE35:
 112:Drivers/lvgl/src/core/lv_obj_class.c ****     lv_obj_refresh_style(obj, LV_PART_ANY, LV_STYLE_PROP_ANY);
 652              		.loc 1 112 5 is_stmt 1 view .LVU248
 653 0064 0120     		movs	r0, #1
 654 0066 FFF7FEFF 		bl	lv_obj_enable_style_refresh
 655              	.LVL54:
 113:Drivers/lvgl/src/core/lv_obj_class.c **** 
 656              		.loc 1 113 5 view .LVU249
 657 006a 4FF6FF72 		movw	r2, #65535
 658 006e 4FF47021 		mov	r1, #983040
 659 0072 2046     		mov	r0, r4
 660 0074 FFF7FEFF 		bl	lv_obj_refresh_style
 661              	.LVL55:
 115:Drivers/lvgl/src/core/lv_obj_class.c **** 
 662              		.loc 1 115 5 view .LVU250
 663 0078 2046     		mov	r0, r4
 664 007a FFF7FEFF 		bl	lv_obj_refresh_self_size
 665              	.LVL56:
 117:Drivers/lvgl/src/core/lv_obj_class.c ****     if(def_group && lv_obj_is_group_def(obj)) {
 666              		.loc 1 117 5 view .LVU251
 117:Drivers/lvgl/src/core/lv_obj_class.c ****     if(def_group && lv_obj_is_group_def(obj)) {
 667              		.loc 1 117 30 is_stmt 0 view .LVU252
 668 007e FFF7FEFF 		bl	lv_group_get_default
 669              	.LVL57:
 118:Drivers/lvgl/src/core/lv_obj_class.c ****         lv_group_add_obj(def_group, obj);
 670              		.loc 1 118 5 is_stmt 1 view .LVU253
 118:Drivers/lvgl/src/core/lv_obj_class.c ****         lv_group_add_obj(def_group, obj);
 671              		.loc 1 118 7 is_stmt 0 view .LVU254
 672 0082 50B1     		cbz	r0, .L67
 673              	.LVL58:
 674              	.LBB43:
 675              	.LBI43:
 159:Drivers/lvgl/src/core/lv_obj_class.c **** {
 676              		.loc 1 159 6 is_stmt 1 view .LVU255
ARM GAS  /var/folders/0z/tsy30v1j4xl4_7kw94k978ww0000gn/T//ccqFXe0n.s 			page 20


 677              	.LBB44:
 161:Drivers/lvgl/src/core/lv_obj_class.c **** 
 678              		.loc 1 161 5 view .LVU256
 161:Drivers/lvgl/src/core/lv_obj_class.c **** 
 679              		.loc 1 161 28 is_stmt 0 view .LVU257
 680 0084 2268     		ldr	r2, [r4]
 681              	.LVL59:
 164:Drivers/lvgl/src/core/lv_obj_class.c **** 
 682              		.loc 1 164 5 is_stmt 1 view .LVU258
 164:Drivers/lvgl/src/core/lv_obj_class.c **** 
 683              		.loc 1 164 19 view .LVU259
 684 0086 12B9     		cbnz	r2, .L68
 685 0088 07E0     		b	.L67
 686              	.L69:
 164:Drivers/lvgl/src/core/lv_obj_class.c **** 
 687              		.loc 1 164 84 is_stmt 0 view .LVU260
 688 008a 1268     		ldr	r2, [r2]
 689              	.LVL60:
 164:Drivers/lvgl/src/core/lv_obj_class.c **** 
 690              		.loc 1 164 19 is_stmt 1 view .LVU261
 691 008c 2AB1     		cbz	r2, .L67
 692              	.L68:
 164:Drivers/lvgl/src/core/lv_obj_class.c **** 
 693              		.loc 1 164 76 view .LVU262
 164:Drivers/lvgl/src/core/lv_obj_class.c **** 
 694              		.loc 1 164 41 is_stmt 0 view .LVU263
 695 008e 137E     		ldrb	r3, [r2, #24]	@ zero_extendqisi2
 164:Drivers/lvgl/src/core/lv_obj_class.c **** 
 696              		.loc 1 164 19 view .LVU264
 697 0090 13F00C03 		ands	r3, r3, #12
 698 0094 F9D0     		beq	.L69
 166:Drivers/lvgl/src/core/lv_obj_class.c **** 
 699              		.loc 1 166 5 is_stmt 1 view .LVU265
 168:Drivers/lvgl/src/core/lv_obj_class.c **** }
 700              		.loc 1 168 5 view .LVU266
 701              	.LVL61:
 168:Drivers/lvgl/src/core/lv_obj_class.c **** }
 702              		.loc 1 168 5 is_stmt 0 view .LVU267
 703              	.LBE44:
 704              	.LBE43:
 118:Drivers/lvgl/src/core/lv_obj_class.c ****         lv_group_add_obj(def_group, obj);
 705              		.loc 1 118 18 view .LVU268
 706 0096 042B     		cmp	r3, #4
 707 0098 15D0     		beq	.L97
 708              	.LVL62:
 709              	.L67:
 122:Drivers/lvgl/src/core/lv_obj_class.c ****     if(parent) {
 710              		.loc 1 122 5 is_stmt 1 view .LVU269
 122:Drivers/lvgl/src/core/lv_obj_class.c ****     if(parent) {
 711              		.loc 1 122 25 is_stmt 0 view .LVU270
 712 009a 2046     		mov	r0, r4
 713 009c FFF7FEFF 		bl	lv_obj_get_parent
 714              	.LVL63:
 123:Drivers/lvgl/src/core/lv_obj_class.c ****         /*Call the ancestor's event handler to the parent to notify it about the new child.
 715              		.loc 1 123 5 is_stmt 1 view .LVU271
 123:Drivers/lvgl/src/core/lv_obj_class.c ****         /*Call the ancestor's event handler to the parent to notify it about the new child.
 716              		.loc 1 123 7 is_stmt 0 view .LVU272
ARM GAS  /var/folders/0z/tsy30v1j4xl4_7kw94k978ww0000gn/T//ccqFXe0n.s 			page 21


 717 00a0 0546     		mov	r5, r0
 718 00a2 70B1     		cbz	r0, .L55
 126:Drivers/lvgl/src/core/lv_obj_class.c ****         lv_event_send(parent, LV_EVENT_CHILD_CREATED, obj);
 719              		.loc 1 126 9 is_stmt 1 view .LVU273
 720 00a4 2246     		mov	r2, r4
 721 00a6 2221     		movs	r1, #34
 722 00a8 FFF7FEFF 		bl	lv_event_send
 723              	.LVL64:
 127:Drivers/lvgl/src/core/lv_obj_class.c **** 
 724              		.loc 1 127 9 view .LVU274
 725 00ac 2246     		mov	r2, r4
 726 00ae 2321     		movs	r1, #35
 727 00b0 2846     		mov	r0, r5
 728 00b2 FFF7FEFF 		bl	lv_event_send
 729              	.LVL65:
 130:Drivers/lvgl/src/core/lv_obj_class.c ****     }
 730              		.loc 1 130 9 view .LVU275
 731 00b6 2046     		mov	r0, r4
 132:Drivers/lvgl/src/core/lv_obj_class.c **** 
 732              		.loc 1 132 1 is_stmt 0 view .LVU276
 733 00b8 03B0     		add	sp, sp, #12
 734              		.cfi_remember_state
 735              		.cfi_def_cfa_offset 20
 736              		@ sp needed
 737 00ba BDE8F040 		pop	{r4, r5, r6, r7, lr}
 738              		.cfi_restore 14
 739              		.cfi_restore 7
 740              		.cfi_restore 6
 741              		.cfi_restore 5
 742              		.cfi_restore 4
 743              		.cfi_def_cfa_offset 0
 744              	.LVL66:
 130:Drivers/lvgl/src/core/lv_obj_class.c ****     }
 745              		.loc 1 130 9 view .LVU277
 746 00be FFF7FEBF 		b	lv_obj_invalidate
 747              	.LVL67:
 748              	.L55:
 749              		.cfi_restore_state
 132:Drivers/lvgl/src/core/lv_obj_class.c **** 
 750              		.loc 1 132 1 view .LVU278
 751 00c2 03B0     		add	sp, sp, #12
 752              		.cfi_remember_state
 753              		.cfi_def_cfa_offset 20
 754              		@ sp needed
 755 00c4 F0BD     		pop	{r4, r5, r6, r7, pc}
 756              	.LVL68:
 757              	.L97:
 758              		.cfi_restore_state
 119:Drivers/lvgl/src/core/lv_obj_class.c ****     }
 759              		.loc 1 119 9 is_stmt 1 view .LVU279
 760 00c6 2146     		mov	r1, r4
 761 00c8 FFF7FEFF 		bl	lv_group_add_obj
 762              	.LVL69:
 119:Drivers/lvgl/src/core/lv_obj_class.c ****     }
 763              		.loc 1 119 9 is_stmt 0 view .LVU280
 764 00cc E5E7     		b	.L67
 765              		.cfi_endproc
ARM GAS  /var/folders/0z/tsy30v1j4xl4_7kw94k978ww0000gn/T//ccqFXe0n.s 			page 22


 766              	.LFE162:
 768 00ce 00BF     		.section	.text._lv_obj_destruct,"ax",%progbits
 769              		.align	1
 770              		.p2align 2,,3
 771              		.global	_lv_obj_destruct
 772              		.syntax unified
 773              		.thumb
 774              		.thumb_func
 776              	_lv_obj_destruct:
 777              	.LVL70:
 778              	.LFB163:
 135:Drivers/lvgl/src/core/lv_obj_class.c ****     if(obj->class_p->destructor_cb) obj->class_p->destructor_cb(obj->class_p, obj);
 779              		.loc 1 135 1 is_stmt 1 view -0
 780              		.cfi_startproc
 781              		@ args = 0, pretend = 0, frame = 0
 782              		@ frame_needed = 0, uses_anonymous_args = 0
 135:Drivers/lvgl/src/core/lv_obj_class.c ****     if(obj->class_p->destructor_cb) obj->class_p->destructor_cb(obj->class_p, obj);
 783              		.loc 1 135 1 is_stmt 0 view .LVU282
 784 0000 10B5     		push	{r4, lr}
 785              		.cfi_def_cfa_offset 8
 786              		.cfi_offset 4, -8
 787              		.cfi_offset 14, -4
 135:Drivers/lvgl/src/core/lv_obj_class.c ****     if(obj->class_p->destructor_cb) obj->class_p->destructor_cb(obj->class_p, obj);
 788              		.loc 1 135 1 view .LVU283
 789 0002 0446     		mov	r4, r0
 136:Drivers/lvgl/src/core/lv_obj_class.c **** 
 790              		.loc 1 136 11 view .LVU284
 791 0004 0068     		ldr	r0, [r0]
 792              	.LVL71:
 136:Drivers/lvgl/src/core/lv_obj_class.c **** 
 793              		.loc 1 136 11 view .LVU285
 794 0006 04E0     		b	.L102
 795              	.LVL72:
 796              	.L107:
 136:Drivers/lvgl/src/core/lv_obj_class.c **** 
 797              		.loc 1 136 37 discriminator 1 view .LVU286
 798 0008 9847     		blx	r3
 799              	.LVL73:
 138:Drivers/lvgl/src/core/lv_obj_class.c ****         /*Don't let the descendant methods run during destructing the ancestor type*/
 800              		.loc 1 138 5 is_stmt 1 discriminator 1 view .LVU287
 138:Drivers/lvgl/src/core/lv_obj_class.c ****         /*Don't let the descendant methods run during destructing the ancestor type*/
 801              		.loc 1 138 20 is_stmt 0 discriminator 1 view .LVU288
 802 000a 2368     		ldr	r3, [r4]
 803 000c 1868     		ldr	r0, [r3]
 138:Drivers/lvgl/src/core/lv_obj_class.c ****         /*Don't let the descendant methods run during destructing the ancestor type*/
 804              		.loc 1 138 7 discriminator 1 view .LVU289
 805 000e 38B1     		cbz	r0, .L98
 806              	.L100:
 140:Drivers/lvgl/src/core/lv_obj_class.c **** 
 807              		.loc 1 140 9 is_stmt 1 view .LVU290
 140:Drivers/lvgl/src/core/lv_obj_class.c **** 
 808              		.loc 1 140 22 is_stmt 0 view .LVU291
 809 0010 2060     		str	r0, [r4]
 143:Drivers/lvgl/src/core/lv_obj_class.c ****     }
 810              		.loc 1 143 9 is_stmt 1 view .LVU292
 811              	.L102:
 136:Drivers/lvgl/src/core/lv_obj_class.c **** 
ARM GAS  /var/folders/0z/tsy30v1j4xl4_7kw94k978ww0000gn/T//ccqFXe0n.s 			page 23


 812              		.loc 1 136 5 view .LVU293
 136:Drivers/lvgl/src/core/lv_obj_class.c **** 
 813              		.loc 1 136 37 view .LVU294
 136:Drivers/lvgl/src/core/lv_obj_class.c **** 
 814              		.loc 1 136 20 is_stmt 0 view .LVU295
 815 0012 8368     		ldr	r3, [r0, #8]
 136:Drivers/lvgl/src/core/lv_obj_class.c **** 
 816              		.loc 1 136 37 view .LVU296
 817 0014 2146     		mov	r1, r4
 136:Drivers/lvgl/src/core/lv_obj_class.c **** 
 818              		.loc 1 136 7 view .LVU297
 819 0016 002B     		cmp	r3, #0
 820 0018 F6D1     		bne	.L107
 821              	.LVL74:
 138:Drivers/lvgl/src/core/lv_obj_class.c ****         /*Don't let the descendant methods run during destructing the ancestor type*/
 822              		.loc 1 138 5 is_stmt 1 view .LVU298
 138:Drivers/lvgl/src/core/lv_obj_class.c ****         /*Don't let the descendant methods run during destructing the ancestor type*/
 823              		.loc 1 138 20 is_stmt 0 view .LVU299
 824 001a 0068     		ldr	r0, [r0]
 138:Drivers/lvgl/src/core/lv_obj_class.c ****         /*Don't let the descendant methods run during destructing the ancestor type*/
 825              		.loc 1 138 7 view .LVU300
 826 001c 0028     		cmp	r0, #0
 827 001e F7D1     		bne	.L100
 828              	.LVL75:
 829              	.L98:
 145:Drivers/lvgl/src/core/lv_obj_class.c **** 
 830              		.loc 1 145 1 view .LVU301
 831 0020 10BD     		pop	{r4, pc}
 145:Drivers/lvgl/src/core/lv_obj_class.c **** 
 832              		.loc 1 145 1 view .LVU302
 833              		.cfi_endproc
 834              	.LFE163:
 836 0022 00BF     		.section	.text.lv_obj_is_editable,"ax",%progbits
 837              		.align	1
 838              		.p2align 2,,3
 839              		.global	lv_obj_is_editable
 840              		.syntax unified
 841              		.thumb
 842              		.thumb_func
 844              	lv_obj_is_editable:
 845              	.LVL76:
 846              	.LFB164:
 148:Drivers/lvgl/src/core/lv_obj_class.c ****     const lv_obj_class_t * class_p = obj->class_p;
 847              		.loc 1 148 1 is_stmt 1 view -0
 848              		.cfi_startproc
 849              		@ args = 0, pretend = 0, frame = 0
 850              		@ frame_needed = 0, uses_anonymous_args = 0
 851              		@ link register save eliminated.
 149:Drivers/lvgl/src/core/lv_obj_class.c **** 
 852              		.loc 1 149 5 view .LVU304
 149:Drivers/lvgl/src/core/lv_obj_class.c **** 
 853              		.loc 1 149 28 is_stmt 0 view .LVU305
 854 0000 0068     		ldr	r0, [r0]
 855              	.LVL77:
 152:Drivers/lvgl/src/core/lv_obj_class.c **** 
 856              		.loc 1 152 5 is_stmt 1 view .LVU306
 152:Drivers/lvgl/src/core/lv_obj_class.c **** 
ARM GAS  /var/folders/0z/tsy30v1j4xl4_7kw94k978ww0000gn/T//ccqFXe0n.s 			page 24


 857              		.loc 1 152 19 view .LVU307
 858 0002 10B9     		cbnz	r0, .L109
 859 0004 0BE0     		b	.L117
 860              	.L111:
 152:Drivers/lvgl/src/core/lv_obj_class.c **** 
 861              		.loc 1 152 82 is_stmt 0 discriminator 3 view .LVU308
 862 0006 0068     		ldr	r0, [r0]
 863              	.LVL78:
 152:Drivers/lvgl/src/core/lv_obj_class.c **** 
 864              		.loc 1 152 19 is_stmt 1 discriminator 3 view .LVU309
 865 0008 40B1     		cbz	r0, .L115
 866              	.L109:
 152:Drivers/lvgl/src/core/lv_obj_class.c **** 
 867              		.loc 1 152 74 discriminator 2 view .LVU310
 152:Drivers/lvgl/src/core/lv_obj_class.c **** 
 868              		.loc 1 152 40 is_stmt 0 discriminator 2 view .LVU311
 869 000a 037E     		ldrb	r3, [r0, #24]	@ zero_extendqisi2
 152:Drivers/lvgl/src/core/lv_obj_class.c **** 
 870              		.loc 1 152 19 discriminator 2 view .LVU312
 871 000c 13F00303 		ands	r3, r3, #3
 872 0010 F9D0     		beq	.L111
 154:Drivers/lvgl/src/core/lv_obj_class.c **** 
 873              		.loc 1 154 5 is_stmt 1 view .LVU313
 156:Drivers/lvgl/src/core/lv_obj_class.c **** }
 874              		.loc 1 156 5 view .LVU314
 156:Drivers/lvgl/src/core/lv_obj_class.c **** }
 875              		.loc 1 156 67 is_stmt 0 view .LVU315
 876 0012 A3F10100 		sub	r0, r3, #1
 877              	.LVL79:
 156:Drivers/lvgl/src/core/lv_obj_class.c **** }
 878              		.loc 1 156 67 view .LVU316
 879 0016 B0FA80F0 		clz	r0, r0
 880 001a 4009     		lsrs	r0, r0, #5
 881              	.L115:
 157:Drivers/lvgl/src/core/lv_obj_class.c **** 
 882              		.loc 1 157 1 view .LVU317
 883 001c 7047     		bx	lr
 884              	.LVL80:
 885              	.L117:
 157:Drivers/lvgl/src/core/lv_obj_class.c **** 
 886              		.loc 1 157 1 view .LVU318
 887 001e 7047     		bx	lr
 888              		.cfi_endproc
 889              	.LFE164:
 891              		.section	.text.lv_obj_is_group_def,"ax",%progbits
 892              		.align	1
 893              		.p2align 2,,3
 894              		.global	lv_obj_is_group_def
 895              		.syntax unified
 896              		.thumb
 897              		.thumb_func
 899              	lv_obj_is_group_def:
 900              	.LVL81:
 901              	.LFB165:
 160:Drivers/lvgl/src/core/lv_obj_class.c ****     const lv_obj_class_t * class_p = obj->class_p;
 902              		.loc 1 160 1 is_stmt 1 view -0
 903              		.cfi_startproc
ARM GAS  /var/folders/0z/tsy30v1j4xl4_7kw94k978ww0000gn/T//ccqFXe0n.s 			page 25


 904              		@ args = 0, pretend = 0, frame = 0
 905              		@ frame_needed = 0, uses_anonymous_args = 0
 906              		@ link register save eliminated.
 161:Drivers/lvgl/src/core/lv_obj_class.c **** 
 907              		.loc 1 161 5 view .LVU320
 161:Drivers/lvgl/src/core/lv_obj_class.c **** 
 908              		.loc 1 161 28 is_stmt 0 view .LVU321
 909 0000 0068     		ldr	r0, [r0]
 910              	.LVL82:
 164:Drivers/lvgl/src/core/lv_obj_class.c **** 
 911              		.loc 1 164 5 is_stmt 1 view .LVU322
 164:Drivers/lvgl/src/core/lv_obj_class.c **** 
 912              		.loc 1 164 19 view .LVU323
 913 0002 10B9     		cbnz	r0, .L119
 914 0004 0BE0     		b	.L127
 915              	.L121:
 164:Drivers/lvgl/src/core/lv_obj_class.c **** 
 916              		.loc 1 164 84 is_stmt 0 discriminator 3 view .LVU324
 917 0006 0068     		ldr	r0, [r0]
 918              	.LVL83:
 164:Drivers/lvgl/src/core/lv_obj_class.c **** 
 919              		.loc 1 164 19 is_stmt 1 discriminator 3 view .LVU325
 920 0008 40B1     		cbz	r0, .L125
 921              	.L119:
 164:Drivers/lvgl/src/core/lv_obj_class.c **** 
 922              		.loc 1 164 76 discriminator 2 view .LVU326
 164:Drivers/lvgl/src/core/lv_obj_class.c **** 
 923              		.loc 1 164 41 is_stmt 0 discriminator 2 view .LVU327
 924 000a 037E     		ldrb	r3, [r0, #24]	@ zero_extendqisi2
 164:Drivers/lvgl/src/core/lv_obj_class.c **** 
 925              		.loc 1 164 19 discriminator 2 view .LVU328
 926 000c 13F00C03 		ands	r3, r3, #12
 927 0010 F9D0     		beq	.L121
 166:Drivers/lvgl/src/core/lv_obj_class.c **** 
 928              		.loc 1 166 5 is_stmt 1 view .LVU329
 168:Drivers/lvgl/src/core/lv_obj_class.c **** }
 929              		.loc 1 168 5 view .LVU330
 168:Drivers/lvgl/src/core/lv_obj_class.c **** }
 930              		.loc 1 168 69 is_stmt 0 view .LVU331
 931 0012 A3F10400 		sub	r0, r3, #4
 932              	.LVL84:
 168:Drivers/lvgl/src/core/lv_obj_class.c **** }
 933              		.loc 1 168 69 view .LVU332
 934 0016 B0FA80F0 		clz	r0, r0
 935 001a 4009     		lsrs	r0, r0, #5
 936              	.L125:
 169:Drivers/lvgl/src/core/lv_obj_class.c **** 
 937              		.loc 1 169 1 view .LVU333
 938 001c 7047     		bx	lr
 939              	.LVL85:
 940              	.L127:
 169:Drivers/lvgl/src/core/lv_obj_class.c **** 
 941              		.loc 1 169 1 view .LVU334
 942 001e 7047     		bx	lr
 943              		.cfi_endproc
 944              	.LFE165:
 946              		.text
ARM GAS  /var/folders/0z/tsy30v1j4xl4_7kw94k978ww0000gn/T//ccqFXe0n.s 			page 26


 947              	.Letext0:
 948              		.file 2 "/Users/johannes/Library/Application Support/Code/User/globalStorage/bmd.stm32-for-vscode/
 949              		.file 3 "/Users/johannes/Library/Application Support/Code/User/globalStorage/bmd.stm32-for-vscode/
 950              		.file 4 "/Users/johannes/Library/Application Support/Code/User/globalStorage/bmd.stm32-for-vscode/
 951              		.file 5 "Drivers/lvgl/src/core/../misc/../font/../misc/lv_area.h"
 952              		.file 6 "Drivers/lvgl/src/core/../misc/../font/lv_font.h"
 953              		.file 7 "Drivers/lvgl/src/core/../misc/lv_types.h"
 954              		.file 8 "Drivers/lvgl/src/core/../misc/lv_color.h"
 955              		.file 9 "Drivers/lvgl/src/core/../misc/lv_txt.h"
 956              		.file 10 "Drivers/lvgl/src/core/../misc/lv_bidi.h"
 957              		.file 11 "Drivers/lvgl/src/core/../misc/lv_style.h"
 958              		.file 12 "Drivers/lvgl/src/core/../hal/../draw/lv_img_buf.h"
 959              		.file 13 "Drivers/lvgl/src/core/lv_obj.h"
 960              		.file 14 "Drivers/lvgl/src/core/../hal/../draw/lv_draw_rect.h"
 961              		.file 15 "Drivers/lvgl/src/core/../hal/../draw/lv_draw_label.h"
 962              		.file 16 "Drivers/lvgl/src/core/../hal/../draw/lv_draw_img.h"
 963              		.file 17 "Drivers/lvgl/src/core/../hal/../draw/lv_draw_line.h"
 964              		.file 18 "Drivers/lvgl/src/core/../hal/../draw/lv_draw_arc.h"
 965              		.file 19 "Drivers/lvgl/src/core/../hal/../draw/lv_draw_layer.h"
 966              		.file 20 "Drivers/lvgl/src/core/../hal/../draw/lv_draw.h"
 967              		.file 21 "Drivers/lvgl/src/core/../hal/../misc/lv_ll.h"
 968              		.file 22 "Drivers/lvgl/src/core/../hal/../misc/lv_timer.h"
 969              		.file 23 "Drivers/lvgl/src/core/../hal/lv_hal_disp.h"
 970              		.file 24 "Drivers/lvgl/src/core/lv_theme.h"
 971              		.file 25 "Drivers/lvgl/src/core/lv_group.h"
 972              		.file 26 "Drivers/lvgl/src/core/lv_obj_scroll.h"
 973              		.file 27 "Drivers/lvgl/src/core/lv_obj_style.h"
 974              		.file 28 "Drivers/lvgl/src/core/lv_obj_class.h"
 975              		.file 29 "Drivers/lvgl/src/core/lv_event.h"
 976              		.file 30 "Drivers/lvgl/src/core/lv_obj_tree.h"
 977              		.file 31 "Drivers/lvgl/src/core/../hal/../draw/sw/../../core/lv_obj_pos.h"
 978              		.file 32 "Drivers/lvgl/src/core/../misc/lv_mem.h"
ARM GAS  /var/folders/0z/tsy30v1j4xl4_7kw94k978ww0000gn/T//ccqFXe0n.s 			page 27

