ARM GAS  /var/folders/0z/tsy30v1j4xl4_7kw94k978ww0000gn/T//ccuxxuhb.s 			page 1


   1              		.cpu cortex-m4
   2              		.arch armv7e-m
   3              		.fpu fpv4-sp-d16
   4              		.eabi_attribute 27, 1
   5              		.eabi_attribute 28, 1
   6              		.eabi_attribute 23, 1
   7              		.eabi_attribute 24, 1
   8              		.eabi_attribute 25, 1
   9              		.eabi_attribute 26, 1
  10              		.eabi_attribute 30, 2
  11              		.eabi_attribute 34, 1
  12              		.eabi_attribute 18, 4
  13              		.file	"lv_obj_pos.c"
  14              		.text
  15              	.Ltext0:
  16              		.cfi_sections	.debug_frame
  17              		.section	.text.transform_point,"ax",%progbits
  18              		.align	1
  19              		.p2align 2,,3
  20              		.syntax unified
  21              		.thumb
  22              		.thumb_func
  24              	transform_point:
  25              	.LVL0:
  26              	.LFB216:
  27              		.file 1 "Drivers/lvgl/src/core/lv_obj_pos.c"
   1:Drivers/lvgl/src/core/lv_obj_pos.c **** /**
   2:Drivers/lvgl/src/core/lv_obj_pos.c ****  * @file lv_obj_pos.c
   3:Drivers/lvgl/src/core/lv_obj_pos.c ****  *
   4:Drivers/lvgl/src/core/lv_obj_pos.c ****  */
   5:Drivers/lvgl/src/core/lv_obj_pos.c **** 
   6:Drivers/lvgl/src/core/lv_obj_pos.c **** /*********************
   7:Drivers/lvgl/src/core/lv_obj_pos.c ****  *      INCLUDES
   8:Drivers/lvgl/src/core/lv_obj_pos.c ****  *********************/
   9:Drivers/lvgl/src/core/lv_obj_pos.c **** #include "lv_obj.h"
  10:Drivers/lvgl/src/core/lv_obj_pos.c **** #include "lv_disp.h"
  11:Drivers/lvgl/src/core/lv_obj_pos.c **** #include "lv_refr.h"
  12:Drivers/lvgl/src/core/lv_obj_pos.c **** #include "../misc/lv_gc.h"
  13:Drivers/lvgl/src/core/lv_obj_pos.c **** 
  14:Drivers/lvgl/src/core/lv_obj_pos.c **** /*********************
  15:Drivers/lvgl/src/core/lv_obj_pos.c ****  *      DEFINES
  16:Drivers/lvgl/src/core/lv_obj_pos.c ****  *********************/
  17:Drivers/lvgl/src/core/lv_obj_pos.c **** #define MY_CLASS &lv_obj_class
  18:Drivers/lvgl/src/core/lv_obj_pos.c **** 
  19:Drivers/lvgl/src/core/lv_obj_pos.c **** /**********************
  20:Drivers/lvgl/src/core/lv_obj_pos.c ****  *      TYPEDEFS
  21:Drivers/lvgl/src/core/lv_obj_pos.c ****  **********************/
  22:Drivers/lvgl/src/core/lv_obj_pos.c **** 
  23:Drivers/lvgl/src/core/lv_obj_pos.c **** /**********************
  24:Drivers/lvgl/src/core/lv_obj_pos.c ****  *  STATIC PROTOTYPES
  25:Drivers/lvgl/src/core/lv_obj_pos.c ****  **********************/
  26:Drivers/lvgl/src/core/lv_obj_pos.c **** static lv_coord_t calc_content_width(lv_obj_t * obj);
  27:Drivers/lvgl/src/core/lv_obj_pos.c **** static lv_coord_t calc_content_height(lv_obj_t * obj);
  28:Drivers/lvgl/src/core/lv_obj_pos.c **** static void layout_update_core(lv_obj_t * obj);
  29:Drivers/lvgl/src/core/lv_obj_pos.c **** static void transform_point(const lv_obj_t * obj, lv_point_t * p, bool inv);
  30:Drivers/lvgl/src/core/lv_obj_pos.c **** 
  31:Drivers/lvgl/src/core/lv_obj_pos.c **** /**********************
ARM GAS  /var/folders/0z/tsy30v1j4xl4_7kw94k978ww0000gn/T//ccuxxuhb.s 			page 2


  32:Drivers/lvgl/src/core/lv_obj_pos.c ****  *  STATIC VARIABLES
  33:Drivers/lvgl/src/core/lv_obj_pos.c ****  **********************/
  34:Drivers/lvgl/src/core/lv_obj_pos.c **** static uint32_t layout_cnt;
  35:Drivers/lvgl/src/core/lv_obj_pos.c **** 
  36:Drivers/lvgl/src/core/lv_obj_pos.c **** /**********************
  37:Drivers/lvgl/src/core/lv_obj_pos.c ****  *      MACROS
  38:Drivers/lvgl/src/core/lv_obj_pos.c ****  **********************/
  39:Drivers/lvgl/src/core/lv_obj_pos.c **** 
  40:Drivers/lvgl/src/core/lv_obj_pos.c **** /**********************
  41:Drivers/lvgl/src/core/lv_obj_pos.c ****  *   GLOBAL FUNCTIONS
  42:Drivers/lvgl/src/core/lv_obj_pos.c ****  **********************/
  43:Drivers/lvgl/src/core/lv_obj_pos.c **** 
  44:Drivers/lvgl/src/core/lv_obj_pos.c **** void lv_obj_set_pos(lv_obj_t * obj, lv_coord_t x, lv_coord_t y)
  45:Drivers/lvgl/src/core/lv_obj_pos.c **** {
  46:Drivers/lvgl/src/core/lv_obj_pos.c ****     LV_ASSERT_OBJ(obj, MY_CLASS);
  47:Drivers/lvgl/src/core/lv_obj_pos.c **** 
  48:Drivers/lvgl/src/core/lv_obj_pos.c ****     lv_obj_set_x(obj, x);
  49:Drivers/lvgl/src/core/lv_obj_pos.c ****     lv_obj_set_y(obj, y);
  50:Drivers/lvgl/src/core/lv_obj_pos.c **** }
  51:Drivers/lvgl/src/core/lv_obj_pos.c **** 
  52:Drivers/lvgl/src/core/lv_obj_pos.c **** void lv_obj_set_x(lv_obj_t * obj, lv_coord_t x)
  53:Drivers/lvgl/src/core/lv_obj_pos.c **** {
  54:Drivers/lvgl/src/core/lv_obj_pos.c ****     LV_ASSERT_OBJ(obj, MY_CLASS);
  55:Drivers/lvgl/src/core/lv_obj_pos.c **** 
  56:Drivers/lvgl/src/core/lv_obj_pos.c ****     lv_res_t res_x;
  57:Drivers/lvgl/src/core/lv_obj_pos.c ****     lv_style_value_t v_x;
  58:Drivers/lvgl/src/core/lv_obj_pos.c **** 
  59:Drivers/lvgl/src/core/lv_obj_pos.c ****     res_x = lv_obj_get_local_style_prop(obj, LV_STYLE_X, &v_x, 0);
  60:Drivers/lvgl/src/core/lv_obj_pos.c **** 
  61:Drivers/lvgl/src/core/lv_obj_pos.c ****     if((res_x == LV_RES_OK && v_x.num != x) || res_x == LV_RES_INV) {
  62:Drivers/lvgl/src/core/lv_obj_pos.c ****         lv_obj_set_style_x(obj, x, 0);
  63:Drivers/lvgl/src/core/lv_obj_pos.c ****     }
  64:Drivers/lvgl/src/core/lv_obj_pos.c **** }
  65:Drivers/lvgl/src/core/lv_obj_pos.c **** 
  66:Drivers/lvgl/src/core/lv_obj_pos.c **** void lv_obj_set_y(lv_obj_t * obj, lv_coord_t y)
  67:Drivers/lvgl/src/core/lv_obj_pos.c **** {
  68:Drivers/lvgl/src/core/lv_obj_pos.c ****     LV_ASSERT_OBJ(obj, MY_CLASS);
  69:Drivers/lvgl/src/core/lv_obj_pos.c **** 
  70:Drivers/lvgl/src/core/lv_obj_pos.c ****     lv_res_t res_y;
  71:Drivers/lvgl/src/core/lv_obj_pos.c ****     lv_style_value_t v_y;
  72:Drivers/lvgl/src/core/lv_obj_pos.c **** 
  73:Drivers/lvgl/src/core/lv_obj_pos.c ****     res_y = lv_obj_get_local_style_prop(obj, LV_STYLE_Y, &v_y, 0);
  74:Drivers/lvgl/src/core/lv_obj_pos.c **** 
  75:Drivers/lvgl/src/core/lv_obj_pos.c ****     if((res_y == LV_RES_OK && v_y.num != y) || res_y == LV_RES_INV) {
  76:Drivers/lvgl/src/core/lv_obj_pos.c ****         lv_obj_set_style_y(obj, y, 0);
  77:Drivers/lvgl/src/core/lv_obj_pos.c ****     }
  78:Drivers/lvgl/src/core/lv_obj_pos.c **** }
  79:Drivers/lvgl/src/core/lv_obj_pos.c **** 
  80:Drivers/lvgl/src/core/lv_obj_pos.c **** bool lv_obj_refr_size(lv_obj_t * obj)
  81:Drivers/lvgl/src/core/lv_obj_pos.c **** {
  82:Drivers/lvgl/src/core/lv_obj_pos.c ****     LV_ASSERT_OBJ(obj, MY_CLASS);
  83:Drivers/lvgl/src/core/lv_obj_pos.c **** 
  84:Drivers/lvgl/src/core/lv_obj_pos.c ****     /*If the width or height is set by a layout do not modify them*/
  85:Drivers/lvgl/src/core/lv_obj_pos.c ****     if(obj->w_layout && obj->h_layout) return false;
  86:Drivers/lvgl/src/core/lv_obj_pos.c **** 
  87:Drivers/lvgl/src/core/lv_obj_pos.c ****     lv_obj_t * parent = lv_obj_get_parent(obj);
  88:Drivers/lvgl/src/core/lv_obj_pos.c ****     if(parent == NULL) return false;
ARM GAS  /var/folders/0z/tsy30v1j4xl4_7kw94k978ww0000gn/T//ccuxxuhb.s 			page 3


  89:Drivers/lvgl/src/core/lv_obj_pos.c **** 
  90:Drivers/lvgl/src/core/lv_obj_pos.c ****     lv_coord_t sl_ori = lv_obj_get_scroll_left(obj);
  91:Drivers/lvgl/src/core/lv_obj_pos.c ****     bool w_is_content = false;
  92:Drivers/lvgl/src/core/lv_obj_pos.c ****     bool w_is_pct = false;
  93:Drivers/lvgl/src/core/lv_obj_pos.c **** 
  94:Drivers/lvgl/src/core/lv_obj_pos.c ****     lv_coord_t w;
  95:Drivers/lvgl/src/core/lv_obj_pos.c ****     if(obj->w_layout) {
  96:Drivers/lvgl/src/core/lv_obj_pos.c ****         w = lv_obj_get_width(obj);
  97:Drivers/lvgl/src/core/lv_obj_pos.c ****     }
  98:Drivers/lvgl/src/core/lv_obj_pos.c ****     else {
  99:Drivers/lvgl/src/core/lv_obj_pos.c ****         w = lv_obj_get_style_width(obj, LV_PART_MAIN);
 100:Drivers/lvgl/src/core/lv_obj_pos.c ****         w_is_content = w == LV_SIZE_CONTENT ? true : false;
 101:Drivers/lvgl/src/core/lv_obj_pos.c ****         w_is_pct = LV_COORD_IS_PCT(w) ? true : false;
 102:Drivers/lvgl/src/core/lv_obj_pos.c ****         lv_coord_t parent_w = lv_obj_get_content_width(parent);
 103:Drivers/lvgl/src/core/lv_obj_pos.c **** 
 104:Drivers/lvgl/src/core/lv_obj_pos.c ****         if(w_is_content) {
 105:Drivers/lvgl/src/core/lv_obj_pos.c ****             w = calc_content_width(obj);
 106:Drivers/lvgl/src/core/lv_obj_pos.c ****         }
 107:Drivers/lvgl/src/core/lv_obj_pos.c ****         else if(w_is_pct) {
 108:Drivers/lvgl/src/core/lv_obj_pos.c ****             /*If parent has content size and the child has pct size
 109:Drivers/lvgl/src/core/lv_obj_pos.c ****              *a circular dependency will occur. To solve it keep child size at zero */
 110:Drivers/lvgl/src/core/lv_obj_pos.c ****             if(parent->w_layout == 0 && lv_obj_get_style_width(parent, 0) == LV_SIZE_CONTENT) {
 111:Drivers/lvgl/src/core/lv_obj_pos.c ****                 lv_coord_t border_w = lv_obj_get_style_border_width(obj, 0);
 112:Drivers/lvgl/src/core/lv_obj_pos.c ****                 w = lv_obj_get_style_pad_left(obj, 0) + border_w;
 113:Drivers/lvgl/src/core/lv_obj_pos.c ****                 w += lv_obj_get_style_pad_right(obj, 0) + border_w;
 114:Drivers/lvgl/src/core/lv_obj_pos.c ****             }
 115:Drivers/lvgl/src/core/lv_obj_pos.c ****             else {
 116:Drivers/lvgl/src/core/lv_obj_pos.c ****                 w = (LV_COORD_GET_PCT(w) * parent_w) / 100;
 117:Drivers/lvgl/src/core/lv_obj_pos.c ****             }
 118:Drivers/lvgl/src/core/lv_obj_pos.c ****         }
 119:Drivers/lvgl/src/core/lv_obj_pos.c **** 
 120:Drivers/lvgl/src/core/lv_obj_pos.c ****         lv_coord_t minw = lv_obj_get_style_min_width(obj, LV_PART_MAIN);
 121:Drivers/lvgl/src/core/lv_obj_pos.c ****         lv_coord_t maxw = lv_obj_get_style_max_width(obj, LV_PART_MAIN);
 122:Drivers/lvgl/src/core/lv_obj_pos.c ****         w = lv_clamp_width(w, minw, maxw, parent_w);
 123:Drivers/lvgl/src/core/lv_obj_pos.c ****     }
 124:Drivers/lvgl/src/core/lv_obj_pos.c **** 
 125:Drivers/lvgl/src/core/lv_obj_pos.c ****     lv_coord_t st_ori = lv_obj_get_scroll_top(obj);
 126:Drivers/lvgl/src/core/lv_obj_pos.c ****     lv_coord_t h;
 127:Drivers/lvgl/src/core/lv_obj_pos.c ****     bool h_is_content = false;
 128:Drivers/lvgl/src/core/lv_obj_pos.c ****     bool h_is_pct = false;
 129:Drivers/lvgl/src/core/lv_obj_pos.c ****     if(obj->h_layout) {
 130:Drivers/lvgl/src/core/lv_obj_pos.c ****         h = lv_obj_get_height(obj);
 131:Drivers/lvgl/src/core/lv_obj_pos.c ****     }
 132:Drivers/lvgl/src/core/lv_obj_pos.c ****     else {
 133:Drivers/lvgl/src/core/lv_obj_pos.c ****         h = lv_obj_get_style_height(obj, LV_PART_MAIN);
 134:Drivers/lvgl/src/core/lv_obj_pos.c ****         h_is_content = h == LV_SIZE_CONTENT ? true : false;
 135:Drivers/lvgl/src/core/lv_obj_pos.c ****         h_is_pct = LV_COORD_IS_PCT(h) ? true : false;
 136:Drivers/lvgl/src/core/lv_obj_pos.c ****         lv_coord_t parent_h = lv_obj_get_content_height(parent);
 137:Drivers/lvgl/src/core/lv_obj_pos.c **** 
 138:Drivers/lvgl/src/core/lv_obj_pos.c ****         if(h_is_content) {
 139:Drivers/lvgl/src/core/lv_obj_pos.c ****             h = calc_content_height(obj);
 140:Drivers/lvgl/src/core/lv_obj_pos.c ****         }
 141:Drivers/lvgl/src/core/lv_obj_pos.c ****         else if(h_is_pct) {
 142:Drivers/lvgl/src/core/lv_obj_pos.c ****             /*If parent has content size and the child has pct size
 143:Drivers/lvgl/src/core/lv_obj_pos.c ****              *a circular dependency will occur. To solve it keep child size at zero */
 144:Drivers/lvgl/src/core/lv_obj_pos.c ****             if(parent->h_layout == 0 && lv_obj_get_style_height(parent, 0) == LV_SIZE_CONTENT) {
 145:Drivers/lvgl/src/core/lv_obj_pos.c ****                 lv_coord_t border_w = lv_obj_get_style_border_width(obj, 0);
ARM GAS  /var/folders/0z/tsy30v1j4xl4_7kw94k978ww0000gn/T//ccuxxuhb.s 			page 4


 146:Drivers/lvgl/src/core/lv_obj_pos.c ****                 h = lv_obj_get_style_pad_top(obj, 0) + border_w;
 147:Drivers/lvgl/src/core/lv_obj_pos.c ****                 h += lv_obj_get_style_pad_bottom(obj, 0) + border_w;
 148:Drivers/lvgl/src/core/lv_obj_pos.c ****             }
 149:Drivers/lvgl/src/core/lv_obj_pos.c ****             else {
 150:Drivers/lvgl/src/core/lv_obj_pos.c ****                 h = (LV_COORD_GET_PCT(h) * parent_h) / 100;
 151:Drivers/lvgl/src/core/lv_obj_pos.c ****             }
 152:Drivers/lvgl/src/core/lv_obj_pos.c ****         }
 153:Drivers/lvgl/src/core/lv_obj_pos.c **** 
 154:Drivers/lvgl/src/core/lv_obj_pos.c ****         lv_coord_t minh = lv_obj_get_style_min_height(obj, LV_PART_MAIN);
 155:Drivers/lvgl/src/core/lv_obj_pos.c ****         lv_coord_t maxh = lv_obj_get_style_max_height(obj, LV_PART_MAIN);
 156:Drivers/lvgl/src/core/lv_obj_pos.c ****         h = lv_clamp_height(h, minh, maxh, parent_h);
 157:Drivers/lvgl/src/core/lv_obj_pos.c ****     }
 158:Drivers/lvgl/src/core/lv_obj_pos.c **** 
 159:Drivers/lvgl/src/core/lv_obj_pos.c ****     /*calc_auto_size set the scroll x/y to 0 so revert the original value*/
 160:Drivers/lvgl/src/core/lv_obj_pos.c ****     if(w_is_content || h_is_content) {
 161:Drivers/lvgl/src/core/lv_obj_pos.c ****         lv_obj_scroll_to(obj, sl_ori, st_ori, LV_ANIM_OFF);
 162:Drivers/lvgl/src/core/lv_obj_pos.c ****     }
 163:Drivers/lvgl/src/core/lv_obj_pos.c **** 
 164:Drivers/lvgl/src/core/lv_obj_pos.c ****     /*Do nothing if the size is not changed*/
 165:Drivers/lvgl/src/core/lv_obj_pos.c ****     /*It is very important else recursive resizing can occur without size change*/
 166:Drivers/lvgl/src/core/lv_obj_pos.c ****     if(lv_obj_get_width(obj) == w && lv_obj_get_height(obj) == h) return false;
 167:Drivers/lvgl/src/core/lv_obj_pos.c **** 
 168:Drivers/lvgl/src/core/lv_obj_pos.c ****     /*Invalidate the original area*/
 169:Drivers/lvgl/src/core/lv_obj_pos.c ****     lv_obj_invalidate(obj);
 170:Drivers/lvgl/src/core/lv_obj_pos.c **** 
 171:Drivers/lvgl/src/core/lv_obj_pos.c ****     /*Save the original coordinates*/
 172:Drivers/lvgl/src/core/lv_obj_pos.c ****     lv_area_t ori;
 173:Drivers/lvgl/src/core/lv_obj_pos.c ****     lv_obj_get_coords(obj, &ori);
 174:Drivers/lvgl/src/core/lv_obj_pos.c **** 
 175:Drivers/lvgl/src/core/lv_obj_pos.c ****     /*Check if the object inside the parent or not*/
 176:Drivers/lvgl/src/core/lv_obj_pos.c ****     lv_area_t parent_fit_area;
 177:Drivers/lvgl/src/core/lv_obj_pos.c ****     lv_obj_get_content_coords(parent, &parent_fit_area);
 178:Drivers/lvgl/src/core/lv_obj_pos.c **** 
 179:Drivers/lvgl/src/core/lv_obj_pos.c ****     /*If the object is already out of the parent and its position is changes
 180:Drivers/lvgl/src/core/lv_obj_pos.c ****      *surely the scrollbars also changes so invalidate them*/
 181:Drivers/lvgl/src/core/lv_obj_pos.c ****     bool on1 = _lv_area_is_in(&ori, &parent_fit_area, 0);
 182:Drivers/lvgl/src/core/lv_obj_pos.c ****     if(!on1) lv_obj_scrollbar_invalidate(parent);
 183:Drivers/lvgl/src/core/lv_obj_pos.c **** 
 184:Drivers/lvgl/src/core/lv_obj_pos.c ****     /*Set the length and height
 185:Drivers/lvgl/src/core/lv_obj_pos.c ****      *Be sure the content is not scrolled in an invalid position on the new size*/
 186:Drivers/lvgl/src/core/lv_obj_pos.c ****     obj->coords.y2 = obj->coords.y1 + h - 1;
 187:Drivers/lvgl/src/core/lv_obj_pos.c ****     if(lv_obj_get_style_base_dir(obj, LV_PART_MAIN) == LV_BASE_DIR_RTL) {
 188:Drivers/lvgl/src/core/lv_obj_pos.c ****         obj->coords.x1 = obj->coords.x2 - w + 1;
 189:Drivers/lvgl/src/core/lv_obj_pos.c ****     }
 190:Drivers/lvgl/src/core/lv_obj_pos.c ****     else {
 191:Drivers/lvgl/src/core/lv_obj_pos.c ****         obj->coords.x2 = obj->coords.x1 + w - 1;
 192:Drivers/lvgl/src/core/lv_obj_pos.c ****     }
 193:Drivers/lvgl/src/core/lv_obj_pos.c **** 
 194:Drivers/lvgl/src/core/lv_obj_pos.c ****     /*Call the ancestor's event handler to the object with its new coordinates*/
 195:Drivers/lvgl/src/core/lv_obj_pos.c ****     lv_event_send(obj, LV_EVENT_SIZE_CHANGED, &ori);
 196:Drivers/lvgl/src/core/lv_obj_pos.c **** 
 197:Drivers/lvgl/src/core/lv_obj_pos.c ****     /*Call the ancestor's event handler to the parent too*/
 198:Drivers/lvgl/src/core/lv_obj_pos.c ****     lv_event_send(parent, LV_EVENT_CHILD_CHANGED, obj);
 199:Drivers/lvgl/src/core/lv_obj_pos.c **** 
 200:Drivers/lvgl/src/core/lv_obj_pos.c ****     /*Invalidate the new area*/
 201:Drivers/lvgl/src/core/lv_obj_pos.c ****     lv_obj_invalidate(obj);
 202:Drivers/lvgl/src/core/lv_obj_pos.c **** 
ARM GAS  /var/folders/0z/tsy30v1j4xl4_7kw94k978ww0000gn/T//ccuxxuhb.s 			page 5


 203:Drivers/lvgl/src/core/lv_obj_pos.c ****     obj->readjust_scroll_after_layout = 1;
 204:Drivers/lvgl/src/core/lv_obj_pos.c **** 
 205:Drivers/lvgl/src/core/lv_obj_pos.c ****     /*If the object was out of the parent invalidate the new scrollbar area too.
 206:Drivers/lvgl/src/core/lv_obj_pos.c ****      *If it wasn't out of the parent but out now, also invalidate the scrollbars*/
 207:Drivers/lvgl/src/core/lv_obj_pos.c ****     bool on2 = _lv_area_is_in(&obj->coords, &parent_fit_area, 0);
 208:Drivers/lvgl/src/core/lv_obj_pos.c ****     if(on1 || (!on1 && on2)) lv_obj_scrollbar_invalidate(parent);
 209:Drivers/lvgl/src/core/lv_obj_pos.c **** 
 210:Drivers/lvgl/src/core/lv_obj_pos.c ****     lv_obj_refresh_ext_draw_size(obj);
 211:Drivers/lvgl/src/core/lv_obj_pos.c **** 
 212:Drivers/lvgl/src/core/lv_obj_pos.c ****     return true;
 213:Drivers/lvgl/src/core/lv_obj_pos.c **** }
 214:Drivers/lvgl/src/core/lv_obj_pos.c **** 
 215:Drivers/lvgl/src/core/lv_obj_pos.c **** void lv_obj_set_size(lv_obj_t * obj, lv_coord_t w, lv_coord_t h)
 216:Drivers/lvgl/src/core/lv_obj_pos.c **** {
 217:Drivers/lvgl/src/core/lv_obj_pos.c ****     LV_ASSERT_OBJ(obj, MY_CLASS);
 218:Drivers/lvgl/src/core/lv_obj_pos.c **** 
 219:Drivers/lvgl/src/core/lv_obj_pos.c ****     lv_obj_set_width(obj, w);
 220:Drivers/lvgl/src/core/lv_obj_pos.c ****     lv_obj_set_height(obj, h);
 221:Drivers/lvgl/src/core/lv_obj_pos.c **** }
 222:Drivers/lvgl/src/core/lv_obj_pos.c **** 
 223:Drivers/lvgl/src/core/lv_obj_pos.c **** void lv_obj_set_width(lv_obj_t * obj, lv_coord_t w)
 224:Drivers/lvgl/src/core/lv_obj_pos.c **** {
 225:Drivers/lvgl/src/core/lv_obj_pos.c ****     LV_ASSERT_OBJ(obj, MY_CLASS);
 226:Drivers/lvgl/src/core/lv_obj_pos.c ****     lv_res_t res_w;
 227:Drivers/lvgl/src/core/lv_obj_pos.c ****     lv_style_value_t v_w;
 228:Drivers/lvgl/src/core/lv_obj_pos.c **** 
 229:Drivers/lvgl/src/core/lv_obj_pos.c ****     res_w = lv_obj_get_local_style_prop(obj, LV_STYLE_WIDTH, &v_w, 0);
 230:Drivers/lvgl/src/core/lv_obj_pos.c **** 
 231:Drivers/lvgl/src/core/lv_obj_pos.c ****     if((res_w == LV_RES_OK && v_w.num != w) || res_w == LV_RES_INV) {
 232:Drivers/lvgl/src/core/lv_obj_pos.c ****         lv_obj_set_style_width(obj, w, 0);
 233:Drivers/lvgl/src/core/lv_obj_pos.c ****     }
 234:Drivers/lvgl/src/core/lv_obj_pos.c **** }
 235:Drivers/lvgl/src/core/lv_obj_pos.c **** 
 236:Drivers/lvgl/src/core/lv_obj_pos.c **** void lv_obj_set_height(lv_obj_t * obj, lv_coord_t h)
 237:Drivers/lvgl/src/core/lv_obj_pos.c **** {
 238:Drivers/lvgl/src/core/lv_obj_pos.c ****     LV_ASSERT_OBJ(obj, MY_CLASS);
 239:Drivers/lvgl/src/core/lv_obj_pos.c ****     lv_res_t res_h;
 240:Drivers/lvgl/src/core/lv_obj_pos.c ****     lv_style_value_t v_h;
 241:Drivers/lvgl/src/core/lv_obj_pos.c **** 
 242:Drivers/lvgl/src/core/lv_obj_pos.c ****     res_h = lv_obj_get_local_style_prop(obj, LV_STYLE_HEIGHT, &v_h, 0);
 243:Drivers/lvgl/src/core/lv_obj_pos.c **** 
 244:Drivers/lvgl/src/core/lv_obj_pos.c ****     if((res_h == LV_RES_OK && v_h.num != h) || res_h == LV_RES_INV) {
 245:Drivers/lvgl/src/core/lv_obj_pos.c ****         lv_obj_set_style_height(obj, h, 0);
 246:Drivers/lvgl/src/core/lv_obj_pos.c ****     }
 247:Drivers/lvgl/src/core/lv_obj_pos.c **** }
 248:Drivers/lvgl/src/core/lv_obj_pos.c **** 
 249:Drivers/lvgl/src/core/lv_obj_pos.c **** void lv_obj_set_content_width(lv_obj_t * obj, lv_coord_t w)
 250:Drivers/lvgl/src/core/lv_obj_pos.c **** {
 251:Drivers/lvgl/src/core/lv_obj_pos.c ****     lv_coord_t pleft = lv_obj_get_style_pad_left(obj, LV_PART_MAIN);
 252:Drivers/lvgl/src/core/lv_obj_pos.c ****     lv_coord_t pright = lv_obj_get_style_pad_right(obj, LV_PART_MAIN);
 253:Drivers/lvgl/src/core/lv_obj_pos.c ****     lv_coord_t border_width = lv_obj_get_style_border_width(obj, LV_PART_MAIN);
 254:Drivers/lvgl/src/core/lv_obj_pos.c **** 
 255:Drivers/lvgl/src/core/lv_obj_pos.c ****     lv_obj_set_width(obj, w + pleft + pright + 2 * border_width);
 256:Drivers/lvgl/src/core/lv_obj_pos.c **** }
 257:Drivers/lvgl/src/core/lv_obj_pos.c **** 
 258:Drivers/lvgl/src/core/lv_obj_pos.c **** void lv_obj_set_content_height(lv_obj_t * obj, lv_coord_t h)
 259:Drivers/lvgl/src/core/lv_obj_pos.c **** {
ARM GAS  /var/folders/0z/tsy30v1j4xl4_7kw94k978ww0000gn/T//ccuxxuhb.s 			page 6


 260:Drivers/lvgl/src/core/lv_obj_pos.c ****     lv_coord_t ptop = lv_obj_get_style_pad_top(obj, LV_PART_MAIN);
 261:Drivers/lvgl/src/core/lv_obj_pos.c ****     lv_coord_t pbottom = lv_obj_get_style_pad_bottom(obj, LV_PART_MAIN);
 262:Drivers/lvgl/src/core/lv_obj_pos.c ****     lv_coord_t border_width = lv_obj_get_style_border_width(obj, LV_PART_MAIN);
 263:Drivers/lvgl/src/core/lv_obj_pos.c **** 
 264:Drivers/lvgl/src/core/lv_obj_pos.c ****     lv_obj_set_height(obj, h + ptop + pbottom + 2 * border_width);
 265:Drivers/lvgl/src/core/lv_obj_pos.c **** }
 266:Drivers/lvgl/src/core/lv_obj_pos.c **** 
 267:Drivers/lvgl/src/core/lv_obj_pos.c **** void lv_obj_set_layout(lv_obj_t * obj, uint32_t layout)
 268:Drivers/lvgl/src/core/lv_obj_pos.c **** {
 269:Drivers/lvgl/src/core/lv_obj_pos.c ****     LV_ASSERT_OBJ(obj, MY_CLASS);
 270:Drivers/lvgl/src/core/lv_obj_pos.c **** 
 271:Drivers/lvgl/src/core/lv_obj_pos.c ****     lv_obj_set_style_layout(obj, layout, 0);
 272:Drivers/lvgl/src/core/lv_obj_pos.c **** 
 273:Drivers/lvgl/src/core/lv_obj_pos.c ****     lv_obj_mark_layout_as_dirty(obj);
 274:Drivers/lvgl/src/core/lv_obj_pos.c **** }
 275:Drivers/lvgl/src/core/lv_obj_pos.c **** 
 276:Drivers/lvgl/src/core/lv_obj_pos.c **** bool lv_obj_is_layout_positioned(const lv_obj_t * obj)
 277:Drivers/lvgl/src/core/lv_obj_pos.c **** {
 278:Drivers/lvgl/src/core/lv_obj_pos.c ****     if(lv_obj_has_flag_any(obj, LV_OBJ_FLAG_HIDDEN | LV_OBJ_FLAG_IGNORE_LAYOUT | LV_OBJ_FLAG_FLOATI
 279:Drivers/lvgl/src/core/lv_obj_pos.c **** 
 280:Drivers/lvgl/src/core/lv_obj_pos.c ****     lv_obj_t * parent = lv_obj_get_parent(obj);
 281:Drivers/lvgl/src/core/lv_obj_pos.c ****     if(parent == NULL) return false;
 282:Drivers/lvgl/src/core/lv_obj_pos.c **** 
 283:Drivers/lvgl/src/core/lv_obj_pos.c ****     uint32_t layout = lv_obj_get_style_layout(parent, LV_PART_MAIN);
 284:Drivers/lvgl/src/core/lv_obj_pos.c ****     if(layout) return true;
 285:Drivers/lvgl/src/core/lv_obj_pos.c ****     else return false;
 286:Drivers/lvgl/src/core/lv_obj_pos.c **** }
 287:Drivers/lvgl/src/core/lv_obj_pos.c **** 
 288:Drivers/lvgl/src/core/lv_obj_pos.c **** void lv_obj_mark_layout_as_dirty(lv_obj_t * obj)
 289:Drivers/lvgl/src/core/lv_obj_pos.c **** {
 290:Drivers/lvgl/src/core/lv_obj_pos.c ****     obj->layout_inv = 1;
 291:Drivers/lvgl/src/core/lv_obj_pos.c **** 
 292:Drivers/lvgl/src/core/lv_obj_pos.c ****     /*Mark the screen as dirty too to mark that there is something to do on this screen*/
 293:Drivers/lvgl/src/core/lv_obj_pos.c ****     lv_obj_t * scr = lv_obj_get_screen(obj);
 294:Drivers/lvgl/src/core/lv_obj_pos.c ****     scr->scr_layout_inv = 1;
 295:Drivers/lvgl/src/core/lv_obj_pos.c **** 
 296:Drivers/lvgl/src/core/lv_obj_pos.c ****     /*Make the display refreshing*/
 297:Drivers/lvgl/src/core/lv_obj_pos.c ****     lv_disp_t * disp = lv_obj_get_disp(scr);
 298:Drivers/lvgl/src/core/lv_obj_pos.c ****     if(disp->refr_timer) lv_timer_resume(disp->refr_timer);
 299:Drivers/lvgl/src/core/lv_obj_pos.c **** }
 300:Drivers/lvgl/src/core/lv_obj_pos.c **** 
 301:Drivers/lvgl/src/core/lv_obj_pos.c **** void lv_obj_update_layout(const lv_obj_t * obj)
 302:Drivers/lvgl/src/core/lv_obj_pos.c **** {
 303:Drivers/lvgl/src/core/lv_obj_pos.c ****     static bool mutex = false;
 304:Drivers/lvgl/src/core/lv_obj_pos.c ****     if(mutex) {
 305:Drivers/lvgl/src/core/lv_obj_pos.c ****         LV_LOG_TRACE("Already running, returning");
 306:Drivers/lvgl/src/core/lv_obj_pos.c ****         return;
 307:Drivers/lvgl/src/core/lv_obj_pos.c ****     }
 308:Drivers/lvgl/src/core/lv_obj_pos.c ****     mutex = true;
 309:Drivers/lvgl/src/core/lv_obj_pos.c **** 
 310:Drivers/lvgl/src/core/lv_obj_pos.c ****     lv_obj_t * scr = lv_obj_get_screen(obj);
 311:Drivers/lvgl/src/core/lv_obj_pos.c **** 
 312:Drivers/lvgl/src/core/lv_obj_pos.c ****     /*Repeat until there where layout invalidations*/
 313:Drivers/lvgl/src/core/lv_obj_pos.c ****     while(scr->scr_layout_inv) {
 314:Drivers/lvgl/src/core/lv_obj_pos.c ****         LV_LOG_INFO("Layout update begin");
 315:Drivers/lvgl/src/core/lv_obj_pos.c ****         scr->scr_layout_inv = 0;
 316:Drivers/lvgl/src/core/lv_obj_pos.c ****         layout_update_core(scr);
ARM GAS  /var/folders/0z/tsy30v1j4xl4_7kw94k978ww0000gn/T//ccuxxuhb.s 			page 7


 317:Drivers/lvgl/src/core/lv_obj_pos.c ****         LV_LOG_TRACE("Layout update end");
 318:Drivers/lvgl/src/core/lv_obj_pos.c ****     }
 319:Drivers/lvgl/src/core/lv_obj_pos.c **** 
 320:Drivers/lvgl/src/core/lv_obj_pos.c ****     mutex = false;
 321:Drivers/lvgl/src/core/lv_obj_pos.c **** }
 322:Drivers/lvgl/src/core/lv_obj_pos.c **** 
 323:Drivers/lvgl/src/core/lv_obj_pos.c **** uint32_t lv_layout_register(lv_layout_update_cb_t cb, void * user_data)
 324:Drivers/lvgl/src/core/lv_obj_pos.c **** {
 325:Drivers/lvgl/src/core/lv_obj_pos.c ****     layout_cnt++;
 326:Drivers/lvgl/src/core/lv_obj_pos.c ****     LV_GC_ROOT(_lv_layout_list) = lv_mem_realloc(LV_GC_ROOT(_lv_layout_list), layout_cnt * sizeof(l
 327:Drivers/lvgl/src/core/lv_obj_pos.c ****     LV_ASSERT_MALLOC(LV_GC_ROOT(_lv_layout_list));
 328:Drivers/lvgl/src/core/lv_obj_pos.c **** 
 329:Drivers/lvgl/src/core/lv_obj_pos.c ****     LV_GC_ROOT(_lv_layout_list)[layout_cnt - 1].cb = cb;
 330:Drivers/lvgl/src/core/lv_obj_pos.c ****     LV_GC_ROOT(_lv_layout_list)[layout_cnt - 1].user_data = user_data;
 331:Drivers/lvgl/src/core/lv_obj_pos.c ****     return layout_cnt;  /*No -1 to skip 0th index*/
 332:Drivers/lvgl/src/core/lv_obj_pos.c **** }
 333:Drivers/lvgl/src/core/lv_obj_pos.c **** 
 334:Drivers/lvgl/src/core/lv_obj_pos.c **** void lv_obj_set_align(lv_obj_t * obj, lv_align_t align)
 335:Drivers/lvgl/src/core/lv_obj_pos.c **** {
 336:Drivers/lvgl/src/core/lv_obj_pos.c ****     lv_obj_set_style_align(obj, align, 0);
 337:Drivers/lvgl/src/core/lv_obj_pos.c **** }
 338:Drivers/lvgl/src/core/lv_obj_pos.c **** 
 339:Drivers/lvgl/src/core/lv_obj_pos.c **** void lv_obj_align(lv_obj_t * obj, lv_align_t align, lv_coord_t x_ofs, lv_coord_t y_ofs)
 340:Drivers/lvgl/src/core/lv_obj_pos.c **** {
 341:Drivers/lvgl/src/core/lv_obj_pos.c ****     lv_obj_set_style_align(obj, align, 0);
 342:Drivers/lvgl/src/core/lv_obj_pos.c ****     lv_obj_set_pos(obj, x_ofs, y_ofs);
 343:Drivers/lvgl/src/core/lv_obj_pos.c **** }
 344:Drivers/lvgl/src/core/lv_obj_pos.c **** 
 345:Drivers/lvgl/src/core/lv_obj_pos.c **** void lv_obj_align_to(lv_obj_t * obj, const lv_obj_t * base, lv_align_t align, lv_coord_t x_ofs, lv_
 346:Drivers/lvgl/src/core/lv_obj_pos.c **** {
 347:Drivers/lvgl/src/core/lv_obj_pos.c ****     LV_ASSERT_OBJ(obj, MY_CLASS);
 348:Drivers/lvgl/src/core/lv_obj_pos.c **** 
 349:Drivers/lvgl/src/core/lv_obj_pos.c ****     lv_obj_update_layout(obj);
 350:Drivers/lvgl/src/core/lv_obj_pos.c ****     if(base == NULL) base = lv_obj_get_parent(obj);
 351:Drivers/lvgl/src/core/lv_obj_pos.c **** 
 352:Drivers/lvgl/src/core/lv_obj_pos.c ****     LV_ASSERT_OBJ(base, MY_CLASS);
 353:Drivers/lvgl/src/core/lv_obj_pos.c **** 
 354:Drivers/lvgl/src/core/lv_obj_pos.c ****     lv_coord_t x = 0;
 355:Drivers/lvgl/src/core/lv_obj_pos.c ****     lv_coord_t y = 0;
 356:Drivers/lvgl/src/core/lv_obj_pos.c **** 
 357:Drivers/lvgl/src/core/lv_obj_pos.c ****     lv_obj_t * parent = lv_obj_get_parent(obj);
 358:Drivers/lvgl/src/core/lv_obj_pos.c ****     lv_coord_t pborder = lv_obj_get_style_border_width(parent, LV_PART_MAIN);
 359:Drivers/lvgl/src/core/lv_obj_pos.c ****     lv_coord_t pleft = lv_obj_get_style_pad_left(parent, LV_PART_MAIN) + pborder;
 360:Drivers/lvgl/src/core/lv_obj_pos.c ****     lv_coord_t ptop = lv_obj_get_style_pad_top(parent, LV_PART_MAIN) + pborder;
 361:Drivers/lvgl/src/core/lv_obj_pos.c **** 
 362:Drivers/lvgl/src/core/lv_obj_pos.c ****     lv_coord_t bborder = lv_obj_get_style_border_width(base, LV_PART_MAIN);
 363:Drivers/lvgl/src/core/lv_obj_pos.c ****     lv_coord_t bleft = lv_obj_get_style_pad_left(base, LV_PART_MAIN) + bborder;
 364:Drivers/lvgl/src/core/lv_obj_pos.c ****     lv_coord_t btop = lv_obj_get_style_pad_top(base, LV_PART_MAIN) + bborder;
 365:Drivers/lvgl/src/core/lv_obj_pos.c **** 
 366:Drivers/lvgl/src/core/lv_obj_pos.c ****     if(align == LV_ALIGN_DEFAULT) {
 367:Drivers/lvgl/src/core/lv_obj_pos.c ****         if(lv_obj_get_style_base_dir(base, LV_PART_MAIN) == LV_BASE_DIR_RTL) align = LV_ALIGN_TOP_R
 368:Drivers/lvgl/src/core/lv_obj_pos.c ****         else align = LV_ALIGN_TOP_LEFT;
 369:Drivers/lvgl/src/core/lv_obj_pos.c ****     }
 370:Drivers/lvgl/src/core/lv_obj_pos.c **** 
 371:Drivers/lvgl/src/core/lv_obj_pos.c ****     switch(align) {
 372:Drivers/lvgl/src/core/lv_obj_pos.c ****         case LV_ALIGN_CENTER:
 373:Drivers/lvgl/src/core/lv_obj_pos.c ****             x = lv_obj_get_content_width(base) / 2 - lv_obj_get_width(obj) / 2 + bleft;
ARM GAS  /var/folders/0z/tsy30v1j4xl4_7kw94k978ww0000gn/T//ccuxxuhb.s 			page 8


 374:Drivers/lvgl/src/core/lv_obj_pos.c ****             y = lv_obj_get_content_height(base) / 2 - lv_obj_get_height(obj) / 2 + btop;
 375:Drivers/lvgl/src/core/lv_obj_pos.c ****             break;
 376:Drivers/lvgl/src/core/lv_obj_pos.c ****         case LV_ALIGN_TOP_LEFT:
 377:Drivers/lvgl/src/core/lv_obj_pos.c ****             x = bleft;
 378:Drivers/lvgl/src/core/lv_obj_pos.c ****             y = btop;
 379:Drivers/lvgl/src/core/lv_obj_pos.c ****             break;
 380:Drivers/lvgl/src/core/lv_obj_pos.c ****         case LV_ALIGN_TOP_MID:
 381:Drivers/lvgl/src/core/lv_obj_pos.c ****             x = lv_obj_get_content_width(base) / 2 - lv_obj_get_width(obj) / 2 + bleft;
 382:Drivers/lvgl/src/core/lv_obj_pos.c ****             y = btop;
 383:Drivers/lvgl/src/core/lv_obj_pos.c ****             break;
 384:Drivers/lvgl/src/core/lv_obj_pos.c **** 
 385:Drivers/lvgl/src/core/lv_obj_pos.c ****         case LV_ALIGN_TOP_RIGHT:
 386:Drivers/lvgl/src/core/lv_obj_pos.c ****             x = lv_obj_get_content_width(base) - lv_obj_get_width(obj) + bleft;
 387:Drivers/lvgl/src/core/lv_obj_pos.c ****             y = btop;
 388:Drivers/lvgl/src/core/lv_obj_pos.c ****             break;
 389:Drivers/lvgl/src/core/lv_obj_pos.c **** 
 390:Drivers/lvgl/src/core/lv_obj_pos.c ****         case LV_ALIGN_BOTTOM_LEFT:
 391:Drivers/lvgl/src/core/lv_obj_pos.c ****             x = bleft;
 392:Drivers/lvgl/src/core/lv_obj_pos.c ****             y = lv_obj_get_content_height(base) - lv_obj_get_height(obj) + btop;
 393:Drivers/lvgl/src/core/lv_obj_pos.c ****             break;
 394:Drivers/lvgl/src/core/lv_obj_pos.c ****         case LV_ALIGN_BOTTOM_MID:
 395:Drivers/lvgl/src/core/lv_obj_pos.c ****             x = lv_obj_get_content_width(base) / 2 - lv_obj_get_width(obj) / 2 + bleft;
 396:Drivers/lvgl/src/core/lv_obj_pos.c ****             y = lv_obj_get_content_height(base) - lv_obj_get_height(obj) + btop;
 397:Drivers/lvgl/src/core/lv_obj_pos.c ****             break;
 398:Drivers/lvgl/src/core/lv_obj_pos.c **** 
 399:Drivers/lvgl/src/core/lv_obj_pos.c ****         case LV_ALIGN_BOTTOM_RIGHT:
 400:Drivers/lvgl/src/core/lv_obj_pos.c ****             x = lv_obj_get_content_width(base) - lv_obj_get_width(obj) + bleft;
 401:Drivers/lvgl/src/core/lv_obj_pos.c ****             y = lv_obj_get_content_height(base) - lv_obj_get_height(obj) + btop;
 402:Drivers/lvgl/src/core/lv_obj_pos.c ****             break;
 403:Drivers/lvgl/src/core/lv_obj_pos.c **** 
 404:Drivers/lvgl/src/core/lv_obj_pos.c ****         case LV_ALIGN_LEFT_MID:
 405:Drivers/lvgl/src/core/lv_obj_pos.c ****             x = bleft;
 406:Drivers/lvgl/src/core/lv_obj_pos.c ****             y = lv_obj_get_content_height(base) / 2 - lv_obj_get_height(obj) / 2 + btop;
 407:Drivers/lvgl/src/core/lv_obj_pos.c ****             break;
 408:Drivers/lvgl/src/core/lv_obj_pos.c **** 
 409:Drivers/lvgl/src/core/lv_obj_pos.c ****         case LV_ALIGN_RIGHT_MID:
 410:Drivers/lvgl/src/core/lv_obj_pos.c ****             x = lv_obj_get_content_width(base) - lv_obj_get_width(obj) + bleft;
 411:Drivers/lvgl/src/core/lv_obj_pos.c ****             y = lv_obj_get_content_height(base) / 2 - lv_obj_get_height(obj) / 2 + btop;
 412:Drivers/lvgl/src/core/lv_obj_pos.c ****             break;
 413:Drivers/lvgl/src/core/lv_obj_pos.c **** 
 414:Drivers/lvgl/src/core/lv_obj_pos.c ****         case LV_ALIGN_OUT_TOP_LEFT:
 415:Drivers/lvgl/src/core/lv_obj_pos.c ****             x = 0;
 416:Drivers/lvgl/src/core/lv_obj_pos.c ****             y = -lv_obj_get_height(obj);
 417:Drivers/lvgl/src/core/lv_obj_pos.c ****             break;
 418:Drivers/lvgl/src/core/lv_obj_pos.c **** 
 419:Drivers/lvgl/src/core/lv_obj_pos.c ****         case LV_ALIGN_OUT_TOP_MID:
 420:Drivers/lvgl/src/core/lv_obj_pos.c ****             x = lv_obj_get_width(base) / 2 - lv_obj_get_width(obj) / 2;
 421:Drivers/lvgl/src/core/lv_obj_pos.c ****             y = -lv_obj_get_height(obj);
 422:Drivers/lvgl/src/core/lv_obj_pos.c ****             break;
 423:Drivers/lvgl/src/core/lv_obj_pos.c **** 
 424:Drivers/lvgl/src/core/lv_obj_pos.c ****         case LV_ALIGN_OUT_TOP_RIGHT:
 425:Drivers/lvgl/src/core/lv_obj_pos.c ****             x = lv_obj_get_width(base) - lv_obj_get_width(obj);
 426:Drivers/lvgl/src/core/lv_obj_pos.c ****             y = -lv_obj_get_height(obj);
 427:Drivers/lvgl/src/core/lv_obj_pos.c ****             break;
 428:Drivers/lvgl/src/core/lv_obj_pos.c **** 
 429:Drivers/lvgl/src/core/lv_obj_pos.c ****         case LV_ALIGN_OUT_BOTTOM_LEFT:
 430:Drivers/lvgl/src/core/lv_obj_pos.c ****             x = 0;
ARM GAS  /var/folders/0z/tsy30v1j4xl4_7kw94k978ww0000gn/T//ccuxxuhb.s 			page 9


 431:Drivers/lvgl/src/core/lv_obj_pos.c ****             y = lv_obj_get_height(base);
 432:Drivers/lvgl/src/core/lv_obj_pos.c ****             break;
 433:Drivers/lvgl/src/core/lv_obj_pos.c **** 
 434:Drivers/lvgl/src/core/lv_obj_pos.c ****         case LV_ALIGN_OUT_BOTTOM_MID:
 435:Drivers/lvgl/src/core/lv_obj_pos.c ****             x = lv_obj_get_width(base) / 2 - lv_obj_get_width(obj) / 2;
 436:Drivers/lvgl/src/core/lv_obj_pos.c ****             y = lv_obj_get_height(base);
 437:Drivers/lvgl/src/core/lv_obj_pos.c ****             break;
 438:Drivers/lvgl/src/core/lv_obj_pos.c **** 
 439:Drivers/lvgl/src/core/lv_obj_pos.c ****         case LV_ALIGN_OUT_BOTTOM_RIGHT:
 440:Drivers/lvgl/src/core/lv_obj_pos.c ****             x = lv_obj_get_width(base) - lv_obj_get_width(obj);
 441:Drivers/lvgl/src/core/lv_obj_pos.c ****             y = lv_obj_get_height(base);
 442:Drivers/lvgl/src/core/lv_obj_pos.c ****             break;
 443:Drivers/lvgl/src/core/lv_obj_pos.c **** 
 444:Drivers/lvgl/src/core/lv_obj_pos.c ****         case LV_ALIGN_OUT_LEFT_TOP:
 445:Drivers/lvgl/src/core/lv_obj_pos.c ****             x = -lv_obj_get_width(obj);
 446:Drivers/lvgl/src/core/lv_obj_pos.c ****             y = 0;
 447:Drivers/lvgl/src/core/lv_obj_pos.c ****             break;
 448:Drivers/lvgl/src/core/lv_obj_pos.c **** 
 449:Drivers/lvgl/src/core/lv_obj_pos.c ****         case LV_ALIGN_OUT_LEFT_MID:
 450:Drivers/lvgl/src/core/lv_obj_pos.c ****             x = -lv_obj_get_width(obj);
 451:Drivers/lvgl/src/core/lv_obj_pos.c ****             y = lv_obj_get_height(base) / 2 - lv_obj_get_height(obj) / 2;
 452:Drivers/lvgl/src/core/lv_obj_pos.c ****             break;
 453:Drivers/lvgl/src/core/lv_obj_pos.c **** 
 454:Drivers/lvgl/src/core/lv_obj_pos.c ****         case LV_ALIGN_OUT_LEFT_BOTTOM:
 455:Drivers/lvgl/src/core/lv_obj_pos.c ****             x = -lv_obj_get_width(obj);
 456:Drivers/lvgl/src/core/lv_obj_pos.c ****             y = lv_obj_get_height(base) - lv_obj_get_height(obj);
 457:Drivers/lvgl/src/core/lv_obj_pos.c ****             break;
 458:Drivers/lvgl/src/core/lv_obj_pos.c **** 
 459:Drivers/lvgl/src/core/lv_obj_pos.c ****         case LV_ALIGN_OUT_RIGHT_TOP:
 460:Drivers/lvgl/src/core/lv_obj_pos.c ****             x = lv_obj_get_width(base);
 461:Drivers/lvgl/src/core/lv_obj_pos.c ****             y = 0;
 462:Drivers/lvgl/src/core/lv_obj_pos.c ****             break;
 463:Drivers/lvgl/src/core/lv_obj_pos.c **** 
 464:Drivers/lvgl/src/core/lv_obj_pos.c ****         case LV_ALIGN_OUT_RIGHT_MID:
 465:Drivers/lvgl/src/core/lv_obj_pos.c ****             x = lv_obj_get_width(base);
 466:Drivers/lvgl/src/core/lv_obj_pos.c ****             y = lv_obj_get_height(base) / 2 - lv_obj_get_height(obj) / 2;
 467:Drivers/lvgl/src/core/lv_obj_pos.c ****             break;
 468:Drivers/lvgl/src/core/lv_obj_pos.c **** 
 469:Drivers/lvgl/src/core/lv_obj_pos.c ****         case LV_ALIGN_OUT_RIGHT_BOTTOM:
 470:Drivers/lvgl/src/core/lv_obj_pos.c ****             x = lv_obj_get_width(base);
 471:Drivers/lvgl/src/core/lv_obj_pos.c ****             y = lv_obj_get_height(base) - lv_obj_get_height(obj);
 472:Drivers/lvgl/src/core/lv_obj_pos.c ****             break;
 473:Drivers/lvgl/src/core/lv_obj_pos.c ****     }
 474:Drivers/lvgl/src/core/lv_obj_pos.c **** 
 475:Drivers/lvgl/src/core/lv_obj_pos.c ****     if(lv_obj_get_style_base_dir(parent, LV_PART_MAIN) == LV_BASE_DIR_RTL) {
 476:Drivers/lvgl/src/core/lv_obj_pos.c ****         x += x_ofs + base->coords.x1 - parent->coords.x1 + lv_obj_get_scroll_right(parent) - pleft;
 477:Drivers/lvgl/src/core/lv_obj_pos.c ****     }
 478:Drivers/lvgl/src/core/lv_obj_pos.c ****     else {
 479:Drivers/lvgl/src/core/lv_obj_pos.c ****         x += x_ofs + base->coords.x1 - parent->coords.x1 + lv_obj_get_scroll_left(parent) - pleft;
 480:Drivers/lvgl/src/core/lv_obj_pos.c ****     }
 481:Drivers/lvgl/src/core/lv_obj_pos.c ****     y += y_ofs + base->coords.y1 - parent->coords.y1 + lv_obj_get_scroll_top(parent) - ptop;
 482:Drivers/lvgl/src/core/lv_obj_pos.c ****     lv_obj_set_style_align(obj, LV_ALIGN_TOP_LEFT, 0);
 483:Drivers/lvgl/src/core/lv_obj_pos.c ****     lv_obj_set_pos(obj, x, y);
 484:Drivers/lvgl/src/core/lv_obj_pos.c **** 
 485:Drivers/lvgl/src/core/lv_obj_pos.c **** }
 486:Drivers/lvgl/src/core/lv_obj_pos.c **** 
 487:Drivers/lvgl/src/core/lv_obj_pos.c **** void lv_obj_get_coords(const lv_obj_t * obj, lv_area_t * coords)
ARM GAS  /var/folders/0z/tsy30v1j4xl4_7kw94k978ww0000gn/T//ccuxxuhb.s 			page 10


 488:Drivers/lvgl/src/core/lv_obj_pos.c **** {
 489:Drivers/lvgl/src/core/lv_obj_pos.c ****     LV_ASSERT_OBJ(obj, MY_CLASS);
 490:Drivers/lvgl/src/core/lv_obj_pos.c **** 
 491:Drivers/lvgl/src/core/lv_obj_pos.c ****     lv_area_copy(coords, &obj->coords);
 492:Drivers/lvgl/src/core/lv_obj_pos.c **** }
 493:Drivers/lvgl/src/core/lv_obj_pos.c **** 
 494:Drivers/lvgl/src/core/lv_obj_pos.c **** lv_coord_t lv_obj_get_x(const lv_obj_t * obj)
 495:Drivers/lvgl/src/core/lv_obj_pos.c **** {
 496:Drivers/lvgl/src/core/lv_obj_pos.c ****     LV_ASSERT_OBJ(obj, MY_CLASS);
 497:Drivers/lvgl/src/core/lv_obj_pos.c **** 
 498:Drivers/lvgl/src/core/lv_obj_pos.c ****     lv_coord_t rel_x;
 499:Drivers/lvgl/src/core/lv_obj_pos.c ****     lv_obj_t * parent = lv_obj_get_parent(obj);
 500:Drivers/lvgl/src/core/lv_obj_pos.c ****     if(parent) {
 501:Drivers/lvgl/src/core/lv_obj_pos.c ****         rel_x  = obj->coords.x1 - parent->coords.x1;
 502:Drivers/lvgl/src/core/lv_obj_pos.c ****         rel_x += lv_obj_get_scroll_x(parent);
 503:Drivers/lvgl/src/core/lv_obj_pos.c ****         rel_x -= lv_obj_get_style_pad_left(parent, LV_PART_MAIN);
 504:Drivers/lvgl/src/core/lv_obj_pos.c ****         rel_x -= lv_obj_get_style_border_width(parent, LV_PART_MAIN);
 505:Drivers/lvgl/src/core/lv_obj_pos.c ****     }
 506:Drivers/lvgl/src/core/lv_obj_pos.c ****     else {
 507:Drivers/lvgl/src/core/lv_obj_pos.c ****         rel_x = obj->coords.x1;
 508:Drivers/lvgl/src/core/lv_obj_pos.c ****     }
 509:Drivers/lvgl/src/core/lv_obj_pos.c ****     return rel_x;
 510:Drivers/lvgl/src/core/lv_obj_pos.c **** }
 511:Drivers/lvgl/src/core/lv_obj_pos.c **** 
 512:Drivers/lvgl/src/core/lv_obj_pos.c **** lv_coord_t lv_obj_get_x2(const lv_obj_t * obj)
 513:Drivers/lvgl/src/core/lv_obj_pos.c **** {
 514:Drivers/lvgl/src/core/lv_obj_pos.c ****     LV_ASSERT_OBJ(obj, MY_CLASS);
 515:Drivers/lvgl/src/core/lv_obj_pos.c **** 
 516:Drivers/lvgl/src/core/lv_obj_pos.c ****     return lv_obj_get_x(obj) + lv_obj_get_width(obj);
 517:Drivers/lvgl/src/core/lv_obj_pos.c **** }
 518:Drivers/lvgl/src/core/lv_obj_pos.c **** 
 519:Drivers/lvgl/src/core/lv_obj_pos.c **** lv_coord_t lv_obj_get_y(const lv_obj_t * obj)
 520:Drivers/lvgl/src/core/lv_obj_pos.c **** {
 521:Drivers/lvgl/src/core/lv_obj_pos.c ****     LV_ASSERT_OBJ(obj, MY_CLASS);
 522:Drivers/lvgl/src/core/lv_obj_pos.c **** 
 523:Drivers/lvgl/src/core/lv_obj_pos.c ****     lv_coord_t rel_y;
 524:Drivers/lvgl/src/core/lv_obj_pos.c ****     lv_obj_t * parent = lv_obj_get_parent(obj);
 525:Drivers/lvgl/src/core/lv_obj_pos.c ****     if(parent) {
 526:Drivers/lvgl/src/core/lv_obj_pos.c ****         rel_y = obj->coords.y1 - parent->coords.y1;
 527:Drivers/lvgl/src/core/lv_obj_pos.c ****         rel_y += lv_obj_get_scroll_y(parent);
 528:Drivers/lvgl/src/core/lv_obj_pos.c ****         rel_y -= lv_obj_get_style_pad_top(parent, LV_PART_MAIN);
 529:Drivers/lvgl/src/core/lv_obj_pos.c ****         rel_y -= lv_obj_get_style_border_width(parent, LV_PART_MAIN);
 530:Drivers/lvgl/src/core/lv_obj_pos.c ****     }
 531:Drivers/lvgl/src/core/lv_obj_pos.c ****     else {
 532:Drivers/lvgl/src/core/lv_obj_pos.c ****         rel_y = obj->coords.y1;
 533:Drivers/lvgl/src/core/lv_obj_pos.c ****     }
 534:Drivers/lvgl/src/core/lv_obj_pos.c ****     return rel_y;
 535:Drivers/lvgl/src/core/lv_obj_pos.c **** }
 536:Drivers/lvgl/src/core/lv_obj_pos.c **** 
 537:Drivers/lvgl/src/core/lv_obj_pos.c **** lv_coord_t lv_obj_get_y2(const lv_obj_t * obj)
 538:Drivers/lvgl/src/core/lv_obj_pos.c **** {
 539:Drivers/lvgl/src/core/lv_obj_pos.c ****     LV_ASSERT_OBJ(obj, MY_CLASS);
 540:Drivers/lvgl/src/core/lv_obj_pos.c **** 
 541:Drivers/lvgl/src/core/lv_obj_pos.c ****     return lv_obj_get_y(obj) + lv_obj_get_height(obj);
 542:Drivers/lvgl/src/core/lv_obj_pos.c **** }
 543:Drivers/lvgl/src/core/lv_obj_pos.c **** 
 544:Drivers/lvgl/src/core/lv_obj_pos.c **** lv_coord_t lv_obj_get_x_aligned(const lv_obj_t * obj)
ARM GAS  /var/folders/0z/tsy30v1j4xl4_7kw94k978ww0000gn/T//ccuxxuhb.s 			page 11


 545:Drivers/lvgl/src/core/lv_obj_pos.c **** {
 546:Drivers/lvgl/src/core/lv_obj_pos.c ****     return lv_obj_get_style_x(obj, LV_PART_MAIN);
 547:Drivers/lvgl/src/core/lv_obj_pos.c **** }
 548:Drivers/lvgl/src/core/lv_obj_pos.c **** 
 549:Drivers/lvgl/src/core/lv_obj_pos.c **** lv_coord_t lv_obj_get_y_aligned(const lv_obj_t * obj)
 550:Drivers/lvgl/src/core/lv_obj_pos.c **** {
 551:Drivers/lvgl/src/core/lv_obj_pos.c ****     return lv_obj_get_style_y(obj, LV_PART_MAIN);
 552:Drivers/lvgl/src/core/lv_obj_pos.c **** }
 553:Drivers/lvgl/src/core/lv_obj_pos.c **** 
 554:Drivers/lvgl/src/core/lv_obj_pos.c **** 
 555:Drivers/lvgl/src/core/lv_obj_pos.c **** lv_coord_t lv_obj_get_width(const lv_obj_t * obj)
 556:Drivers/lvgl/src/core/lv_obj_pos.c **** {
 557:Drivers/lvgl/src/core/lv_obj_pos.c ****     LV_ASSERT_OBJ(obj, MY_CLASS);
 558:Drivers/lvgl/src/core/lv_obj_pos.c **** 
 559:Drivers/lvgl/src/core/lv_obj_pos.c ****     return lv_area_get_width(&obj->coords);
 560:Drivers/lvgl/src/core/lv_obj_pos.c **** }
 561:Drivers/lvgl/src/core/lv_obj_pos.c **** 
 562:Drivers/lvgl/src/core/lv_obj_pos.c **** lv_coord_t lv_obj_get_height(const lv_obj_t * obj)
 563:Drivers/lvgl/src/core/lv_obj_pos.c **** {
 564:Drivers/lvgl/src/core/lv_obj_pos.c ****     LV_ASSERT_OBJ(obj, MY_CLASS);
 565:Drivers/lvgl/src/core/lv_obj_pos.c **** 
 566:Drivers/lvgl/src/core/lv_obj_pos.c ****     return lv_area_get_height(&obj->coords);
 567:Drivers/lvgl/src/core/lv_obj_pos.c **** }
 568:Drivers/lvgl/src/core/lv_obj_pos.c **** 
 569:Drivers/lvgl/src/core/lv_obj_pos.c **** lv_coord_t lv_obj_get_content_width(const lv_obj_t * obj)
 570:Drivers/lvgl/src/core/lv_obj_pos.c **** {
 571:Drivers/lvgl/src/core/lv_obj_pos.c ****     LV_ASSERT_OBJ(obj, MY_CLASS);
 572:Drivers/lvgl/src/core/lv_obj_pos.c **** 
 573:Drivers/lvgl/src/core/lv_obj_pos.c ****     lv_coord_t left = lv_obj_get_style_pad_left(obj, LV_PART_MAIN);
 574:Drivers/lvgl/src/core/lv_obj_pos.c ****     lv_coord_t right = lv_obj_get_style_pad_right(obj, LV_PART_MAIN);
 575:Drivers/lvgl/src/core/lv_obj_pos.c ****     lv_coord_t border_width = lv_obj_get_style_border_width(obj, LV_PART_MAIN);
 576:Drivers/lvgl/src/core/lv_obj_pos.c **** 
 577:Drivers/lvgl/src/core/lv_obj_pos.c ****     return lv_obj_get_width(obj) - left - right - 2 * border_width;
 578:Drivers/lvgl/src/core/lv_obj_pos.c **** }
 579:Drivers/lvgl/src/core/lv_obj_pos.c **** 
 580:Drivers/lvgl/src/core/lv_obj_pos.c **** lv_coord_t lv_obj_get_content_height(const lv_obj_t * obj)
 581:Drivers/lvgl/src/core/lv_obj_pos.c **** {
 582:Drivers/lvgl/src/core/lv_obj_pos.c ****     LV_ASSERT_OBJ(obj, MY_CLASS);
 583:Drivers/lvgl/src/core/lv_obj_pos.c **** 
 584:Drivers/lvgl/src/core/lv_obj_pos.c ****     lv_coord_t top = lv_obj_get_style_pad_top(obj, LV_PART_MAIN);
 585:Drivers/lvgl/src/core/lv_obj_pos.c ****     lv_coord_t bottom = lv_obj_get_style_pad_bottom(obj, LV_PART_MAIN);
 586:Drivers/lvgl/src/core/lv_obj_pos.c ****     lv_coord_t border_width = lv_obj_get_style_border_width(obj, LV_PART_MAIN);
 587:Drivers/lvgl/src/core/lv_obj_pos.c **** 
 588:Drivers/lvgl/src/core/lv_obj_pos.c ****     return lv_obj_get_height(obj) - top - bottom - 2 * border_width;
 589:Drivers/lvgl/src/core/lv_obj_pos.c **** }
 590:Drivers/lvgl/src/core/lv_obj_pos.c **** 
 591:Drivers/lvgl/src/core/lv_obj_pos.c **** void lv_obj_get_content_coords(const lv_obj_t * obj, lv_area_t * area)
 592:Drivers/lvgl/src/core/lv_obj_pos.c **** {
 593:Drivers/lvgl/src/core/lv_obj_pos.c ****     LV_ASSERT_OBJ(obj, MY_CLASS);
 594:Drivers/lvgl/src/core/lv_obj_pos.c ****     lv_coord_t border_width = lv_obj_get_style_border_width(obj, LV_PART_MAIN);
 595:Drivers/lvgl/src/core/lv_obj_pos.c **** 
 596:Drivers/lvgl/src/core/lv_obj_pos.c ****     lv_obj_get_coords(obj, area);
 597:Drivers/lvgl/src/core/lv_obj_pos.c ****     lv_area_increase(area, -border_width, -border_width);
 598:Drivers/lvgl/src/core/lv_obj_pos.c ****     area->x1 += lv_obj_get_style_pad_left(obj, LV_PART_MAIN);
 599:Drivers/lvgl/src/core/lv_obj_pos.c ****     area->x2 -= lv_obj_get_style_pad_right(obj, LV_PART_MAIN);
 600:Drivers/lvgl/src/core/lv_obj_pos.c ****     area->y1 += lv_obj_get_style_pad_top(obj, LV_PART_MAIN);
 601:Drivers/lvgl/src/core/lv_obj_pos.c ****     area->y2 -= lv_obj_get_style_pad_bottom(obj, LV_PART_MAIN);
ARM GAS  /var/folders/0z/tsy30v1j4xl4_7kw94k978ww0000gn/T//ccuxxuhb.s 			page 12


 602:Drivers/lvgl/src/core/lv_obj_pos.c **** 
 603:Drivers/lvgl/src/core/lv_obj_pos.c **** }
 604:Drivers/lvgl/src/core/lv_obj_pos.c **** 
 605:Drivers/lvgl/src/core/lv_obj_pos.c **** lv_coord_t lv_obj_get_self_width(const lv_obj_t * obj)
 606:Drivers/lvgl/src/core/lv_obj_pos.c **** {
 607:Drivers/lvgl/src/core/lv_obj_pos.c ****     lv_point_t p = {0, LV_COORD_MIN};
 608:Drivers/lvgl/src/core/lv_obj_pos.c ****     lv_event_send((lv_obj_t *)obj, LV_EVENT_GET_SELF_SIZE, &p);
 609:Drivers/lvgl/src/core/lv_obj_pos.c ****     return p.x;
 610:Drivers/lvgl/src/core/lv_obj_pos.c **** }
 611:Drivers/lvgl/src/core/lv_obj_pos.c **** 
 612:Drivers/lvgl/src/core/lv_obj_pos.c **** lv_coord_t lv_obj_get_self_height(const lv_obj_t * obj)
 613:Drivers/lvgl/src/core/lv_obj_pos.c **** {
 614:Drivers/lvgl/src/core/lv_obj_pos.c ****     lv_point_t p = {LV_COORD_MIN, 0};
 615:Drivers/lvgl/src/core/lv_obj_pos.c ****     lv_event_send((lv_obj_t *)obj, LV_EVENT_GET_SELF_SIZE, &p);
 616:Drivers/lvgl/src/core/lv_obj_pos.c ****     return p.y;
 617:Drivers/lvgl/src/core/lv_obj_pos.c **** }
 618:Drivers/lvgl/src/core/lv_obj_pos.c **** 
 619:Drivers/lvgl/src/core/lv_obj_pos.c **** bool lv_obj_refresh_self_size(lv_obj_t * obj)
 620:Drivers/lvgl/src/core/lv_obj_pos.c **** {
 621:Drivers/lvgl/src/core/lv_obj_pos.c ****     lv_coord_t w_set = lv_obj_get_style_width(obj, LV_PART_MAIN);
 622:Drivers/lvgl/src/core/lv_obj_pos.c ****     lv_coord_t h_set = lv_obj_get_style_height(obj, LV_PART_MAIN);
 623:Drivers/lvgl/src/core/lv_obj_pos.c ****     if(w_set != LV_SIZE_CONTENT && h_set != LV_SIZE_CONTENT) return false;
 624:Drivers/lvgl/src/core/lv_obj_pos.c **** 
 625:Drivers/lvgl/src/core/lv_obj_pos.c ****     lv_obj_mark_layout_as_dirty(obj);
 626:Drivers/lvgl/src/core/lv_obj_pos.c ****     return true;
 627:Drivers/lvgl/src/core/lv_obj_pos.c **** }
 628:Drivers/lvgl/src/core/lv_obj_pos.c **** 
 629:Drivers/lvgl/src/core/lv_obj_pos.c **** void lv_obj_refr_pos(lv_obj_t * obj)
 630:Drivers/lvgl/src/core/lv_obj_pos.c **** {
 631:Drivers/lvgl/src/core/lv_obj_pos.c ****     if(lv_obj_is_layout_positioned(obj)) return;
 632:Drivers/lvgl/src/core/lv_obj_pos.c **** 
 633:Drivers/lvgl/src/core/lv_obj_pos.c **** 
 634:Drivers/lvgl/src/core/lv_obj_pos.c ****     lv_obj_t * parent = lv_obj_get_parent(obj);
 635:Drivers/lvgl/src/core/lv_obj_pos.c ****     lv_coord_t x = lv_obj_get_style_x(obj, LV_PART_MAIN);
 636:Drivers/lvgl/src/core/lv_obj_pos.c ****     lv_coord_t y = lv_obj_get_style_y(obj, LV_PART_MAIN);
 637:Drivers/lvgl/src/core/lv_obj_pos.c **** 
 638:Drivers/lvgl/src/core/lv_obj_pos.c ****     if(parent == NULL) {
 639:Drivers/lvgl/src/core/lv_obj_pos.c ****         lv_obj_move_to(obj, x, y);
 640:Drivers/lvgl/src/core/lv_obj_pos.c ****         return;
 641:Drivers/lvgl/src/core/lv_obj_pos.c ****     }
 642:Drivers/lvgl/src/core/lv_obj_pos.c **** 
 643:Drivers/lvgl/src/core/lv_obj_pos.c ****     /*Handle percentage value*/
 644:Drivers/lvgl/src/core/lv_obj_pos.c ****     lv_coord_t pw = lv_obj_get_content_width(parent);
 645:Drivers/lvgl/src/core/lv_obj_pos.c ****     lv_coord_t ph = lv_obj_get_content_height(parent);
 646:Drivers/lvgl/src/core/lv_obj_pos.c ****     if(LV_COORD_IS_PCT(x)) x = (pw * LV_COORD_GET_PCT(x)) / 100;
 647:Drivers/lvgl/src/core/lv_obj_pos.c ****     if(LV_COORD_IS_PCT(y)) y = (ph * LV_COORD_GET_PCT(y)) / 100;
 648:Drivers/lvgl/src/core/lv_obj_pos.c **** 
 649:Drivers/lvgl/src/core/lv_obj_pos.c ****     /*Handle percentage value of translate*/
 650:Drivers/lvgl/src/core/lv_obj_pos.c ****     lv_coord_t tr_x = lv_obj_get_style_translate_x(obj, LV_PART_MAIN);
 651:Drivers/lvgl/src/core/lv_obj_pos.c ****     lv_coord_t tr_y = lv_obj_get_style_translate_y(obj, LV_PART_MAIN);
 652:Drivers/lvgl/src/core/lv_obj_pos.c ****     lv_coord_t w = lv_obj_get_width(obj);
 653:Drivers/lvgl/src/core/lv_obj_pos.c ****     lv_coord_t h = lv_obj_get_height(obj);
 654:Drivers/lvgl/src/core/lv_obj_pos.c ****     if(LV_COORD_IS_PCT(tr_x)) tr_x = (w * LV_COORD_GET_PCT(tr_x)) / 100;
 655:Drivers/lvgl/src/core/lv_obj_pos.c ****     if(LV_COORD_IS_PCT(tr_y)) tr_y = (h * LV_COORD_GET_PCT(tr_y)) / 100;
 656:Drivers/lvgl/src/core/lv_obj_pos.c **** 
 657:Drivers/lvgl/src/core/lv_obj_pos.c ****     /*Use the translation*/
 658:Drivers/lvgl/src/core/lv_obj_pos.c ****     x += tr_x;
ARM GAS  /var/folders/0z/tsy30v1j4xl4_7kw94k978ww0000gn/T//ccuxxuhb.s 			page 13


 659:Drivers/lvgl/src/core/lv_obj_pos.c ****     y += tr_y;
 660:Drivers/lvgl/src/core/lv_obj_pos.c **** 
 661:Drivers/lvgl/src/core/lv_obj_pos.c ****     lv_align_t align = lv_obj_get_style_align(obj, LV_PART_MAIN);
 662:Drivers/lvgl/src/core/lv_obj_pos.c **** 
 663:Drivers/lvgl/src/core/lv_obj_pos.c ****     if(align == LV_ALIGN_DEFAULT) {
 664:Drivers/lvgl/src/core/lv_obj_pos.c ****         if(lv_obj_get_style_base_dir(parent, LV_PART_MAIN) == LV_BASE_DIR_RTL) align = LV_ALIGN_TOP
 665:Drivers/lvgl/src/core/lv_obj_pos.c ****         else align = LV_ALIGN_TOP_LEFT;
 666:Drivers/lvgl/src/core/lv_obj_pos.c ****     }
 667:Drivers/lvgl/src/core/lv_obj_pos.c **** 
 668:Drivers/lvgl/src/core/lv_obj_pos.c ****     if(align == LV_ALIGN_TOP_LEFT) {
 669:Drivers/lvgl/src/core/lv_obj_pos.c ****         lv_obj_move_to(obj, x, y);
 670:Drivers/lvgl/src/core/lv_obj_pos.c ****     }
 671:Drivers/lvgl/src/core/lv_obj_pos.c ****     else {
 672:Drivers/lvgl/src/core/lv_obj_pos.c **** 
 673:Drivers/lvgl/src/core/lv_obj_pos.c ****         switch(align) {
 674:Drivers/lvgl/src/core/lv_obj_pos.c ****             case LV_ALIGN_TOP_MID:
 675:Drivers/lvgl/src/core/lv_obj_pos.c ****                 x += pw / 2 - w / 2;
 676:Drivers/lvgl/src/core/lv_obj_pos.c ****                 break;
 677:Drivers/lvgl/src/core/lv_obj_pos.c ****             case LV_ALIGN_TOP_RIGHT:
 678:Drivers/lvgl/src/core/lv_obj_pos.c ****                 x += pw - w;
 679:Drivers/lvgl/src/core/lv_obj_pos.c ****                 break;
 680:Drivers/lvgl/src/core/lv_obj_pos.c ****             case LV_ALIGN_LEFT_MID:
 681:Drivers/lvgl/src/core/lv_obj_pos.c ****                 y += ph / 2 - h / 2;
 682:Drivers/lvgl/src/core/lv_obj_pos.c ****                 break;
 683:Drivers/lvgl/src/core/lv_obj_pos.c ****             case LV_ALIGN_BOTTOM_LEFT:
 684:Drivers/lvgl/src/core/lv_obj_pos.c ****                 y += ph - h;
 685:Drivers/lvgl/src/core/lv_obj_pos.c ****                 break;
 686:Drivers/lvgl/src/core/lv_obj_pos.c ****             case LV_ALIGN_BOTTOM_MID:
 687:Drivers/lvgl/src/core/lv_obj_pos.c ****                 x += pw / 2 - w / 2;
 688:Drivers/lvgl/src/core/lv_obj_pos.c ****                 y += ph - h;
 689:Drivers/lvgl/src/core/lv_obj_pos.c ****                 break;
 690:Drivers/lvgl/src/core/lv_obj_pos.c ****             case LV_ALIGN_BOTTOM_RIGHT:
 691:Drivers/lvgl/src/core/lv_obj_pos.c ****                 x += pw - w;
 692:Drivers/lvgl/src/core/lv_obj_pos.c ****                 y += ph - h;
 693:Drivers/lvgl/src/core/lv_obj_pos.c ****                 break;
 694:Drivers/lvgl/src/core/lv_obj_pos.c ****             case LV_ALIGN_RIGHT_MID:
 695:Drivers/lvgl/src/core/lv_obj_pos.c ****                 x += pw - w;
 696:Drivers/lvgl/src/core/lv_obj_pos.c ****                 y += ph / 2 - h / 2;
 697:Drivers/lvgl/src/core/lv_obj_pos.c ****                 break;
 698:Drivers/lvgl/src/core/lv_obj_pos.c ****             case LV_ALIGN_CENTER:
 699:Drivers/lvgl/src/core/lv_obj_pos.c ****                 x += pw / 2 - w / 2;
 700:Drivers/lvgl/src/core/lv_obj_pos.c ****                 y += ph / 2 - h / 2;
 701:Drivers/lvgl/src/core/lv_obj_pos.c ****                 break;
 702:Drivers/lvgl/src/core/lv_obj_pos.c ****             default:
 703:Drivers/lvgl/src/core/lv_obj_pos.c ****                 break;
 704:Drivers/lvgl/src/core/lv_obj_pos.c ****         }
 705:Drivers/lvgl/src/core/lv_obj_pos.c ****         lv_obj_move_to(obj, x, y);
 706:Drivers/lvgl/src/core/lv_obj_pos.c ****     }
 707:Drivers/lvgl/src/core/lv_obj_pos.c **** }
 708:Drivers/lvgl/src/core/lv_obj_pos.c **** 
 709:Drivers/lvgl/src/core/lv_obj_pos.c **** void lv_obj_move_to(lv_obj_t * obj, lv_coord_t x, lv_coord_t y)
 710:Drivers/lvgl/src/core/lv_obj_pos.c **** {
 711:Drivers/lvgl/src/core/lv_obj_pos.c ****     /*Convert x and y to absolute coordinates*/
 712:Drivers/lvgl/src/core/lv_obj_pos.c ****     lv_obj_t * parent = obj->parent;
 713:Drivers/lvgl/src/core/lv_obj_pos.c **** 
 714:Drivers/lvgl/src/core/lv_obj_pos.c ****     if(parent) {
 715:Drivers/lvgl/src/core/lv_obj_pos.c ****         lv_coord_t pad_left = lv_obj_get_style_pad_left(parent, LV_PART_MAIN);
ARM GAS  /var/folders/0z/tsy30v1j4xl4_7kw94k978ww0000gn/T//ccuxxuhb.s 			page 14


 716:Drivers/lvgl/src/core/lv_obj_pos.c ****         lv_coord_t pad_top = lv_obj_get_style_pad_top(parent, LV_PART_MAIN);
 717:Drivers/lvgl/src/core/lv_obj_pos.c **** 
 718:Drivers/lvgl/src/core/lv_obj_pos.c ****         if(lv_obj_has_flag(obj, LV_OBJ_FLAG_FLOATING)) {
 719:Drivers/lvgl/src/core/lv_obj_pos.c ****             x += pad_left + parent->coords.x1;
 720:Drivers/lvgl/src/core/lv_obj_pos.c ****             y += pad_top + parent->coords.y1;
 721:Drivers/lvgl/src/core/lv_obj_pos.c ****         }
 722:Drivers/lvgl/src/core/lv_obj_pos.c ****         else {
 723:Drivers/lvgl/src/core/lv_obj_pos.c ****             x += pad_left + parent->coords.x1 - lv_obj_get_scroll_x(parent);
 724:Drivers/lvgl/src/core/lv_obj_pos.c ****             y += pad_top + parent->coords.y1 - lv_obj_get_scroll_y(parent);
 725:Drivers/lvgl/src/core/lv_obj_pos.c ****         }
 726:Drivers/lvgl/src/core/lv_obj_pos.c **** 
 727:Drivers/lvgl/src/core/lv_obj_pos.c ****         lv_coord_t border_width = lv_obj_get_style_border_width(parent, LV_PART_MAIN);
 728:Drivers/lvgl/src/core/lv_obj_pos.c ****         x += border_width;
 729:Drivers/lvgl/src/core/lv_obj_pos.c ****         y += border_width;
 730:Drivers/lvgl/src/core/lv_obj_pos.c ****     }
 731:Drivers/lvgl/src/core/lv_obj_pos.c **** 
 732:Drivers/lvgl/src/core/lv_obj_pos.c ****     /*Calculate and set the movement*/
 733:Drivers/lvgl/src/core/lv_obj_pos.c ****     lv_point_t diff;
 734:Drivers/lvgl/src/core/lv_obj_pos.c ****     diff.x = x - obj->coords.x1;
 735:Drivers/lvgl/src/core/lv_obj_pos.c ****     diff.y = y - obj->coords.y1;
 736:Drivers/lvgl/src/core/lv_obj_pos.c **** 
 737:Drivers/lvgl/src/core/lv_obj_pos.c ****     /*Do nothing if the position is not changed*/
 738:Drivers/lvgl/src/core/lv_obj_pos.c ****     /*It is very important else recursive positioning can
 739:Drivers/lvgl/src/core/lv_obj_pos.c ****      *occur without position change*/
 740:Drivers/lvgl/src/core/lv_obj_pos.c ****     if(diff.x == 0 && diff.y == 0) return;
 741:Drivers/lvgl/src/core/lv_obj_pos.c **** 
 742:Drivers/lvgl/src/core/lv_obj_pos.c ****     /*Invalidate the original area*/
 743:Drivers/lvgl/src/core/lv_obj_pos.c ****     lv_obj_invalidate(obj);
 744:Drivers/lvgl/src/core/lv_obj_pos.c **** 
 745:Drivers/lvgl/src/core/lv_obj_pos.c ****     /*Save the original coordinates*/
 746:Drivers/lvgl/src/core/lv_obj_pos.c ****     lv_area_t ori;
 747:Drivers/lvgl/src/core/lv_obj_pos.c ****     lv_obj_get_coords(obj, &ori);
 748:Drivers/lvgl/src/core/lv_obj_pos.c **** 
 749:Drivers/lvgl/src/core/lv_obj_pos.c ****     /*Check if the object inside the parent or not*/
 750:Drivers/lvgl/src/core/lv_obj_pos.c ****     lv_area_t parent_fit_area;
 751:Drivers/lvgl/src/core/lv_obj_pos.c ****     bool on1 = false;
 752:Drivers/lvgl/src/core/lv_obj_pos.c ****     if(parent) {
 753:Drivers/lvgl/src/core/lv_obj_pos.c ****         lv_obj_get_content_coords(parent, &parent_fit_area);
 754:Drivers/lvgl/src/core/lv_obj_pos.c **** 
 755:Drivers/lvgl/src/core/lv_obj_pos.c ****         /*If the object is already out of the parent and its position is changes
 756:Drivers/lvgl/src/core/lv_obj_pos.c ****          *surely the scrollbars also changes so invalidate them*/
 757:Drivers/lvgl/src/core/lv_obj_pos.c ****         on1 = _lv_area_is_in(&ori, &parent_fit_area, 0);
 758:Drivers/lvgl/src/core/lv_obj_pos.c ****         if(!on1) lv_obj_scrollbar_invalidate(parent);
 759:Drivers/lvgl/src/core/lv_obj_pos.c ****     }
 760:Drivers/lvgl/src/core/lv_obj_pos.c **** 
 761:Drivers/lvgl/src/core/lv_obj_pos.c ****     obj->coords.x1 += diff.x;
 762:Drivers/lvgl/src/core/lv_obj_pos.c ****     obj->coords.y1 += diff.y;
 763:Drivers/lvgl/src/core/lv_obj_pos.c ****     obj->coords.x2 += diff.x;
 764:Drivers/lvgl/src/core/lv_obj_pos.c ****     obj->coords.y2 += diff.y;
 765:Drivers/lvgl/src/core/lv_obj_pos.c **** 
 766:Drivers/lvgl/src/core/lv_obj_pos.c ****     lv_obj_move_children_by(obj, diff.x, diff.y, false);
 767:Drivers/lvgl/src/core/lv_obj_pos.c **** 
 768:Drivers/lvgl/src/core/lv_obj_pos.c ****     /*Call the ancestor's event handler to the parent too*/
 769:Drivers/lvgl/src/core/lv_obj_pos.c ****     if(parent) lv_event_send(parent, LV_EVENT_CHILD_CHANGED, obj);
 770:Drivers/lvgl/src/core/lv_obj_pos.c **** 
 771:Drivers/lvgl/src/core/lv_obj_pos.c ****     /*Invalidate the new area*/
 772:Drivers/lvgl/src/core/lv_obj_pos.c ****     lv_obj_invalidate(obj);
ARM GAS  /var/folders/0z/tsy30v1j4xl4_7kw94k978ww0000gn/T//ccuxxuhb.s 			page 15


 773:Drivers/lvgl/src/core/lv_obj_pos.c **** 
 774:Drivers/lvgl/src/core/lv_obj_pos.c ****     /*If the object was out of the parent invalidate the new scrollbar area too.
 775:Drivers/lvgl/src/core/lv_obj_pos.c ****      *If it wasn't out of the parent but out now, also invalidate the srollbars*/
 776:Drivers/lvgl/src/core/lv_obj_pos.c ****     if(parent) {
 777:Drivers/lvgl/src/core/lv_obj_pos.c ****         bool on2 = _lv_area_is_in(&obj->coords, &parent_fit_area, 0);
 778:Drivers/lvgl/src/core/lv_obj_pos.c ****         if(on1 || (!on1 && on2)) lv_obj_scrollbar_invalidate(parent);
 779:Drivers/lvgl/src/core/lv_obj_pos.c ****     }
 780:Drivers/lvgl/src/core/lv_obj_pos.c **** }
 781:Drivers/lvgl/src/core/lv_obj_pos.c **** 
 782:Drivers/lvgl/src/core/lv_obj_pos.c **** void lv_obj_move_children_by(lv_obj_t * obj, lv_coord_t x_diff, lv_coord_t y_diff, bool ignore_floa
 783:Drivers/lvgl/src/core/lv_obj_pos.c **** {
 784:Drivers/lvgl/src/core/lv_obj_pos.c ****     uint32_t i;
 785:Drivers/lvgl/src/core/lv_obj_pos.c ****     uint32_t child_cnt = lv_obj_get_child_cnt(obj);
 786:Drivers/lvgl/src/core/lv_obj_pos.c ****     for(i = 0; i < child_cnt; i++) {
 787:Drivers/lvgl/src/core/lv_obj_pos.c ****         lv_obj_t * child = obj->spec_attr->children[i];
 788:Drivers/lvgl/src/core/lv_obj_pos.c ****         if(ignore_floating && lv_obj_has_flag(child, LV_OBJ_FLAG_FLOATING)) continue;
 789:Drivers/lvgl/src/core/lv_obj_pos.c ****         child->coords.x1 += x_diff;
 790:Drivers/lvgl/src/core/lv_obj_pos.c ****         child->coords.y1 += y_diff;
 791:Drivers/lvgl/src/core/lv_obj_pos.c ****         child->coords.x2 += x_diff;
 792:Drivers/lvgl/src/core/lv_obj_pos.c ****         child->coords.y2 += y_diff;
 793:Drivers/lvgl/src/core/lv_obj_pos.c **** 
 794:Drivers/lvgl/src/core/lv_obj_pos.c ****         lv_obj_move_children_by(child, x_diff, y_diff, false);
 795:Drivers/lvgl/src/core/lv_obj_pos.c ****     }
 796:Drivers/lvgl/src/core/lv_obj_pos.c **** }
 797:Drivers/lvgl/src/core/lv_obj_pos.c **** 
 798:Drivers/lvgl/src/core/lv_obj_pos.c **** void lv_obj_transform_point(const lv_obj_t * obj, lv_point_t * p, bool recursive, bool inv)
 799:Drivers/lvgl/src/core/lv_obj_pos.c **** {
 800:Drivers/lvgl/src/core/lv_obj_pos.c ****     if(obj) {
 801:Drivers/lvgl/src/core/lv_obj_pos.c ****         lv_layer_type_t layer_type = _lv_obj_get_layer_type(obj);
 802:Drivers/lvgl/src/core/lv_obj_pos.c ****         bool do_tranf = layer_type == LV_LAYER_TYPE_TRANSFORM;
 803:Drivers/lvgl/src/core/lv_obj_pos.c ****         if(inv) {
 804:Drivers/lvgl/src/core/lv_obj_pos.c ****             if(recursive) lv_obj_transform_point(lv_obj_get_parent(obj), p, recursive, inv);
 805:Drivers/lvgl/src/core/lv_obj_pos.c ****             if(do_tranf) transform_point(obj, p, inv);
 806:Drivers/lvgl/src/core/lv_obj_pos.c ****         }
 807:Drivers/lvgl/src/core/lv_obj_pos.c ****         else {
 808:Drivers/lvgl/src/core/lv_obj_pos.c ****             if(do_tranf) transform_point(obj, p, inv);
 809:Drivers/lvgl/src/core/lv_obj_pos.c ****             if(recursive) lv_obj_transform_point(lv_obj_get_parent(obj), p, recursive, inv);
 810:Drivers/lvgl/src/core/lv_obj_pos.c ****         }
 811:Drivers/lvgl/src/core/lv_obj_pos.c ****     }
 812:Drivers/lvgl/src/core/lv_obj_pos.c **** }
 813:Drivers/lvgl/src/core/lv_obj_pos.c **** 
 814:Drivers/lvgl/src/core/lv_obj_pos.c **** void lv_obj_get_transformed_area(const lv_obj_t * obj, lv_area_t * area, bool recursive,
 815:Drivers/lvgl/src/core/lv_obj_pos.c ****                                  bool inv)
 816:Drivers/lvgl/src/core/lv_obj_pos.c **** {
 817:Drivers/lvgl/src/core/lv_obj_pos.c ****     lv_point_t p[4] = {
 818:Drivers/lvgl/src/core/lv_obj_pos.c ****         {area->x1, area->y1},
 819:Drivers/lvgl/src/core/lv_obj_pos.c ****         {area->x1, area->y2},
 820:Drivers/lvgl/src/core/lv_obj_pos.c ****         {area->x2, area->y1},
 821:Drivers/lvgl/src/core/lv_obj_pos.c ****         {area->x2, area->y2},
 822:Drivers/lvgl/src/core/lv_obj_pos.c ****     };
 823:Drivers/lvgl/src/core/lv_obj_pos.c **** 
 824:Drivers/lvgl/src/core/lv_obj_pos.c ****     lv_obj_transform_point(obj, &p[0], recursive, inv);
 825:Drivers/lvgl/src/core/lv_obj_pos.c ****     lv_obj_transform_point(obj, &p[1], recursive, inv);
 826:Drivers/lvgl/src/core/lv_obj_pos.c ****     lv_obj_transform_point(obj, &p[2], recursive, inv);
 827:Drivers/lvgl/src/core/lv_obj_pos.c ****     lv_obj_transform_point(obj, &p[3], recursive, inv);
 828:Drivers/lvgl/src/core/lv_obj_pos.c **** 
 829:Drivers/lvgl/src/core/lv_obj_pos.c ****     area->x1 = LV_MIN4(p[0].x, p[1].x, p[2].x, p[3].x);
ARM GAS  /var/folders/0z/tsy30v1j4xl4_7kw94k978ww0000gn/T//ccuxxuhb.s 			page 16


 830:Drivers/lvgl/src/core/lv_obj_pos.c ****     area->x2 = LV_MAX4(p[0].x, p[1].x, p[2].x, p[3].x);
 831:Drivers/lvgl/src/core/lv_obj_pos.c ****     area->y1 = LV_MIN4(p[0].y, p[1].y, p[2].y, p[3].y);
 832:Drivers/lvgl/src/core/lv_obj_pos.c ****     area->y2 = LV_MAX4(p[0].y, p[1].y, p[2].y, p[3].y);
 833:Drivers/lvgl/src/core/lv_obj_pos.c ****     lv_area_increase(area, 5, 5);
 834:Drivers/lvgl/src/core/lv_obj_pos.c **** }
 835:Drivers/lvgl/src/core/lv_obj_pos.c **** 
 836:Drivers/lvgl/src/core/lv_obj_pos.c **** 
 837:Drivers/lvgl/src/core/lv_obj_pos.c **** void lv_obj_invalidate_area(const lv_obj_t * obj, const lv_area_t * area)
 838:Drivers/lvgl/src/core/lv_obj_pos.c **** {
 839:Drivers/lvgl/src/core/lv_obj_pos.c ****     LV_ASSERT_OBJ(obj, MY_CLASS);
 840:Drivers/lvgl/src/core/lv_obj_pos.c **** 
 841:Drivers/lvgl/src/core/lv_obj_pos.c ****     lv_disp_t * disp   = lv_obj_get_disp(obj);
 842:Drivers/lvgl/src/core/lv_obj_pos.c ****     if(!lv_disp_is_invalidation_enabled(disp)) return;
 843:Drivers/lvgl/src/core/lv_obj_pos.c **** 
 844:Drivers/lvgl/src/core/lv_obj_pos.c ****     lv_area_t area_tmp;
 845:Drivers/lvgl/src/core/lv_obj_pos.c ****     lv_area_copy(&area_tmp, area);
 846:Drivers/lvgl/src/core/lv_obj_pos.c ****     if(!lv_obj_area_is_visible(obj, &area_tmp)) return;
 847:Drivers/lvgl/src/core/lv_obj_pos.c **** 
 848:Drivers/lvgl/src/core/lv_obj_pos.c ****     _lv_inv_area(lv_obj_get_disp(obj),  &area_tmp);
 849:Drivers/lvgl/src/core/lv_obj_pos.c **** }
 850:Drivers/lvgl/src/core/lv_obj_pos.c **** 
 851:Drivers/lvgl/src/core/lv_obj_pos.c **** void lv_obj_invalidate(const lv_obj_t * obj)
 852:Drivers/lvgl/src/core/lv_obj_pos.c **** {
 853:Drivers/lvgl/src/core/lv_obj_pos.c ****     LV_ASSERT_OBJ(obj, MY_CLASS);
 854:Drivers/lvgl/src/core/lv_obj_pos.c **** 
 855:Drivers/lvgl/src/core/lv_obj_pos.c ****     /*Truncate the area to the object*/
 856:Drivers/lvgl/src/core/lv_obj_pos.c ****     lv_area_t obj_coords;
 857:Drivers/lvgl/src/core/lv_obj_pos.c ****     lv_coord_t ext_size = _lv_obj_get_ext_draw_size(obj);
 858:Drivers/lvgl/src/core/lv_obj_pos.c ****     lv_area_copy(&obj_coords, &obj->coords);
 859:Drivers/lvgl/src/core/lv_obj_pos.c ****     obj_coords.x1 -= ext_size;
 860:Drivers/lvgl/src/core/lv_obj_pos.c ****     obj_coords.y1 -= ext_size;
 861:Drivers/lvgl/src/core/lv_obj_pos.c ****     obj_coords.x2 += ext_size;
 862:Drivers/lvgl/src/core/lv_obj_pos.c ****     obj_coords.y2 += ext_size;
 863:Drivers/lvgl/src/core/lv_obj_pos.c **** 
 864:Drivers/lvgl/src/core/lv_obj_pos.c ****     lv_obj_invalidate_area(obj, &obj_coords);
 865:Drivers/lvgl/src/core/lv_obj_pos.c **** 
 866:Drivers/lvgl/src/core/lv_obj_pos.c **** }
 867:Drivers/lvgl/src/core/lv_obj_pos.c **** 
 868:Drivers/lvgl/src/core/lv_obj_pos.c **** bool lv_obj_area_is_visible(const lv_obj_t * obj, lv_area_t * area)
 869:Drivers/lvgl/src/core/lv_obj_pos.c **** {
 870:Drivers/lvgl/src/core/lv_obj_pos.c ****     if(lv_obj_has_flag(obj, LV_OBJ_FLAG_HIDDEN)) return false;
 871:Drivers/lvgl/src/core/lv_obj_pos.c **** 
 872:Drivers/lvgl/src/core/lv_obj_pos.c ****     /*Invalidate the object only if it belongs to the current or previous or one of the layers'*/
 873:Drivers/lvgl/src/core/lv_obj_pos.c ****     lv_obj_t * obj_scr = lv_obj_get_screen(obj);
 874:Drivers/lvgl/src/core/lv_obj_pos.c ****     lv_disp_t * disp   = lv_obj_get_disp(obj_scr);
 875:Drivers/lvgl/src/core/lv_obj_pos.c ****     if(obj_scr != lv_disp_get_scr_act(disp) &&
 876:Drivers/lvgl/src/core/lv_obj_pos.c ****        obj_scr != lv_disp_get_scr_prev(disp) &&
 877:Drivers/lvgl/src/core/lv_obj_pos.c ****        obj_scr != lv_disp_get_layer_top(disp) &&
 878:Drivers/lvgl/src/core/lv_obj_pos.c ****        obj_scr != lv_disp_get_layer_sys(disp)) {
 879:Drivers/lvgl/src/core/lv_obj_pos.c ****         return false;
 880:Drivers/lvgl/src/core/lv_obj_pos.c ****     }
 881:Drivers/lvgl/src/core/lv_obj_pos.c **** 
 882:Drivers/lvgl/src/core/lv_obj_pos.c ****     /*Truncate the area to the object*/
 883:Drivers/lvgl/src/core/lv_obj_pos.c ****     if(!lv_obj_has_flag_any(obj, LV_OBJ_FLAG_OVERFLOW_VISIBLE)) {
 884:Drivers/lvgl/src/core/lv_obj_pos.c ****         lv_area_t obj_coords;
 885:Drivers/lvgl/src/core/lv_obj_pos.c ****         lv_coord_t ext_size = _lv_obj_get_ext_draw_size(obj);
 886:Drivers/lvgl/src/core/lv_obj_pos.c ****         lv_area_copy(&obj_coords, &obj->coords);
ARM GAS  /var/folders/0z/tsy30v1j4xl4_7kw94k978ww0000gn/T//ccuxxuhb.s 			page 17


 887:Drivers/lvgl/src/core/lv_obj_pos.c ****         obj_coords.x1 -= ext_size;
 888:Drivers/lvgl/src/core/lv_obj_pos.c ****         obj_coords.y1 -= ext_size;
 889:Drivers/lvgl/src/core/lv_obj_pos.c ****         obj_coords.x2 += ext_size;
 890:Drivers/lvgl/src/core/lv_obj_pos.c ****         obj_coords.y2 += ext_size;
 891:Drivers/lvgl/src/core/lv_obj_pos.c **** 
 892:Drivers/lvgl/src/core/lv_obj_pos.c ****         /*The area is not on the object*/
 893:Drivers/lvgl/src/core/lv_obj_pos.c ****         if(!_lv_area_intersect(area, area, &obj_coords)) return false;
 894:Drivers/lvgl/src/core/lv_obj_pos.c ****     }
 895:Drivers/lvgl/src/core/lv_obj_pos.c **** 
 896:Drivers/lvgl/src/core/lv_obj_pos.c ****     lv_obj_get_transformed_area(obj, area, true, false);
 897:Drivers/lvgl/src/core/lv_obj_pos.c **** 
 898:Drivers/lvgl/src/core/lv_obj_pos.c **** 
 899:Drivers/lvgl/src/core/lv_obj_pos.c ****     /*Truncate recursively to the parents*/
 900:Drivers/lvgl/src/core/lv_obj_pos.c ****     lv_obj_t * par = lv_obj_get_parent(obj);
 901:Drivers/lvgl/src/core/lv_obj_pos.c ****     while(par != NULL) {
 902:Drivers/lvgl/src/core/lv_obj_pos.c ****         /*If the parent is hidden then the child is hidden and won't be drawn*/
 903:Drivers/lvgl/src/core/lv_obj_pos.c ****         if(lv_obj_has_flag(par, LV_OBJ_FLAG_HIDDEN)) return false;
 904:Drivers/lvgl/src/core/lv_obj_pos.c **** 
 905:Drivers/lvgl/src/core/lv_obj_pos.c ****         /*Truncate to the parent and if no common parts break*/
 906:Drivers/lvgl/src/core/lv_obj_pos.c ****         if(!lv_obj_has_flag_any(par, LV_OBJ_FLAG_OVERFLOW_VISIBLE)) {
 907:Drivers/lvgl/src/core/lv_obj_pos.c ****             lv_area_t par_area = par->coords;
 908:Drivers/lvgl/src/core/lv_obj_pos.c ****             lv_obj_get_transformed_area(par, &par_area, true, false);
 909:Drivers/lvgl/src/core/lv_obj_pos.c ****             if(!_lv_area_intersect(area, area, &par_area)) return false;
 910:Drivers/lvgl/src/core/lv_obj_pos.c ****         }
 911:Drivers/lvgl/src/core/lv_obj_pos.c **** 
 912:Drivers/lvgl/src/core/lv_obj_pos.c ****         par = lv_obj_get_parent(par);
 913:Drivers/lvgl/src/core/lv_obj_pos.c ****     }
 914:Drivers/lvgl/src/core/lv_obj_pos.c **** 
 915:Drivers/lvgl/src/core/lv_obj_pos.c ****     return true;
 916:Drivers/lvgl/src/core/lv_obj_pos.c **** }
 917:Drivers/lvgl/src/core/lv_obj_pos.c **** 
 918:Drivers/lvgl/src/core/lv_obj_pos.c **** bool lv_obj_is_visible(const lv_obj_t * obj)
 919:Drivers/lvgl/src/core/lv_obj_pos.c **** {
 920:Drivers/lvgl/src/core/lv_obj_pos.c ****     LV_ASSERT_OBJ(obj, MY_CLASS);
 921:Drivers/lvgl/src/core/lv_obj_pos.c **** 
 922:Drivers/lvgl/src/core/lv_obj_pos.c ****     lv_area_t obj_coords;
 923:Drivers/lvgl/src/core/lv_obj_pos.c ****     lv_coord_t ext_size = _lv_obj_get_ext_draw_size(obj);
 924:Drivers/lvgl/src/core/lv_obj_pos.c ****     lv_area_copy(&obj_coords, &obj->coords);
 925:Drivers/lvgl/src/core/lv_obj_pos.c ****     obj_coords.x1 -= ext_size;
 926:Drivers/lvgl/src/core/lv_obj_pos.c ****     obj_coords.y1 -= ext_size;
 927:Drivers/lvgl/src/core/lv_obj_pos.c ****     obj_coords.x2 += ext_size;
 928:Drivers/lvgl/src/core/lv_obj_pos.c ****     obj_coords.y2 += ext_size;
 929:Drivers/lvgl/src/core/lv_obj_pos.c **** 
 930:Drivers/lvgl/src/core/lv_obj_pos.c ****     return lv_obj_area_is_visible(obj, &obj_coords);
 931:Drivers/lvgl/src/core/lv_obj_pos.c **** 
 932:Drivers/lvgl/src/core/lv_obj_pos.c **** }
 933:Drivers/lvgl/src/core/lv_obj_pos.c **** 
 934:Drivers/lvgl/src/core/lv_obj_pos.c **** void lv_obj_set_ext_click_area(lv_obj_t * obj, lv_coord_t size)
 935:Drivers/lvgl/src/core/lv_obj_pos.c **** {
 936:Drivers/lvgl/src/core/lv_obj_pos.c ****     LV_ASSERT_OBJ(obj, MY_CLASS);
 937:Drivers/lvgl/src/core/lv_obj_pos.c **** 
 938:Drivers/lvgl/src/core/lv_obj_pos.c ****     lv_obj_allocate_spec_attr(obj);
 939:Drivers/lvgl/src/core/lv_obj_pos.c ****     obj->spec_attr->ext_click_pad = size;
 940:Drivers/lvgl/src/core/lv_obj_pos.c **** }
 941:Drivers/lvgl/src/core/lv_obj_pos.c **** 
 942:Drivers/lvgl/src/core/lv_obj_pos.c **** void lv_obj_get_click_area(const lv_obj_t * obj, lv_area_t * area)
 943:Drivers/lvgl/src/core/lv_obj_pos.c **** {
ARM GAS  /var/folders/0z/tsy30v1j4xl4_7kw94k978ww0000gn/T//ccuxxuhb.s 			page 18


 944:Drivers/lvgl/src/core/lv_obj_pos.c ****     lv_area_copy(area, &obj->coords);
 945:Drivers/lvgl/src/core/lv_obj_pos.c ****     if(obj->spec_attr) {
 946:Drivers/lvgl/src/core/lv_obj_pos.c ****         area->x1 -= obj->spec_attr->ext_click_pad;
 947:Drivers/lvgl/src/core/lv_obj_pos.c ****         area->x2 += obj->spec_attr->ext_click_pad;
 948:Drivers/lvgl/src/core/lv_obj_pos.c ****         area->y1 -= obj->spec_attr->ext_click_pad;
 949:Drivers/lvgl/src/core/lv_obj_pos.c ****         area->y2 += obj->spec_attr->ext_click_pad;
 950:Drivers/lvgl/src/core/lv_obj_pos.c ****     }
 951:Drivers/lvgl/src/core/lv_obj_pos.c **** }
 952:Drivers/lvgl/src/core/lv_obj_pos.c **** 
 953:Drivers/lvgl/src/core/lv_obj_pos.c **** bool lv_obj_hit_test(lv_obj_t * obj, const lv_point_t * point)
 954:Drivers/lvgl/src/core/lv_obj_pos.c **** {
 955:Drivers/lvgl/src/core/lv_obj_pos.c ****     if(!lv_obj_has_flag(obj, LV_OBJ_FLAG_CLICKABLE)) return false;
 956:Drivers/lvgl/src/core/lv_obj_pos.c ****     if(lv_obj_has_state(obj, LV_STATE_DISABLED)) return false;
 957:Drivers/lvgl/src/core/lv_obj_pos.c **** 
 958:Drivers/lvgl/src/core/lv_obj_pos.c ****     lv_area_t a;
 959:Drivers/lvgl/src/core/lv_obj_pos.c ****     lv_obj_get_click_area(obj, &a);
 960:Drivers/lvgl/src/core/lv_obj_pos.c ****     bool res = _lv_area_is_point_on(&a, point, 0);
 961:Drivers/lvgl/src/core/lv_obj_pos.c ****     if(res == false) return false;
 962:Drivers/lvgl/src/core/lv_obj_pos.c **** 
 963:Drivers/lvgl/src/core/lv_obj_pos.c ****     if(lv_obj_has_flag(obj, LV_OBJ_FLAG_ADV_HITTEST)) {
 964:Drivers/lvgl/src/core/lv_obj_pos.c ****         lv_hit_test_info_t hit_info;
 965:Drivers/lvgl/src/core/lv_obj_pos.c ****         hit_info.point = point;
 966:Drivers/lvgl/src/core/lv_obj_pos.c ****         hit_info.res = true;
 967:Drivers/lvgl/src/core/lv_obj_pos.c ****         lv_event_send(obj, LV_EVENT_HIT_TEST, &hit_info);
 968:Drivers/lvgl/src/core/lv_obj_pos.c ****         return hit_info.res;
 969:Drivers/lvgl/src/core/lv_obj_pos.c ****     }
 970:Drivers/lvgl/src/core/lv_obj_pos.c **** 
 971:Drivers/lvgl/src/core/lv_obj_pos.c ****     return res;
 972:Drivers/lvgl/src/core/lv_obj_pos.c **** }
 973:Drivers/lvgl/src/core/lv_obj_pos.c **** 
 974:Drivers/lvgl/src/core/lv_obj_pos.c **** lv_coord_t lv_clamp_width(lv_coord_t width, lv_coord_t min_width, lv_coord_t max_width, lv_coord_t 
 975:Drivers/lvgl/src/core/lv_obj_pos.c **** {
 976:Drivers/lvgl/src/core/lv_obj_pos.c ****     if(LV_COORD_IS_PCT(min_width)) min_width = (ref_width * LV_COORD_GET_PCT(min_width)) / 100;
 977:Drivers/lvgl/src/core/lv_obj_pos.c ****     if(LV_COORD_IS_PCT(max_width)) max_width = (ref_width * LV_COORD_GET_PCT(max_width)) / 100;
 978:Drivers/lvgl/src/core/lv_obj_pos.c ****     return LV_CLAMP(min_width, width, max_width);
 979:Drivers/lvgl/src/core/lv_obj_pos.c **** }
 980:Drivers/lvgl/src/core/lv_obj_pos.c **** 
 981:Drivers/lvgl/src/core/lv_obj_pos.c **** lv_coord_t lv_clamp_height(lv_coord_t height, lv_coord_t min_height, lv_coord_t max_height, lv_coor
 982:Drivers/lvgl/src/core/lv_obj_pos.c **** {
 983:Drivers/lvgl/src/core/lv_obj_pos.c ****     if(LV_COORD_IS_PCT(min_height)) min_height = (ref_height * LV_COORD_GET_PCT(min_height)) / 100;
 984:Drivers/lvgl/src/core/lv_obj_pos.c ****     if(LV_COORD_IS_PCT(max_height)) max_height = (ref_height * LV_COORD_GET_PCT(max_height)) / 100;
 985:Drivers/lvgl/src/core/lv_obj_pos.c ****     return LV_CLAMP(min_height, height, max_height);
 986:Drivers/lvgl/src/core/lv_obj_pos.c **** }
 987:Drivers/lvgl/src/core/lv_obj_pos.c **** 
 988:Drivers/lvgl/src/core/lv_obj_pos.c **** 
 989:Drivers/lvgl/src/core/lv_obj_pos.c **** 
 990:Drivers/lvgl/src/core/lv_obj_pos.c **** /**********************
 991:Drivers/lvgl/src/core/lv_obj_pos.c ****  *   STATIC FUNCTIONS
 992:Drivers/lvgl/src/core/lv_obj_pos.c ****  **********************/
 993:Drivers/lvgl/src/core/lv_obj_pos.c **** 
 994:Drivers/lvgl/src/core/lv_obj_pos.c **** static lv_coord_t calc_content_width(lv_obj_t * obj)
 995:Drivers/lvgl/src/core/lv_obj_pos.c **** {
 996:Drivers/lvgl/src/core/lv_obj_pos.c ****     lv_obj_scroll_to_x(obj, 0, LV_ANIM_OFF);
 997:Drivers/lvgl/src/core/lv_obj_pos.c **** 
 998:Drivers/lvgl/src/core/lv_obj_pos.c ****     lv_coord_t border_width = lv_obj_get_style_border_width(obj, LV_PART_MAIN);
 999:Drivers/lvgl/src/core/lv_obj_pos.c ****     lv_coord_t pad_right = lv_obj_get_style_pad_right(obj, LV_PART_MAIN) + border_width;
1000:Drivers/lvgl/src/core/lv_obj_pos.c ****     lv_coord_t pad_left = lv_obj_get_style_pad_left(obj, LV_PART_MAIN) + border_width;
ARM GAS  /var/folders/0z/tsy30v1j4xl4_7kw94k978ww0000gn/T//ccuxxuhb.s 			page 19


1001:Drivers/lvgl/src/core/lv_obj_pos.c **** 
1002:Drivers/lvgl/src/core/lv_obj_pos.c ****     lv_coord_t self_w;
1003:Drivers/lvgl/src/core/lv_obj_pos.c ****     self_w = lv_obj_get_self_width(obj) +  pad_left + pad_right;
1004:Drivers/lvgl/src/core/lv_obj_pos.c **** 
1005:Drivers/lvgl/src/core/lv_obj_pos.c ****     lv_coord_t child_res = LV_COORD_MIN;
1006:Drivers/lvgl/src/core/lv_obj_pos.c ****     uint32_t i;
1007:Drivers/lvgl/src/core/lv_obj_pos.c ****     uint32_t child_cnt = lv_obj_get_child_cnt(obj);
1008:Drivers/lvgl/src/core/lv_obj_pos.c ****     /*With RTL find the left most coordinate*/
1009:Drivers/lvgl/src/core/lv_obj_pos.c ****     if(lv_obj_get_style_base_dir(obj, LV_PART_MAIN) == LV_BASE_DIR_RTL) {
1010:Drivers/lvgl/src/core/lv_obj_pos.c ****         for(i = 0; i < child_cnt; i++) {
1011:Drivers/lvgl/src/core/lv_obj_pos.c ****             lv_obj_t * child = obj->spec_attr->children[i];
1012:Drivers/lvgl/src/core/lv_obj_pos.c ****             if(lv_obj_has_flag_any(child,  LV_OBJ_FLAG_HIDDEN | LV_OBJ_FLAG_FLOATING)) continue;
1013:Drivers/lvgl/src/core/lv_obj_pos.c **** 
1014:Drivers/lvgl/src/core/lv_obj_pos.c ****             if(!lv_obj_is_layout_positioned(child)) {
1015:Drivers/lvgl/src/core/lv_obj_pos.c ****                 lv_align_t align = lv_obj_get_style_align(child, 0);
1016:Drivers/lvgl/src/core/lv_obj_pos.c ****                 switch(align) {
1017:Drivers/lvgl/src/core/lv_obj_pos.c ****                     case LV_ALIGN_DEFAULT:
1018:Drivers/lvgl/src/core/lv_obj_pos.c ****                     case LV_ALIGN_TOP_RIGHT:
1019:Drivers/lvgl/src/core/lv_obj_pos.c ****                     case LV_ALIGN_BOTTOM_RIGHT:
1020:Drivers/lvgl/src/core/lv_obj_pos.c ****                     case LV_ALIGN_RIGHT_MID:
1021:Drivers/lvgl/src/core/lv_obj_pos.c ****                         /*Normal right aligns. Other are ignored due to possible circular dependenc
1022:Drivers/lvgl/src/core/lv_obj_pos.c ****                         child_res = LV_MAX(child_res, obj->coords.x2 - child->coords.x1 + 1);
1023:Drivers/lvgl/src/core/lv_obj_pos.c ****                         break;
1024:Drivers/lvgl/src/core/lv_obj_pos.c ****                     default:
1025:Drivers/lvgl/src/core/lv_obj_pos.c ****                         /* Consider other cases only if x=0 and use the width of the object.
1026:Drivers/lvgl/src/core/lv_obj_pos.c ****                          * With x!=0 circular dependency could occur. */
1027:Drivers/lvgl/src/core/lv_obj_pos.c ****                         if(lv_obj_get_style_x(child, 0) == 0) {
1028:Drivers/lvgl/src/core/lv_obj_pos.c ****                             child_res = LV_MAX(child_res, lv_area_get_width(&child->coords) + pad_r
1029:Drivers/lvgl/src/core/lv_obj_pos.c ****                         }
1030:Drivers/lvgl/src/core/lv_obj_pos.c ****                 }
1031:Drivers/lvgl/src/core/lv_obj_pos.c ****             }
1032:Drivers/lvgl/src/core/lv_obj_pos.c ****             else {
1033:Drivers/lvgl/src/core/lv_obj_pos.c ****                 child_res = LV_MAX(child_res, obj->coords.x2 - child->coords.x1 + 1);
1034:Drivers/lvgl/src/core/lv_obj_pos.c ****             }
1035:Drivers/lvgl/src/core/lv_obj_pos.c ****         }
1036:Drivers/lvgl/src/core/lv_obj_pos.c ****         if(child_res != LV_COORD_MIN) {
1037:Drivers/lvgl/src/core/lv_obj_pos.c ****             child_res += pad_left;
1038:Drivers/lvgl/src/core/lv_obj_pos.c ****         }
1039:Drivers/lvgl/src/core/lv_obj_pos.c ****     }
1040:Drivers/lvgl/src/core/lv_obj_pos.c ****     /*Else find the right most coordinate*/
1041:Drivers/lvgl/src/core/lv_obj_pos.c ****     else {
1042:Drivers/lvgl/src/core/lv_obj_pos.c ****         for(i = 0; i < child_cnt; i++) {
1043:Drivers/lvgl/src/core/lv_obj_pos.c ****             lv_obj_t * child = obj->spec_attr->children[i];
1044:Drivers/lvgl/src/core/lv_obj_pos.c ****             if(lv_obj_has_flag_any(child,  LV_OBJ_FLAG_HIDDEN | LV_OBJ_FLAG_FLOATING)) continue;
1045:Drivers/lvgl/src/core/lv_obj_pos.c **** 
1046:Drivers/lvgl/src/core/lv_obj_pos.c ****             if(!lv_obj_is_layout_positioned(child)) {
1047:Drivers/lvgl/src/core/lv_obj_pos.c ****                 lv_align_t align = lv_obj_get_style_align(child, 0);
1048:Drivers/lvgl/src/core/lv_obj_pos.c ****                 switch(align) {
1049:Drivers/lvgl/src/core/lv_obj_pos.c ****                     case LV_ALIGN_DEFAULT:
1050:Drivers/lvgl/src/core/lv_obj_pos.c ****                     case LV_ALIGN_TOP_LEFT:
1051:Drivers/lvgl/src/core/lv_obj_pos.c ****                     case LV_ALIGN_BOTTOM_LEFT:
1052:Drivers/lvgl/src/core/lv_obj_pos.c ****                     case LV_ALIGN_LEFT_MID:
1053:Drivers/lvgl/src/core/lv_obj_pos.c ****                         /*Normal left aligns.*/
1054:Drivers/lvgl/src/core/lv_obj_pos.c ****                         child_res = LV_MAX(child_res, child->coords.x2 - obj->coords.x1 + 1);
1055:Drivers/lvgl/src/core/lv_obj_pos.c ****                         break;
1056:Drivers/lvgl/src/core/lv_obj_pos.c ****                     default:
1057:Drivers/lvgl/src/core/lv_obj_pos.c ****                         /* Consider other cases only if x=0 and use the width of the object.
ARM GAS  /var/folders/0z/tsy30v1j4xl4_7kw94k978ww0000gn/T//ccuxxuhb.s 			page 20


1058:Drivers/lvgl/src/core/lv_obj_pos.c ****                          * With x!=0 circular dependency could occur. */
1059:Drivers/lvgl/src/core/lv_obj_pos.c ****                         if(lv_obj_get_style_y(child, 0) == 0) {
1060:Drivers/lvgl/src/core/lv_obj_pos.c ****                             child_res = LV_MAX(child_res, lv_area_get_width(&child->coords) + pad_l
1061:Drivers/lvgl/src/core/lv_obj_pos.c ****                         }
1062:Drivers/lvgl/src/core/lv_obj_pos.c ****                 }
1063:Drivers/lvgl/src/core/lv_obj_pos.c ****             }
1064:Drivers/lvgl/src/core/lv_obj_pos.c ****             else {
1065:Drivers/lvgl/src/core/lv_obj_pos.c ****                 child_res = LV_MAX(child_res, child->coords.x2 - obj->coords.x1 + 1);
1066:Drivers/lvgl/src/core/lv_obj_pos.c ****             }
1067:Drivers/lvgl/src/core/lv_obj_pos.c ****         }
1068:Drivers/lvgl/src/core/lv_obj_pos.c **** 
1069:Drivers/lvgl/src/core/lv_obj_pos.c ****         if(child_res != LV_COORD_MIN) {
1070:Drivers/lvgl/src/core/lv_obj_pos.c ****             child_res += pad_right;
1071:Drivers/lvgl/src/core/lv_obj_pos.c ****         }
1072:Drivers/lvgl/src/core/lv_obj_pos.c ****     }
1073:Drivers/lvgl/src/core/lv_obj_pos.c **** 
1074:Drivers/lvgl/src/core/lv_obj_pos.c ****     if(child_res == LV_COORD_MIN) return self_w;
1075:Drivers/lvgl/src/core/lv_obj_pos.c ****     else return LV_MAX(child_res, self_w);
1076:Drivers/lvgl/src/core/lv_obj_pos.c **** }
1077:Drivers/lvgl/src/core/lv_obj_pos.c **** 
1078:Drivers/lvgl/src/core/lv_obj_pos.c **** static lv_coord_t calc_content_height(lv_obj_t * obj)
1079:Drivers/lvgl/src/core/lv_obj_pos.c **** {
1080:Drivers/lvgl/src/core/lv_obj_pos.c ****     lv_obj_scroll_to_y(obj, 0, LV_ANIM_OFF);
1081:Drivers/lvgl/src/core/lv_obj_pos.c **** 
1082:Drivers/lvgl/src/core/lv_obj_pos.c ****     lv_coord_t border_width = lv_obj_get_style_border_width(obj, LV_PART_MAIN);
1083:Drivers/lvgl/src/core/lv_obj_pos.c ****     lv_coord_t pad_top = lv_obj_get_style_pad_top(obj, LV_PART_MAIN) + border_width;
1084:Drivers/lvgl/src/core/lv_obj_pos.c ****     lv_coord_t pad_bottom = lv_obj_get_style_pad_bottom(obj, LV_PART_MAIN) + border_width;
1085:Drivers/lvgl/src/core/lv_obj_pos.c **** 
1086:Drivers/lvgl/src/core/lv_obj_pos.c ****     lv_coord_t self_h;
1087:Drivers/lvgl/src/core/lv_obj_pos.c ****     self_h = lv_obj_get_self_height(obj) + pad_top + pad_bottom;
1088:Drivers/lvgl/src/core/lv_obj_pos.c **** 
1089:Drivers/lvgl/src/core/lv_obj_pos.c ****     lv_coord_t child_res = LV_COORD_MIN;
1090:Drivers/lvgl/src/core/lv_obj_pos.c ****     uint32_t i;
1091:Drivers/lvgl/src/core/lv_obj_pos.c ****     uint32_t child_cnt = lv_obj_get_child_cnt(obj);
1092:Drivers/lvgl/src/core/lv_obj_pos.c ****     for(i = 0; i < child_cnt; i++) {
1093:Drivers/lvgl/src/core/lv_obj_pos.c ****         lv_obj_t * child = obj->spec_attr->children[i];
1094:Drivers/lvgl/src/core/lv_obj_pos.c ****         if(lv_obj_has_flag_any(child,  LV_OBJ_FLAG_HIDDEN | LV_OBJ_FLAG_FLOATING)) continue;
1095:Drivers/lvgl/src/core/lv_obj_pos.c **** 
1096:Drivers/lvgl/src/core/lv_obj_pos.c **** 
1097:Drivers/lvgl/src/core/lv_obj_pos.c ****         if(!lv_obj_is_layout_positioned(child)) {
1098:Drivers/lvgl/src/core/lv_obj_pos.c ****             lv_align_t align = lv_obj_get_style_align(child, 0);
1099:Drivers/lvgl/src/core/lv_obj_pos.c ****             switch(align) {
1100:Drivers/lvgl/src/core/lv_obj_pos.c ****                 case LV_ALIGN_DEFAULT:
1101:Drivers/lvgl/src/core/lv_obj_pos.c ****                 case LV_ALIGN_TOP_RIGHT:
1102:Drivers/lvgl/src/core/lv_obj_pos.c ****                 case LV_ALIGN_TOP_MID:
1103:Drivers/lvgl/src/core/lv_obj_pos.c ****                 case LV_ALIGN_TOP_LEFT:
1104:Drivers/lvgl/src/core/lv_obj_pos.c ****                     /*Normal top aligns. */
1105:Drivers/lvgl/src/core/lv_obj_pos.c ****                     child_res = LV_MAX(child_res, child->coords.y2 - obj->coords.y1 + 1);
1106:Drivers/lvgl/src/core/lv_obj_pos.c ****                     break;
1107:Drivers/lvgl/src/core/lv_obj_pos.c ****                 default:
1108:Drivers/lvgl/src/core/lv_obj_pos.c ****                     /* Consider other cases only if y=0 and use the height of the object.
1109:Drivers/lvgl/src/core/lv_obj_pos.c ****                      * With y!=0 circular dependency could occur. */
1110:Drivers/lvgl/src/core/lv_obj_pos.c ****                     if(lv_obj_get_style_y(child, 0) == 0) {
1111:Drivers/lvgl/src/core/lv_obj_pos.c ****                         child_res = LV_MAX(child_res, lv_area_get_height(&child->coords) + pad_top)
1112:Drivers/lvgl/src/core/lv_obj_pos.c ****                     }
1113:Drivers/lvgl/src/core/lv_obj_pos.c ****                     break;
1114:Drivers/lvgl/src/core/lv_obj_pos.c ****             }
ARM GAS  /var/folders/0z/tsy30v1j4xl4_7kw94k978ww0000gn/T//ccuxxuhb.s 			page 21


1115:Drivers/lvgl/src/core/lv_obj_pos.c ****         }
1116:Drivers/lvgl/src/core/lv_obj_pos.c ****         else {
1117:Drivers/lvgl/src/core/lv_obj_pos.c ****             child_res = LV_MAX(child_res, child->coords.y2 - obj->coords.y1 + 1);
1118:Drivers/lvgl/src/core/lv_obj_pos.c ****         }
1119:Drivers/lvgl/src/core/lv_obj_pos.c ****     }
1120:Drivers/lvgl/src/core/lv_obj_pos.c **** 
1121:Drivers/lvgl/src/core/lv_obj_pos.c ****     if(child_res != LV_COORD_MIN) {
1122:Drivers/lvgl/src/core/lv_obj_pos.c ****         child_res += pad_bottom;
1123:Drivers/lvgl/src/core/lv_obj_pos.c ****         return LV_MAX(child_res, self_h);
1124:Drivers/lvgl/src/core/lv_obj_pos.c ****     }
1125:Drivers/lvgl/src/core/lv_obj_pos.c ****     else {
1126:Drivers/lvgl/src/core/lv_obj_pos.c ****         return self_h;
1127:Drivers/lvgl/src/core/lv_obj_pos.c ****     }
1128:Drivers/lvgl/src/core/lv_obj_pos.c **** 
1129:Drivers/lvgl/src/core/lv_obj_pos.c **** }
1130:Drivers/lvgl/src/core/lv_obj_pos.c **** 
1131:Drivers/lvgl/src/core/lv_obj_pos.c **** static void layout_update_core(lv_obj_t * obj)
1132:Drivers/lvgl/src/core/lv_obj_pos.c **** {
1133:Drivers/lvgl/src/core/lv_obj_pos.c ****     uint32_t i;
1134:Drivers/lvgl/src/core/lv_obj_pos.c ****     uint32_t child_cnt = lv_obj_get_child_cnt(obj);
1135:Drivers/lvgl/src/core/lv_obj_pos.c ****     for(i = 0; i < child_cnt; i++) {
1136:Drivers/lvgl/src/core/lv_obj_pos.c ****         lv_obj_t * child = obj->spec_attr->children[i];
1137:Drivers/lvgl/src/core/lv_obj_pos.c ****         layout_update_core(child);
1138:Drivers/lvgl/src/core/lv_obj_pos.c ****     }
1139:Drivers/lvgl/src/core/lv_obj_pos.c **** 
1140:Drivers/lvgl/src/core/lv_obj_pos.c ****     if(obj->layout_inv) {
1141:Drivers/lvgl/src/core/lv_obj_pos.c ****         obj->layout_inv = 0;
1142:Drivers/lvgl/src/core/lv_obj_pos.c ****         lv_obj_refr_size(obj);
1143:Drivers/lvgl/src/core/lv_obj_pos.c ****         lv_obj_refr_pos(obj);
1144:Drivers/lvgl/src/core/lv_obj_pos.c **** 
1145:Drivers/lvgl/src/core/lv_obj_pos.c ****         if(child_cnt > 0) {
1146:Drivers/lvgl/src/core/lv_obj_pos.c ****             uint32_t layout_id = lv_obj_get_style_layout(obj, LV_PART_MAIN);
1147:Drivers/lvgl/src/core/lv_obj_pos.c ****             if(layout_id > 0 && layout_id <= layout_cnt) {
1148:Drivers/lvgl/src/core/lv_obj_pos.c ****                 void  * user_data = LV_GC_ROOT(_lv_layout_list)[layout_id - 1].user_data;
1149:Drivers/lvgl/src/core/lv_obj_pos.c ****                 LV_GC_ROOT(_lv_layout_list)[layout_id - 1].cb(obj, user_data);
1150:Drivers/lvgl/src/core/lv_obj_pos.c ****             }
1151:Drivers/lvgl/src/core/lv_obj_pos.c ****         }
1152:Drivers/lvgl/src/core/lv_obj_pos.c ****     }
1153:Drivers/lvgl/src/core/lv_obj_pos.c **** 
1154:Drivers/lvgl/src/core/lv_obj_pos.c ****     if(obj->readjust_scroll_after_layout) {
1155:Drivers/lvgl/src/core/lv_obj_pos.c ****         obj->readjust_scroll_after_layout = 0;
1156:Drivers/lvgl/src/core/lv_obj_pos.c ****         lv_obj_readjust_scroll(obj, LV_ANIM_OFF);
1157:Drivers/lvgl/src/core/lv_obj_pos.c ****     }
1158:Drivers/lvgl/src/core/lv_obj_pos.c **** }
1159:Drivers/lvgl/src/core/lv_obj_pos.c **** 
1160:Drivers/lvgl/src/core/lv_obj_pos.c **** static void transform_point(const lv_obj_t * obj, lv_point_t * p, bool inv)
1161:Drivers/lvgl/src/core/lv_obj_pos.c **** {
  28              		.loc 1 1161 1 view -0
  29              		.cfi_startproc
  30              		@ args = 0, pretend = 0, frame = 8
  31              		@ frame_needed = 0, uses_anonymous_args = 0
1162:Drivers/lvgl/src/core/lv_obj_pos.c ****     int16_t angle = lv_obj_get_style_transform_angle(obj, 0);
  32              		.loc 1 1162 5 view .LVU1
1161:Drivers/lvgl/src/core/lv_obj_pos.c ****     int16_t angle = lv_obj_get_style_transform_angle(obj, 0);
  33              		.loc 1 1161 1 is_stmt 0 view .LVU2
  34 0000 2DE9F043 		push	{r4, r5, r6, r7, r8, r9, lr}
  35              		.cfi_def_cfa_offset 28
ARM GAS  /var/folders/0z/tsy30v1j4xl4_7kw94k978ww0000gn/T//ccuxxuhb.s 			page 22


  36              		.cfi_offset 4, -28
  37              		.cfi_offset 5, -24
  38              		.cfi_offset 6, -20
  39              		.cfi_offset 7, -16
  40              		.cfi_offset 8, -12
  41              		.cfi_offset 9, -8
  42              		.cfi_offset 14, -4
  43 0004 1746     		mov	r7, r2
  44 0006 83B0     		sub	sp, sp, #12
  45              		.cfi_def_cfa_offset 40
  46              	.LBB505:
  47              	.LBB506:
  48              		.file 2 "Drivers/lvgl/src/core/lv_obj_style_gen.h"
   1:Drivers/lvgl/src/core/lv_obj_style_gen.h **** static inline lv_coord_t lv_obj_get_style_width(const struct _lv_obj_t * obj, uint32_t part)
   2:Drivers/lvgl/src/core/lv_obj_style_gen.h **** {
   3:Drivers/lvgl/src/core/lv_obj_style_gen.h ****     lv_style_value_t v = lv_obj_get_style_prop(obj, part, LV_STYLE_WIDTH);
   4:Drivers/lvgl/src/core/lv_obj_style_gen.h ****     return (lv_coord_t)v.num;
   5:Drivers/lvgl/src/core/lv_obj_style_gen.h **** }
   6:Drivers/lvgl/src/core/lv_obj_style_gen.h **** 
   7:Drivers/lvgl/src/core/lv_obj_style_gen.h **** static inline lv_coord_t lv_obj_get_style_min_width(const struct _lv_obj_t * obj, uint32_t part)
   8:Drivers/lvgl/src/core/lv_obj_style_gen.h **** {
   9:Drivers/lvgl/src/core/lv_obj_style_gen.h ****     lv_style_value_t v = lv_obj_get_style_prop(obj, part, LV_STYLE_MIN_WIDTH);
  10:Drivers/lvgl/src/core/lv_obj_style_gen.h ****     return (lv_coord_t)v.num;
  11:Drivers/lvgl/src/core/lv_obj_style_gen.h **** }
  12:Drivers/lvgl/src/core/lv_obj_style_gen.h **** 
  13:Drivers/lvgl/src/core/lv_obj_style_gen.h **** static inline lv_coord_t lv_obj_get_style_max_width(const struct _lv_obj_t * obj, uint32_t part)
  14:Drivers/lvgl/src/core/lv_obj_style_gen.h **** {
  15:Drivers/lvgl/src/core/lv_obj_style_gen.h ****     lv_style_value_t v = lv_obj_get_style_prop(obj, part, LV_STYLE_MAX_WIDTH);
  16:Drivers/lvgl/src/core/lv_obj_style_gen.h ****     return (lv_coord_t)v.num;
  17:Drivers/lvgl/src/core/lv_obj_style_gen.h **** }
  18:Drivers/lvgl/src/core/lv_obj_style_gen.h **** 
  19:Drivers/lvgl/src/core/lv_obj_style_gen.h **** static inline lv_coord_t lv_obj_get_style_height(const struct _lv_obj_t * obj, uint32_t part)
  20:Drivers/lvgl/src/core/lv_obj_style_gen.h **** {
  21:Drivers/lvgl/src/core/lv_obj_style_gen.h ****     lv_style_value_t v = lv_obj_get_style_prop(obj, part, LV_STYLE_HEIGHT);
  22:Drivers/lvgl/src/core/lv_obj_style_gen.h ****     return (lv_coord_t)v.num;
  23:Drivers/lvgl/src/core/lv_obj_style_gen.h **** }
  24:Drivers/lvgl/src/core/lv_obj_style_gen.h **** 
  25:Drivers/lvgl/src/core/lv_obj_style_gen.h **** static inline lv_coord_t lv_obj_get_style_min_height(const struct _lv_obj_t * obj, uint32_t part)
  26:Drivers/lvgl/src/core/lv_obj_style_gen.h **** {
  27:Drivers/lvgl/src/core/lv_obj_style_gen.h ****     lv_style_value_t v = lv_obj_get_style_prop(obj, part, LV_STYLE_MIN_HEIGHT);
  28:Drivers/lvgl/src/core/lv_obj_style_gen.h ****     return (lv_coord_t)v.num;
  29:Drivers/lvgl/src/core/lv_obj_style_gen.h **** }
  30:Drivers/lvgl/src/core/lv_obj_style_gen.h **** 
  31:Drivers/lvgl/src/core/lv_obj_style_gen.h **** static inline lv_coord_t lv_obj_get_style_max_height(const struct _lv_obj_t * obj, uint32_t part)
  32:Drivers/lvgl/src/core/lv_obj_style_gen.h **** {
  33:Drivers/lvgl/src/core/lv_obj_style_gen.h ****     lv_style_value_t v = lv_obj_get_style_prop(obj, part, LV_STYLE_MAX_HEIGHT);
  34:Drivers/lvgl/src/core/lv_obj_style_gen.h ****     return (lv_coord_t)v.num;
  35:Drivers/lvgl/src/core/lv_obj_style_gen.h **** }
  36:Drivers/lvgl/src/core/lv_obj_style_gen.h **** 
  37:Drivers/lvgl/src/core/lv_obj_style_gen.h **** static inline lv_coord_t lv_obj_get_style_x(const struct _lv_obj_t * obj, uint32_t part)
  38:Drivers/lvgl/src/core/lv_obj_style_gen.h **** {
  39:Drivers/lvgl/src/core/lv_obj_style_gen.h ****     lv_style_value_t v = lv_obj_get_style_prop(obj, part, LV_STYLE_X);
  40:Drivers/lvgl/src/core/lv_obj_style_gen.h ****     return (lv_coord_t)v.num;
  41:Drivers/lvgl/src/core/lv_obj_style_gen.h **** }
  42:Drivers/lvgl/src/core/lv_obj_style_gen.h **** 
  43:Drivers/lvgl/src/core/lv_obj_style_gen.h **** static inline lv_coord_t lv_obj_get_style_y(const struct _lv_obj_t * obj, uint32_t part)
  44:Drivers/lvgl/src/core/lv_obj_style_gen.h **** {
ARM GAS  /var/folders/0z/tsy30v1j4xl4_7kw94k978ww0000gn/T//ccuxxuhb.s 			page 23


  45:Drivers/lvgl/src/core/lv_obj_style_gen.h ****     lv_style_value_t v = lv_obj_get_style_prop(obj, part, LV_STYLE_Y);
  46:Drivers/lvgl/src/core/lv_obj_style_gen.h ****     return (lv_coord_t)v.num;
  47:Drivers/lvgl/src/core/lv_obj_style_gen.h **** }
  48:Drivers/lvgl/src/core/lv_obj_style_gen.h **** 
  49:Drivers/lvgl/src/core/lv_obj_style_gen.h **** static inline lv_align_t lv_obj_get_style_align(const struct _lv_obj_t * obj, uint32_t part)
  50:Drivers/lvgl/src/core/lv_obj_style_gen.h **** {
  51:Drivers/lvgl/src/core/lv_obj_style_gen.h ****     lv_style_value_t v = lv_obj_get_style_prop(obj, part, LV_STYLE_ALIGN);
  52:Drivers/lvgl/src/core/lv_obj_style_gen.h ****     return (lv_align_t)v.num;
  53:Drivers/lvgl/src/core/lv_obj_style_gen.h **** }
  54:Drivers/lvgl/src/core/lv_obj_style_gen.h **** 
  55:Drivers/lvgl/src/core/lv_obj_style_gen.h **** static inline lv_coord_t lv_obj_get_style_transform_width(const struct _lv_obj_t * obj, uint32_t pa
  56:Drivers/lvgl/src/core/lv_obj_style_gen.h **** {
  57:Drivers/lvgl/src/core/lv_obj_style_gen.h ****     lv_style_value_t v = lv_obj_get_style_prop(obj, part, LV_STYLE_TRANSFORM_WIDTH);
  58:Drivers/lvgl/src/core/lv_obj_style_gen.h ****     return (lv_coord_t)v.num;
  59:Drivers/lvgl/src/core/lv_obj_style_gen.h **** }
  60:Drivers/lvgl/src/core/lv_obj_style_gen.h **** 
  61:Drivers/lvgl/src/core/lv_obj_style_gen.h **** static inline lv_coord_t lv_obj_get_style_transform_height(const struct _lv_obj_t * obj, uint32_t p
  62:Drivers/lvgl/src/core/lv_obj_style_gen.h **** {
  63:Drivers/lvgl/src/core/lv_obj_style_gen.h ****     lv_style_value_t v = lv_obj_get_style_prop(obj, part, LV_STYLE_TRANSFORM_HEIGHT);
  64:Drivers/lvgl/src/core/lv_obj_style_gen.h ****     return (lv_coord_t)v.num;
  65:Drivers/lvgl/src/core/lv_obj_style_gen.h **** }
  66:Drivers/lvgl/src/core/lv_obj_style_gen.h **** 
  67:Drivers/lvgl/src/core/lv_obj_style_gen.h **** static inline lv_coord_t lv_obj_get_style_translate_x(const struct _lv_obj_t * obj, uint32_t part)
  68:Drivers/lvgl/src/core/lv_obj_style_gen.h **** {
  69:Drivers/lvgl/src/core/lv_obj_style_gen.h ****     lv_style_value_t v = lv_obj_get_style_prop(obj, part, LV_STYLE_TRANSLATE_X);
  70:Drivers/lvgl/src/core/lv_obj_style_gen.h ****     return (lv_coord_t)v.num;
  71:Drivers/lvgl/src/core/lv_obj_style_gen.h **** }
  72:Drivers/lvgl/src/core/lv_obj_style_gen.h **** 
  73:Drivers/lvgl/src/core/lv_obj_style_gen.h **** static inline lv_coord_t lv_obj_get_style_translate_y(const struct _lv_obj_t * obj, uint32_t part)
  74:Drivers/lvgl/src/core/lv_obj_style_gen.h **** {
  75:Drivers/lvgl/src/core/lv_obj_style_gen.h ****     lv_style_value_t v = lv_obj_get_style_prop(obj, part, LV_STYLE_TRANSLATE_Y);
  76:Drivers/lvgl/src/core/lv_obj_style_gen.h ****     return (lv_coord_t)v.num;
  77:Drivers/lvgl/src/core/lv_obj_style_gen.h **** }
  78:Drivers/lvgl/src/core/lv_obj_style_gen.h **** 
  79:Drivers/lvgl/src/core/lv_obj_style_gen.h **** static inline lv_coord_t lv_obj_get_style_transform_zoom(const struct _lv_obj_t * obj, uint32_t par
  80:Drivers/lvgl/src/core/lv_obj_style_gen.h **** {
  81:Drivers/lvgl/src/core/lv_obj_style_gen.h ****     lv_style_value_t v = lv_obj_get_style_prop(obj, part, LV_STYLE_TRANSFORM_ZOOM);
  82:Drivers/lvgl/src/core/lv_obj_style_gen.h ****     return (lv_coord_t)v.num;
  83:Drivers/lvgl/src/core/lv_obj_style_gen.h **** }
  84:Drivers/lvgl/src/core/lv_obj_style_gen.h **** 
  85:Drivers/lvgl/src/core/lv_obj_style_gen.h **** static inline lv_coord_t lv_obj_get_style_transform_angle(const struct _lv_obj_t * obj, uint32_t pa
  86:Drivers/lvgl/src/core/lv_obj_style_gen.h **** {
  87:Drivers/lvgl/src/core/lv_obj_style_gen.h ****     lv_style_value_t v = lv_obj_get_style_prop(obj, part, LV_STYLE_TRANSFORM_ANGLE);
  49              		.loc 2 87 26 view .LVU3
  50 0008 6E22     		movs	r2, #110
  51              	.LVL1:
  52              		.loc 2 87 26 view .LVU4
  53              	.LBE506:
  54              	.LBE505:
1161:Drivers/lvgl/src/core/lv_obj_pos.c ****     int16_t angle = lv_obj_get_style_transform_angle(obj, 0);
  55              		.loc 1 1161 1 view .LVU5
  56 000a 0E46     		mov	r6, r1
  57              	.LBB510:
  58              	.LBB507:
  59              		.loc 2 87 26 view .LVU6
  60 000c 0021     		movs	r1, #0
  61              	.LVL2:
ARM GAS  /var/folders/0z/tsy30v1j4xl4_7kw94k978ww0000gn/T//ccuxxuhb.s 			page 24


  62              		.loc 2 87 26 view .LVU7
  63              	.LBE507:
  64              	.LBE510:
1161:Drivers/lvgl/src/core/lv_obj_pos.c ****     int16_t angle = lv_obj_get_style_transform_angle(obj, 0);
  65              		.loc 1 1161 1 view .LVU8
  66 000e 8146     		mov	r9, r0
  67              	.LVL3:
  68              	.LBB511:
  69              	.LBI505:
  85:Drivers/lvgl/src/core/lv_obj_style_gen.h **** {
  70              		.loc 2 85 26 is_stmt 1 view .LVU9
  71              	.LBB508:
  72              		.loc 2 87 5 view .LVU10
  73              		.loc 2 87 26 is_stmt 0 view .LVU11
  74 0010 FFF7FEFF 		bl	lv_obj_get_style_prop
  75              	.LVL4:
  76              		.loc 2 87 26 view .LVU12
  77              	.LBE508:
  78              	.LBE511:
  79              	.LBB512:
  80              	.LBB513:
  81:Drivers/lvgl/src/core/lv_obj_style_gen.h ****     return (lv_coord_t)v.num;
  81              		.loc 2 81 26 view .LVU13
  82 0014 6D22     		movs	r2, #109
  83              	.LBE513:
  84              	.LBE512:
  85              	.LBB515:
  86              	.LBB509:
  87              		.loc 2 87 26 view .LVU14
  88 0016 0546     		mov	r5, r0
  88:Drivers/lvgl/src/core/lv_obj_style_gen.h ****     return (lv_coord_t)v.num;
  89              		.loc 2 88 5 is_stmt 1 view .LVU15
  90              		.loc 2 88 12 is_stmt 0 view .LVU16
  91 0018 0FFA80F8 		sxth	r8, r0
  92              	.LVL5:
  93              		.loc 2 88 12 view .LVU17
  94              	.LBE509:
  95              	.LBE515:
1163:Drivers/lvgl/src/core/lv_obj_pos.c ****     int16_t zoom = lv_obj_get_style_transform_zoom(obj, 0);
  96              		.loc 1 1163 5 is_stmt 1 view .LVU18
  97              	.LBB516:
  98              	.LBI512:
  79:Drivers/lvgl/src/core/lv_obj_style_gen.h **** {
  99              		.loc 2 79 26 view .LVU19
 100              	.LBB514:
  81:Drivers/lvgl/src/core/lv_obj_style_gen.h ****     return (lv_coord_t)v.num;
 101              		.loc 2 81 5 view .LVU20
  81:Drivers/lvgl/src/core/lv_obj_style_gen.h ****     return (lv_coord_t)v.num;
 102              		.loc 2 81 26 is_stmt 0 view .LVU21
 103 001c 0021     		movs	r1, #0
 104 001e 4846     		mov	r0, r9
 105 0020 FFF7FEFF 		bl	lv_obj_get_style_prop
 106              	.LVL6:
  82:Drivers/lvgl/src/core/lv_obj_style_gen.h **** }
 107              		.loc 2 82 5 is_stmt 1 view .LVU22
  82:Drivers/lvgl/src/core/lv_obj_style_gen.h **** }
 108              		.loc 2 82 12 is_stmt 0 view .LVU23
ARM GAS  /var/folders/0z/tsy30v1j4xl4_7kw94k978ww0000gn/T//ccuxxuhb.s 			page 25


 109 0024 04B2     		sxth	r4, r0
 110              	.LVL7:
  82:Drivers/lvgl/src/core/lv_obj_style_gen.h **** }
 111              		.loc 2 82 12 view .LVU24
 112              	.LBE514:
 113              	.LBE516:
1164:Drivers/lvgl/src/core/lv_obj_pos.c **** 
1165:Drivers/lvgl/src/core/lv_obj_pos.c ****     if(angle == 0 && zoom == LV_IMG_ZOOM_NONE) return;
 114              		.loc 1 1165 5 is_stmt 1 view .LVU25
 115              		.loc 1 1165 7 is_stmt 0 view .LVU26
 116 0026 B8F1000F 		cmp	r8, #0
 117 002a 02D1     		bne	.L2
 118              		.loc 1 1165 19 discriminator 1 view .LVU27
 119 002c B4F5807F 		cmp	r4, #256
 120 0030 2CD0     		beq	.L1
 121              	.L2:
1166:Drivers/lvgl/src/core/lv_obj_pos.c **** 
1167:Drivers/lvgl/src/core/lv_obj_pos.c ****     lv_point_t pivot = {
 122              		.loc 1 1167 5 is_stmt 1 view .LVU28
 123              	.LVL8:
 124              	.LBB517:
 125              	.LBI517:
  89:Drivers/lvgl/src/core/lv_obj_style_gen.h **** }
  90:Drivers/lvgl/src/core/lv_obj_style_gen.h **** 
  91:Drivers/lvgl/src/core/lv_obj_style_gen.h **** static inline lv_coord_t lv_obj_get_style_transform_pivot_x(const struct _lv_obj_t * obj, uint32_t 
 126              		.loc 2 91 26 view .LVU29
 127              	.LBB518:
  92:Drivers/lvgl/src/core/lv_obj_style_gen.h **** {
  93:Drivers/lvgl/src/core/lv_obj_style_gen.h ****     lv_style_value_t v = lv_obj_get_style_prop(obj, part, LV_STYLE_TRANSFORM_PIVOT_X);
 128              		.loc 2 93 5 view .LVU30
 129              		.loc 2 93 26 is_stmt 0 view .LVU31
 130 0032 6F22     		movs	r2, #111
 131 0034 0021     		movs	r1, #0
 132 0036 4846     		mov	r0, r9
 133 0038 FFF7FEFF 		bl	lv_obj_get_style_prop
 134              	.LVL9:
  94:Drivers/lvgl/src/core/lv_obj_style_gen.h ****     return (lv_coord_t)v.num;
 135              		.loc 2 94 5 is_stmt 1 view .LVU32
 136              		.loc 2 94 5 is_stmt 0 view .LVU33
 137              	.LBE518:
 138              	.LBE517:
 139              	.LBB519:
 140              	.LBB520:
  95:Drivers/lvgl/src/core/lv_obj_style_gen.h **** }
  96:Drivers/lvgl/src/core/lv_obj_style_gen.h **** 
  97:Drivers/lvgl/src/core/lv_obj_style_gen.h **** static inline lv_coord_t lv_obj_get_style_transform_pivot_y(const struct _lv_obj_t * obj, uint32_t 
  98:Drivers/lvgl/src/core/lv_obj_style_gen.h **** {
  99:Drivers/lvgl/src/core/lv_obj_style_gen.h ****     lv_style_value_t v = lv_obj_get_style_prop(obj, part, LV_STYLE_TRANSFORM_PIVOT_Y);
 141              		.loc 2 99 26 view .LVU34
 142 003c 7022     		movs	r2, #112
 143              	.LBE520:
 144              	.LBE519:
 145              		.loc 1 1167 16 view .LVU35
 146 003e ADF80400 		strh	r0, [sp, #4]	@ movhi
 147              	.LVL10:
 148              	.LBB524:
 149              	.LBI519:
ARM GAS  /var/folders/0z/tsy30v1j4xl4_7kw94k978ww0000gn/T//ccuxxuhb.s 			page 26


  97:Drivers/lvgl/src/core/lv_obj_style_gen.h **** {
 150              		.loc 2 97 26 is_stmt 1 view .LVU36
 151              	.LBB521:
 152              		.loc 2 99 5 view .LVU37
 153              		.loc 2 99 26 is_stmt 0 view .LVU38
 154 0042 0021     		movs	r1, #0
 155 0044 4846     		mov	r0, r9
 156 0046 FFF7FEFF 		bl	lv_obj_get_style_prop
 157              	.LVL11:
 158              	.LBE521:
 159              	.LBE524:
1168:Drivers/lvgl/src/core/lv_obj_pos.c ****         .x = lv_obj_get_style_transform_pivot_x(obj, 0),
1169:Drivers/lvgl/src/core/lv_obj_pos.c ****         .y = lv_obj_get_style_transform_pivot_y(obj, 0)
1170:Drivers/lvgl/src/core/lv_obj_pos.c ****     };
1171:Drivers/lvgl/src/core/lv_obj_pos.c **** 
1172:Drivers/lvgl/src/core/lv_obj_pos.c ****     if(LV_COORD_IS_PCT(pivot.x)) {
 160              		.loc 1 1172 8 view .LVU39
 161 004a BDF90410 		ldrsh	r1, [sp, #4]
 162              		.loc 1 1172 7 view .LVU40
 163 004e 01F4C04C 		and	ip, r1, #24576
 164 0052 BCF5005F 		cmp	ip, #8192
 165              	.LBB525:
 166              	.LBB522:
 167              		.loc 2 99 26 view .LVU41
 168 0056 0346     		mov	r3, r0
 100:Drivers/lvgl/src/core/lv_obj_style_gen.h ****     return (lv_coord_t)v.num;
 169              		.loc 2 100 5 is_stmt 1 view .LVU42
 170              	.LBE522:
 171              	.LBE525:
 172              		.loc 1 1172 8 is_stmt 0 view .LVU43
 173 0058 8AB2     		uxth	r2, r1
 174              	.LBB526:
 175              	.LBB523:
 176              		.loc 2 100 12 view .LVU44
 177 005a 00B2     		sxth	r0, r0
 178              	.LVL12:
 179              		.loc 2 100 12 view .LVU45
 180              	.LBE523:
 181              	.LBE526:
 182              		.loc 1 1172 5 is_stmt 1 view .LVU46
 183              		.loc 1 1172 7 is_stmt 0 view .LVU47
 184 005c 3FD0     		beq	.L4
 185              	.L22:
 186              	.LBB527:
 187              	.LBB528:
 188              		.file 3 "Drivers/lvgl/src/core/../misc/../font/../misc/lv_area.h"
   1:Drivers/lvgl/src/core/../misc/../font/../misc/lv_area.h **** /**
   2:Drivers/lvgl/src/core/../misc/../font/../misc/lv_area.h ****  * @file lv_area.h
   3:Drivers/lvgl/src/core/../misc/../font/../misc/lv_area.h ****  *
   4:Drivers/lvgl/src/core/../misc/../font/../misc/lv_area.h ****  */
   5:Drivers/lvgl/src/core/../misc/../font/../misc/lv_area.h **** 
   6:Drivers/lvgl/src/core/../misc/../font/../misc/lv_area.h **** #ifndef LV_AREA_H
   7:Drivers/lvgl/src/core/../misc/../font/../misc/lv_area.h **** #define LV_AREA_H
   8:Drivers/lvgl/src/core/../misc/../font/../misc/lv_area.h **** 
   9:Drivers/lvgl/src/core/../misc/../font/../misc/lv_area.h **** #ifdef __cplusplus
  10:Drivers/lvgl/src/core/../misc/../font/../misc/lv_area.h **** extern "C" {
  11:Drivers/lvgl/src/core/../misc/../font/../misc/lv_area.h **** #endif
ARM GAS  /var/folders/0z/tsy30v1j4xl4_7kw94k978ww0000gn/T//ccuxxuhb.s 			page 27


  12:Drivers/lvgl/src/core/../misc/../font/../misc/lv_area.h **** 
  13:Drivers/lvgl/src/core/../misc/../font/../misc/lv_area.h **** /*********************
  14:Drivers/lvgl/src/core/../misc/../font/../misc/lv_area.h ****  *      INCLUDES
  15:Drivers/lvgl/src/core/../misc/../font/../misc/lv_area.h ****  *********************/
  16:Drivers/lvgl/src/core/../misc/../font/../misc/lv_area.h **** #include "../lv_conf_internal.h"
  17:Drivers/lvgl/src/core/../misc/../font/../misc/lv_area.h **** #include <stdbool.h>
  18:Drivers/lvgl/src/core/../misc/../font/../misc/lv_area.h **** #include <stdint.h>
  19:Drivers/lvgl/src/core/../misc/../font/../misc/lv_area.h **** 
  20:Drivers/lvgl/src/core/../misc/../font/../misc/lv_area.h **** /*********************
  21:Drivers/lvgl/src/core/../misc/../font/../misc/lv_area.h ****  *      DEFINES
  22:Drivers/lvgl/src/core/../misc/../font/../misc/lv_area.h ****  *********************/
  23:Drivers/lvgl/src/core/../misc/../font/../misc/lv_area.h **** 
  24:Drivers/lvgl/src/core/../misc/../font/../misc/lv_area.h **** #if LV_USE_LARGE_COORD
  25:Drivers/lvgl/src/core/../misc/../font/../misc/lv_area.h **** typedef int32_t lv_coord_t;
  26:Drivers/lvgl/src/core/../misc/../font/../misc/lv_area.h **** #else
  27:Drivers/lvgl/src/core/../misc/../font/../misc/lv_area.h **** typedef int16_t lv_coord_t;
  28:Drivers/lvgl/src/core/../misc/../font/../misc/lv_area.h **** #endif
  29:Drivers/lvgl/src/core/../misc/../font/../misc/lv_area.h **** 
  30:Drivers/lvgl/src/core/../misc/../font/../misc/lv_area.h **** /**********************
  31:Drivers/lvgl/src/core/../misc/../font/../misc/lv_area.h ****  *      TYPEDEFS
  32:Drivers/lvgl/src/core/../misc/../font/../misc/lv_area.h ****  **********************/
  33:Drivers/lvgl/src/core/../misc/../font/../misc/lv_area.h **** 
  34:Drivers/lvgl/src/core/../misc/../font/../misc/lv_area.h **** /**
  35:Drivers/lvgl/src/core/../misc/../font/../misc/lv_area.h ****  * Represents a point on the screen.
  36:Drivers/lvgl/src/core/../misc/../font/../misc/lv_area.h ****  */
  37:Drivers/lvgl/src/core/../misc/../font/../misc/lv_area.h **** typedef struct {
  38:Drivers/lvgl/src/core/../misc/../font/../misc/lv_area.h ****     lv_coord_t x;
  39:Drivers/lvgl/src/core/../misc/../font/../misc/lv_area.h ****     lv_coord_t y;
  40:Drivers/lvgl/src/core/../misc/../font/../misc/lv_area.h **** } lv_point_t;
  41:Drivers/lvgl/src/core/../misc/../font/../misc/lv_area.h **** 
  42:Drivers/lvgl/src/core/../misc/../font/../misc/lv_area.h **** /** Represents an area of the screen.*/
  43:Drivers/lvgl/src/core/../misc/../font/../misc/lv_area.h **** typedef struct {
  44:Drivers/lvgl/src/core/../misc/../font/../misc/lv_area.h ****     lv_coord_t x1;
  45:Drivers/lvgl/src/core/../misc/../font/../misc/lv_area.h ****     lv_coord_t y1;
  46:Drivers/lvgl/src/core/../misc/../font/../misc/lv_area.h ****     lv_coord_t x2;
  47:Drivers/lvgl/src/core/../misc/../font/../misc/lv_area.h ****     lv_coord_t y2;
  48:Drivers/lvgl/src/core/../misc/../font/../misc/lv_area.h **** } lv_area_t;
  49:Drivers/lvgl/src/core/../misc/../font/../misc/lv_area.h **** 
  50:Drivers/lvgl/src/core/../misc/../font/../misc/lv_area.h **** /** Alignments*/
  51:Drivers/lvgl/src/core/../misc/../font/../misc/lv_area.h **** enum {
  52:Drivers/lvgl/src/core/../misc/../font/../misc/lv_area.h ****     LV_ALIGN_DEFAULT = 0,
  53:Drivers/lvgl/src/core/../misc/../font/../misc/lv_area.h ****     LV_ALIGN_TOP_LEFT,
  54:Drivers/lvgl/src/core/../misc/../font/../misc/lv_area.h ****     LV_ALIGN_TOP_MID,
  55:Drivers/lvgl/src/core/../misc/../font/../misc/lv_area.h ****     LV_ALIGN_TOP_RIGHT,
  56:Drivers/lvgl/src/core/../misc/../font/../misc/lv_area.h ****     LV_ALIGN_BOTTOM_LEFT,
  57:Drivers/lvgl/src/core/../misc/../font/../misc/lv_area.h ****     LV_ALIGN_BOTTOM_MID,
  58:Drivers/lvgl/src/core/../misc/../font/../misc/lv_area.h ****     LV_ALIGN_BOTTOM_RIGHT,
  59:Drivers/lvgl/src/core/../misc/../font/../misc/lv_area.h ****     LV_ALIGN_LEFT_MID,
  60:Drivers/lvgl/src/core/../misc/../font/../misc/lv_area.h ****     LV_ALIGN_RIGHT_MID,
  61:Drivers/lvgl/src/core/../misc/../font/../misc/lv_area.h ****     LV_ALIGN_CENTER,
  62:Drivers/lvgl/src/core/../misc/../font/../misc/lv_area.h **** 
  63:Drivers/lvgl/src/core/../misc/../font/../misc/lv_area.h ****     LV_ALIGN_OUT_TOP_LEFT,
  64:Drivers/lvgl/src/core/../misc/../font/../misc/lv_area.h ****     LV_ALIGN_OUT_TOP_MID,
  65:Drivers/lvgl/src/core/../misc/../font/../misc/lv_area.h ****     LV_ALIGN_OUT_TOP_RIGHT,
  66:Drivers/lvgl/src/core/../misc/../font/../misc/lv_area.h ****     LV_ALIGN_OUT_BOTTOM_LEFT,
  67:Drivers/lvgl/src/core/../misc/../font/../misc/lv_area.h ****     LV_ALIGN_OUT_BOTTOM_MID,
  68:Drivers/lvgl/src/core/../misc/../font/../misc/lv_area.h ****     LV_ALIGN_OUT_BOTTOM_RIGHT,
ARM GAS  /var/folders/0z/tsy30v1j4xl4_7kw94k978ww0000gn/T//ccuxxuhb.s 			page 28


  69:Drivers/lvgl/src/core/../misc/../font/../misc/lv_area.h ****     LV_ALIGN_OUT_LEFT_TOP,
  70:Drivers/lvgl/src/core/../misc/../font/../misc/lv_area.h ****     LV_ALIGN_OUT_LEFT_MID,
  71:Drivers/lvgl/src/core/../misc/../font/../misc/lv_area.h ****     LV_ALIGN_OUT_LEFT_BOTTOM,
  72:Drivers/lvgl/src/core/../misc/../font/../misc/lv_area.h ****     LV_ALIGN_OUT_RIGHT_TOP,
  73:Drivers/lvgl/src/core/../misc/../font/../misc/lv_area.h ****     LV_ALIGN_OUT_RIGHT_MID,
  74:Drivers/lvgl/src/core/../misc/../font/../misc/lv_area.h ****     LV_ALIGN_OUT_RIGHT_BOTTOM,
  75:Drivers/lvgl/src/core/../misc/../font/../misc/lv_area.h **** };
  76:Drivers/lvgl/src/core/../misc/../font/../misc/lv_area.h **** typedef uint8_t lv_align_t;
  77:Drivers/lvgl/src/core/../misc/../font/../misc/lv_area.h **** 
  78:Drivers/lvgl/src/core/../misc/../font/../misc/lv_area.h **** enum {
  79:Drivers/lvgl/src/core/../misc/../font/../misc/lv_area.h ****     LV_DIR_NONE     = 0x00,
  80:Drivers/lvgl/src/core/../misc/../font/../misc/lv_area.h ****     LV_DIR_LEFT     = (1 << 0),
  81:Drivers/lvgl/src/core/../misc/../font/../misc/lv_area.h ****     LV_DIR_RIGHT    = (1 << 1),
  82:Drivers/lvgl/src/core/../misc/../font/../misc/lv_area.h ****     LV_DIR_TOP      = (1 << 2),
  83:Drivers/lvgl/src/core/../misc/../font/../misc/lv_area.h ****     LV_DIR_BOTTOM   = (1 << 3),
  84:Drivers/lvgl/src/core/../misc/../font/../misc/lv_area.h ****     LV_DIR_HOR      = LV_DIR_LEFT | LV_DIR_RIGHT,
  85:Drivers/lvgl/src/core/../misc/../font/../misc/lv_area.h ****     LV_DIR_VER      = LV_DIR_TOP | LV_DIR_BOTTOM,
  86:Drivers/lvgl/src/core/../misc/../font/../misc/lv_area.h ****     LV_DIR_ALL      = LV_DIR_HOR | LV_DIR_VER,
  87:Drivers/lvgl/src/core/../misc/../font/../misc/lv_area.h **** };
  88:Drivers/lvgl/src/core/../misc/../font/../misc/lv_area.h **** 
  89:Drivers/lvgl/src/core/../misc/../font/../misc/lv_area.h **** typedef uint8_t lv_dir_t;
  90:Drivers/lvgl/src/core/../misc/../font/../misc/lv_area.h **** 
  91:Drivers/lvgl/src/core/../misc/../font/../misc/lv_area.h **** /**********************
  92:Drivers/lvgl/src/core/../misc/../font/../misc/lv_area.h ****  * GLOBAL PROTOTYPES
  93:Drivers/lvgl/src/core/../misc/../font/../misc/lv_area.h ****  **********************/
  94:Drivers/lvgl/src/core/../misc/../font/../misc/lv_area.h **** 
  95:Drivers/lvgl/src/core/../misc/../font/../misc/lv_area.h **** /**
  96:Drivers/lvgl/src/core/../misc/../font/../misc/lv_area.h ****  * Initialize an area
  97:Drivers/lvgl/src/core/../misc/../font/../misc/lv_area.h ****  * @param area_p pointer to an area
  98:Drivers/lvgl/src/core/../misc/../font/../misc/lv_area.h ****  * @param x1 left coordinate of the area
  99:Drivers/lvgl/src/core/../misc/../font/../misc/lv_area.h ****  * @param y1 top coordinate of the area
 100:Drivers/lvgl/src/core/../misc/../font/../misc/lv_area.h ****  * @param x2 right coordinate of the area
 101:Drivers/lvgl/src/core/../misc/../font/../misc/lv_area.h ****  * @param y2 bottom coordinate of the area
 102:Drivers/lvgl/src/core/../misc/../font/../misc/lv_area.h ****  */
 103:Drivers/lvgl/src/core/../misc/../font/../misc/lv_area.h **** void lv_area_set(lv_area_t * area_p, lv_coord_t x1, lv_coord_t y1, lv_coord_t x2, lv_coord_t y2);
 104:Drivers/lvgl/src/core/../misc/../font/../misc/lv_area.h **** 
 105:Drivers/lvgl/src/core/../misc/../font/../misc/lv_area.h **** /**
 106:Drivers/lvgl/src/core/../misc/../font/../misc/lv_area.h ****  * Copy an area
 107:Drivers/lvgl/src/core/../misc/../font/../misc/lv_area.h ****  * @param dest pointer to the destination area
 108:Drivers/lvgl/src/core/../misc/../font/../misc/lv_area.h ****  * @param src pointer to the source area
 109:Drivers/lvgl/src/core/../misc/../font/../misc/lv_area.h ****  */
 110:Drivers/lvgl/src/core/../misc/../font/../misc/lv_area.h **** inline static void lv_area_copy(lv_area_t * dest, const lv_area_t * src)
 111:Drivers/lvgl/src/core/../misc/../font/../misc/lv_area.h **** {
 112:Drivers/lvgl/src/core/../misc/../font/../misc/lv_area.h ****     dest->x1 = src->x1;
 113:Drivers/lvgl/src/core/../misc/../font/../misc/lv_area.h ****     dest->y1 = src->y1;
 114:Drivers/lvgl/src/core/../misc/../font/../misc/lv_area.h ****     dest->x2 = src->x2;
 115:Drivers/lvgl/src/core/../misc/../font/../misc/lv_area.h ****     dest->y2 = src->y2;
 116:Drivers/lvgl/src/core/../misc/../font/../misc/lv_area.h **** }
 117:Drivers/lvgl/src/core/../misc/../font/../misc/lv_area.h **** 
 118:Drivers/lvgl/src/core/../misc/../font/../misc/lv_area.h **** /**
 119:Drivers/lvgl/src/core/../misc/../font/../misc/lv_area.h ****  * Get the width of an area
 120:Drivers/lvgl/src/core/../misc/../font/../misc/lv_area.h ****  * @param area_p pointer to an area
 121:Drivers/lvgl/src/core/../misc/../font/../misc/lv_area.h ****  * @return the width of the area (if x1 == x2 -> width = 1)
 122:Drivers/lvgl/src/core/../misc/../font/../misc/lv_area.h ****  */
 123:Drivers/lvgl/src/core/../misc/../font/../misc/lv_area.h **** static inline lv_coord_t lv_area_get_width(const lv_area_t * area_p)
 124:Drivers/lvgl/src/core/../misc/../font/../misc/lv_area.h **** {
 125:Drivers/lvgl/src/core/../misc/../font/../misc/lv_area.h ****     return (lv_coord_t)(area_p->x2 - area_p->x1 + 1);
ARM GAS  /var/folders/0z/tsy30v1j4xl4_7kw94k978ww0000gn/T//ccuxxuhb.s 			page 29


 189              		.loc 3 125 44 view .LVU48
 190 005e B9F81410 		ldrh	r1, [r9, #20]
 191              	.L5:
 192              		.loc 3 125 44 view .LVU49
 193              	.LBE528:
 194              	.LBE527:
1173:Drivers/lvgl/src/core/lv_obj_pos.c ****         pivot.x = (LV_COORD_GET_PCT(pivot.x) * lv_area_get_width(&obj->coords)) / 100;
1174:Drivers/lvgl/src/core/lv_obj_pos.c ****     }
1175:Drivers/lvgl/src/core/lv_obj_pos.c ****     if(LV_COORD_IS_PCT(pivot.y)) {
 195              		.loc 1 1175 5 is_stmt 1 view .LVU50
 196              		.loc 1 1175 7 is_stmt 0 view .LVU51
 197 0062 03F4C04C 		and	ip, r3, #24576
 198 0066 BCF5005F 		cmp	ip, #8192
 199              		.loc 1 1175 8 view .LVU52
 200 006a 9BB2     		uxth	r3, r3
 201              		.loc 1 1175 7 view .LVU53
 202 006c 1AD0     		beq	.L9
 203              	.L23:
 204              	.LBB532:
 205              	.LBB533:
 126:Drivers/lvgl/src/core/../misc/../font/../misc/lv_area.h **** }
 127:Drivers/lvgl/src/core/../misc/../font/../misc/lv_area.h **** 
 128:Drivers/lvgl/src/core/../misc/../font/../misc/lv_area.h **** /**
 129:Drivers/lvgl/src/core/../misc/../font/../misc/lv_area.h ****  * Get the height of an area
 130:Drivers/lvgl/src/core/../misc/../font/../misc/lv_area.h ****  * @param area_p pointer to an area
 131:Drivers/lvgl/src/core/../misc/../font/../misc/lv_area.h ****  * @return the height of the area (if y1 == y2 -> height = 1)
 132:Drivers/lvgl/src/core/../misc/../font/../misc/lv_area.h ****  */
 133:Drivers/lvgl/src/core/../misc/../font/../misc/lv_area.h **** static inline lv_coord_t lv_area_get_height(const lv_area_t * area_p)
 134:Drivers/lvgl/src/core/../misc/../font/../misc/lv_area.h **** {
 135:Drivers/lvgl/src/core/../misc/../font/../misc/lv_area.h ****     return (lv_coord_t)(area_p->y2 - area_p->y1 + 1);
 206              		.loc 3 135 44 view .LVU54
 207 006e B9F81600 		ldrh	r0, [r9, #22]
 208              	.L10:
 209              		.loc 3 135 44 view .LVU55
 210              	.LBE533:
 211              	.LBE532:
1176:Drivers/lvgl/src/core/lv_obj_pos.c ****         pivot.y = (LV_COORD_GET_PCT(pivot.y) * lv_area_get_height(&obj->coords)) / 100;
1177:Drivers/lvgl/src/core/lv_obj_pos.c ****     }
1178:Drivers/lvgl/src/core/lv_obj_pos.c **** 
1179:Drivers/lvgl/src/core/lv_obj_pos.c ****     pivot.x = obj->coords.x1 + pivot.x;
 212              		.loc 1 1179 5 is_stmt 1 view .LVU56
 213              		.loc 1 1179 30 is_stmt 0 view .LVU57
 214 0072 0A44     		add	r2, r2, r1
1180:Drivers/lvgl/src/core/lv_obj_pos.c ****     pivot.y = obj->coords.y1 + pivot.y;
 215              		.loc 1 1180 30 view .LVU58
 216 0074 0344     		add	r3, r3, r0
1179:Drivers/lvgl/src/core/lv_obj_pos.c ****     pivot.y = obj->coords.y1 + pivot.y;
 217              		.loc 1 1179 13 view .LVU59
 218 0076 ADF80420 		strh	r2, [sp, #4]	@ movhi
 219              		.loc 1 1180 5 is_stmt 1 view .LVU60
 220              		.loc 1 1180 13 is_stmt 0 view .LVU61
 221 007a ADF80630 		strh	r3, [sp, #6]	@ movhi
1181:Drivers/lvgl/src/core/lv_obj_pos.c **** 
1182:Drivers/lvgl/src/core/lv_obj_pos.c ****     if(inv) {
 222              		.loc 1 1182 5 is_stmt 1 view .LVU62
 223              		.loc 1 1182 7 is_stmt 0 view .LVU63
 224 007e 47B9     		cbnz	r7, .L25
ARM GAS  /var/folders/0z/tsy30v1j4xl4_7kw94k978ww0000gn/T//ccuxxuhb.s 			page 30


 225              	.L14:
1183:Drivers/lvgl/src/core/lv_obj_pos.c ****         angle = -angle;
1184:Drivers/lvgl/src/core/lv_obj_pos.c ****         zoom = (256 * 256) / zoom;
1185:Drivers/lvgl/src/core/lv_obj_pos.c ****     }
1186:Drivers/lvgl/src/core/lv_obj_pos.c **** 
1187:Drivers/lvgl/src/core/lv_obj_pos.c ****     lv_point_transform(p, angle, zoom, &pivot);
 226              		.loc 1 1187 5 is_stmt 1 view .LVU64
 227 0080 01AB     		add	r3, sp, #4
 228 0082 2246     		mov	r2, r4
 229 0084 4146     		mov	r1, r8
 230 0086 3046     		mov	r0, r6
 231 0088 FFF7FEFF 		bl	lv_point_transform
 232              	.LVL13:
 233              	.L1:
1188:Drivers/lvgl/src/core/lv_obj_pos.c **** }
 234              		.loc 1 1188 1 is_stmt 0 view .LVU65
 235 008c 03B0     		add	sp, sp, #12
 236              		.cfi_remember_state
 237              		.cfi_def_cfa_offset 28
 238              		@ sp needed
 239 008e BDE8F083 		pop	{r4, r5, r6, r7, r8, r9, pc}
 240              	.LVL14:
 241              	.L25:
 242              		.cfi_restore_state
1183:Drivers/lvgl/src/core/lv_obj_pos.c ****         angle = -angle;
 243              		.loc 1 1183 9 is_stmt 1 view .LVU66
1183:Drivers/lvgl/src/core/lv_obj_pos.c ****         angle = -angle;
 244              		.loc 1 1183 15 is_stmt 0 view .LVU67
 245 0092 6D42     		rsbs	r5, r5, #0
1184:Drivers/lvgl/src/core/lv_obj_pos.c ****     }
 246              		.loc 1 1184 28 view .LVU68
 247 0094 4FF48033 		mov	r3, #65536
1183:Drivers/lvgl/src/core/lv_obj_pos.c ****         angle = -angle;
 248              		.loc 1 1183 15 view .LVU69
 249 0098 0FFA85F8 		sxth	r8, r5
 250              	.LVL15:
1184:Drivers/lvgl/src/core/lv_obj_pos.c ****     }
 251              		.loc 1 1184 9 is_stmt 1 view .LVU70
1184:Drivers/lvgl/src/core/lv_obj_pos.c ****     }
 252              		.loc 1 1184 28 is_stmt 0 view .LVU71
 253 009c 93FBF4F3 		sdiv	r3, r3, r4
1184:Drivers/lvgl/src/core/lv_obj_pos.c ****     }
 254              		.loc 1 1184 14 view .LVU72
 255 00a0 1CB2     		sxth	r4, r3
 256              	.LVL16:
1184:Drivers/lvgl/src/core/lv_obj_pos.c ****     }
 257              		.loc 1 1184 14 view .LVU73
 258 00a2 EDE7     		b	.L14
 259              	.L9:
1175:Drivers/lvgl/src/core/lv_obj_pos.c ****         pivot.y = (LV_COORD_GET_PCT(pivot.y) * lv_area_get_height(&obj->coords)) / 100;
 260              		.loc 1 1175 8 discriminator 1 view .LVU74
 261 00a4 20F4C040 		bic	r0, r0, #24576
 262 00a8 B0F5FA6F 		cmp	r0, #2000
 263 00ac DFDC     		bgt	.L23
1176:Drivers/lvgl/src/core/lv_obj_pos.c ****     }
 264              		.loc 1 1176 9 is_stmt 1 view .LVU75
 265              	.LVL17:
ARM GAS  /var/folders/0z/tsy30v1j4xl4_7kw94k978ww0000gn/T//ccuxxuhb.s 			page 31


 266              	.LBB537:
 267              	.LBI532:
 133:Drivers/lvgl/src/core/../misc/../font/../misc/lv_area.h **** {
 268              		.loc 3 133 26 view .LVU76
 269              	.LBB534:
 270              		.loc 3 135 5 view .LVU77
 271              	.LBE534:
 272              	.LBE537:
1176:Drivers/lvgl/src/core/lv_obj_pos.c ****     }
 273              		.loc 1 1176 20 is_stmt 0 view .LVU78
 274 00ae B0F57A7F 		cmp	r0, #1000
 275              	.LBB538:
 276              	.LBB535:
 277              		.loc 3 135 49 view .LVU79
 278 00b2 B9F81A30 		ldrh	r3, [r9, #26]
 279              	.LBE535:
 280              	.LBE538:
1176:Drivers/lvgl/src/core/lv_obj_pos.c ****     }
 281              		.loc 1 1176 20 view .LVU80
 282 00b6 CCBF     		ite	gt
 283 00b8 C0F57A7C 		rsbgt	ip, r0, #1000
 284 00bc 8446     		movle	ip, r0
 285              	.LBB539:
 286              	.LBB536:
 287              		.loc 3 135 44 view .LVU81
 288 00be B9F81600 		ldrh	r0, [r9, #22]
 289              	.LVL18:
 290              		.loc 3 135 49 view .LVU82
 291 00c2 0133     		adds	r3, r3, #1
 292 00c4 1B1A     		subs	r3, r3, r0
 293              	.LBE536:
 294              	.LBE539:
1176:Drivers/lvgl/src/core/lv_obj_pos.c ****     }
 295              		.loc 1 1176 48 view .LVU83
 296 00c6 1BB2     		sxth	r3, r3
1176:Drivers/lvgl/src/core/lv_obj_pos.c ****     }
 297              		.loc 1 1176 46 view .LVU84
 298 00c8 0CFB03F3 		mul	r3, ip, r3
1176:Drivers/lvgl/src/core/lv_obj_pos.c ****     }
 299              		.loc 1 1176 82 view .LVU85
 300 00cc DFF850C0 		ldr	ip, .L26
 301 00d0 8CFB03EC 		smull	lr, ip, ip, r3
 302 00d4 DB17     		asrs	r3, r3, #31
 303 00d6 C3EB6C13 		rsb	r3, r3, ip, asr #5
1180:Drivers/lvgl/src/core/lv_obj_pos.c **** 
 304              		.loc 1 1180 37 view .LVU86
 305 00da 9BB2     		uxth	r3, r3
 306 00dc C9E7     		b	.L10
 307              	.L4:
1172:Drivers/lvgl/src/core/lv_obj_pos.c ****         pivot.x = (LV_COORD_GET_PCT(pivot.x) * lv_area_get_width(&obj->coords)) / 100;
 308              		.loc 1 1172 8 discriminator 1 view .LVU87
 309 00de 21F4C041 		bic	r1, r1, #24576
 310 00e2 B1F5FA6F 		cmp	r1, #2000
 311 00e6 BADC     		bgt	.L22
1173:Drivers/lvgl/src/core/lv_obj_pos.c ****     }
 312              		.loc 1 1173 9 is_stmt 1 view .LVU88
 313              	.LVL19:
ARM GAS  /var/folders/0z/tsy30v1j4xl4_7kw94k978ww0000gn/T//ccuxxuhb.s 			page 32


 314              	.LBB540:
 315              	.LBI527:
 123:Drivers/lvgl/src/core/../misc/../font/../misc/lv_area.h **** {
 316              		.loc 3 123 26 view .LVU89
 317              	.LBB529:
 125:Drivers/lvgl/src/core/../misc/../font/../misc/lv_area.h **** }
 318              		.loc 3 125 5 view .LVU90
 319              	.LBE529:
 320              	.LBE540:
1173:Drivers/lvgl/src/core/lv_obj_pos.c ****     }
 321              		.loc 1 1173 20 is_stmt 0 view .LVU91
 322 00e8 B1F57A7F 		cmp	r1, #1000
 323              	.LBB541:
 324              	.LBB530:
 125:Drivers/lvgl/src/core/../misc/../font/../misc/lv_area.h **** }
 325              		.loc 3 125 49 view .LVU92
 326 00ec B9F818C0 		ldrh	ip, [r9, #24]
 327              	.LBE530:
 328              	.LBE541:
1173:Drivers/lvgl/src/core/lv_obj_pos.c ****     }
 329              		.loc 1 1173 20 view .LVU93
 330 00f0 CCBF     		ite	gt
 331 00f2 C1F57A72 		rsbgt	r2, r1, #1000
 332 00f6 0A46     		movle	r2, r1
 333              	.LBB542:
 334              	.LBB531:
 125:Drivers/lvgl/src/core/../misc/../font/../misc/lv_area.h **** }
 335              		.loc 3 125 44 view .LVU94
 336 00f8 B9F81410 		ldrh	r1, [r9, #20]
 337              	.LVL20:
 125:Drivers/lvgl/src/core/../misc/../font/../misc/lv_area.h **** }
 338              		.loc 3 125 49 view .LVU95
 339 00fc 0CF1010C 		add	ip, ip, #1
 340 0100 ACEB010C 		sub	ip, ip, r1
 341              	.LBE531:
 342              	.LBE542:
1173:Drivers/lvgl/src/core/lv_obj_pos.c ****     }
 343              		.loc 1 1173 48 view .LVU96
 344 0104 0FFA8CFC 		sxth	ip, ip
1173:Drivers/lvgl/src/core/lv_obj_pos.c ****     }
 345              		.loc 1 1173 46 view .LVU97
 346 0108 02FB0CF2 		mul	r2, r2, ip
1173:Drivers/lvgl/src/core/lv_obj_pos.c ****     }
 347              		.loc 1 1173 81 view .LVU98
 348 010c DFF810C0 		ldr	ip, .L26
 349 0110 8CFB02EC 		smull	lr, ip, ip, r2
 350 0114 D217     		asrs	r2, r2, #31
 351 0116 C2EB6C12 		rsb	r2, r2, ip, asr #5
1179:Drivers/lvgl/src/core/lv_obj_pos.c ****     pivot.y = obj->coords.y1 + pivot.y;
 352              		.loc 1 1179 37 view .LVU99
 353 011a 92B2     		uxth	r2, r2
 354 011c A1E7     		b	.L5
 355              	.L27:
 356 011e 00BF     		.align	2
 357              	.L26:
 358 0120 1F85EB51 		.word	1374389535
 359              		.cfi_endproc
ARM GAS  /var/folders/0z/tsy30v1j4xl4_7kw94k978ww0000gn/T//ccuxxuhb.s 			page 33


 360              	.LFE216:
 362              		.section	.text.lv_obj_set_pos,"ax",%progbits
 363              		.align	1
 364              		.p2align 2,,3
 365              		.global	lv_obj_set_pos
 366              		.syntax unified
 367              		.thumb
 368              		.thumb_func
 370              	lv_obj_set_pos:
 371              	.LVL21:
 372              	.LFB167:
  45:Drivers/lvgl/src/core/lv_obj_pos.c ****     LV_ASSERT_OBJ(obj, MY_CLASS);
 373              		.loc 1 45 1 is_stmt 1 view -0
 374              		.cfi_startproc
 375              		@ args = 0, pretend = 0, frame = 8
 376              		@ frame_needed = 0, uses_anonymous_args = 0
  46:Drivers/lvgl/src/core/lv_obj_pos.c **** 
 377              		.loc 1 46 5 view .LVU101
  46:Drivers/lvgl/src/core/lv_obj_pos.c **** 
 378              		.loc 1 46 5 view .LVU102
  46:Drivers/lvgl/src/core/lv_obj_pos.c **** 
 379              		.loc 1 46 5 view .LVU103
  48:Drivers/lvgl/src/core/lv_obj_pos.c ****     lv_obj_set_y(obj, y);
 380              		.loc 1 48 5 view .LVU104
  45:Drivers/lvgl/src/core/lv_obj_pos.c ****     LV_ASSERT_OBJ(obj, MY_CLASS);
 381              		.loc 1 45 1 is_stmt 0 view .LVU105
 382 0000 70B5     		push	{r4, r5, r6, lr}
 383              		.cfi_def_cfa_offset 16
 384              		.cfi_offset 4, -16
 385              		.cfi_offset 5, -12
 386              		.cfi_offset 6, -8
 387              		.cfi_offset 14, -4
 388 0002 82B0     		sub	sp, sp, #8
 389              		.cfi_def_cfa_offset 24
  45:Drivers/lvgl/src/core/lv_obj_pos.c ****     LV_ASSERT_OBJ(obj, MY_CLASS);
 390              		.loc 1 45 1 view .LVU106
 391 0004 0D46     		mov	r5, r1
 392 0006 1646     		mov	r6, r2
 393              	.LBB547:
 394              	.LBB548:
  59:Drivers/lvgl/src/core/lv_obj_pos.c **** 
 395              		.loc 1 59 13 view .LVU107
 396 0008 0023     		movs	r3, #0
 397 000a 01AA     		add	r2, sp, #4
 398              	.LVL22:
  59:Drivers/lvgl/src/core/lv_obj_pos.c **** 
 399              		.loc 1 59 13 view .LVU108
 400 000c 0721     		movs	r1, #7
 401              	.LVL23:
  59:Drivers/lvgl/src/core/lv_obj_pos.c **** 
 402              		.loc 1 59 13 view .LVU109
 403              	.LBE548:
 404              	.LBE547:
  45:Drivers/lvgl/src/core/lv_obj_pos.c ****     LV_ASSERT_OBJ(obj, MY_CLASS);
 405              		.loc 1 45 1 view .LVU110
 406 000e 0446     		mov	r4, r0
 407              	.LVL24:
ARM GAS  /var/folders/0z/tsy30v1j4xl4_7kw94k978ww0000gn/T//ccuxxuhb.s 			page 34


 408              	.LBB551:
 409              	.LBI547:
  52:Drivers/lvgl/src/core/lv_obj_pos.c **** {
 410              		.loc 1 52 6 is_stmt 1 view .LVU111
 411              	.LBB549:
  54:Drivers/lvgl/src/core/lv_obj_pos.c **** 
 412              		.loc 1 54 5 view .LVU112
  54:Drivers/lvgl/src/core/lv_obj_pos.c **** 
 413              		.loc 1 54 5 view .LVU113
  54:Drivers/lvgl/src/core/lv_obj_pos.c **** 
 414              		.loc 1 54 5 view .LVU114
  56:Drivers/lvgl/src/core/lv_obj_pos.c ****     lv_style_value_t v_x;
 415              		.loc 1 56 5 view .LVU115
  57:Drivers/lvgl/src/core/lv_obj_pos.c **** 
 416              		.loc 1 57 5 view .LVU116
  59:Drivers/lvgl/src/core/lv_obj_pos.c **** 
 417              		.loc 1 59 5 view .LVU117
  59:Drivers/lvgl/src/core/lv_obj_pos.c **** 
 418              		.loc 1 59 13 is_stmt 0 view .LVU118
 419 0010 FFF7FEFF 		bl	lv_obj_get_local_style_prop
 420              	.LVL25:
  61:Drivers/lvgl/src/core/lv_obj_pos.c ****         lv_obj_set_style_x(obj, x, 0);
 421              		.loc 1 61 5 is_stmt 1 view .LVU119
  61:Drivers/lvgl/src/core/lv_obj_pos.c ****         lv_obj_set_style_x(obj, x, 0);
 422              		.loc 1 61 7 is_stmt 0 view .LVU120
 423 0014 0128     		cmp	r0, #1
 424 0016 15D0     		beq	.L36
  61:Drivers/lvgl/src/core/lv_obj_pos.c ****         lv_obj_set_style_x(obj, x, 0);
 425              		.loc 1 61 45 view .LVU121
 426 0018 20B9     		cbnz	r0, .L31
 427              	.L30:
  62:Drivers/lvgl/src/core/lv_obj_pos.c ****     }
 428              		.loc 1 62 9 is_stmt 1 view .LVU122
 429 001a 0022     		movs	r2, #0
 430 001c 2946     		mov	r1, r5
 431 001e 2046     		mov	r0, r4
 432              	.LVL26:
  62:Drivers/lvgl/src/core/lv_obj_pos.c ****     }
 433              		.loc 1 62 9 is_stmt 0 view .LVU123
 434 0020 FFF7FEFF 		bl	lv_obj_set_style_x
 435              	.LVL27:
 436              	.L31:
  62:Drivers/lvgl/src/core/lv_obj_pos.c ****     }
 437              		.loc 1 62 9 view .LVU124
 438              	.LBE549:
 439              	.LBE551:
  49:Drivers/lvgl/src/core/lv_obj_pos.c **** }
 440              		.loc 1 49 5 is_stmt 1 view .LVU125
 441              	.LBB552:
 442              	.LBI552:
  66:Drivers/lvgl/src/core/lv_obj_pos.c **** {
 443              		.loc 1 66 6 view .LVU126
 444              	.LBB553:
  68:Drivers/lvgl/src/core/lv_obj_pos.c **** 
 445              		.loc 1 68 5 view .LVU127
  68:Drivers/lvgl/src/core/lv_obj_pos.c **** 
 446              		.loc 1 68 5 view .LVU128
ARM GAS  /var/folders/0z/tsy30v1j4xl4_7kw94k978ww0000gn/T//ccuxxuhb.s 			page 35


  68:Drivers/lvgl/src/core/lv_obj_pos.c **** 
 447              		.loc 1 68 5 view .LVU129
  70:Drivers/lvgl/src/core/lv_obj_pos.c ****     lv_style_value_t v_y;
 448              		.loc 1 70 5 view .LVU130
  71:Drivers/lvgl/src/core/lv_obj_pos.c **** 
 449              		.loc 1 71 5 view .LVU131
  73:Drivers/lvgl/src/core/lv_obj_pos.c **** 
 450              		.loc 1 73 5 view .LVU132
  73:Drivers/lvgl/src/core/lv_obj_pos.c **** 
 451              		.loc 1 73 13 is_stmt 0 view .LVU133
 452 0024 0023     		movs	r3, #0
 453 0026 01AA     		add	r2, sp, #4
 454 0028 0821     		movs	r1, #8
 455 002a 2046     		mov	r0, r4
 456 002c FFF7FEFF 		bl	lv_obj_get_local_style_prop
 457              	.LVL28:
  75:Drivers/lvgl/src/core/lv_obj_pos.c ****         lv_obj_set_style_y(obj, y, 0);
 458              		.loc 1 75 5 is_stmt 1 view .LVU134
  75:Drivers/lvgl/src/core/lv_obj_pos.c ****         lv_obj_set_style_y(obj, y, 0);
 459              		.loc 1 75 7 is_stmt 0 view .LVU135
 460 0030 0128     		cmp	r0, #1
 461 0032 0BD0     		beq	.L37
  75:Drivers/lvgl/src/core/lv_obj_pos.c ****         lv_obj_set_style_y(obj, y, 0);
 462              		.loc 1 75 45 view .LVU136
 463 0034 20B9     		cbnz	r0, .L28
 464              	.L33:
  76:Drivers/lvgl/src/core/lv_obj_pos.c ****     }
 465              		.loc 1 76 9 is_stmt 1 view .LVU137
 466 0036 0022     		movs	r2, #0
 467 0038 3146     		mov	r1, r6
 468 003a 2046     		mov	r0, r4
 469              	.LVL29:
  76:Drivers/lvgl/src/core/lv_obj_pos.c ****     }
 470              		.loc 1 76 9 is_stmt 0 view .LVU138
 471 003c FFF7FEFF 		bl	lv_obj_set_style_y
 472              	.LVL30:
 473              	.L28:
  76:Drivers/lvgl/src/core/lv_obj_pos.c ****     }
 474              		.loc 1 76 9 view .LVU139
 475              	.LBE553:
 476              	.LBE552:
  50:Drivers/lvgl/src/core/lv_obj_pos.c **** 
 477              		.loc 1 50 1 view .LVU140
 478 0040 02B0     		add	sp, sp, #8
 479              		.cfi_remember_state
 480              		.cfi_def_cfa_offset 16
 481              		@ sp needed
 482 0042 70BD     		pop	{r4, r5, r6, pc}
 483              	.LVL31:
 484              	.L36:
 485              		.cfi_restore_state
 486              	.LBB555:
 487              	.LBB550:
  61:Drivers/lvgl/src/core/lv_obj_pos.c ****         lv_obj_set_style_x(obj, x, 0);
 488              		.loc 1 61 28 view .LVU141
 489 0044 019B     		ldr	r3, [sp, #4]
 490 0046 AB42     		cmp	r3, r5
ARM GAS  /var/folders/0z/tsy30v1j4xl4_7kw94k978ww0000gn/T//ccuxxuhb.s 			page 36


 491 0048 E7D1     		bne	.L30
 492 004a EBE7     		b	.L31
 493              	.LVL32:
 494              	.L37:
  61:Drivers/lvgl/src/core/lv_obj_pos.c ****         lv_obj_set_style_x(obj, x, 0);
 495              		.loc 1 61 28 view .LVU142
 496              	.LBE550:
 497              	.LBE555:
 498              	.LBB556:
 499              	.LBB554:
  75:Drivers/lvgl/src/core/lv_obj_pos.c ****         lv_obj_set_style_y(obj, y, 0);
 500              		.loc 1 75 28 view .LVU143
 501 004c 019B     		ldr	r3, [sp, #4]
 502 004e B342     		cmp	r3, r6
 503 0050 F1D1     		bne	.L33
 504              	.LBE554:
 505              	.LBE556:
  50:Drivers/lvgl/src/core/lv_obj_pos.c **** 
 506              		.loc 1 50 1 view .LVU144
 507 0052 02B0     		add	sp, sp, #8
 508              		.cfi_def_cfa_offset 16
 509              		@ sp needed
 510 0054 70BD     		pop	{r4, r5, r6, pc}
  50:Drivers/lvgl/src/core/lv_obj_pos.c **** 
 511              		.loc 1 50 1 view .LVU145
 512              		.cfi_endproc
 513              	.LFE167:
 515 0056 00BF     		.section	.text.lv_obj_set_x,"ax",%progbits
 516              		.align	1
 517              		.p2align 2,,3
 518              		.global	lv_obj_set_x
 519              		.syntax unified
 520              		.thumb
 521              		.thumb_func
 523              	lv_obj_set_x:
 524              	.LVL33:
 525              	.LFB168:
  53:Drivers/lvgl/src/core/lv_obj_pos.c ****     LV_ASSERT_OBJ(obj, MY_CLASS);
 526              		.loc 1 53 1 is_stmt 1 view -0
 527              		.cfi_startproc
 528              		@ args = 0, pretend = 0, frame = 8
 529              		@ frame_needed = 0, uses_anonymous_args = 0
  54:Drivers/lvgl/src/core/lv_obj_pos.c **** 
 530              		.loc 1 54 5 view .LVU147
  54:Drivers/lvgl/src/core/lv_obj_pos.c **** 
 531              		.loc 1 54 5 view .LVU148
  54:Drivers/lvgl/src/core/lv_obj_pos.c **** 
 532              		.loc 1 54 5 view .LVU149
  56:Drivers/lvgl/src/core/lv_obj_pos.c ****     lv_style_value_t v_x;
 533              		.loc 1 56 5 view .LVU150
  57:Drivers/lvgl/src/core/lv_obj_pos.c **** 
 534              		.loc 1 57 5 view .LVU151
  59:Drivers/lvgl/src/core/lv_obj_pos.c **** 
 535              		.loc 1 59 5 view .LVU152
  53:Drivers/lvgl/src/core/lv_obj_pos.c ****     LV_ASSERT_OBJ(obj, MY_CLASS);
 536              		.loc 1 53 1 is_stmt 0 view .LVU153
 537 0000 30B5     		push	{r4, r5, lr}
ARM GAS  /var/folders/0z/tsy30v1j4xl4_7kw94k978ww0000gn/T//ccuxxuhb.s 			page 37


 538              		.cfi_def_cfa_offset 12
 539              		.cfi_offset 4, -12
 540              		.cfi_offset 5, -8
 541              		.cfi_offset 14, -4
 542 0002 83B0     		sub	sp, sp, #12
 543              		.cfi_def_cfa_offset 24
  59:Drivers/lvgl/src/core/lv_obj_pos.c **** 
 544              		.loc 1 59 13 view .LVU154
 545 0004 0023     		movs	r3, #0
 546 0006 01AA     		add	r2, sp, #4
  53:Drivers/lvgl/src/core/lv_obj_pos.c ****     LV_ASSERT_OBJ(obj, MY_CLASS);
 547              		.loc 1 53 1 view .LVU155
 548 0008 0C46     		mov	r4, r1
  59:Drivers/lvgl/src/core/lv_obj_pos.c **** 
 549              		.loc 1 59 13 view .LVU156
 550 000a 0721     		movs	r1, #7
 551              	.LVL34:
  53:Drivers/lvgl/src/core/lv_obj_pos.c ****     LV_ASSERT_OBJ(obj, MY_CLASS);
 552              		.loc 1 53 1 view .LVU157
 553 000c 0546     		mov	r5, r0
  59:Drivers/lvgl/src/core/lv_obj_pos.c **** 
 554              		.loc 1 59 13 view .LVU158
 555 000e FFF7FEFF 		bl	lv_obj_get_local_style_prop
 556              	.LVL35:
  61:Drivers/lvgl/src/core/lv_obj_pos.c ****         lv_obj_set_style_x(obj, x, 0);
 557              		.loc 1 61 5 is_stmt 1 view .LVU159
  61:Drivers/lvgl/src/core/lv_obj_pos.c ****         lv_obj_set_style_x(obj, x, 0);
 558              		.loc 1 61 7 is_stmt 0 view .LVU160
 559 0012 0128     		cmp	r0, #1
 560 0014 07D0     		beq	.L43
  61:Drivers/lvgl/src/core/lv_obj_pos.c ****         lv_obj_set_style_x(obj, x, 0);
 561              		.loc 1 61 45 discriminator 3 view .LVU161
 562 0016 20B9     		cbnz	r0, .L38
 563              	.L40:
  62:Drivers/lvgl/src/core/lv_obj_pos.c ****     }
 564              		.loc 1 62 9 is_stmt 1 view .LVU162
 565 0018 0022     		movs	r2, #0
 566 001a 2146     		mov	r1, r4
 567 001c 2846     		mov	r0, r5
 568              	.LVL36:
  62:Drivers/lvgl/src/core/lv_obj_pos.c ****     }
 569              		.loc 1 62 9 is_stmt 0 view .LVU163
 570 001e FFF7FEFF 		bl	lv_obj_set_style_x
 571              	.LVL37:
 572              	.L38:
  64:Drivers/lvgl/src/core/lv_obj_pos.c **** 
 573              		.loc 1 64 1 view .LVU164
 574 0022 03B0     		add	sp, sp, #12
 575              		.cfi_remember_state
 576              		.cfi_def_cfa_offset 12
 577              		@ sp needed
 578 0024 30BD     		pop	{r4, r5, pc}
 579              	.LVL38:
 580              	.L43:
 581              		.cfi_restore_state
  61:Drivers/lvgl/src/core/lv_obj_pos.c ****         lv_obj_set_style_x(obj, x, 0);
 582              		.loc 1 61 28 discriminator 1 view .LVU165
ARM GAS  /var/folders/0z/tsy30v1j4xl4_7kw94k978ww0000gn/T//ccuxxuhb.s 			page 38


 583 0026 019B     		ldr	r3, [sp, #4]
 584 0028 A342     		cmp	r3, r4
 585 002a F5D1     		bne	.L40
  64:Drivers/lvgl/src/core/lv_obj_pos.c **** 
 586              		.loc 1 64 1 view .LVU166
 587 002c 03B0     		add	sp, sp, #12
 588              		.cfi_def_cfa_offset 12
 589              		@ sp needed
 590 002e 30BD     		pop	{r4, r5, pc}
  64:Drivers/lvgl/src/core/lv_obj_pos.c **** 
 591              		.loc 1 64 1 view .LVU167
 592              		.cfi_endproc
 593              	.LFE168:
 595              		.section	.text.lv_obj_set_y,"ax",%progbits
 596              		.align	1
 597              		.p2align 2,,3
 598              		.global	lv_obj_set_y
 599              		.syntax unified
 600              		.thumb
 601              		.thumb_func
 603              	lv_obj_set_y:
 604              	.LVL39:
 605              	.LFB169:
  67:Drivers/lvgl/src/core/lv_obj_pos.c ****     LV_ASSERT_OBJ(obj, MY_CLASS);
 606              		.loc 1 67 1 is_stmt 1 view -0
 607              		.cfi_startproc
 608              		@ args = 0, pretend = 0, frame = 8
 609              		@ frame_needed = 0, uses_anonymous_args = 0
  68:Drivers/lvgl/src/core/lv_obj_pos.c **** 
 610              		.loc 1 68 5 view .LVU169
  68:Drivers/lvgl/src/core/lv_obj_pos.c **** 
 611              		.loc 1 68 5 view .LVU170
  68:Drivers/lvgl/src/core/lv_obj_pos.c **** 
 612              		.loc 1 68 5 view .LVU171
  70:Drivers/lvgl/src/core/lv_obj_pos.c ****     lv_style_value_t v_y;
 613              		.loc 1 70 5 view .LVU172
  71:Drivers/lvgl/src/core/lv_obj_pos.c **** 
 614              		.loc 1 71 5 view .LVU173
  73:Drivers/lvgl/src/core/lv_obj_pos.c **** 
 615              		.loc 1 73 5 view .LVU174
  67:Drivers/lvgl/src/core/lv_obj_pos.c ****     LV_ASSERT_OBJ(obj, MY_CLASS);
 616              		.loc 1 67 1 is_stmt 0 view .LVU175
 617 0000 30B5     		push	{r4, r5, lr}
 618              		.cfi_def_cfa_offset 12
 619              		.cfi_offset 4, -12
 620              		.cfi_offset 5, -8
 621              		.cfi_offset 14, -4
 622 0002 83B0     		sub	sp, sp, #12
 623              		.cfi_def_cfa_offset 24
  73:Drivers/lvgl/src/core/lv_obj_pos.c **** 
 624              		.loc 1 73 13 view .LVU176
 625 0004 0023     		movs	r3, #0
 626 0006 01AA     		add	r2, sp, #4
  67:Drivers/lvgl/src/core/lv_obj_pos.c ****     LV_ASSERT_OBJ(obj, MY_CLASS);
 627              		.loc 1 67 1 view .LVU177
 628 0008 0C46     		mov	r4, r1
  73:Drivers/lvgl/src/core/lv_obj_pos.c **** 
ARM GAS  /var/folders/0z/tsy30v1j4xl4_7kw94k978ww0000gn/T//ccuxxuhb.s 			page 39


 629              		.loc 1 73 13 view .LVU178
 630 000a 0821     		movs	r1, #8
 631              	.LVL40:
  67:Drivers/lvgl/src/core/lv_obj_pos.c ****     LV_ASSERT_OBJ(obj, MY_CLASS);
 632              		.loc 1 67 1 view .LVU179
 633 000c 0546     		mov	r5, r0
  73:Drivers/lvgl/src/core/lv_obj_pos.c **** 
 634              		.loc 1 73 13 view .LVU180
 635 000e FFF7FEFF 		bl	lv_obj_get_local_style_prop
 636              	.LVL41:
  75:Drivers/lvgl/src/core/lv_obj_pos.c ****         lv_obj_set_style_y(obj, y, 0);
 637              		.loc 1 75 5 is_stmt 1 view .LVU181
  75:Drivers/lvgl/src/core/lv_obj_pos.c ****         lv_obj_set_style_y(obj, y, 0);
 638              		.loc 1 75 7 is_stmt 0 view .LVU182
 639 0012 0128     		cmp	r0, #1
 640 0014 07D0     		beq	.L49
  75:Drivers/lvgl/src/core/lv_obj_pos.c ****         lv_obj_set_style_y(obj, y, 0);
 641              		.loc 1 75 45 discriminator 3 view .LVU183
 642 0016 20B9     		cbnz	r0, .L44
 643              	.L46:
  76:Drivers/lvgl/src/core/lv_obj_pos.c ****     }
 644              		.loc 1 76 9 is_stmt 1 view .LVU184
 645 0018 0022     		movs	r2, #0
 646 001a 2146     		mov	r1, r4
 647 001c 2846     		mov	r0, r5
 648              	.LVL42:
  76:Drivers/lvgl/src/core/lv_obj_pos.c ****     }
 649              		.loc 1 76 9 is_stmt 0 view .LVU185
 650 001e FFF7FEFF 		bl	lv_obj_set_style_y
 651              	.LVL43:
 652              	.L44:
  78:Drivers/lvgl/src/core/lv_obj_pos.c **** 
 653              		.loc 1 78 1 view .LVU186
 654 0022 03B0     		add	sp, sp, #12
 655              		.cfi_remember_state
 656              		.cfi_def_cfa_offset 12
 657              		@ sp needed
 658 0024 30BD     		pop	{r4, r5, pc}
 659              	.LVL44:
 660              	.L49:
 661              		.cfi_restore_state
  75:Drivers/lvgl/src/core/lv_obj_pos.c ****         lv_obj_set_style_y(obj, y, 0);
 662              		.loc 1 75 28 discriminator 1 view .LVU187
 663 0026 019B     		ldr	r3, [sp, #4]
 664 0028 A342     		cmp	r3, r4
 665 002a F5D1     		bne	.L46
  78:Drivers/lvgl/src/core/lv_obj_pos.c **** 
 666              		.loc 1 78 1 view .LVU188
 667 002c 03B0     		add	sp, sp, #12
 668              		.cfi_def_cfa_offset 12
 669              		@ sp needed
 670 002e 30BD     		pop	{r4, r5, pc}
  78:Drivers/lvgl/src/core/lv_obj_pos.c **** 
 671              		.loc 1 78 1 view .LVU189
 672              		.cfi_endproc
 673              	.LFE169:
 675              		.section	.text.lv_obj_set_size,"ax",%progbits
ARM GAS  /var/folders/0z/tsy30v1j4xl4_7kw94k978ww0000gn/T//ccuxxuhb.s 			page 40


 676              		.align	1
 677              		.p2align 2,,3
 678              		.global	lv_obj_set_size
 679              		.syntax unified
 680              		.thumb
 681              		.thumb_func
 683              	lv_obj_set_size:
 684              	.LVL45:
 685              	.LFB171:
 216:Drivers/lvgl/src/core/lv_obj_pos.c ****     LV_ASSERT_OBJ(obj, MY_CLASS);
 686              		.loc 1 216 1 is_stmt 1 view -0
 687              		.cfi_startproc
 688              		@ args = 0, pretend = 0, frame = 8
 689              		@ frame_needed = 0, uses_anonymous_args = 0
 217:Drivers/lvgl/src/core/lv_obj_pos.c **** 
 690              		.loc 1 217 5 view .LVU191
 217:Drivers/lvgl/src/core/lv_obj_pos.c **** 
 691              		.loc 1 217 5 view .LVU192
 217:Drivers/lvgl/src/core/lv_obj_pos.c **** 
 692              		.loc 1 217 5 view .LVU193
 219:Drivers/lvgl/src/core/lv_obj_pos.c ****     lv_obj_set_height(obj, h);
 693              		.loc 1 219 5 view .LVU194
 216:Drivers/lvgl/src/core/lv_obj_pos.c ****     LV_ASSERT_OBJ(obj, MY_CLASS);
 694              		.loc 1 216 1 is_stmt 0 view .LVU195
 695 0000 70B5     		push	{r4, r5, r6, lr}
 696              		.cfi_def_cfa_offset 16
 697              		.cfi_offset 4, -16
 698              		.cfi_offset 5, -12
 699              		.cfi_offset 6, -8
 700              		.cfi_offset 14, -4
 701 0002 82B0     		sub	sp, sp, #8
 702              		.cfi_def_cfa_offset 24
 216:Drivers/lvgl/src/core/lv_obj_pos.c ****     LV_ASSERT_OBJ(obj, MY_CLASS);
 703              		.loc 1 216 1 view .LVU196
 704 0004 0D46     		mov	r5, r1
 705 0006 1646     		mov	r6, r2
 706              	.LBB561:
 707              	.LBB562:
 229:Drivers/lvgl/src/core/lv_obj_pos.c **** 
 708              		.loc 1 229 13 view .LVU197
 709 0008 0023     		movs	r3, #0
 710 000a 01AA     		add	r2, sp, #4
 711              	.LVL46:
 229:Drivers/lvgl/src/core/lv_obj_pos.c **** 
 712              		.loc 1 229 13 view .LVU198
 713 000c 0121     		movs	r1, #1
 714              	.LVL47:
 229:Drivers/lvgl/src/core/lv_obj_pos.c **** 
 715              		.loc 1 229 13 view .LVU199
 716              	.LBE562:
 717              	.LBE561:
 216:Drivers/lvgl/src/core/lv_obj_pos.c ****     LV_ASSERT_OBJ(obj, MY_CLASS);
 718              		.loc 1 216 1 view .LVU200
 719 000e 0446     		mov	r4, r0
 720              	.LVL48:
 721              	.LBB565:
 722              	.LBI561:
ARM GAS  /var/folders/0z/tsy30v1j4xl4_7kw94k978ww0000gn/T//ccuxxuhb.s 			page 41


 223:Drivers/lvgl/src/core/lv_obj_pos.c **** {
 723              		.loc 1 223 6 is_stmt 1 view .LVU201
 724              	.LBB563:
 225:Drivers/lvgl/src/core/lv_obj_pos.c ****     lv_res_t res_w;
 725              		.loc 1 225 5 view .LVU202
 225:Drivers/lvgl/src/core/lv_obj_pos.c ****     lv_res_t res_w;
 726              		.loc 1 225 5 view .LVU203
 225:Drivers/lvgl/src/core/lv_obj_pos.c ****     lv_res_t res_w;
 727              		.loc 1 225 5 view .LVU204
 226:Drivers/lvgl/src/core/lv_obj_pos.c ****     lv_style_value_t v_w;
 728              		.loc 1 226 5 view .LVU205
 227:Drivers/lvgl/src/core/lv_obj_pos.c **** 
 729              		.loc 1 227 5 view .LVU206
 229:Drivers/lvgl/src/core/lv_obj_pos.c **** 
 730              		.loc 1 229 5 view .LVU207
 229:Drivers/lvgl/src/core/lv_obj_pos.c **** 
 731              		.loc 1 229 13 is_stmt 0 view .LVU208
 732 0010 FFF7FEFF 		bl	lv_obj_get_local_style_prop
 733              	.LVL49:
 231:Drivers/lvgl/src/core/lv_obj_pos.c ****         lv_obj_set_style_width(obj, w, 0);
 734              		.loc 1 231 5 is_stmt 1 view .LVU209
 231:Drivers/lvgl/src/core/lv_obj_pos.c ****         lv_obj_set_style_width(obj, w, 0);
 735              		.loc 1 231 7 is_stmt 0 view .LVU210
 736 0014 0128     		cmp	r0, #1
 737 0016 15D0     		beq	.L58
 231:Drivers/lvgl/src/core/lv_obj_pos.c ****         lv_obj_set_style_width(obj, w, 0);
 738              		.loc 1 231 45 view .LVU211
 739 0018 20B9     		cbnz	r0, .L53
 740              	.L52:
 232:Drivers/lvgl/src/core/lv_obj_pos.c ****     }
 741              		.loc 1 232 9 is_stmt 1 view .LVU212
 742 001a 0022     		movs	r2, #0
 743 001c 2946     		mov	r1, r5
 744 001e 2046     		mov	r0, r4
 745              	.LVL50:
 232:Drivers/lvgl/src/core/lv_obj_pos.c ****     }
 746              		.loc 1 232 9 is_stmt 0 view .LVU213
 747 0020 FFF7FEFF 		bl	lv_obj_set_style_width
 748              	.LVL51:
 749              	.L53:
 232:Drivers/lvgl/src/core/lv_obj_pos.c ****     }
 750              		.loc 1 232 9 view .LVU214
 751              	.LBE563:
 752              	.LBE565:
 220:Drivers/lvgl/src/core/lv_obj_pos.c **** }
 753              		.loc 1 220 5 is_stmt 1 view .LVU215
 754              	.LBB566:
 755              	.LBI566:
 236:Drivers/lvgl/src/core/lv_obj_pos.c **** {
 756              		.loc 1 236 6 view .LVU216
 757              	.LBB567:
 238:Drivers/lvgl/src/core/lv_obj_pos.c ****     lv_res_t res_h;
 758              		.loc 1 238 5 view .LVU217
 238:Drivers/lvgl/src/core/lv_obj_pos.c ****     lv_res_t res_h;
 759              		.loc 1 238 5 view .LVU218
 238:Drivers/lvgl/src/core/lv_obj_pos.c ****     lv_res_t res_h;
 760              		.loc 1 238 5 view .LVU219
ARM GAS  /var/folders/0z/tsy30v1j4xl4_7kw94k978ww0000gn/T//ccuxxuhb.s 			page 42


 239:Drivers/lvgl/src/core/lv_obj_pos.c ****     lv_style_value_t v_h;
 761              		.loc 1 239 5 view .LVU220
 240:Drivers/lvgl/src/core/lv_obj_pos.c **** 
 762              		.loc 1 240 5 view .LVU221
 242:Drivers/lvgl/src/core/lv_obj_pos.c **** 
 763              		.loc 1 242 5 view .LVU222
 242:Drivers/lvgl/src/core/lv_obj_pos.c **** 
 764              		.loc 1 242 13 is_stmt 0 view .LVU223
 765 0024 0023     		movs	r3, #0
 766 0026 01AA     		add	r2, sp, #4
 767 0028 0421     		movs	r1, #4
 768 002a 2046     		mov	r0, r4
 769 002c FFF7FEFF 		bl	lv_obj_get_local_style_prop
 770              	.LVL52:
 244:Drivers/lvgl/src/core/lv_obj_pos.c ****         lv_obj_set_style_height(obj, h, 0);
 771              		.loc 1 244 5 is_stmt 1 view .LVU224
 244:Drivers/lvgl/src/core/lv_obj_pos.c ****         lv_obj_set_style_height(obj, h, 0);
 772              		.loc 1 244 7 is_stmt 0 view .LVU225
 773 0030 0128     		cmp	r0, #1
 774 0032 0BD0     		beq	.L59
 244:Drivers/lvgl/src/core/lv_obj_pos.c ****         lv_obj_set_style_height(obj, h, 0);
 775              		.loc 1 244 45 view .LVU226
 776 0034 20B9     		cbnz	r0, .L50
 777              	.L55:
 245:Drivers/lvgl/src/core/lv_obj_pos.c ****     }
 778              		.loc 1 245 9 is_stmt 1 view .LVU227
 779 0036 0022     		movs	r2, #0
 780 0038 3146     		mov	r1, r6
 781 003a 2046     		mov	r0, r4
 782              	.LVL53:
 245:Drivers/lvgl/src/core/lv_obj_pos.c ****     }
 783              		.loc 1 245 9 is_stmt 0 view .LVU228
 784 003c FFF7FEFF 		bl	lv_obj_set_style_height
 785              	.LVL54:
 786              	.L50:
 245:Drivers/lvgl/src/core/lv_obj_pos.c ****     }
 787              		.loc 1 245 9 view .LVU229
 788              	.LBE567:
 789              	.LBE566:
 221:Drivers/lvgl/src/core/lv_obj_pos.c **** 
 790              		.loc 1 221 1 view .LVU230
 791 0040 02B0     		add	sp, sp, #8
 792              		.cfi_remember_state
 793              		.cfi_def_cfa_offset 16
 794              		@ sp needed
 795 0042 70BD     		pop	{r4, r5, r6, pc}
 796              	.LVL55:
 797              	.L58:
 798              		.cfi_restore_state
 799              	.LBB569:
 800              	.LBB564:
 231:Drivers/lvgl/src/core/lv_obj_pos.c ****         lv_obj_set_style_width(obj, w, 0);
 801              		.loc 1 231 28 view .LVU231
 802 0044 019B     		ldr	r3, [sp, #4]
 803 0046 AB42     		cmp	r3, r5
 804 0048 E7D1     		bne	.L52
 805 004a EBE7     		b	.L53
ARM GAS  /var/folders/0z/tsy30v1j4xl4_7kw94k978ww0000gn/T//ccuxxuhb.s 			page 43


 806              	.LVL56:
 807              	.L59:
 231:Drivers/lvgl/src/core/lv_obj_pos.c ****         lv_obj_set_style_width(obj, w, 0);
 808              		.loc 1 231 28 view .LVU232
 809              	.LBE564:
 810              	.LBE569:
 811              	.LBB570:
 812              	.LBB568:
 244:Drivers/lvgl/src/core/lv_obj_pos.c ****         lv_obj_set_style_height(obj, h, 0);
 813              		.loc 1 244 28 view .LVU233
 814 004c 019B     		ldr	r3, [sp, #4]
 815 004e B342     		cmp	r3, r6
 816 0050 F1D1     		bne	.L55
 817              	.LBE568:
 818              	.LBE570:
 221:Drivers/lvgl/src/core/lv_obj_pos.c **** 
 819              		.loc 1 221 1 view .LVU234
 820 0052 02B0     		add	sp, sp, #8
 821              		.cfi_def_cfa_offset 16
 822              		@ sp needed
 823 0054 70BD     		pop	{r4, r5, r6, pc}
 221:Drivers/lvgl/src/core/lv_obj_pos.c **** 
 824              		.loc 1 221 1 view .LVU235
 825              		.cfi_endproc
 826              	.LFE171:
 828 0056 00BF     		.section	.text.lv_obj_set_width,"ax",%progbits
 829              		.align	1
 830              		.p2align 2,,3
 831              		.global	lv_obj_set_width
 832              		.syntax unified
 833              		.thumb
 834              		.thumb_func
 836              	lv_obj_set_width:
 837              	.LVL57:
 838              	.LFB172:
 224:Drivers/lvgl/src/core/lv_obj_pos.c ****     LV_ASSERT_OBJ(obj, MY_CLASS);
 839              		.loc 1 224 1 is_stmt 1 view -0
 840              		.cfi_startproc
 841              		@ args = 0, pretend = 0, frame = 8
 842              		@ frame_needed = 0, uses_anonymous_args = 0
 225:Drivers/lvgl/src/core/lv_obj_pos.c ****     lv_res_t res_w;
 843              		.loc 1 225 5 view .LVU237
 225:Drivers/lvgl/src/core/lv_obj_pos.c ****     lv_res_t res_w;
 844              		.loc 1 225 5 view .LVU238
 225:Drivers/lvgl/src/core/lv_obj_pos.c ****     lv_res_t res_w;
 845              		.loc 1 225 5 view .LVU239
 226:Drivers/lvgl/src/core/lv_obj_pos.c ****     lv_style_value_t v_w;
 846              		.loc 1 226 5 view .LVU240
 227:Drivers/lvgl/src/core/lv_obj_pos.c **** 
 847              		.loc 1 227 5 view .LVU241
 229:Drivers/lvgl/src/core/lv_obj_pos.c **** 
 848              		.loc 1 229 5 view .LVU242
 224:Drivers/lvgl/src/core/lv_obj_pos.c ****     LV_ASSERT_OBJ(obj, MY_CLASS);
 849              		.loc 1 224 1 is_stmt 0 view .LVU243
 850 0000 30B5     		push	{r4, r5, lr}
 851              		.cfi_def_cfa_offset 12
 852              		.cfi_offset 4, -12
ARM GAS  /var/folders/0z/tsy30v1j4xl4_7kw94k978ww0000gn/T//ccuxxuhb.s 			page 44


 853              		.cfi_offset 5, -8
 854              		.cfi_offset 14, -4
 855 0002 83B0     		sub	sp, sp, #12
 856              		.cfi_def_cfa_offset 24
 229:Drivers/lvgl/src/core/lv_obj_pos.c **** 
 857              		.loc 1 229 13 view .LVU244
 858 0004 0023     		movs	r3, #0
 859 0006 01AA     		add	r2, sp, #4
 224:Drivers/lvgl/src/core/lv_obj_pos.c ****     LV_ASSERT_OBJ(obj, MY_CLASS);
 860              		.loc 1 224 1 view .LVU245
 861 0008 0C46     		mov	r4, r1
 229:Drivers/lvgl/src/core/lv_obj_pos.c **** 
 862              		.loc 1 229 13 view .LVU246
 863 000a 0121     		movs	r1, #1
 864              	.LVL58:
 224:Drivers/lvgl/src/core/lv_obj_pos.c ****     LV_ASSERT_OBJ(obj, MY_CLASS);
 865              		.loc 1 224 1 view .LVU247
 866 000c 0546     		mov	r5, r0
 229:Drivers/lvgl/src/core/lv_obj_pos.c **** 
 867              		.loc 1 229 13 view .LVU248
 868 000e FFF7FEFF 		bl	lv_obj_get_local_style_prop
 869              	.LVL59:
 231:Drivers/lvgl/src/core/lv_obj_pos.c ****         lv_obj_set_style_width(obj, w, 0);
 870              		.loc 1 231 5 is_stmt 1 view .LVU249
 231:Drivers/lvgl/src/core/lv_obj_pos.c ****         lv_obj_set_style_width(obj, w, 0);
 871              		.loc 1 231 7 is_stmt 0 view .LVU250
 872 0012 0128     		cmp	r0, #1
 873 0014 07D0     		beq	.L65
 231:Drivers/lvgl/src/core/lv_obj_pos.c ****         lv_obj_set_style_width(obj, w, 0);
 874              		.loc 1 231 45 discriminator 3 view .LVU251
 875 0016 20B9     		cbnz	r0, .L60
 876              	.L62:
 232:Drivers/lvgl/src/core/lv_obj_pos.c ****     }
 877              		.loc 1 232 9 is_stmt 1 view .LVU252
 878 0018 0022     		movs	r2, #0
 879 001a 2146     		mov	r1, r4
 880 001c 2846     		mov	r0, r5
 881              	.LVL60:
 232:Drivers/lvgl/src/core/lv_obj_pos.c ****     }
 882              		.loc 1 232 9 is_stmt 0 view .LVU253
 883 001e FFF7FEFF 		bl	lv_obj_set_style_width
 884              	.LVL61:
 885              	.L60:
 234:Drivers/lvgl/src/core/lv_obj_pos.c **** 
 886              		.loc 1 234 1 view .LVU254
 887 0022 03B0     		add	sp, sp, #12
 888              		.cfi_remember_state
 889              		.cfi_def_cfa_offset 12
 890              		@ sp needed
 891 0024 30BD     		pop	{r4, r5, pc}
 892              	.LVL62:
 893              	.L65:
 894              		.cfi_restore_state
 231:Drivers/lvgl/src/core/lv_obj_pos.c ****         lv_obj_set_style_width(obj, w, 0);
 895              		.loc 1 231 28 discriminator 1 view .LVU255
 896 0026 019B     		ldr	r3, [sp, #4]
 897 0028 A342     		cmp	r3, r4
ARM GAS  /var/folders/0z/tsy30v1j4xl4_7kw94k978ww0000gn/T//ccuxxuhb.s 			page 45


 898 002a F5D1     		bne	.L62
 234:Drivers/lvgl/src/core/lv_obj_pos.c **** 
 899              		.loc 1 234 1 view .LVU256
 900 002c 03B0     		add	sp, sp, #12
 901              		.cfi_def_cfa_offset 12
 902              		@ sp needed
 903 002e 30BD     		pop	{r4, r5, pc}
 234:Drivers/lvgl/src/core/lv_obj_pos.c **** 
 904              		.loc 1 234 1 view .LVU257
 905              		.cfi_endproc
 906              	.LFE172:
 908              		.section	.text.lv_obj_set_height,"ax",%progbits
 909              		.align	1
 910              		.p2align 2,,3
 911              		.global	lv_obj_set_height
 912              		.syntax unified
 913              		.thumb
 914              		.thumb_func
 916              	lv_obj_set_height:
 917              	.LVL63:
 918              	.LFB173:
 237:Drivers/lvgl/src/core/lv_obj_pos.c ****     LV_ASSERT_OBJ(obj, MY_CLASS);
 919              		.loc 1 237 1 is_stmt 1 view -0
 920              		.cfi_startproc
 921              		@ args = 0, pretend = 0, frame = 8
 922              		@ frame_needed = 0, uses_anonymous_args = 0
 238:Drivers/lvgl/src/core/lv_obj_pos.c ****     lv_res_t res_h;
 923              		.loc 1 238 5 view .LVU259
 238:Drivers/lvgl/src/core/lv_obj_pos.c ****     lv_res_t res_h;
 924              		.loc 1 238 5 view .LVU260
 238:Drivers/lvgl/src/core/lv_obj_pos.c ****     lv_res_t res_h;
 925              		.loc 1 238 5 view .LVU261
 239:Drivers/lvgl/src/core/lv_obj_pos.c ****     lv_style_value_t v_h;
 926              		.loc 1 239 5 view .LVU262
 240:Drivers/lvgl/src/core/lv_obj_pos.c **** 
 927              		.loc 1 240 5 view .LVU263
 242:Drivers/lvgl/src/core/lv_obj_pos.c **** 
 928              		.loc 1 242 5 view .LVU264
 237:Drivers/lvgl/src/core/lv_obj_pos.c ****     LV_ASSERT_OBJ(obj, MY_CLASS);
 929              		.loc 1 237 1 is_stmt 0 view .LVU265
 930 0000 30B5     		push	{r4, r5, lr}
 931              		.cfi_def_cfa_offset 12
 932              		.cfi_offset 4, -12
 933              		.cfi_offset 5, -8
 934              		.cfi_offset 14, -4
 935 0002 83B0     		sub	sp, sp, #12
 936              		.cfi_def_cfa_offset 24
 242:Drivers/lvgl/src/core/lv_obj_pos.c **** 
 937              		.loc 1 242 13 view .LVU266
 938 0004 0023     		movs	r3, #0
 939 0006 01AA     		add	r2, sp, #4
 237:Drivers/lvgl/src/core/lv_obj_pos.c ****     LV_ASSERT_OBJ(obj, MY_CLASS);
 940              		.loc 1 237 1 view .LVU267
 941 0008 0C46     		mov	r4, r1
 242:Drivers/lvgl/src/core/lv_obj_pos.c **** 
 942              		.loc 1 242 13 view .LVU268
 943 000a 0421     		movs	r1, #4
ARM GAS  /var/folders/0z/tsy30v1j4xl4_7kw94k978ww0000gn/T//ccuxxuhb.s 			page 46


 944              	.LVL64:
 237:Drivers/lvgl/src/core/lv_obj_pos.c ****     LV_ASSERT_OBJ(obj, MY_CLASS);
 945              		.loc 1 237 1 view .LVU269
 946 000c 0546     		mov	r5, r0
 242:Drivers/lvgl/src/core/lv_obj_pos.c **** 
 947              		.loc 1 242 13 view .LVU270
 948 000e FFF7FEFF 		bl	lv_obj_get_local_style_prop
 949              	.LVL65:
 244:Drivers/lvgl/src/core/lv_obj_pos.c ****         lv_obj_set_style_height(obj, h, 0);
 950              		.loc 1 244 5 is_stmt 1 view .LVU271
 244:Drivers/lvgl/src/core/lv_obj_pos.c ****         lv_obj_set_style_height(obj, h, 0);
 951              		.loc 1 244 7 is_stmt 0 view .LVU272
 952 0012 0128     		cmp	r0, #1
 953 0014 07D0     		beq	.L71
 244:Drivers/lvgl/src/core/lv_obj_pos.c ****         lv_obj_set_style_height(obj, h, 0);
 954              		.loc 1 244 45 discriminator 3 view .LVU273
 955 0016 20B9     		cbnz	r0, .L66
 956              	.L68:
 245:Drivers/lvgl/src/core/lv_obj_pos.c ****     }
 957              		.loc 1 245 9 is_stmt 1 view .LVU274
 958 0018 0022     		movs	r2, #0
 959 001a 2146     		mov	r1, r4
 960 001c 2846     		mov	r0, r5
 961              	.LVL66:
 245:Drivers/lvgl/src/core/lv_obj_pos.c ****     }
 962              		.loc 1 245 9 is_stmt 0 view .LVU275
 963 001e FFF7FEFF 		bl	lv_obj_set_style_height
 964              	.LVL67:
 965              	.L66:
 247:Drivers/lvgl/src/core/lv_obj_pos.c **** 
 966              		.loc 1 247 1 view .LVU276
 967 0022 03B0     		add	sp, sp, #12
 968              		.cfi_remember_state
 969              		.cfi_def_cfa_offset 12
 970              		@ sp needed
 971 0024 30BD     		pop	{r4, r5, pc}
 972              	.LVL68:
 973              	.L71:
 974              		.cfi_restore_state
 244:Drivers/lvgl/src/core/lv_obj_pos.c ****         lv_obj_set_style_height(obj, h, 0);
 975              		.loc 1 244 28 discriminator 1 view .LVU277
 976 0026 019B     		ldr	r3, [sp, #4]
 977 0028 A342     		cmp	r3, r4
 978 002a F5D1     		bne	.L68
 247:Drivers/lvgl/src/core/lv_obj_pos.c **** 
 979              		.loc 1 247 1 view .LVU278
 980 002c 03B0     		add	sp, sp, #12
 981              		.cfi_def_cfa_offset 12
 982              		@ sp needed
 983 002e 30BD     		pop	{r4, r5, pc}
 247:Drivers/lvgl/src/core/lv_obj_pos.c **** 
 984              		.loc 1 247 1 view .LVU279
 985              		.cfi_endproc
 986              	.LFE173:
 988              		.section	.text.lv_obj_set_content_width,"ax",%progbits
 989              		.align	1
 990              		.p2align 2,,3
ARM GAS  /var/folders/0z/tsy30v1j4xl4_7kw94k978ww0000gn/T//ccuxxuhb.s 			page 47


 991              		.global	lv_obj_set_content_width
 992              		.syntax unified
 993              		.thumb
 994              		.thumb_func
 996              	lv_obj_set_content_width:
 997              	.LVL69:
 998              	.LFB174:
 250:Drivers/lvgl/src/core/lv_obj_pos.c ****     lv_coord_t pleft = lv_obj_get_style_pad_left(obj, LV_PART_MAIN);
 999              		.loc 1 250 1 is_stmt 1 view -0
 1000              		.cfi_startproc
 1001              		@ args = 0, pretend = 0, frame = 8
 1002              		@ frame_needed = 0, uses_anonymous_args = 0
 251:Drivers/lvgl/src/core/lv_obj_pos.c ****     lv_coord_t pright = lv_obj_get_style_pad_right(obj, LV_PART_MAIN);
 1003              		.loc 1 251 5 view .LVU281
 250:Drivers/lvgl/src/core/lv_obj_pos.c ****     lv_coord_t pleft = lv_obj_get_style_pad_left(obj, LV_PART_MAIN);
 1004              		.loc 1 250 1 is_stmt 0 view .LVU282
 1005 0000 F0B5     		push	{r4, r5, r6, r7, lr}
 1006              		.cfi_def_cfa_offset 20
 1007              		.cfi_offset 4, -20
 1008              		.cfi_offset 5, -16
 1009              		.cfi_offset 6, -12
 1010              		.cfi_offset 7, -8
 1011              		.cfi_offset 14, -4
 1012              	.LBB579:
 1013              	.LBB580:
 101:Drivers/lvgl/src/core/lv_obj_style_gen.h **** }
 102:Drivers/lvgl/src/core/lv_obj_style_gen.h **** 
 103:Drivers/lvgl/src/core/lv_obj_style_gen.h **** static inline lv_coord_t lv_obj_get_style_pad_top(const struct _lv_obj_t * obj, uint32_t part)
 104:Drivers/lvgl/src/core/lv_obj_style_gen.h **** {
 105:Drivers/lvgl/src/core/lv_obj_style_gen.h ****     lv_style_value_t v = lv_obj_get_style_prop(obj, part, LV_STYLE_PAD_TOP);
 106:Drivers/lvgl/src/core/lv_obj_style_gen.h ****     return (lv_coord_t)v.num;
 107:Drivers/lvgl/src/core/lv_obj_style_gen.h **** }
 108:Drivers/lvgl/src/core/lv_obj_style_gen.h **** 
 109:Drivers/lvgl/src/core/lv_obj_style_gen.h **** static inline lv_coord_t lv_obj_get_style_pad_bottom(const struct _lv_obj_t * obj, uint32_t part)
 110:Drivers/lvgl/src/core/lv_obj_style_gen.h **** {
 111:Drivers/lvgl/src/core/lv_obj_style_gen.h ****     lv_style_value_t v = lv_obj_get_style_prop(obj, part, LV_STYLE_PAD_BOTTOM);
 112:Drivers/lvgl/src/core/lv_obj_style_gen.h ****     return (lv_coord_t)v.num;
 113:Drivers/lvgl/src/core/lv_obj_style_gen.h **** }
 114:Drivers/lvgl/src/core/lv_obj_style_gen.h **** 
 115:Drivers/lvgl/src/core/lv_obj_style_gen.h **** static inline lv_coord_t lv_obj_get_style_pad_left(const struct _lv_obj_t * obj, uint32_t part)
 116:Drivers/lvgl/src/core/lv_obj_style_gen.h **** {
 117:Drivers/lvgl/src/core/lv_obj_style_gen.h ****     lv_style_value_t v = lv_obj_get_style_prop(obj, part, LV_STYLE_PAD_LEFT);
 1014              		.loc 2 117 26 view .LVU283
 1015 0002 1222     		movs	r2, #18
 1016              	.LBE580:
 1017              	.LBE579:
 250:Drivers/lvgl/src/core/lv_obj_pos.c ****     lv_coord_t pleft = lv_obj_get_style_pad_left(obj, LV_PART_MAIN);
 1018              		.loc 1 250 1 view .LVU284
 1019 0004 83B0     		sub	sp, sp, #12
 1020              		.cfi_def_cfa_offset 32
 250:Drivers/lvgl/src/core/lv_obj_pos.c ****     lv_coord_t pleft = lv_obj_get_style_pad_left(obj, LV_PART_MAIN);
 1021              		.loc 1 250 1 view .LVU285
 1022 0006 0E46     		mov	r6, r1
 1023              	.LBB584:
 1024              	.LBB581:
 1025              		.loc 2 117 26 view .LVU286
 1026 0008 0021     		movs	r1, #0
ARM GAS  /var/folders/0z/tsy30v1j4xl4_7kw94k978ww0000gn/T//ccuxxuhb.s 			page 48


 1027              	.LVL70:
 1028              		.loc 2 117 26 view .LVU287
 1029              	.LBE581:
 1030              	.LBE584:
 250:Drivers/lvgl/src/core/lv_obj_pos.c ****     lv_coord_t pleft = lv_obj_get_style_pad_left(obj, LV_PART_MAIN);
 1031              		.loc 1 250 1 view .LVU288
 1032 000a 0546     		mov	r5, r0
 1033              	.LVL71:
 1034              	.LBB585:
 1035              	.LBI579:
 115:Drivers/lvgl/src/core/lv_obj_style_gen.h **** {
 1036              		.loc 2 115 26 is_stmt 1 view .LVU289
 1037              	.LBB582:
 1038              		.loc 2 117 5 view .LVU290
 1039              		.loc 2 117 26 is_stmt 0 view .LVU291
 1040 000c FFF7FEFF 		bl	lv_obj_get_style_prop
 1041              	.LVL72:
 1042              		.loc 2 117 26 view .LVU292
 1043              	.LBE582:
 1044              	.LBE585:
 1045              	.LBB586:
 1046              	.LBB587:
 118:Drivers/lvgl/src/core/lv_obj_style_gen.h ****     return (lv_coord_t)v.num;
 119:Drivers/lvgl/src/core/lv_obj_style_gen.h **** }
 120:Drivers/lvgl/src/core/lv_obj_style_gen.h **** 
 121:Drivers/lvgl/src/core/lv_obj_style_gen.h **** static inline lv_coord_t lv_obj_get_style_pad_right(const struct _lv_obj_t * obj, uint32_t part)
 122:Drivers/lvgl/src/core/lv_obj_style_gen.h **** {
 123:Drivers/lvgl/src/core/lv_obj_style_gen.h ****     lv_style_value_t v = lv_obj_get_style_prop(obj, part, LV_STYLE_PAD_RIGHT);
 1047              		.loc 2 123 26 view .LVU293
 1048 0010 1322     		movs	r2, #19
 1049 0012 0021     		movs	r1, #0
 1050              	.LBE587:
 1051              	.LBE586:
 1052              	.LBB590:
 1053              	.LBB583:
 117:Drivers/lvgl/src/core/lv_obj_style_gen.h ****     return (lv_coord_t)v.num;
 1054              		.loc 2 117 26 view .LVU294
 1055 0014 0446     		mov	r4, r0
 1056              	.LVL73:
 118:Drivers/lvgl/src/core/lv_obj_style_gen.h ****     return (lv_coord_t)v.num;
 1057              		.loc 2 118 5 is_stmt 1 view .LVU295
 118:Drivers/lvgl/src/core/lv_obj_style_gen.h ****     return (lv_coord_t)v.num;
 1058              		.loc 2 118 5 is_stmt 0 view .LVU296
 1059              	.LBE583:
 1060              	.LBE590:
 252:Drivers/lvgl/src/core/lv_obj_pos.c ****     lv_coord_t border_width = lv_obj_get_style_border_width(obj, LV_PART_MAIN);
 1061              		.loc 1 252 5 is_stmt 1 view .LVU297
 1062              	.LBB591:
 1063              	.LBI586:
 121:Drivers/lvgl/src/core/lv_obj_style_gen.h **** {
 1064              		.loc 2 121 26 view .LVU298
 1065              	.LBB588:
 1066              		.loc 2 123 5 view .LVU299
 1067              		.loc 2 123 26 is_stmt 0 view .LVU300
 1068 0016 2846     		mov	r0, r5
 1069 0018 FFF7FEFF 		bl	lv_obj_get_style_prop
 1070              	.LVL74:
ARM GAS  /var/folders/0z/tsy30v1j4xl4_7kw94k978ww0000gn/T//ccuxxuhb.s 			page 49


 1071              	.LBE588:
 1072              	.LBE591:
 1073              	.LBB592:
 1074              	.LBB593:
 124:Drivers/lvgl/src/core/lv_obj_style_gen.h ****     return (lv_coord_t)v.num;
 125:Drivers/lvgl/src/core/lv_obj_style_gen.h **** }
 126:Drivers/lvgl/src/core/lv_obj_style_gen.h **** 
 127:Drivers/lvgl/src/core/lv_obj_style_gen.h **** static inline lv_coord_t lv_obj_get_style_pad_row(const struct _lv_obj_t * obj, uint32_t part)
 128:Drivers/lvgl/src/core/lv_obj_style_gen.h **** {
 129:Drivers/lvgl/src/core/lv_obj_style_gen.h ****     lv_style_value_t v = lv_obj_get_style_prop(obj, part, LV_STYLE_PAD_ROW);
 130:Drivers/lvgl/src/core/lv_obj_style_gen.h ****     return (lv_coord_t)v.num;
 131:Drivers/lvgl/src/core/lv_obj_style_gen.h **** }
 132:Drivers/lvgl/src/core/lv_obj_style_gen.h **** 
 133:Drivers/lvgl/src/core/lv_obj_style_gen.h **** static inline lv_coord_t lv_obj_get_style_pad_column(const struct _lv_obj_t * obj, uint32_t part)
 134:Drivers/lvgl/src/core/lv_obj_style_gen.h **** {
 135:Drivers/lvgl/src/core/lv_obj_style_gen.h ****     lv_style_value_t v = lv_obj_get_style_prop(obj, part, LV_STYLE_PAD_COLUMN);
 136:Drivers/lvgl/src/core/lv_obj_style_gen.h ****     return (lv_coord_t)v.num;
 137:Drivers/lvgl/src/core/lv_obj_style_gen.h **** }
 138:Drivers/lvgl/src/core/lv_obj_style_gen.h **** 
 139:Drivers/lvgl/src/core/lv_obj_style_gen.h **** static inline lv_color_t lv_obj_get_style_bg_color(const struct _lv_obj_t * obj, uint32_t part)
 140:Drivers/lvgl/src/core/lv_obj_style_gen.h **** {
 141:Drivers/lvgl/src/core/lv_obj_style_gen.h ****     lv_style_value_t v = lv_obj_get_style_prop(obj, part, LV_STYLE_BG_COLOR);
 142:Drivers/lvgl/src/core/lv_obj_style_gen.h ****     return v.color;
 143:Drivers/lvgl/src/core/lv_obj_style_gen.h **** }
 144:Drivers/lvgl/src/core/lv_obj_style_gen.h **** 
 145:Drivers/lvgl/src/core/lv_obj_style_gen.h **** static inline lv_color_t lv_obj_get_style_bg_color_filtered(const struct _lv_obj_t * obj, uint32_t 
 146:Drivers/lvgl/src/core/lv_obj_style_gen.h **** {
 147:Drivers/lvgl/src/core/lv_obj_style_gen.h ****     lv_style_value_t v = _lv_obj_style_apply_color_filter(obj, part, lv_obj_get_style_prop(obj, par
 148:Drivers/lvgl/src/core/lv_obj_style_gen.h ****     return v.color;
 149:Drivers/lvgl/src/core/lv_obj_style_gen.h **** }
 150:Drivers/lvgl/src/core/lv_obj_style_gen.h **** 
 151:Drivers/lvgl/src/core/lv_obj_style_gen.h **** static inline lv_opa_t lv_obj_get_style_bg_opa(const struct _lv_obj_t * obj, uint32_t part)
 152:Drivers/lvgl/src/core/lv_obj_style_gen.h **** {
 153:Drivers/lvgl/src/core/lv_obj_style_gen.h ****     lv_style_value_t v = lv_obj_get_style_prop(obj, part, LV_STYLE_BG_OPA);
 154:Drivers/lvgl/src/core/lv_obj_style_gen.h ****     return (lv_opa_t)v.num;
 155:Drivers/lvgl/src/core/lv_obj_style_gen.h **** }
 156:Drivers/lvgl/src/core/lv_obj_style_gen.h **** 
 157:Drivers/lvgl/src/core/lv_obj_style_gen.h **** static inline lv_color_t lv_obj_get_style_bg_grad_color(const struct _lv_obj_t * obj, uint32_t part
 158:Drivers/lvgl/src/core/lv_obj_style_gen.h **** {
 159:Drivers/lvgl/src/core/lv_obj_style_gen.h ****     lv_style_value_t v = lv_obj_get_style_prop(obj, part, LV_STYLE_BG_GRAD_COLOR);
 160:Drivers/lvgl/src/core/lv_obj_style_gen.h ****     return v.color;
 161:Drivers/lvgl/src/core/lv_obj_style_gen.h **** }
 162:Drivers/lvgl/src/core/lv_obj_style_gen.h **** 
 163:Drivers/lvgl/src/core/lv_obj_style_gen.h **** static inline lv_color_t lv_obj_get_style_bg_grad_color_filtered(const struct _lv_obj_t * obj, uint
 164:Drivers/lvgl/src/core/lv_obj_style_gen.h **** {
 165:Drivers/lvgl/src/core/lv_obj_style_gen.h ****     lv_style_value_t v = _lv_obj_style_apply_color_filter(obj, part, lv_obj_get_style_prop(obj, par
 166:Drivers/lvgl/src/core/lv_obj_style_gen.h ****     return v.color;
 167:Drivers/lvgl/src/core/lv_obj_style_gen.h **** }
 168:Drivers/lvgl/src/core/lv_obj_style_gen.h **** 
 169:Drivers/lvgl/src/core/lv_obj_style_gen.h **** static inline lv_grad_dir_t lv_obj_get_style_bg_grad_dir(const struct _lv_obj_t * obj, uint32_t par
 170:Drivers/lvgl/src/core/lv_obj_style_gen.h **** {
 171:Drivers/lvgl/src/core/lv_obj_style_gen.h ****     lv_style_value_t v = lv_obj_get_style_prop(obj, part, LV_STYLE_BG_GRAD_DIR);
 172:Drivers/lvgl/src/core/lv_obj_style_gen.h ****     return (lv_grad_dir_t)v.num;
 173:Drivers/lvgl/src/core/lv_obj_style_gen.h **** }
 174:Drivers/lvgl/src/core/lv_obj_style_gen.h **** 
 175:Drivers/lvgl/src/core/lv_obj_style_gen.h **** static inline lv_coord_t lv_obj_get_style_bg_main_stop(const struct _lv_obj_t * obj, uint32_t part)
 176:Drivers/lvgl/src/core/lv_obj_style_gen.h **** {
ARM GAS  /var/folders/0z/tsy30v1j4xl4_7kw94k978ww0000gn/T//ccuxxuhb.s 			page 50


 177:Drivers/lvgl/src/core/lv_obj_style_gen.h ****     lv_style_value_t v = lv_obj_get_style_prop(obj, part, LV_STYLE_BG_MAIN_STOP);
 178:Drivers/lvgl/src/core/lv_obj_style_gen.h ****     return (lv_coord_t)v.num;
 179:Drivers/lvgl/src/core/lv_obj_style_gen.h **** }
 180:Drivers/lvgl/src/core/lv_obj_style_gen.h **** 
 181:Drivers/lvgl/src/core/lv_obj_style_gen.h **** static inline lv_coord_t lv_obj_get_style_bg_grad_stop(const struct _lv_obj_t * obj, uint32_t part)
 182:Drivers/lvgl/src/core/lv_obj_style_gen.h **** {
 183:Drivers/lvgl/src/core/lv_obj_style_gen.h ****     lv_style_value_t v = lv_obj_get_style_prop(obj, part, LV_STYLE_BG_GRAD_STOP);
 184:Drivers/lvgl/src/core/lv_obj_style_gen.h ****     return (lv_coord_t)v.num;
 185:Drivers/lvgl/src/core/lv_obj_style_gen.h **** }
 186:Drivers/lvgl/src/core/lv_obj_style_gen.h **** 
 187:Drivers/lvgl/src/core/lv_obj_style_gen.h **** static inline const lv_grad_dsc_t * lv_obj_get_style_bg_grad(const struct _lv_obj_t * obj, uint32_t
 188:Drivers/lvgl/src/core/lv_obj_style_gen.h **** {
 189:Drivers/lvgl/src/core/lv_obj_style_gen.h ****     lv_style_value_t v = lv_obj_get_style_prop(obj, part, LV_STYLE_BG_GRAD);
 190:Drivers/lvgl/src/core/lv_obj_style_gen.h ****     return (const lv_grad_dsc_t *)v.ptr;
 191:Drivers/lvgl/src/core/lv_obj_style_gen.h **** }
 192:Drivers/lvgl/src/core/lv_obj_style_gen.h **** 
 193:Drivers/lvgl/src/core/lv_obj_style_gen.h **** static inline lv_dither_mode_t lv_obj_get_style_bg_dither_mode(const struct _lv_obj_t * obj, uint32
 194:Drivers/lvgl/src/core/lv_obj_style_gen.h **** {
 195:Drivers/lvgl/src/core/lv_obj_style_gen.h ****     lv_style_value_t v = lv_obj_get_style_prop(obj, part, LV_STYLE_BG_DITHER_MODE);
 196:Drivers/lvgl/src/core/lv_obj_style_gen.h ****     return (lv_dither_mode_t)v.num;
 197:Drivers/lvgl/src/core/lv_obj_style_gen.h **** }
 198:Drivers/lvgl/src/core/lv_obj_style_gen.h **** 
 199:Drivers/lvgl/src/core/lv_obj_style_gen.h **** static inline const void * lv_obj_get_style_bg_img_src(const struct _lv_obj_t * obj, uint32_t part)
 200:Drivers/lvgl/src/core/lv_obj_style_gen.h **** {
 201:Drivers/lvgl/src/core/lv_obj_style_gen.h ****     lv_style_value_t v = lv_obj_get_style_prop(obj, part, LV_STYLE_BG_IMG_SRC);
 202:Drivers/lvgl/src/core/lv_obj_style_gen.h ****     return (const void *)v.ptr;
 203:Drivers/lvgl/src/core/lv_obj_style_gen.h **** }
 204:Drivers/lvgl/src/core/lv_obj_style_gen.h **** 
 205:Drivers/lvgl/src/core/lv_obj_style_gen.h **** static inline lv_opa_t lv_obj_get_style_bg_img_opa(const struct _lv_obj_t * obj, uint32_t part)
 206:Drivers/lvgl/src/core/lv_obj_style_gen.h **** {
 207:Drivers/lvgl/src/core/lv_obj_style_gen.h ****     lv_style_value_t v = lv_obj_get_style_prop(obj, part, LV_STYLE_BG_IMG_OPA);
 208:Drivers/lvgl/src/core/lv_obj_style_gen.h ****     return (lv_opa_t)v.num;
 209:Drivers/lvgl/src/core/lv_obj_style_gen.h **** }
 210:Drivers/lvgl/src/core/lv_obj_style_gen.h **** 
 211:Drivers/lvgl/src/core/lv_obj_style_gen.h **** static inline lv_color_t lv_obj_get_style_bg_img_recolor(const struct _lv_obj_t * obj, uint32_t par
 212:Drivers/lvgl/src/core/lv_obj_style_gen.h **** {
 213:Drivers/lvgl/src/core/lv_obj_style_gen.h ****     lv_style_value_t v = lv_obj_get_style_prop(obj, part, LV_STYLE_BG_IMG_RECOLOR);
 214:Drivers/lvgl/src/core/lv_obj_style_gen.h ****     return v.color;
 215:Drivers/lvgl/src/core/lv_obj_style_gen.h **** }
 216:Drivers/lvgl/src/core/lv_obj_style_gen.h **** 
 217:Drivers/lvgl/src/core/lv_obj_style_gen.h **** static inline lv_color_t lv_obj_get_style_bg_img_recolor_filtered(const struct _lv_obj_t * obj, uin
 218:Drivers/lvgl/src/core/lv_obj_style_gen.h **** {
 219:Drivers/lvgl/src/core/lv_obj_style_gen.h ****     lv_style_value_t v = _lv_obj_style_apply_color_filter(obj, part, lv_obj_get_style_prop(obj, par
 220:Drivers/lvgl/src/core/lv_obj_style_gen.h ****     return v.color;
 221:Drivers/lvgl/src/core/lv_obj_style_gen.h **** }
 222:Drivers/lvgl/src/core/lv_obj_style_gen.h **** 
 223:Drivers/lvgl/src/core/lv_obj_style_gen.h **** static inline lv_opa_t lv_obj_get_style_bg_img_recolor_opa(const struct _lv_obj_t * obj, uint32_t p
 224:Drivers/lvgl/src/core/lv_obj_style_gen.h **** {
 225:Drivers/lvgl/src/core/lv_obj_style_gen.h ****     lv_style_value_t v = lv_obj_get_style_prop(obj, part, LV_STYLE_BG_IMG_RECOLOR_OPA);
 226:Drivers/lvgl/src/core/lv_obj_style_gen.h ****     return (lv_opa_t)v.num;
 227:Drivers/lvgl/src/core/lv_obj_style_gen.h **** }
 228:Drivers/lvgl/src/core/lv_obj_style_gen.h **** 
 229:Drivers/lvgl/src/core/lv_obj_style_gen.h **** static inline bool lv_obj_get_style_bg_img_tiled(const struct _lv_obj_t * obj, uint32_t part)
 230:Drivers/lvgl/src/core/lv_obj_style_gen.h **** {
 231:Drivers/lvgl/src/core/lv_obj_style_gen.h ****     lv_style_value_t v = lv_obj_get_style_prop(obj, part, LV_STYLE_BG_IMG_TILED);
 232:Drivers/lvgl/src/core/lv_obj_style_gen.h ****     return (bool)v.num;
 233:Drivers/lvgl/src/core/lv_obj_style_gen.h **** }
ARM GAS  /var/folders/0z/tsy30v1j4xl4_7kw94k978ww0000gn/T//ccuxxuhb.s 			page 51


 234:Drivers/lvgl/src/core/lv_obj_style_gen.h **** 
 235:Drivers/lvgl/src/core/lv_obj_style_gen.h **** static inline lv_color_t lv_obj_get_style_border_color(const struct _lv_obj_t * obj, uint32_t part)
 236:Drivers/lvgl/src/core/lv_obj_style_gen.h **** {
 237:Drivers/lvgl/src/core/lv_obj_style_gen.h ****     lv_style_value_t v = lv_obj_get_style_prop(obj, part, LV_STYLE_BORDER_COLOR);
 238:Drivers/lvgl/src/core/lv_obj_style_gen.h ****     return v.color;
 239:Drivers/lvgl/src/core/lv_obj_style_gen.h **** }
 240:Drivers/lvgl/src/core/lv_obj_style_gen.h **** 
 241:Drivers/lvgl/src/core/lv_obj_style_gen.h **** static inline lv_color_t lv_obj_get_style_border_color_filtered(const struct _lv_obj_t * obj, uint3
 242:Drivers/lvgl/src/core/lv_obj_style_gen.h **** {
 243:Drivers/lvgl/src/core/lv_obj_style_gen.h ****     lv_style_value_t v = _lv_obj_style_apply_color_filter(obj, part, lv_obj_get_style_prop(obj, par
 244:Drivers/lvgl/src/core/lv_obj_style_gen.h ****     return v.color;
 245:Drivers/lvgl/src/core/lv_obj_style_gen.h **** }
 246:Drivers/lvgl/src/core/lv_obj_style_gen.h **** 
 247:Drivers/lvgl/src/core/lv_obj_style_gen.h **** static inline lv_opa_t lv_obj_get_style_border_opa(const struct _lv_obj_t * obj, uint32_t part)
 248:Drivers/lvgl/src/core/lv_obj_style_gen.h **** {
 249:Drivers/lvgl/src/core/lv_obj_style_gen.h ****     lv_style_value_t v = lv_obj_get_style_prop(obj, part, LV_STYLE_BORDER_OPA);
 250:Drivers/lvgl/src/core/lv_obj_style_gen.h ****     return (lv_opa_t)v.num;
 251:Drivers/lvgl/src/core/lv_obj_style_gen.h **** }
 252:Drivers/lvgl/src/core/lv_obj_style_gen.h **** 
 253:Drivers/lvgl/src/core/lv_obj_style_gen.h **** static inline lv_coord_t lv_obj_get_style_border_width(const struct _lv_obj_t * obj, uint32_t part)
 254:Drivers/lvgl/src/core/lv_obj_style_gen.h **** {
 255:Drivers/lvgl/src/core/lv_obj_style_gen.h ****     lv_style_value_t v = lv_obj_get_style_prop(obj, part, LV_STYLE_BORDER_WIDTH);
 1075              		.loc 2 255 26 view .LVU301
 1076 001c 3222     		movs	r2, #50
 1077              	.LBE593:
 1078              	.LBE592:
 1079              	.LBB595:
 1080              	.LBB589:
 123:Drivers/lvgl/src/core/lv_obj_style_gen.h ****     return (lv_coord_t)v.num;
 1081              		.loc 2 123 26 view .LVU302
 1082 001e 0746     		mov	r7, r0
 1083              	.LVL75:
 124:Drivers/lvgl/src/core/lv_obj_style_gen.h ****     return (lv_coord_t)v.num;
 1084              		.loc 2 124 5 is_stmt 1 view .LVU303
 124:Drivers/lvgl/src/core/lv_obj_style_gen.h ****     return (lv_coord_t)v.num;
 1085              		.loc 2 124 5 is_stmt 0 view .LVU304
 1086              	.LBE589:
 1087              	.LBE595:
 253:Drivers/lvgl/src/core/lv_obj_pos.c **** 
 1088              		.loc 1 253 5 is_stmt 1 view .LVU305
 1089              	.LBB596:
 1090              	.LBI592:
 253:Drivers/lvgl/src/core/lv_obj_style_gen.h **** {
 1091              		.loc 2 253 26 view .LVU306
 1092              	.LBB594:
 1093              		.loc 2 255 5 view .LVU307
 1094              		.loc 2 255 26 is_stmt 0 view .LVU308
 1095 0020 0021     		movs	r1, #0
 1096 0022 2846     		mov	r0, r5
 1097 0024 FFF7FEFF 		bl	lv_obj_get_style_prop
 1098              	.LVL76:
 256:Drivers/lvgl/src/core/lv_obj_style_gen.h ****     return (lv_coord_t)v.num;
 1099              		.loc 2 256 5 is_stmt 1 view .LVU309
 1100              		.loc 2 256 5 is_stmt 0 view .LVU310
 1101              	.LBE594:
 1102              	.LBE596:
 255:Drivers/lvgl/src/core/lv_obj_pos.c **** }
ARM GAS  /var/folders/0z/tsy30v1j4xl4_7kw94k978ww0000gn/T//ccuxxuhb.s 			page 52


 1103              		.loc 1 255 5 is_stmt 1 view .LVU311
 255:Drivers/lvgl/src/core/lv_obj_pos.c **** }
 1104              		.loc 1 255 46 is_stmt 0 view .LVU312
 1105 0028 3C44     		add	r4, r4, r7
 1106              	.LVL77:
 255:Drivers/lvgl/src/core/lv_obj_pos.c **** }
 1107              		.loc 1 255 46 view .LVU313
 1108 002a 04EB4004 		add	r4, r4, r0, lsl #1
 1109              	.LBB597:
 1110              	.LBB598:
 229:Drivers/lvgl/src/core/lv_obj_pos.c **** 
 1111              		.loc 1 229 13 view .LVU314
 1112 002e 0023     		movs	r3, #0
 1113 0030 01AA     		add	r2, sp, #4
 1114 0032 0121     		movs	r1, #1
 1115 0034 2846     		mov	r0, r5
 1116              	.LVL78:
 229:Drivers/lvgl/src/core/lv_obj_pos.c **** 
 1117              		.loc 1 229 13 view .LVU315
 1118 0036 FFF7FEFF 		bl	lv_obj_get_local_style_prop
 1119              	.LVL79:
 1120              	.LBE598:
 1121              	.LBE597:
 255:Drivers/lvgl/src/core/lv_obj_pos.c **** }
 1122              		.loc 1 255 46 view .LVU316
 1123 003a 3444     		add	r4, r4, r6
 1124              	.LBB602:
 1125              	.LBB599:
 231:Drivers/lvgl/src/core/lv_obj_pos.c ****         lv_obj_set_style_width(obj, w, 0);
 1126              		.loc 1 231 7 view .LVU317
 1127 003c 0128     		cmp	r0, #1
 1128              	.LBE599:
 1129              	.LBE602:
 255:Drivers/lvgl/src/core/lv_obj_pos.c **** }
 1130              		.loc 1 255 5 view .LVU318
 1131 003e 24B2     		sxth	r4, r4
 1132              	.LVL80:
 1133              	.LBB603:
 1134              	.LBI597:
 223:Drivers/lvgl/src/core/lv_obj_pos.c **** {
 1135              		.loc 1 223 6 is_stmt 1 view .LVU319
 1136              	.LBB600:
 225:Drivers/lvgl/src/core/lv_obj_pos.c ****     lv_res_t res_w;
 1137              		.loc 1 225 5 view .LVU320
 225:Drivers/lvgl/src/core/lv_obj_pos.c ****     lv_res_t res_w;
 1138              		.loc 1 225 5 view .LVU321
 225:Drivers/lvgl/src/core/lv_obj_pos.c ****     lv_res_t res_w;
 1139              		.loc 1 225 5 view .LVU322
 226:Drivers/lvgl/src/core/lv_obj_pos.c ****     lv_style_value_t v_w;
 1140              		.loc 1 226 5 view .LVU323
 227:Drivers/lvgl/src/core/lv_obj_pos.c **** 
 1141              		.loc 1 227 5 view .LVU324
 229:Drivers/lvgl/src/core/lv_obj_pos.c **** 
 1142              		.loc 1 229 5 view .LVU325
 231:Drivers/lvgl/src/core/lv_obj_pos.c ****         lv_obj_set_style_width(obj, w, 0);
 1143              		.loc 1 231 5 view .LVU326
 231:Drivers/lvgl/src/core/lv_obj_pos.c ****         lv_obj_set_style_width(obj, w, 0);
ARM GAS  /var/folders/0z/tsy30v1j4xl4_7kw94k978ww0000gn/T//ccuxxuhb.s 			page 53


 1144              		.loc 1 231 7 is_stmt 0 view .LVU327
 1145 0040 07D0     		beq	.L77
 231:Drivers/lvgl/src/core/lv_obj_pos.c ****         lv_obj_set_style_width(obj, w, 0);
 1146              		.loc 1 231 45 view .LVU328
 1147 0042 20B9     		cbnz	r0, .L72
 1148              	.L74:
 232:Drivers/lvgl/src/core/lv_obj_pos.c ****     }
 1149              		.loc 1 232 9 is_stmt 1 view .LVU329
 1150 0044 0022     		movs	r2, #0
 1151 0046 2146     		mov	r1, r4
 1152 0048 2846     		mov	r0, r5
 1153              	.LVL81:
 232:Drivers/lvgl/src/core/lv_obj_pos.c ****     }
 1154              		.loc 1 232 9 is_stmt 0 view .LVU330
 1155 004a FFF7FEFF 		bl	lv_obj_set_style_width
 1156              	.LVL82:
 1157              	.L72:
 232:Drivers/lvgl/src/core/lv_obj_pos.c ****     }
 1158              		.loc 1 232 9 view .LVU331
 1159              	.LBE600:
 1160              	.LBE603:
 256:Drivers/lvgl/src/core/lv_obj_pos.c **** 
 1161              		.loc 1 256 1 view .LVU332
 1162 004e 03B0     		add	sp, sp, #12
 1163              		.cfi_remember_state
 1164              		.cfi_def_cfa_offset 20
 1165              		@ sp needed
 1166 0050 F0BD     		pop	{r4, r5, r6, r7, pc}
 1167              	.LVL83:
 1168              	.L77:
 1169              		.cfi_restore_state
 1170              	.LBB604:
 1171              	.LBB601:
 231:Drivers/lvgl/src/core/lv_obj_pos.c ****         lv_obj_set_style_width(obj, w, 0);
 1172              		.loc 1 231 28 view .LVU333
 1173 0052 019B     		ldr	r3, [sp, #4]
 1174 0054 A342     		cmp	r3, r4
 1175 0056 F5D1     		bne	.L74
 1176              	.LBE601:
 1177              	.LBE604:
 256:Drivers/lvgl/src/core/lv_obj_pos.c **** 
 1178              		.loc 1 256 1 view .LVU334
 1179 0058 03B0     		add	sp, sp, #12
 1180              		.cfi_def_cfa_offset 20
 1181              		@ sp needed
 1182 005a F0BD     		pop	{r4, r5, r6, r7, pc}
 256:Drivers/lvgl/src/core/lv_obj_pos.c **** 
 1183              		.loc 1 256 1 view .LVU335
 1184              		.cfi_endproc
 1185              	.LFE174:
 1187              		.section	.text.lv_obj_set_content_height,"ax",%progbits
 1188              		.align	1
 1189              		.p2align 2,,3
 1190              		.global	lv_obj_set_content_height
 1191              		.syntax unified
 1192              		.thumb
 1193              		.thumb_func
ARM GAS  /var/folders/0z/tsy30v1j4xl4_7kw94k978ww0000gn/T//ccuxxuhb.s 			page 54


 1195              	lv_obj_set_content_height:
 1196              	.LVL84:
 1197              	.LFB175:
 259:Drivers/lvgl/src/core/lv_obj_pos.c ****     lv_coord_t ptop = lv_obj_get_style_pad_top(obj, LV_PART_MAIN);
 1198              		.loc 1 259 1 is_stmt 1 view -0
 1199              		.cfi_startproc
 1200              		@ args = 0, pretend = 0, frame = 8
 1201              		@ frame_needed = 0, uses_anonymous_args = 0
 260:Drivers/lvgl/src/core/lv_obj_pos.c ****     lv_coord_t pbottom = lv_obj_get_style_pad_bottom(obj, LV_PART_MAIN);
 1202              		.loc 1 260 5 view .LVU337
 259:Drivers/lvgl/src/core/lv_obj_pos.c ****     lv_coord_t ptop = lv_obj_get_style_pad_top(obj, LV_PART_MAIN);
 1203              		.loc 1 259 1 is_stmt 0 view .LVU338
 1204 0000 F0B5     		push	{r4, r5, r6, r7, lr}
 1205              		.cfi_def_cfa_offset 20
 1206              		.cfi_offset 4, -20
 1207              		.cfi_offset 5, -16
 1208              		.cfi_offset 6, -12
 1209              		.cfi_offset 7, -8
 1210              		.cfi_offset 14, -4
 1211              	.LBB613:
 1212              	.LBB614:
 105:Drivers/lvgl/src/core/lv_obj_style_gen.h ****     return (lv_coord_t)v.num;
 1213              		.loc 2 105 26 view .LVU339
 1214 0002 1022     		movs	r2, #16
 1215              	.LBE614:
 1216              	.LBE613:
 259:Drivers/lvgl/src/core/lv_obj_pos.c ****     lv_coord_t ptop = lv_obj_get_style_pad_top(obj, LV_PART_MAIN);
 1217              		.loc 1 259 1 view .LVU340
 1218 0004 83B0     		sub	sp, sp, #12
 1219              		.cfi_def_cfa_offset 32
 259:Drivers/lvgl/src/core/lv_obj_pos.c ****     lv_coord_t ptop = lv_obj_get_style_pad_top(obj, LV_PART_MAIN);
 1220              		.loc 1 259 1 view .LVU341
 1221 0006 0E46     		mov	r6, r1
 1222              	.LBB618:
 1223              	.LBB615:
 105:Drivers/lvgl/src/core/lv_obj_style_gen.h ****     return (lv_coord_t)v.num;
 1224              		.loc 2 105 26 view .LVU342
 1225 0008 0021     		movs	r1, #0
 1226              	.LVL85:
 105:Drivers/lvgl/src/core/lv_obj_style_gen.h ****     return (lv_coord_t)v.num;
 1227              		.loc 2 105 26 view .LVU343
 1228              	.LBE615:
 1229              	.LBE618:
 259:Drivers/lvgl/src/core/lv_obj_pos.c ****     lv_coord_t ptop = lv_obj_get_style_pad_top(obj, LV_PART_MAIN);
 1230              		.loc 1 259 1 view .LVU344
 1231 000a 0546     		mov	r5, r0
 1232              	.LVL86:
 1233              	.LBB619:
 1234              	.LBI613:
 103:Drivers/lvgl/src/core/lv_obj_style_gen.h **** {
 1235              		.loc 2 103 26 is_stmt 1 view .LVU345
 1236              	.LBB616:
 105:Drivers/lvgl/src/core/lv_obj_style_gen.h ****     return (lv_coord_t)v.num;
 1237              		.loc 2 105 5 view .LVU346
 105:Drivers/lvgl/src/core/lv_obj_style_gen.h ****     return (lv_coord_t)v.num;
 1238              		.loc 2 105 26 is_stmt 0 view .LVU347
 1239 000c FFF7FEFF 		bl	lv_obj_get_style_prop
ARM GAS  /var/folders/0z/tsy30v1j4xl4_7kw94k978ww0000gn/T//ccuxxuhb.s 			page 55


 1240              	.LVL87:
 105:Drivers/lvgl/src/core/lv_obj_style_gen.h ****     return (lv_coord_t)v.num;
 1241              		.loc 2 105 26 view .LVU348
 1242              	.LBE616:
 1243              	.LBE619:
 1244              	.LBB620:
 1245              	.LBB621:
 111:Drivers/lvgl/src/core/lv_obj_style_gen.h ****     return (lv_coord_t)v.num;
 1246              		.loc 2 111 26 view .LVU349
 1247 0010 1122     		movs	r2, #17
 1248 0012 0021     		movs	r1, #0
 1249              	.LBE621:
 1250              	.LBE620:
 1251              	.LBB624:
 1252              	.LBB617:
 105:Drivers/lvgl/src/core/lv_obj_style_gen.h ****     return (lv_coord_t)v.num;
 1253              		.loc 2 105 26 view .LVU350
 1254 0014 0446     		mov	r4, r0
 1255              	.LVL88:
 106:Drivers/lvgl/src/core/lv_obj_style_gen.h **** }
 1256              		.loc 2 106 5 is_stmt 1 view .LVU351
 106:Drivers/lvgl/src/core/lv_obj_style_gen.h **** }
 1257              		.loc 2 106 5 is_stmt 0 view .LVU352
 1258              	.LBE617:
 1259              	.LBE624:
 261:Drivers/lvgl/src/core/lv_obj_pos.c ****     lv_coord_t border_width = lv_obj_get_style_border_width(obj, LV_PART_MAIN);
 1260              		.loc 1 261 5 is_stmt 1 view .LVU353
 1261              	.LBB625:
 1262              	.LBI620:
 109:Drivers/lvgl/src/core/lv_obj_style_gen.h **** {
 1263              		.loc 2 109 26 view .LVU354
 1264              	.LBB622:
 111:Drivers/lvgl/src/core/lv_obj_style_gen.h ****     return (lv_coord_t)v.num;
 1265              		.loc 2 111 5 view .LVU355
 111:Drivers/lvgl/src/core/lv_obj_style_gen.h ****     return (lv_coord_t)v.num;
 1266              		.loc 2 111 26 is_stmt 0 view .LVU356
 1267 0016 2846     		mov	r0, r5
 1268 0018 FFF7FEFF 		bl	lv_obj_get_style_prop
 1269              	.LVL89:
 1270              	.LBE622:
 1271              	.LBE625:
 1272              	.LBB626:
 1273              	.LBB627:
 255:Drivers/lvgl/src/core/lv_obj_style_gen.h ****     return (lv_coord_t)v.num;
 1274              		.loc 2 255 26 view .LVU357
 1275 001c 3222     		movs	r2, #50
 1276              	.LBE627:
 1277              	.LBE626:
 1278              	.LBB629:
 1279              	.LBB623:
 111:Drivers/lvgl/src/core/lv_obj_style_gen.h ****     return (lv_coord_t)v.num;
 1280              		.loc 2 111 26 view .LVU358
 1281 001e 0746     		mov	r7, r0
 1282              	.LVL90:
 112:Drivers/lvgl/src/core/lv_obj_style_gen.h **** }
 1283              		.loc 2 112 5 is_stmt 1 view .LVU359
 112:Drivers/lvgl/src/core/lv_obj_style_gen.h **** }
ARM GAS  /var/folders/0z/tsy30v1j4xl4_7kw94k978ww0000gn/T//ccuxxuhb.s 			page 56


 1284              		.loc 2 112 5 is_stmt 0 view .LVU360
 1285              	.LBE623:
 1286              	.LBE629:
 262:Drivers/lvgl/src/core/lv_obj_pos.c **** 
 1287              		.loc 1 262 5 is_stmt 1 view .LVU361
 1288              	.LBB630:
 1289              	.LBI626:
 253:Drivers/lvgl/src/core/lv_obj_style_gen.h **** {
 1290              		.loc 2 253 26 view .LVU362
 1291              	.LBB628:
 255:Drivers/lvgl/src/core/lv_obj_style_gen.h ****     return (lv_coord_t)v.num;
 1292              		.loc 2 255 5 view .LVU363
 255:Drivers/lvgl/src/core/lv_obj_style_gen.h ****     return (lv_coord_t)v.num;
 1293              		.loc 2 255 26 is_stmt 0 view .LVU364
 1294 0020 0021     		movs	r1, #0
 1295 0022 2846     		mov	r0, r5
 1296 0024 FFF7FEFF 		bl	lv_obj_get_style_prop
 1297              	.LVL91:
 1298              		.loc 2 256 5 is_stmt 1 view .LVU365
 1299              		.loc 2 256 5 is_stmt 0 view .LVU366
 1300              	.LBE628:
 1301              	.LBE630:
 264:Drivers/lvgl/src/core/lv_obj_pos.c **** }
 1302              		.loc 1 264 5 is_stmt 1 view .LVU367
 264:Drivers/lvgl/src/core/lv_obj_pos.c **** }
 1303              		.loc 1 264 47 is_stmt 0 view .LVU368
 1304 0028 3C44     		add	r4, r4, r7
 1305              	.LVL92:
 264:Drivers/lvgl/src/core/lv_obj_pos.c **** }
 1306              		.loc 1 264 47 view .LVU369
 1307 002a 04EB4004 		add	r4, r4, r0, lsl #1
 1308              	.LBB631:
 1309              	.LBB632:
 242:Drivers/lvgl/src/core/lv_obj_pos.c **** 
 1310              		.loc 1 242 13 view .LVU370
 1311 002e 0023     		movs	r3, #0
 1312 0030 01AA     		add	r2, sp, #4
 1313 0032 0421     		movs	r1, #4
 1314 0034 2846     		mov	r0, r5
 1315              	.LVL93:
 242:Drivers/lvgl/src/core/lv_obj_pos.c **** 
 1316              		.loc 1 242 13 view .LVU371
 1317 0036 FFF7FEFF 		bl	lv_obj_get_local_style_prop
 1318              	.LVL94:
 1319              	.LBE632:
 1320              	.LBE631:
 264:Drivers/lvgl/src/core/lv_obj_pos.c **** }
 1321              		.loc 1 264 47 view .LVU372
 1322 003a 3444     		add	r4, r4, r6
 1323              	.LBB636:
 1324              	.LBB633:
 244:Drivers/lvgl/src/core/lv_obj_pos.c ****         lv_obj_set_style_height(obj, h, 0);
 1325              		.loc 1 244 7 view .LVU373
 1326 003c 0128     		cmp	r0, #1
 1327              	.LBE633:
 1328              	.LBE636:
 264:Drivers/lvgl/src/core/lv_obj_pos.c **** }
ARM GAS  /var/folders/0z/tsy30v1j4xl4_7kw94k978ww0000gn/T//ccuxxuhb.s 			page 57


 1329              		.loc 1 264 5 view .LVU374
 1330 003e 24B2     		sxth	r4, r4
 1331              	.LVL95:
 1332              	.LBB637:
 1333              	.LBI631:
 236:Drivers/lvgl/src/core/lv_obj_pos.c **** {
 1334              		.loc 1 236 6 is_stmt 1 view .LVU375
 1335              	.LBB634:
 238:Drivers/lvgl/src/core/lv_obj_pos.c ****     lv_res_t res_h;
 1336              		.loc 1 238 5 view .LVU376
 238:Drivers/lvgl/src/core/lv_obj_pos.c ****     lv_res_t res_h;
 1337              		.loc 1 238 5 view .LVU377
 238:Drivers/lvgl/src/core/lv_obj_pos.c ****     lv_res_t res_h;
 1338              		.loc 1 238 5 view .LVU378
 239:Drivers/lvgl/src/core/lv_obj_pos.c ****     lv_style_value_t v_h;
 1339              		.loc 1 239 5 view .LVU379
 240:Drivers/lvgl/src/core/lv_obj_pos.c **** 
 1340              		.loc 1 240 5 view .LVU380
 242:Drivers/lvgl/src/core/lv_obj_pos.c **** 
 1341              		.loc 1 242 5 view .LVU381
 244:Drivers/lvgl/src/core/lv_obj_pos.c ****         lv_obj_set_style_height(obj, h, 0);
 1342              		.loc 1 244 5 view .LVU382
 244:Drivers/lvgl/src/core/lv_obj_pos.c ****         lv_obj_set_style_height(obj, h, 0);
 1343              		.loc 1 244 7 is_stmt 0 view .LVU383
 1344 0040 07D0     		beq	.L83
 244:Drivers/lvgl/src/core/lv_obj_pos.c ****         lv_obj_set_style_height(obj, h, 0);
 1345              		.loc 1 244 45 view .LVU384
 1346 0042 20B9     		cbnz	r0, .L78
 1347              	.L80:
 245:Drivers/lvgl/src/core/lv_obj_pos.c ****     }
 1348              		.loc 1 245 9 is_stmt 1 view .LVU385
 1349 0044 0022     		movs	r2, #0
 1350 0046 2146     		mov	r1, r4
 1351 0048 2846     		mov	r0, r5
 1352              	.LVL96:
 245:Drivers/lvgl/src/core/lv_obj_pos.c ****     }
 1353              		.loc 1 245 9 is_stmt 0 view .LVU386
 1354 004a FFF7FEFF 		bl	lv_obj_set_style_height
 1355              	.LVL97:
 1356              	.L78:
 245:Drivers/lvgl/src/core/lv_obj_pos.c ****     }
 1357              		.loc 1 245 9 view .LVU387
 1358              	.LBE634:
 1359              	.LBE637:
 265:Drivers/lvgl/src/core/lv_obj_pos.c **** 
 1360              		.loc 1 265 1 view .LVU388
 1361 004e 03B0     		add	sp, sp, #12
 1362              		.cfi_remember_state
 1363              		.cfi_def_cfa_offset 20
 1364              		@ sp needed
 1365 0050 F0BD     		pop	{r4, r5, r6, r7, pc}
 1366              	.LVL98:
 1367              	.L83:
 1368              		.cfi_restore_state
 1369              	.LBB638:
 1370              	.LBB635:
 244:Drivers/lvgl/src/core/lv_obj_pos.c ****         lv_obj_set_style_height(obj, h, 0);
ARM GAS  /var/folders/0z/tsy30v1j4xl4_7kw94k978ww0000gn/T//ccuxxuhb.s 			page 58


 1371              		.loc 1 244 28 view .LVU389
 1372 0052 019B     		ldr	r3, [sp, #4]
 1373 0054 A342     		cmp	r3, r4
 1374 0056 F5D1     		bne	.L80
 1375              	.LBE635:
 1376              	.LBE638:
 265:Drivers/lvgl/src/core/lv_obj_pos.c **** 
 1377              		.loc 1 265 1 view .LVU390
 1378 0058 03B0     		add	sp, sp, #12
 1379              		.cfi_def_cfa_offset 20
 1380              		@ sp needed
 1381 005a F0BD     		pop	{r4, r5, r6, r7, pc}
 265:Drivers/lvgl/src/core/lv_obj_pos.c **** 
 1382              		.loc 1 265 1 view .LVU391
 1383              		.cfi_endproc
 1384              	.LFE175:
 1386              		.section	.text.lv_obj_set_layout,"ax",%progbits
 1387              		.align	1
 1388              		.p2align 2,,3
 1389              		.global	lv_obj_set_layout
 1390              		.syntax unified
 1391              		.thumb
 1392              		.thumb_func
 1394              	lv_obj_set_layout:
 1395              	.LVL99:
 1396              	.LFB176:
 268:Drivers/lvgl/src/core/lv_obj_pos.c ****     LV_ASSERT_OBJ(obj, MY_CLASS);
 1397              		.loc 1 268 1 is_stmt 1 view -0
 1398              		.cfi_startproc
 1399              		@ args = 0, pretend = 0, frame = 0
 1400              		@ frame_needed = 0, uses_anonymous_args = 0
 269:Drivers/lvgl/src/core/lv_obj_pos.c **** 
 1401              		.loc 1 269 5 view .LVU393
 269:Drivers/lvgl/src/core/lv_obj_pos.c **** 
 1402              		.loc 1 269 5 view .LVU394
 269:Drivers/lvgl/src/core/lv_obj_pos.c **** 
 1403              		.loc 1 269 5 view .LVU395
 271:Drivers/lvgl/src/core/lv_obj_pos.c **** 
 1404              		.loc 1 271 5 view .LVU396
 268:Drivers/lvgl/src/core/lv_obj_pos.c ****     LV_ASSERT_OBJ(obj, MY_CLASS);
 1405              		.loc 1 268 1 is_stmt 0 view .LVU397
 1406 0000 10B5     		push	{r4, lr}
 1407              		.cfi_def_cfa_offset 8
 1408              		.cfi_offset 4, -8
 1409              		.cfi_offset 14, -4
 268:Drivers/lvgl/src/core/lv_obj_pos.c ****     LV_ASSERT_OBJ(obj, MY_CLASS);
 1410              		.loc 1 268 1 view .LVU398
 1411 0002 0446     		mov	r4, r0
 271:Drivers/lvgl/src/core/lv_obj_pos.c **** 
 1412              		.loc 1 271 5 view .LVU399
 1413 0004 0022     		movs	r2, #0
 1414 0006 89B2     		uxth	r1, r1
 1415              	.LVL100:
 271:Drivers/lvgl/src/core/lv_obj_pos.c **** 
 1416              		.loc 1 271 5 view .LVU400
 1417 0008 FFF7FEFF 		bl	lv_obj_set_style_layout
 1418              	.LVL101:
ARM GAS  /var/folders/0z/tsy30v1j4xl4_7kw94k978ww0000gn/T//ccuxxuhb.s 			page 59


 273:Drivers/lvgl/src/core/lv_obj_pos.c **** }
 1419              		.loc 1 273 5 is_stmt 1 view .LVU401
 1420              	.LBB641:
 1421              	.LBI641:
 288:Drivers/lvgl/src/core/lv_obj_pos.c **** {
 1422              		.loc 1 288 6 view .LVU402
 1423              	.LBB642:
 290:Drivers/lvgl/src/core/lv_obj_pos.c **** 
 1424              		.loc 1 290 5 view .LVU403
 290:Drivers/lvgl/src/core/lv_obj_pos.c **** 
 1425              		.loc 1 290 21 is_stmt 0 view .LVU404
 1426 000c 94F82230 		ldrb	r3, [r4, #34]	@ zero_extendqisi2
 1427 0010 43F00103 		orr	r3, r3, #1
 1428 0014 84F82230 		strb	r3, [r4, #34]
 293:Drivers/lvgl/src/core/lv_obj_pos.c ****     scr->scr_layout_inv = 1;
 1429              		.loc 1 293 5 is_stmt 1 view .LVU405
 293:Drivers/lvgl/src/core/lv_obj_pos.c ****     scr->scr_layout_inv = 1;
 1430              		.loc 1 293 22 is_stmt 0 view .LVU406
 1431 0018 2046     		mov	r0, r4
 1432 001a FFF7FEFF 		bl	lv_obj_get_screen
 1433              	.LVL102:
 294:Drivers/lvgl/src/core/lv_obj_pos.c **** 
 1434              		.loc 1 294 5 is_stmt 1 view .LVU407
 294:Drivers/lvgl/src/core/lv_obj_pos.c **** 
 1435              		.loc 1 294 25 is_stmt 0 view .LVU408
 1436 001e 90F82220 		ldrb	r2, [r0, #34]	@ zero_extendqisi2
 1437 0022 42F00402 		orr	r2, r2, #4
 1438 0026 80F82220 		strb	r2, [r0, #34]
 297:Drivers/lvgl/src/core/lv_obj_pos.c ****     if(disp->refr_timer) lv_timer_resume(disp->refr_timer);
 1439              		.loc 1 297 5 is_stmt 1 view .LVU409
 297:Drivers/lvgl/src/core/lv_obj_pos.c ****     if(disp->refr_timer) lv_timer_resume(disp->refr_timer);
 1440              		.loc 1 297 24 is_stmt 0 view .LVU410
 1441 002a FFF7FEFF 		bl	lv_obj_get_disp
 1442              	.LVL103:
 298:Drivers/lvgl/src/core/lv_obj_pos.c **** }
 1443              		.loc 1 298 5 is_stmt 1 view .LVU411
 298:Drivers/lvgl/src/core/lv_obj_pos.c **** }
 1444              		.loc 1 298 12 is_stmt 0 view .LVU412
 1445 002e 4068     		ldr	r0, [r0, #4]
 1446              	.LVL104:
 298:Drivers/lvgl/src/core/lv_obj_pos.c **** }
 1447              		.loc 1 298 7 view .LVU413
 1448 0030 18B1     		cbz	r0, .L84
 298:Drivers/lvgl/src/core/lv_obj_pos.c **** }
 1449              		.loc 1 298 26 is_stmt 1 view .LVU414
 1450              	.LBE642:
 1451              	.LBE641:
 274:Drivers/lvgl/src/core/lv_obj_pos.c **** 
 1452              		.loc 1 274 1 is_stmt 0 view .LVU415
 1453 0032 BDE81040 		pop	{r4, lr}
 1454              		.cfi_remember_state
 1455              		.cfi_restore 14
 1456              		.cfi_restore 4
 1457              		.cfi_def_cfa_offset 0
 1458              	.LVL105:
 1459              	.LBB644:
 1460              	.LBB643:
ARM GAS  /var/folders/0z/tsy30v1j4xl4_7kw94k978ww0000gn/T//ccuxxuhb.s 			page 60


 298:Drivers/lvgl/src/core/lv_obj_pos.c **** }
 1461              		.loc 1 298 26 view .LVU416
 1462 0036 FFF7FEBF 		b	lv_timer_resume
 1463              	.LVL106:
 1464              	.L84:
 1465              		.cfi_restore_state
 298:Drivers/lvgl/src/core/lv_obj_pos.c **** }
 1466              		.loc 1 298 26 view .LVU417
 1467              	.LBE643:
 1468              	.LBE644:
 274:Drivers/lvgl/src/core/lv_obj_pos.c **** 
 1469              		.loc 1 274 1 view .LVU418
 1470 003a 10BD     		pop	{r4, pc}
 274:Drivers/lvgl/src/core/lv_obj_pos.c **** 
 1471              		.loc 1 274 1 view .LVU419
 1472              		.cfi_endproc
 1473              	.LFE176:
 1475              		.section	.text.lv_obj_is_layout_positioned,"ax",%progbits
 1476              		.align	1
 1477              		.p2align 2,,3
 1478              		.global	lv_obj_is_layout_positioned
 1479              		.syntax unified
 1480              		.thumb
 1481              		.thumb_func
 1483              	lv_obj_is_layout_positioned:
 1484              	.LVL107:
 1485              	.LFB177:
 277:Drivers/lvgl/src/core/lv_obj_pos.c ****     if(lv_obj_has_flag_any(obj, LV_OBJ_FLAG_HIDDEN | LV_OBJ_FLAG_IGNORE_LAYOUT | LV_OBJ_FLAG_FLOATI
 1486              		.loc 1 277 1 is_stmt 1 view -0
 1487              		.cfi_startproc
 1488              		@ args = 0, pretend = 0, frame = 0
 1489              		@ frame_needed = 0, uses_anonymous_args = 0
 278:Drivers/lvgl/src/core/lv_obj_pos.c **** 
 1490              		.loc 1 278 5 view .LVU421
 277:Drivers/lvgl/src/core/lv_obj_pos.c ****     if(lv_obj_has_flag_any(obj, LV_OBJ_FLAG_HIDDEN | LV_OBJ_FLAG_IGNORE_LAYOUT | LV_OBJ_FLAG_FLOATI
 1491              		.loc 1 277 1 is_stmt 0 view .LVU422
 1492 0000 38B5     		push	{r3, r4, r5, lr}
 1493              		.cfi_def_cfa_offset 16
 1494              		.cfi_offset 3, -16
 1495              		.cfi_offset 4, -12
 1496              		.cfi_offset 5, -8
 1497              		.cfi_offset 14, -4
 278:Drivers/lvgl/src/core/lv_obj_pos.c **** 
 1498              		.loc 1 278 8 view .LVU423
 1499 0002 0B49     		ldr	r1, .L95
 277:Drivers/lvgl/src/core/lv_obj_pos.c ****     if(lv_obj_has_flag_any(obj, LV_OBJ_FLAG_HIDDEN | LV_OBJ_FLAG_IGNORE_LAYOUT | LV_OBJ_FLAG_FLOATI
 1500              		.loc 1 277 1 view .LVU424
 1501 0004 0546     		mov	r5, r0
 278:Drivers/lvgl/src/core/lv_obj_pos.c **** 
 1502              		.loc 1 278 8 view .LVU425
 1503 0006 FFF7FEFF 		bl	lv_obj_has_flag_any
 1504              	.LVL108:
 278:Drivers/lvgl/src/core/lv_obj_pos.c **** 
 1505              		.loc 1 278 7 view .LVU426
 1506 000a 08B1     		cbz	r0, .L88
 1507              	.L90:
 278:Drivers/lvgl/src/core/lv_obj_pos.c **** 
ARM GAS  /var/folders/0z/tsy30v1j4xl4_7kw94k978ww0000gn/T//ccuxxuhb.s 			page 61


 1508              		.loc 1 278 112 view .LVU427
 1509 000c 0020     		movs	r0, #0
 286:Drivers/lvgl/src/core/lv_obj_pos.c **** 
 1510              		.loc 1 286 1 view .LVU428
 1511 000e 38BD     		pop	{r3, r4, r5, pc}
 1512              	.LVL109:
 1513              	.L88:
 1514              	.LBB649:
 1515              	.LBI649:
 276:Drivers/lvgl/src/core/lv_obj_pos.c **** {
 1516              		.loc 1 276 6 is_stmt 1 view .LVU429
 1517              	.LBB650:
 280:Drivers/lvgl/src/core/lv_obj_pos.c ****     if(parent == NULL) return false;
 1518              		.loc 1 280 5 view .LVU430
 1519 0010 0446     		mov	r4, r0
 280:Drivers/lvgl/src/core/lv_obj_pos.c ****     if(parent == NULL) return false;
 1520              		.loc 1 280 25 is_stmt 0 view .LVU431
 1521 0012 2846     		mov	r0, r5
 1522 0014 FFF7FEFF 		bl	lv_obj_get_parent
 1523              	.LVL110:
 281:Drivers/lvgl/src/core/lv_obj_pos.c **** 
 1524              		.loc 1 281 5 is_stmt 1 view .LVU432
 281:Drivers/lvgl/src/core/lv_obj_pos.c **** 
 1525              		.loc 1 281 7 is_stmt 0 view .LVU433
 1526 0018 0028     		cmp	r0, #0
 1527 001a F7D0     		beq	.L90
 283:Drivers/lvgl/src/core/lv_obj_pos.c ****     if(layout) return true;
 1528              		.loc 1 283 5 is_stmt 1 view .LVU434
 1529              	.LVL111:
 1530              	.LBB651:
 1531              	.LBI651:
 257:Drivers/lvgl/src/core/lv_obj_style_gen.h **** }
 258:Drivers/lvgl/src/core/lv_obj_style_gen.h **** 
 259:Drivers/lvgl/src/core/lv_obj_style_gen.h **** static inline lv_border_side_t lv_obj_get_style_border_side(const struct _lv_obj_t * obj, uint32_t 
 260:Drivers/lvgl/src/core/lv_obj_style_gen.h **** {
 261:Drivers/lvgl/src/core/lv_obj_style_gen.h ****     lv_style_value_t v = lv_obj_get_style_prop(obj, part, LV_STYLE_BORDER_SIDE);
 262:Drivers/lvgl/src/core/lv_obj_style_gen.h ****     return (lv_border_side_t)v.num;
 263:Drivers/lvgl/src/core/lv_obj_style_gen.h **** }
 264:Drivers/lvgl/src/core/lv_obj_style_gen.h **** 
 265:Drivers/lvgl/src/core/lv_obj_style_gen.h **** static inline bool lv_obj_get_style_border_post(const struct _lv_obj_t * obj, uint32_t part)
 266:Drivers/lvgl/src/core/lv_obj_style_gen.h **** {
 267:Drivers/lvgl/src/core/lv_obj_style_gen.h ****     lv_style_value_t v = lv_obj_get_style_prop(obj, part, LV_STYLE_BORDER_POST);
 268:Drivers/lvgl/src/core/lv_obj_style_gen.h ****     return (bool)v.num;
 269:Drivers/lvgl/src/core/lv_obj_style_gen.h **** }
 270:Drivers/lvgl/src/core/lv_obj_style_gen.h **** 
 271:Drivers/lvgl/src/core/lv_obj_style_gen.h **** static inline lv_coord_t lv_obj_get_style_outline_width(const struct _lv_obj_t * obj, uint32_t part
 272:Drivers/lvgl/src/core/lv_obj_style_gen.h **** {
 273:Drivers/lvgl/src/core/lv_obj_style_gen.h ****     lv_style_value_t v = lv_obj_get_style_prop(obj, part, LV_STYLE_OUTLINE_WIDTH);
 274:Drivers/lvgl/src/core/lv_obj_style_gen.h ****     return (lv_coord_t)v.num;
 275:Drivers/lvgl/src/core/lv_obj_style_gen.h **** }
 276:Drivers/lvgl/src/core/lv_obj_style_gen.h **** 
 277:Drivers/lvgl/src/core/lv_obj_style_gen.h **** static inline lv_color_t lv_obj_get_style_outline_color(const struct _lv_obj_t * obj, uint32_t part
 278:Drivers/lvgl/src/core/lv_obj_style_gen.h **** {
 279:Drivers/lvgl/src/core/lv_obj_style_gen.h ****     lv_style_value_t v = lv_obj_get_style_prop(obj, part, LV_STYLE_OUTLINE_COLOR);
 280:Drivers/lvgl/src/core/lv_obj_style_gen.h ****     return v.color;
 281:Drivers/lvgl/src/core/lv_obj_style_gen.h **** }
 282:Drivers/lvgl/src/core/lv_obj_style_gen.h **** 
ARM GAS  /var/folders/0z/tsy30v1j4xl4_7kw94k978ww0000gn/T//ccuxxuhb.s 			page 62


 283:Drivers/lvgl/src/core/lv_obj_style_gen.h **** static inline lv_color_t lv_obj_get_style_outline_color_filtered(const struct _lv_obj_t * obj, uint
 284:Drivers/lvgl/src/core/lv_obj_style_gen.h **** {
 285:Drivers/lvgl/src/core/lv_obj_style_gen.h ****     lv_style_value_t v = _lv_obj_style_apply_color_filter(obj, part, lv_obj_get_style_prop(obj, par
 286:Drivers/lvgl/src/core/lv_obj_style_gen.h ****     return v.color;
 287:Drivers/lvgl/src/core/lv_obj_style_gen.h **** }
 288:Drivers/lvgl/src/core/lv_obj_style_gen.h **** 
 289:Drivers/lvgl/src/core/lv_obj_style_gen.h **** static inline lv_opa_t lv_obj_get_style_outline_opa(const struct _lv_obj_t * obj, uint32_t part)
 290:Drivers/lvgl/src/core/lv_obj_style_gen.h **** {
 291:Drivers/lvgl/src/core/lv_obj_style_gen.h ****     lv_style_value_t v = lv_obj_get_style_prop(obj, part, LV_STYLE_OUTLINE_OPA);
 292:Drivers/lvgl/src/core/lv_obj_style_gen.h ****     return (lv_opa_t)v.num;
 293:Drivers/lvgl/src/core/lv_obj_style_gen.h **** }
 294:Drivers/lvgl/src/core/lv_obj_style_gen.h **** 
 295:Drivers/lvgl/src/core/lv_obj_style_gen.h **** static inline lv_coord_t lv_obj_get_style_outline_pad(const struct _lv_obj_t * obj, uint32_t part)
 296:Drivers/lvgl/src/core/lv_obj_style_gen.h **** {
 297:Drivers/lvgl/src/core/lv_obj_style_gen.h ****     lv_style_value_t v = lv_obj_get_style_prop(obj, part, LV_STYLE_OUTLINE_PAD);
 298:Drivers/lvgl/src/core/lv_obj_style_gen.h ****     return (lv_coord_t)v.num;
 299:Drivers/lvgl/src/core/lv_obj_style_gen.h **** }
 300:Drivers/lvgl/src/core/lv_obj_style_gen.h **** 
 301:Drivers/lvgl/src/core/lv_obj_style_gen.h **** static inline lv_coord_t lv_obj_get_style_shadow_width(const struct _lv_obj_t * obj, uint32_t part)
 302:Drivers/lvgl/src/core/lv_obj_style_gen.h **** {
 303:Drivers/lvgl/src/core/lv_obj_style_gen.h ****     lv_style_value_t v = lv_obj_get_style_prop(obj, part, LV_STYLE_SHADOW_WIDTH);
 304:Drivers/lvgl/src/core/lv_obj_style_gen.h ****     return (lv_coord_t)v.num;
 305:Drivers/lvgl/src/core/lv_obj_style_gen.h **** }
 306:Drivers/lvgl/src/core/lv_obj_style_gen.h **** 
 307:Drivers/lvgl/src/core/lv_obj_style_gen.h **** static inline lv_coord_t lv_obj_get_style_shadow_ofs_x(const struct _lv_obj_t * obj, uint32_t part)
 308:Drivers/lvgl/src/core/lv_obj_style_gen.h **** {
 309:Drivers/lvgl/src/core/lv_obj_style_gen.h ****     lv_style_value_t v = lv_obj_get_style_prop(obj, part, LV_STYLE_SHADOW_OFS_X);
 310:Drivers/lvgl/src/core/lv_obj_style_gen.h ****     return (lv_coord_t)v.num;
 311:Drivers/lvgl/src/core/lv_obj_style_gen.h **** }
 312:Drivers/lvgl/src/core/lv_obj_style_gen.h **** 
 313:Drivers/lvgl/src/core/lv_obj_style_gen.h **** static inline lv_coord_t lv_obj_get_style_shadow_ofs_y(const struct _lv_obj_t * obj, uint32_t part)
 314:Drivers/lvgl/src/core/lv_obj_style_gen.h **** {
 315:Drivers/lvgl/src/core/lv_obj_style_gen.h ****     lv_style_value_t v = lv_obj_get_style_prop(obj, part, LV_STYLE_SHADOW_OFS_Y);
 316:Drivers/lvgl/src/core/lv_obj_style_gen.h ****     return (lv_coord_t)v.num;
 317:Drivers/lvgl/src/core/lv_obj_style_gen.h **** }
 318:Drivers/lvgl/src/core/lv_obj_style_gen.h **** 
 319:Drivers/lvgl/src/core/lv_obj_style_gen.h **** static inline lv_coord_t lv_obj_get_style_shadow_spread(const struct _lv_obj_t * obj, uint32_t part
 320:Drivers/lvgl/src/core/lv_obj_style_gen.h **** {
 321:Drivers/lvgl/src/core/lv_obj_style_gen.h ****     lv_style_value_t v = lv_obj_get_style_prop(obj, part, LV_STYLE_SHADOW_SPREAD);
 322:Drivers/lvgl/src/core/lv_obj_style_gen.h ****     return (lv_coord_t)v.num;
 323:Drivers/lvgl/src/core/lv_obj_style_gen.h **** }
 324:Drivers/lvgl/src/core/lv_obj_style_gen.h **** 
 325:Drivers/lvgl/src/core/lv_obj_style_gen.h **** static inline lv_color_t lv_obj_get_style_shadow_color(const struct _lv_obj_t * obj, uint32_t part)
 326:Drivers/lvgl/src/core/lv_obj_style_gen.h **** {
 327:Drivers/lvgl/src/core/lv_obj_style_gen.h ****     lv_style_value_t v = lv_obj_get_style_prop(obj, part, LV_STYLE_SHADOW_COLOR);
 328:Drivers/lvgl/src/core/lv_obj_style_gen.h ****     return v.color;
 329:Drivers/lvgl/src/core/lv_obj_style_gen.h **** }
 330:Drivers/lvgl/src/core/lv_obj_style_gen.h **** 
 331:Drivers/lvgl/src/core/lv_obj_style_gen.h **** static inline lv_color_t lv_obj_get_style_shadow_color_filtered(const struct _lv_obj_t * obj, uint3
 332:Drivers/lvgl/src/core/lv_obj_style_gen.h **** {
 333:Drivers/lvgl/src/core/lv_obj_style_gen.h ****     lv_style_value_t v = _lv_obj_style_apply_color_filter(obj, part, lv_obj_get_style_prop(obj, par
 334:Drivers/lvgl/src/core/lv_obj_style_gen.h ****     return v.color;
 335:Drivers/lvgl/src/core/lv_obj_style_gen.h **** }
 336:Drivers/lvgl/src/core/lv_obj_style_gen.h **** 
 337:Drivers/lvgl/src/core/lv_obj_style_gen.h **** static inline lv_opa_t lv_obj_get_style_shadow_opa(const struct _lv_obj_t * obj, uint32_t part)
 338:Drivers/lvgl/src/core/lv_obj_style_gen.h **** {
 339:Drivers/lvgl/src/core/lv_obj_style_gen.h ****     lv_style_value_t v = lv_obj_get_style_prop(obj, part, LV_STYLE_SHADOW_OPA);
ARM GAS  /var/folders/0z/tsy30v1j4xl4_7kw94k978ww0000gn/T//ccuxxuhb.s 			page 63


 340:Drivers/lvgl/src/core/lv_obj_style_gen.h ****     return (lv_opa_t)v.num;
 341:Drivers/lvgl/src/core/lv_obj_style_gen.h **** }
 342:Drivers/lvgl/src/core/lv_obj_style_gen.h **** 
 343:Drivers/lvgl/src/core/lv_obj_style_gen.h **** static inline lv_opa_t lv_obj_get_style_img_opa(const struct _lv_obj_t * obj, uint32_t part)
 344:Drivers/lvgl/src/core/lv_obj_style_gen.h **** {
 345:Drivers/lvgl/src/core/lv_obj_style_gen.h ****     lv_style_value_t v = lv_obj_get_style_prop(obj, part, LV_STYLE_IMG_OPA);
 346:Drivers/lvgl/src/core/lv_obj_style_gen.h ****     return (lv_opa_t)v.num;
 347:Drivers/lvgl/src/core/lv_obj_style_gen.h **** }
 348:Drivers/lvgl/src/core/lv_obj_style_gen.h **** 
 349:Drivers/lvgl/src/core/lv_obj_style_gen.h **** static inline lv_color_t lv_obj_get_style_img_recolor(const struct _lv_obj_t * obj, uint32_t part)
 350:Drivers/lvgl/src/core/lv_obj_style_gen.h **** {
 351:Drivers/lvgl/src/core/lv_obj_style_gen.h ****     lv_style_value_t v = lv_obj_get_style_prop(obj, part, LV_STYLE_IMG_RECOLOR);
 352:Drivers/lvgl/src/core/lv_obj_style_gen.h ****     return v.color;
 353:Drivers/lvgl/src/core/lv_obj_style_gen.h **** }
 354:Drivers/lvgl/src/core/lv_obj_style_gen.h **** 
 355:Drivers/lvgl/src/core/lv_obj_style_gen.h **** static inline lv_color_t lv_obj_get_style_img_recolor_filtered(const struct _lv_obj_t * obj, uint32
 356:Drivers/lvgl/src/core/lv_obj_style_gen.h **** {
 357:Drivers/lvgl/src/core/lv_obj_style_gen.h ****     lv_style_value_t v = _lv_obj_style_apply_color_filter(obj, part, lv_obj_get_style_prop(obj, par
 358:Drivers/lvgl/src/core/lv_obj_style_gen.h ****     return v.color;
 359:Drivers/lvgl/src/core/lv_obj_style_gen.h **** }
 360:Drivers/lvgl/src/core/lv_obj_style_gen.h **** 
 361:Drivers/lvgl/src/core/lv_obj_style_gen.h **** static inline lv_opa_t lv_obj_get_style_img_recolor_opa(const struct _lv_obj_t * obj, uint32_t part
 362:Drivers/lvgl/src/core/lv_obj_style_gen.h **** {
 363:Drivers/lvgl/src/core/lv_obj_style_gen.h ****     lv_style_value_t v = lv_obj_get_style_prop(obj, part, LV_STYLE_IMG_RECOLOR_OPA);
 364:Drivers/lvgl/src/core/lv_obj_style_gen.h ****     return (lv_opa_t)v.num;
 365:Drivers/lvgl/src/core/lv_obj_style_gen.h **** }
 366:Drivers/lvgl/src/core/lv_obj_style_gen.h **** 
 367:Drivers/lvgl/src/core/lv_obj_style_gen.h **** static inline lv_coord_t lv_obj_get_style_line_width(const struct _lv_obj_t * obj, uint32_t part)
 368:Drivers/lvgl/src/core/lv_obj_style_gen.h **** {
 369:Drivers/lvgl/src/core/lv_obj_style_gen.h ****     lv_style_value_t v = lv_obj_get_style_prop(obj, part, LV_STYLE_LINE_WIDTH);
 370:Drivers/lvgl/src/core/lv_obj_style_gen.h ****     return (lv_coord_t)v.num;
 371:Drivers/lvgl/src/core/lv_obj_style_gen.h **** }
 372:Drivers/lvgl/src/core/lv_obj_style_gen.h **** 
 373:Drivers/lvgl/src/core/lv_obj_style_gen.h **** static inline lv_coord_t lv_obj_get_style_line_dash_width(const struct _lv_obj_t * obj, uint32_t pa
 374:Drivers/lvgl/src/core/lv_obj_style_gen.h **** {
 375:Drivers/lvgl/src/core/lv_obj_style_gen.h ****     lv_style_value_t v = lv_obj_get_style_prop(obj, part, LV_STYLE_LINE_DASH_WIDTH);
 376:Drivers/lvgl/src/core/lv_obj_style_gen.h ****     return (lv_coord_t)v.num;
 377:Drivers/lvgl/src/core/lv_obj_style_gen.h **** }
 378:Drivers/lvgl/src/core/lv_obj_style_gen.h **** 
 379:Drivers/lvgl/src/core/lv_obj_style_gen.h **** static inline lv_coord_t lv_obj_get_style_line_dash_gap(const struct _lv_obj_t * obj, uint32_t part
 380:Drivers/lvgl/src/core/lv_obj_style_gen.h **** {
 381:Drivers/lvgl/src/core/lv_obj_style_gen.h ****     lv_style_value_t v = lv_obj_get_style_prop(obj, part, LV_STYLE_LINE_DASH_GAP);
 382:Drivers/lvgl/src/core/lv_obj_style_gen.h ****     return (lv_coord_t)v.num;
 383:Drivers/lvgl/src/core/lv_obj_style_gen.h **** }
 384:Drivers/lvgl/src/core/lv_obj_style_gen.h **** 
 385:Drivers/lvgl/src/core/lv_obj_style_gen.h **** static inline bool lv_obj_get_style_line_rounded(const struct _lv_obj_t * obj, uint32_t part)
 386:Drivers/lvgl/src/core/lv_obj_style_gen.h **** {
 387:Drivers/lvgl/src/core/lv_obj_style_gen.h ****     lv_style_value_t v = lv_obj_get_style_prop(obj, part, LV_STYLE_LINE_ROUNDED);
 388:Drivers/lvgl/src/core/lv_obj_style_gen.h ****     return (bool)v.num;
 389:Drivers/lvgl/src/core/lv_obj_style_gen.h **** }
 390:Drivers/lvgl/src/core/lv_obj_style_gen.h **** 
 391:Drivers/lvgl/src/core/lv_obj_style_gen.h **** static inline lv_color_t lv_obj_get_style_line_color(const struct _lv_obj_t * obj, uint32_t part)
 392:Drivers/lvgl/src/core/lv_obj_style_gen.h **** {
 393:Drivers/lvgl/src/core/lv_obj_style_gen.h ****     lv_style_value_t v = lv_obj_get_style_prop(obj, part, LV_STYLE_LINE_COLOR);
 394:Drivers/lvgl/src/core/lv_obj_style_gen.h ****     return v.color;
 395:Drivers/lvgl/src/core/lv_obj_style_gen.h **** }
 396:Drivers/lvgl/src/core/lv_obj_style_gen.h **** 
ARM GAS  /var/folders/0z/tsy30v1j4xl4_7kw94k978ww0000gn/T//ccuxxuhb.s 			page 64


 397:Drivers/lvgl/src/core/lv_obj_style_gen.h **** static inline lv_color_t lv_obj_get_style_line_color_filtered(const struct _lv_obj_t * obj, uint32_
 398:Drivers/lvgl/src/core/lv_obj_style_gen.h **** {
 399:Drivers/lvgl/src/core/lv_obj_style_gen.h ****     lv_style_value_t v = _lv_obj_style_apply_color_filter(obj, part, lv_obj_get_style_prop(obj, par
 400:Drivers/lvgl/src/core/lv_obj_style_gen.h ****     return v.color;
 401:Drivers/lvgl/src/core/lv_obj_style_gen.h **** }
 402:Drivers/lvgl/src/core/lv_obj_style_gen.h **** 
 403:Drivers/lvgl/src/core/lv_obj_style_gen.h **** static inline lv_opa_t lv_obj_get_style_line_opa(const struct _lv_obj_t * obj, uint32_t part)
 404:Drivers/lvgl/src/core/lv_obj_style_gen.h **** {
 405:Drivers/lvgl/src/core/lv_obj_style_gen.h ****     lv_style_value_t v = lv_obj_get_style_prop(obj, part, LV_STYLE_LINE_OPA);
 406:Drivers/lvgl/src/core/lv_obj_style_gen.h ****     return (lv_opa_t)v.num;
 407:Drivers/lvgl/src/core/lv_obj_style_gen.h **** }
 408:Drivers/lvgl/src/core/lv_obj_style_gen.h **** 
 409:Drivers/lvgl/src/core/lv_obj_style_gen.h **** static inline lv_coord_t lv_obj_get_style_arc_width(const struct _lv_obj_t * obj, uint32_t part)
 410:Drivers/lvgl/src/core/lv_obj_style_gen.h **** {
 411:Drivers/lvgl/src/core/lv_obj_style_gen.h ****     lv_style_value_t v = lv_obj_get_style_prop(obj, part, LV_STYLE_ARC_WIDTH);
 412:Drivers/lvgl/src/core/lv_obj_style_gen.h ****     return (lv_coord_t)v.num;
 413:Drivers/lvgl/src/core/lv_obj_style_gen.h **** }
 414:Drivers/lvgl/src/core/lv_obj_style_gen.h **** 
 415:Drivers/lvgl/src/core/lv_obj_style_gen.h **** static inline bool lv_obj_get_style_arc_rounded(const struct _lv_obj_t * obj, uint32_t part)
 416:Drivers/lvgl/src/core/lv_obj_style_gen.h **** {
 417:Drivers/lvgl/src/core/lv_obj_style_gen.h ****     lv_style_value_t v = lv_obj_get_style_prop(obj, part, LV_STYLE_ARC_ROUNDED);
 418:Drivers/lvgl/src/core/lv_obj_style_gen.h ****     return (bool)v.num;
 419:Drivers/lvgl/src/core/lv_obj_style_gen.h **** }
 420:Drivers/lvgl/src/core/lv_obj_style_gen.h **** 
 421:Drivers/lvgl/src/core/lv_obj_style_gen.h **** static inline lv_color_t lv_obj_get_style_arc_color(const struct _lv_obj_t * obj, uint32_t part)
 422:Drivers/lvgl/src/core/lv_obj_style_gen.h **** {
 423:Drivers/lvgl/src/core/lv_obj_style_gen.h ****     lv_style_value_t v = lv_obj_get_style_prop(obj, part, LV_STYLE_ARC_COLOR);
 424:Drivers/lvgl/src/core/lv_obj_style_gen.h ****     return v.color;
 425:Drivers/lvgl/src/core/lv_obj_style_gen.h **** }
 426:Drivers/lvgl/src/core/lv_obj_style_gen.h **** 
 427:Drivers/lvgl/src/core/lv_obj_style_gen.h **** static inline lv_color_t lv_obj_get_style_arc_color_filtered(const struct _lv_obj_t * obj, uint32_t
 428:Drivers/lvgl/src/core/lv_obj_style_gen.h **** {
 429:Drivers/lvgl/src/core/lv_obj_style_gen.h ****     lv_style_value_t v = _lv_obj_style_apply_color_filter(obj, part, lv_obj_get_style_prop(obj, par
 430:Drivers/lvgl/src/core/lv_obj_style_gen.h ****     return v.color;
 431:Drivers/lvgl/src/core/lv_obj_style_gen.h **** }
 432:Drivers/lvgl/src/core/lv_obj_style_gen.h **** 
 433:Drivers/lvgl/src/core/lv_obj_style_gen.h **** static inline lv_opa_t lv_obj_get_style_arc_opa(const struct _lv_obj_t * obj, uint32_t part)
 434:Drivers/lvgl/src/core/lv_obj_style_gen.h **** {
 435:Drivers/lvgl/src/core/lv_obj_style_gen.h ****     lv_style_value_t v = lv_obj_get_style_prop(obj, part, LV_STYLE_ARC_OPA);
 436:Drivers/lvgl/src/core/lv_obj_style_gen.h ****     return (lv_opa_t)v.num;
 437:Drivers/lvgl/src/core/lv_obj_style_gen.h **** }
 438:Drivers/lvgl/src/core/lv_obj_style_gen.h **** 
 439:Drivers/lvgl/src/core/lv_obj_style_gen.h **** static inline const void * lv_obj_get_style_arc_img_src(const struct _lv_obj_t * obj, uint32_t part
 440:Drivers/lvgl/src/core/lv_obj_style_gen.h **** {
 441:Drivers/lvgl/src/core/lv_obj_style_gen.h ****     lv_style_value_t v = lv_obj_get_style_prop(obj, part, LV_STYLE_ARC_IMG_SRC);
 442:Drivers/lvgl/src/core/lv_obj_style_gen.h ****     return (const void *)v.ptr;
 443:Drivers/lvgl/src/core/lv_obj_style_gen.h **** }
 444:Drivers/lvgl/src/core/lv_obj_style_gen.h **** 
 445:Drivers/lvgl/src/core/lv_obj_style_gen.h **** static inline lv_color_t lv_obj_get_style_text_color(const struct _lv_obj_t * obj, uint32_t part)
 446:Drivers/lvgl/src/core/lv_obj_style_gen.h **** {
 447:Drivers/lvgl/src/core/lv_obj_style_gen.h ****     lv_style_value_t v = lv_obj_get_style_prop(obj, part, LV_STYLE_TEXT_COLOR);
 448:Drivers/lvgl/src/core/lv_obj_style_gen.h ****     return v.color;
 449:Drivers/lvgl/src/core/lv_obj_style_gen.h **** }
 450:Drivers/lvgl/src/core/lv_obj_style_gen.h **** 
 451:Drivers/lvgl/src/core/lv_obj_style_gen.h **** static inline lv_color_t lv_obj_get_style_text_color_filtered(const struct _lv_obj_t * obj, uint32_
 452:Drivers/lvgl/src/core/lv_obj_style_gen.h **** {
 453:Drivers/lvgl/src/core/lv_obj_style_gen.h ****     lv_style_value_t v = _lv_obj_style_apply_color_filter(obj, part, lv_obj_get_style_prop(obj, par
ARM GAS  /var/folders/0z/tsy30v1j4xl4_7kw94k978ww0000gn/T//ccuxxuhb.s 			page 65


 454:Drivers/lvgl/src/core/lv_obj_style_gen.h ****     return v.color;
 455:Drivers/lvgl/src/core/lv_obj_style_gen.h **** }
 456:Drivers/lvgl/src/core/lv_obj_style_gen.h **** 
 457:Drivers/lvgl/src/core/lv_obj_style_gen.h **** static inline lv_opa_t lv_obj_get_style_text_opa(const struct _lv_obj_t * obj, uint32_t part)
 458:Drivers/lvgl/src/core/lv_obj_style_gen.h **** {
 459:Drivers/lvgl/src/core/lv_obj_style_gen.h ****     lv_style_value_t v = lv_obj_get_style_prop(obj, part, LV_STYLE_TEXT_OPA);
 460:Drivers/lvgl/src/core/lv_obj_style_gen.h ****     return (lv_opa_t)v.num;
 461:Drivers/lvgl/src/core/lv_obj_style_gen.h **** }
 462:Drivers/lvgl/src/core/lv_obj_style_gen.h **** 
 463:Drivers/lvgl/src/core/lv_obj_style_gen.h **** static inline const lv_font_t * lv_obj_get_style_text_font(const struct _lv_obj_t * obj, uint32_t p
 464:Drivers/lvgl/src/core/lv_obj_style_gen.h **** {
 465:Drivers/lvgl/src/core/lv_obj_style_gen.h ****     lv_style_value_t v = lv_obj_get_style_prop(obj, part, LV_STYLE_TEXT_FONT);
 466:Drivers/lvgl/src/core/lv_obj_style_gen.h ****     return (const lv_font_t *)v.ptr;
 467:Drivers/lvgl/src/core/lv_obj_style_gen.h **** }
 468:Drivers/lvgl/src/core/lv_obj_style_gen.h **** 
 469:Drivers/lvgl/src/core/lv_obj_style_gen.h **** static inline lv_coord_t lv_obj_get_style_text_letter_space(const struct _lv_obj_t * obj, uint32_t 
 470:Drivers/lvgl/src/core/lv_obj_style_gen.h **** {
 471:Drivers/lvgl/src/core/lv_obj_style_gen.h ****     lv_style_value_t v = lv_obj_get_style_prop(obj, part, LV_STYLE_TEXT_LETTER_SPACE);
 472:Drivers/lvgl/src/core/lv_obj_style_gen.h ****     return (lv_coord_t)v.num;
 473:Drivers/lvgl/src/core/lv_obj_style_gen.h **** }
 474:Drivers/lvgl/src/core/lv_obj_style_gen.h **** 
 475:Drivers/lvgl/src/core/lv_obj_style_gen.h **** static inline lv_coord_t lv_obj_get_style_text_line_space(const struct _lv_obj_t * obj, uint32_t pa
 476:Drivers/lvgl/src/core/lv_obj_style_gen.h **** {
 477:Drivers/lvgl/src/core/lv_obj_style_gen.h ****     lv_style_value_t v = lv_obj_get_style_prop(obj, part, LV_STYLE_TEXT_LINE_SPACE);
 478:Drivers/lvgl/src/core/lv_obj_style_gen.h ****     return (lv_coord_t)v.num;
 479:Drivers/lvgl/src/core/lv_obj_style_gen.h **** }
 480:Drivers/lvgl/src/core/lv_obj_style_gen.h **** 
 481:Drivers/lvgl/src/core/lv_obj_style_gen.h **** static inline lv_text_decor_t lv_obj_get_style_text_decor(const struct _lv_obj_t * obj, uint32_t pa
 482:Drivers/lvgl/src/core/lv_obj_style_gen.h **** {
 483:Drivers/lvgl/src/core/lv_obj_style_gen.h ****     lv_style_value_t v = lv_obj_get_style_prop(obj, part, LV_STYLE_TEXT_DECOR);
 484:Drivers/lvgl/src/core/lv_obj_style_gen.h ****     return (lv_text_decor_t)v.num;
 485:Drivers/lvgl/src/core/lv_obj_style_gen.h **** }
 486:Drivers/lvgl/src/core/lv_obj_style_gen.h **** 
 487:Drivers/lvgl/src/core/lv_obj_style_gen.h **** static inline lv_text_align_t lv_obj_get_style_text_align(const struct _lv_obj_t * obj, uint32_t pa
 488:Drivers/lvgl/src/core/lv_obj_style_gen.h **** {
 489:Drivers/lvgl/src/core/lv_obj_style_gen.h ****     lv_style_value_t v = lv_obj_get_style_prop(obj, part, LV_STYLE_TEXT_ALIGN);
 490:Drivers/lvgl/src/core/lv_obj_style_gen.h ****     return (lv_text_align_t)v.num;
 491:Drivers/lvgl/src/core/lv_obj_style_gen.h **** }
 492:Drivers/lvgl/src/core/lv_obj_style_gen.h **** 
 493:Drivers/lvgl/src/core/lv_obj_style_gen.h **** static inline lv_coord_t lv_obj_get_style_radius(const struct _lv_obj_t * obj, uint32_t part)
 494:Drivers/lvgl/src/core/lv_obj_style_gen.h **** {
 495:Drivers/lvgl/src/core/lv_obj_style_gen.h ****     lv_style_value_t v = lv_obj_get_style_prop(obj, part, LV_STYLE_RADIUS);
 496:Drivers/lvgl/src/core/lv_obj_style_gen.h ****     return (lv_coord_t)v.num;
 497:Drivers/lvgl/src/core/lv_obj_style_gen.h **** }
 498:Drivers/lvgl/src/core/lv_obj_style_gen.h **** 
 499:Drivers/lvgl/src/core/lv_obj_style_gen.h **** static inline bool lv_obj_get_style_clip_corner(const struct _lv_obj_t * obj, uint32_t part)
 500:Drivers/lvgl/src/core/lv_obj_style_gen.h **** {
 501:Drivers/lvgl/src/core/lv_obj_style_gen.h ****     lv_style_value_t v = lv_obj_get_style_prop(obj, part, LV_STYLE_CLIP_CORNER);
 502:Drivers/lvgl/src/core/lv_obj_style_gen.h ****     return (bool)v.num;
 503:Drivers/lvgl/src/core/lv_obj_style_gen.h **** }
 504:Drivers/lvgl/src/core/lv_obj_style_gen.h **** 
 505:Drivers/lvgl/src/core/lv_obj_style_gen.h **** static inline lv_opa_t lv_obj_get_style_opa(const struct _lv_obj_t * obj, uint32_t part)
 506:Drivers/lvgl/src/core/lv_obj_style_gen.h **** {
 507:Drivers/lvgl/src/core/lv_obj_style_gen.h ****     lv_style_value_t v = lv_obj_get_style_prop(obj, part, LV_STYLE_OPA);
 508:Drivers/lvgl/src/core/lv_obj_style_gen.h ****     return (lv_opa_t)v.num;
 509:Drivers/lvgl/src/core/lv_obj_style_gen.h **** }
 510:Drivers/lvgl/src/core/lv_obj_style_gen.h **** 
ARM GAS  /var/folders/0z/tsy30v1j4xl4_7kw94k978ww0000gn/T//ccuxxuhb.s 			page 66


 511:Drivers/lvgl/src/core/lv_obj_style_gen.h **** static inline lv_opa_t lv_obj_get_style_opa_layered(const struct _lv_obj_t * obj, uint32_t part)
 512:Drivers/lvgl/src/core/lv_obj_style_gen.h **** {
 513:Drivers/lvgl/src/core/lv_obj_style_gen.h ****     lv_style_value_t v = lv_obj_get_style_prop(obj, part, LV_STYLE_OPA_LAYERED);
 514:Drivers/lvgl/src/core/lv_obj_style_gen.h ****     return (lv_opa_t)v.num;
 515:Drivers/lvgl/src/core/lv_obj_style_gen.h **** }
 516:Drivers/lvgl/src/core/lv_obj_style_gen.h **** 
 517:Drivers/lvgl/src/core/lv_obj_style_gen.h **** static inline const lv_color_filter_dsc_t * lv_obj_get_style_color_filter_dsc(const struct _lv_obj_
 518:Drivers/lvgl/src/core/lv_obj_style_gen.h **** {
 519:Drivers/lvgl/src/core/lv_obj_style_gen.h ****     lv_style_value_t v = lv_obj_get_style_prop(obj, part, LV_STYLE_COLOR_FILTER_DSC);
 520:Drivers/lvgl/src/core/lv_obj_style_gen.h ****     return (const lv_color_filter_dsc_t *)v.ptr;
 521:Drivers/lvgl/src/core/lv_obj_style_gen.h **** }
 522:Drivers/lvgl/src/core/lv_obj_style_gen.h **** 
 523:Drivers/lvgl/src/core/lv_obj_style_gen.h **** static inline lv_opa_t lv_obj_get_style_color_filter_opa(const struct _lv_obj_t * obj, uint32_t par
 524:Drivers/lvgl/src/core/lv_obj_style_gen.h **** {
 525:Drivers/lvgl/src/core/lv_obj_style_gen.h ****     lv_style_value_t v = lv_obj_get_style_prop(obj, part, LV_STYLE_COLOR_FILTER_OPA);
 526:Drivers/lvgl/src/core/lv_obj_style_gen.h ****     return (lv_opa_t)v.num;
 527:Drivers/lvgl/src/core/lv_obj_style_gen.h **** }
 528:Drivers/lvgl/src/core/lv_obj_style_gen.h **** 
 529:Drivers/lvgl/src/core/lv_obj_style_gen.h **** static inline const lv_anim_t * lv_obj_get_style_anim(const struct _lv_obj_t * obj, uint32_t part)
 530:Drivers/lvgl/src/core/lv_obj_style_gen.h **** {
 531:Drivers/lvgl/src/core/lv_obj_style_gen.h ****     lv_style_value_t v = lv_obj_get_style_prop(obj, part, LV_STYLE_ANIM);
 532:Drivers/lvgl/src/core/lv_obj_style_gen.h ****     return (const lv_anim_t *)v.ptr;
 533:Drivers/lvgl/src/core/lv_obj_style_gen.h **** }
 534:Drivers/lvgl/src/core/lv_obj_style_gen.h **** 
 535:Drivers/lvgl/src/core/lv_obj_style_gen.h **** static inline uint32_t lv_obj_get_style_anim_time(const struct _lv_obj_t * obj, uint32_t part)
 536:Drivers/lvgl/src/core/lv_obj_style_gen.h **** {
 537:Drivers/lvgl/src/core/lv_obj_style_gen.h ****     lv_style_value_t v = lv_obj_get_style_prop(obj, part, LV_STYLE_ANIM_TIME);
 538:Drivers/lvgl/src/core/lv_obj_style_gen.h ****     return (uint32_t)v.num;
 539:Drivers/lvgl/src/core/lv_obj_style_gen.h **** }
 540:Drivers/lvgl/src/core/lv_obj_style_gen.h **** 
 541:Drivers/lvgl/src/core/lv_obj_style_gen.h **** static inline uint32_t lv_obj_get_style_anim_speed(const struct _lv_obj_t * obj, uint32_t part)
 542:Drivers/lvgl/src/core/lv_obj_style_gen.h **** {
 543:Drivers/lvgl/src/core/lv_obj_style_gen.h ****     lv_style_value_t v = lv_obj_get_style_prop(obj, part, LV_STYLE_ANIM_SPEED);
 544:Drivers/lvgl/src/core/lv_obj_style_gen.h ****     return (uint32_t)v.num;
 545:Drivers/lvgl/src/core/lv_obj_style_gen.h **** }
 546:Drivers/lvgl/src/core/lv_obj_style_gen.h **** 
 547:Drivers/lvgl/src/core/lv_obj_style_gen.h **** static inline const lv_style_transition_dsc_t * lv_obj_get_style_transition(const struct _lv_obj_t 
 548:Drivers/lvgl/src/core/lv_obj_style_gen.h **** {
 549:Drivers/lvgl/src/core/lv_obj_style_gen.h ****     lv_style_value_t v = lv_obj_get_style_prop(obj, part, LV_STYLE_TRANSITION);
 550:Drivers/lvgl/src/core/lv_obj_style_gen.h ****     return (const lv_style_transition_dsc_t *)v.ptr;
 551:Drivers/lvgl/src/core/lv_obj_style_gen.h **** }
 552:Drivers/lvgl/src/core/lv_obj_style_gen.h **** 
 553:Drivers/lvgl/src/core/lv_obj_style_gen.h **** static inline lv_blend_mode_t lv_obj_get_style_blend_mode(const struct _lv_obj_t * obj, uint32_t pa
 554:Drivers/lvgl/src/core/lv_obj_style_gen.h **** {
 555:Drivers/lvgl/src/core/lv_obj_style_gen.h ****     lv_style_value_t v = lv_obj_get_style_prop(obj, part, LV_STYLE_BLEND_MODE);
 556:Drivers/lvgl/src/core/lv_obj_style_gen.h ****     return (lv_blend_mode_t)v.num;
 557:Drivers/lvgl/src/core/lv_obj_style_gen.h **** }
 558:Drivers/lvgl/src/core/lv_obj_style_gen.h **** 
 559:Drivers/lvgl/src/core/lv_obj_style_gen.h **** static inline uint16_t lv_obj_get_style_layout(const struct _lv_obj_t * obj, uint32_t part)
 1532              		.loc 2 559 24 view .LVU435
 1533              	.LBB652:
 560:Drivers/lvgl/src/core/lv_obj_style_gen.h **** {
 561:Drivers/lvgl/src/core/lv_obj_style_gen.h ****     lv_style_value_t v = lv_obj_get_style_prop(obj, part, LV_STYLE_LAYOUT);
 1534              		.loc 2 561 5 view .LVU436
 1535              		.loc 2 561 26 is_stmt 0 view .LVU437
 1536 001c 0A22     		movs	r2, #10
 1537 001e 2146     		mov	r1, r4
ARM GAS  /var/folders/0z/tsy30v1j4xl4_7kw94k978ww0000gn/T//ccuxxuhb.s 			page 67


 1538 0020 FFF7FEFF 		bl	lv_obj_get_style_prop
 1539              	.LVL112:
 562:Drivers/lvgl/src/core/lv_obj_style_gen.h ****     return (uint16_t)v.num;
 1540              		.loc 2 562 5 is_stmt 1 view .LVU438
 1541              		.loc 2 562 5 is_stmt 0 view .LVU439
 1542              	.LBE652:
 1543              	.LBE651:
 284:Drivers/lvgl/src/core/lv_obj_pos.c ****     else return false;
 1544              		.loc 1 284 5 is_stmt 1 view .LVU440
 284:Drivers/lvgl/src/core/lv_obj_pos.c ****     else return false;
 1545              		.loc 1 284 7 is_stmt 0 view .LVU441
 1546 0024 80B2     		uxth	r0, r0
 1547              	.LVL113:
 284:Drivers/lvgl/src/core/lv_obj_pos.c ****     else return false;
 1548              		.loc 1 284 7 view .LVU442
 1549 0026 0038     		subs	r0, r0, #0
 1550 0028 18BF     		it	ne
 1551 002a 0120     		movne	r0, #1
 1552              	.LVL114:
 284:Drivers/lvgl/src/core/lv_obj_pos.c ****     else return false;
 1553              		.loc 1 284 7 view .LVU443
 1554              	.LBE650:
 1555              	.LBE649:
 286:Drivers/lvgl/src/core/lv_obj_pos.c **** 
 1556              		.loc 1 286 1 view .LVU444
 1557 002c 38BD     		pop	{r3, r4, r5, pc}
 1558              	.LVL115:
 1559              	.L96:
 286:Drivers/lvgl/src/core/lv_obj_pos.c **** 
 1560              		.loc 1 286 1 view .LVU445
 1561 002e 00BF     		.align	2
 1562              	.L95:
 1563 0030 01000600 		.word	393217
 1564              		.cfi_endproc
 1565              	.LFE177:
 1567              		.section	.text.lv_obj_mark_layout_as_dirty,"ax",%progbits
 1568              		.align	1
 1569              		.p2align 2,,3
 1570              		.global	lv_obj_mark_layout_as_dirty
 1571              		.syntax unified
 1572              		.thumb
 1573              		.thumb_func
 1575              	lv_obj_mark_layout_as_dirty:
 1576              	.LVL116:
 1577              	.LFB178:
 289:Drivers/lvgl/src/core/lv_obj_pos.c ****     obj->layout_inv = 1;
 1578              		.loc 1 289 1 is_stmt 1 view -0
 1579              		.cfi_startproc
 1580              		@ args = 0, pretend = 0, frame = 0
 1581              		@ frame_needed = 0, uses_anonymous_args = 0
 290:Drivers/lvgl/src/core/lv_obj_pos.c **** 
 1582              		.loc 1 290 5 view .LVU447
 290:Drivers/lvgl/src/core/lv_obj_pos.c **** 
 1583              		.loc 1 290 21 is_stmt 0 view .LVU448
 1584 0000 90F82220 		ldrb	r2, [r0, #34]	@ zero_extendqisi2
 1585 0004 42F00102 		orr	r2, r2, #1
 289:Drivers/lvgl/src/core/lv_obj_pos.c ****     obj->layout_inv = 1;
ARM GAS  /var/folders/0z/tsy30v1j4xl4_7kw94k978ww0000gn/T//ccuxxuhb.s 			page 68


 1586              		.loc 1 289 1 view .LVU449
 1587 0008 08B5     		push	{r3, lr}
 1588              		.cfi_def_cfa_offset 8
 1589              		.cfi_offset 3, -8
 1590              		.cfi_offset 14, -4
 290:Drivers/lvgl/src/core/lv_obj_pos.c **** 
 1591              		.loc 1 290 21 view .LVU450
 1592 000a 80F82220 		strb	r2, [r0, #34]
 293:Drivers/lvgl/src/core/lv_obj_pos.c ****     scr->scr_layout_inv = 1;
 1593              		.loc 1 293 5 is_stmt 1 view .LVU451
 293:Drivers/lvgl/src/core/lv_obj_pos.c ****     scr->scr_layout_inv = 1;
 1594              		.loc 1 293 22 is_stmt 0 view .LVU452
 1595 000e FFF7FEFF 		bl	lv_obj_get_screen
 1596              	.LVL117:
 294:Drivers/lvgl/src/core/lv_obj_pos.c **** 
 1597              		.loc 1 294 5 is_stmt 1 view .LVU453
 294:Drivers/lvgl/src/core/lv_obj_pos.c **** 
 1598              		.loc 1 294 25 is_stmt 0 view .LVU454
 1599 0012 90F82220 		ldrb	r2, [r0, #34]	@ zero_extendqisi2
 1600 0016 42F00402 		orr	r2, r2, #4
 1601 001a 80F82220 		strb	r2, [r0, #34]
 297:Drivers/lvgl/src/core/lv_obj_pos.c ****     if(disp->refr_timer) lv_timer_resume(disp->refr_timer);
 1602              		.loc 1 297 5 is_stmt 1 view .LVU455
 297:Drivers/lvgl/src/core/lv_obj_pos.c ****     if(disp->refr_timer) lv_timer_resume(disp->refr_timer);
 1603              		.loc 1 297 24 is_stmt 0 view .LVU456
 1604 001e FFF7FEFF 		bl	lv_obj_get_disp
 1605              	.LVL118:
 298:Drivers/lvgl/src/core/lv_obj_pos.c **** }
 1606              		.loc 1 298 5 is_stmt 1 view .LVU457
 298:Drivers/lvgl/src/core/lv_obj_pos.c **** }
 1607              		.loc 1 298 12 is_stmt 0 view .LVU458
 1608 0022 4068     		ldr	r0, [r0, #4]
 1609              	.LVL119:
 298:Drivers/lvgl/src/core/lv_obj_pos.c **** }
 1610              		.loc 1 298 7 view .LVU459
 1611 0024 18B1     		cbz	r0, .L97
 298:Drivers/lvgl/src/core/lv_obj_pos.c **** }
 1612              		.loc 1 298 26 is_stmt 1 discriminator 1 view .LVU460
 299:Drivers/lvgl/src/core/lv_obj_pos.c **** 
 1613              		.loc 1 299 1 is_stmt 0 discriminator 1 view .LVU461
 1614 0026 BDE80840 		pop	{r3, lr}
 1615              		.cfi_remember_state
 1616              		.cfi_restore 14
 1617              		.cfi_restore 3
 1618              		.cfi_def_cfa_offset 0
 298:Drivers/lvgl/src/core/lv_obj_pos.c **** }
 1619              		.loc 1 298 26 discriminator 1 view .LVU462
 1620 002a FFF7FEBF 		b	lv_timer_resume
 1621              	.LVL120:
 1622              	.L97:
 1623              		.cfi_restore_state
 299:Drivers/lvgl/src/core/lv_obj_pos.c **** 
 1624              		.loc 1 299 1 view .LVU463
 1625 002e 08BD     		pop	{r3, pc}
 1626              		.cfi_endproc
 1627              	.LFE178:
 1629              		.section	.text.lv_layout_register,"ax",%progbits
ARM GAS  /var/folders/0z/tsy30v1j4xl4_7kw94k978ww0000gn/T//ccuxxuhb.s 			page 69


 1630              		.align	1
 1631              		.p2align 2,,3
 1632              		.global	lv_layout_register
 1633              		.syntax unified
 1634              		.thumb
 1635              		.thumb_func
 1637              	lv_layout_register:
 1638              	.LVL121:
 1639              	.LFB180:
 324:Drivers/lvgl/src/core/lv_obj_pos.c ****     layout_cnt++;
 1640              		.loc 1 324 1 is_stmt 1 view -0
 1641              		.cfi_startproc
 1642              		@ args = 0, pretend = 0, frame = 0
 1643              		@ frame_needed = 0, uses_anonymous_args = 0
 325:Drivers/lvgl/src/core/lv_obj_pos.c ****     LV_GC_ROOT(_lv_layout_list) = lv_mem_realloc(LV_GC_ROOT(_lv_layout_list), layout_cnt * sizeof(l
 1644              		.loc 1 325 5 view .LVU465
 324:Drivers/lvgl/src/core/lv_obj_pos.c ****     layout_cnt++;
 1645              		.loc 1 324 1 is_stmt 0 view .LVU466
 1646 0000 F8B5     		push	{r3, r4, r5, r6, r7, lr}
 1647              		.cfi_def_cfa_offset 24
 1648              		.cfi_offset 3, -24
 1649              		.cfi_offset 4, -20
 1650              		.cfi_offset 5, -16
 1651              		.cfi_offset 6, -12
 1652              		.cfi_offset 7, -8
 1653              		.cfi_offset 14, -4
 325:Drivers/lvgl/src/core/lv_obj_pos.c ****     LV_GC_ROOT(_lv_layout_list) = lv_mem_realloc(LV_GC_ROOT(_lv_layout_list), layout_cnt * sizeof(l
 1654              		.loc 1 325 15 view .LVU467
 1655 0002 0C4E     		ldr	r6, .L104
 326:Drivers/lvgl/src/core/lv_obj_pos.c ****     LV_ASSERT_MALLOC(LV_GC_ROOT(_lv_layout_list));
 1656              		.loc 1 326 35 view .LVU468
 1657 0004 0C4F     		ldr	r7, .L104+4
 325:Drivers/lvgl/src/core/lv_obj_pos.c ****     LV_GC_ROOT(_lv_layout_list) = lv_mem_realloc(LV_GC_ROOT(_lv_layout_list), layout_cnt * sizeof(l
 1658              		.loc 1 325 15 view .LVU469
 1659 0006 3368     		ldr	r3, [r6]
 1660 0008 0133     		adds	r3, r3, #1
 324:Drivers/lvgl/src/core/lv_obj_pos.c ****     layout_cnt++;
 1661              		.loc 1 324 1 view .LVU470
 1662 000a 0546     		mov	r5, r0
 1663 000c 0C46     		mov	r4, r1
 326:Drivers/lvgl/src/core/lv_obj_pos.c ****     LV_ASSERT_MALLOC(LV_GC_ROOT(_lv_layout_list));
 1664              		.loc 1 326 35 view .LVU471
 1665 000e 3868     		ldr	r0, [r7]
 1666              	.LVL122:
 325:Drivers/lvgl/src/core/lv_obj_pos.c ****     LV_GC_ROOT(_lv_layout_list) = lv_mem_realloc(LV_GC_ROOT(_lv_layout_list), layout_cnt * sizeof(l
 1667              		.loc 1 325 15 view .LVU472
 1668 0010 3360     		str	r3, [r6]
 326:Drivers/lvgl/src/core/lv_obj_pos.c ****     LV_ASSERT_MALLOC(LV_GC_ROOT(_lv_layout_list));
 1669              		.loc 1 326 5 is_stmt 1 view .LVU473
 326:Drivers/lvgl/src/core/lv_obj_pos.c ****     LV_ASSERT_MALLOC(LV_GC_ROOT(_lv_layout_list));
 1670              		.loc 1 326 35 is_stmt 0 view .LVU474
 1671 0012 D900     		lsls	r1, r3, #3
 1672              	.LVL123:
 326:Drivers/lvgl/src/core/lv_obj_pos.c ****     LV_ASSERT_MALLOC(LV_GC_ROOT(_lv_layout_list));
 1673              		.loc 1 326 35 view .LVU475
 1674 0014 FFF7FEFF 		bl	lv_mem_realloc
 1675              	.LVL124:
ARM GAS  /var/folders/0z/tsy30v1j4xl4_7kw94k978ww0000gn/T//ccuxxuhb.s 			page 70


 326:Drivers/lvgl/src/core/lv_obj_pos.c ****     LV_ASSERT_MALLOC(LV_GC_ROOT(_lv_layout_list));
 1676              		.loc 1 326 33 view .LVU476
 1677 0018 3860     		str	r0, [r7]
 327:Drivers/lvgl/src/core/lv_obj_pos.c **** 
 1678              		.loc 1 327 5 is_stmt 1 view .LVU477
 327:Drivers/lvgl/src/core/lv_obj_pos.c **** 
 1679              		.loc 1 327 5 view .LVU478
 1680 001a 50B1     		cbz	r0, .L102
 327:Drivers/lvgl/src/core/lv_obj_pos.c **** 
 1681              		.loc 1 327 5 discriminator 2 view .LVU479
 327:Drivers/lvgl/src/core/lv_obj_pos.c **** 
 1682              		.loc 1 327 50 discriminator 2 view .LVU480
 329:Drivers/lvgl/src/core/lv_obj_pos.c ****     LV_GC_ROOT(_lv_layout_list)[layout_cnt - 1].user_data = user_data;
 1683              		.loc 1 329 5 discriminator 2 view .LVU481
 1684 001c 0346     		mov	r3, r0
 329:Drivers/lvgl/src/core/lv_obj_pos.c ****     LV_GC_ROOT(_lv_layout_list)[layout_cnt - 1].user_data = user_data;
 1685              		.loc 1 329 32 is_stmt 0 discriminator 2 view .LVU482
 1686 001e 3068     		ldr	r0, [r6]
 1687 0020 00F10052 		add	r2, r0, #536870912
 1688 0024 013A     		subs	r2, r2, #1
 329:Drivers/lvgl/src/core/lv_obj_pos.c ****     LV_GC_ROOT(_lv_layout_list)[layout_cnt - 1].user_data = user_data;
 1689              		.loc 1 329 52 discriminator 2 view .LVU483
 1690 0026 43F83250 		str	r5, [r3, r2, lsl #3]
 330:Drivers/lvgl/src/core/lv_obj_pos.c ****     return layout_cnt;  /*No -1 to skip 0th index*/
 1691              		.loc 1 330 5 is_stmt 1 discriminator 2 view .LVU484
 329:Drivers/lvgl/src/core/lv_obj_pos.c ****     LV_GC_ROOT(_lv_layout_list)[layout_cnt - 1].user_data = user_data;
